Archive member included because of file (symbol)

/nfs/nfs5/home/research/hardware/arm2/gcc-arm-embedded/gcc-arm-none-eabi-4_8-2014q2/bin/../lib/gcc/arm-none-eabi/4.8.4/../../../../arm-none-eabi/lib/armv7e-m/libc.a(lib_a-atoi.o)
                              build/obj/sensor_service.o (atoi)
/nfs/nfs5/home/research/hardware/arm2/gcc-arm-embedded/gcc-arm-none-eabi-4_8-2014q2/bin/../lib/gcc/arm-none-eabi/4.8.4/../../../../arm-none-eabi/lib/armv7e-m/libc.a(lib_a-malloc.o)
                              build/obj/usbd_cdc.o (malloc)
/nfs/nfs5/home/research/hardware/arm2/gcc-arm-embedded/gcc-arm-none-eabi-4_8-2014q2/bin/../lib/gcc/arm-none-eabi/4.8.4/../../../../arm-none-eabi/lib/armv7e-m/libc.a(lib_a-mallocr.o)
                              /nfs/nfs5/home/research/hardware/arm2/gcc-arm-embedded/gcc-arm-none-eabi-4_8-2014q2/bin/../lib/gcc/arm-none-eabi/4.8.4/../../../../arm-none-eabi/lib/armv7e-m/libc.a(lib_a-malloc.o) (_malloc_r)
/nfs/nfs5/home/research/hardware/arm2/gcc-arm-embedded/gcc-arm-none-eabi-4_8-2014q2/bin/../lib/gcc/arm-none-eabi/4.8.4/../../../../arm-none-eabi/lib/armv7e-m/libc.a(lib_a-memcmp.o)
                              build/obj/bluenrg_utils.o (memcmp)
/nfs/nfs5/home/research/hardware/arm2/gcc-arm-embedded/gcc-arm-none-eabi-4_8-2014q2/bin/../lib/gcc/arm-none-eabi/4.8.4/../../../../arm-none-eabi/lib/armv7e-m/libc.a(lib_a-memcpy.o)
                              build/obj/osal.o (memcpy)
/nfs/nfs5/home/research/hardware/arm2/gcc-arm-embedded/gcc-arm-none-eabi-4_8-2014q2/bin/../lib/gcc/arm-none-eabi/4.8.4/../../../../arm-none-eabi/lib/armv7e-m/libc.a(lib_a-memset.o)
                              build/obj/osal.o (memset)
/nfs/nfs5/home/research/hardware/arm2/gcc-arm-embedded/gcc-arm-none-eabi-4_8-2014q2/bin/../lib/gcc/arm-none-eabi/4.8.4/../../../../arm-none-eabi/lib/armv7e-m/libc.a(lib_a-mlock.o)
                              /nfs/nfs5/home/research/hardware/arm2/gcc-arm-embedded/gcc-arm-none-eabi-4_8-2014q2/bin/../lib/gcc/arm-none-eabi/4.8.4/../../../../arm-none-eabi/lib/armv7e-m/libc.a(lib_a-mallocr.o) (__malloc_lock)
/nfs/nfs5/home/research/hardware/arm2/gcc-arm-embedded/gcc-arm-none-eabi-4_8-2014q2/bin/../lib/gcc/arm-none-eabi/4.8.4/../../../../arm-none-eabi/lib/armv7e-m/libc.a(lib_a-printf.o)
                              build/obj/HTS221_Driver.o (printf)
/nfs/nfs5/home/research/hardware/arm2/gcc-arm-embedded/gcc-arm-none-eabi-4_8-2014q2/bin/../lib/gcc/arm-none-eabi/4.8.4/../../../../arm-none-eabi/lib/armv7e-m/libc.a(lib_a-sbrkr.o)
                              /nfs/nfs5/home/research/hardware/arm2/gcc-arm-embedded/gcc-arm-none-eabi-4_8-2014q2/bin/../lib/gcc/arm-none-eabi/4.8.4/../../../../arm-none-eabi/lib/armv7e-m/libc.a(lib_a-mallocr.o) (_sbrk_r)
/nfs/nfs5/home/research/hardware/arm2/gcc-arm-embedded/gcc-arm-none-eabi-4_8-2014q2/bin/../lib/gcc/arm-none-eabi/4.8.4/../../../../arm-none-eabi/lib/armv7e-m/libc.a(lib_a-sprintf.o)
                              build/obj/sensor_service.o (sprintf)
/nfs/nfs5/home/research/hardware/arm2/gcc-arm-embedded/gcc-arm-none-eabi-4_8-2014q2/bin/../lib/gcc/arm-none-eabi/4.8.4/../../../../arm-none-eabi/lib/armv7e-m/libc.a(lib_a-strcmp.o)
                              build/obj/shell.o (strcmp)
/nfs/nfs5/home/research/hardware/arm2/gcc-arm-embedded/gcc-arm-none-eabi-4_8-2014q2/bin/../lib/gcc/arm-none-eabi/4.8.4/../../../../arm-none-eabi/lib/armv7e-m/libc.a(lib_a-strncmp.o)
                              build/obj/sensor_service.o (strncmp)
/nfs/nfs5/home/research/hardware/arm2/gcc-arm-embedded/gcc-arm-none-eabi-4_8-2014q2/bin/../lib/gcc/arm-none-eabi/4.8.4/../../../../arm-none-eabi/lib/armv7e-m/libc.a(lib_a-strpbrk.o)
                              build/obj/shell.o (strpbrk)
/nfs/nfs5/home/research/hardware/arm2/gcc-arm-embedded/gcc-arm-none-eabi-4_8-2014q2/bin/../lib/gcc/arm-none-eabi/4.8.4/../../../../arm-none-eabi/lib/armv7e-m/libc.a(lib_a-strspn.o)
                              build/obj/shell.o (strspn)
/nfs/nfs5/home/research/hardware/arm2/gcc-arm-embedded/gcc-arm-none-eabi-4_8-2014q2/bin/../lib/gcc/arm-none-eabi/4.8.4/../../../../arm-none-eabi/lib/armv7e-m/libc.a(lib_a-strtol.o)
                              /nfs/nfs5/home/research/hardware/arm2/gcc-arm-embedded/gcc-arm-none-eabi-4_8-2014q2/bin/../lib/gcc/arm-none-eabi/4.8.4/../../../../arm-none-eabi/lib/armv7e-m/libc.a(lib_a-atoi.o) (_strtol_r)
/nfs/nfs5/home/research/hardware/arm2/gcc-arm-embedded/gcc-arm-none-eabi-4_8-2014q2/bin/../lib/gcc/arm-none-eabi/4.8.4/../../../../arm-none-eabi/lib/armv7e-m/libc.a(lib_a-svfprintf.o)
                              /nfs/nfs5/home/research/hardware/arm2/gcc-arm-embedded/gcc-arm-none-eabi-4_8-2014q2/bin/../lib/gcc/arm-none-eabi/4.8.4/../../../../arm-none-eabi/lib/armv7e-m/libc.a(lib_a-sprintf.o) (_svfprintf_r)
/nfs/nfs5/home/research/hardware/arm2/gcc-arm-embedded/gcc-arm-none-eabi-4_8-2014q2/bin/../lib/gcc/arm-none-eabi/4.8.4/../../../../arm-none-eabi/lib/armv7e-m/libc.a(lib_a-vfprintf.o)
                              /nfs/nfs5/home/research/hardware/arm2/gcc-arm-embedded/gcc-arm-none-eabi-4_8-2014q2/bin/../lib/gcc/arm-none-eabi/4.8.4/../../../../arm-none-eabi/lib/armv7e-m/libc.a(lib_a-printf.o) (_vfprintf_r)
/nfs/nfs5/home/research/hardware/arm2/gcc-arm-embedded/gcc-arm-none-eabi-4_8-2014q2/bin/../lib/gcc/arm-none-eabi/4.8.4/../../../../arm-none-eabi/lib/armv7e-m/libc.a(lib_a-wsetup.o)
                              /nfs/nfs5/home/research/hardware/arm2/gcc-arm-embedded/gcc-arm-none-eabi-4_8-2014q2/bin/../lib/gcc/arm-none-eabi/4.8.4/../../../../arm-none-eabi/lib/armv7e-m/libc.a(lib_a-vfprintf.o) (__swsetup_r)
/nfs/nfs5/home/research/hardware/arm2/gcc-arm-embedded/gcc-arm-none-eabi-4_8-2014q2/bin/../lib/gcc/arm-none-eabi/4.8.4/../../../../arm-none-eabi/lib/armv7e-m/libc.a(lib_a-ctype_.o)
                              /nfs/nfs5/home/research/hardware/arm2/gcc-arm-embedded/gcc-arm-none-eabi-4_8-2014q2/bin/../lib/gcc/arm-none-eabi/4.8.4/../../../../arm-none-eabi/lib/armv7e-m/libc.a(lib_a-strtol.o) (__ctype_ptr__)
/nfs/nfs5/home/research/hardware/arm2/gcc-arm-embedded/gcc-arm-none-eabi-4_8-2014q2/bin/../lib/gcc/arm-none-eabi/4.8.4/../../../../arm-none-eabi/lib/armv7e-m/libc.a(lib_a-dtoa.o)
                              /nfs/nfs5/home/research/hardware/arm2/gcc-arm-embedded/gcc-arm-none-eabi-4_8-2014q2/bin/../lib/gcc/arm-none-eabi/4.8.4/../../../../arm-none-eabi/lib/armv7e-m/libc.a(lib_a-svfprintf.o) (_dtoa_r)
/nfs/nfs5/home/research/hardware/arm2/gcc-arm-embedded/gcc-arm-none-eabi-4_8-2014q2/bin/../lib/gcc/arm-none-eabi/4.8.4/../../../../arm-none-eabi/lib/armv7e-m/libc.a(lib_a-fflush.o)
                              /nfs/nfs5/home/research/hardware/arm2/gcc-arm-embedded/gcc-arm-none-eabi-4_8-2014q2/bin/../lib/gcc/arm-none-eabi/4.8.4/../../../../arm-none-eabi/lib/armv7e-m/libc.a(lib_a-vfprintf.o) (_fflush_r)
/nfs/nfs5/home/research/hardware/arm2/gcc-arm-embedded/gcc-arm-none-eabi-4_8-2014q2/bin/../lib/gcc/arm-none-eabi/4.8.4/../../../../arm-none-eabi/lib/armv7e-m/libc.a(lib_a-findfp.o)
                              /nfs/nfs5/home/research/hardware/arm2/gcc-arm-embedded/gcc-arm-none-eabi-4_8-2014q2/bin/../lib/gcc/arm-none-eabi/4.8.4/../../../../arm-none-eabi/lib/armv7e-m/libc.a(lib_a-vfprintf.o) (__sinit)
/nfs/nfs5/home/research/hardware/arm2/gcc-arm-embedded/gcc-arm-none-eabi-4_8-2014q2/bin/../lib/gcc/arm-none-eabi/4.8.4/../../../../arm-none-eabi/lib/armv7e-m/libc.a(lib_a-freer.o)
                              /nfs/nfs5/home/research/hardware/arm2/gcc-arm-embedded/gcc-arm-none-eabi-4_8-2014q2/bin/../lib/gcc/arm-none-eabi/4.8.4/../../../../arm-none-eabi/lib/armv7e-m/libc.a(lib_a-malloc.o) (_free_r)
/nfs/nfs5/home/research/hardware/arm2/gcc-arm-embedded/gcc-arm-none-eabi-4_8-2014q2/bin/../lib/gcc/arm-none-eabi/4.8.4/../../../../arm-none-eabi/lib/armv7e-m/libc.a(lib_a-fwalk.o)
                              /nfs/nfs5/home/research/hardware/arm2/gcc-arm-embedded/gcc-arm-none-eabi-4_8-2014q2/bin/../lib/gcc/arm-none-eabi/4.8.4/../../../../arm-none-eabi/lib/armv7e-m/libc.a(lib_a-findfp.o) (_fwalk)
/nfs/nfs5/home/research/hardware/arm2/gcc-arm-embedded/gcc-arm-none-eabi-4_8-2014q2/bin/../lib/gcc/arm-none-eabi/4.8.4/../../../../arm-none-eabi/lib/armv7e-m/libc.a(lib_a-impure.o)
                              /nfs/nfs5/home/research/hardware/arm2/gcc-arm-embedded/gcc-arm-none-eabi-4_8-2014q2/bin/../lib/gcc/arm-none-eabi/4.8.4/../../../../arm-none-eabi/lib/armv7e-m/libc.a(lib_a-fflush.o) (_global_impure_ptr)
/nfs/nfs5/home/research/hardware/arm2/gcc-arm-embedded/gcc-arm-none-eabi-4_8-2014q2/bin/../lib/gcc/arm-none-eabi/4.8.4/../../../../arm-none-eabi/lib/armv7e-m/libc.a(lib_a-locale.o)
                              /nfs/nfs5/home/research/hardware/arm2/gcc-arm-embedded/gcc-arm-none-eabi-4_8-2014q2/bin/../lib/gcc/arm-none-eabi/4.8.4/../../../../arm-none-eabi/lib/armv7e-m/libc.a(lib_a-svfprintf.o) (_localeconv_r)
/nfs/nfs5/home/research/hardware/arm2/gcc-arm-embedded/gcc-arm-none-eabi-4_8-2014q2/bin/../lib/gcc/arm-none-eabi/4.8.4/../../../../arm-none-eabi/lib/armv7e-m/libc.a(lib_a-makebuf.o)
                              /nfs/nfs5/home/research/hardware/arm2/gcc-arm-embedded/gcc-arm-none-eabi-4_8-2014q2/bin/../lib/gcc/arm-none-eabi/4.8.4/../../../../arm-none-eabi/lib/armv7e-m/libc.a(lib_a-wsetup.o) (__smakebuf_r)
/nfs/nfs5/home/research/hardware/arm2/gcc-arm-embedded/gcc-arm-none-eabi-4_8-2014q2/bin/../lib/gcc/arm-none-eabi/4.8.4/../../../../arm-none-eabi/lib/armv7e-m/libc.a(lib_a-memchr-stub.o)
                              /nfs/nfs5/home/research/hardware/arm2/gcc-arm-embedded/gcc-arm-none-eabi-4_8-2014q2/bin/../lib/gcc/arm-none-eabi/4.8.4/../../../../arm-none-eabi/lib/armv7e-m/libc.a(lib_a-svfprintf.o) (memchr)
/nfs/nfs5/home/research/hardware/arm2/gcc-arm-embedded/gcc-arm-none-eabi-4_8-2014q2/bin/../lib/gcc/arm-none-eabi/4.8.4/../../../../arm-none-eabi/lib/armv7e-m/libc.a(lib_a-mprec.o)
                              /nfs/nfs5/home/research/hardware/arm2/gcc-arm-embedded/gcc-arm-none-eabi-4_8-2014q2/bin/../lib/gcc/arm-none-eabi/4.8.4/../../../../arm-none-eabi/lib/armv7e-m/libc.a(lib_a-dtoa.o) (_Balloc)
/nfs/nfs5/home/research/hardware/arm2/gcc-arm-embedded/gcc-arm-none-eabi-4_8-2014q2/bin/../lib/gcc/arm-none-eabi/4.8.4/../../../../arm-none-eabi/lib/armv7e-m/libc.a(lib_a-reent.o)
                              /nfs/nfs5/home/research/hardware/arm2/gcc-arm-embedded/gcc-arm-none-eabi-4_8-2014q2/bin/../lib/gcc/arm-none-eabi/4.8.4/../../../../arm-none-eabi/lib/armv7e-m/libc.a(lib_a-sbrkr.o) (errno)
/nfs/nfs5/home/research/hardware/arm2/gcc-arm-embedded/gcc-arm-none-eabi-4_8-2014q2/bin/../lib/gcc/arm-none-eabi/4.8.4/../../../../arm-none-eabi/lib/armv7e-m/libc.a(lib_a-s_fpclassify.o)
                              /nfs/nfs5/home/research/hardware/arm2/gcc-arm-embedded/gcc-arm-none-eabi-4_8-2014q2/bin/../lib/gcc/arm-none-eabi/4.8.4/../../../../arm-none-eabi/lib/armv7e-m/libc.a(lib_a-svfprintf.o) (__fpclassifyd)
/nfs/nfs5/home/research/hardware/arm2/gcc-arm-embedded/gcc-arm-none-eabi-4_8-2014q2/bin/../lib/gcc/arm-none-eabi/4.8.4/../../../../arm-none-eabi/lib/armv7e-m/libc.a(lib_a-stdio.o)
                              /nfs/nfs5/home/research/hardware/arm2/gcc-arm-embedded/gcc-arm-none-eabi-4_8-2014q2/bin/../lib/gcc/arm-none-eabi/4.8.4/../../../../arm-none-eabi/lib/armv7e-m/libc.a(lib_a-findfp.o) (__sread)
/nfs/nfs5/home/research/hardware/arm2/gcc-arm-embedded/gcc-arm-none-eabi-4_8-2014q2/bin/../lib/gcc/arm-none-eabi/4.8.4/../../../../arm-none-eabi/lib/armv7e-m/libc.a(lib_a-strlen.o)
                              /nfs/nfs5/home/research/hardware/arm2/gcc-arm-embedded/gcc-arm-none-eabi-4_8-2014q2/bin/../lib/gcc/arm-none-eabi/4.8.4/../../../../arm-none-eabi/lib/armv7e-m/libc.a(lib_a-svfprintf.o) (strlen)
/nfs/nfs5/home/research/hardware/arm2/gcc-arm-embedded/gcc-arm-none-eabi-4_8-2014q2/bin/../lib/gcc/arm-none-eabi/4.8.4/../../../../arm-none-eabi/lib/armv7e-m/libc.a(lib_a-svfiprintf.o)
                              /nfs/nfs5/home/research/hardware/arm2/gcc-arm-embedded/gcc-arm-none-eabi-4_8-2014q2/bin/../lib/gcc/arm-none-eabi/4.8.4/../../../../arm-none-eabi/lib/armv7e-m/libc.a(lib_a-svfprintf.o) (__ssprint_r)
/nfs/nfs5/home/research/hardware/arm2/gcc-arm-embedded/gcc-arm-none-eabi-4_8-2014q2/bin/../lib/gcc/arm-none-eabi/4.8.4/../../../../arm-none-eabi/lib/armv7e-m/libc.a(lib_a-vfiprintf.o)
                              /nfs/nfs5/home/research/hardware/arm2/gcc-arm-embedded/gcc-arm-none-eabi-4_8-2014q2/bin/../lib/gcc/arm-none-eabi/4.8.4/../../../../arm-none-eabi/lib/armv7e-m/libc.a(lib_a-vfprintf.o) (__sprint_r)
/nfs/nfs5/home/research/hardware/arm2/gcc-arm-embedded/gcc-arm-none-eabi-4_8-2014q2/bin/../lib/gcc/arm-none-eabi/4.8.4/../../../../arm-none-eabi/lib/armv7e-m/libc.a(lib_a-writer.o)
                              /nfs/nfs5/home/research/hardware/arm2/gcc-arm-embedded/gcc-arm-none-eabi-4_8-2014q2/bin/../lib/gcc/arm-none-eabi/4.8.4/../../../../arm-none-eabi/lib/armv7e-m/libc.a(lib_a-stdio.o) (_write_r)
/nfs/nfs5/home/research/hardware/arm2/gcc-arm-embedded/gcc-arm-none-eabi-4_8-2014q2/bin/../lib/gcc/arm-none-eabi/4.8.4/../../../../arm-none-eabi/lib/armv7e-m/libc.a(lib_a-callocr.o)
                              /nfs/nfs5/home/research/hardware/arm2/gcc-arm-embedded/gcc-arm-none-eabi-4_8-2014q2/bin/../lib/gcc/arm-none-eabi/4.8.4/../../../../arm-none-eabi/lib/armv7e-m/libc.a(lib_a-mprec.o) (_calloc_r)
/nfs/nfs5/home/research/hardware/arm2/gcc-arm-embedded/gcc-arm-none-eabi-4_8-2014q2/bin/../lib/gcc/arm-none-eabi/4.8.4/../../../../arm-none-eabi/lib/armv7e-m/libc.a(lib_a-closer.o)
                              /nfs/nfs5/home/research/hardware/arm2/gcc-arm-embedded/gcc-arm-none-eabi-4_8-2014q2/bin/../lib/gcc/arm-none-eabi/4.8.4/../../../../arm-none-eabi/lib/armv7e-m/libc.a(lib_a-stdio.o) (_close_r)
/nfs/nfs5/home/research/hardware/arm2/gcc-arm-embedded/gcc-arm-none-eabi-4_8-2014q2/bin/../lib/gcc/arm-none-eabi/4.8.4/../../../../arm-none-eabi/lib/armv7e-m/libc.a(lib_a-fclose.o)
                              /nfs/nfs5/home/research/hardware/arm2/gcc-arm-embedded/gcc-arm-none-eabi-4_8-2014q2/bin/../lib/gcc/arm-none-eabi/4.8.4/../../../../arm-none-eabi/lib/armv7e-m/libc.a(lib_a-findfp.o) (fclose)
/nfs/nfs5/home/research/hardware/arm2/gcc-arm-embedded/gcc-arm-none-eabi-4_8-2014q2/bin/../lib/gcc/arm-none-eabi/4.8.4/../../../../arm-none-eabi/lib/armv7e-m/libc.a(lib_a-fputwc.o)
                              /nfs/nfs5/home/research/hardware/arm2/gcc-arm-embedded/gcc-arm-none-eabi-4_8-2014q2/bin/../lib/gcc/arm-none-eabi/4.8.4/../../../../arm-none-eabi/lib/armv7e-m/libc.a(lib_a-vfiprintf.o) (_fputwc_r)
/nfs/nfs5/home/research/hardware/arm2/gcc-arm-embedded/gcc-arm-none-eabi-4_8-2014q2/bin/../lib/gcc/arm-none-eabi/4.8.4/../../../../arm-none-eabi/lib/armv7e-m/libc.a(lib_a-fstatr.o)
                              /nfs/nfs5/home/research/hardware/arm2/gcc-arm-embedded/gcc-arm-none-eabi-4_8-2014q2/bin/../lib/gcc/arm-none-eabi/4.8.4/../../../../arm-none-eabi/lib/armv7e-m/libc.a(lib_a-makebuf.o) (_fstat_r)
/nfs/nfs5/home/research/hardware/arm2/gcc-arm-embedded/gcc-arm-none-eabi-4_8-2014q2/bin/../lib/gcc/arm-none-eabi/4.8.4/../../../../arm-none-eabi/lib/armv7e-m/libc.a(lib_a-fvwrite.o)
                              /nfs/nfs5/home/research/hardware/arm2/gcc-arm-embedded/gcc-arm-none-eabi-4_8-2014q2/bin/../lib/gcc/arm-none-eabi/4.8.4/../../../../arm-none-eabi/lib/armv7e-m/libc.a(lib_a-vfiprintf.o) (__sfvwrite_r)
/nfs/nfs5/home/research/hardware/arm2/gcc-arm-embedded/gcc-arm-none-eabi-4_8-2014q2/bin/../lib/gcc/arm-none-eabi/4.8.4/../../../../arm-none-eabi/lib/armv7e-m/libc.a(lib_a-isattyr.o)
                              /nfs/nfs5/home/research/hardware/arm2/gcc-arm-embedded/gcc-arm-none-eabi-4_8-2014q2/bin/../lib/gcc/arm-none-eabi/4.8.4/../../../../arm-none-eabi/lib/armv7e-m/libc.a(lib_a-makebuf.o) (_isatty_r)
/nfs/nfs5/home/research/hardware/arm2/gcc-arm-embedded/gcc-arm-none-eabi-4_8-2014q2/bin/../lib/gcc/arm-none-eabi/4.8.4/../../../../arm-none-eabi/lib/armv7e-m/libc.a(lib_a-lseekr.o)
                              /nfs/nfs5/home/research/hardware/arm2/gcc-arm-embedded/gcc-arm-none-eabi-4_8-2014q2/bin/../lib/gcc/arm-none-eabi/4.8.4/../../../../arm-none-eabi/lib/armv7e-m/libc.a(lib_a-stdio.o) (_lseek_r)
/nfs/nfs5/home/research/hardware/arm2/gcc-arm-embedded/gcc-arm-none-eabi-4_8-2014q2/bin/../lib/gcc/arm-none-eabi/4.8.4/../../../../arm-none-eabi/lib/armv7e-m/libc.a(lib_a-memmove.o)
                              /nfs/nfs5/home/research/hardware/arm2/gcc-arm-embedded/gcc-arm-none-eabi-4_8-2014q2/bin/../lib/gcc/arm-none-eabi/4.8.4/../../../../arm-none-eabi/lib/armv7e-m/libc.a(lib_a-svfiprintf.o) (memmove)
/nfs/nfs5/home/research/hardware/arm2/gcc-arm-embedded/gcc-arm-none-eabi-4_8-2014q2/bin/../lib/gcc/arm-none-eabi/4.8.4/../../../../arm-none-eabi/lib/armv7e-m/libc.a(lib_a-readr.o)
                              /nfs/nfs5/home/research/hardware/arm2/gcc-arm-embedded/gcc-arm-none-eabi-4_8-2014q2/bin/../lib/gcc/arm-none-eabi/4.8.4/../../../../arm-none-eabi/lib/armv7e-m/libc.a(lib_a-stdio.o) (_read_r)
/nfs/nfs5/home/research/hardware/arm2/gcc-arm-embedded/gcc-arm-none-eabi-4_8-2014q2/bin/../lib/gcc/arm-none-eabi/4.8.4/../../../../arm-none-eabi/lib/armv7e-m/libc.a(lib_a-reallocr.o)
                              /nfs/nfs5/home/research/hardware/arm2/gcc-arm-embedded/gcc-arm-none-eabi-4_8-2014q2/bin/../lib/gcc/arm-none-eabi/4.8.4/../../../../arm-none-eabi/lib/armv7e-m/libc.a(lib_a-svfiprintf.o) (_realloc_r)
/nfs/nfs5/home/research/hardware/arm2/gcc-arm-embedded/gcc-arm-none-eabi-4_8-2014q2/bin/../lib/gcc/arm-none-eabi/4.8.4/../../../../arm-none-eabi/lib/armv7e-m/libc.a(lib_a-wbuf.o)
                              /nfs/nfs5/home/research/hardware/arm2/gcc-arm-embedded/gcc-arm-none-eabi-4_8-2014q2/bin/../lib/gcc/arm-none-eabi/4.8.4/../../../../arm-none-eabi/lib/armv7e-m/libc.a(lib_a-fputwc.o) (__swbuf_r)
/nfs/nfs5/home/research/hardware/arm2/gcc-arm-embedded/gcc-arm-none-eabi-4_8-2014q2/bin/../lib/gcc/arm-none-eabi/4.8.4/../../../../arm-none-eabi/lib/armv7e-m/libc.a(lib_a-wcrtomb.o)
                              /nfs/nfs5/home/research/hardware/arm2/gcc-arm-embedded/gcc-arm-none-eabi-4_8-2014q2/bin/../lib/gcc/arm-none-eabi/4.8.4/../../../../arm-none-eabi/lib/armv7e-m/libc.a(lib_a-fputwc.o) (_wcrtomb_r)
/nfs/nfs5/home/research/hardware/arm2/gcc-arm-embedded/gcc-arm-none-eabi-4_8-2014q2/bin/../lib/gcc/arm-none-eabi/4.8.4/../../../../arm-none-eabi/lib/armv7e-m/libc.a(lib_a-wctomb_r.o)
                              /nfs/nfs5/home/research/hardware/arm2/gcc-arm-embedded/gcc-arm-none-eabi-4_8-2014q2/bin/../lib/gcc/arm-none-eabi/4.8.4/../../../../arm-none-eabi/lib/armv7e-m/libc.a(lib_a-wcrtomb.o) (__wctomb)
/nfs/nfs5/home/research/hardware/arm2/gcc-arm-embedded/gcc-arm-none-eabi-4_8-2014q2/bin/../lib/gcc/arm-none-eabi/4.8.4/../../../../arm-none-eabi/lib/armv7e-m/libm.a(lib_a-s_trunc.o)
                              build/obj/btle.o (trunc)
/nfs/nfs5/home/research/hardware/arm2/gcc-arm-embedded/gcc-arm-none-eabi-4_8-2014q2/bin/../lib/gcc/arm-none-eabi/4.8.4/../../../../arm-none-eabi/lib/armv7e-m/libm.a(lib_a-wf_log10.o)
                              build/obj/btle.o (log10f)
/nfs/nfs5/home/research/hardware/arm2/gcc-arm-embedded/gcc-arm-none-eabi-4_8-2014q2/bin/../lib/gcc/arm-none-eabi/4.8.4/../../../../arm-none-eabi/lib/armv7e-m/libm.a(lib_a-ef_log10.o)
                              /nfs/nfs5/home/research/hardware/arm2/gcc-arm-embedded/gcc-arm-none-eabi-4_8-2014q2/bin/../lib/gcc/arm-none-eabi/4.8.4/../../../../arm-none-eabi/lib/armv7e-m/libm.a(lib_a-wf_log10.o) (__ieee754_log10f)
/nfs/nfs5/home/research/hardware/arm2/gcc-arm-embedded/gcc-arm-none-eabi-4_8-2014q2/bin/../lib/gcc/arm-none-eabi/4.8.4/../../../../arm-none-eabi/lib/armv7e-m/libm.a(lib_a-s_lib_ver.o)
                              /nfs/nfs5/home/research/hardware/arm2/gcc-arm-embedded/gcc-arm-none-eabi-4_8-2014q2/bin/../lib/gcc/arm-none-eabi/4.8.4/../../../../arm-none-eabi/lib/armv7e-m/libm.a(lib_a-wf_log10.o) (__fdlib_version)
/nfs/nfs5/home/research/hardware/arm2/gcc-arm-embedded/gcc-arm-none-eabi-4_8-2014q2/bin/../lib/gcc/arm-none-eabi/4.8.4/../../../../arm-none-eabi/lib/armv7e-m/libm.a(lib_a-s_matherr.o)
                              /nfs/nfs5/home/research/hardware/arm2/gcc-arm-embedded/gcc-arm-none-eabi-4_8-2014q2/bin/../lib/gcc/arm-none-eabi/4.8.4/../../../../arm-none-eabi/lib/armv7e-m/libm.a(lib_a-wf_log10.o) (matherr)
/nfs/nfs5/home/research/hardware/arm2/gcc-arm-embedded/gcc-arm-none-eabi-4_8-2014q2/bin/../lib/gcc/arm-none-eabi/4.8.4/../../../../arm-none-eabi/lib/armv7e-m/libm.a(lib_a-s_nan.o)
                              /nfs/nfs5/home/research/hardware/arm2/gcc-arm-embedded/gcc-arm-none-eabi-4_8-2014q2/bin/../lib/gcc/arm-none-eabi/4.8.4/../../../../arm-none-eabi/lib/armv7e-m/libm.a(lib_a-wf_log10.o) (nan)
/nfs/nfs5/home/research/hardware/arm2/gcc-arm-embedded/gcc-arm-none-eabi-4_8-2014q2/bin/../lib/gcc/arm-none-eabi/4.8.4/../../../../arm-none-eabi/lib/armv7e-m/libm.a(lib_a-sf_fpclassify.o)
                              /nfs/nfs5/home/research/hardware/arm2/gcc-arm-embedded/gcc-arm-none-eabi-4_8-2014q2/bin/../lib/gcc/arm-none-eabi/4.8.4/../../../../arm-none-eabi/lib/armv7e-m/libm.a(lib_a-wf_log10.o) (__fpclassifyf)
/nfs/nfs5/home/research/hardware/arm2/gcc-arm-embedded/gcc-arm-none-eabi-4_8-2014q2/bin/../lib/gcc/arm-none-eabi/4.8.4/../../../../arm-none-eabi/lib/armv7e-m/libm.a(lib_a-ef_log.o)
                              /nfs/nfs5/home/research/hardware/arm2/gcc-arm-embedded/gcc-arm-none-eabi-4_8-2014q2/bin/../lib/gcc/arm-none-eabi/4.8.4/../../../../arm-none-eabi/lib/armv7e-m/libm.a(lib_a-ef_log10.o) (__ieee754_logf)
/nfs/nfs5/home/research/hardware/arm2/gcc-arm-embedded/gcc-arm-none-eabi-4_8-2014q2/bin/../lib/gcc/arm-none-eabi/4.8.4/armv7e-m/libgcc.a(_arm_addsubdf3.o)
                              /nfs/nfs5/home/research/hardware/arm2/gcc-arm-embedded/gcc-arm-none-eabi-4_8-2014q2/bin/../lib/gcc/arm-none-eabi/4.8.4/../../../../arm-none-eabi/lib/armv7e-m/libc.a(lib_a-dtoa.o) (__aeabi_dsub)
/nfs/nfs5/home/research/hardware/arm2/gcc-arm-embedded/gcc-arm-none-eabi-4_8-2014q2/bin/../lib/gcc/arm-none-eabi/4.8.4/armv7e-m/libgcc.a(_arm_muldivdf3.o)
                              build/obj/MotionFX_Manager.o (__aeabi_dmul)
/nfs/nfs5/home/research/hardware/arm2/gcc-arm-embedded/gcc-arm-none-eabi-4_8-2014q2/bin/../lib/gcc/arm-none-eabi/4.8.4/armv7e-m/libgcc.a(_arm_cmpdf2.o)
                              /nfs/nfs5/home/research/hardware/arm2/gcc-arm-embedded/gcc-arm-none-eabi-4_8-2014q2/bin/../lib/gcc/arm-none-eabi/4.8.4/../../../../arm-none-eabi/lib/armv7e-m/libc.a(lib_a-svfprintf.o) (__aeabi_dcmpeq)
/nfs/nfs5/home/research/hardware/arm2/gcc-arm-embedded/gcc-arm-none-eabi-4_8-2014q2/bin/../lib/gcc/arm-none-eabi/4.8.4/armv7e-m/libgcc.a(_arm_fixdfsi.o)
                              /nfs/nfs5/home/research/hardware/arm2/gcc-arm-embedded/gcc-arm-none-eabi-4_8-2014q2/bin/../lib/gcc/arm-none-eabi/4.8.4/../../../../arm-none-eabi/lib/armv7e-m/libc.a(lib_a-dtoa.o) (__aeabi_d2iz)
/nfs/nfs5/home/research/hardware/arm2/gcc-arm-embedded/gcc-arm-none-eabi-4_8-2014q2/bin/../lib/gcc/arm-none-eabi/4.8.4/armv7e-m/libgcc.a(_arm_fixunsdfsi.o)
                              build/obj/btle.o (__aeabi_d2uiz)
/nfs/nfs5/home/research/hardware/arm2/gcc-arm-embedded/gcc-arm-none-eabi-4_8-2014q2/bin/../lib/gcc/arm-none-eabi/4.8.4/armv7e-m/libgcc.a(_arm_truncdfsf2.o)
                              build/obj/MotionFX_Manager.o (__aeabi_d2f)
/nfs/nfs5/home/research/hardware/arm2/gcc-arm-embedded/gcc-arm-none-eabi-4_8-2014q2/bin/../lib/gcc/arm-none-eabi/4.8.4/armv7e-m/libgcc.a(_arm_addsubsf3.o)
                              build/obj/sensor_service.o (__aeabi_fsub)
/nfs/nfs5/home/research/hardware/arm2/gcc-arm-embedded/gcc-arm-none-eabi-4_8-2014q2/bin/../lib/gcc/arm-none-eabi/4.8.4/armv7e-m/libgcc.a(_arm_muldivsf3.o)
                              build/obj/MotionCP_Manager.o (__aeabi_fmul)
/nfs/nfs5/home/research/hardware/arm2/gcc-arm-embedded/gcc-arm-none-eabi-4_8-2014q2/bin/../lib/gcc/arm-none-eabi/4.8.4/armv7e-m/libgcc.a(_arm_cmpsf2.o)
                              /nfs/nfs5/home/research/hardware/arm2/gcc-arm-embedded/gcc-arm-none-eabi-4_8-2014q2/bin/../lib/gcc/arm-none-eabi/4.8.4/../../../../arm-none-eabi/lib/armv7e-m/libm.a(lib_a-wf_log10.o) (__aeabi_fcmpeq)
/nfs/nfs5/home/research/hardware/arm2/gcc-arm-embedded/gcc-arm-none-eabi-4_8-2014q2/bin/../lib/gcc/arm-none-eabi/4.8.4/armv7e-m/libgcc.a(_arm_fixsfsi.o)
                              build/obj/sensor_service.o (__aeabi_f2iz)
/nfs/nfs5/home/research/hardware/arm2/gcc-arm-embedded/gcc-arm-none-eabi-4_8-2014q2/bin/../lib/gcc/arm-none-eabi/4.8.4/armv7e-m/libgcc.a(_arm_fixunssfsi.o)
                              build/obj/HTS221_Driver.o (__aeabi_f2uiz)
/nfs/nfs5/home/research/hardware/arm2/gcc-arm-embedded/gcc-arm-none-eabi-4_8-2014q2/bin/../lib/gcc/arm-none-eabi/4.8.4/armv7e-m/libgcc.a(_aeabi_ldivmod.o)
                              build/obj/LSM303AGR_ACC_driver.o (__aeabi_ldivmod)
/nfs/nfs5/home/research/hardware/arm2/gcc-arm-embedded/gcc-arm-none-eabi-4_8-2014q2/bin/../lib/gcc/arm-none-eabi/4.8.4/armv7e-m/libgcc.a(_aeabi_uldivmod.o)
                              build/obj/stm32l4xx_hal_uart.o (__aeabi_uldivmod)
/nfs/nfs5/home/research/hardware/arm2/gcc-arm-embedded/gcc-arm-none-eabi-4_8-2014q2/bin/../lib/gcc/arm-none-eabi/4.8.4/armv7e-m/libgcc.a(bpabi.o)
                              /nfs/nfs5/home/research/hardware/arm2/gcc-arm-embedded/gcc-arm-none-eabi-4_8-2014q2/bin/../lib/gcc/arm-none-eabi/4.8.4/armv7e-m/libgcc.a(_aeabi_ldivmod.o) (__gnu_ldivmod_helper)
/nfs/nfs5/home/research/hardware/arm2/gcc-arm-embedded/gcc-arm-none-eabi-4_8-2014q2/bin/../lib/gcc/arm-none-eabi/4.8.4/armv7e-m/libgcc.a(_dvmd_tls.o)
                              /nfs/nfs5/home/research/hardware/arm2/gcc-arm-embedded/gcc-arm-none-eabi-4_8-2014q2/bin/../lib/gcc/arm-none-eabi/4.8.4/armv7e-m/libgcc.a(_aeabi_ldivmod.o) (__aeabi_ldiv0)
/nfs/nfs5/home/research/hardware/arm2/gcc-arm-embedded/gcc-arm-none-eabi-4_8-2014q2/bin/../lib/gcc/arm-none-eabi/4.8.4/armv7e-m/libgcc.a(_divdi3.o)
                              /nfs/nfs5/home/research/hardware/arm2/gcc-arm-embedded/gcc-arm-none-eabi-4_8-2014q2/bin/../lib/gcc/arm-none-eabi/4.8.4/armv7e-m/libgcc.a(bpabi.o) (__divdi3)
/nfs/nfs5/home/research/hardware/arm2/gcc-arm-embedded/gcc-arm-none-eabi-4_8-2014q2/bin/../lib/gcc/arm-none-eabi/4.8.4/armv7e-m/libgcc.a(_udivdi3.o)
                              /nfs/nfs5/home/research/hardware/arm2/gcc-arm-embedded/gcc-arm-none-eabi-4_8-2014q2/bin/../lib/gcc/arm-none-eabi/4.8.4/armv7e-m/libgcc.a(bpabi.o) (__udivdi3)
/nfs/nfs5/home/research/hardware/arm2/gcc-arm-embedded/gcc-arm-none-eabi-4_8-2014q2/bin/../lib/gcc/arm-none-eabi/4.8.4/../../../../arm-none-eabi/lib/armv7e-m/libg.a(lib_a-errno.o)
                              /nfs/nfs5/home/research/hardware/arm2/gcc-arm-embedded/gcc-arm-none-eabi-4_8-2014q2/bin/../lib/gcc/arm-none-eabi/4.8.4/../../../../arm-none-eabi/lib/armv7e-m/libm.a(lib_a-wf_log10.o) (__errno)

Allocating common symbols
Common symbol       size              file

test_global_fail    0x1               build/obj/test.o
SD5                 0x7c              build/obj/serial_lld.o
SendBlueVoice       0x1               build/obj/AudioBV_Manager.o
test_timer_done     0x1               build/obj/test.o
hdma_dfsdmReg_FLT   0x120             build/obj/SensorTile_audio_in.o
TimEnvHandle        0x3c              build/obj/btle.o
SPID3               0x30              build/obj/spi_lld.o
errno               0x4               /nfs/nfs5/home/research/hardware/arm2/gcc-arm-embedded/gcc-arm-none-eabi-4_8-2014q2/bin/../lib/gcc/arm-none-eabi/4.8.4/../../../../arm-none-eabi/lib/armv7e-m/libc.a(lib_a-reent.o)
RecBuff             0xc00             build/obj/SensorTile_audio_in.o
bdaddr              0x6               build/obj/btle.o
hciReadPktPool      0x8               build/obj/hci.o
bvStat              0x1               build/obj/AudioBV_Manager.o
hpcd                0x3cc             build/obj/usbd_conf.o
uwTick              0x4               build/obj/stm32l4xx_hal.o
sensitivity_Mul     0x4               build/obj/btle.o
threads             0x14              build/obj/test.o
pFlash              0x1c              build/obj/stm32l4xx_hal_flash.o
shell_terminated    0x4               build/obj/shell.o
TimCCHandle         0x3c              build/obj/btle.o
TargetBoardFeatures
                    0x48              build/obj/TargetPlatform.o
iDataOUT            0x70              build/obj/MotionFX_Manager.o
PCM_Buffer          0x20              build/obj/TargetPlatform.o
TimAudioDataHandle  0x3c              build/obj/btle.o
test                0x668             build/obj/test.o
magOffset           0x18              build/obj/btle.o
BLUEVOICE_Config    0x4               build/obj/AudioBV_Manager.o
SPID2               0x30              build/obj/spi_lld.o
SpiHandle           0x64              build/obj/SensorTile_BlueNRG.o
HTS221_Combo_Data   0x4               build/obj/HTS221_Driver_HL.o
BLUEVOICE_Char_uuids
                    0x30              build/obj/sensor_service.o
LSM6DSM_Combo_Data  0x2               build/obj/LSM6DSM_ACC_GYRO_driver_HL.o
USBD1               0x1d0             build/obj/usb_lld.o
iDataIN             0x24              build/obj/MotionFX_Manager.o
haudio_in_dfsdmchannel
                    0xe0              build/obj/SensorTile_audio_in.o
LSM303AGR_Combo_Data
                    0x2               build/obj/LSM303AGR_ACC_driver_HL.o
DBNOISE_Value_Old_Ch
                    0x4               build/obj/TargetPlatform.o
BufferToWrite       0x100             build/obj/btle.o
_stm32_dma_isr_redir
                    0x70              build/obj/stm32_dma.o
RMS_Ch              0x4               build/obj/TargetPlatform.o
ch                  0x150             build/obj/chschd.o
BLUEVOICE_tx_handle
                    0x6               build/obj/sensor_service.o
sensitivity         0x4               build/obj/btle.o
hciReadPktRxQueue   0x8               build/obj/hci.o
BytesToWrite        0x4               build/obj/btle.o
LPS22HB_Combo_Data  0x8               build/obj/LPS22HB_Driver_HL.o
haudio_in_dfsdmfilter
                    0x150             build/obj/SensorTile_audio_in.o

Memory Configuration

Name             Origin             Length             Attributes
flash            0x08000000         0x00100000
ram0             0x20000000         0x00018000
ram1             0x00000000         0x00000000
ram2             0x00000000         0x00000000
ram3             0x00000000         0x00000000
ram4             0x10000000         0x00008000
ram5             0x00000000         0x00000000
ram6             0x00000000         0x00000000
ram7             0x00000000         0x00000000
*default*        0x00000000         0xffffffff

Linker script and memory map

LOAD build/obj/crt0_v7m.o
LOAD build/obj/chcoreasm_v7m.o
LOAD build/obj/crt1.o
LOAD build/obj/vectors.o
LOAD build/obj/chsys.o
LOAD build/obj/chdebug.o
LOAD build/obj/chvt.o
LOAD build/obj/chschd.o
LOAD build/obj/chthreads.o
LOAD build/obj/chtm.o
LOAD build/obj/chdynamic.o
LOAD build/obj/chregistry.o
LOAD build/obj/chsem.o
LOAD build/obj/chmtx.o
LOAD build/obj/chcond.o
LOAD build/obj/chevents.o
LOAD build/obj/chmsg.o
LOAD build/obj/chmboxes.o
LOAD build/obj/chqueues.o
LOAD build/obj/chmemcore.o
LOAD build/obj/chheap.o
LOAD build/obj/chmempools.o
LOAD build/obj/chcore.o
LOAD build/obj/chcore_v7m.o
LOAD build/obj/osal.o
LOAD build/obj/hal.o
LOAD build/obj/st.o
LOAD build/obj/hal_buffers.o
LOAD build/obj/hal_queues.o
LOAD build/obj/hal_mmcsd.o
LOAD build/obj/mmc_spi.o
LOAD build/obj/pal.o
LOAD build/obj/serial.o
LOAD build/obj/spi.o
LOAD build/obj/usb.o
LOAD build/obj/nvic.o
LOAD build/obj/hal_lld.o
LOAD build/obj/stm32_dma.o
LOAD build/obj/st_lld.o
LOAD build/obj/pal_lld.o
LOAD build/obj/usb_lld.o
LOAD build/obj/spi_lld.o
LOAD build/obj/serial_lld.o
LOAD build/obj/board.o
LOAD build/obj/test.o
LOAD build/obj/testthd.o
LOAD build/obj/testsem.o
LOAD build/obj/testmtx.o
LOAD build/obj/testmsg.o
LOAD build/obj/testmbox.o
LOAD build/obj/testevt.o
LOAD build/obj/testheap.o
LOAD build/obj/testpools.o
LOAD build/obj/testdyn.o
LOAD build/obj/testqueues.o
LOAD build/obj/testsys.o
LOAD build/obj/testbmk.o
LOAD build/obj/evtimer.o
LOAD build/obj/memstreams.o
LOAD build/obj/chprintf.o
LOAD build/obj/shell.o
LOAD build/obj/AudioBV_Manager.o
LOAD build/obj/MotionCP_Manager.o
LOAD build/obj/MotionGR_Manager.o
LOAD build/obj/HWAdvanceFeatures.o
LOAD build/obj/MotionAR_Manager.o
LOAD build/obj/stm32l4xx_hal_msp.o
LOAD build/obj/OTA.o
LOAD build/obj/TargetPlatform.o
LOAD build/obj/usbd_conf.o
LOAD build/obj/sensor_service.o
LOAD build/obj/HTS221_Driver_HL.o
LOAD build/obj/usbd_cdc_interface.o
LOAD build/obj/HTS221_Driver.o
LOAD build/obj/LPS22HB_Driver_HL.o
LOAD build/obj/LPS22HB_Driver.o
LOAD build/obj/LSM303AGR_MAG_driver_HL.o
LOAD build/obj/LSM303AGR_ACC_driver_HL.o
LOAD build/obj/LSM303AGR_MAG_driver.o
LOAD build/obj/LSM303AGR_ACC_driver.o
LOAD build/obj/LSM6DSM_ACC_GYRO_driver.o
LOAD build/obj/LSM6DSM_ACC_GYRO_driver_HL.o
LOAD build/obj/STC3115_Driver.o
LOAD build/obj/SensorTile.o
LOAD build/obj/SensorTile_BlueNRG.o
LOAD build/obj/SensorTile_accelero.o
LOAD build/obj/SensorTile_audio_in.o
LOAD build/obj/SensorTile_gg.o
LOAD build/obj/SensorTile_gyro.o
LOAD build/obj/SensorTile_humidity.o
LOAD build/obj/SensorTile_magneto.o
LOAD build/obj/SensorTile_pressure.o
LOAD build/obj/SensorTile_temperature.o
LOAD build/obj/stm32l4xx_hal.o
LOAD build/obj/stm32l4xx_hal_adc.o
LOAD build/obj/stm32l4xx_hal_cortex.o
LOAD build/obj/stm32l4xx_hal_crc.o
LOAD build/obj/stm32l4xx_hal_crc_ex.o
LOAD build/obj/stm32l4xx_hal_dfsdm.o
LOAD build/obj/stm32l4xx_hal_dma.o
LOAD build/obj/stm32l4xx_hal_flash.o
LOAD build/obj/stm32l4xx_hal_flash_ex.o
LOAD build/obj/stm32l4xx_hal_gpio.o
LOAD build/obj/stm32l4xx_hal_i2c.o
LOAD build/obj/stm32l4xx_hal_i2c_ex.o
LOAD build/obj/stm32l4xx_hal_pcd.o
LOAD build/obj/stm32l4xx_hal_pcd_ex.o
LOAD build/obj/stm32l4xx_hal_pwr.o
LOAD build/obj/stm32l4xx_hal_pwr_ex.o
LOAD build/obj/stm32l4xx_hal_rcc.o
LOAD build/obj/stm32l4xx_hal_rcc_ex.o
LOAD build/obj/stm32l4xx_hal_rtc.o
LOAD build/obj/stm32l4xx_hal_rtc_ex.o
LOAD build/obj/stm32l4xx_hal_spi.o
LOAD build/obj/stm32l4xx_hal_spi_ex.o
LOAD build/obj/stm32l4xx_hal_tim.o
LOAD build/obj/stm32l4xx_hal_tim_ex.o
LOAD build/obj/stm32l4xx_hal_uart.o
LOAD build/obj/stm32l4xx_hal_uart_ex.o
LOAD build/obj/stm32l4xx_ll_usb.o
LOAD build/obj/bluenrg_itf_template.o
LOAD build/obj/bluenrg_gap_aci.o
LOAD build/obj/bluenrg_gatt_aci.o
LOAD build/obj/bluenrg_hal_aci.o
LOAD build/obj/bluenrg_l2cap_aci.o
LOAD build/obj/bluenrg_updater_aci.o
LOAD build/obj/bluenrg_utils.o
LOAD build/obj/hci.o
LOAD build/obj/ble_list.o
LOAD build/obj/gp_timer.o
LOAD build/obj/MetaDataManager.o
LOAD build/obj/usbd_cdc.o
LOAD build/obj/usbd_core.o
LOAD build/obj/usbd_ctlreq.o
LOAD build/obj/usbd_ioreq.o
LOAD build/obj/MotionFX_Manager.o
LOAD build/obj/usbd_desc.o
LOAD build/obj/btle.o
LOAD build/obj/main.o
                0x20000000                __ram0_start__ = ORIGIN (ram0)
                0x00018000                __ram0_size__ = 0x18000
                0x20018000                __ram0_end__ = (__ram0_start__ + __ram0_size__)
                0x00000000                __ram1_start__ = ORIGIN (ram1)
                0x00000000                __ram1_size__ = 0x0
                0x00000000                __ram1_end__ = (__ram1_start__ + __ram1_size__)
                0x00000000                __ram2_start__ = ORIGIN (ram2)
                0x00000000                __ram2_size__ = 0x0
                0x00000000                __ram2_end__ = (__ram2_start__ + __ram2_size__)
                0x00000000                __ram3_start__ = ORIGIN (ram3)
                0x00000000                __ram3_size__ = 0x0
                0x00000000                __ram3_end__ = (__ram3_start__ + __ram3_size__)
                0x10000000                __ram4_start__ = ORIGIN (ram4)
                0x00008000                __ram4_size__ = 0x8000
                0x10008000                __ram4_end__ = (__ram4_start__ + __ram4_size__)
                0x00000000                __ram5_start__ = ORIGIN (ram5)
                0x00000000                __ram5_size__ = 0x0
                0x00000000                __ram5_end__ = (__ram5_start__ + __ram5_size__)
                0x00000000                __ram6_start__ = ORIGIN (ram6)
                0x00000000                __ram6_size__ = 0x0
                0x00000000                __ram6_end__ = (__ram6_start__ + __ram6_size__)
                0x00000000                __ram7_start__ = ORIGIN (ram7)
                0x00000000                __ram7_size__ = 0x0
                0x00000000                __ram7_end__ = (__ram7_start__ + __ram7_size__)
                0x00000000                . = 0x0
                0x00000000                _text = .

startup         0x08000000      0x200
 *(.vectors)
 .vectors       0x08000000      0x200 build/obj/vectors.o
                0x08000000                _vectors

constructors    0x08000200        0x0
                0x08000200                __init_array_start = .
 *(SORT(.init_array.*))
 *(.init_array)
                0x08000200                __init_array_end = .

destructors     0x08000200        0x0
                0x08000200                __fini_array_start = .
 *(.fini_array)
 *(SORT(.fini_array.*))
                0x08000200                __fini_array_end = .

.text           0x08000200    0x67978
 *(.text)
 .text          0x08000200       0xd4 build/obj/crt0_v7m.o
                0x08000200                Reset_Handler
 *fill*         0x080002d4        0xc 
 .text          0x080002e0       0x28 build/obj/chcoreasm_v7m.o
                0x080002e0                _port_switch
                0x080002f0                _port_thread_start
                0x08000300                _port_switch_from_isr
                0x08000304                _port_exit_from_isr
 *fill*         0x08000308        0x8 
 .text          0x08000310       0xb0 build/obj/crt1.o
                0x08000310                __core_init
                0x08000330                __late_init
                0x08000340                __default_exit
                0x08000350                __init_ram_areas
 .text          0x080003c0       0x10 build/obj/vectors.o
                0x080003c0                Vector58
                0x080003c0                VectorE8
                0x080003c0                Vector9C
                0x080003c0                VectorAC
                0x080003c0                DebugMon_Handler
                0x080003c0                Vector5C
                0x080003c0                Vector11C
                0x080003c0                HardFault_Handler
                0x080003c0                Vector19C
                0x080003c0                Vector8C
                0x080003c0                VectorDC
                0x080003c0                PendSV_Handler
                0x080003c0                Vector168
                0x080003c0                NMI_Handler
                0x080003c0                Vector110
                0x080003c0                VectorC8
                0x080003c0                Vector94
                0x080003c0                VectorA8
                0x080003c0                VectorB4
                0x080003c0                Vector160
                0x080003c0                UsageFault_Handler
                0x080003c0                VectorEC
                0x080003c0                Vector40
                0x080003c0                VectorF8
                0x080003c0                Vector108
                0x080003c0                VectorBC
                0x080003c0                Vector190
                0x080003c0                Vector148
                0x080003c0                Vector188
                0x080003c0                Vector198
                0x080003c0                Vector118
                0x080003c0                Vector64
                0x080003c0                VectorCC
                0x080003c0                Vector54
                0x080003c0                Vector98
                0x080003c0                VectorD8
                0x080003c0                Vector138
                0x080003c0                Vector24
                0x080003c0                Vector178
                0x080003c0                VectorD0
                0x080003c0                Vector140
                0x080003c0                VectorE4
                0x080003c0                VectorC0
                0x080003c0                Vector158
                0x080003c0                Vector134
                0x080003c0                VectorF0
                0x080003c0                Vector13C
                0x080003c0                Vector100
                0x080003c0                VectorE0
                0x080003c0                VectorF4
                0x080003c0                MemManage_Handler
                0x080003c0                VectorA0
                0x080003c0                VectorC4
                0x080003c0                Vector180
                0x080003c0                VectorB0
                0x080003c0                Vector90
                0x080003c0                Vector164
                0x080003c0                Vector60
                0x080003c0                Vector1C
                0x080003c0                Vector17C
                0x080003c0                Vector48
                0x080003c0                Vector16C
                0x080003c0                VectorD4
                0x080003c0                Vector4C
                0x080003c0                Vector144
                0x080003c0                Vector15C
                0x080003c0                Vector68
                0x080003c0                _unhandled_exception
                0x080003c0                Vector170
                0x080003c0                Vector88
                0x080003c0                Vector104
                0x080003c0                Vector184
                0x080003c0                Vector10C
                0x080003c0                BusFault_Handler
                0x080003c0                Vector50
                0x080003c0                Vector194
                0x080003c0                Vector44
                0x080003c0                Vector28
                0x080003c0                VectorB8
                0x080003c0                VectorFC
                0x080003c0                Vector34
                0x080003c0                VectorA4
                0x080003c0                Vector20
                0x080003c0                Vector18C
                0x080003c0                Vector174
 .text          0x080003d0      0x590 build/obj/chsys.o
                0x080006a0                chSysInit
                0x08000720                chSysHalt
                0x08000740                chSysIntegrityCheckI
                0x08000850                chSysTimerHandlerI
                0x08000880                chSysGetStatusAndLockX
                0x080008c0                chSysRestoreStatusX
                0x080008f0                chSysIsCounterWithinX
                0x08000920                chSysPolledDelayX
 .text          0x08000960        0x0 build/obj/chdebug.o
 .text          0x08000960       0xf0 build/obj/chvt.o
                0x08000960                _vt_init
                0x08000990                chVTDoSetI
                0x08000a10                chVTDoResetI
 .text          0x08000a50      0x470 build/obj/chschd.o
                0x08000b80                _scheduler_init
                0x08000ba0                chSchReadyI
                0x08000bf0                chSchGoSleepS
                0x08000cc0                chSchGoSleepTimeoutS
                0x08000d30                chSchWakeupS
                0x08000d80                chSchRescheduleS
                0x08000da0                chSchIsPreemptionRequired
                0x08000df0                chSchDoRescheduleBehind
                0x08000e30                chSchDoRescheduleAhead
                0x08000ea0                chSchDoReschedule
 .text          0x08000ec0      0x720 build/obj/chthreads.o
                0x08001110                _thread_init
                0x08001190                chThdCreateI
                0x080011e0                chThdCreateStatic
                0x08001220                chThdStart
                0x08001240                chThdSetPriority
                0x080012a0                chThdTerminate
                0x080012d0                chThdSleep
                0x080012f0                chThdSleepUntil
                0x08001320                chThdSleepUntilWindowed
                0x08001360                chThdYield
                0x08001370                chThdExit
                0x08001390                chThdExitS
                0x08001400                chThdWait
                0x08001450                chThdSuspendS
                0x08001480                chThdSuspendTimeoutS
                0x080014c0                chThdResumeI
                0x080014f0                chThdResumeS
                0x08001520                chThdResume
                0x08001540                chThdEnqueueTimeoutS
                0x08001580                chThdDequeueNextI
                0x080015b0                chThdDequeueAllI
 .text          0x080015e0      0x170 build/obj/chtm.o
                0x08001660                _tm_init
                0x080016a0                chTMObjectInit
                0x080016d0                chTMStartMeasurementX
                0x080016f0                chTMStopMeasurementX
                0x08001720                chTMChainMeasurementToX
 .text          0x08001750      0x1c0 build/obj/chdynamic.o
                0x08001790                chThdAddRef
                0x080017c0                chThdRelease
                0x08001850                chThdCreateFromHeap
                0x080018b0                chThdCreateFromMemoryPool
 .text          0x08001910       0xc0 build/obj/chregistry.o
                0x08001950                chRegFirstThread
                0x08001980                chRegNextThread
 .text          0x080019d0      0x3e0 build/obj/chsem.o
                0x08001ac0                chSemObjectInit
                0x08001ae0                chSemReset
                0x08001b10                chSemResetI
                0x08001b50                chSemWait
                0x08001b70                chSemWaitS
                0x08001bc0                chSemWaitTimeout
                0x08001bf0                chSemWaitTimeoutS
                0x08001c50                chSemSignal
                0x08001c90                chSemSignalI
                0x08001cd0                chSemAddCounterI
                0x08001d20                chSemSignalWait
 .text          0x08001db0      0x480 build/obj/chmtx.o
                0x08001ef0                chMtxObjectInit
                0x08001f10                chMtxLock
                0x08001f30                chMtxLockS
                0x08001ff0                chMtxTryLock
                0x08002020                chMtxTryLockS
                0x08002060                chMtxUnlock
                0x08002110                chMtxUnlockS
                0x080021b0                chMtxUnlockAll
 .text          0x08002230      0x300 build/obj/chcond.o
                0x08002350                chCondObjectInit
                0x08002370                chCondSignal
                0x080023b0                chCondSignalI
                0x080023e0                chCondBroadcast
                0x08002400                chCondBroadcastI
                0x08002440                chCondWait
                0x08002460                chCondWaitS
                0x080024b0                chCondWaitTimeout
                0x080024e0                chCondWaitTimeoutS
 .text          0x08002530      0x590 build/obj/chevents.o
                0x08002570                chEvtRegisterMaskWithFlags
                0x080025c0                chEvtUnregister
                0x08002600                chEvtGetAndClearEvents
                0x08002640                chEvtAddEvents
                0x08002680                chEvtBroadcastFlagsI
                0x080026e0                chEvtGetAndClearFlags
                0x08002710                chEvtSignal
                0x08002740                chEvtSignalI
                0x080027a0                chEvtBroadcastFlags
                0x080027d0                chEvtGetAndClearFlagsI
                0x080027f0                chEvtDispatch
                0x08002840                chEvtWaitOne
                0x080028a0                chEvtWaitAny
                0x08002900                chEvtWaitAll
                0x08002950                chEvtWaitOneTimeout
                0x080029d0                chEvtWaitAnyTimeout
                0x08002a50                chEvtWaitAllTimeout
 .text          0x08002ac0      0x1b0 build/obj/chmsg.o
                0x08002ba0                chMsgSend
                0x08002c00                chMsgWait
                0x08002c50                chMsgRelease
 .text          0x08002c70      0x410 build/obj/chmboxes.o
                0x08002ce0                chMBObjectInit
                0x08002d30                chMBReset
                0x08002d50                chMBResetI
                0x08002da0                chMBPost
                0x08002dd0                chMBPostS
                0x08002e30                chMBPostI
                0x08002e90                chMBPostAhead
                0x08002ec0                chMBPostAheadS
                0x08002f20                chMBPostAheadI
                0x08002f90                chMBFetch
                0x08002fc0                chMBFetchS
                0x08003020                chMBFetchI
 .text          0x08003080      0x570 build/obj/chqueues.o
                0x080031a0                chIQObjectInit
                0x080031f0                chIQResetI
                0x08003220                chIQPutI
                0x08003280                chIQGetTimeout
                0x08003310                chIQReadTimeout
                0x080033c0                chOQObjectInit
                0x08003410                chOQResetI
                0x08003450                chOQPutTimeout
                0x080034e0                chOQGetI
                0x08003540                chOQWriteTimeout
 .text          0x080035f0      0x100 build/obj/chmemcore.o
                0x08003630                _core_init
                0x08003660                chCoreAlloc
                0x08003680                chCoreAllocI
                0x080036d0                chCoreGetStatusX
 .text          0x080036f0      0x2a0 build/obj/chheap.o
                0x080036f0                _heap_init
                0x08003720                chHeapObjectInit
                0x08003760                chHeapAlloc
                0x08003850                chHeapFree
                0x08003920                chHeapStatus
 .text          0x08003990      0x150 build/obj/chmempools.o
                0x080039f0                chPoolObjectInit
                0x08003a10                chPoolLoadArray
                0x08003a40                chPoolAllocI
                0x08003a80                chPoolAlloc
                0x08003aa0                chPoolFreeI
                0x08003ac0                chPoolFree
 .text          0x08003ae0        0x0 build/obj/chcore.o
 .text          0x08003ae0       0xe0 build/obj/chcore_v7m.o
                0x08003b20                SVC_Handler
                0x08003b50                _port_irq_epilogue
 .text          0x08003bc0       0x40 build/obj/osal.o
                0x08003bc0                Osal_MemCpy
                0x08003be0                Osal_MemSet
 .text          0x08003c00       0x40 build/obj/hal.o
                0x08003c10                halInit
 .text          0x08003c40       0xc0 build/obj/st.o
                0x08003c90                stInit
                0x08003ca0                stStartAlarm
                0x08003cc0                stStopAlarm
                0x08003cd0                stSetAlarm
                0x08003cf0                stGetAlarm
 .text          0x08003d00      0x9b0 build/obj/hal_buffers.o
                0x08003e40                ibqObjectInit
                0x08003eb0                ibqResetI
                0x08003ef0                ibqGetEmptyBufferI
                0x08003f30                ibqPostFullBufferI
                0x08003f80                ibqGetFullBufferTimeout
                0x08003fb0                ibqGetFullBufferTimeoutS
                0x08004000                ibqReleaseEmptyBuffer
                0x08004020                ibqReleaseEmptyBufferS
                0x08004070                ibqGetTimeout
                0x080040d0                ibqReadTimeout
                0x080041f0                obqObjectInit
                0x08004260                obqResetI
                0x080042a0                obqGetFullBufferI
                0x080042f0                obqReleaseEmptyBufferI
                0x08004340                obqGetEmptyBufferTimeout
                0x08004370                obqGetEmptyBufferTimeoutS
                0x080043c0                obqPostFullBuffer
                0x080043e0                obqPostFullBufferS
                0x08004440                obqPutTimeout
                0x080044b0                obqWriteTimeout
                0x080045e0                obqTryFlushI
                0x08004670                obqFlush
 .text          0x080046b0        0x0 build/obj/hal_queues.o
 .text          0x080046b0      0x950 build/obj/hal_mmcsd.o
                0x080046b0                _mmcsd_get_slice
                0x08004730                _mmcsd_get_capacity
                0x080047a0                _mmcsd_get_capacity_ext
                0x080047d0                _mmcsd_unpack_sdc_cid
                0x080048e0                _mmcsd_unpack_mmc_cid
                0x08004a00                _mmcsd_unpack_csd_mmc
                0x08004c50                _mmcsd_unpack_csd_v10
                0x08004e30                _mmcsd_unpack_csd_v20
 .text          0x08005000      0xb40 build/obj/mmc_spi.o
                0x080054d0                mmcInit
                0x080054e0                mmcObjectInit
                0x08005510                mmcStart
                0x08005530                mmcStop
                0x08005550                mmcConnect
                0x08005700                mmcDisconnect
                0x08005760                mmcStartSequentialRead
                0x080057e0                mmcSequentialRead
                0x08005870                mmcStopSequentialRead
                0x080058c0                mmcStartSequentialWrite
                0x08005940                mmcSequentialWrite
                0x080059e0                mmcStopSequentialWrite
                0x08005a30                mmcSync
                0x08005a80                mmcGetInfo
                0x08005ab0                mmcErase
 .text          0x08005b40       0x90 build/obj/pal.o
                0x08005b40                palReadBus
                0x08005b60                palWriteBus
                0x08005ba0                palSetBusMode
 .text          0x08005bd0      0x430 build/obj/serial.o
                0x08005e30                sdInit
                0x08005e40                sdObjectInit
                0x08005ea0                sdStart
                0x08005ed0                sdStop
                0x08005f10                sdIncomingDataI
                0x08005f70                sdRequestDataI
                0x08005fa0                sdPutWouldBlock
                0x08005fd0                sdGetWouldBlock
 .text          0x08006000      0x3a0 build/obj/spi.o
                0x080060e0                spiInit
                0x080060f0                spiObjectInit
                0x08006120                spiStart
                0x08006150                spiStop
                0x08006170                spiSelect
                0x08006190                spiUnselect
                0x080061b0                spiStartIgnore
                0x080061e0                spiStartExchange
                0x08006210                spiStartSend
                0x08006240                spiStartReceive
                0x08006270                spiIgnore
                0x080062a0                spiExchange
                0x080062e0                spiSend
                0x08006320                spiReceive
                0x08006360                spiAcquireBus
                0x08006380                spiReleaseBus
 .text          0x080063a0      0xc20 build/obj/usb.o
                0x080068c0                usbInit
                0x080068d0                usbObjectInit
                0x08006920                usbStart
                0x08006970                usbStop
                0x080069c0                usbInitEndpointI
                0x08006a20                usbDisableEndpointsI
                0x08006a70                usbStartReceiveI
                0x08006ad0                usbStartTransmitI
                0x08006b30                usbStallReceiveI
                0x08006b70                usbStallTransmitI
                0x08006bb0                _usb_reset
                0x08006c30                _usb_suspend
                0x08006c70                _usb_wakeup
                0x08006ca0                _usb_ep0setup
                0x08006e00                _usb_ep0in
                0x08006f00                _usb_ep0out
 .text          0x08006fc0       0xe0 build/obj/nvic.o
                0x08006fc0                nvicEnableVector
                0x08007010                nvicDisableVector
                0x08007050                nvicSetSystemHandlerPriority
                0x08007070                nvicClearPending
 .text          0x080070a0      0x2c0 build/obj/hal_lld.o
                0x08007110                hal_lld_init
                0x080071c0                stm32_clock_init
 .text          0x08007360      0x800 build/obj/stm32_dma.o
                0x08007360                Vector6C
                0x080073d0                Vector70
                0x08007440                Vector74
                0x080074b0                Vector78
                0x08007520                Vector7C
                0x08007590                Vector80
                0x08007600                Vector84
                0x08007670                Vector120
                0x080076e0                Vector124
                0x08007750                Vector128
                0x080077c0                Vector12C
                0x08007830                Vector130
                0x080078a0                Vector150
                0x08007910                Vector154
                0x08007980                dmaInit
                0x080079e0                dmaStreamAllocate
                0x08007ac0                dmaStreamRelease
 .text          0x08007b60       0xe0 build/obj/st_lld.o
                0x08007bf0                SysTick_Handler
                0x08007c10                st_lld_init
 .text          0x08007c40      0x2b0 build/obj/pal_lld.o
                0x08007ca0                _pal_lld_init
                0x08007d40                _pal_lld_setgroupmode
 .text          0x08007ef0     0x1720 build/obj/usb_lld.o
                0x08008b00                Vector14C
                0x08008b20                usb_lld_init
                0x08008b50                usb_lld_start
                0x08008c70                usb_lld_stop
                0x08008cd0                usb_lld_reset
                0x08008e00                usb_lld_set_address
                0x08008e30                usb_lld_init_endpoint
                0x08009090                usb_lld_disable_endpoints
                0x080090b0                usb_lld_get_status_out
                0x080090f0                usb_lld_get_status_in
                0x08009130                usb_lld_read_setup
                0x08009160                usb_lld_start_out
                0x080092a0                usb_lld_start_in
                0x08009400                usb_lld_stall_out
                0x08009440                usb_lld_stall_in
                0x08009480                usb_lld_clear_out
                0x080094c0                usb_lld_clear_in
                0x08009500                usb_lld_pump
 .text          0x08009610      0x9c0 build/obj/spi_lld.o
                0x080097e0                spi_lld_init
                0x08009860                spi_lld_start
                0x080099c0                spi_lld_stop
                0x08009a30                spi_lld_select
                0x08009a50                spi_lld_unselect
                0x08009a70                spi_lld_ignore
                0x08009b70                spi_lld_exchange
                0x08009c80                spi_lld_send
                0x08009d80                spi_lld_receive
                0x08009e80                spi_lld_polled_exchange
                0x08009ef0                spi_lld_polled_tx
                0x08009f50                spi_lld_polled_rx
 .text          0x08009fd0      0x3d0 build/obj/serial_lld.o
                0x0800a2b0                Vector114
                0x0800a2d0                sd_lld_init
                0x0800a310                sd_lld_start
                0x0800a360                sd_lld_stop
 .text          0x0800a3a0       0x40 build/obj/board.o
                0x0800a3a0                __early_init
                0x0800a3b0                mmc_lld_is_card_inserted
                0x0800a3c0                mmc_lld_is_write_protected
                0x0800a3d0                boardInit
 .text          0x0800a3e0      0x7c0 build/obj/test.o
                0x0800a550                test_printn
                0x0800a5e0                test_print
                0x0800a620                test_println
                0x0800a6a0                test_emit_token
                0x0800a6d0                _test_fail
                0x0800a700                _test_assert
                0x0800a730                _test_assert_sequence
                0x0800a790                _test_assert_time_window
                0x0800a7c0                test_terminate_threads
                0x0800a800                test_wait_threads
                0x0800a850                test_wait_tick
                0x0800a890                test_start_timer
                0x0800a990                TestThread
 .text          0x0800aba0      0x560 build/obj/testthd.o
 .text          0x0800b100      0x800 build/obj/testsem.o
 .text          0x0800b900      0xa80 build/obj/testmtx.o
 .text          0x0800c380      0x110 build/obj/testmsg.o
 .text          0x0800c490      0x8d0 build/obj/testmbox.o
 .text          0x0800cd60      0x700 build/obj/testevt.o
 .text          0x0800d460      0x300 build/obj/testheap.o
 .text          0x0800d760      0x150 build/obj/testpools.o
 .text          0x0800d8b0      0x570 build/obj/testdyn.o
 .text          0x0800de20      0x7f0 build/obj/testqueues.o
 .text          0x0800e610      0x450 build/obj/testsys.o
 .text          0x0800ea60      0xba0 build/obj/testbmk.o
 .text          0x0800f600      0x200 build/obj/evtimer.o
                0x0800f7a0                evtObjectInit
                0x0800f7d0                evtStart
 .text          0x0800f800      0x180 build/obj/memstreams.o
                0x0800f950                msObjectInit
 .text          0x0800f980      0x5b0 build/obj/chprintf.o
                0x0800fa40                chvprintf
                0x0800fea0                chprintf
                0x0800fed0                chsnprintf
 .text          0x0800ff30      0x600 build/obj/shell.o
                0x080103b0                shellInit
                0x080103c0                shellExit
                0x080103e0                shellCreate
                0x08010410                shellCreateStatic
                0x08010440                shellGetLine
 .text          0x08010530       0x70 build/obj/AudioBV_Manager.o
                0x08010530                AudioBV_License_init
                0x08010550                AudioBV_Manager_init
                0x08010590                AudioProcess_BV
 .text          0x080105a0       0xc0 build/obj/MotionCP_Manager.o
                0x080105a0                MotionCP_manager_run
                0x08010610                MotionCP_License_init
                0x08010630                MotionCP_manager_init
 .text          0x08010660       0xc0 build/obj/MotionGR_Manager.o
                0x08010660                MotionGR_manager_run
                0x080106d0                MotionGR_License_init
                0x080106f0                MotionGR_manager_init
 .text          0x08010720      0x6f0 build/obj/HWAdvanceFeatures.o
                0x08010720                InitHWFeatures
                0x08010740                DisableHWFeatures
                0x080107c0                EnableHWOrientation6D
                0x08010800                DisableHWOrientation6D
                0x08010850                GetHWOrientation6D
                0x08010a50                EnableHWTilt
                0x08010a90                DisableHWTilt
                0x08010ae0                EnableHWWakeUp
                0x08010b20                DisableHWWakeUp
                0x08010b70                EnableHWFreeFall
                0x08010bb0                DisableHWFreeFall
                0x08010c00                EnableHWDoubleTap
                0x08010c40                DisableHWDoubleTap
                0x08010c90                EnableHWSingleTap
                0x08010cd0                DisableHWSingleTap
                0x08010d20                EnableHWPedometer
                0x08010d60                DisableHWPedometer
                0x08010db0                ResetHWPedometer
                0x08010dd0                GetStepHWPedometer
 .text          0x08010e10       0xc0 build/obj/MotionAR_Manager.o
                0x08010e10                MotionAR_manager_run
                0x08010e80                MotionAR_License_init
                0x08010ea0                MotionAR_manager_init
 .text          0x08010ed0      0x1d0 build/obj/stm32l4xx_hal_msp.o
                0x08010ed0                HAL_PCD_MspInit
                0x08010f50                HAL_PCD_MspDeInit
                0x08010f80                HAL_TIM_Base_MspInit
                0x08011000                HAL_TIM_OC_MspInit
                0x08011040                HAL_CRC_MspInit
                0x08011070                HAL_CRC_MspDeInit
 .text          0x080110a0      0x2f0 build/obj/OTA.o
                0x080110a0                UpdateFWBlueMS
                0x08011210                StartUpdateFWBlueMS
 .text          0x08011390      0x460 build/obj/TargetPlatform.o
                0x08011390                InitTargetPlatform
                0x08011570                InitMics
                0x080115a0                DeInitMics
                0x080115d0                LedOnTargetPlatform
                0x080115f0                LedOffTargetPlatform
                0x08011610                LedToggleTargetPlatform
                0x08011730                UserFunctionForErasingFlash
                0x08011790                UserFunctionForSavingFlash
 .text          0x080117f0      0x520 build/obj/usbd_conf.o
                0x080117f0                HAL_PCD_SetupStageCallback
                0x08011810                HAL_PCD_DataOutStageCallback
                0x08011850                HAL_PCD_DataInStageCallback
                0x08011890                HAL_PCD_SOFCallback
                0x080118b0                HAL_PCD_ResetCallback
                0x080118e0                HAL_PCD_SuspendCallback
                0x08011900                HAL_PCD_ResumeCallback
                0x08011920                HAL_PCD_ISOOUTIncompleteCallback
                0x08011950                HAL_PCD_ISOINIncompleteCallback
                0x08011980                HAL_PCD_ConnectCallback
                0x080119a0                HAL_PCD_DisconnectCallback
                0x080119c0                USBD_LL_Init
                0x08011a50                USBD_LL_DeInit
                0x08011a70                USBD_LL_Start
                0x08011a90                USBD_LL_Stop
                0x08011ab0                USBD_LL_OpenEP
                0x08011af0                USBD_LL_CloseEP
                0x08011b20                USBD_LL_FlushEP
                0x08011b50                USBD_LL_StallEP
                0x08011b80                USBD_LL_ClearStallEP
                0x08011bb0                USBD_LL_IsStallEP
                0x08011c10                USBD_LL_SetUSBAddress
                0x08011c40                USBD_LL_Transmit
                0x08011c80                USBD_LL_PrepareReceive
                0x08011cc0                USBD_LL_GetRxDataSize
                0x08011cf0                USBD_LL_Delay
 .text          0x08011d10     0x3f20 build/obj/sensor_service.o
                0x08011d10                safe_aci_gatt_update_char_value
                0x08011d80                Add_ConfigW2ST_Service
                0x08011ec0                Add_ConsoleW2ST_Service
                0x080120a0                Stderr_Update
                0x08012160                Term_Update
                0x08012310                Quat_Update
                0x080124a0                ECompass_Update
                0x08012570                ActivityRec_Update
                0x08012640                CarryPosRec_Update
                0x08012710                GestureRec_Update
                0x080127e0                Config_Notify
                0x080128e0                AccEvent_Notify
                0x080129c0                Add_HW_SW_ServW2ST_Service
                0x080132e0                AccGyroMag_Update
                0x080134d0                Environmental_Update
                0x080136e0                AudioLevel_Update
                0x080137c0                GG_Update
                0x08013940                setConnectable
                0x08013c50                Read_Request_CB
                0x08014010                Attribute_Modified_CB
                0x08015b40                HCI_Event_CB
 .text          0x08015c30      0x8f0 build/obj/HTS221_Driver_HL.o
 .text          0x08016520        0x0 build/obj/usbd_cdc_interface.o
 .text          0x08016520     0x1330 build/obj/HTS221_Driver.o
                0x08016520                HTS221_ReadReg
                0x08016560                HTS221_WriteReg
                0x080165a0                HTS221_Get_DriverVersion
                0x080165c0                HTS221_Get_DeviceID
                0x080165f0                HTS221_Set_InitConfig
                0x08016870                HTS221_Get_InitConfig
                0x08016930                HTS221_DeInit
                0x080169a0                HTS221_Get_Measurement
                0x080169e0                HTS221_Get_RawMeasurement
                0x08016a40                HTS221_Get_Humidity
                0x08016bb0                HTS221_Get_HumidityRaw
                0x08016bf0                HTS221_Get_Temperature
                0x08016d60                HTS221_Get_TemperatureRaw
                0x08016da0                HTS221_Get_DataStatus
                0x08016df0                HTS221_Activate
                0x08016e40                HTS221_DeActivate
                0x08016e90                HTS221_IsMeasurementCompleted
                0x08016ee0                HTS221_Set_AvgHT
                0x08017000                HTS221_Set_AvgH
                0x080170c0                HTS221_Set_AvgT
                0x08017180                HTS221_Get_AvgHT
                0x080171d0                HTS221_Set_BduMode
                0x08017260                HTS221_Get_BduMode
                0x080172a0                HTS221_Set_PowerDownMode
                0x08017330                HTS221_Get_PowerDownMode
                0x08017370                HTS221_Set_Odr
                0x08017410                HTS221_Get_Odr
                0x08017450                HTS221_MemoryBoot
                0x080174a0                HTS221_Set_HeaterState
                0x08017530                HTS221_Get_HeaterState
                0x08017570                HTS221_StartOneShotMeasurement
                0x080175c0                HTS221_Set_IrqActiveLevel
                0x08017650                HTS221_Get_IrqActiveLevel
                0x08017690                HTS221_Set_IrqOutputType
                0x08017720                HTS221_Get_IrqOutputType
                0x08017760                HTS221_Set_IrqEnable
                0x080177f0                HTS221_Get_IrqEnable
                0x08017830                HTS221_assert_failed
 .text          0x08017850      0xed0 build/obj/LPS22HB_Driver_HL.o
 .text          0x08018720     0x1ab0 build/obj/LPS22HB_Driver.o
                0x08018720                LPS22HB_ReadReg
                0x08018760                LPS22HB_WriteReg
                0x080187a0                LPS22HB_Get_DeviceID
                0x080187d0                LPS22HB_Get_DriverVersion
                0x080187f0                LPS22HB_Set_PowerMode
                0x08018860                LPS22HB_Get_PowerMode
                0x080188a0                LPS22HB_Set_Odr
                0x08018910                LPS22HB_Get_Odr
                0x08018950                LPS22HB_Set_LowPassFilter
                0x080189c0                LPS22HB_Set_LowPassFilterCutoff
                0x08018a30                LPS22HB_Set_Bdu
                0x08018aa0                LPS22HB_Get_Bdu
                0x08018ae0                LPS22HB_Set_SpiInterface
                0x08018b50                LPS22HB_Set_ClockTreeConfifuration
                0x08018bc0                LPS22HB_Get_SpiInterface
                0x08018c00                LPS22HB_SwReset
                0x08018c50                LPS22HB_MemoryBoot
                0x08018ca0                LPS22HB_SwResetAndMemoryBoot
                0x08018cf0                LPS22HB_Set_FifoModeUse
                0x08018d60                LPS22HB_Set_FifoWatermarkLevelUse
                0x08018dd0                LPS22HB_Set_AutomaticIncrementRegAddress
                0x08018e40                LPS22HB_Set_I2C
                0x08018eb0                LPS22HB_StartOneShotMeasurement
                0x08018f00                LPS22HB_Set_InterruptActiveLevel
                0x08018f70                LPS22HB_Set_InterruptOutputType
                0x08018fe0                LPS22HB_Set_InterruptControlConfig
                0x08019050                LPS22HB_Set_DRDYInterrupt
                0x080190c0                LPS22HB_Set_FIFO_OVR_Interrupt
                0x08019130                LPS22HB_Set_FIFO_FTH_Interrupt
                0x080191a0                LPS22HB_Set_FIFO_FULL_Interrupt
                0x08019210                LPS22HB_Set_AutoRifP
                0x08019260                LPS22HB_ResetAutoRifP
                0x080192b0                LPS22HB_Set_AutoZeroFunction
                0x08019300                LPS22HB_ResetAutoZeroFunction
                0x08019350                LPS22HB_Set_InterruptDifferentialGeneration
                0x080193c0                LPS22HB_Get_InterruptDifferentialGeneration
                0x08019400                LPS22HB_LatchInterruptRequest
                0x08019470                LPS22HB_Set_PLE
                0x080194e0                LPS22HB_Set_PHE
                0x08019550                LPS22HB_Get_InterruptDifferentialEventStatus
                0x080195c0                LPS22HB_Get_DataStatus
                0x08019630                LPS22HB_Get_RawPressure
                0x080196b0                LPS22HB_Get_Pressure
                0x080196f0                LPS22HB_Get_RawTemperature
                0x08019740                LPS22HB_Get_Temperature
                0x08019790                LPS22HB_Get_PressureThreshold
                0x080197e0                LPS22HB_Set_PressureThreshold
                0x08019830                LPS22HB_Set_FifoMode
                0x080198a0                LPS22HB_Get_FifoMode
                0x080198e0                LPS22HB_Set_FifoWatermarkLevel
                0x08019950                LPS22HB_Get_FifoWatermarkLevel
                0x08019990                LPS22HB_Get_FifoStatus
                0x08019a10                LPS22HB_Get_PressureOffsetValue
                0x08019a70                LPS22HB_Get_ReferencePressure
                0x08019b10                LPS22HB_IsMeasurementCompleted
                0x08019b70                LPS22HB_Get_Measurement
                0x08019bc0                LPS22HB_Init
                0x08019c20                LPS22HB_DeInit
                0x08019c60                LPS22HB_Set_GenericConfig
                0x08019d10                LPS22HB_Get_GenericConfig
                0x08019dc0                LPS22HB_Set_InterruptConfig
                0x08019fc0                LPS22HB_Get_InterruptConfig
                0x0801a0a0                LPS22HB_Set_FifoConfig
                0x0801a160                LPS22HB_Get_FifoConfig
 .text          0x0801a1d0      0x630 build/obj/LSM303AGR_MAG_driver_HL.o
 .text          0x0801a800      0xcf0 build/obj/LSM303AGR_ACC_driver_HL.o
 .text          0x0801b4f0     0x1930 build/obj/LSM303AGR_MAG_driver.o
                0x0801b4f0                LSM303AGR_MAG_WriteReg
                0x0801b530                LSM303AGR_MAG_ReadReg
                0x0801b570                LSM303AGR_MAG_R_WHO_AM_I
                0x0801b5b0                LSM303AGR_MAG_W_BDU
                0x0801b620                LSM303AGR_MAG_R_BDU
                0x0801b660                LSM303AGR_MAG_W_MD
                0x0801b6d0                LSM303AGR_MAG_R_MD
                0x0801b710                LSM303AGR_MAG_Get_Raw_Magnetic
                0x0801b740                LSM303AGR_MAG_Get_Magnetic
                0x0801b7c0                LSM303AGR_MAG_W_ODR
                0x0801b830                LSM303AGR_MAG_R_ODR
                0x0801b870                LSM303AGR_MAG_W_OFF_X_L
                0x0801b8d0                LSM303AGR_MAG_R_OFF_X_L
                0x0801b910                LSM303AGR_MAG_W_OFF_X_H
                0x0801b970                LSM303AGR_MAG_R_OFF_X_H
                0x0801b9b0                LSM303AGR_MAG_W_OFF_Y_L
                0x0801ba10                LSM303AGR_MAG_R_OFF_Y_L
                0x0801ba50                LSM303AGR_MAG_W_OFF_Y_H
                0x0801bab0                LSM303AGR_MAG_R_OFF_Y_H
                0x0801baf0                LSM303AGR_MAG_W_OFF_Z_L
                0x0801bb50                LSM303AGR_MAG_R_OFF_Z_L
                0x0801bb90                LSM303AGR_MAG_W_OFF_Z_H
                0x0801bbf0                LSM303AGR_MAG_Get_MagOff
                0x0801bc90                LSM303AGR_MAG_Set_MagOff
                0x0801bd10                LSM303AGR_MAG_R_OFF_Z_H
                0x0801bd50                LSM303AGR_MAG_W_LP
                0x0801bdc0                LSM303AGR_MAG_R_LP
                0x0801be00                LSM303AGR_MAG_W_SOFT_RST
                0x0801be70                LSM303AGR_MAG_R_SOFT_RST
                0x0801beb0                LSM303AGR_MAG_W_LPF
                0x0801bf20                LSM303AGR_MAG_R_LPF
                0x0801bf60                LSM303AGR_MAG_W_OFF_CANC
                0x0801bfd0                LSM303AGR_MAG_R_OFF_CANC
                0x0801c010                LSM303AGR_MAG_W_SET_FREQ
                0x0801c080                LSM303AGR_MAG_R_SET_FREQ
                0x0801c0c0                LSM303AGR_MAG_W_INT_ON_DATAOFF
                0x0801c130                LSM303AGR_MAG_R_INT_ON_DATAOFF
                0x0801c170                LSM303AGR_MAG_W_INT_MAG
                0x0801c1e0                LSM303AGR_MAG_R_INT_MAG
                0x0801c220                LSM303AGR_MAG_W_ST
                0x0801c290                LSM303AGR_MAG_R_ST
                0x0801c2d0                LSM303AGR_MAG_W_BLE
                0x0801c340                LSM303AGR_MAG_R_BLE
                0x0801c380                LSM303AGR_MAG_W_I2C_DIS
                0x0801c3f0                LSM303AGR_MAG_R_I2C_DIS
                0x0801c430                LSM303AGR_MAG_W_INT_MAG_PIN
                0x0801c4a0                LSM303AGR_MAG_R_INT_MAG_PIN
                0x0801c4e0                LSM303AGR_MAG_W_IEN
                0x0801c550                LSM303AGR_MAG_R_IEN
                0x0801c590                LSM303AGR_MAG_W_IEL
                0x0801c600                LSM303AGR_MAG_R_IEL
                0x0801c640                LSM303AGR_MAG_W_IEA
                0x0801c6b0                LSM303AGR_MAG_R_IEA
                0x0801c6f0                LSM303AGR_MAG_W_ZIEN
                0x0801c760                LSM303AGR_MAG_R_ZIEN
                0x0801c7a0                LSM303AGR_MAG_W_YIEN
                0x0801c810                LSM303AGR_MAG_R_YIEN
                0x0801c850                LSM303AGR_MAG_W_XIEN
                0x0801c8c0                LSM303AGR_MAG_R_XIEN
                0x0801c900                LSM303AGR_MAG_R_INT
                0x0801c940                LSM303AGR_MAG_R_MROI
                0x0801c980                LSM303AGR_MAG_R_N_TH_S_Z
                0x0801c9c0                LSM303AGR_MAG_R_N_TH_S_Y
                0x0801ca00                LSM303AGR_MAG_R_N_TH_S_X
                0x0801ca40                LSM303AGR_MAG_R_P_TH_S_Z
                0x0801ca80                LSM303AGR_MAG_R_P_TH_S_Y
                0x0801cac0                LSM303AGR_MAG_R_P_TH_S_X
                0x0801cb00                LSM303AGR_MAG_R_XDA
                0x0801cb40                LSM303AGR_MAG_R_YDA
                0x0801cb80                LSM303AGR_MAG_R_ZDA
                0x0801cbc0                LSM303AGR_MAG_R_ZYXDA
                0x0801cc00                LSM303AGR_MAG_R_XOR
                0x0801cc40                LSM303AGR_MAG_R_YOR
                0x0801cc80                LSM303AGR_MAG_R_ZOR
                0x0801ccc0                LSM303AGR_MAG_R_ZYXOR
                0x0801cd00                LSM303AGR_MAG_Get_IntThreshld
                0x0801cd90                LSM303AGR_MAG_Set_IntThreshld
 .text          0x0801ce20     0x3fd0 build/obj/LSM303AGR_ACC_driver.o
                0x0801ce20                LSM303AGR_ACC_WriteReg
                0x0801ce60                LSM303AGR_ACC_ReadReg
                0x0801cea0                LSM303AGR_ACC_R_WHO_AM_I
                0x0801cee0                LSM303AGR_ACC_W_BlockDataUpdate
                0x0801cf50                LSM303AGR_ACC_R_BlockDataUpdate
                0x0801cf90                LSM303AGR_ACC_W_FullScale
                0x0801d000                LSM303AGR_ACC_R_FullScale
                0x0801d040                LSM303AGR_ACC_Get_Raw_Acceleration
                0x0801d070                LSM303AGR_ACC_Get_Acceleration
                0x0801d280                LSM303AGR_ACC_W_ODR
                0x0801d2f0                LSM303AGR_ACC_R_ODR
                0x0801d330                LSM303AGR_ACC_R_x_data_avail
                0x0801d370                LSM303AGR_ACC_R_y_data_avail
                0x0801d3b0                LSM303AGR_ACC_R_z_data_avail
                0x0801d3f0                LSM303AGR_ACC_R_xyz_data_avail
                0x0801d430                LSM303AGR_ACC_R_DataXOverrun
                0x0801d470                LSM303AGR_ACC_R_DataYOverrun
                0x0801d4b0                LSM303AGR_ACC_R_DataZOverrun
                0x0801d4f0                LSM303AGR_ACC_R_DataXYZOverrun
                0x0801d530                LSM303AGR_ACC_R_int_counter
                0x0801d570                LSM303AGR_ACC_W_TEMP_EN_bits
                0x0801d5e0                LSM303AGR_ACC_R_TEMP_EN_bits
                0x0801d620                LSM303AGR_ACC_W_ADC_PD
                0x0801d690                LSM303AGR_ACC_R_ADC_PD
                0x0801d6d0                LSM303AGR_ACC_W_XEN
                0x0801d740                LSM303AGR_ACC_R_XEN
                0x0801d780                LSM303AGR_ACC_W_YEN
                0x0801d7f0                LSM303AGR_ACC_R_YEN
                0x0801d830                LSM303AGR_ACC_W_ZEN
                0x0801d8a0                LSM303AGR_ACC_R_ZEN
                0x0801d8e0                LSM303AGR_ACC_W_LOWPWR_EN
                0x0801d950                LSM303AGR_ACC_R_LOWPWR_EN
                0x0801d990                LSM303AGR_ACC_W_hpf_aoi_en_int1
                0x0801da00                LSM303AGR_ACC_R_hpf_aoi_en_int1
                0x0801da40                LSM303AGR_ACC_W_hpf_aoi_en_int2
                0x0801dab0                LSM303AGR_ACC_R_hpf_aoi_en_int2
                0x0801daf0                LSM303AGR_ACC_W_hpf_click_en
                0x0801db60                LSM303AGR_ACC_R_hpf_click_en
                0x0801dba0                LSM303AGR_ACC_W_Data_Filter
                0x0801dc10                LSM303AGR_ACC_R_Data_Filter
                0x0801dc50                LSM303AGR_ACC_W_hpf_cutoff_freq
                0x0801dcc0                LSM303AGR_ACC_R_hpf_cutoff_freq
                0x0801dd00                LSM303AGR_ACC_W_hpf_mode
                0x0801dd70                LSM303AGR_ACC_R_hpf_mode
                0x0801ddb0                LSM303AGR_ACC_W_FIFO_Overrun_on_INT1
                0x0801de20                LSM303AGR_ACC_R_FIFO_Overrun_on_INT1
                0x0801de60                LSM303AGR_ACC_W_FIFO_Watermark_on_INT1
                0x0801ded0                LSM303AGR_ACC_R_FIFO_Watermark_on_INT1
                0x0801df10                LSM303AGR_ACC_W_FIFO_DRDY2_on_INT1
                0x0801df80                LSM303AGR_ACC_R_FIFO_DRDY2_on_INT1
                0x0801dfc0                LSM303AGR_ACC_W_FIFO_DRDY1_on_INT1
                0x0801e030                LSM303AGR_ACC_R_FIFO_DRDY1_on_INT1
                0x0801e070                LSM303AGR_ACC_W_FIFO_AOL2_on_INT1
                0x0801e0e0                LSM303AGR_ACC_R_FIFO_AOL2_on_INT1
                0x0801e120                LSM303AGR_ACC_W_FIFO_AOL1_on_INT1
                0x0801e190                LSM303AGR_ACC_R_FIFO_AOL1_on_INT1
                0x0801e1d0                LSM303AGR_ACC_W_FIFO_Click_on_INT1
                0x0801e240                LSM303AGR_ACC_R_FIFO_Click_on_INT1
                0x0801e280                LSM303AGR_ACC_W_SPI_mode
                0x0801e2f0                LSM303AGR_ACC_R_SPI_mode
                0x0801e330                LSM303AGR_ACC_W_SelfTest
                0x0801e3a0                LSM303AGR_ACC_R_SelfTest
                0x0801e3e0                LSM303AGR_ACC_W_HiRes
                0x0801e450                LSM303AGR_ACC_R_HiRes
                0x0801e490                LSM303AGR_ACC_W_LittleBigEndian
                0x0801e500                LSM303AGR_ACC_R_LittleBigEndian
                0x0801e540                LSM303AGR_ACC_W_4D_on_INT2
                0x0801e5b0                LSM303AGR_ACC_R_4D_on_INT2
                0x0801e5f0                LSM303AGR_ACC_W_LatchInterrupt_on_INT2
                0x0801e660                LSM303AGR_ACC_R_LatchInterrupt_on_INT2
                0x0801e6a0                LSM303AGR_ACC_W_4D_on_INT1
                0x0801e710                LSM303AGR_ACC_R_4D_on_INT1
                0x0801e750                LSM303AGR_ACC_W_LatchInterrupt_on_INT1
                0x0801e7c0                LSM303AGR_ACC_R_LatchInterrupt_on_INT1
                0x0801e800                LSM303AGR_ACC_W_FIFO_EN
                0x0801e870                LSM303AGR_ACC_R_FIFO_EN
                0x0801e8b0                LSM303AGR_ACC_W_RebootMemory
                0x0801e920                LSM303AGR_ACC_R_RebootMemory
                0x0801e960                LSM303AGR_ACC_W_IntActive
                0x0801e9d0                LSM303AGR_ACC_R_IntActive
                0x0801ea10                LSM303AGR_ACC_W_P2_ACT
                0x0801ea80                LSM303AGR_ACC_R_P2_ACT
                0x0801eac0                LSM303AGR_ACC_W_Boot_on_INT2
                0x0801eb30                LSM303AGR_ACC_R_Boot_on_INT2
                0x0801eb70                LSM303AGR_ACC_W_I2_on_INT2
                0x0801ebe0                LSM303AGR_ACC_R_I2_on_INT2
                0x0801ec20                LSM303AGR_ACC_W_I2_on_INT1
                0x0801ec90                LSM303AGR_ACC_R_I2_on_INT1
                0x0801ecd0                LSM303AGR_ACC_W_Click_on_INT2
                0x0801ed40                LSM303AGR_ACC_R_Click_on_INT2
                0x0801ed80                LSM303AGR_ACC_W_ReferenceVal
                0x0801ede0                LSM303AGR_ACC_R_ReferenceVal
                0x0801ee20                LSM303AGR_ACC_R_XDataAvail
                0x0801ee60                LSM303AGR_ACC_R_YDataAvail
                0x0801eea0                LSM303AGR_ACC_R_ZDataAvail
                0x0801eee0                LSM303AGR_ACC_R_XYZDataAvail
                0x0801ef20                LSM303AGR_ACC_R_XDataOverrun
                0x0801ef60                LSM303AGR_ACC_R_YDataOverrun
                0x0801efa0                LSM303AGR_ACC_R_ZDataOverrun
                0x0801efe0                LSM303AGR_ACC_R_XYZDataOverrun
                0x0801f020                LSM303AGR_ACC_W_FifoThreshold
                0x0801f0a0                LSM303AGR_ACC_R_FifoThreshold
                0x0801f0e0                LSM303AGR_ACC_W_TriggerSel
                0x0801f150                LSM303AGR_ACC_R_TriggerSel
                0x0801f190                LSM303AGR_ACC_W_FifoMode
                0x0801f200                LSM303AGR_ACC_R_FifoMode
                0x0801f240                LSM303AGR_ACC_R_FifoSamplesAvail
                0x0801f280                LSM303AGR_ACC_R_FifoEmpty
                0x0801f2c0                LSM303AGR_ACC_R_FifoOverrun
                0x0801f300                LSM303AGR_ACC_R_WatermarkLevel
                0x0801f340                LSM303AGR_ACC_W_Int1EnXLo
                0x0801f3b0                LSM303AGR_ACC_R_Int1EnXLo
                0x0801f3f0                LSM303AGR_ACC_W_Int1EnXHi
                0x0801f460                LSM303AGR_ACC_R_Int1EnXHi
                0x0801f4a0                LSM303AGR_ACC_W_Int1EnYLo
                0x0801f510                LSM303AGR_ACC_R_Int1EnYLo
                0x0801f550                LSM303AGR_ACC_W_Int1EnYHi
                0x0801f5c0                LSM303AGR_ACC_R_Int1EnYHi
                0x0801f600                LSM303AGR_ACC_W_Int1EnZLo
                0x0801f670                LSM303AGR_ACC_R_Int1EnZLo
                0x0801f6b0                LSM303AGR_ACC_W_Int1EnZHi
                0x0801f720                LSM303AGR_ACC_R_Int1EnZHi
                0x0801f760                LSM303AGR_ACC_W_Int1_6D
                0x0801f7d0                LSM303AGR_ACC_R_Int1_6D
                0x0801f810                LSM303AGR_ACC_W_Int1_AOI
                0x0801f880                LSM303AGR_ACC_R_Int1_AOI
                0x0801f8c0                LSM303AGR_ACC_W_Int2EnXLo
                0x0801f930                LSM303AGR_ACC_R_Int2EnXLo
                0x0801f970                LSM303AGR_ACC_W_Int2EnXHi
                0x0801f9e0                LSM303AGR_ACC_R_Int2EnXHi
                0x0801fa20                LSM303AGR_ACC_W_Int2EnYLo
                0x0801fa90                LSM303AGR_ACC_R_Int2EnYLo
                0x0801fad0                LSM303AGR_ACC_W_Int2EnYHi
                0x0801fb40                LSM303AGR_ACC_R_Int2EnYHi
                0x0801fb80                LSM303AGR_ACC_W_Int2EnZLo
                0x0801fbf0                LSM303AGR_ACC_R_Int2EnZLo
                0x0801fc30                LSM303AGR_ACC_W_Int2EnZHi
                0x0801fca0                LSM303AGR_ACC_R_Int2EnZHi
                0x0801fce0                LSM303AGR_ACC_W_Int2_6D
                0x0801fd50                LSM303AGR_ACC_R_Int2_6D
                0x0801fd90                LSM303AGR_ACC_W_Int2_AOI
                0x0801fe00                LSM303AGR_ACC_R_Int2_AOI
                0x0801fe40                LSM303AGR_ACC_R_Int1_Xlo
                0x0801fe80                LSM303AGR_ACC_R_Int1_XHi
                0x0801fec0                LSM303AGR_ACC_R_Int1_YLo
                0x0801ff00                LSM303AGR_ACC_R_Int1_YHi
                0x0801ff40                LSM303AGR_ACC_R_Int1_Zlo
                0x0801ff80                LSM303AGR_ACC_R_Int1_ZHi
                0x0801ffc0                LSM303AGR_ACC_R_Int1_IA
                0x08020000                LSM303AGR_ACC_R_Int2_Xlo
                0x08020040                LSM303AGR_ACC_R_Int2_XHi
                0x08020080                LSM303AGR_ACC_R_Int2_YLo
                0x080200c0                LSM303AGR_ACC_R_Int2_YHi
                0x08020100                LSM303AGR_ACC_R_Int2_Zlo
                0x08020140                LSM303AGR_ACC_R_Int2_ZHi
                0x08020180                LSM303AGR_ACC_R_Int2_IA
                0x080201c0                LSM303AGR_ACC_W_Int1_Threshold
                0x08020240                LSM303AGR_ACC_R_Int1_Threshold
                0x08020280                LSM303AGR_ACC_W_Int2_Threshold
                0x08020300                LSM303AGR_ACC_R_Int2_Threshold
                0x08020340                LSM303AGR_ACC_W_Int1_Duration
                0x080203c0                LSM303AGR_ACC_R_Int1_Duration
                0x08020400                LSM303AGR_ACC_W_Int2_Duration
                0x08020480                LSM303AGR_ACC_R_Int2_Duration
                0x080204c0                LSM303AGR_ACC_W_XSingle
                0x08020530                LSM303AGR_ACC_R_XSingle
                0x08020570                LSM303AGR_ACC_W_XDouble
                0x080205e0                LSM303AGR_ACC_R_XDouble
                0x08020620                LSM303AGR_ACC_W_YSingle
                0x08020690                LSM303AGR_ACC_R_YSingle
                0x080206d0                LSM303AGR_ACC_W_YDouble
                0x08020740                LSM303AGR_ACC_R_YDouble
                0x08020780                LSM303AGR_ACC_W_ZSingle
                0x080207f0                LSM303AGR_ACC_R_ZSingle
                0x08020830                LSM303AGR_ACC_W_ZDouble
                0x080208a0                LSM303AGR_ACC_R_ZDouble
                0x080208e0                LSM303AGR_ACC_R_ClickX
                0x08020920                LSM303AGR_ACC_R_ClickY
                0x08020960                LSM303AGR_ACC_R_ClickZ
                0x080209a0                LSM303AGR_ACC_R_ClickSign
                0x080209e0                LSM303AGR_ACC_R_SingleCLICK
                0x08020a20                LSM303AGR_ACC_R_DoubleCLICK
                0x08020a60                LSM303AGR_ACC_R_CLICK_IA
                0x08020aa0                LSM303AGR_ACC_W_ClickThreshold
                0x08020b20                LSM303AGR_ACC_R_ClickThreshold
                0x08020b60                LSM303AGR_ACC_W_ClickTimeLimit
                0x08020be0                LSM303AGR_ACC_R_ClickTimeLimit
                0x08020c20                LSM303AGR_ACC_W_ClickTimeLatency
                0x08020c80                LSM303AGR_ACC_R_ClickTimeLatency
                0x08020cc0                LSM303AGR_ACC_W_ClickTimeWindow
                0x08020d20                LSM303AGR_ACC_R_ClickTimeWindow
                0x08020d60                LSM303AGR_ACC_Get_Voltage_ADC
 .text          0x08020df0     0x6ed0 build/obj/LSM6DSM_ACC_GYRO_driver.o
                0x08020e70                LSM6DSM_ACC_GYRO_WriteMem
                0x08020eb0                LSM6DSM_ACC_GYRO_ReadMem
                0x08020ef0                LSM6DSM_ACC_GYRO_SwapHighLowByte
                0x08020fc0                LSM6DSM_ACC_GYRO_W_EmbeddedAccess
                0x08021030                LSM6DSM_ACC_GYRO_R_EmbeddedAccess
                0x08021070                LSM6DSM_ACC_GYRO_W_SYNC_RES_RATIO
                0x080210e0                LSM6DSM_ACC_GYRO_R_SYNC_RES_RATIO
                0x08021120                LSM6DSM_ACC_GYRO_W_Stamping_Time_Frame
                0x08021180                LSM6DSM_ACC_GYRO_R_Stamping_Time_Frame
                0x080211c0                LSM6DSM_ACC_GYRO_W_FIFO_Watermark
                0x08021290                LSM6DSM_ACC_GYRO_R_FIFO_Watermark
                0x08021310                LSM6DSM_ACC_GYRO_W_FIFO_TEMP
                0x08021380                LSM6DSM_ACC_GYRO_R_FIFO_TEMP
                0x080213c0                LSM6DSM_ACC_GYRO_W_TIM_PEDO_FIFO_Write_En
                0x08021430                LSM6DSM_ACC_GYRO_R_TIM_PEDO_FIFO_Write_En
                0x08021470                LSM6DSM_ACC_GYRO_W_TIM_PEDO_FIFO_En
                0x080214e0                LSM6DSM_ACC_GYRO_R_TIM_PEDO_FIFO_En
                0x08021520                LSM6DSM_ACC_GYRO_W_DEC_FIFO_XL
                0x08021590                LSM6DSM_ACC_GYRO_W_DEC_FIFO_XL_val
                0x08021690                LSM6DSM_ACC_GYRO_R_DEC_FIFO_XL
                0x080216d0                LSM6DSM_ACC_GYRO_W_DEC_FIFO_G
                0x08021740                LSM6DSM_ACC_GYRO_W_DEC_FIFO_G_val
                0x08021840                LSM6DSM_ACC_GYRO_R_DEC_FIFO_G
                0x08021880                LSM6DSM_ACC_GYRO_W_DEC_FIFO_DS3
                0x080218f0                LSM6DSM_ACC_GYRO_R_DEC_FIFO_DS3
                0x08021930                LSM6DSM_ACC_GYRO_W_DEC_FIFO_DS4
                0x080219a0                LSM6DSM_ACC_GYRO_R_DEC_FIFO_DS4
                0x080219e0                LSM6DSM_ACC_GYRO_W_HI_DATA_ONLY
                0x08021a50                LSM6DSM_ACC_GYRO_R_HI_DATA_ONLY
                0x08021a90                LSM6DSM_ACC_GYRO_W_STOP_ON_FTH
                0x08021b00                LSM6DSM_ACC_GYRO_R_STOP_ON_FTH
                0x08021b40                LSM6DSM_ACC_GYRO_W_FIFO_MODE
                0x08021bb0                LSM6DSM_ACC_GYRO_R_FIFO_MODE
                0x08021bf0                LSM6DSM_ACC_GYRO_W_ODR_FIFO
                0x08021c60                LSM6DSM_ACC_GYRO_R_ODR_FIFO
                0x08021ca0                LSM6DSM_ACC_GYRO_W_DRDY_PULSE
                0x08021d10                LSM6DSM_ACC_GYRO_R_DRDY_PULSE
                0x08021d50                LSM6DSM_ACC_GYRO_W_DRDY_XL_on_INT1
                0x08021dc0                LSM6DSM_ACC_GYRO_R_DRDY_XL_on_INT1
                0x08021e00                LSM6DSM_ACC_GYRO_W_DRDY_G_on_INT1
                0x08021e70                LSM6DSM_ACC_GYRO_R_DRDY_G_on_INT1
                0x08021eb0                LSM6DSM_ACC_GYRO_W_BOOT_on_INT1
                0x08021f20                LSM6DSM_ACC_GYRO_R_BOOT_on_INT1
                0x08021f60                LSM6DSM_ACC_GYRO_W_FIFO_TSHLD_on_INT1
                0x08021fd0                LSM6DSM_ACC_GYRO_R_FIFO_TSHLD_on_INT1
                0x08022010                LSM6DSM_ACC_GYRO_W_OVERRUN_on_INT1
                0x08022080                LSM6DSM_ACC_GYRO_R_OVERRUN_on_INT1
                0x080220c0                LSM6DSM_ACC_GYRO_W_FULL_FLAG_on_INT1
                0x08022130                LSM6DSM_ACC_GYRO_R_FULL_FLAG_on_INT1
                0x08022170                LSM6DSM_ACC_GYRO_W_SIGN_MOT_on_INT1
                0x080221e0                LSM6DSM_ACC_GYRO_R_SIGN_MOT_on_INT1
                0x08022220                LSM6DSM_ACC_GYRO_W_STEP_DET_on_INT1
                0x08022290                LSM6DSM_ACC_GYRO_R_STEP_DET_on_INT1
                0x080222d0                LSM6DSM_ACC_GYRO_W_DRDY_XL_on_INT2
                0x08022340                LSM6DSM_ACC_GYRO_R_DRDY_XL_on_INT2
                0x08022380                LSM6DSM_ACC_GYRO_W_DRDY_G_on_INT2
                0x080223f0                LSM6DSM_ACC_GYRO_R_DRDY_G_on_INT2
                0x08022430                LSM6DSM_ACC_GYRO_W_DRDY_TEMP_on_INT2
                0x080224a0                LSM6DSM_ACC_GYRO_R_DRDY_TEMP_on_INT2
                0x080224e0                LSM6DSM_ACC_GYRO_W_FIFO_TSHLD_on_INT2
                0x08022550                LSM6DSM_ACC_GYRO_R_FIFO_TSHLD_on_INT2
                0x08022590                LSM6DSM_ACC_GYRO_W_OVERRUN_on_INT2
                0x08022600                LSM6DSM_ACC_GYRO_R_OVERRUN_on_INT2
                0x08022640                LSM6DSM_ACC_GYRO_W_FULL_FLAG_on_INT2
                0x080226b0                LSM6DSM_ACC_GYRO_R_FULL_FLAG_on_INT2
                0x080226f0                LSM6DSM_ACC_GYRO_W_STEP_COUNT_OV_on_INT2
                0x08022760                LSM6DSM_ACC_GYRO_R_STEP_COUNT_OV_on_INT2
                0x080227a0                LSM6DSM_ACC_GYRO_W_STEP_DELTA_on_INT2
                0x08022810                LSM6DSM_ACC_GYRO_R_STEP_DELTA_on_INT2
                0x08022850                LSM6DSM_ACC_GYRO_R_WHO_AM_I
                0x08022890                LSM6DSM_ACC_GYRO_W_BW_SEL
                0x08022900                LSM6DSM_ACC_GYRO_R_BW_SEL
                0x08022940                LSM6DSM_ACC_GYRO_W_FS_XL
                0x080229b0                LSM6DSM_ACC_GYRO_R_FS_XL
                0x080229f0                LSM6DSM_ACC_GYRO_W_ODR_XL
                0x08022a60                LSM6DSM_ACC_GYRO_R_ODR_XL
                0x08022aa0                LSM6DSM_ACC_GYRO_translate_ODR_XL
                0x08022b40                LSM6DSM_ACC_GYRO_W_FS_125
                0x08022bb0                LSM6DSM_ACC_GYRO_R_FS_125
                0x08022bf0                LSM6DSM_ACC_GYRO_W_FS_G
                0x08022c60                LSM6DSM_ACC_GYRO_R_FS_G
                0x08022ca0                LSM6DSM_ACC_GYRO_W_ODR_G
                0x08022d10                LSM6DSM_ACC_GYRO_R_ODR_G
                0x08022d50                LSM6DSM_ACC_GYRO_translate_ODR_G
                0x08022df0                LSM6DSM_ACC_GYRO_W_SW_RESET
                0x08022e60                LSM6DSM_ACC_GYRO_R_SW_RESET
                0x08022ea0                LSM6DSM_ACC_GYRO_W_BLE
                0x08022f10                LSM6DSM_ACC_GYRO_R_BLE
                0x08022f50                LSM6DSM_ACC_GYRO_W_IF_Addr_Incr
                0x08022fc0                LSM6DSM_ACC_GYRO_R_IF_Addr_Incr
                0x08023000                LSM6DSM_ACC_GYRO_W_SPI_Mode
                0x08023070                LSM6DSM_ACC_GYRO_R_SPI_Mode
                0x080230b0                LSM6DSM_ACC_GYRO_W_PadSel
                0x08023120                LSM6DSM_ACC_GYRO_R_PadSel
                0x08023160                LSM6DSM_ACC_GYRO_W_INT_ACT_LEVEL
                0x080231d0                LSM6DSM_ACC_GYRO_R_INT_ACT_LEVEL
                0x08023210                LSM6DSM_ACC_GYRO_W_BDU
                0x08023280                LSM6DSM_ACC_GYRO_R_BDU
                0x080232c0                LSM6DSM_ACC_GYRO_W_BOOT
                0x08023330                LSM6DSM_ACC_GYRO_R_BOOT
                0x08023370                LSM6DSM_ACC_GYRO_W_LPF1_SEL_G
                0x080233e0                LSM6DSM_ACC_GYRO_R_LPF1_SEL_G
                0x08023420                LSM6DSM_ACC_GYRO_W_I2C_DISABLE
                0x08023490                LSM6DSM_ACC_GYRO_R_I2C_DISABLE
                0x080234d0                LSM6DSM_ACC_GYRO_W_DRDY_MSK
                0x08023540                LSM6DSM_ACC_GYRO_R_DRDY_MSK
                0x08023580                LSM6DSM_ACC_GYRO_W_INT2_ON_INT1
                0x080235f0                LSM6DSM_ACC_GYRO_R_INT2_ON_INT1
                0x08023630                LSM6DSM_ACC_GYRO_W_SleepMode_G
                0x080236a0                LSM6DSM_ACC_GYRO_R_SleepMode_G
                0x080236e0                LSM6DSM_ACC_GYRO_W_SelfTest_XL
                0x08023750                LSM6DSM_ACC_GYRO_R_SelfTest_XL
                0x08023790                LSM6DSM_ACC_GYRO_W_SelfTest_G
                0x08023800                LSM6DSM_ACC_GYRO_R_SelfTest_G
                0x08023840                LSM6DSM_ACC_GYRO_W_DEN_Polarity
                0x080238b0                LSM6DSM_ACC_GYRO_R_DEN_Polarity
                0x080238f0                LSM6DSM_ACC_GYRO_W_CircularBurstMode
                0x08023960                LSM6DSM_ACC_GYRO_R_CircularBurstMode
                0x080239a0                LSM6DSM_ACC_GYRO_W_LP_BW_G
                0x08023a10                LSM6DSM_ACC_GYRO_R_LP_BW_G
                0x08023a50                LSM6DSM_ACC_GYRO_W_UserOffsetWeight
                0x08023ac0                LSM6DSM_ACC_GYRO_R_UserOffsetWeight
                0x08023b00                LSM6DSM_ACC_GYRO_W_LowPower_XL
                0x08023b70                LSM6DSM_ACC_GYRO_R_LowPower_XL
                0x08023bb0                LSM6DSM_ACC_GYRO_W_DEN_LVL2_EN
                0x08023c20                LSM6DSM_ACC_GYRO_R_DEN_LVL2_EN
                0x08023c60                LSM6DSM_ACC_GYRO_W_DEN_LVL_EN
                0x08023cd0                LSM6DSM_ACC_GYRO_R_DEN_LVL_EN
                0x08023d10                LSM6DSM_ACC_GYRO_W_ExternalTrigger
                0x08023d80                LSM6DSM_ACC_GYRO_R_ExternalTrigger
                0x08023dc0                LSM6DSM_ACC_GYRO_W_HPM_G
                0x08023e30                LSM6DSM_ACC_GYRO_R_HPM_G
                0x08023e70                LSM6DSM_ACC_GYRO_W_RoundingOnStatusRegisters
                0x08023ee0                LSM6DSM_ACC_GYRO_R_RoundingOnStatusRegisters
                0x08023f20                LSM6DSM_ACC_GYRO_W_HPFilter_En
                0x08023f90                LSM6DSM_ACC_GYRO_R_HPFilter_En
                0x08023fd0                LSM6DSM_ACC_GYRO_W_LP_Mode
                0x08024040                LSM6DSM_ACC_GYRO_R_LP_Mode
                0x08024080                LSM6DSM_ACC_GYRO_W_ROUNDING_STATUS
                0x080240f0                LSM6DSM_ACC_GYRO_R_ROUNDING_STATUS
                0x08024130                LSM6DSM_ACC_GYRO_W_HP_G_RST
                0x080241a0                LSM6DSM_ACC_GYRO_R_HP_G_RST
                0x080241e0                LSM6DSM_ACC_GYRO_W_InComposit
                0x08024250                LSM6DSM_ACC_GYRO_R_InComposit
                0x08024290                LSM6DSM_ACC_GYRO_W_HPfilterReference
                0x08024300                LSM6DSM_ACC_GYRO_R_HPfilterReference
                0x08024340                LSM6DSM_ACC_GYRO_W_HPCF_XL
                0x080243b0                LSM6DSM_ACC_GYRO_R_HPCF_XL
                0x080243f0                LSM6DSM_ACC_GYRO_W_LowPassFiltSel_XL
                0x08024460                LSM6DSM_ACC_GYRO_R_LowPassFiltSel_XL
                0x080244a0                LSM6DSM_ACC_GYRO_W_LOW_PASS_ON_6D
                0x08024510                LSM6DSM_ACC_GYRO_R_LOW_PASS_ON_6D
                0x08024550                LSM6DSM_ACC_GYRO_W_HP_SLOPE_XL
                0x080245c0                LSM6DSM_ACC_GYRO_R_HP_SLOPE_XL
                0x08024600                LSM6DSM_ACC_GYRO_W_SOFT
                0x08024670                LSM6DSM_ACC_GYRO_R_SOFT
                0x080246b0                LSM6DSM_ACC_GYRO_W_SignifcantMotion
                0x08024720                LSM6DSM_ACC_GYRO_R_SignifcantMotion
                0x08024760                LSM6DSM_ACC_GYRO_W_PedoStepReset
                0x080247d0                LSM6DSM_ACC_GYRO_R_PedoStepReset
                0x08024810                LSM6DSM_ACC_GYRO_W_TILT
                0x08024880                LSM6DSM_ACC_GYRO_R_TILT
                0x080248c0                LSM6DSM_ACC_GYRO_W_PEDO
                0x08024930                LSM6DSM_ACC_GYRO_R_PEDO
                0x08024970                LSM6DSM_ACC_GYRO_W_TIMER
                0x080249e0                LSM6DSM_ACC_GYRO_R_TIMER
                0x08024a20                LSM6DSM_ACC_GYRO_W_FUNC_EN
                0x08024a90                LSM6DSM_ACC_GYRO_R_FUNC_EN
                0x08024ad0                LSM6DSM_ACC_GYRO_W_I2C_MASTER_Enable
                0x08024b40                LSM6DSM_ACC_GYRO_R_I2C_MASTER_Enable
                0x08024b80                LSM6DSM_ACC_GYRO_W_IronCorrection_EN
                0x08024bf0                LSM6DSM_ACC_GYRO_R_IronCorrection_EN
                0x08024c30                LSM6DSM_ACC_GYRO_W_PASS_THRU_MODE
                0x08024ca0                LSM6DSM_ACC_GYRO_R_PASS_THRU_MODE
                0x08024ce0                LSM6DSM_ACC_GYRO_W_PULL_UP_EN
                0x08024d50                LSM6DSM_ACC_GYRO_R_PULL_UP_EN
                0x08024d90                LSM6DSM_ACC_GYRO_W_SensorHUB_Trigger_Sel
                0x08024e00                LSM6DSM_ACC_GYRO_R_SensorHUB_Trigger_Sel
                0x08024e40                LSM6DSM_ACC_GYRO_W_DATA_VAL_SEL_FIFO
                0x08024eb0                LSM6DSM_ACC_GYRO_R_DATA_VAL_SEL_FIFO
                0x08024ef0                LSM6DSM_ACC_GYRO_W_DRDY_ON_INT1
                0x08024f60                LSM6DSM_ACC_GYRO_R_DRDY_ON_INT1
                0x08024fa0                LSM6DSM_ACC_GYRO_R_Z_WU
                0x08024fe0                LSM6DSM_ACC_GYRO_R_Y_WU
                0x08025020                LSM6DSM_ACC_GYRO_R_X_WU
                0x08025060                LSM6DSM_ACC_GYRO_R_WU_EV_STATUS
                0x080250a0                LSM6DSM_ACC_GYRO_R_SLEEP_EV_STATUS
                0x080250e0                LSM6DSM_ACC_GYRO_R_FF_EV_STATUS
                0x08025120                LSM6DSM_ACC_GYRO_R_Z_TAP
                0x08025160                LSM6DSM_ACC_GYRO_R_Y_TAP
                0x080251a0                LSM6DSM_ACC_GYRO_R_X_TAP
                0x080251e0                LSM6DSM_ACC_GYRO_R_TAP_SIGN
                0x08025220                LSM6DSM_ACC_GYRO_R_DOUBLE_TAP_EV_STATUS
                0x08025260                LSM6DSM_ACC_GYRO_R_SINGLE_TAP_EV_STATUS
                0x080252a0                LSM6DSM_ACC_GYRO_R_TAP_EV_STATUS
                0x080252e0                LSM6DSM_ACC_GYRO_R_DSD_XL
                0x08025320                LSM6DSM_ACC_GYRO_R_DSD_XH
                0x08025360                LSM6DSM_ACC_GYRO_R_DSD_YL
                0x080253a0                LSM6DSM_ACC_GYRO_R_DSD_YH
                0x080253e0                LSM6DSM_ACC_GYRO_R_DSD_ZL
                0x08025420                LSM6DSM_ACC_GYRO_R_DSD_ZH
                0x08025460                LSM6DSM_ACC_GYRO_R_D6D_EV_STATUS
                0x080254a0                LSM6DSM_ACC_GYRO_R_XLDA
                0x080254e0                LSM6DSM_ACC_GYRO_R_GDA
                0x08025520                LSM6DSM_ACC_GYRO_R_TDA
                0x08025560                LSM6DSM_ACC_GYRO_R_FIFONumOfEntries
                0x080255e0                LSM6DSM_ACC_GYRO_R_FIFOEmpty
                0x08025620                LSM6DSM_ACC_GYRO_R_FIFOFull
                0x08025660                LSM6DSM_ACC_GYRO_R_OVERRUN
                0x080256a0                LSM6DSM_ACC_GYRO_R_WaterMark
                0x080256e0                LSM6DSM_ACC_GYRO_R_FIFOPattern
                0x08025760                LSM6DSM_ACC_GYRO_R_SENS_HUB_END
                0x080257a0                LSM6DSM_ACC_GYRO_R_SOFT_IRON_END
                0x080257e0                LSM6DSM_ACC_GYRO_R_HardIron
                0x08025820                LSM6DSM_ACC_GYRO_R_STEP_OVERFLOW
                0x08025860                LSM6DSM_ACC_GYRO_R_STEP_COUNT_DELTA
                0x080258a0                LSM6DSM_ACC_GYRO_R_PEDO_EV_STATUS
                0x080258e0                LSM6DSM_ACC_GYRO_R_TILT_EV_STATUS
                0x08025920                LSM6DSM_ACC_GYRO_R_SIGN_MOT_EV_STATUS
                0x08025960                LSM6DSM_ACC_GYRO_W_LIR
                0x080259d0                LSM6DSM_ACC_GYRO_R_LIR
                0x08025a10                LSM6DSM_ACC_GYRO_W_TAP_Z_EN
                0x08025a80                LSM6DSM_ACC_GYRO_R_TAP_Z_EN
                0x08025ac0                LSM6DSM_ACC_GYRO_W_TAP_Y_EN
                0x08025b30                LSM6DSM_ACC_GYRO_R_TAP_Y_EN
                0x08025b70                LSM6DSM_ACC_GYRO_W_TAP_X_EN
                0x08025be0                LSM6DSM_ACC_GYRO_R_TAP_X_EN
                0x08025c20                LSM6DSM_ACC_GYRO_W_SLOPE_FDS
                0x08025c90                LSM6DSM_ACC_GYRO_R_SLOPE_FDS
                0x08025cd0                LSM6DSM_ACC_GYRO_W_BASIC_INT
                0x08025d40                LSM6DSM_ACC_GYRO_R_BASIC_INT
                0x08025d80                LSM6DSM_ACC_GYRO_W_TAP_THS
                0x08025df0                LSM6DSM_ACC_GYRO_R_TAP_THS
                0x08025e30                LSM6DSM_ACC_GYRO_W_SIXD_THS
                0x08025ea0                LSM6DSM_ACC_GYRO_R_SIXD_THS
                0x08025ee0                LSM6DSM_ACC_GYRO_W_D4D
                0x08025f50                LSM6DSM_ACC_GYRO_R_D4D
                0x08025f90                LSM6DSM_ACC_GYRO_W_SHOCK_Duration
                0x08026000                LSM6DSM_ACC_GYRO_R_SHOCK_Duration
                0x08026040                LSM6DSM_ACC_GYRO_W_QUIET_Duration
                0x080260c0                LSM6DSM_ACC_GYRO_R_QUIET_Duration
                0x08026100                LSM6DSM_ACC_GYRO_W_DUR
                0x08026180                LSM6DSM_ACC_GYRO_R_DUR
                0x080261c0                LSM6DSM_ACC_GYRO_W_WK_THS
                0x08026230                LSM6DSM_ACC_GYRO_R_WK_THS
                0x08026270                LSM6DSM_ACC_GYRO_W_SINGLE_DOUBLE_TAP_EV
                0x080262e0                LSM6DSM_ACC_GYRO_R_SINGLE_DOUBLE_TAP_EV
                0x08026320                LSM6DSM_ACC_GYRO_W_SLEEP_DUR
                0x08026390                LSM6DSM_ACC_GYRO_R_SLEEP_DUR
                0x080263d0                LSM6DSM_ACC_GYRO_W_TIMER_HR
                0x08026440                LSM6DSM_ACC_GYRO_R_TIMER_HR
                0x08026480                LSM6DSM_ACC_GYRO_W_WAKE_DUR
                0x08026500                LSM6DSM_ACC_GYRO_R_WAKE_DUR
                0x08026540                LSM6DSM_ACC_GYRO_W_FF_THS
                0x080265b0                LSM6DSM_ACC_GYRO_R_FF_THS
                0x080265f0                LSM6DSM_ACC_GYRO_W_FF_Duration
                0x080266f0                LSM6DSM_ACC_GYRO_R_FF_Duration
                0x08026790                LSM6DSM_ACC_GYRO_W_TimerEvRouteInt1
                0x08026800                LSM6DSM_ACC_GYRO_R_TimerEvRouteInt1
                0x08026840                LSM6DSM_ACC_GYRO_W_TiltEvOnInt1
                0x080268b0                LSM6DSM_ACC_GYRO_R_TiltEvOnInt1
                0x080268f0                LSM6DSM_ACC_GYRO_W_6DEvOnInt1
                0x08026960                LSM6DSM_ACC_GYRO_R_6DEvOnInt1
                0x080269a0                LSM6DSM_ACC_GYRO_W_TapEvOnInt1
                0x08026a10                LSM6DSM_ACC_GYRO_R_TapEvOnInt1
                0x08026a50                LSM6DSM_ACC_GYRO_W_FFEvOnInt1
                0x08026ac0                LSM6DSM_ACC_GYRO_R_FFEvOnInt1
                0x08026b00                LSM6DSM_ACC_GYRO_W_WUEvOnInt1
                0x08026b70                LSM6DSM_ACC_GYRO_R_WUEvOnInt1
                0x08026bb0                LSM6DSM_ACC_GYRO_W_SingleTapOnInt1
                0x08026c20                LSM6DSM_ACC_GYRO_R_SingleTapOnInt1
                0x08026c60                LSM6DSM_ACC_GYRO_W_SleepEvOnInt1
                0x08026cd0                LSM6DSM_ACC_GYRO_R_SleepEvOnInt1
                0x08026d10                LSM6DSM_ACC_GYRO_W_MagCorrection_Int2
                0x08026d80                LSM6DSM_ACC_GYRO_R_MagCorrection_Int2
                0x08026dc0                LSM6DSM_ACC_GYRO_W_TiltEvOnInt2
                0x08026e30                LSM6DSM_ACC_GYRO_R_TiltEvOnInt2
                0x08026e70                LSM6DSM_ACC_GYRO_W_6DEvOnInt2
                0x08026ee0                LSM6DSM_ACC_GYRO_R_6DEvOnInt2
                0x08026f20                LSM6DSM_ACC_GYRO_W_TapEvOnInt2
                0x08026f90                LSM6DSM_ACC_GYRO_R_TapEvOnInt2
                0x08026fd0                LSM6DSM_ACC_GYRO_W_FFEvOnInt2
                0x08027040                LSM6DSM_ACC_GYRO_R_FFEvOnInt2
                0x08027080                LSM6DSM_ACC_GYRO_W_WUEvOnInt2
                0x080270f0                LSM6DSM_ACC_GYRO_R_WUEvOnInt2
                0x08027130                LSM6DSM_ACC_GYRO_W_SingleTapOnInt2
                0x080271a0                LSM6DSM_ACC_GYRO_R_SingleTapOnInt2
                0x080271e0                LSM6DSM_ACC_GYRO_W_SleepEvOnInt2
                0x08027250                LSM6DSM_ACC_GYRO_R_SleepEvOnInt2
                0x08027290                LSM6DSM_ACC_GYRO_GetRawGyroData
                0x08027320                LSM6DSM_ACC_Get_AngularRate
                0x08027530                LSM6DSM_ACC_GYRO_GetRawAccData
                0x080275c0                LSM6DSM_ACC_Get_Acceleration
                0x080277a0                LSM6DSM_ACC_GYRO_Get_GetFIFOData
                0x08027830                LSM6DSM_ACC_GYRO_Get_GetTimestamp
                0x080278c0                LSM6DSM_ACC_GYRO_Get_GetStepCounter
                0x08027950                LSM6DSM_ACC_GYRO_W_PedoThreshold
                0x080279f0                LSM6DSM_ACC_GYRO_SH_init_SI_Matrix
                0x08027a40                LSM6DSM_ACC_GYRO_SH0_Program
                0x08027b20                LSM6DSM_ACC_GYRO_SH0_ReadMem
                0x08027bd0                LSM6DSM_ACC_GYRO_SH0_WriteByte
 .text          0x08027cc0     0x2370 build/obj/LSM6DSM_ACC_GYRO_driver_HL.o
 .text          0x0802a030      0xdd0 build/obj/STC3115_Driver.o
 .text          0x0802ae00     0x11e0 build/obj/SensorTile.o
                0x0802ae00                BSP_GetVersion
                0x0802ae10                BSP_LED_Init
                0x0802aec0                BSP_LED_DeInit
                0x0802aed0                BSP_LED_On
                0x0802af40                BSP_LED_Off
                0x0802afb0                BSP_LED_Toggle
                0x0802aff0                Sensor_IO_I2C_Init
                0x0802b010                Sensor_IO_SPI_Init
                0x0802b120                Sensor_IO_SPI_CS_Init_All
                0x0802b210                Sensor_IO_SPI_CS_Init
                0x0802b330                Sensor_IO_Write
                0x0802b3d0                Sensor_IO_I2C_Write
                0x0802b410                Sensor_IO_Read
                0x0802b4b0                Sensor_IO_I2C_Read
                0x0802b4f0                Sensor_IO_SPI_Write
                0x0802b560                Sensor_IO_SPI_Read
                0x0802b610                Sensor_IO_SPI_CS_Enable
                0x0802b680                Sensor_IO_SPI_CS_Disable
                0x0802b6f0                LSM6DSM_Sensor_IO_ITConfig
                0x0802b750                SPI_Read
                0x0802b7c0                SPI_Write
                0x0802bcc0                SD_IO_Init
                0x0802bd10                SD_IO_Init_LS
                0x0802bd60                SD_IO_CS_Init
                0x0802bdb0                SD_IO_CS_DeInit
                0x0802bde0                SD_IO_WriteByte
                0x0802be00                SD_IO_ReadByte
                0x0802be20                SD_IO_WriteCmd_wResp
                0x0802bed0                SD_IO_WriteCmd
                0x0802bf80                SD_IO_WaitResponse
                0x0802bfc0                SD_IO_WriteDummy
 .text          0x0802bfe0      0x5f0 build/obj/SensorTile_BlueNRG.o
                0x0802bfe0                HAL_SPI_MspInit
                0x0802c190                Hal_Write_Serial
                0x0802c1e0                BNRG_SPI_Init
                0x0802c240                BlueNRG_RST
                0x0802c270                BlueNRG_DataPresent
                0x0802c290                BlueNRG_HW_Bootloader
                0x0802c2b0                BlueNRG_SPI_Read_All
                0x0802c3c0                BlueNRG_SPI_Write
                0x0802c4f0                set_irq_as_output
                0x0802c530                set_irq_as_input
                0x0802c590                Enable_SPI_IRQ
                0x0802c5a0                Disable_SPI_IRQ
                0x0802c5b0                Clear_SPI_IRQ
                0x0802c5c0                Clear_SPI_EXTI_Flag
 .text          0x0802c5d0     0x1750 build/obj/SensorTile_accelero.o
                0x0802c5d0                BSP_ACCELERO_Init
                0x0802c8a0                BSP_ACCELERO_DeInit
                0x0802c900                BSP_ACCELERO_Sensor_Enable
                0x0802c950                BSP_ACCELERO_Sensor_Disable
                0x0802c9a0                BSP_ACCELERO_IsInitialized
                0x0802c9d0                BSP_ACCELERO_IsEnabled
                0x0802ca00                BSP_ACCELERO_IsCombo
                0x0802ca30                BSP_ACCELERO_Get_Instance
                0x0802ca60                BSP_ACCELERO_Get_WhoAmI
                0x0802cab0                BSP_ACCELERO_Check_WhoAmI
                0x0802cb00                BSP_ACCELERO_Get_Axes
                0x0802cb60                BSP_ACCELERO_Get_AxesRaw
                0x0802cbc0                BSP_ACCELERO_Get_Sensitivity
                0x0802cc20                BSP_ACCELERO_Get_ODR
                0x0802cc80                BSP_ACCELERO_Set_ODR
                0x0802cce0                BSP_ACCELERO_Set_ODR_Value
                0x0802cd30                BSP_ACCELERO_Get_FS
                0x0802cd90                BSP_ACCELERO_Set_FS
                0x0802cdf0                BSP_ACCELERO_Set_FS_Value
                0x0802ce40                BSP_ACCELERO_Get_Axes_Status
                0x0802cea0                BSP_ACCELERO_Set_Axes_Status
                0x0802cf00                BSP_ACCELERO_Read_Reg
                0x0802cf60                BSP_ACCELERO_Write_Reg
                0x0802cfc0                BSP_ACCELERO_Get_DRDY_Status
                0x0802d010                BSP_ACCELERO_Enable_Free_Fall_Detection_Ext
                0x0802d060                BSP_ACCELERO_Disable_Free_Fall_Detection_Ext
                0x0802d0b0                BSP_ACCELERO_Get_Free_Fall_Detection_Status_Ext
                0x0802d110                BSP_ACCELERO_Set_Free_Fall_Threshold_Ext
                0x0802d170                BSP_ACCELERO_Enable_Pedometer_Ext
                0x0802d1c0                BSP_ACCELERO_Disable_Pedometer_Ext
                0x0802d210                BSP_ACCELERO_Get_Pedometer_Status_Ext
                0x0802d270                BSP_ACCELERO_Get_Step_Count_Ext
                0x0802d2d0                BSP_ACCELERO_Reset_Step_Counter_Ext
                0x0802d350                BSP_ACCELERO_Set_Pedometer_Threshold_Ext
                0x0802d3b0                BSP_ACCELERO_Enable_Tilt_Detection_Ext
                0x0802d400                BSP_ACCELERO_Disable_Tilt_Detection_Ext
                0x0802d450                BSP_ACCELERO_Get_Tilt_Detection_Status_Ext
                0x0802d4b0                BSP_ACCELERO_Enable_Wake_Up_Detection_Ext
                0x0802d500                BSP_ACCELERO_Disable_Wake_Up_Detection_Ext
                0x0802d550                BSP_ACCELERO_Get_Wake_Up_Detection_Status_Ext
                0x0802d5b0                BSP_ACCELERO_Set_Wake_Up_Threshold_Ext
                0x0802d610                BSP_ACCELERO_Enable_Single_Tap_Detection_Ext
                0x0802d660                BSP_ACCELERO_Disable_Single_Tap_Detection_Ext
                0x0802d6b0                BSP_ACCELERO_Get_Single_Tap_Detection_Status_Ext
                0x0802d710                BSP_ACCELERO_Enable_Double_Tap_Detection_Ext
                0x0802d760                BSP_ACCELERO_Disable_Double_Tap_Detection_Ext
                0x0802d7b0                BSP_ACCELERO_Get_Double_Tap_Detection_Status_Ext
                0x0802d810                BSP_ACCELERO_Set_Tap_Threshold_Ext
                0x0802d870                BSP_ACCELERO_Set_Tap_Shock_Time_Ext
                0x0802d8d0                BSP_ACCELERO_Set_Tap_Quiet_Time_Ext
                0x0802d930                BSP_ACCELERO_Set_Tap_Duration_Time_Ext
                0x0802d990                BSP_ACCELERO_Enable_6D_Orientation_Ext
                0x0802d9e0                BSP_ACCELERO_Disable_6D_Orientation_Ext
                0x0802da30                BSP_ACCELERO_Get_6D_Orientation_Status_Ext
                0x0802da90                BSP_ACCELERO_Get_6D_Orientation_XL_Ext
                0x0802daf0                BSP_ACCELERO_Get_6D_Orientation_XH_Ext
                0x0802db60                BSP_ACCELERO_Get_6D_Orientation_YL_Ext
                0x0802dbd0                BSP_ACCELERO_Get_6D_Orientation_YH_Ext
                0x0802dc40                BSP_ACCELERO_Get_6D_Orientation_ZL_Ext
                0x0802dcb0                BSP_ACCELERO_Get_6D_Orientation_ZH_Ext
 .text          0x0802dd20     0x13d0 build/obj/SensorTile_audio_in.o
                0x0802dd20                BSP_AUDIO_IN_Init
                0x0802dd60                BSP_AUDIO_IN_DeInit
                0x0802dd70                BSP_AUDIO_IN_ClockConfig
                0x0802ddc0                BSP_AUDIO_IN_Record
                0x0802de40                BSP_AUDIO_IN_Stop
                0x0802de90                BSP_AUDIO_IN_Pause
                0x0802dee0                BSP_AUDIO_IN_Resume
                0x0802df60                BSP_AUDIO_IN_SetVolume
                0x0802df80                BSP_AUDIO_IN_Error_Callback
                0x0802edc0                HAL_DFSDM_FilterRegConvCpltCallback
                0x0802ef50                HAL_DFSDM_FilterRegConvHalfCpltCallback
 .text          0x0802f0f0      0x490 build/obj/SensorTile_gg.o
                0x0802f0f0                BSP_GG_Init
                0x0802f1e0                BSP_GG_DeInit
                0x0802f240                BSP_GG_IsInitialized
                0x0802f270                BSP_GG_IsCombo
                0x0802f2a0                BSP_GG_Get_WhoAmI
                0x0802f300                BSP_GG_Task
                0x0802f340                BSP_GG_Reset
                0x0802f380                BSP_GG_Stop
                0x0802f3c0                BSP_GG_GetOCV
                0x0802f400                BSP_GG_GetSOC
                0x0802f440                BSP_GG_GetChargeValue
                0x0802f480                BSP_GG_GetPresence
                0x0802f4c0                BSP_GG_GetCurrent
                0x0802f500                BSP_GG_GetVoltage
                0x0802f540                BSP_GG_GetTemperature
 .text          0x0802f580      0x900 build/obj/SensorTile_gyro.o
                0x0802f580                BSP_GYRO_Init
                0x0802f700                BSP_GYRO_DeInit
                0x0802f760                BSP_GYRO_Sensor_Enable
                0x0802f7b0                BSP_GYRO_Sensor_Disable
                0x0802f800                BSP_GYRO_IsInitialized
                0x0802f830                BSP_GYRO_IsEnabled
                0x0802f860                BSP_GYRO_IsCombo
                0x0802f890                BSP_GYRO_Get_Instance
                0x0802f8c0                BSP_GYRO_Get_WhoAmI
                0x0802f920                BSP_GYRO_Check_WhoAmI
                0x0802f970                BSP_GYRO_Get_Axes
                0x0802f9d0                BSP_GYRO_Get_AxesRaw
                0x0802fa30                BSP_GYRO_Get_Sensitivity
                0x0802fa90                BSP_GYRO_Get_ODR
                0x0802faf0                BSP_GYRO_Set_ODR
                0x0802fb50                BSP_GYRO_Set_ODR_Value
                0x0802fba0                BSP_GYRO_Get_FS
                0x0802fc00                BSP_GYRO_Set_FS
                0x0802fc60                BSP_GYRO_Set_FS_Value
                0x0802fcb0                BSP_GYRO_Get_Axes_Status
                0x0802fd10                BSP_GYRO_Read_Reg
                0x0802fd70                BSP_GYRO_Write_Reg
                0x0802fdd0                BSP_GYRO_Get_DRDY_Status
                0x0802fe20                BSP_GYRO_Set_Axes_Status
 .text          0x0802fe80      0x630 build/obj/SensorTile_humidity.o
                0x0802fe80                BSP_HUMIDITY_Init
                0x0802ffc0                BSP_HUMIDITY_DeInit
                0x08030020                BSP_HUMIDITY_Sensor_Enable
                0x08030070                BSP_HUMIDITY_Sensor_Disable
                0x080300c0                BSP_HUMIDITY_IsInitialized
                0x080300f0                BSP_HUMIDITY_IsEnabled
                0x08030120                BSP_HUMIDITY_IsCombo
                0x08030150                BSP_HUMIDITY_Get_Instance
                0x08030180                BSP_HUMIDITY_Get_WhoAmI
                0x080301e0                BSP_HUMIDITY_Check_WhoAmI
                0x08030230                BSP_HUMIDITY_Get_Hum
                0x08030290                BSP_HUMIDITY_Get_ODR
                0x080302f0                BSP_HUMIDITY_Read_Reg
                0x08030350                BSP_HUMIDITY_Write_Reg
                0x080303b0                BSP_HUMIDITY_Get_DRDY_Status
                0x08030400                BSP_HUMIDITY_Set_ODR
                0x08030460                BSP_HUMIDITY_Set_ODR_Value
 .text          0x080304b0      0x840 build/obj/SensorTile_magneto.o
                0x080304b0                BSP_MAGNETO_Init
                0x08030630                BSP_MAGNETO_DeInit
                0x08030690                BSP_MAGNETO_Sensor_Enable
                0x080306e0                BSP_MAGNETO_Sensor_Disable
                0x08030730                BSP_MAGNETO_IsInitialized
                0x08030760                BSP_MAGNETO_IsEnabled
                0x08030790                BSP_MAGNETO_IsCombo
                0x080307c0                BSP_MAGNETO_Get_Instance
                0x080307f0                BSP_MAGNETO_Get_WhoAmI
                0x08030850                BSP_MAGNETO_Check_WhoAmI
                0x080308a0                BSP_MAGNETO_Get_Axes
                0x08030900                BSP_MAGNETO_Get_AxesRaw
                0x08030960                BSP_MAGNETO_Get_Sensitivity
                0x080309c0                BSP_MAGNETO_Get_ODR
                0x08030a20                BSP_MAGNETO_Set_ODR
                0x08030a80                BSP_MAGNETO_Set_ODR_Value
                0x08030ad0                BSP_MAGNETO_Get_FS
                0x08030b30                BSP_MAGNETO_Set_FS
                0x08030b90                BSP_MAGNETO_Set_FS_Value
                0x08030be0                BSP_MAGNETO_Read_Reg
                0x08030c40                BSP_MAGNETO_Write_Reg
                0x08030ca0                BSP_MAGNETO_Get_DRDY_Status
 .text          0x08030cf0      0x6b0 build/obj/SensorTile_pressure.o
                0x08030cf0                BSP_PRESSURE_Init
                0x08030eb0                BSP_PRESSURE_DeInit
                0x08030f10                BSP_PRESSURE_Sensor_Enable
                0x08030f60                BSP_PRESSURE_Sensor_Disable
                0x08030fb0                BSP_PRESSURE_IsInitialized
                0x08030fe0                BSP_PRESSURE_IsEnabled
                0x08031010                BSP_PRESSURE_IsCombo
                0x08031040                BSP_PRESSURE_Get_Instance
                0x08031070                BSP_PRESSURE_Get_WhoAmI
                0x080310d0                BSP_PRESSURE_Check_WhoAmI
                0x08031120                BSP_PRESSURE_Get_Press
                0x08031180                BSP_PRESSURE_Get_ODR
                0x080311e0                BSP_PRESSURE_Set_ODR
                0x08031240                BSP_PRESSURE_Set_ODR_Value
                0x08031290                BSP_PRESSURE_Read_Reg
                0x080312f0                BSP_PRESSURE_Write_Reg
                0x08031350                BSP_PRESSURE_Get_DRDY_Status
 .text          0x080313a0      0x7c0 build/obj/SensorTile_temperature.o
                0x080313a0                BSP_TEMPERATURE_Init
                0x08031670                BSP_TEMPERATURE_DeInit
                0x080316d0                BSP_TEMPERATURE_Sensor_Enable
                0x08031720                BSP_TEMPERATURE_Sensor_Disable
                0x08031770                BSP_TEMPERATURE_IsInitialized
                0x080317a0                BSP_TEMPERATURE_IsEnabled
                0x080317d0                BSP_TEMPERATURE_IsCombo
                0x08031800                BSP_TEMPERATURE_Get_Instance
                0x08031830                BSP_TEMPERATURE_Get_WhoAmI
                0x08031890                BSP_TEMPERATURE_Check_WhoAmI
                0x080318e0                BSP_TEMPERATURE_Get_Temp
                0x08031940                BSP_TEMPERATURE_Get_ODR
                0x080319a0                BSP_TEMPERATURE_Set_ODR
                0x08031a00                BSP_TEMPERATURE_Set_ODR_Value
                0x08031a50                BSP_TEMPERATURE_Read_Reg
                0x08031ab0                BSP_TEMPERATURE_Write_Reg
                0x08031b10                BSP_TEMPERATURE_Get_DRDY_Status
 .text          0x08031b60      0x3b0 build/obj/stm32l4xx_hal.o
                0x08031b60                HAL_Init
                0x08031b80                HAL_DeInit
                0x08031be0                HAL_MspInit
                0x08031bf0                HAL_MspDeInit
                0x08031c00                HAL_InitTick
                0x08031c40                HAL_IncTick
                0x08031c50                HAL_GetTick
                0x08031c90                HAL_SuspendTick
                0x08031cb0                HAL_ResumeTick
                0x08031cd0                HAL_GetHalVersion
                0x08031ce0                HAL_GetREVID
                0x08031cf0                HAL_GetDEVID
                0x08031d00                HAL_DBGMCU_EnableDBGSleepMode
                0x08031d20                HAL_DBGMCU_DisableDBGSleepMode
                0x08031d40                HAL_DBGMCU_EnableDBGStopMode
                0x08031d60                HAL_DBGMCU_DisableDBGStopMode
                0x08031d80                HAL_DBGMCU_EnableDBGStandbyMode
                0x08031da0                HAL_DBGMCU_DisableDBGStandbyMode
                0x08031dc0                HAL_SYSCFG_SRAM2Erase
                0x08031de0                HAL_SYSCFG_EnableMemorySwappingBank
                0x08031df0                HAL_SYSCFG_DisableMemorySwappingBank
                0x08031e00                HAL_SYSCFG_VREFBUF_VoltageScalingConfig
                0x08031e20                HAL_SYSCFG_VREFBUF_HighImpedanceConfig
                0x08031e40                HAL_SYSCFG_VREFBUF_TrimmingConfig
                0x08031e60                HAL_SYSCFG_EnableVREFBUF
                0x08031eb0                HAL_SYSCFG_DisableVREFBUF
                0x08031ed0                HAL_SYSCFG_EnableIOAnalogSwitchBooster
                0x08031ef0                HAL_SYSCFG_DisableIOAnalogSwitchBooster
 .text          0x08031f10     0x2670 build/obj/stm32l4xx_hal_adc.o
                0x08031f10                HAL_ADC_Init
                0x08032300                HAL_ADC_DeInit
                0x08032650                HAL_ADC_MspInit
                0x08032660                HAL_ADC_MspDeInit
                0x08032670                HAL_ADC_Start
                0x08032810                HAL_ADC_Stop
                0x08032890                HAL_ADC_PollForConversion
                0x08032a90                HAL_ADC_PollForEvent
                0x08032bd0                HAL_ADC_Start_IT
                0x08032e50                HAL_ADC_Stop_IT
                0x08032ee0                HAL_ADC_Start_DMA
                0x08033090                HAL_ADC_Stop_DMA
                0x08033160                HAL_ADC_GetValue
                0x08033170                HAL_ADC_IRQHandler
                0x08033660                HAL_ADC_ConvCpltCallback
                0x08033670                HAL_ADC_ConvHalfCpltCallback
                0x08033680                HAL_ADC_LevelOutOfWindowCallback
                0x08033690                HAL_ADC_ErrorCallback
                0x080336a0                HAL_ADC_ConfigChannel
                0x08033e90                HAL_ADC_AnalogWDGConfig
                0x08034150                HAL_ADC_GetState
                0x08034160                HAL_ADC_GetError
                0x08034170                ADC_ConversionStop
                0x080342d0                ADC_Enable
                0x080343a0                ADC_Disable
                0x08034460                ADC_DMAConvCplt
                0x08034530                ADC_DMAHalfConvCplt
                0x08034550                ADC_DMAError
 .text          0x08034580      0x5b0 build/obj/stm32l4xx_hal_cortex.o
                0x080348d0                HAL_NVIC_SetPriorityGrouping
                0x080348f0                HAL_NVIC_SetPriority
                0x08034930                HAL_NVIC_EnableIRQ
                0x08034950                HAL_NVIC_DisableIRQ
                0x08034970                HAL_NVIC_SystemReset
                0x08034980                HAL_SYSTICK_Config
                0x080349a0                HAL_NVIC_GetPriorityGrouping
                0x080349b0                HAL_NVIC_GetPriority
                0x080349e0                HAL_NVIC_SetPendingIRQ
                0x08034a00                HAL_NVIC_GetPendingIRQ
                0x08034a20                HAL_NVIC_ClearPendingIRQ
                0x08034a40                HAL_NVIC_GetActive
                0x08034a60                HAL_SYSTICK_CLKSourceConfig
                0x08034a90                HAL_SYSTICK_IRQHandler
                0x08034aa0                HAL_SYSTICK_Callback
                0x08034ab0                HAL_MPU_ConfigRegion
 .text          0x08034b30      0x420 build/obj/stm32l4xx_hal_crc.o
                0x08034b30                HAL_CRC_Init
                0x08034c00                HAL_CRC_DeInit
                0x08034c80                HAL_CRC_Accumulate
                0x08034d20                HAL_CRC_Calculate
                0x08034dd0                HAL_CRC_GetState
 .text          0x08034f50      0x150 build/obj/stm32l4xx_hal_crc_ex.o
                0x08034f50                HAL_CRCEx_Polynomial_Set
                0x08035040                HAL_CRCEx_Input_Data_Reverse
                0x08035070                HAL_CRCEx_Output_Data_Reverse
 .text          0x080350a0     0x2150 build/obj/stm32l4xx_hal_dfsdm.o
                0x080350a0                HAL_DFSDM_ChannelInit
                0x08035280                HAL_DFSDM_ChannelDeInit
                0x08035310                HAL_DFSDM_ChannelMspInit
                0x08035320                HAL_DFSDM_ChannelMspDeInit
                0x08035330                HAL_DFSDM_ChannelCkabStart
                0x08035400                HAL_DFSDM_ChannelPollForCkab
                0x080354b0                HAL_DFSDM_ChannelCkabStop
                0x08035520                HAL_DFSDM_ChannelCkabStart_IT
                0x08035600                HAL_DFSDM_ChannelCkabCallback
                0x08035610                HAL_DFSDM_ChannelCkabStop_IT
                0x08035690                HAL_DFSDM_ChannelScdStart
                0x08035710                HAL_DFSDM_ChannelPollForScd
                0x080357c0                HAL_DFSDM_ChannelScdStop
                0x08035830                HAL_DFSDM_ChannelScdStart_IT
                0x080358c0                HAL_DFSDM_ChannelScdCallback
                0x080358d0                HAL_DFSDM_ChannelScdStop_IT
                0x08035950                HAL_DFSDM_ChannelGetAwdValue
                0x08035970                HAL_DFSDM_ChannelModifyOffset
                0x080359d0                HAL_DFSDM_ChannelGetState
                0x080359e0                HAL_DFSDM_FilterInit
                0x08035bb0                HAL_DFSDM_FilterDeInit
                0x08035bf0                HAL_DFSDM_FilterMspInit
                0x08035c00                HAL_DFSDM_FilterMspDeInit
                0x08035c10                HAL_DFSDM_FilterConfigRegChannel
                0x08035ca0                HAL_DFSDM_FilterConfigInjChannel
                0x08035d10                HAL_DFSDM_FilterRegularStart
                0x08035d50                HAL_DFSDM_FilterPollForRegConversion
                0x08035e00                HAL_DFSDM_FilterRegularStop
                0x08035e40                HAL_DFSDM_FilterRegularStart_IT
                0x08035e90                HAL_DFSDM_FilterRegularStop_IT
                0x08035ee0                HAL_DFSDM_FilterRegularStart_DMA
                0x08036000                HAL_DFSDM_FilterRegularMsbStart_DMA
                0x08036120                HAL_DFSDM_FilterRegularStop_DMA
                0x08036180                HAL_DFSDM_FilterGetRegularValue
                0x080361d0                HAL_DFSDM_FilterInjectedStart
                0x08036210                HAL_DFSDM_FilterPollForInjConversion
                0x080362e0                HAL_DFSDM_FilterInjectedStop
                0x08036320                HAL_DFSDM_FilterInjectedStart_IT
                0x08036370                HAL_DFSDM_FilterInjectedStop_IT
                0x080363c0                HAL_DFSDM_FilterInjectedStart_DMA
                0x080364d0                HAL_DFSDM_FilterInjectedMsbStart_DMA
                0x080365e0                HAL_DFSDM_FilterInjectedStop_DMA
                0x08036640                HAL_DFSDM_FilterGetInjectedValue
                0x08036690                HAL_DFSDM_FilterAwdStart_IT
                0x080367b0                HAL_DFSDM_FilterAwdStop_IT
                0x08036830                HAL_DFSDM_FilterExdStart
                0x080368a0                HAL_DFSDM_FilterExdStop
                0x08036900                HAL_DFSDM_FilterGetExdMaxValue
                0x08036950                HAL_DFSDM_FilterGetExdMinValue
                0x080369a0                HAL_DFSDM_FilterGetConvTimeValue
                0x080369e0                HAL_DFSDM_IRQHandler
                0x08036d80                HAL_DFSDM_FilterInjConvCpltCallback
                0x08036d90                HAL_DFSDM_FilterInjConvHalfCpltCallback
                0x08036da0                HAL_DFSDM_FilterAwdCallback
                0x08036db0                HAL_DFSDM_FilterErrorCallback
                0x08036dc0                HAL_DFSDM_FilterGetState
                0x08036dd0                HAL_DFSDM_FilterGetError
 .text          0x080371f0      0x970 build/obj/stm32l4xx_hal_dma.o
                0x080371f0                HAL_DMA_Init
                0x08037370                HAL_DMA_DeInit
                0x08037470                HAL_DMA_Start
                0x08037500                HAL_DMA_Start_IT
                0x080375d0                HAL_DMA_Abort
                0x08037640                HAL_DMA_Abort_IT
                0x080376d0                HAL_DMA_PollForTransfer
                0x08037820                HAL_DMA_IRQHandler
                0x08037980                HAL_DMA_RegisterCallback
                0x08037a20                HAL_DMA_UnRegisterCallback
                0x08037ad0                HAL_DMA_GetState
                0x08037af0                HAL_DMA_GetError
 .text          0x08037b60      0x6e0 build/obj/stm32l4xx_hal_flash.o
                0x08037b60                HAL_FLASH_Program
                0x08037c20                HAL_FLASH_Program_IT
                0x08037cb0                HAL_FLASH_IRQHandler
                0x08037ea0                HAL_FLASH_EndOfOperationCallback
                0x08037eb0                HAL_FLASH_OperationErrorCallback
                0x08037ec0                HAL_FLASH_Unlock
                0x08037ef0                HAL_FLASH_Lock
                0x08037f10                HAL_FLASH_OB_Unlock
                0x08037f40                HAL_FLASH_OB_Lock
                0x08037f60                HAL_FLASH_OB_Launch
                0x08037f80                HAL_FLASH_GetError
                0x08037f90                FLASH_WaitForLastOperation
 .text          0x08038240      0xa70 build/obj/stm32l4xx_hal_flash_ex.o
                0x08038240                HAL_FLASHEx_Erase
                0x08038330                HAL_FLASHEx_Erase_IT
                0x080383c0                HAL_FLASHEx_OBProgram
                0x08038490                HAL_FLASHEx_OBGetConfig
                0x08038540                FLASH_PageErase
                0x080385a0                FLASH_FlushCaches
 .text          0x08038cb0      0x660 build/obj/stm32l4xx_hal_gpio.o
                0x08038cb0                HAL_GPIO_Init
                0x08039000                HAL_GPIO_DeInit
                0x080391f0                HAL_GPIO_ReadPin
                0x08039220                HAL_GPIO_WritePin
                0x08039250                HAL_GPIO_TogglePin
                0x08039270                HAL_GPIO_LockPin
                0x080392c0                HAL_GPIO_EXTI_IRQHandler
 .text          0x08039310     0x3ba0 build/obj/stm32l4xx_hal_i2c.o
                0x08039310                HAL_I2C_Init
                0x08039430                HAL_I2C_DeInit
                0x08039490                HAL_I2C_MspInit
                0x080394a0                HAL_I2C_MspDeInit
                0x080394b0                HAL_I2C_Master_Transmit
                0x080396d0                HAL_I2C_Master_Receive
                0x080398f0                HAL_I2C_Slave_Transmit
                0x08039b10                HAL_I2C_Slave_Receive
                0x08039d20                HAL_I2C_Master_Transmit_IT
                0x08039e10                HAL_I2C_Master_Receive_IT
                0x08039f00                HAL_I2C_Slave_Transmit_IT
                0x08039fa0                HAL_I2C_Slave_Receive_IT
                0x0803a040                HAL_I2C_Master_Transmit_DMA
                0x0803a1d0                HAL_I2C_Master_Receive_DMA
                0x0803a360                HAL_I2C_Slave_Transmit_DMA
                0x0803a460                HAL_I2C_Slave_Receive_DMA
                0x0803a560                HAL_I2C_Mem_Write
                0x0803a7d0                HAL_I2C_Mem_Read
                0x0803aa40                HAL_I2C_Mem_Write_IT
                0x0803ab80                HAL_I2C_Mem_Read_IT
                0x0803acd0                HAL_I2C_Mem_Write_DMA
                0x0803ae70                HAL_I2C_Mem_Read_DMA
                0x0803b020                HAL_I2C_IsDeviceReady
                0x0803b1e0                HAL_I2C_Master_Sequential_Transmit_IT
                0x0803b2c0                HAL_I2C_Master_Sequential_Receive_IT
                0x0803b3a0                HAL_I2C_Slave_Sequential_Transmit_IT
                0x0803b470                HAL_I2C_Slave_Sequential_Receive_IT
                0x0803b540                HAL_I2C_EnableListen_IT
                0x0803b580                HAL_I2C_DisableListen_IT
                0x0803b5e0                HAL_I2C_Master_Abort_IT
                0x0803b660                HAL_I2C_EV_IRQHandler
                0x0803b690                HAL_I2C_ER_IRQHandler
                0x0803b750                HAL_I2C_MasterTxCpltCallback
                0x0803b760                HAL_I2C_MasterRxCpltCallback
                0x0803b770                HAL_I2C_SlaveTxCpltCallback
                0x0803b780                HAL_I2C_SlaveRxCpltCallback
                0x0803b790                HAL_I2C_AddrCallback
                0x0803b7b0                HAL_I2C_ListenCpltCallback
                0x0803b7c0                HAL_I2C_MemTxCpltCallback
                0x0803b7d0                HAL_I2C_MemRxCpltCallback
                0x0803b7e0                HAL_I2C_ErrorCallback
                0x0803b7f0                HAL_I2C_AbortCpltCallback
                0x0803b800                HAL_I2C_GetState
                0x0803b820                HAL_I2C_GetMode
                0x0803b840                HAL_I2C_GetError
 .text          0x0803ceb0      0x2b0 build/obj/stm32l4xx_hal_i2c_ex.o
                0x0803ceb0                HAL_I2CEx_ConfigAnalogFilter
                0x0803cf40                HAL_I2CEx_ConfigDigitalFilter
                0x0803cfe0                HAL_I2CEx_EnableWakeUp
                0x0803d060                HAL_I2CEx_DisableWakeUp
                0x0803d0e0                HAL_I2CEx_EnableFastModePlus
                0x0803d120                HAL_I2CEx_DisableFastModePlus
 .text          0x0803d160     0x1490 build/obj/stm32l4xx_hal_pcd.o
                0x0803d160                HAL_PCD_Init
                0x0803d3a0                HAL_PCD_DeInit
                0x0803d400                HAL_PCD_Start
                0x0803d450                HAL_PCD_Stop
                0x0803d4a0                HAL_PCD_IRQHandler
                0x0803deb0                HAL_PCD_DevConnect
                0x0803def0                HAL_PCD_DevDisconnect
                0x0803df30                HAL_PCD_SetAddress
                0x0803df80                HAL_PCD_EP_Open
                0x0803e040                HAL_PCD_EP_Close
                0x0803e0e0                HAL_PCD_EP_Receive
                0x0803e1a0                HAL_PCD_EP_GetRxCount
                0x0803e1d0                HAL_PCD_EP_Transmit
                0x0803e290                HAL_PCD_EP_SetStall
                0x0803e360                HAL_PCD_EP_ClrStall
                0x0803e410                HAL_PCD_EP_Flush
                0x0803e470                HAL_PCD_ActivateRemoteWakeup
                0x0803e490                HAL_PCD_DeActivateRemoteWakeup
                0x0803e4b0                HAL_PCD_GetState
 .text          0x0803e5f0      0x2c0 build/obj/stm32l4xx_hal_pcd_ex.o
                0x0803e5f0                HAL_PCDEx_SetTxFiFo
                0x0803e6a0                HAL_PCDEx_SetRxFiFo
                0x0803e6c0                HAL_PCDEx_ActivateLPM
                0x0803e700                HAL_PCDEx_DeActivateLPM
                0x0803e740                HAL_PCDEx_BCD_VBUSDetect
                0x0803e830                HAL_PCDEx_ActivateBCD
                0x0803e860                HAL_PCDEx_DeActivateBCD
                0x0803e890                HAL_PCDEx_LPM_Callback
                0x0803e8a0                HAL_PCDEx_BCD_Callback
 .text          0x0803e8b0      0x310 build/obj/stm32l4xx_hal_pwr.o
                0x0803e8b0                HAL_PWR_DeInit
                0x0803e8d0                HAL_PWR_EnableBkUpAccess
                0x0803e8f0                HAL_PWR_DisableBkUpAccess
                0x0803e910                HAL_PWR_ConfigPVD
                0x0803e9d0                HAL_PWR_EnablePVD
                0x0803e9f0                HAL_PWR_DisablePVD
                0x0803ea10                HAL_PWR_EnableWakeUpPin
                0x0803ea50                HAL_PWR_DisableWakeUpPin
                0x0803ea70                HAL_PWR_EnterSLEEPMode
                0x0803ead0                HAL_PWR_EnterSTOPMode
                0x0803eb00                HAL_PWR_EnterSTANDBYMode
                0x0803eb30                HAL_PWR_EnableSleepOnExit
                0x0803eb50                HAL_PWR_DisableSleepOnExit
                0x0803eb70                HAL_PWR_EnableSEVOnPend
                0x0803eb90                HAL_PWR_DisableSEVOnPend
                0x0803ebb0                HAL_PWR_PVDCallback
 .text          0x0803ebc0      0xc60 build/obj/stm32l4xx_hal_pwr_ex.o
                0x0803ebc0                HAL_PWREx_GetVoltageRange
                0x0803ebd0                HAL_PWREx_ControlVoltageScaling
                0x0803ec70                HAL_PWREx_EnableBatteryCharging
                0x0803eca0                HAL_PWREx_DisableBatteryCharging
                0x0803ecc0                HAL_PWREx_EnableVddUSB
                0x0803ece0                HAL_PWREx_DisableVddUSB
                0x0803ed00                HAL_PWREx_EnableVddIO2
                0x0803ed20                HAL_PWREx_DisableVddIO2
                0x0803ed40                HAL_PWREx_EnableInternalWakeUpLine
                0x0803ed60                HAL_PWREx_DisableInternalWakeUpLine
                0x0803ed80                HAL_PWREx_EnableGPIOPullUp
                0x0803eec0                HAL_PWREx_DisableGPIOPullUp
                0x0803ef90                HAL_PWREx_EnableGPIOPullDown
                0x0803f0d0                HAL_PWREx_DisableGPIOPullDown
                0x0803f1a0                HAL_PWREx_EnablePullUpPullDownConfig
                0x0803f1c0                HAL_PWREx_DisablePullUpPullDownConfig
                0x0803f1e0                HAL_PWREx_EnableSRAM2ContentRetention
                0x0803f200                HAL_PWREx_DisableSRAM2ContentRetention
                0x0803f220                HAL_PWREx_EnablePVM1
                0x0803f240                HAL_PWREx_DisablePVM1
                0x0803f260                HAL_PWREx_EnablePVM2
                0x0803f280                HAL_PWREx_DisablePVM2
                0x0803f2a0                HAL_PWREx_EnablePVM3
                0x0803f2c0                HAL_PWREx_DisablePVM3
                0x0803f2e0                HAL_PWREx_EnablePVM4
                0x0803f300                HAL_PWREx_DisablePVM4
                0x0803f320                HAL_PWREx_ConfigPVM
                0x0803f5b0                HAL_PWREx_EnableLowPowerRunMode
                0x0803f5d0                HAL_PWREx_DisableLowPowerRunMode
                0x0803f640                HAL_PWREx_EnterSTOP0Mode
                0x0803f690                HAL_PWREx_EnterSTOP1Mode
                0x0803f6e0                HAL_PWREx_EnterSTOP2Mode
                0x0803f730                HAL_PWREx_EnterSHUTDOWNMode
                0x0803f760                HAL_PWREx_PVD_PVM_IRQHandler
                0x0803f7e0                HAL_PWREx_PVM1Callback
                0x0803f7f0                HAL_PWREx_PVM2Callback
                0x0803f800                HAL_PWREx_PVM3Callback
                0x0803f810                HAL_PWREx_PVM4Callback
 .text          0x0803f820     0x1090 build/obj/stm32l4xx_hal_rcc.o
                0x0803f820                HAL_RCC_DeInit
                0x0803f8c0                HAL_RCC_OscConfig
                0x0803ffd0                HAL_RCC_ClockConfig
                0x08040220                HAL_RCC_MCOConfig
                0x08040290                HAL_RCC_GetSysClockFreq
                0x08040480                HAL_RCC_GetHCLKFreq
                0x08040490                HAL_RCC_GetPCLK1Freq
                0x080404e0                HAL_RCC_GetPCLK2Freq
                0x08040530                HAL_RCC_GetOscConfig
                0x08040730                HAL_RCC_GetClockConfig
                0x08040790                HAL_RCC_EnableCSS
                0x080407b0                HAL_RCC_NMI_IRQHandler
                0x080407d0                HAL_RCC_CSSCallback
 .text          0x080408b0     0x1eb0 build/obj/stm32l4xx_hal_rcc_ex.o
                0x080408b0                HAL_RCCEx_PeriphCLKConfig
                0x08040ee0                HAL_RCCEx_GetPeriphCLKConfig
                0x08041180                HAL_RCCEx_GetPeriphCLKFreq
                0x08041c60                HAL_RCCEx_EnablePLLSAI1
                0x08041d90                HAL_RCCEx_DisablePLLSAI1
                0x08041e20                HAL_RCCEx_EnablePLLSAI2
                0x08041f30                HAL_RCCEx_DisablePLLSAI2
                0x08041fc0                HAL_RCCEx_WakeUpStopCLKConfig
                0x08041fe0                HAL_RCCEx_StandbyMSIRangeConfig
                0x08042010                HAL_RCCEx_EnableLSECSS
                0x08042030                HAL_RCCEx_DisableLSECSS
                0x08042060                HAL_RCCEx_EnableLSECSS_IT
                0x080420a0                HAL_RCCEx_LSECSS_IRQHandler
                0x080420c0                HAL_RCCEx_LSECSS_Callback
                0x080420d0                HAL_RCCEx_EnableLSCO
                0x080421a0                HAL_RCCEx_DisableLSCO
                0x08042230                HAL_RCCEx_EnableMSIPLLMode
                0x08042250                HAL_RCCEx_DisableMSIPLLMode
 .text          0x08042760     0x1100 build/obj/stm32l4xx_hal_rtc.o
                0x08042760                HAL_RTC_Init
                0x08042870                HAL_RTC_DeInit
                0x080429d0                HAL_RTC_MspInit
                0x080429e0                HAL_RTC_MspDeInit
                0x080429f0                HAL_RTC_SetTime
                0x08042b90                HAL_RTC_GetTime
                0x08042c50                HAL_RTC_SetDate
                0x08042dd0                HAL_RTC_GetDate
                0x08042e70                HAL_RTC_SetAlarm
                0x080430f0                HAL_RTC_SetAlarm_IT
                0x080433b0                HAL_RTC_DeactivateAlarm
                0x080434e0                HAL_RTC_GetAlarm
                0x08043600                HAL_RTC_AlarmIRQHandler
                0x08043690                HAL_RTC_AlarmAEventCallback
                0x080436a0                HAL_RTC_PollForAlarmAEvent
                0x08043710                HAL_RTC_WaitForSynchro
                0x08043760                HAL_RTC_GetState
                0x08043780                RTC_EnterInitMode
                0x080437e0                RTC_ByteToBcd2
                0x08043820                RTC_Bcd2ToByte
 .text          0x08043860     0x1500 build/obj/stm32l4xx_hal_rtc_ex.o
                0x08043860                HAL_RTCEx_SetTimeStamp
                0x080438f0                HAL_RTCEx_SetTimeStamp_IT
                0x080439b0                HAL_RTCEx_DeactivateTimeStamp
                0x08043a30                HAL_RTCEx_SetInternalTimeStamp
                0x08043aa0                HAL_RTCEx_DeactivateInternalTimeStamp
                0x08043b10                HAL_RTCEx_GetTimeStamp
                0x08043c60                HAL_RTCEx_SetTamper
                0x08043dd0                HAL_RTCEx_SetTamper_IT
                0x08043f60                HAL_RTCEx_DeactivateTamper
                0x08044010                HAL_RTCEx_TamperTimeStampIRQHandler
                0x08044110                HAL_RTCEx_TimeStampEventCallback
                0x08044120                HAL_RTCEx_Tamper1EventCallback
                0x08044130                HAL_RTCEx_Tamper2EventCallback
                0x08044140                HAL_RTCEx_Tamper3EventCallback
                0x08044150                HAL_RTCEx_PollForTimeStampEvent
                0x080441e0                HAL_RTCEx_PollForTamper1Event
                0x08044250                HAL_RTCEx_PollForTamper2Event
                0x080442c0                HAL_RTCEx_PollForTamper3Event
                0x08044330                HAL_RTCEx_SetWakeUpTimer
                0x08044470                HAL_RTCEx_SetWakeUpTimer_IT
                0x080445e0                HAL_RTCEx_DeactivateWakeUpTimer
                0x080446a0                HAL_RTCEx_GetWakeUpTimer
                0x080446c0                HAL_RTCEx_WakeUpTimerIRQHandler
                0x08044710                HAL_RTCEx_WakeUpTimerEventCallback
                0x08044720                HAL_RTCEx_PollForWakeUpTimerEvent
                0x08044790                HAL_RTCEx_BKUPWrite
                0x080447c0                HAL_RTCEx_BKUPRead
                0x080447f0                HAL_RTCEx_SetSmoothCalib
                0x080448b0                HAL_RTCEx_SetSynchroShift
                0x080449c0                HAL_RTCEx_SetCalibrationOutPut
                0x08044a50                HAL_RTCEx_DeactivateCalibrationOutPut
                0x08044ac0                HAL_RTCEx_SetRefClock
                0x08044b60                HAL_RTCEx_DeactivateRefClock
                0x08044c00                HAL_RTCEx_EnableBypassShadow
                0x08044c70                HAL_RTCEx_DisableBypassShadow
                0x08044ce0                HAL_RTCEx_AlarmBEventCallback
                0x08044cf0                HAL_RTCEx_PollForAlarmBEvent
 .text          0x08044d60     0x2710 build/obj/stm32l4xx_hal_spi.o
                0x08044d60                HAL_SPI_Init
                0x08044e90                HAL_SPI_DeInit
                0x08044ef0                HAL_SPI_MspDeInit
                0x08044f00                HAL_SPI_Transmit
                0x08045170                HAL_SPI_Receive
                0x08045500                HAL_SPI_TransmitReceive
                0x08045950                HAL_SPI_Transmit_IT
                0x08045a90                HAL_SPI_Receive_IT
                0x08045c50                HAL_SPI_TransmitReceive_IT
                0x08045e20                HAL_SPI_Transmit_DMA
                0x08045ff0                HAL_SPI_Receive_DMA
                0x080461d0                HAL_SPI_TransmitReceive_DMA
                0x080464c0                HAL_SPI_DMAPause
                0x08046500                HAL_SPI_DMAResume
                0x08046540                HAL_SPI_DMAStop
                0x08046590                HAL_SPI_IRQHandler
                0x080466b0                HAL_SPI_TxCpltCallback
                0x080466c0                HAL_SPI_RxCpltCallback
                0x080466d0                HAL_SPI_TxRxCpltCallback
                0x080466e0                HAL_SPI_TxHalfCpltCallback
                0x080466f0                HAL_SPI_RxHalfCpltCallback
                0x08046700                HAL_SPI_TxRxHalfCpltCallback
                0x08046710                HAL_SPI_ErrorCallback
                0x08046720                HAL_SPI_GetState
                0x08046740                HAL_SPI_GetError
 .text          0x08047470       0x50 build/obj/stm32l4xx_hal_spi_ex.o
                0x08047470                HAL_SPIEx_FlushRxFifo
 .text          0x080474c0     0x4540 build/obj/stm32l4xx_hal_tim.o
                0x080474c0                HAL_TIM_Base_Init
                0x08047520                HAL_TIM_Base_DeInit
                0x08047590                HAL_TIM_Base_MspDeInit
                0x080475a0                HAL_TIM_Base_Start
                0x080475d0                HAL_TIM_Base_Stop
                0x08047620                HAL_TIM_Base_Start_IT
                0x08047650                HAL_TIM_Base_Stop_IT
                0x080476a0                HAL_TIM_Base_Start_DMA
                0x08047740                HAL_TIM_Base_Stop_DMA
                0x080477a0                HAL_TIM_OC_Init
                0x08047800                HAL_TIM_OC_DeInit
                0x08047870                HAL_TIM_OC_MspDeInit
                0x08047880                HAL_TIM_OC_Start
                0x08047910                HAL_TIM_OC_Stop
                0x080479e0                HAL_TIM_OC_Start_IT
                0x08047b00                HAL_TIM_OC_Stop_IT
                0x08047c60                HAL_TIM_OC_Start_DMA
                0x08047e60                HAL_TIM_OC_Stop_DMA
                0x08047fd0                HAL_TIM_PWM_Init
                0x08048030                HAL_TIM_PWM_DeInit
                0x08048090                HAL_TIM_PWM_MspInit
                0x080480a0                HAL_TIM_PWM_MspDeInit
                0x080480b0                HAL_TIM_PWM_Start
                0x08048140                HAL_TIM_PWM_Stop
                0x08048220                HAL_TIM_PWM_Start_IT
                0x08048340                HAL_TIM_PWM_Stop_IT
                0x080484a0                HAL_TIM_PWM_Start_DMA
                0x080486a0                HAL_TIM_PWM_Stop_DMA
                0x08048810                HAL_TIM_IC_Init
                0x08048870                HAL_TIM_IC_DeInit
                0x080488d0                HAL_TIM_IC_MspInit
                0x080488e0                HAL_TIM_IC_MspDeInit
                0x080488f0                HAL_TIM_IC_Start
                0x08048920                HAL_TIM_IC_Stop
                0x08048970                HAL_TIM_IC_Start_IT
                0x08048a30                HAL_TIM_IC_Stop_IT
                0x08048b10                HAL_TIM_IC_Start_DMA
                0x08048cb0                HAL_TIM_IC_Stop_DMA
                0x08048da0                HAL_TIM_OnePulse_Init
                0x08048e20                HAL_TIM_OnePulse_DeInit
                0x08048e80                HAL_TIM_OnePulse_MspInit
                0x08048e90                HAL_TIM_OnePulse_MspDeInit
                0x08048ea0                HAL_TIM_OnePulse_Start
                0x08048f30                HAL_TIM_OnePulse_Stop
                0x08049010                HAL_TIM_OnePulse_Start_IT
                0x080490c0                HAL_TIM_OnePulse_Stop_IT
                0x080491c0                HAL_TIM_Encoder_Init
                0x080492f0                HAL_TIM_Encoder_DeInit
                0x08049350                HAL_TIM_Encoder_MspInit
                0x08049360                HAL_TIM_Encoder_MspDeInit
                0x08049370                HAL_TIM_Encoder_Start
                0x080493e0                HAL_TIM_Encoder_Stop
                0x08049470                HAL_TIM_Encoder_Start_IT
                0x08049520                HAL_TIM_Encoder_Stop_IT
                0x08049600                HAL_TIM_Encoder_Start_DMA
                0x080497b0                HAL_TIM_Encoder_Stop_DMA
                0x08049890                HAL_TIM_IRQHandler
                0x08049aa0                HAL_TIM_OC_ConfigChannel
                0x08049ba0                HAL_TIM_IC_ConfigChannel
                0x08049ce0                HAL_TIM_PWM_ConfigChannel
                0x08049f10                HAL_TIM_OnePulse_ConfigChannel
                0x0804a0a0                HAL_TIM_DMABurst_WriteStart
                0x0804a280                HAL_TIM_DMABurst_WriteStop
                0x0804a330                HAL_TIM_DMABurst_ReadStart
                0x0804a510                HAL_TIM_DMABurst_ReadStop
                0x0804a5c0                HAL_TIM_GenerateEvent
                0x0804a610                HAL_TIM_ConfigOCrefClear
                0x0804a820                HAL_TIM_ConfigClockSource
                0x0804a9f0                HAL_TIM_ConfigTI1Input
                0x0804aa30                HAL_TIM_SlaveConfigSynchronization
                0x0804aaa0                HAL_TIM_SlaveConfigSynchronization_IT
                0x0804ab10                HAL_TIM_ReadCapturedValue
                0x0804abd0                HAL_TIM_IC_CaptureCallback
                0x0804abe0                HAL_TIM_PWM_PulseFinishedCallback
                0x0804abf0                HAL_TIM_TriggerCallback
                0x0804ac00                HAL_TIM_ErrorCallback
                0x0804ac10                HAL_TIM_Base_GetState
                0x0804ac30                HAL_TIM_OC_GetState
                0x0804ac50                HAL_TIM_PWM_GetState
                0x0804ac70                HAL_TIM_IC_GetState
                0x0804ac90                HAL_TIM_OnePulse_GetState
                0x0804acb0                HAL_TIM_Encoder_GetState
                0x0804acd0                TIM_DMAError
                0x0804acf0                TIM_DMADelayPulseCplt
                0x0804ad60                TIM_DMACaptureCplt
                0x0804ae10                TIM_Base_SetConfig
                0x0804b050                TIM_OC2_SetConfig
                0x0804b620                TIM_TI1_SetConfig
                0x0804b980                TIM_ETR_SetConfig
                0x0804b9c0                TIM_CCxChannelCmd
 .text          0x0804ba00     0x17e0 build/obj/stm32l4xx_hal_tim_ex.o
                0x0804ba00                HAL_TIMEx_HallSensor_Init
                0x0804bb30                HAL_TIMEx_HallSensor_DeInit
                0x0804bb90                HAL_TIMEx_HallSensor_MspInit
                0x0804bba0                HAL_TIMEx_HallSensor_MspDeInit
                0x0804bbb0                HAL_TIMEx_HallSensor_Start
                0x0804bbe0                HAL_TIMEx_HallSensor_Stop
                0x0804bc30                HAL_TIMEx_HallSensor_Start_IT
                0x0804bc70                HAL_TIMEx_HallSensor_Stop_IT
                0x0804bcd0                HAL_TIMEx_HallSensor_Start_DMA
                0x0804bd80                HAL_TIMEx_HallSensor_Stop_DMA
                0x0804bde0                HAL_TIMEx_OCN_Start
                0x0804be20                HAL_TIMEx_OCN_Stop
                0x0804bea0                HAL_TIMEx_OCN_Start_IT
                0x0804bf80                HAL_TIMEx_OCN_Stop_IT
                0x0804c0c0                HAL_TIMEx_OCN_Start_DMA
                0x0804c270                HAL_TIMEx_OCN_Stop_DMA
                0x0804c390                HAL_TIMEx_PWMN_Start
                0x0804c3d0                HAL_TIMEx_PWMN_Stop
                0x0804c450                HAL_TIMEx_PWMN_Start_IT
                0x0804c530                HAL_TIMEx_PWMN_Stop_IT
                0x0804c670                HAL_TIMEx_PWMN_Start_DMA
                0x0804c820                HAL_TIMEx_PWMN_Stop_DMA
                0x0804c940                HAL_TIMEx_OnePulseN_Start
                0x0804c970                HAL_TIMEx_OnePulseN_Stop
                0x0804c9f0                HAL_TIMEx_OnePulseN_Start_IT
                0x0804ca40                HAL_TIMEx_OnePulseN_Stop_IT
                0x0804cae0                HAL_TIMEx_ConfigCommutationEvent
                0x0804cb80                HAL_TIMEx_ConfigCommutationEvent_IT
                0x0804cc30                HAL_TIMEx_ConfigCommutationEvent_DMA
                0x0804ccf0                HAL_TIMEx_MasterConfigSynchronization
                0x0804cd90                HAL_TIMEx_ConfigBreakDeadTime
                0x0804cec0                HAL_TIMEx_ConfigBreakInput
                0x0804d030                HAL_TIMEx_RemapConfig
                0x0804d0e0                HAL_TIMEx_GroupChannel5
                0x0804d140                HAL_TIMEx_CommutationCallback
                0x0804d150                HAL_TIMEx_BreakCallback
                0x0804d160                HAL_TIMEx_HallSensor_GetState
                0x0804d180                TIMEx_DMACommutationCplt
 .text          0x0804d1e0     0x1d30 build/obj/stm32l4xx_hal_uart.o
                0x0804d1e0                HAL_UART_Init
                0x0804d280                HAL_HalfDuplex_Init
                0x0804d330                HAL_LIN_Init
                0x0804d410                HAL_MultiProcessor_Init
                0x0804d4f0                HAL_UART_DeInit
                0x0804d560                HAL_UART_MspInit
                0x0804d570                HAL_UART_MspDeInit
                0x0804d580                HAL_UART_Transmit
                0x0804d6a0                HAL_UART_Receive
                0x0804d830                HAL_UART_Transmit_IT
                0x0804d8c0                HAL_UART_Receive_IT
                0x0804d9e0                HAL_UART_Transmit_DMA
                0x0804dac0                HAL_UART_Receive_DMA
                0x0804dbb0                HAL_UART_DMAPause
                0x0804dc50                HAL_UART_DMAResume
                0x0804dce0                HAL_UART_DMAStop
                0x0804dd80                HAL_UART_IRQHandler
                0x0804dfc0                HAL_UART_TxCpltCallback
                0x0804dfd0                HAL_UART_TxHalfCpltCallback
                0x0804dfe0                HAL_UART_RxCpltCallback
                0x0804dff0                HAL_UART_RxHalfCpltCallback
                0x0804e000                HAL_UART_ErrorCallback
                0x0804e010                HAL_MultiProcessor_EnableMuteMode
                0x0804e060                HAL_MultiProcessor_DisableMuteMode
                0x0804e0b0                HAL_MultiProcessor_EnterMuteMode
                0x0804e0d0                HAL_HalfDuplex_EnableTransmitter
                0x0804e130                HAL_HalfDuplex_EnableReceiver
                0x0804e190                HAL_LIN_SendBreak
                0x0804e1e0                HAL_UART_GetState
                0x0804e220                HAL_UART_GetError
                0x0804e230                UART_SetConfig
                0x0804e8e0                UART_AdvFeatureConfig
                0x0804ea20                UART_CheckIdleState
                0x0804eab0                UART_WaitOnFlagUntilTimeout
 .text          0x0804ef10      0x2f0 build/obj/stm32l4xx_hal_uart_ex.o
                0x0804ef10                HAL_RS485Ex_Init
                0x0804eff0                HAL_MultiProcessorEx_AddressLength_Set
                0x0804f050                HAL_UARTEx_StopModeWakeUpSourceConfig
                0x0804f110                HAL_UARTEx_EnableStopMode
                0x0804f160                HAL_UARTEx_DisableStopMode
                0x0804f1b0                HAL_UARTEx_WakeupCallback
 .text          0x0804f200     0x1f70 build/obj/stm32l4xx_ll_usb.o
                0x0804f200                USB_CoreInit
                0x0804f240                USB_EnableGlobalInt
                0x0804f260                USB_DisableGlobalInt
                0x0804f280                USB_SetCurrentMode
                0x0804f2e0                USB_DevInit
                0x0804f510                USB_FlushTxFifo
                0x0804f550                USB_FlushRxFifo
                0x0804f590                USB_SetDevSpeed
                0x0804f5c0                USB_GetDevSpeed
                0x0804f630                USB_ActivateEndpoint
                0x0804f740                USB_ActivateDedicatedEndpoint
                0x0804f8c0                USB_DeactivateEndpoint
                0x0804f9a0                USB_DeactivateDedicatedEndpoint
                0x0804fa40                USB_EPStartXfer
                0x0804fe80                USB_EP0StartXfer
                0x080500f0                USB_WritePacket
                0x08050150                USB_ReadPacket
                0x080501a0                USB_EPSetStall
                0x08050270                USB_EPClearStall
                0x08050340                USB_StopDevice
                0x080503c0                USB_SetDevAddress
                0x08050410                USB_DevConnect
                0x08050440                USB_DevDisconnect
                0x08050470                USB_ReadInterrupts
                0x08050490                USB_ReadDevAllOutEpInterrupt
                0x080504c0                USB_ReadDevAllInEpInterrupt
                0x080504f0                USB_ReadDevOutEPInterrupt
                0x08050530                USB_ReadDevInEPInterrupt
                0x08050590                USB_ClearInterrupts
                0x080505b0                USB_GetMode
                0x080505d0                USB_ActivateSetup
                0x08050630                USB_EP0_OutStart
                0x08050690                USB_HostInit
                0x08050790                USB_InitFSLSPClkSel
                0x08050800                USB_ResetPort
                0x08050850                USB_DriveVbus
                0x080508c0                USB_GetHostSpeed
                0x080508e0                USB_GetCurrentFrame
                0x08050900                USB_HC_Init
                0x08050ae0                USB_HC_StartXfer
                0x08050cf0                USB_HC_ReadInterrupt
                0x08050d10                USB_HC_Halt
                0x08050f00                USB_DoPing
                0x08050f80                USB_StopHost
                0x08051090                USB_ActivateRemoteWakeup
                0x080510d0                USB_DeActivateRemoteWakeup
 .text          0x08051170        0x0 build/obj/bluenrg_itf_template.o
 .text          0x08051170     0x1c50 build/obj/bluenrg_gap_aci.o
                0x08051170                aci_gap_init_IDB05A1
                0x08051220                aci_gap_init_IDB04A1
                0x080512c0                aci_gap_set_non_discoverable
                0x08051310                aci_gap_set_limited_discoverable
                0x080514f0                aci_gap_set_discoverable
                0x080516e0                aci_gap_set_direct_connectable_IDB05A1
                0x08051780                aci_gap_set_direct_connectable_IDB04A1
                0x08051800                aci_gap_set_io_capability
                0x08051860                aci_gap_set_auth_requirement
                0x08051910                aci_gap_set_author_requirement
                0x08051980                aci_gap_pass_key_response
                0x080519f0                aci_gap_authorization_response
                0x08051a60                aci_gap_set_non_connectable_IDB05A1
                0x08051ad0                aci_gap_set_non_connectable_IDB04A1
                0x08051b30                aci_gap_set_undirected_connectable
                0x08051ba0                aci_gap_slave_security_request
                0x08051c20                aci_gap_update_adv_data
                0x08051cd0                aci_gap_delete_ad_type
                0x08051d30                aci_gap_get_security_level
                0x08051dc0                aci_gap_configure_whitelist
                0x08051e10                aci_gap_terminate
                0x08051e80                aci_gap_clear_security_database
                0x08051ed0                aci_gap_allow_rebond_IDB05A1
                0x08051f30                aci_gap_allow_rebond_IDB04A1
                0x08051f80                aci_gap_start_limited_discovery_proc
                0x08052010                aci_gap_start_general_discovery_proc
                0x080520a0                aci_gap_start_name_discovery_proc
                0x08052170                aci_gap_start_auto_conn_establish_proc_IDB05A1
                0x08052390                aci_gap_start_auto_conn_establish_proc_IDB04A1
                0x080525e0                aci_gap_start_general_conn_establish_proc_IDB05A1
                0x08052670                aci_gap_start_general_conn_establish_proc_IDB04A1
                0x08052710                aci_gap_start_selective_conn_establish_proc
                0x080527e0                aci_gap_create_connection
                0x080528b0                aci_gap_terminate_gap_procedure
                0x08052910                aci_gap_start_connection_update
                0x080529b0                aci_gap_send_pairing_request
                0x08052a20                aci_gap_resolve_private_address_IDB05A1
                0x08052aa0                aci_gap_resolve_private_address_IDB04A1
                0x08052b00                aci_gap_set_broadcast_mode
                0x08052c30                aci_gap_start_observation_procedure
                0x08052cc0                aci_gap_is_device_bonded
                0x08052d30                aci_gap_get_bonded_devices
 .text          0x08052dc0     0x2000 build/obj/bluenrg_gatt_aci.o
                0x08052dc0                aci_gatt_init
                0x08052e10                aci_gatt_add_serv
                0x08052f20                aci_gatt_include_service
                0x08053070                aci_gatt_add_char
                0x08053220                aci_gatt_add_char_desc
                0x08053440                aci_gatt_update_char_value
                0x08053570                aci_gatt_del_char
                0x080535e0                aci_gatt_del_service
                0x08053640                aci_gatt_del_include_service
                0x080536b0                aci_gatt_set_event_mask
                0x08053710                aci_gatt_exchange_configuration
                0x08053780                aci_att_find_information_req
                0x08053800                aci_att_find_by_type_value_req
                0x080538c0                aci_att_read_by_type_req
                0x08053970                aci_att_read_by_group_type_req
                0x08053a20                aci_att_prepare_write_req
                0x08053ad0                aci_att_execute_write_req
                0x08053b40                aci_gatt_disc_all_prim_services
                0x08053bb0                aci_gatt_disc_prim_service_by_uuid
                0x08053c50                aci_gatt_find_included_services
                0x08053cd0                aci_gatt_disc_all_charac_of_serv
                0x08053d50                aci_gatt_disc_charac_by_uuid
                0x08053e90                aci_gatt_disc_all_charac_descriptors
                0x08053f10                aci_gatt_read_charac_val
                0x08053f80                aci_gatt_read_using_charac_uuid
                0x08054030                aci_gatt_read_long_charac_val
                0x080540b0                aci_gatt_read_multiple_charac_val
                0x08054150                aci_gatt_write_charac_value
                0x08054260                aci_gatt_write_long_charac_val
                0x08054310                aci_gatt_write_charac_reliable
                0x080543c0                aci_gatt_write_long_charac_desc
                0x08054470                aci_gatt_read_long_charac_desc
                0x080544f0                aci_gatt_write_charac_descriptor
                0x08054600                aci_gatt_read_charac_desc
                0x08054670                aci_gatt_write_without_response
                0x08054710                aci_gatt_signed_write_without_resp
                0x080547b0                aci_gatt_confirm_indication
                0x08054810                aci_gatt_write_response
                0x08054960                aci_gatt_allow_read
                0x080549c0                aci_gatt_set_security_permission
                0x08054a40                aci_gatt_set_desc_value
                0x08054b90                aci_gatt_read_handle_value
                0x08054c40                aci_gatt_read_handle_value_offset_IDB05A1
                0x08054d00                aci_gatt_update_char_value_ext_IDB05A1
 .text          0x08054dc0      0x4a0 build/obj/bluenrg_hal_aci.o
                0x08054dc0                aci_hal_get_fw_build_number
                0x08054e20                aci_hal_write_config_data
                0x08054ef0                aci_hal_read_config_data
                0x08054f90                aci_hal_set_tx_power_level
                0x08055000                aci_hal_le_tx_test_packet_number
                0x08055060                aci_hal_device_standby
                0x080550b0                aci_hal_tone_start
                0x08055110                aci_hal_tone_stop
                0x08055160                aci_hal_get_link_status
                0x080551f0                aci_hal_get_anchor_period
 .text          0x08055260      0x1e0 build/obj/bluenrg_l2cap_aci.o
                0x08055260                aci_l2cap_connection_parameter_update_request
                0x080552f0                aci_l2cap_connection_parameter_update_response_IDB05A1
                0x080553a0                aci_l2cap_connection_parameter_update_response_IDB04A1
 .text          0x08055440      0x460 build/obj/bluenrg_updater_aci.o
                0x08055440                aci_updater_start
                0x08055490                aci_updater_reboot
                0x080554e0                aci_get_updater_version
                0x08055540                aci_get_updater_buffer_size
                0x080555a0                aci_erase_blue_flag
                0x080555f0                aci_reset_blue_flag
                0x08055640                aci_updater_erase_sector
                0x080556a0                aci_updater_program_data_block
                0x08055730                aci_updater_read_data_block
                0x080557c0                aci_updater_calc_crc
                0x08055840                aci_updater_hw_version
 .text          0x080558a0      0xa60 build/obj/bluenrg_utils.o
                0x08055980                program_device
                0x08055c30                read_IFR
                0x08055cd0                parse_IFR_data_config
                0x08055d90                IFR_validate
                0x08055e00                change_IFR_data_config
                0x08055ef0                program_IFR
                0x080560f0                verify_IFR
                0x08056190                getBlueNRGVersion
                0x08056220                getBlueNRGUpdaterVersion
                0x08056270                isHWBootloader_Patched
 .text          0x08056300     0x14b0 build/obj/hci.o
                0x08056300                hci_timeout_callback
                0x08056310                HCI_Init
                0x08056370                HCI_verify
                0x080563b0                HCI_Process
                0x08056420                HCI_Queue_Empty
                0x08056440                HCI_Isr
                0x080564f0                hci_write
                0x08056520                hci_send_cmd
                0x08056600                hci_send_req
                0x08056850                hci_reset
                0x080568a0                hci_disconnect
                0x08056910                hci_le_read_local_version
                0x080569b0                hci_le_read_buffer_size
                0x08056a30                hci_le_set_advertising_parameters
                0x08056af0                hci_le_set_advertising_data
                0x08056b80                hci_le_set_advertise_enable
                0x08056c00                hci_le_set_scan_parameters
                0x08056ca0                hci_le_set_scan_enable
                0x08056d20                hci_le_rand
                0x08056da0                hci_le_set_scan_resp_data
                0x08056e30                hci_le_read_advertising_channel_tx_power
                0x08056ea0                hci_le_set_random_address
                0x08056f10                hci_read_bd_addr
                0x08056f90                hci_le_create_connection
                0x08057070                hci_le_create_connection_cancel
                0x080570c0                hci_le_encrypt
                0x08057160                hci_le_ltk_request_reply
                0x080571d0                hci_le_ltk_request_neg_reply
                0x08057230                hci_le_read_white_list_size
                0x080572a0                hci_le_clear_white_list
                0x080572f0                hci_le_add_device_to_white_list
                0x08057360                hci_le_remove_device_from_white_list
                0x080573d0                hci_read_transmit_power_level
                0x08057460                hci_read_rssi
                0x080574f0                hci_le_read_local_supported_features
                0x08057560                hci_le_read_channel_map
                0x080575f0                hci_le_read_supported_states
                0x08057660                hci_le_receiver_test
                0x080576c0                hci_le_transmitter_test
                0x08057740                hci_le_test_end
 .text          0x080577b0      0x2f0 build/obj/ble_list.o
                0x080577b0                list_init_head
                0x080577d0                list_is_empty
                0x08057810                list_insert_head
                0x08057850                list_insert_tail
                0x08057890                list_remove_node
                0x080578d0                list_remove_head
                0x08057920                list_remove_tail
                0x08057970                list_insert_node_after
                0x080579b0                list_insert_node_before
                0x080579f0                list_get_size
                0x08057a40                list_get_next_node
                0x08057a70                list_get_prev_node
 .text          0x08057aa0       0xb0 build/obj/gp_timer.o
                0x08057aa0                Timer_Set
                0x08057ac0                Timer_Reset
                0x08057ae0                Timer_Restart
                0x08057b00                Timer_Expired
                0x08057b30                Timer_Remaining
 .text          0x08057b50      0xb30 build/obj/MetaDataManager.o
                0x08057b50                InitMetaDataManager
                0x08058200                ReseMetaDataManager
                0x080582b0                EraseMetaDataManager
                0x080582d0                SaveMetaDataManager
                0x08058380                MDM_LicenseParsing
                0x08058570                MetaDataLicenseStatus
                0x080585a0                MDM_SaveGMD
                0x08058610                MDM_ReCallGMD
 .text          0x08058680      0x4b0 build/obj/usbd_cdc.o
                0x080589d0                USBD_CDC_GetDeviceQualifierDescriptor
                0x080589f0                USBD_CDC_RegisterInterface
                0x08058a20                USBD_CDC_SetTxBuffer
                0x08058a50                USBD_CDC_SetRxBuffer
                0x08058a70                USBD_CDC_TransmitPacket
                0x08058ad0                USBD_CDC_ReceivePacket
 .text          0x08058b30      0x5d0 build/obj/usbd_core.o
                0x08058b30                USBD_Init
                0x08058b90                USBD_DeInit
                0x08058bd0                USBD_RegisterClass
                0x08058c10                USBD_Start
                0x08058c30                USBD_Stop
                0x08058c60                USBD_RunTestMode
                0x08058c70                USBD_SetClassConfig
                0x08058cc0                USBD_ClrClassConfig
                0x08058cf0                USBD_LL_SetupStage
                0x08058d90                USBD_LL_DataOutStage
                0x08058e50                USBD_LL_DataInStage
                0x08058f80                USBD_LL_Reset
                0x08058fe0                USBD_LL_SetSpeed
                0x08059000                USBD_LL_Suspend
                0x08059020                USBD_LL_Resume
                0x08059040                USBD_LL_SOF
                0x08059080                USBD_LL_IsoINIncomplete
                0x080590a0                USBD_LL_IsoOUTIncomplete
                0x080590c0                USBD_LL_DevConnected
                0x080590d0                USBD_LL_DevDisconnected
 .text          0x08059100      0x920 build/obj/usbd_ctlreq.o
                0x08059100                USBD_StdDevReq
                0x080591a0                USBD_StdItfReq
                0x08059210                USBD_StdEPReq
                0x080598d0                USBD_ParseSetupRequest
                0x08059940                USBD_CtlError
                0x08059960                USBD_GetString
 .text          0x08059a20      0x180 build/obj/usbd_ioreq.o
                0x08059a20                USBD_CtlSendData
                0x08059a60                USBD_CtlContinueSendData
                0x08059a90                USBD_CtlPrepareRx
                0x08059ae0                USBD_CtlContinueRx
                0x08059b10                USBD_CtlSendStatus
                0x08059b40                USBD_CtlReceiveStatus
                0x08059b70                USBD_GetRxCount
 .text          0x08059ba0      0x310 build/obj/MotionFX_Manager.o
                0x08059ba0                MotionFX_manager_run
                0x08059d40                MotionFX_License_init
                0x08059d60                MotionFX_manager_init
                0x08059e50                MotionFX_manager_start_6X
                0x08059e60                MotionFX_manager_stop_6X
                0x08059e70                MotionFX_manager_start_9X
                0x08059e80                MotionFX_manager_stop_9X
                0x08059e90                MotionFX_manager_getDataOUT
                0x08059ea0                MotionFX_manager_getDataIN
 .text          0x08059eb0        0x0 build/obj/usbd_desc.o
 .text          0x08059eb0     0x1bb0 build/obj/btle.o
                0x08059eb0                btle_main
                0x0805a2a0                Set2GAccelerometerFullScale
                0x0805a2f0                Set4GAccelerometerFullScale
                0x0805a340                HAL_TIM_OC_DelayElapsedCallback
                0x0805a460                HAL_TIM_PeriodElapsedCallback
                0x0805ace0                AudioProcess
                0x0805ae70                BSP_AUDIO_IN_HalfTransfer_CallBack
                0x0805aec0                BSP_AUDIO_IN_TransferComplete_CallBack
                0x0805b7c0                HAL_Delay
                0x0805b7f0                Error_Handler
                0x0805b800                HAL_GPIO_EXTI_Callback
 .text          0x0805ba60      0x150 build/obj/main.o
                0x0805bb20                main
 .text          0x0805bbb0        0x0 /nfs/nfs5/home/research/hardware/arm2/gcc-arm-embedded/gcc-arm-none-eabi-4_8-2014q2/bin/../lib/gcc/arm-none-eabi/4.8.4/../../../../arm-none-eabi/lib/armv7e-m/libc.a(lib_a-atoi.o)
 .text          0x0805bbb0        0x0 /nfs/nfs5/home/research/hardware/arm2/gcc-arm-embedded/gcc-arm-none-eabi-4_8-2014q2/bin/../lib/gcc/arm-none-eabi/4.8.4/../../../../arm-none-eabi/lib/armv7e-m/libc.a(lib_a-malloc.o)
 .text          0x0805bbb0        0x0 /nfs/nfs5/home/research/hardware/arm2/gcc-arm-embedded/gcc-arm-none-eabi-4_8-2014q2/bin/../lib/gcc/arm-none-eabi/4.8.4/../../../../arm-none-eabi/lib/armv7e-m/libc.a(lib_a-mallocr.o)
 .text          0x0805bbb0        0x0 /nfs/nfs5/home/research/hardware/arm2/gcc-arm-embedded/gcc-arm-none-eabi-4_8-2014q2/bin/../lib/gcc/arm-none-eabi/4.8.4/../../../../arm-none-eabi/lib/armv7e-m/libc.a(lib_a-memcmp.o)
 .text          0x0805bbb0      0x134 /nfs/nfs5/home/research/hardware/arm2/gcc-arm-embedded/gcc-arm-none-eabi-4_8-2014q2/bin/../lib/gcc/arm-none-eabi/4.8.4/../../../../arm-none-eabi/lib/armv7e-m/libc.a(lib_a-memcpy.o)
                0x0805bbb0                memcpy
 *fill*         0x0805bce4        0xc 
 .text          0x0805bcf0        0x0 /nfs/nfs5/home/research/hardware/arm2/gcc-arm-embedded/gcc-arm-none-eabi-4_8-2014q2/bin/../lib/gcc/arm-none-eabi/4.8.4/../../../../arm-none-eabi/lib/armv7e-m/libc.a(lib_a-memset.o)
 .text          0x0805bcf0        0x0 /nfs/nfs5/home/research/hardware/arm2/gcc-arm-embedded/gcc-arm-none-eabi-4_8-2014q2/bin/../lib/gcc/arm-none-eabi/4.8.4/../../../../arm-none-eabi/lib/armv7e-m/libc.a(lib_a-mlock.o)
 .text          0x0805bcf0        0x0 /nfs/nfs5/home/research/hardware/arm2/gcc-arm-embedded/gcc-arm-none-eabi-4_8-2014q2/bin/../lib/gcc/arm-none-eabi/4.8.4/../../../../arm-none-eabi/lib/armv7e-m/libc.a(lib_a-printf.o)
 .text          0x0805bcf0        0x0 /nfs/nfs5/home/research/hardware/arm2/gcc-arm-embedded/gcc-arm-none-eabi-4_8-2014q2/bin/../lib/gcc/arm-none-eabi/4.8.4/../../../../arm-none-eabi/lib/armv7e-m/libc.a(lib_a-sbrkr.o)
 .text          0x0805bcf0        0x0 /nfs/nfs5/home/research/hardware/arm2/gcc-arm-embedded/gcc-arm-none-eabi-4_8-2014q2/bin/../lib/gcc/arm-none-eabi/4.8.4/../../../../arm-none-eabi/lib/armv7e-m/libc.a(lib_a-sprintf.o)
 .text          0x0805bcf0      0x21c /nfs/nfs5/home/research/hardware/arm2/gcc-arm-embedded/gcc-arm-none-eabi-4_8-2014q2/bin/../lib/gcc/arm-none-eabi/4.8.4/../../../../arm-none-eabi/lib/armv7e-m/libc.a(lib_a-strcmp.o)
                0x0805bcf0                strcmp
 *fill*         0x0805bf0c        0x4 
 .text          0x0805bf10        0x0 /nfs/nfs5/home/research/hardware/arm2/gcc-arm-embedded/gcc-arm-none-eabi-4_8-2014q2/bin/../lib/gcc/arm-none-eabi/4.8.4/../../../../arm-none-eabi/lib/armv7e-m/libc.a(lib_a-strncmp.o)
 .text          0x0805bf10        0x0 /nfs/nfs5/home/research/hardware/arm2/gcc-arm-embedded/gcc-arm-none-eabi-4_8-2014q2/bin/../lib/gcc/arm-none-eabi/4.8.4/../../../../arm-none-eabi/lib/armv7e-m/libc.a(lib_a-strpbrk.o)
 .text          0x0805bf10        0x0 /nfs/nfs5/home/research/hardware/arm2/gcc-arm-embedded/gcc-arm-none-eabi-4_8-2014q2/bin/../lib/gcc/arm-none-eabi/4.8.4/../../../../arm-none-eabi/lib/armv7e-m/libc.a(lib_a-strspn.o)
 .text          0x0805bf10        0x0 /nfs/nfs5/home/research/hardware/arm2/gcc-arm-embedded/gcc-arm-none-eabi-4_8-2014q2/bin/../lib/gcc/arm-none-eabi/4.8.4/../../../../arm-none-eabi/lib/armv7e-m/libc.a(lib_a-strtol.o)
 .text          0x0805bf10        0x0 /nfs/nfs5/home/research/hardware/arm2/gcc-arm-embedded/gcc-arm-none-eabi-4_8-2014q2/bin/../lib/gcc/arm-none-eabi/4.8.4/../../../../arm-none-eabi/lib/armv7e-m/libc.a(lib_a-svfprintf.o)
 .text          0x0805bf10        0x0 /nfs/nfs5/home/research/hardware/arm2/gcc-arm-embedded/gcc-arm-none-eabi-4_8-2014q2/bin/../lib/gcc/arm-none-eabi/4.8.4/../../../../arm-none-eabi/lib/armv7e-m/libc.a(lib_a-vfprintf.o)
 .text          0x0805bf10        0x0 /nfs/nfs5/home/research/hardware/arm2/gcc-arm-embedded/gcc-arm-none-eabi-4_8-2014q2/bin/../lib/gcc/arm-none-eabi/4.8.4/../../../../arm-none-eabi/lib/armv7e-m/libc.a(lib_a-wsetup.o)
 .text          0x0805bf10        0x0 /nfs/nfs5/home/research/hardware/arm2/gcc-arm-embedded/gcc-arm-none-eabi-4_8-2014q2/bin/../lib/gcc/arm-none-eabi/4.8.4/../../../../arm-none-eabi/lib/armv7e-m/libc.a(lib_a-ctype_.o)
 .text          0x0805bf10        0x0 /nfs/nfs5/home/research/hardware/arm2/gcc-arm-embedded/gcc-arm-none-eabi-4_8-2014q2/bin/../lib/gcc/arm-none-eabi/4.8.4/../../../../arm-none-eabi/lib/armv7e-m/libc.a(lib_a-dtoa.o)
 .text          0x0805bf10        0x0 /nfs/nfs5/home/research/hardware/arm2/gcc-arm-embedded/gcc-arm-none-eabi-4_8-2014q2/bin/../lib/gcc/arm-none-eabi/4.8.4/../../../../arm-none-eabi/lib/armv7e-m/libc.a(lib_a-fflush.o)
 .text          0x0805bf10        0x0 /nfs/nfs5/home/research/hardware/arm2/gcc-arm-embedded/gcc-arm-none-eabi-4_8-2014q2/bin/../lib/gcc/arm-none-eabi/4.8.4/../../../../arm-none-eabi/lib/armv7e-m/libc.a(lib_a-findfp.o)
 .text          0x0805bf10        0x0 /nfs/nfs5/home/research/hardware/arm2/gcc-arm-embedded/gcc-arm-none-eabi-4_8-2014q2/bin/../lib/gcc/arm-none-eabi/4.8.4/../../../../arm-none-eabi/lib/armv7e-m/libc.a(lib_a-freer.o)
 .text          0x0805bf10        0x0 /nfs/nfs5/home/research/hardware/arm2/gcc-arm-embedded/gcc-arm-none-eabi-4_8-2014q2/bin/../lib/gcc/arm-none-eabi/4.8.4/../../../../arm-none-eabi/lib/armv7e-m/libc.a(lib_a-fwalk.o)
 .text          0x0805bf10        0x0 /nfs/nfs5/home/research/hardware/arm2/gcc-arm-embedded/gcc-arm-none-eabi-4_8-2014q2/bin/../lib/gcc/arm-none-eabi/4.8.4/../../../../arm-none-eabi/lib/armv7e-m/libc.a(lib_a-impure.o)
 .text          0x0805bf10        0x0 /nfs/nfs5/home/research/hardware/arm2/gcc-arm-embedded/gcc-arm-none-eabi-4_8-2014q2/bin/../lib/gcc/arm-none-eabi/4.8.4/../../../../arm-none-eabi/lib/armv7e-m/libc.a(lib_a-locale.o)
 .text          0x0805bf10        0x0 /nfs/nfs5/home/research/hardware/arm2/gcc-arm-embedded/gcc-arm-none-eabi-4_8-2014q2/bin/../lib/gcc/arm-none-eabi/4.8.4/../../../../arm-none-eabi/lib/armv7e-m/libc.a(lib_a-makebuf.o)
 .text          0x0805bf10        0x0 /nfs/nfs5/home/research/hardware/arm2/gcc-arm-embedded/gcc-arm-none-eabi-4_8-2014q2/bin/../lib/gcc/arm-none-eabi/4.8.4/../../../../arm-none-eabi/lib/armv7e-m/libc.a(lib_a-memchr-stub.o)
 .text          0x0805bf10        0x0 /nfs/nfs5/home/research/hardware/arm2/gcc-arm-embedded/gcc-arm-none-eabi-4_8-2014q2/bin/../lib/gcc/arm-none-eabi/4.8.4/../../../../arm-none-eabi/lib/armv7e-m/libc.a(lib_a-mprec.o)
 .text          0x0805bf10        0x0 /nfs/nfs5/home/research/hardware/arm2/gcc-arm-embedded/gcc-arm-none-eabi-4_8-2014q2/bin/../lib/gcc/arm-none-eabi/4.8.4/../../../../arm-none-eabi/lib/armv7e-m/libc.a(lib_a-reent.o)
 .text          0x0805bf10        0x0 /nfs/nfs5/home/research/hardware/arm2/gcc-arm-embedded/gcc-arm-none-eabi-4_8-2014q2/bin/../lib/gcc/arm-none-eabi/4.8.4/../../../../arm-none-eabi/lib/armv7e-m/libc.a(lib_a-s_fpclassify.o)
 .text          0x0805bf10        0x0 /nfs/nfs5/home/research/hardware/arm2/gcc-arm-embedded/gcc-arm-none-eabi-4_8-2014q2/bin/../lib/gcc/arm-none-eabi/4.8.4/../../../../arm-none-eabi/lib/armv7e-m/libc.a(lib_a-stdio.o)
 .text          0x0805bf10        0x0 /nfs/nfs5/home/research/hardware/arm2/gcc-arm-embedded/gcc-arm-none-eabi-4_8-2014q2/bin/../lib/gcc/arm-none-eabi/4.8.4/../../../../arm-none-eabi/lib/armv7e-m/libc.a(lib_a-strlen.o)
 .text          0x0805bf10        0x0 /nfs/nfs5/home/research/hardware/arm2/gcc-arm-embedded/gcc-arm-none-eabi-4_8-2014q2/bin/../lib/gcc/arm-none-eabi/4.8.4/../../../../arm-none-eabi/lib/armv7e-m/libc.a(lib_a-svfiprintf.o)
 .text          0x0805bf10        0x0 /nfs/nfs5/home/research/hardware/arm2/gcc-arm-embedded/gcc-arm-none-eabi-4_8-2014q2/bin/../lib/gcc/arm-none-eabi/4.8.4/../../../../arm-none-eabi/lib/armv7e-m/libc.a(lib_a-vfiprintf.o)
 .text          0x0805bf10        0x0 /nfs/nfs5/home/research/hardware/arm2/gcc-arm-embedded/gcc-arm-none-eabi-4_8-2014q2/bin/../lib/gcc/arm-none-eabi/4.8.4/../../../../arm-none-eabi/lib/armv7e-m/libc.a(lib_a-writer.o)
 .text          0x0805bf10        0x0 /nfs/nfs5/home/research/hardware/arm2/gcc-arm-embedded/gcc-arm-none-eabi-4_8-2014q2/bin/../lib/gcc/arm-none-eabi/4.8.4/../../../../arm-none-eabi/lib/armv7e-m/libc.a(lib_a-callocr.o)
 .text          0x0805bf10        0x0 /nfs/nfs5/home/research/hardware/arm2/gcc-arm-embedded/gcc-arm-none-eabi-4_8-2014q2/bin/../lib/gcc/arm-none-eabi/4.8.4/../../../../arm-none-eabi/lib/armv7e-m/libc.a(lib_a-closer.o)
 .text          0x0805bf10        0x0 /nfs/nfs5/home/research/hardware/arm2/gcc-arm-embedded/gcc-arm-none-eabi-4_8-2014q2/bin/../lib/gcc/arm-none-eabi/4.8.4/../../../../arm-none-eabi/lib/armv7e-m/libc.a(lib_a-fclose.o)
 .text          0x0805bf10        0x0 /nfs/nfs5/home/research/hardware/arm2/gcc-arm-embedded/gcc-arm-none-eabi-4_8-2014q2/bin/../lib/gcc/arm-none-eabi/4.8.4/../../../../arm-none-eabi/lib/armv7e-m/libc.a(lib_a-fputwc.o)
 .text          0x0805bf10        0x0 /nfs/nfs5/home/research/hardware/arm2/gcc-arm-embedded/gcc-arm-none-eabi-4_8-2014q2/bin/../lib/gcc/arm-none-eabi/4.8.4/../../../../arm-none-eabi/lib/armv7e-m/libc.a(lib_a-fstatr.o)
 .text          0x0805bf10        0x0 /nfs/nfs5/home/research/hardware/arm2/gcc-arm-embedded/gcc-arm-none-eabi-4_8-2014q2/bin/../lib/gcc/arm-none-eabi/4.8.4/../../../../arm-none-eabi/lib/armv7e-m/libc.a(lib_a-fvwrite.o)
 .text          0x0805bf10        0x0 /nfs/nfs5/home/research/hardware/arm2/gcc-arm-embedded/gcc-arm-none-eabi-4_8-2014q2/bin/../lib/gcc/arm-none-eabi/4.8.4/../../../../arm-none-eabi/lib/armv7e-m/libc.a(lib_a-isattyr.o)
 .text          0x0805bf10        0x0 /nfs/nfs5/home/research/hardware/arm2/gcc-arm-embedded/gcc-arm-none-eabi-4_8-2014q2/bin/../lib/gcc/arm-none-eabi/4.8.4/../../../../arm-none-eabi/lib/armv7e-m/libc.a(lib_a-lseekr.o)
 .text          0x0805bf10        0x0 /nfs/nfs5/home/research/hardware/arm2/gcc-arm-embedded/gcc-arm-none-eabi-4_8-2014q2/bin/../lib/gcc/arm-none-eabi/4.8.4/../../../../arm-none-eabi/lib/armv7e-m/libc.a(lib_a-memmove.o)
 .text          0x0805bf10        0x0 /nfs/nfs5/home/research/hardware/arm2/gcc-arm-embedded/gcc-arm-none-eabi-4_8-2014q2/bin/../lib/gcc/arm-none-eabi/4.8.4/../../../../arm-none-eabi/lib/armv7e-m/libc.a(lib_a-readr.o)
 .text          0x0805bf10        0x0 /nfs/nfs5/home/research/hardware/arm2/gcc-arm-embedded/gcc-arm-none-eabi-4_8-2014q2/bin/../lib/gcc/arm-none-eabi/4.8.4/../../../../arm-none-eabi/lib/armv7e-m/libc.a(lib_a-reallocr.o)
 .text          0x0805bf10        0x0 /nfs/nfs5/home/research/hardware/arm2/gcc-arm-embedded/gcc-arm-none-eabi-4_8-2014q2/bin/../lib/gcc/arm-none-eabi/4.8.4/../../../../arm-none-eabi/lib/armv7e-m/libc.a(lib_a-wbuf.o)
 .text          0x0805bf10        0x0 /nfs/nfs5/home/research/hardware/arm2/gcc-arm-embedded/gcc-arm-none-eabi-4_8-2014q2/bin/../lib/gcc/arm-none-eabi/4.8.4/../../../../arm-none-eabi/lib/armv7e-m/libc.a(lib_a-wcrtomb.o)
 .text          0x0805bf10        0x0 /nfs/nfs5/home/research/hardware/arm2/gcc-arm-embedded/gcc-arm-none-eabi-4_8-2014q2/bin/../lib/gcc/arm-none-eabi/4.8.4/../../../../arm-none-eabi/lib/armv7e-m/libc.a(lib_a-wctomb_r.o)
 .text          0x0805bf10        0x0 /nfs/nfs5/home/research/hardware/arm2/gcc-arm-embedded/gcc-arm-none-eabi-4_8-2014q2/bin/../lib/gcc/arm-none-eabi/4.8.4/../../../../arm-none-eabi/lib/armv7e-m/libm.a(lib_a-s_trunc.o)
 .text          0x0805bf10        0x0 /nfs/nfs5/home/research/hardware/arm2/gcc-arm-embedded/gcc-arm-none-eabi-4_8-2014q2/bin/../lib/gcc/arm-none-eabi/4.8.4/../../../../arm-none-eabi/lib/armv7e-m/libm.a(lib_a-wf_log10.o)
 .text          0x0805bf10        0x0 /nfs/nfs5/home/research/hardware/arm2/gcc-arm-embedded/gcc-arm-none-eabi-4_8-2014q2/bin/../lib/gcc/arm-none-eabi/4.8.4/../../../../arm-none-eabi/lib/armv7e-m/libm.a(lib_a-ef_log10.o)
 .text          0x0805bf10        0x0 /nfs/nfs5/home/research/hardware/arm2/gcc-arm-embedded/gcc-arm-none-eabi-4_8-2014q2/bin/../lib/gcc/arm-none-eabi/4.8.4/../../../../arm-none-eabi/lib/armv7e-m/libm.a(lib_a-s_lib_ver.o)
 .text          0x0805bf10        0x0 /nfs/nfs5/home/research/hardware/arm2/gcc-arm-embedded/gcc-arm-none-eabi-4_8-2014q2/bin/../lib/gcc/arm-none-eabi/4.8.4/../../../../arm-none-eabi/lib/armv7e-m/libm.a(lib_a-s_matherr.o)
 .text          0x0805bf10        0x0 /nfs/nfs5/home/research/hardware/arm2/gcc-arm-embedded/gcc-arm-none-eabi-4_8-2014q2/bin/../lib/gcc/arm-none-eabi/4.8.4/../../../../arm-none-eabi/lib/armv7e-m/libm.a(lib_a-s_nan.o)
 .text          0x0805bf10        0x0 /nfs/nfs5/home/research/hardware/arm2/gcc-arm-embedded/gcc-arm-none-eabi-4_8-2014q2/bin/../lib/gcc/arm-none-eabi/4.8.4/../../../../arm-none-eabi/lib/armv7e-m/libm.a(lib_a-sf_fpclassify.o)
 .text          0x0805bf10        0x0 /nfs/nfs5/home/research/hardware/arm2/gcc-arm-embedded/gcc-arm-none-eabi-4_8-2014q2/bin/../lib/gcc/arm-none-eabi/4.8.4/../../../../arm-none-eabi/lib/armv7e-m/libm.a(lib_a-ef_log.o)
 .text          0x0805bf10      0x370 /nfs/nfs5/home/research/hardware/arm2/gcc-arm-embedded/gcc-arm-none-eabi-4_8-2014q2/bin/../lib/gcc/arm-none-eabi/4.8.4/armv7e-m/libgcc.a(_arm_addsubdf3.o)
                0x0805bf10                __aeabi_drsub
                0x0805bf18                __aeabi_dsub
                0x0805bf18                __subdf3
                0x0805bf1c                __adddf3
                0x0805bf1c                __aeabi_dadd
                0x0805c194                __aeabi_ui2d
                0x0805c194                __floatunsidf
                0x0805c1b4                __floatsidf
                0x0805c1b4                __aeabi_i2d
                0x0805c1d8                __extendsfdf2
                0x0805c1d8                __aeabi_f2d
                0x0805c214                __aeabi_ul2d
                0x0805c214                __floatundidf
                0x0805c224                __floatdidf
                0x0805c224                __aeabi_l2d
 .text          0x0805c280      0x424 /nfs/nfs5/home/research/hardware/arm2/gcc-arm-embedded/gcc-arm-none-eabi-4_8-2014q2/bin/../lib/gcc/arm-none-eabi/4.8.4/armv7e-m/libgcc.a(_arm_muldivdf3.o)
                0x0805c280                __aeabi_dmul
                0x0805c280                __muldf3
                0x0805c4d4                __aeabi_ddiv
                0x0805c4d4                __divdf3
 *fill*         0x0805c6a4        0xc 
 .text          0x0805c6b0      0x110 /nfs/nfs5/home/research/hardware/arm2/gcc-arm-embedded/gcc-arm-none-eabi-4_8-2014q2/bin/../lib/gcc/arm-none-eabi/4.8.4/armv7e-m/libgcc.a(_arm_cmpdf2.o)
                0x0805c6b0                __gtdf2
                0x0805c6b0                __gedf2
                0x0805c6b8                __ltdf2
                0x0805c6b8                __ledf2
                0x0805c6c0                __cmpdf2
                0x0805c6c0                __eqdf2
                0x0805c6c0                __nedf2
                0x0805c73c                __aeabi_cdrcmple
                0x0805c74c                __aeabi_cdcmple
                0x0805c74c                __aeabi_cdcmpeq
                0x0805c75c                __aeabi_dcmpeq
                0x0805c770                __aeabi_dcmplt
                0x0805c784                __aeabi_dcmple
                0x0805c798                __aeabi_dcmpge
                0x0805c7ac                __aeabi_dcmpgt
 .text          0x0805c7c0       0x50 /nfs/nfs5/home/research/hardware/arm2/gcc-arm-embedded/gcc-arm-none-eabi-4_8-2014q2/bin/../lib/gcc/arm-none-eabi/4.8.4/armv7e-m/libgcc.a(_arm_fixdfsi.o)
                0x0805c7c0                __fixdfsi
                0x0805c7c0                __aeabi_d2iz
 .text          0x0805c810       0x40 /nfs/nfs5/home/research/hardware/arm2/gcc-arm-embedded/gcc-arm-none-eabi-4_8-2014q2/bin/../lib/gcc/arm-none-eabi/4.8.4/armv7e-m/libgcc.a(_arm_fixunsdfsi.o)
                0x0805c810                __fixunsdfsi
                0x0805c810                __aeabi_d2uiz
 .text          0x0805c850       0xa0 /nfs/nfs5/home/research/hardware/arm2/gcc-arm-embedded/gcc-arm-none-eabi-4_8-2014q2/bin/../lib/gcc/arm-none-eabi/4.8.4/armv7e-m/libgcc.a(_arm_truncdfsf2.o)
                0x0805c850                __aeabi_d2f
                0x0805c850                __truncdfsf2
 .text          0x0805c8f0      0x21c /nfs/nfs5/home/research/hardware/arm2/gcc-arm-embedded/gcc-arm-none-eabi-4_8-2014q2/bin/../lib/gcc/arm-none-eabi/4.8.4/armv7e-m/libgcc.a(_arm_addsubsf3.o)
                0x0805c8f0                __aeabi_frsub
                0x0805c8f8                __subsf3
                0x0805c8f8                __aeabi_fsub
                0x0805c8fc                __aeabi_fadd
                0x0805c8fc                __addsf3
                0x0805ca5c                __aeabi_ui2f
                0x0805ca5c                __floatunsisf
                0x0805ca64                __aeabi_i2f
                0x0805ca64                __floatsisf
                0x0805ca80                __floatundisf
                0x0805ca80                __aeabi_ul2f
                0x0805ca90                __floatdisf
                0x0805ca90                __aeabi_l2f
 *fill*         0x0805cb0c        0x4 
 .text          0x0805cb10      0x2a0 /nfs/nfs5/home/research/hardware/arm2/gcc-arm-embedded/gcc-arm-none-eabi-4_8-2014q2/bin/../lib/gcc/arm-none-eabi/4.8.4/armv7e-m/libgcc.a(_arm_muldivsf3.o)
                0x0805cb10                __mulsf3
                0x0805cb10                __aeabi_fmul
                0x0805cc78                __divsf3
                0x0805cc78                __aeabi_fdiv
 .text          0x0805cdb0       0xec /nfs/nfs5/home/research/hardware/arm2/gcc-arm-embedded/gcc-arm-none-eabi-4_8-2014q2/bin/../lib/gcc/arm-none-eabi/4.8.4/armv7e-m/libgcc.a(_arm_cmpsf2.o)
                0x0805cdb0                __gtsf2
                0x0805cdb0                __gesf2
                0x0805cdb8                __lesf2
                0x0805cdb8                __ltsf2
                0x0805cdc0                __nesf2
                0x0805cdc0                __eqsf2
                0x0805cdc0                __cmpsf2
                0x0805ce20                __aeabi_cfrcmple
                0x0805ce28                __aeabi_cfcmple
                0x0805ce28                __aeabi_cfcmpeq
                0x0805ce38                __aeabi_fcmpeq
                0x0805ce4c                __aeabi_fcmplt
                0x0805ce60                __aeabi_fcmple
                0x0805ce74                __aeabi_fcmpge
                0x0805ce88                __aeabi_fcmpgt
 *fill*         0x0805ce9c        0x4 
 .text          0x0805cea0       0x4c /nfs/nfs5/home/research/hardware/arm2/gcc-arm-embedded/gcc-arm-none-eabi-4_8-2014q2/bin/../lib/gcc/arm-none-eabi/4.8.4/armv7e-m/libgcc.a(_arm_fixsfsi.o)
                0x0805cea0                __fixsfsi
                0x0805cea0                __aeabi_f2iz
 *fill*         0x0805ceec        0x4 
 .text          0x0805cef0       0x40 /nfs/nfs5/home/research/hardware/arm2/gcc-arm-embedded/gcc-arm-none-eabi-4_8-2014q2/bin/../lib/gcc/arm-none-eabi/4.8.4/armv7e-m/libgcc.a(_arm_fixunssfsi.o)
                0x0805cef0                __aeabi_f2uiz
                0x0805cef0                __fixunssfsi
 .text          0x0805cf30       0x38 /nfs/nfs5/home/research/hardware/arm2/gcc-arm-embedded/gcc-arm-none-eabi-4_8-2014q2/bin/../lib/gcc/arm-none-eabi/4.8.4/armv7e-m/libgcc.a(_aeabi_ldivmod.o)
                0x0805cf30                __aeabi_ldivmod
 *fill*         0x0805cf68        0x8 
 .text          0x0805cf70       0x2c /nfs/nfs5/home/research/hardware/arm2/gcc-arm-embedded/gcc-arm-none-eabi-4_8-2014q2/bin/../lib/gcc/arm-none-eabi/4.8.4/armv7e-m/libgcc.a(_aeabi_uldivmod.o)
                0x0805cf70                __aeabi_uldivmod
 *fill*         0x0805cf9c        0x4 
 .text          0x0805cfa0       0x60 /nfs/nfs5/home/research/hardware/arm2/gcc-arm-embedded/gcc-arm-none-eabi-4_8-2014q2/bin/../lib/gcc/arm-none-eabi/4.8.4/armv7e-m/libgcc.a(bpabi.o)
                0x0805cfa0                __gnu_ldivmod_helper
                0x0805cfd0                __gnu_uldivmod_helper
 .text          0x0805d000        0x4 /nfs/nfs5/home/research/hardware/arm2/gcc-arm-embedded/gcc-arm-none-eabi-4_8-2014q2/bin/../lib/gcc/arm-none-eabi/4.8.4/armv7e-m/libgcc.a(_dvmd_tls.o)
                0x0805d000                __aeabi_ldiv0
                0x0805d000                __aeabi_idiv0
 *fill*         0x0805d004        0xc 
 .text          0x0805d010      0x298 /nfs/nfs5/home/research/hardware/arm2/gcc-arm-embedded/gcc-arm-none-eabi-4_8-2014q2/bin/../lib/gcc/arm-none-eabi/4.8.4/armv7e-m/libgcc.a(_divdi3.o)
                0x0805d010                __divdi3
 *fill*         0x0805d2a8        0x8 
 .text          0x0805d2b0      0x284 /nfs/nfs5/home/research/hardware/arm2/gcc-arm-embedded/gcc-arm-none-eabi-4_8-2014q2/bin/../lib/gcc/arm-none-eabi/4.8.4/armv7e-m/libgcc.a(_udivdi3.o)
                0x0805d2b0                __udivdi3
 *fill*         0x0805d534        0xc 
 .text          0x0805d540        0x0 /nfs/nfs5/home/research/hardware/arm2/gcc-arm-embedded/gcc-arm-none-eabi-4_8-2014q2/bin/../lib/gcc/arm-none-eabi/4.8.4/../../../../arm-none-eabi/lib/armv7e-m/libg.a(lib_a-errno.o)
 *(.text.*)
 .text.atoi     0x0805d540        0x8 /nfs/nfs5/home/research/hardware/arm2/gcc-arm-embedded/gcc-arm-none-eabi-4_8-2014q2/bin/../lib/gcc/arm-none-eabi/4.8.4/../../../../arm-none-eabi/lib/armv7e-m/libc.a(lib_a-atoi.o)
                0x0805d540                atoi
 *fill*         0x0805d548        0x8 
 .text._atoi_r  0x0805d550        0x8 /nfs/nfs5/home/research/hardware/arm2/gcc-arm-embedded/gcc-arm-none-eabi-4_8-2014q2/bin/../lib/gcc/arm-none-eabi/4.8.4/../../../../arm-none-eabi/lib/armv7e-m/libc.a(lib_a-atoi.o)
                0x0805d550                _atoi_r
 *fill*         0x0805d558        0x8 
 .text.malloc   0x0805d560       0x10 /nfs/nfs5/home/research/hardware/arm2/gcc-arm-embedded/gcc-arm-none-eabi-4_8-2014q2/bin/../lib/gcc/arm-none-eabi/4.8.4/../../../../arm-none-eabi/lib/armv7e-m/libc.a(lib_a-malloc.o)
                0x0805d560                malloc
 .text.free     0x0805d570       0x10 /nfs/nfs5/home/research/hardware/arm2/gcc-arm-embedded/gcc-arm-none-eabi-4_8-2014q2/bin/../lib/gcc/arm-none-eabi/4.8.4/../../../../arm-none-eabi/lib/armv7e-m/libc.a(lib_a-malloc.o)
                0x0805d570                free
 .text._malloc_r
                0x0805d580      0x538 /nfs/nfs5/home/research/hardware/arm2/gcc-arm-embedded/gcc-arm-none-eabi-4_8-2014q2/bin/../lib/gcc/arm-none-eabi/4.8.4/../../../../arm-none-eabi/lib/armv7e-m/libc.a(lib_a-mallocr.o)
                0x0805d580                _malloc_r
 *fill*         0x0805dab8        0x8 
 .text.memcmp   0x0805dac0       0x68 /nfs/nfs5/home/research/hardware/arm2/gcc-arm-embedded/gcc-arm-none-eabi-4_8-2014q2/bin/../lib/gcc/arm-none-eabi/4.8.4/../../../../arm-none-eabi/lib/armv7e-m/libc.a(lib_a-memcmp.o)
                0x0805dac0                memcmp
 *fill*         0x0805db28        0x8 
 .text.memset   0x0805db30       0x94 /nfs/nfs5/home/research/hardware/arm2/gcc-arm-embedded/gcc-arm-none-eabi-4_8-2014q2/bin/../lib/gcc/arm-none-eabi/4.8.4/../../../../arm-none-eabi/lib/armv7e-m/libc.a(lib_a-memset.o)
                0x0805db30                memset
 *fill*         0x0805dbc4        0xc 
 .text.__malloc_lock
                0x0805dbd0        0x4 /nfs/nfs5/home/research/hardware/arm2/gcc-arm-embedded/gcc-arm-none-eabi-4_8-2014q2/bin/../lib/gcc/arm-none-eabi/4.8.4/../../../../arm-none-eabi/lib/armv7e-m/libc.a(lib_a-mlock.o)
                0x0805dbd0                __malloc_lock
 *fill*         0x0805dbd4        0xc 
 .text.__malloc_unlock
                0x0805dbe0        0x4 /nfs/nfs5/home/research/hardware/arm2/gcc-arm-embedded/gcc-arm-none-eabi-4_8-2014q2/bin/../lib/gcc/arm-none-eabi/4.8.4/../../../../arm-none-eabi/lib/armv7e-m/libc.a(lib_a-mlock.o)
                0x0805dbe0                __malloc_unlock
 *fill*         0x0805dbe4        0xc 
 .text._printf_r
                0x0805dbf0       0x20 /nfs/nfs5/home/research/hardware/arm2/gcc-arm-embedded/gcc-arm-none-eabi-4_8-2014q2/bin/../lib/gcc/arm-none-eabi/4.8.4/../../../../arm-none-eabi/lib/armv7e-m/libc.a(lib_a-printf.o)
                0x0805dbf0                _printf_r
 .text.printf   0x0805dc10       0x28 /nfs/nfs5/home/research/hardware/arm2/gcc-arm-embedded/gcc-arm-none-eabi-4_8-2014q2/bin/../lib/gcc/arm-none-eabi/4.8.4/../../../../arm-none-eabi/lib/armv7e-m/libc.a(lib_a-printf.o)
                0x0805dc10                printf
 *fill*         0x0805dc38        0x8 
 .text._sbrk_r  0x0805dc40       0x24 /nfs/nfs5/home/research/hardware/arm2/gcc-arm-embedded/gcc-arm-none-eabi-4_8-2014q2/bin/../lib/gcc/arm-none-eabi/4.8.4/../../../../arm-none-eabi/lib/armv7e-m/libc.a(lib_a-sbrkr.o)
                0x0805dc40                _sbrk_r
 *fill*         0x0805dc64        0xc 
 .text._sprintf_r
                0x0805dc70       0x44 /nfs/nfs5/home/research/hardware/arm2/gcc-arm-embedded/gcc-arm-none-eabi-4_8-2014q2/bin/../lib/gcc/arm-none-eabi/4.8.4/../../../../arm-none-eabi/lib/armv7e-m/libc.a(lib_a-sprintf.o)
                0x0805dc70                _sprintf_r
 *fill*         0x0805dcb4        0xc 
 .text.sprintf  0x0805dcc0       0x4c /nfs/nfs5/home/research/hardware/arm2/gcc-arm-embedded/gcc-arm-none-eabi-4_8-2014q2/bin/../lib/gcc/arm-none-eabi/4.8.4/../../../../arm-none-eabi/lib/armv7e-m/libc.a(lib_a-sprintf.o)
                0x0805dcc0                sprintf
 *fill*         0x0805dd0c        0x4 
 .text.strncmp  0x0805dd10       0xb4 /nfs/nfs5/home/research/hardware/arm2/gcc-arm-embedded/gcc-arm-none-eabi-4_8-2014q2/bin/../lib/gcc/arm-none-eabi/4.8.4/../../../../arm-none-eabi/lib/armv7e-m/libc.a(lib_a-strncmp.o)
                0x0805dd10                strncmp
 *fill*         0x0805ddc4        0xc 
 .text.strpbrk  0x0805ddd0       0x50 /nfs/nfs5/home/research/hardware/arm2/gcc-arm-embedded/gcc-arm-none-eabi-4_8-2014q2/bin/../lib/gcc/arm-none-eabi/4.8.4/../../../../arm-none-eabi/lib/armv7e-m/libc.a(lib_a-strpbrk.o)
                0x0805ddd0                strpbrk
 .text.strspn   0x0805de20       0x40 /nfs/nfs5/home/research/hardware/arm2/gcc-arm-embedded/gcc-arm-none-eabi-4_8-2014q2/bin/../lib/gcc/arm-none-eabi/4.8.4/../../../../arm-none-eabi/lib/armv7e-m/libc.a(lib_a-strspn.o)
                0x0805de20                strspn
 .text._strtol_r
                0x0805de60      0x114 /nfs/nfs5/home/research/hardware/arm2/gcc-arm-embedded/gcc-arm-none-eabi-4_8-2014q2/bin/../lib/gcc/arm-none-eabi/4.8.4/../../../../arm-none-eabi/lib/armv7e-m/libc.a(lib_a-strtol.o)
                0x0805de60                _strtol_r
 *fill*         0x0805df74        0xc 
 .text.strtol   0x0805df80       0x18 /nfs/nfs5/home/research/hardware/arm2/gcc-arm-embedded/gcc-arm-none-eabi-4_8-2014q2/bin/../lib/gcc/arm-none-eabi/4.8.4/../../../../arm-none-eabi/lib/armv7e-m/libc.a(lib_a-strtol.o)
                0x0805df80                strtol
 *fill*         0x0805df98        0x8 
 .text._svfprintf_r
                0x0805dfa0     0x14f8 /nfs/nfs5/home/research/hardware/arm2/gcc-arm-embedded/gcc-arm-none-eabi-4_8-2014q2/bin/../lib/gcc/arm-none-eabi/4.8.4/../../../../arm-none-eabi/lib/armv7e-m/libc.a(lib_a-svfprintf.o)
                0x0805dfa0                _svfprintf_r
 *fill*         0x0805f498        0x8 
 .text._vfprintf_r
                0x0805f4a0     0x1544 /nfs/nfs5/home/research/hardware/arm2/gcc-arm-embedded/gcc-arm-none-eabi-4_8-2014q2/bin/../lib/gcc/arm-none-eabi/4.8.4/../../../../arm-none-eabi/lib/armv7e-m/libc.a(lib_a-vfprintf.o)
                0x0805f4a0                _vfprintf_r
 *fill*         0x080609e4        0xc 
 .text.vfprintf
                0x080609f0       0x18 /nfs/nfs5/home/research/hardware/arm2/gcc-arm-embedded/gcc-arm-none-eabi-4_8-2014q2/bin/../lib/gcc/arm-none-eabi/4.8.4/../../../../arm-none-eabi/lib/armv7e-m/libc.a(lib_a-vfprintf.o)
                0x080609f0                vfprintf
 *fill*         0x08060a08        0x8 
 .text.__sbprintf
                0x08060a10       0x78 /nfs/nfs5/home/research/hardware/arm2/gcc-arm-embedded/gcc-arm-none-eabi-4_8-2014q2/bin/../lib/gcc/arm-none-eabi/4.8.4/../../../../arm-none-eabi/lib/armv7e-m/libc.a(lib_a-vfprintf.o)
 *fill*         0x08060a88        0x8 
 .text.__swsetup_r
                0x08060a90       0xc4 /nfs/nfs5/home/research/hardware/arm2/gcc-arm-embedded/gcc-arm-none-eabi-4_8-2014q2/bin/../lib/gcc/arm-none-eabi/4.8.4/../../../../arm-none-eabi/lib/armv7e-m/libc.a(lib_a-wsetup.o)
                0x08060a90                __swsetup_r
 *fill*         0x08060b54        0xc 
 .text.quorem   0x08060b60      0x130 /nfs/nfs5/home/research/hardware/arm2/gcc-arm-embedded/gcc-arm-none-eabi-4_8-2014q2/bin/../lib/gcc/arm-none-eabi/4.8.4/../../../../arm-none-eabi/lib/armv7e-m/libc.a(lib_a-dtoa.o)
 .text._dtoa_r  0x08060c90      0xe38 /nfs/nfs5/home/research/hardware/arm2/gcc-arm-embedded/gcc-arm-none-eabi-4_8-2014q2/bin/../lib/gcc/arm-none-eabi/4.8.4/../../../../arm-none-eabi/lib/armv7e-m/libc.a(lib_a-dtoa.o)
                0x08060c90                _dtoa_r
 *fill*         0x08061ac8        0x8 
 .text.__sflush_r
                0x08061ad0      0x154 /nfs/nfs5/home/research/hardware/arm2/gcc-arm-embedded/gcc-arm-none-eabi-4_8-2014q2/bin/../lib/gcc/arm-none-eabi/4.8.4/../../../../arm-none-eabi/lib/armv7e-m/libc.a(lib_a-fflush.o)
                0x08061ad0                __sflush_r
 *fill*         0x08061c24        0xc 
 .text._fflush_r
                0x08061c30       0x2c /nfs/nfs5/home/research/hardware/arm2/gcc-arm-embedded/gcc-arm-none-eabi-4_8-2014q2/bin/../lib/gcc/arm-none-eabi/4.8.4/../../../../arm-none-eabi/lib/armv7e-m/libc.a(lib_a-fflush.o)
                0x08061c30                _fflush_r
 *fill*         0x08061c5c        0x4 
 .text.fflush   0x08061c60       0x24 /nfs/nfs5/home/research/hardware/arm2/gcc-arm-embedded/gcc-arm-none-eabi-4_8-2014q2/bin/../lib/gcc/arm-none-eabi/4.8.4/../../../../arm-none-eabi/lib/armv7e-m/libc.a(lib_a-fflush.o)
                0x08061c60                fflush
 *fill*         0x08061c84        0xc 
 .text.__fp_lock
                0x08061c90        0x4 /nfs/nfs5/home/research/hardware/arm2/gcc-arm-embedded/gcc-arm-none-eabi-4_8-2014q2/bin/../lib/gcc/arm-none-eabi/4.8.4/../../../../arm-none-eabi/lib/armv7e-m/libc.a(lib_a-findfp.o)
 *fill*         0x08061c94        0xc 
 .text.__fp_unlock
                0x08061ca0        0x4 /nfs/nfs5/home/research/hardware/arm2/gcc-arm-embedded/gcc-arm-none-eabi-4_8-2014q2/bin/../lib/gcc/arm-none-eabi/4.8.4/../../../../arm-none-eabi/lib/armv7e-m/libc.a(lib_a-findfp.o)
 *fill*         0x08061ca4        0xc 
 .text._cleanup_r
                0x08061cb0        0xc /nfs/nfs5/home/research/hardware/arm2/gcc-arm-embedded/gcc-arm-none-eabi-4_8-2014q2/bin/../lib/gcc/arm-none-eabi/4.8.4/../../../../arm-none-eabi/lib/armv7e-m/libc.a(lib_a-findfp.o)
                0x08061cb0                _cleanup_r
 *fill*         0x08061cbc        0x4 
 .text.__sfmoreglue
                0x08061cc0       0x30 /nfs/nfs5/home/research/hardware/arm2/gcc-arm-embedded/gcc-arm-none-eabi-4_8-2014q2/bin/../lib/gcc/arm-none-eabi/4.8.4/../../../../arm-none-eabi/lib/armv7e-m/libc.a(lib_a-findfp.o)
                0x08061cc0                __sfmoreglue
 .text._cleanup
                0x08061cf0       0x14 /nfs/nfs5/home/research/hardware/arm2/gcc-arm-embedded/gcc-arm-none-eabi-4_8-2014q2/bin/../lib/gcc/arm-none-eabi/4.8.4/../../../../arm-none-eabi/lib/armv7e-m/libc.a(lib_a-findfp.o)
                0x08061cf0                _cleanup
 *fill*         0x08061d04        0xc 
 .text.__sinit  0x08061d10       0xf4 /nfs/nfs5/home/research/hardware/arm2/gcc-arm-embedded/gcc-arm-none-eabi-4_8-2014q2/bin/../lib/gcc/arm-none-eabi/4.8.4/../../../../arm-none-eabi/lib/armv7e-m/libc.a(lib_a-findfp.o)
                0x08061d10                __sinit
 *fill*         0x08061e04        0xc 
 .text.__sfp    0x08061e10       0x8c /nfs/nfs5/home/research/hardware/arm2/gcc-arm-embedded/gcc-arm-none-eabi-4_8-2014q2/bin/../lib/gcc/arm-none-eabi/4.8.4/../../../../arm-none-eabi/lib/armv7e-m/libc.a(lib_a-findfp.o)
                0x08061e10                __sfp
 *fill*         0x08061e9c        0x4 
 .text.__sfp_lock_acquire
                0x08061ea0        0x4 /nfs/nfs5/home/research/hardware/arm2/gcc-arm-embedded/gcc-arm-none-eabi-4_8-2014q2/bin/../lib/gcc/arm-none-eabi/4.8.4/../../../../arm-none-eabi/lib/armv7e-m/libc.a(lib_a-findfp.o)
                0x08061ea0                __sfp_lock_acquire
 *fill*         0x08061ea4        0xc 
 .text.__sfp_lock_release
                0x08061eb0        0x4 /nfs/nfs5/home/research/hardware/arm2/gcc-arm-embedded/gcc-arm-none-eabi-4_8-2014q2/bin/../lib/gcc/arm-none-eabi/4.8.4/../../../../arm-none-eabi/lib/armv7e-m/libc.a(lib_a-findfp.o)
                0x08061eb0                __sfp_lock_release
 *fill*         0x08061eb4        0xc 
 .text.__sinit_lock_acquire
                0x08061ec0        0x4 /nfs/nfs5/home/research/hardware/arm2/gcc-arm-embedded/gcc-arm-none-eabi-4_8-2014q2/bin/../lib/gcc/arm-none-eabi/4.8.4/../../../../arm-none-eabi/lib/armv7e-m/libc.a(lib_a-findfp.o)
                0x08061ec0                __sinit_lock_acquire
 *fill*         0x08061ec4        0xc 
 .text.__sinit_lock_release
                0x08061ed0        0x4 /nfs/nfs5/home/research/hardware/arm2/gcc-arm-embedded/gcc-arm-none-eabi-4_8-2014q2/bin/../lib/gcc/arm-none-eabi/4.8.4/../../../../arm-none-eabi/lib/armv7e-m/libc.a(lib_a-findfp.o)
                0x08061ed0                __sinit_lock_release
 *fill*         0x08061ed4        0xc 
 .text.__fp_lock_all
                0x08061ee0       0x14 /nfs/nfs5/home/research/hardware/arm2/gcc-arm-embedded/gcc-arm-none-eabi-4_8-2014q2/bin/../lib/gcc/arm-none-eabi/4.8.4/../../../../arm-none-eabi/lib/armv7e-m/libc.a(lib_a-findfp.o)
                0x08061ee0                __fp_lock_all
 *fill*         0x08061ef4        0xc 
 .text.__fp_unlock_all
                0x08061f00       0x14 /nfs/nfs5/home/research/hardware/arm2/gcc-arm-embedded/gcc-arm-none-eabi-4_8-2014q2/bin/../lib/gcc/arm-none-eabi/4.8.4/../../../../arm-none-eabi/lib/armv7e-m/libc.a(lib_a-findfp.o)
                0x08061f00                __fp_unlock_all
 *fill*         0x08061f14        0xc 
 .text._malloc_trim_r
                0x08061f20       0x9c /nfs/nfs5/home/research/hardware/arm2/gcc-arm-embedded/gcc-arm-none-eabi-4_8-2014q2/bin/../lib/gcc/arm-none-eabi/4.8.4/../../../../arm-none-eabi/lib/armv7e-m/libc.a(lib_a-freer.o)
                0x08061f20                _malloc_trim_r
 *fill*         0x08061fbc        0x4 
 .text._free_r  0x08061fc0      0x19c /nfs/nfs5/home/research/hardware/arm2/gcc-arm-embedded/gcc-arm-none-eabi-4_8-2014q2/bin/../lib/gcc/arm-none-eabi/4.8.4/../../../../arm-none-eabi/lib/armv7e-m/libc.a(lib_a-freer.o)
                0x08061fc0                _free_r
 *fill*         0x0806215c        0x4 
 .text._fwalk   0x08062160       0x4c /nfs/nfs5/home/research/hardware/arm2/gcc-arm-embedded/gcc-arm-none-eabi-4_8-2014q2/bin/../lib/gcc/arm-none-eabi/4.8.4/../../../../arm-none-eabi/lib/armv7e-m/libc.a(lib_a-fwalk.o)
                0x08062160                _fwalk
 *fill*         0x080621ac        0x4 
 .text._fwalk_reent
                0x080621b0       0x50 /nfs/nfs5/home/research/hardware/arm2/gcc-arm-embedded/gcc-arm-none-eabi-4_8-2014q2/bin/../lib/gcc/arm-none-eabi/4.8.4/../../../../arm-none-eabi/lib/armv7e-m/libc.a(lib_a-fwalk.o)
                0x080621b0                _fwalk_reent
 .text._setlocale_r
                0x08062200       0x40 /nfs/nfs5/home/research/hardware/arm2/gcc-arm-embedded/gcc-arm-none-eabi-4_8-2014q2/bin/../lib/gcc/arm-none-eabi/4.8.4/../../../../arm-none-eabi/lib/armv7e-m/libc.a(lib_a-locale.o)
                0x08062200                _setlocale_r
 .text.__locale_charset
                0x08062240        0x8 /nfs/nfs5/home/research/hardware/arm2/gcc-arm-embedded/gcc-arm-none-eabi-4_8-2014q2/bin/../lib/gcc/arm-none-eabi/4.8.4/../../../../arm-none-eabi/lib/armv7e-m/libc.a(lib_a-locale.o)
                0x08062240                __locale_charset
 *fill*         0x08062248        0x8 
 .text.__locale_mb_cur_max
                0x08062250        0xc /nfs/nfs5/home/research/hardware/arm2/gcc-arm-embedded/gcc-arm-none-eabi-4_8-2014q2/bin/../lib/gcc/arm-none-eabi/4.8.4/../../../../arm-none-eabi/lib/armv7e-m/libc.a(lib_a-locale.o)
                0x08062250                __locale_mb_cur_max
 *fill*         0x0806225c        0x4 
 .text.__locale_msgcharset
                0x08062260        0x8 /nfs/nfs5/home/research/hardware/arm2/gcc-arm-embedded/gcc-arm-none-eabi-4_8-2014q2/bin/../lib/gcc/arm-none-eabi/4.8.4/../../../../arm-none-eabi/lib/armv7e-m/libc.a(lib_a-locale.o)
                0x08062260                __locale_msgcharset
 *fill*         0x08062268        0x8 
 .text.__locale_cjk_lang
                0x08062270        0x4 /nfs/nfs5/home/research/hardware/arm2/gcc-arm-embedded/gcc-arm-none-eabi-4_8-2014q2/bin/../lib/gcc/arm-none-eabi/4.8.4/../../../../arm-none-eabi/lib/armv7e-m/libc.a(lib_a-locale.o)
                0x08062270                __locale_cjk_lang
 *fill*         0x08062274        0xc 
 .text._localeconv_r
                0x08062280        0x8 /nfs/nfs5/home/research/hardware/arm2/gcc-arm-embedded/gcc-arm-none-eabi-4_8-2014q2/bin/../lib/gcc/arm-none-eabi/4.8.4/../../../../arm-none-eabi/lib/armv7e-m/libc.a(lib_a-locale.o)
                0x08062280                _localeconv_r
 *fill*         0x08062288        0x8 
 .text.setlocale
                0x08062290       0x10 /nfs/nfs5/home/research/hardware/arm2/gcc-arm-embedded/gcc-arm-none-eabi-4_8-2014q2/bin/../lib/gcc/arm-none-eabi/4.8.4/../../../../arm-none-eabi/lib/armv7e-m/libc.a(lib_a-locale.o)
                0x08062290                setlocale
 .text.localeconv
                0x080622a0        0x8 /nfs/nfs5/home/research/hardware/arm2/gcc-arm-embedded/gcc-arm-none-eabi-4_8-2014q2/bin/../lib/gcc/arm-none-eabi/4.8.4/../../../../arm-none-eabi/lib/armv7e-m/libc.a(lib_a-locale.o)
                0x080622a0                localeconv
 *fill*         0x080622a8        0x8 
 .text.__smakebuf_r
                0x080622b0       0xe0 /nfs/nfs5/home/research/hardware/arm2/gcc-arm-embedded/gcc-arm-none-eabi-4_8-2014q2/bin/../lib/gcc/arm-none-eabi/4.8.4/../../../../arm-none-eabi/lib/armv7e-m/libc.a(lib_a-makebuf.o)
                0x080622b0                __smakebuf_r
 .text.memchr   0x08062390       0x90 /nfs/nfs5/home/research/hardware/arm2/gcc-arm-embedded/gcc-arm-none-eabi-4_8-2014q2/bin/../lib/gcc/arm-none-eabi/4.8.4/../../../../arm-none-eabi/lib/armv7e-m/libc.a(lib_a-memchr-stub.o)
                0x08062390                memchr
 .text._Balloc  0x08062420       0x4c /nfs/nfs5/home/research/hardware/arm2/gcc-arm-embedded/gcc-arm-none-eabi-4_8-2014q2/bin/../lib/gcc/arm-none-eabi/4.8.4/../../../../arm-none-eabi/lib/armv7e-m/libc.a(lib_a-mprec.o)
                0x08062420                _Balloc
 *fill*         0x0806246c        0x4 
 .text._Bfree   0x08062470       0x14 /nfs/nfs5/home/research/hardware/arm2/gcc-arm-embedded/gcc-arm-none-eabi-4_8-2014q2/bin/../lib/gcc/arm-none-eabi/4.8.4/../../../../arm-none-eabi/lib/armv7e-m/libc.a(lib_a-mprec.o)
                0x08062470                _Bfree
 *fill*         0x08062484        0xc 
 .text.__multadd
                0x08062490       0x98 /nfs/nfs5/home/research/hardware/arm2/gcc-arm-embedded/gcc-arm-none-eabi-4_8-2014q2/bin/../lib/gcc/arm-none-eabi/4.8.4/../../../../arm-none-eabi/lib/armv7e-m/libc.a(lib_a-mprec.o)
                0x08062490                __multadd
 *fill*         0x08062528        0x8 
 .text.__s2b    0x08062530       0x98 /nfs/nfs5/home/research/hardware/arm2/gcc-arm-embedded/gcc-arm-none-eabi-4_8-2014q2/bin/../lib/gcc/arm-none-eabi/4.8.4/../../../../arm-none-eabi/lib/armv7e-m/libc.a(lib_a-mprec.o)
                0x08062530                __s2b
 *fill*         0x080625c8        0x8 
 .text.__hi0bits
                0x080625d0       0x40 /nfs/nfs5/home/research/hardware/arm2/gcc-arm-embedded/gcc-arm-none-eabi-4_8-2014q2/bin/../lib/gcc/arm-none-eabi/4.8.4/../../../../arm-none-eabi/lib/armv7e-m/libc.a(lib_a-mprec.o)
                0x080625d0                __hi0bits
 .text.__lo0bits
                0x08062610       0x5c /nfs/nfs5/home/research/hardware/arm2/gcc-arm-embedded/gcc-arm-none-eabi-4_8-2014q2/bin/../lib/gcc/arm-none-eabi/4.8.4/../../../../arm-none-eabi/lib/armv7e-m/libc.a(lib_a-mprec.o)
                0x08062610                __lo0bits
 *fill*         0x0806266c        0x4 
 .text.__i2b    0x08062670       0x14 /nfs/nfs5/home/research/hardware/arm2/gcc-arm-embedded/gcc-arm-none-eabi-4_8-2014q2/bin/../lib/gcc/arm-none-eabi/4.8.4/../../../../arm-none-eabi/lib/armv7e-m/libc.a(lib_a-mprec.o)
                0x08062670                __i2b
 *fill*         0x08062684        0xc 
 .text.__multiply
                0x08062690      0x13c /nfs/nfs5/home/research/hardware/arm2/gcc-arm-embedded/gcc-arm-none-eabi-4_8-2014q2/bin/../lib/gcc/arm-none-eabi/4.8.4/../../../../arm-none-eabi/lib/armv7e-m/libc.a(lib_a-mprec.o)
                0x08062690                __multiply
 *fill*         0x080627cc        0x4 
 .text.__pow5mult
                0x080627d0       0x9c /nfs/nfs5/home/research/hardware/arm2/gcc-arm-embedded/gcc-arm-none-eabi-4_8-2014q2/bin/../lib/gcc/arm-none-eabi/4.8.4/../../../../arm-none-eabi/lib/armv7e-m/libc.a(lib_a-mprec.o)
                0x080627d0                __pow5mult
 *fill*         0x0806286c        0x4 
 .text.__lshift
                0x08062870       0xbc /nfs/nfs5/home/research/hardware/arm2/gcc-arm-embedded/gcc-arm-none-eabi-4_8-2014q2/bin/../lib/gcc/arm-none-eabi/4.8.4/../../../../arm-none-eabi/lib/armv7e-m/libc.a(lib_a-mprec.o)
                0x08062870                __lshift
 *fill*         0x0806292c        0x4 
 .text.__mcmp   0x08062930       0x48 /nfs/nfs5/home/research/hardware/arm2/gcc-arm-embedded/gcc-arm-none-eabi-4_8-2014q2/bin/../lib/gcc/arm-none-eabi/4.8.4/../../../../arm-none-eabi/lib/armv7e-m/libc.a(lib_a-mprec.o)
                0x08062930                __mcmp
 *fill*         0x08062978        0x8 
 .text.__mdiff  0x08062980       0xd4 /nfs/nfs5/home/research/hardware/arm2/gcc-arm-embedded/gcc-arm-none-eabi-4_8-2014q2/bin/../lib/gcc/arm-none-eabi/4.8.4/../../../../arm-none-eabi/lib/armv7e-m/libc.a(lib_a-mprec.o)
                0x08062980                __mdiff
 *fill*         0x08062a54        0xc 
 .text.__ulp    0x08062a60       0x40 /nfs/nfs5/home/research/hardware/arm2/gcc-arm-embedded/gcc-arm-none-eabi-4_8-2014q2/bin/../lib/gcc/arm-none-eabi/4.8.4/../../../../arm-none-eabi/lib/armv7e-m/libc.a(lib_a-mprec.o)
                0x08062a60                __ulp
 .text.__b2d    0x08062aa0       0xb4 /nfs/nfs5/home/research/hardware/arm2/gcc-arm-embedded/gcc-arm-none-eabi-4_8-2014q2/bin/../lib/gcc/arm-none-eabi/4.8.4/../../../../arm-none-eabi/lib/armv7e-m/libc.a(lib_a-mprec.o)
                0x08062aa0                __b2d
 *fill*         0x08062b54        0xc 
 .text.__d2b    0x08062b60       0xbc /nfs/nfs5/home/research/hardware/arm2/gcc-arm-embedded/gcc-arm-none-eabi-4_8-2014q2/bin/../lib/gcc/arm-none-eabi/4.8.4/../../../../arm-none-eabi/lib/armv7e-m/libc.a(lib_a-mprec.o)
                0x08062b60                __d2b
 *fill*         0x08062c1c        0x4 
 .text.__ratio  0x08062c20       0x50 /nfs/nfs5/home/research/hardware/arm2/gcc-arm-embedded/gcc-arm-none-eabi-4_8-2014q2/bin/../lib/gcc/arm-none-eabi/4.8.4/../../../../arm-none-eabi/lib/armv7e-m/libc.a(lib_a-mprec.o)
                0x08062c20                __ratio
 .text._mprec_log10
                0x08062c70       0x34 /nfs/nfs5/home/research/hardware/arm2/gcc-arm-embedded/gcc-arm-none-eabi-4_8-2014q2/bin/../lib/gcc/arm-none-eabi/4.8.4/../../../../arm-none-eabi/lib/armv7e-m/libc.a(lib_a-mprec.o)
                0x08062c70                _mprec_log10
 *fill*         0x08062ca4        0xc 
 .text.__copybits
                0x08062cb0       0x48 /nfs/nfs5/home/research/hardware/arm2/gcc-arm-embedded/gcc-arm-none-eabi-4_8-2014q2/bin/../lib/gcc/arm-none-eabi/4.8.4/../../../../arm-none-eabi/lib/armv7e-m/libc.a(lib_a-mprec.o)
                0x08062cb0                __copybits
 *fill*         0x08062cf8        0x8 
 .text.__any_on
                0x08062d00       0x60 /nfs/nfs5/home/research/hardware/arm2/gcc-arm-embedded/gcc-arm-none-eabi-4_8-2014q2/bin/../lib/gcc/arm-none-eabi/4.8.4/../../../../arm-none-eabi/lib/armv7e-m/libc.a(lib_a-mprec.o)
                0x08062d00                __any_on
 .text.cleanup_glue
                0x08062d60       0x1c /nfs/nfs5/home/research/hardware/arm2/gcc-arm-embedded/gcc-arm-none-eabi-4_8-2014q2/bin/../lib/gcc/arm-none-eabi/4.8.4/../../../../arm-none-eabi/lib/armv7e-m/libc.a(lib_a-reent.o)
                0x08062d60                cleanup_glue
 *fill*         0x08062d7c        0x4 
 .text._reclaim_reent
                0x08062d80       0x90 /nfs/nfs5/home/research/hardware/arm2/gcc-arm-embedded/gcc-arm-none-eabi-4_8-2014q2/bin/../lib/gcc/arm-none-eabi/4.8.4/../../../../arm-none-eabi/lib/armv7e-m/libc.a(lib_a-reent.o)
                0x08062d80                _reclaim_reent
 .text.__fpclassifyd
                0x08062e10       0x50 /nfs/nfs5/home/research/hardware/arm2/gcc-arm-embedded/gcc-arm-none-eabi-4_8-2014q2/bin/../lib/gcc/arm-none-eabi/4.8.4/../../../../arm-none-eabi/lib/armv7e-m/libc.a(lib_a-s_fpclassify.o)
                0x08062e10                __fpclassifyd
 .text.__sread  0x08062e60       0x24 /nfs/nfs5/home/research/hardware/arm2/gcc-arm-embedded/gcc-arm-none-eabi-4_8-2014q2/bin/../lib/gcc/arm-none-eabi/4.8.4/../../../../arm-none-eabi/lib/armv7e-m/libc.a(lib_a-stdio.o)
                0x08062e60                __sread
 *fill*         0x08062e84        0xc 
 .text.__seofread
                0x08062e90        0x4 /nfs/nfs5/home/research/hardware/arm2/gcc-arm-embedded/gcc-arm-none-eabi-4_8-2014q2/bin/../lib/gcc/arm-none-eabi/4.8.4/../../../../arm-none-eabi/lib/armv7e-m/libc.a(lib_a-stdio.o)
                0x08062e90                __seofread
 *fill*         0x08062e94        0xc 
 .text.__swrite
                0x08062ea0       0x38 /nfs/nfs5/home/research/hardware/arm2/gcc-arm-embedded/gcc-arm-none-eabi-4_8-2014q2/bin/../lib/gcc/arm-none-eabi/4.8.4/../../../../arm-none-eabi/lib/armv7e-m/libc.a(lib_a-stdio.o)
                0x08062ea0                __swrite
 *fill*         0x08062ed8        0x8 
 .text.__sseek  0x08062ee0       0x20 /nfs/nfs5/home/research/hardware/arm2/gcc-arm-embedded/gcc-arm-none-eabi-4_8-2014q2/bin/../lib/gcc/arm-none-eabi/4.8.4/../../../../arm-none-eabi/lib/armv7e-m/libc.a(lib_a-stdio.o)
                0x08062ee0                __sseek
 .text.__sclose
                0x08062f00        0x8 /nfs/nfs5/home/research/hardware/arm2/gcc-arm-embedded/gcc-arm-none-eabi-4_8-2014q2/bin/../lib/gcc/arm-none-eabi/4.8.4/../../../../arm-none-eabi/lib/armv7e-m/libc.a(lib_a-stdio.o)
                0x08062f00                __sclose
 *fill*         0x08062f08        0x8 
 .text.strlen   0x08062f10       0x60 /nfs/nfs5/home/research/hardware/arm2/gcc-arm-embedded/gcc-arm-none-eabi-4_8-2014q2/bin/../lib/gcc/arm-none-eabi/4.8.4/../../../../arm-none-eabi/lib/armv7e-m/libc.a(lib_a-strlen.o)
                0x08062f10                strlen
 .text.__ssprint_r
                0x08062f70      0x100 /nfs/nfs5/home/research/hardware/arm2/gcc-arm-embedded/gcc-arm-none-eabi-4_8-2014q2/bin/../lib/gcc/arm-none-eabi/4.8.4/../../../../arm-none-eabi/lib/armv7e-m/libc.a(lib_a-svfiprintf.o)
                0x08062f70                __ssprint_r
 .text._svfiprintf_r
                0x08063070      0xb3c /nfs/nfs5/home/research/hardware/arm2/gcc-arm-embedded/gcc-arm-none-eabi-4_8-2014q2/bin/../lib/gcc/arm-none-eabi/4.8.4/../../../../arm-none-eabi/lib/armv7e-m/libc.a(lib_a-svfiprintf.o)
                0x08063070                _svfiprintf_r
 *fill*         0x08063bac        0x4 
 .text.__sprint_r.part.0
                0x08063bb0       0x78 /nfs/nfs5/home/research/hardware/arm2/gcc-arm-embedded/gcc-arm-none-eabi-4_8-2014q2/bin/../lib/gcc/arm-none-eabi/4.8.4/../../../../arm-none-eabi/lib/armv7e-m/libc.a(lib_a-vfiprintf.o)
 *fill*         0x08063c28        0x8 
 .text.__sprint_r
                0x08063c30       0x18 /nfs/nfs5/home/research/hardware/arm2/gcc-arm-embedded/gcc-arm-none-eabi-4_8-2014q2/bin/../lib/gcc/arm-none-eabi/4.8.4/../../../../arm-none-eabi/lib/armv7e-m/libc.a(lib_a-vfiprintf.o)
                0x08063c30                __sprint_r
 *fill*         0x08063c48        0x8 
 .text._vfiprintf_r
                0x08063c50      0xc54 /nfs/nfs5/home/research/hardware/arm2/gcc-arm-embedded/gcc-arm-none-eabi-4_8-2014q2/bin/../lib/gcc/arm-none-eabi/4.8.4/../../../../arm-none-eabi/lib/armv7e-m/libc.a(lib_a-vfiprintf.o)
                0x08063c50                _vfiprintf_r
 *fill*         0x080648a4        0xc 
 .text.vfiprintf
                0x080648b0       0x18 /nfs/nfs5/home/research/hardware/arm2/gcc-arm-embedded/gcc-arm-none-eabi-4_8-2014q2/bin/../lib/gcc/arm-none-eabi/4.8.4/../../../../arm-none-eabi/lib/armv7e-m/libc.a(lib_a-vfiprintf.o)
                0x080648b0                vfiprintf
 *fill*         0x080648c8        0x8 
 .text.__sbprintf
                0x080648d0       0x78 /nfs/nfs5/home/research/hardware/arm2/gcc-arm-embedded/gcc-arm-none-eabi-4_8-2014q2/bin/../lib/gcc/arm-none-eabi/4.8.4/../../../../arm-none-eabi/lib/armv7e-m/libc.a(lib_a-vfiprintf.o)
 *fill*         0x08064948        0x8 
 .text._write_r
                0x08064950       0x28 /nfs/nfs5/home/research/hardware/arm2/gcc-arm-embedded/gcc-arm-none-eabi-4_8-2014q2/bin/../lib/gcc/arm-none-eabi/4.8.4/../../../../arm-none-eabi/lib/armv7e-m/libc.a(lib_a-writer.o)
                0x08064950                _write_r
 *fill*         0x08064978        0x8 
 .text._calloc_r
                0x08064980       0x60 /nfs/nfs5/home/research/hardware/arm2/gcc-arm-embedded/gcc-arm-none-eabi-4_8-2014q2/bin/../lib/gcc/arm-none-eabi/4.8.4/../../../../arm-none-eabi/lib/armv7e-m/libc.a(lib_a-callocr.o)
                0x08064980                _calloc_r
 .text._close_r
                0x080649e0       0x24 /nfs/nfs5/home/research/hardware/arm2/gcc-arm-embedded/gcc-arm-none-eabi-4_8-2014q2/bin/../lib/gcc/arm-none-eabi/4.8.4/../../../../arm-none-eabi/lib/armv7e-m/libc.a(lib_a-closer.o)
                0x080649e0                _close_r
 *fill*         0x08064a04        0xc 
 .text._fclose_r
                0x08064a10       0x80 /nfs/nfs5/home/research/hardware/arm2/gcc-arm-embedded/gcc-arm-none-eabi-4_8-2014q2/bin/../lib/gcc/arm-none-eabi/4.8.4/../../../../arm-none-eabi/lib/armv7e-m/libc.a(lib_a-fclose.o)
                0x08064a10                _fclose_r
 .text.fclose   0x08064a90       0x10 /nfs/nfs5/home/research/hardware/arm2/gcc-arm-embedded/gcc-arm-none-eabi-4_8-2014q2/bin/../lib/gcc/arm-none-eabi/4.8.4/../../../../arm-none-eabi/lib/armv7e-m/libc.a(lib_a-fclose.o)
                0x08064a90                fclose
 .text._fputwc_r
                0x08064aa0       0xbc /nfs/nfs5/home/research/hardware/arm2/gcc-arm-embedded/gcc-arm-none-eabi-4_8-2014q2/bin/../lib/gcc/arm-none-eabi/4.8.4/../../../../arm-none-eabi/lib/armv7e-m/libc.a(lib_a-fputwc.o)
                0x08064aa0                _fputwc_r
 *fill*         0x08064b5c        0x4 
 .text.fputwc   0x08064b60       0x28 /nfs/nfs5/home/research/hardware/arm2/gcc-arm-embedded/gcc-arm-none-eabi-4_8-2014q2/bin/../lib/gcc/arm-none-eabi/4.8.4/../../../../arm-none-eabi/lib/armv7e-m/libc.a(lib_a-fputwc.o)
                0x08064b60                fputwc
 *fill*         0x08064b88        0x8 
 .text._fstat_r
                0x08064b90       0x28 /nfs/nfs5/home/research/hardware/arm2/gcc-arm-embedded/gcc-arm-none-eabi-4_8-2014q2/bin/../lib/gcc/arm-none-eabi/4.8.4/../../../../arm-none-eabi/lib/armv7e-m/libc.a(lib_a-fstatr.o)
                0x08064b90                _fstat_r
 *fill*         0x08064bb8        0x8 
 .text.__sfvwrite_r
                0x08064bc0      0x318 /nfs/nfs5/home/research/hardware/arm2/gcc-arm-embedded/gcc-arm-none-eabi-4_8-2014q2/bin/../lib/gcc/arm-none-eabi/4.8.4/../../../../arm-none-eabi/lib/armv7e-m/libc.a(lib_a-fvwrite.o)
                0x08064bc0                __sfvwrite_r
 *fill*         0x08064ed8        0x8 
 .text._isatty_r
                0x08064ee0       0x24 /nfs/nfs5/home/research/hardware/arm2/gcc-arm-embedded/gcc-arm-none-eabi-4_8-2014q2/bin/../lib/gcc/arm-none-eabi/4.8.4/../../../../arm-none-eabi/lib/armv7e-m/libc.a(lib_a-isattyr.o)
                0x08064ee0                _isatty_r
 *fill*         0x08064f04        0xc 
 .text._lseek_r
                0x08064f10       0x28 /nfs/nfs5/home/research/hardware/arm2/gcc-arm-embedded/gcc-arm-none-eabi-4_8-2014q2/bin/../lib/gcc/arm-none-eabi/4.8.4/../../../../arm-none-eabi/lib/armv7e-m/libc.a(lib_a-lseekr.o)
                0x08064f10                _lseek_r
 *fill*         0x08064f38        0x8 
 .text.memmove  0x08064f40       0xc0 /nfs/nfs5/home/research/hardware/arm2/gcc-arm-embedded/gcc-arm-none-eabi-4_8-2014q2/bin/../lib/gcc/arm-none-eabi/4.8.4/../../../../arm-none-eabi/lib/armv7e-m/libc.a(lib_a-memmove.o)
                0x08064f40                memmove
 .text._read_r  0x08065000       0x28 /nfs/nfs5/home/research/hardware/arm2/gcc-arm-embedded/gcc-arm-none-eabi-4_8-2014q2/bin/../lib/gcc/arm-none-eabi/4.8.4/../../../../arm-none-eabi/lib/armv7e-m/libc.a(lib_a-readr.o)
                0x08065000                _read_r
 *fill*         0x08065028        0x8 
 .text._realloc_r
                0x08065030      0x3cc /nfs/nfs5/home/research/hardware/arm2/gcc-arm-embedded/gcc-arm-none-eabi-4_8-2014q2/bin/../lib/gcc/arm-none-eabi/4.8.4/../../../../arm-none-eabi/lib/armv7e-m/libc.a(lib_a-reallocr.o)
                0x08065030                _realloc_r
 *fill*         0x080653fc        0x4 
 .text.__swbuf_r
                0x08065400       0xa8 /nfs/nfs5/home/research/hardware/arm2/gcc-arm-embedded/gcc-arm-none-eabi-4_8-2014q2/bin/../lib/gcc/arm-none-eabi/4.8.4/../../../../arm-none-eabi/lib/armv7e-m/libc.a(lib_a-wbuf.o)
                0x08065400                __swbuf_r
 *fill*         0x080654a8        0x8 
 .text.__swbuf  0x080654b0       0x10 /nfs/nfs5/home/research/hardware/arm2/gcc-arm-embedded/gcc-arm-none-eabi-4_8-2014q2/bin/../lib/gcc/arm-none-eabi/4.8.4/../../../../arm-none-eabi/lib/armv7e-m/libc.a(lib_a-wbuf.o)
                0x080654b0                __swbuf
 .text._wcrtomb_r
                0x080654c0       0x50 /nfs/nfs5/home/research/hardware/arm2/gcc-arm-embedded/gcc-arm-none-eabi-4_8-2014q2/bin/../lib/gcc/arm-none-eabi/4.8.4/../../../../arm-none-eabi/lib/armv7e-m/libc.a(lib_a-wcrtomb.o)
                0x080654c0                _wcrtomb_r
 .text.wcrtomb  0x08065510       0x58 /nfs/nfs5/home/research/hardware/arm2/gcc-arm-embedded/gcc-arm-none-eabi-4_8-2014q2/bin/../lib/gcc/arm-none-eabi/4.8.4/../../../../arm-none-eabi/lib/armv7e-m/libc.a(lib_a-wcrtomb.o)
                0x08065510                wcrtomb
 *fill*         0x08065568        0x8 
 .text.__ascii_wctomb
                0x08065570       0x1c /nfs/nfs5/home/research/hardware/arm2/gcc-arm-embedded/gcc-arm-none-eabi-4_8-2014q2/bin/../lib/gcc/arm-none-eabi/4.8.4/../../../../arm-none-eabi/lib/armv7e-m/libc.a(lib_a-wctomb_r.o)
                0x08065570                __ascii_wctomb
 *fill*         0x0806558c        0x4 
 .text._wctomb_r
                0x08065590       0x30 /nfs/nfs5/home/research/hardware/arm2/gcc-arm-embedded/gcc-arm-none-eabi-4_8-2014q2/bin/../lib/gcc/arm-none-eabi/4.8.4/../../../../arm-none-eabi/lib/armv7e-m/libc.a(lib_a-wctomb_r.o)
                0x08065590                _wctomb_r
 .text.trunc    0x080655c0       0x60 /nfs/nfs5/home/research/hardware/arm2/gcc-arm-embedded/gcc-arm-none-eabi-4_8-2014q2/bin/../lib/gcc/arm-none-eabi/4.8.4/../../../../arm-none-eabi/lib/armv7e-m/libm.a(lib_a-s_trunc.o)
                0x080655c0                trunc
 .text.log10f   0x08065620       0xd4 /nfs/nfs5/home/research/hardware/arm2/gcc-arm-embedded/gcc-arm-none-eabi-4_8-2014q2/bin/../lib/gcc/arm-none-eabi/4.8.4/../../../../arm-none-eabi/lib/armv7e-m/libm.a(lib_a-wf_log10.o)
                0x08065620                log10f
 *fill*         0x080656f4        0xc 
 .text.__ieee754_log10f
                0x08065700       0xa4 /nfs/nfs5/home/research/hardware/arm2/gcc-arm-embedded/gcc-arm-none-eabi-4_8-2014q2/bin/../lib/gcc/arm-none-eabi/4.8.4/../../../../arm-none-eabi/lib/armv7e-m/libm.a(lib_a-ef_log10.o)
                0x08065700                __ieee754_log10f
 *fill*         0x080657a4        0xc 
 .text.matherr  0x080657b0        0x4 /nfs/nfs5/home/research/hardware/arm2/gcc-arm-embedded/gcc-arm-none-eabi-4_8-2014q2/bin/../lib/gcc/arm-none-eabi/4.8.4/../../../../arm-none-eabi/lib/armv7e-m/libm.a(lib_a-s_matherr.o)
                0x080657b0                matherr
 *fill*         0x080657b4        0xc 
 .text.nan      0x080657c0        0xc /nfs/nfs5/home/research/hardware/arm2/gcc-arm-embedded/gcc-arm-none-eabi-4_8-2014q2/bin/../lib/gcc/arm-none-eabi/4.8.4/../../../../arm-none-eabi/lib/armv7e-m/libm.a(lib_a-s_nan.o)
                0x080657c0                nan
 *fill*         0x080657cc        0x4 
 .text.__fpclassifyf
                0x080657d0       0x34 /nfs/nfs5/home/research/hardware/arm2/gcc-arm-embedded/gcc-arm-none-eabi-4_8-2014q2/bin/../lib/gcc/arm-none-eabi/4.8.4/../../../../arm-none-eabi/lib/armv7e-m/libm.a(lib_a-sf_fpclassify.o)
                0x080657d0                __fpclassifyf
 *fill*         0x08065804        0xc 
 .text.__ieee754_logf
                0x08065810      0x2b8 /nfs/nfs5/home/research/hardware/arm2/gcc-arm-embedded/gcc-arm-none-eabi-4_8-2014q2/bin/../lib/gcc/arm-none-eabi/4.8.4/../../../../arm-none-eabi/lib/armv7e-m/libm.a(lib_a-ef_log.o)
                0x08065810                __ieee754_logf
 *fill*         0x08065ac8        0x8 
 .text.__errno  0x08065ad0        0xc /nfs/nfs5/home/research/hardware/arm2/gcc-arm-embedded/gcc-arm-none-eabi-4_8-2014q2/bin/../lib/gcc/arm-none-eabi/4.8.4/../../../../arm-none-eabi/lib/armv7e-m/libg.a(lib_a-errno.o)
                0x08065ad0                __errno
 *(.rodata)
 *fill*         0x08065adc        0x4 
 .rodata        0x08065ae0       0x80 build/obj/crt1.o
 .rodata        0x08065b60        0x8 build/obj/chsys.o
 *fill*         0x08065b68        0x8 
 .rodata        0x08065b70       0x18 build/obj/chregistry.o
                0x08065b70                ch_debug
 *fill*         0x08065b88        0x8 
 .rodata        0x08065b90      0x130 build/obj/mmc_spi.o
 .rodata        0x08065cc0       0x20 build/obj/serial.o
 .rodata        0x08065ce0        0xc build/obj/usb.o
 *fill*         0x08065cec        0x4 
 .rodata        0x08065cf0      0x118 build/obj/stm32_dma.o
                0x08065cf0                _stm32_dma_streams
 *fill*         0x08065e08        0x8 
 .rodata        0x08065e10       0x40 build/obj/usb_lld.o
 .rodata        0x08065e50       0x10 build/obj/spi_lld.o
 .rodata        0x08065e60       0x10 build/obj/serial_lld.o
 .rodata        0x08065e70      0x120 build/obj/board.o
                0x08065e70                pal_default_config
 .rodata        0x08065f90      0x210 build/obj/test.o
                0x08065f90                wa
 .rodata        0x080661a0       0xd4 build/obj/testthd.o
                0x080661d8                testthd1
                0x08066204                testthd2
                0x08066230                testthd3
                0x08066250                testthd4
                0x08066260                patternthd
 *fill*         0x08066274        0xc 
 .rodata        0x08066280       0xe0 build/obj/testsem.o
                0x080662b4                testsem1
                0x080662d8                testsem2
                0x08066308                testsem3
                0x0806633c                testsem4
                0x0806634c                patternsem
 .rodata        0x08066360      0x130 build/obj/testmtx.o
                0x080663a0                testmtx1
                0x080663cc                testmtx4
                0x080663ec                testmtx5
                0x08066414                testmtx6
                0x0806643c                testmtx7
                0x08066464                testmtx8
                0x08066474                patternmtx
 .rodata        0x08066490       0x2c build/obj/testmsg.o
                0x080664a4                testmsg1
                0x080664b4                patternmsg
 *fill*         0x080664bc        0x4 
 .rodata        0x080664c0       0x40 build/obj/testmbox.o
                0x080664e8                testmbox1
                0x080664f8                patternmbox
 .rodata        0x08066500       0xa8 build/obj/testevt.o
                0x08066534                testevt1
                0x08066564                testevt2
                0x08066588                testevt3
                0x08066598                patternevt
 *fill*         0x080665a8        0x8 
 .rodata        0x080665b0       0x40 build/obj/testheap.o
                0x080665d8                testheap1
                0x080665e8                patternheap
 .rodata        0x080665f0       0x34 build/obj/testpools.o
                0x0806660c                testpools1
                0x0806661c                patternpools
 *fill*         0x08066624        0xc 
 .rodata        0x08066630       0xe4 build/obj/testdyn.o
                0x0806666c                testdyn1
                0x080666bc                testdyn2
                0x080666f4                testdyn3
                0x08066704                patterndyn
 *fill*         0x08066714        0xc 
 .rodata        0x08066720       0x64 build/obj/testqueues.o
                0x08066740                testqueues1
                0x08066768                testqueues2
                0x08066778                patternqueues
 *fill*         0x08066784        0xc 
 .rodata        0x08066790       0x88 build/obj/testsys.o
                0x080667a8                testsys1
                0x080667d4                testsys2
                0x080667f8                testsys3
                0x08066808                patternsys
 *fill*         0x08066818        0x8 
 .rodata        0x08066820      0x3d0 build/obj/testbmk.o
                0x08066860                testbmk1
                0x08066888                testbmk2
                0x080668b0                testbmk3
                0x080668dc                testbmk4
                0x08066918                testbmk5
                0x08066948                testbmk6
                0x08066994                testbmk7
                0x080669d0                testbmk8
                0x08066a10                testbmk9
                0x08066a50                testbmk10
                0x08066a94                testbmk11
                0x08066ad4                testbmk12
                0x08066ba8                testbmk13
                0x08066bb8                patternbmk
 .rodata        0x08066bf0       0x10 build/obj/memstreams.o
 .rodata        0x08066c00        0x8 build/obj/chprintf.o
 *fill*         0x08066c08        0x8 
 .rodata        0x08066c10      0x238 build/obj/shell.o
 *fill*         0x08066e48        0x8 
 .rodata        0x08066e50      0x694 build/obj/sensor_service.o
 *fill*         0x080674e4        0xc 
 .rodata        0x080674f0       0x70 build/obj/HTS221_Driver.o
 .rodata        0x08067560        0x4 build/obj/LSM303AGR_ACC_driver_HL.o
 *fill*         0x08067564        0xc 
 .rodata        0x08067570       0x60 build/obj/LSM303AGR_ACC_driver.o
                0x08067570                LSM303AGR_ACC_Sensitivity_List
 .rodata        0x080675d0       0x48 build/obj/LSM6DSM_ACC_GYRO_driver.o
 *fill*         0x08067618        0x8 
 .rodata        0x08067620       0x40 build/obj/STC3115_Driver.o
 .rodata        0x08067660        0x8 build/obj/SensorTile.o
                0x08067660                GPIO_PIN
 *fill*         0x08067668        0x8 
 .rodata        0x08067670      0x150 build/obj/btle.o
 .rodata        0x080677c0       0x44 build/obj/main.o
 *(.rodata.*)
 *fill*         0x08067804        0xc 
 .rodata.zeroes.6763
                0x08067810       0x10 /nfs/nfs5/home/research/hardware/arm2/gcc-arm-embedded/gcc-arm-none-eabi-4_8-2014q2/bin/../lib/gcc/arm-none-eabi/4.8.4/../../../../arm-none-eabi/lib/armv7e-m/libc.a(lib_a-svfprintf.o)
 .rodata.str1.4
                0x08067820       0x42 /nfs/nfs5/home/research/hardware/arm2/gcc-arm-embedded/gcc-arm-none-eabi-4_8-2014q2/bin/../lib/gcc/arm-none-eabi/4.8.4/../../../../arm-none-eabi/lib/armv7e-m/libc.a(lib_a-svfprintf.o)
                                 0x44 (size before relaxing)
 *fill*         0x08067862        0xe 
 .rodata.blanks.6762
                0x08067870       0x10 /nfs/nfs5/home/research/hardware/arm2/gcc-arm-embedded/gcc-arm-none-eabi-4_8-2014q2/bin/../lib/gcc/arm-none-eabi/4.8.4/../../../../arm-none-eabi/lib/armv7e-m/libc.a(lib_a-svfprintf.o)
 .rodata.blanks.6777
                0x08067880       0x10 /nfs/nfs5/home/research/hardware/arm2/gcc-arm-embedded/gcc-arm-none-eabi-4_8-2014q2/bin/../lib/gcc/arm-none-eabi/4.8.4/../../../../arm-none-eabi/lib/armv7e-m/libc.a(lib_a-vfprintf.o)
 .rodata.str1.4
                0x00000000       0x44 /nfs/nfs5/home/research/hardware/arm2/gcc-arm-embedded/gcc-arm-none-eabi-4_8-2014q2/bin/../lib/gcc/arm-none-eabi/4.8.4/../../../../arm-none-eabi/lib/armv7e-m/libc.a(lib_a-vfprintf.o)
 .rodata.zeroes.6778
                0x08067890       0x10 /nfs/nfs5/home/research/hardware/arm2/gcc-arm-embedded/gcc-arm-none-eabi-4_8-2014q2/bin/../lib/gcc/arm-none-eabi/4.8.4/../../../../arm-none-eabi/lib/armv7e-m/libc.a(lib_a-vfprintf.o)
 .rodata._ctype_
                0x080678a0      0x104 /nfs/nfs5/home/research/hardware/arm2/gcc-arm-embedded/gcc-arm-none-eabi-4_8-2014q2/bin/../lib/gcc/arm-none-eabi/4.8.4/../../../../arm-none-eabi/lib/armv7e-m/libc.a(lib_a-ctype_.o)
                0x080678a0                _ctype_
 *fill*         0x080679a4        0xc 
 .rodata.str1.4
                0x080679b0       0x10 /nfs/nfs5/home/research/hardware/arm2/gcc-arm-embedded/gcc-arm-none-eabi-4_8-2014q2/bin/../lib/gcc/arm-none-eabi/4.8.4/../../../../arm-none-eabi/lib/armv7e-m/libc.a(lib_a-dtoa.o)
                                 0x14 (size before relaxing)
 .rodata.str1.4
                0x080679c0        0x2 /nfs/nfs5/home/research/hardware/arm2/gcc-arm-embedded/gcc-arm-none-eabi-4_8-2014q2/bin/../lib/gcc/arm-none-eabi/4.8.4/../../../../arm-none-eabi/lib/armv7e-m/libc.a(lib_a-impure.o)
                                  0x4 (size before relaxing)
 *fill*         0x080679c2        0xe 
 .rodata._global_impure_ptr
                0x080679d0        0x4 /nfs/nfs5/home/research/hardware/arm2/gcc-arm-embedded/gcc-arm-none-eabi-4_8-2014q2/bin/../lib/gcc/arm-none-eabi/4.8.4/../../../../arm-none-eabi/lib/armv7e-m/libc.a(lib_a-impure.o)
                0x080679d0                _global_impure_ptr
 *fill*         0x080679d4        0xc 
 .rodata.str1.4
                0x080679e0        0xa /nfs/nfs5/home/research/hardware/arm2/gcc-arm-embedded/gcc-arm-none-eabi-4_8-2014q2/bin/../lib/gcc/arm-none-eabi/4.8.4/../../../../arm-none-eabi/lib/armv7e-m/libc.a(lib_a-locale.o)
                                 0x14 (size before relaxing)
 *fill*         0x080679ea        0x6 
 .rodata.__mprec_tens
                0x080679f0       0xc8 /nfs/nfs5/home/research/hardware/arm2/gcc-arm-embedded/gcc-arm-none-eabi-4_8-2014q2/bin/../lib/gcc/arm-none-eabi/4.8.4/../../../../arm-none-eabi/lib/armv7e-m/libc.a(lib_a-mprec.o)
                0x080679f0                __mprec_tens
 *fill*         0x08067ab8        0x8 
 .rodata.__mprec_bigtens
                0x08067ac0       0x28 /nfs/nfs5/home/research/hardware/arm2/gcc-arm-embedded/gcc-arm-none-eabi-4_8-2014q2/bin/../lib/gcc/arm-none-eabi/4.8.4/../../../../arm-none-eabi/lib/armv7e-m/libc.a(lib_a-mprec.o)
                0x08067ac0                __mprec_bigtens
 *fill*         0x08067ae8        0x8 
 .rodata.__mprec_tinytens
                0x08067af0       0x28 /nfs/nfs5/home/research/hardware/arm2/gcc-arm-embedded/gcc-arm-none-eabi-4_8-2014q2/bin/../lib/gcc/arm-none-eabi/4.8.4/../../../../arm-none-eabi/lib/armv7e-m/libc.a(lib_a-mprec.o)
                0x08067af0                __mprec_tinytens
 *fill*         0x08067b18        0x8 
 .rodata.p05.5269
                0x08067b20        0xc /nfs/nfs5/home/research/hardware/arm2/gcc-arm-embedded/gcc-arm-none-eabi-4_8-2014q2/bin/../lib/gcc/arm-none-eabi/4.8.4/../../../../arm-none-eabi/lib/armv7e-m/libc.a(lib_a-mprec.o)
 *fill*         0x08067b2c        0x4 
 .rodata.zeroes.6707
                0x08067b30       0x10 /nfs/nfs5/home/research/hardware/arm2/gcc-arm-embedded/gcc-arm-none-eabi-4_8-2014q2/bin/../lib/gcc/arm-none-eabi/4.8.4/../../../../arm-none-eabi/lib/armv7e-m/libc.a(lib_a-svfiprintf.o)
 .rodata.str1.4
                0x00000000       0x30 /nfs/nfs5/home/research/hardware/arm2/gcc-arm-embedded/gcc-arm-none-eabi-4_8-2014q2/bin/../lib/gcc/arm-none-eabi/4.8.4/../../../../arm-none-eabi/lib/armv7e-m/libc.a(lib_a-svfiprintf.o)
 .rodata.blanks.6706
                0x08067b40       0x10 /nfs/nfs5/home/research/hardware/arm2/gcc-arm-embedded/gcc-arm-none-eabi-4_8-2014q2/bin/../lib/gcc/arm-none-eabi/4.8.4/../../../../arm-none-eabi/lib/armv7e-m/libc.a(lib_a-svfiprintf.o)
 .rodata.str1.4
                0x00000000       0x30 /nfs/nfs5/home/research/hardware/arm2/gcc-arm-embedded/gcc-arm-none-eabi-4_8-2014q2/bin/../lib/gcc/arm-none-eabi/4.8.4/../../../../arm-none-eabi/lib/armv7e-m/libc.a(lib_a-vfiprintf.o)
 .rodata.zeroes.6721
                0x08067b50       0x10 /nfs/nfs5/home/research/hardware/arm2/gcc-arm-embedded/gcc-arm-none-eabi-4_8-2014q2/bin/../lib/gcc/arm-none-eabi/4.8.4/../../../../arm-none-eabi/lib/armv7e-m/libc.a(lib_a-vfiprintf.o)
 .rodata.blanks.6720
                0x08067b60       0x10 /nfs/nfs5/home/research/hardware/arm2/gcc-arm-embedded/gcc-arm-none-eabi-4_8-2014q2/bin/../lib/gcc/arm-none-eabi/4.8.4/../../../../arm-none-eabi/lib/armv7e-m/libc.a(lib_a-vfiprintf.o)
 .rodata.str1.4
                0x08067b70        0x8 /nfs/nfs5/home/research/hardware/arm2/gcc-arm-embedded/gcc-arm-none-eabi-4_8-2014q2/bin/../lib/gcc/arm-none-eabi/4.8.4/../../../../arm-none-eabi/lib/armv7e-m/libm.a(lib_a-wf_log10.o)
                                  0xc (size before relaxing)
 *(.glue_7t)
 .glue_7t       0x00000000        0x0 linker stubs
 *(.glue_7)
 .glue_7        0x00000000        0x0 linker stubs
 *(.gcc*)

.vfp11_veneer   0x08067b78        0x0
 .vfp11_veneer  0x00000000        0x0 linker stubs

.v4_bx          0x08067b78        0x0
 .v4_bx         0x00000000        0x0 linker stubs

.iplt           0x08067b78        0x0
 .iplt          0x00000000        0x0 build/obj/crt0_v7m.o

.ARM.extab      0x08067b78        0x0
 *(.ARM.extab* .gnu.linkonce.armextab.*)
 .ARM.extab     0x08067b78        0x0 /nfs/nfs5/home/research/hardware/arm2/gcc-arm-embedded/gcc-arm-none-eabi-4_8-2014q2/bin/../lib/gcc/arm-none-eabi/4.8.4/armv7e-m/libgcc.a(_divdi3.o)
 .ARM.extab     0x08067b78        0x0 /nfs/nfs5/home/research/hardware/arm2/gcc-arm-embedded/gcc-arm-none-eabi-4_8-2014q2/bin/../lib/gcc/arm-none-eabi/4.8.4/armv7e-m/libgcc.a(_udivdi3.o)

.ARM.exidx      0x08067b78        0x8
                0x08067b78                __exidx_start = .
 *(.ARM.exidx* .gnu.linkonce.armexidx.*)
 .ARM.exidx     0x08067b78        0x8 /nfs/nfs5/home/research/hardware/arm2/gcc-arm-embedded/gcc-arm-none-eabi-4_8-2014q2/bin/../lib/gcc/arm-none-eabi/4.8.4/armv7e-m/libgcc.a(_divdi3.o)
 .ARM.exidx     0x08067b80        0x0 /nfs/nfs5/home/research/hardware/arm2/gcc-arm-embedded/gcc-arm-none-eabi-4_8-2014q2/bin/../lib/gcc/arm-none-eabi/4.8.4/armv7e-m/libgcc.a(_udivdi3.o)
                                  0x8 (size before relaxing)
                0x08067b80                __exidx_end = .

.rel.dyn        0x08067b80        0x0
 .rel.iplt      0x00000000        0x0 build/obj/crt0_v7m.o

.eh_frame_hdr
 *(.eh_frame_hdr)

.eh_frame
 *(.eh_frame)

.textalign      0x08067b80        0x0
                0x08067b80                . = ALIGN (0x8)
                0x08067b80                . = ALIGN (0x4)
                0x08067b80                PROVIDE (_etext, .)

.mstack         0x20000000      0x400
                0x20000000                . = ALIGN (0x8)
                0x20000000                __main_stack_base__ = .
                0x20000400                . = (. + __main_stack_size__)
 *fill*         0x20000000      0x400 
                0x20000400                . = ALIGN (0x8)
                0x20000400                __main_stack_end__ = .

.pstack         0x20000400      0x400
                0x20000400                __process_stack_base__ = .
                0x20000400                __main_thread_stack_base__ = .
                0x20000800                . = (. + __process_stack_size__)
 *fill*         0x20000400      0x400 
                0x20000800                . = ALIGN (0x8)
                0x20000800                __process_stack_end__ = .
                0x20000800                __main_thread_stack_end__ = .

.data           0x20000800     0x1158 load address 0x08067b80
                0x20000800                . = ALIGN (0x4)
                0x08067b80                PROVIDE (_textdata, LOADADDR (.data))
                0x20000800                PROVIDE (_data, .)
                0x08067b80                _textdata_start = LOADADDR (.data)
                0x20000800                _data_start = .
 *(.data)
 .data          0x20000800        0x0 build/obj/crt0_v7m.o
 .data          0x20000800        0x0 build/obj/chcoreasm_v7m.o
 .data          0x20000800        0x0 build/obj/crt1.o
 .data          0x20000800        0x0 build/obj/vectors.o
 .data          0x20000800        0x0 build/obj/chsys.o
 .data          0x20000800        0x0 build/obj/chdebug.o
 .data          0x20000800        0x0 build/obj/chvt.o
 .data          0x20000800        0x0 build/obj/chschd.o
 .data          0x20000800        0x0 build/obj/chthreads.o
 .data          0x20000800        0x0 build/obj/chtm.o
 .data          0x20000800        0x0 build/obj/chdynamic.o
 .data          0x20000800        0x0 build/obj/chregistry.o
 .data          0x20000800        0x0 build/obj/chsem.o
 .data          0x20000800        0x0 build/obj/chmtx.o
 .data          0x20000800        0x0 build/obj/chcond.o
 .data          0x20000800        0x0 build/obj/chevents.o
 .data          0x20000800        0x0 build/obj/chmsg.o
 .data          0x20000800        0x0 build/obj/chmboxes.o
 .data          0x20000800        0x0 build/obj/chqueues.o
 .data          0x20000800        0x0 build/obj/chmemcore.o
 .data          0x20000800        0x0 build/obj/chheap.o
 .data          0x20000800        0x0 build/obj/chmempools.o
 .data          0x20000800        0x0 build/obj/chcore.o
 .data          0x20000800        0x0 build/obj/chcore_v7m.o
 .data          0x20000800        0x0 build/obj/osal.o
 .data          0x20000800        0x0 build/obj/hal.o
 .data          0x20000800        0x0 build/obj/st.o
 .data          0x20000800        0x0 build/obj/hal_buffers.o
 .data          0x20000800        0x0 build/obj/hal_queues.o
 .data          0x20000800        0x0 build/obj/hal_mmcsd.o
 .data          0x20000800        0x0 build/obj/mmc_spi.o
 .data          0x20000800        0x0 build/obj/pal.o
 .data          0x20000800        0x0 build/obj/serial.o
 .data          0x20000800        0x0 build/obj/spi.o
 .data          0x20000800        0x0 build/obj/usb.o
 .data          0x20000800        0x0 build/obj/nvic.o
 .data          0x20000800        0x4 build/obj/hal_lld.o
                0x20000800                SystemCoreClock
 .data          0x20000804        0x0 build/obj/stm32_dma.o
 .data          0x20000804        0x0 build/obj/st_lld.o
 .data          0x20000804        0x0 build/obj/pal_lld.o
 .data          0x20000804        0x0 build/obj/usb_lld.o
 .data          0x20000804        0x0 build/obj/spi_lld.o
 .data          0x20000804        0x0 build/obj/serial_lld.o
 .data          0x20000804        0x0 build/obj/board.o
 .data          0x20000804       0x34 build/obj/test.o
 .data          0x20000838        0x0 build/obj/testthd.o
 .data          0x20000838        0xc build/obj/testsem.o
 .data          0x20000844       0x28 build/obj/testmtx.o
 .data          0x2000086c        0x0 build/obj/testmsg.o
 .data          0x2000086c       0x28 build/obj/testmbox.o
 .data          0x20000894        0x8 build/obj/testevt.o
 .data          0x2000089c        0x0 build/obj/testheap.o
 .data          0x2000089c        0xc build/obj/testpools.o
 .data          0x200008a8        0x0 build/obj/testdyn.o
 .data          0x200008a8       0x48 build/obj/testqueues.o
 .data          0x200008f0        0x0 build/obj/testsys.o
 .data          0x200008f0        0x0 build/obj/testbmk.o
 .data          0x200008f0        0x0 build/obj/evtimer.o
 .data          0x200008f0        0x0 build/obj/memstreams.o
 .data          0x200008f0        0x0 build/obj/chprintf.o
 .data          0x200008f0        0x0 build/obj/shell.o
 .data          0x200008f0        0x0 build/obj/AudioBV_Manager.o
 .data          0x200008f0        0x0 build/obj/MotionCP_Manager.o
 .data          0x200008f0        0x0 build/obj/MotionGR_Manager.o
 .data          0x200008f0        0x0 build/obj/HWAdvanceFeatures.o
 .data          0x200008f0        0x0 build/obj/MotionAR_Manager.o
 .data          0x200008f0        0x0 build/obj/stm32l4xx_hal_msp.o
 .data          0x200008f0        0x4 build/obj/OTA.o
 .data          0x200008f4        0x0 build/obj/TargetPlatform.o
 .data          0x200008f4        0x0 build/obj/usbd_conf.o
 .data          0x200008f4        0x8 build/obj/sensor_service.o
                0x200008f4                set_connectable
 .data          0x200008fc       0x68 build/obj/HTS221_Driver_HL.o
                0x200008fc                HTS221_H_Drv
                0x20000930                HTS221_T_Drv
 .data          0x20000964        0x0 build/obj/usbd_cdc_interface.o
 .data          0x20000964        0x0 build/obj/HTS221_Driver.o
 .data          0x20000964       0xe0 build/obj/LPS22HB_Driver_HL.o
                0x20000964                LPS22HB_P_Drv
                0x20000998                LPS22HB_T_Drv
                0x200009cc                LPS22HB_P_ExtDrv
                0x20000a08                LPS22HB_T_ExtDrv
 .data          0x20000a44        0x0 build/obj/LPS22HB_Driver.o
 .data          0x20000a44       0x48 build/obj/LSM303AGR_MAG_driver_HL.o
                0x20000a44                LSM303AGR_M_Drv
 .data          0x20000a8c       0x50 build/obj/LSM303AGR_ACC_driver_HL.o
                0x20000a8c                LSM303AGR_X_Drv
 .data          0x20000adc        0x0 build/obj/LSM303AGR_MAG_driver.o
 .data          0x20000adc        0x0 build/obj/LSM303AGR_ACC_driver.o
 .data          0x20000adc        0x0 build/obj/LSM6DSM_ACC_GYRO_driver.o
 .data          0x20000adc      0x134 build/obj/LSM6DSM_ACC_GYRO_driver_HL.o
                0x20000adc                LSM6DSM_X_ExtDrv
                0x20000b70                LSM6DSM_X_Drv
                0x20000bc0                LSM6DSM_G_Drv
 .data          0x20000c10       0x5c build/obj/STC3115_Driver.o
                0x20000c10                STC3115_Drv
 .data          0x20000c6c       0x10 build/obj/SensorTile.o
                0x20000c70                GPIO_PORT
                0x20000c78                SpixTimeout
 .data          0x20000c7c        0x0 build/obj/SensorTile_BlueNRG.o
 .data          0x20000c7c        0x0 build/obj/SensorTile_accelero.o
 .data          0x20000c7c        0x2 build/obj/SensorTile_audio_in.o
 .data          0x20000c7e        0x0 build/obj/SensorTile_gg.o
 .data          0x20000c7e        0x0 build/obj/SensorTile_gyro.o
 .data          0x20000c7e        0x0 build/obj/SensorTile_humidity.o
 .data          0x20000c7e        0x0 build/obj/SensorTile_magneto.o
 .data          0x20000c7e        0x0 build/obj/SensorTile_pressure.o
 .data          0x20000c7e        0x0 build/obj/SensorTile_temperature.o
 .data          0x20000c7e        0x0 build/obj/stm32l4xx_hal.o
 .data          0x20000c7e        0x0 build/obj/stm32l4xx_hal_adc.o
 .data          0x20000c7e        0x0 build/obj/stm32l4xx_hal_cortex.o
 .data          0x20000c7e        0x0 build/obj/stm32l4xx_hal_crc.o
 .data          0x20000c7e        0x0 build/obj/stm32l4xx_hal_crc_ex.o
 .data          0x20000c7e        0x0 build/obj/stm32l4xx_hal_dfsdm.o
 .data          0x20000c7e        0x0 build/obj/stm32l4xx_hal_dma.o
 .data          0x20000c7e        0x0 build/obj/stm32l4xx_hal_flash.o
 .data          0x20000c7e        0x0 build/obj/stm32l4xx_hal_flash_ex.o
 .data          0x20000c7e        0x0 build/obj/stm32l4xx_hal_gpio.o
 .data          0x20000c7e        0x0 build/obj/stm32l4xx_hal_i2c.o
 .data          0x20000c7e        0x0 build/obj/stm32l4xx_hal_i2c_ex.o
 .data          0x20000c7e        0x0 build/obj/stm32l4xx_hal_pcd.o
 .data          0x20000c7e        0x0 build/obj/stm32l4xx_hal_pcd_ex.o
 .data          0x20000c7e        0x0 build/obj/stm32l4xx_hal_pwr.o
 .data          0x20000c7e        0x0 build/obj/stm32l4xx_hal_pwr_ex.o
 .data          0x20000c7e        0x0 build/obj/stm32l4xx_hal_rcc.o
 .data          0x20000c7e        0x0 build/obj/stm32l4xx_hal_rcc_ex.o
 .data          0x20000c7e        0x0 build/obj/stm32l4xx_hal_rtc.o
 .data          0x20000c7e        0x0 build/obj/stm32l4xx_hal_rtc_ex.o
 .data          0x20000c7e        0x0 build/obj/stm32l4xx_hal_spi.o
 .data          0x20000c7e        0x0 build/obj/stm32l4xx_hal_spi_ex.o
 .data          0x20000c7e        0x0 build/obj/stm32l4xx_hal_tim.o
 .data          0x20000c7e        0x0 build/obj/stm32l4xx_hal_tim_ex.o
 .data          0x20000c7e        0x0 build/obj/stm32l4xx_hal_uart.o
 .data          0x20000c7e        0x0 build/obj/stm32l4xx_hal_uart_ex.o
 .data          0x20000c7e        0x0 build/obj/stm32l4xx_ll_usb.o
 .data          0x20000c7e        0x0 build/obj/bluenrg_itf_template.o
 .data          0x20000c7e        0x0 build/obj/bluenrg_gap_aci.o
 .data          0x20000c7e        0x0 build/obj/bluenrg_gatt_aci.o
 .data          0x20000c7e        0x0 build/obj/bluenrg_hal_aci.o
 .data          0x20000c7e        0x0 build/obj/bluenrg_l2cap_aci.o
 .data          0x20000c7e        0x0 build/obj/bluenrg_updater_aci.o
 .data          0x20000c7e        0x0 build/obj/bluenrg_utils.o
 .data          0x20000c7e        0x0 build/obj/hci.o
 .data          0x20000c7e        0x0 build/obj/ble_list.o
 .data          0x20000c7e        0x0 build/obj/gp_timer.o
 *fill*         0x20000c7e        0x2 
 .data          0x20000c80      0x1f0 build/obj/MetaDataManager.o
                0x20000c88                MDM_LicTable
                0x20000dc8                MDM_GMDTable
 .data          0x20000e70      0x110 build/obj/usbd_cdc.o
                0x20000e7c                USBD_CDC
                0x20000eb4                USBD_CDC_CfgHSDesc
                0x20000ef8                USBD_CDC_CfgFSDesc
                0x20000f3c                USBD_CDC_OtherSpeedCfgDesc
 .data          0x20000f80        0x0 build/obj/usbd_core.o
 .data          0x20000f80        0x0 build/obj/usbd_ctlreq.o
 .data          0x20000f80        0x0 build/obj/usbd_ioreq.o
 .data          0x20000f80        0x0 build/obj/MotionFX_Manager.o
 .data          0x20000f80        0x0 build/obj/usbd_desc.o
 .data          0x20000f80      0x114 build/obj/btle.o
                0x20000f80                uhCCR4_Val
                0x20000f84                known_OsxLic
 .data          0x20001094        0x0 build/obj/main.o
 .data          0x20001094        0x0 /nfs/nfs5/home/research/hardware/arm2/gcc-arm-embedded/gcc-arm-none-eabi-4_8-2014q2/bin/../lib/gcc/arm-none-eabi/4.8.4/../../../../arm-none-eabi/lib/armv7e-m/libc.a(lib_a-atoi.o)
 .data          0x20001094        0x0 /nfs/nfs5/home/research/hardware/arm2/gcc-arm-embedded/gcc-arm-none-eabi-4_8-2014q2/bin/../lib/gcc/arm-none-eabi/4.8.4/../../../../arm-none-eabi/lib/armv7e-m/libc.a(lib_a-malloc.o)
 .data          0x20001094        0x0 /nfs/nfs5/home/research/hardware/arm2/gcc-arm-embedded/gcc-arm-none-eabi-4_8-2014q2/bin/../lib/gcc/arm-none-eabi/4.8.4/../../../../arm-none-eabi/lib/armv7e-m/libc.a(lib_a-mallocr.o)
 .data          0x20001094        0x0 /nfs/nfs5/home/research/hardware/arm2/gcc-arm-embedded/gcc-arm-none-eabi-4_8-2014q2/bin/../lib/gcc/arm-none-eabi/4.8.4/../../../../arm-none-eabi/lib/armv7e-m/libc.a(lib_a-memcmp.o)
 .data          0x20001094        0x0 /nfs/nfs5/home/research/hardware/arm2/gcc-arm-embedded/gcc-arm-none-eabi-4_8-2014q2/bin/../lib/gcc/arm-none-eabi/4.8.4/../../../../arm-none-eabi/lib/armv7e-m/libc.a(lib_a-memcpy.o)
 .data          0x20001094        0x0 /nfs/nfs5/home/research/hardware/arm2/gcc-arm-embedded/gcc-arm-none-eabi-4_8-2014q2/bin/../lib/gcc/arm-none-eabi/4.8.4/../../../../arm-none-eabi/lib/armv7e-m/libc.a(lib_a-memset.o)
 .data          0x20001094        0x0 /nfs/nfs5/home/research/hardware/arm2/gcc-arm-embedded/gcc-arm-none-eabi-4_8-2014q2/bin/../lib/gcc/arm-none-eabi/4.8.4/../../../../arm-none-eabi/lib/armv7e-m/libc.a(lib_a-mlock.o)
 .data          0x20001094        0x0 /nfs/nfs5/home/research/hardware/arm2/gcc-arm-embedded/gcc-arm-none-eabi-4_8-2014q2/bin/../lib/gcc/arm-none-eabi/4.8.4/../../../../arm-none-eabi/lib/armv7e-m/libc.a(lib_a-printf.o)
 .data          0x20001094        0x0 /nfs/nfs5/home/research/hardware/arm2/gcc-arm-embedded/gcc-arm-none-eabi-4_8-2014q2/bin/../lib/gcc/arm-none-eabi/4.8.4/../../../../arm-none-eabi/lib/armv7e-m/libc.a(lib_a-sbrkr.o)
 .data          0x20001094        0x0 /nfs/nfs5/home/research/hardware/arm2/gcc-arm-embedded/gcc-arm-none-eabi-4_8-2014q2/bin/../lib/gcc/arm-none-eabi/4.8.4/../../../../arm-none-eabi/lib/armv7e-m/libc.a(lib_a-sprintf.o)
 .data          0x20001094        0x0 /nfs/nfs5/home/research/hardware/arm2/gcc-arm-embedded/gcc-arm-none-eabi-4_8-2014q2/bin/../lib/gcc/arm-none-eabi/4.8.4/../../../../arm-none-eabi/lib/armv7e-m/libc.a(lib_a-strcmp.o)
 .data          0x20001094        0x0 /nfs/nfs5/home/research/hardware/arm2/gcc-arm-embedded/gcc-arm-none-eabi-4_8-2014q2/bin/../lib/gcc/arm-none-eabi/4.8.4/../../../../arm-none-eabi/lib/armv7e-m/libc.a(lib_a-strncmp.o)
 .data          0x20001094        0x0 /nfs/nfs5/home/research/hardware/arm2/gcc-arm-embedded/gcc-arm-none-eabi-4_8-2014q2/bin/../lib/gcc/arm-none-eabi/4.8.4/../../../../arm-none-eabi/lib/armv7e-m/libc.a(lib_a-strpbrk.o)
 .data          0x20001094        0x0 /nfs/nfs5/home/research/hardware/arm2/gcc-arm-embedded/gcc-arm-none-eabi-4_8-2014q2/bin/../lib/gcc/arm-none-eabi/4.8.4/../../../../arm-none-eabi/lib/armv7e-m/libc.a(lib_a-strspn.o)
 .data          0x20001094        0x0 /nfs/nfs5/home/research/hardware/arm2/gcc-arm-embedded/gcc-arm-none-eabi-4_8-2014q2/bin/../lib/gcc/arm-none-eabi/4.8.4/../../../../arm-none-eabi/lib/armv7e-m/libc.a(lib_a-strtol.o)
 .data          0x20001094        0x0 /nfs/nfs5/home/research/hardware/arm2/gcc-arm-embedded/gcc-arm-none-eabi-4_8-2014q2/bin/../lib/gcc/arm-none-eabi/4.8.4/../../../../arm-none-eabi/lib/armv7e-m/libc.a(lib_a-svfprintf.o)
 .data          0x20001094        0x0 /nfs/nfs5/home/research/hardware/arm2/gcc-arm-embedded/gcc-arm-none-eabi-4_8-2014q2/bin/../lib/gcc/arm-none-eabi/4.8.4/../../../../arm-none-eabi/lib/armv7e-m/libc.a(lib_a-vfprintf.o)
 .data          0x20001094        0x0 /nfs/nfs5/home/research/hardware/arm2/gcc-arm-embedded/gcc-arm-none-eabi-4_8-2014q2/bin/../lib/gcc/arm-none-eabi/4.8.4/../../../../arm-none-eabi/lib/armv7e-m/libc.a(lib_a-wsetup.o)
 .data          0x20001094        0x0 /nfs/nfs5/home/research/hardware/arm2/gcc-arm-embedded/gcc-arm-none-eabi-4_8-2014q2/bin/../lib/gcc/arm-none-eabi/4.8.4/../../../../arm-none-eabi/lib/armv7e-m/libc.a(lib_a-ctype_.o)
 .data          0x20001094        0x0 /nfs/nfs5/home/research/hardware/arm2/gcc-arm-embedded/gcc-arm-none-eabi-4_8-2014q2/bin/../lib/gcc/arm-none-eabi/4.8.4/../../../../arm-none-eabi/lib/armv7e-m/libc.a(lib_a-dtoa.o)
 .data          0x20001094        0x0 /nfs/nfs5/home/research/hardware/arm2/gcc-arm-embedded/gcc-arm-none-eabi-4_8-2014q2/bin/../lib/gcc/arm-none-eabi/4.8.4/../../../../arm-none-eabi/lib/armv7e-m/libc.a(lib_a-fflush.o)
 .data          0x20001094        0x0 /nfs/nfs5/home/research/hardware/arm2/gcc-arm-embedded/gcc-arm-none-eabi-4_8-2014q2/bin/../lib/gcc/arm-none-eabi/4.8.4/../../../../arm-none-eabi/lib/armv7e-m/libc.a(lib_a-findfp.o)
 .data          0x20001094        0x0 /nfs/nfs5/home/research/hardware/arm2/gcc-arm-embedded/gcc-arm-none-eabi-4_8-2014q2/bin/../lib/gcc/arm-none-eabi/4.8.4/../../../../arm-none-eabi/lib/armv7e-m/libc.a(lib_a-freer.o)
 .data          0x20001094        0x0 /nfs/nfs5/home/research/hardware/arm2/gcc-arm-embedded/gcc-arm-none-eabi-4_8-2014q2/bin/../lib/gcc/arm-none-eabi/4.8.4/../../../../arm-none-eabi/lib/armv7e-m/libc.a(lib_a-fwalk.o)
 .data          0x20001094        0x0 /nfs/nfs5/home/research/hardware/arm2/gcc-arm-embedded/gcc-arm-none-eabi-4_8-2014q2/bin/../lib/gcc/arm-none-eabi/4.8.4/../../../../arm-none-eabi/lib/armv7e-m/libc.a(lib_a-impure.o)
 .data          0x20001094        0x0 /nfs/nfs5/home/research/hardware/arm2/gcc-arm-embedded/gcc-arm-none-eabi-4_8-2014q2/bin/../lib/gcc/arm-none-eabi/4.8.4/../../../../arm-none-eabi/lib/armv7e-m/libc.a(lib_a-locale.o)
 .data          0x20001094        0x0 /nfs/nfs5/home/research/hardware/arm2/gcc-arm-embedded/gcc-arm-none-eabi-4_8-2014q2/bin/../lib/gcc/arm-none-eabi/4.8.4/../../../../arm-none-eabi/lib/armv7e-m/libc.a(lib_a-makebuf.o)
 .data          0x20001094        0x0 /nfs/nfs5/home/research/hardware/arm2/gcc-arm-embedded/gcc-arm-none-eabi-4_8-2014q2/bin/../lib/gcc/arm-none-eabi/4.8.4/../../../../arm-none-eabi/lib/armv7e-m/libc.a(lib_a-memchr-stub.o)
 .data          0x20001094        0x0 /nfs/nfs5/home/research/hardware/arm2/gcc-arm-embedded/gcc-arm-none-eabi-4_8-2014q2/bin/../lib/gcc/arm-none-eabi/4.8.4/../../../../arm-none-eabi/lib/armv7e-m/libc.a(lib_a-mprec.o)
 .data          0x20001094        0x0 /nfs/nfs5/home/research/hardware/arm2/gcc-arm-embedded/gcc-arm-none-eabi-4_8-2014q2/bin/../lib/gcc/arm-none-eabi/4.8.4/../../../../arm-none-eabi/lib/armv7e-m/libc.a(lib_a-reent.o)
 .data          0x20001094        0x0 /nfs/nfs5/home/research/hardware/arm2/gcc-arm-embedded/gcc-arm-none-eabi-4_8-2014q2/bin/../lib/gcc/arm-none-eabi/4.8.4/../../../../arm-none-eabi/lib/armv7e-m/libc.a(lib_a-s_fpclassify.o)
 .data          0x20001094        0x0 /nfs/nfs5/home/research/hardware/arm2/gcc-arm-embedded/gcc-arm-none-eabi-4_8-2014q2/bin/../lib/gcc/arm-none-eabi/4.8.4/../../../../arm-none-eabi/lib/armv7e-m/libc.a(lib_a-stdio.o)
 .data          0x20001094        0x0 /nfs/nfs5/home/research/hardware/arm2/gcc-arm-embedded/gcc-arm-none-eabi-4_8-2014q2/bin/../lib/gcc/arm-none-eabi/4.8.4/../../../../arm-none-eabi/lib/armv7e-m/libc.a(lib_a-strlen.o)
 .data          0x20001094        0x0 /nfs/nfs5/home/research/hardware/arm2/gcc-arm-embedded/gcc-arm-none-eabi-4_8-2014q2/bin/../lib/gcc/arm-none-eabi/4.8.4/../../../../arm-none-eabi/lib/armv7e-m/libc.a(lib_a-svfiprintf.o)
 .data          0x20001094        0x0 /nfs/nfs5/home/research/hardware/arm2/gcc-arm-embedded/gcc-arm-none-eabi-4_8-2014q2/bin/../lib/gcc/arm-none-eabi/4.8.4/../../../../arm-none-eabi/lib/armv7e-m/libc.a(lib_a-vfiprintf.o)
 .data          0x20001094        0x0 /nfs/nfs5/home/research/hardware/arm2/gcc-arm-embedded/gcc-arm-none-eabi-4_8-2014q2/bin/../lib/gcc/arm-none-eabi/4.8.4/../../../../arm-none-eabi/lib/armv7e-m/libc.a(lib_a-writer.o)
 .data          0x20001094        0x0 /nfs/nfs5/home/research/hardware/arm2/gcc-arm-embedded/gcc-arm-none-eabi-4_8-2014q2/bin/../lib/gcc/arm-none-eabi/4.8.4/../../../../arm-none-eabi/lib/armv7e-m/libc.a(lib_a-callocr.o)
 .data          0x20001094        0x0 /nfs/nfs5/home/research/hardware/arm2/gcc-arm-embedded/gcc-arm-none-eabi-4_8-2014q2/bin/../lib/gcc/arm-none-eabi/4.8.4/../../../../arm-none-eabi/lib/armv7e-m/libc.a(lib_a-closer.o)
 .data          0x20001094        0x0 /nfs/nfs5/home/research/hardware/arm2/gcc-arm-embedded/gcc-arm-none-eabi-4_8-2014q2/bin/../lib/gcc/arm-none-eabi/4.8.4/../../../../arm-none-eabi/lib/armv7e-m/libc.a(lib_a-fclose.o)
 .data          0x20001094        0x0 /nfs/nfs5/home/research/hardware/arm2/gcc-arm-embedded/gcc-arm-none-eabi-4_8-2014q2/bin/../lib/gcc/arm-none-eabi/4.8.4/../../../../arm-none-eabi/lib/armv7e-m/libc.a(lib_a-fputwc.o)
 .data          0x20001094        0x0 /nfs/nfs5/home/research/hardware/arm2/gcc-arm-embedded/gcc-arm-none-eabi-4_8-2014q2/bin/../lib/gcc/arm-none-eabi/4.8.4/../../../../arm-none-eabi/lib/armv7e-m/libc.a(lib_a-fstatr.o)
 .data          0x20001094        0x0 /nfs/nfs5/home/research/hardware/arm2/gcc-arm-embedded/gcc-arm-none-eabi-4_8-2014q2/bin/../lib/gcc/arm-none-eabi/4.8.4/../../../../arm-none-eabi/lib/armv7e-m/libc.a(lib_a-fvwrite.o)
 .data          0x20001094        0x0 /nfs/nfs5/home/research/hardware/arm2/gcc-arm-embedded/gcc-arm-none-eabi-4_8-2014q2/bin/../lib/gcc/arm-none-eabi/4.8.4/../../../../arm-none-eabi/lib/armv7e-m/libc.a(lib_a-isattyr.o)
 .data          0x20001094        0x0 /nfs/nfs5/home/research/hardware/arm2/gcc-arm-embedded/gcc-arm-none-eabi-4_8-2014q2/bin/../lib/gcc/arm-none-eabi/4.8.4/../../../../arm-none-eabi/lib/armv7e-m/libc.a(lib_a-lseekr.o)
 .data          0x20001094        0x0 /nfs/nfs5/home/research/hardware/arm2/gcc-arm-embedded/gcc-arm-none-eabi-4_8-2014q2/bin/../lib/gcc/arm-none-eabi/4.8.4/../../../../arm-none-eabi/lib/armv7e-m/libc.a(lib_a-memmove.o)
 .data          0x20001094        0x0 /nfs/nfs5/home/research/hardware/arm2/gcc-arm-embedded/gcc-arm-none-eabi-4_8-2014q2/bin/../lib/gcc/arm-none-eabi/4.8.4/../../../../arm-none-eabi/lib/armv7e-m/libc.a(lib_a-readr.o)
 .data          0x20001094        0x0 /nfs/nfs5/home/research/hardware/arm2/gcc-arm-embedded/gcc-arm-none-eabi-4_8-2014q2/bin/../lib/gcc/arm-none-eabi/4.8.4/../../../../arm-none-eabi/lib/armv7e-m/libc.a(lib_a-reallocr.o)
 .data          0x20001094        0x0 /nfs/nfs5/home/research/hardware/arm2/gcc-arm-embedded/gcc-arm-none-eabi-4_8-2014q2/bin/../lib/gcc/arm-none-eabi/4.8.4/../../../../arm-none-eabi/lib/armv7e-m/libc.a(lib_a-wbuf.o)
 .data          0x20001094        0x0 /nfs/nfs5/home/research/hardware/arm2/gcc-arm-embedded/gcc-arm-none-eabi-4_8-2014q2/bin/../lib/gcc/arm-none-eabi/4.8.4/../../../../arm-none-eabi/lib/armv7e-m/libc.a(lib_a-wcrtomb.o)
 .data          0x20001094        0x0 /nfs/nfs5/home/research/hardware/arm2/gcc-arm-embedded/gcc-arm-none-eabi-4_8-2014q2/bin/../lib/gcc/arm-none-eabi/4.8.4/../../../../arm-none-eabi/lib/armv7e-m/libc.a(lib_a-wctomb_r.o)
 .data          0x20001094        0x0 /nfs/nfs5/home/research/hardware/arm2/gcc-arm-embedded/gcc-arm-none-eabi-4_8-2014q2/bin/../lib/gcc/arm-none-eabi/4.8.4/../../../../arm-none-eabi/lib/armv7e-m/libm.a(lib_a-s_trunc.o)
 .data          0x20001094        0x0 /nfs/nfs5/home/research/hardware/arm2/gcc-arm-embedded/gcc-arm-none-eabi-4_8-2014q2/bin/../lib/gcc/arm-none-eabi/4.8.4/../../../../arm-none-eabi/lib/armv7e-m/libm.a(lib_a-wf_log10.o)
 .data          0x20001094        0x0 /nfs/nfs5/home/research/hardware/arm2/gcc-arm-embedded/gcc-arm-none-eabi-4_8-2014q2/bin/../lib/gcc/arm-none-eabi/4.8.4/../../../../arm-none-eabi/lib/armv7e-m/libm.a(lib_a-ef_log10.o)
 .data          0x20001094        0x0 /nfs/nfs5/home/research/hardware/arm2/gcc-arm-embedded/gcc-arm-none-eabi-4_8-2014q2/bin/../lib/gcc/arm-none-eabi/4.8.4/../../../../arm-none-eabi/lib/armv7e-m/libm.a(lib_a-s_lib_ver.o)
 .data          0x20001094        0x0 /nfs/nfs5/home/research/hardware/arm2/gcc-arm-embedded/gcc-arm-none-eabi-4_8-2014q2/bin/../lib/gcc/arm-none-eabi/4.8.4/../../../../arm-none-eabi/lib/armv7e-m/libm.a(lib_a-s_matherr.o)
 .data          0x20001094        0x0 /nfs/nfs5/home/research/hardware/arm2/gcc-arm-embedded/gcc-arm-none-eabi-4_8-2014q2/bin/../lib/gcc/arm-none-eabi/4.8.4/../../../../arm-none-eabi/lib/armv7e-m/libm.a(lib_a-s_nan.o)
 .data          0x20001094        0x0 /nfs/nfs5/home/research/hardware/arm2/gcc-arm-embedded/gcc-arm-none-eabi-4_8-2014q2/bin/../lib/gcc/arm-none-eabi/4.8.4/../../../../arm-none-eabi/lib/armv7e-m/libm.a(lib_a-sf_fpclassify.o)
 .data          0x20001094        0x0 /nfs/nfs5/home/research/hardware/arm2/gcc-arm-embedded/gcc-arm-none-eabi-4_8-2014q2/bin/../lib/gcc/arm-none-eabi/4.8.4/../../../../arm-none-eabi/lib/armv7e-m/libm.a(lib_a-ef_log.o)
 .data          0x20001094        0x0 /nfs/nfs5/home/research/hardware/arm2/gcc-arm-embedded/gcc-arm-none-eabi-4_8-2014q2/bin/../lib/gcc/arm-none-eabi/4.8.4/armv7e-m/libgcc.a(_arm_addsubdf3.o)
 .data          0x20001094        0x0 /nfs/nfs5/home/research/hardware/arm2/gcc-arm-embedded/gcc-arm-none-eabi-4_8-2014q2/bin/../lib/gcc/arm-none-eabi/4.8.4/armv7e-m/libgcc.a(_arm_muldivdf3.o)
 .data          0x20001094        0x0 /nfs/nfs5/home/research/hardware/arm2/gcc-arm-embedded/gcc-arm-none-eabi-4_8-2014q2/bin/../lib/gcc/arm-none-eabi/4.8.4/armv7e-m/libgcc.a(_arm_cmpdf2.o)
 .data          0x20001094        0x0 /nfs/nfs5/home/research/hardware/arm2/gcc-arm-embedded/gcc-arm-none-eabi-4_8-2014q2/bin/../lib/gcc/arm-none-eabi/4.8.4/armv7e-m/libgcc.a(_arm_fixdfsi.o)
 .data          0x20001094        0x0 /nfs/nfs5/home/research/hardware/arm2/gcc-arm-embedded/gcc-arm-none-eabi-4_8-2014q2/bin/../lib/gcc/arm-none-eabi/4.8.4/armv7e-m/libgcc.a(_arm_fixunsdfsi.o)
 .data          0x20001094        0x0 /nfs/nfs5/home/research/hardware/arm2/gcc-arm-embedded/gcc-arm-none-eabi-4_8-2014q2/bin/../lib/gcc/arm-none-eabi/4.8.4/armv7e-m/libgcc.a(_arm_truncdfsf2.o)
 .data          0x20001094        0x0 /nfs/nfs5/home/research/hardware/arm2/gcc-arm-embedded/gcc-arm-none-eabi-4_8-2014q2/bin/../lib/gcc/arm-none-eabi/4.8.4/armv7e-m/libgcc.a(_arm_addsubsf3.o)
 .data          0x20001094        0x0 /nfs/nfs5/home/research/hardware/arm2/gcc-arm-embedded/gcc-arm-none-eabi-4_8-2014q2/bin/../lib/gcc/arm-none-eabi/4.8.4/armv7e-m/libgcc.a(_arm_muldivsf3.o)
 .data          0x20001094        0x0 /nfs/nfs5/home/research/hardware/arm2/gcc-arm-embedded/gcc-arm-none-eabi-4_8-2014q2/bin/../lib/gcc/arm-none-eabi/4.8.4/armv7e-m/libgcc.a(_arm_cmpsf2.o)
 .data          0x20001094        0x0 /nfs/nfs5/home/research/hardware/arm2/gcc-arm-embedded/gcc-arm-none-eabi-4_8-2014q2/bin/../lib/gcc/arm-none-eabi/4.8.4/armv7e-m/libgcc.a(_arm_fixsfsi.o)
 .data          0x20001094        0x0 /nfs/nfs5/home/research/hardware/arm2/gcc-arm-embedded/gcc-arm-none-eabi-4_8-2014q2/bin/../lib/gcc/arm-none-eabi/4.8.4/armv7e-m/libgcc.a(_arm_fixunssfsi.o)
 .data          0x20001094        0x0 /nfs/nfs5/home/research/hardware/arm2/gcc-arm-embedded/gcc-arm-none-eabi-4_8-2014q2/bin/../lib/gcc/arm-none-eabi/4.8.4/armv7e-m/libgcc.a(_aeabi_ldivmod.o)
 .data          0x20001094        0x0 /nfs/nfs5/home/research/hardware/arm2/gcc-arm-embedded/gcc-arm-none-eabi-4_8-2014q2/bin/../lib/gcc/arm-none-eabi/4.8.4/armv7e-m/libgcc.a(_aeabi_uldivmod.o)
 .data          0x20001094        0x0 /nfs/nfs5/home/research/hardware/arm2/gcc-arm-embedded/gcc-arm-none-eabi-4_8-2014q2/bin/../lib/gcc/arm-none-eabi/4.8.4/armv7e-m/libgcc.a(bpabi.o)
 .data          0x20001094        0x0 /nfs/nfs5/home/research/hardware/arm2/gcc-arm-embedded/gcc-arm-none-eabi-4_8-2014q2/bin/../lib/gcc/arm-none-eabi/4.8.4/armv7e-m/libgcc.a(_dvmd_tls.o)
 .data          0x20001094        0x0 /nfs/nfs5/home/research/hardware/arm2/gcc-arm-embedded/gcc-arm-none-eabi-4_8-2014q2/bin/../lib/gcc/arm-none-eabi/4.8.4/armv7e-m/libgcc.a(_divdi3.o)
 .data          0x20001094        0x0 /nfs/nfs5/home/research/hardware/arm2/gcc-arm-embedded/gcc-arm-none-eabi-4_8-2014q2/bin/../lib/gcc/arm-none-eabi/4.8.4/armv7e-m/libgcc.a(_udivdi3.o)
 .data          0x20001094        0x0 /nfs/nfs5/home/research/hardware/arm2/gcc-arm-embedded/gcc-arm-none-eabi-4_8-2014q2/bin/../lib/gcc/arm-none-eabi/4.8.4/../../../../arm-none-eabi/lib/armv7e-m/libg.a(lib_a-errno.o)
 *(.data.*)
 .data.__malloc_av_
                0x20001094      0x408 /nfs/nfs5/home/research/hardware/arm2/gcc-arm-embedded/gcc-arm-none-eabi-4_8-2014q2/bin/../lib/gcc/arm-none-eabi/4.8.4/../../../../arm-none-eabi/lib/armv7e-m/libc.a(lib_a-mallocr.o)
                0x20001094                __malloc_av_
 .data.__malloc_trim_threshold
                0x2000149c        0x4 /nfs/nfs5/home/research/hardware/arm2/gcc-arm-embedded/gcc-arm-none-eabi-4_8-2014q2/bin/../lib/gcc/arm-none-eabi/4.8.4/../../../../arm-none-eabi/lib/armv7e-m/libc.a(lib_a-mallocr.o)
                0x2000149c                __malloc_trim_threshold
 .data.__malloc_sbrk_base
                0x200014a0        0x4 /nfs/nfs5/home/research/hardware/arm2/gcc-arm-embedded/gcc-arm-none-eabi-4_8-2014q2/bin/../lib/gcc/arm-none-eabi/4.8.4/../../../../arm-none-eabi/lib/armv7e-m/libc.a(lib_a-mallocr.o)
                0x200014a0                __malloc_sbrk_base
 .data.__ctype_ptr__
                0x200014a4        0x4 /nfs/nfs5/home/research/hardware/arm2/gcc-arm-embedded/gcc-arm-none-eabi-4_8-2014q2/bin/../lib/gcc/arm-none-eabi/4.8.4/../../../../arm-none-eabi/lib/armv7e-m/libc.a(lib_a-ctype_.o)
                0x200014a4                __ctype_ptr__
 .data.impure_data
                0x200014a8      0x428 /nfs/nfs5/home/research/hardware/arm2/gcc-arm-embedded/gcc-arm-none-eabi-4_8-2014q2/bin/../lib/gcc/arm-none-eabi/4.8.4/../../../../arm-none-eabi/lib/armv7e-m/libc.a(lib_a-impure.o)
 .data._impure_ptr
                0x200018d0        0x4 /nfs/nfs5/home/research/hardware/arm2/gcc-arm-embedded/gcc-arm-none-eabi-4_8-2014q2/bin/../lib/gcc/arm-none-eabi/4.8.4/../../../../arm-none-eabi/lib/armv7e-m/libc.a(lib_a-impure.o)
                0x200018d0                _impure_ptr
 .data.lc_message_charset
                0x200018d4       0x20 /nfs/nfs5/home/research/hardware/arm2/gcc-arm-embedded/gcc-arm-none-eabi-4_8-2014q2/bin/../lib/gcc/arm-none-eabi/4.8.4/../../../../arm-none-eabi/lib/armv7e-m/libc.a(lib_a-locale.o)
 .data.lconv    0x200018f4       0x38 /nfs/nfs5/home/research/hardware/arm2/gcc-arm-embedded/gcc-arm-none-eabi-4_8-2014q2/bin/../lib/gcc/arm-none-eabi/4.8.4/../../../../arm-none-eabi/lib/armv7e-m/libc.a(lib_a-locale.o)
 .data.lc_ctype_charset
                0x2000192c       0x20 /nfs/nfs5/home/research/hardware/arm2/gcc-arm-embedded/gcc-arm-none-eabi-4_8-2014q2/bin/../lib/gcc/arm-none-eabi/4.8.4/../../../../arm-none-eabi/lib/armv7e-m/libc.a(lib_a-locale.o)
 .data.__mb_cur_max
                0x2000194c        0x4 /nfs/nfs5/home/research/hardware/arm2/gcc-arm-embedded/gcc-arm-none-eabi-4_8-2014q2/bin/../lib/gcc/arm-none-eabi/4.8.4/../../../../arm-none-eabi/lib/armv7e-m/libc.a(lib_a-locale.o)
                0x2000194c                __mb_cur_max
 .data.__wctomb
                0x20001950        0x4 /nfs/nfs5/home/research/hardware/arm2/gcc-arm-embedded/gcc-arm-none-eabi-4_8-2014q2/bin/../lib/gcc/arm-none-eabi/4.8.4/../../../../arm-none-eabi/lib/armv7e-m/libc.a(lib_a-wctomb_r.o)
                0x20001950                __wctomb
 .data.__fdlib_version
                0x20001954        0x1 /nfs/nfs5/home/research/hardware/arm2/gcc-arm-embedded/gcc-arm-none-eabi-4_8-2014q2/bin/../lib/gcc/arm-none-eabi/4.8.4/../../../../arm-none-eabi/lib/armv7e-m/libm.a(lib_a-s_lib_ver.o)
                0x20001954                __fdlib_version
 *(.ramtext)
                0x20001958                . = ALIGN (0x4)
 *fill*         0x20001955        0x3 
                0x20001958                PROVIDE (_edata, .)
                0x20001958                _data_end = .

.igot.plt       0x20001958        0x0 load address 0x08068cd8
 .igot.plt      0x00000000        0x0 build/obj/crt0_v7m.o

.bss            0x20001958     0x3d08 load address 0x08068cd8
                0x20001958                . = ALIGN (0x4)
                0x20001958                _bss_start = .
 *(.bss)
 .bss           0x20001958        0x0 build/obj/crt0_v7m.o
 .bss           0x20001958        0x0 build/obj/chcoreasm_v7m.o
 .bss           0x20001958        0x0 build/obj/crt1.o
 .bss           0x20001958        0x0 build/obj/vectors.o
 .bss           0x20001958        0x0 build/obj/chsys.o
 .bss           0x20001958        0x0 build/obj/chdebug.o
 .bss           0x20001958        0x0 build/obj/chvt.o
 .bss           0x20001958        0x0 build/obj/chschd.o
 .bss           0x20001958        0x0 build/obj/chthreads.o
 .bss           0x20001958        0x0 build/obj/chtm.o
 .bss           0x20001958        0x0 build/obj/chdynamic.o
 .bss           0x20001958        0x0 build/obj/chregistry.o
 .bss           0x20001958        0x0 build/obj/chsem.o
 .bss           0x20001958        0x0 build/obj/chmtx.o
 .bss           0x20001958        0x0 build/obj/chcond.o
 .bss           0x20001958        0x0 build/obj/chevents.o
 .bss           0x20001958        0x0 build/obj/chmsg.o
 .bss           0x20001958        0x0 build/obj/chmboxes.o
 .bss           0x20001958        0x0 build/obj/chqueues.o
 .bss           0x20001958        0x8 build/obj/chmemcore.o
 .bss           0x20001960       0x20 build/obj/chheap.o
 .bss           0x20001980        0x0 build/obj/chmempools.o
 .bss           0x20001980        0x0 build/obj/chcore.o
 .bss           0x20001980        0x0 build/obj/chcore_v7m.o
 .bss           0x20001980        0x0 build/obj/osal.o
 .bss           0x20001980        0x0 build/obj/hal.o
 .bss           0x20001980        0x0 build/obj/st.o
 .bss           0x20001980        0x0 build/obj/hal_buffers.o
 .bss           0x20001980        0x0 build/obj/hal_queues.o
 .bss           0x20001980        0x0 build/obj/hal_mmcsd.o
 .bss           0x20001980        0x0 build/obj/mmc_spi.o
 .bss           0x20001980        0x0 build/obj/pal.o
 .bss           0x20001980        0x0 build/obj/serial.o
 .bss           0x20001980        0x0 build/obj/spi.o
 .bss           0x20001980        0x0 build/obj/usb.o
 .bss           0x20001980        0x0 build/obj/nvic.o
 .bss           0x20001980        0x0 build/obj/hal_lld.o
 .bss           0x20001980        0x4 build/obj/stm32_dma.o
 .bss           0x20001984        0x0 build/obj/st_lld.o
 .bss           0x20001984        0x0 build/obj/pal_lld.o
 .bss           0x20001984       0x18 build/obj/usb_lld.o
 .bss           0x2000199c        0x2 build/obj/spi_lld.o
 .bss           0x2000199e        0x0 build/obj/serial_lld.o
 .bss           0x2000199e        0x0 build/obj/board.o
 *fill*         0x2000199e        0x2 
 .bss           0x200019a0       0x34 build/obj/test.o
 .bss           0x200019d4        0x0 build/obj/testthd.o
 .bss           0x200019d4        0x0 build/obj/testsem.o
 .bss           0x200019d4        0x0 build/obj/testmtx.o
 .bss           0x200019d4        0x0 build/obj/testmsg.o
 .bss           0x200019d4        0x0 build/obj/testmbox.o
 .bss           0x200019d4        0x0 build/obj/testevt.o
 *fill*         0x200019d4        0x4 
 .bss           0x200019d8       0x20 build/obj/testheap.o
 .bss           0x200019f8        0x0 build/obj/testpools.o
 .bss           0x200019f8       0x30 build/obj/testdyn.o
 .bss           0x20001a28        0x0 build/obj/testqueues.o
 .bss           0x20001a28        0x0 build/obj/testsys.o
 .bss           0x20001a28       0x78 build/obj/testbmk.o
 .bss           0x20001aa0        0x0 build/obj/evtimer.o
 .bss           0x20001aa0        0x0 build/obj/memstreams.o
 .bss           0x20001aa0        0x0 build/obj/chprintf.o
 .bss           0x20001aa0        0x0 build/obj/shell.o
 .bss           0x20001aa0       0x34 build/obj/AudioBV_Manager.o
                0x20001aa0                osx_bv_license
 .bss           0x20001ad4       0x34 build/obj/MotionCP_Manager.o
                0x20001ad4                osx_mcp_license
                0x20001b04                CarryPositionCode
 .bss           0x20001b08       0x34 build/obj/MotionGR_Manager.o
                0x20001b08                osx_mgr_license
                0x20001b38                GestureRecognitionCode
 .bss           0x20001b3c        0x8 build/obj/HWAdvanceFeatures.o
                0x20001b3c                HWAdvanceFeaturesStatus
 .bss           0x20001b44       0x34 build/obj/MotionAR_Manager.o
                0x20001b44                osx_mar_license
                0x20001b74                ActivityCode
 .bss           0x20001b78        0x0 build/obj/stm32l4xx_hal_msp.o
 .bss           0x20001b78        0x8 build/obj/OTA.o
 .bss           0x20001b80        0x0 build/obj/TargetPlatform.o
 .bss           0x20001b80        0x0 build/obj/usbd_conf.o
 .bss           0x20001b80       0x68 build/obj/sensor_service.o
                0x20001b80                connected
 .bss           0x20001be8        0x0 build/obj/HTS221_Driver_HL.o
 .bss           0x20001be8        0x0 build/obj/usbd_cdc_interface.o
 .bss           0x20001be8        0x0 build/obj/HTS221_Driver.o
 .bss           0x20001be8        0x0 build/obj/LPS22HB_Driver_HL.o
 .bss           0x20001be8        0x0 build/obj/LPS22HB_Driver.o
 .bss           0x20001be8        0x0 build/obj/LSM303AGR_MAG_driver_HL.o
 .bss           0x20001be8        0x0 build/obj/LSM303AGR_ACC_driver_HL.o
 .bss           0x20001be8        0x0 build/obj/LSM303AGR_MAG_driver.o
 .bss           0x20001be8        0x0 build/obj/LSM303AGR_ACC_driver.o
 .bss           0x20001be8        0x0 build/obj/LSM6DSM_ACC_GYRO_driver.o
 .bss           0x20001be8        0x0 build/obj/LSM6DSM_ACC_GYRO_driver_HL.o
 .bss           0x20001be8        0x0 build/obj/STC3115_Driver.o
 .bss           0x20001be8      0x114 build/obj/SensorTile.o
 .bss           0x20001cfc        0x0 build/obj/SensorTile_BlueNRG.o
 .bss           0x20001cfc       0x48 build/obj/SensorTile_accelero.o
 .bss           0x20001d44       0x3c build/obj/SensorTile_audio_in.o
 .bss           0x20001d80       0x88 build/obj/SensorTile_gg.o
 .bss           0x20001e08       0x24 build/obj/SensorTile_gyro.o
 .bss           0x20001e2c       0x20 build/obj/SensorTile_humidity.o
 .bss           0x20001e4c       0x20 build/obj/SensorTile_magneto.o
 .bss           0x20001e6c       0x20 build/obj/SensorTile_pressure.o
 .bss           0x20001e8c       0x40 build/obj/SensorTile_temperature.o
 .bss           0x20001ecc        0x0 build/obj/stm32l4xx_hal.o
 .bss           0x20001ecc        0x0 build/obj/stm32l4xx_hal_adc.o
 .bss           0x20001ecc        0x0 build/obj/stm32l4xx_hal_cortex.o
 .bss           0x20001ecc        0x0 build/obj/stm32l4xx_hal_crc.o
 .bss           0x20001ecc        0x0 build/obj/stm32l4xx_hal_crc_ex.o
 .bss           0x20001ecc       0x24 build/obj/stm32l4xx_hal_dfsdm.o
                0x20001ecc                v_dfsdm1ChannelCounter
                0x20001ed0                a_dfsdm1ChannelHandle
 .bss           0x20001ef0        0x0 build/obj/stm32l4xx_hal_dma.o
 .bss           0x20001ef0        0x0 build/obj/stm32l4xx_hal_flash.o
 .bss           0x20001ef0        0x0 build/obj/stm32l4xx_hal_flash_ex.o
 .bss           0x20001ef0        0x0 build/obj/stm32l4xx_hal_gpio.o
 .bss           0x20001ef0        0x0 build/obj/stm32l4xx_hal_i2c.o
 .bss           0x20001ef0        0x0 build/obj/stm32l4xx_hal_i2c_ex.o
 .bss           0x20001ef0        0x0 build/obj/stm32l4xx_hal_pcd.o
 .bss           0x20001ef0        0x0 build/obj/stm32l4xx_hal_pcd_ex.o
 .bss           0x20001ef0        0x0 build/obj/stm32l4xx_hal_pwr.o
 .bss           0x20001ef0        0x0 build/obj/stm32l4xx_hal_pwr_ex.o
 .bss           0x20001ef0        0x0 build/obj/stm32l4xx_hal_rcc.o
 .bss           0x20001ef0        0x0 build/obj/stm32l4xx_hal_rcc_ex.o
 .bss           0x20001ef0        0x0 build/obj/stm32l4xx_hal_rtc.o
 .bss           0x20001ef0        0x0 build/obj/stm32l4xx_hal_rtc_ex.o
 .bss           0x20001ef0        0x0 build/obj/stm32l4xx_hal_spi.o
 .bss           0x20001ef0        0x0 build/obj/stm32l4xx_hal_spi_ex.o
 .bss           0x20001ef0        0x0 build/obj/stm32l4xx_hal_tim.o
 .bss           0x20001ef0        0x0 build/obj/stm32l4xx_hal_tim_ex.o
 .bss           0x20001ef0        0x0 build/obj/stm32l4xx_hal_uart.o
 .bss           0x20001ef0        0x0 build/obj/stm32l4xx_hal_uart_ex.o
 .bss           0x20001ef0        0x4 build/obj/stm32l4xx_ll_usb.o
 .bss           0x20001ef4        0x0 build/obj/bluenrg_itf_template.o
 .bss           0x20001ef4        0x0 build/obj/bluenrg_gap_aci.o
 .bss           0x20001ef4        0x0 build/obj/bluenrg_gatt_aci.o
 .bss           0x20001ef4        0x0 build/obj/bluenrg_hal_aci.o
 .bss           0x20001ef4        0x0 build/obj/bluenrg_l2cap_aci.o
 .bss           0x20001ef4        0x0 build/obj/bluenrg_updater_aci.o
 .bss           0x20001ef4        0x0 build/obj/bluenrg_utils.o
 .bss           0x20001ef4      0x2c0 build/obj/hci.o
 .bss           0x200021b4        0x0 build/obj/ble_list.o
 .bss           0x200021b4        0x0 build/obj/gp_timer.o
 *fill*         0x200021b4        0x4 
 .bss           0x200021b8     0x1048 build/obj/MetaDataManager.o
                0x200031c0                NecessityToSaveMetaDataManager
 .bss           0x20003200        0x1 build/obj/usbd_cdc.o
 .bss           0x20003201        0x0 build/obj/usbd_core.o
 .bss           0x20003201        0x1 build/obj/usbd_ctlreq.o
 .bss           0x20003202        0x0 build/obj/usbd_ioreq.o
 *fill*         0x20003202        0x2 
 .bss           0x20003204       0x74 build/obj/MotionFX_Manager.o
                0x20003204                osx_mfx_license
 .bss           0x20003278        0x0 build/obj/usbd_desc.o
 .bss           0x20003278       0x78 build/obj/btle.o
                0x20003278                ConnectionBleStatus
                0x2000327c                ForceReCalibration
                0x20003280                FirstConnectionConfig
                0x200032b0                t_coin
 .bss           0x200032f0      0x150 build/obj/main.o
 .bss           0x20003440        0x0 /nfs/nfs5/home/research/hardware/arm2/gcc-arm-embedded/gcc-arm-none-eabi-4_8-2014q2/bin/../lib/gcc/arm-none-eabi/4.8.4/../../../../arm-none-eabi/lib/armv7e-m/libc.a(lib_a-atoi.o)
 .bss           0x20003440        0x0 /nfs/nfs5/home/research/hardware/arm2/gcc-arm-embedded/gcc-arm-none-eabi-4_8-2014q2/bin/../lib/gcc/arm-none-eabi/4.8.4/../../../../arm-none-eabi/lib/armv7e-m/libc.a(lib_a-malloc.o)
 .bss           0x20003440        0x0 /nfs/nfs5/home/research/hardware/arm2/gcc-arm-embedded/gcc-arm-none-eabi-4_8-2014q2/bin/../lib/gcc/arm-none-eabi/4.8.4/../../../../arm-none-eabi/lib/armv7e-m/libc.a(lib_a-mallocr.o)
 .bss           0x20003440        0x0 /nfs/nfs5/home/research/hardware/arm2/gcc-arm-embedded/gcc-arm-none-eabi-4_8-2014q2/bin/../lib/gcc/arm-none-eabi/4.8.4/../../../../arm-none-eabi/lib/armv7e-m/libc.a(lib_a-memcmp.o)
 .bss           0x20003440        0x0 /nfs/nfs5/home/research/hardware/arm2/gcc-arm-embedded/gcc-arm-none-eabi-4_8-2014q2/bin/../lib/gcc/arm-none-eabi/4.8.4/../../../../arm-none-eabi/lib/armv7e-m/libc.a(lib_a-memcpy.o)
 .bss           0x20003440        0x0 /nfs/nfs5/home/research/hardware/arm2/gcc-arm-embedded/gcc-arm-none-eabi-4_8-2014q2/bin/../lib/gcc/arm-none-eabi/4.8.4/../../../../arm-none-eabi/lib/armv7e-m/libc.a(lib_a-memset.o)
 .bss           0x20003440        0x0 /nfs/nfs5/home/research/hardware/arm2/gcc-arm-embedded/gcc-arm-none-eabi-4_8-2014q2/bin/../lib/gcc/arm-none-eabi/4.8.4/../../../../arm-none-eabi/lib/armv7e-m/libc.a(lib_a-mlock.o)
 .bss           0x20003440        0x0 /nfs/nfs5/home/research/hardware/arm2/gcc-arm-embedded/gcc-arm-none-eabi-4_8-2014q2/bin/../lib/gcc/arm-none-eabi/4.8.4/../../../../arm-none-eabi/lib/armv7e-m/libc.a(lib_a-printf.o)
 .bss           0x20003440        0x0 /nfs/nfs5/home/research/hardware/arm2/gcc-arm-embedded/gcc-arm-none-eabi-4_8-2014q2/bin/../lib/gcc/arm-none-eabi/4.8.4/../../../../arm-none-eabi/lib/armv7e-m/libc.a(lib_a-sbrkr.o)
 .bss           0x20003440        0x0 /nfs/nfs5/home/research/hardware/arm2/gcc-arm-embedded/gcc-arm-none-eabi-4_8-2014q2/bin/../lib/gcc/arm-none-eabi/4.8.4/../../../../arm-none-eabi/lib/armv7e-m/libc.a(lib_a-sprintf.o)
 .bss           0x20003440        0x0 /nfs/nfs5/home/research/hardware/arm2/gcc-arm-embedded/gcc-arm-none-eabi-4_8-2014q2/bin/../lib/gcc/arm-none-eabi/4.8.4/../../../../arm-none-eabi/lib/armv7e-m/libc.a(lib_a-strcmp.o)
 .bss           0x20003440        0x0 /nfs/nfs5/home/research/hardware/arm2/gcc-arm-embedded/gcc-arm-none-eabi-4_8-2014q2/bin/../lib/gcc/arm-none-eabi/4.8.4/../../../../arm-none-eabi/lib/armv7e-m/libc.a(lib_a-strncmp.o)
 .bss           0x20003440        0x0 /nfs/nfs5/home/research/hardware/arm2/gcc-arm-embedded/gcc-arm-none-eabi-4_8-2014q2/bin/../lib/gcc/arm-none-eabi/4.8.4/../../../../arm-none-eabi/lib/armv7e-m/libc.a(lib_a-strpbrk.o)
 .bss           0x20003440        0x0 /nfs/nfs5/home/research/hardware/arm2/gcc-arm-embedded/gcc-arm-none-eabi-4_8-2014q2/bin/../lib/gcc/arm-none-eabi/4.8.4/../../../../arm-none-eabi/lib/armv7e-m/libc.a(lib_a-strspn.o)
 .bss           0x20003440        0x0 /nfs/nfs5/home/research/hardware/arm2/gcc-arm-embedded/gcc-arm-none-eabi-4_8-2014q2/bin/../lib/gcc/arm-none-eabi/4.8.4/../../../../arm-none-eabi/lib/armv7e-m/libc.a(lib_a-strtol.o)
 .bss           0x20003440        0x0 /nfs/nfs5/home/research/hardware/arm2/gcc-arm-embedded/gcc-arm-none-eabi-4_8-2014q2/bin/../lib/gcc/arm-none-eabi/4.8.4/../../../../arm-none-eabi/lib/armv7e-m/libc.a(lib_a-svfprintf.o)
 .bss           0x20003440        0x0 /nfs/nfs5/home/research/hardware/arm2/gcc-arm-embedded/gcc-arm-none-eabi-4_8-2014q2/bin/../lib/gcc/arm-none-eabi/4.8.4/../../../../arm-none-eabi/lib/armv7e-m/libc.a(lib_a-vfprintf.o)
 .bss           0x20003440        0x0 /nfs/nfs5/home/research/hardware/arm2/gcc-arm-embedded/gcc-arm-none-eabi-4_8-2014q2/bin/../lib/gcc/arm-none-eabi/4.8.4/../../../../arm-none-eabi/lib/armv7e-m/libc.a(lib_a-wsetup.o)
 .bss           0x20003440        0x0 /nfs/nfs5/home/research/hardware/arm2/gcc-arm-embedded/gcc-arm-none-eabi-4_8-2014q2/bin/../lib/gcc/arm-none-eabi/4.8.4/../../../../arm-none-eabi/lib/armv7e-m/libc.a(lib_a-ctype_.o)
 .bss           0x20003440        0x0 /nfs/nfs5/home/research/hardware/arm2/gcc-arm-embedded/gcc-arm-none-eabi-4_8-2014q2/bin/../lib/gcc/arm-none-eabi/4.8.4/../../../../arm-none-eabi/lib/armv7e-m/libc.a(lib_a-dtoa.o)
 .bss           0x20003440        0x0 /nfs/nfs5/home/research/hardware/arm2/gcc-arm-embedded/gcc-arm-none-eabi-4_8-2014q2/bin/../lib/gcc/arm-none-eabi/4.8.4/../../../../arm-none-eabi/lib/armv7e-m/libc.a(lib_a-fflush.o)
 .bss           0x20003440        0x0 /nfs/nfs5/home/research/hardware/arm2/gcc-arm-embedded/gcc-arm-none-eabi-4_8-2014q2/bin/../lib/gcc/arm-none-eabi/4.8.4/../../../../arm-none-eabi/lib/armv7e-m/libc.a(lib_a-findfp.o)
 .bss           0x20003440        0x0 /nfs/nfs5/home/research/hardware/arm2/gcc-arm-embedded/gcc-arm-none-eabi-4_8-2014q2/bin/../lib/gcc/arm-none-eabi/4.8.4/../../../../arm-none-eabi/lib/armv7e-m/libc.a(lib_a-freer.o)
 .bss           0x20003440        0x0 /nfs/nfs5/home/research/hardware/arm2/gcc-arm-embedded/gcc-arm-none-eabi-4_8-2014q2/bin/../lib/gcc/arm-none-eabi/4.8.4/../../../../arm-none-eabi/lib/armv7e-m/libc.a(lib_a-fwalk.o)
 .bss           0x20003440        0x0 /nfs/nfs5/home/research/hardware/arm2/gcc-arm-embedded/gcc-arm-none-eabi-4_8-2014q2/bin/../lib/gcc/arm-none-eabi/4.8.4/../../../../arm-none-eabi/lib/armv7e-m/libc.a(lib_a-impure.o)
 .bss           0x20003440        0x0 /nfs/nfs5/home/research/hardware/arm2/gcc-arm-embedded/gcc-arm-none-eabi-4_8-2014q2/bin/../lib/gcc/arm-none-eabi/4.8.4/../../../../arm-none-eabi/lib/armv7e-m/libc.a(lib_a-locale.o)
 .bss           0x20003440        0x0 /nfs/nfs5/home/research/hardware/arm2/gcc-arm-embedded/gcc-arm-none-eabi-4_8-2014q2/bin/../lib/gcc/arm-none-eabi/4.8.4/../../../../arm-none-eabi/lib/armv7e-m/libc.a(lib_a-makebuf.o)
 .bss           0x20003440        0x0 /nfs/nfs5/home/research/hardware/arm2/gcc-arm-embedded/gcc-arm-none-eabi-4_8-2014q2/bin/../lib/gcc/arm-none-eabi/4.8.4/../../../../arm-none-eabi/lib/armv7e-m/libc.a(lib_a-memchr-stub.o)
 .bss           0x20003440        0x0 /nfs/nfs5/home/research/hardware/arm2/gcc-arm-embedded/gcc-arm-none-eabi-4_8-2014q2/bin/../lib/gcc/arm-none-eabi/4.8.4/../../../../arm-none-eabi/lib/armv7e-m/libc.a(lib_a-mprec.o)
 .bss           0x20003440        0x0 /nfs/nfs5/home/research/hardware/arm2/gcc-arm-embedded/gcc-arm-none-eabi-4_8-2014q2/bin/../lib/gcc/arm-none-eabi/4.8.4/../../../../arm-none-eabi/lib/armv7e-m/libc.a(lib_a-reent.o)
 .bss           0x20003440        0x0 /nfs/nfs5/home/research/hardware/arm2/gcc-arm-embedded/gcc-arm-none-eabi-4_8-2014q2/bin/../lib/gcc/arm-none-eabi/4.8.4/../../../../arm-none-eabi/lib/armv7e-m/libc.a(lib_a-s_fpclassify.o)
 .bss           0x20003440        0x0 /nfs/nfs5/home/research/hardware/arm2/gcc-arm-embedded/gcc-arm-none-eabi-4_8-2014q2/bin/../lib/gcc/arm-none-eabi/4.8.4/../../../../arm-none-eabi/lib/armv7e-m/libc.a(lib_a-stdio.o)
 .bss           0x20003440        0x0 /nfs/nfs5/home/research/hardware/arm2/gcc-arm-embedded/gcc-arm-none-eabi-4_8-2014q2/bin/../lib/gcc/arm-none-eabi/4.8.4/../../../../arm-none-eabi/lib/armv7e-m/libc.a(lib_a-strlen.o)
 .bss           0x20003440        0x0 /nfs/nfs5/home/research/hardware/arm2/gcc-arm-embedded/gcc-arm-none-eabi-4_8-2014q2/bin/../lib/gcc/arm-none-eabi/4.8.4/../../../../arm-none-eabi/lib/armv7e-m/libc.a(lib_a-svfiprintf.o)
 .bss           0x20003440        0x0 /nfs/nfs5/home/research/hardware/arm2/gcc-arm-embedded/gcc-arm-none-eabi-4_8-2014q2/bin/../lib/gcc/arm-none-eabi/4.8.4/../../../../arm-none-eabi/lib/armv7e-m/libc.a(lib_a-vfiprintf.o)
 .bss           0x20003440        0x0 /nfs/nfs5/home/research/hardware/arm2/gcc-arm-embedded/gcc-arm-none-eabi-4_8-2014q2/bin/../lib/gcc/arm-none-eabi/4.8.4/../../../../arm-none-eabi/lib/armv7e-m/libc.a(lib_a-writer.o)
 .bss           0x20003440        0x0 /nfs/nfs5/home/research/hardware/arm2/gcc-arm-embedded/gcc-arm-none-eabi-4_8-2014q2/bin/../lib/gcc/arm-none-eabi/4.8.4/../../../../arm-none-eabi/lib/armv7e-m/libc.a(lib_a-callocr.o)
 .bss           0x20003440        0x0 /nfs/nfs5/home/research/hardware/arm2/gcc-arm-embedded/gcc-arm-none-eabi-4_8-2014q2/bin/../lib/gcc/arm-none-eabi/4.8.4/../../../../arm-none-eabi/lib/armv7e-m/libc.a(lib_a-closer.o)
 .bss           0x20003440        0x0 /nfs/nfs5/home/research/hardware/arm2/gcc-arm-embedded/gcc-arm-none-eabi-4_8-2014q2/bin/../lib/gcc/arm-none-eabi/4.8.4/../../../../arm-none-eabi/lib/armv7e-m/libc.a(lib_a-fclose.o)
 .bss           0x20003440        0x0 /nfs/nfs5/home/research/hardware/arm2/gcc-arm-embedded/gcc-arm-none-eabi-4_8-2014q2/bin/../lib/gcc/arm-none-eabi/4.8.4/../../../../arm-none-eabi/lib/armv7e-m/libc.a(lib_a-fputwc.o)
 .bss           0x20003440        0x0 /nfs/nfs5/home/research/hardware/arm2/gcc-arm-embedded/gcc-arm-none-eabi-4_8-2014q2/bin/../lib/gcc/arm-none-eabi/4.8.4/../../../../arm-none-eabi/lib/armv7e-m/libc.a(lib_a-fstatr.o)
 .bss           0x20003440        0x0 /nfs/nfs5/home/research/hardware/arm2/gcc-arm-embedded/gcc-arm-none-eabi-4_8-2014q2/bin/../lib/gcc/arm-none-eabi/4.8.4/../../../../arm-none-eabi/lib/armv7e-m/libc.a(lib_a-fvwrite.o)
 .bss           0x20003440        0x0 /nfs/nfs5/home/research/hardware/arm2/gcc-arm-embedded/gcc-arm-none-eabi-4_8-2014q2/bin/../lib/gcc/arm-none-eabi/4.8.4/../../../../arm-none-eabi/lib/armv7e-m/libc.a(lib_a-isattyr.o)
 .bss           0x20003440        0x0 /nfs/nfs5/home/research/hardware/arm2/gcc-arm-embedded/gcc-arm-none-eabi-4_8-2014q2/bin/../lib/gcc/arm-none-eabi/4.8.4/../../../../arm-none-eabi/lib/armv7e-m/libc.a(lib_a-lseekr.o)
 .bss           0x20003440        0x0 /nfs/nfs5/home/research/hardware/arm2/gcc-arm-embedded/gcc-arm-none-eabi-4_8-2014q2/bin/../lib/gcc/arm-none-eabi/4.8.4/../../../../arm-none-eabi/lib/armv7e-m/libc.a(lib_a-memmove.o)
 .bss           0x20003440        0x0 /nfs/nfs5/home/research/hardware/arm2/gcc-arm-embedded/gcc-arm-none-eabi-4_8-2014q2/bin/../lib/gcc/arm-none-eabi/4.8.4/../../../../arm-none-eabi/lib/armv7e-m/libc.a(lib_a-readr.o)
 .bss           0x20003440        0x0 /nfs/nfs5/home/research/hardware/arm2/gcc-arm-embedded/gcc-arm-none-eabi-4_8-2014q2/bin/../lib/gcc/arm-none-eabi/4.8.4/../../../../arm-none-eabi/lib/armv7e-m/libc.a(lib_a-reallocr.o)
 .bss           0x20003440        0x0 /nfs/nfs5/home/research/hardware/arm2/gcc-arm-embedded/gcc-arm-none-eabi-4_8-2014q2/bin/../lib/gcc/arm-none-eabi/4.8.4/../../../../arm-none-eabi/lib/armv7e-m/libc.a(lib_a-wbuf.o)
 .bss           0x20003440        0x0 /nfs/nfs5/home/research/hardware/arm2/gcc-arm-embedded/gcc-arm-none-eabi-4_8-2014q2/bin/../lib/gcc/arm-none-eabi/4.8.4/../../../../arm-none-eabi/lib/armv7e-m/libc.a(lib_a-wcrtomb.o)
 .bss           0x20003440        0x0 /nfs/nfs5/home/research/hardware/arm2/gcc-arm-embedded/gcc-arm-none-eabi-4_8-2014q2/bin/../lib/gcc/arm-none-eabi/4.8.4/../../../../arm-none-eabi/lib/armv7e-m/libc.a(lib_a-wctomb_r.o)
 .bss           0x20003440        0x0 /nfs/nfs5/home/research/hardware/arm2/gcc-arm-embedded/gcc-arm-none-eabi-4_8-2014q2/bin/../lib/gcc/arm-none-eabi/4.8.4/../../../../arm-none-eabi/lib/armv7e-m/libm.a(lib_a-s_trunc.o)
 .bss           0x20003440        0x0 /nfs/nfs5/home/research/hardware/arm2/gcc-arm-embedded/gcc-arm-none-eabi-4_8-2014q2/bin/../lib/gcc/arm-none-eabi/4.8.4/../../../../arm-none-eabi/lib/armv7e-m/libm.a(lib_a-wf_log10.o)
 .bss           0x20003440        0x0 /nfs/nfs5/home/research/hardware/arm2/gcc-arm-embedded/gcc-arm-none-eabi-4_8-2014q2/bin/../lib/gcc/arm-none-eabi/4.8.4/../../../../arm-none-eabi/lib/armv7e-m/libm.a(lib_a-ef_log10.o)
 .bss           0x20003440        0x0 /nfs/nfs5/home/research/hardware/arm2/gcc-arm-embedded/gcc-arm-none-eabi-4_8-2014q2/bin/../lib/gcc/arm-none-eabi/4.8.4/../../../../arm-none-eabi/lib/armv7e-m/libm.a(lib_a-s_lib_ver.o)
 .bss           0x20003440        0x0 /nfs/nfs5/home/research/hardware/arm2/gcc-arm-embedded/gcc-arm-none-eabi-4_8-2014q2/bin/../lib/gcc/arm-none-eabi/4.8.4/../../../../arm-none-eabi/lib/armv7e-m/libm.a(lib_a-s_matherr.o)
 .bss           0x20003440        0x0 /nfs/nfs5/home/research/hardware/arm2/gcc-arm-embedded/gcc-arm-none-eabi-4_8-2014q2/bin/../lib/gcc/arm-none-eabi/4.8.4/../../../../arm-none-eabi/lib/armv7e-m/libm.a(lib_a-s_nan.o)
 .bss           0x20003440        0x0 /nfs/nfs5/home/research/hardware/arm2/gcc-arm-embedded/gcc-arm-none-eabi-4_8-2014q2/bin/../lib/gcc/arm-none-eabi/4.8.4/../../../../arm-none-eabi/lib/armv7e-m/libm.a(lib_a-sf_fpclassify.o)
 .bss           0x20003440        0x0 /nfs/nfs5/home/research/hardware/arm2/gcc-arm-embedded/gcc-arm-none-eabi-4_8-2014q2/bin/../lib/gcc/arm-none-eabi/4.8.4/../../../../arm-none-eabi/lib/armv7e-m/libm.a(lib_a-ef_log.o)
 .bss           0x20003440        0x0 /nfs/nfs5/home/research/hardware/arm2/gcc-arm-embedded/gcc-arm-none-eabi-4_8-2014q2/bin/../lib/gcc/arm-none-eabi/4.8.4/armv7e-m/libgcc.a(_arm_addsubdf3.o)
 .bss           0x20003440        0x0 /nfs/nfs5/home/research/hardware/arm2/gcc-arm-embedded/gcc-arm-none-eabi-4_8-2014q2/bin/../lib/gcc/arm-none-eabi/4.8.4/armv7e-m/libgcc.a(_arm_muldivdf3.o)
 .bss           0x20003440        0x0 /nfs/nfs5/home/research/hardware/arm2/gcc-arm-embedded/gcc-arm-none-eabi-4_8-2014q2/bin/../lib/gcc/arm-none-eabi/4.8.4/armv7e-m/libgcc.a(_arm_cmpdf2.o)
 .bss           0x20003440        0x0 /nfs/nfs5/home/research/hardware/arm2/gcc-arm-embedded/gcc-arm-none-eabi-4_8-2014q2/bin/../lib/gcc/arm-none-eabi/4.8.4/armv7e-m/libgcc.a(_arm_fixdfsi.o)
 .bss           0x20003440        0x0 /nfs/nfs5/home/research/hardware/arm2/gcc-arm-embedded/gcc-arm-none-eabi-4_8-2014q2/bin/../lib/gcc/arm-none-eabi/4.8.4/armv7e-m/libgcc.a(_arm_fixunsdfsi.o)
 .bss           0x20003440        0x0 /nfs/nfs5/home/research/hardware/arm2/gcc-arm-embedded/gcc-arm-none-eabi-4_8-2014q2/bin/../lib/gcc/arm-none-eabi/4.8.4/armv7e-m/libgcc.a(_arm_truncdfsf2.o)
 .bss           0x20003440        0x0 /nfs/nfs5/home/research/hardware/arm2/gcc-arm-embedded/gcc-arm-none-eabi-4_8-2014q2/bin/../lib/gcc/arm-none-eabi/4.8.4/armv7e-m/libgcc.a(_arm_addsubsf3.o)
 .bss           0x20003440        0x0 /nfs/nfs5/home/research/hardware/arm2/gcc-arm-embedded/gcc-arm-none-eabi-4_8-2014q2/bin/../lib/gcc/arm-none-eabi/4.8.4/armv7e-m/libgcc.a(_arm_muldivsf3.o)
 .bss           0x20003440        0x0 /nfs/nfs5/home/research/hardware/arm2/gcc-arm-embedded/gcc-arm-none-eabi-4_8-2014q2/bin/../lib/gcc/arm-none-eabi/4.8.4/armv7e-m/libgcc.a(_arm_cmpsf2.o)
 .bss           0x20003440        0x0 /nfs/nfs5/home/research/hardware/arm2/gcc-arm-embedded/gcc-arm-none-eabi-4_8-2014q2/bin/../lib/gcc/arm-none-eabi/4.8.4/armv7e-m/libgcc.a(_arm_fixsfsi.o)
 .bss           0x20003440        0x0 /nfs/nfs5/home/research/hardware/arm2/gcc-arm-embedded/gcc-arm-none-eabi-4_8-2014q2/bin/../lib/gcc/arm-none-eabi/4.8.4/armv7e-m/libgcc.a(_arm_fixunssfsi.o)
 .bss           0x20003440        0x0 /nfs/nfs5/home/research/hardware/arm2/gcc-arm-embedded/gcc-arm-none-eabi-4_8-2014q2/bin/../lib/gcc/arm-none-eabi/4.8.4/armv7e-m/libgcc.a(_aeabi_ldivmod.o)
 .bss           0x20003440        0x0 /nfs/nfs5/home/research/hardware/arm2/gcc-arm-embedded/gcc-arm-none-eabi-4_8-2014q2/bin/../lib/gcc/arm-none-eabi/4.8.4/armv7e-m/libgcc.a(_aeabi_uldivmod.o)
 .bss           0x20003440        0x0 /nfs/nfs5/home/research/hardware/arm2/gcc-arm-embedded/gcc-arm-none-eabi-4_8-2014q2/bin/../lib/gcc/arm-none-eabi/4.8.4/armv7e-m/libgcc.a(bpabi.o)
 .bss           0x20003440        0x0 /nfs/nfs5/home/research/hardware/arm2/gcc-arm-embedded/gcc-arm-none-eabi-4_8-2014q2/bin/../lib/gcc/arm-none-eabi/4.8.4/armv7e-m/libgcc.a(_dvmd_tls.o)
 .bss           0x20003440        0x0 /nfs/nfs5/home/research/hardware/arm2/gcc-arm-embedded/gcc-arm-none-eabi-4_8-2014q2/bin/../lib/gcc/arm-none-eabi/4.8.4/armv7e-m/libgcc.a(_divdi3.o)
 .bss           0x20003440        0x0 /nfs/nfs5/home/research/hardware/arm2/gcc-arm-embedded/gcc-arm-none-eabi-4_8-2014q2/bin/../lib/gcc/arm-none-eabi/4.8.4/armv7e-m/libgcc.a(_udivdi3.o)
 .bss           0x20003440        0x0 /nfs/nfs5/home/research/hardware/arm2/gcc-arm-embedded/gcc-arm-none-eabi-4_8-2014q2/bin/../lib/gcc/arm-none-eabi/4.8.4/../../../../arm-none-eabi/lib/armv7e-m/libg.a(lib_a-errno.o)
 *(.bss.*)
 .bss.__malloc_max_total_mem
                0x20003440        0x4 /nfs/nfs5/home/research/hardware/arm2/gcc-arm-embedded/gcc-arm-none-eabi-4_8-2014q2/bin/../lib/gcc/arm-none-eabi/4.8.4/../../../../arm-none-eabi/lib/armv7e-m/libc.a(lib_a-mallocr.o)
                0x20003440                __malloc_max_total_mem
 .bss.__malloc_max_sbrked_mem
                0x20003444        0x4 /nfs/nfs5/home/research/hardware/arm2/gcc-arm-embedded/gcc-arm-none-eabi-4_8-2014q2/bin/../lib/gcc/arm-none-eabi/4.8.4/../../../../arm-none-eabi/lib/armv7e-m/libc.a(lib_a-mallocr.o)
                0x20003444                __malloc_max_sbrked_mem
 .bss.__malloc_top_pad
                0x20003448        0x4 /nfs/nfs5/home/research/hardware/arm2/gcc-arm-embedded/gcc-arm-none-eabi-4_8-2014q2/bin/../lib/gcc/arm-none-eabi/4.8.4/../../../../arm-none-eabi/lib/armv7e-m/libc.a(lib_a-mallocr.o)
                0x20003448                __malloc_top_pad
 .bss.__malloc_current_mallinfo
                0x2000344c       0x28 /nfs/nfs5/home/research/hardware/arm2/gcc-arm-embedded/gcc-arm-none-eabi-4_8-2014q2/bin/../lib/gcc/arm-none-eabi/4.8.4/../../../../arm-none-eabi/lib/armv7e-m/libc.a(lib_a-mallocr.o)
                0x2000344c                __malloc_current_mallinfo
 .bss._PathLocale
                0x20003474        0x4 /nfs/nfs5/home/research/hardware/arm2/gcc-arm-embedded/gcc-arm-none-eabi-4_8-2014q2/bin/../lib/gcc/arm-none-eabi/4.8.4/../../../../arm-none-eabi/lib/armv7e-m/libc.a(lib_a-locale.o)
                0x20003474                _PathLocale
 .bss.__nlocale_changed
                0x20003478        0x4 /nfs/nfs5/home/research/hardware/arm2/gcc-arm-embedded/gcc-arm-none-eabi-4_8-2014q2/bin/../lib/gcc/arm-none-eabi/4.8.4/../../../../arm-none-eabi/lib/armv7e-m/libc.a(lib_a-locale.o)
                0x20003478                __nlocale_changed
 .bss.__mlocale_changed
                0x2000347c        0x4 /nfs/nfs5/home/research/hardware/arm2/gcc-arm-embedded/gcc-arm-none-eabi-4_8-2014q2/bin/../lib/gcc/arm-none-eabi/4.8.4/../../../../arm-none-eabi/lib/armv7e-m/libc.a(lib_a-locale.o)
                0x2000347c                __mlocale_changed
 *(COMMON)
 COMMON         0x20003480      0x150 build/obj/chschd.o
                0x20003480                ch
 COMMON         0x200035d0       0x70 build/obj/stm32_dma.o
                0x200035d0                _stm32_dma_isr_redir
 COMMON         0x20003640      0x1d0 build/obj/usb_lld.o
                0x20003640                USBD1
 COMMON         0x20003810       0x60 build/obj/spi_lld.o
                0x20003810                SPID3
                0x20003840                SPID2
 COMMON         0x20003870       0x7c build/obj/serial_lld.o
                0x20003870                SD5
 *fill*         0x200038ec        0x4 
 COMMON         0x200038f0      0x680 build/obj/test.o
                0x200038f0                test_global_fail
                0x200038f1                test_timer_done
                0x200038f4                threads
                0x20003908                test
 COMMON         0x20003f70        0x4 build/obj/shell.o
                0x20003f70                shell_terminated
 COMMON         0x20003f74        0x8 build/obj/AudioBV_Manager.o
                0x20003f74                SendBlueVoice
                0x20003f75                bvStat
                0x20003f78                BLUEVOICE_Config
 COMMON         0x20003f7c       0x70 build/obj/TargetPlatform.o
                0x20003f7c                TargetBoardFeatures
                0x20003fc4                PCM_Buffer
                0x20003fe4                DBNOISE_Value_Old_Ch
                0x20003fe8                RMS_Ch
 COMMON         0x20003fec      0x3cc build/obj/usbd_conf.o
                0x20003fec                hpcd
 COMMON         0x200043b8       0x36 build/obj/sensor_service.o
                0x200043b8                BLUEVOICE_Char_uuids
                0x200043e8                BLUEVOICE_tx_handle
 *fill*         0x200043ee        0x2 
 COMMON         0x200043f0        0x4 build/obj/HTS221_Driver_HL.o
                0x200043f0                HTS221_Combo_Data
 COMMON         0x200043f4        0x8 build/obj/LPS22HB_Driver_HL.o
                0x200043f4                LPS22HB_Combo_Data
 COMMON         0x200043fc        0x2 build/obj/LSM303AGR_ACC_driver_HL.o
                0x200043fc                LSM303AGR_Combo_Data
 *fill*         0x200043fe        0x2 
 COMMON         0x20004400        0x2 build/obj/LSM6DSM_ACC_GYRO_driver_HL.o
                0x20004400                LSM6DSM_Combo_Data
 *fill*         0x20004402        0x2 
 COMMON         0x20004404       0x64 build/obj/SensorTile_BlueNRG.o
                0x20004404                SpiHandle
 COMMON         0x20004468      0xf50 build/obj/SensorTile_audio_in.o
                0x20004468                hdma_dfsdmReg_FLT
                0x20004588                RecBuff
                0x20005188                haudio_in_dfsdmchannel
                0x20005268                haudio_in_dfsdmfilter
 COMMON         0x200053b8        0x4 build/obj/stm32l4xx_hal.o
                0x200053b8                uwTick
 COMMON         0x200053bc       0x1c build/obj/stm32l4xx_hal_flash.o
                0x200053bc                pFlash
 COMMON         0x200053d8       0x10 build/obj/hci.o
                0x200053d8                hciReadPktPool
                0x200053e0                hciReadPktRxQueue
 COMMON         0x200053e8       0x94 build/obj/MotionFX_Manager.o
                0x200053e8                iDataOUT
                0x20005458                iDataIN
 COMMON         0x2000547c      0x1e0 build/obj/btle.o
                0x2000547c                TimEnvHandle
                0x200054b8                bdaddr
                0x200054c0                sensitivity_Mul
                0x200054c4                TimCCHandle
                0x20005500                TimAudioDataHandle
                0x2000553c                magOffset
                0x20005554                BufferToWrite
                0x20005654                sensitivity
                0x20005658                BytesToWrite
 COMMON         0x2000565c        0x4 /nfs/nfs5/home/research/hardware/arm2/gcc-arm-embedded/gcc-arm-none-eabi-4_8-2014q2/bin/../lib/gcc/arm-none-eabi/4.8.4/../../../../arm-none-eabi/lib/armv7e-m/libc.a(lib_a-reent.o)
                0x2000565c                errno
                0x20005660                . = ALIGN (0x4)
                0x20005660                _bss_end = .
                0x20005660                PROVIDE (end, .)

.ram0_init      0x20005660        0x0 load address 0x08068cd8
                0x20005660                . = ALIGN (0x4)
                0x08068cd8                __ram0_init_text__ = LOADADDR (.ram0_init)
                0x20005660                __ram0_init__ = .
 *(.ram0_init)
 *(.ram0_init.*)
                0x20005660                . = ALIGN (0x4)

.ram0           0x20005660        0x0 load address 0x08068cd8
                0x20005660                . = ALIGN (0x4)
                0x20005660                __ram0_clear__ = .
 *(.ram0_clear)
 *(.ram0_clear.*)
                0x20005660                . = ALIGN (0x4)
                0x20005660                __ram0_noinit__ = .
 *(.ram0)
 *(.ram0.*)
                0x20005660                . = ALIGN (0x4)
                0x20005660                __ram0_free__ = .

.ram1_init      0x00000000        0x0 load address 0x08068cd8
                0x00000000                . = ALIGN (0x4)
                0x08068cd8                __ram1_init_text__ = LOADADDR (.ram1_init)
                0x00000000                __ram1_init__ = .
 *(.ram1_init)
 *(.ram1_init.*)
                0x00000000                . = ALIGN (0x4)

.ram1           0x00000000        0x0 load address 0x08068cd8
                0x00000000                . = ALIGN (0x4)
                0x00000000                __ram1_clear__ = .
 *(.ram1_clear)
 *(.ram1_clear.*)
                0x00000000                . = ALIGN (0x4)
                0x00000000                __ram1_noinit__ = .
 *(.ram1)
 *(.ram1.*)
                0x00000000                . = ALIGN (0x4)
                0x00000000                __ram1_free__ = .

.ram2_init      0x00000000        0x0 load address 0x08068cd8
                0x00000000                . = ALIGN (0x4)
                0x08068cd8                __ram2_init_text__ = LOADADDR (.ram2_init)
                0x00000000                __ram2_init__ = .
 *(.ram2_init)
 *(.ram2_init.*)
                0x00000000                . = ALIGN (0x4)

.ram2           0x00000000        0x0 load address 0x08068cd8
                0x00000000                . = ALIGN (0x4)
                0x00000000                __ram2_clear__ = .
 *(.ram2_clear)
 *(.ram2_clear.*)
                0x00000000                . = ALIGN (0x4)
                0x00000000                __ram2_noinit__ = .
 *(.ram2)
 *(.ram2.*)
                0x00000000                . = ALIGN (0x4)
                0x00000000                __ram2_free__ = .

.ram3_init      0x00000000        0x0 load address 0x08068cd8
                0x00000000                . = ALIGN (0x4)
                0x08068cd8                __ram3_init_text__ = LOADADDR (.ram3_init)
                0x00000000                __ram3_init__ = .
 *(.ram3_init)
 *(.ram3_init.*)
                0x00000000                . = ALIGN (0x4)

.ram3           0x00000000        0x0 load address 0x08068cd8
                0x00000000                . = ALIGN (0x4)
                0x00000000                __ram3_clear__ = .
 *(.ram3_clear)
 *(.ram3_clear.*)
                0x00000000                . = ALIGN (0x4)
                0x00000000                __ram3_noinit__ = .
 *(.ram3)
 *(.ram3.*)
                0x00000000                . = ALIGN (0x4)
                0x00000000                __ram3_free__ = .

.ram4_init      0x10000000        0x0 load address 0x08068cd8
                0x10000000                . = ALIGN (0x4)
                0x08068cd8                __ram4_init_text__ = LOADADDR (.ram4_init)
                0x10000000                __ram4_init__ = .
 *(.ram4_init)
 *(.ram4_init.*)
                0x10000000                . = ALIGN (0x4)

.ram4           0x10000000        0x0 load address 0x08068cd8
                0x10000000                . = ALIGN (0x4)
                0x10000000                __ram4_clear__ = .
 *(.ram4_clear)
 *(.ram4_clear.*)
                0x10000000                . = ALIGN (0x4)
                0x10000000                __ram4_noinit__ = .
 *(.ram4)
 *(.ram4.*)
                0x10000000                . = ALIGN (0x4)
                0x10000000                __ram4_free__ = .

.ram5_init      0x00000000        0x0 load address 0x08068cd8
                0x00000000                . = ALIGN (0x4)
                0x08068cd8                __ram5_init_text__ = LOADADDR (.ram5_init)
                0x00000000                __ram5_init__ = .
 *(.ram5_init)
 *(.ram5_init.*)
                0x00000000                . = ALIGN (0x4)

.ram5           0x00000000        0x0 load address 0x08068cd8
                0x00000000                . = ALIGN (0x4)
                0x00000000                __ram5_clear__ = .
 *(.ram5_clear)
 *(.ram5_clear.*)
                0x00000000                . = ALIGN (0x4)
                0x00000000                __ram5_noinit__ = .
 *(.ram5)
 *(.ram5.*)
                0x00000000                . = ALIGN (0x4)
                0x00000000                __ram5_free__ = .

.ram6_init      0x00000000        0x0 load address 0x08068cd8
                0x00000000                . = ALIGN (0x4)
                0x08068cd8                __ram6_init_text__ = LOADADDR (.ram6_init)
                0x00000000                __ram6_init__ = .
 *(.ram6_init)
 *(.ram6_init.*)
                0x00000000                . = ALIGN (0x4)

.ram6           0x00000000        0x0 load address 0x08068cd8
                0x00000000                . = ALIGN (0x4)
                0x00000000                __ram6_clear__ = .
 *(.ram6_clear)
 *(.ram6_clear.*)
                0x00000000                . = ALIGN (0x4)
                0x00000000                __ram6_noinit__ = .
 *(.ram6)
 *(.ram6.*)
                0x00000000                . = ALIGN (0x4)
                0x00000000                __ram6_free__ = .

.ram7_init      0x00000000        0x0 load address 0x08068cd8
                0x00000000                . = ALIGN (0x4)
                0x08068cd8                __ram7_init_text__ = LOADADDR (.ram7_init)
                0x00000000                __ram7_init__ = .
 *(.ram7_init)
 *(.ram7_init.*)
                0x00000000                . = ALIGN (0x4)

.ram7           0x00000000        0x0 load address 0x08068cd8
                0x00000000                . = ALIGN (0x4)
                0x00000000                __ram7_clear__ = .
 *(.ram7_clear)
 *(.ram7_clear.*)
                0x00000000                . = ALIGN (0x4)
                0x00000000                __ram7_noinit__ = .
 *(.ram7)
 *(.ram7.*)
                0x00000000                . = ALIGN (0x4)
                0x00000000                __ram7_free__ = .

.heap           0x20005660    0x129a0
                0x20005660                . = ALIGN (0x8)
                0x20005660                __heap_base__ = .
                0x20018000                . = (ORIGIN (HEAP_RAM) + 0x18000)
 *fill*         0x20005660    0x129a0 
                0x20018000                __heap_end__ = .
                0x00000400                __process_stack_size__ = 0x400
                0x00000400                __main_stack_size__ = 0x400
LOAD /nfs/nfs5/home/research/hardware/arm2/gcc-arm-embedded/gcc-arm-none-eabi-4_8-2014q2/bin/../lib/gcc/arm-none-eabi/4.8.4/../../../../arm-none-eabi/lib/armv7e-m/libc.a
LOAD /nfs/nfs5/home/research/hardware/arm2/gcc-arm-embedded/gcc-arm-none-eabi-4_8-2014q2/bin/../lib/gcc/arm-none-eabi/4.8.4/../../../../arm-none-eabi/lib/armv7e-m/libm.a
START GROUP
LOAD /nfs/nfs5/home/research/hardware/arm2/gcc-arm-embedded/gcc-arm-none-eabi-4_8-2014q2/bin/../lib/gcc/arm-none-eabi/4.8.4/armv7e-m/libgcc.a
LOAD /nfs/nfs5/home/research/hardware/arm2/gcc-arm-embedded/gcc-arm-none-eabi-4_8-2014q2/bin/../lib/gcc/arm-none-eabi/4.8.4/../../../../arm-none-eabi/lib/armv7e-m/libg.a
LOAD /nfs/nfs5/home/research/hardware/arm2/gcc-arm-embedded/gcc-arm-none-eabi-4_8-2014q2/bin/../lib/gcc/arm-none-eabi/4.8.4/../../../../arm-none-eabi/lib/armv7e-m/libc.a
END GROUP
OUTPUT(build/ch.elf elf32-littlearm)

.ARM.attributes
                0x00000000       0x2f
 .ARM.attributes
                0x00000000       0x21 build/obj/crt0_v7m.o
 .ARM.attributes
                0x00000021       0x21 build/obj/chcoreasm_v7m.o
 .ARM.attributes
                0x00000042       0x33 build/obj/crt1.o
 .ARM.attributes
                0x00000075       0x33 build/obj/vectors.o
 .ARM.attributes
                0x000000a8       0x33 build/obj/chsys.o
 .ARM.attributes
                0x000000db       0x33 build/obj/chdebug.o
 .ARM.attributes
                0x0000010e       0x33 build/obj/chvt.o
 .ARM.attributes
                0x00000141       0x33 build/obj/chschd.o
 .ARM.attributes
                0x00000174       0x33 build/obj/chthreads.o
 .ARM.attributes
                0x000001a7       0x33 build/obj/chtm.o
 .ARM.attributes
                0x000001da       0x33 build/obj/chdynamic.o
 .ARM.attributes
                0x0000020d       0x33 build/obj/chregistry.o
 .ARM.attributes
                0x00000240       0x33 build/obj/chsem.o
 .ARM.attributes
                0x00000273       0x33 build/obj/chmtx.o
 .ARM.attributes
                0x000002a6       0x33 build/obj/chcond.o
 .ARM.attributes
                0x000002d9       0x33 build/obj/chevents.o
 .ARM.attributes
                0x0000030c       0x33 build/obj/chmsg.o
 .ARM.attributes
                0x0000033f       0x33 build/obj/chmboxes.o
 .ARM.attributes
                0x00000372       0x33 build/obj/chqueues.o
 .ARM.attributes
                0x000003a5       0x33 build/obj/chmemcore.o
 .ARM.attributes
                0x000003d8       0x33 build/obj/chheap.o
 .ARM.attributes
                0x0000040b       0x33 build/obj/chmempools.o
 .ARM.attributes
                0x0000043e       0x33 build/obj/chcore.o
 .ARM.attributes
                0x00000471       0x33 build/obj/chcore_v7m.o
 .ARM.attributes
                0x000004a4       0x33 build/obj/osal.o
 .ARM.attributes
                0x000004d7       0x33 build/obj/hal.o
 .ARM.attributes
                0x0000050a       0x33 build/obj/st.o
 .ARM.attributes
                0x0000053d       0x33 build/obj/hal_buffers.o
 .ARM.attributes
                0x00000570       0x33 build/obj/hal_queues.o
 .ARM.attributes
                0x000005a3       0x33 build/obj/hal_mmcsd.o
 .ARM.attributes
                0x000005d6       0x33 build/obj/mmc_spi.o
 .ARM.attributes
                0x00000609       0x33 build/obj/pal.o
 .ARM.attributes
                0x0000063c       0x33 build/obj/serial.o
 .ARM.attributes
                0x0000066f       0x33 build/obj/spi.o
 .ARM.attributes
                0x000006a2       0x33 build/obj/usb.o
 .ARM.attributes
                0x000006d5       0x33 build/obj/nvic.o
 .ARM.attributes
                0x00000708       0x33 build/obj/hal_lld.o
 .ARM.attributes
                0x0000073b       0x33 build/obj/stm32_dma.o
 .ARM.attributes
                0x0000076e       0x33 build/obj/st_lld.o
 .ARM.attributes
                0x000007a1       0x33 build/obj/pal_lld.o
 .ARM.attributes
                0x000007d4       0x33 build/obj/usb_lld.o
 .ARM.attributes
                0x00000807       0x33 build/obj/spi_lld.o
 .ARM.attributes
                0x0000083a       0x33 build/obj/serial_lld.o
 .ARM.attributes
                0x0000086d       0x33 build/obj/board.o
 .ARM.attributes
                0x000008a0       0x33 build/obj/test.o
 .ARM.attributes
                0x000008d3       0x33 build/obj/testthd.o
 .ARM.attributes
                0x00000906       0x33 build/obj/testsem.o
 .ARM.attributes
                0x00000939       0x33 build/obj/testmtx.o
 .ARM.attributes
                0x0000096c       0x33 build/obj/testmsg.o
 .ARM.attributes
                0x0000099f       0x33 build/obj/testmbox.o
 .ARM.attributes
                0x000009d2       0x33 build/obj/testevt.o
 .ARM.attributes
                0x00000a05       0x33 build/obj/testheap.o
 .ARM.attributes
                0x00000a38       0x33 build/obj/testpools.o
 .ARM.attributes
                0x00000a6b       0x33 build/obj/testdyn.o
 .ARM.attributes
                0x00000a9e       0x33 build/obj/testqueues.o
 .ARM.attributes
                0x00000ad1       0x33 build/obj/testsys.o
 .ARM.attributes
                0x00000b04       0x33 build/obj/testbmk.o
 .ARM.attributes
                0x00000b37       0x33 build/obj/evtimer.o
 .ARM.attributes
                0x00000b6a       0x33 build/obj/memstreams.o
 .ARM.attributes
                0x00000b9d       0x33 build/obj/chprintf.o
 .ARM.attributes
                0x00000bd0       0x33 build/obj/shell.o
 .ARM.attributes
                0x00000c03       0x33 build/obj/AudioBV_Manager.o
 .ARM.attributes
                0x00000c36       0x33 build/obj/MotionCP_Manager.o
 .ARM.attributes
                0x00000c69       0x33 build/obj/MotionGR_Manager.o
 .ARM.attributes
                0x00000c9c       0x33 build/obj/HWAdvanceFeatures.o
 .ARM.attributes
                0x00000ccf       0x33 build/obj/MotionAR_Manager.o
 .ARM.attributes
                0x00000d02       0x33 build/obj/stm32l4xx_hal_msp.o
 .ARM.attributes
                0x00000d35       0x33 build/obj/OTA.o
 .ARM.attributes
                0x00000d68       0x33 build/obj/TargetPlatform.o
 .ARM.attributes
                0x00000d9b       0x33 build/obj/usbd_conf.o
 .ARM.attributes
                0x00000dce       0x33 build/obj/sensor_service.o
 .ARM.attributes
                0x00000e01       0x33 build/obj/HTS221_Driver_HL.o
 .ARM.attributes
                0x00000e34       0x33 build/obj/usbd_cdc_interface.o
 .ARM.attributes
                0x00000e67       0x33 build/obj/HTS221_Driver.o
 .ARM.attributes
                0x00000e9a       0x33 build/obj/LPS22HB_Driver_HL.o
 .ARM.attributes
                0x00000ecd       0x33 build/obj/LPS22HB_Driver.o
 .ARM.attributes
                0x00000f00       0x33 build/obj/LSM303AGR_MAG_driver_HL.o
 .ARM.attributes
                0x00000f33       0x33 build/obj/LSM303AGR_ACC_driver_HL.o
 .ARM.attributes
                0x00000f66       0x33 build/obj/LSM303AGR_MAG_driver.o
 .ARM.attributes
                0x00000f99       0x33 build/obj/LSM303AGR_ACC_driver.o
 .ARM.attributes
                0x00000fcc       0x33 build/obj/LSM6DSM_ACC_GYRO_driver.o
 .ARM.attributes
                0x00000fff       0x33 build/obj/LSM6DSM_ACC_GYRO_driver_HL.o
 .ARM.attributes
                0x00001032       0x33 build/obj/STC3115_Driver.o
 .ARM.attributes
                0x00001065       0x33 build/obj/SensorTile.o
 .ARM.attributes
                0x00001098       0x33 build/obj/SensorTile_BlueNRG.o
 .ARM.attributes
                0x000010cb       0x33 build/obj/SensorTile_accelero.o
 .ARM.attributes
                0x000010fe       0x33 build/obj/SensorTile_audio_in.o
 .ARM.attributes
                0x00001131       0x33 build/obj/SensorTile_gg.o
 .ARM.attributes
                0x00001164       0x33 build/obj/SensorTile_gyro.o
 .ARM.attributes
                0x00001197       0x33 build/obj/SensorTile_humidity.o
 .ARM.attributes
                0x000011ca       0x33 build/obj/SensorTile_magneto.o
 .ARM.attributes
                0x000011fd       0x33 build/obj/SensorTile_pressure.o
 .ARM.attributes
                0x00001230       0x33 build/obj/SensorTile_temperature.o
 .ARM.attributes
                0x00001263       0x33 build/obj/stm32l4xx_hal.o
 .ARM.attributes
                0x00001296       0x33 build/obj/stm32l4xx_hal_adc.o
 .ARM.attributes
                0x000012c9       0x33 build/obj/stm32l4xx_hal_cortex.o
 .ARM.attributes
                0x000012fc       0x33 build/obj/stm32l4xx_hal_crc.o
 .ARM.attributes
                0x0000132f       0x33 build/obj/stm32l4xx_hal_crc_ex.o
 .ARM.attributes
                0x00001362       0x33 build/obj/stm32l4xx_hal_dfsdm.o
 .ARM.attributes
                0x00001395       0x33 build/obj/stm32l4xx_hal_dma.o
 .ARM.attributes
                0x000013c8       0x33 build/obj/stm32l4xx_hal_flash.o
 .ARM.attributes
                0x000013fb       0x33 build/obj/stm32l4xx_hal_flash_ex.o
 .ARM.attributes
                0x0000142e       0x33 build/obj/stm32l4xx_hal_gpio.o
 .ARM.attributes
                0x00001461       0x33 build/obj/stm32l4xx_hal_i2c.o
 .ARM.attributes
                0x00001494       0x33 build/obj/stm32l4xx_hal_i2c_ex.o
 .ARM.attributes
                0x000014c7       0x33 build/obj/stm32l4xx_hal_pcd.o
 .ARM.attributes
                0x000014fa       0x33 build/obj/stm32l4xx_hal_pcd_ex.o
 .ARM.attributes
                0x0000152d       0x33 build/obj/stm32l4xx_hal_pwr.o
 .ARM.attributes
                0x00001560       0x33 build/obj/stm32l4xx_hal_pwr_ex.o
 .ARM.attributes
                0x00001593       0x33 build/obj/stm32l4xx_hal_rcc.o
 .ARM.attributes
                0x000015c6       0x33 build/obj/stm32l4xx_hal_rcc_ex.o
 .ARM.attributes
                0x000015f9       0x33 build/obj/stm32l4xx_hal_rtc.o
 .ARM.attributes
                0x0000162c       0x33 build/obj/stm32l4xx_hal_rtc_ex.o
 .ARM.attributes
                0x0000165f       0x33 build/obj/stm32l4xx_hal_spi.o
 .ARM.attributes
                0x00001692       0x33 build/obj/stm32l4xx_hal_spi_ex.o
 .ARM.attributes
                0x000016c5       0x33 build/obj/stm32l4xx_hal_tim.o
 .ARM.attributes
                0x000016f8       0x33 build/obj/stm32l4xx_hal_tim_ex.o
 .ARM.attributes
                0x0000172b       0x33 build/obj/stm32l4xx_hal_uart.o
 .ARM.attributes
                0x0000175e       0x33 build/obj/stm32l4xx_hal_uart_ex.o
 .ARM.attributes
                0x00001791       0x33 build/obj/stm32l4xx_ll_usb.o
 .ARM.attributes
                0x000017c4       0x33 build/obj/bluenrg_itf_template.o
 .ARM.attributes
                0x000017f7       0x33 build/obj/bluenrg_gap_aci.o
 .ARM.attributes
                0x0000182a       0x33 build/obj/bluenrg_gatt_aci.o
 .ARM.attributes
                0x0000185d       0x33 build/obj/bluenrg_hal_aci.o
 .ARM.attributes
                0x00001890       0x33 build/obj/bluenrg_l2cap_aci.o
 .ARM.attributes
                0x000018c3       0x33 build/obj/bluenrg_updater_aci.o
 .ARM.attributes
                0x000018f6       0x33 build/obj/bluenrg_utils.o
 .ARM.attributes
                0x00001929       0x33 build/obj/hci.o
 .ARM.attributes
                0x0000195c       0x33 build/obj/ble_list.o
 .ARM.attributes
                0x0000198f       0x33 build/obj/gp_timer.o
 .ARM.attributes
                0x000019c2       0x33 build/obj/MetaDataManager.o
 .ARM.attributes
                0x000019f5       0x33 build/obj/usbd_cdc.o
 .ARM.attributes
                0x00001a28       0x33 build/obj/usbd_core.o
 .ARM.attributes
                0x00001a5b       0x33 build/obj/usbd_ctlreq.o
 .ARM.attributes
                0x00001a8e       0x33 build/obj/usbd_ioreq.o
 .ARM.attributes
                0x00001ac1       0x33 build/obj/MotionFX_Manager.o
 .ARM.attributes
                0x00001af4       0x33 build/obj/usbd_desc.o
 .ARM.attributes
                0x00001b27       0x33 build/obj/btle.o
 .ARM.attributes
                0x00001b5a       0x33 build/obj/main.o
 .ARM.attributes
                0x00001b8d       0x2e /nfs/nfs5/home/research/hardware/arm2/gcc-arm-embedded/gcc-arm-none-eabi-4_8-2014q2/bin/../lib/gcc/arm-none-eabi/4.8.4/../../../../arm-none-eabi/lib/armv7e-m/libc.a(lib_a-atoi.o)
 .ARM.attributes
                0x00001bbb       0x2e /nfs/nfs5/home/research/hardware/arm2/gcc-arm-embedded/gcc-arm-none-eabi-4_8-2014q2/bin/../lib/gcc/arm-none-eabi/4.8.4/../../../../arm-none-eabi/lib/armv7e-m/libc.a(lib_a-malloc.o)
 .ARM.attributes
                0x00001be9       0x2e /nfs/nfs5/home/research/hardware/arm2/gcc-arm-embedded/gcc-arm-none-eabi-4_8-2014q2/bin/../lib/gcc/arm-none-eabi/4.8.4/../../../../arm-none-eabi/lib/armv7e-m/libc.a(lib_a-mallocr.o)
 .ARM.attributes
                0x00001c17       0x2e /nfs/nfs5/home/research/hardware/arm2/gcc-arm-embedded/gcc-arm-none-eabi-4_8-2014q2/bin/../lib/gcc/arm-none-eabi/4.8.4/../../../../arm-none-eabi/lib/armv7e-m/libc.a(lib_a-memcmp.o)
 .ARM.attributes
                0x00001c45       0x1c /nfs/nfs5/home/research/hardware/arm2/gcc-arm-embedded/gcc-arm-none-eabi-4_8-2014q2/bin/../lib/gcc/arm-none-eabi/4.8.4/../../../../arm-none-eabi/lib/armv7e-m/libc.a(lib_a-memcpy.o)
 .ARM.attributes
                0x00001c61       0x2e /nfs/nfs5/home/research/hardware/arm2/gcc-arm-embedded/gcc-arm-none-eabi-4_8-2014q2/bin/../lib/gcc/arm-none-eabi/4.8.4/../../../../arm-none-eabi/lib/armv7e-m/libc.a(lib_a-memset.o)
 .ARM.attributes
                0x00001c8f       0x2e /nfs/nfs5/home/research/hardware/arm2/gcc-arm-embedded/gcc-arm-none-eabi-4_8-2014q2/bin/../lib/gcc/arm-none-eabi/4.8.4/../../../../arm-none-eabi/lib/armv7e-m/libc.a(lib_a-mlock.o)
 .ARM.attributes
                0x00001cbd       0x2e /nfs/nfs5/home/research/hardware/arm2/gcc-arm-embedded/gcc-arm-none-eabi-4_8-2014q2/bin/../lib/gcc/arm-none-eabi/4.8.4/../../../../arm-none-eabi/lib/armv7e-m/libc.a(lib_a-printf.o)
 .ARM.attributes
                0x00001ceb       0x2e /nfs/nfs5/home/research/hardware/arm2/gcc-arm-embedded/gcc-arm-none-eabi-4_8-2014q2/bin/../lib/gcc/arm-none-eabi/4.8.4/../../../../arm-none-eabi/lib/armv7e-m/libc.a(lib_a-sbrkr.o)
 .ARM.attributes
                0x00001d19       0x2e /nfs/nfs5/home/research/hardware/arm2/gcc-arm-embedded/gcc-arm-none-eabi-4_8-2014q2/bin/../lib/gcc/arm-none-eabi/4.8.4/../../../../arm-none-eabi/lib/armv7e-m/libc.a(lib_a-sprintf.o)
 .ARM.attributes
                0x00001d47       0x1c /nfs/nfs5/home/research/hardware/arm2/gcc-arm-embedded/gcc-arm-none-eabi-4_8-2014q2/bin/../lib/gcc/arm-none-eabi/4.8.4/../../../../arm-none-eabi/lib/armv7e-m/libc.a(lib_a-strcmp.o)
 .ARM.attributes
                0x00001d63       0x2e /nfs/nfs5/home/research/hardware/arm2/gcc-arm-embedded/gcc-arm-none-eabi-4_8-2014q2/bin/../lib/gcc/arm-none-eabi/4.8.4/../../../../arm-none-eabi/lib/armv7e-m/libc.a(lib_a-strncmp.o)
 .ARM.attributes
                0x00001d91       0x2e /nfs/nfs5/home/research/hardware/arm2/gcc-arm-embedded/gcc-arm-none-eabi-4_8-2014q2/bin/../lib/gcc/arm-none-eabi/4.8.4/../../../../arm-none-eabi/lib/armv7e-m/libc.a(lib_a-strpbrk.o)
 .ARM.attributes
                0x00001dbf       0x2e /nfs/nfs5/home/research/hardware/arm2/gcc-arm-embedded/gcc-arm-none-eabi-4_8-2014q2/bin/../lib/gcc/arm-none-eabi/4.8.4/../../../../arm-none-eabi/lib/armv7e-m/libc.a(lib_a-strspn.o)
 .ARM.attributes
                0x00001ded       0x2e /nfs/nfs5/home/research/hardware/arm2/gcc-arm-embedded/gcc-arm-none-eabi-4_8-2014q2/bin/../lib/gcc/arm-none-eabi/4.8.4/../../../../arm-none-eabi/lib/armv7e-m/libc.a(lib_a-strtol.o)
 .ARM.attributes
                0x00001e1b       0x2e /nfs/nfs5/home/research/hardware/arm2/gcc-arm-embedded/gcc-arm-none-eabi-4_8-2014q2/bin/../lib/gcc/arm-none-eabi/4.8.4/../../../../arm-none-eabi/lib/armv7e-m/libc.a(lib_a-svfprintf.o)
 .ARM.attributes
                0x00001e49       0x2e /nfs/nfs5/home/research/hardware/arm2/gcc-arm-embedded/gcc-arm-none-eabi-4_8-2014q2/bin/../lib/gcc/arm-none-eabi/4.8.4/../../../../arm-none-eabi/lib/armv7e-m/libc.a(lib_a-vfprintf.o)
 .ARM.attributes
                0x00001e77       0x2e /nfs/nfs5/home/research/hardware/arm2/gcc-arm-embedded/gcc-arm-none-eabi-4_8-2014q2/bin/../lib/gcc/arm-none-eabi/4.8.4/../../../../arm-none-eabi/lib/armv7e-m/libc.a(lib_a-wsetup.o)
 .ARM.attributes
                0x00001ea5       0x2e /nfs/nfs5/home/research/hardware/arm2/gcc-arm-embedded/gcc-arm-none-eabi-4_8-2014q2/bin/../lib/gcc/arm-none-eabi/4.8.4/../../../../arm-none-eabi/lib/armv7e-m/libc.a(lib_a-ctype_.o)
 .ARM.attributes
                0x00001ed3       0x2e /nfs/nfs5/home/research/hardware/arm2/gcc-arm-embedded/gcc-arm-none-eabi-4_8-2014q2/bin/../lib/gcc/arm-none-eabi/4.8.4/../../../../arm-none-eabi/lib/armv7e-m/libc.a(lib_a-dtoa.o)
 .ARM.attributes
                0x00001f01       0x2e /nfs/nfs5/home/research/hardware/arm2/gcc-arm-embedded/gcc-arm-none-eabi-4_8-2014q2/bin/../lib/gcc/arm-none-eabi/4.8.4/../../../../arm-none-eabi/lib/armv7e-m/libc.a(lib_a-fflush.o)
 .ARM.attributes
                0x00001f2f       0x2e /nfs/nfs5/home/research/hardware/arm2/gcc-arm-embedded/gcc-arm-none-eabi-4_8-2014q2/bin/../lib/gcc/arm-none-eabi/4.8.4/../../../../arm-none-eabi/lib/armv7e-m/libc.a(lib_a-findfp.o)
 .ARM.attributes
                0x00001f5d       0x2e /nfs/nfs5/home/research/hardware/arm2/gcc-arm-embedded/gcc-arm-none-eabi-4_8-2014q2/bin/../lib/gcc/arm-none-eabi/4.8.4/../../../../arm-none-eabi/lib/armv7e-m/libc.a(lib_a-freer.o)
 .ARM.attributes
                0x00001f8b       0x2e /nfs/nfs5/home/research/hardware/arm2/gcc-arm-embedded/gcc-arm-none-eabi-4_8-2014q2/bin/../lib/gcc/arm-none-eabi/4.8.4/../../../../arm-none-eabi/lib/armv7e-m/libc.a(lib_a-fwalk.o)
 .ARM.attributes
                0x00001fb9       0x2e /nfs/nfs5/home/research/hardware/arm2/gcc-arm-embedded/gcc-arm-none-eabi-4_8-2014q2/bin/../lib/gcc/arm-none-eabi/4.8.4/../../../../arm-none-eabi/lib/armv7e-m/libc.a(lib_a-impure.o)
 .ARM.attributes
                0x00001fe7       0x2e /nfs/nfs5/home/research/hardware/arm2/gcc-arm-embedded/gcc-arm-none-eabi-4_8-2014q2/bin/../lib/gcc/arm-none-eabi/4.8.4/../../../../arm-none-eabi/lib/armv7e-m/libc.a(lib_a-locale.o)
 .ARM.attributes
                0x00002015       0x2e /nfs/nfs5/home/research/hardware/arm2/gcc-arm-embedded/gcc-arm-none-eabi-4_8-2014q2/bin/../lib/gcc/arm-none-eabi/4.8.4/../../../../arm-none-eabi/lib/armv7e-m/libc.a(lib_a-makebuf.o)
 .ARM.attributes
                0x00002043       0x2e /nfs/nfs5/home/research/hardware/arm2/gcc-arm-embedded/gcc-arm-none-eabi-4_8-2014q2/bin/../lib/gcc/arm-none-eabi/4.8.4/../../../../arm-none-eabi/lib/armv7e-m/libc.a(lib_a-memchr-stub.o)
 .ARM.attributes
                0x00002071       0x2e /nfs/nfs5/home/research/hardware/arm2/gcc-arm-embedded/gcc-arm-none-eabi-4_8-2014q2/bin/../lib/gcc/arm-none-eabi/4.8.4/../../../../arm-none-eabi/lib/armv7e-m/libc.a(lib_a-mprec.o)
 .ARM.attributes
                0x0000209f       0x2e /nfs/nfs5/home/research/hardware/arm2/gcc-arm-embedded/gcc-arm-none-eabi-4_8-2014q2/bin/../lib/gcc/arm-none-eabi/4.8.4/../../../../arm-none-eabi/lib/armv7e-m/libc.a(lib_a-reent.o)
 .ARM.attributes
                0x000020cd       0x2e /nfs/nfs5/home/research/hardware/arm2/gcc-arm-embedded/gcc-arm-none-eabi-4_8-2014q2/bin/../lib/gcc/arm-none-eabi/4.8.4/../../../../arm-none-eabi/lib/armv7e-m/libc.a(lib_a-s_fpclassify.o)
 .ARM.attributes
                0x000020fb       0x2e /nfs/nfs5/home/research/hardware/arm2/gcc-arm-embedded/gcc-arm-none-eabi-4_8-2014q2/bin/../lib/gcc/arm-none-eabi/4.8.4/../../../../arm-none-eabi/lib/armv7e-m/libc.a(lib_a-stdio.o)
 .ARM.attributes
                0x00002129       0x2e /nfs/nfs5/home/research/hardware/arm2/gcc-arm-embedded/gcc-arm-none-eabi-4_8-2014q2/bin/../lib/gcc/arm-none-eabi/4.8.4/../../../../arm-none-eabi/lib/armv7e-m/libc.a(lib_a-strlen.o)
 .ARM.attributes
                0x00002157       0x2e /nfs/nfs5/home/research/hardware/arm2/gcc-arm-embedded/gcc-arm-none-eabi-4_8-2014q2/bin/../lib/gcc/arm-none-eabi/4.8.4/../../../../arm-none-eabi/lib/armv7e-m/libc.a(lib_a-svfiprintf.o)
 .ARM.attributes
                0x00002185       0x2e /nfs/nfs5/home/research/hardware/arm2/gcc-arm-embedded/gcc-arm-none-eabi-4_8-2014q2/bin/../lib/gcc/arm-none-eabi/4.8.4/../../../../arm-none-eabi/lib/armv7e-m/libc.a(lib_a-vfiprintf.o)
 .ARM.attributes
                0x000021b3       0x2e /nfs/nfs5/home/research/hardware/arm2/gcc-arm-embedded/gcc-arm-none-eabi-4_8-2014q2/bin/../lib/gcc/arm-none-eabi/4.8.4/../../../../arm-none-eabi/lib/armv7e-m/libc.a(lib_a-writer.o)
 .ARM.attributes
                0x000021e1       0x2e /nfs/nfs5/home/research/hardware/arm2/gcc-arm-embedded/gcc-arm-none-eabi-4_8-2014q2/bin/../lib/gcc/arm-none-eabi/4.8.4/../../../../arm-none-eabi/lib/armv7e-m/libc.a(lib_a-callocr.o)
 .ARM.attributes
                0x0000220f       0x2e /nfs/nfs5/home/research/hardware/arm2/gcc-arm-embedded/gcc-arm-none-eabi-4_8-2014q2/bin/../lib/gcc/arm-none-eabi/4.8.4/../../../../arm-none-eabi/lib/armv7e-m/libc.a(lib_a-closer.o)
 .ARM.attributes
                0x0000223d       0x2e /nfs/nfs5/home/research/hardware/arm2/gcc-arm-embedded/gcc-arm-none-eabi-4_8-2014q2/bin/../lib/gcc/arm-none-eabi/4.8.4/../../../../arm-none-eabi/lib/armv7e-m/libc.a(lib_a-fclose.o)
 .ARM.attributes
                0x0000226b       0x2e /nfs/nfs5/home/research/hardware/arm2/gcc-arm-embedded/gcc-arm-none-eabi-4_8-2014q2/bin/../lib/gcc/arm-none-eabi/4.8.4/../../../../arm-none-eabi/lib/armv7e-m/libc.a(lib_a-fputwc.o)
 .ARM.attributes
                0x00002299       0x2e /nfs/nfs5/home/research/hardware/arm2/gcc-arm-embedded/gcc-arm-none-eabi-4_8-2014q2/bin/../lib/gcc/arm-none-eabi/4.8.4/../../../../arm-none-eabi/lib/armv7e-m/libc.a(lib_a-fstatr.o)
 .ARM.attributes
                0x000022c7       0x2e /nfs/nfs5/home/research/hardware/arm2/gcc-arm-embedded/gcc-arm-none-eabi-4_8-2014q2/bin/../lib/gcc/arm-none-eabi/4.8.4/../../../../arm-none-eabi/lib/armv7e-m/libc.a(lib_a-fvwrite.o)
 .ARM.attributes
                0x000022f5       0x2e /nfs/nfs5/home/research/hardware/arm2/gcc-arm-embedded/gcc-arm-none-eabi-4_8-2014q2/bin/../lib/gcc/arm-none-eabi/4.8.4/../../../../arm-none-eabi/lib/armv7e-m/libc.a(lib_a-isattyr.o)
 .ARM.attributes
                0x00002323       0x2e /nfs/nfs5/home/research/hardware/arm2/gcc-arm-embedded/gcc-arm-none-eabi-4_8-2014q2/bin/../lib/gcc/arm-none-eabi/4.8.4/../../../../arm-none-eabi/lib/armv7e-m/libc.a(lib_a-lseekr.o)
 .ARM.attributes
                0x00002351       0x2e /nfs/nfs5/home/research/hardware/arm2/gcc-arm-embedded/gcc-arm-none-eabi-4_8-2014q2/bin/../lib/gcc/arm-none-eabi/4.8.4/../../../../arm-none-eabi/lib/armv7e-m/libc.a(lib_a-memmove.o)
 .ARM.attributes
                0x0000237f       0x2e /nfs/nfs5/home/research/hardware/arm2/gcc-arm-embedded/gcc-arm-none-eabi-4_8-2014q2/bin/../lib/gcc/arm-none-eabi/4.8.4/../../../../arm-none-eabi/lib/armv7e-m/libc.a(lib_a-readr.o)
 .ARM.attributes
                0x000023ad       0x2e /nfs/nfs5/home/research/hardware/arm2/gcc-arm-embedded/gcc-arm-none-eabi-4_8-2014q2/bin/../lib/gcc/arm-none-eabi/4.8.4/../../../../arm-none-eabi/lib/armv7e-m/libc.a(lib_a-reallocr.o)
 .ARM.attributes
                0x000023db       0x2e /nfs/nfs5/home/research/hardware/arm2/gcc-arm-embedded/gcc-arm-none-eabi-4_8-2014q2/bin/../lib/gcc/arm-none-eabi/4.8.4/../../../../arm-none-eabi/lib/armv7e-m/libc.a(lib_a-wbuf.o)
 .ARM.attributes
                0x00002409       0x2e /nfs/nfs5/home/research/hardware/arm2/gcc-arm-embedded/gcc-arm-none-eabi-4_8-2014q2/bin/../lib/gcc/arm-none-eabi/4.8.4/../../../../arm-none-eabi/lib/armv7e-m/libc.a(lib_a-wcrtomb.o)
 .ARM.attributes
                0x00002437       0x2e /nfs/nfs5/home/research/hardware/arm2/gcc-arm-embedded/gcc-arm-none-eabi-4_8-2014q2/bin/../lib/gcc/arm-none-eabi/4.8.4/../../../../arm-none-eabi/lib/armv7e-m/libc.a(lib_a-wctomb_r.o)
 .ARM.attributes
                0x00002465       0x2e /nfs/nfs5/home/research/hardware/arm2/gcc-arm-embedded/gcc-arm-none-eabi-4_8-2014q2/bin/../lib/gcc/arm-none-eabi/4.8.4/../../../../arm-none-eabi/lib/armv7e-m/libm.a(lib_a-s_trunc.o)
 .ARM.attributes
                0x00002493       0x2e /nfs/nfs5/home/research/hardware/arm2/gcc-arm-embedded/gcc-arm-none-eabi-4_8-2014q2/bin/../lib/gcc/arm-none-eabi/4.8.4/../../../../arm-none-eabi/lib/armv7e-m/libm.a(lib_a-wf_log10.o)
 .ARM.attributes
                0x000024c1       0x2e /nfs/nfs5/home/research/hardware/arm2/gcc-arm-embedded/gcc-arm-none-eabi-4_8-2014q2/bin/../lib/gcc/arm-none-eabi/4.8.4/../../../../arm-none-eabi/lib/armv7e-m/libm.a(lib_a-ef_log10.o)
 .ARM.attributes
                0x000024ef       0x2e /nfs/nfs5/home/research/hardware/arm2/gcc-arm-embedded/gcc-arm-none-eabi-4_8-2014q2/bin/../lib/gcc/arm-none-eabi/4.8.4/../../../../arm-none-eabi/lib/armv7e-m/libm.a(lib_a-s_lib_ver.o)
 .ARM.attributes
                0x0000251d       0x2e /nfs/nfs5/home/research/hardware/arm2/gcc-arm-embedded/gcc-arm-none-eabi-4_8-2014q2/bin/../lib/gcc/arm-none-eabi/4.8.4/../../../../arm-none-eabi/lib/armv7e-m/libm.a(lib_a-s_matherr.o)
 .ARM.attributes
                0x0000254b       0x2e /nfs/nfs5/home/research/hardware/arm2/gcc-arm-embedded/gcc-arm-none-eabi-4_8-2014q2/bin/../lib/gcc/arm-none-eabi/4.8.4/../../../../arm-none-eabi/lib/armv7e-m/libm.a(lib_a-s_nan.o)
 .ARM.attributes
                0x00002579       0x2e /nfs/nfs5/home/research/hardware/arm2/gcc-arm-embedded/gcc-arm-none-eabi-4_8-2014q2/bin/../lib/gcc/arm-none-eabi/4.8.4/../../../../arm-none-eabi/lib/armv7e-m/libm.a(lib_a-sf_fpclassify.o)
 .ARM.attributes
                0x000025a7       0x2e /nfs/nfs5/home/research/hardware/arm2/gcc-arm-embedded/gcc-arm-none-eabi-4_8-2014q2/bin/../lib/gcc/arm-none-eabi/4.8.4/../../../../arm-none-eabi/lib/armv7e-m/libm.a(lib_a-ef_log.o)
 .ARM.attributes
                0x000025d5       0x1e /nfs/nfs5/home/research/hardware/arm2/gcc-arm-embedded/gcc-arm-none-eabi-4_8-2014q2/bin/../lib/gcc/arm-none-eabi/4.8.4/armv7e-m/libgcc.a(_arm_addsubdf3.o)
 .ARM.attributes
                0x000025f3       0x1e /nfs/nfs5/home/research/hardware/arm2/gcc-arm-embedded/gcc-arm-none-eabi-4_8-2014q2/bin/../lib/gcc/arm-none-eabi/4.8.4/armv7e-m/libgcc.a(_arm_muldivdf3.o)
 .ARM.attributes
                0x00002611       0x1e /nfs/nfs5/home/research/hardware/arm2/gcc-arm-embedded/gcc-arm-none-eabi-4_8-2014q2/bin/../lib/gcc/arm-none-eabi/4.8.4/armv7e-m/libgcc.a(_arm_cmpdf2.o)
 .ARM.attributes
                0x0000262f       0x1e /nfs/nfs5/home/research/hardware/arm2/gcc-arm-embedded/gcc-arm-none-eabi-4_8-2014q2/bin/../lib/gcc/arm-none-eabi/4.8.4/armv7e-m/libgcc.a(_arm_fixdfsi.o)
 .ARM.attributes
                0x0000264d       0x1e /nfs/nfs5/home/research/hardware/arm2/gcc-arm-embedded/gcc-arm-none-eabi-4_8-2014q2/bin/../lib/gcc/arm-none-eabi/4.8.4/armv7e-m/libgcc.a(_arm_fixunsdfsi.o)
 .ARM.attributes
                0x0000266b       0x1e /nfs/nfs5/home/research/hardware/arm2/gcc-arm-embedded/gcc-arm-none-eabi-4_8-2014q2/bin/../lib/gcc/arm-none-eabi/4.8.4/armv7e-m/libgcc.a(_arm_truncdfsf2.o)
 .ARM.attributes
                0x00002689       0x1e /nfs/nfs5/home/research/hardware/arm2/gcc-arm-embedded/gcc-arm-none-eabi-4_8-2014q2/bin/../lib/gcc/arm-none-eabi/4.8.4/armv7e-m/libgcc.a(_arm_addsubsf3.o)
 .ARM.attributes
                0x000026a7       0x1e /nfs/nfs5/home/research/hardware/arm2/gcc-arm-embedded/gcc-arm-none-eabi-4_8-2014q2/bin/../lib/gcc/arm-none-eabi/4.8.4/armv7e-m/libgcc.a(_arm_muldivsf3.o)
 .ARM.attributes
                0x000026c5       0x1e /nfs/nfs5/home/research/hardware/arm2/gcc-arm-embedded/gcc-arm-none-eabi-4_8-2014q2/bin/../lib/gcc/arm-none-eabi/4.8.4/armv7e-m/libgcc.a(_arm_cmpsf2.o)
 .ARM.attributes
                0x000026e3       0x1e /nfs/nfs5/home/research/hardware/arm2/gcc-arm-embedded/gcc-arm-none-eabi-4_8-2014q2/bin/../lib/gcc/arm-none-eabi/4.8.4/armv7e-m/libgcc.a(_arm_fixsfsi.o)
 .ARM.attributes
                0x00002701       0x1e /nfs/nfs5/home/research/hardware/arm2/gcc-arm-embedded/gcc-arm-none-eabi-4_8-2014q2/bin/../lib/gcc/arm-none-eabi/4.8.4/armv7e-m/libgcc.a(_arm_fixunssfsi.o)
 .ARM.attributes
                0x0000271f       0x1e /nfs/nfs5/home/research/hardware/arm2/gcc-arm-embedded/gcc-arm-none-eabi-4_8-2014q2/bin/../lib/gcc/arm-none-eabi/4.8.4/armv7e-m/libgcc.a(_aeabi_ldivmod.o)
 .ARM.attributes
                0x0000273d       0x1e /nfs/nfs5/home/research/hardware/arm2/gcc-arm-embedded/gcc-arm-none-eabi-4_8-2014q2/bin/../lib/gcc/arm-none-eabi/4.8.4/armv7e-m/libgcc.a(_aeabi_uldivmod.o)
 .ARM.attributes
                0x0000275b       0x2e /nfs/nfs5/home/research/hardware/arm2/gcc-arm-embedded/gcc-arm-none-eabi-4_8-2014q2/bin/../lib/gcc/arm-none-eabi/4.8.4/armv7e-m/libgcc.a(bpabi.o)
 .ARM.attributes
                0x00002789       0x1e /nfs/nfs5/home/research/hardware/arm2/gcc-arm-embedded/gcc-arm-none-eabi-4_8-2014q2/bin/../lib/gcc/arm-none-eabi/4.8.4/armv7e-m/libgcc.a(_dvmd_tls.o)
 .ARM.attributes
                0x000027a7       0x2e /nfs/nfs5/home/research/hardware/arm2/gcc-arm-embedded/gcc-arm-none-eabi-4_8-2014q2/bin/../lib/gcc/arm-none-eabi/4.8.4/armv7e-m/libgcc.a(_divdi3.o)
 .ARM.attributes
                0x000027d5       0x2e /nfs/nfs5/home/research/hardware/arm2/gcc-arm-embedded/gcc-arm-none-eabi-4_8-2014q2/bin/../lib/gcc/arm-none-eabi/4.8.4/armv7e-m/libgcc.a(_udivdi3.o)
 .ARM.attributes
                0x00002803       0x2e /nfs/nfs5/home/research/hardware/arm2/gcc-arm-embedded/gcc-arm-none-eabi-4_8-2014q2/bin/../lib/gcc/arm-none-eabi/4.8.4/../../../../arm-none-eabi/lib/armv7e-m/libg.a(lib_a-errno.o)

.comment        0x00000000       0x70
 .comment       0x00000000       0x70 build/obj/crt1.o
                                 0x71 (size before relaxing)
 .comment       0x00000000       0x71 build/obj/vectors.o
 .comment       0x00000000       0x71 build/obj/chsys.o
 .comment       0x00000000       0x71 build/obj/chdebug.o
 .comment       0x00000000       0x71 build/obj/chvt.o
 .comment       0x00000000       0x71 build/obj/chschd.o
 .comment       0x00000000       0x71 build/obj/chthreads.o
 .comment       0x00000000       0x71 build/obj/chtm.o
 .comment       0x00000000       0x71 build/obj/chdynamic.o
 .comment       0x00000000       0x71 build/obj/chregistry.o
 .comment       0x00000000       0x71 build/obj/chsem.o
 .comment       0x00000000       0x71 build/obj/chmtx.o
 .comment       0x00000000       0x71 build/obj/chcond.o
 .comment       0x00000000       0x71 build/obj/chevents.o
 .comment       0x00000000       0x71 build/obj/chmsg.o
 .comment       0x00000000       0x71 build/obj/chmboxes.o
 .comment       0x00000000       0x71 build/obj/chqueues.o
 .comment       0x00000000       0x71 build/obj/chmemcore.o
 .comment       0x00000000       0x71 build/obj/chheap.o
 .comment       0x00000000       0x71 build/obj/chmempools.o
 .comment       0x00000000       0x71 build/obj/chcore.o
 .comment       0x00000000       0x71 build/obj/chcore_v7m.o
 .comment       0x00000000       0x71 build/obj/osal.o
 .comment       0x00000000       0x71 build/obj/hal.o
 .comment       0x00000000       0x71 build/obj/st.o
 .comment       0x00000000       0x71 build/obj/hal_buffers.o
 .comment       0x00000000       0x71 build/obj/hal_queues.o
 .comment       0x00000000       0x71 build/obj/hal_mmcsd.o
 .comment       0x00000000       0x71 build/obj/mmc_spi.o
 .comment       0x00000000       0x71 build/obj/pal.o
 .comment       0x00000000       0x71 build/obj/serial.o
 .comment       0x00000000       0x71 build/obj/spi.o
 .comment       0x00000000       0x71 build/obj/usb.o
 .comment       0x00000000       0x71 build/obj/nvic.o
 .comment       0x00000000       0x71 build/obj/hal_lld.o
 .comment       0x00000000       0x71 build/obj/stm32_dma.o
 .comment       0x00000000       0x71 build/obj/st_lld.o
 .comment       0x00000000       0x71 build/obj/pal_lld.o
 .comment       0x00000000       0x71 build/obj/usb_lld.o
 .comment       0x00000000       0x71 build/obj/spi_lld.o
 .comment       0x00000000       0x71 build/obj/serial_lld.o
 .comment       0x00000000       0x71 build/obj/board.o
 .comment       0x00000000       0x71 build/obj/test.o
 .comment       0x00000000       0x71 build/obj/testthd.o
 .comment       0x00000000       0x71 build/obj/testsem.o
 .comment       0x00000000       0x71 build/obj/testmtx.o
 .comment       0x00000000       0x71 build/obj/testmsg.o
 .comment       0x00000000       0x71 build/obj/testmbox.o
 .comment       0x00000000       0x71 build/obj/testevt.o
 .comment       0x00000000       0x71 build/obj/testheap.o
 .comment       0x00000000       0x71 build/obj/testpools.o
 .comment       0x00000000       0x71 build/obj/testdyn.o
 .comment       0x00000000       0x71 build/obj/testqueues.o
 .comment       0x00000000       0x71 build/obj/testsys.o
 .comment       0x00000000       0x71 build/obj/testbmk.o
 .comment       0x00000000       0x71 build/obj/evtimer.o
 .comment       0x00000000       0x71 build/obj/memstreams.o
 .comment       0x00000000       0x71 build/obj/chprintf.o
 .comment       0x00000000       0x71 build/obj/shell.o
 .comment       0x00000000       0x71 build/obj/AudioBV_Manager.o
 .comment       0x00000000       0x71 build/obj/MotionCP_Manager.o
 .comment       0x00000000       0x71 build/obj/MotionGR_Manager.o
 .comment       0x00000000       0x71 build/obj/HWAdvanceFeatures.o
 .comment       0x00000000       0x71 build/obj/MotionAR_Manager.o
 .comment       0x00000000       0x71 build/obj/stm32l4xx_hal_msp.o
 .comment       0x00000000       0x71 build/obj/OTA.o
 .comment       0x00000000       0x71 build/obj/TargetPlatform.o
 .comment       0x00000000       0x71 build/obj/usbd_conf.o
 .comment       0x00000000       0x71 build/obj/sensor_service.o
 .comment       0x00000000       0x71 build/obj/HTS221_Driver_HL.o
 .comment       0x00000000       0x71 build/obj/usbd_cdc_interface.o
 .comment       0x00000000       0x71 build/obj/HTS221_Driver.o
 .comment       0x00000000       0x71 build/obj/LPS22HB_Driver_HL.o
 .comment       0x00000000       0x71 build/obj/LPS22HB_Driver.o
 .comment       0x00000000       0x71 build/obj/LSM303AGR_MAG_driver_HL.o
 .comment       0x00000000       0x71 build/obj/LSM303AGR_ACC_driver_HL.o
 .comment       0x00000000       0x71 build/obj/LSM303AGR_MAG_driver.o
 .comment       0x00000000       0x71 build/obj/LSM303AGR_ACC_driver.o
 .comment       0x00000000       0x71 build/obj/LSM6DSM_ACC_GYRO_driver.o
 .comment       0x00000000       0x71 build/obj/LSM6DSM_ACC_GYRO_driver_HL.o
 .comment       0x00000000       0x71 build/obj/STC3115_Driver.o
 .comment       0x00000000       0x71 build/obj/SensorTile.o
 .comment       0x00000000       0x71 build/obj/SensorTile_BlueNRG.o
 .comment       0x00000000       0x71 build/obj/SensorTile_accelero.o
 .comment       0x00000000       0x71 build/obj/SensorTile_audio_in.o
 .comment       0x00000000       0x71 build/obj/SensorTile_gg.o
 .comment       0x00000000       0x71 build/obj/SensorTile_gyro.o
 .comment       0x00000000       0x71 build/obj/SensorTile_humidity.o
 .comment       0x00000000       0x71 build/obj/SensorTile_magneto.o
 .comment       0x00000000       0x71 build/obj/SensorTile_pressure.o
 .comment       0x00000000       0x71 build/obj/SensorTile_temperature.o
 .comment       0x00000000       0x71 build/obj/stm32l4xx_hal.o
 .comment       0x00000000       0x71 build/obj/stm32l4xx_hal_adc.o
 .comment       0x00000000       0x71 build/obj/stm32l4xx_hal_cortex.o
 .comment       0x00000000       0x71 build/obj/stm32l4xx_hal_crc.o
 .comment       0x00000000       0x71 build/obj/stm32l4xx_hal_crc_ex.o
 .comment       0x00000000       0x71 build/obj/stm32l4xx_hal_dfsdm.o
 .comment       0x00000000       0x71 build/obj/stm32l4xx_hal_dma.o
 .comment       0x00000000       0x71 build/obj/stm32l4xx_hal_flash.o
 .comment       0x00000000       0x71 build/obj/stm32l4xx_hal_flash_ex.o
 .comment       0x00000000       0x71 build/obj/stm32l4xx_hal_gpio.o
 .comment       0x00000000       0x71 build/obj/stm32l4xx_hal_i2c.o
 .comment       0x00000000       0x71 build/obj/stm32l4xx_hal_i2c_ex.o
 .comment       0x00000000       0x71 build/obj/stm32l4xx_hal_pcd.o
 .comment       0x00000000       0x71 build/obj/stm32l4xx_hal_pcd_ex.o
 .comment       0x00000000       0x71 build/obj/stm32l4xx_hal_pwr.o
 .comment       0x00000000       0x71 build/obj/stm32l4xx_hal_pwr_ex.o
 .comment       0x00000000       0x71 build/obj/stm32l4xx_hal_rcc.o
 .comment       0x00000000       0x71 build/obj/stm32l4xx_hal_rcc_ex.o
 .comment       0x00000000       0x71 build/obj/stm32l4xx_hal_rtc.o
 .comment       0x00000000       0x71 build/obj/stm32l4xx_hal_rtc_ex.o
 .comment       0x00000000       0x71 build/obj/stm32l4xx_hal_spi.o
 .comment       0x00000000       0x71 build/obj/stm32l4xx_hal_spi_ex.o
 .comment       0x00000000       0x71 build/obj/stm32l4xx_hal_tim.o
 .comment       0x00000000       0x71 build/obj/stm32l4xx_hal_tim_ex.o
 .comment       0x00000000       0x71 build/obj/stm32l4xx_hal_uart.o
 .comment       0x00000000       0x71 build/obj/stm32l4xx_hal_uart_ex.o
 .comment       0x00000000       0x71 build/obj/stm32l4xx_ll_usb.o
 .comment       0x00000000       0x71 build/obj/bluenrg_itf_template.o
 .comment       0x00000000       0x71 build/obj/bluenrg_gap_aci.o
 .comment       0x00000000       0x71 build/obj/bluenrg_gatt_aci.o
 .comment       0x00000000       0x71 build/obj/bluenrg_hal_aci.o
 .comment       0x00000000       0x71 build/obj/bluenrg_l2cap_aci.o
 .comment       0x00000000       0x71 build/obj/bluenrg_updater_aci.o
 .comment       0x00000000       0x71 build/obj/bluenrg_utils.o
 .comment       0x00000000       0x71 build/obj/hci.o
 .comment       0x00000000       0x71 build/obj/ble_list.o
 .comment       0x00000000       0x71 build/obj/gp_timer.o
 .comment       0x00000000       0x71 build/obj/MetaDataManager.o
 .comment       0x00000000       0x71 build/obj/usbd_cdc.o
 .comment       0x00000000       0x71 build/obj/usbd_core.o
 .comment       0x00000000       0x71 build/obj/usbd_ctlreq.o
 .comment       0x00000000       0x71 build/obj/usbd_ioreq.o
 .comment       0x00000000       0x71 build/obj/MotionFX_Manager.o
 .comment       0x00000000       0x71 build/obj/usbd_desc.o
 .comment       0x00000000       0x71 build/obj/btle.o
 .comment       0x00000000       0x71 build/obj/main.o

.debug_line     0x00000000    0x2837a
 .debug_line    0x00000000       0xce build/obj/crt0_v7m.o
 .debug_line    0x000000ce       0x8d build/obj/chcoreasm_v7m.o
 .debug_line    0x0000015b      0x1d8 build/obj/crt1.o
 .debug_line    0x00000333      0x1c3 build/obj/vectors.o
 .debug_line    0x000004f6      0x481 build/obj/chsys.o
 .debug_line    0x00000977      0x24b build/obj/chdebug.o
 .debug_line    0x00000bc2      0x2b3 build/obj/chvt.o
 .debug_line    0x00000e75      0x429 build/obj/chschd.o
 .debug_line    0x0000129e      0x49f build/obj/chthreads.o
 .debug_line    0x0000173d      0x2bb build/obj/chtm.o
 .debug_line    0x000019f8      0x3d5 build/obj/chdynamic.o
 .debug_line    0x00001dcd      0x37c build/obj/chregistry.o
 .debug_line    0x00002149      0x35e build/obj/chsem.o
 .debug_line    0x000024a7      0x3bb build/obj/chmtx.o
 .debug_line    0x00002862      0x377 build/obj/chcond.o
 .debug_line    0x00002bd9      0x3d5 build/obj/chevents.o
 .debug_line    0x00002fae      0x317 build/obj/chmsg.o
 .debug_line    0x000032c5      0x366 build/obj/chmboxes.o
 .debug_line    0x0000362b      0x478 build/obj/chqueues.o
 .debug_line    0x00003aa3      0x375 build/obj/chmemcore.o
 .debug_line    0x00003e18      0x3a2 build/obj/chheap.o
 .debug_line    0x000041ba      0x3b2 build/obj/chmempools.o
 .debug_line    0x0000456c      0x24b build/obj/chcore.o
 .debug_line    0x000047b7      0x2e5 build/obj/chcore_v7m.o
 .debug_line    0x00004a9c      0x294 build/obj/osal.o
 .debug_line    0x00004d30      0x316 build/obj/hal.o
 .debug_line    0x00005046      0x307 build/obj/st.o
 .debug_line    0x0000534d      0x5a4 build/obj/hal_buffers.o
 .debug_line    0x000058f1      0x24b build/obj/hal_queues.o
 .debug_line    0x00005b3c      0x380 build/obj/hal_mmcsd.o
 .debug_line    0x00005ebc      0x6c7 build/obj/mmc_spi.o
 .debug_line    0x00006583      0x30d build/obj/pal.o
 .debug_line    0x00006890      0x4f3 build/obj/serial.o
 .debug_line    0x00006d83      0x55d build/obj/spi.o
 .debug_line    0x000072e0      0x634 build/obj/usb.o
 .debug_line    0x00007914      0x2a9 build/obj/nvic.o
 .debug_line    0x00007bbd      0x407 build/obj/hal_lld.o
 .debug_line    0x00007fc4      0x480 build/obj/stm32_dma.o
 .debug_line    0x00008444      0x33d build/obj/st_lld.o
 .debug_line    0x00008781      0x337 build/obj/pal_lld.o
 .debug_line    0x00008ab8      0x7b5 build/obj/usb_lld.o
 .debug_line    0x0000926d      0x5e1 build/obj/spi_lld.o
 .debug_line    0x0000984e      0x4f7 build/obj/serial_lld.o
 .debug_line    0x00009d45      0x490 build/obj/board.o
 .debug_line    0x0000a1d5      0x53e build/obj/test.o
 .debug_line    0x0000a713      0x463 build/obj/testthd.o
 .debug_line    0x0000ab76      0x56c build/obj/testsem.o
 .debug_line    0x0000b0e2      0x4fc build/obj/testmtx.o
 .debug_line    0x0000b5de      0x363 build/obj/testmsg.o
 .debug_line    0x0000b941      0x5e3 build/obj/testmbox.o
 .debug_line    0x0000bf24      0x4d1 build/obj/testevt.o
 .debug_line    0x0000c3f5      0x3cd build/obj/testheap.o
 .debug_line    0x0000c7c2      0x38d build/obj/testpools.o
 .debug_line    0x0000cb4f      0x47e build/obj/testdyn.o
 .debug_line    0x0000cfcd      0x63a build/obj/testqueues.o
 .debug_line    0x0000d607      0x453 build/obj/testsys.o
 .debug_line    0x0000da5a      0x617 build/obj/testbmk.o
 .debug_line    0x0000e071      0x348 build/obj/evtimer.o
 .debug_line    0x0000e3b9      0x353 build/obj/memstreams.o
 .debug_line    0x0000e70c      0x448 build/obj/chprintf.o
 .debug_line    0x0000eb54      0x473 build/obj/shell.o
 .debug_line    0x0000efc7      0x34d build/obj/AudioBV_Manager.o
 .debug_line    0x0000f314      0x37d build/obj/MotionCP_Manager.o
 .debug_line    0x0000f691      0x37d build/obj/MotionGR_Manager.o
 .debug_line    0x0000fa0e      0x4ee build/obj/HWAdvanceFeatures.o
 .debug_line    0x0000fefc      0x37d build/obj/MotionAR_Manager.o
 .debug_line    0x00010279      0x300 build/obj/stm32l4xx_hal_msp.o
 .debug_line    0x00010579      0x316 build/obj/OTA.o
 .debug_line    0x0001088f      0x61c build/obj/TargetPlatform.o
 .debug_line    0x00010eab      0x4c3 build/obj/usbd_conf.o
 .debug_line    0x0001136e      0xdf5 build/obj/sensor_service.o
 .debug_line    0x00012163      0x35c build/obj/HTS221_Driver_HL.o
 .debug_line    0x000124bf      0x24b build/obj/usbd_cdc_interface.o
 .debug_line    0x0001270a      0x3da build/obj/HTS221_Driver.o
 .debug_line    0x00012ae4      0x46a build/obj/LPS22HB_Driver_HL.o
 .debug_line    0x00012f4e      0x47e build/obj/LPS22HB_Driver.o
 .debug_line    0x000133cc      0x31d build/obj/LSM303AGR_MAG_driver_HL.o
 .debug_line    0x000136e9      0x4a3 build/obj/LSM303AGR_ACC_driver_HL.o
 .debug_line    0x00013b8c      0x380 build/obj/LSM303AGR_MAG_driver.o
 .debug_line    0x00013f0c      0x7c1 build/obj/LSM303AGR_ACC_driver.o
 .debug_line    0x000146cd      0xcfa build/obj/LSM6DSM_ACC_GYRO_driver.o
 .debug_line    0x000153c7      0x832 build/obj/LSM6DSM_ACC_GYRO_driver_HL.o
 .debug_line    0x00015bf9      0x3f5 build/obj/STC3115_Driver.o
 .debug_line    0x00015fee      0x5a0 build/obj/SensorTile.o
 .debug_line    0x0001658e      0x45a build/obj/SensorTile_BlueNRG.o
 .debug_line    0x000169e8      0x6e9 build/obj/SensorTile_accelero.o
 .debug_line    0x000170d1      0x8fe build/obj/SensorTile_audio_in.o
 .debug_line    0x000179cf      0x319 build/obj/SensorTile_gg.o
 .debug_line    0x00017ce8      0x3e5 build/obj/SensorTile_gyro.o
 .debug_line    0x000180cd      0x35f build/obj/SensorTile_humidity.o
 .debug_line    0x0001842c      0x3ec build/obj/SensorTile_magneto.o
 .debug_line    0x00018818      0x37d build/obj/SensorTile_pressure.o
 .debug_line    0x00018b95      0x3ed build/obj/SensorTile_temperature.o
 .debug_line    0x00018f82      0x2f0 build/obj/stm32l4xx_hal.o
 .debug_line    0x00019272      0xc49 build/obj/stm32l4xx_hal_adc.o
 .debug_line    0x00019ebb      0x38d build/obj/stm32l4xx_hal_cortex.o
 .debug_line    0x0001a248      0x33d build/obj/stm32l4xx_hal_crc.o
 .debug_line    0x0001a585      0x284 build/obj/stm32l4xx_hal_crc_ex.o
 .debug_line    0x0001a809      0xbba build/obj/stm32l4xx_hal_dfsdm.o
 .debug_line    0x0001b3c3      0x3db build/obj/stm32l4xx_hal_dma.o
 .debug_line    0x0001b79e      0x429 build/obj/stm32l4xx_hal_flash.o
 .debug_line    0x0001bbc7      0x415 build/obj/stm32l4xx_hal_flash_ex.o
 .debug_line    0x0001bfdc      0x346 build/obj/stm32l4xx_hal_gpio.o
 .debug_line    0x0001c322      0xf5f build/obj/stm32l4xx_hal_i2c.o
 .debug_line    0x0001d281      0x360 build/obj/stm32l4xx_hal_i2c_ex.o
 .debug_line    0x0001d5e1      0x622 build/obj/stm32l4xx_hal_pcd.o
 .debug_line    0x0001dc03      0x2fb build/obj/stm32l4xx_hal_pcd_ex.o
 .debug_line    0x0001defe      0x2ea build/obj/stm32l4xx_hal_pwr.o
 .debug_line    0x0001e1e8      0x443 build/obj/stm32l4xx_hal_pwr_ex.o
 .debug_line    0x0001e62b      0x655 build/obj/stm32l4xx_hal_rcc.o
 .debug_line    0x0001ec80      0x966 build/obj/stm32l4xx_hal_rcc_ex.o
 .debug_line    0x0001f5e6      0x539 build/obj/stm32l4xx_hal_rtc.o
 .debug_line    0x0001fb1f      0x7dd build/obj/stm32l4xx_hal_rtc_ex.o
 .debug_line    0x000202fc      0x8e2 build/obj/stm32l4xx_hal_spi.o
 .debug_line    0x00020bde      0x27c build/obj/stm32l4xx_hal_spi_ex.o
 .debug_line    0x00020e5a      0xd98 build/obj/stm32l4xx_hal_tim.o
 .debug_line    0x00021bf2      0x632 build/obj/stm32l4xx_hal_tim_ex.o
 .debug_line    0x00022224      0x921 build/obj/stm32l4xx_hal_uart.o
 .debug_line    0x00022b45      0x340 build/obj/stm32l4xx_hal_uart_ex.o
 .debug_line    0x00022e85      0x5de build/obj/stm32l4xx_ll_usb.o
 .debug_line    0x00023463        0x0 build/obj/bluenrg_itf_template.o
 .debug_line    0x00023463      0x66d build/obj/bluenrg_gap_aci.o
 .debug_line    0x00023ad0      0x6b1 build/obj/bluenrg_gatt_aci.o
 .debug_line    0x00024181      0x3d4 build/obj/bluenrg_hal_aci.o
 .debug_line    0x00024555      0x374 build/obj/bluenrg_l2cap_aci.o
 .debug_line    0x000248c9      0x3c7 build/obj/bluenrg_updater_aci.o
 .debug_line    0x00024c90      0x589 build/obj/bluenrg_utils.o
 .debug_line    0x00025219      0x7ac build/obj/hci.o
 .debug_line    0x000259c5      0x3e2 build/obj/ble_list.o
 .debug_line    0x00025da7      0x233 build/obj/gp_timer.o
 .debug_line    0x00025fda      0x47c build/obj/MetaDataManager.o
 .debug_line    0x00026456      0x315 build/obj/usbd_cdc.o
 .debug_line    0x0002676b      0x2ee build/obj/usbd_core.o
 .debug_line    0x00026a59      0x36f build/obj/usbd_ctlreq.o
 .debug_line    0x00026dc8      0x230 build/obj/usbd_ioreq.o
 .debug_line    0x00026ff8      0x3b0 build/obj/MotionFX_Manager.o
 .debug_line    0x000273a8      0x156 build/obj/usbd_desc.o
 .debug_line    0x000274fe      0x9c1 build/obj/btle.o
 .debug_line    0x00027ebf      0x4bb build/obj/main.o

.debug_info     0x00000000    0x7b3ca
 .debug_info    0x00000000      0x104 build/obj/crt0_v7m.o
 .debug_info    0x00000104      0x105 build/obj/chcoreasm_v7m.o
 .debug_info    0x00000209      0x31d build/obj/crt1.o
 .debug_info    0x00000526      0x1ee build/obj/vectors.o
 .debug_info    0x00000714     0x13e8 build/obj/chsys.o
 .debug_info    0x00001afc      0x647 build/obj/chdebug.o
 .debug_info    0x00002143      0x728 build/obj/chvt.o
 .debug_info    0x0000286b      0xa62 build/obj/chschd.o
 .debug_info    0x000032cd      0xfab build/obj/chthreads.o
 .debug_info    0x00004278      0x92b build/obj/chtm.o
 .debug_info    0x00004ba3      0x9d1 build/obj/chdynamic.o
 .debug_info    0x00005574      0x8bd build/obj/chregistry.o
 .debug_info    0x00005e31      0xb18 build/obj/chsem.o
 .debug_info    0x00006949      0xadd build/obj/chmtx.o
 .debug_info    0x00007426      0xac1 build/obj/chcond.o
 .debug_info    0x00007ee7      0xca4 build/obj/chevents.o
 .debug_info    0x00008b8b      0x8b8 build/obj/chmsg.o
 .debug_info    0x00009443      0xb9c build/obj/chmboxes.o
 .debug_info    0x00009fdf      0xc2d build/obj/chqueues.o
 .debug_info    0x0000ac0c      0x80d build/obj/chmemcore.o
 .debug_info    0x0000b419      0x8db build/obj/chheap.o
 .debug_info    0x0000bcf4      0x985 build/obj/chmempools.o
 .debug_info    0x0000c679      0x647 build/obj/chcore.o
 .debug_info    0x0000ccc0      0x9f3 build/obj/chcore_v7m.o
 .debug_info    0x0000d6b3      0x6de build/obj/osal.o
 .debug_info    0x0000dd91      0x792 build/obj/hal.o
 .debug_info    0x0000e523      0x8d9 build/obj/st.o
 .debug_info    0x0000edfc     0x10a0 build/obj/hal_buffers.o
 .debug_info    0x0000fe9c      0x64e build/obj/hal_queues.o
 .debug_info    0x000104ea     0x1147 build/obj/hal_mmcsd.o
 .debug_info    0x00011631     0x164f build/obj/mmc_spi.o
 .debug_info    0x00012c80      0x8af build/obj/pal.o
 .debug_info    0x0001352f     0x10ef build/obj/serial.o
 .debug_info    0x0001461e     0x103f build/obj/spi.o
 .debug_info    0x0001565d     0x17d2 build/obj/usb.o
 .debug_info    0x00016e2f      0x9e5 build/obj/nvic.o
 .debug_info    0x00017814      0xb27 build/obj/hal_lld.o
 .debug_info    0x0001833b      0xe75 build/obj/stm32_dma.o
 .debug_info    0x000191b0      0x7c5 build/obj/st_lld.o
 .debug_info    0x00019975      0xbe6 build/obj/pal_lld.o
 .debug_info    0x0001a55b     0x1eab build/obj/usb_lld.o
 .debug_info    0x0001c406     0x12a8 build/obj/spi_lld.o
 .debug_info    0x0001d6ae     0x1044 build/obj/serial_lld.o
 .debug_info    0x0001e6f2      0xe14 build/obj/board.o
 .debug_info    0x0001f506      0xf8e build/obj/test.o
 .debug_info    0x00020494      0x909 build/obj/testthd.o
 .debug_info    0x00020d9d      0xb5e build/obj/testsem.o
 .debug_info    0x000218fb      0xb35 build/obj/testmtx.o
 .debug_info    0x00022430      0x7b9 build/obj/testmsg.o
 .debug_info    0x00022be9      0x985 build/obj/testmbox.o
 .debug_info    0x0002356e      0xb93 build/obj/testevt.o
 .debug_info    0x00024101      0x8b3 build/obj/testheap.o
 .debug_info    0x000249b4      0x7dd build/obj/testpools.o
 .debug_info    0x00025191      0xa7f build/obj/testdyn.o
 .debug_info    0x00025c10      0xbeb build/obj/testqueues.o
 .debug_info    0x000267fb      0xbb4 build/obj/testsys.o
 .debug_info    0x000273af      0xdfe build/obj/testbmk.o
 .debug_info    0x000281ad      0xa14 build/obj/evtimer.o
 .debug_info    0x00028bc1      0x8fa build/obj/memstreams.o
 .debug_info    0x000294bb      0xabf build/obj/chprintf.o
 .debug_info    0x00029f7a      0xd9a build/obj/shell.o
 .debug_info    0x0002ad14      0x417 build/obj/AudioBV_Manager.o
 .debug_info    0x0002b12b      0x410 build/obj/MotionCP_Manager.o
 .debug_info    0x0002b53b      0x3fe build/obj/MotionGR_Manager.o
 .debug_info    0x0002b939      0xa5a build/obj/HWAdvanceFeatures.o
 .debug_info    0x0002c393      0x410 build/obj/MotionAR_Manager.o
 .debug_info    0x0002c7a3     0x124d build/obj/stm32l4xx_hal_msp.o
 .debug_info    0x0002d9f0      0x556 build/obj/OTA.o
 .debug_info    0x0002df46      0xbe8 build/obj/TargetPlatform.o
 .debug_info    0x0002eb2e     0x1421 build/obj/usbd_conf.o
 .debug_info    0x0002ff4f     0x2340 build/obj/sensor_service.o
 .debug_info    0x0003228f      0xe1f build/obj/HTS221_Driver_HL.o
 .debug_info    0x000330ae      0x64e build/obj/usbd_cdc_interface.o
 .debug_info    0x000336fc      0xe97 build/obj/HTS221_Driver.o
 .debug_info    0x00034593     0x15e7 build/obj/LPS22HB_Driver_HL.o
 .debug_info    0x00035b7a     0x1744 build/obj/LPS22HB_Driver.o
 .debug_info    0x000372be      0xade build/obj/LSM303AGR_MAG_driver_HL.o
 .debug_info    0x00037d9c      0xfbb build/obj/LSM303AGR_ACC_driver_HL.o
 .debug_info    0x00038d57     0x1a5d build/obj/LSM303AGR_MAG_driver.o
 .debug_info    0x0003a7b4     0x3f03 build/obj/LSM303AGR_ACC_driver.o
 .debug_info    0x0003e6b7     0x68c7 build/obj/LSM6DSM_ACC_GYRO_driver.o
 .debug_info    0x00044f7e     0x227f build/obj/LSM6DSM_ACC_GYRO_driver_HL.o
 .debug_info    0x000471fd      0xe7f build/obj/STC3115_Driver.o
 .debug_info    0x0004807c     0x1ce4 build/obj/SensorTile.o
 .debug_info    0x00049d60     0x10a0 build/obj/SensorTile_BlueNRG.o
 .debug_info    0x0004ae00     0x1e0a build/obj/SensorTile_accelero.o
 .debug_info    0x0004cc0a     0x1500 build/obj/SensorTile_audio_in.o
 .debug_info    0x0004e10a      0xa7d build/obj/SensorTile_gg.o
 .debug_info    0x0004eb87      0xdd7 build/obj/SensorTile_gyro.o
 .debug_info    0x0004f95e      0x9e3 build/obj/SensorTile_humidity.o
 .debug_info    0x00050341      0xcff build/obj/SensorTile_magneto.o
 .debug_info    0x00051040      0xa23 build/obj/SensorTile_pressure.o
 .debug_info    0x00051a63      0xb07 build/obj/SensorTile_temperature.o
 .debug_info    0x0005256a      0x985 build/obj/stm32l4xx_hal.o
 .debug_info    0x00052eef     0x1507 build/obj/stm32l4xx_hal_adc.o
 .debug_info    0x000543f6      0xd0c build/obj/stm32l4xx_hal_cortex.o
 .debug_info    0x00055102      0x4fc build/obj/stm32l4xx_hal_crc.o
 .debug_info    0x000555fe      0x36e build/obj/stm32l4xx_hal_crc_ex.o
 .debug_info    0x0005596c     0x1fcb build/obj/stm32l4xx_hal_dfsdm.o
 .debug_info    0x00057937      0x718 build/obj/stm32l4xx_hal_dma.o
 .debug_info    0x0005804f      0x5ce build/obj/stm32l4xx_hal_flash.o
 .debug_info    0x0005861d      0x806 build/obj/stm32l4xx_hal_flash_ex.o
 .debug_info    0x00058e23      0x7ca build/obj/stm32l4xx_hal_gpio.o
 .debug_info    0x000595ed     0x1b73 build/obj/stm32l4xx_hal_i2c.o
 .debug_info    0x0005b160      0x9a8 build/obj/stm32l4xx_hal_i2c_ex.o
 .debug_info    0x0005bb08      0xf86 build/obj/stm32l4xx_hal_pcd.o
 .debug_info    0x0005ca8e      0x94f build/obj/stm32l4xx_hal_pcd_ex.o
 .debug_info    0x0005d3dd      0x904 build/obj/stm32l4xx_hal_pwr.o
 .debug_info    0x0005dce1      0x9d2 build/obj/stm32l4xx_hal_pwr_ex.o
 .debug_info    0x0005e6b3      0xf03 build/obj/stm32l4xx_hal_rcc.o
 .debug_info    0x0005f5b6     0x14a4 build/obj/stm32l4xx_hal_rcc_ex.o
 .debug_info    0x00060a5a      0xc1c build/obj/stm32l4xx_hal_rtc.o
 .debug_info    0x00061676      0xfc2 build/obj/stm32l4xx_hal_rtc_ex.o
 .debug_info    0x00062638     0x12cf build/obj/stm32l4xx_hal_spi.o
 .debug_info    0x00063907      0x5e7 build/obj/stm32l4xx_hal_spi_ex.o
 .debug_info    0x00063eee     0x225e build/obj/stm32l4xx_hal_tim.o
 .debug_info    0x0006614c     0x1108 build/obj/stm32l4xx_hal_tim_ex.o
 .debug_info    0x00067254     0x12ec build/obj/stm32l4xx_hal_uart.o
 .debug_info    0x00068540      0x828 build/obj/stm32l4xx_hal_uart_ex.o
 .debug_info    0x00068d68     0x14b9 build/obj/stm32l4xx_ll_usb.o
 .debug_info    0x0006a221     0x26c9 build/obj/bluenrg_gap_aci.o
 .debug_info    0x0006c8ea     0x2844 build/obj/bluenrg_gatt_aci.o
 .debug_info    0x0006f12e      0xc0f build/obj/bluenrg_hal_aci.o
 .debug_info    0x0006fd3d      0xa27 build/obj/bluenrg_l2cap_aci.o
 .debug_info    0x00070764      0xbd0 build/obj/bluenrg_updater_aci.o
 .debug_info    0x00071334      0xe17 build/obj/bluenrg_utils.o
 .debug_info    0x0007214b     0x2559 build/obj/hci.o
 .debug_info    0x000746a4      0x78b build/obj/ble_list.o
 .debug_info    0x00074e2f      0x1bb build/obj/gp_timer.o
 .debug_info    0x00074fea      0xa7c build/obj/MetaDataManager.o
 .debug_info    0x00075a66      0xa47 build/obj/usbd_cdc.o
 .debug_info    0x000764ad      0x8fb build/obj/usbd_core.o
 .debug_info    0x00076da8      0x85c build/obj/usbd_ctlreq.o
 .debug_info    0x00077604      0x65c build/obj/usbd_ioreq.o
 .debug_info    0x00077c60      0x6de build/obj/MotionFX_Manager.o
 .debug_info    0x0007833e       0xa0 build/obj/usbd_desc.o
 .debug_info    0x000783de     0x21d0 build/obj/btle.o
 .debug_info    0x0007a5ae      0xe1c build/obj/main.o

.debug_abbrev   0x00000000    0x11460
 .debug_abbrev  0x00000000       0x14 build/obj/crt0_v7m.o
 .debug_abbrev  0x00000014       0x14 build/obj/chcoreasm_v7m.o
 .debug_abbrev  0x00000028       0xf7 build/obj/crt1.o
 .debug_abbrev  0x0000011f       0xc7 build/obj/vectors.o
 .debug_abbrev  0x000001e6      0x412 build/obj/chsys.o
 .debug_abbrev  0x000005f8      0x125 build/obj/chdebug.o
 .debug_abbrev  0x0000071d      0x1a2 build/obj/chvt.o
 .debug_abbrev  0x000008bf      0x315 build/obj/chschd.o
 .debug_abbrev  0x00000bd4      0x2f0 build/obj/chthreads.o
 .debug_abbrev  0x00000ec4      0x1d4 build/obj/chtm.o
 .debug_abbrev  0x00001098      0x256 build/obj/chdynamic.o
 .debug_abbrev  0x000012ee      0x1fb build/obj/chregistry.o
 .debug_abbrev  0x000014e9      0x299 build/obj/chsem.o
 .debug_abbrev  0x00001782      0x2a4 build/obj/chmtx.o
 .debug_abbrev  0x00001a26      0x2a0 build/obj/chcond.o
 .debug_abbrev  0x00001cc6      0x2b0 build/obj/chevents.o
 .debug_abbrev  0x00001f76      0x26e build/obj/chmsg.o
 .debug_abbrev  0x000021e4      0x28e build/obj/chmboxes.o
 .debug_abbrev  0x00002472      0x299 build/obj/chqueues.o
 .debug_abbrev  0x0000270b      0x25f build/obj/chmemcore.o
 .debug_abbrev  0x0000296a      0x22c build/obj/chheap.o
 .debug_abbrev  0x00002b96      0x25f build/obj/chmempools.o
 .debug_abbrev  0x00002df5      0x125 build/obj/chcore.o
 .debug_abbrev  0x00002f1a      0x222 build/obj/chcore_v7m.o
 .debug_abbrev  0x0000313c      0x168 build/obj/osal.o
 .debug_abbrev  0x000032a4      0x171 build/obj/hal.o
 .debug_abbrev  0x00003415      0x1f1 build/obj/st.o
 .debug_abbrev  0x00003606      0x310 build/obj/hal_buffers.o
 .debug_abbrev  0x00003916      0x125 build/obj/hal_queues.o
 .debug_abbrev  0x00003a3b      0x235 build/obj/hal_mmcsd.o
 .debug_abbrev  0x00003c70      0x377 build/obj/mmc_spi.o
 .debug_abbrev  0x00003fe7      0x1bc build/obj/pal.o
 .debug_abbrev  0x000041a3      0x315 build/obj/serial.o
 .debug_abbrev  0x000044b8      0x294 build/obj/spi.o
 .debug_abbrev  0x0000474c      0x33c build/obj/usb.o
 .debug_abbrev  0x00004a88      0x1ba build/obj/nvic.o
 .debug_abbrev  0x00004c42      0x1b4 build/obj/hal_lld.o
 .debug_abbrev  0x00004df6      0x21d build/obj/stm32_dma.o
 .debug_abbrev  0x00005013      0x1d7 build/obj/st_lld.o
 .debug_abbrev  0x000051ea      0x1df build/obj/pal_lld.o
 .debug_abbrev  0x000053c9      0x3a4 build/obj/usb_lld.o
 .debug_abbrev  0x0000576d      0x30d build/obj/spi_lld.o
 .debug_abbrev  0x00005a7a      0x2d0 build/obj/serial_lld.o
 .debug_abbrev  0x00005d4a      0x1ea build/obj/board.o
 .debug_abbrev  0x00005f34      0x403 build/obj/test.o
 .debug_abbrev  0x00006337      0x294 build/obj/testthd.o
 .debug_abbrev  0x000065cb      0x2f7 build/obj/testsem.o
 .debug_abbrev  0x000068c2      0x2d2 build/obj/testmtx.o
 .debug_abbrev  0x00006b94      0x1e8 build/obj/testmsg.o
 .debug_abbrev  0x00006d7c      0x2b6 build/obj/testmbox.o
 .debug_abbrev  0x00007032      0x2fe build/obj/testevt.o
 .debug_abbrev  0x00007330      0x206 build/obj/testheap.o
 .debug_abbrev  0x00007536      0x1c8 build/obj/testpools.o
 .debug_abbrev  0x000076fe      0x275 build/obj/testdyn.o
 .debug_abbrev  0x00007973      0x31d build/obj/testqueues.o
 .debug_abbrev  0x00007c90      0x2fd build/obj/testsys.o
 .debug_abbrev  0x00007f8d      0x317 build/obj/testbmk.o
 .debug_abbrev  0x000082a4      0x25f build/obj/evtimer.o
 .debug_abbrev  0x00008503      0x1af build/obj/memstreams.o
 .debug_abbrev  0x000086b2      0x237 build/obj/chprintf.o
 .debug_abbrev  0x000088e9      0x30a build/obj/shell.o
 .debug_abbrev  0x00008bf3      0x131 build/obj/AudioBV_Manager.o
 .debug_abbrev  0x00008d24      0x117 build/obj/MotionCP_Manager.o
 .debug_abbrev  0x00008e3b      0x117 build/obj/MotionGR_Manager.o
 .debug_abbrev  0x00008f52      0x20c build/obj/HWAdvanceFeatures.o
 .debug_abbrev  0x0000915e      0x117 build/obj/MotionAR_Manager.o
 .debug_abbrev  0x00009275      0x1ec build/obj/stm32l4xx_hal_msp.o
 .debug_abbrev  0x00009461      0x169 build/obj/OTA.o
 .debug_abbrev  0x000095ca      0x256 build/obj/TargetPlatform.o
 .debug_abbrev  0x00009820      0x264 build/obj/usbd_conf.o
 .debug_abbrev  0x00009a84      0x2c8 build/obj/sensor_service.o
 .debug_abbrev  0x00009d4c      0x11e build/obj/HTS221_Driver_HL.o
 .debug_abbrev  0x00009e6a      0x125 build/obj/usbd_cdc_interface.o
 .debug_abbrev  0x00009f8f      0x160 build/obj/HTS221_Driver.o
 .debug_abbrev  0x0000a0ef      0x170 build/obj/LPS22HB_Driver_HL.o
 .debug_abbrev  0x0000a25f      0x1a9 build/obj/LPS22HB_Driver.o
 .debug_abbrev  0x0000a408      0x161 build/obj/LSM303AGR_MAG_driver_HL.o
 .debug_abbrev  0x0000a569      0x18a build/obj/LSM303AGR_ACC_driver_HL.o
 .debug_abbrev  0x0000a6f3      0x14f build/obj/LSM303AGR_MAG_driver.o
 .debug_abbrev  0x0000a842      0x14d build/obj/LSM303AGR_ACC_driver.o
 .debug_abbrev  0x0000a98f      0x1b3 build/obj/LSM6DSM_ACC_GYRO_driver.o
 .debug_abbrev  0x0000ab42      0x156 build/obj/LSM6DSM_ACC_GYRO_driver_HL.o
 .debug_abbrev  0x0000ac98      0x1a6 build/obj/STC3115_Driver.o
 .debug_abbrev  0x0000ae3e      0x2e8 build/obj/SensorTile.o
 .debug_abbrev  0x0000b126      0x275 build/obj/SensorTile_BlueNRG.o
 .debug_abbrev  0x0000b39b      0x1c0 build/obj/SensorTile_accelero.o
 .debug_abbrev  0x0000b55b      0x24b build/obj/SensorTile_audio_in.o
 .debug_abbrev  0x0000b7a6      0x1ac build/obj/SensorTile_gg.o
 .debug_abbrev  0x0000b952      0x1c4 build/obj/SensorTile_gyro.o
 .debug_abbrev  0x0000bb16      0x1ac build/obj/SensorTile_humidity.o
 .debug_abbrev  0x0000bcc2      0x1ac build/obj/SensorTile_magneto.o
 .debug_abbrev  0x0000be6e      0x1ac build/obj/SensorTile_pressure.o
 .debug_abbrev  0x0000c01a      0x19d build/obj/SensorTile_temperature.o
 .debug_abbrev  0x0000c1b7      0x1b3 build/obj/stm32l4xx_hal.o
 .debug_abbrev  0x0000c36a      0x215 build/obj/stm32l4xx_hal_adc.o
 .debug_abbrev  0x0000c57f      0x2a2 build/obj/stm32l4xx_hal_cortex.o
 .debug_abbrev  0x0000c821      0x1a0 build/obj/stm32l4xx_hal_crc.o
 .debug_abbrev  0x0000c9c1      0x10b build/obj/stm32l4xx_hal_crc_ex.o
 .debug_abbrev  0x0000cacc      0x270 build/obj/stm32l4xx_hal_dfsdm.o
 .debug_abbrev  0x0000cd3c      0x1b3 build/obj/stm32l4xx_hal_dma.o
 .debug_abbrev  0x0000ceef      0x216 build/obj/stm32l4xx_hal_flash.o
 .debug_abbrev  0x0000d105      0x212 build/obj/stm32l4xx_hal_flash_ex.o
 .debug_abbrev  0x0000d317      0x1aa build/obj/stm32l4xx_hal_gpio.o
 .debug_abbrev  0x0000d4c1      0x1f9 build/obj/stm32l4xx_hal_i2c.o
 .debug_abbrev  0x0000d6ba      0x180 build/obj/stm32l4xx_hal_i2c_ex.o
 .debug_abbrev  0x0000d83a      0x238 build/obj/stm32l4xx_hal_pcd.o
 .debug_abbrev  0x0000da72      0x1d9 build/obj/stm32l4xx_hal_pcd_ex.o
 .debug_abbrev  0x0000dc4b      0x191 build/obj/stm32l4xx_hal_pwr.o
 .debug_abbrev  0x0000dddc      0x21d build/obj/stm32l4xx_hal_pwr_ex.o
 .debug_abbrev  0x0000dff9      0x287 build/obj/stm32l4xx_hal_rcc.o
 .debug_abbrev  0x0000e280      0x260 build/obj/stm32l4xx_hal_rcc_ex.o
 .debug_abbrev  0x0000e4e0      0x18f build/obj/stm32l4xx_hal_rtc.o
 .debug_abbrev  0x0000e66f      0x19e build/obj/stm32l4xx_hal_rtc_ex.o
 .debug_abbrev  0x0000e80d      0x217 build/obj/stm32l4xx_hal_spi.o
 .debug_abbrev  0x0000ea24      0x131 build/obj/stm32l4xx_hal_spi_ex.o
 .debug_abbrev  0x0000eb55      0x204 build/obj/stm32l4xx_hal_tim.o
 .debug_abbrev  0x0000ed59      0x1fb build/obj/stm32l4xx_hal_tim_ex.o
 .debug_abbrev  0x0000ef54      0x219 build/obj/stm32l4xx_hal_uart.o
 .debug_abbrev  0x0000f16d      0x1b3 build/obj/stm32l4xx_hal_uart_ex.o
 .debug_abbrev  0x0000f320      0x213 build/obj/stm32l4xx_ll_usb.o
 .debug_abbrev  0x0000f533      0x1c8 build/obj/bluenrg_gap_aci.o
 .debug_abbrev  0x0000f6fb      0x1cd build/obj/bluenrg_gatt_aci.o
 .debug_abbrev  0x0000f8c8      0x18a build/obj/bluenrg_hal_aci.o
 .debug_abbrev  0x0000fa52      0x18e build/obj/bluenrg_l2cap_aci.o
 .debug_abbrev  0x0000fbe0      0x181 build/obj/bluenrg_updater_aci.o
 .debug_abbrev  0x0000fd61      0x23e build/obj/bluenrg_utils.o
 .debug_abbrev  0x0000ff9f      0x2cb build/obj/hci.o
 .debug_abbrev  0x0001026a      0x17b build/obj/ble_list.o
 .debug_abbrev  0x000103e5       0xf3 build/obj/gp_timer.o
 .debug_abbrev  0x000104d8      0x265 build/obj/MetaDataManager.o
 .debug_abbrev  0x0001073d      0x1e0 build/obj/usbd_cdc.o
 .debug_abbrev  0x0001091d      0x1bb build/obj/usbd_core.o
 .debug_abbrev  0x00010ad8      0x1eb build/obj/usbd_ctlreq.o
 .debug_abbrev  0x00010cc3      0x12b build/obj/usbd_ioreq.o
 .debug_abbrev  0x00010dee      0x13e build/obj/MotionFX_Manager.o
 .debug_abbrev  0x00010f2c       0x4b build/obj/usbd_desc.o
 .debug_abbrev  0x00010f77      0x2d6 build/obj/btle.o
 .debug_abbrev  0x0001124d      0x213 build/obj/main.o

.debug_aranges  0x00000000     0x1118
 .debug_aranges
                0x00000000       0x20 build/obj/crt0_v7m.o
 .debug_aranges
                0x00000020       0x20 build/obj/chcoreasm_v7m.o
 .debug_aranges
                0x00000040       0x20 build/obj/crt1.o
 .debug_aranges
                0x00000060       0x20 build/obj/vectors.o
 .debug_aranges
                0x00000080       0x20 build/obj/chsys.o
 .debug_aranges
                0x000000a0       0x18 build/obj/chdebug.o
 .debug_aranges
                0x000000b8       0x20 build/obj/chvt.o
 .debug_aranges
                0x000000d8       0x20 build/obj/chschd.o
 .debug_aranges
                0x000000f8       0x20 build/obj/chthreads.o
 .debug_aranges
                0x00000118       0x20 build/obj/chtm.o
 .debug_aranges
                0x00000138       0x20 build/obj/chdynamic.o
 .debug_aranges
                0x00000158       0x20 build/obj/chregistry.o
 .debug_aranges
                0x00000178       0x20 build/obj/chsem.o
 .debug_aranges
                0x00000198       0x20 build/obj/chmtx.o
 .debug_aranges
                0x000001b8       0x20 build/obj/chcond.o
 .debug_aranges
                0x000001d8       0x20 build/obj/chevents.o
 .debug_aranges
                0x000001f8       0x20 build/obj/chmsg.o
 .debug_aranges
                0x00000218       0x20 build/obj/chmboxes.o
 .debug_aranges
                0x00000238       0x20 build/obj/chqueues.o
 .debug_aranges
                0x00000258       0x20 build/obj/chmemcore.o
 .debug_aranges
                0x00000278       0x20 build/obj/chheap.o
 .debug_aranges
                0x00000298       0x20 build/obj/chmempools.o
 .debug_aranges
                0x000002b8       0x18 build/obj/chcore.o
 .debug_aranges
                0x000002d0       0x20 build/obj/chcore_v7m.o
 .debug_aranges
                0x000002f0       0x20 build/obj/osal.o
 .debug_aranges
                0x00000310       0x20 build/obj/hal.o
 .debug_aranges
                0x00000330       0x20 build/obj/st.o
 .debug_aranges
                0x00000350       0x20 build/obj/hal_buffers.o
 .debug_aranges
                0x00000370       0x18 build/obj/hal_queues.o
 .debug_aranges
                0x00000388       0x20 build/obj/hal_mmcsd.o
 .debug_aranges
                0x000003a8       0x20 build/obj/mmc_spi.o
 .debug_aranges
                0x000003c8       0x20 build/obj/pal.o
 .debug_aranges
                0x000003e8       0x20 build/obj/serial.o
 .debug_aranges
                0x00000408       0x20 build/obj/spi.o
 .debug_aranges
                0x00000428       0x20 build/obj/usb.o
 .debug_aranges
                0x00000448       0x20 build/obj/nvic.o
 .debug_aranges
                0x00000468       0x20 build/obj/hal_lld.o
 .debug_aranges
                0x00000488       0x20 build/obj/stm32_dma.o
 .debug_aranges
                0x000004a8       0x20 build/obj/st_lld.o
 .debug_aranges
                0x000004c8       0x20 build/obj/pal_lld.o
 .debug_aranges
                0x000004e8       0x20 build/obj/usb_lld.o
 .debug_aranges
                0x00000508       0x20 build/obj/spi_lld.o
 .debug_aranges
                0x00000528       0x20 build/obj/serial_lld.o
 .debug_aranges
                0x00000548       0x20 build/obj/board.o
 .debug_aranges
                0x00000568       0x20 build/obj/test.o
 .debug_aranges
                0x00000588       0x20 build/obj/testthd.o
 .debug_aranges
                0x000005a8       0x20 build/obj/testsem.o
 .debug_aranges
                0x000005c8       0x20 build/obj/testmtx.o
 .debug_aranges
                0x000005e8       0x20 build/obj/testmsg.o
 .debug_aranges
                0x00000608       0x20 build/obj/testmbox.o
 .debug_aranges
                0x00000628       0x20 build/obj/testevt.o
 .debug_aranges
                0x00000648       0x20 build/obj/testheap.o
 .debug_aranges
                0x00000668       0x20 build/obj/testpools.o
 .debug_aranges
                0x00000688       0x20 build/obj/testdyn.o
 .debug_aranges
                0x000006a8       0x20 build/obj/testqueues.o
 .debug_aranges
                0x000006c8       0x20 build/obj/testsys.o
 .debug_aranges
                0x000006e8       0x20 build/obj/testbmk.o
 .debug_aranges
                0x00000708       0x20 build/obj/evtimer.o
 .debug_aranges
                0x00000728       0x20 build/obj/memstreams.o
 .debug_aranges
                0x00000748       0x20 build/obj/chprintf.o
 .debug_aranges
                0x00000768       0x20 build/obj/shell.o
 .debug_aranges
                0x00000788       0x20 build/obj/AudioBV_Manager.o
 .debug_aranges
                0x000007a8       0x20 build/obj/MotionCP_Manager.o
 .debug_aranges
                0x000007c8       0x20 build/obj/MotionGR_Manager.o
 .debug_aranges
                0x000007e8       0x20 build/obj/HWAdvanceFeatures.o
 .debug_aranges
                0x00000808       0x20 build/obj/MotionAR_Manager.o
 .debug_aranges
                0x00000828       0x20 build/obj/stm32l4xx_hal_msp.o
 .debug_aranges
                0x00000848       0x20 build/obj/OTA.o
 .debug_aranges
                0x00000868       0x20 build/obj/TargetPlatform.o
 .debug_aranges
                0x00000888       0x20 build/obj/usbd_conf.o
 .debug_aranges
                0x000008a8       0x20 build/obj/sensor_service.o
 .debug_aranges
                0x000008c8       0x20 build/obj/HTS221_Driver_HL.o
 .debug_aranges
                0x000008e8       0x18 build/obj/usbd_cdc_interface.o
 .debug_aranges
                0x00000900       0x20 build/obj/HTS221_Driver.o
 .debug_aranges
                0x00000920       0x20 build/obj/LPS22HB_Driver_HL.o
 .debug_aranges
                0x00000940       0x20 build/obj/LPS22HB_Driver.o
 .debug_aranges
                0x00000960       0x20 build/obj/LSM303AGR_MAG_driver_HL.o
 .debug_aranges
                0x00000980       0x20 build/obj/LSM303AGR_ACC_driver_HL.o
 .debug_aranges
                0x000009a0       0x20 build/obj/LSM303AGR_MAG_driver.o
 .debug_aranges
                0x000009c0       0x20 build/obj/LSM303AGR_ACC_driver.o
 .debug_aranges
                0x000009e0       0x20 build/obj/LSM6DSM_ACC_GYRO_driver.o
 .debug_aranges
                0x00000a00       0x20 build/obj/LSM6DSM_ACC_GYRO_driver_HL.o
 .debug_aranges
                0x00000a20       0x20 build/obj/STC3115_Driver.o
 .debug_aranges
                0x00000a40       0x20 build/obj/SensorTile.o
 .debug_aranges
                0x00000a60       0x20 build/obj/SensorTile_BlueNRG.o
 .debug_aranges
                0x00000a80       0x20 build/obj/SensorTile_accelero.o
 .debug_aranges
                0x00000aa0       0x20 build/obj/SensorTile_audio_in.o
 .debug_aranges
                0x00000ac0       0x20 build/obj/SensorTile_gg.o
 .debug_aranges
                0x00000ae0       0x20 build/obj/SensorTile_gyro.o
 .debug_aranges
                0x00000b00       0x20 build/obj/SensorTile_humidity.o
 .debug_aranges
                0x00000b20       0x20 build/obj/SensorTile_magneto.o
 .debug_aranges
                0x00000b40       0x20 build/obj/SensorTile_pressure.o
 .debug_aranges
                0x00000b60       0x20 build/obj/SensorTile_temperature.o
 .debug_aranges
                0x00000b80       0x20 build/obj/stm32l4xx_hal.o
 .debug_aranges
                0x00000ba0       0x20 build/obj/stm32l4xx_hal_adc.o
 .debug_aranges
                0x00000bc0       0x20 build/obj/stm32l4xx_hal_cortex.o
 .debug_aranges
                0x00000be0       0x20 build/obj/stm32l4xx_hal_crc.o
 .debug_aranges
                0x00000c00       0x20 build/obj/stm32l4xx_hal_crc_ex.o
 .debug_aranges
                0x00000c20       0x20 build/obj/stm32l4xx_hal_dfsdm.o
 .debug_aranges
                0x00000c40       0x20 build/obj/stm32l4xx_hal_dma.o
 .debug_aranges
                0x00000c60       0x20 build/obj/stm32l4xx_hal_flash.o
 .debug_aranges
                0x00000c80       0x20 build/obj/stm32l4xx_hal_flash_ex.o
 .debug_aranges
                0x00000ca0       0x20 build/obj/stm32l4xx_hal_gpio.o
 .debug_aranges
                0x00000cc0       0x20 build/obj/stm32l4xx_hal_i2c.o
 .debug_aranges
                0x00000ce0       0x20 build/obj/stm32l4xx_hal_i2c_ex.o
 .debug_aranges
                0x00000d00       0x20 build/obj/stm32l4xx_hal_pcd.o
 .debug_aranges
                0x00000d20       0x20 build/obj/stm32l4xx_hal_pcd_ex.o
 .debug_aranges
                0x00000d40       0x20 build/obj/stm32l4xx_hal_pwr.o
 .debug_aranges
                0x00000d60       0x20 build/obj/stm32l4xx_hal_pwr_ex.o
 .debug_aranges
                0x00000d80       0x20 build/obj/stm32l4xx_hal_rcc.o
 .debug_aranges
                0x00000da0       0x20 build/obj/stm32l4xx_hal_rcc_ex.o
 .debug_aranges
                0x00000dc0       0x20 build/obj/stm32l4xx_hal_rtc.o
 .debug_aranges
                0x00000de0       0x20 build/obj/stm32l4xx_hal_rtc_ex.o
 .debug_aranges
                0x00000e00       0x20 build/obj/stm32l4xx_hal_spi.o
 .debug_aranges
                0x00000e20       0x20 build/obj/stm32l4xx_hal_spi_ex.o
 .debug_aranges
                0x00000e40       0x20 build/obj/stm32l4xx_hal_tim.o
 .debug_aranges
                0x00000e60       0x20 build/obj/stm32l4xx_hal_tim_ex.o
 .debug_aranges
                0x00000e80       0x20 build/obj/stm32l4xx_hal_uart.o
 .debug_aranges
                0x00000ea0       0x20 build/obj/stm32l4xx_hal_uart_ex.o
 .debug_aranges
                0x00000ec0       0x20 build/obj/stm32l4xx_ll_usb.o
 .debug_aranges
                0x00000ee0       0x20 build/obj/bluenrg_gap_aci.o
 .debug_aranges
                0x00000f00       0x20 build/obj/bluenrg_gatt_aci.o
 .debug_aranges
                0x00000f20       0x20 build/obj/bluenrg_hal_aci.o
 .debug_aranges
                0x00000f40       0x20 build/obj/bluenrg_l2cap_aci.o
 .debug_aranges
                0x00000f60       0x20 build/obj/bluenrg_updater_aci.o
 .debug_aranges
                0x00000f80       0x20 build/obj/bluenrg_utils.o
 .debug_aranges
                0x00000fa0       0x20 build/obj/hci.o
 .debug_aranges
                0x00000fc0       0x20 build/obj/ble_list.o
 .debug_aranges
                0x00000fe0       0x20 build/obj/gp_timer.o
 .debug_aranges
                0x00001000       0x20 build/obj/MetaDataManager.o
 .debug_aranges
                0x00001020       0x20 build/obj/usbd_cdc.o
 .debug_aranges
                0x00001040       0x20 build/obj/usbd_core.o
 .debug_aranges
                0x00001060       0x20 build/obj/usbd_ctlreq.o
 .debug_aranges
                0x00001080       0x20 build/obj/usbd_ioreq.o
 .debug_aranges
                0x000010a0       0x20 build/obj/MotionFX_Manager.o
 .debug_aranges
                0x000010c0       0x18 build/obj/usbd_desc.o
 .debug_aranges
                0x000010d8       0x20 build/obj/btle.o
 .debug_aranges
                0x000010f8       0x20 build/obj/main.o

.debug_str      0x00000000    0x2366b
 .debug_str     0x00000000      0x482 build/obj/crt1.o
                                0x4e0 (size before relaxing)
 .debug_str     0x00000482      0x16b build/obj/vectors.o
                                0x37d (size before relaxing)
 .debug_str     0x000005ed      0xd3c build/obj/chsys.o
                                0xfdd (size before relaxing)
 .debug_str     0x00001329       0x2e build/obj/chdebug.o
                                0x59e (size before relaxing)
 .debug_str     0x00001357       0x59 build/obj/chvt.o
                                0x5d8 (size before relaxing)
 .debug_str     0x000013b0      0x153 build/obj/chschd.o
                                0x760 (size before relaxing)
 .debug_str     0x00001503      0x23d build/obj/chthreads.o
                                0x84f (size before relaxing)
 .debug_str     0x00001740       0xd6 build/obj/chtm.o
                                0x716 (size before relaxing)
 .debug_str     0x00001816      0x10d build/obj/chdynamic.o
                                0x6f4 (size before relaxing)
 .debug_str     0x00001923       0x52 build/obj/chregistry.o
                                0x715 (size before relaxing)
 .debug_str     0x00001975       0xd7 build/obj/chsem.o
                                0x6cb (size before relaxing)
 .debug_str     0x00001a4c       0xba build/obj/chmtx.o
                                0x6bb (size before relaxing)
 .debug_str     0x00001b06       0xf9 build/obj/chcond.o
                                0x709 (size before relaxing)
 .debug_str     0x00001bff      0x201 build/obj/chevents.o
                                0x7d3 (size before relaxing)
 .debug_str     0x00001e00       0x6b build/obj/chmsg.o
                                0x649 (size before relaxing)
 .debug_str     0x00001e6b      0x125 build/obj/chmboxes.o
                                0x6f2 (size before relaxing)
 .debug_str     0x00001f90      0x179 build/obj/chqueues.o
                                0x766 (size before relaxing)
 .debug_str     0x00002109       0x84 build/obj/chmemcore.o
                                0x654 (size before relaxing)
 .debug_str     0x0000218d       0x80 build/obj/chheap.o
                                0x666 (size before relaxing)
 .debug_str     0x0000220d       0x8c build/obj/chmempools.o
                                0x6b1 (size before relaxing)
 .debug_str     0x00002299       0x36 build/obj/chcore.o
                                0x5a6 (size before relaxing)
 .debug_str     0x000022cf       0x99 build/obj/chcore_v7m.o
                                0x6c0 (size before relaxing)
 .debug_str     0x00002368       0x4d build/obj/osal.o
                                0x5c8 (size before relaxing)
 .debug_str     0x000023b5       0xd4 build/obj/hal.o
                                0x64a (size before relaxing)
 .debug_str     0x00002489       0xe4 build/obj/st.o
                                0x66f (size before relaxing)
 .debug_str     0x0000256d      0x2e7 build/obj/hal_buffers.o
                                0x91e (size before relaxing)
 .debug_str     0x00002854       0x32 build/obj/hal_queues.o
                                0x5a8 (size before relaxing)
 .debug_str     0x00002886      0x42a build/obj/hal_mmcsd.o
                                0xa01 (size before relaxing)
 .debug_str     0x00002cb0      0x369 build/obj/mmc_spi.o
                                0xaae (size before relaxing)
 .debug_str     0x00003019       0x80 build/obj/pal.o
                                0x675 (size before relaxing)
 .debug_str     0x00003099      0x187 build/obj/serial.o
                                0x8ee (size before relaxing)
 .debug_str     0x00003220      0x13b build/obj/spi.o
                                0x8df (size before relaxing)
 .debug_str     0x0000335b      0x7b3 build/obj/usb.o
                                0xe57 (size before relaxing)
 .debug_str     0x00003b0e       0x8d build/obj/nvic.o
                                0x6d0 (size before relaxing)
 .debug_str     0x00003b9b      0x274 build/obj/hal_lld.o
                                0x837 (size before relaxing)
 .debug_str     0x00003e0f      0x17f build/obj/stm32_dma.o
                                0x8db (size before relaxing)
 .debug_str     0x00003f8e       0x88 build/obj/st_lld.o
                                0x6a1 (size before relaxing)
 .debug_str     0x00004016       0x83 build/obj/pal_lld.o
                                0x85a (size before relaxing)
 .debug_str     0x00004099      0x32c build/obj/usb_lld.o
                               0x11b2 (size before relaxing)
 .debug_str     0x000043c5      0x166 build/obj/spi_lld.o
                                0xaf9 (size before relaxing)
 .debug_str     0x0000452b       0x9f build/obj/serial_lld.o
                                0xa1e (size before relaxing)
 .debug_str     0x000045ca       0x7c build/obj/board.o
                                0x98c (size before relaxing)
 .debug_str     0x00004646      0x2b4 build/obj/test.o
                                0x90f (size before relaxing)
 .debug_str     0x000048fa       0x96 build/obj/testthd.o
                                0x6da (size before relaxing)
 .debug_str     0x00004990      0x157 build/obj/testsem.o
                                0x7c4 (size before relaxing)
 .debug_str     0x00004ae7      0x11f build/obj/testmtx.o
                                0x788 (size before relaxing)
 .debug_str     0x00004c06       0x4b build/obj/testmsg.o
                                0x621 (size before relaxing)
 .debug_str     0x00004c51       0x7a build/obj/testmbox.o
                                0x6ea (size before relaxing)
 .debug_str     0x00004ccb       0xc9 build/obj/testevt.o
                                0x7df (size before relaxing)
 .debug_str     0x00004d94       0x5b build/obj/testheap.o
                                0x67c (size before relaxing)
 .debug_str     0x00004def       0x63 build/obj/testpools.o
                                0x663 (size before relaxing)
 .debug_str     0x00004e52       0x9d build/obj/testdyn.o
                                0x742 (size before relaxing)
 .debug_str     0x00004eef       0xad build/obj/testqueues.o
                                0x7ae (size before relaxing)
 .debug_str     0x00004f9c       0xe5 build/obj/testsys.o
                                0x7e0 (size before relaxing)
 .debug_str     0x00005081      0x1a6 build/obj/testbmk.o
                                0x895 (size before relaxing)
 .debug_str     0x00005227       0x82 build/obj/evtimer.o
                                0x769 (size before relaxing)
 .debug_str     0x000052a9       0x68 build/obj/memstreams.o
                                0x602 (size before relaxing)
 .debug_str     0x00005311      0x102 build/obj/chprintf.o
                                0x6ed (size before relaxing)
 .debug_str     0x00005413      0x13e build/obj/shell.o
                                0x83d (size before relaxing)
 .debug_str     0x00005551      0x45f build/obj/AudioBV_Manager.o
                                0x68f (size before relaxing)
 .debug_str     0x000059b0      0x1c5 build/obj/MotionCP_Manager.o
                                0x600 (size before relaxing)
 .debug_str     0x00005b75      0x11b build/obj/MotionGR_Manager.o
                                0x5ca (size before relaxing)
 .debug_str     0x00005c90      0x3d6 build/obj/HWAdvanceFeatures.o
                                0xb1e (size before relaxing)
 .debug_str     0x00006066      0x14b build/obj/MotionAR_Manager.o
                                0x5fa (size before relaxing)
 .debug_str     0x000061b1      0x84b build/obj/stm32l4xx_hal_msp.o
                               0x1236 (size before relaxing)
 .debug_str     0x000069fc      0x174 build/obj/OTA.o
                                0x5bc (size before relaxing)
 .debug_str     0x00006b70      0x26d build/obj/TargetPlatform.o
                                0xad7 (size before relaxing)
 .debug_str     0x00006ddd      0x596 build/obj/usbd_conf.o
                                0xf81 (size before relaxing)
 .debug_str     0x00007373      0x9bf build/obj/sensor_service.o
                               0x19b1 (size before relaxing)
 .debug_str     0x00007d32      0x5d4 build/obj/HTS221_Driver_HL.o
                                0x900 (size before relaxing)
 .debug_str     0x00008306       0x55 build/obj/usbd_cdc_interface.o
                                0x5cb (size before relaxing)
 .debug_str     0x0000835b      0x63c build/obj/HTS221_Driver.o
                                0x966 (size before relaxing)
 .debug_str     0x00008997      0x8c7 build/obj/LPS22HB_Driver_HL.o
                                0xe8b (size before relaxing)
 .debug_str     0x0000925e      0xa41 build/obj/LPS22HB_Driver.o
                                0xfe1 (size before relaxing)
 .debug_str     0x00009c9f      0x4a4 build/obj/LSM303AGR_MAG_driver_HL.o
                                0x928 (size before relaxing)
 .debug_str     0x0000a143      0x81f build/obj/LSM303AGR_ACC_driver_HL.o
                                0xd68 (size before relaxing)
 .debug_str     0x0000a962     0x112e build/obj/LSM303AGR_MAG_driver.o
                               0x1502 (size before relaxing)
 .debug_str     0x0000ba90     0x2d56 build/obj/LSM303AGR_ACC_driver.o
                               0x339c (size before relaxing)
 .debug_str     0x0000e7e6     0x6a99 build/obj/LSM6DSM_ACC_GYRO_driver.o
                               0x6e07 (size before relaxing)
 .debug_str     0x0001527f      0xa4e build/obj/LSM6DSM_ACC_GYRO_driver_HL.o
                               0x2518 (size before relaxing)
 .debug_str     0x00015ccd      0x3cc build/obj/STC3115_Driver.o
                                0x80b (size before relaxing)
 .debug_str     0x00016099      0xad8 build/obj/SensorTile.o
                               0x1786 (size before relaxing)
 .debug_str     0x00016b71      0x220 build/obj/SensorTile_BlueNRG.o
                                0xf1e (size before relaxing)
 .debug_str     0x00016d91      0x8dc build/obj/SensorTile_accelero.o
                               0x13e5 (size before relaxing)
 .debug_str     0x0001766d      0x7e4 build/obj/SensorTile_audio_in.o
                               0x15c0 (size before relaxing)
 .debug_str     0x00017e51      0x176 build/obj/SensorTile_gg.o
                                0x6e5 (size before relaxing)
 .debug_str     0x00017fc7      0x26c build/obj/SensorTile_gyro.o
                                0x83a (size before relaxing)
 .debug_str     0x00018233      0x22b build/obj/SensorTile_humidity.o
                                0x6d7 (size before relaxing)
 .debug_str     0x0001845e      0x28f build/obj/SensorTile_magneto.o
                                0x829 (size before relaxing)
 .debug_str     0x000186ed      0x22f build/obj/SensorTile_pressure.o
                                0x717 (size before relaxing)
 .debug_str     0x0001891c      0x29c build/obj/SensorTile_temperature.o
                                0x7fb (size before relaxing)
 .debug_str     0x00018bb8      0x35e build/obj/stm32l4xx_hal.o
                                0xc6b (size before relaxing)
 .debug_str     0x00018f16      0x671 build/obj/stm32l4xx_hal_adc.o
                                0xba8 (size before relaxing)
 .debug_str     0x00019587      0x316 build/obj/stm32l4xx_hal_cortex.o
                                0xc50 (size before relaxing)
 .debug_str     0x0001989d       0xbe build/obj/stm32l4xx_hal_crc.o
                                0x4fd (size before relaxing)
 .debug_str     0x0001995b       0xc9 build/obj/stm32l4xx_hal_crc_ex.o
                                0x4d3 (size before relaxing)
 .debug_str     0x00019a24      0x86a build/obj/stm32l4xx_hal_dfsdm.o
                               0x12a2 (size before relaxing)
 .debug_str     0x0001a28e      0x23c build/obj/stm32l4xx_hal_dma.o
                                0x6aa (size before relaxing)
 .debug_str     0x0001a4ca      0x28c build/obj/stm32l4xx_hal_flash.o
                                0x606 (size before relaxing)
 .debug_str     0x0001a756      0x261 build/obj/stm32l4xx_hal_flash_ex.o
                                0x6ca (size before relaxing)
 .debug_str     0x0001a9b7      0x114 build/obj/stm32l4xx_hal_gpio.o
                                0x5d0 (size before relaxing)
 .debug_str     0x0001aacb      0x7a4 build/obj/stm32l4xx_hal_i2c.o
                                0xee4 (size before relaxing)
 .debug_str     0x0001b26f       0xff build/obj/stm32l4xx_hal_i2c_ex.o
                                0x984 (size before relaxing)
 .debug_str     0x0001b36e      0x313 build/obj/stm32l4xx_hal_pcd.o
                                0xb32 (size before relaxing)
 .debug_str     0x0001b681      0x1e3 build/obj/stm32l4xx_hal_pcd_ex.o
                                0x91c (size before relaxing)
 .debug_str     0x0001b864      0x21f build/obj/stm32l4xx_hal_pwr.o
                                0x6d7 (size before relaxing)
 .debug_str     0x0001ba83      0x496 build/obj/stm32l4xx_hal_pwr_ex.o
                                0x86e (size before relaxing)
 .debug_str     0x0001bf19      0x348 build/obj/stm32l4xx_hal_rcc.o
                                0x8a9 (size before relaxing)
 .debug_str     0x0001c261      0x2c4 build/obj/stm32l4xx_hal_rcc_ex.o
                                0xa84 (size before relaxing)
 .debug_str     0x0001c525      0x4e8 build/obj/stm32l4xx_hal_rtc.o
                                0x826 (size before relaxing)
 .debug_str     0x0001ca0d      0x5be build/obj/stm32l4xx_hal_rtc_ex.o
                                0xbb3 (size before relaxing)
 .debug_str     0x0001cfcb      0x49b build/obj/stm32l4xx_hal_spi.o
                                0xb31 (size before relaxing)
 .debug_str     0x0001d466       0x5d build/obj/stm32l4xx_hal_spi_ex.o
                                0x69f (size before relaxing)
 .debug_str     0x0001d4c3      0xcf5 build/obj/stm32l4xx_hal_tim.o
                               0x13d3 (size before relaxing)
 .debug_str     0x0001e1b8      0x656 build/obj/stm32l4xx_hal_tim_ex.o
                                0xdaf (size before relaxing)
 .debug_str     0x0001e80e      0x760 build/obj/stm32l4xx_hal_uart.o
                                0xdf7 (size before relaxing)
 .debug_str     0x0001ef6e      0x16c build/obj/stm32l4xx_hal_uart_ex.o
                                0x87b (size before relaxing)
 .debug_str     0x0001f0da      0x593 build/obj/stm32l4xx_ll_usb.o
                                0xc82 (size before relaxing)
 .debug_str     0x0001f66d        0x0 build/obj/bluenrg_itf_template.o
 .debug_str     0x0001f66d      0xdf3 build/obj/bluenrg_gap_aci.o
                               0x182a (size before relaxing)
 .debug_str     0x00020460      0xc25 build/obj/bluenrg_gatt_aci.o
                               0x1689 (size before relaxing)
 .debug_str     0x00021085      0x269 build/obj/bluenrg_hal_aci.o
                                0x957 (size before relaxing)
 .debug_str     0x000212ee      0x1cd build/obj/bluenrg_l2cap_aci.o
                                0x80e (size before relaxing)
 .debug_str     0x000214bb      0x232 build/obj/bluenrg_updater_aci.o
                                0x8e8 (size before relaxing)
 .debug_str     0x000216ed      0x316 build/obj/bluenrg_utils.o
                                0x8f2 (size before relaxing)
 .debug_str     0x00021a03      0x8ed build/obj/hci.o
                               0x1859 (size before relaxing)
 .debug_str     0x000222f0      0x175 build/obj/ble_list.o
                                0x3d4 (size before relaxing)
 .debug_str     0x00022465       0x96 build/obj/gp_timer.o
                                0x2c0 (size before relaxing)
 .debug_str     0x000224fb      0x3e3 build/obj/MetaDataManager.o
                                0x82a (size before relaxing)
 .debug_str     0x000228de      0x28a build/obj/usbd_cdc.o
                                0x89d (size before relaxing)
 .debug_str     0x00022b68      0x1ba build/obj/usbd_core.o
                                0x7b6 (size before relaxing)
 .debug_str     0x00022d22      0x132 build/obj/usbd_ctlreq.o
                                0x73c (size before relaxing)
 .debug_str     0x00022e54       0xd5 build/obj/usbd_ioreq.o
                                0x6c4 (size before relaxing)
 .debug_str     0x00022f29      0x345 build/obj/MotionFX_Manager.o
                                0x86f (size before relaxing)
 .debug_str     0x0002326e       0x4c build/obj/usbd_desc.o
                                0x248 (size before relaxing)
 .debug_str     0x000232ba      0x354 build/obj/btle.o
                               0x1d3f (size before relaxing)
 .debug_str     0x0002360e       0x5d build/obj/main.o
                                0x8b9 (size before relaxing)

.debug_frame    0x00000000    0x1608c
 .debug_frame   0x00000000       0x64 build/obj/crt1.o
 .debug_frame   0x00000064       0x20 build/obj/vectors.o
 .debug_frame   0x00000084      0x2f0 build/obj/chsys.o
 .debug_frame   0x00000374       0x48 build/obj/chvt.o
 .debug_frame   0x000003bc      0x240 build/obj/chschd.o
 .debug_frame   0x000005fc      0x410 build/obj/chthreads.o
 .debug_frame   0x00000a0c       0xb8 build/obj/chtm.o
 .debug_frame   0x00000ac4       0xe0 build/obj/chdynamic.o
 .debug_frame   0x00000ba4       0xa8 build/obj/chregistry.o
 .debug_frame   0x00000c4c      0x1f4 build/obj/chsem.o
 .debug_frame   0x00000e40      0x1c8 build/obj/chmtx.o
 .debug_frame   0x00001008      0x1e8 build/obj/chcond.o
 .debug_frame   0x000011f0      0x244 build/obj/chevents.o
 .debug_frame   0x00001434      0x11c build/obj/chmsg.o
 .debug_frame   0x00001550      0x1e8 build/obj/chmboxes.o
 .debug_frame   0x00001738      0x208 build/obj/chqueues.o
 .debug_frame   0x00001940       0xc0 build/obj/chmemcore.o
 .debug_frame   0x00001a00       0x9c build/obj/chheap.o
 .debug_frame   0x00001a9c      0x124 build/obj/chmempools.o
 .debug_frame   0x00001bc0       0xa8 build/obj/chcore_v7m.o
 .debug_frame   0x00001c68       0x48 build/obj/osal.o
 .debug_frame   0x00001cb0       0x3c build/obj/hal.o
 .debug_frame   0x00001cec       0xe4 build/obj/st.o
 .debug_frame   0x00001dd0      0x3c4 build/obj/hal_buffers.o
 .debug_frame   0x00002194       0xe0 build/obj/hal_mmcsd.o
 .debug_frame   0x00002274      0x370 build/obj/mmc_spi.o
 .debug_frame   0x000025e4       0x54 build/obj/pal.o
 .debug_frame   0x00002638      0x2f8 build/obj/serial.o
 .debug_frame   0x00002930      0x2d8 build/obj/spi.o
 .debug_frame   0x00002c08      0x378 build/obj/usb.o
 .debug_frame   0x00002f80       0x60 build/obj/nvic.o
 .debug_frame   0x00002fe0       0x50 build/obj/hal_lld.o
 .debug_frame   0x00003030      0x1e4 build/obj/stm32_dma.o
 .debug_frame   0x00003214      0x134 build/obj/st_lld.o
 .debug_frame   0x00003348       0x54 build/obj/pal_lld.o
 .debug_frame   0x0000339c      0x504 build/obj/usb_lld.o
 .debug_frame   0x000038a0      0x298 build/obj/spi_lld.o
 .debug_frame   0x00003b38      0x1f4 build/obj/serial_lld.o
 .debug_frame   0x00003d2c       0x64 build/obj/board.o
 .debug_frame   0x00003d90      0x310 build/obj/test.o
 .debug_frame   0x000040a0      0x154 build/obj/testthd.o
 .debug_frame   0x000041f4      0x2c4 build/obj/testsem.o
 .debug_frame   0x000044b8      0x2a8 build/obj/testmtx.o
 .debug_frame   0x00004760       0x8c build/obj/testmsg.o
 .debug_frame   0x000047ec       0xf4 build/obj/testmbox.o
 .debug_frame   0x000048e0      0x260 build/obj/testevt.o
 .debug_frame   0x00004b40       0x48 build/obj/testheap.o
 .debug_frame   0x00004b88       0x5c build/obj/testpools.o
 .debug_frame   0x00004be4      0x11c build/obj/testdyn.o
 .debug_frame   0x00004d00      0x208 build/obj/testqueues.o
 .debug_frame   0x00004f08      0x2d4 build/obj/testsys.o
 .debug_frame   0x000051dc      0x364 build/obj/testbmk.o
 .debug_frame   0x00005540      0x1e0 build/obj/evtimer.o
 .debug_frame   0x00005720       0x84 build/obj/memstreams.o
 .debug_frame   0x000057a4       0xa8 build/obj/chprintf.o
 .debug_frame   0x0000584c      0x230 build/obj/shell.o
 .debug_frame   0x00005a7c       0x4c build/obj/AudioBV_Manager.o
 .debug_frame   0x00005ac8       0x5c build/obj/MotionCP_Manager.o
 .debug_frame   0x00005b24       0x5c build/obj/MotionGR_Manager.o
 .debug_frame   0x00005b80      0x224 build/obj/HWAdvanceFeatures.o
 .debug_frame   0x00005da4       0x5c build/obj/MotionAR_Manager.o
 .debug_frame   0x00005e00       0xa0 build/obj/stm32l4xx_hal_msp.o
 .debug_frame   0x00005ea0       0x70 build/obj/OTA.o
 .debug_frame   0x00005f10      0x150 build/obj/TargetPlatform.o
 .debug_frame   0x00006060      0x2e0 build/obj/usbd_conf.o
 .debug_frame   0x00006340      0x38c build/obj/sensor_service.o
 .debug_frame   0x000066cc      0x438 build/obj/HTS221_Driver_HL.o
 .debug_frame   0x00006b04      0x430 build/obj/HTS221_Driver.o
 .debug_frame   0x00006f34      0x5d4 build/obj/LPS22HB_Driver_HL.o
 .debug_frame   0x00007508      0x708 build/obj/LPS22HB_Driver.o
 .debug_frame   0x00007c10      0x204 build/obj/LSM303AGR_MAG_driver_HL.o
 .debug_frame   0x00007e14      0x318 build/obj/LSM303AGR_ACC_driver_HL.o
 .debug_frame   0x0000812c      0x87c build/obj/LSM303AGR_MAG_driver.o
 .debug_frame   0x000089a8     0x1518 build/obj/LSM303AGR_ACC_driver.o
 .debug_frame   0x00009ec0     0x211c build/obj/LSM6DSM_ACC_GYRO_driver.o
 .debug_frame   0x0000bfdc      0x8a4 build/obj/LSM6DSM_ACC_GYRO_driver_HL.o
 .debug_frame   0x0000c880      0x304 build/obj/STC3115_Driver.o
 .debug_frame   0x0000cb84      0x484 build/obj/SensorTile.o
 .debug_frame   0x0000d008      0x1a4 build/obj/SensorTile_BlueNRG.o
 .debug_frame   0x0000d1ac      0x6b8 build/obj/SensorTile_accelero.o
 .debug_frame   0x0000d864      0x1dc build/obj/SensorTile_audio_in.o
 .debug_frame   0x0000da40      0x1a4 build/obj/SensorTile_gg.o
 .debug_frame   0x0000dbe4      0x2ac build/obj/SensorTile_gyro.o
 .debug_frame   0x0000de90      0x1e8 build/obj/SensorTile_humidity.o
 .debug_frame   0x0000e078      0x274 build/obj/SensorTile_magneto.o
 .debug_frame   0x0000e2ec      0x1e8 build/obj/SensorTile_pressure.o
 .debug_frame   0x0000e4d4      0x204 build/obj/SensorTile_temperature.o
 .debug_frame   0x0000e6d8      0x228 build/obj/stm32l4xx_hal.o
 .debug_frame   0x0000e900      0x2d8 build/obj/stm32l4xx_hal_adc.o
 .debug_frame   0x0000ebd8      0x2cc build/obj/stm32l4xx_hal_cortex.o
 .debug_frame   0x0000eea4       0xe4 build/obj/stm32l4xx_hal_crc.o
 .debug_frame   0x0000ef88       0x4c build/obj/stm32l4xx_hal_crc_ex.o
 .debug_frame   0x0000efd4      0x6a0 build/obj/stm32l4xx_hal_dfsdm.o
 .debug_frame   0x0000f674      0x13c build/obj/stm32l4xx_hal_dma.o
 .debug_frame   0x0000f7b0      0x154 build/obj/stm32l4xx_hal_flash.o
 .debug_frame   0x0000f904      0x174 build/obj/stm32l4xx_hal_flash_ex.o
 .debug_frame   0x0000fa78       0xb8 build/obj/stm32l4xx_hal_gpio.o
 .debug_frame   0x0000fb30      0x764 build/obj/stm32l4xx_hal_i2c.o
 .debug_frame   0x00010294       0x88 build/obj/stm32l4xx_hal_i2c_ex.o
 .debug_frame   0x0001031c      0x340 build/obj/stm32l4xx_hal_pcd.o
 .debug_frame   0x0001065c       0xcc build/obj/stm32l4xx_hal_pcd_ex.o
 .debug_frame   0x00010728      0x134 build/obj/stm32l4xx_hal_pwr.o
 .debug_frame   0x0001085c      0x2a8 build/obj/stm32l4xx_hal_pwr_ex.o
 .debug_frame   0x00010b04      0x150 build/obj/stm32l4xx_hal_rcc.o
 .debug_frame   0x00010c54      0x1e0 build/obj/stm32l4xx_hal_rcc_ex.o
 .debug_frame   0x00010e34      0x210 build/obj/stm32l4xx_hal_rtc.o
 .debug_frame   0x00011044      0x374 build/obj/stm32l4xx_hal_rtc_ex.o
 .debug_frame   0x000113b8      0x548 build/obj/stm32l4xx_hal_spi.o
 .debug_frame   0x00011900       0x24 build/obj/stm32l4xx_hal_spi_ex.o
 .debug_frame   0x00011924      0xa60 build/obj/stm32l4xx_hal_tim.o
 .debug_frame   0x00012384      0x3e4 build/obj/stm32l4xx_hal_tim_ex.o
 .debug_frame   0x00012768      0x460 build/obj/stm32l4xx_hal_uart.o
 .debug_frame   0x00012bc8       0xb4 build/obj/stm32l4xx_hal_uart_ex.o
 .debug_frame   0x00012c7c      0x44c build/obj/stm32l4xx_ll_usb.o
 .debug_frame   0x000130c8      0x4a8 build/obj/bluenrg_gap_aci.o
 .debug_frame   0x00013570      0x4e0 build/obj/bluenrg_gatt_aci.o
 .debug_frame   0x00013a50      0x128 build/obj/bluenrg_hal_aci.o
 .debug_frame   0x00013b78       0x64 build/obj/bluenrg_l2cap_aci.o
 .debug_frame   0x00013bdc      0x144 build/obj/bluenrg_updater_aci.o
 .debug_frame   0x00013d20      0x134 build/obj/bluenrg_utils.o
 .debug_frame   0x00013e54      0x494 build/obj/hci.o
 .debug_frame   0x000142e8      0x110 build/obj/ble_list.o
 .debug_frame   0x000143f8       0x94 build/obj/gp_timer.o
 .debug_frame   0x0001448c      0x128 build/obj/MetaDataManager.o
 .debug_frame   0x000145b4      0x174 build/obj/usbd_cdc.o
 .debug_frame   0x00014728      0x200 build/obj/usbd_core.o
 .debug_frame   0x00014928      0x188 build/obj/usbd_ctlreq.o
 .debug_frame   0x00014ab0       0xd4 build/obj/usbd_ioreq.o
 .debug_frame   0x00014b84       0xbc build/obj/MotionFX_Manager.o
 .debug_frame   0x00014c40      0x314 build/obj/btle.o
 .debug_frame   0x00014f54       0x8c build/obj/main.o
 .debug_frame   0x00014fe0       0x30 /nfs/nfs5/home/research/hardware/arm2/gcc-arm-embedded/gcc-arm-none-eabi-4_8-2014q2/bin/../lib/gcc/arm-none-eabi/4.8.4/../../../../arm-none-eabi/lib/armv7e-m/libc.a(lib_a-atoi.o)
 .debug_frame   0x00015010       0x30 /nfs/nfs5/home/research/hardware/arm2/gcc-arm-embedded/gcc-arm-none-eabi-4_8-2014q2/bin/../lib/gcc/arm-none-eabi/4.8.4/../../../../arm-none-eabi/lib/armv7e-m/libc.a(lib_a-malloc.o)
 .debug_frame   0x00015040       0x38 /nfs/nfs5/home/research/hardware/arm2/gcc-arm-embedded/gcc-arm-none-eabi-4_8-2014q2/bin/../lib/gcc/arm-none-eabi/4.8.4/../../../../arm-none-eabi/lib/armv7e-m/libc.a(lib_a-mallocr.o)
 .debug_frame   0x00015078       0x2c /nfs/nfs5/home/research/hardware/arm2/gcc-arm-embedded/gcc-arm-none-eabi-4_8-2014q2/bin/../lib/gcc/arm-none-eabi/4.8.4/../../../../arm-none-eabi/lib/armv7e-m/libc.a(lib_a-memcmp.o)
 .debug_frame   0x000150a4       0x2c /nfs/nfs5/home/research/hardware/arm2/gcc-arm-embedded/gcc-arm-none-eabi-4_8-2014q2/bin/../lib/gcc/arm-none-eabi/4.8.4/../../../../arm-none-eabi/lib/armv7e-m/libc.a(lib_a-memset.o)
 .debug_frame   0x000150d0       0x30 /nfs/nfs5/home/research/hardware/arm2/gcc-arm-embedded/gcc-arm-none-eabi-4_8-2014q2/bin/../lib/gcc/arm-none-eabi/4.8.4/../../../../arm-none-eabi/lib/armv7e-m/libc.a(lib_a-mlock.o)
 .debug_frame   0x00015100       0x58 /nfs/nfs5/home/research/hardware/arm2/gcc-arm-embedded/gcc-arm-none-eabi-4_8-2014q2/bin/../lib/gcc/arm-none-eabi/4.8.4/../../../../arm-none-eabi/lib/armv7e-m/libc.a(lib_a-printf.o)
 .debug_frame   0x00015158       0x2c /nfs/nfs5/home/research/hardware/arm2/gcc-arm-embedded/gcc-arm-none-eabi-4_8-2014q2/bin/../lib/gcc/arm-none-eabi/4.8.4/../../../../arm-none-eabi/lib/armv7e-m/libc.a(lib_a-sbrkr.o)
 .debug_frame   0x00015184       0x64 /nfs/nfs5/home/research/hardware/arm2/gcc-arm-embedded/gcc-arm-none-eabi-4_8-2014q2/bin/../lib/gcc/arm-none-eabi/4.8.4/../../../../arm-none-eabi/lib/armv7e-m/libc.a(lib_a-sprintf.o)
 .debug_frame   0x000151e8       0x28 /nfs/nfs5/home/research/hardware/arm2/gcc-arm-embedded/gcc-arm-none-eabi-4_8-2014q2/bin/../lib/gcc/arm-none-eabi/4.8.4/../../../../arm-none-eabi/lib/armv7e-m/libc.a(lib_a-strncmp.o)
 .debug_frame   0x00015210       0x2c /nfs/nfs5/home/research/hardware/arm2/gcc-arm-embedded/gcc-arm-none-eabi-4_8-2014q2/bin/../lib/gcc/arm-none-eabi/4.8.4/../../../../arm-none-eabi/lib/armv7e-m/libc.a(lib_a-strpbrk.o)
 .debug_frame   0x0001523c       0x2c /nfs/nfs5/home/research/hardware/arm2/gcc-arm-embedded/gcc-arm-none-eabi-4_8-2014q2/bin/../lib/gcc/arm-none-eabi/4.8.4/../../../../arm-none-eabi/lib/armv7e-m/libc.a(lib_a-strspn.o)
 .debug_frame   0x00015268       0x50 /nfs/nfs5/home/research/hardware/arm2/gcc-arm-embedded/gcc-arm-none-eabi-4_8-2014q2/bin/../lib/gcc/arm-none-eabi/4.8.4/../../../../arm-none-eabi/lib/armv7e-m/libc.a(lib_a-strtol.o)
 .debug_frame   0x000152b8       0x3c /nfs/nfs5/home/research/hardware/arm2/gcc-arm-embedded/gcc-arm-none-eabi-4_8-2014q2/bin/../lib/gcc/arm-none-eabi/4.8.4/../../../../arm-none-eabi/lib/armv7e-m/libc.a(lib_a-svfprintf.o)
 .debug_frame   0x000152f4       0x7c /nfs/nfs5/home/research/hardware/arm2/gcc-arm-embedded/gcc-arm-none-eabi-4_8-2014q2/bin/../lib/gcc/arm-none-eabi/4.8.4/../../../../arm-none-eabi/lib/armv7e-m/libc.a(lib_a-vfprintf.o)
 .debug_frame   0x00015370       0x2c /nfs/nfs5/home/research/hardware/arm2/gcc-arm-embedded/gcc-arm-none-eabi-4_8-2014q2/bin/../lib/gcc/arm-none-eabi/4.8.4/../../../../arm-none-eabi/lib/armv7e-m/libc.a(lib_a-wsetup.o)
 .debug_frame   0x0001539c       0x64 /nfs/nfs5/home/research/hardware/arm2/gcc-arm-embedded/gcc-arm-none-eabi-4_8-2014q2/bin/../lib/gcc/arm-none-eabi/4.8.4/../../../../arm-none-eabi/lib/armv7e-m/libc.a(lib_a-dtoa.o)
 .debug_frame   0x00015400       0x5c /nfs/nfs5/home/research/hardware/arm2/gcc-arm-embedded/gcc-arm-none-eabi-4_8-2014q2/bin/../lib/gcc/arm-none-eabi/4.8.4/../../../../arm-none-eabi/lib/armv7e-m/libc.a(lib_a-fflush.o)
 .debug_frame   0x0001545c      0x110 /nfs/nfs5/home/research/hardware/arm2/gcc-arm-embedded/gcc-arm-none-eabi-4_8-2014q2/bin/../lib/gcc/arm-none-eabi/4.8.4/../../../../arm-none-eabi/lib/armv7e-m/libc.a(lib_a-findfp.o)
 .debug_frame   0x0001556c       0x50 /nfs/nfs5/home/research/hardware/arm2/gcc-arm-embedded/gcc-arm-none-eabi-4_8-2014q2/bin/../lib/gcc/arm-none-eabi/4.8.4/../../../../arm-none-eabi/lib/armv7e-m/libc.a(lib_a-freer.o)
 .debug_frame   0x000155bc       0x54 /nfs/nfs5/home/research/hardware/arm2/gcc-arm-embedded/gcc-arm-none-eabi-4_8-2014q2/bin/../lib/gcc/arm-none-eabi/4.8.4/../../../../arm-none-eabi/lib/armv7e-m/libc.a(lib_a-fwalk.o)
 .debug_frame   0x00015610       0x98 /nfs/nfs5/home/research/hardware/arm2/gcc-arm-embedded/gcc-arm-none-eabi-4_8-2014q2/bin/../lib/gcc/arm-none-eabi/4.8.4/../../../../arm-none-eabi/lib/armv7e-m/libc.a(lib_a-locale.o)
 .debug_frame   0x000156a8       0x30 /nfs/nfs5/home/research/hardware/arm2/gcc-arm-embedded/gcc-arm-none-eabi-4_8-2014q2/bin/../lib/gcc/arm-none-eabi/4.8.4/../../../../arm-none-eabi/lib/armv7e-m/libc.a(lib_a-makebuf.o)
 .debug_frame   0x000156d8       0x2c /nfs/nfs5/home/research/hardware/arm2/gcc-arm-embedded/gcc-arm-none-eabi-4_8-2014q2/bin/../lib/gcc/arm-none-eabi/4.8.4/../../../../arm-none-eabi/lib/armv7e-m/libc.a(lib_a-memchr-stub.o)
 .debug_frame   0x00015704      0x22c /nfs/nfs5/home/research/hardware/arm2/gcc-arm-embedded/gcc-arm-none-eabi-4_8-2014q2/bin/../lib/gcc/arm-none-eabi/4.8.4/../../../../arm-none-eabi/lib/armv7e-m/libc.a(lib_a-mprec.o)
 .debug_frame   0x00015930       0x48 /nfs/nfs5/home/research/hardware/arm2/gcc-arm-embedded/gcc-arm-none-eabi-4_8-2014q2/bin/../lib/gcc/arm-none-eabi/4.8.4/../../../../arm-none-eabi/lib/armv7e-m/libc.a(lib_a-reent.o)
 .debug_frame   0x00015978       0x28 /nfs/nfs5/home/research/hardware/arm2/gcc-arm-embedded/gcc-arm-none-eabi-4_8-2014q2/bin/../lib/gcc/arm-none-eabi/4.8.4/../../../../arm-none-eabi/lib/armv7e-m/libc.a(lib_a-s_fpclassify.o)
 .debug_frame   0x000159a0       0x80 /nfs/nfs5/home/research/hardware/arm2/gcc-arm-embedded/gcc-arm-none-eabi-4_8-2014q2/bin/../lib/gcc/arm-none-eabi/4.8.4/../../../../arm-none-eabi/lib/armv7e-m/libc.a(lib_a-stdio.o)
 .debug_frame   0x00015a20       0x20 /nfs/nfs5/home/research/hardware/arm2/gcc-arm-embedded/gcc-arm-none-eabi-4_8-2014q2/bin/../lib/gcc/arm-none-eabi/4.8.4/../../../../arm-none-eabi/lib/armv7e-m/libc.a(lib_a-strlen.o)
 .debug_frame   0x00015a40       0x64 /nfs/nfs5/home/research/hardware/arm2/gcc-arm-embedded/gcc-arm-none-eabi-4_8-2014q2/bin/../lib/gcc/arm-none-eabi/4.8.4/../../../../arm-none-eabi/lib/armv7e-m/libc.a(lib_a-svfiprintf.o)
 .debug_frame   0x00015aa4       0xb8 /nfs/nfs5/home/research/hardware/arm2/gcc-arm-embedded/gcc-arm-none-eabi-4_8-2014q2/bin/../lib/gcc/arm-none-eabi/4.8.4/../../../../arm-none-eabi/lib/armv7e-m/libc.a(lib_a-vfiprintf.o)
 .debug_frame   0x00015b5c       0x2c /nfs/nfs5/home/research/hardware/arm2/gcc-arm-embedded/gcc-arm-none-eabi-4_8-2014q2/bin/../lib/gcc/arm-none-eabi/4.8.4/../../../../arm-none-eabi/lib/armv7e-m/libc.a(lib_a-writer.o)
 .debug_frame   0x00015b88       0x28 /nfs/nfs5/home/research/hardware/arm2/gcc-arm-embedded/gcc-arm-none-eabi-4_8-2014q2/bin/../lib/gcc/arm-none-eabi/4.8.4/../../../../arm-none-eabi/lib/armv7e-m/libc.a(lib_a-callocr.o)
 .debug_frame   0x00015bb0       0x2c /nfs/nfs5/home/research/hardware/arm2/gcc-arm-embedded/gcc-arm-none-eabi-4_8-2014q2/bin/../lib/gcc/arm-none-eabi/4.8.4/../../../../arm-none-eabi/lib/armv7e-m/libc.a(lib_a-closer.o)
 .debug_frame   0x00015bdc       0x3c /nfs/nfs5/home/research/hardware/arm2/gcc-arm-embedded/gcc-arm-none-eabi-4_8-2014q2/bin/../lib/gcc/arm-none-eabi/4.8.4/../../../../arm-none-eabi/lib/armv7e-m/libc.a(lib_a-fclose.o)
 .debug_frame   0x00015c18       0x50 /nfs/nfs5/home/research/hardware/arm2/gcc-arm-embedded/gcc-arm-none-eabi-4_8-2014q2/bin/../lib/gcc/arm-none-eabi/4.8.4/../../../../arm-none-eabi/lib/armv7e-m/libc.a(lib_a-fputwc.o)
 .debug_frame   0x00015c68       0x2c /nfs/nfs5/home/research/hardware/arm2/gcc-arm-embedded/gcc-arm-none-eabi-4_8-2014q2/bin/../lib/gcc/arm-none-eabi/4.8.4/../../../../arm-none-eabi/lib/armv7e-m/libc.a(lib_a-fstatr.o)
 .debug_frame   0x00015c94       0x38 /nfs/nfs5/home/research/hardware/arm2/gcc-arm-embedded/gcc-arm-none-eabi-4_8-2014q2/bin/../lib/gcc/arm-none-eabi/4.8.4/../../../../arm-none-eabi/lib/armv7e-m/libc.a(lib_a-fvwrite.o)
 .debug_frame   0x00015ccc       0x2c /nfs/nfs5/home/research/hardware/arm2/gcc-arm-embedded/gcc-arm-none-eabi-4_8-2014q2/bin/../lib/gcc/arm-none-eabi/4.8.4/../../../../arm-none-eabi/lib/armv7e-m/libc.a(lib_a-isattyr.o)
 .debug_frame   0x00015cf8       0x2c /nfs/nfs5/home/research/hardware/arm2/gcc-arm-embedded/gcc-arm-none-eabi-4_8-2014q2/bin/../lib/gcc/arm-none-eabi/4.8.4/../../../../arm-none-eabi/lib/armv7e-m/libc.a(lib_a-lseekr.o)
 .debug_frame   0x00015d24       0x2c /nfs/nfs5/home/research/hardware/arm2/gcc-arm-embedded/gcc-arm-none-eabi-4_8-2014q2/bin/../lib/gcc/arm-none-eabi/4.8.4/../../../../arm-none-eabi/lib/armv7e-m/libc.a(lib_a-memmove.o)
 .debug_frame   0x00015d50       0x2c /nfs/nfs5/home/research/hardware/arm2/gcc-arm-embedded/gcc-arm-none-eabi-4_8-2014q2/bin/../lib/gcc/arm-none-eabi/4.8.4/../../../../arm-none-eabi/lib/armv7e-m/libc.a(lib_a-readr.o)
 .debug_frame   0x00015d7c       0x38 /nfs/nfs5/home/research/hardware/arm2/gcc-arm-embedded/gcc-arm-none-eabi-4_8-2014q2/bin/../lib/gcc/arm-none-eabi/4.8.4/../../../../arm-none-eabi/lib/armv7e-m/libc.a(lib_a-reallocr.o)
 .debug_frame   0x00015db4       0x40 /nfs/nfs5/home/research/hardware/arm2/gcc-arm-embedded/gcc-arm-none-eabi-4_8-2014q2/bin/../lib/gcc/arm-none-eabi/4.8.4/../../../../arm-none-eabi/lib/armv7e-m/libc.a(lib_a-wbuf.o)
 .debug_frame   0x00015df4       0x58 /nfs/nfs5/home/research/hardware/arm2/gcc-arm-embedded/gcc-arm-none-eabi-4_8-2014q2/bin/../lib/gcc/arm-none-eabi/4.8.4/../../../../arm-none-eabi/lib/armv7e-m/libc.a(lib_a-wcrtomb.o)
 .debug_frame   0x00015e4c       0x44 /nfs/nfs5/home/research/hardware/arm2/gcc-arm-embedded/gcc-arm-none-eabi-4_8-2014q2/bin/../lib/gcc/arm-none-eabi/4.8.4/../../../../arm-none-eabi/lib/armv7e-m/libc.a(lib_a-wctomb_r.o)
 .debug_frame   0x00015e90       0x30 /nfs/nfs5/home/research/hardware/arm2/gcc-arm-embedded/gcc-arm-none-eabi-4_8-2014q2/bin/../lib/gcc/arm-none-eabi/4.8.4/../../../../arm-none-eabi/lib/armv7e-m/libm.a(lib_a-s_trunc.o)
 .debug_frame   0x00015ec0       0x30 /nfs/nfs5/home/research/hardware/arm2/gcc-arm-embedded/gcc-arm-none-eabi-4_8-2014q2/bin/../lib/gcc/arm-none-eabi/4.8.4/../../../../arm-none-eabi/lib/armv7e-m/libm.a(lib_a-wf_log10.o)
 .debug_frame   0x00015ef0       0x2c /nfs/nfs5/home/research/hardware/arm2/gcc-arm-embedded/gcc-arm-none-eabi-4_8-2014q2/bin/../lib/gcc/arm-none-eabi/4.8.4/../../../../arm-none-eabi/lib/armv7e-m/libm.a(lib_a-ef_log10.o)
 .debug_frame   0x00015f1c       0x20 /nfs/nfs5/home/research/hardware/arm2/gcc-arm-embedded/gcc-arm-none-eabi-4_8-2014q2/bin/../lib/gcc/arm-none-eabi/4.8.4/../../../../arm-none-eabi/lib/armv7e-m/libm.a(lib_a-s_matherr.o)
 .debug_frame   0x00015f3c       0x20 /nfs/nfs5/home/research/hardware/arm2/gcc-arm-embedded/gcc-arm-none-eabi-4_8-2014q2/bin/../lib/gcc/arm-none-eabi/4.8.4/../../../../arm-none-eabi/lib/armv7e-m/libm.a(lib_a-s_nan.o)
 .debug_frame   0x00015f5c       0x20 /nfs/nfs5/home/research/hardware/arm2/gcc-arm-embedded/gcc-arm-none-eabi-4_8-2014q2/bin/../lib/gcc/arm-none-eabi/4.8.4/../../../../arm-none-eabi/lib/armv7e-m/libm.a(lib_a-sf_fpclassify.o)
 .debug_frame   0x00015f7c       0x38 /nfs/nfs5/home/research/hardware/arm2/gcc-arm-embedded/gcc-arm-none-eabi-4_8-2014q2/bin/../lib/gcc/arm-none-eabi/4.8.4/../../../../arm-none-eabi/lib/armv7e-m/libm.a(lib_a-ef_log.o)
 .debug_frame   0x00015fb4       0x50 /nfs/nfs5/home/research/hardware/arm2/gcc-arm-embedded/gcc-arm-none-eabi-4_8-2014q2/bin/../lib/gcc/arm-none-eabi/4.8.4/armv7e-m/libgcc.a(bpabi.o)
 .debug_frame   0x00016004       0x34 /nfs/nfs5/home/research/hardware/arm2/gcc-arm-embedded/gcc-arm-none-eabi-4_8-2014q2/bin/../lib/gcc/arm-none-eabi/4.8.4/armv7e-m/libgcc.a(_divdi3.o)
 .debug_frame   0x00016038       0x34 /nfs/nfs5/home/research/hardware/arm2/gcc-arm-embedded/gcc-arm-none-eabi-4_8-2014q2/bin/../lib/gcc/arm-none-eabi/4.8.4/armv7e-m/libgcc.a(_udivdi3.o)
 .debug_frame   0x0001606c       0x20 /nfs/nfs5/home/research/hardware/arm2/gcc-arm-embedded/gcc-arm-none-eabi-4_8-2014q2/bin/../lib/gcc/arm-none-eabi/4.8.4/../../../../arm-none-eabi/lib/armv7e-m/libg.a(lib_a-errno.o)

.debug_ranges   0x00000000       0x90
 .debug_ranges  0x00000000       0x18 build/obj/mmc_spi.o
 .debug_ranges  0x00000018       0x30 build/obj/sensor_service.o
 .debug_ranges  0x00000048       0x18 build/obj/hci.o
 .debug_ranges  0x00000060       0x30 build/obj/MetaDataManager.o

Cross Reference Table

Symbol                                            File
ADC_ConversionStop                                build/obj/stm32l4xx_hal_adc.o
ADC_DMAConvCplt                                   build/obj/stm32l4xx_hal_adc.o
ADC_DMAError                                      build/obj/stm32l4xx_hal_adc.o
ADC_DMAHalfConvCplt                               build/obj/stm32l4xx_hal_adc.o
ADC_Disable                                       build/obj/stm32l4xx_hal_adc.o
ADC_Enable                                        build/obj/stm32l4xx_hal_adc.o
AHBPrescTable                                     build/obj/stm32l4xx_hal_rcc.o
APBPrescTable                                     build/obj/stm32l4xx_hal_rcc.o
AccEvent_Notify                                   build/obj/sensor_service.o
                                                  build/obj/btle.o
AccGyroMag_Update                                 build/obj/sensor_service.o
                                                  build/obj/btle.o
ActivityCode                                      build/obj/MotionAR_Manager.o
                                                  build/obj/btle.o
                                                  build/obj/sensor_service.o
ActivityRec_Update                                build/obj/sensor_service.o
                                                  build/obj/btle.o
Add_ConfigW2ST_Service                            build/obj/sensor_service.o
Add_ConsoleW2ST_Service                           build/obj/sensor_service.o
                                                  build/obj/btle.o
Add_HW_SW_ServW2ST_Service                        build/obj/sensor_service.o
Attribute_Modified_CB                             build/obj/sensor_service.o
AudioBV_License_init                              build/obj/AudioBV_Manager.o
                                                  build/obj/btle.o
                                                  build/obj/sensor_service.o
AudioBV_Manager_init                              build/obj/AudioBV_Manager.o
                                                  build/obj/btle.o
AudioLevel_Update                                 build/obj/sensor_service.o
                                                  build/obj/btle.o
AudioProcess                                      build/obj/btle.o
AudioProcess_BV                                   build/obj/AudioBV_Manager.o
                                                  build/obj/btle.o
BLUEVOICE_Char_uuids                              build/obj/sensor_service.o
BLUEVOICE_Config                                  build/obj/AudioBV_Manager.o
BLUEVOICE_tx_handle                               build/obj/sensor_service.o
BNRG_SPI_Init                                     build/obj/SensorTile_BlueNRG.o
                                                  build/obj/btle.o
BSP_ACCELERO_Check_WhoAmI                         build/obj/SensorTile_accelero.o
BSP_ACCELERO_DeInit                               build/obj/SensorTile_accelero.o
BSP_ACCELERO_Disable_6D_Orientation_Ext           build/obj/SensorTile_accelero.o
                                                  build/obj/HWAdvanceFeatures.o
BSP_ACCELERO_Disable_Double_Tap_Detection_Ext     build/obj/SensorTile_accelero.o
                                                  build/obj/HWAdvanceFeatures.o
BSP_ACCELERO_Disable_Free_Fall_Detection_Ext      build/obj/SensorTile_accelero.o
                                                  build/obj/HWAdvanceFeatures.o
BSP_ACCELERO_Disable_Pedometer_Ext                build/obj/SensorTile_accelero.o
                                                  build/obj/HWAdvanceFeatures.o
BSP_ACCELERO_Disable_Single_Tap_Detection_Ext     build/obj/SensorTile_accelero.o
                                                  build/obj/HWAdvanceFeatures.o
BSP_ACCELERO_Disable_Tilt_Detection_Ext           build/obj/SensorTile_accelero.o
                                                  build/obj/HWAdvanceFeatures.o
BSP_ACCELERO_Disable_Wake_Up_Detection_Ext        build/obj/SensorTile_accelero.o
                                                  build/obj/HWAdvanceFeatures.o
BSP_ACCELERO_Enable_6D_Orientation_Ext            build/obj/SensorTile_accelero.o
                                                  build/obj/HWAdvanceFeatures.o
BSP_ACCELERO_Enable_Double_Tap_Detection_Ext      build/obj/SensorTile_accelero.o
                                                  build/obj/HWAdvanceFeatures.o
BSP_ACCELERO_Enable_Free_Fall_Detection_Ext       build/obj/SensorTile_accelero.o
                                                  build/obj/HWAdvanceFeatures.o
BSP_ACCELERO_Enable_Pedometer_Ext                 build/obj/SensorTile_accelero.o
                                                  build/obj/HWAdvanceFeatures.o
BSP_ACCELERO_Enable_Single_Tap_Detection_Ext      build/obj/SensorTile_accelero.o
                                                  build/obj/HWAdvanceFeatures.o
BSP_ACCELERO_Enable_Tilt_Detection_Ext            build/obj/SensorTile_accelero.o
                                                  build/obj/HWAdvanceFeatures.o
BSP_ACCELERO_Enable_Wake_Up_Detection_Ext         build/obj/SensorTile_accelero.o
                                                  build/obj/HWAdvanceFeatures.o
BSP_ACCELERO_Get_6D_Orientation_Status_Ext        build/obj/SensorTile_accelero.o
                                                  build/obj/btle.o
BSP_ACCELERO_Get_6D_Orientation_XH_Ext            build/obj/SensorTile_accelero.o
                                                  build/obj/HWAdvanceFeatures.o
BSP_ACCELERO_Get_6D_Orientation_XL_Ext            build/obj/SensorTile_accelero.o
                                                  build/obj/HWAdvanceFeatures.o
BSP_ACCELERO_Get_6D_Orientation_YH_Ext            build/obj/SensorTile_accelero.o
                                                  build/obj/HWAdvanceFeatures.o
BSP_ACCELERO_Get_6D_Orientation_YL_Ext            build/obj/SensorTile_accelero.o
                                                  build/obj/HWAdvanceFeatures.o
BSP_ACCELERO_Get_6D_Orientation_ZH_Ext            build/obj/SensorTile_accelero.o
                                                  build/obj/HWAdvanceFeatures.o
BSP_ACCELERO_Get_6D_Orientation_ZL_Ext            build/obj/SensorTile_accelero.o
                                                  build/obj/HWAdvanceFeatures.o
BSP_ACCELERO_Get_Axes                             build/obj/SensorTile_accelero.o
                                                  build/obj/btle.o
BSP_ACCELERO_Get_AxesRaw                          build/obj/SensorTile_accelero.o
                                                  build/obj/btle.o
BSP_ACCELERO_Get_Axes_Status                      build/obj/SensorTile_accelero.o
BSP_ACCELERO_Get_DRDY_Status                      build/obj/SensorTile_accelero.o
BSP_ACCELERO_Get_Double_Tap_Detection_Status_Ext  build/obj/SensorTile_accelero.o
                                                  build/obj/btle.o
BSP_ACCELERO_Get_FS                               build/obj/SensorTile_accelero.o
BSP_ACCELERO_Get_Free_Fall_Detection_Status_Ext   build/obj/SensorTile_accelero.o
                                                  build/obj/btle.o
BSP_ACCELERO_Get_Instance                         build/obj/SensorTile_accelero.o
BSP_ACCELERO_Get_ODR                              build/obj/SensorTile_accelero.o
                                                  build/obj/HWAdvanceFeatures.o
BSP_ACCELERO_Get_Pedometer_Status_Ext             build/obj/SensorTile_accelero.o
                                                  build/obj/btle.o
BSP_ACCELERO_Get_Sensitivity                      build/obj/SensorTile_accelero.o
                                                  build/obj/btle.o
BSP_ACCELERO_Get_Single_Tap_Detection_Status_Ext  build/obj/SensorTile_accelero.o
                                                  build/obj/btle.o
BSP_ACCELERO_Get_Step_Count_Ext                   build/obj/SensorTile_accelero.o
                                                  build/obj/HWAdvanceFeatures.o
BSP_ACCELERO_Get_Tilt_Detection_Status_Ext        build/obj/SensorTile_accelero.o
                                                  build/obj/btle.o
BSP_ACCELERO_Get_Wake_Up_Detection_Status_Ext     build/obj/SensorTile_accelero.o
                                                  build/obj/btle.o
BSP_ACCELERO_Get_WhoAmI                           build/obj/SensorTile_accelero.o
BSP_ACCELERO_Init                                 build/obj/SensorTile_accelero.o
                                                  build/obj/TargetPlatform.o
BSP_ACCELERO_IsCombo                              build/obj/SensorTile_accelero.o
BSP_ACCELERO_IsEnabled                            build/obj/SensorTile_accelero.o
BSP_ACCELERO_IsInitialized                        build/obj/SensorTile_accelero.o
BSP_ACCELERO_Read_Reg                             build/obj/SensorTile_accelero.o
BSP_ACCELERO_Reset_Step_Counter_Ext               build/obj/SensorTile_accelero.o
                                                  build/obj/HWAdvanceFeatures.o
BSP_ACCELERO_Sensor_Disable                       build/obj/SensorTile_accelero.o
BSP_ACCELERO_Sensor_Enable                        build/obj/SensorTile_accelero.o
                                                  build/obj/TargetPlatform.o
BSP_ACCELERO_Set_Axes_Status                      build/obj/SensorTile_accelero.o
BSP_ACCELERO_Set_FS                               build/obj/SensorTile_accelero.o
BSP_ACCELERO_Set_FS_Value                         build/obj/SensorTile_accelero.o
                                                  build/obj/btle.o
BSP_ACCELERO_Set_Free_Fall_Threshold_Ext          build/obj/SensorTile_accelero.o
                                                  build/obj/HWAdvanceFeatures.o
BSP_ACCELERO_Set_ODR                              build/obj/SensorTile_accelero.o
BSP_ACCELERO_Set_ODR_Value                        build/obj/SensorTile_accelero.o
                                                  build/obj/HWAdvanceFeatures.o
BSP_ACCELERO_Set_Pedometer_Threshold_Ext          build/obj/SensorTile_accelero.o
BSP_ACCELERO_Set_Tap_Duration_Time_Ext            build/obj/SensorTile_accelero.o
BSP_ACCELERO_Set_Tap_Quiet_Time_Ext               build/obj/SensorTile_accelero.o
BSP_ACCELERO_Set_Tap_Shock_Time_Ext               build/obj/SensorTile_accelero.o
BSP_ACCELERO_Set_Tap_Threshold_Ext                build/obj/SensorTile_accelero.o
                                                  build/obj/HWAdvanceFeatures.o
BSP_ACCELERO_Set_Wake_Up_Threshold_Ext            build/obj/SensorTile_accelero.o
BSP_ACCELERO_Write_Reg                            build/obj/SensorTile_accelero.o
BSP_AUDIO_IN_ClockConfig                          build/obj/SensorTile_audio_in.o
BSP_AUDIO_IN_DeInit                               build/obj/SensorTile_audio_in.o
                                                  build/obj/TargetPlatform.o
BSP_AUDIO_IN_Error_Callback                       build/obj/SensorTile_audio_in.o
BSP_AUDIO_IN_HalfTransfer_CallBack                build/obj/btle.o
                                                  build/obj/SensorTile_audio_in.o
BSP_AUDIO_IN_Init                                 build/obj/SensorTile_audio_in.o
                                                  build/obj/TargetPlatform.o
BSP_AUDIO_IN_Pause                                build/obj/SensorTile_audio_in.o
BSP_AUDIO_IN_Record                               build/obj/SensorTile_audio_in.o
                                                  build/obj/TargetPlatform.o
BSP_AUDIO_IN_Resume                               build/obj/SensorTile_audio_in.o
BSP_AUDIO_IN_SetVolume                            build/obj/SensorTile_audio_in.o
                                                  build/obj/TargetPlatform.o
BSP_AUDIO_IN_Stop                                 build/obj/SensorTile_audio_in.o
                                                  build/obj/TargetPlatform.o
BSP_AUDIO_IN_TransferComplete_CallBack            build/obj/btle.o
                                                  build/obj/SensorTile_audio_in.o
BSP_GG_DeInit                                     build/obj/SensorTile_gg.o
BSP_GG_GetChargeValue                             build/obj/SensorTile_gg.o
BSP_GG_GetCurrent                                 build/obj/SensorTile_gg.o
                                                  build/obj/sensor_service.o
BSP_GG_GetOCV                                     build/obj/SensorTile_gg.o
BSP_GG_GetPresence                                build/obj/SensorTile_gg.o
BSP_GG_GetSOC                                     build/obj/SensorTile_gg.o
                                                  build/obj/sensor_service.o
BSP_GG_GetTemperature                             build/obj/SensorTile_gg.o
BSP_GG_GetVoltage                                 build/obj/SensorTile_gg.o
                                                  build/obj/sensor_service.o
BSP_GG_Get_WhoAmI                                 build/obj/SensorTile_gg.o
BSP_GG_Init                                       build/obj/SensorTile_gg.o
                                                  build/obj/TargetPlatform.o
BSP_GG_IsCombo                                    build/obj/SensorTile_gg.o
BSP_GG_IsInitialized                              build/obj/SensorTile_gg.o
BSP_GG_Reset                                      build/obj/SensorTile_gg.o
BSP_GG_Stop                                       build/obj/SensorTile_gg.o
BSP_GG_Task                                       build/obj/SensorTile_gg.o
                                                  build/obj/sensor_service.o
BSP_GYRO_Check_WhoAmI                             build/obj/SensorTile_gyro.o
BSP_GYRO_DeInit                                   build/obj/SensorTile_gyro.o
BSP_GYRO_Get_Axes                                 build/obj/SensorTile_gyro.o
                                                  build/obj/btle.o
BSP_GYRO_Get_AxesRaw                              build/obj/SensorTile_gyro.o
BSP_GYRO_Get_Axes_Status                          build/obj/SensorTile_gyro.o
BSP_GYRO_Get_DRDY_Status                          build/obj/SensorTile_gyro.o
BSP_GYRO_Get_FS                                   build/obj/SensorTile_gyro.o
BSP_GYRO_Get_Instance                             build/obj/SensorTile_gyro.o
BSP_GYRO_Get_ODR                                  build/obj/SensorTile_gyro.o
BSP_GYRO_Get_Sensitivity                          build/obj/SensorTile_gyro.o
BSP_GYRO_Get_WhoAmI                               build/obj/SensorTile_gyro.o
BSP_GYRO_Init                                     build/obj/SensorTile_gyro.o
                                                  build/obj/TargetPlatform.o
BSP_GYRO_IsCombo                                  build/obj/SensorTile_gyro.o
BSP_GYRO_IsEnabled                                build/obj/SensorTile_gyro.o
BSP_GYRO_IsInitialized                            build/obj/SensorTile_gyro.o
BSP_GYRO_Read_Reg                                 build/obj/SensorTile_gyro.o
BSP_GYRO_Sensor_Disable                           build/obj/SensorTile_gyro.o
BSP_GYRO_Sensor_Enable                            build/obj/SensorTile_gyro.o
                                                  build/obj/TargetPlatform.o
BSP_GYRO_Set_Axes_Status                          build/obj/SensorTile_gyro.o
BSP_GYRO_Set_FS                                   build/obj/SensorTile_gyro.o
BSP_GYRO_Set_FS_Value                             build/obj/SensorTile_gyro.o
BSP_GYRO_Set_ODR                                  build/obj/SensorTile_gyro.o
BSP_GYRO_Set_ODR_Value                            build/obj/SensorTile_gyro.o
BSP_GYRO_Write_Reg                                build/obj/SensorTile_gyro.o
BSP_GetVersion                                    build/obj/SensorTile.o
BSP_HUMIDITY_Check_WhoAmI                         build/obj/SensorTile_humidity.o
BSP_HUMIDITY_DeInit                               build/obj/SensorTile_humidity.o
BSP_HUMIDITY_Get_DRDY_Status                      build/obj/SensorTile_humidity.o
BSP_HUMIDITY_Get_Hum                              build/obj/SensorTile_humidity.o
                                                  build/obj/btle.o
                                                  build/obj/sensor_service.o
BSP_HUMIDITY_Get_Instance                         build/obj/SensorTile_humidity.o
BSP_HUMIDITY_Get_ODR                              build/obj/SensorTile_humidity.o
BSP_HUMIDITY_Get_WhoAmI                           build/obj/SensorTile_humidity.o
BSP_HUMIDITY_Init                                 build/obj/SensorTile_humidity.o
                                                  build/obj/TargetPlatform.o
BSP_HUMIDITY_IsCombo                              build/obj/SensorTile_humidity.o
BSP_HUMIDITY_IsEnabled                            build/obj/SensorTile_humidity.o
BSP_HUMIDITY_IsInitialized                        build/obj/SensorTile_humidity.o
                                                  build/obj/btle.o
                                                  build/obj/sensor_service.o
BSP_HUMIDITY_Read_Reg                             build/obj/SensorTile_humidity.o
BSP_HUMIDITY_Sensor_Disable                       build/obj/SensorTile_humidity.o
BSP_HUMIDITY_Sensor_Enable                        build/obj/SensorTile_humidity.o
                                                  build/obj/TargetPlatform.o
BSP_HUMIDITY_Set_ODR                              build/obj/SensorTile_humidity.o
BSP_HUMIDITY_Set_ODR_Value                        build/obj/SensorTile_humidity.o
BSP_HUMIDITY_Write_Reg                            build/obj/SensorTile_humidity.o
BSP_LED_DeInit                                    build/obj/SensorTile.o
BSP_LED_Init                                      build/obj/SensorTile.o
                                                  build/obj/TargetPlatform.o
BSP_LED_Off                                       build/obj/SensorTile.o
                                                  build/obj/TargetPlatform.o
BSP_LED_On                                        build/obj/SensorTile.o
                                                  build/obj/TargetPlatform.o
BSP_LED_Toggle                                    build/obj/SensorTile.o
                                                  build/obj/TargetPlatform.o
BSP_MAGNETO_Check_WhoAmI                          build/obj/SensorTile_magneto.o
BSP_MAGNETO_DeInit                                build/obj/SensorTile_magneto.o
BSP_MAGNETO_Get_Axes                              build/obj/SensorTile_magneto.o
                                                  build/obj/btle.o
BSP_MAGNETO_Get_AxesRaw                           build/obj/SensorTile_magneto.o
BSP_MAGNETO_Get_DRDY_Status                       build/obj/SensorTile_magneto.o
BSP_MAGNETO_Get_FS                                build/obj/SensorTile_magneto.o
BSP_MAGNETO_Get_Instance                          build/obj/SensorTile_magneto.o
BSP_MAGNETO_Get_ODR                               build/obj/SensorTile_magneto.o
BSP_MAGNETO_Get_Sensitivity                       build/obj/SensorTile_magneto.o
BSP_MAGNETO_Get_WhoAmI                            build/obj/SensorTile_magneto.o
BSP_MAGNETO_Init                                  build/obj/SensorTile_magneto.o
                                                  build/obj/TargetPlatform.o
BSP_MAGNETO_IsCombo                               build/obj/SensorTile_magneto.o
BSP_MAGNETO_IsEnabled                             build/obj/SensorTile_magneto.o
BSP_MAGNETO_IsInitialized                         build/obj/SensorTile_magneto.o
BSP_MAGNETO_Read_Reg                              build/obj/SensorTile_magneto.o
BSP_MAGNETO_Sensor_Disable                        build/obj/SensorTile_magneto.o
BSP_MAGNETO_Sensor_Enable                         build/obj/SensorTile_magneto.o
                                                  build/obj/TargetPlatform.o
BSP_MAGNETO_Set_FS                                build/obj/SensorTile_magneto.o
BSP_MAGNETO_Set_FS_Value                          build/obj/SensorTile_magneto.o
BSP_MAGNETO_Set_ODR                               build/obj/SensorTile_magneto.o
BSP_MAGNETO_Set_ODR_Value                         build/obj/SensorTile_magneto.o
BSP_MAGNETO_Write_Reg                             build/obj/SensorTile_magneto.o
BSP_PRESSURE_Check_WhoAmI                         build/obj/SensorTile_pressure.o
BSP_PRESSURE_DeInit                               build/obj/SensorTile_pressure.o
BSP_PRESSURE_Get_DRDY_Status                      build/obj/SensorTile_pressure.o
BSP_PRESSURE_Get_Instance                         build/obj/SensorTile_pressure.o
BSP_PRESSURE_Get_ODR                              build/obj/SensorTile_pressure.o
BSP_PRESSURE_Get_Press                            build/obj/SensorTile_pressure.o
                                                  build/obj/btle.o
                                                  build/obj/sensor_service.o
BSP_PRESSURE_Get_WhoAmI                           build/obj/SensorTile_pressure.o
BSP_PRESSURE_Init                                 build/obj/SensorTile_pressure.o
                                                  build/obj/TargetPlatform.o
BSP_PRESSURE_IsCombo                              build/obj/SensorTile_pressure.o
BSP_PRESSURE_IsEnabled                            build/obj/SensorTile_pressure.o
BSP_PRESSURE_IsInitialized                        build/obj/SensorTile_pressure.o
                                                  build/obj/btle.o
                                                  build/obj/sensor_service.o
BSP_PRESSURE_Read_Reg                             build/obj/SensorTile_pressure.o
BSP_PRESSURE_Sensor_Disable                       build/obj/SensorTile_pressure.o
BSP_PRESSURE_Sensor_Enable                        build/obj/SensorTile_pressure.o
                                                  build/obj/TargetPlatform.o
BSP_PRESSURE_Set_ODR                              build/obj/SensorTile_pressure.o
BSP_PRESSURE_Set_ODR_Value                        build/obj/SensorTile_pressure.o
BSP_PRESSURE_Write_Reg                            build/obj/SensorTile_pressure.o
BSP_TEMPERATURE_Check_WhoAmI                      build/obj/SensorTile_temperature.o
BSP_TEMPERATURE_DeInit                            build/obj/SensorTile_temperature.o
BSP_TEMPERATURE_Get_DRDY_Status                   build/obj/SensorTile_temperature.o
BSP_TEMPERATURE_Get_Instance                      build/obj/SensorTile_temperature.o
BSP_TEMPERATURE_Get_ODR                           build/obj/SensorTile_temperature.o
BSP_TEMPERATURE_Get_Temp                          build/obj/SensorTile_temperature.o
                                                  build/obj/btle.o
                                                  build/obj/sensor_service.o
BSP_TEMPERATURE_Get_WhoAmI                        build/obj/SensorTile_temperature.o
BSP_TEMPERATURE_Init                              build/obj/SensorTile_temperature.o
                                                  build/obj/TargetPlatform.o
BSP_TEMPERATURE_IsCombo                           build/obj/SensorTile_temperature.o
BSP_TEMPERATURE_IsEnabled                         build/obj/SensorTile_temperature.o
BSP_TEMPERATURE_IsInitialized                     build/obj/SensorTile_temperature.o
                                                  build/obj/btle.o
                                                  build/obj/sensor_service.o
BSP_TEMPERATURE_Read_Reg                          build/obj/SensorTile_temperature.o
BSP_TEMPERATURE_Sensor_Disable                    build/obj/SensorTile_temperature.o
BSP_TEMPERATURE_Sensor_Enable                     build/obj/SensorTile_temperature.o
                                                  build/obj/TargetPlatform.o
BSP_TEMPERATURE_Set_ODR                           build/obj/SensorTile_temperature.o
BSP_TEMPERATURE_Set_ODR_Value                     build/obj/SensorTile_temperature.o
BSP_TEMPERATURE_Write_Reg                         build/obj/SensorTile_temperature.o
BlueNRG_DataPresent                               build/obj/SensorTile_BlueNRG.o
                                                  build/obj/hci.o
BlueNRG_HW_Bootloader                             build/obj/SensorTile_BlueNRG.o
                                                  build/obj/bluenrg_utils.o
BlueNRG_RST                                       build/obj/SensorTile_BlueNRG.o
                                                  build/obj/btle.o
                                                  build/obj/bluenrg_utils.o
BlueNRG_SPI_Read_All                              build/obj/SensorTile_BlueNRG.o
                                                  build/obj/hci.o
BlueNRG_SPI_Write                                 build/obj/SensorTile_BlueNRG.o
BufferToWrite                                     build/obj/btle.o
                                                  build/obj/sensor_service.o
BusFault_Handler                                  build/obj/vectors.o
BytesToWrite                                      build/obj/btle.o
                                                  build/obj/sensor_service.o
CarryPosRec_Update                                build/obj/sensor_service.o
                                                  build/obj/btle.o
CarryPositionCode                                 build/obj/MotionCP_Manager.o
                                                  build/obj/btle.o
                                                  build/obj/sensor_service.o
Clear_SPI_EXTI_Flag                               build/obj/SensorTile_BlueNRG.o
                                                  build/obj/hci.o
Clear_SPI_IRQ                                     build/obj/SensorTile_BlueNRG.o
Config_Notify                                     build/obj/sensor_service.o
                                                  build/obj/btle.o
ConnectionBleStatus                               build/obj/btle.o
                                                  build/obj/sensor_service.o
DBNOISE_Value_Old_Ch                              build/obj/btle.o
                                                  build/obj/sensor_service.o
                                                  build/obj/TargetPlatform.o
DeInitMics                                        build/obj/TargetPlatform.o
                                                  build/obj/sensor_service.o
DebugMon_Handler                                  build/obj/vectors.o
DisableHWDoubleTap                                build/obj/HWAdvanceFeatures.o
                                                  build/obj/sensor_service.o
DisableHWFeatures                                 build/obj/HWAdvanceFeatures.o
                                                  build/obj/sensor_service.o
DisableHWFreeFall                                 build/obj/HWAdvanceFeatures.o
                                                  build/obj/sensor_service.o
DisableHWOrientation6D                            build/obj/HWAdvanceFeatures.o
                                                  build/obj/sensor_service.o
DisableHWPedometer                                build/obj/HWAdvanceFeatures.o
                                                  build/obj/sensor_service.o
DisableHWSingleTap                                build/obj/HWAdvanceFeatures.o
                                                  build/obj/sensor_service.o
DisableHWTilt                                     build/obj/HWAdvanceFeatures.o
                                                  build/obj/sensor_service.o
DisableHWWakeUp                                   build/obj/HWAdvanceFeatures.o
                                                  build/obj/sensor_service.o
Disable_SPI_IRQ                                   build/obj/SensorTile_BlueNRG.o
                                                  build/obj/hci.o
ECompass_Update                                   build/obj/sensor_service.o
                                                  build/obj/btle.o
EnableHWDoubleTap                                 build/obj/HWAdvanceFeatures.o
                                                  build/obj/sensor_service.o
EnableHWFreeFall                                  build/obj/HWAdvanceFeatures.o
                                                  build/obj/sensor_service.o
EnableHWOrientation6D                             build/obj/HWAdvanceFeatures.o
                                                  build/obj/sensor_service.o
EnableHWPedometer                                 build/obj/HWAdvanceFeatures.o
                                                  build/obj/sensor_service.o
EnableHWSingleTap                                 build/obj/HWAdvanceFeatures.o
                                                  build/obj/sensor_service.o
EnableHWTilt                                      build/obj/HWAdvanceFeatures.o
                                                  build/obj/sensor_service.o
EnableHWWakeUp                                    build/obj/HWAdvanceFeatures.o
                                                  build/obj/sensor_service.o
Enable_SPI_IRQ                                    build/obj/SensorTile_BlueNRG.o
                                                  build/obj/hci.o
Environmental_Update                              build/obj/sensor_service.o
                                                  build/obj/btle.o
EraseMetaDataManager                              build/obj/MetaDataManager.o
                                                  build/obj/btle.o
                                                  build/obj/sensor_service.o
Error_Handler                                     build/obj/btle.o
                                                  build/obj/sensor_service.o
                                                  build/obj/TargetPlatform.o
FLASH_FlushCaches                                 build/obj/stm32l4xx_hal_flash_ex.o
                                                  build/obj/stm32l4xx_hal_flash.o
FLASH_PageErase                                   build/obj/stm32l4xx_hal_flash_ex.o
                                                  build/obj/stm32l4xx_hal_flash.o
FLASH_WaitForLastOperation                        build/obj/stm32l4xx_hal_flash.o
                                                  build/obj/stm32l4xx_hal_flash_ex.o
FirstConnectionConfig                             build/obj/btle.o
                                                  build/obj/sensor_service.o
ForceReCalibration                                build/obj/btle.o
                                                  build/obj/sensor_service.o
GG_Update                                         build/obj/sensor_service.o
                                                  build/obj/btle.o
GPIO_PIN                                          build/obj/SensorTile.o
GPIO_PORT                                         build/obj/SensorTile.o
GestureRec_Update                                 build/obj/sensor_service.o
                                                  build/obj/btle.o
GestureRecognitionCode                            build/obj/MotionGR_Manager.o
                                                  build/obj/btle.o
                                                  build/obj/sensor_service.o
GetHWOrientation6D                                build/obj/HWAdvanceFeatures.o
                                                  build/obj/btle.o
GetStepHWPedometer                                build/obj/HWAdvanceFeatures.o
                                                  build/obj/btle.o
                                                  build/obj/sensor_service.o
HAL_ADCEx_EndOfSamplingCallback                   build/obj/stm32l4xx_hal_adc.o
HAL_ADCEx_InjectedConvCpltCallback                build/obj/stm32l4xx_hal_adc.o
HAL_ADCEx_InjectedQueueOverflowCallback           build/obj/stm32l4xx_hal_adc.o
HAL_ADCEx_LevelOutOfWindow2Callback               build/obj/stm32l4xx_hal_adc.o
HAL_ADCEx_LevelOutOfWindow3Callback               build/obj/stm32l4xx_hal_adc.o
HAL_ADC_AnalogWDGConfig                           build/obj/stm32l4xx_hal_adc.o
HAL_ADC_ConfigChannel                             build/obj/stm32l4xx_hal_adc.o
HAL_ADC_ConvCpltCallback                          build/obj/stm32l4xx_hal_adc.o
HAL_ADC_ConvHalfCpltCallback                      build/obj/stm32l4xx_hal_adc.o
HAL_ADC_DeInit                                    build/obj/stm32l4xx_hal_adc.o
HAL_ADC_ErrorCallback                             build/obj/stm32l4xx_hal_adc.o
HAL_ADC_GetError                                  build/obj/stm32l4xx_hal_adc.o
HAL_ADC_GetState                                  build/obj/stm32l4xx_hal_adc.o
HAL_ADC_GetValue                                  build/obj/stm32l4xx_hal_adc.o
HAL_ADC_IRQHandler                                build/obj/stm32l4xx_hal_adc.o
HAL_ADC_Init                                      build/obj/stm32l4xx_hal_adc.o
HAL_ADC_LevelOutOfWindowCallback                  build/obj/stm32l4xx_hal_adc.o
HAL_ADC_MspDeInit                                 build/obj/stm32l4xx_hal_adc.o
HAL_ADC_MspInit                                   build/obj/stm32l4xx_hal_adc.o
HAL_ADC_PollForConversion                         build/obj/stm32l4xx_hal_adc.o
HAL_ADC_PollForEvent                              build/obj/stm32l4xx_hal_adc.o
HAL_ADC_Start                                     build/obj/stm32l4xx_hal_adc.o
HAL_ADC_Start_DMA                                 build/obj/stm32l4xx_hal_adc.o
HAL_ADC_Start_IT                                  build/obj/stm32l4xx_hal_adc.o
HAL_ADC_Stop                                      build/obj/stm32l4xx_hal_adc.o
HAL_ADC_Stop_DMA                                  build/obj/stm32l4xx_hal_adc.o
HAL_ADC_Stop_IT                                   build/obj/stm32l4xx_hal_adc.o
HAL_CRCEx_Input_Data_Reverse                      build/obj/stm32l4xx_hal_crc_ex.o
HAL_CRCEx_Output_Data_Reverse                     build/obj/stm32l4xx_hal_crc_ex.o
HAL_CRCEx_Polynomial_Set                          build/obj/stm32l4xx_hal_crc_ex.o
                                                  build/obj/stm32l4xx_hal_crc.o
HAL_CRC_Accumulate                                build/obj/stm32l4xx_hal_crc.o
HAL_CRC_Calculate                                 build/obj/stm32l4xx_hal_crc.o
                                                  build/obj/OTA.o
HAL_CRC_DeInit                                    build/obj/stm32l4xx_hal_crc.o
                                                  build/obj/OTA.o
HAL_CRC_GetState                                  build/obj/stm32l4xx_hal_crc.o
                                                  build/obj/OTA.o
HAL_CRC_Init                                      build/obj/stm32l4xx_hal_crc.o
                                                  build/obj/OTA.o
HAL_CRC_MspDeInit                                 build/obj/stm32l4xx_hal_msp.o
HAL_CRC_MspInit                                   build/obj/stm32l4xx_hal_msp.o
HAL_DBGMCU_DisableDBGSleepMode                    build/obj/stm32l4xx_hal.o
HAL_DBGMCU_DisableDBGStandbyMode                  build/obj/stm32l4xx_hal.o
HAL_DBGMCU_DisableDBGStopMode                     build/obj/stm32l4xx_hal.o
HAL_DBGMCU_EnableDBGSleepMode                     build/obj/stm32l4xx_hal.o
HAL_DBGMCU_EnableDBGStandbyMode                   build/obj/stm32l4xx_hal.o
HAL_DBGMCU_EnableDBGStopMode                      build/obj/stm32l4xx_hal.o
HAL_DFSDM_ChannelCkabCallback                     build/obj/stm32l4xx_hal_dfsdm.o
HAL_DFSDM_ChannelCkabStart                        build/obj/stm32l4xx_hal_dfsdm.o
HAL_DFSDM_ChannelCkabStart_IT                     build/obj/stm32l4xx_hal_dfsdm.o
HAL_DFSDM_ChannelCkabStop                         build/obj/stm32l4xx_hal_dfsdm.o
HAL_DFSDM_ChannelCkabStop_IT                      build/obj/stm32l4xx_hal_dfsdm.o
HAL_DFSDM_ChannelDeInit                           build/obj/stm32l4xx_hal_dfsdm.o
                                                  build/obj/SensorTile_audio_in.o
HAL_DFSDM_ChannelGetAwdValue                      build/obj/stm32l4xx_hal_dfsdm.o
HAL_DFSDM_ChannelGetState                         build/obj/stm32l4xx_hal_dfsdm.o
                                                  build/obj/SensorTile_audio_in.o
HAL_DFSDM_ChannelInit                             build/obj/stm32l4xx_hal_dfsdm.o
                                                  build/obj/SensorTile_audio_in.o
HAL_DFSDM_ChannelModifyOffset                     build/obj/stm32l4xx_hal_dfsdm.o
HAL_DFSDM_ChannelMspDeInit                        build/obj/stm32l4xx_hal_dfsdm.o
HAL_DFSDM_ChannelMspInit                          build/obj/stm32l4xx_hal_dfsdm.o
HAL_DFSDM_ChannelPollForCkab                      build/obj/stm32l4xx_hal_dfsdm.o
HAL_DFSDM_ChannelPollForScd                       build/obj/stm32l4xx_hal_dfsdm.o
HAL_DFSDM_ChannelScdCallback                      build/obj/stm32l4xx_hal_dfsdm.o
HAL_DFSDM_ChannelScdStart                         build/obj/stm32l4xx_hal_dfsdm.o
HAL_DFSDM_ChannelScdStart_IT                      build/obj/stm32l4xx_hal_dfsdm.o
HAL_DFSDM_ChannelScdStop                          build/obj/stm32l4xx_hal_dfsdm.o
HAL_DFSDM_ChannelScdStop_IT                       build/obj/stm32l4xx_hal_dfsdm.o
HAL_DFSDM_FilterAwdCallback                       build/obj/stm32l4xx_hal_dfsdm.o
HAL_DFSDM_FilterAwdStart_IT                       build/obj/stm32l4xx_hal_dfsdm.o
HAL_DFSDM_FilterAwdStop_IT                        build/obj/stm32l4xx_hal_dfsdm.o
HAL_DFSDM_FilterConfigInjChannel                  build/obj/stm32l4xx_hal_dfsdm.o
HAL_DFSDM_FilterConfigRegChannel                  build/obj/stm32l4xx_hal_dfsdm.o
                                                  build/obj/SensorTile_audio_in.o
HAL_DFSDM_FilterDeInit                            build/obj/stm32l4xx_hal_dfsdm.o
                                                  build/obj/SensorTile_audio_in.o
HAL_DFSDM_FilterErrorCallback                     build/obj/stm32l4xx_hal_dfsdm.o
HAL_DFSDM_FilterExdStart                          build/obj/stm32l4xx_hal_dfsdm.o
HAL_DFSDM_FilterExdStop                           build/obj/stm32l4xx_hal_dfsdm.o
HAL_DFSDM_FilterGetConvTimeValue                  build/obj/stm32l4xx_hal_dfsdm.o
HAL_DFSDM_FilterGetError                          build/obj/stm32l4xx_hal_dfsdm.o
HAL_DFSDM_FilterGetExdMaxValue                    build/obj/stm32l4xx_hal_dfsdm.o
HAL_DFSDM_FilterGetExdMinValue                    build/obj/stm32l4xx_hal_dfsdm.o
HAL_DFSDM_FilterGetInjectedValue                  build/obj/stm32l4xx_hal_dfsdm.o
HAL_DFSDM_FilterGetRegularValue                   build/obj/stm32l4xx_hal_dfsdm.o
HAL_DFSDM_FilterGetState                          build/obj/stm32l4xx_hal_dfsdm.o
                                                  build/obj/SensorTile_audio_in.o
HAL_DFSDM_FilterInit                              build/obj/stm32l4xx_hal_dfsdm.o
                                                  build/obj/SensorTile_audio_in.o
HAL_DFSDM_FilterInjConvCpltCallback               build/obj/stm32l4xx_hal_dfsdm.o
HAL_DFSDM_FilterInjConvHalfCpltCallback           build/obj/stm32l4xx_hal_dfsdm.o
HAL_DFSDM_FilterInjectedMsbStart_DMA              build/obj/stm32l4xx_hal_dfsdm.o
HAL_DFSDM_FilterInjectedStart                     build/obj/stm32l4xx_hal_dfsdm.o
HAL_DFSDM_FilterInjectedStart_DMA                 build/obj/stm32l4xx_hal_dfsdm.o
HAL_DFSDM_FilterInjectedStart_IT                  build/obj/stm32l4xx_hal_dfsdm.o
HAL_DFSDM_FilterInjectedStop                      build/obj/stm32l4xx_hal_dfsdm.o
HAL_DFSDM_FilterInjectedStop_DMA                  build/obj/stm32l4xx_hal_dfsdm.o
HAL_DFSDM_FilterInjectedStop_IT                   build/obj/stm32l4xx_hal_dfsdm.o
HAL_DFSDM_FilterMspDeInit                         build/obj/stm32l4xx_hal_dfsdm.o
HAL_DFSDM_FilterMspInit                           build/obj/stm32l4xx_hal_dfsdm.o
HAL_DFSDM_FilterPollForInjConversion              build/obj/stm32l4xx_hal_dfsdm.o
HAL_DFSDM_FilterPollForRegConversion              build/obj/stm32l4xx_hal_dfsdm.o
HAL_DFSDM_FilterRegConvCpltCallback               build/obj/SensorTile_audio_in.o
HAL_DFSDM_FilterRegConvHalfCpltCallback           build/obj/SensorTile_audio_in.o
HAL_DFSDM_FilterRegularMsbStart_DMA               build/obj/stm32l4xx_hal_dfsdm.o
HAL_DFSDM_FilterRegularStart                      build/obj/stm32l4xx_hal_dfsdm.o
HAL_DFSDM_FilterRegularStart_DMA                  build/obj/stm32l4xx_hal_dfsdm.o
                                                  build/obj/SensorTile_audio_in.o
HAL_DFSDM_FilterRegularStart_IT                   build/obj/stm32l4xx_hal_dfsdm.o
HAL_DFSDM_FilterRegularStop                       build/obj/stm32l4xx_hal_dfsdm.o
HAL_DFSDM_FilterRegularStop_DMA                   build/obj/stm32l4xx_hal_dfsdm.o
                                                  build/obj/SensorTile_audio_in.o
HAL_DFSDM_FilterRegularStop_IT                    build/obj/stm32l4xx_hal_dfsdm.o
HAL_DFSDM_IRQHandler                              build/obj/stm32l4xx_hal_dfsdm.o
HAL_DMA_Abort                                     build/obj/stm32l4xx_hal_dma.o
                                                  build/obj/stm32l4xx_hal_uart.o
                                                  build/obj/stm32l4xx_hal_tim.o
                                                  build/obj/stm32l4xx_hal_spi.o
                                                  build/obj/stm32l4xx_hal_dfsdm.o
                                                  build/obj/stm32l4xx_hal_adc.o
HAL_DMA_Abort_IT                                  build/obj/stm32l4xx_hal_dma.o
                                                  build/obj/stm32l4xx_hal_uart.o
                                                  build/obj/stm32l4xx_hal_i2c.o
HAL_DMA_DeInit                                    build/obj/stm32l4xx_hal_dma.o
                                                  build/obj/SensorTile_audio_in.o
HAL_DMA_GetError                                  build/obj/stm32l4xx_hal_dma.o
HAL_DMA_GetState                                  build/obj/stm32l4xx_hal_dma.o
HAL_DMA_IRQHandler                                build/obj/stm32l4xx_hal_dma.o
HAL_DMA_Init                                      build/obj/stm32l4xx_hal_dma.o
                                                  build/obj/SensorTile_audio_in.o
HAL_DMA_PollForTransfer                           build/obj/stm32l4xx_hal_dma.o
HAL_DMA_RegisterCallback                          build/obj/stm32l4xx_hal_dma.o
HAL_DMA_Start                                     build/obj/stm32l4xx_hal_dma.o
HAL_DMA_Start_IT                                  build/obj/stm32l4xx_hal_dma.o
                                                  build/obj/stm32l4xx_hal_uart.o
                                                  build/obj/stm32l4xx_hal_tim_ex.o
                                                  build/obj/stm32l4xx_hal_tim.o
                                                  build/obj/stm32l4xx_hal_spi.o
                                                  build/obj/stm32l4xx_hal_i2c.o
                                                  build/obj/stm32l4xx_hal_dfsdm.o
                                                  build/obj/stm32l4xx_hal_adc.o
HAL_DMA_UnRegisterCallback                        build/obj/stm32l4xx_hal_dma.o
HAL_DeInit                                        build/obj/stm32l4xx_hal.o
HAL_Delay                                         build/obj/btle.o
                                                  build/obj/stm32l4xx_hal.o
                                                  build/obj/stm32l4xx_ll_usb.o
                                                  build/obj/stm32l4xx_hal_pcd_ex.o
                                                  build/obj/SensorTile_temperature.o
                                                  build/obj/SensorTile_pressure.o
                                                  build/obj/SensorTile_accelero.o
                                                  build/obj/SensorTile_BlueNRG.o
                                                  build/obj/STC3115_Driver.o
                                                  build/obj/sensor_service.o
                                                  build/obj/usbd_conf.o
HAL_FLASHEx_Erase                                 build/obj/stm32l4xx_hal_flash_ex.o
                                                  build/obj/TargetPlatform.o
                                                  build/obj/OTA.o
HAL_FLASHEx_Erase_IT                              build/obj/stm32l4xx_hal_flash_ex.o
HAL_FLASHEx_OBGetConfig                           build/obj/stm32l4xx_hal_flash_ex.o
HAL_FLASHEx_OBProgram                             build/obj/stm32l4xx_hal_flash_ex.o
HAL_FLASH_EndOfOperationCallback                  build/obj/stm32l4xx_hal_flash.o
HAL_FLASH_GetError                                build/obj/stm32l4xx_hal_flash.o
HAL_FLASH_IRQHandler                              build/obj/stm32l4xx_hal_flash.o
HAL_FLASH_Lock                                    build/obj/stm32l4xx_hal_flash.o
                                                  build/obj/TargetPlatform.o
                                                  build/obj/OTA.o
HAL_FLASH_OB_Launch                               build/obj/stm32l4xx_hal_flash.o
HAL_FLASH_OB_Lock                                 build/obj/stm32l4xx_hal_flash.o
HAL_FLASH_OB_Unlock                               build/obj/stm32l4xx_hal_flash.o
HAL_FLASH_OperationErrorCallback                  build/obj/stm32l4xx_hal_flash.o
HAL_FLASH_Program                                 build/obj/stm32l4xx_hal_flash.o
                                                  build/obj/TargetPlatform.o
                                                  build/obj/OTA.o
HAL_FLASH_Program_IT                              build/obj/stm32l4xx_hal_flash.o
HAL_FLASH_Unlock                                  build/obj/stm32l4xx_hal_flash.o
                                                  build/obj/TargetPlatform.o
                                                  build/obj/OTA.o
HAL_GPIO_DeInit                                   build/obj/stm32l4xx_hal_gpio.o
                                                  build/obj/SensorTile_audio_in.o
HAL_GPIO_EXTI_Callback                            build/obj/btle.o
                                                  build/obj/stm32l4xx_hal_gpio.o
HAL_GPIO_EXTI_IRQHandler                          build/obj/stm32l4xx_hal_gpio.o
HAL_GPIO_Init                                     build/obj/stm32l4xx_hal_gpio.o
                                                  build/obj/stm32l4xx_hal_rcc_ex.o
                                                  build/obj/stm32l4xx_hal_rcc.o
                                                  build/obj/SensorTile_audio_in.o
                                                  build/obj/SensorTile_BlueNRG.o
                                                  build/obj/SensorTile.o
                                                  build/obj/stm32l4xx_hal_msp.o
HAL_GPIO_LockPin                                  build/obj/stm32l4xx_hal_gpio.o
HAL_GPIO_ReadPin                                  build/obj/stm32l4xx_hal_gpio.o
                                                  build/obj/SensorTile_BlueNRG.o
HAL_GPIO_TogglePin                                build/obj/stm32l4xx_hal_gpio.o
                                                  build/obj/SensorTile.o
HAL_GPIO_WritePin                                 build/obj/stm32l4xx_hal_gpio.o
                                                  build/obj/SensorTile_BlueNRG.o
                                                  build/obj/SensorTile.o
HAL_GetDEVID                                      build/obj/stm32l4xx_hal.o
HAL_GetHalVersion                                 build/obj/stm32l4xx_hal.o
                                                  build/obj/sensor_service.o
HAL_GetREVID                                      build/obj/stm32l4xx_hal.o
HAL_GetTick                                       build/obj/stm32l4xx_hal.o
                                                  build/obj/btle.o
                                                  build/obj/gp_timer.o
                                                  build/obj/stm32l4xx_hal_uart_ex.o
                                                  build/obj/stm32l4xx_hal_uart.o
                                                  build/obj/stm32l4xx_hal_spi.o
                                                  build/obj/stm32l4xx_hal_rtc_ex.o
                                                  build/obj/stm32l4xx_hal_rtc.o
                                                  build/obj/stm32l4xx_hal_rcc_ex.o
                                                  build/obj/stm32l4xx_hal_rcc.o
                                                  build/obj/stm32l4xx_hal_pcd_ex.o
                                                  build/obj/stm32l4xx_hal_i2c.o
                                                  build/obj/stm32l4xx_hal_flash.o
                                                  build/obj/stm32l4xx_hal_dma.o
                                                  build/obj/stm32l4xx_hal_dfsdm.o
                                                  build/obj/stm32l4xx_hal_adc.o
                                                  build/obj/sensor_service.o
HAL_HalfDuplex_EnableReceiver                     build/obj/stm32l4xx_hal_uart.o
HAL_HalfDuplex_EnableTransmitter                  build/obj/stm32l4xx_hal_uart.o
HAL_HalfDuplex_Init                               build/obj/stm32l4xx_hal_uart.o
HAL_I2CEx_ConfigAnalogFilter                      build/obj/stm32l4xx_hal_i2c_ex.o
HAL_I2CEx_ConfigDigitalFilter                     build/obj/stm32l4xx_hal_i2c_ex.o
HAL_I2CEx_DisableFastModePlus                     build/obj/stm32l4xx_hal_i2c_ex.o
HAL_I2CEx_DisableWakeUp                           build/obj/stm32l4xx_hal_i2c_ex.o
HAL_I2CEx_EnableFastModePlus                      build/obj/stm32l4xx_hal_i2c_ex.o
HAL_I2CEx_EnableWakeUp                            build/obj/stm32l4xx_hal_i2c_ex.o
HAL_I2C_AbortCpltCallback                         build/obj/stm32l4xx_hal_i2c.o
HAL_I2C_AddrCallback                              build/obj/stm32l4xx_hal_i2c.o
HAL_I2C_DeInit                                    build/obj/stm32l4xx_hal_i2c.o
                                                  build/obj/SensorTile.o
HAL_I2C_DisableListen_IT                          build/obj/stm32l4xx_hal_i2c.o
HAL_I2C_ER_IRQHandler                             build/obj/stm32l4xx_hal_i2c.o
HAL_I2C_EV_IRQHandler                             build/obj/stm32l4xx_hal_i2c.o
HAL_I2C_EnableListen_IT                           build/obj/stm32l4xx_hal_i2c.o
HAL_I2C_ErrorCallback                             build/obj/stm32l4xx_hal_i2c.o
HAL_I2C_GetError                                  build/obj/stm32l4xx_hal_i2c.o
HAL_I2C_GetMode                                   build/obj/stm32l4xx_hal_i2c.o
HAL_I2C_GetState                                  build/obj/stm32l4xx_hal_i2c.o
                                                  build/obj/SensorTile.o
HAL_I2C_Init                                      build/obj/stm32l4xx_hal_i2c.o
                                                  build/obj/SensorTile.o
HAL_I2C_IsDeviceReady                             build/obj/stm32l4xx_hal_i2c.o
HAL_I2C_ListenCpltCallback                        build/obj/stm32l4xx_hal_i2c.o
HAL_I2C_MasterRxCpltCallback                      build/obj/stm32l4xx_hal_i2c.o
HAL_I2C_MasterTxCpltCallback                      build/obj/stm32l4xx_hal_i2c.o
HAL_I2C_Master_Abort_IT                           build/obj/stm32l4xx_hal_i2c.o
HAL_I2C_Master_Receive                            build/obj/stm32l4xx_hal_i2c.o
HAL_I2C_Master_Receive_DMA                        build/obj/stm32l4xx_hal_i2c.o
HAL_I2C_Master_Receive_IT                         build/obj/stm32l4xx_hal_i2c.o
HAL_I2C_Master_Sequential_Receive_IT              build/obj/stm32l4xx_hal_i2c.o
HAL_I2C_Master_Sequential_Transmit_IT             build/obj/stm32l4xx_hal_i2c.o
HAL_I2C_Master_Transmit                           build/obj/stm32l4xx_hal_i2c.o
HAL_I2C_Master_Transmit_DMA                       build/obj/stm32l4xx_hal_i2c.o
HAL_I2C_Master_Transmit_IT                        build/obj/stm32l4xx_hal_i2c.o
HAL_I2C_MemRxCpltCallback                         build/obj/stm32l4xx_hal_i2c.o
HAL_I2C_MemTxCpltCallback                         build/obj/stm32l4xx_hal_i2c.o
HAL_I2C_Mem_Read                                  build/obj/stm32l4xx_hal_i2c.o
                                                  build/obj/SensorTile.o
HAL_I2C_Mem_Read_DMA                              build/obj/stm32l4xx_hal_i2c.o
HAL_I2C_Mem_Read_IT                               build/obj/stm32l4xx_hal_i2c.o
HAL_I2C_Mem_Write                                 build/obj/stm32l4xx_hal_i2c.o
                                                  build/obj/SensorTile.o
HAL_I2C_Mem_Write_DMA                             build/obj/stm32l4xx_hal_i2c.o
HAL_I2C_Mem_Write_IT                              build/obj/stm32l4xx_hal_i2c.o
HAL_I2C_MspDeInit                                 build/obj/stm32l4xx_hal_i2c.o
HAL_I2C_MspInit                                   build/obj/stm32l4xx_hal_i2c.o
HAL_I2C_SlaveRxCpltCallback                       build/obj/stm32l4xx_hal_i2c.o
HAL_I2C_SlaveTxCpltCallback                       build/obj/stm32l4xx_hal_i2c.o
HAL_I2C_Slave_Receive                             build/obj/stm32l4xx_hal_i2c.o
HAL_I2C_Slave_Receive_DMA                         build/obj/stm32l4xx_hal_i2c.o
HAL_I2C_Slave_Receive_IT                          build/obj/stm32l4xx_hal_i2c.o
HAL_I2C_Slave_Sequential_Receive_IT               build/obj/stm32l4xx_hal_i2c.o
HAL_I2C_Slave_Sequential_Transmit_IT              build/obj/stm32l4xx_hal_i2c.o
HAL_I2C_Slave_Transmit                            build/obj/stm32l4xx_hal_i2c.o
HAL_I2C_Slave_Transmit_DMA                        build/obj/stm32l4xx_hal_i2c.o
HAL_I2C_Slave_Transmit_IT                         build/obj/stm32l4xx_hal_i2c.o
HAL_IncTick                                       build/obj/stm32l4xx_hal.o
HAL_Init                                          build/obj/stm32l4xx_hal.o
HAL_InitTick                                      build/obj/stm32l4xx_hal.o
                                                  build/obj/stm32l4xx_hal_rcc.o
HAL_LIN_Init                                      build/obj/stm32l4xx_hal_uart.o
HAL_LIN_SendBreak                                 build/obj/stm32l4xx_hal_uart.o
HAL_MPU_ConfigRegion                              build/obj/stm32l4xx_hal_cortex.o
HAL_MspDeInit                                     build/obj/stm32l4xx_hal.o
HAL_MspInit                                       build/obj/stm32l4xx_hal.o
HAL_MultiProcessorEx_AddressLength_Set            build/obj/stm32l4xx_hal_uart_ex.o
HAL_MultiProcessor_DisableMuteMode                build/obj/stm32l4xx_hal_uart.o
HAL_MultiProcessor_EnableMuteMode                 build/obj/stm32l4xx_hal_uart.o
HAL_MultiProcessor_EnterMuteMode                  build/obj/stm32l4xx_hal_uart.o
HAL_MultiProcessor_Init                           build/obj/stm32l4xx_hal_uart.o
HAL_NVIC_ClearPendingIRQ                          build/obj/stm32l4xx_hal_cortex.o
                                                  build/obj/SensorTile_BlueNRG.o
HAL_NVIC_DisableIRQ                               build/obj/stm32l4xx_hal_cortex.o
                                                  build/obj/SensorTile_BlueNRG.o
HAL_NVIC_EnableIRQ                                build/obj/stm32l4xx_hal_cortex.o
                                                  build/obj/SensorTile_audio_in.o
                                                  build/obj/SensorTile_BlueNRG.o
                                                  build/obj/SensorTile.o
                                                  build/obj/stm32l4xx_hal_msp.o
HAL_NVIC_GetActive                                build/obj/stm32l4xx_hal_cortex.o
HAL_NVIC_GetPendingIRQ                            build/obj/stm32l4xx_hal_cortex.o
HAL_NVIC_GetPriority                              build/obj/stm32l4xx_hal_cortex.o
HAL_NVIC_GetPriorityGrouping                      build/obj/stm32l4xx_hal_cortex.o
HAL_NVIC_SetPendingIRQ                            build/obj/stm32l4xx_hal_cortex.o
HAL_NVIC_SetPriority                              build/obj/stm32l4xx_hal_cortex.o
                                                  build/obj/stm32l4xx_hal.o
                                                  build/obj/SensorTile_audio_in.o
                                                  build/obj/SensorTile_BlueNRG.o
                                                  build/obj/SensorTile.o
                                                  build/obj/stm32l4xx_hal_msp.o
HAL_NVIC_SetPriorityGrouping                      build/obj/stm32l4xx_hal_cortex.o
                                                  build/obj/stm32l4xx_hal.o
HAL_NVIC_SystemReset                              build/obj/stm32l4xx_hal_cortex.o
                                                  build/obj/sensor_service.o
HAL_PCDEx_ActivateBCD                             build/obj/stm32l4xx_hal_pcd_ex.o
                                                  build/obj/stm32l4xx_hal_pcd.o
HAL_PCDEx_ActivateLPM                             build/obj/stm32l4xx_hal_pcd_ex.o
                                                  build/obj/stm32l4xx_hal_pcd.o
HAL_PCDEx_BCD_Callback                            build/obj/stm32l4xx_hal_pcd_ex.o
HAL_PCDEx_BCD_VBUSDetect                          build/obj/stm32l4xx_hal_pcd_ex.o
HAL_PCDEx_DeActivateBCD                           build/obj/stm32l4xx_hal_pcd_ex.o
HAL_PCDEx_DeActivateLPM                           build/obj/stm32l4xx_hal_pcd_ex.o
HAL_PCDEx_LPM_Callback                            build/obj/stm32l4xx_hal_pcd_ex.o
                                                  build/obj/stm32l4xx_hal_pcd.o
HAL_PCDEx_SetRxFiFo                               build/obj/stm32l4xx_hal_pcd_ex.o
                                                  build/obj/usbd_conf.o
HAL_PCDEx_SetTxFiFo                               build/obj/stm32l4xx_hal_pcd_ex.o
                                                  build/obj/usbd_conf.o
HAL_PCD_ActivateRemoteWakeup                      build/obj/stm32l4xx_hal_pcd.o
HAL_PCD_ConnectCallback                           build/obj/usbd_conf.o
HAL_PCD_DataInStageCallback                       build/obj/usbd_conf.o
HAL_PCD_DataOutStageCallback                      build/obj/usbd_conf.o
HAL_PCD_DeActivateRemoteWakeup                    build/obj/stm32l4xx_hal_pcd.o
HAL_PCD_DeInit                                    build/obj/stm32l4xx_hal_pcd.o
                                                  build/obj/usbd_conf.o
HAL_PCD_DevConnect                                build/obj/stm32l4xx_hal_pcd.o
HAL_PCD_DevDisconnect                             build/obj/stm32l4xx_hal_pcd.o
HAL_PCD_DisconnectCallback                        build/obj/usbd_conf.o
HAL_PCD_EP_Close                                  build/obj/stm32l4xx_hal_pcd.o
                                                  build/obj/usbd_conf.o
HAL_PCD_EP_ClrStall                               build/obj/stm32l4xx_hal_pcd.o
                                                  build/obj/usbd_conf.o
HAL_PCD_EP_Flush                                  build/obj/stm32l4xx_hal_pcd.o
                                                  build/obj/usbd_conf.o
HAL_PCD_EP_GetRxCount                             build/obj/stm32l4xx_hal_pcd.o
                                                  build/obj/usbd_conf.o
HAL_PCD_EP_Open                                   build/obj/stm32l4xx_hal_pcd.o
                                                  build/obj/usbd_conf.o
HAL_PCD_EP_Receive                                build/obj/stm32l4xx_hal_pcd.o
                                                  build/obj/usbd_conf.o
HAL_PCD_EP_SetStall                               build/obj/stm32l4xx_hal_pcd.o
                                                  build/obj/usbd_conf.o
HAL_PCD_EP_Transmit                               build/obj/stm32l4xx_hal_pcd.o
                                                  build/obj/usbd_conf.o
HAL_PCD_GetState                                  build/obj/stm32l4xx_hal_pcd.o
HAL_PCD_IRQHandler                                build/obj/stm32l4xx_hal_pcd.o
HAL_PCD_ISOINIncompleteCallback                   build/obj/usbd_conf.o
HAL_PCD_ISOOUTIncompleteCallback                  build/obj/usbd_conf.o
HAL_PCD_Init                                      build/obj/stm32l4xx_hal_pcd.o
                                                  build/obj/usbd_conf.o
HAL_PCD_MspDeInit                                 build/obj/stm32l4xx_hal_msp.o
HAL_PCD_MspInit                                   build/obj/stm32l4xx_hal_msp.o
HAL_PCD_ResetCallback                             build/obj/usbd_conf.o
HAL_PCD_ResumeCallback                            build/obj/usbd_conf.o
HAL_PCD_SOFCallback                               build/obj/usbd_conf.o
HAL_PCD_SetAddress                                build/obj/stm32l4xx_hal_pcd.o
                                                  build/obj/usbd_conf.o
HAL_PCD_SetupStageCallback                        build/obj/usbd_conf.o
HAL_PCD_Start                                     build/obj/stm32l4xx_hal_pcd.o
                                                  build/obj/usbd_conf.o
HAL_PCD_Stop                                      build/obj/stm32l4xx_hal_pcd.o
                                                  build/obj/usbd_conf.o
HAL_PCD_SuspendCallback                           build/obj/usbd_conf.o
HAL_PWREx_ConfigPVM                               build/obj/stm32l4xx_hal_pwr_ex.o
HAL_PWREx_ControlVoltageScaling                   build/obj/stm32l4xx_hal_pwr_ex.o
HAL_PWREx_DisableBatteryCharging                  build/obj/stm32l4xx_hal_pwr_ex.o
HAL_PWREx_DisableGPIOPullDown                     build/obj/stm32l4xx_hal_pwr_ex.o
HAL_PWREx_DisableGPIOPullUp                       build/obj/stm32l4xx_hal_pwr_ex.o
HAL_PWREx_DisableInternalWakeUpLine               build/obj/stm32l4xx_hal_pwr_ex.o
HAL_PWREx_DisableLowPowerRunMode                  build/obj/stm32l4xx_hal_pwr_ex.o
                                                  build/obj/stm32l4xx_hal_pwr.o
HAL_PWREx_DisablePVM1                             build/obj/stm32l4xx_hal_pwr_ex.o
HAL_PWREx_DisablePVM2                             build/obj/stm32l4xx_hal_pwr_ex.o
HAL_PWREx_DisablePVM3                             build/obj/stm32l4xx_hal_pwr_ex.o
HAL_PWREx_DisablePVM4                             build/obj/stm32l4xx_hal_pwr_ex.o
HAL_PWREx_DisablePullUpPullDownConfig             build/obj/stm32l4xx_hal_pwr_ex.o
HAL_PWREx_DisableSRAM2ContentRetention            build/obj/stm32l4xx_hal_pwr_ex.o
HAL_PWREx_DisableVddIO2                           build/obj/stm32l4xx_hal_pwr_ex.o
HAL_PWREx_DisableVddUSB                           build/obj/stm32l4xx_hal_pwr_ex.o
HAL_PWREx_EnableBatteryCharging                   build/obj/stm32l4xx_hal_pwr_ex.o
HAL_PWREx_EnableGPIOPullDown                      build/obj/stm32l4xx_hal_pwr_ex.o
HAL_PWREx_EnableGPIOPullUp                        build/obj/stm32l4xx_hal_pwr_ex.o
HAL_PWREx_EnableInternalWakeUpLine                build/obj/stm32l4xx_hal_pwr_ex.o
HAL_PWREx_EnableLowPowerRunMode                   build/obj/stm32l4xx_hal_pwr_ex.o
                                                  build/obj/stm32l4xx_hal_pwr.o
HAL_PWREx_EnablePVM1                              build/obj/stm32l4xx_hal_pwr_ex.o
HAL_PWREx_EnablePVM2                              build/obj/stm32l4xx_hal_pwr_ex.o
HAL_PWREx_EnablePVM3                              build/obj/stm32l4xx_hal_pwr_ex.o
HAL_PWREx_EnablePVM4                              build/obj/stm32l4xx_hal_pwr_ex.o
HAL_PWREx_EnablePullUpPullDownConfig              build/obj/stm32l4xx_hal_pwr_ex.o
HAL_PWREx_EnableSRAM2ContentRetention             build/obj/stm32l4xx_hal_pwr_ex.o
HAL_PWREx_EnableVddIO2                            build/obj/stm32l4xx_hal_pwr_ex.o
                                                  build/obj/SensorTile.o
HAL_PWREx_EnableVddUSB                            build/obj/stm32l4xx_hal_pwr_ex.o
HAL_PWREx_EnterSHUTDOWNMode                       build/obj/stm32l4xx_hal_pwr_ex.o
HAL_PWREx_EnterSTOP0Mode                          build/obj/stm32l4xx_hal_pwr_ex.o
                                                  build/obj/stm32l4xx_hal_pwr.o
HAL_PWREx_EnterSTOP1Mode                          build/obj/stm32l4xx_hal_pwr_ex.o
                                                  build/obj/stm32l4xx_hal_pwr.o
HAL_PWREx_EnterSTOP2Mode                          build/obj/stm32l4xx_hal_pwr_ex.o
HAL_PWREx_GetVoltageRange                         build/obj/stm32l4xx_hal_pwr_ex.o
                                                  build/obj/stm32l4xx_hal_rcc.o
HAL_PWREx_PVD_PVM_IRQHandler                      build/obj/stm32l4xx_hal_pwr_ex.o
HAL_PWREx_PVM1Callback                            build/obj/stm32l4xx_hal_pwr_ex.o
HAL_PWREx_PVM2Callback                            build/obj/stm32l4xx_hal_pwr_ex.o
HAL_PWREx_PVM3Callback                            build/obj/stm32l4xx_hal_pwr_ex.o
HAL_PWREx_PVM4Callback                            build/obj/stm32l4xx_hal_pwr_ex.o
HAL_PWR_ConfigPVD                                 build/obj/stm32l4xx_hal_pwr.o
HAL_PWR_DeInit                                    build/obj/stm32l4xx_hal_pwr.o
HAL_PWR_DisableBkUpAccess                         build/obj/stm32l4xx_hal_pwr.o
                                                  build/obj/stm32l4xx_hal_rcc_ex.o
HAL_PWR_DisablePVD                                build/obj/stm32l4xx_hal_pwr.o
HAL_PWR_DisableSEVOnPend                          build/obj/stm32l4xx_hal_pwr.o
HAL_PWR_DisableSleepOnExit                        build/obj/stm32l4xx_hal_pwr.o
HAL_PWR_DisableWakeUpPin                          build/obj/stm32l4xx_hal_pwr.o
HAL_PWR_EnableBkUpAccess                          build/obj/stm32l4xx_hal_pwr.o
                                                  build/obj/btle.o
                                                  build/obj/stm32l4xx_hal_rcc_ex.o
HAL_PWR_EnablePVD                                 build/obj/stm32l4xx_hal_pwr.o
HAL_PWR_EnableSEVOnPend                           build/obj/stm32l4xx_hal_pwr.o
HAL_PWR_EnableSleepOnExit                         build/obj/stm32l4xx_hal_pwr.o
HAL_PWR_EnableWakeUpPin                           build/obj/stm32l4xx_hal_pwr.o
HAL_PWR_EnterSLEEPMode                            build/obj/stm32l4xx_hal_pwr.o
HAL_PWR_EnterSTANDBYMode                          build/obj/stm32l4xx_hal_pwr.o
HAL_PWR_EnterSTOPMode                             build/obj/stm32l4xx_hal_pwr.o
HAL_PWR_PVDCallback                               build/obj/stm32l4xx_hal_pwr.o
                                                  build/obj/stm32l4xx_hal_pwr_ex.o
HAL_RCCEx_DisableLSCO                             build/obj/stm32l4xx_hal_rcc_ex.o
HAL_RCCEx_DisableLSECSS                           build/obj/stm32l4xx_hal_rcc_ex.o
                                                  build/obj/btle.o
HAL_RCCEx_DisableMSIPLLMode                       build/obj/stm32l4xx_hal_rcc_ex.o
HAL_RCCEx_DisablePLLSAI1                          build/obj/stm32l4xx_hal_rcc_ex.o
HAL_RCCEx_DisablePLLSAI2                          build/obj/stm32l4xx_hal_rcc_ex.o
HAL_RCCEx_EnableLSCO                              build/obj/stm32l4xx_hal_rcc_ex.o
HAL_RCCEx_EnableLSECSS                            build/obj/stm32l4xx_hal_rcc_ex.o
HAL_RCCEx_EnableLSECSS_IT                         build/obj/stm32l4xx_hal_rcc_ex.o
HAL_RCCEx_EnableMSIPLLMode                        build/obj/stm32l4xx_hal_rcc_ex.o
                                                  build/obj/btle.o
HAL_RCCEx_EnablePLLSAI1                           build/obj/stm32l4xx_hal_rcc_ex.o
HAL_RCCEx_EnablePLLSAI2                           build/obj/stm32l4xx_hal_rcc_ex.o
HAL_RCCEx_GetPeriphCLKConfig                      build/obj/stm32l4xx_hal_rcc_ex.o
HAL_RCCEx_GetPeriphCLKFreq                        build/obj/stm32l4xx_hal_rcc_ex.o
HAL_RCCEx_LSECSS_Callback                         build/obj/stm32l4xx_hal_rcc_ex.o
HAL_RCCEx_LSECSS_IRQHandler                       build/obj/stm32l4xx_hal_rcc_ex.o
HAL_RCCEx_PeriphCLKConfig                         build/obj/stm32l4xx_hal_rcc_ex.o
                                                  build/obj/btle.o
                                                  build/obj/SensorTile_audio_in.o
                                                  build/obj/SensorTile.o
HAL_RCCEx_StandbyMSIRangeConfig                   build/obj/stm32l4xx_hal_rcc_ex.o
HAL_RCCEx_WakeUpStopCLKConfig                     build/obj/stm32l4xx_hal_rcc_ex.o
HAL_RCC_CSSCallback                               build/obj/stm32l4xx_hal_rcc.o
HAL_RCC_ClockConfig                               build/obj/stm32l4xx_hal_rcc.o
                                                  build/obj/btle.o
HAL_RCC_DeInit                                    build/obj/stm32l4xx_hal_rcc.o
HAL_RCC_EnableCSS                                 build/obj/stm32l4xx_hal_rcc.o
HAL_RCC_GetClockConfig                            build/obj/stm32l4xx_hal_rcc.o
HAL_RCC_GetHCLKFreq                               build/obj/stm32l4xx_hal_rcc.o
                                                  build/obj/stm32l4xx_hal_pcd.o
HAL_RCC_GetOscConfig                              build/obj/stm32l4xx_hal_rcc.o
HAL_RCC_GetPCLK1Freq                              build/obj/stm32l4xx_hal_rcc.o
                                                  build/obj/stm32l4xx_hal_uart.o
                                                  build/obj/stm32l4xx_hal_rcc_ex.o
HAL_RCC_GetPCLK2Freq                              build/obj/stm32l4xx_hal_rcc.o
                                                  build/obj/stm32l4xx_hal_uart.o
                                                  build/obj/stm32l4xx_hal_rcc_ex.o
HAL_RCC_GetSysClockFreq                           build/obj/stm32l4xx_hal_rcc.o
                                                  build/obj/stm32l4xx_hal_uart.o
                                                  build/obj/stm32l4xx_hal_rcc_ex.o
HAL_RCC_MCOConfig                                 build/obj/stm32l4xx_hal_rcc.o
HAL_RCC_NMI_IRQHandler                            build/obj/stm32l4xx_hal_rcc.o
HAL_RCC_OscConfig                                 build/obj/stm32l4xx_hal_rcc.o
                                                  build/obj/btle.o
HAL_RS485Ex_Init                                  build/obj/stm32l4xx_hal_uart_ex.o
HAL_RTCEx_AlarmBEventCallback                     build/obj/stm32l4xx_hal_rtc_ex.o
                                                  build/obj/stm32l4xx_hal_rtc.o
HAL_RTCEx_BKUPRead                                build/obj/stm32l4xx_hal_rtc_ex.o
HAL_RTCEx_BKUPWrite                               build/obj/stm32l4xx_hal_rtc_ex.o
HAL_RTCEx_DeactivateCalibrationOutPut             build/obj/stm32l4xx_hal_rtc_ex.o
HAL_RTCEx_DeactivateInternalTimeStamp             build/obj/stm32l4xx_hal_rtc_ex.o
HAL_RTCEx_DeactivateRefClock                      build/obj/stm32l4xx_hal_rtc_ex.o
HAL_RTCEx_DeactivateTamper                        build/obj/stm32l4xx_hal_rtc_ex.o
HAL_RTCEx_DeactivateTimeStamp                     build/obj/stm32l4xx_hal_rtc_ex.o
HAL_RTCEx_DeactivateWakeUpTimer                   build/obj/stm32l4xx_hal_rtc_ex.o
HAL_RTCEx_DisableBypassShadow                     build/obj/stm32l4xx_hal_rtc_ex.o
HAL_RTCEx_EnableBypassShadow                      build/obj/stm32l4xx_hal_rtc_ex.o
HAL_RTCEx_GetTimeStamp                            build/obj/stm32l4xx_hal_rtc_ex.o
HAL_RTCEx_GetWakeUpTimer                          build/obj/stm32l4xx_hal_rtc_ex.o
HAL_RTCEx_PollForAlarmBEvent                      build/obj/stm32l4xx_hal_rtc_ex.o
HAL_RTCEx_PollForTamper1Event                     build/obj/stm32l4xx_hal_rtc_ex.o
HAL_RTCEx_PollForTamper2Event                     build/obj/stm32l4xx_hal_rtc_ex.o
HAL_RTCEx_PollForTamper3Event                     build/obj/stm32l4xx_hal_rtc_ex.o
HAL_RTCEx_PollForTimeStampEvent                   build/obj/stm32l4xx_hal_rtc_ex.o
HAL_RTCEx_PollForWakeUpTimerEvent                 build/obj/stm32l4xx_hal_rtc_ex.o
HAL_RTCEx_SetCalibrationOutPut                    build/obj/stm32l4xx_hal_rtc_ex.o
HAL_RTCEx_SetInternalTimeStamp                    build/obj/stm32l4xx_hal_rtc_ex.o
HAL_RTCEx_SetRefClock                             build/obj/stm32l4xx_hal_rtc_ex.o
HAL_RTCEx_SetSmoothCalib                          build/obj/stm32l4xx_hal_rtc_ex.o
HAL_RTCEx_SetSynchroShift                         build/obj/stm32l4xx_hal_rtc_ex.o
HAL_RTCEx_SetTamper                               build/obj/stm32l4xx_hal_rtc_ex.o
HAL_RTCEx_SetTamper_IT                            build/obj/stm32l4xx_hal_rtc_ex.o
HAL_RTCEx_SetTimeStamp                            build/obj/stm32l4xx_hal_rtc_ex.o
HAL_RTCEx_SetTimeStamp_IT                         build/obj/stm32l4xx_hal_rtc_ex.o
HAL_RTCEx_SetWakeUpTimer                          build/obj/stm32l4xx_hal_rtc_ex.o
HAL_RTCEx_SetWakeUpTimer_IT                       build/obj/stm32l4xx_hal_rtc_ex.o
HAL_RTCEx_Tamper1EventCallback                    build/obj/stm32l4xx_hal_rtc_ex.o
HAL_RTCEx_Tamper2EventCallback                    build/obj/stm32l4xx_hal_rtc_ex.o
HAL_RTCEx_Tamper3EventCallback                    build/obj/stm32l4xx_hal_rtc_ex.o
HAL_RTCEx_TamperTimeStampIRQHandler               build/obj/stm32l4xx_hal_rtc_ex.o
HAL_RTCEx_TimeStampEventCallback                  build/obj/stm32l4xx_hal_rtc_ex.o
HAL_RTCEx_WakeUpTimerEventCallback                build/obj/stm32l4xx_hal_rtc_ex.o
HAL_RTCEx_WakeUpTimerIRQHandler                   build/obj/stm32l4xx_hal_rtc_ex.o
HAL_RTC_AlarmAEventCallback                       build/obj/stm32l4xx_hal_rtc.o
HAL_RTC_AlarmIRQHandler                           build/obj/stm32l4xx_hal_rtc.o
HAL_RTC_DeInit                                    build/obj/stm32l4xx_hal_rtc.o
HAL_RTC_DeactivateAlarm                           build/obj/stm32l4xx_hal_rtc.o
HAL_RTC_GetAlarm                                  build/obj/stm32l4xx_hal_rtc.o
HAL_RTC_GetDate                                   build/obj/stm32l4xx_hal_rtc.o
HAL_RTC_GetState                                  build/obj/stm32l4xx_hal_rtc.o
HAL_RTC_GetTime                                   build/obj/stm32l4xx_hal_rtc.o
HAL_RTC_Init                                      build/obj/stm32l4xx_hal_rtc.o
HAL_RTC_MspDeInit                                 build/obj/stm32l4xx_hal_rtc.o
HAL_RTC_MspInit                                   build/obj/stm32l4xx_hal_rtc.o
HAL_RTC_PollForAlarmAEvent                        build/obj/stm32l4xx_hal_rtc.o
HAL_RTC_SetAlarm                                  build/obj/stm32l4xx_hal_rtc.o
HAL_RTC_SetAlarm_IT                               build/obj/stm32l4xx_hal_rtc.o
HAL_RTC_SetDate                                   build/obj/stm32l4xx_hal_rtc.o
HAL_RTC_SetTime                                   build/obj/stm32l4xx_hal_rtc.o
HAL_RTC_WaitForSynchro                            build/obj/stm32l4xx_hal_rtc.o
                                                  build/obj/stm32l4xx_hal_rtc_ex.o
HAL_ResumeTick                                    build/obj/stm32l4xx_hal.o
HAL_SPIEx_FlushRxFifo                             build/obj/stm32l4xx_hal_spi_ex.o
HAL_SPI_DMAPause                                  build/obj/stm32l4xx_hal_spi.o
HAL_SPI_DMAResume                                 build/obj/stm32l4xx_hal_spi.o
HAL_SPI_DMAStop                                   build/obj/stm32l4xx_hal_spi.o
HAL_SPI_DeInit                                    build/obj/stm32l4xx_hal_spi.o
                                                  build/obj/SensorTile.o
HAL_SPI_ErrorCallback                             build/obj/stm32l4xx_hal_spi.o
HAL_SPI_GetError                                  build/obj/stm32l4xx_hal_spi.o
HAL_SPI_GetState                                  build/obj/stm32l4xx_hal_spi.o
                                                  build/obj/SensorTile.o
HAL_SPI_IRQHandler                                build/obj/stm32l4xx_hal_spi.o
HAL_SPI_Init                                      build/obj/stm32l4xx_hal_spi.o
                                                  build/obj/SensorTile_BlueNRG.o
                                                  build/obj/SensorTile.o
HAL_SPI_MspDeInit                                 build/obj/stm32l4xx_hal_spi.o
HAL_SPI_MspInit                                   build/obj/SensorTile_BlueNRG.o
HAL_SPI_Receive                                   build/obj/stm32l4xx_hal_spi.o
HAL_SPI_Receive_DMA                               build/obj/stm32l4xx_hal_spi.o
HAL_SPI_Receive_IT                                build/obj/stm32l4xx_hal_spi.o
HAL_SPI_RxCpltCallback                            build/obj/stm32l4xx_hal_spi.o
HAL_SPI_RxHalfCpltCallback                        build/obj/stm32l4xx_hal_spi.o
HAL_SPI_Transmit                                  build/obj/stm32l4xx_hal_spi.o
                                                  build/obj/SensorTile.o
HAL_SPI_TransmitReceive                           build/obj/stm32l4xx_hal_spi.o
                                                  build/obj/SensorTile_BlueNRG.o
                                                  build/obj/SensorTile.o
HAL_SPI_TransmitReceive_DMA                       build/obj/stm32l4xx_hal_spi.o
HAL_SPI_TransmitReceive_IT                        build/obj/stm32l4xx_hal_spi.o
HAL_SPI_Transmit_DMA                              build/obj/stm32l4xx_hal_spi.o
HAL_SPI_Transmit_IT                               build/obj/stm32l4xx_hal_spi.o
HAL_SPI_TxCpltCallback                            build/obj/stm32l4xx_hal_spi.o
HAL_SPI_TxHalfCpltCallback                        build/obj/stm32l4xx_hal_spi.o
HAL_SPI_TxRxCpltCallback                          build/obj/stm32l4xx_hal_spi.o
HAL_SPI_TxRxHalfCpltCallback                      build/obj/stm32l4xx_hal_spi.o
HAL_SYSCFG_DisableIOAnalogSwitchBooster           build/obj/stm32l4xx_hal.o
HAL_SYSCFG_DisableMemorySwappingBank              build/obj/stm32l4xx_hal.o
HAL_SYSCFG_DisableVREFBUF                         build/obj/stm32l4xx_hal.o
HAL_SYSCFG_EnableIOAnalogSwitchBooster            build/obj/stm32l4xx_hal.o
HAL_SYSCFG_EnableMemorySwappingBank               build/obj/stm32l4xx_hal.o
HAL_SYSCFG_EnableVREFBUF                          build/obj/stm32l4xx_hal.o
HAL_SYSCFG_SRAM2Erase                             build/obj/stm32l4xx_hal.o
HAL_SYSCFG_VREFBUF_HighImpedanceConfig            build/obj/stm32l4xx_hal.o
HAL_SYSCFG_VREFBUF_TrimmingConfig                 build/obj/stm32l4xx_hal.o
HAL_SYSCFG_VREFBUF_VoltageScalingConfig           build/obj/stm32l4xx_hal.o
HAL_SYSTICK_CLKSourceConfig                       build/obj/stm32l4xx_hal_cortex.o
HAL_SYSTICK_Callback                              build/obj/stm32l4xx_hal_cortex.o
HAL_SYSTICK_Config                                build/obj/stm32l4xx_hal_cortex.o
                                                  build/obj/stm32l4xx_hal.o
HAL_SYSTICK_IRQHandler                            build/obj/stm32l4xx_hal_cortex.o
HAL_SuspendTick                                   build/obj/stm32l4xx_hal.o
HAL_TIMEx_BreakCallback                           build/obj/stm32l4xx_hal_tim_ex.o
                                                  build/obj/stm32l4xx_hal_tim.o
HAL_TIMEx_CommutationCallback                     build/obj/stm32l4xx_hal_tim_ex.o
                                                  build/obj/stm32l4xx_hal_tim.o
HAL_TIMEx_ConfigBreakDeadTime                     build/obj/stm32l4xx_hal_tim_ex.o
HAL_TIMEx_ConfigBreakInput                        build/obj/stm32l4xx_hal_tim_ex.o
HAL_TIMEx_ConfigCommutationEvent                  build/obj/stm32l4xx_hal_tim_ex.o
HAL_TIMEx_ConfigCommutationEvent_DMA              build/obj/stm32l4xx_hal_tim_ex.o
HAL_TIMEx_ConfigCommutationEvent_IT               build/obj/stm32l4xx_hal_tim_ex.o
HAL_TIMEx_GroupChannel5                           build/obj/stm32l4xx_hal_tim_ex.o
HAL_TIMEx_HallSensor_DeInit                       build/obj/stm32l4xx_hal_tim_ex.o
HAL_TIMEx_HallSensor_GetState                     build/obj/stm32l4xx_hal_tim_ex.o
HAL_TIMEx_HallSensor_Init                         build/obj/stm32l4xx_hal_tim_ex.o
HAL_TIMEx_HallSensor_MspDeInit                    build/obj/stm32l4xx_hal_tim_ex.o
HAL_TIMEx_HallSensor_MspInit                      build/obj/stm32l4xx_hal_tim_ex.o
HAL_TIMEx_HallSensor_Start                        build/obj/stm32l4xx_hal_tim_ex.o
HAL_TIMEx_HallSensor_Start_DMA                    build/obj/stm32l4xx_hal_tim_ex.o
HAL_TIMEx_HallSensor_Start_IT                     build/obj/stm32l4xx_hal_tim_ex.o
HAL_TIMEx_HallSensor_Stop                         build/obj/stm32l4xx_hal_tim_ex.o
HAL_TIMEx_HallSensor_Stop_DMA                     build/obj/stm32l4xx_hal_tim_ex.o
HAL_TIMEx_HallSensor_Stop_IT                      build/obj/stm32l4xx_hal_tim_ex.o
HAL_TIMEx_MasterConfigSynchronization             build/obj/stm32l4xx_hal_tim_ex.o
HAL_TIMEx_OCN_Start                               build/obj/stm32l4xx_hal_tim_ex.o
HAL_TIMEx_OCN_Start_DMA                           build/obj/stm32l4xx_hal_tim_ex.o
HAL_TIMEx_OCN_Start_IT                            build/obj/stm32l4xx_hal_tim_ex.o
HAL_TIMEx_OCN_Stop                                build/obj/stm32l4xx_hal_tim_ex.o
HAL_TIMEx_OCN_Stop_DMA                            build/obj/stm32l4xx_hal_tim_ex.o
HAL_TIMEx_OCN_Stop_IT                             build/obj/stm32l4xx_hal_tim_ex.o
HAL_TIMEx_OnePulseN_Start                         build/obj/stm32l4xx_hal_tim_ex.o
HAL_TIMEx_OnePulseN_Start_IT                      build/obj/stm32l4xx_hal_tim_ex.o
HAL_TIMEx_OnePulseN_Stop                          build/obj/stm32l4xx_hal_tim_ex.o
HAL_TIMEx_OnePulseN_Stop_IT                       build/obj/stm32l4xx_hal_tim_ex.o
HAL_TIMEx_PWMN_Start                              build/obj/stm32l4xx_hal_tim_ex.o
HAL_TIMEx_PWMN_Start_DMA                          build/obj/stm32l4xx_hal_tim_ex.o
HAL_TIMEx_PWMN_Start_IT                           build/obj/stm32l4xx_hal_tim_ex.o
HAL_TIMEx_PWMN_Stop                               build/obj/stm32l4xx_hal_tim_ex.o
HAL_TIMEx_PWMN_Stop_DMA                           build/obj/stm32l4xx_hal_tim_ex.o
HAL_TIMEx_PWMN_Stop_IT                            build/obj/stm32l4xx_hal_tim_ex.o
HAL_TIMEx_RemapConfig                             build/obj/stm32l4xx_hal_tim_ex.o
HAL_TIM_Base_DeInit                               build/obj/stm32l4xx_hal_tim.o
HAL_TIM_Base_GetState                             build/obj/stm32l4xx_hal_tim.o
HAL_TIM_Base_Init                                 build/obj/stm32l4xx_hal_tim.o
                                                  build/obj/btle.o
HAL_TIM_Base_MspDeInit                            build/obj/stm32l4xx_hal_tim.o
HAL_TIM_Base_MspInit                              build/obj/stm32l4xx_hal_msp.o
HAL_TIM_Base_Start                                build/obj/stm32l4xx_hal_tim.o
HAL_TIM_Base_Start_DMA                            build/obj/stm32l4xx_hal_tim.o
HAL_TIM_Base_Start_IT                             build/obj/stm32l4xx_hal_tim.o
                                                  build/obj/sensor_service.o
HAL_TIM_Base_Stop                                 build/obj/stm32l4xx_hal_tim.o
HAL_TIM_Base_Stop_DMA                             build/obj/stm32l4xx_hal_tim.o
HAL_TIM_Base_Stop_IT                              build/obj/stm32l4xx_hal_tim.o
                                                  build/obj/sensor_service.o
HAL_TIM_ConfigClockSource                         build/obj/stm32l4xx_hal_tim.o
HAL_TIM_ConfigOCrefClear                          build/obj/stm32l4xx_hal_tim.o
HAL_TIM_ConfigTI1Input                            build/obj/stm32l4xx_hal_tim.o
HAL_TIM_DMABurst_ReadStart                        build/obj/stm32l4xx_hal_tim.o
HAL_TIM_DMABurst_ReadStop                         build/obj/stm32l4xx_hal_tim.o
HAL_TIM_DMABurst_WriteStart                       build/obj/stm32l4xx_hal_tim.o
HAL_TIM_DMABurst_WriteStop                        build/obj/stm32l4xx_hal_tim.o
HAL_TIM_Encoder_DeInit                            build/obj/stm32l4xx_hal_tim.o
HAL_TIM_Encoder_GetState                          build/obj/stm32l4xx_hal_tim.o
HAL_TIM_Encoder_Init                              build/obj/stm32l4xx_hal_tim.o
HAL_TIM_Encoder_MspDeInit                         build/obj/stm32l4xx_hal_tim.o
HAL_TIM_Encoder_MspInit                           build/obj/stm32l4xx_hal_tim.o
HAL_TIM_Encoder_Start                             build/obj/stm32l4xx_hal_tim.o
HAL_TIM_Encoder_Start_DMA                         build/obj/stm32l4xx_hal_tim.o
HAL_TIM_Encoder_Start_IT                          build/obj/stm32l4xx_hal_tim.o
HAL_TIM_Encoder_Stop                              build/obj/stm32l4xx_hal_tim.o
HAL_TIM_Encoder_Stop_DMA                          build/obj/stm32l4xx_hal_tim.o
HAL_TIM_Encoder_Stop_IT                           build/obj/stm32l4xx_hal_tim.o
HAL_TIM_ErrorCallback                             build/obj/stm32l4xx_hal_tim.o
HAL_TIM_GenerateEvent                             build/obj/stm32l4xx_hal_tim.o
HAL_TIM_IC_CaptureCallback                        build/obj/stm32l4xx_hal_tim.o
HAL_TIM_IC_ConfigChannel                          build/obj/stm32l4xx_hal_tim.o
HAL_TIM_IC_DeInit                                 build/obj/stm32l4xx_hal_tim.o
HAL_TIM_IC_GetState                               build/obj/stm32l4xx_hal_tim.o
HAL_TIM_IC_Init                                   build/obj/stm32l4xx_hal_tim.o
HAL_TIM_IC_MspDeInit                              build/obj/stm32l4xx_hal_tim.o
HAL_TIM_IC_MspInit                                build/obj/stm32l4xx_hal_tim.o
HAL_TIM_IC_Start                                  build/obj/stm32l4xx_hal_tim.o
HAL_TIM_IC_Start_DMA                              build/obj/stm32l4xx_hal_tim.o
HAL_TIM_IC_Start_IT                               build/obj/stm32l4xx_hal_tim.o
HAL_TIM_IC_Stop                                   build/obj/stm32l4xx_hal_tim.o
HAL_TIM_IC_Stop_DMA                               build/obj/stm32l4xx_hal_tim.o
HAL_TIM_IC_Stop_IT                                build/obj/stm32l4xx_hal_tim.o
HAL_TIM_IRQHandler                                build/obj/stm32l4xx_hal_tim.o
HAL_TIM_OC_ConfigChannel                          build/obj/stm32l4xx_hal_tim.o
                                                  build/obj/btle.o
HAL_TIM_OC_DeInit                                 build/obj/stm32l4xx_hal_tim.o
HAL_TIM_OC_DelayElapsedCallback                   build/obj/btle.o
                                                  build/obj/stm32l4xx_hal_tim.o
HAL_TIM_OC_GetState                               build/obj/stm32l4xx_hal_tim.o
HAL_TIM_OC_Init                                   build/obj/stm32l4xx_hal_tim.o
                                                  build/obj/btle.o
HAL_TIM_OC_MspDeInit                              build/obj/stm32l4xx_hal_tim.o
HAL_TIM_OC_MspInit                                build/obj/stm32l4xx_hal_msp.o
HAL_TIM_OC_Start                                  build/obj/stm32l4xx_hal_tim.o
HAL_TIM_OC_Start_DMA                              build/obj/stm32l4xx_hal_tim.o
HAL_TIM_OC_Start_IT                               build/obj/stm32l4xx_hal_tim.o
                                                  build/obj/sensor_service.o
HAL_TIM_OC_Stop                                   build/obj/stm32l4xx_hal_tim.o
HAL_TIM_OC_Stop_DMA                               build/obj/stm32l4xx_hal_tim.o
HAL_TIM_OC_Stop_IT                                build/obj/stm32l4xx_hal_tim.o
                                                  build/obj/sensor_service.o
HAL_TIM_OnePulse_ConfigChannel                    build/obj/stm32l4xx_hal_tim.o
HAL_TIM_OnePulse_DeInit                           build/obj/stm32l4xx_hal_tim.o
HAL_TIM_OnePulse_GetState                         build/obj/stm32l4xx_hal_tim.o
HAL_TIM_OnePulse_Init                             build/obj/stm32l4xx_hal_tim.o
HAL_TIM_OnePulse_MspDeInit                        build/obj/stm32l4xx_hal_tim.o
HAL_TIM_OnePulse_MspInit                          build/obj/stm32l4xx_hal_tim.o
HAL_TIM_OnePulse_Start                            build/obj/stm32l4xx_hal_tim.o
HAL_TIM_OnePulse_Start_IT                         build/obj/stm32l4xx_hal_tim.o
HAL_TIM_OnePulse_Stop                             build/obj/stm32l4xx_hal_tim.o
HAL_TIM_OnePulse_Stop_IT                          build/obj/stm32l4xx_hal_tim.o
HAL_TIM_PWM_ConfigChannel                         build/obj/stm32l4xx_hal_tim.o
HAL_TIM_PWM_DeInit                                build/obj/stm32l4xx_hal_tim.o
HAL_TIM_PWM_GetState                              build/obj/stm32l4xx_hal_tim.o
HAL_TIM_PWM_Init                                  build/obj/stm32l4xx_hal_tim.o
HAL_TIM_PWM_MspDeInit                             build/obj/stm32l4xx_hal_tim.o
HAL_TIM_PWM_MspInit                               build/obj/stm32l4xx_hal_tim.o
HAL_TIM_PWM_PulseFinishedCallback                 build/obj/stm32l4xx_hal_tim.o
HAL_TIM_PWM_Start                                 build/obj/stm32l4xx_hal_tim.o
HAL_TIM_PWM_Start_DMA                             build/obj/stm32l4xx_hal_tim.o
HAL_TIM_PWM_Start_IT                              build/obj/stm32l4xx_hal_tim.o
HAL_TIM_PWM_Stop                                  build/obj/stm32l4xx_hal_tim.o
HAL_TIM_PWM_Stop_DMA                              build/obj/stm32l4xx_hal_tim.o
HAL_TIM_PWM_Stop_IT                               build/obj/stm32l4xx_hal_tim.o
HAL_TIM_PeriodElapsedCallback                     build/obj/btle.o
                                                  build/obj/stm32l4xx_hal_tim.o
HAL_TIM_ReadCapturedValue                         build/obj/stm32l4xx_hal_tim.o
                                                  build/obj/btle.o
HAL_TIM_SlaveConfigSynchronization                build/obj/stm32l4xx_hal_tim.o
HAL_TIM_SlaveConfigSynchronization_IT             build/obj/stm32l4xx_hal_tim.o
HAL_TIM_TriggerCallback                           build/obj/stm32l4xx_hal_tim.o
HAL_UARTEx_DisableStopMode                        build/obj/stm32l4xx_hal_uart_ex.o
HAL_UARTEx_EnableStopMode                         build/obj/stm32l4xx_hal_uart_ex.o
HAL_UARTEx_StopModeWakeUpSourceConfig             build/obj/stm32l4xx_hal_uart_ex.o
HAL_UARTEx_WakeupCallback                         build/obj/stm32l4xx_hal_uart_ex.o
                                                  build/obj/stm32l4xx_hal_uart.o
HAL_UART_DMAPause                                 build/obj/stm32l4xx_hal_uart.o
HAL_UART_DMAResume                                build/obj/stm32l4xx_hal_uart.o
HAL_UART_DMAStop                                  build/obj/stm32l4xx_hal_uart.o
HAL_UART_DeInit                                   build/obj/stm32l4xx_hal_uart.o
HAL_UART_ErrorCallback                            build/obj/stm32l4xx_hal_uart.o
HAL_UART_GetError                                 build/obj/stm32l4xx_hal_uart.o
HAL_UART_GetState                                 build/obj/stm32l4xx_hal_uart.o
HAL_UART_IRQHandler                               build/obj/stm32l4xx_hal_uart.o
HAL_UART_Init                                     build/obj/stm32l4xx_hal_uart.o
HAL_UART_MspDeInit                                build/obj/stm32l4xx_hal_uart.o
HAL_UART_MspInit                                  build/obj/stm32l4xx_hal_uart.o
                                                  build/obj/stm32l4xx_hal_uart_ex.o
HAL_UART_Receive                                  build/obj/stm32l4xx_hal_uart.o
HAL_UART_Receive_DMA                              build/obj/stm32l4xx_hal_uart.o
HAL_UART_Receive_IT                               build/obj/stm32l4xx_hal_uart.o
HAL_UART_RxCpltCallback                           build/obj/stm32l4xx_hal_uart.o
HAL_UART_RxHalfCpltCallback                       build/obj/stm32l4xx_hal_uart.o
HAL_UART_Transmit                                 build/obj/stm32l4xx_hal_uart.o
HAL_UART_Transmit_DMA                             build/obj/stm32l4xx_hal_uart.o
HAL_UART_Transmit_IT                              build/obj/stm32l4xx_hal_uart.o
HAL_UART_TxCpltCallback                           build/obj/stm32l4xx_hal_uart.o
HAL_UART_TxHalfCpltCallback                       build/obj/stm32l4xx_hal_uart.o
HCI_Event_CB                                      build/obj/sensor_service.o
                                                  build/obj/hci.o
HCI_Init                                          build/obj/hci.o
                                                  build/obj/btle.o
HCI_Isr                                           build/obj/hci.o
                                                  build/obj/btle.o
HCI_Process                                       build/obj/hci.o
                                                  build/obj/btle.o
                                                  build/obj/bluenrg_utils.o
HCI_Queue_Empty                                   build/obj/hci.o
HCI_verify                                        build/obj/hci.o
HOST_TO_LE_16                                     build/obj/bluenrg_utils.o
HTS221_Activate                                   build/obj/HTS221_Driver.o
                                                  build/obj/HTS221_Driver_HL.o
HTS221_Combo_Data                                 build/obj/SensorTile_temperature.o
                                                  build/obj/SensorTile_humidity.o
                                                  build/obj/HTS221_Driver_HL.o
HTS221_DeActivate                                 build/obj/HTS221_Driver.o
                                                  build/obj/HTS221_Driver_HL.o
HTS221_DeInit                                     build/obj/HTS221_Driver.o
HTS221_Get_AvgHT                                  build/obj/HTS221_Driver.o
HTS221_Get_BduMode                                build/obj/HTS221_Driver.o
HTS221_Get_DataStatus                             build/obj/HTS221_Driver.o
                                                  build/obj/HTS221_Driver_HL.o
HTS221_Get_DeviceID                               build/obj/HTS221_Driver.o
                                                  build/obj/HTS221_Driver_HL.o
HTS221_Get_DriverVersion                          build/obj/HTS221_Driver.o
HTS221_Get_HeaterState                            build/obj/HTS221_Driver.o
HTS221_Get_Humidity                               build/obj/HTS221_Driver.o
                                                  build/obj/HTS221_Driver_HL.o
HTS221_Get_HumidityRaw                            build/obj/HTS221_Driver.o
HTS221_Get_InitConfig                             build/obj/HTS221_Driver.o
HTS221_Get_IrqActiveLevel                         build/obj/HTS221_Driver.o
HTS221_Get_IrqEnable                              build/obj/HTS221_Driver.o
HTS221_Get_IrqOutputType                          build/obj/HTS221_Driver.o
HTS221_Get_Measurement                            build/obj/HTS221_Driver.o
HTS221_Get_Odr                                    build/obj/HTS221_Driver.o
                                                  build/obj/HTS221_Driver_HL.o
HTS221_Get_PowerDownMode                          build/obj/HTS221_Driver.o
HTS221_Get_RawMeasurement                         build/obj/HTS221_Driver.o
HTS221_Get_Temperature                            build/obj/HTS221_Driver.o
                                                  build/obj/HTS221_Driver_HL.o
HTS221_Get_TemperatureRaw                         build/obj/HTS221_Driver.o
HTS221_H_Drv                                      build/obj/HTS221_Driver_HL.o
                                                  build/obj/SensorTile_humidity.o
HTS221_IsMeasurementCompleted                     build/obj/HTS221_Driver.o
HTS221_MemoryBoot                                 build/obj/HTS221_Driver.o
HTS221_ReadReg                                    build/obj/HTS221_Driver.o
                                                  build/obj/HTS221_Driver_HL.o
HTS221_Set_AvgH                                   build/obj/HTS221_Driver.o
HTS221_Set_AvgHT                                  build/obj/HTS221_Driver.o
HTS221_Set_AvgT                                   build/obj/HTS221_Driver.o
HTS221_Set_BduMode                                build/obj/HTS221_Driver.o
                                                  build/obj/HTS221_Driver_HL.o
HTS221_Set_HeaterState                            build/obj/HTS221_Driver.o
HTS221_Set_InitConfig                             build/obj/HTS221_Driver.o
HTS221_Set_IrqActiveLevel                         build/obj/HTS221_Driver.o
HTS221_Set_IrqEnable                              build/obj/HTS221_Driver.o
HTS221_Set_IrqOutputType                          build/obj/HTS221_Driver.o
HTS221_Set_Odr                                    build/obj/HTS221_Driver.o
                                                  build/obj/HTS221_Driver_HL.o
HTS221_Set_PowerDownMode                          build/obj/HTS221_Driver.o
HTS221_StartOneShotMeasurement                    build/obj/HTS221_Driver.o
HTS221_T_Drv                                      build/obj/HTS221_Driver_HL.o
                                                  build/obj/SensorTile_temperature.o
HTS221_WriteReg                                   build/obj/HTS221_Driver.o
                                                  build/obj/HTS221_Driver_HL.o
HTS221_assert_failed                              build/obj/HTS221_Driver.o
HWAdvanceFeaturesStatus                           build/obj/HWAdvanceFeatures.o
                                                  build/obj/btle.o
                                                  build/obj/sensor_service.o
Hal_Write_Serial                                  build/obj/SensorTile_BlueNRG.o
                                                  build/obj/hci.o
HardFault_Handler                                 build/obj/vectors.o
IFR_validate                                      build/obj/bluenrg_utils.o
InitHWFeatures                                    build/obj/HWAdvanceFeatures.o
                                                  build/obj/btle.o
InitMetaDataManager                               build/obj/MetaDataManager.o
                                                  build/obj/btle.o
InitMics                                          build/obj/TargetPlatform.o
                                                  build/obj/sensor_service.o
InitTargetPlatform                                build/obj/TargetPlatform.o
                                                  build/obj/btle.o
LE_TO_HOST_16                                     build/obj/bluenrg_utils.o
LPS22HB_Combo_Data                                build/obj/SensorTile_temperature.o
                                                  build/obj/SensorTile_pressure.o
                                                  build/obj/LPS22HB_Driver_HL.o
LPS22HB_DeInit                                    build/obj/LPS22HB_Driver.o
LPS22HB_Get_Bdu                                   build/obj/LPS22HB_Driver.o
LPS22HB_Get_DataStatus                            build/obj/LPS22HB_Driver.o
                                                  build/obj/LPS22HB_Driver_HL.o
LPS22HB_Get_DeviceID                              build/obj/LPS22HB_Driver.o
                                                  build/obj/LPS22HB_Driver_HL.o
LPS22HB_Get_DriverVersion                         build/obj/LPS22HB_Driver.o
LPS22HB_Get_FifoConfig                            build/obj/LPS22HB_Driver.o
LPS22HB_Get_FifoMode                              build/obj/LPS22HB_Driver.o
                                                  build/obj/LPS22HB_Driver_HL.o
LPS22HB_Get_FifoStatus                            build/obj/LPS22HB_Driver.o
                                                  build/obj/LPS22HB_Driver_HL.o
LPS22HB_Get_FifoWatermarkLevel                    build/obj/LPS22HB_Driver.o
                                                  build/obj/LPS22HB_Driver_HL.o
LPS22HB_Get_GenericConfig                         build/obj/LPS22HB_Driver.o
LPS22HB_Get_InterruptConfig                       build/obj/LPS22HB_Driver.o
LPS22HB_Get_InterruptDifferentialEventStatus      build/obj/LPS22HB_Driver.o
LPS22HB_Get_InterruptDifferentialGeneration       build/obj/LPS22HB_Driver.o
LPS22HB_Get_Measurement                           build/obj/LPS22HB_Driver.o
LPS22HB_Get_Odr                                   build/obj/LPS22HB_Driver.o
                                                  build/obj/LPS22HB_Driver_HL.o
LPS22HB_Get_PowerMode                             build/obj/LPS22HB_Driver.o
LPS22HB_Get_Pressure                              build/obj/LPS22HB_Driver.o
                                                  build/obj/LPS22HB_Driver_HL.o
LPS22HB_Get_PressureOffsetValue                   build/obj/LPS22HB_Driver.o
LPS22HB_Get_PressureThreshold                     build/obj/LPS22HB_Driver.o
LPS22HB_Get_RawPressure                           build/obj/LPS22HB_Driver.o
LPS22HB_Get_RawTemperature                        build/obj/LPS22HB_Driver.o
LPS22HB_Get_ReferencePressure                     build/obj/LPS22HB_Driver.o
LPS22HB_Get_SpiInterface                          build/obj/LPS22HB_Driver.o
LPS22HB_Get_Temperature                           build/obj/LPS22HB_Driver.o
                                                  build/obj/LPS22HB_Driver_HL.o
LPS22HB_Init                                      build/obj/LPS22HB_Driver.o
LPS22HB_IsMeasurementCompleted                    build/obj/LPS22HB_Driver.o
LPS22HB_LatchInterruptRequest                     build/obj/LPS22HB_Driver.o
LPS22HB_MemoryBoot                                build/obj/LPS22HB_Driver.o
LPS22HB_P_Drv                                     build/obj/LPS22HB_Driver_HL.o
                                                  build/obj/SensorTile_pressure.o
LPS22HB_P_ExtDrv                                  build/obj/LPS22HB_Driver_HL.o
LPS22HB_ReadReg                                   build/obj/LPS22HB_Driver.o
                                                  build/obj/LPS22HB_Driver_HL.o
LPS22HB_ResetAutoRifP                             build/obj/LPS22HB_Driver.o
LPS22HB_ResetAutoZeroFunction                     build/obj/LPS22HB_Driver.o
LPS22HB_Set_AutoRifP                              build/obj/LPS22HB_Driver.o
LPS22HB_Set_AutoZeroFunction                      build/obj/LPS22HB_Driver.o
LPS22HB_Set_AutomaticIncrementRegAddress          build/obj/LPS22HB_Driver.o
                                                  build/obj/LPS22HB_Driver_HL.o
LPS22HB_Set_Bdu                                   build/obj/LPS22HB_Driver.o
                                                  build/obj/LPS22HB_Driver_HL.o
LPS22HB_Set_ClockTreeConfifuration                build/obj/LPS22HB_Driver.o
LPS22HB_Set_DRDYInterrupt                         build/obj/LPS22HB_Driver.o
LPS22HB_Set_FIFO_FTH_Interrupt                    build/obj/LPS22HB_Driver.o
                                                  build/obj/LPS22HB_Driver_HL.o
LPS22HB_Set_FIFO_FULL_Interrupt                   build/obj/LPS22HB_Driver.o
                                                  build/obj/LPS22HB_Driver_HL.o
LPS22HB_Set_FIFO_OVR_Interrupt                    build/obj/LPS22HB_Driver.o
                                                  build/obj/LPS22HB_Driver_HL.o
LPS22HB_Set_FifoConfig                            build/obj/LPS22HB_Driver.o
LPS22HB_Set_FifoMode                              build/obj/LPS22HB_Driver.o
                                                  build/obj/LPS22HB_Driver_HL.o
LPS22HB_Set_FifoModeUse                           build/obj/LPS22HB_Driver.o
                                                  build/obj/LPS22HB_Driver_HL.o
LPS22HB_Set_FifoWatermarkLevel                    build/obj/LPS22HB_Driver.o
                                                  build/obj/LPS22HB_Driver_HL.o
LPS22HB_Set_FifoWatermarkLevelUse                 build/obj/LPS22HB_Driver.o
                                                  build/obj/LPS22HB_Driver_HL.o
LPS22HB_Set_GenericConfig                         build/obj/LPS22HB_Driver.o
LPS22HB_Set_I2C                                   build/obj/LPS22HB_Driver.o
LPS22HB_Set_InterruptActiveLevel                  build/obj/LPS22HB_Driver.o
LPS22HB_Set_InterruptConfig                       build/obj/LPS22HB_Driver.o
LPS22HB_Set_InterruptControlConfig                build/obj/LPS22HB_Driver.o
LPS22HB_Set_InterruptDifferentialGeneration       build/obj/LPS22HB_Driver.o
LPS22HB_Set_InterruptOutputType                   build/obj/LPS22HB_Driver.o
LPS22HB_Set_LowPassFilter                         build/obj/LPS22HB_Driver.o
                                                  build/obj/LPS22HB_Driver_HL.o
LPS22HB_Set_LowPassFilterCutoff                   build/obj/LPS22HB_Driver.o
                                                  build/obj/LPS22HB_Driver_HL.o
LPS22HB_Set_Odr                                   build/obj/LPS22HB_Driver.o
                                                  build/obj/LPS22HB_Driver_HL.o
LPS22HB_Set_PHE                                   build/obj/LPS22HB_Driver.o
LPS22HB_Set_PLE                                   build/obj/LPS22HB_Driver.o
LPS22HB_Set_PowerMode                             build/obj/LPS22HB_Driver.o
                                                  build/obj/LPS22HB_Driver_HL.o
LPS22HB_Set_PressureThreshold                     build/obj/LPS22HB_Driver.o
LPS22HB_Set_SpiInterface                          build/obj/LPS22HB_Driver.o
LPS22HB_StartOneShotMeasurement                   build/obj/LPS22HB_Driver.o
LPS22HB_SwReset                                   build/obj/LPS22HB_Driver.o
LPS22HB_SwResetAndMemoryBoot                      build/obj/LPS22HB_Driver.o
                                                  build/obj/SensorTile_temperature.o
                                                  build/obj/SensorTile_pressure.o
LPS22HB_T_Drv                                     build/obj/LPS22HB_Driver_HL.o
                                                  build/obj/SensorTile_temperature.o
LPS22HB_T_ExtDrv                                  build/obj/LPS22HB_Driver_HL.o
LPS22HB_WriteReg                                  build/obj/LPS22HB_Driver.o
                                                  build/obj/LPS22HB_Driver_HL.o
LSM303AGR_ACC_Get_Acceleration                    build/obj/LSM303AGR_ACC_driver.o
                                                  build/obj/LSM303AGR_ACC_driver_HL.o
LSM303AGR_ACC_Get_Raw_Acceleration                build/obj/LSM303AGR_ACC_driver.o
                                                  build/obj/LSM303AGR_ACC_driver_HL.o
LSM303AGR_ACC_Get_Voltage_ADC                     build/obj/LSM303AGR_ACC_driver.o
LSM303AGR_ACC_R_4D_on_INT1                        build/obj/LSM303AGR_ACC_driver.o
LSM303AGR_ACC_R_4D_on_INT2                        build/obj/LSM303AGR_ACC_driver.o
LSM303AGR_ACC_R_ADC_PD                            build/obj/LSM303AGR_ACC_driver.o
LSM303AGR_ACC_R_BlockDataUpdate                   build/obj/LSM303AGR_ACC_driver.o
LSM303AGR_ACC_R_Boot_on_INT2                      build/obj/LSM303AGR_ACC_driver.o
LSM303AGR_ACC_R_CLICK_IA                          build/obj/LSM303AGR_ACC_driver.o
LSM303AGR_ACC_R_ClickSign                         build/obj/LSM303AGR_ACC_driver.o
LSM303AGR_ACC_R_ClickThreshold                    build/obj/LSM303AGR_ACC_driver.o
LSM303AGR_ACC_R_ClickTimeLatency                  build/obj/LSM303AGR_ACC_driver.o
LSM303AGR_ACC_R_ClickTimeLimit                    build/obj/LSM303AGR_ACC_driver.o
LSM303AGR_ACC_R_ClickTimeWindow                   build/obj/LSM303AGR_ACC_driver.o
LSM303AGR_ACC_R_ClickX                            build/obj/LSM303AGR_ACC_driver.o
LSM303AGR_ACC_R_ClickY                            build/obj/LSM303AGR_ACC_driver.o
LSM303AGR_ACC_R_ClickZ                            build/obj/LSM303AGR_ACC_driver.o
LSM303AGR_ACC_R_Click_on_INT2                     build/obj/LSM303AGR_ACC_driver.o
LSM303AGR_ACC_R_DataXOverrun                      build/obj/LSM303AGR_ACC_driver.o
LSM303AGR_ACC_R_DataXYZOverrun                    build/obj/LSM303AGR_ACC_driver.o
LSM303AGR_ACC_R_DataYOverrun                      build/obj/LSM303AGR_ACC_driver.o
LSM303AGR_ACC_R_DataZOverrun                      build/obj/LSM303AGR_ACC_driver.o
LSM303AGR_ACC_R_Data_Filter                       build/obj/LSM303AGR_ACC_driver.o
LSM303AGR_ACC_R_DoubleCLICK                       build/obj/LSM303AGR_ACC_driver.o
LSM303AGR_ACC_R_FIFO_AOL1_on_INT1                 build/obj/LSM303AGR_ACC_driver.o
LSM303AGR_ACC_R_FIFO_AOL2_on_INT1                 build/obj/LSM303AGR_ACC_driver.o
LSM303AGR_ACC_R_FIFO_Click_on_INT1                build/obj/LSM303AGR_ACC_driver.o
LSM303AGR_ACC_R_FIFO_DRDY1_on_INT1                build/obj/LSM303AGR_ACC_driver.o
LSM303AGR_ACC_R_FIFO_DRDY2_on_INT1                build/obj/LSM303AGR_ACC_driver.o
LSM303AGR_ACC_R_FIFO_EN                           build/obj/LSM303AGR_ACC_driver.o
LSM303AGR_ACC_R_FIFO_Overrun_on_INT1              build/obj/LSM303AGR_ACC_driver.o
LSM303AGR_ACC_R_FIFO_Watermark_on_INT1            build/obj/LSM303AGR_ACC_driver.o
LSM303AGR_ACC_R_FifoEmpty                         build/obj/LSM303AGR_ACC_driver.o
LSM303AGR_ACC_R_FifoMode                          build/obj/LSM303AGR_ACC_driver.o
LSM303AGR_ACC_R_FifoOverrun                       build/obj/LSM303AGR_ACC_driver.o
LSM303AGR_ACC_R_FifoSamplesAvail                  build/obj/LSM303AGR_ACC_driver.o
LSM303AGR_ACC_R_FifoThreshold                     build/obj/LSM303AGR_ACC_driver.o
LSM303AGR_ACC_R_FullScale                         build/obj/LSM303AGR_ACC_driver.o
                                                  build/obj/LSM303AGR_ACC_driver_HL.o
LSM303AGR_ACC_R_HiRes                             build/obj/LSM303AGR_ACC_driver.o
                                                  build/obj/LSM303AGR_ACC_driver_HL.o
LSM303AGR_ACC_R_I2_on_INT1                        build/obj/LSM303AGR_ACC_driver.o
LSM303AGR_ACC_R_I2_on_INT2                        build/obj/LSM303AGR_ACC_driver.o
LSM303AGR_ACC_R_Int1EnXHi                         build/obj/LSM303AGR_ACC_driver.o
LSM303AGR_ACC_R_Int1EnXLo                         build/obj/LSM303AGR_ACC_driver.o
LSM303AGR_ACC_R_Int1EnYHi                         build/obj/LSM303AGR_ACC_driver.o
LSM303AGR_ACC_R_Int1EnYLo                         build/obj/LSM303AGR_ACC_driver.o
LSM303AGR_ACC_R_Int1EnZHi                         build/obj/LSM303AGR_ACC_driver.o
LSM303AGR_ACC_R_Int1EnZLo                         build/obj/LSM303AGR_ACC_driver.o
LSM303AGR_ACC_R_Int1_6D                           build/obj/LSM303AGR_ACC_driver.o
LSM303AGR_ACC_R_Int1_AOI                          build/obj/LSM303AGR_ACC_driver.o
LSM303AGR_ACC_R_Int1_Duration                     build/obj/LSM303AGR_ACC_driver.o
LSM303AGR_ACC_R_Int1_IA                           build/obj/LSM303AGR_ACC_driver.o
LSM303AGR_ACC_R_Int1_Threshold                    build/obj/LSM303AGR_ACC_driver.o
LSM303AGR_ACC_R_Int1_XHi                          build/obj/LSM303AGR_ACC_driver.o
LSM303AGR_ACC_R_Int1_Xlo                          build/obj/LSM303AGR_ACC_driver.o
LSM303AGR_ACC_R_Int1_YHi                          build/obj/LSM303AGR_ACC_driver.o
LSM303AGR_ACC_R_Int1_YLo                          build/obj/LSM303AGR_ACC_driver.o
LSM303AGR_ACC_R_Int1_ZHi                          build/obj/LSM303AGR_ACC_driver.o
LSM303AGR_ACC_R_Int1_Zlo                          build/obj/LSM303AGR_ACC_driver.o
LSM303AGR_ACC_R_Int2EnXHi                         build/obj/LSM303AGR_ACC_driver.o
LSM303AGR_ACC_R_Int2EnXLo                         build/obj/LSM303AGR_ACC_driver.o
LSM303AGR_ACC_R_Int2EnYHi                         build/obj/LSM303AGR_ACC_driver.o
LSM303AGR_ACC_R_Int2EnYLo                         build/obj/LSM303AGR_ACC_driver.o
LSM303AGR_ACC_R_Int2EnZHi                         build/obj/LSM303AGR_ACC_driver.o
LSM303AGR_ACC_R_Int2EnZLo                         build/obj/LSM303AGR_ACC_driver.o
LSM303AGR_ACC_R_Int2_6D                           build/obj/LSM303AGR_ACC_driver.o
LSM303AGR_ACC_R_Int2_AOI                          build/obj/LSM303AGR_ACC_driver.o
LSM303AGR_ACC_R_Int2_Duration                     build/obj/LSM303AGR_ACC_driver.o
LSM303AGR_ACC_R_Int2_IA                           build/obj/LSM303AGR_ACC_driver.o
LSM303AGR_ACC_R_Int2_Threshold                    build/obj/LSM303AGR_ACC_driver.o
LSM303AGR_ACC_R_Int2_XHi                          build/obj/LSM303AGR_ACC_driver.o
LSM303AGR_ACC_R_Int2_Xlo                          build/obj/LSM303AGR_ACC_driver.o
LSM303AGR_ACC_R_Int2_YHi                          build/obj/LSM303AGR_ACC_driver.o
LSM303AGR_ACC_R_Int2_YLo                          build/obj/LSM303AGR_ACC_driver.o
LSM303AGR_ACC_R_Int2_ZHi                          build/obj/LSM303AGR_ACC_driver.o
LSM303AGR_ACC_R_Int2_Zlo                          build/obj/LSM303AGR_ACC_driver.o
LSM303AGR_ACC_R_IntActive                         build/obj/LSM303AGR_ACC_driver.o
LSM303AGR_ACC_R_LOWPWR_EN                         build/obj/LSM303AGR_ACC_driver.o
                                                  build/obj/LSM303AGR_ACC_driver_HL.o
LSM303AGR_ACC_R_LatchInterrupt_on_INT1            build/obj/LSM303AGR_ACC_driver.o
LSM303AGR_ACC_R_LatchInterrupt_on_INT2            build/obj/LSM303AGR_ACC_driver.o
LSM303AGR_ACC_R_LittleBigEndian                   build/obj/LSM303AGR_ACC_driver.o
LSM303AGR_ACC_R_ODR                               build/obj/LSM303AGR_ACC_driver.o
                                                  build/obj/LSM303AGR_ACC_driver_HL.o
LSM303AGR_ACC_R_P2_ACT                            build/obj/LSM303AGR_ACC_driver.o
LSM303AGR_ACC_R_RebootMemory                      build/obj/LSM303AGR_ACC_driver.o
LSM303AGR_ACC_R_ReferenceVal                      build/obj/LSM303AGR_ACC_driver.o
LSM303AGR_ACC_R_SPI_mode                          build/obj/LSM303AGR_ACC_driver.o
LSM303AGR_ACC_R_SelfTest                          build/obj/LSM303AGR_ACC_driver.o
LSM303AGR_ACC_R_SingleCLICK                       build/obj/LSM303AGR_ACC_driver.o
LSM303AGR_ACC_R_TEMP_EN_bits                      build/obj/LSM303AGR_ACC_driver.o
LSM303AGR_ACC_R_TriggerSel                        build/obj/LSM303AGR_ACC_driver.o
LSM303AGR_ACC_R_WHO_AM_I                          build/obj/LSM303AGR_ACC_driver.o
                                                  build/obj/LSM303AGR_ACC_driver_HL.o
LSM303AGR_ACC_R_WatermarkLevel                    build/obj/LSM303AGR_ACC_driver.o
LSM303AGR_ACC_R_XDataAvail                        build/obj/LSM303AGR_ACC_driver.o
                                                  build/obj/LSM303AGR_ACC_driver_HL.o
LSM303AGR_ACC_R_XDataOverrun                      build/obj/LSM303AGR_ACC_driver.o
LSM303AGR_ACC_R_XDouble                           build/obj/LSM303AGR_ACC_driver.o
LSM303AGR_ACC_R_XEN                               build/obj/LSM303AGR_ACC_driver.o
                                                  build/obj/LSM303AGR_ACC_driver_HL.o
LSM303AGR_ACC_R_XSingle                           build/obj/LSM303AGR_ACC_driver.o
LSM303AGR_ACC_R_XYZDataAvail                      build/obj/LSM303AGR_ACC_driver.o
LSM303AGR_ACC_R_XYZDataOverrun                    build/obj/LSM303AGR_ACC_driver.o
LSM303AGR_ACC_R_YDataAvail                        build/obj/LSM303AGR_ACC_driver.o
LSM303AGR_ACC_R_YDataOverrun                      build/obj/LSM303AGR_ACC_driver.o
LSM303AGR_ACC_R_YDouble                           build/obj/LSM303AGR_ACC_driver.o
LSM303AGR_ACC_R_YEN                               build/obj/LSM303AGR_ACC_driver.o
                                                  build/obj/LSM303AGR_ACC_driver_HL.o
LSM303AGR_ACC_R_YSingle                           build/obj/LSM303AGR_ACC_driver.o
LSM303AGR_ACC_R_ZDataAvail                        build/obj/LSM303AGR_ACC_driver.o
LSM303AGR_ACC_R_ZDataOverrun                      build/obj/LSM303AGR_ACC_driver.o
LSM303AGR_ACC_R_ZDouble                           build/obj/LSM303AGR_ACC_driver.o
LSM303AGR_ACC_R_ZEN                               build/obj/LSM303AGR_ACC_driver.o
                                                  build/obj/LSM303AGR_ACC_driver_HL.o
LSM303AGR_ACC_R_ZSingle                           build/obj/LSM303AGR_ACC_driver.o
LSM303AGR_ACC_R_hpf_aoi_en_int1                   build/obj/LSM303AGR_ACC_driver.o
LSM303AGR_ACC_R_hpf_aoi_en_int2                   build/obj/LSM303AGR_ACC_driver.o
LSM303AGR_ACC_R_hpf_click_en                      build/obj/LSM303AGR_ACC_driver.o
LSM303AGR_ACC_R_hpf_cutoff_freq                   build/obj/LSM303AGR_ACC_driver.o
LSM303AGR_ACC_R_hpf_mode                          build/obj/LSM303AGR_ACC_driver.o
LSM303AGR_ACC_R_int_counter                       build/obj/LSM303AGR_ACC_driver.o
LSM303AGR_ACC_R_x_data_avail                      build/obj/LSM303AGR_ACC_driver.o
LSM303AGR_ACC_R_xyz_data_avail                    build/obj/LSM303AGR_ACC_driver.o
LSM303AGR_ACC_R_y_data_avail                      build/obj/LSM303AGR_ACC_driver.o
LSM303AGR_ACC_R_z_data_avail                      build/obj/LSM303AGR_ACC_driver.o
LSM303AGR_ACC_ReadReg                             build/obj/LSM303AGR_ACC_driver.o
                                                  build/obj/LSM303AGR_ACC_driver_HL.o
LSM303AGR_ACC_Sensitivity_List                    build/obj/LSM303AGR_ACC_driver.o
LSM303AGR_ACC_W_4D_on_INT1                        build/obj/LSM303AGR_ACC_driver.o
LSM303AGR_ACC_W_4D_on_INT2                        build/obj/LSM303AGR_ACC_driver.o
LSM303AGR_ACC_W_ADC_PD                            build/obj/LSM303AGR_ACC_driver.o
LSM303AGR_ACC_W_BlockDataUpdate                   build/obj/LSM303AGR_ACC_driver.o
                                                  build/obj/LSM303AGR_ACC_driver_HL.o
LSM303AGR_ACC_W_Boot_on_INT2                      build/obj/LSM303AGR_ACC_driver.o
LSM303AGR_ACC_W_ClickThreshold                    build/obj/LSM303AGR_ACC_driver.o
LSM303AGR_ACC_W_ClickTimeLatency                  build/obj/LSM303AGR_ACC_driver.o
LSM303AGR_ACC_W_ClickTimeLimit                    build/obj/LSM303AGR_ACC_driver.o
LSM303AGR_ACC_W_ClickTimeWindow                   build/obj/LSM303AGR_ACC_driver.o
LSM303AGR_ACC_W_Click_on_INT2                     build/obj/LSM303AGR_ACC_driver.o
LSM303AGR_ACC_W_Data_Filter                       build/obj/LSM303AGR_ACC_driver.o
LSM303AGR_ACC_W_FIFO_AOL1_on_INT1                 build/obj/LSM303AGR_ACC_driver.o
LSM303AGR_ACC_W_FIFO_AOL2_on_INT1                 build/obj/LSM303AGR_ACC_driver.o
LSM303AGR_ACC_W_FIFO_Click_on_INT1                build/obj/LSM303AGR_ACC_driver.o
LSM303AGR_ACC_W_FIFO_DRDY1_on_INT1                build/obj/LSM303AGR_ACC_driver.o
LSM303AGR_ACC_W_FIFO_DRDY2_on_INT1                build/obj/LSM303AGR_ACC_driver.o
LSM303AGR_ACC_W_FIFO_EN                           build/obj/LSM303AGR_ACC_driver.o
LSM303AGR_ACC_W_FIFO_Overrun_on_INT1              build/obj/LSM303AGR_ACC_driver.o
LSM303AGR_ACC_W_FIFO_Watermark_on_INT1            build/obj/LSM303AGR_ACC_driver.o
LSM303AGR_ACC_W_FifoMode                          build/obj/LSM303AGR_ACC_driver.o
                                                  build/obj/LSM303AGR_ACC_driver_HL.o
LSM303AGR_ACC_W_FifoThreshold                     build/obj/LSM303AGR_ACC_driver.o
LSM303AGR_ACC_W_FullScale                         build/obj/LSM303AGR_ACC_driver.o
                                                  build/obj/LSM303AGR_ACC_driver_HL.o
LSM303AGR_ACC_W_HiRes                             build/obj/LSM303AGR_ACC_driver.o
LSM303AGR_ACC_W_I2_on_INT1                        build/obj/LSM303AGR_ACC_driver.o
LSM303AGR_ACC_W_I2_on_INT2                        build/obj/LSM303AGR_ACC_driver.o
LSM303AGR_ACC_W_Int1EnXHi                         build/obj/LSM303AGR_ACC_driver.o
LSM303AGR_ACC_W_Int1EnXLo                         build/obj/LSM303AGR_ACC_driver.o
LSM303AGR_ACC_W_Int1EnYHi                         build/obj/LSM303AGR_ACC_driver.o
LSM303AGR_ACC_W_Int1EnYLo                         build/obj/LSM303AGR_ACC_driver.o
LSM303AGR_ACC_W_Int1EnZHi                         build/obj/LSM303AGR_ACC_driver.o
LSM303AGR_ACC_W_Int1EnZLo                         build/obj/LSM303AGR_ACC_driver.o
LSM303AGR_ACC_W_Int1_6D                           build/obj/LSM303AGR_ACC_driver.o
LSM303AGR_ACC_W_Int1_AOI                          build/obj/LSM303AGR_ACC_driver.o
LSM303AGR_ACC_W_Int1_Duration                     build/obj/LSM303AGR_ACC_driver.o
LSM303AGR_ACC_W_Int1_Threshold                    build/obj/LSM303AGR_ACC_driver.o
LSM303AGR_ACC_W_Int2EnXHi                         build/obj/LSM303AGR_ACC_driver.o
LSM303AGR_ACC_W_Int2EnXLo                         build/obj/LSM303AGR_ACC_driver.o
LSM303AGR_ACC_W_Int2EnYHi                         build/obj/LSM303AGR_ACC_driver.o
LSM303AGR_ACC_W_Int2EnYLo                         build/obj/LSM303AGR_ACC_driver.o
LSM303AGR_ACC_W_Int2EnZHi                         build/obj/LSM303AGR_ACC_driver.o
LSM303AGR_ACC_W_Int2EnZLo                         build/obj/LSM303AGR_ACC_driver.o
LSM303AGR_ACC_W_Int2_6D                           build/obj/LSM303AGR_ACC_driver.o
LSM303AGR_ACC_W_Int2_AOI                          build/obj/LSM303AGR_ACC_driver.o
LSM303AGR_ACC_W_Int2_Duration                     build/obj/LSM303AGR_ACC_driver.o
LSM303AGR_ACC_W_Int2_Threshold                    build/obj/LSM303AGR_ACC_driver.o
LSM303AGR_ACC_W_IntActive                         build/obj/LSM303AGR_ACC_driver.o
LSM303AGR_ACC_W_LOWPWR_EN                         build/obj/LSM303AGR_ACC_driver.o
LSM303AGR_ACC_W_LatchInterrupt_on_INT1            build/obj/LSM303AGR_ACC_driver.o
LSM303AGR_ACC_W_LatchInterrupt_on_INT2            build/obj/LSM303AGR_ACC_driver.o
LSM303AGR_ACC_W_LittleBigEndian                   build/obj/LSM303AGR_ACC_driver.o
LSM303AGR_ACC_W_ODR                               build/obj/LSM303AGR_ACC_driver.o
                                                  build/obj/LSM303AGR_ACC_driver_HL.o
LSM303AGR_ACC_W_P2_ACT                            build/obj/LSM303AGR_ACC_driver.o
LSM303AGR_ACC_W_RebootMemory                      build/obj/LSM303AGR_ACC_driver.o
LSM303AGR_ACC_W_ReferenceVal                      build/obj/LSM303AGR_ACC_driver.o
LSM303AGR_ACC_W_SPI_mode                          build/obj/LSM303AGR_ACC_driver.o
LSM303AGR_ACC_W_SelfTest                          build/obj/LSM303AGR_ACC_driver.o
LSM303AGR_ACC_W_TEMP_EN_bits                      build/obj/LSM303AGR_ACC_driver.o
LSM303AGR_ACC_W_TriggerSel                        build/obj/LSM303AGR_ACC_driver.o
LSM303AGR_ACC_W_XDouble                           build/obj/LSM303AGR_ACC_driver.o
LSM303AGR_ACC_W_XEN                               build/obj/LSM303AGR_ACC_driver.o
                                                  build/obj/LSM303AGR_ACC_driver_HL.o
LSM303AGR_ACC_W_XSingle                           build/obj/LSM303AGR_ACC_driver.o
LSM303AGR_ACC_W_YDouble                           build/obj/LSM303AGR_ACC_driver.o
LSM303AGR_ACC_W_YEN                               build/obj/LSM303AGR_ACC_driver.o
                                                  build/obj/LSM303AGR_ACC_driver_HL.o
LSM303AGR_ACC_W_YSingle                           build/obj/LSM303AGR_ACC_driver.o
LSM303AGR_ACC_W_ZDouble                           build/obj/LSM303AGR_ACC_driver.o
LSM303AGR_ACC_W_ZEN                               build/obj/LSM303AGR_ACC_driver.o
                                                  build/obj/LSM303AGR_ACC_driver_HL.o
LSM303AGR_ACC_W_ZSingle                           build/obj/LSM303AGR_ACC_driver.o
LSM303AGR_ACC_W_hpf_aoi_en_int1                   build/obj/LSM303AGR_ACC_driver.o
LSM303AGR_ACC_W_hpf_aoi_en_int2                   build/obj/LSM303AGR_ACC_driver.o
LSM303AGR_ACC_W_hpf_click_en                      build/obj/LSM303AGR_ACC_driver.o
LSM303AGR_ACC_W_hpf_cutoff_freq                   build/obj/LSM303AGR_ACC_driver.o
LSM303AGR_ACC_W_hpf_mode                          build/obj/LSM303AGR_ACC_driver.o
LSM303AGR_ACC_WriteReg                            build/obj/LSM303AGR_ACC_driver.o
                                                  build/obj/LSM303AGR_ACC_driver_HL.o
LSM303AGR_Combo_Data                              build/obj/SensorTile_magneto.o
                                                  build/obj/SensorTile_accelero.o
                                                  build/obj/LSM303AGR_ACC_driver_HL.o
LSM303AGR_MAG_Get_IntThreshld                     build/obj/LSM303AGR_MAG_driver.o
LSM303AGR_MAG_Get_MagOff                          build/obj/LSM303AGR_MAG_driver.o
LSM303AGR_MAG_Get_Magnetic                        build/obj/LSM303AGR_MAG_driver.o
LSM303AGR_MAG_Get_Raw_Magnetic                    build/obj/LSM303AGR_MAG_driver.o
                                                  build/obj/LSM303AGR_MAG_driver_HL.o
LSM303AGR_MAG_R_BDU                               build/obj/LSM303AGR_MAG_driver.o
LSM303AGR_MAG_R_BLE                               build/obj/LSM303AGR_MAG_driver.o
LSM303AGR_MAG_R_I2C_DIS                           build/obj/LSM303AGR_MAG_driver.o
LSM303AGR_MAG_R_IEA                               build/obj/LSM303AGR_MAG_driver.o
LSM303AGR_MAG_R_IEL                               build/obj/LSM303AGR_MAG_driver.o
LSM303AGR_MAG_R_IEN                               build/obj/LSM303AGR_MAG_driver.o
LSM303AGR_MAG_R_INT                               build/obj/LSM303AGR_MAG_driver.o
LSM303AGR_MAG_R_INT_MAG                           build/obj/LSM303AGR_MAG_driver.o
LSM303AGR_MAG_R_INT_MAG_PIN                       build/obj/LSM303AGR_MAG_driver.o
LSM303AGR_MAG_R_INT_ON_DATAOFF                    build/obj/LSM303AGR_MAG_driver.o
LSM303AGR_MAG_R_LP                                build/obj/LSM303AGR_MAG_driver.o
LSM303AGR_MAG_R_LPF                               build/obj/LSM303AGR_MAG_driver.o
LSM303AGR_MAG_R_MD                                build/obj/LSM303AGR_MAG_driver.o
LSM303AGR_MAG_R_MROI                              build/obj/LSM303AGR_MAG_driver.o
LSM303AGR_MAG_R_N_TH_S_X                          build/obj/LSM303AGR_MAG_driver.o
LSM303AGR_MAG_R_N_TH_S_Y                          build/obj/LSM303AGR_MAG_driver.o
LSM303AGR_MAG_R_N_TH_S_Z                          build/obj/LSM303AGR_MAG_driver.o
LSM303AGR_MAG_R_ODR                               build/obj/LSM303AGR_MAG_driver.o
                                                  build/obj/LSM303AGR_MAG_driver_HL.o
LSM303AGR_MAG_R_OFF_CANC                          build/obj/LSM303AGR_MAG_driver.o
LSM303AGR_MAG_R_OFF_X_H                           build/obj/LSM303AGR_MAG_driver.o
LSM303AGR_MAG_R_OFF_X_L                           build/obj/LSM303AGR_MAG_driver.o
LSM303AGR_MAG_R_OFF_Y_H                           build/obj/LSM303AGR_MAG_driver.o
LSM303AGR_MAG_R_OFF_Y_L                           build/obj/LSM303AGR_MAG_driver.o
LSM303AGR_MAG_R_OFF_Z_H                           build/obj/LSM303AGR_MAG_driver.o
LSM303AGR_MAG_R_OFF_Z_L                           build/obj/LSM303AGR_MAG_driver.o
LSM303AGR_MAG_R_P_TH_S_X                          build/obj/LSM303AGR_MAG_driver.o
LSM303AGR_MAG_R_P_TH_S_Y                          build/obj/LSM303AGR_MAG_driver.o
LSM303AGR_MAG_R_P_TH_S_Z                          build/obj/LSM303AGR_MAG_driver.o
LSM303AGR_MAG_R_SET_FREQ                          build/obj/LSM303AGR_MAG_driver.o
LSM303AGR_MAG_R_SOFT_RST                          build/obj/LSM303AGR_MAG_driver.o
LSM303AGR_MAG_R_ST                                build/obj/LSM303AGR_MAG_driver.o
LSM303AGR_MAG_R_WHO_AM_I                          build/obj/LSM303AGR_MAG_driver.o
                                                  build/obj/LSM303AGR_MAG_driver_HL.o
LSM303AGR_MAG_R_XDA                               build/obj/LSM303AGR_MAG_driver.o
LSM303AGR_MAG_R_XIEN                              build/obj/LSM303AGR_MAG_driver.o
LSM303AGR_MAG_R_XOR                               build/obj/LSM303AGR_MAG_driver.o
LSM303AGR_MAG_R_YDA                               build/obj/LSM303AGR_MAG_driver.o
LSM303AGR_MAG_R_YIEN                              build/obj/LSM303AGR_MAG_driver.o
LSM303AGR_MAG_R_YOR                               build/obj/LSM303AGR_MAG_driver.o
LSM303AGR_MAG_R_ZDA                               build/obj/LSM303AGR_MAG_driver.o
LSM303AGR_MAG_R_ZIEN                              build/obj/LSM303AGR_MAG_driver.o
LSM303AGR_MAG_R_ZOR                               build/obj/LSM303AGR_MAG_driver.o
LSM303AGR_MAG_R_ZYXDA                             build/obj/LSM303AGR_MAG_driver.o
                                                  build/obj/LSM303AGR_MAG_driver_HL.o
LSM303AGR_MAG_R_ZYXOR                             build/obj/LSM303AGR_MAG_driver.o
LSM303AGR_MAG_ReadReg                             build/obj/LSM303AGR_MAG_driver.o
                                                  build/obj/LSM303AGR_MAG_driver_HL.o
LSM303AGR_MAG_Set_IntThreshld                     build/obj/LSM303AGR_MAG_driver.o
LSM303AGR_MAG_Set_MagOff                          build/obj/LSM303AGR_MAG_driver.o
LSM303AGR_MAG_W_BDU                               build/obj/LSM303AGR_MAG_driver.o
                                                  build/obj/LSM303AGR_MAG_driver_HL.o
LSM303AGR_MAG_W_BLE                               build/obj/LSM303AGR_MAG_driver.o
LSM303AGR_MAG_W_I2C_DIS                           build/obj/LSM303AGR_MAG_driver.o
LSM303AGR_MAG_W_IEA                               build/obj/LSM303AGR_MAG_driver.o
LSM303AGR_MAG_W_IEL                               build/obj/LSM303AGR_MAG_driver.o
LSM303AGR_MAG_W_IEN                               build/obj/LSM303AGR_MAG_driver.o
LSM303AGR_MAG_W_INT_MAG                           build/obj/LSM303AGR_MAG_driver.o
LSM303AGR_MAG_W_INT_MAG_PIN                       build/obj/LSM303AGR_MAG_driver.o
LSM303AGR_MAG_W_INT_ON_DATAOFF                    build/obj/LSM303AGR_MAG_driver.o
LSM303AGR_MAG_W_LP                                build/obj/LSM303AGR_MAG_driver.o
LSM303AGR_MAG_W_LPF                               build/obj/LSM303AGR_MAG_driver.o
LSM303AGR_MAG_W_MD                                build/obj/LSM303AGR_MAG_driver.o
                                                  build/obj/LSM303AGR_MAG_driver_HL.o
LSM303AGR_MAG_W_ODR                               build/obj/LSM303AGR_MAG_driver.o
                                                  build/obj/LSM303AGR_MAG_driver_HL.o
LSM303AGR_MAG_W_OFF_CANC                          build/obj/LSM303AGR_MAG_driver.o
LSM303AGR_MAG_W_OFF_X_H                           build/obj/LSM303AGR_MAG_driver.o
LSM303AGR_MAG_W_OFF_X_L                           build/obj/LSM303AGR_MAG_driver.o
LSM303AGR_MAG_W_OFF_Y_H                           build/obj/LSM303AGR_MAG_driver.o
LSM303AGR_MAG_W_OFF_Y_L                           build/obj/LSM303AGR_MAG_driver.o
LSM303AGR_MAG_W_OFF_Z_H                           build/obj/LSM303AGR_MAG_driver.o
LSM303AGR_MAG_W_OFF_Z_L                           build/obj/LSM303AGR_MAG_driver.o
LSM303AGR_MAG_W_SET_FREQ                          build/obj/LSM303AGR_MAG_driver.o
LSM303AGR_MAG_W_SOFT_RST                          build/obj/LSM303AGR_MAG_driver.o
LSM303AGR_MAG_W_ST                                build/obj/LSM303AGR_MAG_driver.o
                                                  build/obj/LSM303AGR_MAG_driver_HL.o
LSM303AGR_MAG_W_XIEN                              build/obj/LSM303AGR_MAG_driver.o
LSM303AGR_MAG_W_YIEN                              build/obj/LSM303AGR_MAG_driver.o
LSM303AGR_MAG_W_ZIEN                              build/obj/LSM303AGR_MAG_driver.o
LSM303AGR_MAG_WriteReg                            build/obj/LSM303AGR_MAG_driver.o
                                                  build/obj/LSM303AGR_MAG_driver_HL.o
LSM303AGR_M_Drv                                   build/obj/LSM303AGR_MAG_driver_HL.o
                                                  build/obj/SensorTile_magneto.o
LSM303AGR_X_Drv                                   build/obj/LSM303AGR_ACC_driver_HL.o
                                                  build/obj/SensorTile_accelero.o
LSM6DSM_ACC_GYRO_GetRawAccData                    build/obj/LSM6DSM_ACC_GYRO_driver.o
                                                  build/obj/LSM6DSM_ACC_GYRO_driver_HL.o
LSM6DSM_ACC_GYRO_GetRawGyroData                   build/obj/LSM6DSM_ACC_GYRO_driver.o
                                                  build/obj/LSM6DSM_ACC_GYRO_driver_HL.o
LSM6DSM_ACC_GYRO_Get_GetFIFOData                  build/obj/LSM6DSM_ACC_GYRO_driver.o
LSM6DSM_ACC_GYRO_Get_GetStepCounter               build/obj/LSM6DSM_ACC_GYRO_driver.o
                                                  build/obj/LSM6DSM_ACC_GYRO_driver_HL.o
LSM6DSM_ACC_GYRO_Get_GetTimestamp                 build/obj/LSM6DSM_ACC_GYRO_driver.o
LSM6DSM_ACC_GYRO_R_6DEvOnInt1                     build/obj/LSM6DSM_ACC_GYRO_driver.o
LSM6DSM_ACC_GYRO_R_6DEvOnInt2                     build/obj/LSM6DSM_ACC_GYRO_driver.o
LSM6DSM_ACC_GYRO_R_BASIC_INT                      build/obj/LSM6DSM_ACC_GYRO_driver.o
LSM6DSM_ACC_GYRO_R_BDU                            build/obj/LSM6DSM_ACC_GYRO_driver.o
LSM6DSM_ACC_GYRO_R_BLE                            build/obj/LSM6DSM_ACC_GYRO_driver.o
LSM6DSM_ACC_GYRO_R_BOOT                           build/obj/LSM6DSM_ACC_GYRO_driver.o
LSM6DSM_ACC_GYRO_R_BOOT_on_INT1                   build/obj/LSM6DSM_ACC_GYRO_driver.o
LSM6DSM_ACC_GYRO_R_BW_SEL                         build/obj/LSM6DSM_ACC_GYRO_driver.o
LSM6DSM_ACC_GYRO_R_CircularBurstMode              build/obj/LSM6DSM_ACC_GYRO_driver.o
LSM6DSM_ACC_GYRO_R_D4D                            build/obj/LSM6DSM_ACC_GYRO_driver.o
LSM6DSM_ACC_GYRO_R_D6D_EV_STATUS                  build/obj/LSM6DSM_ACC_GYRO_driver.o
                                                  build/obj/LSM6DSM_ACC_GYRO_driver_HL.o
LSM6DSM_ACC_GYRO_R_DATA_VAL_SEL_FIFO              build/obj/LSM6DSM_ACC_GYRO_driver.o
LSM6DSM_ACC_GYRO_R_DEC_FIFO_DS3                   build/obj/LSM6DSM_ACC_GYRO_driver.o
LSM6DSM_ACC_GYRO_R_DEC_FIFO_DS4                   build/obj/LSM6DSM_ACC_GYRO_driver.o
LSM6DSM_ACC_GYRO_R_DEC_FIFO_G                     build/obj/LSM6DSM_ACC_GYRO_driver.o
LSM6DSM_ACC_GYRO_R_DEC_FIFO_XL                    build/obj/LSM6DSM_ACC_GYRO_driver.o
LSM6DSM_ACC_GYRO_R_DEN_LVL2_EN                    build/obj/LSM6DSM_ACC_GYRO_driver.o
LSM6DSM_ACC_GYRO_R_DEN_LVL_EN                     build/obj/LSM6DSM_ACC_GYRO_driver.o
LSM6DSM_ACC_GYRO_R_DEN_Polarity                   build/obj/LSM6DSM_ACC_GYRO_driver.o
LSM6DSM_ACC_GYRO_R_DOUBLE_TAP_EV_STATUS           build/obj/LSM6DSM_ACC_GYRO_driver.o
                                                  build/obj/LSM6DSM_ACC_GYRO_driver_HL.o
LSM6DSM_ACC_GYRO_R_DRDY_G_on_INT1                 build/obj/LSM6DSM_ACC_GYRO_driver.o
LSM6DSM_ACC_GYRO_R_DRDY_G_on_INT2                 build/obj/LSM6DSM_ACC_GYRO_driver.o
LSM6DSM_ACC_GYRO_R_DRDY_MSK                       build/obj/LSM6DSM_ACC_GYRO_driver.o
LSM6DSM_ACC_GYRO_R_DRDY_ON_INT1                   build/obj/LSM6DSM_ACC_GYRO_driver.o
LSM6DSM_ACC_GYRO_R_DRDY_PULSE                     build/obj/LSM6DSM_ACC_GYRO_driver.o
LSM6DSM_ACC_GYRO_R_DRDY_TEMP_on_INT2              build/obj/LSM6DSM_ACC_GYRO_driver.o
LSM6DSM_ACC_GYRO_R_DRDY_XL_on_INT1                build/obj/LSM6DSM_ACC_GYRO_driver.o
LSM6DSM_ACC_GYRO_R_DRDY_XL_on_INT2                build/obj/LSM6DSM_ACC_GYRO_driver.o
LSM6DSM_ACC_GYRO_R_DSD_XH                         build/obj/LSM6DSM_ACC_GYRO_driver.o
                                                  build/obj/LSM6DSM_ACC_GYRO_driver_HL.o
LSM6DSM_ACC_GYRO_R_DSD_XL                         build/obj/LSM6DSM_ACC_GYRO_driver.o
                                                  build/obj/LSM6DSM_ACC_GYRO_driver_HL.o
LSM6DSM_ACC_GYRO_R_DSD_YH                         build/obj/LSM6DSM_ACC_GYRO_driver.o
                                                  build/obj/LSM6DSM_ACC_GYRO_driver_HL.o
LSM6DSM_ACC_GYRO_R_DSD_YL                         build/obj/LSM6DSM_ACC_GYRO_driver.o
                                                  build/obj/LSM6DSM_ACC_GYRO_driver_HL.o
LSM6DSM_ACC_GYRO_R_DSD_ZH                         build/obj/LSM6DSM_ACC_GYRO_driver.o
                                                  build/obj/LSM6DSM_ACC_GYRO_driver_HL.o
LSM6DSM_ACC_GYRO_R_DSD_ZL                         build/obj/LSM6DSM_ACC_GYRO_driver.o
                                                  build/obj/LSM6DSM_ACC_GYRO_driver_HL.o
LSM6DSM_ACC_GYRO_R_DUR                            build/obj/LSM6DSM_ACC_GYRO_driver.o
LSM6DSM_ACC_GYRO_R_EmbeddedAccess                 build/obj/LSM6DSM_ACC_GYRO_driver.o
LSM6DSM_ACC_GYRO_R_ExternalTrigger                build/obj/LSM6DSM_ACC_GYRO_driver.o
LSM6DSM_ACC_GYRO_R_FFEvOnInt1                     build/obj/LSM6DSM_ACC_GYRO_driver.o
LSM6DSM_ACC_GYRO_R_FFEvOnInt2                     build/obj/LSM6DSM_ACC_GYRO_driver.o
LSM6DSM_ACC_GYRO_R_FF_Duration                    build/obj/LSM6DSM_ACC_GYRO_driver.o
LSM6DSM_ACC_GYRO_R_FF_EV_STATUS                   build/obj/LSM6DSM_ACC_GYRO_driver.o
                                                  build/obj/LSM6DSM_ACC_GYRO_driver_HL.o
LSM6DSM_ACC_GYRO_R_FF_THS                         build/obj/LSM6DSM_ACC_GYRO_driver.o
LSM6DSM_ACC_GYRO_R_FIFOEmpty                      build/obj/LSM6DSM_ACC_GYRO_driver.o
LSM6DSM_ACC_GYRO_R_FIFOFull                       build/obj/LSM6DSM_ACC_GYRO_driver.o
LSM6DSM_ACC_GYRO_R_FIFONumOfEntries               build/obj/LSM6DSM_ACC_GYRO_driver.o
LSM6DSM_ACC_GYRO_R_FIFOPattern                    build/obj/LSM6DSM_ACC_GYRO_driver.o
LSM6DSM_ACC_GYRO_R_FIFO_MODE                      build/obj/LSM6DSM_ACC_GYRO_driver.o
LSM6DSM_ACC_GYRO_R_FIFO_TEMP                      build/obj/LSM6DSM_ACC_GYRO_driver.o
LSM6DSM_ACC_GYRO_R_FIFO_TSHLD_on_INT1             build/obj/LSM6DSM_ACC_GYRO_driver.o
LSM6DSM_ACC_GYRO_R_FIFO_TSHLD_on_INT2             build/obj/LSM6DSM_ACC_GYRO_driver.o
LSM6DSM_ACC_GYRO_R_FIFO_Watermark                 build/obj/LSM6DSM_ACC_GYRO_driver.o
LSM6DSM_ACC_GYRO_R_FS_125                         build/obj/LSM6DSM_ACC_GYRO_driver.o
                                                  build/obj/LSM6DSM_ACC_GYRO_driver_HL.o
LSM6DSM_ACC_GYRO_R_FS_G                           build/obj/LSM6DSM_ACC_GYRO_driver.o
                                                  build/obj/LSM6DSM_ACC_GYRO_driver_HL.o
LSM6DSM_ACC_GYRO_R_FS_XL                          build/obj/LSM6DSM_ACC_GYRO_driver.o
                                                  build/obj/LSM6DSM_ACC_GYRO_driver_HL.o
LSM6DSM_ACC_GYRO_R_FULL_FLAG_on_INT1              build/obj/LSM6DSM_ACC_GYRO_driver.o
LSM6DSM_ACC_GYRO_R_FULL_FLAG_on_INT2              build/obj/LSM6DSM_ACC_GYRO_driver.o
LSM6DSM_ACC_GYRO_R_FUNC_EN                        build/obj/LSM6DSM_ACC_GYRO_driver.o
LSM6DSM_ACC_GYRO_R_GDA                            build/obj/LSM6DSM_ACC_GYRO_driver.o
LSM6DSM_ACC_GYRO_R_HI_DATA_ONLY                   build/obj/LSM6DSM_ACC_GYRO_driver.o
LSM6DSM_ACC_GYRO_R_HPCF_XL                        build/obj/LSM6DSM_ACC_GYRO_driver.o
LSM6DSM_ACC_GYRO_R_HPFilter_En                    build/obj/LSM6DSM_ACC_GYRO_driver.o
LSM6DSM_ACC_GYRO_R_HPM_G                          build/obj/LSM6DSM_ACC_GYRO_driver.o
LSM6DSM_ACC_GYRO_R_HP_G_RST                       build/obj/LSM6DSM_ACC_GYRO_driver.o
LSM6DSM_ACC_GYRO_R_HP_SLOPE_XL                    build/obj/LSM6DSM_ACC_GYRO_driver.o
LSM6DSM_ACC_GYRO_R_HPfilterReference              build/obj/LSM6DSM_ACC_GYRO_driver.o
LSM6DSM_ACC_GYRO_R_HardIron                       build/obj/LSM6DSM_ACC_GYRO_driver.o
LSM6DSM_ACC_GYRO_R_I2C_DISABLE                    build/obj/LSM6DSM_ACC_GYRO_driver.o
LSM6DSM_ACC_GYRO_R_I2C_MASTER_Enable              build/obj/LSM6DSM_ACC_GYRO_driver.o
LSM6DSM_ACC_GYRO_R_IF_Addr_Incr                   build/obj/LSM6DSM_ACC_GYRO_driver.o
LSM6DSM_ACC_GYRO_R_INT2_ON_INT1                   build/obj/LSM6DSM_ACC_GYRO_driver.o
LSM6DSM_ACC_GYRO_R_INT_ACT_LEVEL                  build/obj/LSM6DSM_ACC_GYRO_driver.o
LSM6DSM_ACC_GYRO_R_InComposit                     build/obj/LSM6DSM_ACC_GYRO_driver.o
LSM6DSM_ACC_GYRO_R_IronCorrection_EN              build/obj/LSM6DSM_ACC_GYRO_driver.o
LSM6DSM_ACC_GYRO_R_LIR                            build/obj/LSM6DSM_ACC_GYRO_driver.o
LSM6DSM_ACC_GYRO_R_LOW_PASS_ON_6D                 build/obj/LSM6DSM_ACC_GYRO_driver.o
LSM6DSM_ACC_GYRO_R_LPF1_SEL_G                     build/obj/LSM6DSM_ACC_GYRO_driver.o
LSM6DSM_ACC_GYRO_R_LP_BW_G                        build/obj/LSM6DSM_ACC_GYRO_driver.o
LSM6DSM_ACC_GYRO_R_LP_Mode                        build/obj/LSM6DSM_ACC_GYRO_driver.o
LSM6DSM_ACC_GYRO_R_LowPassFiltSel_XL              build/obj/LSM6DSM_ACC_GYRO_driver.o
LSM6DSM_ACC_GYRO_R_LowPower_XL                    build/obj/LSM6DSM_ACC_GYRO_driver.o
LSM6DSM_ACC_GYRO_R_MagCorrection_Int2             build/obj/LSM6DSM_ACC_GYRO_driver.o
LSM6DSM_ACC_GYRO_R_ODR_FIFO                       build/obj/LSM6DSM_ACC_GYRO_driver.o
LSM6DSM_ACC_GYRO_R_ODR_G                          build/obj/LSM6DSM_ACC_GYRO_driver.o
                                                  build/obj/LSM6DSM_ACC_GYRO_driver_HL.o
LSM6DSM_ACC_GYRO_R_ODR_XL                         build/obj/LSM6DSM_ACC_GYRO_driver.o
                                                  build/obj/LSM6DSM_ACC_GYRO_driver_HL.o
LSM6DSM_ACC_GYRO_R_OVERRUN                        build/obj/LSM6DSM_ACC_GYRO_driver.o
LSM6DSM_ACC_GYRO_R_OVERRUN_on_INT1                build/obj/LSM6DSM_ACC_GYRO_driver.o
LSM6DSM_ACC_GYRO_R_OVERRUN_on_INT2                build/obj/LSM6DSM_ACC_GYRO_driver.o
LSM6DSM_ACC_GYRO_R_PASS_THRU_MODE                 build/obj/LSM6DSM_ACC_GYRO_driver.o
LSM6DSM_ACC_GYRO_R_PEDO                           build/obj/LSM6DSM_ACC_GYRO_driver.o
LSM6DSM_ACC_GYRO_R_PEDO_EV_STATUS                 build/obj/LSM6DSM_ACC_GYRO_driver.o
                                                  build/obj/LSM6DSM_ACC_GYRO_driver_HL.o
LSM6DSM_ACC_GYRO_R_PULL_UP_EN                     build/obj/LSM6DSM_ACC_GYRO_driver.o
LSM6DSM_ACC_GYRO_R_PadSel                         build/obj/LSM6DSM_ACC_GYRO_driver.o
LSM6DSM_ACC_GYRO_R_PedoStepReset                  build/obj/LSM6DSM_ACC_GYRO_driver.o
LSM6DSM_ACC_GYRO_R_QUIET_Duration                 build/obj/LSM6DSM_ACC_GYRO_driver.o
LSM6DSM_ACC_GYRO_R_ROUNDING_STATUS                build/obj/LSM6DSM_ACC_GYRO_driver.o
LSM6DSM_ACC_GYRO_R_RoundingOnStatusRegisters      build/obj/LSM6DSM_ACC_GYRO_driver.o
LSM6DSM_ACC_GYRO_R_SENS_HUB_END                   build/obj/LSM6DSM_ACC_GYRO_driver.o
LSM6DSM_ACC_GYRO_R_SHOCK_Duration                 build/obj/LSM6DSM_ACC_GYRO_driver.o
LSM6DSM_ACC_GYRO_R_SIGN_MOT_EV_STATUS             build/obj/LSM6DSM_ACC_GYRO_driver.o
LSM6DSM_ACC_GYRO_R_SIGN_MOT_on_INT1               build/obj/LSM6DSM_ACC_GYRO_driver.o
LSM6DSM_ACC_GYRO_R_SINGLE_DOUBLE_TAP_EV           build/obj/LSM6DSM_ACC_GYRO_driver.o
LSM6DSM_ACC_GYRO_R_SINGLE_TAP_EV_STATUS           build/obj/LSM6DSM_ACC_GYRO_driver.o
                                                  build/obj/LSM6DSM_ACC_GYRO_driver_HL.o
LSM6DSM_ACC_GYRO_R_SIXD_THS                       build/obj/LSM6DSM_ACC_GYRO_driver.o
LSM6DSM_ACC_GYRO_R_SLEEP_DUR                      build/obj/LSM6DSM_ACC_GYRO_driver.o
LSM6DSM_ACC_GYRO_R_SLEEP_EV_STATUS                build/obj/LSM6DSM_ACC_GYRO_driver.o
LSM6DSM_ACC_GYRO_R_SLOPE_FDS                      build/obj/LSM6DSM_ACC_GYRO_driver.o
LSM6DSM_ACC_GYRO_R_SOFT                           build/obj/LSM6DSM_ACC_GYRO_driver.o
LSM6DSM_ACC_GYRO_R_SOFT_IRON_END                  build/obj/LSM6DSM_ACC_GYRO_driver.o
LSM6DSM_ACC_GYRO_R_SPI_Mode                       build/obj/LSM6DSM_ACC_GYRO_driver.o
LSM6DSM_ACC_GYRO_R_STEP_COUNT_DELTA               build/obj/LSM6DSM_ACC_GYRO_driver.o
LSM6DSM_ACC_GYRO_R_STEP_COUNT_OV_on_INT2          build/obj/LSM6DSM_ACC_GYRO_driver.o
LSM6DSM_ACC_GYRO_R_STEP_DELTA_on_INT2             build/obj/LSM6DSM_ACC_GYRO_driver.o
LSM6DSM_ACC_GYRO_R_STEP_DET_on_INT1               build/obj/LSM6DSM_ACC_GYRO_driver.o
LSM6DSM_ACC_GYRO_R_STEP_OVERFLOW                  build/obj/LSM6DSM_ACC_GYRO_driver.o
LSM6DSM_ACC_GYRO_R_STOP_ON_FTH                    build/obj/LSM6DSM_ACC_GYRO_driver.o
LSM6DSM_ACC_GYRO_R_SW_RESET                       build/obj/LSM6DSM_ACC_GYRO_driver.o
LSM6DSM_ACC_GYRO_R_SYNC_RES_RATIO                 build/obj/LSM6DSM_ACC_GYRO_driver.o
LSM6DSM_ACC_GYRO_R_SelfTest_G                     build/obj/LSM6DSM_ACC_GYRO_driver.o
LSM6DSM_ACC_GYRO_R_SelfTest_XL                    build/obj/LSM6DSM_ACC_GYRO_driver.o
LSM6DSM_ACC_GYRO_R_SensorHUB_Trigger_Sel          build/obj/LSM6DSM_ACC_GYRO_driver.o
LSM6DSM_ACC_GYRO_R_SignifcantMotion               build/obj/LSM6DSM_ACC_GYRO_driver.o
LSM6DSM_ACC_GYRO_R_SingleTapOnInt1                build/obj/LSM6DSM_ACC_GYRO_driver.o
LSM6DSM_ACC_GYRO_R_SingleTapOnInt2                build/obj/LSM6DSM_ACC_GYRO_driver.o
LSM6DSM_ACC_GYRO_R_SleepEvOnInt1                  build/obj/LSM6DSM_ACC_GYRO_driver.o
LSM6DSM_ACC_GYRO_R_SleepEvOnInt2                  build/obj/LSM6DSM_ACC_GYRO_driver.o
LSM6DSM_ACC_GYRO_R_SleepMode_G                    build/obj/LSM6DSM_ACC_GYRO_driver.o
LSM6DSM_ACC_GYRO_R_Stamping_Time_Frame            build/obj/LSM6DSM_ACC_GYRO_driver.o
LSM6DSM_ACC_GYRO_R_TAP_EV_STATUS                  build/obj/LSM6DSM_ACC_GYRO_driver.o
LSM6DSM_ACC_GYRO_R_TAP_SIGN                       build/obj/LSM6DSM_ACC_GYRO_driver.o
LSM6DSM_ACC_GYRO_R_TAP_THS                        build/obj/LSM6DSM_ACC_GYRO_driver.o
LSM6DSM_ACC_GYRO_R_TAP_X_EN                       build/obj/LSM6DSM_ACC_GYRO_driver.o
LSM6DSM_ACC_GYRO_R_TAP_Y_EN                       build/obj/LSM6DSM_ACC_GYRO_driver.o
LSM6DSM_ACC_GYRO_R_TAP_Z_EN                       build/obj/LSM6DSM_ACC_GYRO_driver.o
LSM6DSM_ACC_GYRO_R_TDA                            build/obj/LSM6DSM_ACC_GYRO_driver.o
LSM6DSM_ACC_GYRO_R_TILT                           build/obj/LSM6DSM_ACC_GYRO_driver.o
LSM6DSM_ACC_GYRO_R_TILT_EV_STATUS                 build/obj/LSM6DSM_ACC_GYRO_driver.o
                                                  build/obj/LSM6DSM_ACC_GYRO_driver_HL.o
LSM6DSM_ACC_GYRO_R_TIMER                          build/obj/LSM6DSM_ACC_GYRO_driver.o
LSM6DSM_ACC_GYRO_R_TIMER_HR                       build/obj/LSM6DSM_ACC_GYRO_driver.o
LSM6DSM_ACC_GYRO_R_TIM_PEDO_FIFO_En               build/obj/LSM6DSM_ACC_GYRO_driver.o
LSM6DSM_ACC_GYRO_R_TIM_PEDO_FIFO_Write_En         build/obj/LSM6DSM_ACC_GYRO_driver.o
LSM6DSM_ACC_GYRO_R_TapEvOnInt1                    build/obj/LSM6DSM_ACC_GYRO_driver.o
LSM6DSM_ACC_GYRO_R_TapEvOnInt2                    build/obj/LSM6DSM_ACC_GYRO_driver.o
LSM6DSM_ACC_GYRO_R_TiltEvOnInt1                   build/obj/LSM6DSM_ACC_GYRO_driver.o
LSM6DSM_ACC_GYRO_R_TiltEvOnInt2                   build/obj/LSM6DSM_ACC_GYRO_driver.o
LSM6DSM_ACC_GYRO_R_TimerEvRouteInt1               build/obj/LSM6DSM_ACC_GYRO_driver.o
LSM6DSM_ACC_GYRO_R_UserOffsetWeight               build/obj/LSM6DSM_ACC_GYRO_driver.o
LSM6DSM_ACC_GYRO_R_WAKE_DUR                       build/obj/LSM6DSM_ACC_GYRO_driver.o
LSM6DSM_ACC_GYRO_R_WHO_AM_I                       build/obj/LSM6DSM_ACC_GYRO_driver.o
                                                  build/obj/LSM6DSM_ACC_GYRO_driver_HL.o
LSM6DSM_ACC_GYRO_R_WK_THS                         build/obj/LSM6DSM_ACC_GYRO_driver.o
LSM6DSM_ACC_GYRO_R_WUEvOnInt1                     build/obj/LSM6DSM_ACC_GYRO_driver.o
LSM6DSM_ACC_GYRO_R_WUEvOnInt2                     build/obj/LSM6DSM_ACC_GYRO_driver.o
LSM6DSM_ACC_GYRO_R_WU_EV_STATUS                   build/obj/LSM6DSM_ACC_GYRO_driver.o
                                                  build/obj/LSM6DSM_ACC_GYRO_driver_HL.o
LSM6DSM_ACC_GYRO_R_WaterMark                      build/obj/LSM6DSM_ACC_GYRO_driver.o
LSM6DSM_ACC_GYRO_R_XLDA                           build/obj/LSM6DSM_ACC_GYRO_driver.o
LSM6DSM_ACC_GYRO_R_X_TAP                          build/obj/LSM6DSM_ACC_GYRO_driver.o
LSM6DSM_ACC_GYRO_R_X_WU                           build/obj/LSM6DSM_ACC_GYRO_driver.o
LSM6DSM_ACC_GYRO_R_Y_TAP                          build/obj/LSM6DSM_ACC_GYRO_driver.o
LSM6DSM_ACC_GYRO_R_Y_WU                           build/obj/LSM6DSM_ACC_GYRO_driver.o
LSM6DSM_ACC_GYRO_R_Z_TAP                          build/obj/LSM6DSM_ACC_GYRO_driver.o
LSM6DSM_ACC_GYRO_R_Z_WU                           build/obj/LSM6DSM_ACC_GYRO_driver.o
LSM6DSM_ACC_GYRO_ReadMem                          build/obj/LSM6DSM_ACC_GYRO_driver.o
LSM6DSM_ACC_GYRO_SH0_Program                      build/obj/LSM6DSM_ACC_GYRO_driver.o
LSM6DSM_ACC_GYRO_SH0_ReadMem                      build/obj/LSM6DSM_ACC_GYRO_driver.o
LSM6DSM_ACC_GYRO_SH0_WriteByte                    build/obj/LSM6DSM_ACC_GYRO_driver.o
LSM6DSM_ACC_GYRO_SH_init_SI_Matrix                build/obj/LSM6DSM_ACC_GYRO_driver.o
LSM6DSM_ACC_GYRO_SwapHighLowByte                  build/obj/LSM6DSM_ACC_GYRO_driver.o
LSM6DSM_ACC_GYRO_W_6DEvOnInt1                     build/obj/LSM6DSM_ACC_GYRO_driver.o
LSM6DSM_ACC_GYRO_W_6DEvOnInt2                     build/obj/LSM6DSM_ACC_GYRO_driver.o
                                                  build/obj/LSM6DSM_ACC_GYRO_driver_HL.o
LSM6DSM_ACC_GYRO_W_BASIC_INT                      build/obj/LSM6DSM_ACC_GYRO_driver.o
                                                  build/obj/LSM6DSM_ACC_GYRO_driver_HL.o
LSM6DSM_ACC_GYRO_W_BDU                            build/obj/LSM6DSM_ACC_GYRO_driver.o
                                                  build/obj/LSM6DSM_ACC_GYRO_driver_HL.o
LSM6DSM_ACC_GYRO_W_BLE                            build/obj/LSM6DSM_ACC_GYRO_driver.o
LSM6DSM_ACC_GYRO_W_BOOT                           build/obj/LSM6DSM_ACC_GYRO_driver.o
LSM6DSM_ACC_GYRO_W_BOOT_on_INT1                   build/obj/LSM6DSM_ACC_GYRO_driver.o
LSM6DSM_ACC_GYRO_W_BW_SEL                         build/obj/LSM6DSM_ACC_GYRO_driver.o
LSM6DSM_ACC_GYRO_W_CircularBurstMode              build/obj/LSM6DSM_ACC_GYRO_driver.o
LSM6DSM_ACC_GYRO_W_D4D                            build/obj/LSM6DSM_ACC_GYRO_driver.o
LSM6DSM_ACC_GYRO_W_DATA_VAL_SEL_FIFO              build/obj/LSM6DSM_ACC_GYRO_driver.o
LSM6DSM_ACC_GYRO_W_DEC_FIFO_DS3                   build/obj/LSM6DSM_ACC_GYRO_driver.o
LSM6DSM_ACC_GYRO_W_DEC_FIFO_DS4                   build/obj/LSM6DSM_ACC_GYRO_driver.o
LSM6DSM_ACC_GYRO_W_DEC_FIFO_G                     build/obj/LSM6DSM_ACC_GYRO_driver.o
LSM6DSM_ACC_GYRO_W_DEC_FIFO_G_val                 build/obj/LSM6DSM_ACC_GYRO_driver.o
LSM6DSM_ACC_GYRO_W_DEC_FIFO_XL                    build/obj/LSM6DSM_ACC_GYRO_driver.o
LSM6DSM_ACC_GYRO_W_DEC_FIFO_XL_val                build/obj/LSM6DSM_ACC_GYRO_driver.o
LSM6DSM_ACC_GYRO_W_DEN_LVL2_EN                    build/obj/LSM6DSM_ACC_GYRO_driver.o
LSM6DSM_ACC_GYRO_W_DEN_LVL_EN                     build/obj/LSM6DSM_ACC_GYRO_driver.o
LSM6DSM_ACC_GYRO_W_DEN_Polarity                   build/obj/LSM6DSM_ACC_GYRO_driver.o
LSM6DSM_ACC_GYRO_W_DRDY_G_on_INT1                 build/obj/LSM6DSM_ACC_GYRO_driver.o
LSM6DSM_ACC_GYRO_W_DRDY_G_on_INT2                 build/obj/LSM6DSM_ACC_GYRO_driver.o
LSM6DSM_ACC_GYRO_W_DRDY_MSK                       build/obj/LSM6DSM_ACC_GYRO_driver.o
LSM6DSM_ACC_GYRO_W_DRDY_ON_INT1                   build/obj/LSM6DSM_ACC_GYRO_driver.o
LSM6DSM_ACC_GYRO_W_DRDY_PULSE                     build/obj/LSM6DSM_ACC_GYRO_driver.o
LSM6DSM_ACC_GYRO_W_DRDY_TEMP_on_INT2              build/obj/LSM6DSM_ACC_GYRO_driver.o
LSM6DSM_ACC_GYRO_W_DRDY_XL_on_INT1                build/obj/LSM6DSM_ACC_GYRO_driver.o
LSM6DSM_ACC_GYRO_W_DRDY_XL_on_INT2                build/obj/LSM6DSM_ACC_GYRO_driver.o
LSM6DSM_ACC_GYRO_W_DUR                            build/obj/LSM6DSM_ACC_GYRO_driver.o
                                                  build/obj/LSM6DSM_ACC_GYRO_driver_HL.o
LSM6DSM_ACC_GYRO_W_EmbeddedAccess                 build/obj/LSM6DSM_ACC_GYRO_driver.o
LSM6DSM_ACC_GYRO_W_ExternalTrigger                build/obj/LSM6DSM_ACC_GYRO_driver.o
LSM6DSM_ACC_GYRO_W_FFEvOnInt1                     build/obj/LSM6DSM_ACC_GYRO_driver.o
LSM6DSM_ACC_GYRO_W_FFEvOnInt2                     build/obj/LSM6DSM_ACC_GYRO_driver.o
                                                  build/obj/LSM6DSM_ACC_GYRO_driver_HL.o
LSM6DSM_ACC_GYRO_W_FF_Duration                    build/obj/LSM6DSM_ACC_GYRO_driver.o
                                                  build/obj/LSM6DSM_ACC_GYRO_driver_HL.o
LSM6DSM_ACC_GYRO_W_FF_THS                         build/obj/LSM6DSM_ACC_GYRO_driver.o
                                                  build/obj/LSM6DSM_ACC_GYRO_driver_HL.o
LSM6DSM_ACC_GYRO_W_FIFO_MODE                      build/obj/LSM6DSM_ACC_GYRO_driver.o
                                                  build/obj/LSM6DSM_ACC_GYRO_driver_HL.o
LSM6DSM_ACC_GYRO_W_FIFO_TEMP                      build/obj/LSM6DSM_ACC_GYRO_driver.o
LSM6DSM_ACC_GYRO_W_FIFO_TSHLD_on_INT1             build/obj/LSM6DSM_ACC_GYRO_driver.o
LSM6DSM_ACC_GYRO_W_FIFO_TSHLD_on_INT2             build/obj/LSM6DSM_ACC_GYRO_driver.o
LSM6DSM_ACC_GYRO_W_FIFO_Watermark                 build/obj/LSM6DSM_ACC_GYRO_driver.o
LSM6DSM_ACC_GYRO_W_FS_125                         build/obj/LSM6DSM_ACC_GYRO_driver.o
                                                  build/obj/LSM6DSM_ACC_GYRO_driver_HL.o
LSM6DSM_ACC_GYRO_W_FS_G                           build/obj/LSM6DSM_ACC_GYRO_driver.o
                                                  build/obj/LSM6DSM_ACC_GYRO_driver_HL.o
LSM6DSM_ACC_GYRO_W_FS_XL                          build/obj/LSM6DSM_ACC_GYRO_driver.o
                                                  build/obj/LSM6DSM_ACC_GYRO_driver_HL.o
LSM6DSM_ACC_GYRO_W_FULL_FLAG_on_INT1              build/obj/LSM6DSM_ACC_GYRO_driver.o
LSM6DSM_ACC_GYRO_W_FULL_FLAG_on_INT2              build/obj/LSM6DSM_ACC_GYRO_driver.o
LSM6DSM_ACC_GYRO_W_FUNC_EN                        build/obj/LSM6DSM_ACC_GYRO_driver.o
                                                  build/obj/LSM6DSM_ACC_GYRO_driver_HL.o
LSM6DSM_ACC_GYRO_W_HI_DATA_ONLY                   build/obj/LSM6DSM_ACC_GYRO_driver.o
LSM6DSM_ACC_GYRO_W_HPCF_XL                        build/obj/LSM6DSM_ACC_GYRO_driver.o
LSM6DSM_ACC_GYRO_W_HPFilter_En                    build/obj/LSM6DSM_ACC_GYRO_driver.o
LSM6DSM_ACC_GYRO_W_HPM_G                          build/obj/LSM6DSM_ACC_GYRO_driver.o
LSM6DSM_ACC_GYRO_W_HP_G_RST                       build/obj/LSM6DSM_ACC_GYRO_driver.o
LSM6DSM_ACC_GYRO_W_HP_SLOPE_XL                    build/obj/LSM6DSM_ACC_GYRO_driver.o
LSM6DSM_ACC_GYRO_W_HPfilterReference              build/obj/LSM6DSM_ACC_GYRO_driver.o
LSM6DSM_ACC_GYRO_W_I2C_DISABLE                    build/obj/LSM6DSM_ACC_GYRO_driver.o
LSM6DSM_ACC_GYRO_W_I2C_MASTER_Enable              build/obj/LSM6DSM_ACC_GYRO_driver.o
LSM6DSM_ACC_GYRO_W_IF_Addr_Incr                   build/obj/LSM6DSM_ACC_GYRO_driver.o
                                                  build/obj/LSM6DSM_ACC_GYRO_driver_HL.o
LSM6DSM_ACC_GYRO_W_INT2_ON_INT1                   build/obj/LSM6DSM_ACC_GYRO_driver.o
LSM6DSM_ACC_GYRO_W_INT_ACT_LEVEL                  build/obj/LSM6DSM_ACC_GYRO_driver.o
LSM6DSM_ACC_GYRO_W_InComposit                     build/obj/LSM6DSM_ACC_GYRO_driver.o
LSM6DSM_ACC_GYRO_W_IronCorrection_EN              build/obj/LSM6DSM_ACC_GYRO_driver.o
LSM6DSM_ACC_GYRO_W_LIR                            build/obj/LSM6DSM_ACC_GYRO_driver.o
LSM6DSM_ACC_GYRO_W_LOW_PASS_ON_6D                 build/obj/LSM6DSM_ACC_GYRO_driver.o
LSM6DSM_ACC_GYRO_W_LPF1_SEL_G                     build/obj/LSM6DSM_ACC_GYRO_driver.o
LSM6DSM_ACC_GYRO_W_LP_BW_G                        build/obj/LSM6DSM_ACC_GYRO_driver.o
LSM6DSM_ACC_GYRO_W_LP_Mode                        build/obj/LSM6DSM_ACC_GYRO_driver.o
LSM6DSM_ACC_GYRO_W_LowPassFiltSel_XL              build/obj/LSM6DSM_ACC_GYRO_driver.o
LSM6DSM_ACC_GYRO_W_LowPower_XL                    build/obj/LSM6DSM_ACC_GYRO_driver.o
LSM6DSM_ACC_GYRO_W_MagCorrection_Int2             build/obj/LSM6DSM_ACC_GYRO_driver.o
LSM6DSM_ACC_GYRO_W_ODR_FIFO                       build/obj/LSM6DSM_ACC_GYRO_driver.o
LSM6DSM_ACC_GYRO_W_ODR_G                          build/obj/LSM6DSM_ACC_GYRO_driver.o
                                                  build/obj/LSM6DSM_ACC_GYRO_driver_HL.o
LSM6DSM_ACC_GYRO_W_ODR_XL                         build/obj/LSM6DSM_ACC_GYRO_driver.o
                                                  build/obj/LSM6DSM_ACC_GYRO_driver_HL.o
LSM6DSM_ACC_GYRO_W_OVERRUN_on_INT1                build/obj/LSM6DSM_ACC_GYRO_driver.o
LSM6DSM_ACC_GYRO_W_OVERRUN_on_INT2                build/obj/LSM6DSM_ACC_GYRO_driver.o
LSM6DSM_ACC_GYRO_W_PASS_THRU_MODE                 build/obj/LSM6DSM_ACC_GYRO_driver.o
LSM6DSM_ACC_GYRO_W_PEDO                           build/obj/LSM6DSM_ACC_GYRO_driver.o
                                                  build/obj/LSM6DSM_ACC_GYRO_driver_HL.o
LSM6DSM_ACC_GYRO_W_PULL_UP_EN                     build/obj/LSM6DSM_ACC_GYRO_driver.o
LSM6DSM_ACC_GYRO_W_PadSel                         build/obj/LSM6DSM_ACC_GYRO_driver.o
LSM6DSM_ACC_GYRO_W_PedoStepReset                  build/obj/LSM6DSM_ACC_GYRO_driver.o
                                                  build/obj/LSM6DSM_ACC_GYRO_driver_HL.o
LSM6DSM_ACC_GYRO_W_PedoThreshold                  build/obj/LSM6DSM_ACC_GYRO_driver.o
                                                  build/obj/LSM6DSM_ACC_GYRO_driver_HL.o
LSM6DSM_ACC_GYRO_W_QUIET_Duration                 build/obj/LSM6DSM_ACC_GYRO_driver.o
                                                  build/obj/LSM6DSM_ACC_GYRO_driver_HL.o
LSM6DSM_ACC_GYRO_W_ROUNDING_STATUS                build/obj/LSM6DSM_ACC_GYRO_driver.o
LSM6DSM_ACC_GYRO_W_RoundingOnStatusRegisters      build/obj/LSM6DSM_ACC_GYRO_driver.o
LSM6DSM_ACC_GYRO_W_SHOCK_Duration                 build/obj/LSM6DSM_ACC_GYRO_driver.o
                                                  build/obj/LSM6DSM_ACC_GYRO_driver_HL.o
LSM6DSM_ACC_GYRO_W_SIGN_MOT_on_INT1               build/obj/LSM6DSM_ACC_GYRO_driver.o
LSM6DSM_ACC_GYRO_W_SINGLE_DOUBLE_TAP_EV           build/obj/LSM6DSM_ACC_GYRO_driver.o
                                                  build/obj/LSM6DSM_ACC_GYRO_driver_HL.o
LSM6DSM_ACC_GYRO_W_SIXD_THS                       build/obj/LSM6DSM_ACC_GYRO_driver.o
                                                  build/obj/LSM6DSM_ACC_GYRO_driver_HL.o
LSM6DSM_ACC_GYRO_W_SLEEP_DUR                      build/obj/LSM6DSM_ACC_GYRO_driver.o
                                                  build/obj/LSM6DSM_ACC_GYRO_driver_HL.o
LSM6DSM_ACC_GYRO_W_SLOPE_FDS                      build/obj/LSM6DSM_ACC_GYRO_driver.o
LSM6DSM_ACC_GYRO_W_SOFT                           build/obj/LSM6DSM_ACC_GYRO_driver.o
LSM6DSM_ACC_GYRO_W_SPI_Mode                       build/obj/LSM6DSM_ACC_GYRO_driver.o
LSM6DSM_ACC_GYRO_W_STEP_COUNT_OV_on_INT2          build/obj/LSM6DSM_ACC_GYRO_driver.o
LSM6DSM_ACC_GYRO_W_STEP_DELTA_on_INT2             build/obj/LSM6DSM_ACC_GYRO_driver.o
                                                  build/obj/LSM6DSM_ACC_GYRO_driver_HL.o
LSM6DSM_ACC_GYRO_W_STEP_DET_on_INT1               build/obj/LSM6DSM_ACC_GYRO_driver.o
LSM6DSM_ACC_GYRO_W_STOP_ON_FTH                    build/obj/LSM6DSM_ACC_GYRO_driver.o
LSM6DSM_ACC_GYRO_W_SW_RESET                       build/obj/LSM6DSM_ACC_GYRO_driver.o
LSM6DSM_ACC_GYRO_W_SYNC_RES_RATIO                 build/obj/LSM6DSM_ACC_GYRO_driver.o
LSM6DSM_ACC_GYRO_W_SelfTest_G                     build/obj/LSM6DSM_ACC_GYRO_driver.o
LSM6DSM_ACC_GYRO_W_SelfTest_XL                    build/obj/LSM6DSM_ACC_GYRO_driver.o
LSM6DSM_ACC_GYRO_W_SensorHUB_Trigger_Sel          build/obj/LSM6DSM_ACC_GYRO_driver.o
LSM6DSM_ACC_GYRO_W_SignifcantMotion               build/obj/LSM6DSM_ACC_GYRO_driver.o
LSM6DSM_ACC_GYRO_W_SingleTapOnInt1                build/obj/LSM6DSM_ACC_GYRO_driver.o
LSM6DSM_ACC_GYRO_W_SingleTapOnInt2                build/obj/LSM6DSM_ACC_GYRO_driver.o
                                                  build/obj/LSM6DSM_ACC_GYRO_driver_HL.o
LSM6DSM_ACC_GYRO_W_SleepEvOnInt1                  build/obj/LSM6DSM_ACC_GYRO_driver.o
LSM6DSM_ACC_GYRO_W_SleepEvOnInt2                  build/obj/LSM6DSM_ACC_GYRO_driver.o
LSM6DSM_ACC_GYRO_W_SleepMode_G                    build/obj/LSM6DSM_ACC_GYRO_driver.o
LSM6DSM_ACC_GYRO_W_Stamping_Time_Frame            build/obj/LSM6DSM_ACC_GYRO_driver.o
LSM6DSM_ACC_GYRO_W_TAP_THS                        build/obj/LSM6DSM_ACC_GYRO_driver.o
                                                  build/obj/LSM6DSM_ACC_GYRO_driver_HL.o
LSM6DSM_ACC_GYRO_W_TAP_X_EN                       build/obj/LSM6DSM_ACC_GYRO_driver.o
                                                  build/obj/LSM6DSM_ACC_GYRO_driver_HL.o
LSM6DSM_ACC_GYRO_W_TAP_Y_EN                       build/obj/LSM6DSM_ACC_GYRO_driver.o
                                                  build/obj/LSM6DSM_ACC_GYRO_driver_HL.o
LSM6DSM_ACC_GYRO_W_TAP_Z_EN                       build/obj/LSM6DSM_ACC_GYRO_driver.o
                                                  build/obj/LSM6DSM_ACC_GYRO_driver_HL.o
LSM6DSM_ACC_GYRO_W_TILT                           build/obj/LSM6DSM_ACC_GYRO_driver.o
                                                  build/obj/LSM6DSM_ACC_GYRO_driver_HL.o
LSM6DSM_ACC_GYRO_W_TIMER                          build/obj/LSM6DSM_ACC_GYRO_driver.o
LSM6DSM_ACC_GYRO_W_TIMER_HR                       build/obj/LSM6DSM_ACC_GYRO_driver.o
                                                  build/obj/LSM6DSM_ACC_GYRO_driver_HL.o
LSM6DSM_ACC_GYRO_W_TIM_PEDO_FIFO_En               build/obj/LSM6DSM_ACC_GYRO_driver.o
LSM6DSM_ACC_GYRO_W_TIM_PEDO_FIFO_Write_En         build/obj/LSM6DSM_ACC_GYRO_driver.o
LSM6DSM_ACC_GYRO_W_TapEvOnInt1                    build/obj/LSM6DSM_ACC_GYRO_driver.o
LSM6DSM_ACC_GYRO_W_TapEvOnInt2                    build/obj/LSM6DSM_ACC_GYRO_driver.o
                                                  build/obj/LSM6DSM_ACC_GYRO_driver_HL.o
LSM6DSM_ACC_GYRO_W_TiltEvOnInt1                   build/obj/LSM6DSM_ACC_GYRO_driver.o
LSM6DSM_ACC_GYRO_W_TiltEvOnInt2                   build/obj/LSM6DSM_ACC_GYRO_driver.o
                                                  build/obj/LSM6DSM_ACC_GYRO_driver_HL.o
LSM6DSM_ACC_GYRO_W_TimerEvRouteInt1               build/obj/LSM6DSM_ACC_GYRO_driver.o
LSM6DSM_ACC_GYRO_W_UserOffsetWeight               build/obj/LSM6DSM_ACC_GYRO_driver.o
LSM6DSM_ACC_GYRO_W_WAKE_DUR                       build/obj/LSM6DSM_ACC_GYRO_driver.o
                                                  build/obj/LSM6DSM_ACC_GYRO_driver_HL.o
LSM6DSM_ACC_GYRO_W_WK_THS                         build/obj/LSM6DSM_ACC_GYRO_driver.o
                                                  build/obj/LSM6DSM_ACC_GYRO_driver_HL.o
LSM6DSM_ACC_GYRO_W_WUEvOnInt1                     build/obj/LSM6DSM_ACC_GYRO_driver.o
LSM6DSM_ACC_GYRO_W_WUEvOnInt2                     build/obj/LSM6DSM_ACC_GYRO_driver.o
                                                  build/obj/LSM6DSM_ACC_GYRO_driver_HL.o
LSM6DSM_ACC_GYRO_WriteMem                         build/obj/LSM6DSM_ACC_GYRO_driver.o
LSM6DSM_ACC_GYRO_translate_ODR_G                  build/obj/LSM6DSM_ACC_GYRO_driver.o
LSM6DSM_ACC_GYRO_translate_ODR_XL                 build/obj/LSM6DSM_ACC_GYRO_driver.o
LSM6DSM_ACC_Get_Acceleration                      build/obj/LSM6DSM_ACC_GYRO_driver.o
LSM6DSM_ACC_Get_AngularRate                       build/obj/LSM6DSM_ACC_GYRO_driver.o
LSM6DSM_Combo_Data                                build/obj/SensorTile_gyro.o
                                                  build/obj/SensorTile_accelero.o
                                                  build/obj/LSM6DSM_ACC_GYRO_driver_HL.o
LSM6DSM_G_Drv                                     build/obj/LSM6DSM_ACC_GYRO_driver_HL.o
                                                  build/obj/SensorTile_gyro.o
LSM6DSM_Sensor_IO_ITConfig                        build/obj/SensorTile.o
                                                  build/obj/SensorTile_accelero.o
LSM6DSM_X_Drv                                     build/obj/LSM6DSM_ACC_GYRO_driver_HL.o
                                                  build/obj/SensorTile_accelero.o
LSM6DSM_X_ExtDrv                                  build/obj/LSM6DSM_ACC_GYRO_driver_HL.o
                                                  build/obj/SensorTile_accelero.o
LedOffTargetPlatform                              build/obj/TargetPlatform.o
                                                  build/obj/btle.o
                                                  build/obj/sensor_service.o
LedOnTargetPlatform                               build/obj/TargetPlatform.o
                                                  build/obj/btle.o
LedToggleTargetPlatform                           build/obj/TargetPlatform.o
MDM_GMDTable                                      build/obj/MetaDataManager.o
MDM_LicTable                                      build/obj/MetaDataManager.o
                                                  build/obj/btle.o
                                                  build/obj/sensor_service.o
MDM_LicenseParsing                                build/obj/MetaDataManager.o
                                                  build/obj/sensor_service.o
MDM_ReCallGMD                                     build/obj/MetaDataManager.o
MDM_SaveGMD                                       build/obj/MetaDataManager.o
MSIRangeTable                                     build/obj/stm32l4xx_hal_rcc.o
MemManage_Handler                                 build/obj/vectors.o
MetaDataLicenseStatus                             build/obj/MetaDataManager.o
                                                  build/obj/sensor_service.o
MotionAR_License_init                             build/obj/MotionAR_Manager.o
                                                  build/obj/btle.o
                                                  build/obj/sensor_service.o
MotionAR_manager_init                             build/obj/MotionAR_Manager.o
                                                  build/obj/btle.o
MotionAR_manager_run                              build/obj/MotionAR_Manager.o
                                                  build/obj/btle.o
MotionCP_License_init                             build/obj/MotionCP_Manager.o
                                                  build/obj/btle.o
                                                  build/obj/sensor_service.o
MotionCP_manager_init                             build/obj/MotionCP_Manager.o
                                                  build/obj/btle.o
MotionCP_manager_run                              build/obj/MotionCP_Manager.o
                                                  build/obj/btle.o
MotionFX_License_init                             build/obj/MotionFX_Manager.o
                                                  build/obj/btle.o
                                                  build/obj/sensor_service.o
MotionFX_manager_getDataIN                        build/obj/MotionFX_Manager.o
MotionFX_manager_getDataOUT                       build/obj/MotionFX_Manager.o
                                                  build/obj/btle.o
MotionFX_manager_init                             build/obj/MotionFX_Manager.o
                                                  build/obj/btle.o
MotionFX_manager_run                              build/obj/MotionFX_Manager.o
                                                  build/obj/btle.o
MotionFX_manager_start_6X                         build/obj/MotionFX_Manager.o
MotionFX_manager_start_9X                         build/obj/MotionFX_Manager.o
                                                  build/obj/btle.o
MotionFX_manager_stop_6X                          build/obj/MotionFX_Manager.o
MotionFX_manager_stop_9X                          build/obj/MotionFX_Manager.o
MotionGR_License_init                             build/obj/MotionGR_Manager.o
                                                  build/obj/btle.o
                                                  build/obj/sensor_service.o
MotionGR_manager_init                             build/obj/MotionGR_Manager.o
                                                  build/obj/btle.o
MotionGR_manager_run                              build/obj/MotionGR_Manager.o
                                                  build/obj/btle.o
NMI_Handler                                       build/obj/vectors.o
NecessityToSaveMetaDataManager                    build/obj/MetaDataManager.o
                                                  build/obj/btle.o
Osal_MemCpy                                       build/obj/osal.o
                                                  build/obj/hci.o
                                                  build/obj/bluenrg_utils.o
                                                  build/obj/bluenrg_updater_aci.o
                                                  build/obj/bluenrg_hal_aci.o
                                                  build/obj/bluenrg_gatt_aci.o
                                                  build/obj/bluenrg_gap_aci.o
Osal_MemSet                                       build/obj/osal.o
                                                  build/obj/hci.o
                                                  build/obj/bluenrg_updater_aci.o
                                                  build/obj/bluenrg_l2cap_aci.o
                                                  build/obj/bluenrg_hal_aci.o
                                                  build/obj/bluenrg_gatt_aci.o
                                                  build/obj/bluenrg_gap_aci.o
PCM_Buffer                                        build/obj/btle.o
                                                  build/obj/TargetPlatform.o
PendSV_Handler                                    build/obj/vectors.o
Quat_Update                                       build/obj/sensor_service.o
                                                  build/obj/btle.o
RMS_Ch                                            build/obj/btle.o
                                                  build/obj/sensor_service.o
                                                  build/obj/TargetPlatform.o
RTC_Bcd2ToByte                                    build/obj/stm32l4xx_hal_rtc.o
                                                  build/obj/stm32l4xx_hal_rtc_ex.o
RTC_ByteToBcd2                                    build/obj/stm32l4xx_hal_rtc.o
RTC_EnterInitMode                                 build/obj/stm32l4xx_hal_rtc.o
                                                  build/obj/stm32l4xx_hal_rtc_ex.o
Read_Request_CB                                   build/obj/sensor_service.o
RecBuff                                           build/obj/SensorTile_audio_in.o
ReseMetaDataManager                               build/obj/MetaDataManager.o
ResetHWPedometer                                  build/obj/HWAdvanceFeatures.o
                                                  build/obj/sensor_service.o
Reset_Handler                                     build/obj/crt0_v7m.o
                                                  build/obj/vectors.o
SD5                                               build/obj/main.o
                                                  build/obj/serial_lld.o
SD_IO_CS_DeInit                                   build/obj/SensorTile.o
SD_IO_CS_Init                                     build/obj/SensorTile.o
SD_IO_Init                                        build/obj/SensorTile.o
SD_IO_Init_LS                                     build/obj/SensorTile.o
SD_IO_ReadByte                                    build/obj/SensorTile.o
SD_IO_WaitResponse                                build/obj/SensorTile.o
SD_IO_WriteByte                                   build/obj/SensorTile.o
SD_IO_WriteCmd                                    build/obj/SensorTile.o
SD_IO_WriteCmd_wResp                              build/obj/SensorTile.o
SD_IO_WriteDummy                                  build/obj/SensorTile.o
SPID2                                             build/obj/spi_lld.o
SPID3                                             build/obj/spi_lld.o
SPI_Read                                          build/obj/SensorTile.o
SPI_Write                                         build/obj/SensorTile.o
STC3115_Drv                                       build/obj/STC3115_Driver.o
                                                  build/obj/SensorTile_gg.o
SVC_Handler                                       build/obj/chcore_v7m.o
                                                  build/obj/vectors.o
SaveMetaDataManager                               build/obj/MetaDataManager.o
                                                  build/obj/btle.o
SendBlueVoice                                     build/obj/btle.o
                                                  build/obj/AudioBV_Manager.o
Sensor_IO_I2C_Init                                build/obj/SensorTile.o
                                                  build/obj/SensorTile_temperature.o
                                                  build/obj/SensorTile_humidity.o
                                                  build/obj/SensorTile_gg.o
Sensor_IO_I2C_Read                                build/obj/SensorTile.o
Sensor_IO_I2C_Write                               build/obj/SensorTile.o
Sensor_IO_Read                                    build/obj/SensorTile.o
                                                  build/obj/STC3115_Driver.o
                                                  build/obj/LSM6DSM_ACC_GYRO_driver.o
                                                  build/obj/LSM303AGR_ACC_driver.o
                                                  build/obj/LSM303AGR_MAG_driver.o
                                                  build/obj/LPS22HB_Driver.o
                                                  build/obj/HTS221_Driver.o
Sensor_IO_SPI_CS_Disable                          build/obj/SensorTile.o
Sensor_IO_SPI_CS_Enable                           build/obj/SensorTile.o
Sensor_IO_SPI_CS_Init                             build/obj/SensorTile.o
                                                  build/obj/SensorTile_temperature.o
                                                  build/obj/SensorTile_pressure.o
                                                  build/obj/SensorTile_magneto.o
                                                  build/obj/SensorTile_gyro.o
                                                  build/obj/SensorTile_accelero.o
Sensor_IO_SPI_CS_Init_All                         build/obj/SensorTile.o
                                                  build/obj/TargetPlatform.o
Sensor_IO_SPI_Init                                build/obj/SensorTile.o
                                                  build/obj/SensorTile_temperature.o
                                                  build/obj/SensorTile_pressure.o
                                                  build/obj/SensorTile_magneto.o
                                                  build/obj/SensorTile_gyro.o
                                                  build/obj/SensorTile_accelero.o
Sensor_IO_SPI_Read                                build/obj/SensorTile.o
Sensor_IO_SPI_Write                               build/obj/SensorTile.o
Sensor_IO_Write                                   build/obj/SensorTile.o
                                                  build/obj/SensorTile_temperature.o
                                                  build/obj/SensorTile_pressure.o
                                                  build/obj/SensorTile_magneto.o
                                                  build/obj/SensorTile_gyro.o
                                                  build/obj/SensorTile_accelero.o
                                                  build/obj/STC3115_Driver.o
                                                  build/obj/LSM6DSM_ACC_GYRO_driver.o
                                                  build/obj/LSM303AGR_ACC_driver.o
                                                  build/obj/LSM303AGR_MAG_driver.o
                                                  build/obj/LPS22HB_Driver.o
                                                  build/obj/HTS221_Driver.o
Set2GAccelerometerFullScale                       build/obj/btle.o
                                                  build/obj/sensor_service.o
Set4GAccelerometerFullScale                       build/obj/btle.o
                                                  build/obj/sensor_service.o
SpiHandle                                         build/obj/hci.o
                                                  build/obj/SensorTile_BlueNRG.o
SpixTimeout                                       build/obj/SensorTile.o
StartUpdateFWBlueMS                               build/obj/OTA.o
                                                  build/obj/sensor_service.o
Stderr_Update                                     build/obj/sensor_service.o
SysTick_Handler                                   build/obj/st_lld.o
                                                  build/obj/vectors.o
SystemCoreClock                                   build/obj/hal_lld.o
                                                  build/obj/btle.o
                                                  build/obj/stm32l4xx_hal_rcc.o
                                                  build/obj/stm32l4xx_hal_pwr_ex.o
                                                  build/obj/stm32l4xx_hal_adc.o
                                                  build/obj/stm32l4xx_hal.o
TIMEx_DMACommutationCplt                          build/obj/stm32l4xx_hal_tim_ex.o
                                                  build/obj/stm32l4xx_hal_tim.o
TIM_Base_SetConfig                                build/obj/stm32l4xx_hal_tim.o
                                                  build/obj/stm32l4xx_hal_tim_ex.o
TIM_CCxChannelCmd                                 build/obj/stm32l4xx_hal_tim.o
                                                  build/obj/stm32l4xx_hal_tim_ex.o
TIM_DMACaptureCplt                                build/obj/stm32l4xx_hal_tim.o
                                                  build/obj/stm32l4xx_hal_tim_ex.o
TIM_DMADelayPulseCplt                             build/obj/stm32l4xx_hal_tim.o
                                                  build/obj/stm32l4xx_hal_tim_ex.o
TIM_DMAError                                      build/obj/stm32l4xx_hal_tim.o
                                                  build/obj/stm32l4xx_hal_tim_ex.o
TIM_ETR_SetConfig                                 build/obj/stm32l4xx_hal_tim.o
TIM_OC2_SetConfig                                 build/obj/stm32l4xx_hal_tim.o
                                                  build/obj/stm32l4xx_hal_tim_ex.o
TIM_TI1_SetConfig                                 build/obj/stm32l4xx_hal_tim.o
                                                  build/obj/stm32l4xx_hal_tim_ex.o
TargetBoardFeatures                               build/obj/btle.o
                                                  build/obj/MotionFX_Manager.o
                                                  build/obj/sensor_service.o
                                                  build/obj/TargetPlatform.o
                                                  build/obj/MotionAR_Manager.o
                                                  build/obj/HWAdvanceFeatures.o
                                                  build/obj/MotionGR_Manager.o
                                                  build/obj/MotionCP_Manager.o
                                                  build/obj/AudioBV_Manager.o
Term_Update                                       build/obj/sensor_service.o
                                                  build/obj/btle.o
TestThread                                        build/obj/test.o
TimAudioDataHandle                                build/obj/btle.o
                                                  build/obj/sensor_service.o
TimCCHandle                                       build/obj/btle.o
                                                  build/obj/sensor_service.o
TimEnvHandle                                      build/obj/btle.o
                                                  build/obj/sensor_service.o
Timer_Expired                                     build/obj/gp_timer.o
                                                  build/obj/hci.o
                                                  build/obj/SensorTile_BlueNRG.o
Timer_Remaining                                   build/obj/gp_timer.o
Timer_Reset                                       build/obj/gp_timer.o
Timer_Restart                                     build/obj/gp_timer.o
Timer_Set                                         build/obj/gp_timer.o
                                                  build/obj/hci.o
                                                  build/obj/SensorTile_BlueNRG.o
UART_AdvFeatureConfig                             build/obj/stm32l4xx_hal_uart.o
                                                  build/obj/stm32l4xx_hal_uart_ex.o
UART_CheckIdleState                               build/obj/stm32l4xx_hal_uart.o
                                                  build/obj/stm32l4xx_hal_uart_ex.o
UART_SetConfig                                    build/obj/stm32l4xx_hal_uart.o
                                                  build/obj/stm32l4xx_hal_uart_ex.o
UART_WaitOnFlagUntilTimeout                       build/obj/stm32l4xx_hal_uart.o
                                                  build/obj/stm32l4xx_hal_uart_ex.o
USBD1                                             build/obj/usb_lld.o
USBD_CDC                                          build/obj/usbd_cdc.o
USBD_CDC_CfgFSDesc                                build/obj/usbd_cdc.o
USBD_CDC_CfgHSDesc                                build/obj/usbd_cdc.o
USBD_CDC_GetDeviceQualifierDescriptor             build/obj/usbd_cdc.o
USBD_CDC_OtherSpeedCfgDesc                        build/obj/usbd_cdc.o
USBD_CDC_ReceivePacket                            build/obj/usbd_cdc.o
USBD_CDC_RegisterInterface                        build/obj/usbd_cdc.o
USBD_CDC_SetRxBuffer                              build/obj/usbd_cdc.o
USBD_CDC_SetTxBuffer                              build/obj/usbd_cdc.o
USBD_CDC_TransmitPacket                           build/obj/usbd_cdc.o
USBD_ClrClassConfig                               build/obj/usbd_core.o
                                                  build/obj/usbd_ctlreq.o
USBD_CtlContinueRx                                build/obj/usbd_ioreq.o
                                                  build/obj/usbd_core.o
USBD_CtlContinueSendData                          build/obj/usbd_ioreq.o
                                                  build/obj/usbd_core.o
USBD_CtlError                                     build/obj/usbd_ctlreq.o
USBD_CtlPrepareRx                                 build/obj/usbd_ioreq.o
                                                  build/obj/usbd_cdc.o
USBD_CtlReceiveStatus                             build/obj/usbd_ioreq.o
                                                  build/obj/usbd_core.o
USBD_CtlSendData                                  build/obj/usbd_ioreq.o
                                                  build/obj/usbd_ctlreq.o
                                                  build/obj/usbd_cdc.o
USBD_CtlSendStatus                                build/obj/usbd_ioreq.o
                                                  build/obj/usbd_ctlreq.o
                                                  build/obj/usbd_core.o
USBD_DeInit                                       build/obj/usbd_core.o
USBD_GetRxCount                                   build/obj/usbd_ioreq.o
USBD_GetString                                    build/obj/usbd_ctlreq.o
USBD_Init                                         build/obj/usbd_core.o
USBD_LL_ClearStallEP                              build/obj/usbd_conf.o
                                                  build/obj/usbd_ctlreq.o
USBD_LL_CloseEP                                   build/obj/usbd_conf.o
                                                  build/obj/usbd_cdc.o
USBD_LL_DataInStage                               build/obj/usbd_core.o
                                                  build/obj/usbd_conf.o
USBD_LL_DataOutStage                              build/obj/usbd_core.o
                                                  build/obj/usbd_conf.o
USBD_LL_DeInit                                    build/obj/usbd_conf.o
                                                  build/obj/usbd_core.o
USBD_LL_Delay                                     build/obj/usbd_conf.o
USBD_LL_DevConnected                              build/obj/usbd_core.o
                                                  build/obj/usbd_conf.o
USBD_LL_DevDisconnected                           build/obj/usbd_core.o
                                                  build/obj/usbd_conf.o
USBD_LL_FlushEP                                   build/obj/usbd_conf.o
USBD_LL_GetRxDataSize                             build/obj/usbd_conf.o
                                                  build/obj/usbd_ioreq.o
                                                  build/obj/usbd_cdc.o
USBD_LL_Init                                      build/obj/usbd_conf.o
                                                  build/obj/usbd_core.o
USBD_LL_IsStallEP                                 build/obj/usbd_conf.o
                                                  build/obj/usbd_ctlreq.o
USBD_LL_IsoINIncomplete                           build/obj/usbd_core.o
                                                  build/obj/usbd_conf.o
USBD_LL_IsoOUTIncomplete                          build/obj/usbd_core.o
                                                  build/obj/usbd_conf.o
USBD_LL_OpenEP                                    build/obj/usbd_conf.o
                                                  build/obj/usbd_core.o
                                                  build/obj/usbd_cdc.o
USBD_LL_PrepareReceive                            build/obj/usbd_conf.o
                                                  build/obj/usbd_ioreq.o
                                                  build/obj/usbd_core.o
                                                  build/obj/usbd_cdc.o
USBD_LL_Reset                                     build/obj/usbd_core.o
                                                  build/obj/usbd_conf.o
USBD_LL_Resume                                    build/obj/usbd_core.o
                                                  build/obj/usbd_conf.o
USBD_LL_SOF                                       build/obj/usbd_core.o
                                                  build/obj/usbd_conf.o
USBD_LL_SetSpeed                                  build/obj/usbd_core.o
                                                  build/obj/usbd_conf.o
USBD_LL_SetUSBAddress                             build/obj/usbd_conf.o
                                                  build/obj/usbd_ctlreq.o
USBD_LL_SetupStage                                build/obj/usbd_core.o
                                                  build/obj/usbd_conf.o
USBD_LL_StallEP                                   build/obj/usbd_conf.o
                                                  build/obj/usbd_ctlreq.o
                                                  build/obj/usbd_core.o
USBD_LL_Start                                     build/obj/usbd_conf.o
                                                  build/obj/usbd_core.o
USBD_LL_Stop                                      build/obj/usbd_conf.o
                                                  build/obj/usbd_core.o
USBD_LL_Suspend                                   build/obj/usbd_core.o
                                                  build/obj/usbd_conf.o
USBD_LL_Transmit                                  build/obj/usbd_conf.o
                                                  build/obj/usbd_ioreq.o
                                                  build/obj/usbd_cdc.o
USBD_ParseSetupRequest                            build/obj/usbd_ctlreq.o
                                                  build/obj/usbd_core.o
USBD_RegisterClass                                build/obj/usbd_core.o
USBD_RunTestMode                                  build/obj/usbd_core.o
USBD_SetClassConfig                               build/obj/usbd_core.o
                                                  build/obj/usbd_ctlreq.o
USBD_Start                                        build/obj/usbd_core.o
USBD_StdDevReq                                    build/obj/usbd_ctlreq.o
                                                  build/obj/usbd_core.o
USBD_StdEPReq                                     build/obj/usbd_ctlreq.o
                                                  build/obj/usbd_core.o
USBD_StdItfReq                                    build/obj/usbd_ctlreq.o
                                                  build/obj/usbd_core.o
USBD_Stop                                         build/obj/usbd_core.o
USB_ActivateDedicatedEndpoint                     build/obj/stm32l4xx_ll_usb.o
USB_ActivateEndpoint                              build/obj/stm32l4xx_ll_usb.o
                                                  build/obj/stm32l4xx_hal_pcd.o
USB_ActivateRemoteWakeup                          build/obj/stm32l4xx_ll_usb.o
                                                  build/obj/stm32l4xx_hal_pcd.o
USB_ActivateSetup                                 build/obj/stm32l4xx_ll_usb.o
                                                  build/obj/stm32l4xx_hal_pcd.o
USB_ClearInterrupts                               build/obj/stm32l4xx_ll_usb.o
USB_CoreInit                                      build/obj/stm32l4xx_ll_usb.o
                                                  build/obj/stm32l4xx_hal_pcd.o
USB_DeActivateRemoteWakeup                        build/obj/stm32l4xx_ll_usb.o
                                                  build/obj/stm32l4xx_hal_pcd.o
USB_DeactivateDedicatedEndpoint                   build/obj/stm32l4xx_ll_usb.o
USB_DeactivateEndpoint                            build/obj/stm32l4xx_ll_usb.o
                                                  build/obj/stm32l4xx_hal_pcd.o
USB_DevConnect                                    build/obj/stm32l4xx_ll_usb.o
                                                  build/obj/stm32l4xx_hal_pcd.o
USB_DevDisconnect                                 build/obj/stm32l4xx_ll_usb.o
                                                  build/obj/stm32l4xx_hal_pcd.o
USB_DevInit                                       build/obj/stm32l4xx_ll_usb.o
                                                  build/obj/stm32l4xx_hal_pcd.o
USB_DisableGlobalInt                              build/obj/stm32l4xx_ll_usb.o
                                                  build/obj/stm32l4xx_hal_pcd.o
USB_DoPing                                        build/obj/stm32l4xx_ll_usb.o
USB_DriveVbus                                     build/obj/stm32l4xx_ll_usb.o
USB_EP0StartXfer                                  build/obj/stm32l4xx_ll_usb.o
                                                  build/obj/stm32l4xx_hal_pcd.o
USB_EP0_OutStart                                  build/obj/stm32l4xx_ll_usb.o
                                                  build/obj/stm32l4xx_hal_pcd.o
USB_EPClearStall                                  build/obj/stm32l4xx_ll_usb.o
                                                  build/obj/stm32l4xx_hal_pcd.o
USB_EPSetStall                                    build/obj/stm32l4xx_ll_usb.o
                                                  build/obj/stm32l4xx_hal_pcd.o
USB_EPStartXfer                                   build/obj/stm32l4xx_ll_usb.o
                                                  build/obj/stm32l4xx_hal_pcd.o
USB_EnableGlobalInt                               build/obj/stm32l4xx_ll_usb.o
                                                  build/obj/stm32l4xx_hal_pcd.o
USB_FlushRxFifo                                   build/obj/stm32l4xx_ll_usb.o
                                                  build/obj/stm32l4xx_hal_pcd.o
USB_FlushTxFifo                                   build/obj/stm32l4xx_ll_usb.o
                                                  build/obj/stm32l4xx_hal_pcd.o
USB_GetCurrentFrame                               build/obj/stm32l4xx_ll_usb.o
USB_GetDevSpeed                                   build/obj/stm32l4xx_ll_usb.o
USB_GetHostSpeed                                  build/obj/stm32l4xx_ll_usb.o
USB_GetMode                                       build/obj/stm32l4xx_ll_usb.o
                                                  build/obj/stm32l4xx_hal_pcd.o
USB_HC_Halt                                       build/obj/stm32l4xx_ll_usb.o
USB_HC_Init                                       build/obj/stm32l4xx_ll_usb.o
USB_HC_ReadInterrupt                              build/obj/stm32l4xx_ll_usb.o
USB_HC_StartXfer                                  build/obj/stm32l4xx_ll_usb.o
USB_HostInit                                      build/obj/stm32l4xx_ll_usb.o
USB_InitFSLSPClkSel                               build/obj/stm32l4xx_ll_usb.o
USB_ReadDevAllInEpInterrupt                       build/obj/stm32l4xx_ll_usb.o
                                                  build/obj/stm32l4xx_hal_pcd.o
USB_ReadDevAllOutEpInterrupt                      build/obj/stm32l4xx_ll_usb.o
                                                  build/obj/stm32l4xx_hal_pcd.o
USB_ReadDevInEPInterrupt                          build/obj/stm32l4xx_ll_usb.o
                                                  build/obj/stm32l4xx_hal_pcd.o
USB_ReadDevOutEPInterrupt                         build/obj/stm32l4xx_ll_usb.o
                                                  build/obj/stm32l4xx_hal_pcd.o
USB_ReadInterrupts                                build/obj/stm32l4xx_ll_usb.o
                                                  build/obj/stm32l4xx_hal_pcd.o
USB_ReadPacket                                    build/obj/stm32l4xx_ll_usb.o
                                                  build/obj/stm32l4xx_hal_pcd.o
USB_ResetPort                                     build/obj/stm32l4xx_ll_usb.o
USB_SetCurrentMode                                build/obj/stm32l4xx_ll_usb.o
                                                  build/obj/stm32l4xx_hal_pcd.o
USB_SetDevAddress                                 build/obj/stm32l4xx_ll_usb.o
                                                  build/obj/stm32l4xx_hal_pcd.o
USB_SetDevSpeed                                   build/obj/stm32l4xx_ll_usb.o
USB_StopDevice                                    build/obj/stm32l4xx_ll_usb.o
                                                  build/obj/stm32l4xx_hal_pcd.o
USB_StopHost                                      build/obj/stm32l4xx_ll_usb.o
USB_WritePacket                                   build/obj/stm32l4xx_ll_usb.o
                                                  build/obj/stm32l4xx_hal_pcd.o
UpdateFWBlueMS                                    build/obj/OTA.o
                                                  build/obj/sensor_service.o
UsageFault_Handler                                build/obj/vectors.o
UserFunctionForErasingFlash                       build/obj/TargetPlatform.o
                                                  build/obj/MetaDataManager.o
UserFunctionForSavingFlash                        build/obj/TargetPlatform.o
                                                  build/obj/MetaDataManager.o
Vector100                                         build/obj/vectors.o
Vector104                                         build/obj/vectors.o
Vector108                                         build/obj/vectors.o
Vector10C                                         build/obj/vectors.o
Vector110                                         build/obj/vectors.o
Vector114                                         build/obj/serial_lld.o
                                                  build/obj/vectors.o
Vector118                                         build/obj/vectors.o
Vector11C                                         build/obj/vectors.o
Vector120                                         build/obj/stm32_dma.o
                                                  build/obj/vectors.o
Vector124                                         build/obj/stm32_dma.o
                                                  build/obj/vectors.o
Vector128                                         build/obj/stm32_dma.o
                                                  build/obj/vectors.o
Vector12C                                         build/obj/stm32_dma.o
                                                  build/obj/vectors.o
Vector130                                         build/obj/stm32_dma.o
                                                  build/obj/vectors.o
Vector134                                         build/obj/vectors.o
Vector138                                         build/obj/vectors.o
Vector13C                                         build/obj/vectors.o
Vector140                                         build/obj/vectors.o
Vector144                                         build/obj/vectors.o
Vector148                                         build/obj/vectors.o
Vector14C                                         build/obj/usb_lld.o
                                                  build/obj/vectors.o
Vector150                                         build/obj/stm32_dma.o
                                                  build/obj/vectors.o
Vector154                                         build/obj/stm32_dma.o
                                                  build/obj/vectors.o
Vector158                                         build/obj/vectors.o
Vector15C                                         build/obj/vectors.o
Vector160                                         build/obj/vectors.o
Vector164                                         build/obj/vectors.o
Vector168                                         build/obj/vectors.o
Vector16C                                         build/obj/vectors.o
Vector170                                         build/obj/vectors.o
Vector174                                         build/obj/vectors.o
Vector178                                         build/obj/vectors.o
Vector17C                                         build/obj/vectors.o
Vector180                                         build/obj/vectors.o
Vector184                                         build/obj/vectors.o
Vector188                                         build/obj/vectors.o
Vector18C                                         build/obj/vectors.o
Vector190                                         build/obj/vectors.o
Vector194                                         build/obj/vectors.o
Vector198                                         build/obj/vectors.o
Vector19C                                         build/obj/vectors.o
Vector1C                                          build/obj/vectors.o
Vector20                                          build/obj/vectors.o
Vector24                                          build/obj/vectors.o
Vector28                                          build/obj/vectors.o
Vector34                                          build/obj/vectors.o
Vector40                                          build/obj/vectors.o
Vector44                                          build/obj/vectors.o
Vector48                                          build/obj/vectors.o
Vector4C                                          build/obj/vectors.o
Vector50                                          build/obj/vectors.o
Vector54                                          build/obj/vectors.o
Vector58                                          build/obj/vectors.o
Vector5C                                          build/obj/vectors.o
Vector60                                          build/obj/vectors.o
Vector64                                          build/obj/vectors.o
Vector68                                          build/obj/vectors.o
Vector6C                                          build/obj/stm32_dma.o
                                                  build/obj/vectors.o
Vector70                                          build/obj/stm32_dma.o
                                                  build/obj/vectors.o
Vector74                                          build/obj/stm32_dma.o
                                                  build/obj/vectors.o
Vector78                                          build/obj/stm32_dma.o
                                                  build/obj/vectors.o
Vector7C                                          build/obj/stm32_dma.o
                                                  build/obj/vectors.o
Vector80                                          build/obj/stm32_dma.o
                                                  build/obj/vectors.o
Vector84                                          build/obj/stm32_dma.o
                                                  build/obj/vectors.o
Vector88                                          build/obj/vectors.o
Vector8C                                          build/obj/vectors.o
Vector90                                          build/obj/vectors.o
Vector94                                          build/obj/vectors.o
Vector98                                          build/obj/vectors.o
Vector9C                                          build/obj/vectors.o
VectorA0                                          build/obj/vectors.o
VectorA4                                          build/obj/vectors.o
VectorA8                                          build/obj/vectors.o
VectorAC                                          build/obj/vectors.o
VectorB0                                          build/obj/vectors.o
VectorB4                                          build/obj/vectors.o
VectorB8                                          build/obj/vectors.o
VectorBC                                          build/obj/vectors.o
VectorC0                                          build/obj/vectors.o
VectorC4                                          build/obj/vectors.o
VectorC8                                          build/obj/vectors.o
VectorCC                                          build/obj/vectors.o
VectorD0                                          build/obj/vectors.o
VectorD4                                          build/obj/vectors.o
VectorD8                                          build/obj/vectors.o
VectorDC                                          build/obj/vectors.o
VectorE0                                          build/obj/vectors.o
VectorE4                                          build/obj/vectors.o
VectorE8                                          build/obj/vectors.o
VectorEC                                          build/obj/vectors.o
VectorF0                                          build/obj/vectors.o
VectorF4                                          build/obj/vectors.o
VectorF8                                          build/obj/vectors.o
VectorFC                                          build/obj/vectors.o
_Balloc                                           /nfs/nfs5/home/research/hardware/arm2/gcc-arm-embedded/gcc-arm-none-eabi-4_8-2014q2/bin/../lib/gcc/arm-none-eabi/4.8.4/../../../../arm-none-eabi/lib/armv7e-m/libc.a(lib_a-mprec.o)
                                                  /nfs/nfs5/home/research/hardware/arm2/gcc-arm-embedded/gcc-arm-none-eabi-4_8-2014q2/bin/../lib/gcc/arm-none-eabi/4.8.4/../../../../arm-none-eabi/lib/armv7e-m/libc.a(lib_a-dtoa.o)
_Bfree                                            /nfs/nfs5/home/research/hardware/arm2/gcc-arm-embedded/gcc-arm-none-eabi-4_8-2014q2/bin/../lib/gcc/arm-none-eabi/4.8.4/../../../../arm-none-eabi/lib/armv7e-m/libc.a(lib_a-mprec.o)
                                                  /nfs/nfs5/home/research/hardware/arm2/gcc-arm-embedded/gcc-arm-none-eabi-4_8-2014q2/bin/../lib/gcc/arm-none-eabi/4.8.4/../../../../arm-none-eabi/lib/armv7e-m/libc.a(lib_a-dtoa.o)
_PathLocale                                       /nfs/nfs5/home/research/hardware/arm2/gcc-arm-embedded/gcc-arm-none-eabi-4_8-2014q2/bin/../lib/gcc/arm-none-eabi/4.8.4/../../../../arm-none-eabi/lib/armv7e-m/libc.a(lib_a-locale.o)
__adddf3                                          /nfs/nfs5/home/research/hardware/arm2/gcc-arm-embedded/gcc-arm-none-eabi-4_8-2014q2/bin/../lib/gcc/arm-none-eabi/4.8.4/armv7e-m/libgcc.a(_arm_addsubdf3.o)
__addsf3                                          /nfs/nfs5/home/research/hardware/arm2/gcc-arm-embedded/gcc-arm-none-eabi-4_8-2014q2/bin/../lib/gcc/arm-none-eabi/4.8.4/armv7e-m/libgcc.a(_arm_addsubsf3.o)
__aeabi_cdcmpeq                                   /nfs/nfs5/home/research/hardware/arm2/gcc-arm-embedded/gcc-arm-none-eabi-4_8-2014q2/bin/../lib/gcc/arm-none-eabi/4.8.4/armv7e-m/libgcc.a(_arm_cmpdf2.o)
__aeabi_cdcmple                                   /nfs/nfs5/home/research/hardware/arm2/gcc-arm-embedded/gcc-arm-none-eabi-4_8-2014q2/bin/../lib/gcc/arm-none-eabi/4.8.4/armv7e-m/libgcc.a(_arm_cmpdf2.o)
__aeabi_cdrcmple                                  /nfs/nfs5/home/research/hardware/arm2/gcc-arm-embedded/gcc-arm-none-eabi-4_8-2014q2/bin/../lib/gcc/arm-none-eabi/4.8.4/armv7e-m/libgcc.a(_arm_cmpdf2.o)
__aeabi_cfcmpeq                                   /nfs/nfs5/home/research/hardware/arm2/gcc-arm-embedded/gcc-arm-none-eabi-4_8-2014q2/bin/../lib/gcc/arm-none-eabi/4.8.4/armv7e-m/libgcc.a(_arm_cmpsf2.o)
__aeabi_cfcmple                                   /nfs/nfs5/home/research/hardware/arm2/gcc-arm-embedded/gcc-arm-none-eabi-4_8-2014q2/bin/../lib/gcc/arm-none-eabi/4.8.4/armv7e-m/libgcc.a(_arm_cmpsf2.o)
__aeabi_cfrcmple                                  /nfs/nfs5/home/research/hardware/arm2/gcc-arm-embedded/gcc-arm-none-eabi-4_8-2014q2/bin/../lib/gcc/arm-none-eabi/4.8.4/armv7e-m/libgcc.a(_arm_cmpsf2.o)
__aeabi_d2f                                       /nfs/nfs5/home/research/hardware/arm2/gcc-arm-embedded/gcc-arm-none-eabi-4_8-2014q2/bin/../lib/gcc/arm-none-eabi/4.8.4/armv7e-m/libgcc.a(_arm_truncdfsf2.o)
                                                  /nfs/nfs5/home/research/hardware/arm2/gcc-arm-embedded/gcc-arm-none-eabi-4_8-2014q2/bin/../lib/gcc/arm-none-eabi/4.8.4/../../../../arm-none-eabi/lib/armv7e-m/libm.a(lib_a-wf_log10.o)
                                                  build/obj/MotionFX_Manager.o
__aeabi_d2iz                                      /nfs/nfs5/home/research/hardware/arm2/gcc-arm-embedded/gcc-arm-none-eabi-4_8-2014q2/bin/../lib/gcc/arm-none-eabi/4.8.4/armv7e-m/libgcc.a(_arm_fixdfsi.o)
                                                  /nfs/nfs5/home/research/hardware/arm2/gcc-arm-embedded/gcc-arm-none-eabi-4_8-2014q2/bin/../lib/gcc/arm-none-eabi/4.8.4/../../../../arm-none-eabi/lib/armv7e-m/libc.a(lib_a-dtoa.o)
__aeabi_d2uiz                                     /nfs/nfs5/home/research/hardware/arm2/gcc-arm-embedded/gcc-arm-none-eabi-4_8-2014q2/bin/../lib/gcc/arm-none-eabi/4.8.4/armv7e-m/libgcc.a(_arm_fixunsdfsi.o)
                                                  build/obj/btle.o
__aeabi_dadd                                      /nfs/nfs5/home/research/hardware/arm2/gcc-arm-embedded/gcc-arm-none-eabi-4_8-2014q2/bin/../lib/gcc/arm-none-eabi/4.8.4/armv7e-m/libgcc.a(_arm_addsubdf3.o)
                                                  /nfs/nfs5/home/research/hardware/arm2/gcc-arm-embedded/gcc-arm-none-eabi-4_8-2014q2/bin/../lib/gcc/arm-none-eabi/4.8.4/../../../../arm-none-eabi/lib/armv7e-m/libm.a(lib_a-s_trunc.o)
                                                  /nfs/nfs5/home/research/hardware/arm2/gcc-arm-embedded/gcc-arm-none-eabi-4_8-2014q2/bin/../lib/gcc/arm-none-eabi/4.8.4/../../../../arm-none-eabi/lib/armv7e-m/libc.a(lib_a-dtoa.o)
__aeabi_dcmpeq                                    /nfs/nfs5/home/research/hardware/arm2/gcc-arm-embedded/gcc-arm-none-eabi-4_8-2014q2/bin/../lib/gcc/arm-none-eabi/4.8.4/armv7e-m/libgcc.a(_arm_cmpdf2.o)
                                                  /nfs/nfs5/home/research/hardware/arm2/gcc-arm-embedded/gcc-arm-none-eabi-4_8-2014q2/bin/../lib/gcc/arm-none-eabi/4.8.4/../../../../arm-none-eabi/lib/armv7e-m/libc.a(lib_a-dtoa.o)
                                                  /nfs/nfs5/home/research/hardware/arm2/gcc-arm-embedded/gcc-arm-none-eabi-4_8-2014q2/bin/../lib/gcc/arm-none-eabi/4.8.4/../../../../arm-none-eabi/lib/armv7e-m/libc.a(lib_a-vfprintf.o)
                                                  /nfs/nfs5/home/research/hardware/arm2/gcc-arm-embedded/gcc-arm-none-eabi-4_8-2014q2/bin/../lib/gcc/arm-none-eabi/4.8.4/../../../../arm-none-eabi/lib/armv7e-m/libc.a(lib_a-svfprintf.o)
__aeabi_dcmpge                                    /nfs/nfs5/home/research/hardware/arm2/gcc-arm-embedded/gcc-arm-none-eabi-4_8-2014q2/bin/../lib/gcc/arm-none-eabi/4.8.4/armv7e-m/libgcc.a(_arm_cmpdf2.o)
                                                  /nfs/nfs5/home/research/hardware/arm2/gcc-arm-embedded/gcc-arm-none-eabi-4_8-2014q2/bin/../lib/gcc/arm-none-eabi/4.8.4/../../../../arm-none-eabi/lib/armv7e-m/libc.a(lib_a-dtoa.o)
__aeabi_dcmpgt                                    /nfs/nfs5/home/research/hardware/arm2/gcc-arm-embedded/gcc-arm-none-eabi-4_8-2014q2/bin/../lib/gcc/arm-none-eabi/4.8.4/armv7e-m/libgcc.a(_arm_cmpdf2.o)
                                                  /nfs/nfs5/home/research/hardware/arm2/gcc-arm-embedded/gcc-arm-none-eabi-4_8-2014q2/bin/../lib/gcc/arm-none-eabi/4.8.4/../../../../arm-none-eabi/lib/armv7e-m/libc.a(lib_a-dtoa.o)
__aeabi_dcmple                                    /nfs/nfs5/home/research/hardware/arm2/gcc-arm-embedded/gcc-arm-none-eabi-4_8-2014q2/bin/../lib/gcc/arm-none-eabi/4.8.4/armv7e-m/libgcc.a(_arm_cmpdf2.o)
__aeabi_dcmplt                                    /nfs/nfs5/home/research/hardware/arm2/gcc-arm-embedded/gcc-arm-none-eabi-4_8-2014q2/bin/../lib/gcc/arm-none-eabi/4.8.4/armv7e-m/libgcc.a(_arm_cmpdf2.o)
                                                  /nfs/nfs5/home/research/hardware/arm2/gcc-arm-embedded/gcc-arm-none-eabi-4_8-2014q2/bin/../lib/gcc/arm-none-eabi/4.8.4/../../../../arm-none-eabi/lib/armv7e-m/libc.a(lib_a-dtoa.o)
                                                  /nfs/nfs5/home/research/hardware/arm2/gcc-arm-embedded/gcc-arm-none-eabi-4_8-2014q2/bin/../lib/gcc/arm-none-eabi/4.8.4/../../../../arm-none-eabi/lib/armv7e-m/libc.a(lib_a-vfprintf.o)
                                                  /nfs/nfs5/home/research/hardware/arm2/gcc-arm-embedded/gcc-arm-none-eabi-4_8-2014q2/bin/../lib/gcc/arm-none-eabi/4.8.4/../../../../arm-none-eabi/lib/armv7e-m/libc.a(lib_a-svfprintf.o)
__aeabi_ddiv                                      /nfs/nfs5/home/research/hardware/arm2/gcc-arm-embedded/gcc-arm-none-eabi-4_8-2014q2/bin/../lib/gcc/arm-none-eabi/4.8.4/armv7e-m/libgcc.a(_arm_muldivdf3.o)
                                                  /nfs/nfs5/home/research/hardware/arm2/gcc-arm-embedded/gcc-arm-none-eabi-4_8-2014q2/bin/../lib/gcc/arm-none-eabi/4.8.4/../../../../arm-none-eabi/lib/armv7e-m/libc.a(lib_a-mprec.o)
                                                  /nfs/nfs5/home/research/hardware/arm2/gcc-arm-embedded/gcc-arm-none-eabi-4_8-2014q2/bin/../lib/gcc/arm-none-eabi/4.8.4/../../../../arm-none-eabi/lib/armv7e-m/libc.a(lib_a-dtoa.o)
__aeabi_dmul                                      /nfs/nfs5/home/research/hardware/arm2/gcc-arm-embedded/gcc-arm-none-eabi-4_8-2014q2/bin/../lib/gcc/arm-none-eabi/4.8.4/armv7e-m/libgcc.a(_arm_muldivdf3.o)
                                                  /nfs/nfs5/home/research/hardware/arm2/gcc-arm-embedded/gcc-arm-none-eabi-4_8-2014q2/bin/../lib/gcc/arm-none-eabi/4.8.4/../../../../arm-none-eabi/lib/armv7e-m/libc.a(lib_a-mprec.o)
                                                  /nfs/nfs5/home/research/hardware/arm2/gcc-arm-embedded/gcc-arm-none-eabi-4_8-2014q2/bin/../lib/gcc/arm-none-eabi/4.8.4/../../../../arm-none-eabi/lib/armv7e-m/libc.a(lib_a-dtoa.o)
                                                  build/obj/MotionFX_Manager.o
__aeabi_drsub                                     /nfs/nfs5/home/research/hardware/arm2/gcc-arm-embedded/gcc-arm-none-eabi-4_8-2014q2/bin/../lib/gcc/arm-none-eabi/4.8.4/armv7e-m/libgcc.a(_arm_addsubdf3.o)
__aeabi_dsub                                      /nfs/nfs5/home/research/hardware/arm2/gcc-arm-embedded/gcc-arm-none-eabi-4_8-2014q2/bin/../lib/gcc/arm-none-eabi/4.8.4/armv7e-m/libgcc.a(_arm_addsubdf3.o)
                                                  /nfs/nfs5/home/research/hardware/arm2/gcc-arm-embedded/gcc-arm-none-eabi-4_8-2014q2/bin/../lib/gcc/arm-none-eabi/4.8.4/../../../../arm-none-eabi/lib/armv7e-m/libc.a(lib_a-dtoa.o)
__aeabi_f2d                                       /nfs/nfs5/home/research/hardware/arm2/gcc-arm-embedded/gcc-arm-none-eabi-4_8-2014q2/bin/../lib/gcc/arm-none-eabi/4.8.4/armv7e-m/libgcc.a(_arm_addsubdf3.o)
                                                  /nfs/nfs5/home/research/hardware/arm2/gcc-arm-embedded/gcc-arm-none-eabi-4_8-2014q2/bin/../lib/gcc/arm-none-eabi/4.8.4/../../../../arm-none-eabi/lib/armv7e-m/libm.a(lib_a-wf_log10.o)
                                                  build/obj/btle.o
__aeabi_f2iz                                      /nfs/nfs5/home/research/hardware/arm2/gcc-arm-embedded/gcc-arm-none-eabi-4_8-2014q2/bin/../lib/gcc/arm-none-eabi/4.8.4/armv7e-m/libgcc.a(_arm_fixsfsi.o)
                                                  build/obj/btle.o
                                                  build/obj/LSM6DSM_ACC_GYRO_driver_HL.o
                                                  build/obj/LSM303AGR_MAG_driver_HL.o
                                                  build/obj/HTS221_Driver.o
                                                  build/obj/sensor_service.o
__aeabi_f2uiz                                     /nfs/nfs5/home/research/hardware/arm2/gcc-arm-embedded/gcc-arm-none-eabi-4_8-2014q2/bin/../lib/gcc/arm-none-eabi/4.8.4/armv7e-m/libgcc.a(_arm_fixunssfsi.o)
                                                  build/obj/btle.o
                                                  build/obj/HTS221_Driver.o
__aeabi_fadd                                      /nfs/nfs5/home/research/hardware/arm2/gcc-arm-embedded/gcc-arm-none-eabi-4_8-2014q2/bin/../lib/gcc/arm-none-eabi/4.8.4/armv7e-m/libgcc.a(_arm_addsubsf3.o)
                                                  /nfs/nfs5/home/research/hardware/arm2/gcc-arm-embedded/gcc-arm-none-eabi-4_8-2014q2/bin/../lib/gcc/arm-none-eabi/4.8.4/../../../../arm-none-eabi/lib/armv7e-m/libm.a(lib_a-ef_log.o)
                                                  /nfs/nfs5/home/research/hardware/arm2/gcc-arm-embedded/gcc-arm-none-eabi-4_8-2014q2/bin/../lib/gcc/arm-none-eabi/4.8.4/../../../../arm-none-eabi/lib/armv7e-m/libm.a(lib_a-ef_log10.o)
                                                  build/obj/btle.o
                                                  build/obj/HTS221_Driver.o
__aeabi_fcmpeq                                    /nfs/nfs5/home/research/hardware/arm2/gcc-arm-embedded/gcc-arm-none-eabi-4_8-2014q2/bin/../lib/gcc/arm-none-eabi/4.8.4/armv7e-m/libgcc.a(_arm_cmpsf2.o)
                                                  /nfs/nfs5/home/research/hardware/arm2/gcc-arm-embedded/gcc-arm-none-eabi-4_8-2014q2/bin/../lib/gcc/arm-none-eabi/4.8.4/../../../../arm-none-eabi/lib/armv7e-m/libm.a(lib_a-ef_log.o)
                                                  /nfs/nfs5/home/research/hardware/arm2/gcc-arm-embedded/gcc-arm-none-eabi-4_8-2014q2/bin/../lib/gcc/arm-none-eabi/4.8.4/../../../../arm-none-eabi/lib/armv7e-m/libm.a(lib_a-wf_log10.o)
__aeabi_fcmpge                                    /nfs/nfs5/home/research/hardware/arm2/gcc-arm-embedded/gcc-arm-none-eabi-4_8-2014q2/bin/../lib/gcc/arm-none-eabi/4.8.4/armv7e-m/libgcc.a(_arm_cmpsf2.o)
__aeabi_fcmpgt                                    /nfs/nfs5/home/research/hardware/arm2/gcc-arm-embedded/gcc-arm-none-eabi-4_8-2014q2/bin/../lib/gcc/arm-none-eabi/4.8.4/armv7e-m/libgcc.a(_arm_cmpsf2.o)
                                                  build/obj/HTS221_Driver.o
__aeabi_fcmple                                    /nfs/nfs5/home/research/hardware/arm2/gcc-arm-embedded/gcc-arm-none-eabi-4_8-2014q2/bin/../lib/gcc/arm-none-eabi/4.8.4/armv7e-m/libgcc.a(_arm_cmpsf2.o)
                                                  /nfs/nfs5/home/research/hardware/arm2/gcc-arm-embedded/gcc-arm-none-eabi-4_8-2014q2/bin/../lib/gcc/arm-none-eabi/4.8.4/../../../../arm-none-eabi/lib/armv7e-m/libm.a(lib_a-wf_log10.o)
                                                  build/obj/LSM6DSM_ACC_GYRO_driver_HL.o
                                                  build/obj/LSM303AGR_ACC_driver_HL.o
                                                  build/obj/LSM303AGR_MAG_driver_HL.o
                                                  build/obj/LPS22HB_Driver_HL.o
                                                  build/obj/HTS221_Driver_HL.o
__aeabi_fcmplt                                    /nfs/nfs5/home/research/hardware/arm2/gcc-arm-embedded/gcc-arm-none-eabi-4_8-2014q2/bin/../lib/gcc/arm-none-eabi/4.8.4/armv7e-m/libgcc.a(_arm_cmpsf2.o)
                                                  build/obj/btle.o
                                                  build/obj/HTS221_Driver.o
__aeabi_fdiv                                      /nfs/nfs5/home/research/hardware/arm2/gcc-arm-embedded/gcc-arm-none-eabi-4_8-2014q2/bin/../lib/gcc/arm-none-eabi/4.8.4/armv7e-m/libgcc.a(_arm_muldivsf3.o)
                                                  /nfs/nfs5/home/research/hardware/arm2/gcc-arm-embedded/gcc-arm-none-eabi-4_8-2014q2/bin/../lib/gcc/arm-none-eabi/4.8.4/../../../../arm-none-eabi/lib/armv7e-m/libm.a(lib_a-ef_log.o)
                                                  /nfs/nfs5/home/research/hardware/arm2/gcc-arm-embedded/gcc-arm-none-eabi-4_8-2014q2/bin/../lib/gcc/arm-none-eabi/4.8.4/../../../../arm-none-eabi/lib/armv7e-m/libm.a(lib_a-ef_log10.o)
                                                  build/obj/btle.o
                                                  build/obj/LPS22HB_Driver_HL.o
                                                  build/obj/HTS221_Driver.o
                                                  build/obj/HTS221_Driver_HL.o
__aeabi_fmul                                      /nfs/nfs5/home/research/hardware/arm2/gcc-arm-embedded/gcc-arm-none-eabi-4_8-2014q2/bin/../lib/gcc/arm-none-eabi/4.8.4/armv7e-m/libgcc.a(_arm_muldivsf3.o)
                                                  /nfs/nfs5/home/research/hardware/arm2/gcc-arm-embedded/gcc-arm-none-eabi-4_8-2014q2/bin/../lib/gcc/arm-none-eabi/4.8.4/../../../../arm-none-eabi/lib/armv7e-m/libm.a(lib_a-ef_log.o)
                                                  /nfs/nfs5/home/research/hardware/arm2/gcc-arm-embedded/gcc-arm-none-eabi-4_8-2014q2/bin/../lib/gcc/arm-none-eabi/4.8.4/../../../../arm-none-eabi/lib/armv7e-m/libm.a(lib_a-ef_log10.o)
                                                  build/obj/btle.o
                                                  build/obj/MotionFX_Manager.o
                                                  build/obj/LSM6DSM_ACC_GYRO_driver_HL.o
                                                  build/obj/LSM303AGR_MAG_driver_HL.o
                                                  build/obj/HTS221_Driver.o
                                                  build/obj/sensor_service.o
                                                  build/obj/MotionAR_Manager.o
                                                  build/obj/MotionGR_Manager.o
                                                  build/obj/MotionCP_Manager.o
__aeabi_frsub                                     /nfs/nfs5/home/research/hardware/arm2/gcc-arm-embedded/gcc-arm-none-eabi-4_8-2014q2/bin/../lib/gcc/arm-none-eabi/4.8.4/armv7e-m/libgcc.a(_arm_addsubsf3.o)
__aeabi_fsub                                      /nfs/nfs5/home/research/hardware/arm2/gcc-arm-embedded/gcc-arm-none-eabi-4_8-2014q2/bin/../lib/gcc/arm-none-eabi/4.8.4/armv7e-m/libgcc.a(_arm_addsubsf3.o)
                                                  /nfs/nfs5/home/research/hardware/arm2/gcc-arm-embedded/gcc-arm-none-eabi-4_8-2014q2/bin/../lib/gcc/arm-none-eabi/4.8.4/../../../../arm-none-eabi/lib/armv7e-m/libm.a(lib_a-ef_log.o)
                                                  /nfs/nfs5/home/research/hardware/arm2/gcc-arm-embedded/gcc-arm-none-eabi-4_8-2014q2/bin/../lib/gcc/arm-none-eabi/4.8.4/../../../../arm-none-eabi/lib/armv7e-m/libm.a(lib_a-ef_log10.o)
                                                  build/obj/btle.o
                                                  build/obj/sensor_service.o
__aeabi_i2d                                       /nfs/nfs5/home/research/hardware/arm2/gcc-arm-embedded/gcc-arm-none-eabi-4_8-2014q2/bin/../lib/gcc/arm-none-eabi/4.8.4/armv7e-m/libgcc.a(_arm_addsubdf3.o)
                                                  /nfs/nfs5/home/research/hardware/arm2/gcc-arm-embedded/gcc-arm-none-eabi-4_8-2014q2/bin/../lib/gcc/arm-none-eabi/4.8.4/../../../../arm-none-eabi/lib/armv7e-m/libc.a(lib_a-dtoa.o)
                                                  build/obj/MotionFX_Manager.o
__aeabi_i2f                                       /nfs/nfs5/home/research/hardware/arm2/gcc-arm-embedded/gcc-arm-none-eabi-4_8-2014q2/bin/../lib/gcc/arm-none-eabi/4.8.4/armv7e-m/libgcc.a(_arm_addsubsf3.o)
                                                  /nfs/nfs5/home/research/hardware/arm2/gcc-arm-embedded/gcc-arm-none-eabi-4_8-2014q2/bin/../lib/gcc/arm-none-eabi/4.8.4/../../../../arm-none-eabi/lib/armv7e-m/libm.a(lib_a-ef_log.o)
                                                  /nfs/nfs5/home/research/hardware/arm2/gcc-arm-embedded/gcc-arm-none-eabi-4_8-2014q2/bin/../lib/gcc/arm-none-eabi/4.8.4/../../../../arm-none-eabi/lib/armv7e-m/libm.a(lib_a-ef_log10.o)
                                                  build/obj/btle.o
                                                  build/obj/MotionFX_Manager.o
                                                  build/obj/LSM6DSM_ACC_GYRO_driver_HL.o
                                                  build/obj/LSM303AGR_MAG_driver_HL.o
                                                  build/obj/LPS22HB_Driver_HL.o
                                                  build/obj/HTS221_Driver.o
                                                  build/obj/HTS221_Driver_HL.o
                                                  build/obj/sensor_service.o
                                                  build/obj/MotionAR_Manager.o
                                                  build/obj/MotionGR_Manager.o
                                                  build/obj/MotionCP_Manager.o
__aeabi_idiv0                                     /nfs/nfs5/home/research/hardware/arm2/gcc-arm-embedded/gcc-arm-none-eabi-4_8-2014q2/bin/../lib/gcc/arm-none-eabi/4.8.4/armv7e-m/libgcc.a(_dvmd_tls.o)
__aeabi_l2d                                       /nfs/nfs5/home/research/hardware/arm2/gcc-arm-embedded/gcc-arm-none-eabi-4_8-2014q2/bin/../lib/gcc/arm-none-eabi/4.8.4/armv7e-m/libgcc.a(_arm_addsubdf3.o)
__aeabi_l2f                                       /nfs/nfs5/home/research/hardware/arm2/gcc-arm-embedded/gcc-arm-none-eabi-4_8-2014q2/bin/../lib/gcc/arm-none-eabi/4.8.4/armv7e-m/libgcc.a(_arm_addsubsf3.o)
__aeabi_ldiv0                                     /nfs/nfs5/home/research/hardware/arm2/gcc-arm-embedded/gcc-arm-none-eabi-4_8-2014q2/bin/../lib/gcc/arm-none-eabi/4.8.4/armv7e-m/libgcc.a(_dvmd_tls.o)
                                                  /nfs/nfs5/home/research/hardware/arm2/gcc-arm-embedded/gcc-arm-none-eabi-4_8-2014q2/bin/../lib/gcc/arm-none-eabi/4.8.4/armv7e-m/libgcc.a(_aeabi_uldivmod.o)
                                                  /nfs/nfs5/home/research/hardware/arm2/gcc-arm-embedded/gcc-arm-none-eabi-4_8-2014q2/bin/../lib/gcc/arm-none-eabi/4.8.4/armv7e-m/libgcc.a(_aeabi_ldivmod.o)
__aeabi_ldivmod                                   /nfs/nfs5/home/research/hardware/arm2/gcc-arm-embedded/gcc-arm-none-eabi-4_8-2014q2/bin/../lib/gcc/arm-none-eabi/4.8.4/armv7e-m/libgcc.a(_aeabi_ldivmod.o)
                                                  build/obj/LSM6DSM_ACC_GYRO_driver.o
                                                  build/obj/LSM303AGR_ACC_driver.o
__aeabi_ui2d                                      /nfs/nfs5/home/research/hardware/arm2/gcc-arm-embedded/gcc-arm-none-eabi-4_8-2014q2/bin/../lib/gcc/arm-none-eabi/4.8.4/armv7e-m/libgcc.a(_arm_addsubdf3.o)
                                                  /nfs/nfs5/home/research/hardware/arm2/gcc-arm-embedded/gcc-arm-none-eabi-4_8-2014q2/bin/../lib/gcc/arm-none-eabi/4.8.4/../../../../arm-none-eabi/lib/armv7e-m/libc.a(lib_a-dtoa.o)
__aeabi_ui2f                                      /nfs/nfs5/home/research/hardware/arm2/gcc-arm-embedded/gcc-arm-none-eabi-4_8-2014q2/bin/../lib/gcc/arm-none-eabi/4.8.4/armv7e-m/libgcc.a(_arm_addsubsf3.o)
                                                  build/obj/btle.o
                                                  build/obj/HTS221_Driver_HL.o
__aeabi_ul2d                                      /nfs/nfs5/home/research/hardware/arm2/gcc-arm-embedded/gcc-arm-none-eabi-4_8-2014q2/bin/../lib/gcc/arm-none-eabi/4.8.4/armv7e-m/libgcc.a(_arm_addsubdf3.o)
__aeabi_ul2f                                      /nfs/nfs5/home/research/hardware/arm2/gcc-arm-embedded/gcc-arm-none-eabi-4_8-2014q2/bin/../lib/gcc/arm-none-eabi/4.8.4/armv7e-m/libgcc.a(_arm_addsubsf3.o)
__aeabi_uldivmod                                  /nfs/nfs5/home/research/hardware/arm2/gcc-arm-embedded/gcc-arm-none-eabi-4_8-2014q2/bin/../lib/gcc/arm-none-eabi/4.8.4/armv7e-m/libgcc.a(_aeabi_uldivmod.o)
                                                  /nfs/nfs5/home/research/hardware/arm2/gcc-arm-embedded/gcc-arm-none-eabi-4_8-2014q2/bin/../lib/gcc/arm-none-eabi/4.8.4/../../../../arm-none-eabi/lib/armv7e-m/libc.a(lib_a-vfiprintf.o)
                                                  /nfs/nfs5/home/research/hardware/arm2/gcc-arm-embedded/gcc-arm-none-eabi-4_8-2014q2/bin/../lib/gcc/arm-none-eabi/4.8.4/../../../../arm-none-eabi/lib/armv7e-m/libc.a(lib_a-svfiprintf.o)
                                                  /nfs/nfs5/home/research/hardware/arm2/gcc-arm-embedded/gcc-arm-none-eabi-4_8-2014q2/bin/../lib/gcc/arm-none-eabi/4.8.4/../../../../arm-none-eabi/lib/armv7e-m/libc.a(lib_a-vfprintf.o)
                                                  /nfs/nfs5/home/research/hardware/arm2/gcc-arm-embedded/gcc-arm-none-eabi-4_8-2014q2/bin/../lib/gcc/arm-none-eabi/4.8.4/../../../../arm-none-eabi/lib/armv7e-m/libc.a(lib_a-svfprintf.o)
                                                  build/obj/stm32l4xx_hal_uart.o
__any_on                                          /nfs/nfs5/home/research/hardware/arm2/gcc-arm-embedded/gcc-arm-none-eabi-4_8-2014q2/bin/../lib/gcc/arm-none-eabi/4.8.4/../../../../arm-none-eabi/lib/armv7e-m/libc.a(lib_a-mprec.o)
__ascii_wctomb                                    /nfs/nfs5/home/research/hardware/arm2/gcc-arm-embedded/gcc-arm-none-eabi-4_8-2014q2/bin/../lib/gcc/arm-none-eabi/4.8.4/../../../../arm-none-eabi/lib/armv7e-m/libc.a(lib_a-wctomb_r.o)
__b2d                                             /nfs/nfs5/home/research/hardware/arm2/gcc-arm-embedded/gcc-arm-none-eabi-4_8-2014q2/bin/../lib/gcc/arm-none-eabi/4.8.4/../../../../arm-none-eabi/lib/armv7e-m/libc.a(lib_a-mprec.o)
__cmpdf2                                          /nfs/nfs5/home/research/hardware/arm2/gcc-arm-embedded/gcc-arm-none-eabi-4_8-2014q2/bin/../lib/gcc/arm-none-eabi/4.8.4/armv7e-m/libgcc.a(_arm_cmpdf2.o)
__cmpsf2                                          /nfs/nfs5/home/research/hardware/arm2/gcc-arm-embedded/gcc-arm-none-eabi-4_8-2014q2/bin/../lib/gcc/arm-none-eabi/4.8.4/armv7e-m/libgcc.a(_arm_cmpsf2.o)
__copybits                                        /nfs/nfs5/home/research/hardware/arm2/gcc-arm-embedded/gcc-arm-none-eabi-4_8-2014q2/bin/../lib/gcc/arm-none-eabi/4.8.4/../../../../arm-none-eabi/lib/armv7e-m/libc.a(lib_a-mprec.o)
__core_init                                       build/obj/crt1.o
                                                  build/obj/crt0_v7m.o
__ctype_ptr__                                     /nfs/nfs5/home/research/hardware/arm2/gcc-arm-embedded/gcc-arm-none-eabi-4_8-2014q2/bin/../lib/gcc/arm-none-eabi/4.8.4/../../../../arm-none-eabi/lib/armv7e-m/libc.a(lib_a-ctype_.o)
                                                  /nfs/nfs5/home/research/hardware/arm2/gcc-arm-embedded/gcc-arm-none-eabi-4_8-2014q2/bin/../lib/gcc/arm-none-eabi/4.8.4/../../../../arm-none-eabi/lib/armv7e-m/libc.a(lib_a-strtol.o)
__d2b                                             /nfs/nfs5/home/research/hardware/arm2/gcc-arm-embedded/gcc-arm-none-eabi-4_8-2014q2/bin/../lib/gcc/arm-none-eabi/4.8.4/../../../../arm-none-eabi/lib/armv7e-m/libc.a(lib_a-mprec.o)
                                                  /nfs/nfs5/home/research/hardware/arm2/gcc-arm-embedded/gcc-arm-none-eabi-4_8-2014q2/bin/../lib/gcc/arm-none-eabi/4.8.4/../../../../arm-none-eabi/lib/armv7e-m/libc.a(lib_a-dtoa.o)
__default_exit                                    build/obj/crt1.o
                                                  build/obj/crt0_v7m.o
__divdf3                                          /nfs/nfs5/home/research/hardware/arm2/gcc-arm-embedded/gcc-arm-none-eabi-4_8-2014q2/bin/../lib/gcc/arm-none-eabi/4.8.4/armv7e-m/libgcc.a(_arm_muldivdf3.o)
__divdi3                                          /nfs/nfs5/home/research/hardware/arm2/gcc-arm-embedded/gcc-arm-none-eabi-4_8-2014q2/bin/../lib/gcc/arm-none-eabi/4.8.4/armv7e-m/libgcc.a(_divdi3.o)
                                                  /nfs/nfs5/home/research/hardware/arm2/gcc-arm-embedded/gcc-arm-none-eabi-4_8-2014q2/bin/../lib/gcc/arm-none-eabi/4.8.4/armv7e-m/libgcc.a(bpabi.o)
__divsf3                                          /nfs/nfs5/home/research/hardware/arm2/gcc-arm-embedded/gcc-arm-none-eabi-4_8-2014q2/bin/../lib/gcc/arm-none-eabi/4.8.4/armv7e-m/libgcc.a(_arm_muldivsf3.o)
__early_init                                      build/obj/board.o
                                                  build/obj/crt1.o
                                                  build/obj/crt0_v7m.o
__eqdf2                                           /nfs/nfs5/home/research/hardware/arm2/gcc-arm-embedded/gcc-arm-none-eabi-4_8-2014q2/bin/../lib/gcc/arm-none-eabi/4.8.4/armv7e-m/libgcc.a(_arm_cmpdf2.o)
__eqsf2                                           /nfs/nfs5/home/research/hardware/arm2/gcc-arm-embedded/gcc-arm-none-eabi-4_8-2014q2/bin/../lib/gcc/arm-none-eabi/4.8.4/armv7e-m/libgcc.a(_arm_cmpsf2.o)
__errno                                           /nfs/nfs5/home/research/hardware/arm2/gcc-arm-embedded/gcc-arm-none-eabi-4_8-2014q2/bin/../lib/gcc/arm-none-eabi/4.8.4/../../../../arm-none-eabi/lib/armv7e-m/libg.a(lib_a-errno.o)
                                                  /nfs/nfs5/home/research/hardware/arm2/gcc-arm-embedded/gcc-arm-none-eabi-4_8-2014q2/bin/../lib/gcc/arm-none-eabi/4.8.4/../../../../arm-none-eabi/lib/armv7e-m/libm.a(lib_a-wf_log10.o)
__extendsfdf2                                     /nfs/nfs5/home/research/hardware/arm2/gcc-arm-embedded/gcc-arm-none-eabi-4_8-2014q2/bin/../lib/gcc/arm-none-eabi/4.8.4/armv7e-m/libgcc.a(_arm_addsubdf3.o)
__fdlib_version                                   /nfs/nfs5/home/research/hardware/arm2/gcc-arm-embedded/gcc-arm-none-eabi-4_8-2014q2/bin/../lib/gcc/arm-none-eabi/4.8.4/../../../../arm-none-eabi/lib/armv7e-m/libm.a(lib_a-s_lib_ver.o)
                                                  /nfs/nfs5/home/research/hardware/arm2/gcc-arm-embedded/gcc-arm-none-eabi-4_8-2014q2/bin/../lib/gcc/arm-none-eabi/4.8.4/../../../../arm-none-eabi/lib/armv7e-m/libm.a(lib_a-wf_log10.o)
__fini_array_end                                  build/obj/crt0_v7m.o
__fini_array_start                                build/obj/crt0_v7m.o
__fixdfsi                                         /nfs/nfs5/home/research/hardware/arm2/gcc-arm-embedded/gcc-arm-none-eabi-4_8-2014q2/bin/../lib/gcc/arm-none-eabi/4.8.4/armv7e-m/libgcc.a(_arm_fixdfsi.o)
__fixsfsi                                         /nfs/nfs5/home/research/hardware/arm2/gcc-arm-embedded/gcc-arm-none-eabi-4_8-2014q2/bin/../lib/gcc/arm-none-eabi/4.8.4/armv7e-m/libgcc.a(_arm_fixsfsi.o)
__fixunsdfsi                                      /nfs/nfs5/home/research/hardware/arm2/gcc-arm-embedded/gcc-arm-none-eabi-4_8-2014q2/bin/../lib/gcc/arm-none-eabi/4.8.4/armv7e-m/libgcc.a(_arm_fixunsdfsi.o)
__fixunssfsi                                      /nfs/nfs5/home/research/hardware/arm2/gcc-arm-embedded/gcc-arm-none-eabi-4_8-2014q2/bin/../lib/gcc/arm-none-eabi/4.8.4/armv7e-m/libgcc.a(_arm_fixunssfsi.o)
__floatdidf                                       /nfs/nfs5/home/research/hardware/arm2/gcc-arm-embedded/gcc-arm-none-eabi-4_8-2014q2/bin/../lib/gcc/arm-none-eabi/4.8.4/armv7e-m/libgcc.a(_arm_addsubdf3.o)
__floatdisf                                       /nfs/nfs5/home/research/hardware/arm2/gcc-arm-embedded/gcc-arm-none-eabi-4_8-2014q2/bin/../lib/gcc/arm-none-eabi/4.8.4/armv7e-m/libgcc.a(_arm_addsubsf3.o)
__floatsidf                                       /nfs/nfs5/home/research/hardware/arm2/gcc-arm-embedded/gcc-arm-none-eabi-4_8-2014q2/bin/../lib/gcc/arm-none-eabi/4.8.4/armv7e-m/libgcc.a(_arm_addsubdf3.o)
__floatsisf                                       /nfs/nfs5/home/research/hardware/arm2/gcc-arm-embedded/gcc-arm-none-eabi-4_8-2014q2/bin/../lib/gcc/arm-none-eabi/4.8.4/armv7e-m/libgcc.a(_arm_addsubsf3.o)
__floatundidf                                     /nfs/nfs5/home/research/hardware/arm2/gcc-arm-embedded/gcc-arm-none-eabi-4_8-2014q2/bin/../lib/gcc/arm-none-eabi/4.8.4/armv7e-m/libgcc.a(_arm_addsubdf3.o)
__floatundisf                                     /nfs/nfs5/home/research/hardware/arm2/gcc-arm-embedded/gcc-arm-none-eabi-4_8-2014q2/bin/../lib/gcc/arm-none-eabi/4.8.4/armv7e-m/libgcc.a(_arm_addsubsf3.o)
__floatunsidf                                     /nfs/nfs5/home/research/hardware/arm2/gcc-arm-embedded/gcc-arm-none-eabi-4_8-2014q2/bin/../lib/gcc/arm-none-eabi/4.8.4/armv7e-m/libgcc.a(_arm_addsubdf3.o)
__floatunsisf                                     /nfs/nfs5/home/research/hardware/arm2/gcc-arm-embedded/gcc-arm-none-eabi-4_8-2014q2/bin/../lib/gcc/arm-none-eabi/4.8.4/armv7e-m/libgcc.a(_arm_addsubsf3.o)
__fp_lock_all                                     /nfs/nfs5/home/research/hardware/arm2/gcc-arm-embedded/gcc-arm-none-eabi-4_8-2014q2/bin/../lib/gcc/arm-none-eabi/4.8.4/../../../../arm-none-eabi/lib/armv7e-m/libc.a(lib_a-findfp.o)
__fp_unlock_all                                   /nfs/nfs5/home/research/hardware/arm2/gcc-arm-embedded/gcc-arm-none-eabi-4_8-2014q2/bin/../lib/gcc/arm-none-eabi/4.8.4/../../../../arm-none-eabi/lib/armv7e-m/libc.a(lib_a-findfp.o)
__fpclassifyd                                     /nfs/nfs5/home/research/hardware/arm2/gcc-arm-embedded/gcc-arm-none-eabi-4_8-2014q2/bin/../lib/gcc/arm-none-eabi/4.8.4/../../../../arm-none-eabi/lib/armv7e-m/libc.a(lib_a-s_fpclassify.o)
                                                  /nfs/nfs5/home/research/hardware/arm2/gcc-arm-embedded/gcc-arm-none-eabi-4_8-2014q2/bin/../lib/gcc/arm-none-eabi/4.8.4/../../../../arm-none-eabi/lib/armv7e-m/libc.a(lib_a-vfprintf.o)
                                                  /nfs/nfs5/home/research/hardware/arm2/gcc-arm-embedded/gcc-arm-none-eabi-4_8-2014q2/bin/../lib/gcc/arm-none-eabi/4.8.4/../../../../arm-none-eabi/lib/armv7e-m/libc.a(lib_a-svfprintf.o)
__fpclassifyf                                     /nfs/nfs5/home/research/hardware/arm2/gcc-arm-embedded/gcc-arm-none-eabi-4_8-2014q2/bin/../lib/gcc/arm-none-eabi/4.8.4/../../../../arm-none-eabi/lib/armv7e-m/libm.a(lib_a-sf_fpclassify.o)
                                                  /nfs/nfs5/home/research/hardware/arm2/gcc-arm-embedded/gcc-arm-none-eabi-4_8-2014q2/bin/../lib/gcc/arm-none-eabi/4.8.4/../../../../arm-none-eabi/lib/armv7e-m/libm.a(lib_a-wf_log10.o)
__gedf2                                           /nfs/nfs5/home/research/hardware/arm2/gcc-arm-embedded/gcc-arm-none-eabi-4_8-2014q2/bin/../lib/gcc/arm-none-eabi/4.8.4/armv7e-m/libgcc.a(_arm_cmpdf2.o)
__gesf2                                           /nfs/nfs5/home/research/hardware/arm2/gcc-arm-embedded/gcc-arm-none-eabi-4_8-2014q2/bin/../lib/gcc/arm-none-eabi/4.8.4/armv7e-m/libgcc.a(_arm_cmpsf2.o)
__gnu_ldivmod_helper                              /nfs/nfs5/home/research/hardware/arm2/gcc-arm-embedded/gcc-arm-none-eabi-4_8-2014q2/bin/../lib/gcc/arm-none-eabi/4.8.4/armv7e-m/libgcc.a(bpabi.o)
                                                  /nfs/nfs5/home/research/hardware/arm2/gcc-arm-embedded/gcc-arm-none-eabi-4_8-2014q2/bin/../lib/gcc/arm-none-eabi/4.8.4/armv7e-m/libgcc.a(_aeabi_ldivmod.o)
__gnu_uldivmod_helper                             /nfs/nfs5/home/research/hardware/arm2/gcc-arm-embedded/gcc-arm-none-eabi-4_8-2014q2/bin/../lib/gcc/arm-none-eabi/4.8.4/armv7e-m/libgcc.a(bpabi.o)
                                                  /nfs/nfs5/home/research/hardware/arm2/gcc-arm-embedded/gcc-arm-none-eabi-4_8-2014q2/bin/../lib/gcc/arm-none-eabi/4.8.4/armv7e-m/libgcc.a(_aeabi_uldivmod.o)
__gtdf2                                           /nfs/nfs5/home/research/hardware/arm2/gcc-arm-embedded/gcc-arm-none-eabi-4_8-2014q2/bin/../lib/gcc/arm-none-eabi/4.8.4/armv7e-m/libgcc.a(_arm_cmpdf2.o)
__gtsf2                                           /nfs/nfs5/home/research/hardware/arm2/gcc-arm-embedded/gcc-arm-none-eabi-4_8-2014q2/bin/../lib/gcc/arm-none-eabi/4.8.4/armv7e-m/libgcc.a(_arm_cmpsf2.o)
__heap_base__                                     build/obj/chmemcore.o
__heap_end__                                      build/obj/chmemcore.o
__hi0bits                                         /nfs/nfs5/home/research/hardware/arm2/gcc-arm-embedded/gcc-arm-none-eabi-4_8-2014q2/bin/../lib/gcc/arm-none-eabi/4.8.4/../../../../arm-none-eabi/lib/armv7e-m/libc.a(lib_a-mprec.o)
                                                  /nfs/nfs5/home/research/hardware/arm2/gcc-arm-embedded/gcc-arm-none-eabi-4_8-2014q2/bin/../lib/gcc/arm-none-eabi/4.8.4/../../../../arm-none-eabi/lib/armv7e-m/libc.a(lib_a-dtoa.o)
__i2b                                             /nfs/nfs5/home/research/hardware/arm2/gcc-arm-embedded/gcc-arm-none-eabi-4_8-2014q2/bin/../lib/gcc/arm-none-eabi/4.8.4/../../../../arm-none-eabi/lib/armv7e-m/libc.a(lib_a-mprec.o)
                                                  /nfs/nfs5/home/research/hardware/arm2/gcc-arm-embedded/gcc-arm-none-eabi-4_8-2014q2/bin/../lib/gcc/arm-none-eabi/4.8.4/../../../../arm-none-eabi/lib/armv7e-m/libc.a(lib_a-dtoa.o)
__ieee754_log10f                                  /nfs/nfs5/home/research/hardware/arm2/gcc-arm-embedded/gcc-arm-none-eabi-4_8-2014q2/bin/../lib/gcc/arm-none-eabi/4.8.4/../../../../arm-none-eabi/lib/armv7e-m/libm.a(lib_a-ef_log10.o)
                                                  /nfs/nfs5/home/research/hardware/arm2/gcc-arm-embedded/gcc-arm-none-eabi-4_8-2014q2/bin/../lib/gcc/arm-none-eabi/4.8.4/../../../../arm-none-eabi/lib/armv7e-m/libm.a(lib_a-wf_log10.o)
__ieee754_logf                                    /nfs/nfs5/home/research/hardware/arm2/gcc-arm-embedded/gcc-arm-none-eabi-4_8-2014q2/bin/../lib/gcc/arm-none-eabi/4.8.4/../../../../arm-none-eabi/lib/armv7e-m/libm.a(lib_a-ef_log.o)
                                                  /nfs/nfs5/home/research/hardware/arm2/gcc-arm-embedded/gcc-arm-none-eabi-4_8-2014q2/bin/../lib/gcc/arm-none-eabi/4.8.4/../../../../arm-none-eabi/lib/armv7e-m/libm.a(lib_a-ef_log10.o)
__init_array_end                                  build/obj/crt0_v7m.o
__init_array_start                                build/obj/crt0_v7m.o
__init_ram_areas                                  build/obj/crt1.o
                                                  build/obj/crt0_v7m.o
__late_init                                       build/obj/crt1.o
                                                  build/obj/crt0_v7m.o
__ledf2                                           /nfs/nfs5/home/research/hardware/arm2/gcc-arm-embedded/gcc-arm-none-eabi-4_8-2014q2/bin/../lib/gcc/arm-none-eabi/4.8.4/armv7e-m/libgcc.a(_arm_cmpdf2.o)
__lesf2                                           /nfs/nfs5/home/research/hardware/arm2/gcc-arm-embedded/gcc-arm-none-eabi-4_8-2014q2/bin/../lib/gcc/arm-none-eabi/4.8.4/armv7e-m/libgcc.a(_arm_cmpsf2.o)
__lo0bits                                         /nfs/nfs5/home/research/hardware/arm2/gcc-arm-embedded/gcc-arm-none-eabi-4_8-2014q2/bin/../lib/gcc/arm-none-eabi/4.8.4/../../../../arm-none-eabi/lib/armv7e-m/libc.a(lib_a-mprec.o)
__locale_charset                                  /nfs/nfs5/home/research/hardware/arm2/gcc-arm-embedded/gcc-arm-none-eabi-4_8-2014q2/bin/../lib/gcc/arm-none-eabi/4.8.4/../../../../arm-none-eabi/lib/armv7e-m/libc.a(lib_a-locale.o)
                                                  /nfs/nfs5/home/research/hardware/arm2/gcc-arm-embedded/gcc-arm-none-eabi-4_8-2014q2/bin/../lib/gcc/arm-none-eabi/4.8.4/../../../../arm-none-eabi/lib/armv7e-m/libc.a(lib_a-wctomb_r.o)
                                                  /nfs/nfs5/home/research/hardware/arm2/gcc-arm-embedded/gcc-arm-none-eabi-4_8-2014q2/bin/../lib/gcc/arm-none-eabi/4.8.4/../../../../arm-none-eabi/lib/armv7e-m/libc.a(lib_a-wcrtomb.o)
__locale_cjk_lang                                 /nfs/nfs5/home/research/hardware/arm2/gcc-arm-embedded/gcc-arm-none-eabi-4_8-2014q2/bin/../lib/gcc/arm-none-eabi/4.8.4/../../../../arm-none-eabi/lib/armv7e-m/libc.a(lib_a-locale.o)
__locale_mb_cur_max                               /nfs/nfs5/home/research/hardware/arm2/gcc-arm-embedded/gcc-arm-none-eabi-4_8-2014q2/bin/../lib/gcc/arm-none-eabi/4.8.4/../../../../arm-none-eabi/lib/armv7e-m/libc.a(lib_a-locale.o)
                                                  /nfs/nfs5/home/research/hardware/arm2/gcc-arm-embedded/gcc-arm-none-eabi-4_8-2014q2/bin/../lib/gcc/arm-none-eabi/4.8.4/../../../../arm-none-eabi/lib/armv7e-m/libc.a(lib_a-fputwc.o)
__locale_msgcharset                               /nfs/nfs5/home/research/hardware/arm2/gcc-arm-embedded/gcc-arm-none-eabi-4_8-2014q2/bin/../lib/gcc/arm-none-eabi/4.8.4/../../../../arm-none-eabi/lib/armv7e-m/libc.a(lib_a-locale.o)
__lshift                                          /nfs/nfs5/home/research/hardware/arm2/gcc-arm-embedded/gcc-arm-none-eabi-4_8-2014q2/bin/../lib/gcc/arm-none-eabi/4.8.4/../../../../arm-none-eabi/lib/armv7e-m/libc.a(lib_a-mprec.o)
                                                  /nfs/nfs5/home/research/hardware/arm2/gcc-arm-embedded/gcc-arm-none-eabi-4_8-2014q2/bin/../lib/gcc/arm-none-eabi/4.8.4/../../../../arm-none-eabi/lib/armv7e-m/libc.a(lib_a-dtoa.o)
__ltdf2                                           /nfs/nfs5/home/research/hardware/arm2/gcc-arm-embedded/gcc-arm-none-eabi-4_8-2014q2/bin/../lib/gcc/arm-none-eabi/4.8.4/armv7e-m/libgcc.a(_arm_cmpdf2.o)
__ltsf2                                           /nfs/nfs5/home/research/hardware/arm2/gcc-arm-embedded/gcc-arm-none-eabi-4_8-2014q2/bin/../lib/gcc/arm-none-eabi/4.8.4/armv7e-m/libgcc.a(_arm_cmpsf2.o)
__main_stack_base__                               build/obj/crt0_v7m.o
__main_stack_end__                                build/obj/vectors.o
                                                  build/obj/crt0_v7m.o
__malloc_av_                                      /nfs/nfs5/home/research/hardware/arm2/gcc-arm-embedded/gcc-arm-none-eabi-4_8-2014q2/bin/../lib/gcc/arm-none-eabi/4.8.4/../../../../arm-none-eabi/lib/armv7e-m/libc.a(lib_a-mallocr.o)
                                                  /nfs/nfs5/home/research/hardware/arm2/gcc-arm-embedded/gcc-arm-none-eabi-4_8-2014q2/bin/../lib/gcc/arm-none-eabi/4.8.4/../../../../arm-none-eabi/lib/armv7e-m/libc.a(lib_a-reallocr.o)
                                                  /nfs/nfs5/home/research/hardware/arm2/gcc-arm-embedded/gcc-arm-none-eabi-4_8-2014q2/bin/../lib/gcc/arm-none-eabi/4.8.4/../../../../arm-none-eabi/lib/armv7e-m/libc.a(lib_a-freer.o)
__malloc_current_mallinfo                         /nfs/nfs5/home/research/hardware/arm2/gcc-arm-embedded/gcc-arm-none-eabi-4_8-2014q2/bin/../lib/gcc/arm-none-eabi/4.8.4/../../../../arm-none-eabi/lib/armv7e-m/libc.a(lib_a-mallocr.o)
                                                  /nfs/nfs5/home/research/hardware/arm2/gcc-arm-embedded/gcc-arm-none-eabi-4_8-2014q2/bin/../lib/gcc/arm-none-eabi/4.8.4/../../../../arm-none-eabi/lib/armv7e-m/libc.a(lib_a-freer.o)
__malloc_lock                                     /nfs/nfs5/home/research/hardware/arm2/gcc-arm-embedded/gcc-arm-none-eabi-4_8-2014q2/bin/../lib/gcc/arm-none-eabi/4.8.4/../../../../arm-none-eabi/lib/armv7e-m/libc.a(lib_a-mlock.o)
                                                  /nfs/nfs5/home/research/hardware/arm2/gcc-arm-embedded/gcc-arm-none-eabi-4_8-2014q2/bin/../lib/gcc/arm-none-eabi/4.8.4/../../../../arm-none-eabi/lib/armv7e-m/libc.a(lib_a-reallocr.o)
                                                  /nfs/nfs5/home/research/hardware/arm2/gcc-arm-embedded/gcc-arm-none-eabi-4_8-2014q2/bin/../lib/gcc/arm-none-eabi/4.8.4/../../../../arm-none-eabi/lib/armv7e-m/libc.a(lib_a-freer.o)
                                                  /nfs/nfs5/home/research/hardware/arm2/gcc-arm-embedded/gcc-arm-none-eabi-4_8-2014q2/bin/../lib/gcc/arm-none-eabi/4.8.4/../../../../arm-none-eabi/lib/armv7e-m/libc.a(lib_a-mallocr.o)
__malloc_max_sbrked_mem                           /nfs/nfs5/home/research/hardware/arm2/gcc-arm-embedded/gcc-arm-none-eabi-4_8-2014q2/bin/../lib/gcc/arm-none-eabi/4.8.4/../../../../arm-none-eabi/lib/armv7e-m/libc.a(lib_a-mallocr.o)
__malloc_max_total_mem                            /nfs/nfs5/home/research/hardware/arm2/gcc-arm-embedded/gcc-arm-none-eabi-4_8-2014q2/bin/../lib/gcc/arm-none-eabi/4.8.4/../../../../arm-none-eabi/lib/armv7e-m/libc.a(lib_a-mallocr.o)
__malloc_sbrk_base                                /nfs/nfs5/home/research/hardware/arm2/gcc-arm-embedded/gcc-arm-none-eabi-4_8-2014q2/bin/../lib/gcc/arm-none-eabi/4.8.4/../../../../arm-none-eabi/lib/armv7e-m/libc.a(lib_a-mallocr.o)
                                                  /nfs/nfs5/home/research/hardware/arm2/gcc-arm-embedded/gcc-arm-none-eabi-4_8-2014q2/bin/../lib/gcc/arm-none-eabi/4.8.4/../../../../arm-none-eabi/lib/armv7e-m/libc.a(lib_a-freer.o)
__malloc_top_pad                                  /nfs/nfs5/home/research/hardware/arm2/gcc-arm-embedded/gcc-arm-none-eabi-4_8-2014q2/bin/../lib/gcc/arm-none-eabi/4.8.4/../../../../arm-none-eabi/lib/armv7e-m/libc.a(lib_a-mallocr.o)
                                                  /nfs/nfs5/home/research/hardware/arm2/gcc-arm-embedded/gcc-arm-none-eabi-4_8-2014q2/bin/../lib/gcc/arm-none-eabi/4.8.4/../../../../arm-none-eabi/lib/armv7e-m/libc.a(lib_a-freer.o)
__malloc_trim_threshold                           /nfs/nfs5/home/research/hardware/arm2/gcc-arm-embedded/gcc-arm-none-eabi-4_8-2014q2/bin/../lib/gcc/arm-none-eabi/4.8.4/../../../../arm-none-eabi/lib/armv7e-m/libc.a(lib_a-mallocr.o)
                                                  /nfs/nfs5/home/research/hardware/arm2/gcc-arm-embedded/gcc-arm-none-eabi-4_8-2014q2/bin/../lib/gcc/arm-none-eabi/4.8.4/../../../../arm-none-eabi/lib/armv7e-m/libc.a(lib_a-freer.o)
__malloc_unlock                                   /nfs/nfs5/home/research/hardware/arm2/gcc-arm-embedded/gcc-arm-none-eabi-4_8-2014q2/bin/../lib/gcc/arm-none-eabi/4.8.4/../../../../arm-none-eabi/lib/armv7e-m/libc.a(lib_a-mlock.o)
                                                  /nfs/nfs5/home/research/hardware/arm2/gcc-arm-embedded/gcc-arm-none-eabi-4_8-2014q2/bin/../lib/gcc/arm-none-eabi/4.8.4/../../../../arm-none-eabi/lib/armv7e-m/libc.a(lib_a-reallocr.o)
                                                  /nfs/nfs5/home/research/hardware/arm2/gcc-arm-embedded/gcc-arm-none-eabi-4_8-2014q2/bin/../lib/gcc/arm-none-eabi/4.8.4/../../../../arm-none-eabi/lib/armv7e-m/libc.a(lib_a-freer.o)
                                                  /nfs/nfs5/home/research/hardware/arm2/gcc-arm-embedded/gcc-arm-none-eabi-4_8-2014q2/bin/../lib/gcc/arm-none-eabi/4.8.4/../../../../arm-none-eabi/lib/armv7e-m/libc.a(lib_a-mallocr.o)
__mb_cur_max                                      /nfs/nfs5/home/research/hardware/arm2/gcc-arm-embedded/gcc-arm-none-eabi-4_8-2014q2/bin/../lib/gcc/arm-none-eabi/4.8.4/../../../../arm-none-eabi/lib/armv7e-m/libc.a(lib_a-locale.o)
__mcmp                                            /nfs/nfs5/home/research/hardware/arm2/gcc-arm-embedded/gcc-arm-none-eabi-4_8-2014q2/bin/../lib/gcc/arm-none-eabi/4.8.4/../../../../arm-none-eabi/lib/armv7e-m/libc.a(lib_a-mprec.o)
                                                  /nfs/nfs5/home/research/hardware/arm2/gcc-arm-embedded/gcc-arm-none-eabi-4_8-2014q2/bin/../lib/gcc/arm-none-eabi/4.8.4/../../../../arm-none-eabi/lib/armv7e-m/libc.a(lib_a-dtoa.o)
__mdiff                                           /nfs/nfs5/home/research/hardware/arm2/gcc-arm-embedded/gcc-arm-none-eabi-4_8-2014q2/bin/../lib/gcc/arm-none-eabi/4.8.4/../../../../arm-none-eabi/lib/armv7e-m/libc.a(lib_a-mprec.o)
                                                  /nfs/nfs5/home/research/hardware/arm2/gcc-arm-embedded/gcc-arm-none-eabi-4_8-2014q2/bin/../lib/gcc/arm-none-eabi/4.8.4/../../../../arm-none-eabi/lib/armv7e-m/libc.a(lib_a-dtoa.o)
__mlocale_changed                                 /nfs/nfs5/home/research/hardware/arm2/gcc-arm-embedded/gcc-arm-none-eabi-4_8-2014q2/bin/../lib/gcc/arm-none-eabi/4.8.4/../../../../arm-none-eabi/lib/armv7e-m/libc.a(lib_a-locale.o)
__mprec_bigtens                                   /nfs/nfs5/home/research/hardware/arm2/gcc-arm-embedded/gcc-arm-none-eabi-4_8-2014q2/bin/../lib/gcc/arm-none-eabi/4.8.4/../../../../arm-none-eabi/lib/armv7e-m/libc.a(lib_a-mprec.o)
                                                  /nfs/nfs5/home/research/hardware/arm2/gcc-arm-embedded/gcc-arm-none-eabi-4_8-2014q2/bin/../lib/gcc/arm-none-eabi/4.8.4/../../../../arm-none-eabi/lib/armv7e-m/libc.a(lib_a-dtoa.o)
__mprec_tens                                      /nfs/nfs5/home/research/hardware/arm2/gcc-arm-embedded/gcc-arm-none-eabi-4_8-2014q2/bin/../lib/gcc/arm-none-eabi/4.8.4/../../../../arm-none-eabi/lib/armv7e-m/libc.a(lib_a-mprec.o)
                                                  /nfs/nfs5/home/research/hardware/arm2/gcc-arm-embedded/gcc-arm-none-eabi-4_8-2014q2/bin/../lib/gcc/arm-none-eabi/4.8.4/../../../../arm-none-eabi/lib/armv7e-m/libc.a(lib_a-dtoa.o)
__mprec_tinytens                                  /nfs/nfs5/home/research/hardware/arm2/gcc-arm-embedded/gcc-arm-none-eabi-4_8-2014q2/bin/../lib/gcc/arm-none-eabi/4.8.4/../../../../arm-none-eabi/lib/armv7e-m/libc.a(lib_a-mprec.o)
__muldf3                                          /nfs/nfs5/home/research/hardware/arm2/gcc-arm-embedded/gcc-arm-none-eabi-4_8-2014q2/bin/../lib/gcc/arm-none-eabi/4.8.4/armv7e-m/libgcc.a(_arm_muldivdf3.o)
__mulsf3                                          /nfs/nfs5/home/research/hardware/arm2/gcc-arm-embedded/gcc-arm-none-eabi-4_8-2014q2/bin/../lib/gcc/arm-none-eabi/4.8.4/armv7e-m/libgcc.a(_arm_muldivsf3.o)
__multadd                                         /nfs/nfs5/home/research/hardware/arm2/gcc-arm-embedded/gcc-arm-none-eabi-4_8-2014q2/bin/../lib/gcc/arm-none-eabi/4.8.4/../../../../arm-none-eabi/lib/armv7e-m/libc.a(lib_a-mprec.o)
                                                  /nfs/nfs5/home/research/hardware/arm2/gcc-arm-embedded/gcc-arm-none-eabi-4_8-2014q2/bin/../lib/gcc/arm-none-eabi/4.8.4/../../../../arm-none-eabi/lib/armv7e-m/libc.a(lib_a-dtoa.o)
__multiply                                        /nfs/nfs5/home/research/hardware/arm2/gcc-arm-embedded/gcc-arm-none-eabi-4_8-2014q2/bin/../lib/gcc/arm-none-eabi/4.8.4/../../../../arm-none-eabi/lib/armv7e-m/libc.a(lib_a-mprec.o)
                                                  /nfs/nfs5/home/research/hardware/arm2/gcc-arm-embedded/gcc-arm-none-eabi-4_8-2014q2/bin/../lib/gcc/arm-none-eabi/4.8.4/../../../../arm-none-eabi/lib/armv7e-m/libc.a(lib_a-dtoa.o)
__nedf2                                           /nfs/nfs5/home/research/hardware/arm2/gcc-arm-embedded/gcc-arm-none-eabi-4_8-2014q2/bin/../lib/gcc/arm-none-eabi/4.8.4/armv7e-m/libgcc.a(_arm_cmpdf2.o)
__nesf2                                           /nfs/nfs5/home/research/hardware/arm2/gcc-arm-embedded/gcc-arm-none-eabi-4_8-2014q2/bin/../lib/gcc/arm-none-eabi/4.8.4/armv7e-m/libgcc.a(_arm_cmpsf2.o)
__nlocale_changed                                 /nfs/nfs5/home/research/hardware/arm2/gcc-arm-embedded/gcc-arm-none-eabi-4_8-2014q2/bin/../lib/gcc/arm-none-eabi/4.8.4/../../../../arm-none-eabi/lib/armv7e-m/libc.a(lib_a-locale.o)
__pow5mult                                        /nfs/nfs5/home/research/hardware/arm2/gcc-arm-embedded/gcc-arm-none-eabi-4_8-2014q2/bin/../lib/gcc/arm-none-eabi/4.8.4/../../../../arm-none-eabi/lib/armv7e-m/libc.a(lib_a-mprec.o)
                                                  /nfs/nfs5/home/research/hardware/arm2/gcc-arm-embedded/gcc-arm-none-eabi-4_8-2014q2/bin/../lib/gcc/arm-none-eabi/4.8.4/../../../../arm-none-eabi/lib/armv7e-m/libc.a(lib_a-dtoa.o)
__process_stack_base__                            build/obj/crt0_v7m.o
__process_stack_end__                             build/obj/crt0_v7m.o
__ram0_clear__                                    build/obj/crt1.o
__ram0_init__                                     build/obj/crt1.o
__ram0_init_text__                                build/obj/crt1.o
__ram0_noinit__                                   build/obj/crt1.o
__ram1_clear__                                    build/obj/crt1.o
__ram1_init__                                     build/obj/crt1.o
__ram1_init_text__                                build/obj/crt1.o
__ram1_noinit__                                   build/obj/crt1.o
__ram2_clear__                                    build/obj/crt1.o
__ram2_init__                                     build/obj/crt1.o
__ram2_init_text__                                build/obj/crt1.o
__ram2_noinit__                                   build/obj/crt1.o
__ram3_clear__                                    build/obj/crt1.o
__ram3_init__                                     build/obj/crt1.o
__ram3_init_text__                                build/obj/crt1.o
__ram3_noinit__                                   build/obj/crt1.o
__ram4_clear__                                    build/obj/crt1.o
__ram4_init__                                     build/obj/crt1.o
__ram4_init_text__                                build/obj/crt1.o
__ram4_noinit__                                   build/obj/crt1.o
__ram5_clear__                                    build/obj/crt1.o
__ram5_init__                                     build/obj/crt1.o
__ram5_init_text__                                build/obj/crt1.o
__ram5_noinit__                                   build/obj/crt1.o
__ram6_clear__                                    build/obj/crt1.o
__ram6_init__                                     build/obj/crt1.o
__ram6_init_text__                                build/obj/crt1.o
__ram6_noinit__                                   build/obj/crt1.o
__ram7_clear__                                    build/obj/crt1.o
__ram7_init__                                     build/obj/crt1.o
__ram7_init_text__                                build/obj/crt1.o
__ram7_noinit__                                   build/obj/crt1.o
__ratio                                           /nfs/nfs5/home/research/hardware/arm2/gcc-arm-embedded/gcc-arm-none-eabi-4_8-2014q2/bin/../lib/gcc/arm-none-eabi/4.8.4/../../../../arm-none-eabi/lib/armv7e-m/libc.a(lib_a-mprec.o)
__s2b                                             /nfs/nfs5/home/research/hardware/arm2/gcc-arm-embedded/gcc-arm-none-eabi-4_8-2014q2/bin/../lib/gcc/arm-none-eabi/4.8.4/../../../../arm-none-eabi/lib/armv7e-m/libc.a(lib_a-mprec.o)
__sclose                                          /nfs/nfs5/home/research/hardware/arm2/gcc-arm-embedded/gcc-arm-none-eabi-4_8-2014q2/bin/../lib/gcc/arm-none-eabi/4.8.4/../../../../arm-none-eabi/lib/armv7e-m/libc.a(lib_a-stdio.o)
                                                  /nfs/nfs5/home/research/hardware/arm2/gcc-arm-embedded/gcc-arm-none-eabi-4_8-2014q2/bin/../lib/gcc/arm-none-eabi/4.8.4/../../../../arm-none-eabi/lib/armv7e-m/libc.a(lib_a-findfp.o)
__seofread                                        /nfs/nfs5/home/research/hardware/arm2/gcc-arm-embedded/gcc-arm-none-eabi-4_8-2014q2/bin/../lib/gcc/arm-none-eabi/4.8.4/../../../../arm-none-eabi/lib/armv7e-m/libc.a(lib_a-stdio.o)
__sflush_r                                        /nfs/nfs5/home/research/hardware/arm2/gcc-arm-embedded/gcc-arm-none-eabi-4_8-2014q2/bin/../lib/gcc/arm-none-eabi/4.8.4/../../../../arm-none-eabi/lib/armv7e-m/libc.a(lib_a-fflush.o)
__sfmoreglue                                      /nfs/nfs5/home/research/hardware/arm2/gcc-arm-embedded/gcc-arm-none-eabi-4_8-2014q2/bin/../lib/gcc/arm-none-eabi/4.8.4/../../../../arm-none-eabi/lib/armv7e-m/libc.a(lib_a-findfp.o)
__sfp                                             /nfs/nfs5/home/research/hardware/arm2/gcc-arm-embedded/gcc-arm-none-eabi-4_8-2014q2/bin/../lib/gcc/arm-none-eabi/4.8.4/../../../../arm-none-eabi/lib/armv7e-m/libc.a(lib_a-findfp.o)
__sfp_lock_acquire                                /nfs/nfs5/home/research/hardware/arm2/gcc-arm-embedded/gcc-arm-none-eabi-4_8-2014q2/bin/../lib/gcc/arm-none-eabi/4.8.4/../../../../arm-none-eabi/lib/armv7e-m/libc.a(lib_a-findfp.o)
                                                  /nfs/nfs5/home/research/hardware/arm2/gcc-arm-embedded/gcc-arm-none-eabi-4_8-2014q2/bin/../lib/gcc/arm-none-eabi/4.8.4/../../../../arm-none-eabi/lib/armv7e-m/libc.a(lib_a-fclose.o)
__sfp_lock_release                                /nfs/nfs5/home/research/hardware/arm2/gcc-arm-embedded/gcc-arm-none-eabi-4_8-2014q2/bin/../lib/gcc/arm-none-eabi/4.8.4/../../../../arm-none-eabi/lib/armv7e-m/libc.a(lib_a-findfp.o)
                                                  /nfs/nfs5/home/research/hardware/arm2/gcc-arm-embedded/gcc-arm-none-eabi-4_8-2014q2/bin/../lib/gcc/arm-none-eabi/4.8.4/../../../../arm-none-eabi/lib/armv7e-m/libc.a(lib_a-fclose.o)
__sfvwrite_r                                      /nfs/nfs5/home/research/hardware/arm2/gcc-arm-embedded/gcc-arm-none-eabi-4_8-2014q2/bin/../lib/gcc/arm-none-eabi/4.8.4/../../../../arm-none-eabi/lib/armv7e-m/libc.a(lib_a-fvwrite.o)
                                                  /nfs/nfs5/home/research/hardware/arm2/gcc-arm-embedded/gcc-arm-none-eabi-4_8-2014q2/bin/../lib/gcc/arm-none-eabi/4.8.4/../../../../arm-none-eabi/lib/armv7e-m/libc.a(lib_a-vfiprintf.o)
__sinit                                           /nfs/nfs5/home/research/hardware/arm2/gcc-arm-embedded/gcc-arm-none-eabi-4_8-2014q2/bin/../lib/gcc/arm-none-eabi/4.8.4/../../../../arm-none-eabi/lib/armv7e-m/libc.a(lib_a-findfp.o)
                                                  /nfs/nfs5/home/research/hardware/arm2/gcc-arm-embedded/gcc-arm-none-eabi-4_8-2014q2/bin/../lib/gcc/arm-none-eabi/4.8.4/../../../../arm-none-eabi/lib/armv7e-m/libc.a(lib_a-wbuf.o)
                                                  /nfs/nfs5/home/research/hardware/arm2/gcc-arm-embedded/gcc-arm-none-eabi-4_8-2014q2/bin/../lib/gcc/arm-none-eabi/4.8.4/../../../../arm-none-eabi/lib/armv7e-m/libc.a(lib_a-fputwc.o)
                                                  /nfs/nfs5/home/research/hardware/arm2/gcc-arm-embedded/gcc-arm-none-eabi-4_8-2014q2/bin/../lib/gcc/arm-none-eabi/4.8.4/../../../../arm-none-eabi/lib/armv7e-m/libc.a(lib_a-fclose.o)
                                                  /nfs/nfs5/home/research/hardware/arm2/gcc-arm-embedded/gcc-arm-none-eabi-4_8-2014q2/bin/../lib/gcc/arm-none-eabi/4.8.4/../../../../arm-none-eabi/lib/armv7e-m/libc.a(lib_a-vfiprintf.o)
                                                  /nfs/nfs5/home/research/hardware/arm2/gcc-arm-embedded/gcc-arm-none-eabi-4_8-2014q2/bin/../lib/gcc/arm-none-eabi/4.8.4/../../../../arm-none-eabi/lib/armv7e-m/libc.a(lib_a-fflush.o)
                                                  /nfs/nfs5/home/research/hardware/arm2/gcc-arm-embedded/gcc-arm-none-eabi-4_8-2014q2/bin/../lib/gcc/arm-none-eabi/4.8.4/../../../../arm-none-eabi/lib/armv7e-m/libc.a(lib_a-wsetup.o)
                                                  /nfs/nfs5/home/research/hardware/arm2/gcc-arm-embedded/gcc-arm-none-eabi-4_8-2014q2/bin/../lib/gcc/arm-none-eabi/4.8.4/../../../../arm-none-eabi/lib/armv7e-m/libc.a(lib_a-vfprintf.o)
__sinit_lock_acquire                              /nfs/nfs5/home/research/hardware/arm2/gcc-arm-embedded/gcc-arm-none-eabi-4_8-2014q2/bin/../lib/gcc/arm-none-eabi/4.8.4/../../../../arm-none-eabi/lib/armv7e-m/libc.a(lib_a-findfp.o)
__sinit_lock_release                              /nfs/nfs5/home/research/hardware/arm2/gcc-arm-embedded/gcc-arm-none-eabi-4_8-2014q2/bin/../lib/gcc/arm-none-eabi/4.8.4/../../../../arm-none-eabi/lib/armv7e-m/libc.a(lib_a-findfp.o)
__smakebuf_r                                      /nfs/nfs5/home/research/hardware/arm2/gcc-arm-embedded/gcc-arm-none-eabi-4_8-2014q2/bin/../lib/gcc/arm-none-eabi/4.8.4/../../../../arm-none-eabi/lib/armv7e-m/libc.a(lib_a-makebuf.o)
                                                  /nfs/nfs5/home/research/hardware/arm2/gcc-arm-embedded/gcc-arm-none-eabi-4_8-2014q2/bin/../lib/gcc/arm-none-eabi/4.8.4/../../../../arm-none-eabi/lib/armv7e-m/libc.a(lib_a-wsetup.o)
__sprint_r                                        /nfs/nfs5/home/research/hardware/arm2/gcc-arm-embedded/gcc-arm-none-eabi-4_8-2014q2/bin/../lib/gcc/arm-none-eabi/4.8.4/../../../../arm-none-eabi/lib/armv7e-m/libc.a(lib_a-vfiprintf.o)
                                                  /nfs/nfs5/home/research/hardware/arm2/gcc-arm-embedded/gcc-arm-none-eabi-4_8-2014q2/bin/../lib/gcc/arm-none-eabi/4.8.4/../../../../arm-none-eabi/lib/armv7e-m/libc.a(lib_a-vfprintf.o)
__sread                                           /nfs/nfs5/home/research/hardware/arm2/gcc-arm-embedded/gcc-arm-none-eabi-4_8-2014q2/bin/../lib/gcc/arm-none-eabi/4.8.4/../../../../arm-none-eabi/lib/armv7e-m/libc.a(lib_a-stdio.o)
                                                  /nfs/nfs5/home/research/hardware/arm2/gcc-arm-embedded/gcc-arm-none-eabi-4_8-2014q2/bin/../lib/gcc/arm-none-eabi/4.8.4/../../../../arm-none-eabi/lib/armv7e-m/libc.a(lib_a-findfp.o)
__sseek                                           /nfs/nfs5/home/research/hardware/arm2/gcc-arm-embedded/gcc-arm-none-eabi-4_8-2014q2/bin/../lib/gcc/arm-none-eabi/4.8.4/../../../../arm-none-eabi/lib/armv7e-m/libc.a(lib_a-stdio.o)
                                                  /nfs/nfs5/home/research/hardware/arm2/gcc-arm-embedded/gcc-arm-none-eabi-4_8-2014q2/bin/../lib/gcc/arm-none-eabi/4.8.4/../../../../arm-none-eabi/lib/armv7e-m/libc.a(lib_a-makebuf.o)
                                                  /nfs/nfs5/home/research/hardware/arm2/gcc-arm-embedded/gcc-arm-none-eabi-4_8-2014q2/bin/../lib/gcc/arm-none-eabi/4.8.4/../../../../arm-none-eabi/lib/armv7e-m/libc.a(lib_a-findfp.o)
__ssprint_r                                       /nfs/nfs5/home/research/hardware/arm2/gcc-arm-embedded/gcc-arm-none-eabi-4_8-2014q2/bin/../lib/gcc/arm-none-eabi/4.8.4/../../../../arm-none-eabi/lib/armv7e-m/libc.a(lib_a-svfiprintf.o)
                                                  /nfs/nfs5/home/research/hardware/arm2/gcc-arm-embedded/gcc-arm-none-eabi-4_8-2014q2/bin/../lib/gcc/arm-none-eabi/4.8.4/../../../../arm-none-eabi/lib/armv7e-m/libc.a(lib_a-svfprintf.o)
__subdf3                                          /nfs/nfs5/home/research/hardware/arm2/gcc-arm-embedded/gcc-arm-none-eabi-4_8-2014q2/bin/../lib/gcc/arm-none-eabi/4.8.4/armv7e-m/libgcc.a(_arm_addsubdf3.o)
__subsf3                                          /nfs/nfs5/home/research/hardware/arm2/gcc-arm-embedded/gcc-arm-none-eabi-4_8-2014q2/bin/../lib/gcc/arm-none-eabi/4.8.4/armv7e-m/libgcc.a(_arm_addsubsf3.o)
__swbuf                                           /nfs/nfs5/home/research/hardware/arm2/gcc-arm-embedded/gcc-arm-none-eabi-4_8-2014q2/bin/../lib/gcc/arm-none-eabi/4.8.4/../../../../arm-none-eabi/lib/armv7e-m/libc.a(lib_a-wbuf.o)
__swbuf_r                                         /nfs/nfs5/home/research/hardware/arm2/gcc-arm-embedded/gcc-arm-none-eabi-4_8-2014q2/bin/../lib/gcc/arm-none-eabi/4.8.4/../../../../arm-none-eabi/lib/armv7e-m/libc.a(lib_a-wbuf.o)
                                                  /nfs/nfs5/home/research/hardware/arm2/gcc-arm-embedded/gcc-arm-none-eabi-4_8-2014q2/bin/../lib/gcc/arm-none-eabi/4.8.4/../../../../arm-none-eabi/lib/armv7e-m/libc.a(lib_a-fputwc.o)
__swrite                                          /nfs/nfs5/home/research/hardware/arm2/gcc-arm-embedded/gcc-arm-none-eabi-4_8-2014q2/bin/../lib/gcc/arm-none-eabi/4.8.4/../../../../arm-none-eabi/lib/armv7e-m/libc.a(lib_a-stdio.o)
                                                  /nfs/nfs5/home/research/hardware/arm2/gcc-arm-embedded/gcc-arm-none-eabi-4_8-2014q2/bin/../lib/gcc/arm-none-eabi/4.8.4/../../../../arm-none-eabi/lib/armv7e-m/libc.a(lib_a-findfp.o)
__swsetup_r                                       /nfs/nfs5/home/research/hardware/arm2/gcc-arm-embedded/gcc-arm-none-eabi-4_8-2014q2/bin/../lib/gcc/arm-none-eabi/4.8.4/../../../../arm-none-eabi/lib/armv7e-m/libc.a(lib_a-wsetup.o)
                                                  /nfs/nfs5/home/research/hardware/arm2/gcc-arm-embedded/gcc-arm-none-eabi-4_8-2014q2/bin/../lib/gcc/arm-none-eabi/4.8.4/../../../../arm-none-eabi/lib/armv7e-m/libc.a(lib_a-wbuf.o)
                                                  /nfs/nfs5/home/research/hardware/arm2/gcc-arm-embedded/gcc-arm-none-eabi-4_8-2014q2/bin/../lib/gcc/arm-none-eabi/4.8.4/../../../../arm-none-eabi/lib/armv7e-m/libc.a(lib_a-fvwrite.o)
                                                  /nfs/nfs5/home/research/hardware/arm2/gcc-arm-embedded/gcc-arm-none-eabi-4_8-2014q2/bin/../lib/gcc/arm-none-eabi/4.8.4/../../../../arm-none-eabi/lib/armv7e-m/libc.a(lib_a-vfiprintf.o)
                                                  /nfs/nfs5/home/research/hardware/arm2/gcc-arm-embedded/gcc-arm-none-eabi-4_8-2014q2/bin/../lib/gcc/arm-none-eabi/4.8.4/../../../../arm-none-eabi/lib/armv7e-m/libc.a(lib_a-vfprintf.o)
__truncdfsf2                                      /nfs/nfs5/home/research/hardware/arm2/gcc-arm-embedded/gcc-arm-none-eabi-4_8-2014q2/bin/../lib/gcc/arm-none-eabi/4.8.4/armv7e-m/libgcc.a(_arm_truncdfsf2.o)
__udivdi3                                         /nfs/nfs5/home/research/hardware/arm2/gcc-arm-embedded/gcc-arm-none-eabi-4_8-2014q2/bin/../lib/gcc/arm-none-eabi/4.8.4/armv7e-m/libgcc.a(_udivdi3.o)
                                                  /nfs/nfs5/home/research/hardware/arm2/gcc-arm-embedded/gcc-arm-none-eabi-4_8-2014q2/bin/../lib/gcc/arm-none-eabi/4.8.4/armv7e-m/libgcc.a(bpabi.o)
__ulp                                             /nfs/nfs5/home/research/hardware/arm2/gcc-arm-embedded/gcc-arm-none-eabi-4_8-2014q2/bin/../lib/gcc/arm-none-eabi/4.8.4/../../../../arm-none-eabi/lib/armv7e-m/libc.a(lib_a-mprec.o)
__wctomb                                          /nfs/nfs5/home/research/hardware/arm2/gcc-arm-embedded/gcc-arm-none-eabi-4_8-2014q2/bin/../lib/gcc/arm-none-eabi/4.8.4/../../../../arm-none-eabi/lib/armv7e-m/libc.a(lib_a-wctomb_r.o)
                                                  /nfs/nfs5/home/research/hardware/arm2/gcc-arm-embedded/gcc-arm-none-eabi-4_8-2014q2/bin/../lib/gcc/arm-none-eabi/4.8.4/../../../../arm-none-eabi/lib/armv7e-m/libc.a(lib_a-wcrtomb.o)
_atoi_r                                           /nfs/nfs5/home/research/hardware/arm2/gcc-arm-embedded/gcc-arm-none-eabi-4_8-2014q2/bin/../lib/gcc/arm-none-eabi/4.8.4/../../../../arm-none-eabi/lib/armv7e-m/libc.a(lib_a-atoi.o)
_bss_end                                          build/obj/crt0_v7m.o
_bss_start                                        build/obj/crt0_v7m.o
_calloc_r                                         /nfs/nfs5/home/research/hardware/arm2/gcc-arm-embedded/gcc-arm-none-eabi-4_8-2014q2/bin/../lib/gcc/arm-none-eabi/4.8.4/../../../../arm-none-eabi/lib/armv7e-m/libc.a(lib_a-callocr.o)
                                                  /nfs/nfs5/home/research/hardware/arm2/gcc-arm-embedded/gcc-arm-none-eabi-4_8-2014q2/bin/../lib/gcc/arm-none-eabi/4.8.4/../../../../arm-none-eabi/lib/armv7e-m/libc.a(lib_a-mprec.o)
_cleanup                                          /nfs/nfs5/home/research/hardware/arm2/gcc-arm-embedded/gcc-arm-none-eabi-4_8-2014q2/bin/../lib/gcc/arm-none-eabi/4.8.4/../../../../arm-none-eabi/lib/armv7e-m/libc.a(lib_a-findfp.o)
_cleanup_r                                        /nfs/nfs5/home/research/hardware/arm2/gcc-arm-embedded/gcc-arm-none-eabi-4_8-2014q2/bin/../lib/gcc/arm-none-eabi/4.8.4/../../../../arm-none-eabi/lib/armv7e-m/libc.a(lib_a-findfp.o)
                                                  /nfs/nfs5/home/research/hardware/arm2/gcc-arm-embedded/gcc-arm-none-eabi-4_8-2014q2/bin/../lib/gcc/arm-none-eabi/4.8.4/../../../../arm-none-eabi/lib/armv7e-m/libc.a(lib_a-makebuf.o)
_close                                            /nfs/nfs5/home/research/hardware/arm2/gcc-arm-embedded/gcc-arm-none-eabi-4_8-2014q2/bin/../lib/gcc/arm-none-eabi/4.8.4/../../../../arm-none-eabi/lib/armv7e-m/libc.a(lib_a-closer.o)
_close_r                                          /nfs/nfs5/home/research/hardware/arm2/gcc-arm-embedded/gcc-arm-none-eabi-4_8-2014q2/bin/../lib/gcc/arm-none-eabi/4.8.4/../../../../arm-none-eabi/lib/armv7e-m/libc.a(lib_a-closer.o)
                                                  /nfs/nfs5/home/research/hardware/arm2/gcc-arm-embedded/gcc-arm-none-eabi-4_8-2014q2/bin/../lib/gcc/arm-none-eabi/4.8.4/../../../../arm-none-eabi/lib/armv7e-m/libc.a(lib_a-stdio.o)
_core_init                                        build/obj/chmemcore.o
                                                  build/obj/chsys.o
_ctype_                                           /nfs/nfs5/home/research/hardware/arm2/gcc-arm-embedded/gcc-arm-none-eabi-4_8-2014q2/bin/../lib/gcc/arm-none-eabi/4.8.4/../../../../arm-none-eabi/lib/armv7e-m/libc.a(lib_a-ctype_.o)
_data_end                                         build/obj/crt0_v7m.o
_data_start                                       build/obj/crt0_v7m.o
_dtoa_r                                           /nfs/nfs5/home/research/hardware/arm2/gcc-arm-embedded/gcc-arm-none-eabi-4_8-2014q2/bin/../lib/gcc/arm-none-eabi/4.8.4/../../../../arm-none-eabi/lib/armv7e-m/libc.a(lib_a-dtoa.o)
                                                  /nfs/nfs5/home/research/hardware/arm2/gcc-arm-embedded/gcc-arm-none-eabi-4_8-2014q2/bin/../lib/gcc/arm-none-eabi/4.8.4/../../../../arm-none-eabi/lib/armv7e-m/libc.a(lib_a-vfprintf.o)
                                                  /nfs/nfs5/home/research/hardware/arm2/gcc-arm-embedded/gcc-arm-none-eabi-4_8-2014q2/bin/../lib/gcc/arm-none-eabi/4.8.4/../../../../arm-none-eabi/lib/armv7e-m/libc.a(lib_a-svfprintf.o)
_fclose_r                                         /nfs/nfs5/home/research/hardware/arm2/gcc-arm-embedded/gcc-arm-none-eabi-4_8-2014q2/bin/../lib/gcc/arm-none-eabi/4.8.4/../../../../arm-none-eabi/lib/armv7e-m/libc.a(lib_a-fclose.o)
_fflush_r                                         /nfs/nfs5/home/research/hardware/arm2/gcc-arm-embedded/gcc-arm-none-eabi-4_8-2014q2/bin/../lib/gcc/arm-none-eabi/4.8.4/../../../../arm-none-eabi/lib/armv7e-m/libc.a(lib_a-fflush.o)
                                                  /nfs/nfs5/home/research/hardware/arm2/gcc-arm-embedded/gcc-arm-none-eabi-4_8-2014q2/bin/../lib/gcc/arm-none-eabi/4.8.4/../../../../arm-none-eabi/lib/armv7e-m/libc.a(lib_a-wbuf.o)
                                                  /nfs/nfs5/home/research/hardware/arm2/gcc-arm-embedded/gcc-arm-none-eabi-4_8-2014q2/bin/../lib/gcc/arm-none-eabi/4.8.4/../../../../arm-none-eabi/lib/armv7e-m/libc.a(lib_a-fvwrite.o)
                                                  /nfs/nfs5/home/research/hardware/arm2/gcc-arm-embedded/gcc-arm-none-eabi-4_8-2014q2/bin/../lib/gcc/arm-none-eabi/4.8.4/../../../../arm-none-eabi/lib/armv7e-m/libc.a(lib_a-fclose.o)
                                                  /nfs/nfs5/home/research/hardware/arm2/gcc-arm-embedded/gcc-arm-none-eabi-4_8-2014q2/bin/../lib/gcc/arm-none-eabi/4.8.4/../../../../arm-none-eabi/lib/armv7e-m/libc.a(lib_a-vfiprintf.o)
                                                  /nfs/nfs5/home/research/hardware/arm2/gcc-arm-embedded/gcc-arm-none-eabi-4_8-2014q2/bin/../lib/gcc/arm-none-eabi/4.8.4/../../../../arm-none-eabi/lib/armv7e-m/libc.a(lib_a-vfprintf.o)
_fputwc_r                                         /nfs/nfs5/home/research/hardware/arm2/gcc-arm-embedded/gcc-arm-none-eabi-4_8-2014q2/bin/../lib/gcc/arm-none-eabi/4.8.4/../../../../arm-none-eabi/lib/armv7e-m/libc.a(lib_a-fputwc.o)
                                                  /nfs/nfs5/home/research/hardware/arm2/gcc-arm-embedded/gcc-arm-none-eabi-4_8-2014q2/bin/../lib/gcc/arm-none-eabi/4.8.4/../../../../arm-none-eabi/lib/armv7e-m/libc.a(lib_a-vfiprintf.o)
_free_r                                           /nfs/nfs5/home/research/hardware/arm2/gcc-arm-embedded/gcc-arm-none-eabi-4_8-2014q2/bin/../lib/gcc/arm-none-eabi/4.8.4/../../../../arm-none-eabi/lib/armv7e-m/libc.a(lib_a-freer.o)
                                                  /nfs/nfs5/home/research/hardware/arm2/gcc-arm-embedded/gcc-arm-none-eabi-4_8-2014q2/bin/../lib/gcc/arm-none-eabi/4.8.4/../../../../arm-none-eabi/lib/armv7e-m/libc.a(lib_a-reallocr.o)
                                                  /nfs/nfs5/home/research/hardware/arm2/gcc-arm-embedded/gcc-arm-none-eabi-4_8-2014q2/bin/../lib/gcc/arm-none-eabi/4.8.4/../../../../arm-none-eabi/lib/armv7e-m/libc.a(lib_a-fvwrite.o)
                                                  /nfs/nfs5/home/research/hardware/arm2/gcc-arm-embedded/gcc-arm-none-eabi-4_8-2014q2/bin/../lib/gcc/arm-none-eabi/4.8.4/../../../../arm-none-eabi/lib/armv7e-m/libc.a(lib_a-fclose.o)
                                                  /nfs/nfs5/home/research/hardware/arm2/gcc-arm-embedded/gcc-arm-none-eabi-4_8-2014q2/bin/../lib/gcc/arm-none-eabi/4.8.4/../../../../arm-none-eabi/lib/armv7e-m/libc.a(lib_a-svfiprintf.o)
                                                  /nfs/nfs5/home/research/hardware/arm2/gcc-arm-embedded/gcc-arm-none-eabi-4_8-2014q2/bin/../lib/gcc/arm-none-eabi/4.8.4/../../../../arm-none-eabi/lib/armv7e-m/libc.a(lib_a-reent.o)
                                                  /nfs/nfs5/home/research/hardware/arm2/gcc-arm-embedded/gcc-arm-none-eabi-4_8-2014q2/bin/../lib/gcc/arm-none-eabi/4.8.4/../../../../arm-none-eabi/lib/armv7e-m/libc.a(lib_a-fflush.o)
                                                  /nfs/nfs5/home/research/hardware/arm2/gcc-arm-embedded/gcc-arm-none-eabi-4_8-2014q2/bin/../lib/gcc/arm-none-eabi/4.8.4/../../../../arm-none-eabi/lib/armv7e-m/libc.a(lib_a-wsetup.o)
                                                  /nfs/nfs5/home/research/hardware/arm2/gcc-arm-embedded/gcc-arm-none-eabi-4_8-2014q2/bin/../lib/gcc/arm-none-eabi/4.8.4/../../../../arm-none-eabi/lib/armv7e-m/libc.a(lib_a-mallocr.o)
                                                  /nfs/nfs5/home/research/hardware/arm2/gcc-arm-embedded/gcc-arm-none-eabi-4_8-2014q2/bin/../lib/gcc/arm-none-eabi/4.8.4/../../../../arm-none-eabi/lib/armv7e-m/libc.a(lib_a-malloc.o)
_fstat                                            /nfs/nfs5/home/research/hardware/arm2/gcc-arm-embedded/gcc-arm-none-eabi-4_8-2014q2/bin/../lib/gcc/arm-none-eabi/4.8.4/../../../../arm-none-eabi/lib/armv7e-m/libc.a(lib_a-fstatr.o)
_fstat_r                                          /nfs/nfs5/home/research/hardware/arm2/gcc-arm-embedded/gcc-arm-none-eabi-4_8-2014q2/bin/../lib/gcc/arm-none-eabi/4.8.4/../../../../arm-none-eabi/lib/armv7e-m/libc.a(lib_a-fstatr.o)
                                                  /nfs/nfs5/home/research/hardware/arm2/gcc-arm-embedded/gcc-arm-none-eabi-4_8-2014q2/bin/../lib/gcc/arm-none-eabi/4.8.4/../../../../arm-none-eabi/lib/armv7e-m/libc.a(lib_a-makebuf.o)
_fwalk                                            /nfs/nfs5/home/research/hardware/arm2/gcc-arm-embedded/gcc-arm-none-eabi-4_8-2014q2/bin/../lib/gcc/arm-none-eabi/4.8.4/../../../../arm-none-eabi/lib/armv7e-m/libc.a(lib_a-fwalk.o)
                                                  /nfs/nfs5/home/research/hardware/arm2/gcc-arm-embedded/gcc-arm-none-eabi-4_8-2014q2/bin/../lib/gcc/arm-none-eabi/4.8.4/../../../../arm-none-eabi/lib/armv7e-m/libc.a(lib_a-findfp.o)
_fwalk_reent                                      /nfs/nfs5/home/research/hardware/arm2/gcc-arm-embedded/gcc-arm-none-eabi-4_8-2014q2/bin/../lib/gcc/arm-none-eabi/4.8.4/../../../../arm-none-eabi/lib/armv7e-m/libc.a(lib_a-fwalk.o)
                                                  /nfs/nfs5/home/research/hardware/arm2/gcc-arm-embedded/gcc-arm-none-eabi-4_8-2014q2/bin/../lib/gcc/arm-none-eabi/4.8.4/../../../../arm-none-eabi/lib/armv7e-m/libc.a(lib_a-fflush.o)
_global_impure_ptr                                /nfs/nfs5/home/research/hardware/arm2/gcc-arm-embedded/gcc-arm-none-eabi-4_8-2014q2/bin/../lib/gcc/arm-none-eabi/4.8.4/../../../../arm-none-eabi/lib/armv7e-m/libc.a(lib_a-impure.o)
                                                  /nfs/nfs5/home/research/hardware/arm2/gcc-arm-embedded/gcc-arm-none-eabi-4_8-2014q2/bin/../lib/gcc/arm-none-eabi/4.8.4/../../../../arm-none-eabi/lib/armv7e-m/libc.a(lib_a-findfp.o)
                                                  /nfs/nfs5/home/research/hardware/arm2/gcc-arm-embedded/gcc-arm-none-eabi-4_8-2014q2/bin/../lib/gcc/arm-none-eabi/4.8.4/../../../../arm-none-eabi/lib/armv7e-m/libc.a(lib_a-fflush.o)
_heap_init                                        build/obj/chheap.o
                                                  build/obj/chsys.o
_impure_ptr                                       /nfs/nfs5/home/research/hardware/arm2/gcc-arm-embedded/gcc-arm-none-eabi-4_8-2014q2/bin/../lib/gcc/arm-none-eabi/4.8.4/../../../../arm-none-eabi/lib/armv7e-m/libc.a(lib_a-impure.o)
                                                  /nfs/nfs5/home/research/hardware/arm2/gcc-arm-embedded/gcc-arm-none-eabi-4_8-2014q2/bin/../lib/gcc/arm-none-eabi/4.8.4/../../../../arm-none-eabi/lib/armv7e-m/libg.a(lib_a-errno.o)
                                                  /nfs/nfs5/home/research/hardware/arm2/gcc-arm-embedded/gcc-arm-none-eabi-4_8-2014q2/bin/../lib/gcc/arm-none-eabi/4.8.4/../../../../arm-none-eabi/lib/armv7e-m/libc.a(lib_a-wcrtomb.o)
                                                  /nfs/nfs5/home/research/hardware/arm2/gcc-arm-embedded/gcc-arm-none-eabi-4_8-2014q2/bin/../lib/gcc/arm-none-eabi/4.8.4/../../../../arm-none-eabi/lib/armv7e-m/libc.a(lib_a-wbuf.o)
                                                  /nfs/nfs5/home/research/hardware/arm2/gcc-arm-embedded/gcc-arm-none-eabi-4_8-2014q2/bin/../lib/gcc/arm-none-eabi/4.8.4/../../../../arm-none-eabi/lib/armv7e-m/libc.a(lib_a-fputwc.o)
                                                  /nfs/nfs5/home/research/hardware/arm2/gcc-arm-embedded/gcc-arm-none-eabi-4_8-2014q2/bin/../lib/gcc/arm-none-eabi/4.8.4/../../../../arm-none-eabi/lib/armv7e-m/libc.a(lib_a-fclose.o)
                                                  /nfs/nfs5/home/research/hardware/arm2/gcc-arm-embedded/gcc-arm-none-eabi-4_8-2014q2/bin/../lib/gcc/arm-none-eabi/4.8.4/../../../../arm-none-eabi/lib/armv7e-m/libc.a(lib_a-vfiprintf.o)
                                                  /nfs/nfs5/home/research/hardware/arm2/gcc-arm-embedded/gcc-arm-none-eabi-4_8-2014q2/bin/../lib/gcc/arm-none-eabi/4.8.4/../../../../arm-none-eabi/lib/armv7e-m/libc.a(lib_a-reent.o)
                                                  /nfs/nfs5/home/research/hardware/arm2/gcc-arm-embedded/gcc-arm-none-eabi-4_8-2014q2/bin/../lib/gcc/arm-none-eabi/4.8.4/../../../../arm-none-eabi/lib/armv7e-m/libc.a(lib_a-locale.o)
                                                  /nfs/nfs5/home/research/hardware/arm2/gcc-arm-embedded/gcc-arm-none-eabi-4_8-2014q2/bin/../lib/gcc/arm-none-eabi/4.8.4/../../../../arm-none-eabi/lib/armv7e-m/libc.a(lib_a-findfp.o)
                                                  /nfs/nfs5/home/research/hardware/arm2/gcc-arm-embedded/gcc-arm-none-eabi-4_8-2014q2/bin/../lib/gcc/arm-none-eabi/4.8.4/../../../../arm-none-eabi/lib/armv7e-m/libc.a(lib_a-fflush.o)
                                                  /nfs/nfs5/home/research/hardware/arm2/gcc-arm-embedded/gcc-arm-none-eabi-4_8-2014q2/bin/../lib/gcc/arm-none-eabi/4.8.4/../../../../arm-none-eabi/lib/armv7e-m/libc.a(lib_a-wsetup.o)
                                                  /nfs/nfs5/home/research/hardware/arm2/gcc-arm-embedded/gcc-arm-none-eabi-4_8-2014q2/bin/../lib/gcc/arm-none-eabi/4.8.4/../../../../arm-none-eabi/lib/armv7e-m/libc.a(lib_a-vfprintf.o)
                                                  /nfs/nfs5/home/research/hardware/arm2/gcc-arm-embedded/gcc-arm-none-eabi-4_8-2014q2/bin/../lib/gcc/arm-none-eabi/4.8.4/../../../../arm-none-eabi/lib/armv7e-m/libc.a(lib_a-strtol.o)
                                                  /nfs/nfs5/home/research/hardware/arm2/gcc-arm-embedded/gcc-arm-none-eabi-4_8-2014q2/bin/../lib/gcc/arm-none-eabi/4.8.4/../../../../arm-none-eabi/lib/armv7e-m/libc.a(lib_a-sprintf.o)
                                                  /nfs/nfs5/home/research/hardware/arm2/gcc-arm-embedded/gcc-arm-none-eabi-4_8-2014q2/bin/../lib/gcc/arm-none-eabi/4.8.4/../../../../arm-none-eabi/lib/armv7e-m/libc.a(lib_a-printf.o)
                                                  /nfs/nfs5/home/research/hardware/arm2/gcc-arm-embedded/gcc-arm-none-eabi-4_8-2014q2/bin/../lib/gcc/arm-none-eabi/4.8.4/../../../../arm-none-eabi/lib/armv7e-m/libc.a(lib_a-malloc.o)
_isatty                                           /nfs/nfs5/home/research/hardware/arm2/gcc-arm-embedded/gcc-arm-none-eabi-4_8-2014q2/bin/../lib/gcc/arm-none-eabi/4.8.4/../../../../arm-none-eabi/lib/armv7e-m/libc.a(lib_a-isattyr.o)
_isatty_r                                         /nfs/nfs5/home/research/hardware/arm2/gcc-arm-embedded/gcc-arm-none-eabi-4_8-2014q2/bin/../lib/gcc/arm-none-eabi/4.8.4/../../../../arm-none-eabi/lib/armv7e-m/libc.a(lib_a-isattyr.o)
                                                  /nfs/nfs5/home/research/hardware/arm2/gcc-arm-embedded/gcc-arm-none-eabi-4_8-2014q2/bin/../lib/gcc/arm-none-eabi/4.8.4/../../../../arm-none-eabi/lib/armv7e-m/libc.a(lib_a-makebuf.o)
_localeconv_r                                     /nfs/nfs5/home/research/hardware/arm2/gcc-arm-embedded/gcc-arm-none-eabi-4_8-2014q2/bin/../lib/gcc/arm-none-eabi/4.8.4/../../../../arm-none-eabi/lib/armv7e-m/libc.a(lib_a-locale.o)
                                                  /nfs/nfs5/home/research/hardware/arm2/gcc-arm-embedded/gcc-arm-none-eabi-4_8-2014q2/bin/../lib/gcc/arm-none-eabi/4.8.4/../../../../arm-none-eabi/lib/armv7e-m/libc.a(lib_a-vfprintf.o)
                                                  /nfs/nfs5/home/research/hardware/arm2/gcc-arm-embedded/gcc-arm-none-eabi-4_8-2014q2/bin/../lib/gcc/arm-none-eabi/4.8.4/../../../../arm-none-eabi/lib/armv7e-m/libc.a(lib_a-svfprintf.o)
_lseek                                            /nfs/nfs5/home/research/hardware/arm2/gcc-arm-embedded/gcc-arm-none-eabi-4_8-2014q2/bin/../lib/gcc/arm-none-eabi/4.8.4/../../../../arm-none-eabi/lib/armv7e-m/libc.a(lib_a-lseekr.o)
_lseek_r                                          /nfs/nfs5/home/research/hardware/arm2/gcc-arm-embedded/gcc-arm-none-eabi-4_8-2014q2/bin/../lib/gcc/arm-none-eabi/4.8.4/../../../../arm-none-eabi/lib/armv7e-m/libc.a(lib_a-lseekr.o)
                                                  /nfs/nfs5/home/research/hardware/arm2/gcc-arm-embedded/gcc-arm-none-eabi-4_8-2014q2/bin/../lib/gcc/arm-none-eabi/4.8.4/../../../../arm-none-eabi/lib/armv7e-m/libc.a(lib_a-stdio.o)
_malloc_r                                         /nfs/nfs5/home/research/hardware/arm2/gcc-arm-embedded/gcc-arm-none-eabi-4_8-2014q2/bin/../lib/gcc/arm-none-eabi/4.8.4/../../../../arm-none-eabi/lib/armv7e-m/libc.a(lib_a-mallocr.o)
                                                  /nfs/nfs5/home/research/hardware/arm2/gcc-arm-embedded/gcc-arm-none-eabi-4_8-2014q2/bin/../lib/gcc/arm-none-eabi/4.8.4/../../../../arm-none-eabi/lib/armv7e-m/libc.a(lib_a-reallocr.o)
                                                  /nfs/nfs5/home/research/hardware/arm2/gcc-arm-embedded/gcc-arm-none-eabi-4_8-2014q2/bin/../lib/gcc/arm-none-eabi/4.8.4/../../../../arm-none-eabi/lib/armv7e-m/libc.a(lib_a-fvwrite.o)
                                                  /nfs/nfs5/home/research/hardware/arm2/gcc-arm-embedded/gcc-arm-none-eabi-4_8-2014q2/bin/../lib/gcc/arm-none-eabi/4.8.4/../../../../arm-none-eabi/lib/armv7e-m/libc.a(lib_a-callocr.o)
                                                  /nfs/nfs5/home/research/hardware/arm2/gcc-arm-embedded/gcc-arm-none-eabi-4_8-2014q2/bin/../lib/gcc/arm-none-eabi/4.8.4/../../../../arm-none-eabi/lib/armv7e-m/libc.a(lib_a-svfiprintf.o)
                                                  /nfs/nfs5/home/research/hardware/arm2/gcc-arm-embedded/gcc-arm-none-eabi-4_8-2014q2/bin/../lib/gcc/arm-none-eabi/4.8.4/../../../../arm-none-eabi/lib/armv7e-m/libc.a(lib_a-makebuf.o)
                                                  /nfs/nfs5/home/research/hardware/arm2/gcc-arm-embedded/gcc-arm-none-eabi-4_8-2014q2/bin/../lib/gcc/arm-none-eabi/4.8.4/../../../../arm-none-eabi/lib/armv7e-m/libc.a(lib_a-findfp.o)
                                                  /nfs/nfs5/home/research/hardware/arm2/gcc-arm-embedded/gcc-arm-none-eabi-4_8-2014q2/bin/../lib/gcc/arm-none-eabi/4.8.4/../../../../arm-none-eabi/lib/armv7e-m/libc.a(lib_a-svfprintf.o)
                                                  /nfs/nfs5/home/research/hardware/arm2/gcc-arm-embedded/gcc-arm-none-eabi-4_8-2014q2/bin/../lib/gcc/arm-none-eabi/4.8.4/../../../../arm-none-eabi/lib/armv7e-m/libc.a(lib_a-malloc.o)
_malloc_trim_r                                    /nfs/nfs5/home/research/hardware/arm2/gcc-arm-embedded/gcc-arm-none-eabi-4_8-2014q2/bin/../lib/gcc/arm-none-eabi/4.8.4/../../../../arm-none-eabi/lib/armv7e-m/libc.a(lib_a-freer.o)
_mmcsd_get_capacity                               build/obj/hal_mmcsd.o
                                                  build/obj/mmc_spi.o
_mmcsd_get_capacity_ext                           build/obj/hal_mmcsd.o
_mmcsd_get_slice                                  build/obj/hal_mmcsd.o
_mmcsd_unpack_csd_mmc                             build/obj/hal_mmcsd.o
_mmcsd_unpack_csd_v10                             build/obj/hal_mmcsd.o
_mmcsd_unpack_csd_v20                             build/obj/hal_mmcsd.o
_mmcsd_unpack_mmc_cid                             build/obj/hal_mmcsd.o
_mmcsd_unpack_sdc_cid                             build/obj/hal_mmcsd.o
_mprec_log10                                      /nfs/nfs5/home/research/hardware/arm2/gcc-arm-embedded/gcc-arm-none-eabi-4_8-2014q2/bin/../lib/gcc/arm-none-eabi/4.8.4/../../../../arm-none-eabi/lib/armv7e-m/libc.a(lib_a-mprec.o)
_pal_lld_init                                     build/obj/pal_lld.o
                                                  build/obj/hal.o
_pal_lld_setgroupmode                             build/obj/pal_lld.o
                                                  build/obj/pal.o
_port_exit_from_isr                               build/obj/chcoreasm_v7m.o
                                                  build/obj/chcore_v7m.o
_port_irq_epilogue                                build/obj/chcore_v7m.o
                                                  build/obj/serial_lld.o
                                                  build/obj/usb_lld.o
                                                  build/obj/st_lld.o
                                                  build/obj/stm32_dma.o
_port_switch                                      build/obj/chcoreasm_v7m.o
                                                  build/obj/chschd.o
_port_switch_from_isr                             build/obj/chcoreasm_v7m.o
                                                  build/obj/chcore_v7m.o
_port_thread_start                                build/obj/chcoreasm_v7m.o
                                                  build/obj/chthreads.o
_printf_r                                         /nfs/nfs5/home/research/hardware/arm2/gcc-arm-embedded/gcc-arm-none-eabi-4_8-2014q2/bin/../lib/gcc/arm-none-eabi/4.8.4/../../../../arm-none-eabi/lib/armv7e-m/libc.a(lib_a-printf.o)
_read                                             /nfs/nfs5/home/research/hardware/arm2/gcc-arm-embedded/gcc-arm-none-eabi-4_8-2014q2/bin/../lib/gcc/arm-none-eabi/4.8.4/../../../../arm-none-eabi/lib/armv7e-m/libc.a(lib_a-readr.o)
_read_r                                           /nfs/nfs5/home/research/hardware/arm2/gcc-arm-embedded/gcc-arm-none-eabi-4_8-2014q2/bin/../lib/gcc/arm-none-eabi/4.8.4/../../../../arm-none-eabi/lib/armv7e-m/libc.a(lib_a-readr.o)
                                                  /nfs/nfs5/home/research/hardware/arm2/gcc-arm-embedded/gcc-arm-none-eabi-4_8-2014q2/bin/../lib/gcc/arm-none-eabi/4.8.4/../../../../arm-none-eabi/lib/armv7e-m/libc.a(lib_a-stdio.o)
_realloc_r                                        /nfs/nfs5/home/research/hardware/arm2/gcc-arm-embedded/gcc-arm-none-eabi-4_8-2014q2/bin/../lib/gcc/arm-none-eabi/4.8.4/../../../../arm-none-eabi/lib/armv7e-m/libc.a(lib_a-reallocr.o)
                                                  /nfs/nfs5/home/research/hardware/arm2/gcc-arm-embedded/gcc-arm-none-eabi-4_8-2014q2/bin/../lib/gcc/arm-none-eabi/4.8.4/../../../../arm-none-eabi/lib/armv7e-m/libc.a(lib_a-fvwrite.o)
                                                  /nfs/nfs5/home/research/hardware/arm2/gcc-arm-embedded/gcc-arm-none-eabi-4_8-2014q2/bin/../lib/gcc/arm-none-eabi/4.8.4/../../../../arm-none-eabi/lib/armv7e-m/libc.a(lib_a-svfiprintf.o)
_reclaim_reent                                    /nfs/nfs5/home/research/hardware/arm2/gcc-arm-embedded/gcc-arm-none-eabi-4_8-2014q2/bin/../lib/gcc/arm-none-eabi/4.8.4/../../../../arm-none-eabi/lib/armv7e-m/libc.a(lib_a-reent.o)
_sbrk                                             /nfs/nfs5/home/research/hardware/arm2/gcc-arm-embedded/gcc-arm-none-eabi-4_8-2014q2/bin/../lib/gcc/arm-none-eabi/4.8.4/../../../../arm-none-eabi/lib/armv7e-m/libc.a(lib_a-sbrkr.o)
_sbrk_r                                           /nfs/nfs5/home/research/hardware/arm2/gcc-arm-embedded/gcc-arm-none-eabi-4_8-2014q2/bin/../lib/gcc/arm-none-eabi/4.8.4/../../../../arm-none-eabi/lib/armv7e-m/libc.a(lib_a-sbrkr.o)
                                                  /nfs/nfs5/home/research/hardware/arm2/gcc-arm-embedded/gcc-arm-none-eabi-4_8-2014q2/bin/../lib/gcc/arm-none-eabi/4.8.4/../../../../arm-none-eabi/lib/armv7e-m/libc.a(lib_a-freer.o)
                                                  /nfs/nfs5/home/research/hardware/arm2/gcc-arm-embedded/gcc-arm-none-eabi-4_8-2014q2/bin/../lib/gcc/arm-none-eabi/4.8.4/../../../../arm-none-eabi/lib/armv7e-m/libc.a(lib_a-mallocr.o)
_scheduler_init                                   build/obj/chschd.o
                                                  build/obj/chsys.o
_setlocale_r                                      /nfs/nfs5/home/research/hardware/arm2/gcc-arm-embedded/gcc-arm-none-eabi-4_8-2014q2/bin/../lib/gcc/arm-none-eabi/4.8.4/../../../../arm-none-eabi/lib/armv7e-m/libc.a(lib_a-locale.o)
_sprintf_r                                        /nfs/nfs5/home/research/hardware/arm2/gcc-arm-embedded/gcc-arm-none-eabi-4_8-2014q2/bin/../lib/gcc/arm-none-eabi/4.8.4/../../../../arm-none-eabi/lib/armv7e-m/libc.a(lib_a-sprintf.o)
_stm32_dma_isr_redir                              build/obj/stm32_dma.o
_stm32_dma_streams                                build/obj/stm32_dma.o
                                                  build/obj/spi_lld.o
_strtol_r                                         /nfs/nfs5/home/research/hardware/arm2/gcc-arm-embedded/gcc-arm-none-eabi-4_8-2014q2/bin/../lib/gcc/arm-none-eabi/4.8.4/../../../../arm-none-eabi/lib/armv7e-m/libc.a(lib_a-strtol.o)
                                                  /nfs/nfs5/home/research/hardware/arm2/gcc-arm-embedded/gcc-arm-none-eabi-4_8-2014q2/bin/../lib/gcc/arm-none-eabi/4.8.4/../../../../arm-none-eabi/lib/armv7e-m/libc.a(lib_a-atoi.o)
_svfiprintf_r                                     /nfs/nfs5/home/research/hardware/arm2/gcc-arm-embedded/gcc-arm-none-eabi-4_8-2014q2/bin/../lib/gcc/arm-none-eabi/4.8.4/../../../../arm-none-eabi/lib/armv7e-m/libc.a(lib_a-svfiprintf.o)
_svfprintf_r                                      /nfs/nfs5/home/research/hardware/arm2/gcc-arm-embedded/gcc-arm-none-eabi-4_8-2014q2/bin/../lib/gcc/arm-none-eabi/4.8.4/../../../../arm-none-eabi/lib/armv7e-m/libc.a(lib_a-svfprintf.o)
                                                  /nfs/nfs5/home/research/hardware/arm2/gcc-arm-embedded/gcc-arm-none-eabi-4_8-2014q2/bin/../lib/gcc/arm-none-eabi/4.8.4/../../../../arm-none-eabi/lib/armv7e-m/libc.a(lib_a-sprintf.o)
_test_assert                                      build/obj/test.o
                                                  build/obj/testsys.o
                                                  build/obj/testqueues.o
                                                  build/obj/testdyn.o
                                                  build/obj/testpools.o
                                                  build/obj/testheap.o
                                                  build/obj/testevt.o
                                                  build/obj/testmbox.o
                                                  build/obj/testmtx.o
                                                  build/obj/testsem.o
                                                  build/obj/testthd.o
_test_assert_sequence                             build/obj/test.o
                                                  build/obj/testqueues.o
                                                  build/obj/testdyn.o
                                                  build/obj/testevt.o
                                                  build/obj/testmbox.o
                                                  build/obj/testmsg.o
                                                  build/obj/testmtx.o
                                                  build/obj/testsem.o
                                                  build/obj/testthd.o
_test_assert_time_window                          build/obj/test.o
                                                  build/obj/testevt.o
                                                  build/obj/testsem.o
                                                  build/obj/testthd.o
_test_fail                                        build/obj/test.o
_textdata_start                                   build/obj/crt0_v7m.o
_thread_init                                      build/obj/chthreads.o
                                                  build/obj/chsys.o
_tm_init                                          build/obj/chtm.o
                                                  build/obj/chsys.o
_unhandled_exception                              build/obj/vectors.o
_usb_ep0in                                        build/obj/usb.o
                                                  build/obj/usb_lld.o
_usb_ep0out                                       build/obj/usb.o
                                                  build/obj/usb_lld.o
_usb_ep0setup                                     build/obj/usb.o
                                                  build/obj/usb_lld.o
_usb_reset                                        build/obj/usb.o
                                                  build/obj/usb_lld.o
_usb_suspend                                      build/obj/usb.o
                                                  build/obj/usb_lld.o
_usb_wakeup                                       build/obj/usb.o
                                                  build/obj/usb_lld.o
_vectors                                          build/obj/vectors.o
_vfiprintf_r                                      /nfs/nfs5/home/research/hardware/arm2/gcc-arm-embedded/gcc-arm-none-eabi-4_8-2014q2/bin/../lib/gcc/arm-none-eabi/4.8.4/../../../../arm-none-eabi/lib/armv7e-m/libc.a(lib_a-vfiprintf.o)
_vfprintf_r                                       /nfs/nfs5/home/research/hardware/arm2/gcc-arm-embedded/gcc-arm-none-eabi-4_8-2014q2/bin/../lib/gcc/arm-none-eabi/4.8.4/../../../../arm-none-eabi/lib/armv7e-m/libc.a(lib_a-vfprintf.o)
                                                  /nfs/nfs5/home/research/hardware/arm2/gcc-arm-embedded/gcc-arm-none-eabi-4_8-2014q2/bin/../lib/gcc/arm-none-eabi/4.8.4/../../../../arm-none-eabi/lib/armv7e-m/libc.a(lib_a-printf.o)
_vt_init                                          build/obj/chvt.o
                                                  build/obj/chsys.o
_wcrtomb_r                                        /nfs/nfs5/home/research/hardware/arm2/gcc-arm-embedded/gcc-arm-none-eabi-4_8-2014q2/bin/../lib/gcc/arm-none-eabi/4.8.4/../../../../arm-none-eabi/lib/armv7e-m/libc.a(lib_a-wcrtomb.o)
                                                  /nfs/nfs5/home/research/hardware/arm2/gcc-arm-embedded/gcc-arm-none-eabi-4_8-2014q2/bin/../lib/gcc/arm-none-eabi/4.8.4/../../../../arm-none-eabi/lib/armv7e-m/libc.a(lib_a-fputwc.o)
_wctomb_r                                         /nfs/nfs5/home/research/hardware/arm2/gcc-arm-embedded/gcc-arm-none-eabi-4_8-2014q2/bin/../lib/gcc/arm-none-eabi/4.8.4/../../../../arm-none-eabi/lib/armv7e-m/libc.a(lib_a-wctomb_r.o)
_write                                            /nfs/nfs5/home/research/hardware/arm2/gcc-arm-embedded/gcc-arm-none-eabi-4_8-2014q2/bin/../lib/gcc/arm-none-eabi/4.8.4/../../../../arm-none-eabi/lib/armv7e-m/libc.a(lib_a-writer.o)
_write_r                                          /nfs/nfs5/home/research/hardware/arm2/gcc-arm-embedded/gcc-arm-none-eabi-4_8-2014q2/bin/../lib/gcc/arm-none-eabi/4.8.4/../../../../arm-none-eabi/lib/armv7e-m/libc.a(lib_a-writer.o)
                                                  /nfs/nfs5/home/research/hardware/arm2/gcc-arm-embedded/gcc-arm-none-eabi-4_8-2014q2/bin/../lib/gcc/arm-none-eabi/4.8.4/../../../../arm-none-eabi/lib/armv7e-m/libc.a(lib_a-stdio.o)
a_dfsdm1ChannelHandle                             build/obj/stm32l4xx_hal_dfsdm.o
aci_att_execute_write_req                         build/obj/bluenrg_gatt_aci.o
aci_att_find_by_type_value_req                    build/obj/bluenrg_gatt_aci.o
aci_att_find_information_req                      build/obj/bluenrg_gatt_aci.o
aci_att_prepare_write_req                         build/obj/bluenrg_gatt_aci.o
aci_att_read_by_group_type_req                    build/obj/bluenrg_gatt_aci.o
aci_att_read_by_type_req                          build/obj/bluenrg_gatt_aci.o
aci_erase_blue_flag                               build/obj/bluenrg_updater_aci.o
                                                  build/obj/bluenrg_utils.o
aci_gap_allow_rebond_IDB04A1                      build/obj/bluenrg_gap_aci.o
aci_gap_allow_rebond_IDB05A1                      build/obj/bluenrg_gap_aci.o
aci_gap_authorization_response                    build/obj/bluenrg_gap_aci.o
aci_gap_clear_security_database                   build/obj/bluenrg_gap_aci.o
aci_gap_configure_whitelist                       build/obj/bluenrg_gap_aci.o
aci_gap_create_connection                         build/obj/bluenrg_gap_aci.o
aci_gap_delete_ad_type                            build/obj/bluenrg_gap_aci.o
aci_gap_get_bonded_devices                        build/obj/bluenrg_gap_aci.o
aci_gap_get_security_level                        build/obj/bluenrg_gap_aci.o
aci_gap_init_IDB04A1                              build/obj/bluenrg_gap_aci.o
                                                  build/obj/btle.o
aci_gap_init_IDB05A1                              build/obj/bluenrg_gap_aci.o
                                                  build/obj/btle.o
aci_gap_is_device_bonded                          build/obj/bluenrg_gap_aci.o
aci_gap_pass_key_response                         build/obj/bluenrg_gap_aci.o
aci_gap_resolve_private_address_IDB04A1           build/obj/bluenrg_gap_aci.o
aci_gap_resolve_private_address_IDB05A1           build/obj/bluenrg_gap_aci.o
aci_gap_send_pairing_request                      build/obj/bluenrg_gap_aci.o
aci_gap_set_auth_requirement                      build/obj/bluenrg_gap_aci.o
                                                  build/obj/btle.o
aci_gap_set_author_requirement                    build/obj/bluenrg_gap_aci.o
aci_gap_set_broadcast_mode                        build/obj/bluenrg_gap_aci.o
aci_gap_set_direct_connectable_IDB04A1            build/obj/bluenrg_gap_aci.o
aci_gap_set_direct_connectable_IDB05A1            build/obj/bluenrg_gap_aci.o
aci_gap_set_discoverable                          build/obj/bluenrg_gap_aci.o
                                                  build/obj/sensor_service.o
aci_gap_set_io_capability                         build/obj/bluenrg_gap_aci.o
aci_gap_set_limited_discoverable                  build/obj/bluenrg_gap_aci.o
aci_gap_set_non_connectable_IDB04A1               build/obj/bluenrg_gap_aci.o
aci_gap_set_non_connectable_IDB05A1               build/obj/bluenrg_gap_aci.o
aci_gap_set_non_discoverable                      build/obj/bluenrg_gap_aci.o
aci_gap_set_undirected_connectable                build/obj/bluenrg_gap_aci.o
aci_gap_slave_security_request                    build/obj/bluenrg_gap_aci.o
aci_gap_start_auto_conn_establish_proc_IDB04A1    build/obj/bluenrg_gap_aci.o
aci_gap_start_auto_conn_establish_proc_IDB05A1    build/obj/bluenrg_gap_aci.o
aci_gap_start_connection_update                   build/obj/bluenrg_gap_aci.o
aci_gap_start_general_conn_establish_proc_IDB04A1 build/obj/bluenrg_gap_aci.o
aci_gap_start_general_conn_establish_proc_IDB05A1 build/obj/bluenrg_gap_aci.o
aci_gap_start_general_discovery_proc              build/obj/bluenrg_gap_aci.o
aci_gap_start_limited_discovery_proc              build/obj/bluenrg_gap_aci.o
aci_gap_start_name_discovery_proc                 build/obj/bluenrg_gap_aci.o
aci_gap_start_observation_procedure               build/obj/bluenrg_gap_aci.o
aci_gap_start_selective_conn_establish_proc       build/obj/bluenrg_gap_aci.o
aci_gap_terminate                                 build/obj/bluenrg_gap_aci.o
aci_gap_terminate_gap_procedure                   build/obj/bluenrg_gap_aci.o
aci_gap_update_adv_data                           build/obj/bluenrg_gap_aci.o
                                                  build/obj/sensor_service.o
aci_gatt_add_char                                 build/obj/bluenrg_gatt_aci.o
                                                  build/obj/sensor_service.o
aci_gatt_add_char_desc                            build/obj/bluenrg_gatt_aci.o
aci_gatt_add_serv                                 build/obj/bluenrg_gatt_aci.o
                                                  build/obj/sensor_service.o
aci_gatt_allow_read                               build/obj/bluenrg_gatt_aci.o
                                                  build/obj/sensor_service.o
aci_gatt_confirm_indication                       build/obj/bluenrg_gatt_aci.o
aci_gatt_del_char                                 build/obj/bluenrg_gatt_aci.o
aci_gatt_del_include_service                      build/obj/bluenrg_gatt_aci.o
aci_gatt_del_service                              build/obj/bluenrg_gatt_aci.o
aci_gatt_disc_all_charac_descriptors              build/obj/bluenrg_gatt_aci.o
aci_gatt_disc_all_charac_of_serv                  build/obj/bluenrg_gatt_aci.o
aci_gatt_disc_all_prim_services                   build/obj/bluenrg_gatt_aci.o
aci_gatt_disc_charac_by_uuid                      build/obj/bluenrg_gatt_aci.o
aci_gatt_disc_prim_service_by_uuid                build/obj/bluenrg_gatt_aci.o
aci_gatt_exchange_configuration                   build/obj/bluenrg_gatt_aci.o
aci_gatt_find_included_services                   build/obj/bluenrg_gatt_aci.o
aci_gatt_include_service                          build/obj/bluenrg_gatt_aci.o
aci_gatt_init                                     build/obj/bluenrg_gatt_aci.o
                                                  build/obj/btle.o
aci_gatt_read_charac_desc                         build/obj/bluenrg_gatt_aci.o
aci_gatt_read_charac_val                          build/obj/bluenrg_gatt_aci.o
aci_gatt_read_handle_value                        build/obj/bluenrg_gatt_aci.o
aci_gatt_read_handle_value_offset_IDB05A1         build/obj/bluenrg_gatt_aci.o
aci_gatt_read_long_charac_desc                    build/obj/bluenrg_gatt_aci.o
aci_gatt_read_long_charac_val                     build/obj/bluenrg_gatt_aci.o
aci_gatt_read_multiple_charac_val                 build/obj/bluenrg_gatt_aci.o
aci_gatt_read_using_charac_uuid                   build/obj/bluenrg_gatt_aci.o
aci_gatt_set_desc_value                           build/obj/bluenrg_gatt_aci.o
aci_gatt_set_event_mask                           build/obj/bluenrg_gatt_aci.o
aci_gatt_set_security_permission                  build/obj/bluenrg_gatt_aci.o
aci_gatt_signed_write_without_resp                build/obj/bluenrg_gatt_aci.o
aci_gatt_update_char_value                        build/obj/bluenrg_gatt_aci.o
                                                  build/obj/btle.o
                                                  build/obj/sensor_service.o
aci_gatt_update_char_value_ext_IDB05A1            build/obj/bluenrg_gatt_aci.o
aci_gatt_write_charac_descriptor                  build/obj/bluenrg_gatt_aci.o
aci_gatt_write_charac_reliable                    build/obj/bluenrg_gatt_aci.o
aci_gatt_write_charac_value                       build/obj/bluenrg_gatt_aci.o
aci_gatt_write_long_charac_desc                   build/obj/bluenrg_gatt_aci.o
aci_gatt_write_long_charac_val                    build/obj/bluenrg_gatt_aci.o
aci_gatt_write_response                           build/obj/bluenrg_gatt_aci.o
aci_gatt_write_without_response                   build/obj/bluenrg_gatt_aci.o
aci_get_updater_buffer_size                       build/obj/bluenrg_updater_aci.o
aci_get_updater_version                           build/obj/bluenrg_updater_aci.o
                                                  build/obj/bluenrg_utils.o
aci_hal_device_standby                            build/obj/bluenrg_hal_aci.o
aci_hal_get_anchor_period                         build/obj/bluenrg_hal_aci.o
aci_hal_get_fw_build_number                       build/obj/bluenrg_hal_aci.o
aci_hal_get_link_status                           build/obj/bluenrg_hal_aci.o
aci_hal_le_tx_test_packet_number                  build/obj/bluenrg_hal_aci.o
aci_hal_read_config_data                          build/obj/bluenrg_hal_aci.o
aci_hal_set_tx_power_level                        build/obj/bluenrg_hal_aci.o
                                                  build/obj/btle.o
aci_hal_tone_start                                build/obj/bluenrg_hal_aci.o
aci_hal_tone_stop                                 build/obj/bluenrg_hal_aci.o
aci_hal_write_config_data                         build/obj/bluenrg_hal_aci.o
aci_l2cap_connection_parameter_update_request     build/obj/bluenrg_l2cap_aci.o
                                                  build/obj/sensor_service.o
aci_l2cap_connection_parameter_update_response_IDB04A1 build/obj/bluenrg_l2cap_aci.o
aci_l2cap_connection_parameter_update_response_IDB05A1 build/obj/bluenrg_l2cap_aci.o
aci_reset_blue_flag                               build/obj/bluenrg_updater_aci.o
                                                  build/obj/bluenrg_utils.o
aci_updater_calc_crc                              build/obj/bluenrg_updater_aci.o
                                                  build/obj/bluenrg_utils.o
aci_updater_erase_sector                          build/obj/bluenrg_updater_aci.o
                                                  build/obj/bluenrg_utils.o
aci_updater_hw_version                            build/obj/bluenrg_updater_aci.o
                                                  build/obj/bluenrg_utils.o
aci_updater_program_data_block                    build/obj/bluenrg_updater_aci.o
                                                  build/obj/bluenrg_utils.o
aci_updater_read_data_block                       build/obj/bluenrg_updater_aci.o
                                                  build/obj/bluenrg_utils.o
aci_updater_reboot                                build/obj/bluenrg_updater_aci.o
aci_updater_start                                 build/obj/bluenrg_updater_aci.o
                                                  build/obj/bluenrg_utils.o
atoi                                              /nfs/nfs5/home/research/hardware/arm2/gcc-arm-embedded/gcc-arm-none-eabi-4_8-2014q2/bin/../lib/gcc/arm-none-eabi/4.8.4/../../../../arm-none-eabi/lib/armv7e-m/libc.a(lib_a-atoi.o)
                                                  build/obj/sensor_service.o
bdaddr                                            build/obj/btle.o
                                                  build/obj/sensor_service.o
boardInit                                         build/obj/board.o
                                                  build/obj/hal.o
btle_main                                         build/obj/btle.o
bvStat                                            build/obj/AudioBV_Manager.o
ch                                                build/obj/main.o
                                                  build/obj/shell.o
                                                  build/obj/testbmk.o
                                                  build/obj/testqueues.o
                                                  build/obj/testdyn.o
                                                  build/obj/testevt.o
                                                  build/obj/testmsg.o
                                                  build/obj/testmtx.o
                                                  build/obj/testsem.o
                                                  build/obj/testthd.o
                                                  build/obj/test.o
                                                  build/obj/usb_lld.o
                                                  build/obj/hal_buffers.o
                                                  build/obj/chmsg.o
                                                  build/obj/chevents.o
                                                  build/obj/chcond.o
                                                  build/obj/chmtx.o
                                                  build/obj/chsem.o
                                                  build/obj/chregistry.o
                                                  build/obj/chtm.o
                                                  build/obj/chthreads.o
                                                  build/obj/chschd.o
                                                  build/obj/chvt.o
                                                  build/obj/chsys.o
chCondBroadcast                                   build/obj/chcond.o
                                                  build/obj/testmtx.o
chCondBroadcastI                                  build/obj/chcond.o
chCondObjectInit                                  build/obj/chcond.o
                                                  build/obj/testmtx.o
chCondSignal                                      build/obj/chcond.o
                                                  build/obj/testmtx.o
chCondSignalI                                     build/obj/chcond.o
                                                  build/obj/testmtx.o
chCondWait                                        build/obj/chcond.o
                                                  build/obj/testmtx.o
chCondWaitS                                       build/obj/chcond.o
chCondWaitTimeout                                 build/obj/chcond.o
                                                  build/obj/testmtx.o
chCondWaitTimeoutS                                build/obj/chcond.o
chCoreAlloc                                       build/obj/chmemcore.o
                                                  build/obj/chheap.o
chCoreAllocI                                      build/obj/chmemcore.o
chCoreGetStatusX                                  build/obj/chmemcore.o
                                                  build/obj/testheap.o
chEvtAddEvents                                    build/obj/chevents.o
                                                  build/obj/testevt.o
chEvtBroadcastFlags                               build/obj/chevents.o
                                                  build/obj/testevt.o
chEvtBroadcastFlagsI                              build/obj/chevents.o
                                                  build/obj/shell.o
                                                  build/obj/evtimer.o
                                                  build/obj/serial_lld.o
                                                  build/obj/serial.o
chEvtDispatch                                     build/obj/chevents.o
                                                  build/obj/testevt.o
chEvtGetAndClearEvents                            build/obj/chevents.o
                                                  build/obj/testevt.o
chEvtGetAndClearFlags                             build/obj/chevents.o
chEvtGetAndClearFlagsI                            build/obj/chevents.o
chEvtRegisterMaskWithFlags                        build/obj/chevents.o
                                                  build/obj/testevt.o
chEvtSignal                                       build/obj/chevents.o
                                                  build/obj/testevt.o
chEvtSignalI                                      build/obj/chevents.o
chEvtUnregister                                   build/obj/chevents.o
                                                  build/obj/testevt.o
chEvtWaitAll                                      build/obj/chevents.o
                                                  build/obj/testevt.o
chEvtWaitAllTimeout                               build/obj/chevents.o
                                                  build/obj/testevt.o
chEvtWaitAny                                      build/obj/chevents.o
                                                  build/obj/testevt.o
chEvtWaitAnyTimeout                               build/obj/chevents.o
                                                  build/obj/testevt.o
chEvtWaitOne                                      build/obj/chevents.o
                                                  build/obj/testevt.o
chEvtWaitOneTimeout                               build/obj/chevents.o
                                                  build/obj/testevt.o
chHeapAlloc                                       build/obj/chheap.o
                                                  build/obj/testdyn.o
                                                  build/obj/testheap.o
                                                  build/obj/chdynamic.o
chHeapFree                                        build/obj/chheap.o
                                                  build/obj/testdyn.o
                                                  build/obj/testheap.o
                                                  build/obj/chdynamic.o
chHeapObjectInit                                  build/obj/chheap.o
                                                  build/obj/testdyn.o
                                                  build/obj/testheap.o
chHeapStatus                                      build/obj/chheap.o
                                                  build/obj/testdyn.o
                                                  build/obj/testheap.o
chIQGetTimeout                                    build/obj/chqueues.o
                                                  build/obj/testbmk.o
                                                  build/obj/testqueues.o
                                                  build/obj/serial.o
chIQObjectInit                                    build/obj/chqueues.o
                                                  build/obj/testbmk.o
                                                  build/obj/testqueues.o
                                                  build/obj/serial.o
chIQPutI                                          build/obj/chqueues.o
                                                  build/obj/testbmk.o
                                                  build/obj/testqueues.o
                                                  build/obj/serial.o
chIQReadTimeout                                   build/obj/chqueues.o
                                                  build/obj/testqueues.o
                                                  build/obj/serial.o
chIQResetI                                        build/obj/chqueues.o
                                                  build/obj/testqueues.o
                                                  build/obj/serial.o
chMBFetch                                         build/obj/chmboxes.o
                                                  build/obj/testmbox.o
chMBFetchI                                        build/obj/chmboxes.o
                                                  build/obj/testmbox.o
chMBFetchS                                        build/obj/chmboxes.o
chMBObjectInit                                    build/obj/chmboxes.o
                                                  build/obj/testmbox.o
chMBPost                                          build/obj/chmboxes.o
                                                  build/obj/testmbox.o
chMBPostAhead                                     build/obj/chmboxes.o
                                                  build/obj/testmbox.o
chMBPostAheadI                                    build/obj/chmboxes.o
                                                  build/obj/testmbox.o
chMBPostAheadS                                    build/obj/chmboxes.o
chMBPostI                                         build/obj/chmboxes.o
                                                  build/obj/testmbox.o
chMBPostS                                         build/obj/chmboxes.o
chMBReset                                         build/obj/chmboxes.o
                                                  build/obj/testmbox.o
chMBResetI                                        build/obj/chmboxes.o
chMsgRelease                                      build/obj/chmsg.o
                                                  build/obj/testbmk.o
                                                  build/obj/testmsg.o
chMsgSend                                         build/obj/chmsg.o
                                                  build/obj/testbmk.o
                                                  build/obj/testmsg.o
chMsgWait                                         build/obj/chmsg.o
                                                  build/obj/testbmk.o
                                                  build/obj/testmsg.o
chMtxLock                                         build/obj/chmtx.o
                                                  build/obj/testbmk.o
                                                  build/obj/testmtx.o
                                                  build/obj/spi.o
                                                  build/obj/chheap.o
chMtxLockS                                        build/obj/chmtx.o
                                                  build/obj/chcond.o
chMtxObjectInit                                   build/obj/chmtx.o
                                                  build/obj/testbmk.o
                                                  build/obj/testmtx.o
                                                  build/obj/spi.o
                                                  build/obj/chheap.o
chMtxTryLock                                      build/obj/chmtx.o
                                                  build/obj/testmtx.o
chMtxTryLockS                                     build/obj/chmtx.o
chMtxUnlock                                       build/obj/chmtx.o
                                                  build/obj/testbmk.o
                                                  build/obj/testmtx.o
                                                  build/obj/spi.o
                                                  build/obj/chheap.o
chMtxUnlockAll                                    build/obj/chmtx.o
                                                  build/obj/testmtx.o
chMtxUnlockS                                      build/obj/chmtx.o
                                                  build/obj/testmtx.o
                                                  build/obj/chcond.o
chOQGetI                                          build/obj/chqueues.o
                                                  build/obj/testqueues.o
                                                  build/obj/serial_lld.o
                                                  build/obj/serial.o
chOQObjectInit                                    build/obj/chqueues.o
                                                  build/obj/testqueues.o
                                                  build/obj/serial.o
chOQPutTimeout                                    build/obj/chqueues.o
                                                  build/obj/testqueues.o
                                                  build/obj/serial.o
chOQResetI                                        build/obj/chqueues.o
                                                  build/obj/testqueues.o
                                                  build/obj/serial.o
chOQWriteTimeout                                  build/obj/chqueues.o
                                                  build/obj/testqueues.o
                                                  build/obj/serial.o
chPoolAlloc                                       build/obj/chmempools.o
                                                  build/obj/testdyn.o
                                                  build/obj/testpools.o
                                                  build/obj/chdynamic.o
chPoolAllocI                                      build/obj/chmempools.o
chPoolFree                                        build/obj/chmempools.o
                                                  build/obj/testdyn.o
                                                  build/obj/testpools.o
                                                  build/obj/chdynamic.o
chPoolFreeI                                       build/obj/chmempools.o
chPoolLoadArray                                   build/obj/chmempools.o
                                                  build/obj/testpools.o
chPoolObjectInit                                  build/obj/chmempools.o
                                                  build/obj/testdyn.o
                                                  build/obj/testpools.o
chRegFirstThread                                  build/obj/chregistry.o
                                                  build/obj/testdyn.o
chRegNextThread                                   build/obj/chregistry.o
                                                  build/obj/testdyn.o
chSchDoReschedule                                 build/obj/chschd.o
                                                  build/obj/chcoreasm_v7m.o
chSchDoRescheduleAhead                            build/obj/chschd.o
chSchDoRescheduleBehind                           build/obj/chschd.o
                                                  build/obj/chthreads.o
chSchGoSleepS                                     build/obj/chschd.o
                                                  build/obj/testbmk.o
                                                  build/obj/chmsg.o
                                                  build/obj/chevents.o
                                                  build/obj/chcond.o
                                                  build/obj/chmtx.o
                                                  build/obj/chsem.o
                                                  build/obj/chthreads.o
chSchGoSleepTimeoutS                              build/obj/chschd.o
                                                  build/obj/chevents.o
                                                  build/obj/chcond.o
                                                  build/obj/chsem.o
                                                  build/obj/chthreads.o
chSchIsPreemptionRequired                         build/obj/chschd.o
                                                  build/obj/chcore_v7m.o
chSchReadyI                                       build/obj/chschd.o
                                                  build/obj/usb_lld.o
                                                  build/obj/chmsg.o
                                                  build/obj/chevents.o
                                                  build/obj/chcond.o
                                                  build/obj/chmtx.o
                                                  build/obj/chsem.o
                                                  build/obj/chthreads.o
chSchRescheduleS                                  build/obj/chschd.o
                                                  build/obj/testmtx.o
                                                  build/obj/testsem.o
                                                  build/obj/usb_lld.o
                                                  build/obj/usb.o
                                                  build/obj/serial.o
                                                  build/obj/chmboxes.o
                                                  build/obj/chevents.o
                                                  build/obj/chcond.o
                                                  build/obj/chmtx.o
                                                  build/obj/chsem.o
                                                  build/obj/chthreads.o
                                                  build/obj/chsys.o
chSchWakeupS                                      build/obj/chschd.o
                                                  build/obj/testbmk.o
                                                  build/obj/chmsg.o
                                                  build/obj/chcond.o
                                                  build/obj/chsem.o
                                                  build/obj/chdynamic.o
                                                  build/obj/chthreads.o
chSemAddCounterI                                  build/obj/chsem.o
                                                  build/obj/testsem.o
chSemObjectInit                                   build/obj/chsem.o
                                                  build/obj/testbmk.o
                                                  build/obj/testsem.o
                                                  build/obj/chmboxes.o
chSemReset                                        build/obj/chsem.o
                                                  build/obj/testbmk.o
                                                  build/obj/testsem.o
chSemResetI                                       build/obj/chsem.o
                                                  build/obj/chmboxes.o
chSemSignal                                       build/obj/chsem.o
                                                  build/obj/testbmk.o
                                                  build/obj/testsem.o
chSemSignalI                                      build/obj/chsem.o
                                                  build/obj/testsem.o
                                                  build/obj/chmboxes.o
chSemSignalWait                                   build/obj/chsem.o
                                                  build/obj/testsem.o
chSemWait                                         build/obj/chsem.o
                                                  build/obj/testbmk.o
                                                  build/obj/testsem.o
chSemWaitS                                        build/obj/chsem.o
chSemWaitTimeout                                  build/obj/chsem.o
                                                  build/obj/testsem.o
chSemWaitTimeoutS                                 build/obj/chsem.o
                                                  build/obj/chmboxes.o
chSysGetStatusAndLockX                            build/obj/chsys.o
                                                  build/obj/testsys.o
chSysHalt                                         build/obj/chsys.o
                                                  build/obj/spi_lld.o
chSysInit                                         build/obj/chsys.o
                                                  build/obj/main.o
chSysIntegrityCheckI                              build/obj/chsys.o
                                                  build/obj/testsys.o
chSysIsCounterWithinX                             build/obj/chsys.o
chSysPolledDelayX                                 build/obj/chsys.o
                                                  build/obj/usb_lld.o
chSysRestoreStatusX                               build/obj/chsys.o
                                                  build/obj/testsys.o
chSysTimerHandlerI                                build/obj/chsys.o
                                                  build/obj/st_lld.o
chTMChainMeasurementToX                           build/obj/chtm.o
chTMObjectInit                                    build/obj/chtm.o
chTMStartMeasurementX                             build/obj/chtm.o
chTMStopMeasurementX                              build/obj/chtm.o
chThdAddRef                                       build/obj/chdynamic.o
                                                  build/obj/testdyn.o
chThdCreateFromHeap                               build/obj/chdynamic.o
                                                  build/obj/shell.o
                                                  build/obj/testdyn.o
chThdCreateFromMemoryPool                         build/obj/chdynamic.o
                                                  build/obj/testdyn.o
chThdCreateI                                      build/obj/chthreads.o
                                                  build/obj/testthd.o
                                                  build/obj/usb_lld.o
                                                  build/obj/chdynamic.o
chThdCreateStatic                                 build/obj/chthreads.o
                                                  build/obj/main.o
                                                  build/obj/shell.o
                                                  build/obj/testbmk.o
                                                  build/obj/testqueues.o
                                                  build/obj/testevt.o
                                                  build/obj/testmsg.o
                                                  build/obj/testmtx.o
                                                  build/obj/testsem.o
                                                  build/obj/testthd.o
                                                  build/obj/chsys.o
chThdDequeueAllI                                  build/obj/chthreads.o
                                                  build/obj/hal_buffers.o
                                                  build/obj/chqueues.o
chThdDequeueNextI                                 build/obj/chthreads.o
                                                  build/obj/hal_buffers.o
                                                  build/obj/chqueues.o
chThdEnqueueTimeoutS                              build/obj/chthreads.o
                                                  build/obj/hal_buffers.o
                                                  build/obj/chqueues.o
chThdExit                                         build/obj/chthreads.o
                                                  build/obj/testbmk.o
                                                  build/obj/chcoreasm_v7m.o
chThdExitS                                        build/obj/chthreads.o
                                                  build/obj/shell.o
chThdRelease                                      build/obj/chdynamic.o
                                                  build/obj/main.o
                                                  build/obj/testdyn.o
                                                  build/obj/chregistry.o
                                                  build/obj/chthreads.o
chThdResume                                       build/obj/chthreads.o
chThdResumeI                                      build/obj/chthreads.o
                                                  build/obj/spi_lld.o
                                                  build/obj/usb_lld.o
chThdResumeS                                      build/obj/chthreads.o
chThdSetPriority                                  build/obj/chthreads.o
                                                  build/obj/testthd.o
chThdSleep                                        build/obj/chthreads.o
                                                  build/obj/main.o
                                                  build/obj/testbmk.o
                                                  build/obj/testsys.o
                                                  build/obj/testdyn.o
                                                  build/obj/testevt.o
                                                  build/obj/testmtx.o
                                                  build/obj/testsem.o
                                                  build/obj/testthd.o
                                                  build/obj/test.o
                                                  build/obj/mmc_spi.o
chThdSleepUntil                                   build/obj/chthreads.o
                                                  build/obj/testthd.o
chThdSleepUntilWindowed                           build/obj/chthreads.o
chThdStart                                        build/obj/chthreads.o
                                                  build/obj/testthd.o
chThdSuspendS                                     build/obj/chthreads.o
                                                  build/obj/usb_lld.o
                                                  build/obj/spi.o
chThdSuspendTimeoutS                              build/obj/chthreads.o
chThdTerminate                                    build/obj/chthreads.o
                                                  build/obj/test.o
chThdWait                                         build/obj/chthreads.o
                                                  build/obj/testbmk.o
                                                  build/obj/test.o
chThdYield                                        build/obj/chthreads.o
                                                  build/obj/testbmk.o
chVTDoResetI                                      build/obj/chvt.o
                                                  build/obj/evtimer.o
                                                  build/obj/testbmk.o
                                                  build/obj/testsys.o
                                                  build/obj/test.o
                                                  build/obj/chschd.o
chVTDoSetI                                        build/obj/chvt.o
                                                  build/obj/evtimer.o
                                                  build/obj/testbmk.o
                                                  build/obj/testsys.o
                                                  build/obj/test.o
                                                  build/obj/chschd.o
ch_debug                                          build/obj/chregistry.o
                                                  build/obj/chsys.o
change_IFR_data_config                            build/obj/bluenrg_utils.o
chprintf                                          build/obj/chprintf.o
                                                  build/obj/main.o
                                                  build/obj/shell.o
chsnprintf                                        build/obj/chprintf.o
chvprintf                                         build/obj/chprintf.o
cleanup_glue                                      /nfs/nfs5/home/research/hardware/arm2/gcc-arm-embedded/gcc-arm-none-eabi-4_8-2014q2/bin/../lib/gcc/arm-none-eabi/4.8.4/../../../../arm-none-eabi/lib/armv7e-m/libc.a(lib_a-reent.o)
connected                                         build/obj/sensor_service.o
                                                  build/obj/btle.o
dmaInit                                           build/obj/stm32_dma.o
                                                  build/obj/hal_lld.o
dmaStreamAllocate                                 build/obj/stm32_dma.o
                                                  build/obj/spi_lld.o
dmaStreamRelease                                  build/obj/stm32_dma.o
                                                  build/obj/spi_lld.o
errno                                             /nfs/nfs5/home/research/hardware/arm2/gcc-arm-embedded/gcc-arm-none-eabi-4_8-2014q2/bin/../lib/gcc/arm-none-eabi/4.8.4/../../../../arm-none-eabi/lib/armv7e-m/libc.a(lib_a-readr.o)
                                                  /nfs/nfs5/home/research/hardware/arm2/gcc-arm-embedded/gcc-arm-none-eabi-4_8-2014q2/bin/../lib/gcc/arm-none-eabi/4.8.4/../../../../arm-none-eabi/lib/armv7e-m/libc.a(lib_a-lseekr.o)
                                                  /nfs/nfs5/home/research/hardware/arm2/gcc-arm-embedded/gcc-arm-none-eabi-4_8-2014q2/bin/../lib/gcc/arm-none-eabi/4.8.4/../../../../arm-none-eabi/lib/armv7e-m/libc.a(lib_a-isattyr.o)
                                                  /nfs/nfs5/home/research/hardware/arm2/gcc-arm-embedded/gcc-arm-none-eabi-4_8-2014q2/bin/../lib/gcc/arm-none-eabi/4.8.4/../../../../arm-none-eabi/lib/armv7e-m/libc.a(lib_a-fstatr.o)
                                                  /nfs/nfs5/home/research/hardware/arm2/gcc-arm-embedded/gcc-arm-none-eabi-4_8-2014q2/bin/../lib/gcc/arm-none-eabi/4.8.4/../../../../arm-none-eabi/lib/armv7e-m/libc.a(lib_a-closer.o)
                                                  /nfs/nfs5/home/research/hardware/arm2/gcc-arm-embedded/gcc-arm-none-eabi-4_8-2014q2/bin/../lib/gcc/arm-none-eabi/4.8.4/../../../../arm-none-eabi/lib/armv7e-m/libc.a(lib_a-writer.o)
                                                  /nfs/nfs5/home/research/hardware/arm2/gcc-arm-embedded/gcc-arm-none-eabi-4_8-2014q2/bin/../lib/gcc/arm-none-eabi/4.8.4/../../../../arm-none-eabi/lib/armv7e-m/libc.a(lib_a-reent.o)
                                                  /nfs/nfs5/home/research/hardware/arm2/gcc-arm-embedded/gcc-arm-none-eabi-4_8-2014q2/bin/../lib/gcc/arm-none-eabi/4.8.4/../../../../arm-none-eabi/lib/armv7e-m/libc.a(lib_a-sbrkr.o)
evtObjectInit                                     build/obj/evtimer.o
evtStart                                          build/obj/evtimer.o
fclose                                            /nfs/nfs5/home/research/hardware/arm2/gcc-arm-embedded/gcc-arm-none-eabi-4_8-2014q2/bin/../lib/gcc/arm-none-eabi/4.8.4/../../../../arm-none-eabi/lib/armv7e-m/libc.a(lib_a-fclose.o)
                                                  /nfs/nfs5/home/research/hardware/arm2/gcc-arm-embedded/gcc-arm-none-eabi-4_8-2014q2/bin/../lib/gcc/arm-none-eabi/4.8.4/../../../../arm-none-eabi/lib/armv7e-m/libc.a(lib_a-findfp.o)
fflush                                            /nfs/nfs5/home/research/hardware/arm2/gcc-arm-embedded/gcc-arm-none-eabi-4_8-2014q2/bin/../lib/gcc/arm-none-eabi/4.8.4/../../../../arm-none-eabi/lib/armv7e-m/libc.a(lib_a-fflush.o)
fputwc                                            /nfs/nfs5/home/research/hardware/arm2/gcc-arm-embedded/gcc-arm-none-eabi-4_8-2014q2/bin/../lib/gcc/arm-none-eabi/4.8.4/../../../../arm-none-eabi/lib/armv7e-m/libc.a(lib_a-fputwc.o)
free                                              /nfs/nfs5/home/research/hardware/arm2/gcc-arm-embedded/gcc-arm-none-eabi-4_8-2014q2/bin/../lib/gcc/arm-none-eabi/4.8.4/../../../../arm-none-eabi/lib/armv7e-m/libc.a(lib_a-malloc.o)
                                                  build/obj/usbd_cdc.o
getBlueNRGUpdaterVersion                          build/obj/bluenrg_utils.o
getBlueNRGVersion                                 build/obj/bluenrg_utils.o
                                                  build/obj/btle.o
                                                  build/obj/sensor_service.o
halInit                                           build/obj/hal.o
                                                  build/obj/main.o
hal_lld_init                                      build/obj/hal_lld.o
                                                  build/obj/hal.o
haudio_in_dfsdmchannel                            build/obj/SensorTile_audio_in.o
haudio_in_dfsdmfilter                             build/obj/SensorTile_audio_in.o
hciReadPktPool                                    build/obj/hci.o
hciReadPktRxQueue                                 build/obj/hci.o
hci_disconnect                                    build/obj/hci.o
hci_le_add_device_to_white_list                   build/obj/hci.o
hci_le_clear_white_list                           build/obj/hci.o
hci_le_create_connection                          build/obj/hci.o
hci_le_create_connection_cancel                   build/obj/hci.o
hci_le_encrypt                                    build/obj/hci.o
hci_le_ltk_request_neg_reply                      build/obj/hci.o
hci_le_ltk_request_reply                          build/obj/hci.o
hci_le_rand                                       build/obj/hci.o
hci_le_read_advertising_channel_tx_power          build/obj/hci.o
hci_le_read_buffer_size                           build/obj/hci.o
hci_le_read_channel_map                           build/obj/hci.o
hci_le_read_local_supported_features              build/obj/hci.o
hci_le_read_local_version                         build/obj/hci.o
                                                  build/obj/bluenrg_utils.o
hci_le_read_supported_states                      build/obj/hci.o
hci_le_read_white_list_size                       build/obj/hci.o
hci_le_receiver_test                              build/obj/hci.o
hci_le_remove_device_from_white_list              build/obj/hci.o
hci_le_set_advertise_enable                       build/obj/hci.o
hci_le_set_advertising_data                       build/obj/hci.o
hci_le_set_advertising_parameters                 build/obj/hci.o
hci_le_set_random_address                         build/obj/hci.o
                                                  build/obj/btle.o
hci_le_set_scan_enable                            build/obj/hci.o
hci_le_set_scan_parameters                        build/obj/hci.o
hci_le_set_scan_resp_data                         build/obj/hci.o
                                                  build/obj/sensor_service.o
hci_le_test_end                                   build/obj/hci.o
hci_le_transmitter_test                           build/obj/hci.o
hci_read_bd_addr                                  build/obj/hci.o
hci_read_rssi                                     build/obj/hci.o
hci_read_transmit_power_level                     build/obj/hci.o
hci_reset                                         build/obj/hci.o
hci_send_cmd                                      build/obj/hci.o
hci_send_req                                      build/obj/hci.o
                                                  build/obj/bluenrg_updater_aci.o
                                                  build/obj/bluenrg_l2cap_aci.o
                                                  build/obj/bluenrg_hal_aci.o
                                                  build/obj/bluenrg_gatt_aci.o
                                                  build/obj/bluenrg_gap_aci.o
hci_timeout_callback                              build/obj/hci.o
hci_write                                         build/obj/hci.o
hdma_dfsdmReg_FLT                                 build/obj/SensorTile_audio_in.o
hpcd                                              build/obj/usbd_conf.o
iDataIN                                           build/obj/MotionFX_Manager.o
iDataOUT                                          build/obj/MotionFX_Manager.o
ibqGetEmptyBufferI                                build/obj/hal_buffers.o
ibqGetFullBufferTimeout                           build/obj/hal_buffers.o
ibqGetFullBufferTimeoutS                          build/obj/hal_buffers.o
ibqGetTimeout                                     build/obj/hal_buffers.o
ibqObjectInit                                     build/obj/hal_buffers.o
ibqPostFullBufferI                                build/obj/hal_buffers.o
ibqReadTimeout                                    build/obj/hal_buffers.o
ibqReleaseEmptyBuffer                             build/obj/hal_buffers.o
ibqReleaseEmptyBufferS                            build/obj/hal_buffers.o
ibqResetI                                         build/obj/hal_buffers.o
isHWBootloader_Patched                            build/obj/bluenrg_utils.o
known_OsxLic                                      build/obj/btle.o
                                                  build/obj/MetaDataManager.o
                                                  build/obj/sensor_service.o
list_get_next_node                                build/obj/ble_list.o
list_get_prev_node                                build/obj/ble_list.o
list_get_size                                     build/obj/ble_list.o
                                                  build/obj/hci.o
list_init_head                                    build/obj/ble_list.o
                                                  build/obj/hci.o
list_insert_head                                  build/obj/ble_list.o
                                                  build/obj/hci.o
list_insert_node_after                            build/obj/ble_list.o
list_insert_node_before                           build/obj/ble_list.o
list_insert_tail                                  build/obj/ble_list.o
                                                  build/obj/hci.o
list_is_empty                                     build/obj/ble_list.o
                                                  build/obj/hci.o
list_remove_head                                  build/obj/ble_list.o
                                                  build/obj/hci.o
list_remove_node                                  build/obj/ble_list.o
list_remove_tail                                  build/obj/ble_list.o
                                                  build/obj/hci.o
localeconv                                        /nfs/nfs5/home/research/hardware/arm2/gcc-arm-embedded/gcc-arm-none-eabi-4_8-2014q2/bin/../lib/gcc/arm-none-eabi/4.8.4/../../../../arm-none-eabi/lib/armv7e-m/libc.a(lib_a-locale.o)
log10f                                            /nfs/nfs5/home/research/hardware/arm2/gcc-arm-embedded/gcc-arm-none-eabi-4_8-2014q2/bin/../lib/gcc/arm-none-eabi/4.8.4/../../../../arm-none-eabi/lib/armv7e-m/libm.a(lib_a-wf_log10.o)
                                                  build/obj/btle.o
magOffset                                         build/obj/btle.o
                                                  build/obj/MotionFX_Manager.o
                                                  build/obj/sensor_service.o
main                                              build/obj/main.o
                                                  build/obj/crt0_v7m.o
malloc                                            /nfs/nfs5/home/research/hardware/arm2/gcc-arm-embedded/gcc-arm-none-eabi-4_8-2014q2/bin/../lib/gcc/arm-none-eabi/4.8.4/../../../../arm-none-eabi/lib/armv7e-m/libc.a(lib_a-malloc.o)
                                                  build/obj/usbd_cdc.o
matherr                                           /nfs/nfs5/home/research/hardware/arm2/gcc-arm-embedded/gcc-arm-none-eabi-4_8-2014q2/bin/../lib/gcc/arm-none-eabi/4.8.4/../../../../arm-none-eabi/lib/armv7e-m/libm.a(lib_a-s_matherr.o)
                                                  /nfs/nfs5/home/research/hardware/arm2/gcc-arm-embedded/gcc-arm-none-eabi-4_8-2014q2/bin/../lib/gcc/arm-none-eabi/4.8.4/../../../../arm-none-eabi/lib/armv7e-m/libm.a(lib_a-wf_log10.o)
memchr                                            /nfs/nfs5/home/research/hardware/arm2/gcc-arm-embedded/gcc-arm-none-eabi-4_8-2014q2/bin/../lib/gcc/arm-none-eabi/4.8.4/../../../../arm-none-eabi/lib/armv7e-m/libc.a(lib_a-memchr-stub.o)
                                                  /nfs/nfs5/home/research/hardware/arm2/gcc-arm-embedded/gcc-arm-none-eabi-4_8-2014q2/bin/../lib/gcc/arm-none-eabi/4.8.4/../../../../arm-none-eabi/lib/armv7e-m/libc.a(lib_a-fvwrite.o)
                                                  /nfs/nfs5/home/research/hardware/arm2/gcc-arm-embedded/gcc-arm-none-eabi-4_8-2014q2/bin/../lib/gcc/arm-none-eabi/4.8.4/../../../../arm-none-eabi/lib/armv7e-m/libc.a(lib_a-vfiprintf.o)
                                                  /nfs/nfs5/home/research/hardware/arm2/gcc-arm-embedded/gcc-arm-none-eabi-4_8-2014q2/bin/../lib/gcc/arm-none-eabi/4.8.4/../../../../arm-none-eabi/lib/armv7e-m/libc.a(lib_a-svfiprintf.o)
                                                  /nfs/nfs5/home/research/hardware/arm2/gcc-arm-embedded/gcc-arm-none-eabi-4_8-2014q2/bin/../lib/gcc/arm-none-eabi/4.8.4/../../../../arm-none-eabi/lib/armv7e-m/libc.a(lib_a-vfprintf.o)
                                                  /nfs/nfs5/home/research/hardware/arm2/gcc-arm-embedded/gcc-arm-none-eabi-4_8-2014q2/bin/../lib/gcc/arm-none-eabi/4.8.4/../../../../arm-none-eabi/lib/armv7e-m/libc.a(lib_a-svfprintf.o)
memcmp                                            /nfs/nfs5/home/research/hardware/arm2/gcc-arm-embedded/gcc-arm-none-eabi-4_8-2014q2/bin/../lib/gcc/arm-none-eabi/4.8.4/../../../../arm-none-eabi/lib/armv7e-m/libc.a(lib_a-memcmp.o)
                                                  build/obj/bluenrg_utils.o
memcpy                                            /nfs/nfs5/home/research/hardware/arm2/gcc-arm-embedded/gcc-arm-none-eabi-4_8-2014q2/bin/../lib/gcc/arm-none-eabi/4.8.4/../../../../arm-none-eabi/lib/armv7e-m/libc.a(lib_a-memcpy.o)
                                                  /nfs/nfs5/home/research/hardware/arm2/gcc-arm-embedded/gcc-arm-none-eabi-4_8-2014q2/bin/../lib/gcc/arm-none-eabi/4.8.4/../../../../arm-none-eabi/lib/armv7e-m/libc.a(lib_a-fvwrite.o)
                                                  /nfs/nfs5/home/research/hardware/arm2/gcc-arm-embedded/gcc-arm-none-eabi-4_8-2014q2/bin/../lib/gcc/arm-none-eabi/4.8.4/../../../../arm-none-eabi/lib/armv7e-m/libc.a(lib_a-svfiprintf.o)
                                                  /nfs/nfs5/home/research/hardware/arm2/gcc-arm-embedded/gcc-arm-none-eabi-4_8-2014q2/bin/../lib/gcc/arm-none-eabi/4.8.4/../../../../arm-none-eabi/lib/armv7e-m/libc.a(lib_a-mprec.o)
                                                  /nfs/nfs5/home/research/hardware/arm2/gcc-arm-embedded/gcc-arm-none-eabi-4_8-2014q2/bin/../lib/gcc/arm-none-eabi/4.8.4/../../../../arm-none-eabi/lib/armv7e-m/libc.a(lib_a-dtoa.o)
                                                  build/obj/btle.o
                                                  build/obj/MotionFX_Manager.o
                                                  build/obj/MetaDataManager.o
                                                  build/obj/sensor_service.o
                                                  build/obj/OTA.o
                                                  build/obj/MotionAR_Manager.o
                                                  build/obj/MotionGR_Manager.o
                                                  build/obj/MotionCP_Manager.o
                                                  build/obj/AudioBV_Manager.o
                                                  build/obj/memstreams.o
                                                  build/obj/usb_lld.o
                                                  build/obj/hal_buffers.o
                                                  build/obj/osal.o
memmove                                           /nfs/nfs5/home/research/hardware/arm2/gcc-arm-embedded/gcc-arm-none-eabi-4_8-2014q2/bin/../lib/gcc/arm-none-eabi/4.8.4/../../../../arm-none-eabi/lib/armv7e-m/libc.a(lib_a-memmove.o)
                                                  /nfs/nfs5/home/research/hardware/arm2/gcc-arm-embedded/gcc-arm-none-eabi-4_8-2014q2/bin/../lib/gcc/arm-none-eabi/4.8.4/../../../../arm-none-eabi/lib/armv7e-m/libc.a(lib_a-reallocr.o)
                                                  /nfs/nfs5/home/research/hardware/arm2/gcc-arm-embedded/gcc-arm-none-eabi-4_8-2014q2/bin/../lib/gcc/arm-none-eabi/4.8.4/../../../../arm-none-eabi/lib/armv7e-m/libc.a(lib_a-fvwrite.o)
                                                  /nfs/nfs5/home/research/hardware/arm2/gcc-arm-embedded/gcc-arm-none-eabi-4_8-2014q2/bin/../lib/gcc/arm-none-eabi/4.8.4/../../../../arm-none-eabi/lib/armv7e-m/libc.a(lib_a-svfiprintf.o)
memset                                            /nfs/nfs5/home/research/hardware/arm2/gcc-arm-embedded/gcc-arm-none-eabi-4_8-2014q2/bin/../lib/gcc/arm-none-eabi/4.8.4/../../../../arm-none-eabi/lib/armv7e-m/libc.a(lib_a-memset.o)
                                                  /nfs/nfs5/home/research/hardware/arm2/gcc-arm-embedded/gcc-arm-none-eabi-4_8-2014q2/bin/../lib/gcc/arm-none-eabi/4.8.4/../../../../arm-none-eabi/lib/armv7e-m/libc.a(lib_a-callocr.o)
                                                  /nfs/nfs5/home/research/hardware/arm2/gcc-arm-embedded/gcc-arm-none-eabi-4_8-2014q2/bin/../lib/gcc/arm-none-eabi/4.8.4/../../../../arm-none-eabi/lib/armv7e-m/libc.a(lib_a-findfp.o)
                                                  build/obj/btle.o
                                                  build/obj/SensorTile_temperature.o
                                                  build/obj/SensorTile_pressure.o
                                                  build/obj/SensorTile_magneto.o
                                                  build/obj/SensorTile_humidity.o
                                                  build/obj/SensorTile_gyro.o
                                                  build/obj/SensorTile_gg.o
                                                  build/obj/SensorTile_accelero.o
                                                  build/obj/TargetPlatform.o
                                                  build/obj/usb.o
                                                  build/obj/osal.o
mmcConnect                                        build/obj/mmc_spi.o
mmcDisconnect                                     build/obj/mmc_spi.o
mmcErase                                          build/obj/mmc_spi.o
mmcGetInfo                                        build/obj/mmc_spi.o
mmcInit                                           build/obj/mmc_spi.o
                                                  build/obj/hal.o
mmcObjectInit                                     build/obj/mmc_spi.o
mmcSequentialRead                                 build/obj/mmc_spi.o
mmcSequentialWrite                                build/obj/mmc_spi.o
mmcStart                                          build/obj/mmc_spi.o
mmcStartSequentialRead                            build/obj/mmc_spi.o
mmcStartSequentialWrite                           build/obj/mmc_spi.o
mmcStop                                           build/obj/mmc_spi.o
mmcStopSequentialRead                             build/obj/mmc_spi.o
mmcStopSequentialWrite                            build/obj/mmc_spi.o
mmcSync                                           build/obj/mmc_spi.o
mmc_lld_is_card_inserted                          build/obj/board.o
                                                  build/obj/mmc_spi.o
mmc_lld_is_write_protected                        build/obj/board.o
                                                  build/obj/mmc_spi.o
msObjectInit                                      build/obj/memstreams.o
                                                  build/obj/chprintf.o
nan                                               /nfs/nfs5/home/research/hardware/arm2/gcc-arm-embedded/gcc-arm-none-eabi-4_8-2014q2/bin/../lib/gcc/arm-none-eabi/4.8.4/../../../../arm-none-eabi/lib/armv7e-m/libm.a(lib_a-s_nan.o)
                                                  /nfs/nfs5/home/research/hardware/arm2/gcc-arm-embedded/gcc-arm-none-eabi-4_8-2014q2/bin/../lib/gcc/arm-none-eabi/4.8.4/../../../../arm-none-eabi/lib/armv7e-m/libm.a(lib_a-wf_log10.o)
nvicClearPending                                  build/obj/nvic.o
nvicDisableVector                                 build/obj/nvic.o
                                                  build/obj/usb_lld.o
                                                  build/obj/stm32_dma.o
nvicEnableVector                                  build/obj/nvic.o
                                                  build/obj/serial_lld.o
                                                  build/obj/usb_lld.o
                                                  build/obj/stm32_dma.o
nvicSetSystemHandlerPriority                      build/obj/nvic.o
                                                  build/obj/st_lld.o
obqFlush                                          build/obj/hal_buffers.o
obqGetEmptyBufferTimeout                          build/obj/hal_buffers.o
obqGetEmptyBufferTimeoutS                         build/obj/hal_buffers.o
obqGetFullBufferI                                 build/obj/hal_buffers.o
obqObjectInit                                     build/obj/hal_buffers.o
obqPostFullBuffer                                 build/obj/hal_buffers.o
obqPostFullBufferS                                build/obj/hal_buffers.o
obqPutTimeout                                     build/obj/hal_buffers.o
obqReleaseEmptyBufferI                            build/obj/hal_buffers.o
obqResetI                                         build/obj/hal_buffers.o
obqTryFlushI                                      build/obj/hal_buffers.o
obqWriteTimeout                                   build/obj/hal_buffers.o
osx_bv_license                                    build/obj/AudioBV_Manager.o
                                                  build/obj/btle.o
                                                  build/obj/sensor_service.o
osx_mar_license                                   build/obj/MotionAR_Manager.o
                                                  build/obj/btle.o
                                                  build/obj/sensor_service.o
osx_mcp_license                                   build/obj/MotionCP_Manager.o
                                                  build/obj/btle.o
                                                  build/obj/sensor_service.o
osx_mfx_license                                   build/obj/MotionFX_Manager.o
                                                  build/obj/btle.o
                                                  build/obj/sensor_service.o
osx_mgr_license                                   build/obj/MotionGR_Manager.o
                                                  build/obj/btle.o
                                                  build/obj/sensor_service.o
pFlash                                            build/obj/stm32l4xx_hal_flash_ex.o
                                                  build/obj/stm32l4xx_hal_flash.o
palReadBus                                        build/obj/pal.o
palSetBusMode                                     build/obj/pal.o
palWriteBus                                       build/obj/pal.o
pal_default_config                                build/obj/board.o
                                                  build/obj/hal.o
parse_IFR_data_config                             build/obj/bluenrg_utils.o
patternbmk                                        build/obj/testbmk.o
                                                  build/obj/test.o
patterndyn                                        build/obj/testdyn.o
                                                  build/obj/test.o
patternevt                                        build/obj/testevt.o
                                                  build/obj/test.o
patternheap                                       build/obj/testheap.o
                                                  build/obj/test.o
patternmbox                                       build/obj/testmbox.o
                                                  build/obj/test.o
patternmsg                                        build/obj/testmsg.o
                                                  build/obj/test.o
patternmtx                                        build/obj/testmtx.o
                                                  build/obj/test.o
patternpools                                      build/obj/testpools.o
                                                  build/obj/test.o
patternqueues                                     build/obj/testqueues.o
                                                  build/obj/test.o
patternsem                                        build/obj/testsem.o
                                                  build/obj/test.o
patternsys                                        build/obj/testsys.o
                                                  build/obj/test.o
patternthd                                        build/obj/testthd.o
                                                  build/obj/test.o
printf                                            /nfs/nfs5/home/research/hardware/arm2/gcc-arm-embedded/gcc-arm-none-eabi-4_8-2014q2/bin/../lib/gcc/arm-none-eabi/4.8.4/../../../../arm-none-eabi/lib/armv7e-m/libc.a(lib_a-printf.o)
                                                  build/obj/HTS221_Driver.o
program_IFR                                       build/obj/bluenrg_utils.o
program_device                                    build/obj/bluenrg_utils.o
read_IFR                                          build/obj/bluenrg_utils.o
safe_aci_gatt_update_char_value                   build/obj/sensor_service.o
sdGetWouldBlock                                   build/obj/serial.o
sdIncomingDataI                                   build/obj/serial.o
                                                  build/obj/serial_lld.o
sdInit                                            build/obj/serial.o
                                                  build/obj/hal.o
sdObjectInit                                      build/obj/serial.o
                                                  build/obj/serial_lld.o
sdPutWouldBlock                                   build/obj/serial.o
sdRequestDataI                                    build/obj/serial.o
sdStart                                           build/obj/serial.o
                                                  build/obj/main.o
sdStop                                            build/obj/serial.o
sd_lld_init                                       build/obj/serial_lld.o
                                                  build/obj/serial.o
sd_lld_start                                      build/obj/serial_lld.o
                                                  build/obj/serial.o
sd_lld_stop                                       build/obj/serial_lld.o
                                                  build/obj/serial.o
sensitivity                                       build/obj/btle.o
sensitivity_Mul                                   build/obj/btle.o
                                                  build/obj/MotionFX_Manager.o
                                                  build/obj/MotionAR_Manager.o
                                                  build/obj/MotionGR_Manager.o
                                                  build/obj/MotionCP_Manager.o
setConnectable                                    build/obj/sensor_service.o
                                                  build/obj/btle.o
set_connectable                                   build/obj/sensor_service.o
                                                  build/obj/btle.o
set_irq_as_input                                  build/obj/SensorTile_BlueNRG.o
set_irq_as_output                                 build/obj/SensorTile_BlueNRG.o
setlocale                                         /nfs/nfs5/home/research/hardware/arm2/gcc-arm-embedded/gcc-arm-none-eabi-4_8-2014q2/bin/../lib/gcc/arm-none-eabi/4.8.4/../../../../arm-none-eabi/lib/armv7e-m/libc.a(lib_a-locale.o)
shellCreate                                       build/obj/shell.o
                                                  build/obj/main.o
shellCreateStatic                                 build/obj/shell.o
shellExit                                         build/obj/shell.o
shellGetLine                                      build/obj/shell.o
shellInit                                         build/obj/shell.o
                                                  build/obj/main.o
shell_terminated                                  build/obj/shell.o
spiAcquireBus                                     build/obj/spi.o
spiExchange                                       build/obj/spi.o
spiIgnore                                         build/obj/spi.o
                                                  build/obj/mmc_spi.o
spiInit                                           build/obj/spi.o
                                                  build/obj/hal.o
spiObjectInit                                     build/obj/spi.o
                                                  build/obj/spi_lld.o
spiReceive                                        build/obj/spi.o
                                                  build/obj/mmc_spi.o
spiReleaseBus                                     build/obj/spi.o
spiSelect                                         build/obj/spi.o
                                                  build/obj/mmc_spi.o
spiSend                                           build/obj/spi.o
                                                  build/obj/mmc_spi.o
spiStart                                          build/obj/spi.o
                                                  build/obj/mmc_spi.o
spiStartExchange                                  build/obj/spi.o
spiStartIgnore                                    build/obj/spi.o
spiStartReceive                                   build/obj/spi.o
spiStartSend                                      build/obj/spi.o
spiStop                                           build/obj/spi.o
                                                  build/obj/mmc_spi.o
spiUnselect                                       build/obj/spi.o
                                                  build/obj/mmc_spi.o
spi_lld_exchange                                  build/obj/spi_lld.o
                                                  build/obj/spi.o
spi_lld_ignore                                    build/obj/spi_lld.o
                                                  build/obj/spi.o
spi_lld_init                                      build/obj/spi_lld.o
                                                  build/obj/spi.o
spi_lld_polled_exchange                           build/obj/spi_lld.o
spi_lld_polled_rx                                 build/obj/spi_lld.o
spi_lld_polled_tx                                 build/obj/spi_lld.o
spi_lld_receive                                   build/obj/spi_lld.o
                                                  build/obj/spi.o
spi_lld_select                                    build/obj/spi_lld.o
                                                  build/obj/spi.o
spi_lld_send                                      build/obj/spi_lld.o
                                                  build/obj/spi.o
spi_lld_start                                     build/obj/spi_lld.o
                                                  build/obj/spi.o
spi_lld_stop                                      build/obj/spi_lld.o
                                                  build/obj/spi.o
spi_lld_unselect                                  build/obj/spi_lld.o
                                                  build/obj/spi.o
sprintf                                           /nfs/nfs5/home/research/hardware/arm2/gcc-arm-embedded/gcc-arm-none-eabi-4_8-2014q2/bin/../lib/gcc/arm-none-eabi/4.8.4/../../../../arm-none-eabi/lib/armv7e-m/libc.a(lib_a-sprintf.o)
                                                  build/obj/btle.o
                                                  build/obj/MetaDataManager.o
                                                  build/obj/sensor_service.o
stGetAlarm                                        build/obj/st.o
stInit                                            build/obj/st.o
                                                  build/obj/hal.o
stSetAlarm                                        build/obj/st.o
stStartAlarm                                      build/obj/st.o
stStopAlarm                                       build/obj/st.o
st_lld_init                                       build/obj/st_lld.o
                                                  build/obj/st.o
stm32_clock_init                                  build/obj/hal_lld.o
                                                  build/obj/board.o
strcmp                                            /nfs/nfs5/home/research/hardware/arm2/gcc-arm-embedded/gcc-arm-none-eabi-4_8-2014q2/bin/../lib/gcc/arm-none-eabi/4.8.4/../../../../arm-none-eabi/lib/armv7e-m/libc.a(lib_a-strcmp.o)
                                                  /nfs/nfs5/home/research/hardware/arm2/gcc-arm-embedded/gcc-arm-none-eabi-4_8-2014q2/bin/../lib/gcc/arm-none-eabi/4.8.4/../../../../arm-none-eabi/lib/armv7e-m/libc.a(lib_a-locale.o)
                                                  build/obj/shell.o
strlen                                            /nfs/nfs5/home/research/hardware/arm2/gcc-arm-embedded/gcc-arm-none-eabi-4_8-2014q2/bin/../lib/gcc/arm-none-eabi/4.8.4/../../../../arm-none-eabi/lib/armv7e-m/libc.a(lib_a-strlen.o)
                                                  /nfs/nfs5/home/research/hardware/arm2/gcc-arm-embedded/gcc-arm-none-eabi-4_8-2014q2/bin/../lib/gcc/arm-none-eabi/4.8.4/../../../../arm-none-eabi/lib/armv7e-m/libc.a(lib_a-vfiprintf.o)
                                                  /nfs/nfs5/home/research/hardware/arm2/gcc-arm-embedded/gcc-arm-none-eabi-4_8-2014q2/bin/../lib/gcc/arm-none-eabi/4.8.4/../../../../arm-none-eabi/lib/armv7e-m/libc.a(lib_a-svfiprintf.o)
                                                  /nfs/nfs5/home/research/hardware/arm2/gcc-arm-embedded/gcc-arm-none-eabi-4_8-2014q2/bin/../lib/gcc/arm-none-eabi/4.8.4/../../../../arm-none-eabi/lib/armv7e-m/libc.a(lib_a-vfprintf.o)
                                                  /nfs/nfs5/home/research/hardware/arm2/gcc-arm-embedded/gcc-arm-none-eabi-4_8-2014q2/bin/../lib/gcc/arm-none-eabi/4.8.4/../../../../arm-none-eabi/lib/armv7e-m/libc.a(lib_a-svfprintf.o)
strncmp                                           /nfs/nfs5/home/research/hardware/arm2/gcc-arm-embedded/gcc-arm-none-eabi-4_8-2014q2/bin/../lib/gcc/arm-none-eabi/4.8.4/../../../../arm-none-eabi/lib/armv7e-m/libc.a(lib_a-strncmp.o)
                                                  build/obj/MetaDataManager.o
                                                  build/obj/sensor_service.o
strpbrk                                           /nfs/nfs5/home/research/hardware/arm2/gcc-arm-embedded/gcc-arm-none-eabi-4_8-2014q2/bin/../lib/gcc/arm-none-eabi/4.8.4/../../../../arm-none-eabi/lib/armv7e-m/libc.a(lib_a-strpbrk.o)
                                                  build/obj/shell.o
strspn                                            /nfs/nfs5/home/research/hardware/arm2/gcc-arm-embedded/gcc-arm-none-eabi-4_8-2014q2/bin/../lib/gcc/arm-none-eabi/4.8.4/../../../../arm-none-eabi/lib/armv7e-m/libc.a(lib_a-strspn.o)
                                                  build/obj/shell.o
strtol                                            /nfs/nfs5/home/research/hardware/arm2/gcc-arm-embedded/gcc-arm-none-eabi-4_8-2014q2/bin/../lib/gcc/arm-none-eabi/4.8.4/../../../../arm-none-eabi/lib/armv7e-m/libc.a(lib_a-strtol.o)
                                                  /nfs/nfs5/home/research/hardware/arm2/gcc-arm-embedded/gcc-arm-none-eabi-4_8-2014q2/bin/../lib/gcc/arm-none-eabi/4.8.4/../../../../arm-none-eabi/lib/armv7e-m/libc.a(lib_a-atoi.o)
t_coin                                            build/obj/btle.o
test                                              build/obj/testqueues.o
                                                  build/obj/testdyn.o
                                                  build/obj/testheap.o
                                                  build/obj/testmbox.o
                                                  build/obj/test.o
test_emit_token                                   build/obj/test.o
                                                  build/obj/testqueues.o
                                                  build/obj/testdyn.o
                                                  build/obj/testevt.o
                                                  build/obj/testmbox.o
                                                  build/obj/testmsg.o
                                                  build/obj/testmtx.o
                                                  build/obj/testsem.o
                                                  build/obj/testthd.o
test_global_fail                                  build/obj/test.o
test_print                                        build/obj/test.o
                                                  build/obj/testbmk.o
test_println                                      build/obj/test.o
                                                  build/obj/testbmk.o
test_printn                                       build/obj/test.o
                                                  build/obj/testbmk.o
test_start_timer                                  build/obj/test.o
                                                  build/obj/testbmk.o
test_terminate_threads                            build/obj/test.o
                                                  build/obj/testbmk.o
test_timer_done                                   build/obj/testbmk.o
                                                  build/obj/test.o
test_wait_threads                                 build/obj/test.o
                                                  build/obj/testbmk.o
                                                  build/obj/testqueues.o
                                                  build/obj/testdyn.o
                                                  build/obj/testevt.o
                                                  build/obj/testmtx.o
                                                  build/obj/testsem.o
                                                  build/obj/testthd.o
test_wait_tick                                    build/obj/test.o
                                                  build/obj/testbmk.o
                                                  build/obj/testevt.o
                                                  build/obj/testsem.o
                                                  build/obj/testthd.o
testbmk1                                          build/obj/testbmk.o
testbmk10                                         build/obj/testbmk.o
testbmk11                                         build/obj/testbmk.o
testbmk12                                         build/obj/testbmk.o
testbmk13                                         build/obj/testbmk.o
testbmk2                                          build/obj/testbmk.o
testbmk3                                          build/obj/testbmk.o
testbmk4                                          build/obj/testbmk.o
testbmk5                                          build/obj/testbmk.o
testbmk6                                          build/obj/testbmk.o
testbmk7                                          build/obj/testbmk.o
testbmk8                                          build/obj/testbmk.o
testbmk9                                          build/obj/testbmk.o
testdyn1                                          build/obj/testdyn.o
testdyn2                                          build/obj/testdyn.o
testdyn3                                          build/obj/testdyn.o
testevt1                                          build/obj/testevt.o
testevt2                                          build/obj/testevt.o
testevt3                                          build/obj/testevt.o
testheap1                                         build/obj/testheap.o
testmbox1                                         build/obj/testmbox.o
testmsg1                                          build/obj/testmsg.o
testmtx1                                          build/obj/testmtx.o
testmtx4                                          build/obj/testmtx.o
testmtx5                                          build/obj/testmtx.o
testmtx6                                          build/obj/testmtx.o
testmtx7                                          build/obj/testmtx.o
testmtx8                                          build/obj/testmtx.o
testpools1                                        build/obj/testpools.o
testqueues1                                       build/obj/testqueues.o
testqueues2                                       build/obj/testqueues.o
testsem1                                          build/obj/testsem.o
testsem2                                          build/obj/testsem.o
testsem3                                          build/obj/testsem.o
testsem4                                          build/obj/testsem.o
testsys1                                          build/obj/testsys.o
testsys2                                          build/obj/testsys.o
testsys3                                          build/obj/testsys.o
testthd1                                          build/obj/testthd.o
testthd2                                          build/obj/testthd.o
testthd3                                          build/obj/testthd.o
testthd4                                          build/obj/testthd.o
threads                                           build/obj/testbmk.o
                                                  build/obj/testqueues.o
                                                  build/obj/testdyn.o
                                                  build/obj/testevt.o
                                                  build/obj/testmsg.o
                                                  build/obj/testmtx.o
                                                  build/obj/testsem.o
                                                  build/obj/testthd.o
                                                  build/obj/test.o
trunc                                             /nfs/nfs5/home/research/hardware/arm2/gcc-arm-embedded/gcc-arm-none-eabi-4_8-2014q2/bin/../lib/gcc/arm-none-eabi/4.8.4/../../../../arm-none-eabi/lib/armv7e-m/libm.a(lib_a-s_trunc.o)
                                                  build/obj/btle.o
uhCCR4_Val                                        build/obj/btle.o
                                                  build/obj/sensor_service.o
usbDisableEndpointsI                              build/obj/usb.o
usbInit                                           build/obj/usb.o
                                                  build/obj/hal.o
usbInitEndpointI                                  build/obj/usb.o
usbObjectInit                                     build/obj/usb.o
                                                  build/obj/usb_lld.o
usbStallReceiveI                                  build/obj/usb.o
usbStallTransmitI                                 build/obj/usb.o
usbStart                                          build/obj/usb.o
usbStartReceiveI                                  build/obj/usb.o
usbStartTransmitI                                 build/obj/usb.o
usbStop                                           build/obj/usb.o
usb_lld_clear_in                                  build/obj/usb_lld.o
                                                  build/obj/usb.o
usb_lld_clear_out                                 build/obj/usb_lld.o
                                                  build/obj/usb.o
usb_lld_disable_endpoints                         build/obj/usb_lld.o
                                                  build/obj/usb.o
usb_lld_get_status_in                             build/obj/usb_lld.o
                                                  build/obj/usb.o
usb_lld_get_status_out                            build/obj/usb_lld.o
                                                  build/obj/usb.o
usb_lld_init                                      build/obj/usb_lld.o
                                                  build/obj/usb.o
usb_lld_init_endpoint                             build/obj/usb_lld.o
                                                  build/obj/usb.o
usb_lld_pump                                      build/obj/usb_lld.o
usb_lld_read_setup                                build/obj/usb_lld.o
                                                  build/obj/usb.o
usb_lld_reset                                     build/obj/usb_lld.o
                                                  build/obj/usb.o
usb_lld_set_address                               build/obj/usb_lld.o
                                                  build/obj/usb.o
usb_lld_stall_in                                  build/obj/usb_lld.o
                                                  build/obj/usb.o
usb_lld_stall_out                                 build/obj/usb_lld.o
                                                  build/obj/usb.o
usb_lld_start                                     build/obj/usb_lld.o
                                                  build/obj/usb.o
usb_lld_start_in                                  build/obj/usb_lld.o
                                                  build/obj/usb.o
usb_lld_start_out                                 build/obj/usb_lld.o
                                                  build/obj/usb.o
usb_lld_stop                                      build/obj/usb_lld.o
                                                  build/obj/usb.o
uwTick                                            build/obj/stm32l4xx_hal.o
v_dfsdm1ChannelCounter                            build/obj/stm32l4xx_hal_dfsdm.o
verify_IFR                                        build/obj/bluenrg_utils.o
vfiprintf                                         /nfs/nfs5/home/research/hardware/arm2/gcc-arm-embedded/gcc-arm-none-eabi-4_8-2014q2/bin/../lib/gcc/arm-none-eabi/4.8.4/../../../../arm-none-eabi/lib/armv7e-m/libc.a(lib_a-vfiprintf.o)
vfprintf                                          /nfs/nfs5/home/research/hardware/arm2/gcc-arm-embedded/gcc-arm-none-eabi-4_8-2014q2/bin/../lib/gcc/arm-none-eabi/4.8.4/../../../../arm-none-eabi/lib/armv7e-m/libc.a(lib_a-vfprintf.o)
wa                                                build/obj/test.o
                                                  build/obj/testbmk.o
                                                  build/obj/testqueues.o
                                                  build/obj/testdyn.o
                                                  build/obj/testpools.o
                                                  build/obj/testevt.o
                                                  build/obj/testmsg.o
                                                  build/obj/testmtx.o
                                                  build/obj/testsem.o
                                                  build/obj/testthd.o
wcrtomb                                           /nfs/nfs5/home/research/hardware/arm2/gcc-arm-embedded/gcc-arm-none-eabi-4_8-2014q2/bin/../lib/gcc/arm-none-eabi/4.8.4/../../../../arm-none-eabi/lib/armv7e-m/libc.a(lib_a-wcrtomb.o)
