ARM GAS  /tmp/cc2se8Oj.s 			page 1


   1              		.syntax unified
   2              		.cpu cortex-m4
   3              		.fpu softvfp
   4              		.eabi_attribute 20, 1
   5              		.eabi_attribute 21, 1
   6              		.eabi_attribute 23, 3
   7              		.eabi_attribute 24, 1
   8              		.eabi_attribute 25, 1
   9              		.eabi_attribute 26, 1
  10              		.eabi_attribute 30, 6
  11              		.eabi_attribute 34, 1
  12              		.eabi_attribute 18, 4
  13              		.thumb
  14              		.file	"testbmk.c"
  15              		.text
  16              	.Ltext0:
  17              		.cfi_sections	.debug_frame
  18              		.align	2
  19              		.p2align 4,,15
  20              		.thumb
  21              		.thumb_func
  22              		.type	port_lock, %function
  23              	port_lock:
  24              	.LFB127:
  25              		.file 1 "../../../ChibiOS/os/rt/ports/ARMCMx/chcore_v7m.h"
  26              		.loc 1 456 0
  27              		.cfi_startproc
  28              		@ args = 0, pretend = 0, frame = 8
  29              		@ frame_needed = 0, uses_anonymous_args = 0
  30              		@ link register save eliminated.
  31 0000 82B0     		sub	sp, sp, #8
  32              		.cfi_def_cfa_offset 8
  33 0002 2023     		movs	r3, #32
  34 0004 0193     		str	r3, [sp, #4]
  35              	.LBB6:
  36              	.LBB7:
  37              		.file 2 "../../../ChibiOS/os/ext/CMSIS/include/core_cmFunc.h"
  38              		.loc 2 548 0
  39 0006 019B     		ldr	r3, [sp, #4]
  40              	@ 548 "../../../ChibiOS/os/ext/CMSIS/include/core_cmFunc.h" 1
  41 0008 83F31188 		MSR basepri, r3
  42              	@ 0 "" 2
  43              		.thumb
  44              	.LBE7:
  45              	.LBE6:
  46              		.loc 1 473 0
  47 000c 02B0     		add	sp, sp, #8
  48              		@ sp needed
  49 000e 7047     		bx	lr
  50              		.cfi_endproc
  51              	.LFE127:
  52              		.size	port_lock, .-port_lock
  53              		.align	2
  54              		.p2align 4,,15
  55              		.thumb
  56              		.thumb_func
  57              		.type	port_unlock, %function
ARM GAS  /tmp/cc2se8Oj.s 			page 2


  58              	port_unlock:
  59              	.LFB128:
  60              		.loc 1 480 0
  61              		.cfi_startproc
  62              		@ args = 0, pretend = 0, frame = 8
  63              		@ frame_needed = 0, uses_anonymous_args = 0
  64              		@ link register save eliminated.
  65 0010 82B0     		sub	sp, sp, #8
  66              		.cfi_def_cfa_offset 8
  67 0012 0023     		movs	r3, #0
  68 0014 0193     		str	r3, [sp, #4]
  69              	.LBB8:
  70              	.LBB9:
  71              		.loc 2 548 0
  72 0016 019B     		ldr	r3, [sp, #4]
  73              	@ 548 "../../../ChibiOS/os/ext/CMSIS/include/core_cmFunc.h" 1
  74 0018 83F31188 		MSR basepri, r3
  75              	@ 0 "" 2
  76              		.thumb
  77              	.LBE9:
  78              	.LBE8:
  79              		.loc 1 487 0
  80 001c 02B0     		add	sp, sp, #8
  81              		@ sp needed
  82 001e 7047     		bx	lr
  83              		.cfi_endproc
  84              	.LFE128:
  85              		.size	port_unlock, .-port_unlock
  86              		.align	2
  87              		.p2align 4,,15
  88              		.thumb
  89              		.thumb_func
  90              		.type	chSysLock, %function
  91              	chSysLock:
  92              	.LFB156:
  93              		.file 3 "../../../ChibiOS/os/rt/include/chsys.h"
  94              		.loc 3 346 0
  95              		.cfi_startproc
  96              		@ args = 0, pretend = 0, frame = 0
  97              		@ frame_needed = 0, uses_anonymous_args = 0
  98 0020 08B5     		push	{r3, lr}
  99              		.cfi_def_cfa_offset 8
 100              		.cfi_offset 3, -8
 101              		.cfi_offset 14, -4
 102              		.loc 3 348 0
 103 0022 FFF7EDFF 		bl	port_lock
 104              		.loc 3 351 0
 105 0026 08BD     		pop	{r3, pc}
 106              		.cfi_endproc
 107              	.LFE156:
 108              		.size	chSysLock, .-chSysLock
 109              		.align	2
 110 0028 AFF30080 		.p2align 4,,15
 110      AFF30080 
 111              		.thumb
 112              		.thumb_func
 113              		.type	chSysUnlock, %function
ARM GAS  /tmp/cc2se8Oj.s 			page 3


 114              	chSysUnlock:
 115              	.LFB157:
 116              		.loc 3 358 0
 117              		.cfi_startproc
 118              		@ args = 0, pretend = 0, frame = 0
 119              		@ frame_needed = 0, uses_anonymous_args = 0
 120 0030 08B5     		push	{r3, lr}
 121              		.cfi_def_cfa_offset 8
 122              		.cfi_offset 3, -8
 123              		.cfi_offset 14, -4
 124              		.loc 3 371 0
 125 0032 FFF7EDFF 		bl	port_unlock
 126              		.loc 3 372 0
 127 0036 08BD     		pop	{r3, pc}
 128              		.cfi_endproc
 129              	.LFE157:
 130              		.size	chSysUnlock, .-chSysUnlock
 131              		.align	2
 132 0038 AFF30080 		.p2align 4,,15
 132      AFF30080 
 133              		.thumb
 134              		.thumb_func
 135              		.type	chThdGetSelfX, %function
 136              	chThdGetSelfX:
 137              	.LFB178:
 138              		.file 4 "../../../ChibiOS/os/rt/include/chthreads.h"
 139              		.loc 4 174 0
 140              		.cfi_startproc
 141              		@ args = 0, pretend = 0, frame = 0
 142              		@ frame_needed = 0, uses_anonymous_args = 0
 143              		@ link register save eliminated.
 144              		.loc 4 176 0
 145 0040 014B     		ldr	r3, .L7
 146 0042 9B69     		ldr	r3, [r3, #24]
 147              		.loc 4 177 0
 148 0044 1846     		mov	r0, r3
 149 0046 7047     		bx	lr
 150              	.L8:
 151              		.align	2
 152              	.L7:
 153 0048 00000000 		.word	ch
 154              		.cfi_endproc
 155              	.LFE178:
 156              		.size	chThdGetSelfX, .-chThdGetSelfX
 157              		.align	2
 158 004c AFF30080 		.p2align 4,,15
 159              		.thumb
 160              		.thumb_func
 161              		.type	chThdGetPriorityX, %function
 162              	chThdGetPriorityX:
 163              	.LFB179:
 164              		.loc 4 187 0
 165              		.cfi_startproc
 166              		@ args = 0, pretend = 0, frame = 0
 167              		@ frame_needed = 0, uses_anonymous_args = 0
 168 0050 08B5     		push	{r3, lr}
 169              		.cfi_def_cfa_offset 8
ARM GAS  /tmp/cc2se8Oj.s 			page 4


 170              		.cfi_offset 3, -8
 171              		.cfi_offset 14, -4
 172              		.loc 4 189 0
 173 0052 FFF7F5FF 		bl	chThdGetSelfX
 174 0056 0346     		mov	r3, r0
 175 0058 9B68     		ldr	r3, [r3, #8]
 176              		.loc 4 190 0
 177 005a 1846     		mov	r0, r3
 178 005c 08BD     		pop	{r3, pc}
 179              		.cfi_endproc
 180              	.LFE179:
 181              		.size	chThdGetPriorityX, .-chThdGetPriorityX
 182 005e 00BF     		.align	2
 183              		.p2align 4,,15
 184              		.thumb
 185              		.thumb_func
 186              		.type	chThdShouldTerminateX, %function
 187              	chThdShouldTerminateX:
 188              	.LFB181:
 189              		.loc 4 231 0
 190              		.cfi_startproc
 191              		@ args = 0, pretend = 0, frame = 0
 192              		@ frame_needed = 0, uses_anonymous_args = 0
 193 0060 08B5     		push	{r3, lr}
 194              		.cfi_def_cfa_offset 8
 195              		.cfi_offset 3, -8
 196              		.cfi_offset 14, -4
 197              		.loc 4 233 0
 198 0062 FFF7EDFF 		bl	chThdGetSelfX
 199 0066 0346     		mov	r3, r0
 200 0068 5B7F     		ldrb	r3, [r3, #29]	@ zero_extendqisi2
 201 006a 03F00403 		and	r3, r3, #4
 202 006e 002B     		cmp	r3, #0
 203 0070 0CBF     		ite	eq
 204 0072 0023     		moveq	r3, #0
 205 0074 0123     		movne	r3, #1
 206 0076 DBB2     		uxtb	r3, r3
 207              		.loc 4 234 0
 208 0078 1846     		mov	r0, r3
 209 007a 08BD     		pop	{r3, pc}
 210              		.cfi_endproc
 211              	.LFE181:
 212              		.size	chThdShouldTerminateX, .-chThdShouldTerminateX
 213              		.align	2
 214 007c AFF30080 		.p2align 4,,15
 215              		.thumb
 216              		.thumb_func
 217              		.type	chMsgGet, %function
 218              	chMsgGet:
 219              	.LFB212:
 220              		.file 5 "../../../ChibiOS/os/rt/include/chmsg.h"
 221              		.loc 5 96 0
 222              		.cfi_startproc
 223              		@ args = 0, pretend = 0, frame = 8
 224              		@ frame_needed = 0, uses_anonymous_args = 0
 225              		@ link register save eliminated.
 226 0080 82B0     		sub	sp, sp, #8
ARM GAS  /tmp/cc2se8Oj.s 			page 5


 227              		.cfi_def_cfa_offset 8
 228 0082 0190     		str	r0, [sp, #4]
 229              		.loc 5 98 0
 230 0084 019B     		ldr	r3, [sp, #4]
 231 0086 1B6B     		ldr	r3, [r3, #48]
 232              		.loc 5 99 0
 233 0088 1846     		mov	r0, r3
 234 008a 02B0     		add	sp, sp, #8
 235              		@ sp needed
 236 008c 7047     		bx	lr
 237              		.cfi_endproc
 238              	.LFE212:
 239              		.size	chMsgGet, .-chMsgGet
 240 008e 00BF     		.align	2
 241              		.p2align 4,,15
 242              		.thumb
 243              		.thumb_func
 244              		.type	chIQGet, %function
 245              	chIQGet:
 246              	.LFB224:
 247              		.file 6 "../../../ChibiOS/os/rt/include/chqueues.h"
 248              		.loc 6 341 0
 249              		.cfi_startproc
 250              		@ args = 0, pretend = 0, frame = 8
 251              		@ frame_needed = 0, uses_anonymous_args = 0
 252 0090 00B5     		push	{lr}
 253              		.cfi_def_cfa_offset 4
 254              		.cfi_offset 14, -4
 255 0092 83B0     		sub	sp, sp, #12
 256              		.cfi_def_cfa_offset 16
 257 0094 0190     		str	r0, [sp, #4]
 258              		.loc 6 343 0
 259 0096 0198     		ldr	r0, [sp, #4]
 260 0098 4FF0FF31 		mov	r1, #-1
 261 009c FFF7FEFF 		bl	chIQGetTimeout
 262 00a0 0346     		mov	r3, r0
 263              		.loc 6 344 0
 264 00a2 1846     		mov	r0, r3
 265 00a4 03B0     		add	sp, sp, #12
 266              		@ sp needed
 267 00a6 5DF804FB 		ldr	pc, [sp], #4
 268              		.cfi_endproc
 269              	.LFE224:
 270              		.size	chIQGet, .-chIQGet
 271              		.bss
 272              		.align	2
 273              	sem1:
 274 0000 00000000 		.space	12
 274      00000000 
 274      00000000 
 275              		.align	2
 276              	mtx1:
 277 000c 00000000 		.space	16
 277      00000000 
 277      00000000 
 277      00000000 
 278              		.text
ARM GAS  /tmp/cc2se8Oj.s 			page 6


 279 00aa 00BF     		.align	2
 280 00ac AFF30080 		.p2align 4,,15
 281              		.thumb
 282              		.thumb_func
 283              		.type	thread1, %function
 284              	thread1:
 285              	.LFB230:
 286              		.file 7 "../../../ChibiOS/test/rt/testbmk.c"
 287              		.loc 7 66 0
 288              		.cfi_startproc
 289              		@ args = 0, pretend = 0, frame = 8
 290              		@ frame_needed = 0, uses_anonymous_args = 0
 291 00b0 00B5     		push	{lr}
 292              		.cfi_def_cfa_offset 4
 293              		.cfi_offset 14, -4
 294 00b2 83B0     		sub	sp, sp, #12
 295              		.cfi_def_cfa_offset 16
 296 00b4 0190     		str	r0, [sp, #4]
 297              		.loc 7 68 0
 298 00b6 019B     		ldr	r3, [sp, #4]
 299 00b8 1846     		mov	r0, r3
 300 00ba FFF7FEFF 		bl	chThdExit
 301              		.loc 7 69 0
 302 00be 03B0     		add	sp, sp, #12
 303              		@ sp needed
 304 00c0 5DF804FB 		ldr	pc, [sp], #4
 305              		.cfi_endproc
 306              	.LFE230:
 307              		.size	thread1, .-thread1
 308              		.align	2
 309 00c4 AFF30080 		.p2align 4,,15
 309      AFF30080 
 309      AFF30080 
 310              		.thumb
 311              		.thumb_func
 312              		.type	thread2, %function
 313              	thread2:
 314              	.LFB231:
 315              		.loc 7 72 0
 316              		.cfi_startproc
 317              		@ args = 0, pretend = 0, frame = 16
 318              		@ frame_needed = 0, uses_anonymous_args = 0
 319 00d0 00B5     		push	{lr}
 320              		.cfi_def_cfa_offset 4
 321              		.cfi_offset 14, -4
 322 00d2 85B0     		sub	sp, sp, #20
 323              		.cfi_def_cfa_offset 24
 324 00d4 0190     		str	r0, [sp, #4]
 325              	.L19:
 326              		.loc 7 78 0 discriminator 1
 327 00d6 FFF7FEFF 		bl	chMsgWait
 328 00da 0390     		str	r0, [sp, #12]
 329              		.loc 7 79 0 discriminator 1
 330 00dc 0398     		ldr	r0, [sp, #12]
 331 00de FFF7CFFF 		bl	chMsgGet
 332 00e2 0290     		str	r0, [sp, #8]
 333              		.loc 7 80 0 discriminator 1
ARM GAS  /tmp/cc2se8Oj.s 			page 7


 334 00e4 0398     		ldr	r0, [sp, #12]
 335 00e6 0299     		ldr	r1, [sp, #8]
 336 00e8 FFF7FEFF 		bl	chMsgRelease
 337              		.loc 7 81 0 discriminator 1
 338 00ec 029B     		ldr	r3, [sp, #8]
 339 00ee 002B     		cmp	r3, #0
 340 00f0 F1D1     		bne	.L19
 341              		.loc 7 82 0
 342 00f2 05B0     		add	sp, sp, #20
 343              		@ sp needed
 344 00f4 5DF804FB 		ldr	pc, [sp], #4
 345              		.cfi_endproc
 346              	.LFE231:
 347              		.size	thread2, .-thread2
 348              		.align	2
 349 00f8 AFF30080 		.p2align 4,,15
 349      AFF30080 
 350              		.thumb
 351              		.thumb_func
 352              		.type	msg_loop_test, %function
 353              	msg_loop_test:
 354              	.LFB232:
 355              		.loc 7 87 0
 356              		.cfi_startproc
 357              		@ args = 0, pretend = 0, frame = 16
 358              		@ frame_needed = 0, uses_anonymous_args = 0
 359 0100 00B5     		push	{lr}
 360              		.cfi_def_cfa_offset 4
 361              		.cfi_offset 14, -4
 362 0102 85B0     		sub	sp, sp, #20
 363              		.cfi_def_cfa_offset 24
 364 0104 0190     		str	r0, [sp, #4]
 365              		.loc 7 89 0
 366 0106 0023     		movs	r3, #0
 367 0108 0393     		str	r3, [sp, #12]
 368              		.loc 7 90 0
 369 010a FFF7FEFF 		bl	test_wait_tick
 370              		.loc 7 91 0
 371 010e 4FF47A70 		mov	r0, #1000
 372 0112 FFF7FEFF 		bl	test_start_timer
 373              	.L21:
 374              		.loc 7 93 0 discriminator 1
 375 0116 0198     		ldr	r0, [sp, #4]
 376 0118 0121     		movs	r1, #1
 377 011a FFF7FEFF 		bl	chMsgSend
 378              		.loc 7 94 0 discriminator 1
 379 011e 039B     		ldr	r3, [sp, #12]
 380 0120 0133     		adds	r3, r3, #1
 381 0122 0393     		str	r3, [sp, #12]
 382              		.loc 7 98 0 discriminator 1
 383 0124 074B     		ldr	r3, .L23
 384 0126 1B78     		ldrb	r3, [r3]	@ zero_extendqisi2
 385 0128 83F00103 		eor	r3, r3, #1
 386 012c DBB2     		uxtb	r3, r3
 387 012e 002B     		cmp	r3, #0
 388 0130 F1D1     		bne	.L21
 389              		.loc 7 99 0
ARM GAS  /tmp/cc2se8Oj.s 			page 8


 390 0132 0198     		ldr	r0, [sp, #4]
 391 0134 0021     		movs	r1, #0
 392 0136 FFF7FEFF 		bl	chMsgSend
 393              		.loc 7 100 0
 394 013a 039B     		ldr	r3, [sp, #12]
 395              		.loc 7 101 0
 396 013c 1846     		mov	r0, r3
 397 013e 05B0     		add	sp, sp, #20
 398              		@ sp needed
 399 0140 5DF804FB 		ldr	pc, [sp], #4
 400              	.L24:
 401              		.align	2
 402              	.L23:
 403 0144 00000000 		.word	test_timer_done
 404              		.cfi_endproc
 405              	.LFE232:
 406              		.size	msg_loop_test, .-msg_loop_test
 407              		.section	.rodata
 408              		.align	2
 409              	.LC0:
 410 0000 2D2D2D20 		.ascii	"--- Score : \000"
 410      53636F72 
 410      65203A20 
 410      00
 411 000d 000000   		.align	2
 412              	.LC1:
 413 0010 206D7367 		.ascii	" msgs/S, \000"
 413      732F532C 
 413      2000
 414 001a 0000     		.align	2
 415              	.LC2:
 416 001c 20637478 		.ascii	" ctxswc/S\000"
 416      7377632F 
 416      5300
 417              		.text
 418              		.align	2
 419 0148 AFF30080 		.p2align 4,,15
 419      AFF30080 
 420              		.thumb
 421              		.thumb_func
 422              		.type	bmk1_execute, %function
 423              	bmk1_execute:
 424              	.LFB233:
 425              		.loc 7 112 0
 426              		.cfi_startproc
 427              		@ args = 0, pretend = 0, frame = 8
 428              		@ frame_needed = 0, uses_anonymous_args = 0
 429 0150 10B5     		push	{r4, lr}
 430              		.cfi_def_cfa_offset 8
 431              		.cfi_offset 4, -8
 432              		.cfi_offset 14, -4
 433 0152 84B0     		sub	sp, sp, #16
 434              		.cfi_def_cfa_offset 24
 435              		.loc 7 115 0
 436 0154 164B     		ldr	r3, .L26
 437 0156 1C68     		ldr	r4, [r3]
 438 0158 FFF77AFF 		bl	chThdGetPriorityX
ARM GAS  /tmp/cc2se8Oj.s 			page 9


 439 015c 0346     		mov	r3, r0
 440 015e 013B     		subs	r3, r3, #1
 441 0160 0022     		movs	r2, #0
 442 0162 0092     		str	r2, [sp]
 443 0164 2046     		mov	r0, r4
 444 0166 4FF4A471 		mov	r1, #328
 445 016a 1A46     		mov	r2, r3
 446 016c 114B     		ldr	r3, .L26+4
 447 016e FFF7FEFF 		bl	chThdCreateStatic
 448 0172 0246     		mov	r2, r0
 449 0174 104B     		ldr	r3, .L26+8
 450 0176 1A60     		str	r2, [r3]
 451              		.loc 7 116 0
 452 0178 0F4B     		ldr	r3, .L26+8
 453 017a 1B68     		ldr	r3, [r3]
 454 017c 1846     		mov	r0, r3
 455 017e FFF7BFFF 		bl	msg_loop_test
 456 0182 0390     		str	r0, [sp, #12]
 457              		.loc 7 117 0
 458 0184 FFF7FEFF 		bl	test_wait_threads
 459              		.loc 7 118 0
 460 0188 0C48     		ldr	r0, .L26+12
 461 018a FFF7FEFF 		bl	test_print
 462              		.loc 7 119 0
 463 018e 0398     		ldr	r0, [sp, #12]
 464 0190 FFF7FEFF 		bl	test_printn
 465              		.loc 7 120 0
 466 0194 0A48     		ldr	r0, .L26+16
 467 0196 FFF7FEFF 		bl	test_print
 468              		.loc 7 121 0
 469 019a 039B     		ldr	r3, [sp, #12]
 470 019c 5B00     		lsls	r3, r3, #1
 471 019e 1846     		mov	r0, r3
 472 01a0 FFF7FEFF 		bl	test_printn
 473              		.loc 7 122 0
 474 01a4 0748     		ldr	r0, .L26+20
 475 01a6 FFF7FEFF 		bl	test_println
 476              		.loc 7 123 0
 477 01aa 04B0     		add	sp, sp, #16
 478              		@ sp needed
 479 01ac 10BD     		pop	{r4, pc}
 480              	.L27:
 481 01ae 00BF     		.align	2
 482              	.L26:
 483 01b0 00000000 		.word	wa
 484 01b4 00000000 		.word	thread2
 485 01b8 00000000 		.word	threads
 486 01bc 00000000 		.word	.LC0
 487 01c0 10000000 		.word	.LC1
 488 01c4 1C000000 		.word	.LC2
 489              		.cfi_endproc
 490              	.LFE233:
 491              		.size	bmk1_execute, .-bmk1_execute
 492              		.global	testbmk1
 493              		.section	.rodata
 494 0026 0000     		.align	2
 495              	.LC3:
ARM GAS  /tmp/cc2se8Oj.s 			page 10


 496 0028 42656E63 		.ascii	"Benchmark, messages #1\000"
 496      686D6172 
 496      6B2C206D 
 496      65737361 
 496      67657320 
 497 003f 00       		.align	2
 498              		.type	testbmk1, %object
 499              		.size	testbmk1, 16
 500              	testbmk1:
 501 0040 28000000 		.word	.LC3
 502 0044 00000000 		.word	0
 503 0048 00000000 		.word	0
 504 004c 00000000 		.word	bmk1_execute
 505              		.text
 506              		.align	2
 507 01c8 AFF30080 		.p2align 4,,15
 507      AFF30080 
 508              		.thumb
 509              		.thumb_func
 510              		.type	bmk2_execute, %function
 511              	bmk2_execute:
 512              	.LFB234:
 513              		.loc 7 141 0
 514              		.cfi_startproc
 515              		@ args = 0, pretend = 0, frame = 8
 516              		@ frame_needed = 0, uses_anonymous_args = 0
 517 01d0 10B5     		push	{r4, lr}
 518              		.cfi_def_cfa_offset 8
 519              		.cfi_offset 4, -8
 520              		.cfi_offset 14, -4
 521 01d2 84B0     		sub	sp, sp, #16
 522              		.cfi_def_cfa_offset 24
 523              		.loc 7 144 0
 524 01d4 164B     		ldr	r3, .L29
 525 01d6 1C68     		ldr	r4, [r3]
 526 01d8 FFF73AFF 		bl	chThdGetPriorityX
 527 01dc 0346     		mov	r3, r0
 528 01de 0133     		adds	r3, r3, #1
 529 01e0 0022     		movs	r2, #0
 530 01e2 0092     		str	r2, [sp]
 531 01e4 2046     		mov	r0, r4
 532 01e6 4FF4A471 		mov	r1, #328
 533 01ea 1A46     		mov	r2, r3
 534 01ec 114B     		ldr	r3, .L29+4
 535 01ee FFF7FEFF 		bl	chThdCreateStatic
 536 01f2 0246     		mov	r2, r0
 537 01f4 104B     		ldr	r3, .L29+8
 538 01f6 1A60     		str	r2, [r3]
 539              		.loc 7 145 0
 540 01f8 0F4B     		ldr	r3, .L29+8
 541 01fa 1B68     		ldr	r3, [r3]
 542 01fc 1846     		mov	r0, r3
 543 01fe FFF77FFF 		bl	msg_loop_test
 544 0202 0390     		str	r0, [sp, #12]
 545              		.loc 7 146 0
 546 0204 FFF7FEFF 		bl	test_wait_threads
 547              		.loc 7 147 0
ARM GAS  /tmp/cc2se8Oj.s 			page 11


 548 0208 0C48     		ldr	r0, .L29+12
 549 020a FFF7FEFF 		bl	test_print
 550              		.loc 7 148 0
 551 020e 0398     		ldr	r0, [sp, #12]
 552 0210 FFF7FEFF 		bl	test_printn
 553              		.loc 7 149 0
 554 0214 0A48     		ldr	r0, .L29+16
 555 0216 FFF7FEFF 		bl	test_print
 556              		.loc 7 150 0
 557 021a 039B     		ldr	r3, [sp, #12]
 558 021c 5B00     		lsls	r3, r3, #1
 559 021e 1846     		mov	r0, r3
 560 0220 FFF7FEFF 		bl	test_printn
 561              		.loc 7 151 0
 562 0224 0748     		ldr	r0, .L29+20
 563 0226 FFF7FEFF 		bl	test_println
 564              		.loc 7 152 0
 565 022a 04B0     		add	sp, sp, #16
 566              		@ sp needed
 567 022c 10BD     		pop	{r4, pc}
 568              	.L30:
 569 022e 00BF     		.align	2
 570              	.L29:
 571 0230 00000000 		.word	wa
 572 0234 00000000 		.word	thread2
 573 0238 00000000 		.word	threads
 574 023c 00000000 		.word	.LC0
 575 0240 10000000 		.word	.LC1
 576 0244 1C000000 		.word	.LC2
 577              		.cfi_endproc
 578              	.LFE234:
 579              		.size	bmk2_execute, .-bmk2_execute
 580              		.global	testbmk2
 581              		.section	.rodata
 582              		.align	2
 583              	.LC4:
 584 0050 42656E63 		.ascii	"Benchmark, messages #2\000"
 584      686D6172 
 584      6B2C206D 
 584      65737361 
 584      67657320 
 585 0067 00       		.align	2
 586              		.type	testbmk2, %object
 587              		.size	testbmk2, 16
 588              	testbmk2:
 589 0068 50000000 		.word	.LC4
 590 006c 00000000 		.word	0
 591 0070 00000000 		.word	0
 592 0074 00000000 		.word	bmk2_execute
 593              		.text
 594              		.align	2
 595 0248 AFF30080 		.p2align 4,,15
 595      AFF30080 
 596              		.thumb
 597              		.thumb_func
 598              		.type	bmk3_execute, %function
 599              	bmk3_execute:
ARM GAS  /tmp/cc2se8Oj.s 			page 12


 600              	.LFB235:
 601              		.loc 7 171 0
 602              		.cfi_startproc
 603              		@ args = 0, pretend = 0, frame = 8
 604              		@ frame_needed = 0, uses_anonymous_args = 0
 605 0250 10B5     		push	{r4, lr}
 606              		.cfi_def_cfa_offset 8
 607              		.cfi_offset 4, -8
 608              		.cfi_offset 14, -4
 609 0252 84B0     		sub	sp, sp, #16
 610              		.cfi_def_cfa_offset 24
 611              		.loc 7 174 0
 612 0254 3A4B     		ldr	r3, .L32
 613 0256 1C68     		ldr	r4, [r3]
 614 0258 FFF7FAFE 		bl	chThdGetPriorityX
 615 025c 0346     		mov	r3, r0
 616 025e 0133     		adds	r3, r3, #1
 617 0260 0022     		movs	r2, #0
 618 0262 0092     		str	r2, [sp]
 619 0264 2046     		mov	r0, r4
 620 0266 4FF4A471 		mov	r1, #328
 621 026a 1A46     		mov	r2, r3
 622 026c 354B     		ldr	r3, .L32+4
 623 026e FFF7FEFF 		bl	chThdCreateStatic
 624 0272 0246     		mov	r2, r0
 625 0274 344B     		ldr	r3, .L32+8
 626 0276 1A60     		str	r2, [r3]
 627              		.loc 7 175 0
 628 0278 314B     		ldr	r3, .L32
 629 027a 5C68     		ldr	r4, [r3, #4]
 630 027c FFF7E8FE 		bl	chThdGetPriorityX
 631 0280 0346     		mov	r3, r0
 632 0282 023B     		subs	r3, r3, #2
 633 0284 0022     		movs	r2, #0
 634 0286 0092     		str	r2, [sp]
 635 0288 2046     		mov	r0, r4
 636 028a 4FF4A471 		mov	r1, #328
 637 028e 1A46     		mov	r2, r3
 638 0290 2E4B     		ldr	r3, .L32+12
 639 0292 FFF7FEFF 		bl	chThdCreateStatic
 640 0296 0246     		mov	r2, r0
 641 0298 2B4B     		ldr	r3, .L32+8
 642 029a 5A60     		str	r2, [r3, #4]
 643              		.loc 7 176 0
 644 029c 284B     		ldr	r3, .L32
 645 029e 9C68     		ldr	r4, [r3, #8]
 646 02a0 FFF7D6FE 		bl	chThdGetPriorityX
 647 02a4 0346     		mov	r3, r0
 648 02a6 033B     		subs	r3, r3, #3
 649 02a8 0022     		movs	r2, #0
 650 02aa 0092     		str	r2, [sp]
 651 02ac 2046     		mov	r0, r4
 652 02ae 4FF4A471 		mov	r1, #328
 653 02b2 1A46     		mov	r2, r3
 654 02b4 254B     		ldr	r3, .L32+12
 655 02b6 FFF7FEFF 		bl	chThdCreateStatic
 656 02ba 0246     		mov	r2, r0
ARM GAS  /tmp/cc2se8Oj.s 			page 13


 657 02bc 224B     		ldr	r3, .L32+8
 658 02be 9A60     		str	r2, [r3, #8]
 659              		.loc 7 177 0
 660 02c0 1F4B     		ldr	r3, .L32
 661 02c2 DC68     		ldr	r4, [r3, #12]
 662 02c4 FFF7C4FE 		bl	chThdGetPriorityX
 663 02c8 0346     		mov	r3, r0
 664 02ca 043B     		subs	r3, r3, #4
 665 02cc 0022     		movs	r2, #0
 666 02ce 0092     		str	r2, [sp]
 667 02d0 2046     		mov	r0, r4
 668 02d2 4FF4A471 		mov	r1, #328
 669 02d6 1A46     		mov	r2, r3
 670 02d8 1C4B     		ldr	r3, .L32+12
 671 02da FFF7FEFF 		bl	chThdCreateStatic
 672 02de 0246     		mov	r2, r0
 673 02e0 194B     		ldr	r3, .L32+8
 674 02e2 DA60     		str	r2, [r3, #12]
 675              		.loc 7 178 0
 676 02e4 164B     		ldr	r3, .L32
 677 02e6 1C69     		ldr	r4, [r3, #16]
 678 02e8 FFF7B2FE 		bl	chThdGetPriorityX
 679 02ec 0346     		mov	r3, r0
 680 02ee 053B     		subs	r3, r3, #5
 681 02f0 0022     		movs	r2, #0
 682 02f2 0092     		str	r2, [sp]
 683 02f4 2046     		mov	r0, r4
 684 02f6 4FF4A471 		mov	r1, #328
 685 02fa 1A46     		mov	r2, r3
 686 02fc 134B     		ldr	r3, .L32+12
 687 02fe FFF7FEFF 		bl	chThdCreateStatic
 688 0302 0246     		mov	r2, r0
 689 0304 104B     		ldr	r3, .L32+8
 690 0306 1A61     		str	r2, [r3, #16]
 691              		.loc 7 179 0
 692 0308 0F4B     		ldr	r3, .L32+8
 693 030a 1B68     		ldr	r3, [r3]
 694 030c 1846     		mov	r0, r3
 695 030e FFF7F7FE 		bl	msg_loop_test
 696 0312 0390     		str	r0, [sp, #12]
 697              		.loc 7 180 0
 698 0314 FFF7FEFF 		bl	test_wait_threads
 699              		.loc 7 181 0
 700 0318 0D48     		ldr	r0, .L32+16
 701 031a FFF7FEFF 		bl	test_print
 702              		.loc 7 182 0
 703 031e 0398     		ldr	r0, [sp, #12]
 704 0320 FFF7FEFF 		bl	test_printn
 705              		.loc 7 183 0
 706 0324 0B48     		ldr	r0, .L32+20
 707 0326 FFF7FEFF 		bl	test_print
 708              		.loc 7 184 0
 709 032a 039B     		ldr	r3, [sp, #12]
 710 032c 5B00     		lsls	r3, r3, #1
 711 032e 1846     		mov	r0, r3
 712 0330 FFF7FEFF 		bl	test_printn
 713              		.loc 7 185 0
ARM GAS  /tmp/cc2se8Oj.s 			page 14


 714 0334 0848     		ldr	r0, .L32+24
 715 0336 FFF7FEFF 		bl	test_println
 716              		.loc 7 186 0
 717 033a 04B0     		add	sp, sp, #16
 718              		@ sp needed
 719 033c 10BD     		pop	{r4, pc}
 720              	.L33:
 721 033e 00BF     		.align	2
 722              	.L32:
 723 0340 00000000 		.word	wa
 724 0344 00000000 		.word	thread2
 725 0348 00000000 		.word	threads
 726 034c 00000000 		.word	thread1
 727 0350 00000000 		.word	.LC0
 728 0354 10000000 		.word	.LC1
 729 0358 1C000000 		.word	.LC2
 730              		.cfi_endproc
 731              	.LFE235:
 732              		.size	bmk3_execute, .-bmk3_execute
 733              		.global	testbmk3
 734              		.section	.rodata
 735              		.align	2
 736              	.LC5:
 737 0078 42656E63 		.ascii	"Benchmark, messages #3\000"
 737      686D6172 
 737      6B2C206D 
 737      65737361 
 737      67657320 
 738 008f 00       		.align	2
 739              		.type	testbmk3, %object
 740              		.size	testbmk3, 16
 741              	testbmk3:
 742 0090 78000000 		.word	.LC5
 743 0094 00000000 		.word	0
 744 0098 00000000 		.word	0
 745 009c 00000000 		.word	bmk3_execute
 746              		.text
 747              		.align	2
 748 035c AFF30080 		.p2align 4,,15
 749              		.thumb
 750              		.thumb_func
 751              		.type	thread4, %function
 752              	thread4:
 753              	.LFB236:
 754              		.loc 7 206 0
 755              		.cfi_startproc
 756              		@ args = 0, pretend = 0, frame = 16
 757              		@ frame_needed = 0, uses_anonymous_args = 0
 758 0360 00B5     		push	{lr}
 759              		.cfi_def_cfa_offset 4
 760              		.cfi_offset 14, -4
 761 0362 85B0     		sub	sp, sp, #20
 762              		.cfi_def_cfa_offset 24
 763 0364 0190     		str	r0, [sp, #4]
 764              		.loc 7 208 0
 765 0366 FFF76BFE 		bl	chThdGetSelfX
 766 036a 0390     		str	r0, [sp, #12]
ARM GAS  /tmp/cc2se8Oj.s 			page 15


 767              		.loc 7 211 0
 768 036c FFF758FE 		bl	chSysLock
 769              	.L35:
 770              		.loc 7 213 0 discriminator 1
 771 0370 0320     		movs	r0, #3
 772 0372 FFF7FEFF 		bl	chSchGoSleepS
 773              		.loc 7 214 0 discriminator 1
 774 0376 039B     		ldr	r3, [sp, #12]
 775 0378 1B6A     		ldr	r3, [r3, #32]
 776 037a 0293     		str	r3, [sp, #8]
 777              		.loc 7 215 0 discriminator 1
 778 037c 029B     		ldr	r3, [sp, #8]
 779 037e 002B     		cmp	r3, #0
 780 0380 F6D0     		beq	.L35
 781              		.loc 7 216 0
 782 0382 FFF755FE 		bl	chSysUnlock
 783              		.loc 7 217 0
 784 0386 05B0     		add	sp, sp, #20
 785              		@ sp needed
 786 0388 5DF804FB 		ldr	pc, [sp], #4
 787              		.cfi_endproc
 788              	.LFE236:
 789              		.size	thread4, .-thread4
 790              		.align	2
 791 038c AFF30080 		.p2align 4,,15
 792              		.thumb
 793              		.thumb_func
 794              		.type	bmk4_execute, %function
 795              	bmk4_execute:
 796              	.LFB237:
 797              		.loc 7 219 0
 798              		.cfi_startproc
 799              		@ args = 0, pretend = 0, frame = 8
 800              		@ frame_needed = 0, uses_anonymous_args = 0
 801 0390 10B5     		push	{r4, lr}
 802              		.cfi_def_cfa_offset 8
 803              		.cfi_offset 4, -8
 804              		.cfi_offset 14, -4
 805 0392 84B0     		sub	sp, sp, #16
 806              		.cfi_def_cfa_offset 24
 807              		.loc 7 223 0
 808 0394 294B     		ldr	r3, .L38
 809 0396 1C68     		ldr	r4, [r3]
 810 0398 FFF75AFE 		bl	chThdGetPriorityX
 811 039c 0346     		mov	r3, r0
 812 039e 0133     		adds	r3, r3, #1
 813 03a0 0022     		movs	r2, #0
 814 03a2 0092     		str	r2, [sp]
 815 03a4 2046     		mov	r0, r4
 816 03a6 4FF4A471 		mov	r1, #328
 817 03aa 1A46     		mov	r2, r3
 818 03ac 244B     		ldr	r3, .L38+4
 819 03ae FFF7FEFF 		bl	chThdCreateStatic
 820 03b2 0246     		mov	r2, r0
 821 03b4 234B     		ldr	r3, .L38+8
 822 03b6 1A60     		str	r2, [r3]
 823 03b8 224B     		ldr	r3, .L38+8
ARM GAS  /tmp/cc2se8Oj.s 			page 16


 824 03ba 1B68     		ldr	r3, [r3]
 825 03bc 0293     		str	r3, [sp, #8]
 826              		.loc 7 225 0
 827 03be 0023     		movs	r3, #0
 828 03c0 0393     		str	r3, [sp, #12]
 829              		.loc 7 226 0
 830 03c2 FFF7FEFF 		bl	test_wait_tick
 831              		.loc 7 227 0
 832 03c6 4FF47A70 		mov	r0, #1000
 833 03ca FFF7FEFF 		bl	test_start_timer
 834              	.L37:
 835              		.loc 7 229 0 discriminator 1
 836 03ce FFF727FE 		bl	chSysLock
 837              		.loc 7 230 0 discriminator 1
 838 03d2 0298     		ldr	r0, [sp, #8]
 839 03d4 0021     		movs	r1, #0
 840 03d6 FFF7FEFF 		bl	chSchWakeupS
 841              		.loc 7 231 0 discriminator 1
 842 03da 0298     		ldr	r0, [sp, #8]
 843 03dc 0021     		movs	r1, #0
 844 03de FFF7FEFF 		bl	chSchWakeupS
 845              		.loc 7 232 0 discriminator 1
 846 03e2 0298     		ldr	r0, [sp, #8]
 847 03e4 0021     		movs	r1, #0
 848 03e6 FFF7FEFF 		bl	chSchWakeupS
 849              		.loc 7 233 0 discriminator 1
 850 03ea 0298     		ldr	r0, [sp, #8]
 851 03ec 0021     		movs	r1, #0
 852 03ee FFF7FEFF 		bl	chSchWakeupS
 853              		.loc 7 234 0 discriminator 1
 854 03f2 FFF71DFE 		bl	chSysUnlock
 855              		.loc 7 235 0 discriminator 1
 856 03f6 039B     		ldr	r3, [sp, #12]
 857 03f8 0433     		adds	r3, r3, #4
 858 03fa 0393     		str	r3, [sp, #12]
 859              		.loc 7 239 0 discriminator 1
 860 03fc 124B     		ldr	r3, .L38+12
 861 03fe 1B78     		ldrb	r3, [r3]	@ zero_extendqisi2
 862 0400 83F00103 		eor	r3, r3, #1
 863 0404 DBB2     		uxtb	r3, r3
 864 0406 002B     		cmp	r3, #0
 865 0408 E1D1     		bne	.L37
 866              		.loc 7 240 0
 867 040a FFF709FE 		bl	chSysLock
 868              		.loc 7 241 0
 869 040e 0298     		ldr	r0, [sp, #8]
 870 0410 4FF0FF31 		mov	r1, #-1
 871 0414 FFF7FEFF 		bl	chSchWakeupS
 872              		.loc 7 242 0
 873 0418 FFF70AFE 		bl	chSysUnlock
 874              		.loc 7 244 0
 875 041c FFF7FEFF 		bl	test_wait_threads
 876              		.loc 7 245 0
 877 0420 0A48     		ldr	r0, .L38+16
 878 0422 FFF7FEFF 		bl	test_print
 879              		.loc 7 246 0
 880 0426 039B     		ldr	r3, [sp, #12]
ARM GAS  /tmp/cc2se8Oj.s 			page 17


 881 0428 5B00     		lsls	r3, r3, #1
 882 042a 1846     		mov	r0, r3
 883 042c FFF7FEFF 		bl	test_printn
 884              		.loc 7 247 0
 885 0430 0748     		ldr	r0, .L38+20
 886 0432 FFF7FEFF 		bl	test_println
 887              		.loc 7 248 0
 888 0436 04B0     		add	sp, sp, #16
 889              		@ sp needed
 890 0438 10BD     		pop	{r4, pc}
 891              	.L39:
 892 043a 00BF     		.align	2
 893              	.L38:
 894 043c 00000000 		.word	wa
 895 0440 00000000 		.word	thread4
 896 0444 00000000 		.word	threads
 897 0448 00000000 		.word	test_timer_done
 898 044c 00000000 		.word	.LC0
 899 0450 1C000000 		.word	.LC2
 900              		.cfi_endproc
 901              	.LFE237:
 902              		.size	bmk4_execute, .-bmk4_execute
 903              		.global	testbmk4
 904              		.section	.rodata
 905              		.align	2
 906              	.LC6:
 907 00a0 42656E63 		.ascii	"Benchmark, context switch\000"
 907      686D6172 
 907      6B2C2063 
 907      6F6E7465 
 907      78742073 
 908 00ba 0000     		.align	2
 909              		.type	testbmk4, %object
 910              		.size	testbmk4, 16
 911              	testbmk4:
 912 00bc A0000000 		.word	.LC6
 913 00c0 00000000 		.word	0
 914 00c4 00000000 		.word	0
 915 00c8 00000000 		.word	bmk4_execute
 916              		.align	2
 917              	.LC7:
 918 00cc 20746872 		.ascii	" threads/S\000"
 918      65616473 
 918      2F5300
 919              		.text
 920              		.align	2
 921 0454 AFF30080 		.p2align 4,,15
 921      AFF30080 
 921      AFF30080 
 922              		.thumb
 923              		.thumb_func
 924              		.type	bmk5_execute, %function
 925              	bmk5_execute:
 926              	.LFB238:
 927              		.loc 7 268 0
 928              		.cfi_startproc
 929              		@ args = 0, pretend = 0, frame = 16
ARM GAS  /tmp/cc2se8Oj.s 			page 18


 930              		@ frame_needed = 0, uses_anonymous_args = 0
 931 0460 00B5     		push	{lr}
 932              		.cfi_def_cfa_offset 4
 933              		.cfi_offset 14, -4
 934 0462 87B0     		sub	sp, sp, #28
 935              		.cfi_def_cfa_offset 32
 936              		.loc 7 270 0
 937 0464 0023     		movs	r3, #0
 938 0466 0593     		str	r3, [sp, #20]
 939              		.loc 7 271 0
 940 0468 184B     		ldr	r3, .L42
 941 046a 1B68     		ldr	r3, [r3]
 942 046c 0493     		str	r3, [sp, #16]
 943              		.loc 7 272 0
 944 046e FFF7EFFD 		bl	chThdGetPriorityX
 945 0472 0346     		mov	r3, r0
 946 0474 013B     		subs	r3, r3, #1
 947 0476 0393     		str	r3, [sp, #12]
 948              		.loc 7 273 0
 949 0478 FFF7FEFF 		bl	test_wait_tick
 950              		.loc 7 274 0
 951 047c 4FF47A70 		mov	r0, #1000
 952 0480 FFF7FEFF 		bl	test_start_timer
 953              	.L41:
 954              		.loc 7 276 0 discriminator 1
 955 0484 0023     		movs	r3, #0
 956 0486 0093     		str	r3, [sp]
 957 0488 0498     		ldr	r0, [sp, #16]
 958 048a 4FF4A471 		mov	r1, #328
 959 048e 039A     		ldr	r2, [sp, #12]
 960 0490 0F4B     		ldr	r3, .L42+4
 961 0492 FFF7FEFF 		bl	chThdCreateStatic
 962 0496 0346     		mov	r3, r0
 963 0498 1846     		mov	r0, r3
 964 049a FFF7FEFF 		bl	chThdWait
 965              		.loc 7 277 0 discriminator 1
 966 049e 059B     		ldr	r3, [sp, #20]
 967 04a0 0133     		adds	r3, r3, #1
 968 04a2 0593     		str	r3, [sp, #20]
 969              		.loc 7 281 0 discriminator 1
 970 04a4 0B4B     		ldr	r3, .L42+8
 971 04a6 1B78     		ldrb	r3, [r3]	@ zero_extendqisi2
 972 04a8 83F00103 		eor	r3, r3, #1
 973 04ac DBB2     		uxtb	r3, r3
 974 04ae 002B     		cmp	r3, #0
 975 04b0 E8D1     		bne	.L41
 976              		.loc 7 282 0
 977 04b2 0948     		ldr	r0, .L42+12
 978 04b4 FFF7FEFF 		bl	test_print
 979              		.loc 7 283 0
 980 04b8 0598     		ldr	r0, [sp, #20]
 981 04ba FFF7FEFF 		bl	test_printn
 982              		.loc 7 284 0
 983 04be 0748     		ldr	r0, .L42+16
 984 04c0 FFF7FEFF 		bl	test_println
 985              		.loc 7 285 0
 986 04c4 07B0     		add	sp, sp, #28
ARM GAS  /tmp/cc2se8Oj.s 			page 19


 987              		@ sp needed
 988 04c6 5DF804FB 		ldr	pc, [sp], #4
 989              	.L43:
 990 04ca 00BF     		.align	2
 991              	.L42:
 992 04cc 00000000 		.word	wa
 993 04d0 00000000 		.word	thread1
 994 04d4 00000000 		.word	test_timer_done
 995 04d8 00000000 		.word	.LC0
 996 04dc CC000000 		.word	.LC7
 997              		.cfi_endproc
 998              	.LFE238:
 999              		.size	bmk5_execute, .-bmk5_execute
 1000              		.global	testbmk5
 1001              		.section	.rodata
 1002 00d7 00       		.align	2
 1003              	.LC8:
 1004 00d8 42656E63 		.ascii	"Benchmark, threads, full cycle\000"
 1004      686D6172 
 1004      6B2C2074 
 1004      68726561 
 1004      64732C20 
 1005 00f7 00       		.align	2
 1006              		.type	testbmk5, %object
 1007              		.size	testbmk5, 16
 1008              	testbmk5:
 1009 00f8 D8000000 		.word	.LC8
 1010 00fc 00000000 		.word	0
 1011 0100 00000000 		.word	0
 1012 0104 00000000 		.word	bmk5_execute
 1013              		.text
 1014              		.align	2
 1015              		.p2align 4,,15
 1016              		.thumb
 1017              		.thumb_func
 1018              		.type	bmk6_execute, %function
 1019              	bmk6_execute:
 1020              	.LFB239:
 1021              		.loc 7 307 0
 1022              		.cfi_startproc
 1023              		@ args = 0, pretend = 0, frame = 16
 1024              		@ frame_needed = 0, uses_anonymous_args = 0
 1025 04e0 00B5     		push	{lr}
 1026              		.cfi_def_cfa_offset 4
 1027              		.cfi_offset 14, -4
 1028 04e2 87B0     		sub	sp, sp, #28
 1029              		.cfi_def_cfa_offset 32
 1030              		.loc 7 309 0
 1031 04e4 0023     		movs	r3, #0
 1032 04e6 0593     		str	r3, [sp, #20]
 1033              		.loc 7 310 0
 1034 04e8 164B     		ldr	r3, .L46
 1035 04ea 1B68     		ldr	r3, [r3]
 1036 04ec 0493     		str	r3, [sp, #16]
 1037              		.loc 7 311 0
 1038 04ee FFF7AFFD 		bl	chThdGetPriorityX
 1039 04f2 0346     		mov	r3, r0
ARM GAS  /tmp/cc2se8Oj.s 			page 20


 1040 04f4 0133     		adds	r3, r3, #1
 1041 04f6 0393     		str	r3, [sp, #12]
 1042              		.loc 7 312 0
 1043 04f8 FFF7FEFF 		bl	test_wait_tick
 1044              		.loc 7 313 0
 1045 04fc 4FF47A70 		mov	r0, #1000
 1046 0500 FFF7FEFF 		bl	test_start_timer
 1047              	.L45:
 1048              		.loc 7 315 0 discriminator 1
 1049 0504 0023     		movs	r3, #0
 1050 0506 0093     		str	r3, [sp]
 1051 0508 0498     		ldr	r0, [sp, #16]
 1052 050a 4FF4A471 		mov	r1, #328
 1053 050e 039A     		ldr	r2, [sp, #12]
 1054 0510 0D4B     		ldr	r3, .L46+4
 1055 0512 FFF7FEFF 		bl	chThdCreateStatic
 1056              		.loc 7 316 0 discriminator 1
 1057 0516 059B     		ldr	r3, [sp, #20]
 1058 0518 0133     		adds	r3, r3, #1
 1059 051a 0593     		str	r3, [sp, #20]
 1060              		.loc 7 320 0 discriminator 1
 1061 051c 0B4B     		ldr	r3, .L46+8
 1062 051e 1B78     		ldrb	r3, [r3]	@ zero_extendqisi2
 1063 0520 83F00103 		eor	r3, r3, #1
 1064 0524 DBB2     		uxtb	r3, r3
 1065 0526 002B     		cmp	r3, #0
 1066 0528 ECD1     		bne	.L45
 1067              		.loc 7 321 0
 1068 052a 0948     		ldr	r0, .L46+12
 1069 052c FFF7FEFF 		bl	test_print
 1070              		.loc 7 322 0
 1071 0530 0598     		ldr	r0, [sp, #20]
 1072 0532 FFF7FEFF 		bl	test_printn
 1073              		.loc 7 323 0
 1074 0536 0748     		ldr	r0, .L46+16
 1075 0538 FFF7FEFF 		bl	test_println
 1076              		.loc 7 324 0
 1077 053c 07B0     		add	sp, sp, #28
 1078              		@ sp needed
 1079 053e 5DF804FB 		ldr	pc, [sp], #4
 1080              	.L47:
 1081 0542 00BF     		.align	2
 1082              	.L46:
 1083 0544 00000000 		.word	wa
 1084 0548 00000000 		.word	thread1
 1085 054c 00000000 		.word	test_timer_done
 1086 0550 00000000 		.word	.LC0
 1087 0554 CC000000 		.word	.LC7
 1088              		.cfi_endproc
 1089              	.LFE239:
 1090              		.size	bmk6_execute, .-bmk6_execute
 1091              		.global	testbmk6
 1092              		.section	.rodata
 1093              		.align	2
 1094              	.LC9:
 1095 0108 42656E63 		.ascii	"Benchmark, threads, create only\000"
 1095      686D6172 
ARM GAS  /tmp/cc2se8Oj.s 			page 21


 1095      6B2C2074 
 1095      68726561 
 1095      64732C20 
 1096              		.align	2
 1097              		.type	testbmk6, %object
 1098              		.size	testbmk6, 16
 1099              	testbmk6:
 1100 0128 08010000 		.word	.LC9
 1101 012c 00000000 		.word	0
 1102 0130 00000000 		.word	0
 1103 0134 00000000 		.word	bmk6_execute
 1104              		.text
 1105              		.align	2
 1106 0558 AFF30080 		.p2align 4,,15
 1106      AFF30080 
 1107              		.thumb
 1108              		.thumb_func
 1109              		.type	thread3, %function
 1110              	thread3:
 1111              	.LFB240:
 1112              		.loc 7 345 0
 1113              		.cfi_startproc
 1114              		@ args = 0, pretend = 0, frame = 8
 1115              		@ frame_needed = 0, uses_anonymous_args = 0
 1116 0560 00B5     		push	{lr}
 1117              		.cfi_def_cfa_offset 4
 1118              		.cfi_offset 14, -4
 1119 0562 83B0     		sub	sp, sp, #12
 1120              		.cfi_def_cfa_offset 16
 1121 0564 0190     		str	r0, [sp, #4]
 1122              		.loc 7 348 0
 1123 0566 02E0     		b	.L49
 1124              	.L50:
 1125              		.loc 7 349 0
 1126 0568 0648     		ldr	r0, .L51
 1127 056a FFF7FEFF 		bl	chSemWait
 1128              	.L49:
 1129              		.loc 7 348 0 discriminator 1
 1130 056e FFF777FD 		bl	chThdShouldTerminateX
 1131 0572 0346     		mov	r3, r0
 1132 0574 83F00103 		eor	r3, r3, #1
 1133 0578 DBB2     		uxtb	r3, r3
 1134 057a 002B     		cmp	r3, #0
 1135 057c F4D1     		bne	.L50
 1136              		.loc 7 350 0
 1137 057e 03B0     		add	sp, sp, #12
 1138              		@ sp needed
 1139 0580 5DF804FB 		ldr	pc, [sp], #4
 1140              	.L52:
 1141              		.align	2
 1142              	.L51:
 1143 0584 00000000 		.word	sem1
 1144              		.cfi_endproc
 1145              	.LFE240:
 1146              		.size	thread3, .-thread3
 1147              		.align	2
 1148 0588 AFF30080 		.p2align 4,,15
ARM GAS  /tmp/cc2se8Oj.s 			page 22


 1148      AFF30080 
 1149              		.thumb
 1150              		.thumb_func
 1151              		.type	bmk7_setup, %function
 1152              	bmk7_setup:
 1153              	.LFB241:
 1154              		.loc 7 352 0
 1155              		.cfi_startproc
 1156              		@ args = 0, pretend = 0, frame = 0
 1157              		@ frame_needed = 0, uses_anonymous_args = 0
 1158 0590 08B5     		push	{r3, lr}
 1159              		.cfi_def_cfa_offset 8
 1160              		.cfi_offset 3, -8
 1161              		.cfi_offset 14, -4
 1162              		.loc 7 354 0
 1163 0592 0248     		ldr	r0, .L54
 1164 0594 0021     		movs	r1, #0
 1165 0596 FFF7FEFF 		bl	chSemObjectInit
 1166              		.loc 7 355 0
 1167 059a 08BD     		pop	{r3, pc}
 1168              	.L55:
 1169              		.align	2
 1170              	.L54:
 1171 059c 00000000 		.word	sem1
 1172              		.cfi_endproc
 1173              	.LFE241:
 1174              		.size	bmk7_setup, .-bmk7_setup
 1175              		.section	.rodata
 1176              		.align	2
 1177              	.LC10:
 1178 0138 20726573 		.ascii	" reschedules/S, \000"
 1178      63686564 
 1178      756C6573 
 1178      2F532C20 
 1178      00
 1179              		.text
 1180              		.align	2
 1181              		.p2align 4,,15
 1182              		.thumb
 1183              		.thumb_func
 1184              		.type	bmk7_execute, %function
 1185              	bmk7_execute:
 1186              	.LFB242:
 1187              		.loc 7 357 0
 1188              		.cfi_startproc
 1189              		@ args = 0, pretend = 0, frame = 8
 1190              		@ frame_needed = 0, uses_anonymous_args = 0
 1191 05a0 10B5     		push	{r4, lr}
 1192              		.cfi_def_cfa_offset 8
 1193              		.cfi_offset 4, -8
 1194              		.cfi_offset 14, -4
 1195 05a2 84B0     		sub	sp, sp, #16
 1196              		.cfi_def_cfa_offset 24
 1197              		.loc 7 360 0
 1198 05a4 464B     		ldr	r3, .L58
 1199 05a6 1C68     		ldr	r4, [r3]
 1200 05a8 FFF752FD 		bl	chThdGetPriorityX
ARM GAS  /tmp/cc2se8Oj.s 			page 23


 1201 05ac 0346     		mov	r3, r0
 1202 05ae 0533     		adds	r3, r3, #5
 1203 05b0 0022     		movs	r2, #0
 1204 05b2 0092     		str	r2, [sp]
 1205 05b4 2046     		mov	r0, r4
 1206 05b6 4FF4A471 		mov	r1, #328
 1207 05ba 1A46     		mov	r2, r3
 1208 05bc 414B     		ldr	r3, .L58+4
 1209 05be FFF7FEFF 		bl	chThdCreateStatic
 1210 05c2 0246     		mov	r2, r0
 1211 05c4 404B     		ldr	r3, .L58+8
 1212 05c6 1A60     		str	r2, [r3]
 1213              		.loc 7 361 0
 1214 05c8 3D4B     		ldr	r3, .L58
 1215 05ca 5C68     		ldr	r4, [r3, #4]
 1216 05cc FFF740FD 		bl	chThdGetPriorityX
 1217 05d0 0346     		mov	r3, r0
 1218 05d2 0433     		adds	r3, r3, #4
 1219 05d4 0022     		movs	r2, #0
 1220 05d6 0092     		str	r2, [sp]
 1221 05d8 2046     		mov	r0, r4
 1222 05da 4FF4A471 		mov	r1, #328
 1223 05de 1A46     		mov	r2, r3
 1224 05e0 384B     		ldr	r3, .L58+4
 1225 05e2 FFF7FEFF 		bl	chThdCreateStatic
 1226 05e6 0246     		mov	r2, r0
 1227 05e8 374B     		ldr	r3, .L58+8
 1228 05ea 5A60     		str	r2, [r3, #4]
 1229              		.loc 7 362 0
 1230 05ec 344B     		ldr	r3, .L58
 1231 05ee 9C68     		ldr	r4, [r3, #8]
 1232 05f0 FFF72EFD 		bl	chThdGetPriorityX
 1233 05f4 0346     		mov	r3, r0
 1234 05f6 0333     		adds	r3, r3, #3
 1235 05f8 0022     		movs	r2, #0
 1236 05fa 0092     		str	r2, [sp]
 1237 05fc 2046     		mov	r0, r4
 1238 05fe 4FF4A471 		mov	r1, #328
 1239 0602 1A46     		mov	r2, r3
 1240 0604 2F4B     		ldr	r3, .L58+4
 1241 0606 FFF7FEFF 		bl	chThdCreateStatic
 1242 060a 0246     		mov	r2, r0
 1243 060c 2E4B     		ldr	r3, .L58+8
 1244 060e 9A60     		str	r2, [r3, #8]
 1245              		.loc 7 363 0
 1246 0610 2B4B     		ldr	r3, .L58
 1247 0612 DC68     		ldr	r4, [r3, #12]
 1248 0614 FFF71CFD 		bl	chThdGetPriorityX
 1249 0618 0346     		mov	r3, r0
 1250 061a 0233     		adds	r3, r3, #2
 1251 061c 0022     		movs	r2, #0
 1252 061e 0092     		str	r2, [sp]
 1253 0620 2046     		mov	r0, r4
 1254 0622 4FF4A471 		mov	r1, #328
 1255 0626 1A46     		mov	r2, r3
 1256 0628 264B     		ldr	r3, .L58+4
 1257 062a FFF7FEFF 		bl	chThdCreateStatic
ARM GAS  /tmp/cc2se8Oj.s 			page 24


 1258 062e 0246     		mov	r2, r0
 1259 0630 254B     		ldr	r3, .L58+8
 1260 0632 DA60     		str	r2, [r3, #12]
 1261              		.loc 7 364 0
 1262 0634 224B     		ldr	r3, .L58
 1263 0636 1C69     		ldr	r4, [r3, #16]
 1264 0638 FFF70AFD 		bl	chThdGetPriorityX
 1265 063c 0346     		mov	r3, r0
 1266 063e 0133     		adds	r3, r3, #1
 1267 0640 0022     		movs	r2, #0
 1268 0642 0092     		str	r2, [sp]
 1269 0644 2046     		mov	r0, r4
 1270 0646 4FF4A471 		mov	r1, #328
 1271 064a 1A46     		mov	r2, r3
 1272 064c 1D4B     		ldr	r3, .L58+4
 1273 064e FFF7FEFF 		bl	chThdCreateStatic
 1274 0652 0246     		mov	r2, r0
 1275 0654 1C4B     		ldr	r3, .L58+8
 1276 0656 1A61     		str	r2, [r3, #16]
 1277              		.loc 7 366 0
 1278 0658 0023     		movs	r3, #0
 1279 065a 0393     		str	r3, [sp, #12]
 1280              		.loc 7 367 0
 1281 065c FFF7FEFF 		bl	test_wait_tick
 1282              		.loc 7 368 0
 1283 0660 4FF47A70 		mov	r0, #1000
 1284 0664 FFF7FEFF 		bl	test_start_timer
 1285              	.L57:
 1286              		.loc 7 370 0 discriminator 1
 1287 0668 1848     		ldr	r0, .L58+12
 1288 066a 0021     		movs	r1, #0
 1289 066c FFF7FEFF 		bl	chSemReset
 1290              		.loc 7 371 0 discriminator 1
 1291 0670 039B     		ldr	r3, [sp, #12]
 1292 0672 0133     		adds	r3, r3, #1
 1293 0674 0393     		str	r3, [sp, #12]
 1294              		.loc 7 375 0 discriminator 1
 1295 0676 164B     		ldr	r3, .L58+16
 1296 0678 1B78     		ldrb	r3, [r3]	@ zero_extendqisi2
 1297 067a 83F00103 		eor	r3, r3, #1
 1298 067e DBB2     		uxtb	r3, r3
 1299 0680 002B     		cmp	r3, #0
 1300 0682 F1D1     		bne	.L57
 1301              		.loc 7 376 0
 1302 0684 FFF7FEFF 		bl	test_terminate_threads
 1303              		.loc 7 377 0
 1304 0688 1048     		ldr	r0, .L58+12
 1305 068a 0021     		movs	r1, #0
 1306 068c FFF7FEFF 		bl	chSemReset
 1307              		.loc 7 378 0
 1308 0690 FFF7FEFF 		bl	test_wait_threads
 1309              		.loc 7 380 0
 1310 0694 0F48     		ldr	r0, .L58+20
 1311 0696 FFF7FEFF 		bl	test_print
 1312              		.loc 7 381 0
 1313 069a 0398     		ldr	r0, [sp, #12]
 1314 069c FFF7FEFF 		bl	test_printn
ARM GAS  /tmp/cc2se8Oj.s 			page 25


 1315              		.loc 7 382 0
 1316 06a0 0D48     		ldr	r0, .L58+24
 1317 06a2 FFF7FEFF 		bl	test_print
 1318              		.loc 7 383 0
 1319 06a6 039A     		ldr	r2, [sp, #12]
 1320 06a8 1346     		mov	r3, r2
 1321 06aa 5B00     		lsls	r3, r3, #1
 1322 06ac 1344     		add	r3, r3, r2
 1323 06ae 5B00     		lsls	r3, r3, #1
 1324 06b0 1846     		mov	r0, r3
 1325 06b2 FFF7FEFF 		bl	test_printn
 1326              		.loc 7 384 0
 1327 06b6 0948     		ldr	r0, .L58+28
 1328 06b8 FFF7FEFF 		bl	test_println
 1329              		.loc 7 385 0
 1330 06bc 04B0     		add	sp, sp, #16
 1331              		@ sp needed
 1332 06be 10BD     		pop	{r4, pc}
 1333              	.L59:
 1334              		.align	2
 1335              	.L58:
 1336 06c0 00000000 		.word	wa
 1337 06c4 00000000 		.word	thread3
 1338 06c8 00000000 		.word	threads
 1339 06cc 00000000 		.word	sem1
 1340 06d0 00000000 		.word	test_timer_done
 1341 06d4 00000000 		.word	.LC0
 1342 06d8 38010000 		.word	.LC10
 1343 06dc 1C000000 		.word	.LC2
 1344              		.cfi_endproc
 1345              	.LFE242:
 1346              		.size	bmk7_execute, .-bmk7_execute
 1347              		.global	testbmk7
 1348              		.section	.rodata
 1349 0149 000000   		.align	2
 1350              	.LC11:
 1351 014c 42656E63 		.ascii	"Benchmark, mass reschedule, 5 threads\000"
 1351      686D6172 
 1351      6B2C206D 
 1351      61737320 
 1351      72657363 
 1352 0172 0000     		.align	2
 1353              		.type	testbmk7, %object
 1354              		.size	testbmk7, 16
 1355              	testbmk7:
 1356 0174 4C010000 		.word	.LC11
 1357 0178 00000000 		.word	bmk7_setup
 1358 017c 00000000 		.word	0
 1359 0180 00000000 		.word	bmk7_execute
 1360              		.text
 1361              		.align	2
 1362              		.p2align 4,,15
 1363              		.thumb
 1364              		.thumb_func
 1365              		.type	thread8, %function
 1366              	thread8:
 1367              	.LFB243:
ARM GAS  /tmp/cc2se8Oj.s 			page 26


 1368              		.loc 7 405 0
 1369              		.cfi_startproc
 1370              		@ args = 0, pretend = 0, frame = 8
 1371              		@ frame_needed = 0, uses_anonymous_args = 0
 1372 06e0 00B5     		push	{lr}
 1373              		.cfi_def_cfa_offset 4
 1374              		.cfi_offset 14, -4
 1375 06e2 83B0     		sub	sp, sp, #12
 1376              		.cfi_def_cfa_offset 16
 1377 06e4 0190     		str	r0, [sp, #4]
 1378              	.L61:
 1379              		.loc 7 408 0 discriminator 1
 1380 06e6 FFF7FEFF 		bl	chThdYield
 1381              		.loc 7 409 0 discriminator 1
 1382 06ea FFF7FEFF 		bl	chThdYield
 1383              		.loc 7 410 0 discriminator 1
 1384 06ee FFF7FEFF 		bl	chThdYield
 1385              		.loc 7 411 0 discriminator 1
 1386 06f2 FFF7FEFF 		bl	chThdYield
 1387              		.loc 7 412 0 discriminator 1
 1388 06f6 019B     		ldr	r3, [sp, #4]
 1389 06f8 1B68     		ldr	r3, [r3]
 1390 06fa 1A1D     		adds	r2, r3, #4
 1391 06fc 019B     		ldr	r3, [sp, #4]
 1392 06fe 1A60     		str	r2, [r3]
 1393              		.loc 7 416 0 discriminator 1
 1394 0700 FFF7AEFC 		bl	chThdShouldTerminateX
 1395 0704 0346     		mov	r3, r0
 1396 0706 83F00103 		eor	r3, r3, #1
 1397 070a DBB2     		uxtb	r3, r3
 1398 070c 002B     		cmp	r3, #0
 1399 070e EAD1     		bne	.L61
 1400              		.loc 7 417 0
 1401 0710 03B0     		add	sp, sp, #12
 1402              		@ sp needed
 1403 0712 5DF804FB 		ldr	pc, [sp], #4
 1404              		.cfi_endproc
 1405              	.LFE243:
 1406              		.size	thread8, .-thread8
 1407 0716 00BF     		.align	2
 1408 0718 AFF30080 		.p2align 4,,15
 1408      AFF30080 
 1409              		.thumb
 1410              		.thumb_func
 1411              		.type	bmk8_execute, %function
 1412              	bmk8_execute:
 1413              	.LFB244:
 1414              		.loc 7 419 0
 1415              		.cfi_startproc
 1416              		@ args = 0, pretend = 0, frame = 8
 1417              		@ frame_needed = 0, uses_anonymous_args = 0
 1418 0720 10B5     		push	{r4, lr}
 1419              		.cfi_def_cfa_offset 8
 1420              		.cfi_offset 4, -8
 1421              		.cfi_offset 14, -4
 1422 0722 84B0     		sub	sp, sp, #16
 1423              		.cfi_def_cfa_offset 24
ARM GAS  /tmp/cc2se8Oj.s 			page 27


 1424              		.loc 7 422 0
 1425 0724 0023     		movs	r3, #0
 1426 0726 0393     		str	r3, [sp, #12]
 1427              		.loc 7 423 0
 1428 0728 FFF7FEFF 		bl	test_wait_tick
 1429              		.loc 7 425 0
 1430 072c 364B     		ldr	r3, .L63
 1431 072e 1C68     		ldr	r4, [r3]
 1432 0730 FFF78EFC 		bl	chThdGetPriorityX
 1433 0734 0346     		mov	r3, r0
 1434 0736 013B     		subs	r3, r3, #1
 1435 0738 03AA     		add	r2, sp, #12
 1436 073a 0092     		str	r2, [sp]
 1437 073c 2046     		mov	r0, r4
 1438 073e 4FF4A471 		mov	r1, #328
 1439 0742 1A46     		mov	r2, r3
 1440 0744 314B     		ldr	r3, .L63+4
 1441 0746 FFF7FEFF 		bl	chThdCreateStatic
 1442 074a 0246     		mov	r2, r0
 1443 074c 304B     		ldr	r3, .L63+8
 1444 074e 1A60     		str	r2, [r3]
 1445              		.loc 7 426 0
 1446 0750 2D4B     		ldr	r3, .L63
 1447 0752 5C68     		ldr	r4, [r3, #4]
 1448 0754 FFF77CFC 		bl	chThdGetPriorityX
 1449 0758 0346     		mov	r3, r0
 1450 075a 013B     		subs	r3, r3, #1
 1451 075c 03AA     		add	r2, sp, #12
 1452 075e 0092     		str	r2, [sp]
 1453 0760 2046     		mov	r0, r4
 1454 0762 4FF4A471 		mov	r1, #328
 1455 0766 1A46     		mov	r2, r3
 1456 0768 284B     		ldr	r3, .L63+4
 1457 076a FFF7FEFF 		bl	chThdCreateStatic
 1458 076e 0246     		mov	r2, r0
 1459 0770 274B     		ldr	r3, .L63+8
 1460 0772 5A60     		str	r2, [r3, #4]
 1461              		.loc 7 427 0
 1462 0774 244B     		ldr	r3, .L63
 1463 0776 9C68     		ldr	r4, [r3, #8]
 1464 0778 FFF76AFC 		bl	chThdGetPriorityX
 1465 077c 0346     		mov	r3, r0
 1466 077e 013B     		subs	r3, r3, #1
 1467 0780 03AA     		add	r2, sp, #12
 1468 0782 0092     		str	r2, [sp]
 1469 0784 2046     		mov	r0, r4
 1470 0786 4FF4A471 		mov	r1, #328
 1471 078a 1A46     		mov	r2, r3
 1472 078c 1F4B     		ldr	r3, .L63+4
 1473 078e FFF7FEFF 		bl	chThdCreateStatic
 1474 0792 0246     		mov	r2, r0
 1475 0794 1E4B     		ldr	r3, .L63+8
 1476 0796 9A60     		str	r2, [r3, #8]
 1477              		.loc 7 428 0
 1478 0798 1B4B     		ldr	r3, .L63
 1479 079a DC68     		ldr	r4, [r3, #12]
 1480 079c FFF758FC 		bl	chThdGetPriorityX
ARM GAS  /tmp/cc2se8Oj.s 			page 28


 1481 07a0 0346     		mov	r3, r0
 1482 07a2 013B     		subs	r3, r3, #1
 1483 07a4 03AA     		add	r2, sp, #12
 1484 07a6 0092     		str	r2, [sp]
 1485 07a8 2046     		mov	r0, r4
 1486 07aa 4FF4A471 		mov	r1, #328
 1487 07ae 1A46     		mov	r2, r3
 1488 07b0 164B     		ldr	r3, .L63+4
 1489 07b2 FFF7FEFF 		bl	chThdCreateStatic
 1490 07b6 0246     		mov	r2, r0
 1491 07b8 154B     		ldr	r3, .L63+8
 1492 07ba DA60     		str	r2, [r3, #12]
 1493              		.loc 7 429 0
 1494 07bc 124B     		ldr	r3, .L63
 1495 07be 1C69     		ldr	r4, [r3, #16]
 1496 07c0 FFF746FC 		bl	chThdGetPriorityX
 1497 07c4 0346     		mov	r3, r0
 1498 07c6 013B     		subs	r3, r3, #1
 1499 07c8 03AA     		add	r2, sp, #12
 1500 07ca 0092     		str	r2, [sp]
 1501 07cc 2046     		mov	r0, r4
 1502 07ce 4FF4A471 		mov	r1, #328
 1503 07d2 1A46     		mov	r2, r3
 1504 07d4 0D4B     		ldr	r3, .L63+4
 1505 07d6 FFF7FEFF 		bl	chThdCreateStatic
 1506 07da 0246     		mov	r2, r0
 1507 07dc 0C4B     		ldr	r3, .L63+8
 1508 07de 1A61     		str	r2, [r3, #16]
 1509              		.loc 7 431 0
 1510 07e0 4FF47A70 		mov	r0, #1000
 1511 07e4 FFF7FEFF 		bl	chThdSleep
 1512              		.loc 7 432 0
 1513 07e8 FFF7FEFF 		bl	test_terminate_threads
 1514              		.loc 7 433 0
 1515 07ec FFF7FEFF 		bl	test_wait_threads
 1516              		.loc 7 435 0
 1517 07f0 0848     		ldr	r0, .L63+12
 1518 07f2 FFF7FEFF 		bl	test_print
 1519              		.loc 7 436 0
 1520 07f6 039B     		ldr	r3, [sp, #12]
 1521 07f8 1846     		mov	r0, r3
 1522 07fa FFF7FEFF 		bl	test_printn
 1523              		.loc 7 437 0
 1524 07fe 0648     		ldr	r0, .L63+16
 1525 0800 FFF7FEFF 		bl	test_println
 1526              		.loc 7 438 0
 1527 0804 04B0     		add	sp, sp, #16
 1528              		@ sp needed
 1529 0806 10BD     		pop	{r4, pc}
 1530              	.L64:
 1531              		.align	2
 1532              	.L63:
 1533 0808 00000000 		.word	wa
 1534 080c 00000000 		.word	thread8
 1535 0810 00000000 		.word	threads
 1536 0814 00000000 		.word	.LC0
 1537 0818 1C000000 		.word	.LC2
ARM GAS  /tmp/cc2se8Oj.s 			page 29


 1538              		.cfi_endproc
 1539              	.LFE244:
 1540              		.size	bmk8_execute, .-bmk8_execute
 1541              		.global	testbmk8
 1542              		.section	.rodata
 1543              		.align	2
 1544              	.LC12:
 1545 0184 42656E63 		.ascii	"Benchmark, round robin context switching\000"
 1545      686D6172 
 1545      6B2C2072 
 1545      6F756E64 
 1545      20726F62 
 1546 01ad 000000   		.align	2
 1547              		.type	testbmk8, %object
 1548              		.size	testbmk8, 16
 1549              	testbmk8:
 1550 01b0 84010000 		.word	.LC12
 1551 01b4 00000000 		.word	0
 1552 01b8 00000000 		.word	0
 1553 01bc 00000000 		.word	bmk8_execute
 1554              		.align	2
 1555              	.LC13:
 1556 01c0 20627974 		.ascii	" bytes/S\000"
 1556      65732F53 
 1556      00
 1557              		.text
 1558              		.align	2
 1559 081c AFF30080 		.p2align 4,,15
 1560              		.thumb
 1561              		.thumb_func
 1562              		.type	bmk9_execute, %function
 1563              	bmk9_execute:
 1564              	.LFB245:
 1565              		.loc 7 458 0
 1566              		.cfi_startproc
 1567              		@ args = 0, pretend = 0, frame = 8
 1568              		@ frame_needed = 0, uses_anonymous_args = 0
 1569 0820 00B5     		push	{lr}
 1570              		.cfi_def_cfa_offset 4
 1571              		.cfi_offset 14, -4
 1572 0822 85B0     		sub	sp, sp, #20
 1573              		.cfi_def_cfa_offset 24
 1574              		.loc 7 463 0
 1575 0824 0023     		movs	r3, #0
 1576 0826 0093     		str	r3, [sp]
 1577 0828 2248     		ldr	r0, .L67
 1578 082a 2349     		ldr	r1, .L67+4
 1579 082c 1022     		movs	r2, #16
 1580 082e 0023     		movs	r3, #0
 1581 0830 FFF7FEFF 		bl	chIQObjectInit
 1582              		.loc 7 464 0
 1583 0834 0023     		movs	r3, #0
 1584 0836 0393     		str	r3, [sp, #12]
 1585              		.loc 7 465 0
 1586 0838 FFF7FEFF 		bl	test_wait_tick
 1587              		.loc 7 466 0
 1588 083c 4FF47A70 		mov	r0, #1000
ARM GAS  /tmp/cc2se8Oj.s 			page 30


 1589 0840 FFF7FEFF 		bl	test_start_timer
 1590              	.L66:
 1591              		.loc 7 468 0 discriminator 1
 1592 0844 FFF7ECFB 		bl	chSysLock
 1593              		.loc 7 469 0 discriminator 1
 1594 0848 1A48     		ldr	r0, .L67
 1595 084a 0021     		movs	r1, #0
 1596 084c FFF7FEFF 		bl	chIQPutI
 1597              		.loc 7 470 0 discriminator 1
 1598 0850 1848     		ldr	r0, .L67
 1599 0852 0121     		movs	r1, #1
 1600 0854 FFF7FEFF 		bl	chIQPutI
 1601              		.loc 7 471 0 discriminator 1
 1602 0858 1648     		ldr	r0, .L67
 1603 085a 0221     		movs	r1, #2
 1604 085c FFF7FEFF 		bl	chIQPutI
 1605              		.loc 7 472 0 discriminator 1
 1606 0860 1448     		ldr	r0, .L67
 1607 0862 0321     		movs	r1, #3
 1608 0864 FFF7FEFF 		bl	chIQPutI
 1609              		.loc 7 473 0 discriminator 1
 1610 0868 FFF7E2FB 		bl	chSysUnlock
 1611              		.loc 7 474 0 discriminator 1
 1612 086c 1148     		ldr	r0, .L67
 1613 086e FFF70FFC 		bl	chIQGet
 1614              		.loc 7 475 0 discriminator 1
 1615 0872 1048     		ldr	r0, .L67
 1616 0874 FFF70CFC 		bl	chIQGet
 1617              		.loc 7 476 0 discriminator 1
 1618 0878 0E48     		ldr	r0, .L67
 1619 087a FFF709FC 		bl	chIQGet
 1620              		.loc 7 477 0 discriminator 1
 1621 087e 0D48     		ldr	r0, .L67
 1622 0880 FFF706FC 		bl	chIQGet
 1623              		.loc 7 478 0 discriminator 1
 1624 0884 039B     		ldr	r3, [sp, #12]
 1625 0886 0133     		adds	r3, r3, #1
 1626 0888 0393     		str	r3, [sp, #12]
 1627              		.loc 7 482 0 discriminator 1
 1628 088a 0C4B     		ldr	r3, .L67+8
 1629 088c 1B78     		ldrb	r3, [r3]	@ zero_extendqisi2
 1630 088e 83F00103 		eor	r3, r3, #1
 1631 0892 DBB2     		uxtb	r3, r3
 1632 0894 002B     		cmp	r3, #0
 1633 0896 D5D1     		bne	.L66
 1634              		.loc 7 483 0
 1635 0898 0948     		ldr	r0, .L67+12
 1636 089a FFF7FEFF 		bl	test_print
 1637              		.loc 7 484 0
 1638 089e 039B     		ldr	r3, [sp, #12]
 1639 08a0 9B00     		lsls	r3, r3, #2
 1640 08a2 1846     		mov	r0, r3
 1641 08a4 FFF7FEFF 		bl	test_printn
 1642              		.loc 7 485 0
 1643 08a8 0648     		ldr	r0, .L67+16
 1644 08aa FFF7FEFF 		bl	test_println
 1645              		.loc 7 486 0
ARM GAS  /tmp/cc2se8Oj.s 			page 31


 1646 08ae 05B0     		add	sp, sp, #20
 1647              		@ sp needed
 1648 08b0 5DF804FB 		ldr	pc, [sp], #4
 1649              	.L68:
 1650              		.align	2
 1651              	.L67:
 1652 08b4 1C000000 		.word	iq.6775
 1653 08b8 40000000 		.word	ib.6774
 1654 08bc 00000000 		.word	test_timer_done
 1655 08c0 00000000 		.word	.LC0
 1656 08c4 C0010000 		.word	.LC13
 1657              		.cfi_endproc
 1658              	.LFE245:
 1659              		.size	bmk9_execute, .-bmk9_execute
 1660              		.global	testbmk9
 1661              		.section	.rodata
 1662 01c9 000000   		.align	2
 1663              	.LC14:
 1664 01cc 42656E63 		.ascii	"Benchmark, I/O Queues throughput\000"
 1664      686D6172 
 1664      6B2C2049 
 1664      2F4F2051 
 1664      75657565 
 1665 01ed 000000   		.align	2
 1666              		.type	testbmk9, %object
 1667              		.size	testbmk9, 16
 1668              	testbmk9:
 1669 01f0 CC010000 		.word	.LC14
 1670 01f4 00000000 		.word	0
 1671 01f8 00000000 		.word	0
 1672 01fc 00000000 		.word	bmk9_execute
 1673              		.text
 1674              		.align	2
 1675 08c8 AFF30080 		.p2align 4,,15
 1675      AFF30080 
 1676              		.thumb
 1677              		.thumb_func
 1678              		.type	tmo, %function
 1679              	tmo:
 1680              	.LFB246:
 1681              		.loc 7 505 0
 1682              		.cfi_startproc
 1683              		@ args = 0, pretend = 0, frame = 8
 1684              		@ frame_needed = 0, uses_anonymous_args = 0
 1685              		@ link register save eliminated.
 1686 08d0 82B0     		sub	sp, sp, #8
 1687              		.cfi_def_cfa_offset 8
 1688 08d2 0190     		str	r0, [sp, #4]
 1689              		.loc 7 505 0
 1690 08d4 02B0     		add	sp, sp, #8
 1691              		@ sp needed
 1692 08d6 7047     		bx	lr
 1693              		.cfi_endproc
 1694              	.LFE246:
 1695              		.size	tmo, .-tmo
 1696              		.section	.rodata
 1697              		.align	2
ARM GAS  /tmp/cc2se8Oj.s 			page 32


 1698              	.LC15:
 1699 0200 2074696D 		.ascii	" timers/S\000"
 1699      6572732F 
 1699      5300
 1700              		.text
 1701              		.align	2
 1702 08d8 AFF30080 		.p2align 4,,15
 1702      AFF30080 
 1703              		.thumb
 1704              		.thumb_func
 1705              		.type	bmk10_execute, %function
 1706              	bmk10_execute:
 1707              	.LFB247:
 1708              		.loc 7 507 0
 1709              		.cfi_startproc
 1710              		@ args = 0, pretend = 0, frame = 8
 1711              		@ frame_needed = 0, uses_anonymous_args = 0
 1712 08e0 00B5     		push	{lr}
 1713              		.cfi_def_cfa_offset 4
 1714              		.cfi_offset 14, -4
 1715 08e2 83B0     		sub	sp, sp, #12
 1716              		.cfi_def_cfa_offset 16
 1717              		.loc 7 509 0
 1718 08e4 0023     		movs	r3, #0
 1719 08e6 0193     		str	r3, [sp, #4]
 1720              		.loc 7 511 0
 1721 08e8 FFF7FEFF 		bl	test_wait_tick
 1722              		.loc 7 512 0
 1723 08ec 4FF47A70 		mov	r0, #1000
 1724 08f0 FFF7FEFF 		bl	test_start_timer
 1725              	.L71:
 1726              		.loc 7 514 0 discriminator 1
 1727 08f4 FFF794FB 		bl	chSysLock
 1728              		.loc 7 515 0 discriminator 1
 1729 08f8 1648     		ldr	r0, .L72
 1730 08fa 0121     		movs	r1, #1
 1731 08fc 164A     		ldr	r2, .L72+4
 1732 08fe 0023     		movs	r3, #0
 1733 0900 FFF7FEFF 		bl	chVTDoSetI
 1734              		.loc 7 516 0 discriminator 1
 1735 0904 1548     		ldr	r0, .L72+8
 1736 0906 42F21071 		movw	r1, #10000
 1737 090a 134A     		ldr	r2, .L72+4
 1738 090c 0023     		movs	r3, #0
 1739 090e FFF7FEFF 		bl	chVTDoSetI
 1740              		.loc 7 517 0 discriminator 1
 1741 0912 1048     		ldr	r0, .L72
 1742 0914 FFF7FEFF 		bl	chVTDoResetI
 1743              		.loc 7 518 0 discriminator 1
 1744 0918 1048     		ldr	r0, .L72+8
 1745 091a FFF7FEFF 		bl	chVTDoResetI
 1746              		.loc 7 519 0 discriminator 1
 1747 091e FFF787FB 		bl	chSysUnlock
 1748              		.loc 7 520 0 discriminator 1
 1749 0922 019B     		ldr	r3, [sp, #4]
 1750 0924 0133     		adds	r3, r3, #1
 1751 0926 0193     		str	r3, [sp, #4]
ARM GAS  /tmp/cc2se8Oj.s 			page 33


 1752              		.loc 7 524 0 discriminator 1
 1753 0928 0D4B     		ldr	r3, .L72+12
 1754 092a 1B78     		ldrb	r3, [r3]	@ zero_extendqisi2
 1755 092c 83F00103 		eor	r3, r3, #1
 1756 0930 DBB2     		uxtb	r3, r3
 1757 0932 002B     		cmp	r3, #0
 1758 0934 DED1     		bne	.L71
 1759              		.loc 7 525 0
 1760 0936 0B48     		ldr	r0, .L72+16
 1761 0938 FFF7FEFF 		bl	test_print
 1762              		.loc 7 526 0
 1763 093c 019B     		ldr	r3, [sp, #4]
 1764 093e 5B00     		lsls	r3, r3, #1
 1765 0940 1846     		mov	r0, r3
 1766 0942 FFF7FEFF 		bl	test_printn
 1767              		.loc 7 527 0
 1768 0946 0848     		ldr	r0, .L72+20
 1769 0948 FFF7FEFF 		bl	test_println
 1770              		.loc 7 528 0
 1771 094c 03B0     		add	sp, sp, #12
 1772              		@ sp needed
 1773 094e 5DF804FB 		ldr	pc, [sp], #4
 1774              	.L73:
 1775 0952 00BF     		.align	2
 1776              	.L72:
 1777 0954 50000000 		.word	vt1.6785
 1778 0958 00000000 		.word	tmo
 1779 095c 64000000 		.word	vt2.6786
 1780 0960 00000000 		.word	test_timer_done
 1781 0964 00000000 		.word	.LC0
 1782 0968 00020000 		.word	.LC15
 1783              		.cfi_endproc
 1784              	.LFE247:
 1785              		.size	bmk10_execute, .-bmk10_execute
 1786              		.global	testbmk10
 1787              		.section	.rodata
 1788 020a 0000     		.align	2
 1789              	.LC16:
 1790 020c 42656E63 		.ascii	"Benchmark, virtual timers set/reset\000"
 1790      686D6172 
 1790      6B2C2076 
 1790      69727475 
 1790      616C2074 
 1791              		.align	2
 1792              		.type	testbmk10, %object
 1793              		.size	testbmk10, 16
 1794              	testbmk10:
 1795 0230 0C020000 		.word	.LC16
 1796 0234 00000000 		.word	0
 1797 0238 00000000 		.word	0
 1798 023c 00000000 		.word	bmk10_execute
 1799              		.text
 1800              		.align	2
 1801 096c AFF30080 		.p2align 4,,15
 1802              		.thumb
 1803              		.thumb_func
 1804              		.type	bmk11_setup, %function
ARM GAS  /tmp/cc2se8Oj.s 			page 34


 1805              	bmk11_setup:
 1806              	.LFB248:
 1807              		.loc 7 548 0
 1808              		.cfi_startproc
 1809              		@ args = 0, pretend = 0, frame = 0
 1810              		@ frame_needed = 0, uses_anonymous_args = 0
 1811 0970 08B5     		push	{r3, lr}
 1812              		.cfi_def_cfa_offset 8
 1813              		.cfi_offset 3, -8
 1814              		.cfi_offset 14, -4
 1815              		.loc 7 550 0
 1816 0972 0248     		ldr	r0, .L75
 1817 0974 0121     		movs	r1, #1
 1818 0976 FFF7FEFF 		bl	chSemObjectInit
 1819              		.loc 7 551 0
 1820 097a 08BD     		pop	{r3, pc}
 1821              	.L76:
 1822              		.align	2
 1823              	.L75:
 1824 097c 00000000 		.word	sem1
 1825              		.cfi_endproc
 1826              	.LFE248:
 1827              		.size	bmk11_setup, .-bmk11_setup
 1828              		.section	.rodata
 1829              		.align	2
 1830              	.LC17:
 1831 0240 20776169 		.ascii	" wait+signal/S\000"
 1831      742B7369 
 1831      676E616C 
 1831      2F5300
 1832              		.text
 1833              		.align	2
 1834              		.p2align 4,,15
 1835              		.thumb
 1836              		.thumb_func
 1837              		.type	bmk11_execute, %function
 1838              	bmk11_execute:
 1839              	.LFB249:
 1840              		.loc 7 553 0
 1841              		.cfi_startproc
 1842              		@ args = 0, pretend = 0, frame = 8
 1843              		@ frame_needed = 0, uses_anonymous_args = 0
 1844 0980 00B5     		push	{lr}
 1845              		.cfi_def_cfa_offset 4
 1846              		.cfi_offset 14, -4
 1847 0982 83B0     		sub	sp, sp, #12
 1848              		.cfi_def_cfa_offset 16
 1849              		.loc 7 554 0
 1850 0984 0023     		movs	r3, #0
 1851 0986 0193     		str	r3, [sp, #4]
 1852              		.loc 7 556 0
 1853 0988 FFF7FEFF 		bl	test_wait_tick
 1854              		.loc 7 557 0
 1855 098c 4FF47A70 		mov	r0, #1000
 1856 0990 FFF7FEFF 		bl	test_start_timer
 1857              	.L78:
 1858              		.loc 7 559 0 discriminator 1
ARM GAS  /tmp/cc2se8Oj.s 			page 35


 1859 0994 1748     		ldr	r0, .L79
 1860 0996 FFF7FEFF 		bl	chSemWait
 1861              		.loc 7 560 0 discriminator 1
 1862 099a 1648     		ldr	r0, .L79
 1863 099c FFF7FEFF 		bl	chSemSignal
 1864              		.loc 7 561 0 discriminator 1
 1865 09a0 1448     		ldr	r0, .L79
 1866 09a2 FFF7FEFF 		bl	chSemWait
 1867              		.loc 7 562 0 discriminator 1
 1868 09a6 1348     		ldr	r0, .L79
 1869 09a8 FFF7FEFF 		bl	chSemSignal
 1870              		.loc 7 563 0 discriminator 1
 1871 09ac 1148     		ldr	r0, .L79
 1872 09ae FFF7FEFF 		bl	chSemWait
 1873              		.loc 7 564 0 discriminator 1
 1874 09b2 1048     		ldr	r0, .L79
 1875 09b4 FFF7FEFF 		bl	chSemSignal
 1876              		.loc 7 565 0 discriminator 1
 1877 09b8 0E48     		ldr	r0, .L79
 1878 09ba FFF7FEFF 		bl	chSemWait
 1879              		.loc 7 566 0 discriminator 1
 1880 09be 0D48     		ldr	r0, .L79
 1881 09c0 FFF7FEFF 		bl	chSemSignal
 1882              		.loc 7 567 0 discriminator 1
 1883 09c4 019B     		ldr	r3, [sp, #4]
 1884 09c6 0133     		adds	r3, r3, #1
 1885 09c8 0193     		str	r3, [sp, #4]
 1886              		.loc 7 571 0 discriminator 1
 1887 09ca 0B4B     		ldr	r3, .L79+4
 1888 09cc 1B78     		ldrb	r3, [r3]	@ zero_extendqisi2
 1889 09ce 83F00103 		eor	r3, r3, #1
 1890 09d2 DBB2     		uxtb	r3, r3
 1891 09d4 002B     		cmp	r3, #0
 1892 09d6 DDD1     		bne	.L78
 1893              		.loc 7 572 0
 1894 09d8 0848     		ldr	r0, .L79+8
 1895 09da FFF7FEFF 		bl	test_print
 1896              		.loc 7 573 0
 1897 09de 019B     		ldr	r3, [sp, #4]
 1898 09e0 9B00     		lsls	r3, r3, #2
 1899 09e2 1846     		mov	r0, r3
 1900 09e4 FFF7FEFF 		bl	test_printn
 1901              		.loc 7 574 0
 1902 09e8 0548     		ldr	r0, .L79+12
 1903 09ea FFF7FEFF 		bl	test_println
 1904              		.loc 7 575 0
 1905 09ee 03B0     		add	sp, sp, #12
 1906              		@ sp needed
 1907 09f0 5DF804FB 		ldr	pc, [sp], #4
 1908              	.L80:
 1909              		.align	2
 1910              	.L79:
 1911 09f4 00000000 		.word	sem1
 1912 09f8 00000000 		.word	test_timer_done
 1913 09fc 00000000 		.word	.LC0
 1914 0a00 40020000 		.word	.LC17
 1915              		.cfi_endproc
ARM GAS  /tmp/cc2se8Oj.s 			page 36


 1916              	.LFE249:
 1917              		.size	bmk11_execute, .-bmk11_execute
 1918              		.global	testbmk11
 1919              		.section	.rodata
 1920 024f 00       		.align	2
 1921              	.LC18:
 1922 0250 42656E63 		.ascii	"Benchmark, semaphores wait/signal\000"
 1922      686D6172 
 1922      6B2C2073 
 1922      656D6170 
 1922      686F7265 
 1923 0272 0000     		.align	2
 1924              		.type	testbmk11, %object
 1925              		.size	testbmk11, 16
 1926              	testbmk11:
 1927 0274 50020000 		.word	.LC18
 1928 0278 00000000 		.word	bmk11_setup
 1929 027c 00000000 		.word	0
 1930 0280 00000000 		.word	bmk11_execute
 1931              		.text
 1932              		.align	2
 1933 0a04 AFF30080 		.p2align 4,,15
 1933      AFF30080 
 1933      AFF30080 
 1934              		.thumb
 1935              		.thumb_func
 1936              		.type	bmk12_setup, %function
 1937              	bmk12_setup:
 1938              	.LFB250:
 1939              		.loc 7 596 0
 1940              		.cfi_startproc
 1941              		@ args = 0, pretend = 0, frame = 0
 1942              		@ frame_needed = 0, uses_anonymous_args = 0
 1943 0a10 08B5     		push	{r3, lr}
 1944              		.cfi_def_cfa_offset 8
 1945              		.cfi_offset 3, -8
 1946              		.cfi_offset 14, -4
 1947              		.loc 7 598 0
 1948 0a12 0248     		ldr	r0, .L82
 1949 0a14 FFF7FEFF 		bl	chMtxObjectInit
 1950              		.loc 7 599 0
 1951 0a18 08BD     		pop	{r3, pc}
 1952              	.L83:
 1953 0a1a 00BF     		.align	2
 1954              	.L82:
 1955 0a1c 0C000000 		.word	mtx1
 1956              		.cfi_endproc
 1957              	.LFE250:
 1958              		.size	bmk12_setup, .-bmk12_setup
 1959              		.section	.rodata
 1960              		.align	2
 1961              	.LC19:
 1962 0284 206C6F63 		.ascii	" lock+unlock/S\000"
 1962      6B2B756E 
 1962      6C6F636B 
 1962      2F5300
 1963              		.text
ARM GAS  /tmp/cc2se8Oj.s 			page 37


 1964              		.align	2
 1965              		.p2align 4,,15
 1966              		.thumb
 1967              		.thumb_func
 1968              		.type	bmk12_execute, %function
 1969              	bmk12_execute:
 1970              	.LFB251:
 1971              		.loc 7 601 0
 1972              		.cfi_startproc
 1973              		@ args = 0, pretend = 0, frame = 8
 1974              		@ frame_needed = 0, uses_anonymous_args = 0
 1975 0a20 00B5     		push	{lr}
 1976              		.cfi_def_cfa_offset 4
 1977              		.cfi_offset 14, -4
 1978 0a22 83B0     		sub	sp, sp, #12
 1979              		.cfi_def_cfa_offset 16
 1980              		.loc 7 602 0
 1981 0a24 0023     		movs	r3, #0
 1982 0a26 0193     		str	r3, [sp, #4]
 1983              		.loc 7 604 0
 1984 0a28 FFF7FEFF 		bl	test_wait_tick
 1985              		.loc 7 605 0
 1986 0a2c 4FF47A70 		mov	r0, #1000
 1987 0a30 FFF7FEFF 		bl	test_start_timer
 1988              	.L85:
 1989              		.loc 7 607 0 discriminator 1
 1990 0a34 1748     		ldr	r0, .L86
 1991 0a36 FFF7FEFF 		bl	chMtxLock
 1992              		.loc 7 608 0 discriminator 1
 1993 0a3a 1648     		ldr	r0, .L86
 1994 0a3c FFF7FEFF 		bl	chMtxUnlock
 1995              		.loc 7 609 0 discriminator 1
 1996 0a40 1448     		ldr	r0, .L86
 1997 0a42 FFF7FEFF 		bl	chMtxLock
 1998              		.loc 7 610 0 discriminator 1
 1999 0a46 1348     		ldr	r0, .L86
 2000 0a48 FFF7FEFF 		bl	chMtxUnlock
 2001              		.loc 7 611 0 discriminator 1
 2002 0a4c 1148     		ldr	r0, .L86
 2003 0a4e FFF7FEFF 		bl	chMtxLock
 2004              		.loc 7 612 0 discriminator 1
 2005 0a52 1048     		ldr	r0, .L86
 2006 0a54 FFF7FEFF 		bl	chMtxUnlock
 2007              		.loc 7 613 0 discriminator 1
 2008 0a58 0E48     		ldr	r0, .L86
 2009 0a5a FFF7FEFF 		bl	chMtxLock
 2010              		.loc 7 614 0 discriminator 1
 2011 0a5e 0D48     		ldr	r0, .L86
 2012 0a60 FFF7FEFF 		bl	chMtxUnlock
 2013              		.loc 7 615 0 discriminator 1
 2014 0a64 019B     		ldr	r3, [sp, #4]
 2015 0a66 0133     		adds	r3, r3, #1
 2016 0a68 0193     		str	r3, [sp, #4]
 2017              		.loc 7 619 0 discriminator 1
 2018 0a6a 0B4B     		ldr	r3, .L86+4
 2019 0a6c 1B78     		ldrb	r3, [r3]	@ zero_extendqisi2
 2020 0a6e 83F00103 		eor	r3, r3, #1
ARM GAS  /tmp/cc2se8Oj.s 			page 38


 2021 0a72 DBB2     		uxtb	r3, r3
 2022 0a74 002B     		cmp	r3, #0
 2023 0a76 DDD1     		bne	.L85
 2024              		.loc 7 620 0
 2025 0a78 0848     		ldr	r0, .L86+8
 2026 0a7a FFF7FEFF 		bl	test_print
 2027              		.loc 7 621 0
 2028 0a7e 019B     		ldr	r3, [sp, #4]
 2029 0a80 9B00     		lsls	r3, r3, #2
 2030 0a82 1846     		mov	r0, r3
 2031 0a84 FFF7FEFF 		bl	test_printn
 2032              		.loc 7 622 0
 2033 0a88 0548     		ldr	r0, .L86+12
 2034 0a8a FFF7FEFF 		bl	test_println
 2035              		.loc 7 623 0
 2036 0a8e 03B0     		add	sp, sp, #12
 2037              		@ sp needed
 2038 0a90 5DF804FB 		ldr	pc, [sp], #4
 2039              	.L87:
 2040              		.align	2
 2041              	.L86:
 2042 0a94 0C000000 		.word	mtx1
 2043 0a98 00000000 		.word	test_timer_done
 2044 0a9c 00000000 		.word	.LC0
 2045 0aa0 84020000 		.word	.LC19
 2046              		.cfi_endproc
 2047              	.LFE251:
 2048              		.size	bmk12_execute, .-bmk12_execute
 2049              		.global	testbmk12
 2050              		.section	.rodata
 2051 0293 00       		.align	2
 2052              	.LC20:
 2053 0294 42656E63 		.ascii	"Benchmark, mutexes lock/unlock\000"
 2053      686D6172 
 2053      6B2C206D 
 2053      75746578 
 2053      6573206C 
 2054 02b3 00       		.align	2
 2055              		.type	testbmk12, %object
 2056              		.size	testbmk12, 16
 2057              	testbmk12:
 2058 02b4 94020000 		.word	.LC20
 2059 02b8 00000000 		.word	bmk12_setup
 2060 02bc 00000000 		.word	0
 2061 02c0 00000000 		.word	bmk12_execute
 2062              		.align	2
 2063              	.LC21:
 2064 02c4 2D2D2D20 		.ascii	"--- System: \000"
 2064      53797374 
 2064      656D3A20 
 2064      00
 2065 02d1 000000   		.align	2
 2066              	.LC22:
 2067 02d4 20627974 		.ascii	" bytes\000"
 2067      657300
 2068 02db 00       		.align	2
 2069              	.LC23:
ARM GAS  /tmp/cc2se8Oj.s 			page 39


 2070 02dc 2D2D2D20 		.ascii	"--- Thread: \000"
 2070      54687265 
 2070      61643A20 
 2070      00
 2071 02e9 000000   		.align	2
 2072              	.LC24:
 2073 02ec 2D2D2D20 		.ascii	"--- Timer : \000"
 2073      54696D65 
 2073      72203A20 
 2073      00
 2074 02f9 000000   		.align	2
 2075              	.LC25:
 2076 02fc 2D2D2D20 		.ascii	"--- Semaph: \000"
 2076      53656D61 
 2076      70683A20 
 2076      00
 2077 0309 000000   		.align	2
 2078              	.LC26:
 2079 030c 2D2D2D20 		.ascii	"--- EventS: \000"
 2079      4576656E 
 2079      74533A20 
 2079      00
 2080 0319 000000   		.align	2
 2081              	.LC27:
 2082 031c 2D2D2D20 		.ascii	"--- EventL: \000"
 2082      4576656E 
 2082      744C3A20 
 2082      00
 2083 0329 000000   		.align	2
 2084              	.LC28:
 2085 032c 2D2D2D20 		.ascii	"--- Mutex : \000"
 2085      4D757465 
 2085      78203A20 
 2085      00
 2086 0339 000000   		.align	2
 2087              	.LC29:
 2088 033c 2D2D2D20 		.ascii	"--- CondV.: \000"
 2088      436F6E64 
 2088      562E3A20 
 2088      00
 2089 0349 000000   		.align	2
 2090              	.LC30:
 2091 034c 2D2D2D20 		.ascii	"--- Queue : \000"
 2091      51756575 
 2091      65203A20 
 2091      00
 2092 0359 000000   		.align	2
 2093              	.LC31:
 2094 035c 2D2D2D20 		.ascii	"--- MailB.: \000"
 2094      4D61696C 
 2094      422E3A20 
 2094      00
 2095              		.text
 2096              		.align	2
 2097 0aa4 AFF30080 		.p2align 4,,15
 2097      AFF30080 
 2097      AFF30080 
ARM GAS  /tmp/cc2se8Oj.s 			page 40


 2098              		.thumb
 2099              		.thumb_func
 2100              		.type	bmk13_execute, %function
 2101              	bmk13_execute:
 2102              	.LFB252:
 2103              		.loc 7 640 0
 2104              		.cfi_startproc
 2105              		@ args = 0, pretend = 0, frame = 0
 2106              		@ frame_needed = 0, uses_anonymous_args = 0
 2107 0ab0 08B5     		push	{r3, lr}
 2108              		.cfi_def_cfa_offset 8
 2109              		.cfi_offset 3, -8
 2110              		.cfi_offset 14, -4
 2111              		.loc 7 642 0
 2112 0ab2 2E48     		ldr	r0, .L89
 2113 0ab4 FFF7FEFF 		bl	test_print
 2114              		.loc 7 643 0
 2115 0ab8 4FF4A870 		mov	r0, #336
 2116 0abc FFF7FEFF 		bl	test_printn
 2117              		.loc 7 644 0
 2118 0ac0 2B48     		ldr	r0, .L89+4
 2119 0ac2 FFF7FEFF 		bl	test_println
 2120              		.loc 7 645 0
 2121 0ac6 2B48     		ldr	r0, .L89+8
 2122 0ac8 FFF7FEFF 		bl	test_print
 2123              		.loc 7 646 0
 2124 0acc 4420     		movs	r0, #68
 2125 0ace FFF7FEFF 		bl	test_printn
 2126              		.loc 7 647 0
 2127 0ad2 2748     		ldr	r0, .L89+4
 2128 0ad4 FFF7FEFF 		bl	test_println
 2129              		.loc 7 648 0
 2130 0ad8 2748     		ldr	r0, .L89+12
 2131 0ada FFF7FEFF 		bl	test_print
 2132              		.loc 7 649 0
 2133 0ade 1420     		movs	r0, #20
 2134 0ae0 FFF7FEFF 		bl	test_printn
 2135              		.loc 7 650 0
 2136 0ae4 2248     		ldr	r0, .L89+4
 2137 0ae6 FFF7FEFF 		bl	test_println
 2138              		.loc 7 652 0
 2139 0aea 2448     		ldr	r0, .L89+16
 2140 0aec FFF7FEFF 		bl	test_print
 2141              		.loc 7 653 0
 2142 0af0 0C20     		movs	r0, #12
 2143 0af2 FFF7FEFF 		bl	test_printn
 2144              		.loc 7 654 0
 2145 0af6 1E48     		ldr	r0, .L89+4
 2146 0af8 FFF7FEFF 		bl	test_println
 2147              		.loc 7 657 0
 2148 0afc 2048     		ldr	r0, .L89+20
 2149 0afe FFF7FEFF 		bl	test_print
 2150              		.loc 7 658 0
 2151 0b02 0420     		movs	r0, #4
 2152 0b04 FFF7FEFF 		bl	test_printn
 2153              		.loc 7 659 0
 2154 0b08 1948     		ldr	r0, .L89+4
ARM GAS  /tmp/cc2se8Oj.s 			page 41


 2155 0b0a FFF7FEFF 		bl	test_println
 2156              		.loc 7 660 0
 2157 0b0e 1D48     		ldr	r0, .L89+24
 2158 0b10 FFF7FEFF 		bl	test_print
 2159              		.loc 7 661 0
 2160 0b14 1420     		movs	r0, #20
 2161 0b16 FFF7FEFF 		bl	test_printn
 2162              		.loc 7 662 0
 2163 0b1a 1548     		ldr	r0, .L89+4
 2164 0b1c FFF7FEFF 		bl	test_println
 2165              		.loc 7 665 0
 2166 0b20 1948     		ldr	r0, .L89+28
 2167 0b22 FFF7FEFF 		bl	test_print
 2168              		.loc 7 666 0
 2169 0b26 1020     		movs	r0, #16
 2170 0b28 FFF7FEFF 		bl	test_printn
 2171              		.loc 7 667 0
 2172 0b2c 1048     		ldr	r0, .L89+4
 2173 0b2e FFF7FEFF 		bl	test_println
 2174              		.loc 7 670 0
 2175 0b32 1648     		ldr	r0, .L89+32
 2176 0b34 FFF7FEFF 		bl	test_print
 2177              		.loc 7 671 0
 2178 0b38 0820     		movs	r0, #8
 2179 0b3a FFF7FEFF 		bl	test_printn
 2180              		.loc 7 672 0
 2181 0b3e 0C48     		ldr	r0, .L89+4
 2182 0b40 FFF7FEFF 		bl	test_println
 2183              		.loc 7 675 0
 2184 0b44 1248     		ldr	r0, .L89+36
 2185 0b46 FFF7FEFF 		bl	test_print
 2186              		.loc 7 676 0
 2187 0b4a 2420     		movs	r0, #36
 2188 0b4c FFF7FEFF 		bl	test_printn
 2189              		.loc 7 677 0
 2190 0b50 0748     		ldr	r0, .L89+4
 2191 0b52 FFF7FEFF 		bl	test_println
 2192              		.loc 7 680 0
 2193 0b56 0F48     		ldr	r0, .L89+40
 2194 0b58 FFF7FEFF 		bl	test_print
 2195              		.loc 7 681 0
 2196 0b5c 2820     		movs	r0, #40
 2197 0b5e FFF7FEFF 		bl	test_printn
 2198              		.loc 7 682 0
 2199 0b62 0348     		ldr	r0, .L89+4
 2200 0b64 FFF7FEFF 		bl	test_println
 2201              		.loc 7 684 0
 2202 0b68 08BD     		pop	{r3, pc}
 2203              	.L90:
 2204 0b6a 00BF     		.align	2
 2205              	.L89:
 2206 0b6c C4020000 		.word	.LC21
 2207 0b70 D4020000 		.word	.LC22
 2208 0b74 DC020000 		.word	.LC23
 2209 0b78 EC020000 		.word	.LC24
 2210 0b7c FC020000 		.word	.LC25
 2211 0b80 0C030000 		.word	.LC26
ARM GAS  /tmp/cc2se8Oj.s 			page 42


 2212 0b84 1C030000 		.word	.LC27
 2213 0b88 2C030000 		.word	.LC28
 2214 0b8c 3C030000 		.word	.LC29
 2215 0b90 4C030000 		.word	.LC30
 2216 0b94 5C030000 		.word	.LC31
 2217              		.cfi_endproc
 2218              	.LFE252:
 2219              		.size	bmk13_execute, .-bmk13_execute
 2220              		.global	testbmk13
 2221              		.section	.rodata
 2222 0369 000000   		.align	2
 2223              	.LC32:
 2224 036c 42656E63 		.ascii	"Benchmark, RAM footprint\000"
 2224      686D6172 
 2224      6B2C2052 
 2224      414D2066 
 2224      6F6F7470 
 2225 0385 000000   		.align	2
 2226              		.type	testbmk13, %object
 2227              		.size	testbmk13, 16
 2228              	testbmk13:
 2229 0388 6C030000 		.word	.LC32
 2230 038c 00000000 		.word	0
 2231 0390 00000000 		.word	0
 2232 0394 00000000 		.word	bmk13_execute
 2233              		.global	patternbmk
 2234              		.align	2
 2235              		.type	patternbmk, %object
 2236              		.size	patternbmk, 56
 2237              	patternbmk:
 2238 0398 00000000 		.word	testbmk1
 2239 039c 00000000 		.word	testbmk2
 2240 03a0 00000000 		.word	testbmk3
 2241 03a4 00000000 		.word	testbmk4
 2242 03a8 00000000 		.word	testbmk5
 2243 03ac 00000000 		.word	testbmk6
 2244 03b0 00000000 		.word	testbmk7
 2245 03b4 00000000 		.word	testbmk8
 2246 03b8 00000000 		.word	testbmk9
 2247 03bc 00000000 		.word	testbmk10
 2248 03c0 00000000 		.word	testbmk11
 2249 03c4 00000000 		.word	testbmk12
 2250 03c8 00000000 		.word	testbmk13
 2251 03cc 00000000 		.word	0
 2252              		.bss
 2253              		.align	2
 2254              	iq.6775:
 2255 001c 00000000 		.space	36
 2255      00000000 
 2255      00000000 
 2255      00000000 
 2255      00000000 
 2256              		.align	2
 2257              	ib.6774:
 2258 0040 00000000 		.space	16
 2258      00000000 
 2258      00000000 
ARM GAS  /tmp/cc2se8Oj.s 			page 43


 2258      00000000 
 2259              		.align	2
 2260              	vt1.6785:
 2261 0050 00000000 		.space	20
 2261      00000000 
 2261      00000000 
 2261      00000000 
 2261      00000000 
 2262              		.align	2
 2263              	vt2.6786:
 2264 0064 00000000 		.space	20
 2264      00000000 
 2264      00000000 
 2264      00000000 
 2264      00000000 
 2265              		.text
 2266              	.Letext0:
 2267              		.file 8 "/nfs/nfs5/home/research/hardware/arm2/gcc-arm-embedded/gcc-arm-none-eabi-4_8-2014q2/lib/g
 2268              		.file 9 "/nfs/nfs5/home/research/hardware/arm2/gcc-arm-embedded/gcc-arm-none-eabi-4_8-2014q2/arm-n
 2269              		.file 10 "/nfs/nfs5/home/research/hardware/arm2/gcc-arm-embedded/gcc-arm-none-eabi-4_8-2014q2/arm-
 2270              		.file 11 "../../../ChibiOS/os/rt/ports/ARMCMx/compilers/GCC/chtypes.h"
 2271              		.file 12 "../../../ChibiOS/os/rt/include/chsystypes.h"
 2272              		.file 13 "../../../ChibiOS/os/rt/include/chschd.h"
 2273              		.file 14 "../../../ChibiOS/os/rt/ports/ARMCMx/chcore.h"
 2274              		.file 15 "../../../ChibiOS/os/rt/include/chtm.h"
 2275              		.file 16 "../../../ChibiOS/os/rt/include/chsem.h"
 2276              		.file 17 "../../../ChibiOS/os/rt/include/chmtx.h"
 2277              		.file 18 "../../../ChibiOS/test/rt/test.h"
 2278              		.file 19 "../../../ChibiOS/os/ext/CMSIS/include/core_cm4.h"