ARM GAS  /tmp/ccJ4J3WB.s 			page 1


   1              		.syntax unified
   2              		.cpu cortex-m4
   3              		.fpu softvfp
   4              		.eabi_attribute 20, 1
   5              		.eabi_attribute 21, 1
   6              		.eabi_attribute 23, 3
   7              		.eabi_attribute 24, 1
   8              		.eabi_attribute 25, 1
   9              		.eabi_attribute 26, 1
  10              		.eabi_attribute 30, 6
  11              		.eabi_attribute 34, 1
  12              		.eabi_attribute 18, 4
  13              		.thumb
  14              		.file	"test.c"
  15              		.text
  16              	.Ltext0:
  17              		.cfi_sections	.debug_frame
  18              		.align	2
  19              		.p2align 4,,15
  20              		.thumb
  21              		.thumb_func
  22              		.type	port_lock, %function
  23              	port_lock:
  24              	.LFB127:
  25              		.file 1 "../../../ChibiOS/os/rt/ports/ARMCMx/chcore_v7m.h"
  26              		.loc 1 456 0
  27              		.cfi_startproc
  28              		@ args = 0, pretend = 0, frame = 8
  29              		@ frame_needed = 0, uses_anonymous_args = 0
  30              		@ link register save eliminated.
  31 0000 82B0     		sub	sp, sp, #8
  32              		.cfi_def_cfa_offset 8
  33 0002 2023     		movs	r3, #32
  34 0004 0193     		str	r3, [sp, #4]
  35              	.LBB6:
  36              	.LBB7:
  37              		.file 2 "../../../ChibiOS/os/ext/CMSIS/include/core_cmFunc.h"
  38              		.loc 2 548 0
  39 0006 019B     		ldr	r3, [sp, #4]
  40              	@ 548 "../../../ChibiOS/os/ext/CMSIS/include/core_cmFunc.h" 1
  41 0008 83F31188 		MSR basepri, r3
  42              	@ 0 "" 2
  43              		.thumb
  44              	.LBE7:
  45              	.LBE6:
  46              		.loc 1 473 0
  47 000c 02B0     		add	sp, sp, #8
  48              		@ sp needed
  49 000e 7047     		bx	lr
  50              		.cfi_endproc
  51              	.LFE127:
  52              		.size	port_lock, .-port_lock
  53              		.align	2
  54              		.p2align 4,,15
  55              		.thumb
  56              		.thumb_func
  57              		.type	port_unlock, %function
ARM GAS  /tmp/ccJ4J3WB.s 			page 2


  58              	port_unlock:
  59              	.LFB128:
  60              		.loc 1 480 0
  61              		.cfi_startproc
  62              		@ args = 0, pretend = 0, frame = 8
  63              		@ frame_needed = 0, uses_anonymous_args = 0
  64              		@ link register save eliminated.
  65 0010 82B0     		sub	sp, sp, #8
  66              		.cfi_def_cfa_offset 8
  67 0012 0023     		movs	r3, #0
  68 0014 0193     		str	r3, [sp, #4]
  69              	.LBB8:
  70              	.LBB9:
  71              		.loc 2 548 0
  72 0016 019B     		ldr	r3, [sp, #4]
  73              	@ 548 "../../../ChibiOS/os/ext/CMSIS/include/core_cmFunc.h" 1
  74 0018 83F31188 		MSR basepri, r3
  75              	@ 0 "" 2
  76              		.thumb
  77              	.LBE9:
  78              	.LBE8:
  79              		.loc 1 487 0
  80 001c 02B0     		add	sp, sp, #8
  81              		@ sp needed
  82 001e 7047     		bx	lr
  83              		.cfi_endproc
  84              	.LFE128:
  85              		.size	port_unlock, .-port_unlock
  86              		.align	2
  87              		.p2align 4,,15
  88              		.thumb
  89              		.thumb_func
  90              		.type	chSysLock, %function
  91              	chSysLock:
  92              	.LFB156:
  93              		.file 3 "../../../ChibiOS/os/rt/include/chsys.h"
  94              		.loc 3 346 0
  95              		.cfi_startproc
  96              		@ args = 0, pretend = 0, frame = 0
  97              		@ frame_needed = 0, uses_anonymous_args = 0
  98 0020 08B5     		push	{r3, lr}
  99              		.cfi_def_cfa_offset 8
 100              		.cfi_offset 3, -8
 101              		.cfi_offset 14, -4
 102              		.loc 3 348 0
 103 0022 FFF7EDFF 		bl	port_lock
 104              		.loc 3 351 0
 105 0026 08BD     		pop	{r3, pc}
 106              		.cfi_endproc
 107              	.LFE156:
 108              		.size	chSysLock, .-chSysLock
 109              		.align	2
 110 0028 AFF30080 		.p2align 4,,15
 110      AFF30080 
 111              		.thumb
 112              		.thumb_func
 113              		.type	chSysUnlock, %function
ARM GAS  /tmp/ccJ4J3WB.s 			page 3


 114              	chSysUnlock:
 115              	.LFB157:
 116              		.loc 3 358 0
 117              		.cfi_startproc
 118              		@ args = 0, pretend = 0, frame = 0
 119              		@ frame_needed = 0, uses_anonymous_args = 0
 120 0030 08B5     		push	{r3, lr}
 121              		.cfi_def_cfa_offset 8
 122              		.cfi_offset 3, -8
 123              		.cfi_offset 14, -4
 124              		.loc 3 371 0
 125 0032 FFF7EDFF 		bl	port_unlock
 126              		.loc 3 372 0
 127 0036 08BD     		pop	{r3, pc}
 128              		.cfi_endproc
 129              	.LFE157:
 130              		.size	chSysUnlock, .-chSysUnlock
 131              		.align	2
 132 0038 AFF30080 		.p2align 4,,15
 132      AFF30080 
 133              		.thumb
 134              		.thumb_func
 135              		.type	chVTGetSystemTimeX, %function
 136              	chVTGetSystemTimeX:
 137              	.LFB164:
 138              		.file 4 "../../../ChibiOS/os/rt/include/chvt.h"
 139              		.loc 4 228 0
 140              		.cfi_startproc
 141              		@ args = 0, pretend = 0, frame = 0
 142              		@ frame_needed = 0, uses_anonymous_args = 0
 143              		@ link register save eliminated.
 144              		.loc 4 231 0
 145 0040 014B     		ldr	r3, .L7
 146 0042 9B6A     		ldr	r3, [r3, #40]
 147              		.loc 4 235 0
 148 0044 1846     		mov	r0, r3
 149 0046 7047     		bx	lr
 150              	.L8:
 151              		.align	2
 152              	.L7:
 153 0048 00000000 		.word	ch
 154              		.cfi_endproc
 155              	.LFE164:
 156              		.size	chVTGetSystemTimeX, .-chVTGetSystemTimeX
 157              		.align	2
 158 004c AFF30080 		.p2align 4,,15
 159              		.thumb
 160              		.thumb_func
 161              		.type	chVTGetSystemTime, %function
 162              	chVTGetSystemTime:
 163              	.LFB165:
 164              		.loc 4 247 0
 165              		.cfi_startproc
 166              		@ args = 0, pretend = 0, frame = 8
 167              		@ frame_needed = 0, uses_anonymous_args = 0
 168 0050 00B5     		push	{lr}
 169              		.cfi_def_cfa_offset 4
ARM GAS  /tmp/ccJ4J3WB.s 			page 4


 170              		.cfi_offset 14, -4
 171 0052 83B0     		sub	sp, sp, #12
 172              		.cfi_def_cfa_offset 16
 173              		.loc 4 250 0
 174 0054 FFF7E4FF 		bl	chSysLock
 175              		.loc 4 251 0
 176 0058 FFF7F2FF 		bl	chVTGetSystemTimeX
 177 005c 0190     		str	r0, [sp, #4]
 178              		.loc 4 252 0
 179 005e FFF7E7FF 		bl	chSysUnlock
 180              		.loc 4 254 0
 181 0062 019B     		ldr	r3, [sp, #4]
 182              		.loc 4 255 0
 183 0064 1846     		mov	r0, r3
 184 0066 03B0     		add	sp, sp, #12
 185              		@ sp needed
 186 0068 5DF804FB 		ldr	pc, [sp], #4
 187              		.cfi_endproc
 188              	.LFE165:
 189              		.size	chVTGetSystemTime, .-chVTGetSystemTime
 190              		.align	2
 191 006c AFF30080 		.p2align 4,,15
 192              		.thumb
 193              		.thumb_func
 194              		.type	chVTIsTimeWithinX, %function
 195              	chVTIsTimeWithinX:
 196              	.LFB167:
 197              		.loc 4 286 0
 198              		.cfi_startproc
 199              		@ args = 0, pretend = 0, frame = 16
 200              		@ frame_needed = 0, uses_anonymous_args = 0
 201              		@ link register save eliminated.
 202 0070 84B0     		sub	sp, sp, #16
 203              		.cfi_def_cfa_offset 16
 204 0072 0390     		str	r0, [sp, #12]
 205 0074 0291     		str	r1, [sp, #8]
 206 0076 0192     		str	r2, [sp, #4]
 207              		.loc 4 288 0
 208 0078 039A     		ldr	r2, [sp, #12]
 209 007a 029B     		ldr	r3, [sp, #8]
 210 007c D21A     		subs	r2, r2, r3
 211 007e 0199     		ldr	r1, [sp, #4]
 212 0080 029B     		ldr	r3, [sp, #8]
 213 0082 CB1A     		subs	r3, r1, r3
 214 0084 9A42     		cmp	r2, r3
 215 0086 2CBF     		ite	cs
 216 0088 0023     		movcs	r3, #0
 217 008a 0123     		movcc	r3, #1
 218 008c DBB2     		uxtb	r3, r3
 219              		.loc 4 289 0
 220 008e 1846     		mov	r0, r3
 221 0090 04B0     		add	sp, sp, #16
 222              		@ sp needed
 223 0092 7047     		bx	lr
 224              		.cfi_endproc
 225              	.LFE167:
 226              		.size	chVTIsTimeWithinX, .-chVTIsTimeWithinX
ARM GAS  /tmp/ccJ4J3WB.s 			page 5


 227              		.align	2
 228 0094 AFF30080 		.p2align 4,,15
 228      AFF30080 
 228      AFF30080 
 229              		.thumb
 230              		.thumb_func
 231              		.type	chVTIsSystemTimeWithin, %function
 232              	chVTIsSystemTimeWithin:
 233              	.LFB169:
 234              		.loc 4 322 0
 235              		.cfi_startproc
 236              		@ args = 0, pretend = 0, frame = 8
 237              		@ frame_needed = 0, uses_anonymous_args = 0
 238 00a0 00B5     		push	{lr}
 239              		.cfi_def_cfa_offset 4
 240              		.cfi_offset 14, -4
 241 00a2 83B0     		sub	sp, sp, #12
 242              		.cfi_def_cfa_offset 16
 243 00a4 0190     		str	r0, [sp, #4]
 244 00a6 0091     		str	r1, [sp]
 245              		.loc 4 324 0
 246 00a8 FFF7D2FF 		bl	chVTGetSystemTime
 247 00ac 0346     		mov	r3, r0
 248 00ae 1846     		mov	r0, r3
 249 00b0 0199     		ldr	r1, [sp, #4]
 250 00b2 009A     		ldr	r2, [sp]
 251 00b4 FFF7DCFF 		bl	chVTIsTimeWithinX
 252 00b8 0346     		mov	r3, r0
 253              		.loc 4 325 0
 254 00ba 1846     		mov	r0, r3
 255 00bc 03B0     		add	sp, sp, #12
 256              		@ sp needed
 257 00be 5DF804FB 		ldr	pc, [sp], #4
 258              		.cfi_endproc
 259              	.LFE169:
 260              		.size	chVTIsSystemTimeWithin, .-chVTIsSystemTimeWithin
 261 00c2 00BF     		.align	2
 262 00c4 AFF30080 		.p2align 4,,15
 262      AFF30080 
 262      AFF30080 
 263              		.thumb
 264              		.thumb_func
 265              		.type	chVTIsArmedI, %function
 266              	chVTIsArmedI:
 267              	.LFB171:
 268              		.loc 4 373 0
 269              		.cfi_startproc
 270              		@ args = 0, pretend = 0, frame = 8
 271              		@ frame_needed = 0, uses_anonymous_args = 0
 272              		@ link register save eliminated.
 273 00d0 82B0     		sub	sp, sp, #8
 274              		.cfi_def_cfa_offset 8
 275 00d2 0190     		str	r0, [sp, #4]
 276              		.loc 4 377 0
 277 00d4 019B     		ldr	r3, [sp, #4]
 278 00d6 DB68     		ldr	r3, [r3, #12]
 279 00d8 002B     		cmp	r3, #0
ARM GAS  /tmp/ccJ4J3WB.s 			page 6


 280 00da 0CBF     		ite	eq
 281 00dc 0023     		moveq	r3, #0
 282 00de 0123     		movne	r3, #1
 283 00e0 DBB2     		uxtb	r3, r3
 284              		.loc 4 378 0
 285 00e2 1846     		mov	r0, r3
 286 00e4 02B0     		add	sp, sp, #8
 287              		@ sp needed
 288 00e6 7047     		bx	lr
 289              		.cfi_endproc
 290              	.LFE171:
 291              		.size	chVTIsArmedI, .-chVTIsArmedI
 292              		.align	2
 293 00e8 AFF30080 		.p2align 4,,15
 293      AFF30080 
 294              		.thumb
 295              		.thumb_func
 296              		.type	chVTResetI, %function
 297              	chVTResetI:
 298              	.LFB173:
 299              		.loc 4 410 0
 300              		.cfi_startproc
 301              		@ args = 0, pretend = 0, frame = 8
 302              		@ frame_needed = 0, uses_anonymous_args = 0
 303 00f0 00B5     		push	{lr}
 304              		.cfi_def_cfa_offset 4
 305              		.cfi_offset 14, -4
 306 00f2 83B0     		sub	sp, sp, #12
 307              		.cfi_def_cfa_offset 16
 308 00f4 0190     		str	r0, [sp, #4]
 309              		.loc 4 412 0
 310 00f6 0198     		ldr	r0, [sp, #4]
 311 00f8 FFF7EAFF 		bl	chVTIsArmedI
 312 00fc 0346     		mov	r3, r0
 313 00fe 002B     		cmp	r3, #0
 314 0100 02D0     		beq	.L17
 315              		.loc 4 413 0
 316 0102 0198     		ldr	r0, [sp, #4]
 317 0104 FFF7FEFF 		bl	chVTDoResetI
 318              	.L17:
 319              		.loc 4 415 0
 320 0108 03B0     		add	sp, sp, #12
 321              		@ sp needed
 322 010a 5DF804FB 		ldr	pc, [sp], #4
 323              		.cfi_endproc
 324              	.LFE173:
 325              		.size	chVTResetI, .-chVTResetI
 326 010e 00BF     		.align	2
 327              		.p2align 4,,15
 328              		.thumb
 329              		.thumb_func
 330              		.type	chVTSetI, %function
 331              	chVTSetI:
 332              	.LFB175:
 333              		.loc 4 457 0
 334              		.cfi_startproc
 335              		@ args = 0, pretend = 0, frame = 16
ARM GAS  /tmp/ccJ4J3WB.s 			page 7


 336              		@ frame_needed = 0, uses_anonymous_args = 0
 337 0110 00B5     		push	{lr}
 338              		.cfi_def_cfa_offset 4
 339              		.cfi_offset 14, -4
 340 0112 85B0     		sub	sp, sp, #20
 341              		.cfi_def_cfa_offset 24
 342 0114 0390     		str	r0, [sp, #12]
 343 0116 0291     		str	r1, [sp, #8]
 344 0118 0192     		str	r2, [sp, #4]
 345 011a 0093     		str	r3, [sp]
 346              		.loc 4 459 0
 347 011c 0398     		ldr	r0, [sp, #12]
 348 011e FFF7E7FF 		bl	chVTResetI
 349              		.loc 4 460 0
 350 0122 0398     		ldr	r0, [sp, #12]
 351 0124 0299     		ldr	r1, [sp, #8]
 352 0126 019A     		ldr	r2, [sp, #4]
 353 0128 009B     		ldr	r3, [sp]
 354 012a FFF7FEFF 		bl	chVTDoSetI
 355              		.loc 4 461 0
 356 012e 05B0     		add	sp, sp, #20
 357              		@ sp needed
 358 0130 5DF804FB 		ldr	pc, [sp], #4
 359              		.cfi_endproc
 360              	.LFE175:
 361              		.size	chVTSetI, .-chVTSetI
 362              		.align	2
 363 0134 AFF30080 		.p2align 4,,15
 363      AFF30080 
 363      AFF30080 
 364              		.thumb
 365              		.thumb_func
 366              		.type	chVTSet, %function
 367              	chVTSet:
 368              	.LFB176:
 369              		.loc 4 486 0
 370              		.cfi_startproc
 371              		@ args = 0, pretend = 0, frame = 16
 372              		@ frame_needed = 0, uses_anonymous_args = 0
 373 0140 00B5     		push	{lr}
 374              		.cfi_def_cfa_offset 4
 375              		.cfi_offset 14, -4
 376 0142 85B0     		sub	sp, sp, #20
 377              		.cfi_def_cfa_offset 24
 378 0144 0390     		str	r0, [sp, #12]
 379 0146 0291     		str	r1, [sp, #8]
 380 0148 0192     		str	r2, [sp, #4]
 381 014a 0093     		str	r3, [sp]
 382              		.loc 4 488 0
 383 014c FFF768FF 		bl	chSysLock
 384              		.loc 4 489 0
 385 0150 0398     		ldr	r0, [sp, #12]
 386 0152 0299     		ldr	r1, [sp, #8]
 387 0154 019A     		ldr	r2, [sp, #4]
 388 0156 009B     		ldr	r3, [sp]
 389 0158 FFF7DAFF 		bl	chVTSetI
 390              		.loc 4 490 0
ARM GAS  /tmp/ccJ4J3WB.s 			page 8


 391 015c FFF768FF 		bl	chSysUnlock
 392              		.loc 4 491 0
 393 0160 05B0     		add	sp, sp, #20
 394              		@ sp needed
 395 0162 5DF804FB 		ldr	pc, [sp], #4
 396              		.cfi_endproc
 397              	.LFE176:
 398              		.size	chVTSet, .-chVTSet
 399              		.data
 400              		.align	2
 401              		.type	patterns, %object
 402              		.size	patterns, 52
 403              	patterns:
 404 0000 00000000 		.word	patternsys
 405 0004 00000000 		.word	patternthd
 406 0008 00000000 		.word	patternsem
 407 000c 00000000 		.word	patternmtx
 408 0010 00000000 		.word	patternmsg
 409 0014 00000000 		.word	patternmbox
 410 0018 00000000 		.word	patternevt
 411 001c 00000000 		.word	patternheap
 412 0020 00000000 		.word	patternpools
 413 0024 00000000 		.word	patterndyn
 414 0028 00000000 		.word	patternqueues
 415 002c 00000000 		.word	patternbmk
 416 0030 00000000 		.word	0
 417              		.comm	test_global_fail,1,1
 418              		.bss
 419              	local_fail:
 420 0000 00       		.space	1
 421 0001 000000   		.align	2
 422              	failpoint:
 423 0004 00000000 		.space	4
 424              		.align	2
 425              	tokens_buffer:
 426 0008 00000000 		.space	16
 426      00000000 
 426      00000000 
 426      00000000 
 427              		.align	2
 428              	tokp:
 429 0018 00000000 		.space	4
 430              		.comm	test,1640,8
 431              		.comm	threads,20,4
 432              		.global	wa
 433              		.section	.rodata
 434              		.align	2
 435              		.type	wa, %object
 436              		.size	wa, 20
 437              	wa:
 438 0000 00000000 		.word	test
 439 0004 48010000 		.word	test+328
 440 0008 90020000 		.word	test+656
 441 000c D8030000 		.word	test+984
 442 0010 20050000 		.word	test+1312
 443              		.bss
 444              		.align	2
ARM GAS  /tmp/ccJ4J3WB.s 			page 9


 445              	chp:
 446 001c 00000000 		.space	4
 447              		.text
 448 0166 00BF     		.align	2
 449 0168 AFF30080 		.p2align 4,,15
 449      AFF30080 
 450              		.global	test_printn
 451              		.thumb
 452              		.thumb_func
 453              		.type	test_printn, %function
 454              	test_printn:
 455              	.LFB267:
 456              		.file 5 "../../../ChibiOS/test/rt/test.c"
 457              		.loc 5 94 0
 458              		.cfi_startproc
 459              		@ args = 0, pretend = 0, frame = 32
 460              		@ frame_needed = 0, uses_anonymous_args = 0
 461 0170 00B5     		push	{lr}
 462              		.cfi_def_cfa_offset 4
 463              		.cfi_offset 14, -4
 464 0172 89B0     		sub	sp, sp, #36
 465              		.cfi_def_cfa_offset 40
 466 0174 0190     		str	r0, [sp, #4]
 467              		.loc 5 97 0
 468 0176 019B     		ldr	r3, [sp, #4]
 469 0178 002B     		cmp	r3, #0
 470 017a 09D1     		bne	.L22
 471              		.loc 5 98 0
 472 017c 1E4B     		ldr	r3, .L28
 473 017e 1B68     		ldr	r3, [r3]
 474 0180 1B68     		ldr	r3, [r3]
 475 0182 9B68     		ldr	r3, [r3, #8]
 476 0184 1C4A     		ldr	r2, .L28
 477 0186 1268     		ldr	r2, [r2]
 478 0188 1046     		mov	r0, r2
 479 018a 3021     		movs	r1, #48
 480 018c 9847     		blx	r3
 481 018e 2FE0     		b	.L21
 482              	.L22:
 483              		.loc 5 100 0
 484 0190 03AB     		add	r3, sp, #12
 485 0192 0793     		str	r3, [sp, #28]
 486              		.loc 5 101 0
 487 0194 16E0     		b	.L24
 488              	.L25:
 489              		.loc 5 102 0
 490 0196 0799     		ldr	r1, [sp, #28]
 491 0198 4B1C     		adds	r3, r1, #1
 492 019a 0793     		str	r3, [sp, #28]
 493 019c 0198     		ldr	r0, [sp, #4]
 494 019e 174B     		ldr	r3, .L28+4
 495 01a0 A3FB0023 		umull	r2, r3, r3, r0
 496 01a4 DA08     		lsrs	r2, r3, #3
 497 01a6 1346     		mov	r3, r2
 498 01a8 9B00     		lsls	r3, r3, #2
 499 01aa 1344     		add	r3, r3, r2
 500 01ac 5B00     		lsls	r3, r3, #1
ARM GAS  /tmp/ccJ4J3WB.s 			page 10


 501 01ae C21A     		subs	r2, r0, r3
 502 01b0 D3B2     		uxtb	r3, r2
 503 01b2 3033     		adds	r3, r3, #48
 504 01b4 DBB2     		uxtb	r3, r3
 505 01b6 0B70     		strb	r3, [r1]
 506 01b8 019A     		ldr	r2, [sp, #4]
 507 01ba 104B     		ldr	r3, .L28+4
 508 01bc A3FB0213 		umull	r1, r3, r3, r2
 509 01c0 DB08     		lsrs	r3, r3, #3
 510 01c2 0193     		str	r3, [sp, #4]
 511              	.L24:
 512              		.loc 5 101 0 discriminator 1
 513 01c4 019B     		ldr	r3, [sp, #4]
 514 01c6 002B     		cmp	r3, #0
 515 01c8 E5D1     		bne	.L25
 516              		.loc 5 103 0
 517 01ca 0DE0     		b	.L26
 518              	.L27:
 519              		.loc 5 104 0
 520 01cc 0A4B     		ldr	r3, .L28
 521 01ce 1B68     		ldr	r3, [r3]
 522 01d0 1B68     		ldr	r3, [r3]
 523 01d2 9B68     		ldr	r3, [r3, #8]
 524 01d4 084A     		ldr	r2, .L28
 525 01d6 1168     		ldr	r1, [r2]
 526 01d8 079A     		ldr	r2, [sp, #28]
 527 01da 013A     		subs	r2, r2, #1
 528 01dc 0792     		str	r2, [sp, #28]
 529 01de 079A     		ldr	r2, [sp, #28]
 530 01e0 1278     		ldrb	r2, [r2]	@ zero_extendqisi2
 531 01e2 0846     		mov	r0, r1
 532 01e4 1146     		mov	r1, r2
 533 01e6 9847     		blx	r3
 534              	.L26:
 535              		.loc 5 103 0 discriminator 1
 536 01e8 03AB     		add	r3, sp, #12
 537 01ea 079A     		ldr	r2, [sp, #28]
 538 01ec 9A42     		cmp	r2, r3
 539 01ee EDD8     		bhi	.L27
 540              	.L21:
 541              		.loc 5 106 0
 542 01f0 09B0     		add	sp, sp, #36
 543              		@ sp needed
 544 01f2 5DF804FB 		ldr	pc, [sp], #4
 545              	.L29:
 546 01f6 00BF     		.align	2
 547              	.L28:
 548 01f8 1C000000 		.word	chp
 549 01fc CDCCCCCC 		.word	-858993459
 550              		.cfi_endproc
 551              	.LFE267:
 552              		.size	test_printn, .-test_printn
 553              		.align	2
 554              		.p2align 4,,15
 555              		.global	test_print
 556              		.thumb
 557              		.thumb_func
ARM GAS  /tmp/ccJ4J3WB.s 			page 11


 558              		.type	test_print, %function
 559              	test_print:
 560              	.LFB268:
 561              		.loc 5 113 0
 562              		.cfi_startproc
 563              		@ args = 0, pretend = 0, frame = 8
 564              		@ frame_needed = 0, uses_anonymous_args = 0
 565 0200 00B5     		push	{lr}
 566              		.cfi_def_cfa_offset 4
 567              		.cfi_offset 14, -4
 568 0202 83B0     		sub	sp, sp, #12
 569              		.cfi_def_cfa_offset 16
 570 0204 0190     		str	r0, [sp, #4]
 571              		.loc 5 115 0
 572 0206 0CE0     		b	.L31
 573              	.L32:
 574              		.loc 5 116 0
 575 0208 094B     		ldr	r3, .L33
 576 020a 1B68     		ldr	r3, [r3]
 577 020c 1B68     		ldr	r3, [r3]
 578 020e 9A68     		ldr	r2, [r3, #8]
 579 0210 074B     		ldr	r3, .L33
 580 0212 1968     		ldr	r1, [r3]
 581 0214 019B     		ldr	r3, [sp, #4]
 582 0216 581C     		adds	r0, r3, #1
 583 0218 0190     		str	r0, [sp, #4]
 584 021a 1B78     		ldrb	r3, [r3]	@ zero_extendqisi2
 585 021c 0846     		mov	r0, r1
 586 021e 1946     		mov	r1, r3
 587 0220 9047     		blx	r2
 588              	.L31:
 589              		.loc 5 115 0 discriminator 1
 590 0222 019B     		ldr	r3, [sp, #4]
 591 0224 1B78     		ldrb	r3, [r3]	@ zero_extendqisi2
 592 0226 002B     		cmp	r3, #0
 593 0228 EED1     		bne	.L32
 594              		.loc 5 117 0
 595 022a 03B0     		add	sp, sp, #12
 596              		@ sp needed
 597 022c 5DF804FB 		ldr	pc, [sp], #4
 598              	.L34:
 599              		.align	2
 600              	.L33:
 601 0230 1C000000 		.word	chp
 602              		.cfi_endproc
 603              	.LFE268:
 604              		.size	test_print, .-test_print
 605              		.section	.rodata
 606              		.align	2
 607              	.LC0:
 608 0014 0D0A00   		.ascii	"\015\012\000"
 609              		.text
 610              		.align	2
 611 0234 AFF30080 		.p2align 4,,15
 611      AFF30080 
 611      AFF30080 
 612              		.global	test_println
ARM GAS  /tmp/ccJ4J3WB.s 			page 12


 613              		.thumb
 614              		.thumb_func
 615              		.type	test_println, %function
 616              	test_println:
 617              	.LFB269:
 618              		.loc 5 124 0
 619              		.cfi_startproc
 620              		@ args = 0, pretend = 0, frame = 8
 621              		@ frame_needed = 0, uses_anonymous_args = 0
 622 0240 00B5     		push	{lr}
 623              		.cfi_def_cfa_offset 4
 624              		.cfi_offset 14, -4
 625 0242 83B0     		sub	sp, sp, #12
 626              		.cfi_def_cfa_offset 16
 627 0244 0190     		str	r0, [sp, #4]
 628              		.loc 5 126 0
 629 0246 0198     		ldr	r0, [sp, #4]
 630 0248 FFF7FEFF 		bl	test_print
 631              		.loc 5 127 0
 632 024c 064B     		ldr	r3, .L36
 633 024e 1B68     		ldr	r3, [r3]
 634 0250 1B68     		ldr	r3, [r3]
 635 0252 1B68     		ldr	r3, [r3]
 636 0254 044A     		ldr	r2, .L36
 637 0256 1268     		ldr	r2, [r2]
 638 0258 1046     		mov	r0, r2
 639 025a 0449     		ldr	r1, .L36+4
 640 025c 0222     		movs	r2, #2
 641 025e 9847     		blx	r3
 642              		.loc 5 128 0
 643 0260 03B0     		add	sp, sp, #12
 644              		@ sp needed
 645 0262 5DF804FB 		ldr	pc, [sp], #4
 646              	.L37:
 647 0266 00BF     		.align	2
 648              	.L36:
 649 0268 1C000000 		.word	chp
 650 026c 14000000 		.word	.LC0
 651              		.cfi_endproc
 652              	.LFE269:
 653              		.size	test_println, .-test_println
 654              		.align	2
 655              		.p2align 4,,15
 656              		.thumb
 657              		.thumb_func
 658              		.type	clear_tokens, %function
 659              	clear_tokens:
 660              	.LFB270:
 661              		.loc 5 133 0
 662              		.cfi_startproc
 663              		@ args = 0, pretend = 0, frame = 0
 664              		@ frame_needed = 0, uses_anonymous_args = 0
 665              		@ link register save eliminated.
 666              		.loc 5 135 0
 667 0270 014B     		ldr	r3, .L39
 668 0272 024A     		ldr	r2, .L39+4
 669 0274 1A60     		str	r2, [r3]
ARM GAS  /tmp/ccJ4J3WB.s 			page 13


 670              		.loc 5 136 0
 671 0276 7047     		bx	lr
 672              	.L40:
 673              		.align	2
 674              	.L39:
 675 0278 18000000 		.word	tokp
 676 027c 08000000 		.word	tokens_buffer
 677              		.cfi_endproc
 678              	.LFE270:
 679              		.size	clear_tokens, .-clear_tokens
 680              		.align	2
 681              		.p2align 4,,15
 682              		.thumb
 683              		.thumb_func
 684              		.type	print_tokens, %function
 685              	print_tokens:
 686              	.LFB271:
 687              		.loc 5 138 0
 688              		.cfi_startproc
 689              		@ args = 0, pretend = 0, frame = 8
 690              		@ frame_needed = 0, uses_anonymous_args = 0
 691 0280 00B5     		push	{lr}
 692              		.cfi_def_cfa_offset 4
 693              		.cfi_offset 14, -4
 694 0282 83B0     		sub	sp, sp, #12
 695              		.cfi_def_cfa_offset 16
 696              		.loc 5 139 0
 697 0284 0B4B     		ldr	r3, .L44
 698 0286 0193     		str	r3, [sp, #4]
 699              		.loc 5 141 0
 700 0288 0CE0     		b	.L42
 701              	.L43:
 702              		.loc 5 142 0
 703 028a 0B4B     		ldr	r3, .L44+4
 704 028c 1B68     		ldr	r3, [r3]
 705 028e 1B68     		ldr	r3, [r3]
 706 0290 9A68     		ldr	r2, [r3, #8]
 707 0292 094B     		ldr	r3, .L44+4
 708 0294 1968     		ldr	r1, [r3]
 709 0296 019B     		ldr	r3, [sp, #4]
 710 0298 581C     		adds	r0, r3, #1
 711 029a 0190     		str	r0, [sp, #4]
 712 029c 1B78     		ldrb	r3, [r3]	@ zero_extendqisi2
 713 029e 0846     		mov	r0, r1
 714 02a0 1946     		mov	r1, r3
 715 02a2 9047     		blx	r2
 716              	.L42:
 717              		.loc 5 141 0 discriminator 1
 718 02a4 054B     		ldr	r3, .L44+8
 719 02a6 1B68     		ldr	r3, [r3]
 720 02a8 019A     		ldr	r2, [sp, #4]
 721 02aa 9A42     		cmp	r2, r3
 722 02ac EDD3     		bcc	.L43
 723              		.loc 5 143 0
 724 02ae 03B0     		add	sp, sp, #12
 725              		@ sp needed
 726 02b0 5DF804FB 		ldr	pc, [sp], #4
ARM GAS  /tmp/ccJ4J3WB.s 			page 14


 727              	.L45:
 728              		.align	2
 729              	.L44:
 730 02b4 08000000 		.word	tokens_buffer
 731 02b8 1C000000 		.word	chp
 732 02bc 18000000 		.word	tokp
 733              		.cfi_endproc
 734              	.LFE271:
 735              		.size	print_tokens, .-print_tokens
 736              		.align	2
 737              		.p2align 4,,15
 738              		.global	test_emit_token
 739              		.thumb
 740              		.thumb_func
 741              		.type	test_emit_token, %function
 742              	test_emit_token:
 743              	.LFB272:
 744              		.loc 5 150 0
 745              		.cfi_startproc
 746              		@ args = 0, pretend = 0, frame = 8
 747              		@ frame_needed = 0, uses_anonymous_args = 0
 748 02c0 00B5     		push	{lr}
 749              		.cfi_def_cfa_offset 4
 750              		.cfi_offset 14, -4
 751 02c2 83B0     		sub	sp, sp, #12
 752              		.cfi_def_cfa_offset 16
 753 02c4 0346     		mov	r3, r0
 754 02c6 8DF80730 		strb	r3, [sp, #7]
 755              		.loc 5 152 0
 756 02ca FFF7A9FE 		bl	chSysLock
 757              		.loc 5 153 0
 758 02ce 064B     		ldr	r3, .L47
 759 02d0 1B68     		ldr	r3, [r3]
 760 02d2 591C     		adds	r1, r3, #1
 761 02d4 044A     		ldr	r2, .L47
 762 02d6 1160     		str	r1, [r2]
 763 02d8 9DF80720 		ldrb	r2, [sp, #7]
 764 02dc 1A70     		strb	r2, [r3]
 765              		.loc 5 154 0
 766 02de FFF7A7FE 		bl	chSysUnlock
 767              		.loc 5 155 0
 768 02e2 03B0     		add	sp, sp, #12
 769              		@ sp needed
 770 02e4 5DF804FB 		ldr	pc, [sp], #4
 771              	.L48:
 772              		.align	2
 773              	.L47:
 774 02e8 18000000 		.word	tokp
 775              		.cfi_endproc
 776              	.LFE272:
 777              		.size	test_emit_token, .-test_emit_token
 778              		.align	2
 779 02ec AFF30080 		.p2align 4,,15
 780              		.global	_test_fail
 781              		.thumb
 782              		.thumb_func
 783              		.type	_test_fail, %function
ARM GAS  /tmp/ccJ4J3WB.s 			page 15


 784              	_test_fail:
 785              	.LFB273:
 786              		.loc 5 160 0
 787              		.cfi_startproc
 788              		@ args = 0, pretend = 0, frame = 8
 789              		@ frame_needed = 0, uses_anonymous_args = 0
 790              		@ link register save eliminated.
 791 02f0 82B0     		sub	sp, sp, #8
 792              		.cfi_def_cfa_offset 8
 793 02f2 0190     		str	r0, [sp, #4]
 794              		.loc 5 162 0
 795 02f4 064B     		ldr	r3, .L51
 796 02f6 0122     		movs	r2, #1
 797 02f8 1A70     		strb	r2, [r3]
 798              		.loc 5 163 0
 799 02fa 064B     		ldr	r3, .L51+4
 800 02fc 0122     		movs	r2, #1
 801 02fe 1A70     		strb	r2, [r3]
 802              		.loc 5 164 0
 803 0300 054B     		ldr	r3, .L51+8
 804 0302 019A     		ldr	r2, [sp, #4]
 805 0304 1A60     		str	r2, [r3]
 806              		.loc 5 165 0
 807 0306 0123     		movs	r3, #1
 808              		.loc 5 166 0
 809 0308 1846     		mov	r0, r3
 810 030a 02B0     		add	sp, sp, #8
 811              		@ sp needed
 812 030c 7047     		bx	lr
 813              	.L52:
 814 030e 00BF     		.align	2
 815              	.L51:
 816 0310 00000000 		.word	test_global_fail
 817 0314 00000000 		.word	local_fail
 818 0318 04000000 		.word	failpoint
 819              		.cfi_endproc
 820              	.LFE273:
 821              		.size	_test_fail, .-_test_fail
 822              		.align	2
 823 031c AFF30080 		.p2align 4,,15
 824              		.global	_test_assert
 825              		.thumb
 826              		.thumb_func
 827              		.type	_test_assert, %function
 828              	_test_assert:
 829              	.LFB274:
 830              		.loc 5 168 0
 831              		.cfi_startproc
 832              		@ args = 0, pretend = 0, frame = 8
 833              		@ frame_needed = 0, uses_anonymous_args = 0
 834 0320 00B5     		push	{lr}
 835              		.cfi_def_cfa_offset 4
 836              		.cfi_offset 14, -4
 837 0322 83B0     		sub	sp, sp, #12
 838              		.cfi_def_cfa_offset 16
 839 0324 0190     		str	r0, [sp, #4]
 840 0326 0B46     		mov	r3, r1
ARM GAS  /tmp/ccJ4J3WB.s 			page 16


 841 0328 8DF80330 		strb	r3, [sp, #3]
 842              		.loc 5 170 0
 843 032c 9DF80330 		ldrb	r3, [sp, #3]
 844 0330 83F00103 		eor	r3, r3, #1
 845 0334 DBB2     		uxtb	r3, r3
 846 0336 002B     		cmp	r3, #0
 847 0338 04D0     		beq	.L54
 848              		.loc 5 171 0
 849 033a 0198     		ldr	r0, [sp, #4]
 850 033c FFF7FEFF 		bl	_test_fail
 851 0340 0346     		mov	r3, r0
 852 0342 00E0     		b	.L55
 853              	.L54:
 854              		.loc 5 172 0
 855 0344 0023     		movs	r3, #0
 856              	.L55:
 857              		.loc 5 173 0
 858 0346 1846     		mov	r0, r3
 859 0348 03B0     		add	sp, sp, #12
 860              		@ sp needed
 861 034a 5DF804FB 		ldr	pc, [sp], #4
 862              		.cfi_endproc
 863              	.LFE274:
 864              		.size	_test_assert, .-_test_assert
 865 034e 00BF     		.align	2
 866              		.p2align 4,,15
 867              		.global	_test_assert_sequence
 868              		.thumb
 869              		.thumb_func
 870              		.type	_test_assert_sequence, %function
 871              	_test_assert_sequence:
 872              	.LFB275:
 873              		.loc 5 175 0
 874              		.cfi_startproc
 875              		@ args = 0, pretend = 0, frame = 16
 876              		@ frame_needed = 0, uses_anonymous_args = 0
 877 0350 00B5     		push	{lr}
 878              		.cfi_def_cfa_offset 4
 879              		.cfi_offset 14, -4
 880 0352 85B0     		sub	sp, sp, #20
 881              		.cfi_def_cfa_offset 24
 882 0354 0190     		str	r0, [sp, #4]
 883 0356 0091     		str	r1, [sp]
 884              		.loc 5 176 0
 885 0358 134B     		ldr	r3, .L61
 886 035a 0393     		str	r3, [sp, #12]
 887              		.loc 5 177 0
 888 035c 0EE0     		b	.L57
 889              	.L59:
 890              		.loc 5 178 0
 891 035e 039B     		ldr	r3, [sp, #12]
 892 0360 5A1C     		adds	r2, r3, #1
 893 0362 0392     		str	r2, [sp, #12]
 894 0364 1A78     		ldrb	r2, [r3]	@ zero_extendqisi2
 895 0366 009B     		ldr	r3, [sp]
 896 0368 591C     		adds	r1, r3, #1
 897 036a 0091     		str	r1, [sp]
ARM GAS  /tmp/ccJ4J3WB.s 			page 17


 898 036c 1B78     		ldrb	r3, [r3]	@ zero_extendqisi2
 899 036e 9A42     		cmp	r2, r3
 900 0370 04D0     		beq	.L57
 901              		.loc 5 179 0
 902 0372 0198     		ldr	r0, [sp, #4]
 903 0374 FFF7FEFF 		bl	_test_fail
 904 0378 0346     		mov	r3, r0
 905 037a 10E0     		b	.L58
 906              	.L57:
 907              		.loc 5 177 0 discriminator 1
 908 037c 0B4B     		ldr	r3, .L61+4
 909 037e 1B68     		ldr	r3, [r3]
 910 0380 039A     		ldr	r2, [sp, #12]
 911 0382 9A42     		cmp	r2, r3
 912 0384 EBD3     		bcc	.L59
 913              		.loc 5 181 0
 914 0386 009B     		ldr	r3, [sp]
 915 0388 1B78     		ldrb	r3, [r3]	@ zero_extendqisi2
 916 038a 002B     		cmp	r3, #0
 917 038c 04D0     		beq	.L60
 918              		.loc 5 182 0
 919 038e 0198     		ldr	r0, [sp, #4]
 920 0390 FFF7FEFF 		bl	_test_fail
 921 0394 0346     		mov	r3, r0
 922 0396 02E0     		b	.L58
 923              	.L60:
 924              		.loc 5 183 0
 925 0398 FFF76AFF 		bl	clear_tokens
 926              		.loc 5 184 0
 927 039c 0023     		movs	r3, #0
 928              	.L58:
 929              		.loc 5 185 0
 930 039e 1846     		mov	r0, r3
 931 03a0 05B0     		add	sp, sp, #20
 932              		@ sp needed
 933 03a2 5DF804FB 		ldr	pc, [sp], #4
 934              	.L62:
 935 03a6 00BF     		.align	2
 936              	.L61:
 937 03a8 08000000 		.word	tokens_buffer
 938 03ac 18000000 		.word	tokp
 939              		.cfi_endproc
 940              	.LFE275:
 941              		.size	_test_assert_sequence, .-_test_assert_sequence
 942              		.align	2
 943              		.p2align 4,,15
 944              		.global	_test_assert_time_window
 945              		.thumb
 946              		.thumb_func
 947              		.type	_test_assert_time_window, %function
 948              	_test_assert_time_window:
 949              	.LFB276:
 950              		.loc 5 187 0
 951              		.cfi_startproc
 952              		@ args = 0, pretend = 0, frame = 16
 953              		@ frame_needed = 0, uses_anonymous_args = 0
 954 03b0 00B5     		push	{lr}
ARM GAS  /tmp/ccJ4J3WB.s 			page 18


 955              		.cfi_def_cfa_offset 4
 956              		.cfi_offset 14, -4
 957 03b2 85B0     		sub	sp, sp, #20
 958              		.cfi_def_cfa_offset 24
 959 03b4 0390     		str	r0, [sp, #12]
 960 03b6 0291     		str	r1, [sp, #8]
 961 03b8 0192     		str	r2, [sp, #4]
 962              		.loc 5 189 0
 963 03ba 0298     		ldr	r0, [sp, #8]
 964 03bc 0199     		ldr	r1, [sp, #4]
 965 03be FFF76FFE 		bl	chVTIsSystemTimeWithin
 966 03c2 0346     		mov	r3, r0
 967 03c4 0398     		ldr	r0, [sp, #12]
 968 03c6 1946     		mov	r1, r3
 969 03c8 FFF7FEFF 		bl	_test_assert
 970 03cc 0346     		mov	r3, r0
 971              		.loc 5 190 0
 972 03ce 1846     		mov	r0, r3
 973 03d0 05B0     		add	sp, sp, #20
 974              		@ sp needed
 975 03d2 5DF804FB 		ldr	pc, [sp], #4
 976              		.cfi_endproc
 977              	.LFE276:
 978              		.size	_test_assert_time_window, .-_test_assert_time_window
 979 03d6 00BF     		.align	2
 980 03d8 AFF30080 		.p2align 4,,15
 980      AFF30080 
 981              		.global	test_terminate_threads
 982              		.thumb
 983              		.thumb_func
 984              		.type	test_terminate_threads, %function
 985              	test_terminate_threads:
 986              	.LFB277:
 987              		.loc 5 199 0
 988              		.cfi_startproc
 989              		@ args = 0, pretend = 0, frame = 8
 990              		@ frame_needed = 0, uses_anonymous_args = 0
 991 03e0 00B5     		push	{lr}
 992              		.cfi_def_cfa_offset 4
 993              		.cfi_offset 14, -4
 994 03e2 83B0     		sub	sp, sp, #12
 995              		.cfi_def_cfa_offset 16
 996              		.loc 5 202 0
 997 03e4 0023     		movs	r3, #0
 998 03e6 0193     		str	r3, [sp, #4]
 999 03e8 0FE0     		b	.L66
 1000              	.L68:
 1001              		.loc 5 203 0
 1002 03ea 0B4B     		ldr	r3, .L69
 1003 03ec 019A     		ldr	r2, [sp, #4]
 1004 03ee 53F82230 		ldr	r3, [r3, r2, lsl #2]
 1005 03f2 002B     		cmp	r3, #0
 1006 03f4 06D0     		beq	.L67
 1007              		.loc 5 204 0
 1008 03f6 084B     		ldr	r3, .L69
 1009 03f8 019A     		ldr	r2, [sp, #4]
 1010 03fa 53F82230 		ldr	r3, [r3, r2, lsl #2]
ARM GAS  /tmp/ccJ4J3WB.s 			page 19


 1011 03fe 1846     		mov	r0, r3
 1012 0400 FFF7FEFF 		bl	chThdTerminate
 1013              	.L67:
 1014              		.loc 5 202 0
 1015 0404 019B     		ldr	r3, [sp, #4]
 1016 0406 0133     		adds	r3, r3, #1
 1017 0408 0193     		str	r3, [sp, #4]
 1018              	.L66:
 1019              		.loc 5 202 0 is_stmt 0 discriminator 1
 1020 040a 019B     		ldr	r3, [sp, #4]
 1021 040c 042B     		cmp	r3, #4
 1022 040e ECDD     		ble	.L68
 1023              		.loc 5 205 0 is_stmt 1
 1024 0410 03B0     		add	sp, sp, #12
 1025              		@ sp needed
 1026 0412 5DF804FB 		ldr	pc, [sp], #4
 1027              	.L70:
 1028 0416 00BF     		.align	2
 1029              	.L69:
 1030 0418 00000000 		.word	threads
 1031              		.cfi_endproc
 1032              	.LFE277:
 1033              		.size	test_terminate_threads, .-test_terminate_threads
 1034              		.align	2
 1035 041c AFF30080 		.p2align 4,,15
 1036              		.global	test_wait_threads
 1037              		.thumb
 1038              		.thumb_func
 1039              		.type	test_wait_threads, %function
 1040              	test_wait_threads:
 1041              	.LFB278:
 1042              		.loc 5 210 0
 1043              		.cfi_startproc
 1044              		@ args = 0, pretend = 0, frame = 8
 1045              		@ frame_needed = 0, uses_anonymous_args = 0
 1046 0420 00B5     		push	{lr}
 1047              		.cfi_def_cfa_offset 4
 1048              		.cfi_offset 14, -4
 1049 0422 83B0     		sub	sp, sp, #12
 1050              		.cfi_def_cfa_offset 16
 1051              		.loc 5 213 0
 1052 0424 0023     		movs	r3, #0
 1053 0426 0193     		str	r3, [sp, #4]
 1054 0428 14E0     		b	.L72
 1055              	.L74:
 1056              		.loc 5 214 0
 1057 042a 0D4B     		ldr	r3, .L75
 1058 042c 019A     		ldr	r2, [sp, #4]
 1059 042e 53F82230 		ldr	r3, [r3, r2, lsl #2]
 1060 0432 002B     		cmp	r3, #0
 1061 0434 0BD0     		beq	.L73
 1062              		.loc 5 215 0
 1063 0436 0A4B     		ldr	r3, .L75
 1064 0438 019A     		ldr	r2, [sp, #4]
 1065 043a 53F82230 		ldr	r3, [r3, r2, lsl #2]
 1066 043e 1846     		mov	r0, r3
 1067 0440 FFF7FEFF 		bl	chThdWait
ARM GAS  /tmp/ccJ4J3WB.s 			page 20


 1068              		.loc 5 216 0
 1069 0444 064B     		ldr	r3, .L75
 1070 0446 019A     		ldr	r2, [sp, #4]
 1071 0448 0021     		movs	r1, #0
 1072 044a 43F82210 		str	r1, [r3, r2, lsl #2]
 1073              	.L73:
 1074              		.loc 5 213 0
 1075 044e 019B     		ldr	r3, [sp, #4]
 1076 0450 0133     		adds	r3, r3, #1
 1077 0452 0193     		str	r3, [sp, #4]
 1078              	.L72:
 1079              		.loc 5 213 0 is_stmt 0 discriminator 1
 1080 0454 019B     		ldr	r3, [sp, #4]
 1081 0456 042B     		cmp	r3, #4
 1082 0458 E7DD     		ble	.L74
 1083              		.loc 5 218 0 is_stmt 1
 1084 045a 03B0     		add	sp, sp, #12
 1085              		@ sp needed
 1086 045c 5DF804FB 		ldr	pc, [sp], #4
 1087              	.L76:
 1088              		.align	2
 1089              	.L75:
 1090 0460 00000000 		.word	threads
 1091              		.cfi_endproc
 1092              	.LFE278:
 1093              		.size	test_wait_threads, .-test_wait_threads
 1094              		.align	2
 1095 0464 AFF30080 		.p2align 4,,15
 1095      AFF30080 
 1095      AFF30080 
 1096              		.global	test_wait_tick
 1097              		.thumb
 1098              		.thumb_func
 1099              		.type	test_wait_tick, %function
 1100              	test_wait_tick:
 1101              	.LFB279:
 1102              		.loc 5 248 0
 1103              		.cfi_startproc
 1104              		@ args = 0, pretend = 0, frame = 0
 1105              		@ frame_needed = 0, uses_anonymous_args = 0
 1106 0470 08B5     		push	{r3, lr}
 1107              		.cfi_def_cfa_offset 8
 1108              		.cfi_offset 3, -8
 1109              		.cfi_offset 14, -4
 1110              		.loc 5 250 0
 1111 0472 0120     		movs	r0, #1
 1112 0474 FFF7FEFF 		bl	chThdSleep
 1113              		.loc 5 251 0
 1114 0478 FFF7EAFD 		bl	chVTGetSystemTime
 1115 047c 0346     		mov	r3, r0
 1116              		.loc 5 252 0
 1117 047e 1846     		mov	r0, r3
 1118 0480 08BD     		pop	{r3, pc}
 1119              		.cfi_endproc
 1120              	.LFE279:
 1121              		.size	test_wait_tick, .-test_wait_tick
 1122              		.comm	test_timer_done,1,1
ARM GAS  /tmp/ccJ4J3WB.s 			page 21


 1123              		.bss
 1124              		.align	2
 1125              	vt:
 1126 0020 00000000 		.space	20
 1126      00000000 
 1126      00000000 
 1126      00000000 
 1126      00000000 
 1127              		.text
 1128 0482 00BF     		.align	2
 1129 0484 AFF30080 		.p2align 4,,15
 1129      AFF30080 
 1129      AFF30080 
 1130              		.thumb
 1131              		.thumb_func
 1132              		.type	tmr, %function
 1133              	tmr:
 1134              	.LFB280:
 1135              		.loc 5 264 0
 1136              		.cfi_startproc
 1137              		@ args = 0, pretend = 0, frame = 8
 1138              		@ frame_needed = 0, uses_anonymous_args = 0
 1139              		@ link register save eliminated.
 1140 0490 82B0     		sub	sp, sp, #8
 1141              		.cfi_def_cfa_offset 8
 1142 0492 0190     		str	r0, [sp, #4]
 1143              		.loc 5 267 0
 1144 0494 024B     		ldr	r3, .L80
 1145 0496 0122     		movs	r2, #1
 1146 0498 1A70     		strb	r2, [r3]
 1147              		.loc 5 268 0
 1148 049a 02B0     		add	sp, sp, #8
 1149              		@ sp needed
 1150 049c 7047     		bx	lr
 1151              	.L81:
 1152 049e 00BF     		.align	2
 1153              	.L80:
 1154 04a0 00000000 		.word	test_timer_done
 1155              		.cfi_endproc
 1156              	.LFE280:
 1157              		.size	tmr, .-tmr
 1158              		.align	2
 1159 04a4 AFF30080 		.p2align 4,,15
 1159      AFF30080 
 1159      AFF30080 
 1160              		.global	test_start_timer
 1161              		.thumb
 1162              		.thumb_func
 1163              		.type	test_start_timer, %function
 1164              	test_start_timer:
 1165              	.LFB281:
 1166              		.loc 5 275 0
 1167              		.cfi_startproc
 1168              		@ args = 0, pretend = 0, frame = 16
 1169              		@ frame_needed = 0, uses_anonymous_args = 0
 1170 04b0 00B5     		push	{lr}
 1171              		.cfi_def_cfa_offset 4
ARM GAS  /tmp/ccJ4J3WB.s 			page 22


 1172              		.cfi_offset 14, -4
 1173 04b2 85B0     		sub	sp, sp, #20
 1174              		.cfi_def_cfa_offset 24
 1175 04b4 0190     		str	r0, [sp, #4]
 1176              		.loc 5 277 0
 1177 04b6 019B     		ldr	r3, [sp, #4]
 1178 04b8 4FF47A72 		mov	r2, #1000
 1179 04bc 02FB03F3 		mul	r3, r2, r3
 1180 04c0 03F2E732 		addw	r2, r3, #999
 1181 04c4 084B     		ldr	r3, .L83
 1182 04c6 A3FB0213 		umull	r1, r3, r3, r2
 1183 04ca 9B09     		lsrs	r3, r3, #6
 1184 04cc 0393     		str	r3, [sp, #12]
 1185              		.loc 5 278 0
 1186 04ce 074B     		ldr	r3, .L83+4
 1187 04d0 0022     		movs	r2, #0
 1188 04d2 1A70     		strb	r2, [r3]
 1189              		.loc 5 279 0
 1190 04d4 0648     		ldr	r0, .L83+8
 1191 04d6 0399     		ldr	r1, [sp, #12]
 1192 04d8 064A     		ldr	r2, .L83+12
 1193 04da 0023     		movs	r3, #0
 1194 04dc FFF730FE 		bl	chVTSet
 1195              		.loc 5 280 0
 1196 04e0 05B0     		add	sp, sp, #20
 1197              		@ sp needed
 1198 04e2 5DF804FB 		ldr	pc, [sp], #4
 1199              	.L84:
 1200 04e6 00BF     		.align	2
 1201              	.L83:
 1202 04e8 D34D6210 		.word	274877907
 1203 04ec 00000000 		.word	test_timer_done
 1204 04f0 20000000 		.word	vt
 1205 04f4 00000000 		.word	tmr
 1206              		.cfi_endproc
 1207              	.LFE281:
 1208              		.size	test_start_timer, .-test_start_timer
 1209              		.align	2
 1210 04f8 AFF30080 		.p2align 4,,15
 1210      AFF30080 
 1211              		.thumb
 1212              		.thumb_func
 1213              		.type	execute_test, %function
 1214              	execute_test:
 1215              	.LFB282:
 1216              		.loc 5 285 0
 1217              		.cfi_startproc
 1218              		@ args = 0, pretend = 0, frame = 16
 1219              		@ frame_needed = 0, uses_anonymous_args = 0
 1220 0500 00B5     		push	{lr}
 1221              		.cfi_def_cfa_offset 4
 1222              		.cfi_offset 14, -4
 1223 0502 85B0     		sub	sp, sp, #20
 1224              		.cfi_def_cfa_offset 24
 1225 0504 0190     		str	r0, [sp, #4]
 1226              		.loc 5 289 0
 1227 0506 FFF7B3FE 		bl	clear_tokens
ARM GAS  /tmp/ccJ4J3WB.s 			page 23


 1228              		.loc 5 290 0
 1229 050a 134B     		ldr	r3, .L90
 1230 050c 0022     		movs	r2, #0
 1231 050e 1A70     		strb	r2, [r3]
 1232              		.loc 5 291 0
 1233 0510 0023     		movs	r3, #0
 1234 0512 0393     		str	r3, [sp, #12]
 1235 0514 07E0     		b	.L86
 1236              	.L87:
 1237              		.loc 5 292 0 discriminator 2
 1238 0516 114B     		ldr	r3, .L90+4
 1239 0518 039A     		ldr	r2, [sp, #12]
 1240 051a 0021     		movs	r1, #0
 1241 051c 43F82210 		str	r1, [r3, r2, lsl #2]
 1242              		.loc 5 291 0 discriminator 2
 1243 0520 039B     		ldr	r3, [sp, #12]
 1244 0522 0133     		adds	r3, r3, #1
 1245 0524 0393     		str	r3, [sp, #12]
 1246              	.L86:
 1247              		.loc 5 291 0 is_stmt 0 discriminator 1
 1248 0526 039B     		ldr	r3, [sp, #12]
 1249 0528 042B     		cmp	r3, #4
 1250 052a F4DD     		ble	.L87
 1251              		.loc 5 294 0 is_stmt 1
 1252 052c 019B     		ldr	r3, [sp, #4]
 1253 052e 5B68     		ldr	r3, [r3, #4]
 1254 0530 002B     		cmp	r3, #0
 1255 0532 02D0     		beq	.L88
 1256              		.loc 5 295 0
 1257 0534 019B     		ldr	r3, [sp, #4]
 1258 0536 5B68     		ldr	r3, [r3, #4]
 1259 0538 9847     		blx	r3
 1260              	.L88:
 1261              		.loc 5 296 0
 1262 053a 019B     		ldr	r3, [sp, #4]
 1263 053c DB68     		ldr	r3, [r3, #12]
 1264 053e 9847     		blx	r3
 1265              		.loc 5 297 0
 1266 0540 019B     		ldr	r3, [sp, #4]
 1267 0542 9B68     		ldr	r3, [r3, #8]
 1268 0544 002B     		cmp	r3, #0
 1269 0546 02D0     		beq	.L89
 1270              		.loc 5 298 0
 1271 0548 019B     		ldr	r3, [sp, #4]
 1272 054a 9B68     		ldr	r3, [r3, #8]
 1273 054c 9847     		blx	r3
 1274              	.L89:
 1275              		.loc 5 300 0
 1276 054e FFF7FEFF 		bl	test_wait_threads
 1277              		.loc 5 301 0
 1278 0552 05B0     		add	sp, sp, #20
 1279              		@ sp needed
 1280 0554 5DF804FB 		ldr	pc, [sp], #4
 1281              	.L91:
 1282              		.align	2
 1283              	.L90:
 1284 0558 00000000 		.word	local_fail
ARM GAS  /tmp/ccJ4J3WB.s 			page 24


 1285 055c 00000000 		.word	threads
 1286              		.cfi_endproc
 1287              	.LFE282:
 1288              		.size	execute_test, .-execute_test
 1289              		.align	2
 1290              		.p2align 4,,15
 1291              		.thumb
 1292              		.thumb_func
 1293              		.type	print_line, %function
 1294              	print_line:
 1295              	.LFB283:
 1296              		.loc 5 303 0
 1297              		.cfi_startproc
 1298              		@ args = 0, pretend = 0, frame = 8
 1299              		@ frame_needed = 0, uses_anonymous_args = 0
 1300 0560 00B5     		push	{lr}
 1301              		.cfi_def_cfa_offset 4
 1302              		.cfi_offset 14, -4
 1303 0562 83B0     		sub	sp, sp, #12
 1304              		.cfi_def_cfa_offset 16
 1305              		.loc 5 306 0
 1306 0564 0023     		movs	r3, #0
 1307 0566 0193     		str	r3, [sp, #4]
 1308 0568 0BE0     		b	.L93
 1309              	.L94:
 1310              		.loc 5 307 0 discriminator 2
 1311 056a 0E4B     		ldr	r3, .L95
 1312 056c 1B68     		ldr	r3, [r3]
 1313 056e 1B68     		ldr	r3, [r3]
 1314 0570 9B68     		ldr	r3, [r3, #8]
 1315 0572 0C4A     		ldr	r2, .L95
 1316 0574 1268     		ldr	r2, [r2]
 1317 0576 1046     		mov	r0, r2
 1318 0578 2D21     		movs	r1, #45
 1319 057a 9847     		blx	r3
 1320              		.loc 5 306 0 discriminator 2
 1321 057c 019B     		ldr	r3, [sp, #4]
 1322 057e 0133     		adds	r3, r3, #1
 1323 0580 0193     		str	r3, [sp, #4]
 1324              	.L93:
 1325              		.loc 5 306 0 is_stmt 0 discriminator 1
 1326 0582 019B     		ldr	r3, [sp, #4]
 1327 0584 4B2B     		cmp	r3, #75
 1328 0586 F0D9     		bls	.L94
 1329              		.loc 5 308 0 is_stmt 1
 1330 0588 064B     		ldr	r3, .L95
 1331 058a 1B68     		ldr	r3, [r3]
 1332 058c 1B68     		ldr	r3, [r3]
 1333 058e 1B68     		ldr	r3, [r3]
 1334 0590 044A     		ldr	r2, .L95
 1335 0592 1268     		ldr	r2, [r2]
 1336 0594 1046     		mov	r0, r2
 1337 0596 0449     		ldr	r1, .L95+4
 1338 0598 0222     		movs	r2, #2
 1339 059a 9847     		blx	r3
 1340              		.loc 5 309 0
 1341 059c 03B0     		add	sp, sp, #12
ARM GAS  /tmp/ccJ4J3WB.s 			page 25


 1342              		@ sp needed
 1343 059e 5DF804FB 		ldr	pc, [sp], #4
 1344              	.L96:
 1345 05a2 00BF     		.align	2
 1346              	.L95:
 1347 05a4 1C000000 		.word	chp
 1348 05a8 14000000 		.word	.LC0
 1349              		.cfi_endproc
 1350              	.LFE283:
 1351              		.size	print_line, .-print_line
 1352              		.section	.rodata
 1353 0017 00       		.align	2
 1354              	.LC1:
 1355 0018 00       		.ascii	"\000"
 1356 0019 000000   		.align	2
 1357              	.LC2:
 1358 001c 2A2A2A20 		.ascii	"*** ChibiOS/RT test suite\000"
 1358      43686962 
 1358      694F532F 
 1358      52542074 
 1358      65737420 
 1359 0036 0000     		.align	2
 1360              	.LC3:
 1361 0038 2A2A2A00 		.ascii	"***\000"
 1362              		.align	2
 1363              	.LC4:
 1364 003c 2A2A2A20 		.ascii	"*** Kernel:       \000"
 1364      4B65726E 
 1364      656C3A20 
 1364      20202020 
 1364      202000
 1365 004f 00       		.align	2
 1366              	.LC5:
 1367 0050 332E312E 		.ascii	"3.1.5\000"
 1367      3500
 1368 0056 0000     		.align	2
 1369              	.LC6:
 1370 0058 2A2A2A20 		.ascii	"*** Compiled:     \000"
 1370      436F6D70 
 1370      696C6564 
 1370      3A202020 
 1370      202000
 1371 006b 00       		.align	2
 1372              	.LC7:
 1373 006c 4D617220 		.ascii	"Mar  3 2017 - 12:36:54\000"
 1373      20332032 
 1373      30313720 
 1373      2D203132 
 1373      3A33363A 
 1374 0083 00       		.align	2
 1375              	.LC8:
 1376 0084 2A2A2A20 		.ascii	"*** Compiler:     \000"
 1376      436F6D70 
 1376      696C6572 
 1376      3A202020 
 1376      202000
 1377 0097 00       		.align	2
ARM GAS  /tmp/ccJ4J3WB.s 			page 26


 1378              	.LC9:
 1379 0098 47434320 		.ascii	"GCC 4.8.4 20140526 (release) [ARM/embedded-4_8-bran"
 1379      342E382E 
 1379      34203230 
 1379      31343035 
 1379      32362028 
 1380 00cb 63682072 		.ascii	"ch revision 211358]\000"
 1380      65766973 
 1380      696F6E20 
 1380      32313133 
 1380      35385D00 
 1381 00df 00       		.align	2
 1382              	.LC10:
 1383 00e0 2A2A2A20 		.ascii	"*** Architecture: \000"
 1383      41726368 
 1383      69746563 
 1383      74757265 
 1383      3A2000
 1384 00f3 00       		.align	2
 1385              	.LC11:
 1386 00f4 41524D76 		.ascii	"ARMv7E-M\000"
 1386      37452D4D 
 1386      00
 1387 00fd 000000   		.align	2
 1388              	.LC12:
 1389 0100 2A2A2A20 		.ascii	"*** Core Variant: \000"
 1389      436F7265 
 1389      20566172 
 1389      69616E74 
 1389      3A2000
 1390 0113 00       		.align	2
 1391              	.LC13:
 1392 0114 436F7274 		.ascii	"Cortex-M4\000"
 1392      65782D4D 
 1392      3400
 1393 011e 0000     		.align	2
 1394              	.LC14:
 1395 0120 2A2A2A20 		.ascii	"*** Port Info:    \000"
 1395      506F7274 
 1395      20496E66 
 1395      6F3A2020 
 1395      202000
 1396 0133 00       		.align	2
 1397              	.LC15:
 1398 0134 41647661 		.ascii	"Advanced kernel mode\000"
 1398      6E636564 
 1398      206B6572 
 1398      6E656C20 
 1398      6D6F6465 
 1399 0149 000000   		.align	2
 1400              	.LC16:
 1401 014c 2A2A2A20 		.ascii	"*** Platform:     \000"
 1401      506C6174 
 1401      666F726D 
 1401      3A202020 
 1401      202000
 1402 015f 00       		.align	2
ARM GAS  /tmp/ccJ4J3WB.s 			page 27


 1403              	.LC17:
 1404 0160 53544D33 		.ascii	"STM32L4xx Ultra Low Power\000"
 1404      324C3478 
 1404      7820556C 
 1404      74726120 
 1404      4C6F7720 
 1405 017a 0000     		.align	2
 1406              	.LC18:
 1407 017c 2A2A2A20 		.ascii	"*** Test Board:   \000"
 1407      54657374 
 1407      20426F61 
 1407      72643A20 
 1407      202000
 1408 018f 00       		.align	2
 1409              	.LC19:
 1410 0190 53542053 		.ascii	"ST Sensortile \000"
 1410      656E736F 
 1410      7274696C 
 1410      652000
 1411 019f 00       		.align	2
 1412              	.LC20:
 1413 01a0 2D2D2D20 		.ascii	"--- Test Case \000"
 1413      54657374 
 1413      20436173 
 1413      652000
 1414 01af 00       		.align	2
 1415              	.LC21:
 1416 01b0 2E00     		.ascii	".\000"
 1417 01b2 0000     		.align	2
 1418              	.LC22:
 1419 01b4 202800   		.ascii	" (\000"
 1420 01b7 00       		.align	2
 1421              	.LC23:
 1422 01b8 2900     		.ascii	")\000"
 1423 01ba 0000     		.align	2
 1424              	.LC24:
 1425 01bc 2D2D2D20 		.ascii	"--- Result: FAILURE (#\000"
 1425      52657375 
 1425      6C743A20 
 1425      4641494C 
 1425      55524520 
 1426 01d3 00       		.align	2
 1427              	.LC25:
 1428 01d4 205B00   		.ascii	" [\000"
 1429 01d7 00       		.align	2
 1430              	.LC26:
 1431 01d8 5D2900   		.ascii	"])\000"
 1432 01db 00       		.align	2
 1433              	.LC27:
 1434 01dc 2D2D2D20 		.ascii	"--- Result: SUCCESS\000"
 1434      52657375 
 1434      6C743A20 
 1434      53554343 
 1434      45535300 
 1435              		.align	2
 1436              	.LC28:
 1437 01f0 46696E61 		.ascii	"Final result: \000"
ARM GAS  /tmp/ccJ4J3WB.s 			page 28


 1437      6C207265 
 1437      73756C74 
 1437      3A2000
 1438 01ff 00       		.align	2
 1439              	.LC29:
 1440 0200 4641494C 		.ascii	"FAILURE\000"
 1440      55524500 
 1441              		.align	2
 1442              	.LC30:
 1443 0208 53554343 		.ascii	"SUCCESS\000"
 1443      45535300 
 1444              		.text
 1445              		.align	2
 1446 05ac AFF30080 		.p2align 4,,15
 1447              		.global	TestThread
 1448              		.thumb
 1449              		.thumb_func
 1450              		.type	TestThread, %function
 1451              	TestThread:
 1452              	.LFB284:
 1453              		.loc 5 316 0
 1454              		.cfi_startproc
 1455              		@ args = 0, pretend = 0, frame = 16
 1456              		@ frame_needed = 0, uses_anonymous_args = 0
 1457 05b0 00B5     		push	{lr}
 1458              		.cfi_def_cfa_offset 4
 1459              		.cfi_offset 14, -4
 1460 05b2 85B0     		sub	sp, sp, #20
 1461              		.cfi_def_cfa_offset 24
 1462 05b4 0190     		str	r0, [sp, #4]
 1463              		.loc 5 319 0
 1464 05b6 5F4B     		ldr	r3, .L106
 1465 05b8 019A     		ldr	r2, [sp, #4]
 1466 05ba 1A60     		str	r2, [r3]
 1467              		.loc 5 320 0
 1468 05bc 5E48     		ldr	r0, .L106+4
 1469 05be FFF7FEFF 		bl	test_println
 1470              		.loc 5 321 0
 1471 05c2 5E48     		ldr	r0, .L106+8
 1472 05c4 FFF7FEFF 		bl	test_println
 1473              		.loc 5 322 0
 1474 05c8 5D48     		ldr	r0, .L106+12
 1475 05ca FFF7FEFF 		bl	test_println
 1476              		.loc 5 323 0
 1477 05ce 5D48     		ldr	r0, .L106+16
 1478 05d0 FFF7FEFF 		bl	test_print
 1479              		.loc 5 324 0
 1480 05d4 5C48     		ldr	r0, .L106+20
 1481 05d6 FFF7FEFF 		bl	test_println
 1482              		.loc 5 325 0
 1483 05da 5C48     		ldr	r0, .L106+24
 1484 05dc FFF7FEFF 		bl	test_print
 1485              		.loc 5 326 0
 1486 05e0 5B48     		ldr	r0, .L106+28
 1487 05e2 FFF7FEFF 		bl	test_println
 1488              		.loc 5 328 0
 1489 05e6 5B48     		ldr	r0, .L106+32
ARM GAS  /tmp/ccJ4J3WB.s 			page 29


 1490 05e8 FFF7FEFF 		bl	test_print
 1491              		.loc 5 329 0
 1492 05ec 5A48     		ldr	r0, .L106+36
 1493 05ee FFF7FEFF 		bl	test_println
 1494              		.loc 5 331 0
 1495 05f2 5A48     		ldr	r0, .L106+40
 1496 05f4 FFF7FEFF 		bl	test_print
 1497              		.loc 5 332 0
 1498 05f8 5948     		ldr	r0, .L106+44
 1499 05fa FFF7FEFF 		bl	test_println
 1500              		.loc 5 334 0
 1501 05fe 5948     		ldr	r0, .L106+48
 1502 0600 FFF7FEFF 		bl	test_print
 1503              		.loc 5 335 0
 1504 0604 5848     		ldr	r0, .L106+52
 1505 0606 FFF7FEFF 		bl	test_println
 1506              		.loc 5 338 0
 1507 060a 5848     		ldr	r0, .L106+56
 1508 060c FFF7FEFF 		bl	test_print
 1509              		.loc 5 339 0
 1510 0610 5748     		ldr	r0, .L106+60
 1511 0612 FFF7FEFF 		bl	test_println
 1512              		.loc 5 342 0
 1513 0616 5748     		ldr	r0, .L106+64
 1514 0618 FFF7FEFF 		bl	test_print
 1515              		.loc 5 343 0
 1516 061c 5648     		ldr	r0, .L106+68
 1517 061e FFF7FEFF 		bl	test_println
 1518              		.loc 5 346 0
 1519 0622 5648     		ldr	r0, .L106+72
 1520 0624 FFF7FEFF 		bl	test_print
 1521              		.loc 5 347 0
 1522 0628 5548     		ldr	r0, .L106+76
 1523 062a FFF7FEFF 		bl	test_println
 1524              		.loc 5 349 0
 1525 062e 4248     		ldr	r0, .L106+4
 1526 0630 FFF7FEFF 		bl	test_println
 1527              		.loc 5 351 0
 1528 0634 534B     		ldr	r3, .L106+80
 1529 0636 0022     		movs	r2, #0
 1530 0638 1A70     		strb	r2, [r3]
 1531              		.loc 5 352 0
 1532 063a 0023     		movs	r3, #0
 1533 063c 0393     		str	r3, [sp, #12]
 1534              		.loc 5 353 0
 1535 063e 5CE0     		b	.L98
 1536              	.L103:
 1537              		.loc 5 354 0
 1538 0640 0023     		movs	r3, #0
 1539 0642 0293     		str	r3, [sp, #8]
 1540              		.loc 5 355 0
 1541 0644 4CE0     		b	.L99
 1542              	.L102:
 1543              		.loc 5 356 0
 1544 0646 FFF78BFF 		bl	print_line
 1545              		.loc 5 357 0
 1546 064a 4F48     		ldr	r0, .L106+84
ARM GAS  /tmp/ccJ4J3WB.s 			page 30


 1547 064c FFF7FEFF 		bl	test_print
 1548              		.loc 5 358 0
 1549 0650 039B     		ldr	r3, [sp, #12]
 1550 0652 0133     		adds	r3, r3, #1
 1551 0654 1846     		mov	r0, r3
 1552 0656 FFF7FEFF 		bl	test_printn
 1553              		.loc 5 359 0
 1554 065a 4C48     		ldr	r0, .L106+88
 1555 065c FFF7FEFF 		bl	test_print
 1556              		.loc 5 360 0
 1557 0660 029B     		ldr	r3, [sp, #8]
 1558 0662 0133     		adds	r3, r3, #1
 1559 0664 1846     		mov	r0, r3
 1560 0666 FFF7FEFF 		bl	test_printn
 1561              		.loc 5 361 0
 1562 066a 4948     		ldr	r0, .L106+92
 1563 066c FFF7FEFF 		bl	test_print
 1564              		.loc 5 362 0
 1565 0670 484B     		ldr	r3, .L106+96
 1566 0672 039A     		ldr	r2, [sp, #12]
 1567 0674 53F82220 		ldr	r2, [r3, r2, lsl #2]
 1568 0678 029B     		ldr	r3, [sp, #8]
 1569 067a 9B00     		lsls	r3, r3, #2
 1570 067c 1344     		add	r3, r3, r2
 1571 067e 1B68     		ldr	r3, [r3]
 1572 0680 1B68     		ldr	r3, [r3]
 1573 0682 1846     		mov	r0, r3
 1574 0684 FFF7FEFF 		bl	test_print
 1575              		.loc 5 363 0
 1576 0688 4348     		ldr	r0, .L106+100
 1577 068a FFF7FEFF 		bl	test_println
 1578              		.loc 5 365 0
 1579 068e C820     		movs	r0, #200
 1580 0690 FFF7FEFF 		bl	chThdSleep
 1581              		.loc 5 367 0
 1582 0694 3F4B     		ldr	r3, .L106+96
 1583 0696 039A     		ldr	r2, [sp, #12]
 1584 0698 53F82220 		ldr	r2, [r3, r2, lsl #2]
 1585 069c 029B     		ldr	r3, [sp, #8]
 1586 069e 9B00     		lsls	r3, r3, #2
 1587 06a0 1344     		add	r3, r3, r2
 1588 06a2 1B68     		ldr	r3, [r3]
 1589 06a4 1846     		mov	r0, r3
 1590 06a6 FFF72BFF 		bl	execute_test
 1591              		.loc 5 368 0
 1592 06aa 3C4B     		ldr	r3, .L106+104
 1593 06ac 1B78     		ldrb	r3, [r3]	@ zero_extendqisi2
 1594 06ae 002B     		cmp	r3, #0
 1595 06b0 10D0     		beq	.L100
 1596              		.loc 5 369 0
 1597 06b2 3B48     		ldr	r0, .L106+108
 1598 06b4 FFF7FEFF 		bl	test_print
 1599              		.loc 5 370 0
 1600 06b8 3A4B     		ldr	r3, .L106+112
 1601 06ba 1B68     		ldr	r3, [r3]
 1602 06bc 1846     		mov	r0, r3
 1603 06be FFF7FEFF 		bl	test_printn
ARM GAS  /tmp/ccJ4J3WB.s 			page 31


 1604              		.loc 5 371 0
 1605 06c2 3948     		ldr	r0, .L106+116
 1606 06c4 FFF7FEFF 		bl	test_print
 1607              		.loc 5 372 0
 1608 06c8 FFF7DAFD 		bl	print_tokens
 1609              		.loc 5 373 0
 1610 06cc 3748     		ldr	r0, .L106+120
 1611 06ce FFF7FEFF 		bl	test_println
 1612 06d2 02E0     		b	.L101
 1613              	.L100:
 1614              		.loc 5 376 0
 1615 06d4 3648     		ldr	r0, .L106+124
 1616 06d6 FFF7FEFF 		bl	test_println
 1617              	.L101:
 1618              		.loc 5 377 0
 1619 06da 029B     		ldr	r3, [sp, #8]
 1620 06dc 0133     		adds	r3, r3, #1
 1621 06de 0293     		str	r3, [sp, #8]
 1622              	.L99:
 1623              		.loc 5 355 0 discriminator 1
 1624 06e0 2C4B     		ldr	r3, .L106+96
 1625 06e2 039A     		ldr	r2, [sp, #12]
 1626 06e4 53F82220 		ldr	r2, [r3, r2, lsl #2]
 1627 06e8 029B     		ldr	r3, [sp, #8]
 1628 06ea 9B00     		lsls	r3, r3, #2
 1629 06ec 1344     		add	r3, r3, r2
 1630 06ee 1B68     		ldr	r3, [r3]
 1631 06f0 002B     		cmp	r3, #0
 1632 06f2 A8D1     		bne	.L102
 1633              		.loc 5 379 0
 1634 06f4 039B     		ldr	r3, [sp, #12]
 1635 06f6 0133     		adds	r3, r3, #1
 1636 06f8 0393     		str	r3, [sp, #12]
 1637              	.L98:
 1638              		.loc 5 353 0 discriminator 1
 1639 06fa 264B     		ldr	r3, .L106+96
 1640 06fc 039A     		ldr	r2, [sp, #12]
 1641 06fe 53F82230 		ldr	r3, [r3, r2, lsl #2]
 1642 0702 002B     		cmp	r3, #0
 1643 0704 9CD1     		bne	.L103
 1644              		.loc 5 381 0
 1645 0706 FFF72BFF 		bl	print_line
 1646              		.loc 5 382 0
 1647 070a 0B48     		ldr	r0, .L106+4
 1648 070c FFF7FEFF 		bl	test_println
 1649              		.loc 5 383 0
 1650 0710 2848     		ldr	r0, .L106+128
 1651 0712 FFF7FEFF 		bl	test_print
 1652              		.loc 5 384 0
 1653 0716 1B4B     		ldr	r3, .L106+80
 1654 0718 1B78     		ldrb	r3, [r3]	@ zero_extendqisi2
 1655 071a 002B     		cmp	r3, #0
 1656 071c 03D0     		beq	.L104
 1657              		.loc 5 385 0
 1658 071e 2648     		ldr	r0, .L106+132
 1659 0720 FFF7FEFF 		bl	test_println
 1660 0724 02E0     		b	.L97
ARM GAS  /tmp/ccJ4J3WB.s 			page 32


 1661              	.L104:
 1662              		.loc 5 387 0
 1663 0726 2548     		ldr	r0, .L106+136
 1664 0728 FFF7FEFF 		bl	test_println
 1665              	.L97:
 1666              		.loc 5 388 0
 1667 072c 05B0     		add	sp, sp, #20
 1668              		@ sp needed
 1669 072e 5DF804FB 		ldr	pc, [sp], #4
 1670              	.L107:
 1671 0732 00BF     		.align	2
 1672              	.L106:
 1673 0734 1C000000 		.word	chp
 1674 0738 18000000 		.word	.LC1
 1675 073c 1C000000 		.word	.LC2
 1676 0740 38000000 		.word	.LC3
 1677 0744 3C000000 		.word	.LC4
 1678 0748 50000000 		.word	.LC5
 1679 074c 58000000 		.word	.LC6
 1680 0750 6C000000 		.word	.LC7
 1681 0754 84000000 		.word	.LC8
 1682 0758 98000000 		.word	.LC9
 1683 075c E0000000 		.word	.LC10
 1684 0760 F4000000 		.word	.LC11
 1685 0764 00010000 		.word	.LC12
 1686 0768 14010000 		.word	.LC13
 1687 076c 20010000 		.word	.LC14
 1688 0770 34010000 		.word	.LC15
 1689 0774 4C010000 		.word	.LC16
 1690 0778 60010000 		.word	.LC17
 1691 077c 7C010000 		.word	.LC18
 1692 0780 90010000 		.word	.LC19
 1693 0784 00000000 		.word	test_global_fail
 1694 0788 A0010000 		.word	.LC20
 1695 078c B0010000 		.word	.LC21
 1696 0790 B4010000 		.word	.LC22
 1697 0794 00000000 		.word	patterns
 1698 0798 B8010000 		.word	.LC23
 1699 079c 00000000 		.word	local_fail
 1700 07a0 BC010000 		.word	.LC24
 1701 07a4 04000000 		.word	failpoint
 1702 07a8 D4010000 		.word	.LC25
 1703 07ac D8010000 		.word	.LC26
 1704 07b0 DC010000 		.word	.LC27
 1705 07b4 F0010000 		.word	.LC28
 1706 07b8 00020000 		.word	.LC29
 1707 07bc 08020000 		.word	.LC30
 1708              		.cfi_endproc
 1709              	.LFE284:
 1710              		.size	TestThread, .-TestThread
 1711              	.Letext0:
 1712              		.file 6 "/nfs/nfs5/home/research/hardware/arm2/gcc-arm-embedded/gcc-arm-none-eabi-4_8-2014q2/lib/g
 1713              		.file 7 "/nfs/nfs5/home/research/hardware/arm2/gcc-arm-embedded/gcc-arm-none-eabi-4_8-2014q2/arm-n
 1714              		.file 8 "/nfs/nfs5/home/research/hardware/arm2/gcc-arm-embedded/gcc-arm-none-eabi-4_8-2014q2/arm-n
 1715              		.file 9 "../../../ChibiOS/os/rt/ports/ARMCMx/compilers/GCC/chtypes.h"
 1716              		.file 10 "../../../ChibiOS/os/rt/include/chsystypes.h"
 1717              		.file 11 "../../../ChibiOS/os/rt/include/chschd.h"
ARM GAS  /tmp/ccJ4J3WB.s 			page 33


 1718              		.file 12 "../../../ChibiOS/os/rt/ports/ARMCMx/chcore.h"
 1719              		.file 13 "../../../ChibiOS/os/rt/include/chtm.h"
 1720              		.file 14 "../../../ChibiOS/os/rt/include/chsem.h"
 1721              		.file 15 "../../../ChibiOS/os/rt/include/chmtx.h"
 1722              		.file 16 "../../../ChibiOS/os/rt/include/chstreams.h"
 1723              		.file 17 "../../../ChibiOS/test/rt/test.h"
 1724              		.file 18 "../../../ChibiOS/os/ext/CMSIS/include/core_cm4.h"
 1725              		.file 19 "../../../ChibiOS/test/rt/testsys.h"
 1726              		.file 20 "../../../ChibiOS/test/rt/testthd.h"
 1727              		.file 21 "../../../ChibiOS/test/rt/testsem.h"
 1728              		.file 22 "../../../ChibiOS/test/rt/testmtx.h"
 1729              		.file 23 "../../../ChibiOS/test/rt/testmsg.h"
 1730              		.file 24 "../../../ChibiOS/test/rt/testmbox.h"
 1731              		.file 25 "../../../ChibiOS/test/rt/testevt.h"
 1732              		.file 26 "../../../ChibiOS/test/rt/testheap.h"
 1733              		.file 27 "../../../ChibiOS/test/rt/testpools.h"
 1734              		.file 28 "../../../ChibiOS/test/rt/testdyn.h"
 1735              		.file 29 "../../../ChibiOS/test/rt/testqueues.h"
 1736              		.file 30 "../../../ChibiOS/test/rt/testbmk.h"