ARM GAS  /tmp/ccJ4J3WB.s 			page 1


   1              		.syntax unified
   2              		.cpu cortex-m4
   3              		.fpu softvfp
   4              		.eabi_attribute 20, 1
   5              		.eabi_attribute 21, 1
   6              		.eabi_attribute 23, 3
   7              		.eabi_attribute 24, 1
   8              		.eabi_attribute 25, 1
   9              		.eabi_attribute 26, 1
  10              		.eabi_attribute 30, 6
  11              		.eabi_attribute 34, 1
  12              		.eabi_attribute 18, 4
  13              		.thumb
  14              		.file	"test.c"
  15              		.text
  16              	.Ltext0:
  17              		.cfi_sections	.debug_frame
  18              		.align	2
  19              		.p2align 4,,15
  20              		.thumb
  21              		.thumb_func
  22              		.type	port_lock, %function
  23              	port_lock:
  24              	.LFB127:
  25              		.file 1 "../../../ChibiOS/os/rt/ports/ARMCMx/chcore_v7m.h"
  26              		.loc 1 456 0
  27              		.cfi_startproc
  28              		@ args = 0, pretend = 0, frame = 8
  29              		@ frame_needed = 0, uses_anonymous_args = 0
  30              		@ link register save eliminated.
  31 0000 82B0     		sub	sp, sp, #8
  32              		.cfi_def_cfa_offset 8
  33 0002 2023     		movs	r3, #32
  34 0004 0193     		str	r3, [sp, #4]
  35              	.LBB6:
  36              	.LBB7:
  37              		.file 2 "../../../ChibiOS/os/ext/CMSIS/include/core_cmFunc.h"
  38              		.loc 2 548 0
  39 0006 019B     		ldr	r3, [sp, #4]
  40              	@ 548 "../../../ChibiOS/os/ext/CMSIS/include/core_cmFunc.h" 1
  41 0008 83F31188 		MSR basepri, r3
  42              	@ 0 "" 2
  43              		.thumb
  44              	.LBE7:
  45              	.LBE6:
  46              		.loc 1 473 0
  47 000c 02B0     		add	sp, sp, #8
  48              		@ sp needed
  49 000e 7047     		bx	lr
  50              		.cfi_endproc
  51              	.LFE127:
  52              		.size	port_lock, .-port_lock
  53              		.align	2
  54              		.p2align 4,,15
  55              		.thumb
  56              		.thumb_func
  57              		.type	port_unlock, %function
ARM GAS  /tmp/ccJ4J3WB.s 			page 2


  58              	port_unlock:
  59              	.LFB128:
  60              		.loc 1 480 0
  61              		.cfi_startproc
  62              		@ args = 0, pretend = 0, frame = 8
  63              		@ frame_needed = 0, uses_anonymous_args = 0
  64              		@ link register save eliminated.
  65 0010 82B0     		sub	sp, sp, #8
  66              		.cfi_def_cfa_offset 8
  67 0012 0023     		movs	r3, #0
  68 0014 0193     		str	r3, [sp, #4]
  69              	.LBB8:
  70              	.LBB9:
  71              		.loc 2 548 0
  72 0016 019B     		ldr	r3, [sp, #4]
  73              	@ 548 "../../../ChibiOS/os/ext/CMSIS/include/core_cmFunc.h" 1
  74 0018 83F31188 		MSR basepri, r3
  75              	@ 0 "" 2
  76              		.thumb
  77              	.LBE9:
  78              	.LBE8:
  79              		.loc 1 487 0
  80 001c 02B0     		add	sp, sp, #8
  81              		@ sp needed
  82 001e 7047     		bx	lr
  83              		.cfi_endproc
  84              	.LFE128:
  85              		.size	port_unlock, .-port_unlock
  86              		.align	2
  87              		.p2align 4,,15
  88              		.thumb
  89              		.thumb_func
  90              		.type	chSysLock, %function
  91              	chSysLock:
  92              	.LFB156:
  93              		.file 3 "../../../ChibiOS/os/rt/include/chsys.h"
  94              		.loc 3 346 0
  95              		.cfi_startproc
  96              		@ args = 0, pretend = 0, frame = 0
  97              		@ frame_needed = 0, uses_anonymous_args = 0
  98 0020 08B5     		push	{r3, lr}
  99              		.cfi_def_cfa_offset 8
 100              		.cfi_offset 3, -8
 101              		.cfi_offset 14, -4
 102              		.loc 3 348 0
 103 0022 FFF7EDFF 		bl	port_lock
 104              		.loc 3 351 0
 105 0026 08BD     		pop	{r3, pc}
 106              		.cfi_endproc
 107              	.LFE156:
 108              		.size	chSysLock, .-chSysLock
 109              		.align	2
 110 0028 AFF30080 		.p2align 4,,15
 110      AFF30080 
 111              		.thumb
 112              		.thumb_func
 113              		.type	chSysUnlock, %function
ARM GAS  /tmp/ccJ4J3WB.s 			page 3


 114              	chSysUnlock:
 115              	.LFB157:
 116              		.loc 3 358 0
 117              		.cfi_startproc
 118              		@ args = 0, pretend = 0, frame = 0
 119              		@ frame_needed = 0, uses_anonymous_args = 0
 120 0030 08B5     		push	{r3, lr}
 121              		.cfi_def_cfa_offset 8
 122              		.cfi_offset 3, -8
 123              		.cfi_offset 14, -4
 124              		.loc 3 371 0
 125 0032 FFF7EDFF 		bl	port_unlock
 126              		.loc 3 372 0
 127 0036 08BD     		pop	{r3, pc}
 128              		.cfi_endproc
 129              	.LFE157:
 130              		.size	chSysUnlock, .-chSysUnlock
 131              		.align	2
 132 0038 AFF30080 		.p2align 4,,15
 132      AFF30080 
 133              		.thumb
 134              		.thumb_func
 135              		.type	chVTGetSystemTimeX, %function
 136              	chVTGetSystemTimeX:
 137              	.LFB164:
 138              		.file 4 "../../../ChibiOS/os/rt/include/chvt.h"
 139              		.loc 4 228 0
 140              		.cfi_startproc
 141              		@ args = 0, pretend = 0, frame = 0
 142              		@ frame_needed = 0, uses_anonymous_args = 0
 143              		@ link register save eliminated.
 144              		.loc 4 231 0
 145 0040 014B     		ldr	r3, .L7
 146 0042 9B6A     		ldr	r3, [r3, #40]
 147              		.loc 4 235 0
 148 0044 1846     		mov	r0, r3
 149 0046 7047     		bx	lr
 150              	.L8:
 151              		.align	2
 152              	.L7:
 153 0048 00000000 		.word	ch
 154              		.cfi_endproc
 155              	.LFE164:
 156              		.size	chVTGetSystemTimeX, .-chVTGetSystemTimeX
 157              		.align	2
 158 004c AFF30080 		.p2align 4,,15
 159              		.thumb
 160              		.thumb_func
 161              		.type	chVTGetSystemTime, %function
 162              	chVTGetSystemTime:
 163              	.LFB165:
 164              		.loc 4 247 0
 165              		.cfi_startproc
 166              		@ args = 0, pretend = 0, frame = 8
 167              		@ frame_needed = 0, uses_anonymous_args = 0
 168 0050 00B5     		push	{lr}
 169              		.cfi_def_cfa_offset 4
ARM GAS  /tmp/ccJ4J3WB.s 			page 4


 170              		.cfi_offset 14, -4
 171 0052 83B0     		sub	sp, sp, #12
 172              		.cfi_def_cfa_offset 16
 173              		.loc 4 250 0
 174 0054 FFF7E4FF 		bl	chSysLock
 175              		.loc 4 251 0
 176 0058 FFF7F2FF 		bl	chVTGetSystemTimeX
 177 005c 0190     		str	r0, [sp, #4]
 178              		.loc 4 252 0
 179 005e FFF7E7FF 		bl	chSysUnlock
 180              		.loc 4 254 0
 181 0062 019B     		ldr	r3, [sp, #4]
 182              		.loc 4 255 0
 183 0064 1846     		mov	r0, r3
 184 0066 03B0     		add	sp, sp, #12
 185              		@ sp needed
 186 0068 5DF804FB 		ldr	pc, [sp], #4
 187              		.cfi_endproc
 188              	.LFE165:
 189              		.size	chVTGetSystemTime, .-chVTGetSystemTime
 190              		.align	2
 191 006c AFF30080 		.p2align 4,,15
 192              		.thumb
 193              		.thumb_func
 194              		.type	chVTIsTimeWithinX, %function
 195              	chVTIsTimeWithinX:
 196              	.LFB167:
 197              		.loc 4 286 0
 198              		.cfi_startproc
 199              		@ args = 0, pretend = 0, frame = 16
 200              		@ frame_needed = 0, uses_anonymous_args = 0
 201              		@ link register save eliminated.
 202 0070 84B0     		sub	sp, sp, #16
 203              		.cfi_def_cfa_offset 16
 204 0072 0390     		str	r0, [sp, #12]
 205 0074 0291     		str	r1, [sp, #8]
 206 0076 0192     		str	r2, [sp, #4]
 207              		.loc 4 288 0
 208 0078 039A     		ldr	r2, [sp, #12]
 209 007a 029B     		ldr	r3, [sp, #8]
 210 007c D21A     		subs	r2, r2, r3
 211 007e 0199     		ldr	r1, [sp, #4]
 212 0080 029B     		ldr	r3, [sp, #8]
 213 0082 CB1A     		subs	r3, r1, r3
 214 0084 9A42     		cmp	r2, r3
 215 0086 2CBF     		ite	cs
 216 0088 0023     		movcs	r3, #0
 217 008a 0123     		movcc	r3, #1
 218 008c DBB2     		uxtb	r3, r3
 219              		.loc 4 289 0
 220 008e 1846     		mov	r0, r3
 221 0090 04B0     		add	sp, sp, #16
 222              		@ sp needed
 223 0092 7047     		bx	lr
 224              		.cfi_endproc
 225              	.LFE167:
 226              		.size	chVTIsTimeWithinX, .-chVTIsTimeWithinX
ARM GAS  /tmp/ccJ4J3WB.s 			page 5


 227              		.align	2
 228 0094 AFF30080 		.p2align 4,,15
 228      AFF30080 
 228      AFF30080 
 229              		.thumb
 230              		.thumb_func
 231              		.type	chVTIsSystemTimeWithin, %function
 232              	chVTIsSystemTimeWithin:
 233              	.LFB169:
 234              		.loc 4 322 0
 235              		.cfi_startproc
 236              		@ args = 0, pretend = 0, frame = 8
 237              		@ frame_needed = 0, uses_anonymous_args = 0
 238 00a0 00B5     		push	{lr}
 239              		.cfi_def_cfa_offset 4
 240              		.cfi_offset 14, -4
 241 00a2 83B0     		sub	sp, sp, #12
 242              		.cfi_def_cfa_offset 16
 243 00a4 0190     		str	r0, [sp, #4]
 244 00a6 0091     		str	r1, [sp]
 245              		.loc 4 324 0
 246 00a8 FFF7D2FF 		bl	chVTGetSystemTime
 247 00ac 0346     		mov	r3, r0
 248 00ae 1846     		mov	r0, r3
 249 00b0 0199     		ldr	r1, [sp, #4]
 250 00b2 009A     		ldr	r2, [sp]
 251 00b4 FFF7DCFF 		bl	chVTIsTimeWithinX
 252 00b8 0346     		mov	r3, r0
 253              		.loc 4 325 0
 254 00ba 1846     		mov	r0, r3
 255 00bc 03B0     		add	sp, sp, #12
 256              		@ sp needed
 257 00be 5DF804FB 		ldr	pc, [sp], #4
 258              		.cfi_endproc
 259              	.LFE169:
 260              		.size	chVTIsSystemTimeWithin, .-chVTIsSystemTimeWithin
 261 00c2 00BF     		.align	2
 262 00c4 AFF30080 		.p2align 4,,15
 262      AFF30080 
 262      AFF30080 
 263              		.thumb
 264              		.thumb_func
 265              		.type	chVTIsArmedI, %function
 266              	chVTIsArmedI:
 267              	.LFB171:
 268              		.loc 4 373 0
 269              		.cfi_startproc
 270              		@ args = 0, pretend = 0, frame = 8
 271              		@ frame_needed = 0, uses_anonymous_args = 0
 272              		@ link register save eliminated.
 273 00d0 82B0     		sub	sp, sp, #8
 274              		.cfi_def_cfa_offset 8
 275 00d2 0190     		str	r0, [sp, #4]
 276              		.loc 4 377 0
 277 00d4 019B     		ldr	r3, [sp, #4]
 278 00d6 DB68     		ldr	r3, [r3, #12]
 279 00d8 002B     		cmp	r3, #0
ARM GAS  /tmp/ccJ4J3WB.s 			page 6


 280 00da 0CBF     		ite	eq
 281 00dc 0023     		moveq	r3, #0
 282 00de 0123     		movne	r3, #1
 283 00e0 DBB2     		uxtb	r3, r3
 284              		.loc 4 378 0
 285 00e2 1846     		mov	r0, r3
 286 00e4 02B0     		add	sp, sp, #8
 287              		@ sp needed
 288 00e6 7047     		bx	lr
 289              		.cfi_endproc
 290              	.LFE171:
 291              		.size	chVTIsArmedI, .-chVTIsArmedI
 292              		.align	2
 293 00e8 AFF30080 		.p2align 4,,15
 293      AFF30080 
 294              		.thumb
 295              		.thumb_func
 296              		.type	chVTResetI, %function
 297              	chVTResetI:
 298              	.LFB173:
 299              		.loc 4 410 0
 300              		.cfi_startproc
 301              		@ args = 0, pretend = 0, frame = 8
 302              		@ frame_needed = 0, uses_anonymous_args = 0
 303 00f0 00B5     		push	{lr}
 304              		.cfi_def_cfa_offset 4
 305              		.cfi_offset 14, -4
 306 00f2 83B0     		sub	sp, sp, #12
 307              		.cfi_def_cfa_offset 16
 308 00f4 0190     		str	r0, [sp, #4]
 309              		.loc 4 412 0
 310 00f6 0198     		ldr	r0, [sp, #4]
 311 00f8 FFF7EAFF 		bl	chVTIsArmedI
 312 00fc 0346     		mov	r3, r0
 313 00fe 002B     		cmp	r3, #0
 314 0100 02D0     		beq	.L17
 315              		.loc 4 413 0
 316 0102 0198     		ldr	r0, [sp, #4]
 317 0104 FFF7FEFF 		bl	chVTDoResetI
 318              	.L17:
 319              		.loc 4 415 0
 320 0108 03B0     		add	sp, sp, #12
 321              		@ sp needed
 322 010a 5DF804FB 		ldr	pc, [sp], #4
 323              		.cfi_endproc
 324              	.LFE173:
 325              		.size	chVTResetI, .-chVTResetI
 326 010e 00BF     		.align	2
 327              		.p2align 4,,15
 328              		.thumb
 329              		.thumb_func
 330              		.type	chVTSetI, %function
 331              	chVTSetI:
 332              	.LFB175:
 333              		.loc 4 457 0
 334              		.cfi_startproc
 335              		@ args = 0, pretend = 0, frame = 16
ARM GAS  /tmp/ccJ4J3WB.s 			page 7


 336              		@ frame_needed = 0, uses_anonymous_args = 0
 337 0110 00B5     		push	{lr}
 338              		.cfi_def_cfa_offset 4
 339              		.cfi_offset 14, -4
 340 0112 85B0     		sub	sp, sp, #20
 341              		.cfi_def_cfa_offset 24
 342 0114 0390     		str	r0, [sp, #12]
 343 0116 0291     		str	r1, [sp, #8]
 344 0118 0192     		str	r2, [sp, #4]
 345 011a 0093     		str	r3, [sp]
 346              		.loc 4 459 0
 347 011c 0398     		ldr	r0, [sp, #12]
 348 011e FFF7E7FF 		bl	chVTResetI
 349              		.loc 4 460 0
 350 0122 0398     		ldr	r0, [sp, #12]
 351 0124 0299     		ldr	r1, [sp, #8]
 352 0126 019A     		ldr	r2, [sp, #4]
 353 0128 009B     		ldr	r3, [sp]
 354 012a FFF7FEFF 		bl	chVTDoSetI
 355              		.loc 4 461 0
 356 012e 05B0     		add	sp, sp, #20
 357              		@ sp needed
 358 0130 5DF804FB 		ldr	pc, [sp], #4
 359              		.cfi_endproc
 360              	.LFE175:
 361              		.size	chVTSetI, .-chVTSetI
 362              		.align	2
 363 0134 AFF30080 		.p2align 4,,15
 363      AFF30080 
 363      AFF30080 
 364              		.thumb
 365              		.thumb_func
 366              		.type	chVTSet, %function
 367              	chVTSet:
 368              	.LFB176:
 369              		.loc 4 486 0
 370              		.cfi_startproc
 371              		@ args = 0, pretend = 0, frame = 16
 372              		@ frame_needed = 0, uses_anonymous_args = 0
 373 0140 00B5     		push	{lr}
 374              		.cfi_def_cfa_offset 4
 375              		.cfi_offset 14, -4
 376 0142 85B0     		sub	sp, sp, #20
 377              		.cfi_def_cfa_offset 24
 378 0144 0390     		str	r0, [sp, #12]
 379 0146 0291     		str	r1, [sp, #8]
 380 0148 0192     		str	r2, [sp, #4]
 381 014a 0093     		str	r3, [sp]
 382              		.loc 4 488 0
 383 014c FFF768FF 		bl	chSysLock
 384              		.loc 4 489 0
 385 0150 0398     		ldr	r0, [sp, #12]
 386 0152 0299     		ldr	r1, [sp, #8]
 387 0154 019A     		ldr	r2, [sp, #4]
 388 0156 009B     		ldr	r3, [sp]
 389 0158 FFF7DAFF 		bl	chVTSetI
 390              		.loc 4 490 0
ARM GAS  /tmp/ccJ4J3WB.s 			page 8


 391 015c FFF768FF 		bl	chSysUnlock
 392              		.loc 4 491 0
 393 0160 05B0     		add	sp, sp, #20
 394              		@ sp needed
 395 0162 5DF804FB 		ldr	pc, [sp], #4
 396              		.cfi_endproc
 397              	.LFE176:
 398              		.size	chVTSet, .-chVTSet
 399              		.data
 400              		.align	2
 401              		.type	patterns, %object
 402              		.size	patterns, 52
 403              	patterns:
 404 0000 00000000 		.word	patternsys
 405 0004 00000000 		.word	patternthd
 406 0008 00000000 		.word	patternsem
 407 000c 00000000 		.word	patternmtx
 408 0010 00000000 		.word	patternmsg
 409 0014 00000000 		.word	patternmbox
 410 0018 00000000 		.word	patternevt
 411 001c 00000000 		.word	patternheap
 412 0020 00000000 		.word	patternpools
 413 0024 00000000 		.word	patterndyn
 414 0028 00000000 		.word	patternqueues
 415 002c 00000000 		.word	patternbmk
 416 0030 00000000 		.word	0
 417              		.comm	test_global_fail,1,1
 418              		.bss
 419              	local_fail:
 420 0000 00       		.space	1
 421 0001 000000   		.align	2
 422              	failpoint:
 423 0004 00000000 		.space	4
 424              		.align	2
 425              	tokens_buffer:
 426 0008 00000000 		.space	16
 426      00000000 
 426      00000000 
 426      00000000 
 427              		.align	2
 428              	tokp:
 429 0018 00000000 		.space	4
 430              		.comm	test,1640,8
 431              		.comm	threads,20,4
 432              		.global	wa
 433              		.section	.rodata
 434              		.align	2
 435              		.type	wa, %object
 436              		.size	wa, 20
 437              	wa:
 438 0000 00000000 		.word	test
 439 0004 48010000 		.word	test+328
 440 0008 90020000 		.word	test+656
 441 000c D8030000 		.word	test+984
 442 0010 20050000 		.word	test+1312
 443              		.bss
 444              		.align	2
ARM GAS  /tmp/ccJ4J3WB.s 			page 9


 445              	chp:
 446 001c 00000000 		.space	4
 447              		.text
 448 0166 00BF     		.align	2
 449 0168 AFF30080 		.p2align 4,,15
 449      AFF30080 
 450              		.global	test_printn
 451              		.thumb
 452              		.thumb_func
 453              		.type	test_printn, %function
 454              	test_printn:
 455              	.LFB267:
 456              		.file 5 "../../../ChibiOS/test/rt/test.c"
 457              		.loc 5 94 0
 458              		.cfi_startproc
 459              		@ args = 0, pretend = 0, frame = 32
 460              		@ frame_needed = 0, uses_anonymous_args = 0
 461 0170 00B5     		push	{lr}
 462              		.cfi_def_cfa_offset 4
 463              		.cfi_offset 14, -4
 464 0172 89B0     		sub	sp, sp, #36
 465              		.cfi_def_cfa_offset 40
 466 0174 0190     		str	r0, [sp, #4]
 467              		.loc 5 97 0
 468 0176 019B     		ldr	r3, [sp, #4]
 469 0178 002B     		cmp	r3, #0
 470 017a 09D1     		bne	.L22
 471              		.loc 5 98 0
 472 017c 1E4B     		ldr	r3, .L28
 473 017e 1B68     		ldr	r3, [r3]
 474 0180 1B68     		ldr	r3, [r3]
 475 0182 9B68     		ldr	r3, [r3, #8]
 476 0184 1C4A     		ldr	r2, .L28
 477 0186 1268     		ldr	r2, [r2]
 478 0188 1046     		mov	r0, r2
 479 018a 3021     		movs	r1, #48
 480 018c 9847     		blx	r3
 481 018e 2FE0     		b	.L21
 482              	.L22:
 483              		.loc 5 100 0
 484 0190 03AB     		add	r3, sp, #12
 485 0192 0793     		str	r3, [sp, #28]
 486              		.loc 5 101 0
 487 0194 16E0     		b	.L24
 488              	.L25:
 489              		.loc 5 102 0
 490 0196 0799     		ldr	r1, [sp, #28]
 491 0198 4B1C     		adds	r3, r1, #1
 492 019a 0793     		str	r3, [sp, #28]
 493 019c 0198     		ldr	r0, [sp, #4]
 494 019e 174B     		ldr	r3, .L28+4
 495 01a0 A3FB0023 		umull	r2, r3, r3, r0
 496 01a4 DA08     		lsrs	r2, r3, #3
 497 01a6 1346     		mov	r3, r2
 498 01a8 9B00     		lsls	r3, r3, #2
 499 01aa 1344     		add	r3, r3, r2
 500 01ac 5B00     		lsls	r3, r3, #1
ARM GAS  /tmp/ccJ4J3WB.s 			page 10


 501 01ae C21A     		subs	r2, r0, r3
 502 01b0 D3B2     		uxtb	r3, r2
 503 01b2 3033     		adds	r3, r3, #48
 504 01b4 DBB2     		uxtb	r3, r3
 505 01b6 0B70     		strb	r3, [r1]
 506 01b8 019A     		ldr	r2, [sp, #4]
 507 01ba 104B     		ldr	r3, .L28+4
 508 01bc A3FB0213 		umull	r1, r3, r3, r2
 509 01c0 DB08     		lsrs	r3, r3, #3
 510 01c2 0193     		str	r3, [sp, #4]
 511              	.L24:
 512              		.loc 5 101 0 discriminator 1
 513 01c4 019B     		ldr	r3, [sp, #4]
 514 01c6 002B     		cmp	r3, #0
 515 01c8 E5D1     		bne	.L25
 516              		.loc 5 103 0
 517 01ca 0DE0     		b	.L26
 518              	.L27:
 519              		.loc 5 104 0
 520 01cc 0A4B     		ldr	r3, .L28
 521 01ce 1B68     		ldr	r3, [r3]
 522 01d0 1B68     		ldr	r3, [r3]
 523 01d2 9B68     		ldr	r3, [r3, #8]
 524 01d4 084A     		ldr	r2, .L28
 525 01d6 1168     		ldr	r1, [r2]
 526 01d8 079A     		ldr	r2, [sp, #28]
 527 01da 013A     		subs	r2, r2, #1
 528 01dc 0792     		str	r2, [sp, #28]
 529 01de 079A     		ldr	r2, [sp, #28]
 530 01e0 1278     		ldrb	r2, [r2]	@ zero_extendqisi2
 531 01e2 0846     		mov	r0, r1
 532 01e4 1146     		mov	r1, r2
 533 01e6 9847     		blx	r3
 534              	.L26:
 535              		.loc 5 103 0 discriminator 1
 536 01e8 03AB     		add	r3, sp, #12
 537 01ea 079A     		ldr	r2, [sp, #28]
 538 01ec 9A42     		cmp	r2, r3
 539 01ee EDD8     		bhi	.L27
 540              	.L21:
 541              		.loc 5 106 0
 542 01f0 09B0     		add	sp, sp, #36
 543              		@ sp needed
 544 01f2 5DF804FB 		ldr	pc, [sp], #4
 545              	.L29:
 546 01f6 00BF     		.align	2
 547              	.L28:
 548 01f8 1C000000 		.word	chp
 549 01fc CDCCCCCC 		.word	-858993459
 550              		.cfi_endproc
 551              	.LFE267:
 552              		.size	test_printn, .-test_printn
 553              		.align	2
 554              		.p2align 4,,15
 555              		.global	test_print
 556              		.thumb
 557              		.thumb_func
ARM GAS  /tmp/ccJ4J3WB.s 			page 11


 558              		.type	test_print, %function
 559              	test_print:
 560              	.LFB268:
 561              		.loc 5 113 0
 562              		.cfi_startproc
 563              		@ args = 0, pretend = 0, frame = 8
 564              		@ frame_needed = 0, uses_anonymous_args = 0
 565 0200 00B5     		push	{lr}
 566              		.cfi_def_cfa_offset 4
 567              		.cfi_offset 14, -4
 568 0202 83B0     		sub	sp, sp, #12
 569              		.cfi_def_cfa_offset 16
 570 0204 0190     		str	r0, [sp, #4]
 571              		.loc 5 115 0
 572 0206 0CE0     		b	.L31
 573              	.L32:
 574              		.loc 5 116 0
 575 0208 094B     		ldr	r3, .L33
 576 020a 1B68     		ldr	r3, [r3]
 577 020c 1B68     		ldr	r3, [r3]
 578 020e 9A68     		ldr	r2, [r3, #8]
 579 0210 074B     		ldr	r3, .L33
 580 0212 1968     		ldr	r1, [r3]
 581 0214 019B     		ldr	r3, [sp, #4]
 582 0216 581C     		adds	r0, r3, #1
 583 0218 0190     		str	r0, [sp, #4]
 584 021a 1B78     		ldrb	r3, [r3]	@ zero_extendqisi2
 585 021c 0846     		mov	r0, r1
 586 021e 1946     		mov	r1, r3
 587 0220 9047     		blx	r2
 588              	.L31:
 589              		.loc 5 115 0 discriminator 1
 590 0222 019B     		ldr	r3, [sp, #4]
 591 0224 1B78     		ldrb	r3, [r3]	@ zero_extendqisi2
 592 0226 002B     		cmp	r3, #0
 593 0228 EED1     		bne	.L32
 594              		.loc 5 117 0
 595 022a 03B0     		add	sp, sp, #12
 596              		@ sp needed
 597 022c 5DF804FB 		ldr	pc, [sp], #4
 598              	.L34:
 599              		.align	2
 600              	.L33:
 601 0230 1C000000 		.word	chp
 602              		.cfi_endproc
 603              	.LFE268:
 604              		.size	test_print, .-test_print
 605              		.section	.rodata
 606              		.align	2
 607              	.LC0:
 608 0014 0D0A00   		.ascii	"\015\012\000"
 609              		.text
 610              		.align	2
 611 0234 AFF30080 		.p2align 4,,15
 611      AFF30080 
 611      AFF30080 
 612              		.global	test_println
ARM GAS  /tmp/ccJ4J3WB.s 			page 12


 613              		.thumb
 614              		.thumb_func
 615              		.type	test_println, %function
 616              	test_println:
 617              	.LFB269:
 618              		.loc 5 124 0
 619              		.cfi_startproc
 620              		@ args = 0, pretend = 0, frame = 8
 621              		@ frame_needed = 0, uses_anonymous_args = 0
 622 0240 00B5     		push	{lr}
 623              		.cfi_def_cfa_offset 4
 624              		.cfi_offset 14, -4
 625 0242 83B0     		sub	sp, sp, #12
 626              		.cfi_def_cfa_offset 16
 627 0244 0190     		str	r0, [sp, #4]
 628              		.loc 5 126 0
 629 0246 0198     		ldr	r0, [sp, #4]
 630 0248 FFF7FEFF 		bl	test_print
 631              		.loc 5 127 0
 632 024c 064B     		ldr	r3, .L36
 633 024e 1B68     		ldr	r3, [r3]
 634 0250 1B68     		ldr	r3, [r3]
 635 0252 1B68     		ldr	r3, [r3]
 636 0254 044A     		ldr	r2, .L36
 637 0256 1268     		ldr	r2, [r2]
 638 0258 1046     		mov	r0, r2
 639 025a 0449     		ldr	r1, .L36+4
 640 025c 0222     		movs	r2, #2
 641 025e 9847     		blx	r3
 642              		.loc 5 128 0
 643 0260 03B0     		add	sp, sp, #12
 644              		@ sp needed
 645 0262 5DF804FB 		ldr	pc, [sp], #4
 646              	.L37:
 647 0266 00BF     		.align	2
 648              	.L36:
 649 0268 1C000000 		.word	chp
 650 026c 14000000 		.word	.LC0
 651              		.cfi_endproc
 652              	.LFE269:
 653              		.size	test_println, .-test_println
 654              		.align	2
 655              		.p2align 4,,15
 656              		.thumb
 657              		.thumb_func
 658              		.type	clear_tokens, %function
 659              	clear_tokens:
 660              	.LFB270:
 661              		.loc 5 133 0
 662              		.cfi_startproc
 663              		@ args = 0, pretend = 0, frame = 0
 664              		@ frame_needed = 0, uses_anonymous_args = 0
 665              		@ link register save eliminated.
 666              		.loc 5 135 0
 667 0270 014B     		ldr	r3, .L39
 668 0272 024A     		ldr	r2, .L39+4
 669 0274 1A60     		str	r2, [r3]
ARM GAS  /tmp/ccJ4J3WB.s 			page 13


 670              		.loc 5 136 0
 671 0276 7047     		bx	lr
 672              	.L40:
 673              		.align	2
 674              	.L39:
 675 0278 18000000 		.word	tokp
 676 027c 08000000 		.word	tokens_buffer
 677              		.cfi_endproc
 678              	.LFE270:
 679              		.size	clear_tokens, .-clear_tokens
 680              		.align	2
 681              		.p2align 4,,15
 682              		.thumb
 683              		.thumb_func
 684              		.type	print_tokens, %function
 685              	print_tokens:
 686              	.LFB271:
 687              		.loc 5 138 0
 688              		.cfi_startproc
 689              		@ args = 0, pretend = 0, frame = 8
 690              		@ frame_needed = 0, uses_anonymous_args = 0
 691 0280 00B5     		push	{lr}
 692              		.cfi_def_cfa_offset 4
 693              		.cfi_offset 14, -4
 694 0282 83B0     		sub	sp, sp, #12
 695              		.cfi_def_cfa_offset 16
 696              		.loc 5 139 0
 697 0284 0B4B     		ldr	r3, .L44
 698 0286 0193     		str	r3, [sp, #4]
 699              		.loc 5 141 0
 700 0288 0CE0     		b	.L42
 701              	.L43:
 702              		.loc 5 142 0
 703 028a 0B4B     		ldr	r3, .L44+4
 704 028c 1B68     		ldr	r3, [r3]
 705 028e 1B68     		ldr	r3, [r3]
 706 0290 9A68     		ldr	r2, [r3, #8]
 707 0292 094B     		ldr	r3, .L44+4
 708 0294 1968     		ldr	r1, [r3]
 709 0296 019B     		ldr	r3, [sp, #4]
 710 0298 581C     		adds	r0, r3, #1
 711 029a 0190     		str	r0, [sp, #4]
 712 029c 1B78     		ldrb	r3, [r3]	@ zero_extendqisi2
 713 029e 0846     		mov	r0, r1
 714 02a0 1946     		mov	r1, r3
 715 02a2 9047     		blx	r2
 716              	.L42:
 717              		.loc 5 141 0 discriminator 1
 718 02a4 054B     		ldr	r3, .L44+8
 719 02a6 1B68     		ldr	r3, [r3]
 720 02a8 019A     		ldr	r2, [sp, #4]
 721 02aa 9A42     		cmp	r2, r3
 722 02ac EDD3     		bcc	.L43
 723              		.loc 5 143 0
 724 02ae 03B0     		add	sp, sp, #12
 725              		@ sp needed
 726 02b0 5DF804FB 		ldr	pc, [sp], #4
ARM GAS  /tmp/ccJ4J3WB.s 			page 14


 727              	.L45:
 728              		.align	2
 729              	.L44:
 730 02b4 08000000 		.word	tokens_buffer
 731 02b8 1C000000 		.word	chp
 732 02bc 18000000 		.word	tokp
 733              		.cfi_endproc
 734              	.LFE271:
 735              		.size	print_tokens, .-print_tokens
 736              		.align	2
 737              		.p2align 4,,15
 738              		.global	test_emit_token
 739              		.thumb
 740              		.thumb_func
 741              		.type	test_emit_token, %function
 742              	test_emit_token:
 743              	.LFB272:
 744              		.loc 5 150 0
 745              		.cfi_startproc
 746              		@ args = 0, pretend = 0, frame = 8
 747              		@ frame_needed = 0, uses_anonymous_args = 0
 748 02c0 00B5     		push	{lr}
 749              		.cfi_def_cfa_offset 4
 750              		.cfi_offset 14, -4
 751 02c2 83B0     		sub	sp, sp, #12
 752              		.cfi_def_cfa_offset 16
 753 02c4 0346     		mov	r3, r0
 754 02c6 8DF80730 		strb	r3, [sp, #7]
 755              		.loc 5 152 0
 756 02ca FFF7A9FE 		bl	chSysLock
 757              		.loc 5 153 0
 758 02ce 064B     		ldr	r3, .L47
 759 02d0 1B68     		ldr	r3, [r3]
 760 02d2 591C     		adds	r1, r3, #1
 761 02d4 044A     		ldr	r2, .L47
 762 02d6 1160     		str	r1, [r2]
 763 02d8 9DF80720 		ldrb	r2, [sp, #7]
 764 02dc 1A70     		strb	r2, [r3]
 765              		.loc 5 154 0
 766 02de FFF7A7FE 		bl	chSysUnlock
 767              		.loc 5 155 0
 768 02e2 03B0     		add	sp, sp, #12
 769              		@ sp needed
 770 02e4 5DF804FB 		ldr	pc, [sp], #4
 771              	.L48:
 772              		.align	2
 773              	.L47:
 774 02e8 18000000 		.word	tokp
 775              		.cfi_endproc
 776              	.LFE272:
 777              		.size	test_emit_token, .-test_emit_token
 778              		.align	2
 779 02ec AFF30080 		.p2align 4,,15
 780              		.global	_test_fail
 781              		.thumb
 782              		.thumb_func
 783              		.type	_test_fail, %function
ARM GAS  /tmp/ccJ4J3WB.s 			page 15


 784              	_test_fail:
 785              	.LFB273:
 786              		.loc 5 160 0
 787              		.cfi_startproc
 788              		@ args = 0, pretend = 0, frame = 8
 789              		@ frame_needed = 0, uses_anonymous_args = 0
 790              		@ link register save eliminated.
 791 02f0 82B0     		sub	sp, sp, #8
 792              		.cfi_def_cfa_offset 8
 793 02f2 0190     		str	r0, [sp, #4]
 794              		.loc 5 162 0
 795 02f4 064B     		ldr	r3, .L51
 796 02f6 0122     		movs	r2, #1
 797 02f8 1A70     		strb	r2, [r3]
 798              		.loc 5 163 0
 799 02fa 064B     		ldr	r3, .L51+4
 800 02fc 0122     		movs	r2, #1
 801 02fe 1A70     		strb	r2, [r3]
 802              		.loc 5 164 0
 803 0300 054B     		ldr	r3, .L51+8
 804 0302 019A     		ldr	r2, [sp, #4]
 805 0304 1A60     		str	r2, [r3]
 806              		.loc 5 165 0
 807 0306 0123     		movs	r3, #1
 808              		.loc 5 166 0
 809 0308 1846     		mov	r0, r3
 810 030a 02B0     		add	sp, sp, #8
 811              		@ sp needed
 812 030c 7047     		bx	lr
 813              	.L52:
 814 030e 00BF     		.align	2
 815              	.L51:
 816 0310 00000000 		.word	test_global_fail
 817 0314 00000000 		.word	local_fail
 818 0318 04000000 		.word	failpoint
 819              		.cfi_endproc
 820              	.LFE273:
 821              		.size	_test_fail, .-_test_fail
 822              		.align	2
 823 031c AFF30080 		.p2align 4,,15
 824              		.global	_test_assert
 825              		.thumb
 826              		.thumb_func
 827              		.type	_test_assert, %function
 828              	_test_assert:
 829              	.LFB274:
 830              		.loc 5 168 0
 831              		.cfi_startproc
 832              		@ args = 0, pretend = 0, frame = 8
 833              		@ frame_needed = 0, uses_anonymous_args = 0
 834 0320 00B5     		push	{lr}
 835              		.cfi_def_cfa_offset 4
 836              		.cfi_offset 14, -4
 837 0322 83B0     		sub	sp, sp, #12
 838              		.cfi_def_cfa_offset 16
 839 0324 0190     		str	r0, [sp, #4]
 840 0326 0B46     		mov	r3, r1
ARM GAS  /tmp/ccJ4J3WB.s 			page 16


 841 0328 8DF80330 		strb	r3, [sp, #3]
 842              		.loc 5 170 0
 843 032c 9DF80330 		ldrb	r3, [sp, #3]
 844 0330 83F00103 		eor	r3, r3, #1
 845 0334 DBB2     		uxtb	r3, r3
 846 0336 002B     		cmp	r3, #0
 847 0338 04D0     		beq	.L54
 848              		.loc 5 171 0
 849 033a 0198     		ldr	r0, [sp, #4]
 850 033c FFF7FEFF 		bl	_test_fail
 851 0340 0346     		mov	r3, r0
 852 0342 00E0     		b	.L55
 853              	.L54:
 854              		.loc 5 172 0
 855 0344 0023     		movs	r3, #0
 856              	.L55:
 857              		.loc 5 173 0
 858 0346 1846     		mov	r0, r3
 859 0348 03B0     		add	sp, sp, #12
 860              		@ sp needed
 861 034a 5DF804FB 		ldr	pc, [sp], #4
 862              		.cfi_endproc
 863              	.LFE274:
 864              		.size	_test_assert, .-_test_assert
 865 034e 00BF     		.align	2
 866              		.p2align 4,,15
 867              		.global	_test_assert_sequence
 868              		.thumb
 869              		.thumb_func
 870              		.type	_test_assert_sequence, %function
 871              	_test_assert_sequence:
 872              	.LFB275:
 873              		.loc 5 175 0
 874              		.cfi_startproc
 875              		@ args = 0, pretend = 0, frame = 16
 876              		@ frame_needed = 0, uses_anonymous_args = 0
 877 0350 00B5     		push	{lr}
 878              		.cfi_def_cfa_offset 4
 879              		.cfi_offset 14, -4
 880 0352 85B0     		sub	sp, sp, #20
 881              		.cfi_def_cfa_offset 24
 882 0354 0190     		str	r0, [sp, #4]
 883 0356 0091     		str	r1, [sp]
 884              		.loc 5 176 0
 885 0358 134B     		ldr	r3, .L61
 886 035a 0393     		str	r3, [sp, #12]
 887              		.loc 5 177 0
 888 035c 0EE0     		b	.L57
 889              	.L59:
 890              		.loc 5 178 0
 891 035e 039B     		ldr	r3, [sp, #12]
 892 0360 5A1C     		adds	r2, r3, #1
 893 0362 0392     		str	r2, [sp, #12]
 894 0364 1A78     		ldrb	r2, [r3]	@ zero_extendqisi2
 895 0366 009B     		ldr	r3, [sp]
 896 0368 591C     		adds	r1, r3, #1
 897 036a 0091     		str	r1, [sp]
ARM GAS  /tmp/ccJ4J3WB.s 			page 17


 898 036c 1B78     		ldrb	r3, [r3]	@ zero_extendqisi2
 899 036e 9A42     		cmp	r2, r3
 900 0370 04D0     		beq	.L57
 901              		.loc 5 179 0
 902 0372 0198     		ldr	r0, [sp, #4]
 903 0374 FFF7FEFF 		bl	_test_fail
 904 0378 0346     		mov	r3, r0
 905 037a 10E0     		b	.L58
 906              	.L57:
 907              		.loc 5 177 0 discriminator 1
 908 037c 0B4B     		ldr	r3, .L61+4
 909 037e 1B68     		ldr	r3, [r3]
 910 0380 039A     		ldr	r2, [sp, #12]
 911 0382 9A42     		cmp	r2, r3
 912 0384 EBD3     		bcc	.L59
 913              		.loc 5 181 0
 914 0386 009B     		ldr	r3, [sp]
 915 0388 1B78     		ldrb	r3, [r3]	@ zero_extendqisi2
 916 038a 002B     		cmp	r3, #0
 917 038c 04D0     		beq	.L60
 918              		.loc 5 182 0
 919 038e 0198     		ldr	r0, [sp, #4]
 920 0390 FFF7FEFF 		bl	_test_fail
 921 0394 0346     		mov	r3, r0
 922 0396 02E0     		b	.L58
 923              	.L60:
 924              		.loc 5 183 0
 925 0398 FFF76AFF 		bl	clear_tokens
 926              		.loc 5 184 0
 927 039c 0023     		movs	r3, #0
 928              	.L58:
 929              		.loc 5 185 0
 930 039e 1846     		mov	r0, r3
 931 03a0 05B0     		add	sp, sp, #20
 932              		@ sp needed
 933 03a2 5DF804FB 		ldr	pc, [sp], #4
 934              	.L62:
 935 03a6 00BF     		.align	2
 936              	.L61:
 937 03a8 08000000 		.word	tokens_buffer
 938 03ac 18000000 		.word	tokp
 939              		.cfi_endproc
 940              	.LFE275:
 941              		.size	_test_assert_sequence, .-_test_assert_sequence
 942              		.align	2
 943              		.p2align 4,,15
 944              		.global	_test_assert_time_window
 945              		.thumb
 946              		.thumb_func
 947              		.type	_test_assert_time_window, %function
 948              	_test_assert_time_window:
 949              	.LFB276:
 950              		.loc 5 187 0
 951              		.cfi_startproc
 952              		@ args = 0, pretend = 0, frame = 16
 953              		@ frame_needed = 0, uses_anonymous_args = 0
 954 03b0 00B5     		push	{lr}
ARM GAS  /tmp/ccJ4J3WB.s 			page 18


 955              		.cfi_def_cfa_offset 4
 956              		.cfi_offset 14, -4
 957 03b2 85B0     		sub	sp, sp, #20
 958              		.cfi_def_cfa_offset 24
 959 03b4 0390     		str	r0, [sp, #12]
 960 03b6 0291     		str	r1, [sp, #8]
 961 03b8 0192     		str	r2, [sp, #4]
 962              		.loc 5 189 0
 963 03ba 0298     		ldr	r0, [sp, #8]
 964 03bc 0199     		ldr	r1, [sp, #4]
 965 03be FFF76FFE 		bl	chVTIsSystemTimeWithin
 966 03c2 0346     		mov	r3, r0
 967 03c4 0398     		ldr	r0, [sp, #12]
 968 03c6 1946     		mov	r1, r3
 969 03c8 FFF7FEFF 		bl	_test_assert
 970 03cc 0346     		mov	r3, r0
 971              		.loc 5 190 0
 972 03ce 1846     		mov	r0, r3
 973 03d0 05B0     		add	sp, sp, #20
 974              		@ sp needed
 975 03d2 5DF804FB 		ldr	pc, [sp], #4
 976              		.cfi_endproc
 977              	.LFE276:
 978              		.size	_test_assert_time_window, .-_test_assert_time_window
 979 03d6 00BF     		.align	2
 980 03d8 AFF30080 		.p2align 4,,15
 980      AFF30080 
 981              		.global	test_terminate_threads
 982              		.thumb
 983              		.thumb_func
 984              		.type	test_terminate_threads, %function
 985              	test_terminate_threads:
 986              	.LFB277:
 987              		.loc 5 199 0
 988              		.cfi_startproc
 989              		@ args = 0, pretend = 0, frame = 8
 990              		@ frame_needed = 0, uses_anonymous_args = 0
 991 03e0 00B5     		push	{lr}
 992              		.cfi_def_cfa_offset 4
 993              		.cfi_offset 14, -4
 994 03e2 83B0     		sub	sp, sp, #12
 995              		.cfi_def_cfa_offset 16
 996              		.loc 5 202 0
 997 03e4 0023     		movs	r3, #0
 998 03e6 0193     		str	r3, [sp, #4]
 999 03e8 0FE0     		b	.L66
 1000              	.L68:
 1001              		.loc 5 203 0
 1002 03ea 0B4B     		ldr	r3, .L69
 1003 03ec 019A     		ldr	r2, [sp, #4]
 1004 03ee 53F82230 		ldr	r3, [r3, r2, lsl #2]
 1005 03f2 002B     		cmp	r3, #0
 1006 03f4 06D0     		beq	.L67
 1007              		.loc 5 204 0
 1008 03f6 084B     		ldr	r3, .L69
 1009 03f8 019A     		ldr	r2, [sp, #4]
 1010 03fa 53F82230 		ldr	r3, [r3, r2, lsl #2]
ARM GAS  /tmp/ccJ4J3WB.s 			page 19


 1011 03fe 1846     		mov	r0, r3
 1012 0400 FFF7FEFF 		bl	chThdTerminate
 1013              	.L67:
 1014              		.loc 5 202 0
 1015 0404 019B     		ldr	r3, [sp, #4]
 1016 0406 0133     		adds	r3, r3, #1
 1017 0408 0193     		str	r3, [sp, #4]
 1018              	.L66:
 1019              		.loc 5 202 0 is_stmt 0 discriminator 1
 1020 040a 019B     		ldr	r3, [sp, #4]
 1021 040c 042B     		cmp	r3, #4
 1022 040e ECDD     		ble	.L68
 1023              		.loc 5 205 0 is_stmt 1
 1024 0410 03B0     		add	sp, sp, #12
 1025              		@ sp needed
 1026 0412 5DF804FB 		ldr	pc, [sp], #4
 1027              	.L70:
 1028 0416 00BF     		.align	2
 1029              	.L69:
 1030 0418 00000000 		.word	threads
 1031              		.cfi_endproc
 1032              	.LFE277:
 1033              		.size	test_terminate_threads, .-test_terminate_threads
 1034              		.align	2
 1035 041c AFF30080 		.p2align 4,,15
 1036              		.global	test_wait_threads
 1037              		.thumb
 1038              		.thumb_func
 1039              		.type	test_wait_threads, %function
 1040              	test_wait_threads:
 1041              	.LFB278:
 1042              		.loc 5 210 0
 1043              		.cfi_startproc
 1044              		@ args = 0, pretend = 0, frame = 8
 1045              		@ frame_needed = 0, uses_anonymous_args = 0
 1046 0420 00B5     		push	{lr}
 1047              		.cfi_def_cfa_offset 4
 1048              		.cfi_offset 14, -4
 1049 0422 83B0     		sub	sp, sp, #12
 1050              		.cfi_def_cfa_offset 16
 1051              		.loc 5 213 0
 1052 0424 0023     		movs	r3, #0
 1053 0426 0193     		str	r3, [sp, #4]
 1054 0428 14E0     		b	.L72
 1055              	.L74:
 1056              		.loc 5 214 0
 1057 042a 0D4B     		ldr	r3, .L75
 1058 042c 019A     		ldr	r2, [sp, #4]
 1059 042e 53F82230 		ldr	r3, [r3, r2, lsl #2]
 1060 0432 002B     		cmp	r3, #0
 1061 0434 0BD0     		beq	.L73
 1062              		.loc 5 215 0
 1063 0436 0A4B     		ldr	r3, .L75
 1064 0438 019A     		ldr	r2, [sp, #4]
 1065 043a 53F82230 		ldr	r3, [r3, r2, lsl #2]
 1066 043e 1846     		mov	r0, r3
 1067 0440 FFF7FEFF 		bl	chThdWait
ARM GAS  /tmp/ccJ4J3WB.s 			page 20


 1068              		.loc 5 216 0
 1069 0444 064B     		ldr	r3, .L75
 1070 0446 019A     		ldr	r2, [sp, #4]
 1071 0448 0021     		movs	r1, #0
 1072 044a 43F82210 		str	r1, [r3, r2, lsl #2]
 1073              	.L73:
 1074              		.loc 5 213 0
 1075 044e 019B     		ldr	r3, [sp, #4]
 1076 0450 0133     		adds	r3, r3, #1
 1077 0452 0193     		str	r3, [sp, #4]
 1078              	.L72:
 1079              		.loc 5 213 0 is_stmt 0 discriminator 1
 1080 0454 019B     		ldr	r3, [sp, #4]
 1081 0456 042B     		cmp	r3, #4
 1082 0458 E7DD     		ble	.L74
 1083              		.loc 5 218 0 is_stmt 1
 1084 045a 03B0     		add	sp, sp, #12
 1085              		@ sp needed
 1086 045c 5DF804FB 		ldr	pc, [sp], #4
 1087              	.L76:
 1088              		.align	2
 1089              	.L75:
 1090 0460 00000000 		.word	threads
 1091              		.cfi_endproc
 1092              	.LFE278:
 1093              		.size	test_wait_threads, .-test_wait_threads
 1094              		.align	2
 1095 0464 AFF30080 		.p2align 4,,15
 1095      AFF30080 
 1095      AFF30080 
 1096              		.global	test_wait_tick
 1097              		.thumb
 1098              		.thumb_func
 1099              		.type	test_wait_tick, %function
 1100              	test_wait_tick:
 1101              	.LFB279:
 1102              		.loc 5 248 0
 1103              		.cfi_startproc
 1104              		@ args = 0, pretend = 0, frame = 0
 1105              		@ frame_needed = 0, uses_anonymous_args = 0
 1106 0470 08B5     		push	{r3, lr}
 1107              		.cfi_def_cfa_offset 8
 1108              		.cfi_offset 3, -8
 1109              		.cfi_offset 14, -4
 1110              		.loc 5 250 0
 1111 0472 0120     		movs	r0, #1
 1112 0474 FFF7FEFF 		bl	chThdSleep
 1113              		.loc 5 251 0
 1114 0478 FFF7EAFD 		bl	chVTGetSystemTime
 1115 047c 0346     		mov	r3, r0
 1116              		.loc 5 252 0
 1117 047e 1846     		mov	r0, r3
 1118 0480 08BD     		pop	{r3, pc}
 1119              		.cfi_endproc
 1120              	.LFE279:
 1121              		.size	test_wait_tick, .-test_wait_tick
 1122              		.comm	test_timer_done,1,1
ARM GAS  /tmp/ccJ4J3WB.s 			page 21


 1123              		.bss
 1124              		.align	2
 1125              	vt:
 1126 0020 00000000 		.space	20
 1126      00000000 
 1126      00000000 
 1126      00000000 
 1126      00000000 
 1127              		.text
 1128 0482 00BF     		.align	2
 1129 0484 AFF30080 		.p2align 4,,15
 1129      AFF30080 
 1129      AFF30080 
 1130              		.thumb
 1131              		.thumb_func
 1132              		.type	tmr, %function
 1133              	tmr:
 1134              	.LFB280:
 1135              		.loc 5 264 0
 1136              		.cfi_startproc
 1137              		@ args = 0, pretend = 0, frame = 8
 1138              		@ frame_needed = 0, uses_anonymous_args = 0
 1139              		@ link register save eliminated.
 1140 0490 82B0     		sub	sp, sp, #8
 1141              		.cfi_def_cfa_offset 8
 1142 0492 0190     		str	r0, [sp, #4]
 1143              		.loc 5 267 0
 1144 0494 024B     		ldr	r3, .L80
 1145 0496 0122     		movs	r2, #1
 1146 0498 1A70     		strb	r2, [r3]
 1147              		.loc 5 268 0
 1148 049a 02B0     		add	sp, sp, #8
 1149              		@ sp needed
 1150 049c 7047     		bx	lr
 1151              	.L81:
 1152 049e 00BF     		.align	2
 1153              	.L80:
 1154 04a0 00000000 		.word	test_timer_done
 1155              		.cfi_endproc
 1156              	.LFE280:
 1157              		.size	tmr, .-tmr
 1158              		.align	2
 1159 04a4 AFF30080 		.p2align 4,,15
 1159      AFF30080 
 1159      AFF30080 
 1160              		.global	test_start_timer
 1161              		.thumb
 1162              		.thumb_func
 1163              		.type	test_start_timer, %function
 1164              	test_start_timer:
 1165              	.LFB281:
 1166              		.loc 5 275 0
 1167              		.cfi_startproc
 1168              		@ args = 0, pretend = 0, frame = 16
 1169              		@ frame_needed = 0, uses_anonymous_args = 0
 1170 04b0 00B5     		push	{lr}
 1171              		.cfi_def_cfa_offset 4
ARM GAS  /tmp/ccJ4J3WB.s 			page 22


 1172              		.cfi_offset 14, -4
 1173 04b2 85B0     		sub	sp, sp, #20
 1174              		.cfi_def_cfa_offset 24
 1175 04b4 0190     		str	r0, [sp, #4]
 1176              		.loc 5 277 0
 1177 04b6 019B     		ldr	r3, [sp, #4]
 1178 04b8 4FF47A72 		mov	r2, #1000
 1179 04bc 02FB03F3 		mul	r3, r2, r3
 1180 04c0 03F2E732 		addw	r2, r3, #999
 1181 04c4 084B     		ldr	r3, .L83
 1182 04c6 A3FB0213 		umull	r1, r3, r3, r2
 1183 04ca 9B09     		lsrs	r3, r3, #6
 1184 04cc 0393     		str	r3, [sp, #12]
 1185              		.loc 5 278 0
 1186 04ce 074B     		ldr	r3, .L83+4
 1187 04d0 0022     		movs	r2, #0
 1188 04d2 1A70     		strb	r2, [r3]
 1189              		.loc 5 279 0
 1190 04d4 0648     		ldr	r0, .L83+8
 1191 04d6 0399     		ldr	r1, [sp, #12]
 1192 04d8 064A     		ldr	r2, .L83+12
 1193 04da 0023     		movs	r3, #0
 1194 04dc FFF730FE 		bl	chVTSet
 1195              		.loc 5 280 0
 1196 04e0 05B0     		add	sp, sp, #20
 1197              		@ sp needed
 1198 04e2 5DF804FB 		ldr	pc, [sp], #4
 1199              	.L84:
 1200 04e6 00BF     		.align	2
 1201              	.L83:
 1202 04e8 D34D6210 		.word	274877907
 1203 04ec 00000000 		.word	test_timer_done
 1204 04f0 20000000 		.word	vt
 1205 04f4 00000000 		.word	tmr
 1206              		.cfi_endproc
 1207              	.LFE281:
 1208              		.size	test_start_timer, .-test_start_timer
 1209              		.align	2
 1210 04f8 AFF30080 		.p2align 4,,15
 1210      AFF30080 
 1211              		.thumb
 1212              		.thumb_func
 1213              		.type	execute_test, %function
 1214              	execute_test:
 1215              	.LFB282:
 1216              		.loc 5 285 0
 1217              		.cfi_startproc
 1218              		@ args = 0, pretend = 0, frame = 16
 1219              		@ frame_needed = 0, uses_anonymous_args = 0
 1220 0500 00B5     		push	{lr}
 1221              		.cfi_def_cfa_offset 4
 1222              		.cfi_offset 14, -4
 1223 0502 85B0     		sub	sp, sp, #20
 1224              		.cfi_def_cfa_offset 24
 1225 0504 0190     		str	r0, [sp, #4]
 1226              		.loc 5 289 0
 1227 0506 FFF7B3FE 		bl	clear_tokens
ARM GAS  /tmp/ccJ4J3WB.s 			page 23


 1228              		.loc 5 290 0
 1229 050a 134B     		ldr	r3, .L90
 1230 050c 0022     		movs	r2, #0
 1231 050e 1A70     		strb	r2, [r3]
 1232              		.loc 5 291 0
 1233 0510 0023     		movs	r3, #0
 1234 0512 0393     		str	r3, [sp, #12]
 1235 0514 07E0     		b	.L86
 1236              	.L87:
 1237              		.loc 5 292 0 discriminator 2
 1238 0516 114B     		ldr	r3, .L90+4
 1239 0518 039A     		ldr	r2, [sp, #12]
 1240 051a 0021     		movs	r1, #0
 1241 051c 43F82210 		str	r1, [r3, r2, lsl #2]
 1242              		.loc 5 291 0 discriminator 2
 1243 0520 039B     		ldr	r3, [sp, #12]
 1244 0522 0133     		adds	r3, r3, #1
 1245 0524 0393     		str	r3, [sp, #12]
 1246              	.L86:
 1247              		.loc 5 291 0 is_stmt 0 discriminator 1
 1248 0526 039B     		ldr	r3, [sp, #12]
 1249 0528 042B     		cmp	r3, #4
 1250 052a F4DD     		ble	.L87
 1251              		.loc 5 294 0 is_stmt 1
 1252 052c 019B     		ldr	r3, [sp, #4]
 1253 052e 5B68     		ldr	r3, [r3, #4]
 1254 0530 002B     		cmp	r3, #0
 1255 0532 02D0     		beq	.L88
 1256              		.loc 5 295 0
 1257 0534 019B     		ldr	r3, [sp, #4]
 1258 0536 5B68     		ldr	r3, [r3, #4]
 1259 0538 9847     		blx	r3
 1260              	.L88:
 1261              		.loc 5 296 0
 1262 053a 019B     		ldr	r3, [sp, #4]
 1263 053c DB68     		ldr	r3, [r3, #12]
 1264 053e 9847     		blx	r3
 1265              		.loc 5 297 0
 1266 0540 019B     		ldr	r3, [sp, #4]
 1267 0542 9B68     		ldr	r3, [r3, #8]
 1268 0544 002B     		cmp	r3, #0
 1269 0546 02D0     		beq	.L89
 1270              		.loc 5 298 0
 1271 0548 019B     		ldr	r3, [sp, #4]
 1272 054a 9B68     		ldr	r3, [r3, #8]
 1273 054c 9847     		blx	r3
 1274              	.L89:
 1275              		.loc 5 300 0
 1276 054e FFF7FEFF 		bl	test_wait_threads
 1277              		.loc 5 301 0
 1278 0552 05B0     		add	sp, sp, #20
 1279              		@ sp needed
 1280 0554 5DF804FB 		ldr	pc, [sp], #4
 1281              	.L91:
 1282              		.align	2
 1283              	.L90:
 1284 0558 00000000 		.word	local_fail
ARM GAS  /tmp/ccJ4J3WB.s 			page 24


 1285 055c 00000000 		.word	threads
 1286              		.cfi_endproc
 1287              	.LFE282:
 1288              		.size	execute_test, .-execute_test
 1289              		.align	2
 1290              		.p2align 4,,15
 1291              		.thumb
 1292              		.thumb_func
 1293              		.type	print_line, %function
 1294              	print_line:
 1295              	.LFB283:
 1296              		.loc 5 303 0
 1297              		.cfi_startproc
 1298              		@ args = 0, pretend = 0, frame = 8
 1299              		@ frame_needed = 0, uses_anonymous_args = 0
 1300 0560 00B5     		push	{lr}
 1301              		.cfi_def_cfa_offset 4
 1302              		.cfi_offset 14, -4
 1303 0562 83B0     		sub	sp, sp, #12
 1304              		.cfi_def_cfa_offset 16
 1305              		.loc 5 306 0
 1306 0564 0023     		movs	r3, #0
 1307 0566 0193     		str	r3, [sp, #4]
 1308 0568 0BE0     		b	.L93
 1309              	.L94:
 1310              		.loc 5 307 0 discriminator 2
 1311 056a 0E4B     		ldr	r3, .L95
 1312 056c 1B68     		ldr	r3, [r3]
 1313 056e 1B68     		ldr	r3, [r3]
 1314 0570 9B68     		ldr	r3, [r3, #8]
 1315 0572 0C4A     		ldr	r2, .L95
 1316 0574 1268     		ldr	r2, [r2]
 1317 0576 1046     		mov	r0, r2
 1318 0578 2D21     		movs	r1, #45
 1319 057a 9847     		blx	r3
 1320              		.loc 5 306 0 discriminator 2
 1321 057c 019B     		ldr	r3, [sp, #4]
 1322 057e 0133     		adds	r3, r3, #1
 1323 0580 0193     		str	r3, [sp, #4]
 1324              	.L93:
 1325              		.loc 5 306 0 is_stmt 0 discriminator 1
 1326 0582 019B     		ldr	r3, [sp, #4]
 1327 0584 4B2B     		cmp	r3, #75
 1328 0586 F0D9     		bls	.L94
 1329              		.loc 5 308 0 is_stmt 1
 1330 0588 064B     		ldr	r3, .L95
 1331 058a 1B68     		ldr	r3, [r3]
 1332 058c 1B68     		ldr	r3, [r3]
 1333 058e 1B68     		ldr	r3, [r3]
 1334 0590 044A     		ldr	r2, .L95
 1335 0592 1268     		ldr	r2, [r2]
 1336 0594 1046     		mov	r0, r2
 1337 0596 0449     		ldr	r1, .L95+4
 1338 0598 0222     		movs	r2, #2
 1339 059a 9847     		blx	r3
 1340              		.loc 5 309 0
 1341 059c 03B0     		add	sp, sp, #12
ARM GAS  /tmp/ccJ4J3WB.s 			page 25


 1342              		@ sp needed
 1343 059e 5DF804FB 		ldr	pc, [sp], #4
 1344              	.L96:
 1345 05a2 00BF     		.align	2
 1346              	.L95:
 1347 05a4 1C000000 		.word	chp
 1348 05a8 14000000 		.word	.LC0
 1349              		.cfi_endproc
 1350              	.LFE283:
 1351              		.size	print_line, .-print_line
 1352              		.section	.rodata
 1353 0017 00       		.align	2
 1354              	.LC1:
 1355 0018 00       		.ascii	"\000"
 1356 0019 000000   		.align	2
 1357              	.LC2:
 1358 001c 2A2A2A20 		.ascii	"*** ChibiOS/RT test suite\000"
 1358      43686962 
 1358      694F532F 
 1358      52542074 
 1358      65737420 
 1359 0036 0000     		.align	2
 1360              	.LC3:
 1361 0038 2A2A2A00 		.ascii	"***\000"
 1362              		.align	2
 1363              	.LC4:
 1364 003c 2A2A2A20 		.ascii	"*** Kernel:       \000"
 1364      4B65726E 
 1364      656C3A20 
 1364      20202020 
 1364      202000
 1365 004f 00       		.align	2
 1366              	.LC5:
 1367 0050 332E312E 		.ascii	"3.1.5\000"
 1367      3500
 1368 0056 0000     		.align	2
 1369              	.LC6:
 1370 0058 2A2A2A20 		.ascii	"*** Compiled:     \000"
 1370      436F6D70 
 1370      696C6564 
 1370      3A202020 
 1370      202000
 1371 006b 00       		.align	2
 1372              	.LC7:
 1373 006c 4D617220 		.ascii	"Mar  3 2017 - 12:36:54\000"
 1373      20332032 
 1373      30313720 
 1373      2D203132 
 1373      3A33363A 
 1374 0083 00       		.align	2
 1375              	.LC8:
 1376 0084 2A2A2A20 		.ascii	"*** Compiler:     \000"
 1376      436F6D70 
 1376      696C6572 
 1376      3A202020 
 1376      202000
 1377 0097 00       		.align	2
ARM GAS  /tmp/ccJ4J3WB.s 			page 26


 1378              	.LC9:
 1379 0098 47434320 		.ascii	"GCC 4.8.4 20140526 (release) [ARM/embedded-4_8-bran"
 1379      342E382E 
 1379      34203230 
 1379      31343035 
 1379      32362028 
 1380 00cb 63682072 		.ascii	"ch revision 211358]\000"
 1380      65766973 
 1380      696F6E20 
 1380      32313133 
 1380      35385D00 
 1381 00df 00       		.align	2
 1382              	.LC10:
 1383 00e0 2A2A2A20 		.ascii	"*** Architecture: \000"
 1383      41726368 
 1383      69746563 
 1383      74757265 
 1383      3A2000
 1384 00f3 00       		.align	2
 1385              	.LC11:
 1386 00f4 41524D76 		.ascii	"ARMv7E-M\000"
 1386      37452D4D 
 1386      00
 1387 00fd 000000   		.align	2
 1388              	.LC12:
 1389 0100 2A2A2A20 		.ascii	"*** Core Variant: \000"
 1389      436F7265 
 1389      20566172 
 1389      69616E74 
 1389      3A2000
 1390 0113 00       		.align	2
 1391              	.LC13:
 1392 0114 436F7274 		.ascii	"Cortex-M4\000"
 1392      65782D4D 
 1392      3400
 1393 011e 0000     		.align	2
 1394              	.LC14:
 1395 0120 2A2A2A20 		.ascii	"*** Port Info:    \000"
 1395      506F7274 
 1395      20496E66 
 1395      6F3A2020 
 1395      202000
 1396 0133 00       		.align	2
 1397              	.LC15:
 1398 0134 41647661 		.ascii	"Advanced kernel mode\000"
 1398      6E636564 
 1398      206B6572 
 1398      6E656C20 
 1398      6D6F6465 
 1399 0149 000000   		.align	2
 1400              	.LC16:
 1401 014c 2A2A2A20 		.ascii	"*** Platform:     \000"
 1401      506C6174 
 1401      666F726D 
 1401      3A202020 
 1401      202000
 1402 015f 00       		.align	2
ARM GAS  /tmp/ccJ4J3WB.s 			page 27


 1403              	.LC17:
 1404 0160 53544D33 		.ascii	"STM32L4xx Ultra Low Power\000"
 1404      324C3478 
 1404      7820556C 
 1404      74726120 
 1404      4C6F7720 
 1405 017a 0000     		.align	2
 1406              	.LC18:
 1407 017c 2A2A2A20 		.ascii	"*** Test Board:   \000"
 1407      54657374 
 1407      20426F61 
 1407      72643A20 
 1407      202000
 1408 018f 00       		.align	2
 1409              	.LC19:
 1410 0190 53542053 		.ascii	"ST Sensortile \000"
 1410      656E736F 
 1410      7274696C 
 1410      652000
 1411 019f 00       		.align	2
 1412              	.LC20:
 1413 01a0 2D2D2D20 		.ascii	"--- Test Case \000"
 1413      54657374 
 1413      20436173 
 1413      652000
 1414 01af 00       		.align	2
 1415              	.LC21:
 1416 01b0 2E00     		.ascii	".\000"
 1417 01b2 0000     		.align	2
 1418              	.LC22:
 1419 01b4 202800   		.ascii	" (\000"
 1420 01b7 00       		.align	2
 1421              	.LC23:
 1422 01b8 2900     		.ascii	")\000"
 1423 01ba 0000     		.align	2
 1424              	.LC24:
 1425 01bc 2D2D2D20 		.ascii	"--- Result: FAILURE (#\000"
 1425      52657375 
 1425      6C743A20 
 1425      4641494C 
 1425      55524520 
 1426 01d3 00       		.align	2
 1427              	.LC25:
 1428 01d4 205B00   		.ascii	" [\000"
 1429 01d7 00       		.align	2
 1430              	.LC26:
 1431 01d8 5D2900   		.ascii	"])\000"
 1432 01db 00       		.align	2
 1433              	.LC27:
 1434 01dc 2D2D2D20 		.ascii	"--- Result: SUCCESS\000"
 1434      52657375 
 1434      6C743A20 
 1434      53554343 
 1434      45535300 
 1435              		.align	2
 1436              	.LC28:
 1437 01f0 46696E61 		.ascii	"Final result: \000"
ARM GAS  /tmp/ccJ4J3WB.s 			page 28


 1437      6C207265 
 1437      73756C74 
 1437      3A2000
 1438 01ff 00       		.align	2
 1439              	.LC29:
 1440 0200 4641494C 		.ascii	"FAILURE\000"
 1440      55524500 
 1441              		.align	2
 1442              	.LC30:
 1443 0208 53554343 		.ascii	"SUCCESS\000"
 1443      45535300 
 1444              		.text
 1445              		.align	2
 1446 05ac AFF30080 		.p2align 4,,15
 1447              		.global	TestThread
 1448              		.thumb
 1449              		.thumb_func
 1450              		.type	TestThread, %function
 1451              	TestThread:
 1452              	.LFB284:
 1453              		.loc 5 316 0
 1454              		.cfi_startproc
 1455              		@ args = 0, pretend = 0, frame = 16
 1456              		@ frame_needed = 0, uses_anonymous_args = 0
 1457 05b0 00B5     		push	{lr}
 1458              		.cfi_def_cfa_offset 4
 1459              		.cfi_offset 14, -4
 1460 05b2 85B0     		sub	sp, sp, #20
 1461              		.cfi_def_cfa_offset 24
 1462 05b4 0190     		str	r0, [sp, #4]
 1463              		.loc 5 319 0
 1464 05b6 5F4B     		ldr	r3, .L106
 1465 05b8 019A     		ldr	r2, [sp, #4]
 1466 05ba 1A60     		str	r2, [r3]
 1467              		.loc 5 320 0
 1468 05bc 5E48     		ldr	r0, .L106+4
 1469 05be FFF7FEFF 		bl	test_println
 1470              		.loc 5 321 0
 1471 05c2 5E48     		ldr	r0, .L106+8
 1472 05c4 FFF7FEFF 		bl	test_println
 1473              		.loc 5 322 0
 1474 05c8 5D48     		ldr	r0, .L106+12
 1475 05ca FFF7FEFF 		bl	test_println
 1476              		.loc 5 323 0
 1477 05ce 5D48     		ldr	r0, .L106+16
 1478 05d0 FFF7FEFF 		bl	test_print
 1479              		.loc 5 324 0
 1480 05d4 5C48     		ldr	r0, .L106+20
 1481 05d6 FFF7FEFF 		bl	test_println
 1482              		.loc 5 325 0
 1483 05da 5C48     		ldr	r0, .L106+24
 1484 05dc FFF7FEFF 		bl	test_print
 1485              		.loc 5 326 0
 1486 05e0 5B48     		ldr	r0, .L106+28
 1487 05e2 FFF7FEFF 		bl	test_println
 1488              		.loc 5 328 0
 1489 05e6 5B48     		ldr	r0, .L106+32
ARM GAS  /tmp/ccJ4J3WB.s 			page 29


 1490 05e8 FFF7FEFF 		bl	test_print
 1491              		.loc 5 329 0
 1492 05ec 5A48     		ldr	r0, .L106+36
 1493 05ee FFF7FEFF 		bl	test_println
 1494              		.loc 5 331 0
 1495 05f2 5A48     		ldr	r0, .L106+40
 1496 05f4 FFF7FEFF 		bl	test_print
 1497              		.loc 5 332 0
 1498 05f8 5948     		ldr	r0, .L106+44
 1499 05fa FFF7FEFF 		bl	test_println
 1500              		.loc 5 334 0
 1501 05fe 5948     		ldr	r0, .L106+48
 1502 0600 FFF7FEFF 		bl	test_print
 1503              		.loc 5 335 0
 1504 0604 5848     		ldr	r0, .L106+52
 1505 0606 FFF7FEFF 		bl	test_println
 1506              		.loc 5 338 0
 1507 060a 5848     		ldr	r0, .L106+56
 1508 060c FFF7FEFF 		bl	test_print
 1509              		.loc 5 339 0
 1510 0610 5748     		ldr	r0, .L106+60
 1511 0612 FFF7FEFF 		bl	test_println
 1512              		.loc 5 342 0
 1513 0616 5748     		ldr	r0, .L106+64
 1514 0618 FFF7FEFF 		bl	test_print
 1515              		.loc 5 343 0
 1516 061c 5648     		ldr	r0, .L106+68
 1517 061e FFF7FEFF 		bl	test_println
 1518              		.loc 5 346 0
 1519 0622 5648     		ldr	r0, .L106+72
 1520 0624 FFF7FEFF 		bl	test_print
 1521              		.loc 5 347 0
 1522 0628 5548     		ldr	r0, .L106+76
 1523 062a FFF7FEFF 		bl	test_println
 1524              		.loc 5 349 0
 1525 062e 4248     		ldr	r0, .L106+4
 1526 0630 FFF7FEFF 		bl	test_println
 1527              		.loc 5 351 0
 1528 0634 534B     		ldr	r3, .L106+80
 1529 0636 0022     		movs	r2, #0
 1530 0638 1A70     		strb	r2, [r3]
 1531              		.loc 5 352 0
 1532 063a 0023     		movs	r3, #0
 1533 063c 0393     		str	r3, [sp, #12]
 1534              		.loc 5 353 0
 1535 063e 5CE0     		b	.L98
 1536              	.L103:
 1537              		.loc 5 354 0
 1538 0640 0023     		movs	r3, #0
 1539 0642 0293     		str	r3, [sp, #8]
 1540              		.loc 5 355 0
 1541 0644 4CE0     		b	.L99
 1542              	.L102:
 1543              		.loc 5 356 0
 1544 0646 FFF78BFF 		bl	print_line
 1545              		.loc 5 357 0
 1546 064a 4F48     		ldr	r0, .L106+84
ARM GAS  /tmp/ccJ4J3WB.s 			page 30


 1547 064c FFF7FEFF 		bl	test_print
 1548              		.loc 5 358 0
 1549 0650 039B     		ldr	r3, [sp, #12]
 1550 0652 0133     		adds	r3, r3, #1
 1551 0654 1846     		mov	r0, r3
 1552 0656 FFF7FEFF 		bl	test_printn
 1553              		.loc 5 359 0
 1554 065a 4C48     		ldr	r0, .L106+88
 1555 065c FFF7FEFF 		bl	test_print
 1556              		.loc 5 360 0
 1557 0660 029B     		ldr	r3, [sp, #8]
 1558 0662 0133     		adds	r3, r3, #1
 1559 0664 1846     		mov	r0, r3
 1560 0666 FFF7FEFF 		bl	test_printn
 1561              		.loc 5 361 0
 1562 066a 4948     		ldr	r0, .L106+92
 1563 066c FFF7FEFF 		bl	test_print
 1564              		.loc 5 362 0
 1565 0670 484B     		ldr	r3, .L106+96
 1566 0672 039A     		ldr	r2, [sp, #12]
 1567 0674 53F82220 		ldr	r2, [r3, r2, lsl #2]
 1568 0678 029B     		ldr	r3, [sp, #8]
 1569 067a 9B00     		lsls	r3, r3, #2
 1570 067c 1344     		add	r3, r3, r2
 1571 067e 1B68     		ldr	r3, [r3]
 1572 0680 1B68     		ldr	r3, [r3]
 1573 0682 1846     		mov	r0, r3
 1574 0684 FFF7FEFF 		bl	test_print
 1575              		.loc 5 363 0
 1576 0688 4348     		ldr	r0, .L106+100
 1577 068a FFF7FEFF 		bl	test_println
 1578              		.loc 5 365 0
 1579 068e C820     		movs	r0, #200
 1580 0690 FFF7FEFF 		bl	chThdSleep
 1581              		.loc 5 367 0
 1582 0694 3F4B     		ldr	r3, .L106+96
 1583 0696 039A     		ldr	r2, [sp, #12]
 1584 0698 53F82220 		ldr	r2, [r3, r2, lsl #2]
 1585 069c 029B     		ldr	r3, [sp, #8]
 1586 069e 9B00     		lsls	r3, r3, #2
 1587 06a0 1344     		add	r3, r3, r2
 1588 06a2 1B68     		ldr	r3, [r3]
 1589 06a4 1846     		mov	r0, r3
 1590 06a6 FFF72BFF 		bl	execute_test
 1591              		.loc 5 368 0
 1592 06aa 3C4B     		ldr	r3, .L106+104
 1593 06ac 1B78     		ldrb	r3, [r3]	@ zero_extendqisi2
 1594 06ae 002B     		cmp	r3, #0
 1595 06b0 10D0     		beq	.L100
 1596              		.loc 5 369 0
 1597 06b2 3B48     		ldr	r0, .L106+108
 1598 06b4 FFF7FEFF 		bl	test_print
 1599              		.loc 5 370 0
 1600 06b8 3A4B     		ldr	r3, .L106+112
 1601 06ba 1B68     		ldr	r3, [r3]
 1602 06bc 1846     		mov	r0, r3
 1603 06be FFF7FEFF 		bl	test_printn
ARM GAS  /tmp/ccJ4J3WB.s 			page 31


 1604              		.loc 5 371 0
 1605 06c2 3948     		ldr	r0, .L106+116
 1606 06c4 FFF7FEFF 		bl	test_print
 1607              		.loc 5 372 0
 1608 06c8 FFF7DAFD 		bl	print_tokens
 1609              		.loc 5 373 0
 1610 06cc 3748     		ldr	r0, .L106+120
 1611 06ce FFF7FEFF 		bl	test_println
 1612 06d2 02E0     		b	.L101
 1613              	.L100:
 1614              		.loc 5 376 0
 1615 06d4 3648     		ldr	r0, .L106+124
 1616 06d6 FFF7FEFF 		bl	test_println
 1617              	.L101:
 1618              		.loc 5 377 0
 1619 06da 029B     		ldr	r3, [sp, #8]
 1620 06dc 0133     		adds	r3, r3, #1
 1621 06de 0293     		str	r3, [sp, #8]
 1622              	.L99:
 1623              		.loc 5 355 0 discriminator 1
 1624 06e0 2C4B     		ldr	r3, .L106+96
 1625 06e2 039A     		ldr	r2, [sp, #12]
 1626 06e4 53F82220 		ldr	r2, [r3, r2, lsl #2]
 1627 06e8 029B     		ldr	r3, [sp, #8]
 1628 06ea 9B00     		lsls	r3, r3, #2
 1629 06ec 1344     		add	r3, r3, r2
 1630 06ee 1B68     		ldr	r3, [r3]
 1631 06f0 002B     		cmp	r3, #0
 1632 06f2 A8D1     		bne	.L102
 1633              		.loc 5 379 0
 1634 06f4 039B     		ldr	r3, [sp, #12]
 1635 06f6 0133     		adds	r3, r3, #1
 1636 06f8 0393     		str	r3, [sp, #12]
 1637              	.L98:
 1638              		.loc 5 353 0 discriminator 1
 1639 06fa 264B     		ldr	r3, .L106+96
 1640 06fc 039A     		ldr	r2, [sp, #12]
 1641 06fe 53F82230 		ldr	r3, [r3, r2, lsl #2]
 1642 0702 002B     		cmp	r3, #0
 1643 0704 9CD1     		bne	.L103
 1644              		.loc 5 381 0
 1645 0706 FFF72BFF 		bl	print_line
 1646              		.loc 5 382 0
 1647 070a 0B48     		ldr	r0, .L106+4
 1648 070c FFF7FEFF 		bl	test_println
 1649              		.loc 5 383 0
 1650 0710 2848     		ldr	r0, .L106+128
 1651 0712 FFF7FEFF 		bl	test_print
 1652              		.loc 5 384 0
 1653 0716 1B4B     		ldr	r3, .L106+80
 1654 0718 1B78     		ldrb	r3, [r3]	@ zero_extendqisi2
 1655 071a 002B     		cmp	r3, #0
 1656 071c 03D0     		beq	.L104
 1657              		.loc 5 385 0
 1658 071e 2648     		ldr	r0, .L106+132
 1659 0720 FFF7FEFF 		bl	test_println
 1660 0724 02E0     		b	.L97
ARM GAS  /tmp/ccJ4J3WB.s 			page 32


 1661              	.L104:
 1662              		.loc 5 387 0
 1663 0726 2548     		ldr	r0, .L106+136
 1664 0728 FFF7FEFF 		bl	test_println
 1665              	.L97:
 1666              		.loc 5 388 0
 1667 072c 05B0     		add	sp, sp, #20
 1668              		@ sp needed
 1669 072e 5DF804FB 		ldr	pc, [sp], #4
 1670              	.L107:
 1671 0732 00BF     		.align	2
 1672              	.L106:
 1673 0734 1C000000 		.word	chp
 1674 0738 18000000 		.word	.LC1
 1675 073c 1C000000 		.word	.LC2
 1676 0740 38000000 		.word	.LC3
 1677 0744 3C000000 		.word	.LC4
 1678 0748 50000000 		.word	.LC5
 1679 074c 58000000 		.word	.LC6
 1680 0750 6C000000 		.word	.LC7
 1681 0754 84000000 		.word	.LC8
 1682 0758 98000000 		.word	.LC9
 1683 075c E0000000 		.word	.LC10
 1684 0760 F4000000 		.word	.LC11
 1685 0764 00010000 		.word	.LC12
 1686 0768 14010000 		.word	.LC13
 1687 076c 20010000 		.word	.LC14
 1688 0770 34010000 		.word	.LC15
 1689 0774 4C010000 		.word	.LC16
 1690 0778 60010000 		.word	.LC17
 1691 077c 7C010000 		.word	.LC18
 1692 0780 90010000 		.word	.LC19
 1693 0784 00000000 		.word	test_global_fail
 1694 0788 A0010000 		.word	.LC20
 1695 078c B0010000 		.word	.LC21
 1696 0790 B4010000 		.word	.LC22
 1697 0794 00000000 		.word	patterns
 1698 0798 B8010000 		.word	.LC23
 1699 079c 00000000 		.word	local_fail
 1700 07a0 BC010000 		.word	.LC24
 1701 07a4 04000000 		.word	failpoint
 1702 07a8 D4010000 		.word	.LC25
 1703 07ac D8010000 		.word	.LC26
 1704 07b0 DC010000 		.word	.LC27
 1705 07b4 F0010000 		.word	.LC28
 1706 07b8 00020000 		.word	.LC29
 1707 07bc 08020000 		.word	.LC30
 1708              		.cfi_endproc
 1709              	.LFE284:
 1710              		.size	TestThread, .-TestThread
 1711              	.Letext0:
 1712              		.file 6 "/nfs/nfs5/home/research/hardware/arm2/gcc-arm-embedded/gcc-arm-none-eabi-4_8-2014q2/lib/g
 1713              		.file 7 "/nfs/nfs5/home/research/hardware/arm2/gcc-arm-embedded/gcc-arm-none-eabi-4_8-2014q2/arm-n
 1714              		.file 8 "/nfs/nfs5/home/research/hardware/arm2/gcc-arm-embedded/gcc-arm-none-eabi-4_8-2014q2/arm-n
 1715              		.file 9 "../../../ChibiOS/os/rt/ports/ARMCMx/compilers/GCC/chtypes.h"
 1716              		.file 10 "../../../ChibiOS/os/rt/include/chsystypes.h"
 1717              		.file 11 "../../../ChibiOS/os/rt/include/chschd.h"
ARM GAS  /tmp/ccJ4J3WB.s 			page 33


 1718              		.file 12 "../../../ChibiOS/os/rt/ports/ARMCMx/chcore.h"
 1719              		.file 13 "../../../ChibiOS/os/rt/include/chtm.h"
 1720              		.file 14 "../../../ChibiOS/os/rt/include/chsem.h"
 1721              		.file 15 "../../../ChibiOS/os/rt/include/chmtx.h"
 1722              		.file 16 "../../../ChibiOS/os/rt/include/chstreams.h"
 1723              		.file 17 "../../../ChibiOS/test/rt/test.h"
 1724              		.file 18 "../../../ChibiOS/os/ext/CMSIS/include/core_cm4.h"
 1725              		.file 19 "../../../ChibiOS/test/rt/testsys.h"
 1726              		.file 20 "../../../ChibiOS/test/rt/testthd.h"
 1727              		.file 21 "../../../ChibiOS/test/rt/testsem.h"
 1728              		.file 22 "../../../ChibiOS/test/rt/testmtx.h"
 1729              		.file 23 "../../../ChibiOS/test/rt/testmsg.h"
 1730              		.file 24 "../../../ChibiOS/test/rt/testmbox.h"
 1731              		.file 25 "../../../ChibiOS/test/rt/testevt.h"
 1732              		.file 26 "../../../ChibiOS/test/rt/testheap.h"
 1733              		.file 27 "../../../ChibiOS/test/rt/testpools.h"
 1734              		.file 28 "../../../ChibiOS/test/rt/testdyn.h"
 1735              		.file 29 "../../../ChibiOS/test/rt/testqueues.h"
 1736              		.file 30 "../../../ChibiOS/test/rt/testbmk.h"
 1737              		.section	.debug_info,"",%progbits
 1738              	.Ldebug_info0:
 1739 0000 8A0F0000 		.4byte	0xf8a
 1740 0004 0400     		.2byte	0x4
 1741 0006 00000000 		.4byte	.Ldebug_abbrev0
 1742 000a 04       		.byte	0x4
 1743 000b 01       		.uleb128 0x1
 1744 000c 55030000 		.4byte	.LASF175
 1745 0010 01       		.byte	0x1
 1746 0011 98010000 		.4byte	.LASF176
 1747 0015 2F040000 		.4byte	.LASF177
 1748 0019 00000000 		.4byte	.Ltext0
 1749 001d C0070000 		.4byte	.Letext0-.Ltext0
 1750 0021 00000000 		.4byte	.Ldebug_line0
 1751 0025 02       		.uleb128 0x2
 1752 0026 04       		.byte	0x4
 1753 0027 05       		.byte	0x5
 1754 0028 696E7400 		.ascii	"int\000"
 1755 002c 03       		.uleb128 0x3
 1756 002d 0D000000 		.4byte	.LASF2
 1757 0031 06       		.byte	0x6
 1758 0032 D4       		.byte	0xd4
 1759 0033 37000000 		.4byte	0x37
 1760 0037 04       		.uleb128 0x4
 1761 0038 04       		.byte	0x4
 1762 0039 07       		.byte	0x7
 1763 003a B1020000 		.4byte	.LASF0
 1764 003e 04       		.uleb128 0x4
 1765 003f 01       		.byte	0x1
 1766 0040 06       		.byte	0x6
 1767 0041 30010000 		.4byte	.LASF1
 1768 0045 03       		.uleb128 0x3
 1769 0046 31000000 		.4byte	.LASF3
 1770 004a 07       		.byte	0x7
 1771 004b 1C       		.byte	0x1c
 1772 004c 50000000 		.4byte	0x50
 1773 0050 04       		.uleb128 0x4
 1774 0051 01       		.byte	0x1
ARM GAS  /tmp/ccJ4J3WB.s 			page 34


 1775 0052 08       		.byte	0x8
 1776 0053 D4050000 		.4byte	.LASF4
 1777 0057 04       		.uleb128 0x4
 1778 0058 02       		.byte	0x2
 1779 0059 05       		.byte	0x5
 1780 005a 0D060000 		.4byte	.LASF5
 1781 005e 04       		.uleb128 0x4
 1782 005f 02       		.byte	0x2
 1783 0060 07       		.byte	0x7
 1784 0061 0B030000 		.4byte	.LASF6
 1785 0065 03       		.uleb128 0x3
 1786 0066 15040000 		.4byte	.LASF7
 1787 006a 07       		.byte	0x7
 1788 006b 37       		.byte	0x37
 1789 006c 70000000 		.4byte	0x70
 1790 0070 04       		.uleb128 0x4
 1791 0071 04       		.byte	0x4
 1792 0072 05       		.byte	0x5
 1793 0073 8F010000 		.4byte	.LASF8
 1794 0077 03       		.uleb128 0x3
 1795 0078 98070000 		.4byte	.LASF9
 1796 007c 07       		.byte	0x7
 1797 007d 38       		.byte	0x38
 1798 007e 82000000 		.4byte	0x82
 1799 0082 04       		.uleb128 0x4
 1800 0083 04       		.byte	0x4
 1801 0084 07       		.byte	0x7
 1802 0085 16070000 		.4byte	.LASF10
 1803 0089 04       		.uleb128 0x4
 1804 008a 08       		.byte	0x8
 1805 008b 05       		.byte	0x5
 1806 008c 22010000 		.4byte	.LASF11
 1807 0090 03       		.uleb128 0x3
 1808 0091 6A050000 		.4byte	.LASF12
 1809 0095 07       		.byte	0x7
 1810 0096 4E       		.byte	0x4e
 1811 0097 9B000000 		.4byte	0x9b
 1812 009b 04       		.uleb128 0x4
 1813 009c 08       		.byte	0x8
 1814 009d 07       		.byte	0x7
 1815 009e 8A000000 		.4byte	.LASF13
 1816 00a2 03       		.uleb128 0x3
 1817 00a3 21080000 		.4byte	.LASF14
 1818 00a7 08       		.byte	0x8
 1819 00a8 2A       		.byte	0x2a
 1820 00a9 45000000 		.4byte	0x45
 1821 00ad 03       		.uleb128 0x3
 1822 00ae CC050000 		.4byte	.LASF15
 1823 00b2 08       		.byte	0x8
 1824 00b3 41       		.byte	0x41
 1825 00b4 65000000 		.4byte	0x65
 1826 00b8 03       		.uleb128 0x3
 1827 00b9 E2060000 		.4byte	.LASF16
 1828 00bd 08       		.byte	0x8
 1829 00be 42       		.byte	0x42
 1830 00bf 77000000 		.4byte	0x77
 1831 00c3 03       		.uleb128 0x3
ARM GAS  /tmp/ccJ4J3WB.s 			page 35


 1832 00c4 1B000000 		.4byte	.LASF17
 1833 00c8 08       		.byte	0x8
 1834 00c9 4E       		.byte	0x4e
 1835 00ca 90000000 		.4byte	0x90
 1836 00ce 03       		.uleb128 0x3
 1837 00cf DB070000 		.4byte	.LASF18
 1838 00d3 09       		.byte	0x9
 1839 00d4 39       		.byte	0x39
 1840 00d5 B8000000 		.4byte	0xb8
 1841 00d9 03       		.uleb128 0x3
 1842 00da 45030000 		.4byte	.LASF19
 1843 00de 09       		.byte	0x9
 1844 00df 3C       		.byte	0x3c
 1845 00e0 A2000000 		.4byte	0xa2
 1846 00e4 03       		.uleb128 0x3
 1847 00e5 B8010000 		.4byte	.LASF20
 1848 00e9 09       		.byte	0x9
 1849 00ea 3D       		.byte	0x3d
 1850 00eb A2000000 		.4byte	0xa2
 1851 00ef 03       		.uleb128 0x3
 1852 00f0 80050000 		.4byte	.LASF21
 1853 00f4 09       		.byte	0x9
 1854 00f5 3E       		.byte	0x3e
 1855 00f6 A2000000 		.4byte	0xa2
 1856 00fa 03       		.uleb128 0x3
 1857 00fb 75010000 		.4byte	.LASF22
 1858 00ff 09       		.byte	0x9
 1859 0100 3F       		.byte	0x3f
 1860 0101 A2000000 		.4byte	0xa2
 1861 0105 03       		.uleb128 0x3
 1862 0106 A7050000 		.4byte	.LASF23
 1863 010a 09       		.byte	0x9
 1864 010b 40       		.byte	0x40
 1865 010c B8000000 		.4byte	0xb8
 1866 0110 03       		.uleb128 0x3
 1867 0111 28030000 		.4byte	.LASF24
 1868 0115 09       		.byte	0x9
 1869 0116 41       		.byte	0x41
 1870 0117 AD000000 		.4byte	0xad
 1871 011b 03       		.uleb128 0x3
 1872 011c 09040000 		.4byte	.LASF25
 1873 0120 09       		.byte	0x9
 1874 0121 43       		.byte	0x43
 1875 0122 B8000000 		.4byte	0xb8
 1876 0126 03       		.uleb128 0x3
 1877 0127 98020000 		.4byte	.LASF26
 1878 012b 09       		.byte	0x9
 1879 012c 45       		.byte	0x45
 1880 012d AD000000 		.4byte	0xad
 1881 0131 03       		.uleb128 0x3
 1882 0132 7A070000 		.4byte	.LASF27
 1883 0136 0A       		.byte	0xa
 1884 0137 33       		.byte	0x33
 1885 0138 B8000000 		.4byte	0xb8
 1886 013c 03       		.uleb128 0x3
 1887 013d 58070000 		.4byte	.LASF28
 1888 0141 0A       		.byte	0xa
ARM GAS  /tmp/ccJ4J3WB.s 			page 36


 1889 0142 3F       		.byte	0x3f
 1890 0143 47010000 		.4byte	0x147
 1891 0147 05       		.uleb128 0x5
 1892 0148 1E030000 		.4byte	.LASF49
 1893 014c 44       		.byte	0x44
 1894 014d 0B       		.byte	0xb
 1895 014e C2       		.byte	0xc2
 1896 014f 40020000 		.4byte	0x240
 1897 0153 06       		.uleb128 0x6
 1898 0154 50060000 		.4byte	.LASF29
 1899 0158 0B       		.byte	0xb
 1900 0159 C3       		.byte	0xc3
 1901 015a 4B020000 		.4byte	0x24b
 1902 015e 00       		.byte	0
 1903 015f 06       		.uleb128 0x6
 1904 0160 98050000 		.4byte	.LASF30
 1905 0164 0B       		.byte	0xb
 1906 0165 C5       		.byte	0xc5
 1907 0166 4B020000 		.4byte	0x24b
 1908 016a 04       		.byte	0x4
 1909 016b 06       		.uleb128 0x6
 1910 016c F8000000 		.4byte	.LASF31
 1911 0170 0B       		.byte	0xb
 1912 0171 C7       		.byte	0xc7
 1913 0172 05010000 		.4byte	0x105
 1914 0176 08       		.byte	0x8
 1915 0177 06       		.uleb128 0x6
 1916 0178 9A080000 		.4byte	.LASF32
 1917 017c 0B       		.byte	0xb
 1918 017d C8       		.byte	0xc8
 1919 017e 7B040000 		.4byte	0x47b
 1920 0182 0C       		.byte	0xc
 1921 0183 06       		.uleb128 0x6
 1922 0184 08020000 		.4byte	.LASF33
 1923 0188 0B       		.byte	0xb
 1924 0189 CA       		.byte	0xca
 1925 018a 4B020000 		.4byte	0x24b
 1926 018e 10       		.byte	0x10
 1927 018f 06       		.uleb128 0x6
 1928 0190 31060000 		.4byte	.LASF34
 1929 0194 0B       		.byte	0xb
 1930 0195 CB       		.byte	0xcb
 1931 0196 4B020000 		.4byte	0x24b
 1932 019a 14       		.byte	0x14
 1933 019b 06       		.uleb128 0x6
 1934 019c AF050000 		.4byte	.LASF35
 1935 01a0 0B       		.byte	0xb
 1936 01a1 D2       		.byte	0xd2
 1937 01a2 FA050000 		.4byte	0x5fa
 1938 01a6 18       		.byte	0x18
 1939 01a7 06       		.uleb128 0x6
 1940 01a8 17060000 		.4byte	.LASF36
 1941 01ac 0B       		.byte	0xb
 1942 01ad DD       		.byte	0xdd
 1943 01ae E4000000 		.4byte	0xe4
 1944 01b2 1C       		.byte	0x1c
 1945 01b3 06       		.uleb128 0x6
ARM GAS  /tmp/ccJ4J3WB.s 			page 37


 1946 01b4 6F060000 		.4byte	.LASF37
 1947 01b8 0B       		.byte	0xb
 1948 01b9 E1       		.byte	0xe1
 1949 01ba D9000000 		.4byte	0xd9
 1950 01be 1D       		.byte	0x1d
 1951 01bf 06       		.uleb128 0x6
 1952 01c0 07080000 		.4byte	.LASF38
 1953 01c4 0B       		.byte	0xb
 1954 01c5 E6       		.byte	0xe6
 1955 01c6 EF000000 		.4byte	0xef
 1956 01ca 1E       		.byte	0x1e
 1957 01cb 06       		.uleb128 0x6
 1958 01cc 1F060000 		.4byte	.LASF39
 1959 01d0 0B       		.byte	0xb
 1960 01d1 EC       		.byte	0xec
 1961 01d2 FA000000 		.4byte	0xfa
 1962 01d6 1F       		.byte	0x1f
 1963 01d7 07       		.uleb128 0x7
 1964 01d8 705F7500 		.ascii	"p_u\000"
 1965 01dc 0B       		.byte	0xb
 1966 01dd 3101     		.2byte	0x131
 1967 01df 35050000 		.4byte	0x535
 1968 01e3 20       		.byte	0x20
 1969 01e4 08       		.uleb128 0x8
 1970 01e5 A2040000 		.4byte	.LASF40
 1971 01e9 0B       		.byte	0xb
 1972 01ea 3601     		.2byte	0x136
 1973 01ec 51020000 		.4byte	0x251
 1974 01f0 24       		.byte	0x24
 1975 01f1 08       		.uleb128 0x8
 1976 01f2 D3020000 		.4byte	.LASF41
 1977 01f6 0B       		.byte	0xb
 1978 01f7 3C01     		.2byte	0x13c
 1979 01f9 75020000 		.4byte	0x275
 1980 01fd 28       		.byte	0x28
 1981 01fe 08       		.uleb128 0x8
 1982 01ff 86080000 		.4byte	.LASF42
 1983 0203 0B       		.byte	0xb
 1984 0204 4001     		.2byte	0x140
 1985 0206 10010000 		.4byte	0x110
 1986 020a 30       		.byte	0x30
 1987 020b 08       		.uleb128 0x8
 1988 020c D7060000 		.4byte	.LASF43
 1989 0210 0B       		.byte	0xb
 1990 0211 4601     		.2byte	0x146
 1991 0213 1B010000 		.4byte	0x11b
 1992 0217 34       		.byte	0x34
 1993 0218 08       		.uleb128 0x8
 1994 0219 FF030000 		.4byte	.LASF44
 1995 021d 0B       		.byte	0xb
 1996 021e 4D01     		.2byte	0x14d
 1997 0220 F4050000 		.4byte	0x5f4
 1998 0224 38       		.byte	0x38
 1999 0225 08       		.uleb128 0x8
 2000 0226 84070000 		.4byte	.LASF45
 2001 022a 0B       		.byte	0xb
 2002 022b 5101     		.2byte	0x151
ARM GAS  /tmp/ccJ4J3WB.s 			page 38


 2003 022d 05010000 		.4byte	0x105
 2004 0231 3C       		.byte	0x3c
 2005 0232 08       		.uleb128 0x8
 2006 0233 3C010000 		.4byte	.LASF46
 2007 0237 0B       		.byte	0xb
 2008 0238 5801     		.2byte	0x158
 2009 023a 28030000 		.4byte	0x328
 2010 023e 40       		.byte	0x40
 2011 023f 00       		.byte	0
 2012 0240 03       		.uleb128 0x3
 2013 0241 C0040000 		.4byte	.LASF47
 2014 0245 0A       		.byte	0xa
 2015 0246 44       		.byte	0x44
 2016 0247 4B020000 		.4byte	0x24b
 2017 024b 09       		.uleb128 0x9
 2018 024c 04       		.byte	0x4
 2019 024d 3C010000 		.4byte	0x13c
 2020 0251 03       		.uleb128 0x3
 2021 0252 86040000 		.4byte	.LASF48
 2022 0256 0A       		.byte	0xa
 2023 0257 49       		.byte	0x49
 2024 0258 5C020000 		.4byte	0x25c
 2025 025c 05       		.uleb128 0x5
 2026 025d 06070000 		.4byte	.LASF50
 2027 0261 04       		.byte	0x4
 2028 0262 0B       		.byte	0xb
 2029 0263 B0       		.byte	0xb0
 2030 0264 75020000 		.4byte	0x275
 2031 0268 06       		.uleb128 0x6
 2032 0269 50060000 		.4byte	.LASF29
 2033 026d 0B       		.byte	0xb
 2034 026e B1       		.byte	0xb1
 2035 026f 4B020000 		.4byte	0x24b
 2036 0273 00       		.byte	0
 2037 0274 00       		.byte	0
 2038 0275 03       		.uleb128 0x3
 2039 0276 95060000 		.4byte	.LASF51
 2040 027a 0A       		.byte	0xa
 2041 027b 50       		.byte	0x50
 2042 027c 80020000 		.4byte	0x280
 2043 0280 05       		.uleb128 0x5
 2044 0281 E7000000 		.4byte	.LASF52
 2045 0285 08       		.byte	0x8
 2046 0286 0B       		.byte	0xb
 2047 0287 B7       		.byte	0xb7
 2048 0288 A5020000 		.4byte	0x2a5
 2049 028c 06       		.uleb128 0x6
 2050 028d 50060000 		.4byte	.LASF29
 2051 0291 0B       		.byte	0xb
 2052 0292 B8       		.byte	0xb8
 2053 0293 4B020000 		.4byte	0x24b
 2054 0297 00       		.byte	0
 2055 0298 06       		.uleb128 0x6
 2056 0299 98050000 		.4byte	.LASF30
 2057 029d 0B       		.byte	0xb
 2058 029e B9       		.byte	0xb9
 2059 029f 4B020000 		.4byte	0x24b
ARM GAS  /tmp/ccJ4J3WB.s 			page 39


 2060 02a3 04       		.byte	0x4
 2061 02a4 00       		.byte	0
 2062 02a5 03       		.uleb128 0x3
 2063 02a6 00000000 		.4byte	.LASF53
 2064 02aa 0A       		.byte	0xa
 2065 02ab 57       		.byte	0x57
 2066 02ac B0020000 		.4byte	0x2b0
 2067 02b0 0A       		.uleb128 0xa
 2068 02b1 F2020000 		.4byte	.LASF54
 2069 02b5 1C       		.byte	0x1c
 2070 02b6 0B       		.byte	0xb
 2071 02b7 9001     		.2byte	0x190
 2072 02b9 0C030000 		.4byte	0x30c
 2073 02bd 08       		.uleb128 0x8
 2074 02be F2060000 		.4byte	.LASF55
 2075 02c2 0B       		.byte	0xb
 2076 02c3 9101     		.2byte	0x191
 2077 02c5 75020000 		.4byte	0x275
 2078 02c9 00       		.byte	0
 2079 02ca 08       		.uleb128 0x8
 2080 02cb 9B040000 		.4byte	.LASF56
 2081 02cf 0B       		.byte	0xb
 2082 02d0 9201     		.2byte	0x192
 2083 02d2 05010000 		.4byte	0x105
 2084 02d6 08       		.byte	0x8
 2085 02d7 08       		.uleb128 0x8
 2086 02d8 17050000 		.4byte	.LASF57
 2087 02dc 0B       		.byte	0xb
 2088 02dd 9401     		.2byte	0x194
 2089 02df 7B040000 		.4byte	0x47b
 2090 02e3 0C       		.byte	0xc
 2091 02e4 08       		.uleb128 0x8
 2092 02e5 29020000 		.4byte	.LASF58
 2093 02e9 0B       		.byte	0xb
 2094 02ea 9701     		.2byte	0x197
 2095 02ec 4B020000 		.4byte	0x24b
 2096 02f0 10       		.byte	0x10
 2097 02f1 08       		.uleb128 0x8
 2098 02f2 4C050000 		.4byte	.LASF59
 2099 02f6 0B       		.byte	0xb
 2100 02f7 9801     		.2byte	0x198
 2101 02f9 4B020000 		.4byte	0x24b
 2102 02fd 14       		.byte	0x14
 2103 02fe 08       		.uleb128 0x8
 2104 02ff 42050000 		.4byte	.LASF60
 2105 0303 0B       		.byte	0xb
 2106 0304 9B01     		.2byte	0x19b
 2107 0306 4B020000 		.4byte	0x24b
 2108 030a 18       		.byte	0x18
 2109 030b 00       		.byte	0
 2110 030c 03       		.uleb128 0x3
 2111 030d 8F070000 		.4byte	.LASF61
 2112 0311 0A       		.byte	0xa
 2113 0312 5C       		.byte	0x5c
 2114 0313 17030000 		.4byte	0x317
 2115 0317 09       		.uleb128 0x9
 2116 0318 04       		.byte	0x4
ARM GAS  /tmp/ccJ4J3WB.s 			page 40


 2117 0319 1D030000 		.4byte	0x31d
 2118 031d 0B       		.uleb128 0xb
 2119 031e 28030000 		.4byte	0x328
 2120 0322 0C       		.uleb128 0xc
 2121 0323 28030000 		.4byte	0x328
 2122 0327 00       		.byte	0
 2123 0328 0D       		.uleb128 0xd
 2124 0329 04       		.byte	0x4
 2125 032a 03       		.uleb128 0x3
 2126 032b 88050000 		.4byte	.LASF62
 2127 032f 0A       		.byte	0xa
 2128 0330 61       		.byte	0x61
 2129 0331 35030000 		.4byte	0x335
 2130 0335 0A       		.uleb128 0xa
 2131 0336 A5060000 		.4byte	.LASF63
 2132 033a 14       		.byte	0x14
 2133 033b 0B       		.byte	0xb
 2134 033c 6B01     		.2byte	0x16b
 2135 033e 84030000 		.4byte	0x384
 2136 0342 08       		.uleb128 0x8
 2137 0343 BE020000 		.4byte	.LASF64
 2138 0347 0B       		.byte	0xb
 2139 0348 6C01     		.2byte	0x16c
 2140 034a 0C060000 		.4byte	0x60c
 2141 034e 00       		.byte	0
 2142 034f 08       		.uleb128 0x8
 2143 0350 3A020000 		.4byte	.LASF65
 2144 0354 0B       		.byte	0xb
 2145 0355 6D01     		.2byte	0x16d
 2146 0357 0C060000 		.4byte	0x60c
 2147 035b 04       		.byte	0x4
 2148 035c 08       		.uleb128 0x8
 2149 035d 71080000 		.4byte	.LASF66
 2150 0361 0B       		.byte	0xb
 2151 0362 6E01     		.2byte	0x16e
 2152 0364 31010000 		.4byte	0x131
 2153 0368 08       		.byte	0x8
 2154 0369 08       		.uleb128 0x8
 2155 036a EA040000 		.4byte	.LASF67
 2156 036e 0B       		.byte	0xb
 2157 036f 6F01     		.2byte	0x16f
 2158 0371 0C030000 		.4byte	0x30c
 2159 0375 0C       		.byte	0xc
 2160 0376 08       		.uleb128 0x8
 2161 0377 E3070000 		.4byte	.LASF68
 2162 037b 0B       		.byte	0xb
 2163 037c 7101     		.2byte	0x171
 2164 037e 28030000 		.4byte	0x328
 2165 0382 10       		.byte	0x10
 2166 0383 00       		.byte	0
 2167 0384 03       		.uleb128 0x3
 2168 0385 C4000000 		.4byte	.LASF69
 2169 0389 0A       		.byte	0xa
 2170 038a 66       		.byte	0x66
 2171 038b 8F030000 		.4byte	0x38f
 2172 038f 0A       		.uleb128 0xa
 2173 0390 D3040000 		.4byte	.LASF70
ARM GAS  /tmp/ccJ4J3WB.s 			page 41


 2174 0394 10       		.byte	0x10
 2175 0395 0B       		.byte	0xb
 2176 0396 7B01     		.2byte	0x17b
 2177 0398 D1030000 		.4byte	0x3d1
 2178 039c 08       		.uleb128 0x8
 2179 039d BE020000 		.4byte	.LASF64
 2180 03a1 0B       		.byte	0xb
 2181 03a2 7C01     		.2byte	0x17c
 2182 03a4 0C060000 		.4byte	0x60c
 2183 03a8 00       		.byte	0
 2184 03a9 08       		.uleb128 0x8
 2185 03aa 3A020000 		.4byte	.LASF65
 2186 03ae 0B       		.byte	0xb
 2187 03af 7E01     		.2byte	0x17e
 2188 03b1 0C060000 		.4byte	0x60c
 2189 03b5 04       		.byte	0x4
 2190 03b6 08       		.uleb128 0x8
 2191 03b7 71080000 		.4byte	.LASF66
 2192 03bb 0B       		.byte	0xb
 2193 03bc 8001     		.2byte	0x180
 2194 03be 31010000 		.4byte	0x131
 2195 03c2 08       		.byte	0x8
 2196 03c3 08       		.uleb128 0x8
 2197 03c4 54080000 		.4byte	.LASF71
 2198 03c8 0B       		.byte	0xb
 2199 03c9 8201     		.2byte	0x182
 2200 03cb 12060000 		.4byte	0x612
 2201 03cf 0C       		.byte	0xc
 2202 03d0 00       		.byte	0
 2203 03d1 03       		.uleb128 0x3
 2204 03d2 47000000 		.4byte	.LASF72
 2205 03d6 0A       		.byte	0xa
 2206 03d7 6B       		.byte	0x6b
 2207 03d8 DC030000 		.4byte	0x3dc
 2208 03dc 0A       		.uleb128 0xa
 2209 03dd B6050000 		.4byte	.LASF73
 2210 03e1 04       		.byte	0x4
 2211 03e2 0B       		.byte	0xb
 2212 03e3 A201     		.2byte	0x1a2
 2213 03e5 F7030000 		.4byte	0x3f7
 2214 03e9 08       		.uleb128 0x8
 2215 03ea B1070000 		.4byte	.LASF74
 2216 03ee 0B       		.byte	0xb
 2217 03ef AA01     		.2byte	0x1aa
 2218 03f1 17060000 		.4byte	0x617
 2219 03f5 00       		.byte	0
 2220 03f6 00       		.byte	0
 2221 03f7 03       		.uleb128 0x3
 2222 03f8 2E030000 		.4byte	.LASF75
 2223 03fc 0A       		.byte	0xa
 2224 03fd 70       		.byte	0x70
 2225 03fe 02040000 		.4byte	0x402
 2226 0402 0E       		.uleb128 0xe
 2227 0403 85010000 		.4byte	.LASF76
 2228 0407 5001     		.2byte	0x150
 2229 0409 0B       		.byte	0xb
 2230 040a C201     		.2byte	0x1c2
ARM GAS  /tmp/ccJ4J3WB.s 			page 42


 2231 040c 5E040000 		.4byte	0x45e
 2232 0410 08       		.uleb128 0x8
 2233 0411 1B080000 		.4byte	.LASF77
 2234 0415 0B       		.byte	0xb
 2235 0416 C601     		.2byte	0x1c6
 2236 0418 A5020000 		.4byte	0x2a5
 2237 041c 00       		.byte	0
 2238 041d 08       		.uleb128 0x8
 2239 041e 42020000 		.4byte	.LASF78
 2240 0422 0B       		.byte	0xb
 2241 0423 CA01     		.2byte	0x1ca
 2242 0425 84030000 		.4byte	0x384
 2243 0429 1C       		.byte	0x1c
 2244 042a 07       		.uleb128 0x7
 2245 042b 64626700 		.ascii	"dbg\000"
 2246 042f 0B       		.byte	0xb
 2247 0430 CE01     		.2byte	0x1ce
 2248 0432 D1030000 		.4byte	0x3d1
 2249 0436 2C       		.byte	0x2c
 2250 0437 08       		.uleb128 0x8
 2251 0438 B4000000 		.4byte	.LASF79
 2252 043c 0B       		.byte	0xb
 2253 043d D201     		.2byte	0x1d2
 2254 043f 3C010000 		.4byte	0x13c
 2255 0443 30       		.byte	0x30
 2256 0444 07       		.uleb128 0x7
 2257 0445 746D00   		.ascii	"tm\000"
 2258 0448 0B       		.byte	0xb
 2259 0449 D701     		.2byte	0x1d7
 2260 044b 2A050000 		.4byte	0x52a
 2261 044f 74       		.byte	0x74
 2262 0450 08       		.uleb128 0x8
 2263 0451 64000000 		.4byte	.LASF80
 2264 0455 0B       		.byte	0xb
 2265 0456 E301     		.2byte	0x1e3
 2266 0458 1C060000 		.4byte	0x61c
 2267 045c 78       		.byte	0x78
 2268 045d 00       		.byte	0
 2269 045e 04       		.uleb128 0x4
 2270 045f 04       		.byte	0x4
 2271 0460 07       		.byte	0x7
 2272 0461 B7040000 		.4byte	.LASF81
 2273 0465 03       		.uleb128 0x3
 2274 0466 31020000 		.4byte	.LASF82
 2275 046a 0C       		.byte	0xc
 2276 046b 65       		.byte	0x65
 2277 046c 28030000 		.4byte	0x328
 2278 0470 03       		.uleb128 0x3
 2279 0471 70040000 		.4byte	.LASF83
 2280 0475 0C       		.byte	0xc
 2281 0476 6D       		.byte	0x6d
 2282 0477 C3000000 		.4byte	0xc3
 2283 047b 05       		.uleb128 0x5
 2284 047c D3070000 		.4byte	.LASF84
 2285 0480 04       		.byte	0x4
 2286 0481 0C       		.byte	0xc
 2287 0482 89       		.byte	0x89
ARM GAS  /tmp/ccJ4J3WB.s 			page 43


 2288 0483 94040000 		.4byte	0x494
 2289 0487 0F       		.uleb128 0xf
 2290 0488 72313300 		.ascii	"r13\000"
 2291 048c 0C       		.byte	0xc
 2292 048d 8A       		.byte	0x8a
 2293 048e 0F050000 		.4byte	0x50f
 2294 0492 00       		.byte	0
 2295 0493 00       		.byte	0
 2296 0494 05       		.uleb128 0x5
 2297 0495 3B000000 		.4byte	.LASF85
 2298 0499 24       		.byte	0x24
 2299 049a 01       		.byte	0x1
 2300 049b FD       		.byte	0xfd
 2301 049c 0F050000 		.4byte	0x50f
 2302 04a0 07       		.uleb128 0x7
 2303 04a1 723400   		.ascii	"r4\000"
 2304 04a4 01       		.byte	0x1
 2305 04a5 1001     		.2byte	0x110
 2306 04a7 65040000 		.4byte	0x465
 2307 04ab 00       		.byte	0
 2308 04ac 07       		.uleb128 0x7
 2309 04ad 723500   		.ascii	"r5\000"
 2310 04b0 01       		.byte	0x1
 2311 04b1 1101     		.2byte	0x111
 2312 04b3 65040000 		.4byte	0x465
 2313 04b7 04       		.byte	0x4
 2314 04b8 07       		.uleb128 0x7
 2315 04b9 723600   		.ascii	"r6\000"
 2316 04bc 01       		.byte	0x1
 2317 04bd 1201     		.2byte	0x112
 2318 04bf 65040000 		.4byte	0x465
 2319 04c3 08       		.byte	0x8
 2320 04c4 07       		.uleb128 0x7
 2321 04c5 723700   		.ascii	"r7\000"
 2322 04c8 01       		.byte	0x1
 2323 04c9 1301     		.2byte	0x113
 2324 04cb 65040000 		.4byte	0x465
 2325 04cf 0C       		.byte	0xc
 2326 04d0 07       		.uleb128 0x7
 2327 04d1 723800   		.ascii	"r8\000"
 2328 04d4 01       		.byte	0x1
 2329 04d5 1401     		.2byte	0x114
 2330 04d7 65040000 		.4byte	0x465
 2331 04db 10       		.byte	0x10
 2332 04dc 07       		.uleb128 0x7
 2333 04dd 723900   		.ascii	"r9\000"
 2334 04e0 01       		.byte	0x1
 2335 04e1 1501     		.2byte	0x115
 2336 04e3 65040000 		.4byte	0x465
 2337 04e7 14       		.byte	0x14
 2338 04e8 07       		.uleb128 0x7
 2339 04e9 72313000 		.ascii	"r10\000"
 2340 04ed 01       		.byte	0x1
 2341 04ee 1601     		.2byte	0x116
 2342 04f0 65040000 		.4byte	0x465
 2343 04f4 18       		.byte	0x18
 2344 04f5 07       		.uleb128 0x7
ARM GAS  /tmp/ccJ4J3WB.s 			page 44


 2345 04f6 72313100 		.ascii	"r11\000"
 2346 04fa 01       		.byte	0x1
 2347 04fb 1701     		.2byte	0x117
 2348 04fd 65040000 		.4byte	0x465
 2349 0501 1C       		.byte	0x1c
 2350 0502 07       		.uleb128 0x7
 2351 0503 6C7200   		.ascii	"lr\000"
 2352 0506 01       		.byte	0x1
 2353 0507 1801     		.2byte	0x118
 2354 0509 65040000 		.4byte	0x465
 2355 050d 20       		.byte	0x20
 2356 050e 00       		.byte	0
 2357 050f 09       		.uleb128 0x9
 2358 0510 04       		.byte	0x4
 2359 0511 94040000 		.4byte	0x494
 2360 0515 10       		.uleb128 0x10
 2361 0516 04       		.byte	0x4
 2362 0517 0D       		.byte	0xd
 2363 0518 38       		.byte	0x38
 2364 0519 2A050000 		.4byte	0x52a
 2365 051d 06       		.uleb128 0x6
 2366 051e CC070000 		.4byte	.LASF86
 2367 0522 0D       		.byte	0xd
 2368 0523 3C       		.byte	0x3c
 2369 0524 CE000000 		.4byte	0xce
 2370 0528 00       		.byte	0
 2371 0529 00       		.byte	0
 2372 052a 03       		.uleb128 0x3
 2373 052b F2040000 		.4byte	.LASF87
 2374 052f 0D       		.byte	0xd
 2375 0530 3D       		.byte	0x3d
 2376 0531 15050000 		.4byte	0x515
 2377 0535 11       		.uleb128 0x11
 2378 0536 04       		.byte	0x4
 2379 0537 0B       		.byte	0xb
 2380 0538 FA       		.byte	0xfa
 2381 0539 92050000 		.4byte	0x592
 2382 053d 12       		.uleb128 0x12
 2383 053e 14000000 		.4byte	.LASF88
 2384 0542 0B       		.byte	0xb
 2385 0543 0101     		.2byte	0x101
 2386 0545 10010000 		.4byte	0x110
 2387 0549 12       		.uleb128 0x12
 2388 054a AB000000 		.4byte	.LASF89
 2389 054e 0B       		.byte	0xb
 2390 054f 0801     		.2byte	0x108
 2391 0551 10010000 		.4byte	0x110
 2392 0555 12       		.uleb128 0x12
 2393 0556 40080000 		.4byte	.LASF90
 2394 055a 0B       		.byte	0xb
 2395 055b 0F01     		.2byte	0x10f
 2396 055d 28030000 		.4byte	0x328
 2397 0561 12       		.uleb128 0x12
 2398 0562 7F010000 		.4byte	.LASF91
 2399 0566 0B       		.byte	0xb
 2400 0567 1601     		.2byte	0x116
 2401 0569 92050000 		.4byte	0x592
ARM GAS  /tmp/ccJ4J3WB.s 			page 45


 2402 056d 12       		.uleb128 0x12
 2403 056e C6020000 		.4byte	.LASF92
 2404 0572 0B       		.byte	0xb
 2405 0573 1E01     		.2byte	0x11e
 2406 0575 BD050000 		.4byte	0x5bd
 2407 0579 12       		.uleb128 0x12
 2408 057a EB060000 		.4byte	.LASF93
 2409 057e 0B       		.byte	0xb
 2410 057f 2701     		.2byte	0x127
 2411 0581 F4050000 		.4byte	0x5f4
 2412 0585 12       		.uleb128 0x12
 2413 0586 49060000 		.4byte	.LASF94
 2414 058a 0B       		.byte	0xb
 2415 058b 2F01     		.2byte	0x12f
 2416 058d 1B010000 		.4byte	0x11b
 2417 0591 00       		.byte	0
 2418 0592 09       		.uleb128 0x9
 2419 0593 04       		.byte	0x4
 2420 0594 40020000 		.4byte	0x240
 2421 0598 05       		.uleb128 0x5
 2422 0599 CA060000 		.4byte	.LASF95
 2423 059d 0C       		.byte	0xc
 2424 059e 0E       		.byte	0xe
 2425 059f 34       		.byte	0x34
 2426 05a0 BD050000 		.4byte	0x5bd
 2427 05a4 06       		.uleb128 0x6
 2428 05a5 10020000 		.4byte	.LASF96
 2429 05a9 0E       		.byte	0xe
 2430 05aa 35       		.byte	0x35
 2431 05ab 75020000 		.4byte	0x275
 2432 05af 00       		.byte	0
 2433 05b0 06       		.uleb128 0x6
 2434 05b1 05030000 		.4byte	.LASF97
 2435 05b5 0E       		.byte	0xe
 2436 05b6 37       		.byte	0x37
 2437 05b7 26010000 		.4byte	0x126
 2438 05bb 08       		.byte	0x8
 2439 05bc 00       		.byte	0
 2440 05bd 09       		.uleb128 0x9
 2441 05be 04       		.byte	0x4
 2442 05bf 98050000 		.4byte	0x598
 2443 05c3 05       		.uleb128 0x5
 2444 05c4 FE070000 		.4byte	.LASF98
 2445 05c8 10       		.byte	0x10
 2446 05c9 0F       		.byte	0xf
 2447 05ca 39       		.byte	0x39
 2448 05cb F4050000 		.4byte	0x5f4
 2449 05cf 06       		.uleb128 0x6
 2450 05d0 44010000 		.4byte	.LASF99
 2451 05d4 0F       		.byte	0xf
 2452 05d5 3A       		.byte	0x3a
 2453 05d6 75020000 		.4byte	0x275
 2454 05da 00       		.byte	0
 2455 05db 06       		.uleb128 0x6
 2456 05dc 92080000 		.4byte	.LASF100
 2457 05e0 0F       		.byte	0xf
 2458 05e1 3C       		.byte	0x3c
ARM GAS  /tmp/ccJ4J3WB.s 			page 46


 2459 05e2 4B020000 		.4byte	0x24b
 2460 05e6 08       		.byte	0x8
 2461 05e7 06       		.uleb128 0x6
 2462 05e8 73070000 		.4byte	.LASF101
 2463 05ec 0F       		.byte	0xf
 2464 05ed 3E       		.byte	0x3e
 2465 05ee 37060000 		.4byte	0x637
 2466 05f2 0C       		.byte	0xc
 2467 05f3 00       		.byte	0
 2468 05f4 09       		.uleb128 0x9
 2469 05f5 04       		.byte	0x4
 2470 05f6 C3050000 		.4byte	0x5c3
 2471 05fa 09       		.uleb128 0x9
 2472 05fb 04       		.byte	0x4
 2473 05fc 00060000 		.4byte	0x600
 2474 0600 13       		.uleb128 0x13
 2475 0601 05060000 		.4byte	0x605
 2476 0605 04       		.uleb128 0x4
 2477 0606 01       		.byte	0x1
 2478 0607 08       		.byte	0x8
 2479 0608 28070000 		.4byte	.LASF102
 2480 060c 09       		.uleb128 0x9
 2481 060d 04       		.byte	0x4
 2482 060e 2A030000 		.4byte	0x32a
 2483 0612 14       		.uleb128 0x14
 2484 0613 31010000 		.4byte	0x131
 2485 0617 14       		.uleb128 0x14
 2486 0618 FA050000 		.4byte	0x5fa
 2487 061c 15       		.uleb128 0x15
 2488 061d 70040000 		.4byte	0x470
 2489 0621 2C060000 		.4byte	0x62c
 2490 0625 16       		.uleb128 0x16
 2491 0626 5E040000 		.4byte	0x45e
 2492 062a 1A       		.byte	0x1a
 2493 062b 00       		.byte	0
 2494 062c 03       		.uleb128 0x3
 2495 062d 68020000 		.4byte	.LASF103
 2496 0631 0F       		.byte	0xf
 2497 0632 34       		.byte	0x34
 2498 0633 C3050000 		.4byte	0x5c3
 2499 0637 09       		.uleb128 0x9
 2500 0638 04       		.byte	0x4
 2501 0639 2C060000 		.4byte	0x62c
 2502 063d 09       		.uleb128 0x9
 2503 063e 04       		.byte	0x4
 2504 063f A2000000 		.4byte	0xa2
 2505 0643 05       		.uleb128 0x5
 2506 0644 57060000 		.4byte	.LASF104
 2507 0648 10       		.byte	0x10
 2508 0649 10       		.byte	0x10
 2509 064a 40       		.byte	0x40
 2510 064b 80060000 		.4byte	0x680
 2511 064f 06       		.uleb128 0x6
 2512 0650 95040000 		.4byte	.LASF105
 2513 0654 10       		.byte	0x10
 2514 0655 41       		.byte	0x41
 2515 0656 A4060000 		.4byte	0x6a4
ARM GAS  /tmp/ccJ4J3WB.s 			page 47


 2516 065a 00       		.byte	0
 2517 065b 06       		.uleb128 0x6
 2518 065c 75050000 		.4byte	.LASF106
 2519 0660 10       		.byte	0x10
 2520 0661 41       		.byte	0x41
 2521 0662 C3060000 		.4byte	0x6c3
 2522 0666 04       		.byte	0x4
 2523 0667 0F       		.uleb128 0xf
 2524 0668 70757400 		.ascii	"put\000"
 2525 066c 10       		.byte	0x10
 2526 066d 41       		.byte	0x41
 2527 066e DD060000 		.4byte	0x6dd
 2528 0672 08       		.byte	0x8
 2529 0673 0F       		.uleb128 0xf
 2530 0674 67657400 		.ascii	"get\000"
 2531 0678 10       		.byte	0x10
 2532 0679 41       		.byte	0x41
 2533 067a F2060000 		.4byte	0x6f2
 2534 067e 0C       		.byte	0xc
 2535 067f 00       		.byte	0
 2536 0680 17       		.uleb128 0x17
 2537 0681 2C000000 		.4byte	0x2c
 2538 0685 99060000 		.4byte	0x699
 2539 0689 0C       		.uleb128 0xc
 2540 068a 28030000 		.4byte	0x328
 2541 068e 0C       		.uleb128 0xc
 2542 068f 99060000 		.4byte	0x699
 2543 0693 0C       		.uleb128 0xc
 2544 0694 2C000000 		.4byte	0x2c
 2545 0698 00       		.byte	0
 2546 0699 09       		.uleb128 0x9
 2547 069a 04       		.byte	0x4
 2548 069b 9F060000 		.4byte	0x69f
 2549 069f 13       		.uleb128 0x13
 2550 06a0 A2000000 		.4byte	0xa2
 2551 06a4 09       		.uleb128 0x9
 2552 06a5 04       		.byte	0x4
 2553 06a6 80060000 		.4byte	0x680
 2554 06aa 17       		.uleb128 0x17
 2555 06ab 2C000000 		.4byte	0x2c
 2556 06af C3060000 		.4byte	0x6c3
 2557 06b3 0C       		.uleb128 0xc
 2558 06b4 28030000 		.4byte	0x328
 2559 06b8 0C       		.uleb128 0xc
 2560 06b9 3D060000 		.4byte	0x63d
 2561 06bd 0C       		.uleb128 0xc
 2562 06be 2C000000 		.4byte	0x2c
 2563 06c2 00       		.byte	0
 2564 06c3 09       		.uleb128 0x9
 2565 06c4 04       		.byte	0x4
 2566 06c5 AA060000 		.4byte	0x6aa
 2567 06c9 17       		.uleb128 0x17
 2568 06ca 10010000 		.4byte	0x110
 2569 06ce DD060000 		.4byte	0x6dd
 2570 06d2 0C       		.uleb128 0xc
 2571 06d3 28030000 		.4byte	0x328
 2572 06d7 0C       		.uleb128 0xc
ARM GAS  /tmp/ccJ4J3WB.s 			page 48


 2573 06d8 A2000000 		.4byte	0xa2
 2574 06dc 00       		.byte	0
 2575 06dd 09       		.uleb128 0x9
 2576 06de 04       		.byte	0x4
 2577 06df C9060000 		.4byte	0x6c9
 2578 06e3 17       		.uleb128 0x17
 2579 06e4 10010000 		.4byte	0x110
 2580 06e8 F2060000 		.4byte	0x6f2
 2581 06ec 0C       		.uleb128 0xc
 2582 06ed 28030000 		.4byte	0x328
 2583 06f1 00       		.byte	0
 2584 06f2 09       		.uleb128 0x9
 2585 06f3 04       		.byte	0x4
 2586 06f4 E3060000 		.4byte	0x6e3
 2587 06f8 10       		.uleb128 0x10
 2588 06f9 04       		.byte	0x4
 2589 06fa 10       		.byte	0x10
 2590 06fb 49       		.byte	0x49
 2591 06fc 0D070000 		.4byte	0x70d
 2592 0700 0F       		.uleb128 0xf
 2593 0701 766D7400 		.ascii	"vmt\000"
 2594 0705 10       		.byte	0x10
 2595 0706 4B       		.byte	0x4b
 2596 0707 0D070000 		.4byte	0x70d
 2597 070b 00       		.byte	0
 2598 070c 00       		.byte	0
 2599 070d 09       		.uleb128 0x9
 2600 070e 04       		.byte	0x4
 2601 070f 13070000 		.4byte	0x713
 2602 0713 13       		.uleb128 0x13
 2603 0714 43060000 		.4byte	0x643
 2604 0718 03       		.uleb128 0x3
 2605 0719 76020000 		.4byte	.LASF107
 2606 071d 10       		.byte	0x10
 2607 071e 4D       		.byte	0x4d
 2608 071f F8060000 		.4byte	0x6f8
 2609 0723 04       		.uleb128 0x4
 2610 0724 01       		.byte	0x1
 2611 0725 02       		.byte	0x2
 2612 0726 C6050000 		.4byte	.LASF108
 2613 072a 15       		.uleb128 0x15
 2614 072b 28030000 		.4byte	0x328
 2615 072f 3A070000 		.4byte	0x73a
 2616 0733 16       		.uleb128 0x16
 2617 0734 5E040000 		.4byte	0x45e
 2618 0738 04       		.byte	0x4
 2619 0739 00       		.byte	0
 2620 073a 15       		.uleb128 0x15
 2621 073b 70040000 		.4byte	0x470
 2622 073f 4A070000 		.4byte	0x74a
 2623 0743 16       		.uleb128 0x16
 2624 0744 5E040000 		.4byte	0x45e
 2625 0748 28       		.byte	0x28
 2626 0749 00       		.byte	0
 2627 074a 05       		.uleb128 0x5
 2628 074b C1060000 		.4byte	.LASF109
 2629 074f 10       		.byte	0x10
ARM GAS  /tmp/ccJ4J3WB.s 			page 49


 2630 0750 11       		.byte	0x11
 2631 0751 3B       		.byte	0x3b
 2632 0752 87070000 		.4byte	0x787
 2633 0756 06       		.uleb128 0x6
 2634 0757 00030000 		.4byte	.LASF110
 2635 075b 11       		.byte	0x11
 2636 075c 3C       		.byte	0x3c
 2637 075d FA050000 		.4byte	0x5fa
 2638 0761 00       		.byte	0
 2639 0762 06       		.uleb128 0x6
 2640 0763 25050000 		.4byte	.LASF111
 2641 0767 11       		.byte	0x11
 2642 0768 3D       		.byte	0x3d
 2643 0769 88070000 		.4byte	0x788
 2644 076d 04       		.byte	0x4
 2645 076e 06       		.uleb128 0x6
 2646 076f FF000000 		.4byte	.LASF112
 2647 0773 11       		.byte	0x11
 2648 0774 3E       		.byte	0x3e
 2649 0775 88070000 		.4byte	0x788
 2650 0779 08       		.byte	0x8
 2651 077a 06       		.uleb128 0x6
 2652 077b 9F050000 		.4byte	.LASF113
 2653 077f 11       		.byte	0x11
 2654 0780 3F       		.byte	0x3f
 2655 0781 88070000 		.4byte	0x788
 2656 0785 0C       		.byte	0xc
 2657 0786 00       		.byte	0
 2658 0787 18       		.uleb128 0x18
 2659 0788 09       		.uleb128 0x9
 2660 0789 04       		.byte	0x4
 2661 078a 87070000 		.4byte	0x787
 2662 078e 19       		.uleb128 0x19
 2663 078f 6806     		.2byte	0x668
 2664 0791 11       		.byte	0x11
 2665 0792 44       		.byte	0x44
 2666 0793 D3070000 		.4byte	0x7d3
 2667 0797 0F       		.uleb128 0xf
 2668 0798 543000   		.ascii	"T0\000"
 2669 079b 11       		.byte	0x11
 2670 079c 45       		.byte	0x45
 2671 079d 3A070000 		.4byte	0x73a
 2672 07a1 00       		.byte	0
 2673 07a2 1A       		.uleb128 0x1a
 2674 07a3 543100   		.ascii	"T1\000"
 2675 07a6 11       		.byte	0x11
 2676 07a7 46       		.byte	0x46
 2677 07a8 3A070000 		.4byte	0x73a
 2678 07ac 4801     		.2byte	0x148
 2679 07ae 1A       		.uleb128 0x1a
 2680 07af 543200   		.ascii	"T2\000"
 2681 07b2 11       		.byte	0x11
 2682 07b3 47       		.byte	0x47
 2683 07b4 3A070000 		.4byte	0x73a
 2684 07b8 9002     		.2byte	0x290
 2685 07ba 1A       		.uleb128 0x1a
 2686 07bb 543300   		.ascii	"T3\000"
ARM GAS  /tmp/ccJ4J3WB.s 			page 50


 2687 07be 11       		.byte	0x11
 2688 07bf 48       		.byte	0x48
 2689 07c0 3A070000 		.4byte	0x73a
 2690 07c4 D803     		.2byte	0x3d8
 2691 07c6 1A       		.uleb128 0x1a
 2692 07c7 543400   		.ascii	"T4\000"
 2693 07ca 11       		.byte	0x11
 2694 07cb 49       		.byte	0x49
 2695 07cc 3A070000 		.4byte	0x73a
 2696 07d0 2005     		.2byte	0x520
 2697 07d2 00       		.byte	0
 2698 07d3 1B       		.uleb128 0x1b
 2699 07d4 F1070000 		.4byte	.LASF178
 2700 07d8 6806     		.2byte	0x668
 2701 07da 11       		.byte	0x11
 2702 07db 43       		.byte	0x43
 2703 07dc F6070000 		.4byte	0x7f6
 2704 07e0 1C       		.uleb128 0x1c
 2705 07e1 776100   		.ascii	"wa\000"
 2706 07e4 11       		.byte	0x11
 2707 07e5 4A       		.byte	0x4a
 2708 07e6 8E070000 		.4byte	0x78e
 2709 07ea 1D       		.uleb128 0x1d
 2710 07eb 01020000 		.4byte	.LASF114
 2711 07ef 11       		.byte	0x11
 2712 07f0 4B       		.byte	0x4b
 2713 07f1 F6070000 		.4byte	0x7f6
 2714 07f5 00       		.byte	0
 2715 07f6 15       		.uleb128 0x15
 2716 07f7 A2000000 		.4byte	0xa2
 2717 07fb 07080000 		.4byte	0x807
 2718 07ff 1E       		.uleb128 0x1e
 2719 0800 5E040000 		.4byte	0x45e
 2720 0804 6706     		.2byte	0x667
 2721 0806 00       		.byte	0
 2722 0807 1F       		.uleb128 0x1f
 2723 0808 A3070000 		.4byte	.LASF179
 2724 080c 02       		.byte	0x2
 2725 080d 2202     		.2byte	0x222
 2726 080f 03       		.byte	0x3
 2727 0810 21080000 		.4byte	0x821
 2728 0814 20       		.uleb128 0x20
 2729 0815 70020000 		.4byte	.LASF180
 2730 0819 02       		.byte	0x2
 2731 081a 2202     		.2byte	0x222
 2732 081c B8000000 		.4byte	0xb8
 2733 0820 00       		.byte	0
 2734 0821 21       		.uleb128 0x21
 2735 0822 73000000 		.4byte	.LASF115
 2736 0826 01       		.byte	0x1
 2737 0827 C801     		.2byte	0x1c8
 2738 0829 00000000 		.4byte	.LFB127
 2739 082d 10000000 		.4byte	.LFE127-.LFB127
 2740 0831 01       		.uleb128 0x1
 2741 0832 9C       		.byte	0x9c
 2742 0833 51080000 		.4byte	0x851
 2743 0837 22       		.uleb128 0x22
ARM GAS  /tmp/ccJ4J3WB.s 			page 51


 2744 0838 07080000 		.4byte	0x807
 2745 083c 06000000 		.4byte	.LBB6
 2746 0840 06000000 		.4byte	.LBE6-.LBB6
 2747 0844 01       		.byte	0x1
 2748 0845 D001     		.2byte	0x1d0
 2749 0847 23       		.uleb128 0x23
 2750 0848 14080000 		.4byte	0x814
 2751 084c 02       		.uleb128 0x2
 2752 084d 91       		.byte	0x91
 2753 084e 7C       		.sleb128 -4
 2754 084f 00       		.byte	0
 2755 0850 00       		.byte	0
 2756 0851 21       		.uleb128 0x21
 2757 0852 69010000 		.4byte	.LASF116
 2758 0856 01       		.byte	0x1
 2759 0857 E001     		.2byte	0x1e0
 2760 0859 10000000 		.4byte	.LFB128
 2761 085d 10000000 		.4byte	.LFE128-.LFB128
 2762 0861 01       		.uleb128 0x1
 2763 0862 9C       		.byte	0x9c
 2764 0863 81080000 		.4byte	0x881
 2765 0867 22       		.uleb128 0x22
 2766 0868 07080000 		.4byte	0x807
 2767 086c 16000000 		.4byte	.LBB8
 2768 0870 06000000 		.4byte	.LBE8-.LBB8
 2769 0874 01       		.byte	0x1
 2770 0875 E301     		.2byte	0x1e3
 2771 0877 23       		.uleb128 0x23
 2772 0878 14080000 		.4byte	0x814
 2773 087c 02       		.uleb128 0x2
 2774 087d 91       		.byte	0x91
 2775 087e 7C       		.sleb128 -4
 2776 087f 00       		.byte	0
 2777 0880 00       		.byte	0
 2778 0881 24       		.uleb128 0x24
 2779 0882 80060000 		.4byte	.LASF134
 2780 0886 03       		.byte	0x3
 2781 0887 5A01     		.2byte	0x15a
 2782 0889 20000000 		.4byte	.LFB156
 2783 088d 08000000 		.4byte	.LFE156-.LFB156
 2784 0891 01       		.uleb128 0x1
 2785 0892 9C       		.byte	0x9c
 2786 0893 25       		.uleb128 0x25
 2787 0894 7A080000 		.4byte	.LASF117
 2788 0898 03       		.byte	0x3
 2789 0899 6601     		.2byte	0x166
 2790 089b 30000000 		.4byte	.LFB157
 2791 089f 08000000 		.4byte	.LFE157-.LFB157
 2792 08a3 01       		.uleb128 0x1
 2793 08a4 9C       		.byte	0x9c
 2794 08a5 B3080000 		.4byte	0x8b3
 2795 08a9 26       		.uleb128 0x26
 2796 08aa 77060000 		.4byte	.LASF181
 2797 08ae C3080000 		.4byte	0x8c3
 2798 08b2 00       		.byte	0
 2799 08b3 15       		.uleb128 0x15
 2800 08b4 05060000 		.4byte	0x605
ARM GAS  /tmp/ccJ4J3WB.s 			page 52


 2801 08b8 C3080000 		.4byte	0x8c3
 2802 08bc 16       		.uleb128 0x16
 2803 08bd 5E040000 		.4byte	0x45e
 2804 08c1 0B       		.byte	0xb
 2805 08c2 00       		.byte	0
 2806 08c3 13       		.uleb128 0x13
 2807 08c4 B3080000 		.4byte	0x8b3
 2808 08c8 27       		.uleb128 0x27
 2809 08c9 9E020000 		.4byte	.LASF182
 2810 08cd 04       		.byte	0x4
 2811 08ce E4       		.byte	0xe4
 2812 08cf 31010000 		.4byte	0x131
 2813 08d3 40000000 		.4byte	.LFB164
 2814 08d7 0C000000 		.4byte	.LFE164-.LFB164
 2815 08db 01       		.uleb128 0x1
 2816 08dc 9C       		.byte	0x9c
 2817 08dd 28       		.uleb128 0x28
 2818 08de 2B050000 		.4byte	.LASF118
 2819 08e2 04       		.byte	0x4
 2820 08e3 F7       		.byte	0xf7
 2821 08e4 31010000 		.4byte	0x131
 2822 08e8 50000000 		.4byte	.LFB165
 2823 08ec 1C000000 		.4byte	.LFE165-.LFB165
 2824 08f0 01       		.uleb128 0x1
 2825 08f1 9C       		.byte	0x9c
 2826 08f2 05090000 		.4byte	0x905
 2827 08f6 29       		.uleb128 0x29
 2828 08f7 4D030000 		.4byte	.LASF129
 2829 08fb 04       		.byte	0x4
 2830 08fc F8       		.byte	0xf8
 2831 08fd 31010000 		.4byte	0x131
 2832 0901 02       		.uleb128 0x2
 2833 0902 91       		.byte	0x91
 2834 0903 74       		.sleb128 -12
 2835 0904 00       		.byte	0
 2836 0905 2A       		.uleb128 0x2a
 2837 0906 5F080000 		.4byte	.LASF119
 2838 090a 04       		.byte	0x4
 2839 090b 1C01     		.2byte	0x11c
 2840 090d 23070000 		.4byte	0x723
 2841 0911 70000000 		.4byte	.LFB167
 2842 0915 24000000 		.4byte	.LFE167-.LFB167
 2843 0919 01       		.uleb128 0x1
 2844 091a 9C       		.byte	0x9c
 2845 091b 4D090000 		.4byte	0x94d
 2846 091f 2B       		.uleb128 0x2b
 2847 0920 3D050000 		.4byte	.LASF120
 2848 0924 04       		.byte	0x4
 2849 0925 1C01     		.2byte	0x11c
 2850 0927 31010000 		.4byte	0x131
 2851 092b 02       		.uleb128 0x2
 2852 092c 91       		.byte	0x91
 2853 092d 7C       		.sleb128 -4
 2854 092e 2B       		.uleb128 0x2b
 2855 092f 8C080000 		.4byte	.LASF121
 2856 0933 04       		.byte	0x4
 2857 0934 1D01     		.2byte	0x11d
ARM GAS  /tmp/ccJ4J3WB.s 			page 53


 2858 0936 31010000 		.4byte	0x131
 2859 093a 02       		.uleb128 0x2
 2860 093b 91       		.byte	0x91
 2861 093c 78       		.sleb128 -8
 2862 093d 2C       		.uleb128 0x2c
 2863 093e 656E6400 		.ascii	"end\000"
 2864 0942 04       		.byte	0x4
 2865 0943 1E01     		.2byte	0x11e
 2866 0945 31010000 		.4byte	0x131
 2867 0949 02       		.uleb128 0x2
 2868 094a 91       		.byte	0x91
 2869 094b 74       		.sleb128 -12
 2870 094c 00       		.byte	0
 2871 094d 2D       		.uleb128 0x2d
 2872 094e 36070000 		.4byte	.LASF122
 2873 0952 04       		.byte	0x4
 2874 0953 4201     		.2byte	0x142
 2875 0955 23070000 		.4byte	0x723
 2876 0959 A0000000 		.4byte	.LFB169
 2877 095d 22000000 		.4byte	.LFE169-.LFB169
 2878 0961 01       		.uleb128 0x1
 2879 0962 9C       		.byte	0x9c
 2880 0963 86090000 		.4byte	0x986
 2881 0967 2B       		.uleb128 0x2b
 2882 0968 8C080000 		.4byte	.LASF121
 2883 096c 04       		.byte	0x4
 2884 096d 4201     		.2byte	0x142
 2885 096f 31010000 		.4byte	0x131
 2886 0973 02       		.uleb128 0x2
 2887 0974 91       		.byte	0x91
 2888 0975 74       		.sleb128 -12
 2889 0976 2C       		.uleb128 0x2c
 2890 0977 656E6400 		.ascii	"end\000"
 2891 097b 04       		.byte	0x4
 2892 097c 4201     		.2byte	0x142
 2893 097e 31010000 		.4byte	0x131
 2894 0982 02       		.uleb128 0x2
 2895 0983 91       		.byte	0x91
 2896 0984 70       		.sleb128 -16
 2897 0985 00       		.byte	0
 2898 0986 2A       		.uleb128 0x2a
 2899 0987 24000000 		.4byte	.LASF123
 2900 098b 04       		.byte	0x4
 2901 098c 7501     		.2byte	0x175
 2902 098e 23070000 		.4byte	0x723
 2903 0992 D0000000 		.4byte	.LFB171
 2904 0996 18000000 		.4byte	.LFE171-.LFB171
 2905 099a 01       		.uleb128 0x1
 2906 099b 9C       		.byte	0x9c
 2907 099c B0090000 		.4byte	0x9b0
 2908 09a0 2C       		.uleb128 0x2c
 2909 09a1 76747000 		.ascii	"vtp\000"
 2910 09a5 04       		.byte	0x4
 2911 09a6 7501     		.2byte	0x175
 2912 09a8 0C060000 		.4byte	0x60c
 2913 09ac 02       		.uleb128 0x2
 2914 09ad 91       		.byte	0x91
ARM GAS  /tmp/ccJ4J3WB.s 			page 54


 2915 09ae 7C       		.sleb128 -4
 2916 09af 00       		.byte	0
 2917 09b0 25       		.uleb128 0x25
 2918 09b1 B6060000 		.4byte	.LASF124
 2919 09b5 04       		.byte	0x4
 2920 09b6 9A01     		.2byte	0x19a
 2921 09b8 F0000000 		.4byte	.LFB173
 2922 09bc 1E000000 		.4byte	.LFE173-.LFB173
 2923 09c0 01       		.uleb128 0x1
 2924 09c1 9C       		.byte	0x9c
 2925 09c2 D6090000 		.4byte	0x9d6
 2926 09c6 2C       		.uleb128 0x2c
 2927 09c7 76747000 		.ascii	"vtp\000"
 2928 09cb 04       		.byte	0x4
 2929 09cc 9A01     		.2byte	0x19a
 2930 09ce 0C060000 		.4byte	0x60c
 2931 09d2 02       		.uleb128 0x2
 2932 09d3 91       		.byte	0x91
 2933 09d4 74       		.sleb128 -12
 2934 09d5 00       		.byte	0
 2935 09d6 25       		.uleb128 0x25
 2936 09d7 0E050000 		.4byte	.LASF125
 2937 09db 04       		.byte	0x4
 2938 09dc C801     		.2byte	0x1c8
 2939 09de 10010000 		.4byte	.LFB175
 2940 09e2 24000000 		.4byte	.LFE175-.LFB175
 2941 09e6 01       		.uleb128 0x1
 2942 09e7 9C       		.byte	0x9c
 2943 09e8 290A0000 		.4byte	0xa29
 2944 09ec 2C       		.uleb128 0x2c
 2945 09ed 76747000 		.ascii	"vtp\000"
 2946 09f1 04       		.byte	0x4
 2947 09f2 C801     		.2byte	0x1c8
 2948 09f4 0C060000 		.4byte	0x60c
 2949 09f8 02       		.uleb128 0x2
 2950 09f9 91       		.byte	0x91
 2951 09fa 74       		.sleb128 -12
 2952 09fb 2B       		.uleb128 0x2b
 2953 09fc FC050000 		.4byte	.LASF126
 2954 0a00 04       		.byte	0x4
 2955 0a01 C801     		.2byte	0x1c8
 2956 0a03 31010000 		.4byte	0x131
 2957 0a07 02       		.uleb128 0x2
 2958 0a08 91       		.byte	0x91
 2959 0a09 70       		.sleb128 -16
 2960 0a0a 2B       		.uleb128 0x2b
 2961 0a0b EA070000 		.4byte	.LASF127
 2962 0a0f 04       		.byte	0x4
 2963 0a10 C901     		.2byte	0x1c9
 2964 0a12 0C030000 		.4byte	0x30c
 2965 0a16 02       		.uleb128 0x2
 2966 0a17 91       		.byte	0x91
 2967 0a18 6C       		.sleb128 -20
 2968 0a19 2C       		.uleb128 0x2c
 2969 0a1a 70617200 		.ascii	"par\000"
 2970 0a1e 04       		.byte	0x4
 2971 0a1f C901     		.2byte	0x1c9
ARM GAS  /tmp/ccJ4J3WB.s 			page 55


 2972 0a21 28030000 		.4byte	0x328
 2973 0a25 02       		.uleb128 0x2
 2974 0a26 91       		.byte	0x91
 2975 0a27 68       		.sleb128 -24
 2976 0a28 00       		.byte	0
 2977 0a29 25       		.uleb128 0x25
 2978 0a2a 1D050000 		.4byte	.LASF128
 2979 0a2e 04       		.byte	0x4
 2980 0a2f E501     		.2byte	0x1e5
 2981 0a31 40010000 		.4byte	.LFB176
 2982 0a35 26000000 		.4byte	.LFE176-.LFB176
 2983 0a39 01       		.uleb128 0x1
 2984 0a3a 9C       		.byte	0x9c
 2985 0a3b 7C0A0000 		.4byte	0xa7c
 2986 0a3f 2C       		.uleb128 0x2c
 2987 0a40 76747000 		.ascii	"vtp\000"
 2988 0a44 04       		.byte	0x4
 2989 0a45 E501     		.2byte	0x1e5
 2990 0a47 0C060000 		.4byte	0x60c
 2991 0a4b 02       		.uleb128 0x2
 2992 0a4c 91       		.byte	0x91
 2993 0a4d 74       		.sleb128 -12
 2994 0a4e 2B       		.uleb128 0x2b
 2995 0a4f FC050000 		.4byte	.LASF126
 2996 0a53 04       		.byte	0x4
 2997 0a54 E501     		.2byte	0x1e5
 2998 0a56 31010000 		.4byte	0x131
 2999 0a5a 02       		.uleb128 0x2
 3000 0a5b 91       		.byte	0x91
 3001 0a5c 70       		.sleb128 -16
 3002 0a5d 2B       		.uleb128 0x2b
 3003 0a5e EA070000 		.4byte	.LASF127
 3004 0a62 04       		.byte	0x4
 3005 0a63 E601     		.2byte	0x1e6
 3006 0a65 0C030000 		.4byte	0x30c
 3007 0a69 02       		.uleb128 0x2
 3008 0a6a 91       		.byte	0x91
 3009 0a6b 6C       		.sleb128 -20
 3010 0a6c 2C       		.uleb128 0x2c
 3011 0a6d 70617200 		.ascii	"par\000"
 3012 0a71 04       		.byte	0x4
 3013 0a72 E601     		.2byte	0x1e6
 3014 0a74 28030000 		.4byte	0x328
 3015 0a78 02       		.uleb128 0x2
 3016 0a79 91       		.byte	0x91
 3017 0a7a 68       		.sleb128 -24
 3018 0a7b 00       		.byte	0
 3019 0a7c 2E       		.uleb128 0x2e
 3020 0a7d FA060000 		.4byte	.LASF130
 3021 0a81 05       		.byte	0x5
 3022 0a82 5E       		.byte	0x5e
 3023 0a83 70010000 		.4byte	.LFB267
 3024 0a87 90000000 		.4byte	.LFE267-.LFB267
 3025 0a8b 01       		.uleb128 0x1
 3026 0a8c 9C       		.byte	0x9c
 3027 0a8d B80A0000 		.4byte	0xab8
 3028 0a91 2F       		.uleb128 0x2f
ARM GAS  /tmp/ccJ4J3WB.s 			page 56


 3029 0a92 6E00     		.ascii	"n\000"
 3030 0a94 05       		.byte	0x5
 3031 0a95 5E       		.byte	0x5e
 3032 0a96 B8000000 		.4byte	0xb8
 3033 0a9a 02       		.uleb128 0x2
 3034 0a9b 91       		.byte	0x91
 3035 0a9c 5C       		.sleb128 -36
 3036 0a9d 30       		.uleb128 0x30
 3037 0a9e 62756600 		.ascii	"buf\000"
 3038 0aa2 05       		.byte	0x5
 3039 0aa3 5F       		.byte	0x5f
 3040 0aa4 B80A0000 		.4byte	0xab8
 3041 0aa8 02       		.uleb128 0x2
 3042 0aa9 91       		.byte	0x91
 3043 0aaa 64       		.sleb128 -28
 3044 0aab 30       		.uleb128 0x30
 3045 0aac 7000     		.ascii	"p\000"
 3046 0aae 05       		.byte	0x5
 3047 0aaf 5F       		.byte	0x5f
 3048 0ab0 C80A0000 		.4byte	0xac8
 3049 0ab4 02       		.uleb128 0x2
 3050 0ab5 91       		.byte	0x91
 3051 0ab6 74       		.sleb128 -12
 3052 0ab7 00       		.byte	0
 3053 0ab8 15       		.uleb128 0x15
 3054 0ab9 05060000 		.4byte	0x605
 3055 0abd C80A0000 		.4byte	0xac8
 3056 0ac1 16       		.uleb128 0x16
 3057 0ac2 5E040000 		.4byte	0x45e
 3058 0ac6 0F       		.byte	0xf
 3059 0ac7 00       		.byte	0
 3060 0ac8 09       		.uleb128 0x9
 3061 0ac9 04       		.byte	0x4
 3062 0aca 05060000 		.4byte	0x605
 3063 0ace 2E       		.uleb128 0x2e
 3064 0acf 7B040000 		.4byte	.LASF131
 3065 0ad3 05       		.byte	0x5
 3066 0ad4 71       		.byte	0x71
 3067 0ad5 00020000 		.4byte	.LFB268
 3068 0ad9 34000000 		.4byte	.LFE268-.LFB268
 3069 0add 01       		.uleb128 0x1
 3070 0ade 9C       		.byte	0x9c
 3071 0adf F20A0000 		.4byte	0xaf2
 3072 0ae3 31       		.uleb128 0x31
 3073 0ae4 2A040000 		.4byte	.LASF132
 3074 0ae8 05       		.byte	0x5
 3075 0ae9 71       		.byte	0x71
 3076 0aea FA050000 		.4byte	0x5fa
 3077 0aee 02       		.uleb128 0x2
 3078 0aef 91       		.byte	0x91
 3079 0af0 74       		.sleb128 -12
 3080 0af1 00       		.byte	0
 3081 0af2 2E       		.uleb128 0x2e
 3082 0af3 5C010000 		.4byte	.LASF133
 3083 0af7 05       		.byte	0x5
 3084 0af8 7C       		.byte	0x7c
 3085 0af9 40020000 		.4byte	.LFB269
ARM GAS  /tmp/ccJ4J3WB.s 			page 57


 3086 0afd 30000000 		.4byte	.LFE269-.LFB269
 3087 0b01 01       		.uleb128 0x1
 3088 0b02 9C       		.byte	0x9c
 3089 0b03 160B0000 		.4byte	0xb16
 3090 0b07 31       		.uleb128 0x31
 3091 0b08 2A040000 		.4byte	.LASF132
 3092 0b0c 05       		.byte	0x5
 3093 0b0d 7C       		.byte	0x7c
 3094 0b0e FA050000 		.4byte	0x5fa
 3095 0b12 02       		.uleb128 0x2
 3096 0b13 91       		.byte	0x91
 3097 0b14 74       		.sleb128 -12
 3098 0b15 00       		.byte	0
 3099 0b16 32       		.uleb128 0x32
 3100 0b17 33080000 		.4byte	.LASF135
 3101 0b1b 05       		.byte	0x5
 3102 0b1c 85       		.byte	0x85
 3103 0b1d 70020000 		.4byte	.LFB270
 3104 0b21 10000000 		.4byte	.LFE270-.LFB270
 3105 0b25 01       		.uleb128 0x1
 3106 0b26 9C       		.byte	0x9c
 3107 0b27 33       		.uleb128 0x33
 3108 0b28 8B020000 		.4byte	.LASF136
 3109 0b2c 05       		.byte	0x5
 3110 0b2d 8A       		.byte	0x8a
 3111 0b2e 80020000 		.4byte	.LFB271
 3112 0b32 40000000 		.4byte	.LFE271-.LFB271
 3113 0b36 01       		.uleb128 0x1
 3114 0b37 9C       		.byte	0x9c
 3115 0b38 4A0B0000 		.4byte	0xb4a
 3116 0b3c 30       		.uleb128 0x30
 3117 0b3d 637000   		.ascii	"cp\000"
 3118 0b40 05       		.byte	0x5
 3119 0b41 8B       		.byte	0x8b
 3120 0b42 C80A0000 		.4byte	0xac8
 3121 0b46 02       		.uleb128 0x2
 3122 0b47 91       		.byte	0x91
 3123 0b48 74       		.sleb128 -12
 3124 0b49 00       		.byte	0
 3125 0b4a 2E       		.uleb128 0x2e
 3126 0b4b 4C010000 		.4byte	.LASF137
 3127 0b4f 05       		.byte	0x5
 3128 0b50 96       		.byte	0x96
 3129 0b51 C0020000 		.4byte	.LFB272
 3130 0b55 2C000000 		.4byte	.LFE272-.LFB272
 3131 0b59 01       		.uleb128 0x1
 3132 0b5a 9C       		.byte	0x9c
 3133 0b5b 6E0B0000 		.4byte	0xb6e
 3134 0b5f 31       		.uleb128 0x31
 3135 0b60 7A050000 		.4byte	.LASF138
 3136 0b64 05       		.byte	0x5
 3137 0b65 96       		.byte	0x96
 3138 0b66 05060000 		.4byte	0x605
 3139 0b6a 02       		.uleb128 0x2
 3140 0b6b 91       		.byte	0x91
 3141 0b6c 77       		.sleb128 -9
 3142 0b6d 00       		.byte	0
ARM GAS  /tmp/ccJ4J3WB.s 			page 58


 3143 0b6e 34       		.uleb128 0x34
 3144 0b6f 3A030000 		.4byte	.LASF140
 3145 0b73 05       		.byte	0x5
 3146 0b74 A0       		.byte	0xa0
 3147 0b75 23070000 		.4byte	0x723
 3148 0b79 F0020000 		.4byte	.LFB273
 3149 0b7d 2C000000 		.4byte	.LFE273-.LFB273
 3150 0b81 01       		.uleb128 0x1
 3151 0b82 9C       		.byte	0x9c
 3152 0b83 960B0000 		.4byte	0xb96
 3153 0b87 31       		.uleb128 0x31
 3154 0b88 CD020000 		.4byte	.LASF139
 3155 0b8c 05       		.byte	0x5
 3156 0b8d A0       		.byte	0xa0
 3157 0b8e 37000000 		.4byte	0x37
 3158 0b92 02       		.uleb128 0x2
 3159 0b93 91       		.byte	0x91
 3160 0b94 7C       		.sleb128 -4
 3161 0b95 00       		.byte	0
 3162 0b96 35       		.uleb128 0x35
 3163 0b97 47080000 		.4byte	.LASF141
 3164 0b9b 05       		.byte	0x5
 3165 0b9c A8       		.byte	0xa8
 3166 0b9d 23070000 		.4byte	0x723
 3167 0ba1 20030000 		.4byte	.LFB274
 3168 0ba5 2E000000 		.4byte	.LFE274-.LFB274
 3169 0ba9 01       		.uleb128 0x1
 3170 0baa 9C       		.byte	0x9c
 3171 0bab CC0B0000 		.4byte	0xbcc
 3172 0baf 31       		.uleb128 0x31
 3173 0bb0 CD020000 		.4byte	.LASF139
 3174 0bb4 05       		.byte	0x5
 3175 0bb5 A8       		.byte	0xa8
 3176 0bb6 37000000 		.4byte	0x37
 3177 0bba 02       		.uleb128 0x2
 3178 0bbb 91       		.byte	0x91
 3179 0bbc 74       		.sleb128 -12
 3180 0bbd 31       		.uleb128 0x31
 3181 0bbe A1000000 		.4byte	.LASF142
 3182 0bc2 05       		.byte	0x5
 3183 0bc3 A8       		.byte	0xa8
 3184 0bc4 23070000 		.4byte	0x723
 3185 0bc8 02       		.uleb128 0x2
 3186 0bc9 91       		.byte	0x91
 3187 0bca 73       		.sleb128 -13
 3188 0bcb 00       		.byte	0
 3189 0bcc 35       		.uleb128 0x35
 3190 0bcd 52020000 		.4byte	.LASF143
 3191 0bd1 05       		.byte	0x5
 3192 0bd2 AF       		.byte	0xaf
 3193 0bd3 23070000 		.4byte	0x723
 3194 0bd7 50030000 		.4byte	.LFB275
 3195 0bdb 60000000 		.4byte	.LFE275-.LFB275
 3196 0bdf 01       		.uleb128 0x1
 3197 0be0 9C       		.byte	0x9c
 3198 0be1 0F0C0000 		.4byte	0xc0f
 3199 0be5 31       		.uleb128 0x31
ARM GAS  /tmp/ccJ4J3WB.s 			page 59


 3200 0be6 CD020000 		.4byte	.LASF139
 3201 0bea 05       		.byte	0x5
 3202 0beb AF       		.byte	0xaf
 3203 0bec 37000000 		.4byte	0x37
 3204 0bf0 02       		.uleb128 0x2
 3205 0bf1 91       		.byte	0x91
 3206 0bf2 6C       		.sleb128 -20
 3207 0bf3 31       		.uleb128 0x31
 3208 0bf4 DE020000 		.4byte	.LASF144
 3209 0bf8 05       		.byte	0x5
 3210 0bf9 AF       		.byte	0xaf
 3211 0bfa C80A0000 		.4byte	0xac8
 3212 0bfe 02       		.uleb128 0x2
 3213 0bff 91       		.byte	0x91
 3214 0c00 68       		.sleb128 -24
 3215 0c01 30       		.uleb128 0x30
 3216 0c02 637000   		.ascii	"cp\000"
 3217 0c05 05       		.byte	0x5
 3218 0c06 B0       		.byte	0xb0
 3219 0c07 C80A0000 		.4byte	0xac8
 3220 0c0b 02       		.uleb128 0x2
 3221 0c0c 91       		.byte	0x91
 3222 0c0d 74       		.sleb128 -12
 3223 0c0e 00       		.byte	0
 3224 0c0f 35       		.uleb128 0x35
 3225 0c10 C1010000 		.4byte	.LASF145
 3226 0c14 05       		.byte	0x5
 3227 0c15 BB       		.byte	0xbb
 3228 0c16 23070000 		.4byte	0x723
 3229 0c1a B0030000 		.4byte	.LFB276
 3230 0c1e 26000000 		.4byte	.LFE276-.LFB276
 3231 0c22 01       		.uleb128 0x1
 3232 0c23 9C       		.byte	0x9c
 3233 0c24 530C0000 		.4byte	0xc53
 3234 0c28 31       		.uleb128 0x31
 3235 0c29 CD020000 		.4byte	.LASF139
 3236 0c2d 05       		.byte	0x5
 3237 0c2e BB       		.byte	0xbb
 3238 0c2f 37000000 		.4byte	0x37
 3239 0c33 02       		.uleb128 0x2
 3240 0c34 91       		.byte	0x91
 3241 0c35 74       		.sleb128 -12
 3242 0c36 31       		.uleb128 0x31
 3243 0c37 8C080000 		.4byte	.LASF121
 3244 0c3b 05       		.byte	0x5
 3245 0c3c BB       		.byte	0xbb
 3246 0c3d 31010000 		.4byte	0x131
 3247 0c41 02       		.uleb128 0x2
 3248 0c42 91       		.byte	0x91
 3249 0c43 70       		.sleb128 -16
 3250 0c44 2F       		.uleb128 0x2f
 3251 0c45 656E6400 		.ascii	"end\000"
 3252 0c49 05       		.byte	0x5
 3253 0c4a BB       		.byte	0xbb
 3254 0c4b 31010000 		.4byte	0x131
 3255 0c4f 02       		.uleb128 0x2
 3256 0c50 91       		.byte	0x91
ARM GAS  /tmp/ccJ4J3WB.s 			page 60


 3257 0c51 6C       		.sleb128 -20
 3258 0c52 00       		.byte	0
 3259 0c53 2E       		.uleb128 0x2e
 3260 0c54 DA010000 		.4byte	.LASF146
 3261 0c58 05       		.byte	0x5
 3262 0c59 C7       		.byte	0xc7
 3263 0c5a E0030000 		.4byte	.LFB277
 3264 0c5e 3C000000 		.4byte	.LFE277-.LFB277
 3265 0c62 01       		.uleb128 0x1
 3266 0c63 9C       		.byte	0x9c
 3267 0c64 750C0000 		.4byte	0xc75
 3268 0c68 30       		.uleb128 0x30
 3269 0c69 6900     		.ascii	"i\000"
 3270 0c6b 05       		.byte	0x5
 3271 0c6c C8       		.byte	0xc8
 3272 0c6d 25000000 		.4byte	0x25
 3273 0c71 02       		.uleb128 0x2
 3274 0c72 91       		.byte	0x91
 3275 0c73 74       		.sleb128 -12
 3276 0c74 00       		.byte	0
 3277 0c75 2E       		.uleb128 0x2e
 3278 0c76 61070000 		.4byte	.LASF147
 3279 0c7a 05       		.byte	0x5
 3280 0c7b D2       		.byte	0xd2
 3281 0c7c 20040000 		.4byte	.LFB278
 3282 0c80 44000000 		.4byte	.LFE278-.LFB278
 3283 0c84 01       		.uleb128 0x1
 3284 0c85 9C       		.byte	0x9c
 3285 0c86 970C0000 		.4byte	0xc97
 3286 0c8a 30       		.uleb128 0x30
 3287 0c8b 6900     		.ascii	"i\000"
 3288 0c8d 05       		.byte	0x5
 3289 0c8e D3       		.byte	0xd3
 3290 0c8f 25000000 		.4byte	0x25
 3291 0c93 02       		.uleb128 0x2
 3292 0c94 91       		.byte	0x91
 3293 0c95 74       		.sleb128 -12
 3294 0c96 00       		.byte	0
 3295 0c97 36       		.uleb128 0x36
 3296 0c98 ED050000 		.4byte	.LASF183
 3297 0c9c 05       		.byte	0x5
 3298 0c9d F8       		.byte	0xf8
 3299 0c9e 31010000 		.4byte	0x131
 3300 0ca2 70040000 		.4byte	.LFB279
 3301 0ca6 12000000 		.4byte	.LFE279-.LFB279
 3302 0caa 01       		.uleb128 0x1
 3303 0cab 9C       		.byte	0x9c
 3304 0cac 37       		.uleb128 0x37
 3305 0cad 746D7200 		.ascii	"tmr\000"
 3306 0cb1 05       		.byte	0x5
 3307 0cb2 0801     		.2byte	0x108
 3308 0cb4 90040000 		.4byte	.LFB280
 3309 0cb8 14000000 		.4byte	.LFE280-.LFB280
 3310 0cbc 01       		.uleb128 0x1
 3311 0cbd 9C       		.byte	0x9c
 3312 0cbe D00C0000 		.4byte	0xcd0
 3313 0cc2 2C       		.uleb128 0x2c
ARM GAS  /tmp/ccJ4J3WB.s 			page 61


 3314 0cc3 7000     		.ascii	"p\000"
 3315 0cc5 05       		.byte	0x5
 3316 0cc6 0801     		.2byte	0x108
 3317 0cc8 28030000 		.4byte	0x328
 3318 0ccc 02       		.uleb128 0x2
 3319 0ccd 91       		.byte	0x91
 3320 0cce 7C       		.sleb128 -4
 3321 0ccf 00       		.byte	0
 3322 0cd0 38       		.uleb128 0x38
 3323 0cd1 18020000 		.4byte	.LASF148
 3324 0cd5 05       		.byte	0x5
 3325 0cd6 1301     		.2byte	0x113
 3326 0cd8 B0040000 		.4byte	.LFB281
 3327 0cdc 48000000 		.4byte	.LFE281-.LFB281
 3328 0ce0 01       		.uleb128 0x1
 3329 0ce1 9C       		.byte	0x9c
 3330 0ce2 040D0000 		.4byte	0xd04
 3331 0ce6 2C       		.uleb128 0x2c
 3332 0ce7 6D7300   		.ascii	"ms\000"
 3333 0cea 05       		.byte	0x5
 3334 0ceb 1301     		.2byte	0x113
 3335 0ced 37000000 		.4byte	0x37
 3336 0cf1 02       		.uleb128 0x2
 3337 0cf2 91       		.byte	0x91
 3338 0cf3 6C       		.sleb128 -20
 3339 0cf4 39       		.uleb128 0x39
 3340 0cf5 49020000 		.4byte	.LASF149
 3341 0cf9 05       		.byte	0x5
 3342 0cfa 1501     		.2byte	0x115
 3343 0cfc 31010000 		.4byte	0x131
 3344 0d00 02       		.uleb128 0x2
 3345 0d01 91       		.byte	0x91
 3346 0d02 74       		.sleb128 -12
 3347 0d03 00       		.byte	0
 3348 0d04 25       		.uleb128 0x25
 3349 0d05 0E080000 		.4byte	.LASF150
 3350 0d09 05       		.byte	0x5
 3351 0d0a 1D01     		.2byte	0x11d
 3352 0d0c 00050000 		.4byte	.LFB282
 3353 0d10 60000000 		.4byte	.LFE282-.LFB282
 3354 0d14 01       		.uleb128 0x1
 3355 0d15 9C       		.byte	0x9c
 3356 0d16 370D0000 		.4byte	0xd37
 3357 0d1a 2C       		.uleb128 0x2c
 3358 0d1b 74637000 		.ascii	"tcp\000"
 3359 0d1f 05       		.byte	0x5
 3360 0d20 1D01     		.2byte	0x11d
 3361 0d22 370D0000 		.4byte	0xd37
 3362 0d26 02       		.uleb128 0x2
 3363 0d27 91       		.byte	0x91
 3364 0d28 6C       		.sleb128 -20
 3365 0d29 3A       		.uleb128 0x3a
 3366 0d2a 6900     		.ascii	"i\000"
 3367 0d2c 05       		.byte	0x5
 3368 0d2d 1E01     		.2byte	0x11e
 3369 0d2f 25000000 		.4byte	0x25
 3370 0d33 02       		.uleb128 0x2
ARM GAS  /tmp/ccJ4J3WB.s 			page 62


 3371 0d34 91       		.byte	0x91
 3372 0d35 74       		.sleb128 -12
 3373 0d36 00       		.byte	0
 3374 0d37 09       		.uleb128 0x9
 3375 0d38 04       		.byte	0x4
 3376 0d39 3D0D0000 		.4byte	0xd3d
 3377 0d3d 13       		.uleb128 0x13
 3378 0d3e 4A070000 		.4byte	0x74a
 3379 0d42 25       		.uleb128 0x25
 3380 0d43 03050000 		.4byte	.LASF151
 3381 0d47 05       		.byte	0x5
 3382 0d48 2F01     		.2byte	0x12f
 3383 0d4a 60050000 		.4byte	.LFB283
 3384 0d4e 4C000000 		.4byte	.LFE283-.LFB283
 3385 0d52 01       		.uleb128 0x1
 3386 0d53 9C       		.byte	0x9c
 3387 0d54 660D0000 		.4byte	0xd66
 3388 0d58 3A       		.uleb128 0x3a
 3389 0d59 6900     		.ascii	"i\000"
 3390 0d5b 05       		.byte	0x5
 3391 0d5c 3001     		.2byte	0x130
 3392 0d5e 37000000 		.4byte	0x37
 3393 0d62 02       		.uleb128 0x2
 3394 0d63 91       		.byte	0x91
 3395 0d64 74       		.sleb128 -12
 3396 0d65 00       		.byte	0
 3397 0d66 38       		.uleb128 0x38
 3398 0d67 E2050000 		.4byte	.LASF152
 3399 0d6b 05       		.byte	0x5
 3400 0d6c 3C01     		.2byte	0x13c
 3401 0d6e B0050000 		.4byte	.LFB284
 3402 0d72 10020000 		.4byte	.LFE284-.LFB284
 3403 0d76 01       		.uleb128 0x1
 3404 0d77 9C       		.byte	0x9c
 3405 0d78 A40D0000 		.4byte	0xda4
 3406 0d7c 2C       		.uleb128 0x2c
 3407 0d7d 7000     		.ascii	"p\000"
 3408 0d7f 05       		.byte	0x5
 3409 0d80 3C01     		.2byte	0x13c
 3410 0d82 28030000 		.4byte	0x328
 3411 0d86 02       		.uleb128 0x2
 3412 0d87 91       		.byte	0x91
 3413 0d88 6C       		.sleb128 -20
 3414 0d89 3A       		.uleb128 0x3a
 3415 0d8a 6900     		.ascii	"i\000"
 3416 0d8c 05       		.byte	0x5
 3417 0d8d 3D01     		.2byte	0x13d
 3418 0d8f 25000000 		.4byte	0x25
 3419 0d93 02       		.uleb128 0x2
 3420 0d94 91       		.byte	0x91
 3421 0d95 74       		.sleb128 -12
 3422 0d96 3A       		.uleb128 0x3a
 3423 0d97 6A00     		.ascii	"j\000"
 3424 0d99 05       		.byte	0x5
 3425 0d9a 3D01     		.2byte	0x13d
 3426 0d9c 25000000 		.4byte	0x25
 3427 0da0 02       		.uleb128 0x2
ARM GAS  /tmp/ccJ4J3WB.s 			page 63


 3428 0da1 91       		.byte	0x91
 3429 0da2 70       		.sleb128 -16
 3430 0da3 00       		.byte	0
 3431 0da4 15       		.uleb128 0x15
 3432 0da5 B40D0000 		.4byte	0xdb4
 3433 0da9 B40D0000 		.4byte	0xdb4
 3434 0dad 16       		.uleb128 0x16
 3435 0dae 5E040000 		.4byte	0x45e
 3436 0db2 0C       		.byte	0xc
 3437 0db3 00       		.byte	0
 3438 0db4 09       		.uleb128 0x9
 3439 0db5 04       		.byte	0x4
 3440 0db6 BA0D0000 		.4byte	0xdba
 3441 0dba 13       		.uleb128 0x13
 3442 0dbb 370D0000 		.4byte	0xd37
 3443 0dbf 29       		.uleb128 0x29
 3444 0dc0 2D070000 		.4byte	.LASF153
 3445 0dc4 05       		.byte	0x5
 3446 0dc5 2D       		.byte	0x2d
 3447 0dc6 A40D0000 		.4byte	0xda4
 3448 0dca 05       		.uleb128 0x5
 3449 0dcb 03       		.byte	0x3
 3450 0dcc 00000000 		.4byte	patterns
 3451 0dd0 29       		.uleb128 0x29
 3452 0dd1 5F050000 		.4byte	.LASF154
 3453 0dd5 05       		.byte	0x5
 3454 0dd6 3E       		.byte	0x3e
 3455 0dd7 23070000 		.4byte	0x723
 3456 0ddb 05       		.uleb128 0x5
 3457 0ddc 03       		.byte	0x3
 3458 0ddd 00000000 		.4byte	local_fail
 3459 0de1 29       		.uleb128 0x29
 3460 0de2 29080000 		.4byte	.LASF155
 3461 0de6 05       		.byte	0x5
 3462 0de7 3F       		.byte	0x3f
 3463 0de8 37000000 		.4byte	0x37
 3464 0dec 05       		.uleb128 0x5
 3465 0ded 03       		.byte	0x3
 3466 0dee 04000000 		.4byte	failpoint
 3467 0df2 29       		.uleb128 0x29
 3468 0df3 14010000 		.4byte	.LASF156
 3469 0df7 05       		.byte	0x5
 3470 0df8 40       		.byte	0x40
 3471 0df9 B80A0000 		.4byte	0xab8
 3472 0dfd 05       		.uleb128 0x5
 3473 0dfe 03       		.byte	0x3
 3474 0dff 08000000 		.4byte	tokens_buffer
 3475 0e03 29       		.uleb128 0x29
 3476 0e04 FC010000 		.4byte	.LASF157
 3477 0e08 05       		.byte	0x5
 3478 0e09 41       		.byte	0x41
 3479 0e0a C80A0000 		.4byte	0xac8
 3480 0e0e 05       		.uleb128 0x5
 3481 0e0f 03       		.byte	0x3
 3482 0e10 18000000 		.4byte	tokp
 3483 0e14 30       		.uleb128 0x30
 3484 0e15 63687000 		.ascii	"chp\000"
ARM GAS  /tmp/ccJ4J3WB.s 			page 64


 3485 0e19 05       		.byte	0x5
 3486 0e1a 57       		.byte	0x57
 3487 0e1b 250E0000 		.4byte	0xe25
 3488 0e1f 05       		.uleb128 0x5
 3489 0e20 03       		.byte	0x3
 3490 0e21 1C000000 		.4byte	chp
 3491 0e25 09       		.uleb128 0x9
 3492 0e26 04       		.byte	0x4
 3493 0e27 18070000 		.4byte	0x718
 3494 0e2b 3A       		.uleb128 0x3a
 3495 0e2c 767400   		.ascii	"vt\000"
 3496 0e2f 05       		.byte	0x5
 3497 0e30 0701     		.2byte	0x107
 3498 0e32 2A030000 		.4byte	0x32a
 3499 0e36 05       		.uleb128 0x5
 3500 0e37 03       		.byte	0x3
 3501 0e38 20000000 		.4byte	vt
 3502 0e3c 3B       		.uleb128 0x3b
 3503 0e3d DA000000 		.4byte	.LASF158
 3504 0e41 12       		.byte	0x12
 3505 0e42 FA06     		.2byte	0x6fa
 3506 0e44 480E0000 		.4byte	0xe48
 3507 0e48 14       		.uleb128 0x14
 3508 0e49 AD000000 		.4byte	0xad
 3509 0e4d 3C       		.uleb128 0x3c
 3510 0e4e 636800   		.ascii	"ch\000"
 3511 0e51 0B       		.byte	0xb
 3512 0e52 0902     		.2byte	0x209
 3513 0e54 F7030000 		.4byte	0x3f7
 3514 0e58 3D       		.uleb128 0x3d
 3515 0e59 BB070000 		.4byte	.LASF159
 3516 0e5d 05       		.byte	0x5
 3517 0e5e 3D       		.byte	0x3d
 3518 0e5f 23070000 		.4byte	0x723
 3519 0e63 05       		.uleb128 0x5
 3520 0e64 03       		.byte	0x3
 3521 0e65 00000000 		.4byte	test_global_fail
 3522 0e69 15       		.uleb128 0x15
 3523 0e6a 4B020000 		.4byte	0x24b
 3524 0e6e 790E0000 		.4byte	0xe79
 3525 0e72 16       		.uleb128 0x16
 3526 0e73 5E040000 		.4byte	0x45e
 3527 0e77 04       		.byte	0x4
 3528 0e78 00       		.byte	0
 3529 0e79 3D       		.uleb128 0x3d
 3530 0e7a 29060000 		.4byte	.LASF160
 3531 0e7e 05       		.byte	0x5
 3532 0e7f 4C       		.byte	0x4c
 3533 0e80 690E0000 		.4byte	0xe69
 3534 0e84 05       		.uleb128 0x5
 3535 0e85 03       		.byte	0x3
 3536 0e86 00000000 		.4byte	threads
 3537 0e8a 3D       		.uleb128 0x3d
 3538 0e8b BF000000 		.4byte	.LASF161
 3539 0e8f 05       		.byte	0x5
 3540 0e90 47       		.byte	0x47
 3541 0e91 D3070000 		.4byte	0x7d3
ARM GAS  /tmp/ccJ4J3WB.s 			page 65


 3542 0e95 05       		.uleb128 0x5
 3543 0e96 03       		.byte	0x3
 3544 0e97 00000000 		.4byte	test
 3545 0e9b 3E       		.uleb128 0x3e
 3546 0e9c 776100   		.ascii	"wa\000"
 3547 0e9f 05       		.byte	0x5
 3548 0ea0 51       		.byte	0x51
 3549 0ea1 AB0E0000 		.4byte	0xeab
 3550 0ea5 05       		.uleb128 0x5
 3551 0ea6 03       		.byte	0x3
 3552 0ea7 00000000 		.4byte	wa
 3553 0eab 13       		.uleb128 0x13
 3554 0eac 2A070000 		.4byte	0x72a
 3555 0eb0 3F       		.uleb128 0x3f
 3556 0eb1 39060000 		.4byte	.LASF162
 3557 0eb5 05       		.byte	0x5
 3558 0eb6 0501     		.2byte	0x105
 3559 0eb8 23070000 		.4byte	0x723
 3560 0ebc 05       		.uleb128 0x5
 3561 0ebd 03       		.byte	0x3
 3562 0ebe 00000000 		.4byte	test_timer_done
 3563 0ec2 15       		.uleb128 0x15
 3564 0ec3 370D0000 		.4byte	0xd37
 3565 0ec7 CD0E0000 		.4byte	0xecd
 3566 0ecb 40       		.uleb128 0x40
 3567 0ecc 00       		.byte	0
 3568 0ecd 41       		.uleb128 0x41
 3569 0ece F1010000 		.4byte	.LASF163
 3570 0ed2 13       		.byte	0x13
 3571 0ed3 14       		.byte	0x14
 3572 0ed4 D80E0000 		.4byte	0xed8
 3573 0ed8 13       		.uleb128 0x13
 3574 0ed9 C20E0000 		.4byte	0xec2
 3575 0edd 41       		.uleb128 0x41
 3576 0ede 4D070000 		.4byte	.LASF164
 3577 0ee2 14       		.byte	0x14
 3578 0ee3 14       		.byte	0x14
 3579 0ee4 E80E0000 		.4byte	0xee8
 3580 0ee8 13       		.uleb128 0x13
 3581 0ee9 C20E0000 		.4byte	0xec2
 3582 0eed 41       		.uleb128 0x41
 3583 0eee 54050000 		.4byte	.LASF165
 3584 0ef2 15       		.byte	0x15
 3585 0ef3 14       		.byte	0x14
 3586 0ef4 F80E0000 		.4byte	0xef8
 3587 0ef8 13       		.uleb128 0x13
 3588 0ef9 C20E0000 		.4byte	0xec2
 3589 0efd 41       		.uleb128 0x41
 3590 0efe 02060000 		.4byte	.LASF166
 3591 0f02 16       		.byte	0x16
 3592 0f03 14       		.byte	0x14
 3593 0f04 080F0000 		.4byte	0xf08
 3594 0f08 13       		.uleb128 0x13
 3595 0f09 C20E0000 		.4byte	0xec2
 3596 0f0d 41       		.uleb128 0x41
 3597 0f0e AC040000 		.4byte	.LASF167
 3598 0f12 17       		.byte	0x17
ARM GAS  /tmp/ccJ4J3WB.s 			page 66


 3599 0f13 14       		.byte	0x14
 3600 0f14 180F0000 		.4byte	0xf18
 3601 0f18 13       		.uleb128 0x13
 3602 0f19 C20E0000 		.4byte	0xec2
 3603 0f1d 41       		.uleb128 0x41
 3604 0f1e A0080000 		.4byte	.LASF168
 3605 0f22 18       		.byte	0x18
 3606 0f23 14       		.byte	0x14
 3607 0f24 280F0000 		.4byte	0xf28
 3608 0f28 13       		.uleb128 0x13
 3609 0f29 C20E0000 		.4byte	0xec2
 3610 0f2d 41       		.uleb128 0x41
 3611 0f2e E7020000 		.4byte	.LASF169
 3612 0f32 19       		.byte	0x19
 3613 0f33 14       		.byte	0x14
 3614 0f34 380F0000 		.4byte	0xf38
 3615 0f38 13       		.uleb128 0x13
 3616 0f39 C20E0000 		.4byte	0xec2
 3617 0f3d 41       		.uleb128 0x41
 3618 0f3e 08010000 		.4byte	.LASF170
 3619 0f42 1A       		.byte	0x1a
 3620 0f43 14       		.byte	0x14
 3621 0f44 480F0000 		.4byte	0xf48
 3622 0f48 13       		.uleb128 0x13
 3623 0f49 C20E0000 		.4byte	0xec2
 3624 0f4d 41       		.uleb128 0x41
 3625 0f4e 7D000000 		.4byte	.LASF171
 3626 0f52 1B       		.byte	0x1b
 3627 0f53 14       		.byte	0x14
 3628 0f54 580F0000 		.4byte	0xf58
 3629 0f58 13       		.uleb128 0x13
 3630 0f59 C20E0000 		.4byte	0xec2
 3631 0f5d 41       		.uleb128 0x41
 3632 0f5e 1F040000 		.4byte	.LASF172
 3633 0f62 1C       		.byte	0x1c
 3634 0f63 14       		.byte	0x14
 3635 0f64 680F0000 		.4byte	0xf68
 3636 0f68 13       		.uleb128 0x13
 3637 0f69 C20E0000 		.4byte	0xec2
 3638 0f6d 41       		.uleb128 0x41
 3639 0f6e 56000000 		.4byte	.LASF173
 3640 0f72 1D       		.byte	0x1d
 3641 0f73 14       		.byte	0x14
 3642 0f74 780F0000 		.4byte	0xf78
 3643 0f78 13       		.uleb128 0x13
 3644 0f79 C20E0000 		.4byte	0xec2
 3645 0f7d 41       		.uleb128 0x41
 3646 0f7e 8A060000 		.4byte	.LASF174
 3647 0f82 1E       		.byte	0x1e
 3648 0f83 14       		.byte	0x14
 3649 0f84 880F0000 		.4byte	0xf88
 3650 0f88 13       		.uleb128 0x13
 3651 0f89 C20E0000 		.4byte	0xec2
 3652 0f8d 00       		.byte	0
 3653              		.section	.debug_abbrev,"",%progbits
 3654              	.Ldebug_abbrev0:
 3655 0000 01       		.uleb128 0x1
ARM GAS  /tmp/ccJ4J3WB.s 			page 67


 3656 0001 11       		.uleb128 0x11
 3657 0002 01       		.byte	0x1
 3658 0003 25       		.uleb128 0x25
 3659 0004 0E       		.uleb128 0xe
 3660 0005 13       		.uleb128 0x13
 3661 0006 0B       		.uleb128 0xb
 3662 0007 03       		.uleb128 0x3
 3663 0008 0E       		.uleb128 0xe
 3664 0009 1B       		.uleb128 0x1b
 3665 000a 0E       		.uleb128 0xe
 3666 000b 11       		.uleb128 0x11
 3667 000c 01       		.uleb128 0x1
 3668 000d 12       		.uleb128 0x12
 3669 000e 06       		.uleb128 0x6
 3670 000f 10       		.uleb128 0x10
 3671 0010 17       		.uleb128 0x17
 3672 0011 00       		.byte	0
 3673 0012 00       		.byte	0
 3674 0013 02       		.uleb128 0x2
 3675 0014 24       		.uleb128 0x24
 3676 0015 00       		.byte	0
 3677 0016 0B       		.uleb128 0xb
 3678 0017 0B       		.uleb128 0xb
 3679 0018 3E       		.uleb128 0x3e
 3680 0019 0B       		.uleb128 0xb
 3681 001a 03       		.uleb128 0x3
 3682 001b 08       		.uleb128 0x8
 3683 001c 00       		.byte	0
 3684 001d 00       		.byte	0
 3685 001e 03       		.uleb128 0x3
 3686 001f 16       		.uleb128 0x16
 3687 0020 00       		.byte	0
 3688 0021 03       		.uleb128 0x3
 3689 0022 0E       		.uleb128 0xe
 3690 0023 3A       		.uleb128 0x3a
 3691 0024 0B       		.uleb128 0xb
 3692 0025 3B       		.uleb128 0x3b
 3693 0026 0B       		.uleb128 0xb
 3694 0027 49       		.uleb128 0x49
 3695 0028 13       		.uleb128 0x13
 3696 0029 00       		.byte	0
 3697 002a 00       		.byte	0
 3698 002b 04       		.uleb128 0x4
 3699 002c 24       		.uleb128 0x24
 3700 002d 00       		.byte	0
 3701 002e 0B       		.uleb128 0xb
 3702 002f 0B       		.uleb128 0xb
 3703 0030 3E       		.uleb128 0x3e
 3704 0031 0B       		.uleb128 0xb
 3705 0032 03       		.uleb128 0x3
 3706 0033 0E       		.uleb128 0xe
 3707 0034 00       		.byte	0
 3708 0035 00       		.byte	0
 3709 0036 05       		.uleb128 0x5
 3710 0037 13       		.uleb128 0x13
 3711 0038 01       		.byte	0x1
 3712 0039 03       		.uleb128 0x3
ARM GAS  /tmp/ccJ4J3WB.s 			page 68


 3713 003a 0E       		.uleb128 0xe
 3714 003b 0B       		.uleb128 0xb
 3715 003c 0B       		.uleb128 0xb
 3716 003d 3A       		.uleb128 0x3a
 3717 003e 0B       		.uleb128 0xb
 3718 003f 3B       		.uleb128 0x3b
 3719 0040 0B       		.uleb128 0xb
 3720 0041 01       		.uleb128 0x1
 3721 0042 13       		.uleb128 0x13
 3722 0043 00       		.byte	0
 3723 0044 00       		.byte	0
 3724 0045 06       		.uleb128 0x6
 3725 0046 0D       		.uleb128 0xd
 3726 0047 00       		.byte	0
 3727 0048 03       		.uleb128 0x3
 3728 0049 0E       		.uleb128 0xe
 3729 004a 3A       		.uleb128 0x3a
 3730 004b 0B       		.uleb128 0xb
 3731 004c 3B       		.uleb128 0x3b
 3732 004d 0B       		.uleb128 0xb
 3733 004e 49       		.uleb128 0x49
 3734 004f 13       		.uleb128 0x13
 3735 0050 38       		.uleb128 0x38
 3736 0051 0B       		.uleb128 0xb
 3737 0052 00       		.byte	0
 3738 0053 00       		.byte	0
 3739 0054 07       		.uleb128 0x7
 3740 0055 0D       		.uleb128 0xd
 3741 0056 00       		.byte	0
 3742 0057 03       		.uleb128 0x3
 3743 0058 08       		.uleb128 0x8
 3744 0059 3A       		.uleb128 0x3a
 3745 005a 0B       		.uleb128 0xb
 3746 005b 3B       		.uleb128 0x3b
 3747 005c 05       		.uleb128 0x5
 3748 005d 49       		.uleb128 0x49
 3749 005e 13       		.uleb128 0x13
 3750 005f 38       		.uleb128 0x38
 3751 0060 0B       		.uleb128 0xb
 3752 0061 00       		.byte	0
 3753 0062 00       		.byte	0
 3754 0063 08       		.uleb128 0x8
 3755 0064 0D       		.uleb128 0xd
 3756 0065 00       		.byte	0
 3757 0066 03       		.uleb128 0x3
 3758 0067 0E       		.uleb128 0xe
 3759 0068 3A       		.uleb128 0x3a
 3760 0069 0B       		.uleb128 0xb
 3761 006a 3B       		.uleb128 0x3b
 3762 006b 05       		.uleb128 0x5
 3763 006c 49       		.uleb128 0x49
 3764 006d 13       		.uleb128 0x13
 3765 006e 38       		.uleb128 0x38
 3766 006f 0B       		.uleb128 0xb
 3767 0070 00       		.byte	0
 3768 0071 00       		.byte	0
 3769 0072 09       		.uleb128 0x9
ARM GAS  /tmp/ccJ4J3WB.s 			page 69


 3770 0073 0F       		.uleb128 0xf
 3771 0074 00       		.byte	0
 3772 0075 0B       		.uleb128 0xb
 3773 0076 0B       		.uleb128 0xb
 3774 0077 49       		.uleb128 0x49
 3775 0078 13       		.uleb128 0x13
 3776 0079 00       		.byte	0
 3777 007a 00       		.byte	0
 3778 007b 0A       		.uleb128 0xa
 3779 007c 13       		.uleb128 0x13
 3780 007d 01       		.byte	0x1
 3781 007e 03       		.uleb128 0x3
 3782 007f 0E       		.uleb128 0xe
 3783 0080 0B       		.uleb128 0xb
 3784 0081 0B       		.uleb128 0xb
 3785 0082 3A       		.uleb128 0x3a
 3786 0083 0B       		.uleb128 0xb
 3787 0084 3B       		.uleb128 0x3b
 3788 0085 05       		.uleb128 0x5
 3789 0086 01       		.uleb128 0x1
 3790 0087 13       		.uleb128 0x13
 3791 0088 00       		.byte	0
 3792 0089 00       		.byte	0
 3793 008a 0B       		.uleb128 0xb
 3794 008b 15       		.uleb128 0x15
 3795 008c 01       		.byte	0x1
 3796 008d 27       		.uleb128 0x27
 3797 008e 19       		.uleb128 0x19
 3798 008f 01       		.uleb128 0x1
 3799 0090 13       		.uleb128 0x13
 3800 0091 00       		.byte	0
 3801 0092 00       		.byte	0
 3802 0093 0C       		.uleb128 0xc
 3803 0094 05       		.uleb128 0x5
 3804 0095 00       		.byte	0
 3805 0096 49       		.uleb128 0x49
 3806 0097 13       		.uleb128 0x13
 3807 0098 00       		.byte	0
 3808 0099 00       		.byte	0
 3809 009a 0D       		.uleb128 0xd
 3810 009b 0F       		.uleb128 0xf
 3811 009c 00       		.byte	0
 3812 009d 0B       		.uleb128 0xb
 3813 009e 0B       		.uleb128 0xb
 3814 009f 00       		.byte	0
 3815 00a0 00       		.byte	0
 3816 00a1 0E       		.uleb128 0xe
 3817 00a2 13       		.uleb128 0x13
 3818 00a3 01       		.byte	0x1
 3819 00a4 03       		.uleb128 0x3
 3820 00a5 0E       		.uleb128 0xe
 3821 00a6 0B       		.uleb128 0xb
 3822 00a7 05       		.uleb128 0x5
 3823 00a8 3A       		.uleb128 0x3a
 3824 00a9 0B       		.uleb128 0xb
 3825 00aa 3B       		.uleb128 0x3b
 3826 00ab 05       		.uleb128 0x5
ARM GAS  /tmp/ccJ4J3WB.s 			page 70


 3827 00ac 01       		.uleb128 0x1
 3828 00ad 13       		.uleb128 0x13
 3829 00ae 00       		.byte	0
 3830 00af 00       		.byte	0
 3831 00b0 0F       		.uleb128 0xf
 3832 00b1 0D       		.uleb128 0xd
 3833 00b2 00       		.byte	0
 3834 00b3 03       		.uleb128 0x3
 3835 00b4 08       		.uleb128 0x8
 3836 00b5 3A       		.uleb128 0x3a
 3837 00b6 0B       		.uleb128 0xb
 3838 00b7 3B       		.uleb128 0x3b
 3839 00b8 0B       		.uleb128 0xb
 3840 00b9 49       		.uleb128 0x49
 3841 00ba 13       		.uleb128 0x13
 3842 00bb 38       		.uleb128 0x38
 3843 00bc 0B       		.uleb128 0xb
 3844 00bd 00       		.byte	0
 3845 00be 00       		.byte	0
 3846 00bf 10       		.uleb128 0x10
 3847 00c0 13       		.uleb128 0x13
 3848 00c1 01       		.byte	0x1
 3849 00c2 0B       		.uleb128 0xb
 3850 00c3 0B       		.uleb128 0xb
 3851 00c4 3A       		.uleb128 0x3a
 3852 00c5 0B       		.uleb128 0xb
 3853 00c6 3B       		.uleb128 0x3b
 3854 00c7 0B       		.uleb128 0xb
 3855 00c8 01       		.uleb128 0x1
 3856 00c9 13       		.uleb128 0x13
 3857 00ca 00       		.byte	0
 3858 00cb 00       		.byte	0
 3859 00cc 11       		.uleb128 0x11
 3860 00cd 17       		.uleb128 0x17
 3861 00ce 01       		.byte	0x1
 3862 00cf 0B       		.uleb128 0xb
 3863 00d0 0B       		.uleb128 0xb
 3864 00d1 3A       		.uleb128 0x3a
 3865 00d2 0B       		.uleb128 0xb
 3866 00d3 3B       		.uleb128 0x3b
 3867 00d4 0B       		.uleb128 0xb
 3868 00d5 01       		.uleb128 0x1
 3869 00d6 13       		.uleb128 0x13
 3870 00d7 00       		.byte	0
 3871 00d8 00       		.byte	0
 3872 00d9 12       		.uleb128 0x12
 3873 00da 0D       		.uleb128 0xd
 3874 00db 00       		.byte	0
 3875 00dc 03       		.uleb128 0x3
 3876 00dd 0E       		.uleb128 0xe
 3877 00de 3A       		.uleb128 0x3a
 3878 00df 0B       		.uleb128 0xb
 3879 00e0 3B       		.uleb128 0x3b
 3880 00e1 05       		.uleb128 0x5
 3881 00e2 49       		.uleb128 0x49
 3882 00e3 13       		.uleb128 0x13
 3883 00e4 00       		.byte	0
ARM GAS  /tmp/ccJ4J3WB.s 			page 71


 3884 00e5 00       		.byte	0
 3885 00e6 13       		.uleb128 0x13
 3886 00e7 26       		.uleb128 0x26
 3887 00e8 00       		.byte	0
 3888 00e9 49       		.uleb128 0x49
 3889 00ea 13       		.uleb128 0x13
 3890 00eb 00       		.byte	0
 3891 00ec 00       		.byte	0
 3892 00ed 14       		.uleb128 0x14
 3893 00ee 35       		.uleb128 0x35
 3894 00ef 00       		.byte	0
 3895 00f0 49       		.uleb128 0x49
 3896 00f1 13       		.uleb128 0x13
 3897 00f2 00       		.byte	0
 3898 00f3 00       		.byte	0
 3899 00f4 15       		.uleb128 0x15
 3900 00f5 01       		.uleb128 0x1
 3901 00f6 01       		.byte	0x1
 3902 00f7 49       		.uleb128 0x49
 3903 00f8 13       		.uleb128 0x13
 3904 00f9 01       		.uleb128 0x1
 3905 00fa 13       		.uleb128 0x13
 3906 00fb 00       		.byte	0
 3907 00fc 00       		.byte	0
 3908 00fd 16       		.uleb128 0x16
 3909 00fe 21       		.uleb128 0x21
 3910 00ff 00       		.byte	0
 3911 0100 49       		.uleb128 0x49
 3912 0101 13       		.uleb128 0x13
 3913 0102 2F       		.uleb128 0x2f
 3914 0103 0B       		.uleb128 0xb
 3915 0104 00       		.byte	0
 3916 0105 00       		.byte	0
 3917 0106 17       		.uleb128 0x17
 3918 0107 15       		.uleb128 0x15
 3919 0108 01       		.byte	0x1
 3920 0109 27       		.uleb128 0x27
 3921 010a 19       		.uleb128 0x19
 3922 010b 49       		.uleb128 0x49
 3923 010c 13       		.uleb128 0x13
 3924 010d 01       		.uleb128 0x1
 3925 010e 13       		.uleb128 0x13
 3926 010f 00       		.byte	0
 3927 0110 00       		.byte	0
 3928 0111 18       		.uleb128 0x18
 3929 0112 15       		.uleb128 0x15
 3930 0113 00       		.byte	0
 3931 0114 27       		.uleb128 0x27
 3932 0115 19       		.uleb128 0x19
 3933 0116 00       		.byte	0
 3934 0117 00       		.byte	0
 3935 0118 19       		.uleb128 0x19
 3936 0119 13       		.uleb128 0x13
 3937 011a 01       		.byte	0x1
 3938 011b 0B       		.uleb128 0xb
 3939 011c 05       		.uleb128 0x5
 3940 011d 3A       		.uleb128 0x3a
ARM GAS  /tmp/ccJ4J3WB.s 			page 72


 3941 011e 0B       		.uleb128 0xb
 3942 011f 3B       		.uleb128 0x3b
 3943 0120 0B       		.uleb128 0xb
 3944 0121 01       		.uleb128 0x1
 3945 0122 13       		.uleb128 0x13
 3946 0123 00       		.byte	0
 3947 0124 00       		.byte	0
 3948 0125 1A       		.uleb128 0x1a
 3949 0126 0D       		.uleb128 0xd
 3950 0127 00       		.byte	0
 3951 0128 03       		.uleb128 0x3
 3952 0129 08       		.uleb128 0x8
 3953 012a 3A       		.uleb128 0x3a
 3954 012b 0B       		.uleb128 0xb
 3955 012c 3B       		.uleb128 0x3b
 3956 012d 0B       		.uleb128 0xb
 3957 012e 49       		.uleb128 0x49
 3958 012f 13       		.uleb128 0x13
 3959 0130 38       		.uleb128 0x38
 3960 0131 05       		.uleb128 0x5
 3961 0132 00       		.byte	0
 3962 0133 00       		.byte	0
 3963 0134 1B       		.uleb128 0x1b
 3964 0135 17       		.uleb128 0x17
 3965 0136 01       		.byte	0x1
 3966 0137 03       		.uleb128 0x3
 3967 0138 0E       		.uleb128 0xe
 3968 0139 0B       		.uleb128 0xb
 3969 013a 05       		.uleb128 0x5
 3970 013b 3A       		.uleb128 0x3a
 3971 013c 0B       		.uleb128 0xb
 3972 013d 3B       		.uleb128 0x3b
 3973 013e 0B       		.uleb128 0xb
 3974 013f 01       		.uleb128 0x1
 3975 0140 13       		.uleb128 0x13
 3976 0141 00       		.byte	0
 3977 0142 00       		.byte	0
 3978 0143 1C       		.uleb128 0x1c
 3979 0144 0D       		.uleb128 0xd
 3980 0145 00       		.byte	0
 3981 0146 03       		.uleb128 0x3
 3982 0147 08       		.uleb128 0x8
 3983 0148 3A       		.uleb128 0x3a
 3984 0149 0B       		.uleb128 0xb
 3985 014a 3B       		.uleb128 0x3b
 3986 014b 0B       		.uleb128 0xb
 3987 014c 49       		.uleb128 0x49
 3988 014d 13       		.uleb128 0x13
 3989 014e 00       		.byte	0
 3990 014f 00       		.byte	0
 3991 0150 1D       		.uleb128 0x1d
 3992 0151 0D       		.uleb128 0xd
 3993 0152 00       		.byte	0
 3994 0153 03       		.uleb128 0x3
 3995 0154 0E       		.uleb128 0xe
 3996 0155 3A       		.uleb128 0x3a
 3997 0156 0B       		.uleb128 0xb
ARM GAS  /tmp/ccJ4J3WB.s 			page 73


 3998 0157 3B       		.uleb128 0x3b
 3999 0158 0B       		.uleb128 0xb
 4000 0159 49       		.uleb128 0x49
 4001 015a 13       		.uleb128 0x13
 4002 015b 00       		.byte	0
 4003 015c 00       		.byte	0
 4004 015d 1E       		.uleb128 0x1e
 4005 015e 21       		.uleb128 0x21
 4006 015f 00       		.byte	0
 4007 0160 49       		.uleb128 0x49
 4008 0161 13       		.uleb128 0x13
 4009 0162 2F       		.uleb128 0x2f
 4010 0163 05       		.uleb128 0x5
 4011 0164 00       		.byte	0
 4012 0165 00       		.byte	0
 4013 0166 1F       		.uleb128 0x1f
 4014 0167 2E       		.uleb128 0x2e
 4015 0168 01       		.byte	0x1
 4016 0169 03       		.uleb128 0x3
 4017 016a 0E       		.uleb128 0xe
 4018 016b 3A       		.uleb128 0x3a
 4019 016c 0B       		.uleb128 0xb
 4020 016d 3B       		.uleb128 0x3b
 4021 016e 05       		.uleb128 0x5
 4022 016f 27       		.uleb128 0x27
 4023 0170 19       		.uleb128 0x19
 4024 0171 20       		.uleb128 0x20
 4025 0172 0B       		.uleb128 0xb
 4026 0173 01       		.uleb128 0x1
 4027 0174 13       		.uleb128 0x13
 4028 0175 00       		.byte	0
 4029 0176 00       		.byte	0
 4030 0177 20       		.uleb128 0x20
 4031 0178 05       		.uleb128 0x5
 4032 0179 00       		.byte	0
 4033 017a 03       		.uleb128 0x3
 4034 017b 0E       		.uleb128 0xe
 4035 017c 3A       		.uleb128 0x3a
 4036 017d 0B       		.uleb128 0xb
 4037 017e 3B       		.uleb128 0x3b
 4038 017f 05       		.uleb128 0x5
 4039 0180 49       		.uleb128 0x49
 4040 0181 13       		.uleb128 0x13
 4041 0182 00       		.byte	0
 4042 0183 00       		.byte	0
 4043 0184 21       		.uleb128 0x21
 4044 0185 2E       		.uleb128 0x2e
 4045 0186 01       		.byte	0x1
 4046 0187 03       		.uleb128 0x3
 4047 0188 0E       		.uleb128 0xe
 4048 0189 3A       		.uleb128 0x3a
 4049 018a 0B       		.uleb128 0xb
 4050 018b 3B       		.uleb128 0x3b
 4051 018c 05       		.uleb128 0x5
 4052 018d 27       		.uleb128 0x27
 4053 018e 19       		.uleb128 0x19
 4054 018f 11       		.uleb128 0x11
ARM GAS  /tmp/ccJ4J3WB.s 			page 74


 4055 0190 01       		.uleb128 0x1
 4056 0191 12       		.uleb128 0x12
 4057 0192 06       		.uleb128 0x6
 4058 0193 40       		.uleb128 0x40
 4059 0194 18       		.uleb128 0x18
 4060 0195 9742     		.uleb128 0x2117
 4061 0197 19       		.uleb128 0x19
 4062 0198 01       		.uleb128 0x1
 4063 0199 13       		.uleb128 0x13
 4064 019a 00       		.byte	0
 4065 019b 00       		.byte	0
 4066 019c 22       		.uleb128 0x22
 4067 019d 1D       		.uleb128 0x1d
 4068 019e 01       		.byte	0x1
 4069 019f 31       		.uleb128 0x31
 4070 01a0 13       		.uleb128 0x13
 4071 01a1 11       		.uleb128 0x11
 4072 01a2 01       		.uleb128 0x1
 4073 01a3 12       		.uleb128 0x12
 4074 01a4 06       		.uleb128 0x6
 4075 01a5 58       		.uleb128 0x58
 4076 01a6 0B       		.uleb128 0xb
 4077 01a7 59       		.uleb128 0x59
 4078 01a8 05       		.uleb128 0x5
 4079 01a9 00       		.byte	0
 4080 01aa 00       		.byte	0
 4081 01ab 23       		.uleb128 0x23
 4082 01ac 05       		.uleb128 0x5
 4083 01ad 00       		.byte	0
 4084 01ae 31       		.uleb128 0x31
 4085 01af 13       		.uleb128 0x13
 4086 01b0 02       		.uleb128 0x2
 4087 01b1 18       		.uleb128 0x18
 4088 01b2 00       		.byte	0
 4089 01b3 00       		.byte	0
 4090 01b4 24       		.uleb128 0x24
 4091 01b5 2E       		.uleb128 0x2e
 4092 01b6 00       		.byte	0
 4093 01b7 03       		.uleb128 0x3
 4094 01b8 0E       		.uleb128 0xe
 4095 01b9 3A       		.uleb128 0x3a
 4096 01ba 0B       		.uleb128 0xb
 4097 01bb 3B       		.uleb128 0x3b
 4098 01bc 05       		.uleb128 0x5
 4099 01bd 27       		.uleb128 0x27
 4100 01be 19       		.uleb128 0x19
 4101 01bf 11       		.uleb128 0x11
 4102 01c0 01       		.uleb128 0x1
 4103 01c1 12       		.uleb128 0x12
 4104 01c2 06       		.uleb128 0x6
 4105 01c3 40       		.uleb128 0x40
 4106 01c4 18       		.uleb128 0x18
 4107 01c5 9642     		.uleb128 0x2116
 4108 01c7 19       		.uleb128 0x19
 4109 01c8 00       		.byte	0
 4110 01c9 00       		.byte	0
 4111 01ca 25       		.uleb128 0x25
ARM GAS  /tmp/ccJ4J3WB.s 			page 75


 4112 01cb 2E       		.uleb128 0x2e
 4113 01cc 01       		.byte	0x1
 4114 01cd 03       		.uleb128 0x3
 4115 01ce 0E       		.uleb128 0xe
 4116 01cf 3A       		.uleb128 0x3a
 4117 01d0 0B       		.uleb128 0xb
 4118 01d1 3B       		.uleb128 0x3b
 4119 01d2 05       		.uleb128 0x5
 4120 01d3 27       		.uleb128 0x27
 4121 01d4 19       		.uleb128 0x19
 4122 01d5 11       		.uleb128 0x11
 4123 01d6 01       		.uleb128 0x1
 4124 01d7 12       		.uleb128 0x12
 4125 01d8 06       		.uleb128 0x6
 4126 01d9 40       		.uleb128 0x40
 4127 01da 18       		.uleb128 0x18
 4128 01db 9642     		.uleb128 0x2116
 4129 01dd 19       		.uleb128 0x19
 4130 01de 01       		.uleb128 0x1
 4131 01df 13       		.uleb128 0x13
 4132 01e0 00       		.byte	0
 4133 01e1 00       		.byte	0
 4134 01e2 26       		.uleb128 0x26
 4135 01e3 34       		.uleb128 0x34
 4136 01e4 00       		.byte	0
 4137 01e5 03       		.uleb128 0x3
 4138 01e6 0E       		.uleb128 0xe
 4139 01e7 49       		.uleb128 0x49
 4140 01e8 13       		.uleb128 0x13
 4141 01e9 34       		.uleb128 0x34
 4142 01ea 19       		.uleb128 0x19
 4143 01eb 00       		.byte	0
 4144 01ec 00       		.byte	0
 4145 01ed 27       		.uleb128 0x27
 4146 01ee 2E       		.uleb128 0x2e
 4147 01ef 00       		.byte	0
 4148 01f0 03       		.uleb128 0x3
 4149 01f1 0E       		.uleb128 0xe
 4150 01f2 3A       		.uleb128 0x3a
 4151 01f3 0B       		.uleb128 0xb
 4152 01f4 3B       		.uleb128 0x3b
 4153 01f5 0B       		.uleb128 0xb
 4154 01f6 27       		.uleb128 0x27
 4155 01f7 19       		.uleb128 0x19
 4156 01f8 49       		.uleb128 0x49
 4157 01f9 13       		.uleb128 0x13
 4158 01fa 11       		.uleb128 0x11
 4159 01fb 01       		.uleb128 0x1
 4160 01fc 12       		.uleb128 0x12
 4161 01fd 06       		.uleb128 0x6
 4162 01fe 40       		.uleb128 0x40
 4163 01ff 18       		.uleb128 0x18
 4164 0200 9742     		.uleb128 0x2117
 4165 0202 19       		.uleb128 0x19
 4166 0203 00       		.byte	0
 4167 0204 00       		.byte	0
 4168 0205 28       		.uleb128 0x28
ARM GAS  /tmp/ccJ4J3WB.s 			page 76


 4169 0206 2E       		.uleb128 0x2e
 4170 0207 01       		.byte	0x1
 4171 0208 03       		.uleb128 0x3
 4172 0209 0E       		.uleb128 0xe
 4173 020a 3A       		.uleb128 0x3a
 4174 020b 0B       		.uleb128 0xb
 4175 020c 3B       		.uleb128 0x3b
 4176 020d 0B       		.uleb128 0xb
 4177 020e 27       		.uleb128 0x27
 4178 020f 19       		.uleb128 0x19
 4179 0210 49       		.uleb128 0x49
 4180 0211 13       		.uleb128 0x13
 4181 0212 11       		.uleb128 0x11
 4182 0213 01       		.uleb128 0x1
 4183 0214 12       		.uleb128 0x12
 4184 0215 06       		.uleb128 0x6
 4185 0216 40       		.uleb128 0x40
 4186 0217 18       		.uleb128 0x18
 4187 0218 9642     		.uleb128 0x2116
 4188 021a 19       		.uleb128 0x19
 4189 021b 01       		.uleb128 0x1
 4190 021c 13       		.uleb128 0x13
 4191 021d 00       		.byte	0
 4192 021e 00       		.byte	0
 4193 021f 29       		.uleb128 0x29
 4194 0220 34       		.uleb128 0x34
 4195 0221 00       		.byte	0
 4196 0222 03       		.uleb128 0x3
 4197 0223 0E       		.uleb128 0xe
 4198 0224 3A       		.uleb128 0x3a
 4199 0225 0B       		.uleb128 0xb
 4200 0226 3B       		.uleb128 0x3b
 4201 0227 0B       		.uleb128 0xb
 4202 0228 49       		.uleb128 0x49
 4203 0229 13       		.uleb128 0x13
 4204 022a 02       		.uleb128 0x2
 4205 022b 18       		.uleb128 0x18
 4206 022c 00       		.byte	0
 4207 022d 00       		.byte	0
 4208 022e 2A       		.uleb128 0x2a
 4209 022f 2E       		.uleb128 0x2e
 4210 0230 01       		.byte	0x1
 4211 0231 03       		.uleb128 0x3
 4212 0232 0E       		.uleb128 0xe
 4213 0233 3A       		.uleb128 0x3a
 4214 0234 0B       		.uleb128 0xb
 4215 0235 3B       		.uleb128 0x3b
 4216 0236 05       		.uleb128 0x5
 4217 0237 27       		.uleb128 0x27
 4218 0238 19       		.uleb128 0x19
 4219 0239 49       		.uleb128 0x49
 4220 023a 13       		.uleb128 0x13
 4221 023b 11       		.uleb128 0x11
 4222 023c 01       		.uleb128 0x1
 4223 023d 12       		.uleb128 0x12
 4224 023e 06       		.uleb128 0x6
 4225 023f 40       		.uleb128 0x40
ARM GAS  /tmp/ccJ4J3WB.s 			page 77


 4226 0240 18       		.uleb128 0x18
 4227 0241 9742     		.uleb128 0x2117
 4228 0243 19       		.uleb128 0x19
 4229 0244 01       		.uleb128 0x1
 4230 0245 13       		.uleb128 0x13
 4231 0246 00       		.byte	0
 4232 0247 00       		.byte	0
 4233 0248 2B       		.uleb128 0x2b
 4234 0249 05       		.uleb128 0x5
 4235 024a 00       		.byte	0
 4236 024b 03       		.uleb128 0x3
 4237 024c 0E       		.uleb128 0xe
 4238 024d 3A       		.uleb128 0x3a
 4239 024e 0B       		.uleb128 0xb
 4240 024f 3B       		.uleb128 0x3b
 4241 0250 05       		.uleb128 0x5
 4242 0251 49       		.uleb128 0x49
 4243 0252 13       		.uleb128 0x13
 4244 0253 02       		.uleb128 0x2
 4245 0254 18       		.uleb128 0x18
 4246 0255 00       		.byte	0
 4247 0256 00       		.byte	0
 4248 0257 2C       		.uleb128 0x2c
 4249 0258 05       		.uleb128 0x5
 4250 0259 00       		.byte	0
 4251 025a 03       		.uleb128 0x3
 4252 025b 08       		.uleb128 0x8
 4253 025c 3A       		.uleb128 0x3a
 4254 025d 0B       		.uleb128 0xb
 4255 025e 3B       		.uleb128 0x3b
 4256 025f 05       		.uleb128 0x5
 4257 0260 49       		.uleb128 0x49
 4258 0261 13       		.uleb128 0x13
 4259 0262 02       		.uleb128 0x2
 4260 0263 18       		.uleb128 0x18
 4261 0264 00       		.byte	0
 4262 0265 00       		.byte	0
 4263 0266 2D       		.uleb128 0x2d
 4264 0267 2E       		.uleb128 0x2e
 4265 0268 01       		.byte	0x1
 4266 0269 03       		.uleb128 0x3
 4267 026a 0E       		.uleb128 0xe
 4268 026b 3A       		.uleb128 0x3a
 4269 026c 0B       		.uleb128 0xb
 4270 026d 3B       		.uleb128 0x3b
 4271 026e 05       		.uleb128 0x5
 4272 026f 27       		.uleb128 0x27
 4273 0270 19       		.uleb128 0x19
 4274 0271 49       		.uleb128 0x49
 4275 0272 13       		.uleb128 0x13
 4276 0273 11       		.uleb128 0x11
 4277 0274 01       		.uleb128 0x1
 4278 0275 12       		.uleb128 0x12
 4279 0276 06       		.uleb128 0x6
 4280 0277 40       		.uleb128 0x40
 4281 0278 18       		.uleb128 0x18
 4282 0279 9642     		.uleb128 0x2116
ARM GAS  /tmp/ccJ4J3WB.s 			page 78


 4283 027b 19       		.uleb128 0x19
 4284 027c 01       		.uleb128 0x1
 4285 027d 13       		.uleb128 0x13
 4286 027e 00       		.byte	0
 4287 027f 00       		.byte	0
 4288 0280 2E       		.uleb128 0x2e
 4289 0281 2E       		.uleb128 0x2e
 4290 0282 01       		.byte	0x1
 4291 0283 3F       		.uleb128 0x3f
 4292 0284 19       		.uleb128 0x19
 4293 0285 03       		.uleb128 0x3
 4294 0286 0E       		.uleb128 0xe
 4295 0287 3A       		.uleb128 0x3a
 4296 0288 0B       		.uleb128 0xb
 4297 0289 3B       		.uleb128 0x3b
 4298 028a 0B       		.uleb128 0xb
 4299 028b 27       		.uleb128 0x27
 4300 028c 19       		.uleb128 0x19
 4301 028d 11       		.uleb128 0x11
 4302 028e 01       		.uleb128 0x1
 4303 028f 12       		.uleb128 0x12
 4304 0290 06       		.uleb128 0x6
 4305 0291 40       		.uleb128 0x40
 4306 0292 18       		.uleb128 0x18
 4307 0293 9642     		.uleb128 0x2116
 4308 0295 19       		.uleb128 0x19
 4309 0296 01       		.uleb128 0x1
 4310 0297 13       		.uleb128 0x13
 4311 0298 00       		.byte	0
 4312 0299 00       		.byte	0
 4313 029a 2F       		.uleb128 0x2f
 4314 029b 05       		.uleb128 0x5
 4315 029c 00       		.byte	0
 4316 029d 03       		.uleb128 0x3
 4317 029e 08       		.uleb128 0x8
 4318 029f 3A       		.uleb128 0x3a
 4319 02a0 0B       		.uleb128 0xb
 4320 02a1 3B       		.uleb128 0x3b
 4321 02a2 0B       		.uleb128 0xb
 4322 02a3 49       		.uleb128 0x49
 4323 02a4 13       		.uleb128 0x13
 4324 02a5 02       		.uleb128 0x2
 4325 02a6 18       		.uleb128 0x18
 4326 02a7 00       		.byte	0
 4327 02a8 00       		.byte	0
 4328 02a9 30       		.uleb128 0x30
 4329 02aa 34       		.uleb128 0x34
 4330 02ab 00       		.byte	0
 4331 02ac 03       		.uleb128 0x3
 4332 02ad 08       		.uleb128 0x8
 4333 02ae 3A       		.uleb128 0x3a
 4334 02af 0B       		.uleb128 0xb
 4335 02b0 3B       		.uleb128 0x3b
 4336 02b1 0B       		.uleb128 0xb
 4337 02b2 49       		.uleb128 0x49
 4338 02b3 13       		.uleb128 0x13
 4339 02b4 02       		.uleb128 0x2
ARM GAS  /tmp/ccJ4J3WB.s 			page 79


 4340 02b5 18       		.uleb128 0x18
 4341 02b6 00       		.byte	0
 4342 02b7 00       		.byte	0
 4343 02b8 31       		.uleb128 0x31
 4344 02b9 05       		.uleb128 0x5
 4345 02ba 00       		.byte	0
 4346 02bb 03       		.uleb128 0x3
 4347 02bc 0E       		.uleb128 0xe
 4348 02bd 3A       		.uleb128 0x3a
 4349 02be 0B       		.uleb128 0xb
 4350 02bf 3B       		.uleb128 0x3b
 4351 02c0 0B       		.uleb128 0xb
 4352 02c1 49       		.uleb128 0x49
 4353 02c2 13       		.uleb128 0x13
 4354 02c3 02       		.uleb128 0x2
 4355 02c4 18       		.uleb128 0x18
 4356 02c5 00       		.byte	0
 4357 02c6 00       		.byte	0
 4358 02c7 32       		.uleb128 0x32
 4359 02c8 2E       		.uleb128 0x2e
 4360 02c9 00       		.byte	0
 4361 02ca 03       		.uleb128 0x3
 4362 02cb 0E       		.uleb128 0xe
 4363 02cc 3A       		.uleb128 0x3a
 4364 02cd 0B       		.uleb128 0xb
 4365 02ce 3B       		.uleb128 0x3b
 4366 02cf 0B       		.uleb128 0xb
 4367 02d0 27       		.uleb128 0x27
 4368 02d1 19       		.uleb128 0x19
 4369 02d2 11       		.uleb128 0x11
 4370 02d3 01       		.uleb128 0x1
 4371 02d4 12       		.uleb128 0x12
 4372 02d5 06       		.uleb128 0x6
 4373 02d6 40       		.uleb128 0x40
 4374 02d7 18       		.uleb128 0x18
 4375 02d8 9742     		.uleb128 0x2117
 4376 02da 19       		.uleb128 0x19
 4377 02db 00       		.byte	0
 4378 02dc 00       		.byte	0
 4379 02dd 33       		.uleb128 0x33
 4380 02de 2E       		.uleb128 0x2e
 4381 02df 01       		.byte	0x1
 4382 02e0 03       		.uleb128 0x3
 4383 02e1 0E       		.uleb128 0xe
 4384 02e2 3A       		.uleb128 0x3a
 4385 02e3 0B       		.uleb128 0xb
 4386 02e4 3B       		.uleb128 0x3b
 4387 02e5 0B       		.uleb128 0xb
 4388 02e6 27       		.uleb128 0x27
 4389 02e7 19       		.uleb128 0x19
 4390 02e8 11       		.uleb128 0x11
 4391 02e9 01       		.uleb128 0x1
 4392 02ea 12       		.uleb128 0x12
 4393 02eb 06       		.uleb128 0x6
 4394 02ec 40       		.uleb128 0x40
 4395 02ed 18       		.uleb128 0x18
 4396 02ee 9642     		.uleb128 0x2116
ARM GAS  /tmp/ccJ4J3WB.s 			page 80


 4397 02f0 19       		.uleb128 0x19
 4398 02f1 01       		.uleb128 0x1
 4399 02f2 13       		.uleb128 0x13
 4400 02f3 00       		.byte	0
 4401 02f4 00       		.byte	0
 4402 02f5 34       		.uleb128 0x34
 4403 02f6 2E       		.uleb128 0x2e
 4404 02f7 01       		.byte	0x1
 4405 02f8 3F       		.uleb128 0x3f
 4406 02f9 19       		.uleb128 0x19
 4407 02fa 03       		.uleb128 0x3
 4408 02fb 0E       		.uleb128 0xe
 4409 02fc 3A       		.uleb128 0x3a
 4410 02fd 0B       		.uleb128 0xb
 4411 02fe 3B       		.uleb128 0x3b
 4412 02ff 0B       		.uleb128 0xb
 4413 0300 27       		.uleb128 0x27
 4414 0301 19       		.uleb128 0x19
 4415 0302 49       		.uleb128 0x49
 4416 0303 13       		.uleb128 0x13
 4417 0304 11       		.uleb128 0x11
 4418 0305 01       		.uleb128 0x1
 4419 0306 12       		.uleb128 0x12
 4420 0307 06       		.uleb128 0x6
 4421 0308 40       		.uleb128 0x40
 4422 0309 18       		.uleb128 0x18
 4423 030a 9742     		.uleb128 0x2117
 4424 030c 19       		.uleb128 0x19
 4425 030d 01       		.uleb128 0x1
 4426 030e 13       		.uleb128 0x13
 4427 030f 00       		.byte	0
 4428 0310 00       		.byte	0
 4429 0311 35       		.uleb128 0x35
 4430 0312 2E       		.uleb128 0x2e
 4431 0313 01       		.byte	0x1
 4432 0314 3F       		.uleb128 0x3f
 4433 0315 19       		.uleb128 0x19
 4434 0316 03       		.uleb128 0x3
 4435 0317 0E       		.uleb128 0xe
 4436 0318 3A       		.uleb128 0x3a
 4437 0319 0B       		.uleb128 0xb
 4438 031a 3B       		.uleb128 0x3b
 4439 031b 0B       		.uleb128 0xb
 4440 031c 27       		.uleb128 0x27
 4441 031d 19       		.uleb128 0x19
 4442 031e 49       		.uleb128 0x49
 4443 031f 13       		.uleb128 0x13
 4444 0320 11       		.uleb128 0x11
 4445 0321 01       		.uleb128 0x1
 4446 0322 12       		.uleb128 0x12
 4447 0323 06       		.uleb128 0x6
 4448 0324 40       		.uleb128 0x40
 4449 0325 18       		.uleb128 0x18
 4450 0326 9642     		.uleb128 0x2116
 4451 0328 19       		.uleb128 0x19
 4452 0329 01       		.uleb128 0x1
 4453 032a 13       		.uleb128 0x13
ARM GAS  /tmp/ccJ4J3WB.s 			page 81


 4454 032b 00       		.byte	0
 4455 032c 00       		.byte	0
 4456 032d 36       		.uleb128 0x36
 4457 032e 2E       		.uleb128 0x2e
 4458 032f 00       		.byte	0
 4459 0330 3F       		.uleb128 0x3f
 4460 0331 19       		.uleb128 0x19
 4461 0332 03       		.uleb128 0x3
 4462 0333 0E       		.uleb128 0xe
 4463 0334 3A       		.uleb128 0x3a
 4464 0335 0B       		.uleb128 0xb
 4465 0336 3B       		.uleb128 0x3b
 4466 0337 0B       		.uleb128 0xb
 4467 0338 27       		.uleb128 0x27
 4468 0339 19       		.uleb128 0x19
 4469 033a 49       		.uleb128 0x49
 4470 033b 13       		.uleb128 0x13
 4471 033c 11       		.uleb128 0x11
 4472 033d 01       		.uleb128 0x1
 4473 033e 12       		.uleb128 0x12
 4474 033f 06       		.uleb128 0x6
 4475 0340 40       		.uleb128 0x40
 4476 0341 18       		.uleb128 0x18
 4477 0342 9642     		.uleb128 0x2116
 4478 0344 19       		.uleb128 0x19
 4479 0345 00       		.byte	0
 4480 0346 00       		.byte	0
 4481 0347 37       		.uleb128 0x37
 4482 0348 2E       		.uleb128 0x2e
 4483 0349 01       		.byte	0x1
 4484 034a 03       		.uleb128 0x3
 4485 034b 08       		.uleb128 0x8
 4486 034c 3A       		.uleb128 0x3a
 4487 034d 0B       		.uleb128 0xb
 4488 034e 3B       		.uleb128 0x3b
 4489 034f 05       		.uleb128 0x5
 4490 0350 27       		.uleb128 0x27
 4491 0351 19       		.uleb128 0x19
 4492 0352 11       		.uleb128 0x11
 4493 0353 01       		.uleb128 0x1
 4494 0354 12       		.uleb128 0x12
 4495 0355 06       		.uleb128 0x6
 4496 0356 40       		.uleb128 0x40
 4497 0357 18       		.uleb128 0x18
 4498 0358 9742     		.uleb128 0x2117
 4499 035a 19       		.uleb128 0x19
 4500 035b 01       		.uleb128 0x1
 4501 035c 13       		.uleb128 0x13
 4502 035d 00       		.byte	0
 4503 035e 00       		.byte	0
 4504 035f 38       		.uleb128 0x38
 4505 0360 2E       		.uleb128 0x2e
 4506 0361 01       		.byte	0x1
 4507 0362 3F       		.uleb128 0x3f
 4508 0363 19       		.uleb128 0x19
 4509 0364 03       		.uleb128 0x3
 4510 0365 0E       		.uleb128 0xe
ARM GAS  /tmp/ccJ4J3WB.s 			page 82


 4511 0366 3A       		.uleb128 0x3a
 4512 0367 0B       		.uleb128 0xb
 4513 0368 3B       		.uleb128 0x3b
 4514 0369 05       		.uleb128 0x5
 4515 036a 27       		.uleb128 0x27
 4516 036b 19       		.uleb128 0x19
 4517 036c 11       		.uleb128 0x11
 4518 036d 01       		.uleb128 0x1
 4519 036e 12       		.uleb128 0x12
 4520 036f 06       		.uleb128 0x6
 4521 0370 40       		.uleb128 0x40
 4522 0371 18       		.uleb128 0x18
 4523 0372 9642     		.uleb128 0x2116
 4524 0374 19       		.uleb128 0x19
 4525 0375 01       		.uleb128 0x1
 4526 0376 13       		.uleb128 0x13
 4527 0377 00       		.byte	0
 4528 0378 00       		.byte	0
 4529 0379 39       		.uleb128 0x39
 4530 037a 34       		.uleb128 0x34
 4531 037b 00       		.byte	0
 4532 037c 03       		.uleb128 0x3
 4533 037d 0E       		.uleb128 0xe
 4534 037e 3A       		.uleb128 0x3a
 4535 037f 0B       		.uleb128 0xb
 4536 0380 3B       		.uleb128 0x3b
 4537 0381 05       		.uleb128 0x5
 4538 0382 49       		.uleb128 0x49
 4539 0383 13       		.uleb128 0x13
 4540 0384 02       		.uleb128 0x2
 4541 0385 18       		.uleb128 0x18
 4542 0386 00       		.byte	0
 4543 0387 00       		.byte	0
 4544 0388 3A       		.uleb128 0x3a
 4545 0389 34       		.uleb128 0x34
 4546 038a 00       		.byte	0
 4547 038b 03       		.uleb128 0x3
 4548 038c 08       		.uleb128 0x8
 4549 038d 3A       		.uleb128 0x3a
 4550 038e 0B       		.uleb128 0xb
 4551 038f 3B       		.uleb128 0x3b
 4552 0390 05       		.uleb128 0x5
 4553 0391 49       		.uleb128 0x49
 4554 0392 13       		.uleb128 0x13
 4555 0393 02       		.uleb128 0x2
 4556 0394 18       		.uleb128 0x18
 4557 0395 00       		.byte	0
 4558 0396 00       		.byte	0
 4559 0397 3B       		.uleb128 0x3b
 4560 0398 34       		.uleb128 0x34
 4561 0399 00       		.byte	0
 4562 039a 03       		.uleb128 0x3
 4563 039b 0E       		.uleb128 0xe
 4564 039c 3A       		.uleb128 0x3a
 4565 039d 0B       		.uleb128 0xb
 4566 039e 3B       		.uleb128 0x3b
 4567 039f 05       		.uleb128 0x5
ARM GAS  /tmp/ccJ4J3WB.s 			page 83


 4568 03a0 49       		.uleb128 0x49
 4569 03a1 13       		.uleb128 0x13
 4570 03a2 3F       		.uleb128 0x3f
 4571 03a3 19       		.uleb128 0x19
 4572 03a4 3C       		.uleb128 0x3c
 4573 03a5 19       		.uleb128 0x19
 4574 03a6 00       		.byte	0
 4575 03a7 00       		.byte	0
 4576 03a8 3C       		.uleb128 0x3c
 4577 03a9 34       		.uleb128 0x34
 4578 03aa 00       		.byte	0
 4579 03ab 03       		.uleb128 0x3
 4580 03ac 08       		.uleb128 0x8
 4581 03ad 3A       		.uleb128 0x3a
 4582 03ae 0B       		.uleb128 0xb
 4583 03af 3B       		.uleb128 0x3b
 4584 03b0 05       		.uleb128 0x5
 4585 03b1 49       		.uleb128 0x49
 4586 03b2 13       		.uleb128 0x13
 4587 03b3 3F       		.uleb128 0x3f
 4588 03b4 19       		.uleb128 0x19
 4589 03b5 3C       		.uleb128 0x3c
 4590 03b6 19       		.uleb128 0x19
 4591 03b7 00       		.byte	0
 4592 03b8 00       		.byte	0
 4593 03b9 3D       		.uleb128 0x3d
 4594 03ba 34       		.uleb128 0x34
 4595 03bb 00       		.byte	0
 4596 03bc 03       		.uleb128 0x3
 4597 03bd 0E       		.uleb128 0xe
 4598 03be 3A       		.uleb128 0x3a
 4599 03bf 0B       		.uleb128 0xb
 4600 03c0 3B       		.uleb128 0x3b
 4601 03c1 0B       		.uleb128 0xb
 4602 03c2 49       		.uleb128 0x49
 4603 03c3 13       		.uleb128 0x13
 4604 03c4 3F       		.uleb128 0x3f
 4605 03c5 19       		.uleb128 0x19
 4606 03c6 02       		.uleb128 0x2
 4607 03c7 18       		.uleb128 0x18
 4608 03c8 00       		.byte	0
 4609 03c9 00       		.byte	0
 4610 03ca 3E       		.uleb128 0x3e
 4611 03cb 34       		.uleb128 0x34
 4612 03cc 00       		.byte	0
 4613 03cd 03       		.uleb128 0x3
 4614 03ce 08       		.uleb128 0x8
 4615 03cf 3A       		.uleb128 0x3a
 4616 03d0 0B       		.uleb128 0xb
 4617 03d1 3B       		.uleb128 0x3b
 4618 03d2 0B       		.uleb128 0xb
 4619 03d3 49       		.uleb128 0x49
 4620 03d4 13       		.uleb128 0x13
 4621 03d5 3F       		.uleb128 0x3f
 4622 03d6 19       		.uleb128 0x19
 4623 03d7 02       		.uleb128 0x2
 4624 03d8 18       		.uleb128 0x18
ARM GAS  /tmp/ccJ4J3WB.s 			page 84


 4625 03d9 00       		.byte	0
 4626 03da 00       		.byte	0
 4627 03db 3F       		.uleb128 0x3f
 4628 03dc 34       		.uleb128 0x34
 4629 03dd 00       		.byte	0
 4630 03de 03       		.uleb128 0x3
 4631 03df 0E       		.uleb128 0xe
 4632 03e0 3A       		.uleb128 0x3a
 4633 03e1 0B       		.uleb128 0xb
 4634 03e2 3B       		.uleb128 0x3b
 4635 03e3 05       		.uleb128 0x5
 4636 03e4 49       		.uleb128 0x49
 4637 03e5 13       		.uleb128 0x13
 4638 03e6 3F       		.uleb128 0x3f
 4639 03e7 19       		.uleb128 0x19
 4640 03e8 02       		.uleb128 0x2
 4641 03e9 18       		.uleb128 0x18
 4642 03ea 00       		.byte	0
 4643 03eb 00       		.byte	0
 4644 03ec 40       		.uleb128 0x40
 4645 03ed 21       		.uleb128 0x21
 4646 03ee 00       		.byte	0
 4647 03ef 00       		.byte	0
 4648 03f0 00       		.byte	0
 4649 03f1 41       		.uleb128 0x41
 4650 03f2 34       		.uleb128 0x34
 4651 03f3 00       		.byte	0
 4652 03f4 03       		.uleb128 0x3
 4653 03f5 0E       		.uleb128 0xe
 4654 03f6 3A       		.uleb128 0x3a
 4655 03f7 0B       		.uleb128 0xb
 4656 03f8 3B       		.uleb128 0x3b
 4657 03f9 0B       		.uleb128 0xb
 4658 03fa 49       		.uleb128 0x49
 4659 03fb 13       		.uleb128 0x13
 4660 03fc 3F       		.uleb128 0x3f
 4661 03fd 19       		.uleb128 0x19
 4662 03fe 3C       		.uleb128 0x3c
 4663 03ff 19       		.uleb128 0x19
 4664 0400 00       		.byte	0
 4665 0401 00       		.byte	0
 4666 0402 00       		.byte	0
 4667              		.section	.debug_aranges,"",%progbits
 4668 0000 1C000000 		.4byte	0x1c
 4669 0004 0200     		.2byte	0x2
 4670 0006 00000000 		.4byte	.Ldebug_info0
 4671 000a 04       		.byte	0x4
 4672 000b 00       		.byte	0
 4673 000c 0000     		.2byte	0
 4674 000e 0000     		.2byte	0
 4675 0010 00000000 		.4byte	.Ltext0
 4676 0014 C0070000 		.4byte	.Letext0-.Ltext0
 4677 0018 00000000 		.4byte	0
 4678 001c 00000000 		.4byte	0
 4679              		.section	.debug_line,"",%progbits
 4680              	.Ldebug_line0:
 4681 0000 0D050000 		.section	.debug_str,"MS",%progbits,1
ARM GAS  /tmp/ccJ4J3WB.s 			page 85


 4681      0200A603 
 4681      00000201 
 4681      FB0E0D00 
 4681      01010101 
 4682              	.LASF53:
 4683 0000 72656164 		.ascii	"ready_list_t\000"
 4683      795F6C69 
 4683      73745F74 
 4683      00
 4684              	.LASF2:
 4685 000d 73697A65 		.ascii	"size_t\000"
 4685      5F7400
 4686              	.LASF88:
 4687 0014 7264796D 		.ascii	"rdymsg\000"
 4687      736700
 4688              	.LASF17:
 4689 001b 75696E74 		.ascii	"uint64_t\000"
 4689      36345F74 
 4689      00
 4690              	.LASF123:
 4691 0024 63685654 		.ascii	"chVTIsArmedI\000"
 4691      49734172 
 4691      6D656449 
 4691      00
 4692              	.LASF3:
 4693 0031 5F5F7569 		.ascii	"__uint8_t\000"
 4693      6E74385F 
 4693      7400
 4694              	.LASF85:
 4695 003b 706F7274 		.ascii	"port_intctx\000"
 4695      5F696E74 
 4695      63747800 
 4696              	.LASF72:
 4697 0047 73797374 		.ascii	"system_debug_t\000"
 4697      656D5F64 
 4697      65627567 
 4697      5F7400
 4698              	.LASF173:
 4699 0056 70617474 		.ascii	"patternqueues\000"
 4699      65726E71 
 4699      75657565 
 4699      7300
 4700              	.LASF80:
 4701 0064 69646C65 		.ascii	"idle_thread_wa\000"
 4701      5F746872 
 4701      6561645F 
 4701      776100
 4702              	.LASF115:
 4703 0073 706F7274 		.ascii	"port_lock\000"
 4703      5F6C6F63 
 4703      6B00
 4704              	.LASF171:
 4705 007d 70617474 		.ascii	"patternpools\000"
 4705      65726E70 
 4705      6F6F6C73 
 4705      00
 4706              	.LASF13:
ARM GAS  /tmp/ccJ4J3WB.s 			page 86


 4707 008a 6C6F6E67 		.ascii	"long long unsigned int\000"
 4707      206C6F6E 
 4707      6720756E 
 4707      7369676E 
 4707      65642069 
 4708              	.LASF142:
 4709 00a1 636F6E64 		.ascii	"condition\000"
 4709      6974696F 
 4709      6E00
 4710              	.LASF89:
 4711 00ab 65786974 		.ascii	"exitcode\000"
 4711      636F6465 
 4711      00
 4712              	.LASF79:
 4713 00b4 6D61696E 		.ascii	"mainthread\000"
 4713      74687265 
 4713      616400
 4714              	.LASF161:
 4715 00bf 74657374 		.ascii	"test\000"
 4715      00
 4716              	.LASF69:
 4717 00c4 76697274 		.ascii	"virtual_timers_list_t\000"
 4717      75616C5F 
 4717      74696D65 
 4717      72735F6C 
 4717      6973745F 
 4718              	.LASF158:
 4719 00da 49544D5F 		.ascii	"ITM_RxBuffer\000"
 4719      52784275 
 4719      66666572 
 4719      00
 4720              	.LASF52:
 4721 00e7 63685F74 		.ascii	"ch_threads_queue\000"
 4721      68726561 
 4721      64735F71 
 4721      75657565 
 4721      00
 4722              	.LASF31:
 4723 00f8 705F7072 		.ascii	"p_prio\000"
 4723      696F00
 4724              	.LASF112:
 4725 00ff 74656172 		.ascii	"teardown\000"
 4725      646F776E 
 4725      00
 4726              	.LASF170:
 4727 0108 70617474 		.ascii	"patternheap\000"
 4727      65726E68 
 4727      65617000 
 4728              	.LASF156:
 4729 0114 746F6B65 		.ascii	"tokens_buffer\000"
 4729      6E735F62 
 4729      75666665 
 4729      7200
 4730              	.LASF11:
 4731 0122 6C6F6E67 		.ascii	"long long int\000"
 4731      206C6F6E 
 4731      6720696E 
ARM GAS  /tmp/ccJ4J3WB.s 			page 87


 4731      7400
 4732              	.LASF1:
 4733 0130 7369676E 		.ascii	"signed char\000"
 4733      65642063 
 4733      68617200 
 4734              	.LASF46:
 4735 013c 705F6D70 		.ascii	"p_mpool\000"
 4735      6F6F6C00 
 4736              	.LASF99:
 4737 0144 6D5F7175 		.ascii	"m_queue\000"
 4737      65756500 
 4738              	.LASF137:
 4739 014c 74657374 		.ascii	"test_emit_token\000"
 4739      5F656D69 
 4739      745F746F 
 4739      6B656E00 
 4740              	.LASF133:
 4741 015c 74657374 		.ascii	"test_println\000"
 4741      5F707269 
 4741      6E746C6E 
 4741      00
 4742              	.LASF116:
 4743 0169 706F7274 		.ascii	"port_unlock\000"
 4743      5F756E6C 
 4743      6F636B00 
 4744              	.LASF22:
 4745 0175 74736C69 		.ascii	"tslices_t\000"
 4745      6365735F 
 4745      7400
 4746              	.LASF91:
 4747 017f 77747472 		.ascii	"wttrp\000"
 4747      7000
 4748              	.LASF76:
 4749 0185 63685F73 		.ascii	"ch_system\000"
 4749      79737465 
 4749      6D00
 4750              	.LASF8:
 4751 018f 6C6F6E67 		.ascii	"long int\000"
 4751      20696E74 
 4751      00
 4752              	.LASF176:
 4753 0198 2E2E2F2E 		.ascii	"../../../ChibiOS/test/rt/test.c\000"
 4753      2E2F2E2E 
 4753      2F436869 
 4753      62694F53 
 4753      2F746573 
 4754              	.LASF20:
 4755 01b8 74737461 		.ascii	"tstate_t\000"
 4755      74655F74 
 4755      00
 4756              	.LASF145:
 4757 01c1 5F746573 		.ascii	"_test_assert_time_window\000"
 4757      745F6173 
 4757      73657274 
 4757      5F74696D 
 4757      655F7769 
 4758              	.LASF146:
ARM GAS  /tmp/ccJ4J3WB.s 			page 88


 4759 01da 74657374 		.ascii	"test_terminate_threads\000"
 4759      5F746572 
 4759      6D696E61 
 4759      74655F74 
 4759      68726561 
 4760              	.LASF163:
 4761 01f1 70617474 		.ascii	"patternsys\000"
 4761      65726E73 
 4761      797300
 4762              	.LASF157:
 4763 01fc 746F6B70 		.ascii	"tokp\000"
 4763      00
 4764              	.LASF114:
 4765 0201 62756666 		.ascii	"buffer\000"
 4765      657200
 4766              	.LASF33:
 4767 0208 705F6E65 		.ascii	"p_newer\000"
 4767      77657200 
 4768              	.LASF96:
 4769 0210 735F7175 		.ascii	"s_queue\000"
 4769      65756500 
 4770              	.LASF148:
 4771 0218 74657374 		.ascii	"test_start_timer\000"
 4771      5F737461 
 4771      72745F74 
 4771      696D6572 
 4771      00
 4772              	.LASF58:
 4773 0229 725F6E65 		.ascii	"r_newer\000"
 4773      77657200 
 4774              	.LASF82:
 4775 0231 72656761 		.ascii	"regarm_t\000"
 4775      726D5F74 
 4775      00
 4776              	.LASF65:
 4777 023a 76745F70 		.ascii	"vt_prev\000"
 4777      72657600 
 4778              	.LASF78:
 4779 0242 76746C69 		.ascii	"vtlist\000"
 4779      737400
 4780              	.LASF149:
 4781 0249 64757261 		.ascii	"duration\000"
 4781      74696F6E 
 4781      00
 4782              	.LASF143:
 4783 0252 5F746573 		.ascii	"_test_assert_sequence\000"
 4783      745F6173 
 4783      73657274 
 4783      5F736571 
 4783      75656E63 
 4784              	.LASF103:
 4785 0268 6D757465 		.ascii	"mutex_t\000"
 4785      785F7400 
 4786              	.LASF180:
 4787 0270 76616C75 		.ascii	"value\000"
 4787      6500
 4788              	.LASF107:
ARM GAS  /tmp/ccJ4J3WB.s 			page 89


 4789 0276 42617365 		.ascii	"BaseSequentialStream\000"
 4789      53657175 
 4789      656E7469 
 4789      616C5374 
 4789      7265616D 
 4790              	.LASF136:
 4791 028b 7072696E 		.ascii	"print_tokens\000"
 4791      745F746F 
 4791      6B656E73 
 4791      00
 4792              	.LASF26:
 4793 0298 636E745F 		.ascii	"cnt_t\000"
 4793      7400
 4794              	.LASF182:
 4795 029e 63685654 		.ascii	"chVTGetSystemTimeX\000"
 4795      47657453 
 4795      79737465 
 4795      6D54696D 
 4795      655800
 4796              	.LASF0:
 4797 02b1 756E7369 		.ascii	"unsigned int\000"
 4797      676E6564 
 4797      20696E74 
 4797      00
 4798              	.LASF64:
 4799 02be 76745F6E 		.ascii	"vt_next\000"
 4799      65787400 
 4800              	.LASF92:
 4801 02c6 77747365 		.ascii	"wtsemp\000"
 4801      6D7000
 4802              	.LASF139:
 4803 02cd 706F696E 		.ascii	"point\000"
 4803      7400
 4804              	.LASF41:
 4805 02d3 705F6D73 		.ascii	"p_msgqueue\000"
 4805      67717565 
 4805      756500
 4806              	.LASF144:
 4807 02de 65787065 		.ascii	"expected\000"
 4807      63746564 
 4807      00
 4808              	.LASF169:
 4809 02e7 70617474 		.ascii	"patternevt\000"
 4809      65726E65 
 4809      767400
 4810              	.LASF54:
 4811 02f2 63685F72 		.ascii	"ch_ready_list\000"
 4811      65616479 
 4811      5F6C6973 
 4811      7400
 4812              	.LASF110:
 4813 0300 6E616D65 		.ascii	"name\000"
 4813      00
 4814              	.LASF97:
 4815 0305 735F636E 		.ascii	"s_cnt\000"
 4815      7400
 4816              	.LASF6:
ARM GAS  /tmp/ccJ4J3WB.s 			page 90


 4817 030b 73686F72 		.ascii	"short unsigned int\000"
 4817      7420756E 
 4817      7369676E 
 4817      65642069 
 4817      6E7400
 4818              	.LASF49:
 4819 031e 63685F74 		.ascii	"ch_thread\000"
 4819      68726561 
 4819      6400
 4820              	.LASF24:
 4821 0328 6D73675F 		.ascii	"msg_t\000"
 4821      7400
 4822              	.LASF75:
 4823 032e 63685F73 		.ascii	"ch_system_t\000"
 4823      79737465 
 4823      6D5F7400 
 4824              	.LASF140:
 4825 033a 5F746573 		.ascii	"_test_fail\000"
 4825      745F6661 
 4825      696C00
 4826              	.LASF19:
 4827 0345 746D6F64 		.ascii	"tmode_t\000"
 4827      655F7400 
 4828              	.LASF129:
 4829 034d 73797374 		.ascii	"systime\000"
 4829      696D6500 
 4830              	.LASF175:
 4831 0355 474E5520 		.ascii	"GNU C 4.8.4 20140526 (release) [ARM/embedded-4_8-br"
 4831      4320342E 
 4831      382E3420 
 4831      32303134 
 4831      30353236 
 4832 0388 616E6368 		.ascii	"anch revision 211358] -mcpu=cortex-m4 -mno-thumb-in"
 4832      20726576 
 4832      6973696F 
 4832      6E203231 
 4832      31333538 
 4833 03bb 74657277 		.ascii	"terwork -mthumb -ggdb -O0 -fomit-frame-pointer -fal"
 4833      6F726B20 
 4833      2D6D7468 
 4833      756D6220 
 4833      2D676764 
 4834 03ee 69676E2D 		.ascii	"ign-functions=16\000"
 4834      66756E63 
 4834      74696F6E 
 4834      733D3136 
 4834      00
 4835              	.LASF44:
 4836 03ff 705F6D74 		.ascii	"p_mtxlist\000"
 4836      786C6973 
 4836      7400
 4837              	.LASF25:
 4838 0409 6576656E 		.ascii	"eventmask_t\000"
 4838      746D6173 
 4838      6B5F7400 
 4839              	.LASF7:
 4840 0415 5F5F696E 		.ascii	"__int32_t\000"
ARM GAS  /tmp/ccJ4J3WB.s 			page 91


 4840      7433325F 
 4840      7400
 4841              	.LASF172:
 4842 041f 70617474 		.ascii	"patterndyn\000"
 4842      65726E64 
 4842      796E00
 4843              	.LASF132:
 4844 042a 6D736770 		.ascii	"msgp\000"
 4844      00
 4845              	.LASF177:
 4846 042f 2F752F65 		.ascii	"/u/elawton2/p442-submissions/sensortile/reference/a"
 4846      6C617774 
 4846      6F6E322F 
 4846      70343432 
 4846      2D737562 
 4847 0462 6363656C 		.ascii	"ccel_who_am_i\000"
 4847      5F77686F 
 4847      5F616D5F 
 4847      6900
 4848              	.LASF83:
 4849 0470 73746B61 		.ascii	"stkalign_t\000"
 4849      6C69676E 
 4849      5F7400
 4850              	.LASF131:
 4851 047b 74657374 		.ascii	"test_print\000"
 4851      5F707269 
 4851      6E7400
 4852              	.LASF48:
 4853 0486 74687265 		.ascii	"threads_list_t\000"
 4853      6164735F 
 4853      6C697374 
 4853      5F7400
 4854              	.LASF105:
 4855 0495 77726974 		.ascii	"write\000"
 4855      6500
 4856              	.LASF56:
 4857 049b 725F7072 		.ascii	"r_prio\000"
 4857      696F00
 4858              	.LASF40:
 4859 04a2 705F7761 		.ascii	"p_waiting\000"
 4859      6974696E 
 4859      6700
 4860              	.LASF167:
 4861 04ac 70617474 		.ascii	"patternmsg\000"
 4861      65726E6D 
 4861      736700
 4862              	.LASF81:
 4863 04b7 73697A65 		.ascii	"sizetype\000"
 4863      74797065 
 4863      00
 4864              	.LASF47:
 4865 04c0 74687265 		.ascii	"thread_reference_t\000"
 4865      61645F72 
 4865      65666572 
 4865      656E6365 
 4865      5F7400
 4866              	.LASF70:
ARM GAS  /tmp/ccJ4J3WB.s 			page 92


 4867 04d3 63685F76 		.ascii	"ch_virtual_timers_list\000"
 4867      69727475 
 4867      616C5F74 
 4867      696D6572 
 4867      735F6C69 
 4868              	.LASF67:
 4869 04ea 76745F66 		.ascii	"vt_func\000"
 4869      756E6300 
 4870              	.LASF87:
 4871 04f2 746D5F63 		.ascii	"tm_calibration_t\000"
 4871      616C6962 
 4871      72617469 
 4871      6F6E5F74 
 4871      00
 4872              	.LASF151:
 4873 0503 7072696E 		.ascii	"print_line\000"
 4873      745F6C69 
 4873      6E6500
 4874              	.LASF125:
 4875 050e 63685654 		.ascii	"chVTSetI\000"
 4875      53657449 
 4875      00
 4876              	.LASF57:
 4877 0517 725F6374 		.ascii	"r_ctx\000"
 4877      7800
 4878              	.LASF128:
 4879 051d 63685654 		.ascii	"chVTSet\000"
 4879      53657400 
 4880              	.LASF111:
 4881 0525 73657475 		.ascii	"setup\000"
 4881      7000
 4882              	.LASF118:
 4883 052b 63685654 		.ascii	"chVTGetSystemTime\000"
 4883      47657453 
 4883      79737465 
 4883      6D54696D 
 4883      6500
 4884              	.LASF120:
 4885 053d 74696D65 		.ascii	"time\000"
 4885      00
 4886              	.LASF60:
 4887 0542 725F6375 		.ascii	"r_current\000"
 4887      7272656E 
 4887      7400
 4888              	.LASF59:
 4889 054c 725F6F6C 		.ascii	"r_older\000"
 4889      64657200 
 4890              	.LASF165:
 4891 0554 70617474 		.ascii	"patternsem\000"
 4891      65726E73 
 4891      656D00
 4892              	.LASF154:
 4893 055f 6C6F6361 		.ascii	"local_fail\000"
 4893      6C5F6661 
 4893      696C00
 4894              	.LASF12:
 4895 056a 5F5F7569 		.ascii	"__uint64_t\000"
ARM GAS  /tmp/ccJ4J3WB.s 			page 93


 4895      6E743634 
 4895      5F7400
 4896              	.LASF106:
 4897 0575 72656164 		.ascii	"read\000"
 4897      00
 4898              	.LASF138:
 4899 057a 746F6B65 		.ascii	"token\000"
 4899      6E00
 4900              	.LASF21:
 4901 0580 74726566 		.ascii	"trefs_t\000"
 4901      735F7400 
 4902              	.LASF62:
 4903 0588 76697274 		.ascii	"virtual_timer_t\000"
 4903      75616C5F 
 4903      74696D65 
 4903      725F7400 
 4904              	.LASF30:
 4905 0598 705F7072 		.ascii	"p_prev\000"
 4905      657600
 4906              	.LASF113:
 4907 059f 65786563 		.ascii	"execute\000"
 4907      75746500 
 4908              	.LASF23:
 4909 05a7 74707269 		.ascii	"tprio_t\000"
 4909      6F5F7400 
 4910              	.LASF35:
 4911 05af 705F6E61 		.ascii	"p_name\000"
 4911      6D6500
 4912              	.LASF73:
 4913 05b6 63685F73 		.ascii	"ch_system_debug\000"
 4913      79737465 
 4913      6D5F6465 
 4913      62756700 
 4914              	.LASF108:
 4915 05c6 5F426F6F 		.ascii	"_Bool\000"
 4915      6C00
 4916              	.LASF15:
 4917 05cc 696E7433 		.ascii	"int32_t\000"
 4917      325F7400 
 4918              	.LASF4:
 4919 05d4 756E7369 		.ascii	"unsigned char\000"
 4919      676E6564 
 4919      20636861 
 4919      7200
 4920              	.LASF152:
 4921 05e2 54657374 		.ascii	"TestThread\000"
 4921      54687265 
 4921      616400
 4922              	.LASF183:
 4923 05ed 74657374 		.ascii	"test_wait_tick\000"
 4923      5F776169 
 4923      745F7469 
 4923      636B00
 4924              	.LASF126:
 4925 05fc 64656C61 		.ascii	"delay\000"
 4925      7900
 4926              	.LASF166:
ARM GAS  /tmp/ccJ4J3WB.s 			page 94


 4927 0602 70617474 		.ascii	"patternmtx\000"
 4927      65726E6D 
 4927      747800
 4928              	.LASF5:
 4929 060d 73686F72 		.ascii	"short int\000"
 4929      7420696E 
 4929      7400
 4930              	.LASF36:
 4931 0617 705F7374 		.ascii	"p_state\000"
 4931      61746500 
 4932              	.LASF39:
 4933 061f 705F7072 		.ascii	"p_preempt\000"
 4933      65656D70 
 4933      7400
 4934              	.LASF160:
 4935 0629 74687265 		.ascii	"threads\000"
 4935      61647300 
 4936              	.LASF34:
 4937 0631 705F6F6C 		.ascii	"p_older\000"
 4937      64657200 
 4938              	.LASF162:
 4939 0639 74657374 		.ascii	"test_timer_done\000"
 4939      5F74696D 
 4939      65725F64 
 4939      6F6E6500 
 4940              	.LASF94:
 4941 0649 65776D61 		.ascii	"ewmask\000"
 4941      736B00
 4942              	.LASF29:
 4943 0650 705F6E65 		.ascii	"p_next\000"
 4943      787400
 4944              	.LASF104:
 4945 0657 42617365 		.ascii	"BaseSequentialStreamVMT\000"
 4945      53657175 
 4945      656E7469 
 4945      616C5374 
 4945      7265616D 
 4946              	.LASF37:
 4947 066f 705F666C 		.ascii	"p_flags\000"
 4947      61677300 
 4948              	.LASF181:
 4949 0677 5F5F6675 		.ascii	"__func__\000"
 4949      6E635F5F 
 4949      00
 4950              	.LASF134:
 4951 0680 63685379 		.ascii	"chSysLock\000"
 4951      734C6F63 
 4951      6B00
 4952              	.LASF174:
 4953 068a 70617474 		.ascii	"patternbmk\000"
 4953      65726E62 
 4953      6D6B00
 4954              	.LASF51:
 4955 0695 74687265 		.ascii	"threads_queue_t\000"
 4955      6164735F 
 4955      71756575 
 4955      655F7400 
ARM GAS  /tmp/ccJ4J3WB.s 			page 95


 4956              	.LASF63:
 4957 06a5 63685F76 		.ascii	"ch_virtual_timer\000"
 4957      69727475 
 4957      616C5F74 
 4957      696D6572 
 4957      00
 4958              	.LASF124:
 4959 06b6 63685654 		.ascii	"chVTResetI\000"
 4959      52657365 
 4959      744900
 4960              	.LASF109:
 4961 06c1 74657374 		.ascii	"testcase\000"
 4961      63617365 
 4961      00
 4962              	.LASF95:
 4963 06ca 63685F73 		.ascii	"ch_semaphore\000"
 4963      656D6170 
 4963      686F7265 
 4963      00
 4964              	.LASF43:
 4965 06d7 705F6570 		.ascii	"p_epending\000"
 4965      656E6469 
 4965      6E6700
 4966              	.LASF16:
 4967 06e2 75696E74 		.ascii	"uint32_t\000"
 4967      33325F74 
 4967      00
 4968              	.LASF93:
 4969 06eb 77746D74 		.ascii	"wtmtxp\000"
 4969      787000
 4970              	.LASF55:
 4971 06f2 725F7175 		.ascii	"r_queue\000"
 4971      65756500 
 4972              	.LASF130:
 4973 06fa 74657374 		.ascii	"test_printn\000"
 4973      5F707269 
 4973      6E746E00 
 4974              	.LASF50:
 4975 0706 63685F74 		.ascii	"ch_threads_list\000"
 4975      68726561 
 4975      64735F6C 
 4975      69737400 
 4976              	.LASF10:
 4977 0716 6C6F6E67 		.ascii	"long unsigned int\000"
 4977      20756E73 
 4977      69676E65 
 4977      6420696E 
 4977      7400
 4978              	.LASF102:
 4979 0728 63686172 		.ascii	"char\000"
 4979      00
 4980              	.LASF153:
 4981 072d 70617474 		.ascii	"patterns\000"
 4981      65726E73 
 4981      00
 4982              	.LASF122:
 4983 0736 63685654 		.ascii	"chVTIsSystemTimeWithin\000"
ARM GAS  /tmp/ccJ4J3WB.s 			page 96


 4983      49735379 
 4983      7374656D 
 4983      54696D65 
 4983      57697468 
 4984              	.LASF164:
 4985 074d 70617474 		.ascii	"patternthd\000"
 4985      65726E74 
 4985      686400
 4986              	.LASF28:
 4987 0758 74687265 		.ascii	"thread_t\000"
 4987      61645F74 
 4987      00
 4988              	.LASF147:
 4989 0761 74657374 		.ascii	"test_wait_threads\000"
 4989      5F776169 
 4989      745F7468 
 4989      72656164 
 4989      7300
 4990              	.LASF101:
 4991 0773 6D5F6E65 		.ascii	"m_next\000"
 4991      787400
 4992              	.LASF27:
 4993 077a 73797374 		.ascii	"systime_t\000"
 4993      696D655F 
 4993      7400
 4994              	.LASF45:
 4995 0784 705F7265 		.ascii	"p_realprio\000"
 4995      616C7072 
 4995      696F00
 4996              	.LASF61:
 4997 078f 76746675 		.ascii	"vtfunc_t\000"
 4997      6E635F74 
 4997      00
 4998              	.LASF9:
 4999 0798 5F5F7569 		.ascii	"__uint32_t\000"
 4999      6E743332 
 4999      5F7400
 5000              	.LASF179:
 5001 07a3 5F5F7365 		.ascii	"__set_BASEPRI\000"
 5001      745F4241 
 5001      53455052 
 5001      4900
 5002              	.LASF74:
 5003 07b1 70616E69 		.ascii	"panic_msg\000"
 5003      635F6D73 
 5003      6700
 5004              	.LASF159:
 5005 07bb 74657374 		.ascii	"test_global_fail\000"
 5005      5F676C6F 
 5005      62616C5F 
 5005      6661696C 
 5005      00
 5006              	.LASF86:
 5007 07cc 6F666673 		.ascii	"offset\000"
 5007      657400
 5008              	.LASF84:
 5009 07d3 636F6E74 		.ascii	"context\000"
ARM GAS  /tmp/ccJ4J3WB.s 			page 97


 5009      65787400 
 5010              	.LASF18:
 5011 07db 7274636E 		.ascii	"rtcnt_t\000"
 5011      745F7400 
 5012              	.LASF68:
 5013 07e3 76745F70 		.ascii	"vt_par\000"
 5013      617200
 5014              	.LASF127:
 5015 07ea 76746675 		.ascii	"vtfunc\000"
 5015      6E6300
 5016              	.LASF178:
 5017 07f1 74657374 		.ascii	"test_buffers\000"
 5017      5F627566 
 5017      66657273 
 5017      00
 5018              	.LASF98:
 5019 07fe 63685F6D 		.ascii	"ch_mutex\000"
 5019      75746578 
 5019      00
 5020              	.LASF38:
 5021 0807 705F7265 		.ascii	"p_refs\000"
 5021      667300
 5022              	.LASF150:
 5023 080e 65786563 		.ascii	"execute_test\000"
 5023      7574655F 
 5023      74657374 
 5023      00
 5024              	.LASF77:
 5025 081b 726C6973 		.ascii	"rlist\000"
 5025      7400
 5026              	.LASF14:
 5027 0821 75696E74 		.ascii	"uint8_t\000"
 5027      385F7400 
 5028              	.LASF155:
 5029 0829 6661696C 		.ascii	"failpoint\000"
 5029      706F696E 
 5029      7400
 5030              	.LASF135:
 5031 0833 636C6561 		.ascii	"clear_tokens\000"
 5031      725F746F 
 5031      6B656E73 
 5031      00
 5032              	.LASF90:
 5033 0840 77746F62 		.ascii	"wtobjp\000"
 5033      6A7000
 5034              	.LASF141:
 5035 0847 5F746573 		.ascii	"_test_assert\000"
 5035      745F6173 
 5035      73657274 
 5035      00
 5036              	.LASF71:
 5037 0854 76745F73 		.ascii	"vt_systime\000"
 5037      79737469 
 5037      6D6500
 5038              	.LASF119:
 5039 085f 63685654 		.ascii	"chVTIsTimeWithinX\000"
 5039      49735469 
ARM GAS  /tmp/ccJ4J3WB.s 			page 98


 5039      6D655769 
 5039      7468696E 
 5039      5800
 5040              	.LASF66:
 5041 0871 76745F64 		.ascii	"vt_delta\000"
 5041      656C7461 
 5041      00
 5042              	.LASF117:
 5043 087a 63685379 		.ascii	"chSysUnlock\000"
 5043      73556E6C 
 5043      6F636B00 
 5044              	.LASF42:
 5045 0886 705F6D73 		.ascii	"p_msg\000"
 5045      6700
 5046              	.LASF121:
 5047 088c 73746172 		.ascii	"start\000"
 5047      7400
 5048              	.LASF100:
 5049 0892 6D5F6F77 		.ascii	"m_owner\000"
 5049      6E657200 
 5050              	.LASF32:
 5051 089a 705F6374 		.ascii	"p_ctx\000"
 5051      7800
 5052              	.LASF168:
 5053 08a0 70617474 		.ascii	"patternmbox\000"
 5053      65726E6D 
 5053      626F7800 
 5054              		.ident	"GCC: (GNU Tools for ARM Embedded Processors) 4.8.4 20140526 (release) [ARM/embedded-4_8-br
ARM GAS  /tmp/ccJ4J3WB.s 			page 99


DEFINED SYMBOLS
                            *ABS*:00000000 test.c
     /tmp/ccJ4J3WB.s:18     .text:00000000 $t
     /tmp/ccJ4J3WB.s:23     .text:00000000 port_lock
     /tmp/ccJ4J3WB.s:58     .text:00000010 port_unlock
     /tmp/ccJ4J3WB.s:91     .text:00000020 chSysLock
     /tmp/ccJ4J3WB.s:114    .text:00000030 chSysUnlock
     /tmp/ccJ4J3WB.s:136    .text:00000040 chVTGetSystemTimeX
     /tmp/ccJ4J3WB.s:153    .text:00000048 $d
     /tmp/ccJ4J3WB.s:157    .text:0000004c $t
     /tmp/ccJ4J3WB.s:162    .text:00000050 chVTGetSystemTime
     /tmp/ccJ4J3WB.s:195    .text:00000070 chVTIsTimeWithinX
     /tmp/ccJ4J3WB.s:232    .text:000000a0 chVTIsSystemTimeWithin
     /tmp/ccJ4J3WB.s:266    .text:000000d0 chVTIsArmedI
     /tmp/ccJ4J3WB.s:297    .text:000000f0 chVTResetI
     /tmp/ccJ4J3WB.s:331    .text:00000110 chVTSetI
     /tmp/ccJ4J3WB.s:367    .text:00000140 chVTSet
     /tmp/ccJ4J3WB.s:400    .data:00000000 $d
     /tmp/ccJ4J3WB.s:403    .data:00000000 patterns
                            *COM*:00000001 test_global_fail
     /tmp/ccJ4J3WB.s:419    .bss:00000000 local_fail
     /tmp/ccJ4J3WB.s:420    .bss:00000000 $d
     /tmp/ccJ4J3WB.s:422    .bss:00000004 failpoint
     /tmp/ccJ4J3WB.s:425    .bss:00000008 tokens_buffer
     /tmp/ccJ4J3WB.s:428    .bss:00000018 tokp
                            *COM*:00000668 test
                            *COM*:00000014 threads
     /tmp/ccJ4J3WB.s:437    .rodata:00000000 wa
     /tmp/ccJ4J3WB.s:434    .rodata:00000000 $d
     /tmp/ccJ4J3WB.s:445    .bss:0000001c chp
     /tmp/ccJ4J3WB.s:454    .text:00000170 test_printn
     /tmp/ccJ4J3WB.s:548    .text:000001f8 $d
     /tmp/ccJ4J3WB.s:553    .text:00000200 $t
     /tmp/ccJ4J3WB.s:559    .text:00000200 test_print
     /tmp/ccJ4J3WB.s:601    .text:00000230 $d
     /tmp/ccJ4J3WB.s:610    .text:00000234 $t
     /tmp/ccJ4J3WB.s:616    .text:00000240 test_println
     /tmp/ccJ4J3WB.s:649    .text:00000268 $d
     /tmp/ccJ4J3WB.s:654    .text:00000270 $t
     /tmp/ccJ4J3WB.s:659    .text:00000270 clear_tokens
     /tmp/ccJ4J3WB.s:675    .text:00000278 $d
     /tmp/ccJ4J3WB.s:680    .text:00000280 $t
     /tmp/ccJ4J3WB.s:685    .text:00000280 print_tokens
     /tmp/ccJ4J3WB.s:730    .text:000002b4 $d
     /tmp/ccJ4J3WB.s:736    .text:000002c0 $t
     /tmp/ccJ4J3WB.s:742    .text:000002c0 test_emit_token
     /tmp/ccJ4J3WB.s:774    .text:000002e8 $d
     /tmp/ccJ4J3WB.s:778    .text:000002ec $t
     /tmp/ccJ4J3WB.s:784    .text:000002f0 _test_fail
     /tmp/ccJ4J3WB.s:816    .text:00000310 $d
     /tmp/ccJ4J3WB.s:822    .text:0000031c $t
     /tmp/ccJ4J3WB.s:828    .text:00000320 _test_assert
     /tmp/ccJ4J3WB.s:871    .text:00000350 _test_assert_sequence
     /tmp/ccJ4J3WB.s:937    .text:000003a8 $d
     /tmp/ccJ4J3WB.s:942    .text:000003b0 $t
     /tmp/ccJ4J3WB.s:948    .text:000003b0 _test_assert_time_window
     /tmp/ccJ4J3WB.s:985    .text:000003e0 test_terminate_threads
ARM GAS  /tmp/ccJ4J3WB.s 			page 100


     /tmp/ccJ4J3WB.s:1030   .text:00000418 $d
     /tmp/ccJ4J3WB.s:1034   .text:0000041c $t
     /tmp/ccJ4J3WB.s:1040   .text:00000420 test_wait_threads
     /tmp/ccJ4J3WB.s:1090   .text:00000460 $d
     /tmp/ccJ4J3WB.s:1094   .text:00000464 $t
     /tmp/ccJ4J3WB.s:1100   .text:00000470 test_wait_tick
                            *COM*:00000001 test_timer_done
     /tmp/ccJ4J3WB.s:1125   .bss:00000020 vt
     /tmp/ccJ4J3WB.s:1133   .text:00000490 tmr
     /tmp/ccJ4J3WB.s:1154   .text:000004a0 $d
     /tmp/ccJ4J3WB.s:1158   .text:000004a4 $t
     /tmp/ccJ4J3WB.s:1164   .text:000004b0 test_start_timer
     /tmp/ccJ4J3WB.s:1202   .text:000004e8 $d
     /tmp/ccJ4J3WB.s:1209   .text:000004f8 $t
     /tmp/ccJ4J3WB.s:1214   .text:00000500 execute_test
     /tmp/ccJ4J3WB.s:1284   .text:00000558 $d
     /tmp/ccJ4J3WB.s:1289   .text:00000560 $t
     /tmp/ccJ4J3WB.s:1294   .text:00000560 print_line
     /tmp/ccJ4J3WB.s:1347   .text:000005a4 $d
     /tmp/ccJ4J3WB.s:1445   .text:000005ac $t
     /tmp/ccJ4J3WB.s:1451   .text:000005b0 TestThread
     /tmp/ccJ4J3WB.s:1673   .text:00000734 $d
                     .debug_frame:00000010 $d

UNDEFINED SYMBOLS
ch
chVTDoResetI
chVTDoSetI
patternsys
patternthd
patternsem
patternmtx
patternmsg
patternmbox
patternevt
patternheap
patternpools
patterndyn
patternqueues
patternbmk
chThdTerminate
chThdWait
chThdSleep
