Archive member included because of file (symbol)

/nfs/nfs5/home/research/hardware/arm2/gcc-arm-embedded/gcc-arm-none-eabi-4_8-2014q2/bin/../lib/gcc/arm-none-eabi/4.8.4/armv7e-m/libgcc.a(_aeabi_ldivmod.o)
                              build/obj/LSM303AGR_ACC_driver.o (__aeabi_ldivmod)
/nfs/nfs5/home/research/hardware/arm2/gcc-arm-embedded/gcc-arm-none-eabi-4_8-2014q2/bin/../lib/gcc/arm-none-eabi/4.8.4/armv7e-m/libgcc.a(bpabi.o)
                              /nfs/nfs5/home/research/hardware/arm2/gcc-arm-embedded/gcc-arm-none-eabi-4_8-2014q2/bin/../lib/gcc/arm-none-eabi/4.8.4/armv7e-m/libgcc.a(_aeabi_ldivmod.o) (__gnu_ldivmod_helper)
/nfs/nfs5/home/research/hardware/arm2/gcc-arm-embedded/gcc-arm-none-eabi-4_8-2014q2/bin/../lib/gcc/arm-none-eabi/4.8.4/armv7e-m/libgcc.a(_dvmd_tls.o)
                              /nfs/nfs5/home/research/hardware/arm2/gcc-arm-embedded/gcc-arm-none-eabi-4_8-2014q2/bin/../lib/gcc/arm-none-eabi/4.8.4/armv7e-m/libgcc.a(_aeabi_ldivmod.o) (__aeabi_ldiv0)
/nfs/nfs5/home/research/hardware/arm2/gcc-arm-embedded/gcc-arm-none-eabi-4_8-2014q2/bin/../lib/gcc/arm-none-eabi/4.8.4/armv7e-m/libgcc.a(_divdi3.o)
                              /nfs/nfs5/home/research/hardware/arm2/gcc-arm-embedded/gcc-arm-none-eabi-4_8-2014q2/bin/../lib/gcc/arm-none-eabi/4.8.4/armv7e-m/libgcc.a(bpabi.o) (__divdi3)
/nfs/nfs5/home/research/hardware/arm2/gcc-arm-embedded/gcc-arm-none-eabi-4_8-2014q2/bin/../lib/gcc/arm-none-eabi/4.8.4/armv7e-m/libgcc.a(_udivdi3.o)
                              /nfs/nfs5/home/research/hardware/arm2/gcc-arm-embedded/gcc-arm-none-eabi-4_8-2014q2/bin/../lib/gcc/arm-none-eabi/4.8.4/armv7e-m/libgcc.a(bpabi.o) (__udivdi3)
/nfs/nfs5/home/research/hardware/arm2/gcc-arm-embedded/gcc-arm-none-eabi-4_8-2014q2/bin/../lib/gcc/arm-none-eabi/4.8.4/../../../../arm-none-eabi/lib/armv7e-m/libg.a(lib_a-memcpy.o)
                              build/obj/hal_buffers.o (memcpy)
/nfs/nfs5/home/research/hardware/arm2/gcc-arm-embedded/gcc-arm-none-eabi-4_8-2014q2/bin/../lib/gcc/arm-none-eabi/4.8.4/../../../../arm-none-eabi/lib/armv7e-m/libg.a(lib_a-memset.o)
                              build/obj/usb.o (memset)
/nfs/nfs5/home/research/hardware/arm2/gcc-arm-embedded/gcc-arm-none-eabi-4_8-2014q2/bin/../lib/gcc/arm-none-eabi/4.8.4/../../../../arm-none-eabi/lib/armv7e-m/libg.a(lib_a-strcmp.o)
                              build/obj/shell.o (strcmp)
/nfs/nfs5/home/research/hardware/arm2/gcc-arm-embedded/gcc-arm-none-eabi-4_8-2014q2/bin/../lib/gcc/arm-none-eabi/4.8.4/../../../../arm-none-eabi/lib/armv7e-m/libg.a(lib_a-strpbrk.o)
                              build/obj/shell.o (strpbrk)
/nfs/nfs5/home/research/hardware/arm2/gcc-arm-embedded/gcc-arm-none-eabi-4_8-2014q2/bin/../lib/gcc/arm-none-eabi/4.8.4/../../../../arm-none-eabi/lib/armv7e-m/libg.a(lib_a-strspn.o)
                              build/obj/shell.o (strspn)

Allocating common symbols
Common symbol       size              file

test_global_fail    0x1               build/obj/test.o
SD5                 0x7c              build/obj/serial_lld.o
test_timer_done     0x1               build/obj/test.o
threads             0x14              build/obj/test.o
shell_terminated    0x4               build/obj/shell.o
SDCD1               0x4c              build/obj/sdc_lld.o
test                0x668             build/obj/test.o
SPID2               0x30              build/obj/spi_lld.o
USBD1               0x1d0             build/obj/usb_lld.o
_stm32_dma_isr_redir
                    0x70              build/obj/stm32_dma.o
ch                  0x150             build/obj/chschd.o

Memory Configuration

Name             Origin             Length             Attributes
flash            0x08000000         0x00100000
ram0             0x20000000         0x00018000
ram1             0x00000000         0x00000000
ram2             0x00000000         0x00000000
ram3             0x00000000         0x00000000
ram4             0x10000000         0x00008000
ram5             0x00000000         0x00000000
ram6             0x00000000         0x00000000
ram7             0x00000000         0x00000000
*default*        0x00000000         0xffffffff

Linker script and memory map

LOAD build/obj/crt0_v7m.o
LOAD build/obj/chcoreasm_v7m.o
LOAD build/obj/crt1.o
LOAD build/obj/vectors.o
LOAD build/obj/chsys.o
LOAD build/obj/chdebug.o
LOAD build/obj/chvt.o
LOAD build/obj/chschd.o
LOAD build/obj/chthreads.o
LOAD build/obj/chtm.o
LOAD build/obj/chdynamic.o
LOAD build/obj/chregistry.o
LOAD build/obj/chsem.o
LOAD build/obj/chmtx.o
LOAD build/obj/chcond.o
LOAD build/obj/chevents.o
LOAD build/obj/chmsg.o
LOAD build/obj/chmboxes.o
LOAD build/obj/chqueues.o
LOAD build/obj/chmemcore.o
LOAD build/obj/chheap.o
LOAD build/obj/chmempools.o
LOAD build/obj/chcore.o
LOAD build/obj/chcore_v7m.o
LOAD build/obj/osal.o
LOAD build/obj/hal.o
LOAD build/obj/st.o
LOAD build/obj/hal_buffers.o
LOAD build/obj/hal_queues.o
LOAD build/obj/hal_mmcsd.o
LOAD build/obj/pal.o
LOAD build/obj/sdc.o
LOAD build/obj/serial.o
LOAD build/obj/spi.o
LOAD build/obj/usb.o
LOAD build/obj/nvic.o
LOAD build/obj/hal_lld.o
LOAD build/obj/stm32_dma.o
LOAD build/obj/st_lld.o
LOAD build/obj/pal_lld.o
LOAD build/obj/usb_lld.o
LOAD build/obj/sdc_lld.o
LOAD build/obj/spi_lld.o
LOAD build/obj/serial_lld.o
LOAD build/obj/board.o
LOAD build/obj/test.o
LOAD build/obj/testthd.o
LOAD build/obj/testsem.o
LOAD build/obj/testmtx.o
LOAD build/obj/testmsg.o
LOAD build/obj/testmbox.o
LOAD build/obj/testevt.o
LOAD build/obj/testheap.o
LOAD build/obj/testpools.o
LOAD build/obj/testdyn.o
LOAD build/obj/testqueues.o
LOAD build/obj/testsys.o
LOAD build/obj/testbmk.o
LOAD build/obj/evtimer.o
LOAD build/obj/memstreams.o
LOAD build/obj/chprintf.o
LOAD build/obj/shell.o
LOAD build/obj/main.o
LOAD build/obj/LSM303AGR_ACC_driver.o
LOAD build/obj/SensorTile.o
                0x20000000                __ram0_start__ = ORIGIN (ram0)
                0x00018000                __ram0_size__ = 0x18000
                0x20018000                __ram0_end__ = (__ram0_start__ + __ram0_size__)
                0x00000000                __ram1_start__ = ORIGIN (ram1)
                0x00000000                __ram1_size__ = 0x0
                0x00000000                __ram1_end__ = (__ram1_start__ + __ram1_size__)
                0x00000000                __ram2_start__ = ORIGIN (ram2)
                0x00000000                __ram2_size__ = 0x0
                0x00000000                __ram2_end__ = (__ram2_start__ + __ram2_size__)
                0x00000000                __ram3_start__ = ORIGIN (ram3)
                0x00000000                __ram3_size__ = 0x0
                0x00000000                __ram3_end__ = (__ram3_start__ + __ram3_size__)
                0x10000000                __ram4_start__ = ORIGIN (ram4)
                0x00008000                __ram4_size__ = 0x8000
                0x10008000                __ram4_end__ = (__ram4_start__ + __ram4_size__)
                0x00000000                __ram5_start__ = ORIGIN (ram5)
                0x00000000                __ram5_size__ = 0x0
                0x00000000                __ram5_end__ = (__ram5_start__ + __ram5_size__)
                0x00000000                __ram6_start__ = ORIGIN (ram6)
                0x00000000                __ram6_size__ = 0x0
                0x00000000                __ram6_end__ = (__ram6_start__ + __ram6_size__)
                0x00000000                __ram7_start__ = ORIGIN (ram7)
                0x00000000                __ram7_size__ = 0x0
                0x00000000                __ram7_end__ = (__ram7_start__ + __ram7_size__)
                0x00000000                . = 0x0
                0x00000000                _text = .

startup         0x08000000      0x200
 *(.vectors)
 .vectors       0x08000000      0x200 build/obj/vectors.o
                0x08000000                _vectors

constructors    0x08000200        0x0
                0x08000200                __init_array_start = .
 *(SORT(.init_array.*))
 *(.init_array)
                0x08000200                __init_array_end = .

destructors     0x08000200        0x0
                0x08000200                __fini_array_start = .
 *(.fini_array)
 *(SORT(.fini_array.*))
                0x08000200                __fini_array_end = .

.text           0x08000200    0x16fe0
 *(.text)
 .text          0x08000200       0xd4 build/obj/crt0_v7m.o
                0x08000200                Reset_Handler
 *fill*         0x080002d4        0xc 
 .text          0x080002e0       0x28 build/obj/chcoreasm_v7m.o
                0x080002e0                _port_switch
                0x080002f0                _port_thread_start
                0x08000300                _port_switch_from_isr
                0x08000304                _port_exit_from_isr
 *fill*         0x08000308        0x8 
 .text          0x08000310       0xb0 build/obj/crt1.o
                0x08000310                __core_init
                0x08000330                __late_init
                0x08000340                __default_exit
                0x08000350                __init_ram_areas
 .text          0x080003c0       0x10 build/obj/vectors.o
                0x080003c0                Vector58
                0x080003c0                VectorE8
                0x080003c0                Vector9C
                0x080003c0                VectorAC
                0x080003c0                DebugMon_Handler
                0x080003c0                Vector5C
                0x080003c0                Vector11C
                0x080003c0                HardFault_Handler
                0x080003c0                Vector19C
                0x080003c0                Vector8C
                0x080003c0                VectorDC
                0x080003c0                PendSV_Handler
                0x080003c0                Vector168
                0x080003c0                NMI_Handler
                0x080003c0                Vector110
                0x080003c0                VectorC8
                0x080003c0                Vector94
                0x080003c0                VectorA8
                0x080003c0                VectorB4
                0x080003c0                Vector160
                0x080003c0                UsageFault_Handler
                0x080003c0                VectorEC
                0x080003c0                Vector40
                0x080003c0                VectorF8
                0x080003c0                Vector108
                0x080003c0                VectorBC
                0x080003c0                Vector190
                0x080003c0                Vector148
                0x080003c0                Vector188
                0x080003c0                Vector198
                0x080003c0                Vector118
                0x080003c0                Vector64
                0x080003c0                VectorCC
                0x080003c0                Vector54
                0x080003c0                Vector98
                0x080003c0                VectorD8
                0x080003c0                Vector138
                0x080003c0                Vector24
                0x080003c0                Vector178
                0x080003c0                VectorD0
                0x080003c0                Vector140
                0x080003c0                VectorE4
                0x080003c0                VectorC0
                0x080003c0                Vector158
                0x080003c0                Vector134
                0x080003c0                VectorF0
                0x080003c0                Vector13C
                0x080003c0                Vector100
                0x080003c0                VectorE0
                0x080003c0                VectorF4
                0x080003c0                MemManage_Handler
                0x080003c0                VectorA0
                0x080003c0                VectorC4
                0x080003c0                Vector180
                0x080003c0                VectorB0
                0x080003c0                Vector90
                0x080003c0                Vector164
                0x080003c0                Vector60
                0x080003c0                Vector1C
                0x080003c0                Vector17C
                0x080003c0                Vector48
                0x080003c0                Vector16C
                0x080003c0                VectorD4
                0x080003c0                Vector4C
                0x080003c0                Vector144
                0x080003c0                Vector15C
                0x080003c0                Vector68
                0x080003c0                _unhandled_exception
                0x080003c0                Vector170
                0x080003c0                Vector88
                0x080003c0                Vector184
                0x080003c0                Vector10C
                0x080003c0                BusFault_Handler
                0x080003c0                Vector50
                0x080003c0                Vector194
                0x080003c0                Vector44
                0x080003c0                Vector28
                0x080003c0                VectorB8
                0x080003c0                VectorFC
                0x080003c0                Vector34
                0x080003c0                VectorA4
                0x080003c0                Vector20
                0x080003c0                Vector18C
                0x080003c0                Vector174
 .text          0x080003d0      0x590 build/obj/chsys.o
                0x080006a0                chSysInit
                0x08000720                chSysHalt
                0x08000740                chSysIntegrityCheckI
                0x08000850                chSysTimerHandlerI
                0x08000880                chSysGetStatusAndLockX
                0x080008c0                chSysRestoreStatusX
                0x080008f0                chSysIsCounterWithinX
                0x08000920                chSysPolledDelayX
 .text          0x08000960        0x0 build/obj/chdebug.o
 .text          0x08000960       0xf0 build/obj/chvt.o
                0x08000960                _vt_init
                0x08000990                chVTDoSetI
                0x08000a10                chVTDoResetI
 .text          0x08000a50      0x470 build/obj/chschd.o
                0x08000b80                _scheduler_init
                0x08000ba0                chSchReadyI
                0x08000bf0                chSchGoSleepS
                0x08000cc0                chSchGoSleepTimeoutS
                0x08000d30                chSchWakeupS
                0x08000d80                chSchRescheduleS
                0x08000da0                chSchIsPreemptionRequired
                0x08000df0                chSchDoRescheduleBehind
                0x08000e30                chSchDoRescheduleAhead
                0x08000ea0                chSchDoReschedule
 .text          0x08000ec0      0x720 build/obj/chthreads.o
                0x08001110                _thread_init
                0x08001190                chThdCreateI
                0x080011e0                chThdCreateStatic
                0x08001220                chThdStart
                0x08001240                chThdSetPriority
                0x080012a0                chThdTerminate
                0x080012d0                chThdSleep
                0x080012f0                chThdSleepUntil
                0x08001320                chThdSleepUntilWindowed
                0x08001360                chThdYield
                0x08001370                chThdExit
                0x08001390                chThdExitS
                0x08001400                chThdWait
                0x08001450                chThdSuspendS
                0x08001480                chThdSuspendTimeoutS
                0x080014c0                chThdResumeI
                0x080014f0                chThdResumeS
                0x08001520                chThdResume
                0x08001540                chThdEnqueueTimeoutS
                0x08001580                chThdDequeueNextI
                0x080015b0                chThdDequeueAllI
 .text          0x080015e0      0x170 build/obj/chtm.o
                0x08001660                _tm_init
                0x080016a0                chTMObjectInit
                0x080016d0                chTMStartMeasurementX
                0x080016f0                chTMStopMeasurementX
                0x08001720                chTMChainMeasurementToX
 .text          0x08001750      0x1c0 build/obj/chdynamic.o
                0x08001790                chThdAddRef
                0x080017c0                chThdRelease
                0x08001850                chThdCreateFromHeap
                0x080018b0                chThdCreateFromMemoryPool
 .text          0x08001910       0xc0 build/obj/chregistry.o
                0x08001950                chRegFirstThread
                0x08001980                chRegNextThread
 .text          0x080019d0      0x3e0 build/obj/chsem.o
                0x08001ac0                chSemObjectInit
                0x08001ae0                chSemReset
                0x08001b10                chSemResetI
                0x08001b50                chSemWait
                0x08001b70                chSemWaitS
                0x08001bc0                chSemWaitTimeout
                0x08001bf0                chSemWaitTimeoutS
                0x08001c50                chSemSignal
                0x08001c90                chSemSignalI
                0x08001cd0                chSemAddCounterI
                0x08001d20                chSemSignalWait
 .text          0x08001db0      0x480 build/obj/chmtx.o
                0x08001ef0                chMtxObjectInit
                0x08001f10                chMtxLock
                0x08001f30                chMtxLockS
                0x08001ff0                chMtxTryLock
                0x08002020                chMtxTryLockS
                0x08002060                chMtxUnlock
                0x08002110                chMtxUnlockS
                0x080021b0                chMtxUnlockAll
 .text          0x08002230      0x300 build/obj/chcond.o
                0x08002350                chCondObjectInit
                0x08002370                chCondSignal
                0x080023b0                chCondSignalI
                0x080023e0                chCondBroadcast
                0x08002400                chCondBroadcastI
                0x08002440                chCondWait
                0x08002460                chCondWaitS
                0x080024b0                chCondWaitTimeout
                0x080024e0                chCondWaitTimeoutS
 .text          0x08002530      0x590 build/obj/chevents.o
                0x08002570                chEvtRegisterMaskWithFlags
                0x080025c0                chEvtUnregister
                0x08002600                chEvtGetAndClearEvents
                0x08002640                chEvtAddEvents
                0x08002680                chEvtBroadcastFlagsI
                0x080026e0                chEvtGetAndClearFlags
                0x08002710                chEvtSignal
                0x08002740                chEvtSignalI
                0x080027a0                chEvtBroadcastFlags
                0x080027d0                chEvtGetAndClearFlagsI
                0x080027f0                chEvtDispatch
                0x08002840                chEvtWaitOne
                0x080028a0                chEvtWaitAny
                0x08002900                chEvtWaitAll
                0x08002950                chEvtWaitOneTimeout
                0x080029d0                chEvtWaitAnyTimeout
                0x08002a50                chEvtWaitAllTimeout
 .text          0x08002ac0      0x1b0 build/obj/chmsg.o
                0x08002ba0                chMsgSend
                0x08002c00                chMsgWait
                0x08002c50                chMsgRelease
 .text          0x08002c70      0x410 build/obj/chmboxes.o
                0x08002ce0                chMBObjectInit
                0x08002d30                chMBReset
                0x08002d50                chMBResetI
                0x08002da0                chMBPost
                0x08002dd0                chMBPostS
                0x08002e30                chMBPostI
                0x08002e90                chMBPostAhead
                0x08002ec0                chMBPostAheadS
                0x08002f20                chMBPostAheadI
                0x08002f90                chMBFetch
                0x08002fc0                chMBFetchS
                0x08003020                chMBFetchI
 .text          0x08003080      0x570 build/obj/chqueues.o
                0x080031a0                chIQObjectInit
                0x080031f0                chIQResetI
                0x08003220                chIQPutI
                0x08003280                chIQGetTimeout
                0x08003310                chIQReadTimeout
                0x080033c0                chOQObjectInit
                0x08003410                chOQResetI
                0x08003450                chOQPutTimeout
                0x080034e0                chOQGetI
                0x08003540                chOQWriteTimeout
 .text          0x080035f0      0x100 build/obj/chmemcore.o
                0x08003630                _core_init
                0x08003660                chCoreAlloc
                0x08003680                chCoreAllocI
                0x080036d0                chCoreGetStatusX
 .text          0x080036f0      0x2a0 build/obj/chheap.o
                0x080036f0                _heap_init
                0x08003720                chHeapObjectInit
                0x08003760                chHeapAlloc
                0x08003850                chHeapFree
                0x08003920                chHeapStatus
 .text          0x08003990      0x150 build/obj/chmempools.o
                0x080039f0                chPoolObjectInit
                0x08003a10                chPoolLoadArray
                0x08003a40                chPoolAllocI
                0x08003a80                chPoolAlloc
                0x08003aa0                chPoolFreeI
                0x08003ac0                chPoolFree
 .text          0x08003ae0        0x0 build/obj/chcore.o
 .text          0x08003ae0       0xe0 build/obj/chcore_v7m.o
                0x08003b20                SVC_Handler
                0x08003b50                _port_irq_epilogue
 .text          0x08003bc0        0x0 build/obj/osal.o
 .text          0x08003bc0       0x40 build/obj/hal.o
                0x08003bd0                halInit
 .text          0x08003c00       0xc0 build/obj/st.o
                0x08003c50                stInit
                0x08003c60                stStartAlarm
                0x08003c80                stStopAlarm
                0x08003c90                stSetAlarm
                0x08003cb0                stGetAlarm
 .text          0x08003cc0      0x9b0 build/obj/hal_buffers.o
                0x08003e00                ibqObjectInit
                0x08003e70                ibqResetI
                0x08003eb0                ibqGetEmptyBufferI
                0x08003ef0                ibqPostFullBufferI
                0x08003f40                ibqGetFullBufferTimeout
                0x08003f70                ibqGetFullBufferTimeoutS
                0x08003fc0                ibqReleaseEmptyBuffer
                0x08003fe0                ibqReleaseEmptyBufferS
                0x08004030                ibqGetTimeout
                0x08004090                ibqReadTimeout
                0x080041b0                obqObjectInit
                0x08004220                obqResetI
                0x08004260                obqGetFullBufferI
                0x080042b0                obqReleaseEmptyBufferI
                0x08004300                obqGetEmptyBufferTimeout
                0x08004330                obqGetEmptyBufferTimeoutS
                0x08004380                obqPostFullBuffer
                0x080043a0                obqPostFullBufferS
                0x08004400                obqPutTimeout
                0x08004470                obqWriteTimeout
                0x080045a0                obqTryFlushI
                0x08004630                obqFlush
 .text          0x08004670        0x0 build/obj/hal_queues.o
 .text          0x08004670      0x950 build/obj/hal_mmcsd.o
                0x08004670                _mmcsd_get_slice
                0x080046f0                _mmcsd_get_capacity
                0x08004760                _mmcsd_get_capacity_ext
                0x08004790                _mmcsd_unpack_sdc_cid
                0x080048a0                _mmcsd_unpack_mmc_cid
                0x080049c0                _mmcsd_unpack_csd_mmc
                0x08004c10                _mmcsd_unpack_csd_v10
                0x08004df0                _mmcsd_unpack_csd_v20
 .text          0x08004fc0       0x90 build/obj/pal.o
                0x08004fc0                palReadBus
                0x08004fe0                palWriteBus
                0x08005020                palSetBusMode
 .text          0x08005050      0xb40 build/obj/sdc.o
                0x08005660                _sdc_wait_for_transfer_state
                0x080056c0                sdcInit
                0x080056d0                sdcObjectInit
                0x08005700                sdcStart
                0x08005730                sdcStop
                0x08005750                sdcConnect
                0x08005910                sdcDisconnect
                0x08005970                sdcRead
                0x080059d0                sdcWrite
                0x08005a30                sdcGetAndClearErrors
                0x08005a60                sdcSync
                0x08005aa0                sdcGetInfo
                0x08005ad0                sdcErase
 .text          0x08005b90      0x430 build/obj/serial.o
                0x08005df0                sdInit
                0x08005e00                sdObjectInit
                0x08005e60                sdStart
                0x08005e90                sdStop
                0x08005ed0                sdIncomingDataI
                0x08005f30                sdRequestDataI
                0x08005f60                sdPutWouldBlock
                0x08005f90                sdGetWouldBlock
 .text          0x08005fc0      0x3a0 build/obj/spi.o
                0x080060a0                spiInit
                0x080060b0                spiObjectInit
                0x080060e0                spiStart
                0x08006110                spiStop
                0x08006130                spiSelect
                0x08006150                spiUnselect
                0x08006170                spiStartIgnore
                0x080061a0                spiStartExchange
                0x080061d0                spiStartSend
                0x08006200                spiStartReceive
                0x08006230                spiIgnore
                0x08006260                spiExchange
                0x080062a0                spiSend
                0x080062e0                spiReceive
                0x08006320                spiAcquireBus
                0x08006340                spiReleaseBus
 .text          0x08006360      0xc20 build/obj/usb.o
                0x08006880                usbInit
                0x08006890                usbObjectInit
                0x080068e0                usbStart
                0x08006930                usbStop
                0x08006980                usbInitEndpointI
                0x080069e0                usbDisableEndpointsI
                0x08006a30                usbStartReceiveI
                0x08006a90                usbStartTransmitI
                0x08006af0                usbStallReceiveI
                0x08006b30                usbStallTransmitI
                0x08006b70                _usb_reset
                0x08006bf0                _usb_suspend
                0x08006c30                _usb_wakeup
                0x08006c60                _usb_ep0setup
                0x08006dc0                _usb_ep0in
                0x08006ec0                _usb_ep0out
 .text          0x08006f80       0xe0 build/obj/nvic.o
                0x08006f80                nvicEnableVector
                0x08006fd0                nvicDisableVector
                0x08007010                nvicSetSystemHandlerPriority
                0x08007030                nvicClearPending
 .text          0x08007060      0x2c0 build/obj/hal_lld.o
                0x080070d0                hal_lld_init
                0x08007180                stm32_clock_init
 .text          0x08007320      0x800 build/obj/stm32_dma.o
                0x08007320                Vector6C
                0x08007390                Vector70
                0x08007400                Vector74
                0x08007470                Vector78
                0x080074e0                Vector7C
                0x08007550                Vector80
                0x080075c0                Vector84
                0x08007630                Vector120
                0x080076a0                Vector124
                0x08007710                Vector128
                0x08007780                Vector12C
                0x080077f0                Vector130
                0x08007860                Vector150
                0x080078d0                Vector154
                0x08007940                dmaInit
                0x080079a0                dmaStreamAllocate
                0x08007a80                dmaStreamRelease
 .text          0x08007b20       0xe0 build/obj/st_lld.o
                0x08007bb0                SysTick_Handler
                0x08007bd0                st_lld_init
 .text          0x08007c00      0x2b0 build/obj/pal_lld.o
                0x08007c60                _pal_lld_init
                0x08007d00                _pal_lld_setgroupmode
 .text          0x08007eb0     0x1720 build/obj/usb_lld.o
                0x08008ac0                Vector14C
                0x08008ae0                usb_lld_init
                0x08008b10                usb_lld_start
                0x08008c30                usb_lld_stop
                0x08008c90                usb_lld_reset
                0x08008dc0                usb_lld_set_address
                0x08008df0                usb_lld_init_endpoint
                0x08009050                usb_lld_disable_endpoints
                0x08009070                usb_lld_get_status_out
                0x080090b0                usb_lld_get_status_in
                0x080090f0                usb_lld_read_setup
                0x08009120                usb_lld_start_out
                0x08009260                usb_lld_start_in
                0x080093c0                usb_lld_stall_out
                0x08009400                usb_lld_stall_in
                0x08009440                usb_lld_clear_out
                0x08009480                usb_lld_clear_in
                0x080094c0                usb_lld_pump
 .text          0x080095d0      0xc80 build/obj/sdc_lld.o
                0x08009a80                Vector104
                0x08009ab0                sdc_lld_init
                0x08009ae0                sdc_lld_start
                0x08009b70                sdc_lld_stop
                0x08009bd0                sdc_lld_start_clk
                0x08009c10                sdc_lld_set_data_clk
                0x08009c30                sdc_lld_stop_clk
                0x08009c50                sdc_lld_set_bus_mode
                0x08009ca0                sdc_lld_send_cmd_none
                0x08009ce0                sdc_lld_send_cmd_short
                0x08009d60                sdc_lld_send_cmd_short_crc
                0x08009de0                sdc_lld_send_cmd_long_crc
                0x08009e80                sdc_lld_read_special
                0x08009f00                sdc_lld_read_aligned
                0x0800a010                sdc_lld_write_aligned
                0x0800a120                sdc_lld_read
                0x0800a1b0                sdc_lld_write
                0x0800a240                sdc_lld_sync
 .text          0x0800a250      0x930 build/obj/spi_lld.o
                0x0800a420                spi_lld_init
                0x0800a460                spi_lld_start
                0x0800a580                spi_lld_stop
                0x0800a5e0                spi_lld_select
                0x0800a600                spi_lld_unselect
                0x0800a620                spi_lld_ignore
                0x0800a720                spi_lld_exchange
                0x0800a830                spi_lld_send
                0x0800a930                spi_lld_receive
                0x0800aa30                spi_lld_polled_exchange
                0x0800aaa0                spi_lld_polled_tx
                0x0800ab00                spi_lld_polled_rx
 .text          0x0800ab80      0x3d0 build/obj/serial_lld.o
                0x0800ae60                Vector114
                0x0800ae80                sd_lld_init
                0x0800aec0                sd_lld_start
                0x0800af10                sd_lld_stop
 .text          0x0800af50       0x40 build/obj/board.o
                0x0800af50                __early_init
                0x0800af60                sdc_lld_is_card_inserted
                0x0800af70                sdc_lld_is_write_protected
                0x0800af80                boardInit
 .text          0x0800af90      0x7c0 build/obj/test.o
                0x0800b100                test_printn
                0x0800b190                test_print
                0x0800b1d0                test_println
                0x0800b250                test_emit_token
                0x0800b280                _test_fail
                0x0800b2b0                _test_assert
                0x0800b2e0                _test_assert_sequence
                0x0800b340                _test_assert_time_window
                0x0800b370                test_terminate_threads
                0x0800b3b0                test_wait_threads
                0x0800b400                test_wait_tick
                0x0800b440                test_start_timer
                0x0800b540                TestThread
 .text          0x0800b750      0x560 build/obj/testthd.o
 .text          0x0800bcb0      0x800 build/obj/testsem.o
 .text          0x0800c4b0      0xa80 build/obj/testmtx.o
 .text          0x0800cf30      0x110 build/obj/testmsg.o
 .text          0x0800d040      0x8d0 build/obj/testmbox.o
 .text          0x0800d910      0x700 build/obj/testevt.o
 .text          0x0800e010      0x300 build/obj/testheap.o
 .text          0x0800e310      0x150 build/obj/testpools.o
 .text          0x0800e460      0x570 build/obj/testdyn.o
 .text          0x0800e9d0      0x7f0 build/obj/testqueues.o
 .text          0x0800f1c0      0x450 build/obj/testsys.o
 .text          0x0800f610      0xba0 build/obj/testbmk.o
 .text          0x080101b0      0x200 build/obj/evtimer.o
                0x08010350                evtObjectInit
                0x08010380                evtStart
 .text          0x080103b0      0x180 build/obj/memstreams.o
                0x08010500                msObjectInit
 .text          0x08010530      0x5b0 build/obj/chprintf.o
                0x080105f0                chvprintf
                0x08010a50                chprintf
                0x08010a80                chsnprintf
 .text          0x08010ae0      0x600 build/obj/shell.o
                0x08010f60                shellInit
                0x08010f70                shellExit
                0x08010f90                shellCreate
                0x08010fc0                shellCreateStatic
                0x08010ff0                shellGetLine
 .text          0x080110e0      0x190 build/obj/main.o
                0x080111d0                main
 .text          0x08011270     0x4010 build/obj/LSM303AGR_ACC_driver.o
                0x08011270                LSM303AGR_ACC_Init
                0x080112a0                LSM303AGR_ACC_WriteReg
                0x080112f0                LSM303AGR_ACC_ReadReg
                0x08011340                LSM303AGR_ACC_R_WHO_AM_I
                0x08011370                LSM303AGR_ACC_W_BlockDataUpdate
                0x080113e0                LSM303AGR_ACC_R_BlockDataUpdate
                0x08011420                LSM303AGR_ACC_W_FullScale
                0x08011490                LSM303AGR_ACC_R_FullScale
                0x080114d0                LSM303AGR_ACC_Get_Raw_Acceleration
                0x08011500                LSM303AGR_ACC_Get_Acceleration
                0x08011710                LSM303AGR_ACC_W_ODR
                0x08011780                LSM303AGR_ACC_R_ODR
                0x080117c0                LSM303AGR_ACC_R_x_data_avail
                0x08011800                LSM303AGR_ACC_R_y_data_avail
                0x08011840                LSM303AGR_ACC_R_z_data_avail
                0x08011880                LSM303AGR_ACC_R_xyz_data_avail
                0x080118c0                LSM303AGR_ACC_R_DataXOverrun
                0x08011900                LSM303AGR_ACC_R_DataYOverrun
                0x08011940                LSM303AGR_ACC_R_DataZOverrun
                0x08011980                LSM303AGR_ACC_R_DataXYZOverrun
                0x080119c0                LSM303AGR_ACC_R_int_counter
                0x08011a00                LSM303AGR_ACC_W_TEMP_EN_bits
                0x08011a70                LSM303AGR_ACC_R_TEMP_EN_bits
                0x08011ab0                LSM303AGR_ACC_W_ADC_PD
                0x08011b20                LSM303AGR_ACC_R_ADC_PD
                0x08011b60                LSM303AGR_ACC_W_XEN
                0x08011bd0                LSM303AGR_ACC_R_XEN
                0x08011c10                LSM303AGR_ACC_W_YEN
                0x08011c80                LSM303AGR_ACC_R_YEN
                0x08011cc0                LSM303AGR_ACC_W_ZEN
                0x08011d30                LSM303AGR_ACC_R_ZEN
                0x08011d70                LSM303AGR_ACC_W_LOWPWR_EN
                0x08011de0                LSM303AGR_ACC_R_LOWPWR_EN
                0x08011e20                LSM303AGR_ACC_W_hpf_aoi_en_int1
                0x08011e90                LSM303AGR_ACC_R_hpf_aoi_en_int1
                0x08011ed0                LSM303AGR_ACC_W_hpf_aoi_en_int2
                0x08011f40                LSM303AGR_ACC_R_hpf_aoi_en_int2
                0x08011f80                LSM303AGR_ACC_W_hpf_click_en
                0x08011ff0                LSM303AGR_ACC_R_hpf_click_en
                0x08012030                LSM303AGR_ACC_W_Data_Filter
                0x080120a0                LSM303AGR_ACC_R_Data_Filter
                0x080120e0                LSM303AGR_ACC_W_hpf_cutoff_freq
                0x08012150                LSM303AGR_ACC_R_hpf_cutoff_freq
                0x08012190                LSM303AGR_ACC_W_hpf_mode
                0x08012200                LSM303AGR_ACC_R_hpf_mode
                0x08012240                LSM303AGR_ACC_W_FIFO_Overrun_on_INT1
                0x080122b0                LSM303AGR_ACC_R_FIFO_Overrun_on_INT1
                0x080122f0                LSM303AGR_ACC_W_FIFO_Watermark_on_INT1
                0x08012360                LSM303AGR_ACC_R_FIFO_Watermark_on_INT1
                0x080123a0                LSM303AGR_ACC_W_FIFO_DRDY2_on_INT1
                0x08012410                LSM303AGR_ACC_R_FIFO_DRDY2_on_INT1
                0x08012450                LSM303AGR_ACC_W_FIFO_DRDY1_on_INT1
                0x080124c0                LSM303AGR_ACC_R_FIFO_DRDY1_on_INT1
                0x08012500                LSM303AGR_ACC_W_FIFO_AOL2_on_INT1
                0x08012570                LSM303AGR_ACC_R_FIFO_AOL2_on_INT1
                0x080125b0                LSM303AGR_ACC_W_FIFO_AOL1_on_INT1
                0x08012620                LSM303AGR_ACC_R_FIFO_AOL1_on_INT1
                0x08012660                LSM303AGR_ACC_W_FIFO_Click_on_INT1
                0x080126d0                LSM303AGR_ACC_R_FIFO_Click_on_INT1
                0x08012710                LSM303AGR_ACC_W_SPI_mode
                0x08012780                LSM303AGR_ACC_R_SPI_mode
                0x080127c0                LSM303AGR_ACC_W_SelfTest
                0x08012830                LSM303AGR_ACC_R_SelfTest
                0x08012870                LSM303AGR_ACC_W_HiRes
                0x080128e0                LSM303AGR_ACC_R_HiRes
                0x08012920                LSM303AGR_ACC_W_LittleBigEndian
                0x08012990                LSM303AGR_ACC_R_LittleBigEndian
                0x080129d0                LSM303AGR_ACC_W_4D_on_INT2
                0x08012a40                LSM303AGR_ACC_R_4D_on_INT2
                0x08012a80                LSM303AGR_ACC_W_LatchInterrupt_on_INT2
                0x08012af0                LSM303AGR_ACC_R_LatchInterrupt_on_INT2
                0x08012b30                LSM303AGR_ACC_W_4D_on_INT1
                0x08012ba0                LSM303AGR_ACC_R_4D_on_INT1
                0x08012be0                LSM303AGR_ACC_W_LatchInterrupt_on_INT1
                0x08012c50                LSM303AGR_ACC_R_LatchInterrupt_on_INT1
                0x08012c90                LSM303AGR_ACC_W_FIFO_EN
                0x08012d00                LSM303AGR_ACC_R_FIFO_EN
                0x08012d40                LSM303AGR_ACC_W_RebootMemory
                0x08012db0                LSM303AGR_ACC_R_RebootMemory
                0x08012df0                LSM303AGR_ACC_W_IntActive
                0x08012e60                LSM303AGR_ACC_R_IntActive
                0x08012ea0                LSM303AGR_ACC_W_P2_ACT
                0x08012f10                LSM303AGR_ACC_R_P2_ACT
                0x08012f50                LSM303AGR_ACC_W_Boot_on_INT2
                0x08012fc0                LSM303AGR_ACC_R_Boot_on_INT2
                0x08013000                LSM303AGR_ACC_W_I2_on_INT2
                0x08013070                LSM303AGR_ACC_R_I2_on_INT2
                0x080130b0                LSM303AGR_ACC_W_I2_on_INT1
                0x08013120                LSM303AGR_ACC_R_I2_on_INT1
                0x08013160                LSM303AGR_ACC_W_Click_on_INT2
                0x080131d0                LSM303AGR_ACC_R_Click_on_INT2
                0x08013210                LSM303AGR_ACC_W_ReferenceVal
                0x08013270                LSM303AGR_ACC_R_ReferenceVal
                0x080132b0                LSM303AGR_ACC_R_XDataAvail
                0x080132f0                LSM303AGR_ACC_R_YDataAvail
                0x08013330                LSM303AGR_ACC_R_ZDataAvail
                0x08013370                LSM303AGR_ACC_R_XYZDataAvail
                0x080133b0                LSM303AGR_ACC_R_XDataOverrun
                0x080133f0                LSM303AGR_ACC_R_YDataOverrun
                0x08013430                LSM303AGR_ACC_R_ZDataOverrun
                0x08013470                LSM303AGR_ACC_R_XYZDataOverrun
                0x080134b0                LSM303AGR_ACC_W_FifoThreshold
                0x08013530                LSM303AGR_ACC_R_FifoThreshold
                0x08013570                LSM303AGR_ACC_W_TriggerSel
                0x080135e0                LSM303AGR_ACC_R_TriggerSel
                0x08013620                LSM303AGR_ACC_W_FifoMode
                0x08013690                LSM303AGR_ACC_R_FifoMode
                0x080136d0                LSM303AGR_ACC_R_FifoSamplesAvail
                0x08013710                LSM303AGR_ACC_R_FifoEmpty
                0x08013750                LSM303AGR_ACC_R_FifoOverrun
                0x08013790                LSM303AGR_ACC_R_WatermarkLevel
                0x080137d0                LSM303AGR_ACC_W_Int1EnXLo
                0x08013840                LSM303AGR_ACC_R_Int1EnXLo
                0x08013880                LSM303AGR_ACC_W_Int1EnXHi
                0x080138f0                LSM303AGR_ACC_R_Int1EnXHi
                0x08013930                LSM303AGR_ACC_W_Int1EnYLo
                0x080139a0                LSM303AGR_ACC_R_Int1EnYLo
                0x080139e0                LSM303AGR_ACC_W_Int1EnYHi
                0x08013a50                LSM303AGR_ACC_R_Int1EnYHi
                0x08013a90                LSM303AGR_ACC_W_Int1EnZLo
                0x08013b00                LSM303AGR_ACC_R_Int1EnZLo
                0x08013b40                LSM303AGR_ACC_W_Int1EnZHi
                0x08013bb0                LSM303AGR_ACC_R_Int1EnZHi
                0x08013bf0                LSM303AGR_ACC_W_Int1_6D
                0x08013c60                LSM303AGR_ACC_R_Int1_6D
                0x08013ca0                LSM303AGR_ACC_W_Int1_AOI
                0x08013d10                LSM303AGR_ACC_R_Int1_AOI
                0x08013d50                LSM303AGR_ACC_W_Int2EnXLo
                0x08013dc0                LSM303AGR_ACC_R_Int2EnXLo
                0x08013e00                LSM303AGR_ACC_W_Int2EnXHi
                0x08013e70                LSM303AGR_ACC_R_Int2EnXHi
                0x08013eb0                LSM303AGR_ACC_W_Int2EnYLo
                0x08013f20                LSM303AGR_ACC_R_Int2EnYLo
                0x08013f60                LSM303AGR_ACC_W_Int2EnYHi
                0x08013fd0                LSM303AGR_ACC_R_Int2EnYHi
                0x08014010                LSM303AGR_ACC_W_Int2EnZLo
                0x08014080                LSM303AGR_ACC_R_Int2EnZLo
                0x080140c0                LSM303AGR_ACC_W_Int2EnZHi
                0x08014130                LSM303AGR_ACC_R_Int2EnZHi
                0x08014170                LSM303AGR_ACC_W_Int2_6D
                0x080141e0                LSM303AGR_ACC_R_Int2_6D
                0x08014220                LSM303AGR_ACC_W_Int2_AOI
                0x08014290                LSM303AGR_ACC_R_Int2_AOI
                0x080142d0                LSM303AGR_ACC_R_Int1_Xlo
                0x08014310                LSM303AGR_ACC_R_Int1_XHi
                0x08014350                LSM303AGR_ACC_R_Int1_YLo
                0x08014390                LSM303AGR_ACC_R_Int1_YHi
                0x080143d0                LSM303AGR_ACC_R_Int1_Zlo
                0x08014410                LSM303AGR_ACC_R_Int1_ZHi
                0x08014450                LSM303AGR_ACC_R_Int1_IA
                0x08014490                LSM303AGR_ACC_R_Int2_Xlo
                0x080144d0                LSM303AGR_ACC_R_Int2_XHi
                0x08014510                LSM303AGR_ACC_R_Int2_YLo
                0x08014550                LSM303AGR_ACC_R_Int2_YHi
                0x08014590                LSM303AGR_ACC_R_Int2_Zlo
                0x080145d0                LSM303AGR_ACC_R_Int2_ZHi
                0x08014610                LSM303AGR_ACC_R_Int2_IA
                0x08014650                LSM303AGR_ACC_W_Int1_Threshold
                0x080146d0                LSM303AGR_ACC_R_Int1_Threshold
                0x08014710                LSM303AGR_ACC_W_Int2_Threshold
                0x08014790                LSM303AGR_ACC_R_Int2_Threshold
                0x080147d0                LSM303AGR_ACC_W_Int1_Duration
                0x08014850                LSM303AGR_ACC_R_Int1_Duration
                0x08014890                LSM303AGR_ACC_W_Int2_Duration
                0x08014910                LSM303AGR_ACC_R_Int2_Duration
                0x08014950                LSM303AGR_ACC_W_XSingle
                0x080149c0                LSM303AGR_ACC_R_XSingle
                0x08014a00                LSM303AGR_ACC_W_XDouble
                0x08014a70                LSM303AGR_ACC_R_XDouble
                0x08014ab0                LSM303AGR_ACC_W_YSingle
                0x08014b20                LSM303AGR_ACC_R_YSingle
                0x08014b60                LSM303AGR_ACC_W_YDouble
                0x08014bd0                LSM303AGR_ACC_R_YDouble
                0x08014c10                LSM303AGR_ACC_W_ZSingle
                0x08014c80                LSM303AGR_ACC_R_ZSingle
                0x08014cc0                LSM303AGR_ACC_W_ZDouble
                0x08014d30                LSM303AGR_ACC_R_ZDouble
                0x08014d70                LSM303AGR_ACC_R_ClickX
                0x08014db0                LSM303AGR_ACC_R_ClickY
                0x08014df0                LSM303AGR_ACC_R_ClickZ
                0x08014e30                LSM303AGR_ACC_R_ClickSign
                0x08014e70                LSM303AGR_ACC_R_SingleCLICK
                0x08014eb0                LSM303AGR_ACC_R_DoubleCLICK
                0x08014ef0                LSM303AGR_ACC_R_CLICK_IA
                0x08014f30                LSM303AGR_ACC_W_ClickThreshold
                0x08014fb0                LSM303AGR_ACC_R_ClickThreshold
                0x08014ff0                LSM303AGR_ACC_W_ClickTimeLimit
                0x08015070                LSM303AGR_ACC_R_ClickTimeLimit
                0x080150b0                LSM303AGR_ACC_W_ClickTimeLatency
                0x08015110                LSM303AGR_ACC_R_ClickTimeLatency
                0x08015150                LSM303AGR_ACC_W_ClickTimeWindow
                0x080151b0                LSM303AGR_ACC_R_ClickTimeWindow
                0x080151f0                LSM303AGR_ACC_Get_Voltage_ADC
 .text          0x08015280      0x1a0 build/obj/SensorTile.o
                0x08015280                Sensor_IO_SPI_Write
                0x08015340                Sensor_IO_SPI_Read
 .text          0x08015420       0x38 /nfs/nfs5/home/research/hardware/arm2/gcc-arm-embedded/gcc-arm-none-eabi-4_8-2014q2/bin/../lib/gcc/arm-none-eabi/4.8.4/armv7e-m/libgcc.a(_aeabi_ldivmod.o)
                0x08015420                __aeabi_ldivmod
 *fill*         0x08015458        0x8 
 .text          0x08015460       0x60 /nfs/nfs5/home/research/hardware/arm2/gcc-arm-embedded/gcc-arm-none-eabi-4_8-2014q2/bin/../lib/gcc/arm-none-eabi/4.8.4/armv7e-m/libgcc.a(bpabi.o)
                0x08015460                __gnu_ldivmod_helper
                0x08015490                __gnu_uldivmod_helper
 .text          0x080154c0        0x4 /nfs/nfs5/home/research/hardware/arm2/gcc-arm-embedded/gcc-arm-none-eabi-4_8-2014q2/bin/../lib/gcc/arm-none-eabi/4.8.4/armv7e-m/libgcc.a(_dvmd_tls.o)
                0x080154c0                __aeabi_ldiv0
                0x080154c0                __aeabi_idiv0
 *fill*         0x080154c4        0xc 
 .text          0x080154d0      0x298 /nfs/nfs5/home/research/hardware/arm2/gcc-arm-embedded/gcc-arm-none-eabi-4_8-2014q2/bin/../lib/gcc/arm-none-eabi/4.8.4/armv7e-m/libgcc.a(_divdi3.o)
                0x080154d0                __divdi3
 *fill*         0x08015768        0x8 
 .text          0x08015770      0x284 /nfs/nfs5/home/research/hardware/arm2/gcc-arm-embedded/gcc-arm-none-eabi-4_8-2014q2/bin/../lib/gcc/arm-none-eabi/4.8.4/armv7e-m/libgcc.a(_udivdi3.o)
                0x08015770                __udivdi3
 *fill*         0x080159f4        0xc 
 .text          0x08015a00      0x134 /nfs/nfs5/home/research/hardware/arm2/gcc-arm-embedded/gcc-arm-none-eabi-4_8-2014q2/bin/../lib/gcc/arm-none-eabi/4.8.4/../../../../arm-none-eabi/lib/armv7e-m/libg.a(lib_a-memcpy.o)
                0x08015a00                memcpy
 *fill*         0x08015b34        0xc 
 .text          0x08015b40        0x0 /nfs/nfs5/home/research/hardware/arm2/gcc-arm-embedded/gcc-arm-none-eabi-4_8-2014q2/bin/../lib/gcc/arm-none-eabi/4.8.4/../../../../arm-none-eabi/lib/armv7e-m/libg.a(lib_a-memset.o)
 .text          0x08015b40      0x21c /nfs/nfs5/home/research/hardware/arm2/gcc-arm-embedded/gcc-arm-none-eabi-4_8-2014q2/bin/../lib/gcc/arm-none-eabi/4.8.4/../../../../arm-none-eabi/lib/armv7e-m/libg.a(lib_a-strcmp.o)
                0x08015b40                strcmp
 *fill*         0x08015d5c        0x4 
 .text          0x08015d60        0x0 /nfs/nfs5/home/research/hardware/arm2/gcc-arm-embedded/gcc-arm-none-eabi-4_8-2014q2/bin/../lib/gcc/arm-none-eabi/4.8.4/../../../../arm-none-eabi/lib/armv7e-m/libg.a(lib_a-strpbrk.o)
 .text          0x08015d60        0x0 /nfs/nfs5/home/research/hardware/arm2/gcc-arm-embedded/gcc-arm-none-eabi-4_8-2014q2/bin/../lib/gcc/arm-none-eabi/4.8.4/../../../../arm-none-eabi/lib/armv7e-m/libg.a(lib_a-strspn.o)
 *(.text.*)
 .text.memset   0x08015d60       0x94 /nfs/nfs5/home/research/hardware/arm2/gcc-arm-embedded/gcc-arm-none-eabi-4_8-2014q2/bin/../lib/gcc/arm-none-eabi/4.8.4/../../../../arm-none-eabi/lib/armv7e-m/libg.a(lib_a-memset.o)
                0x08015d60                memset
 *fill*         0x08015df4        0xc 
 .text.strpbrk  0x08015e00       0x50 /nfs/nfs5/home/research/hardware/arm2/gcc-arm-embedded/gcc-arm-none-eabi-4_8-2014q2/bin/../lib/gcc/arm-none-eabi/4.8.4/../../../../arm-none-eabi/lib/armv7e-m/libg.a(lib_a-strpbrk.o)
                0x08015e00                strpbrk
 .text.strspn   0x08015e50       0x40 /nfs/nfs5/home/research/hardware/arm2/gcc-arm-embedded/gcc-arm-none-eabi-4_8-2014q2/bin/../lib/gcc/arm-none-eabi/4.8.4/../../../../arm-none-eabi/lib/armv7e-m/libg.a(lib_a-strspn.o)
                0x08015e50                strspn
 *(.rodata)
 .rodata        0x08015e90       0x80 build/obj/crt1.o
 .rodata        0x08015f10        0x8 build/obj/chsys.o
 *fill*         0x08015f18        0x8 
 .rodata        0x08015f20       0x18 build/obj/chregistry.o
                0x08015f20                ch_debug
 *fill*         0x08015f38        0x8 
 .rodata        0x08015f40       0x20 build/obj/sdc.o
 .rodata        0x08015f60       0x20 build/obj/serial.o
 .rodata        0x08015f80        0xc build/obj/usb.o
 *fill*         0x08015f8c        0x4 
 .rodata        0x08015f90      0x118 build/obj/stm32_dma.o
                0x08015f90                _stm32_dma_streams
 *fill*         0x080160a8        0x8 
 .rodata        0x080160b0       0x40 build/obj/usb_lld.o
 .rodata        0x080160f0        0x8 build/obj/sdc_lld.o
 *fill*         0x080160f8        0x8 
 .rodata        0x08016100       0x10 build/obj/spi_lld.o
 .rodata        0x08016110       0x10 build/obj/serial_lld.o
 .rodata        0x08016120      0x120 build/obj/board.o
                0x08016120                pal_default_config
 .rodata        0x08016240      0x210 build/obj/test.o
                0x08016240                wa
 .rodata        0x08016450       0xd4 build/obj/testthd.o
                0x08016488                testthd1
                0x080164b4                testthd2
                0x080164e0                testthd3
                0x08016500                testthd4
                0x08016510                patternthd
 *fill*         0x08016524        0xc 
 .rodata        0x08016530       0xe0 build/obj/testsem.o
                0x08016564                testsem1
                0x08016588                testsem2
                0x080165b8                testsem3
                0x080165ec                testsem4
                0x080165fc                patternsem
 .rodata        0x08016610      0x130 build/obj/testmtx.o
                0x08016650                testmtx1
                0x0801667c                testmtx4
                0x0801669c                testmtx5
                0x080166c4                testmtx6
                0x080166ec                testmtx7
                0x08016714                testmtx8
                0x08016724                patternmtx
 .rodata        0x08016740       0x2c build/obj/testmsg.o
                0x08016754                testmsg1
                0x08016764                patternmsg
 *fill*         0x0801676c        0x4 
 .rodata        0x08016770       0x40 build/obj/testmbox.o
                0x08016798                testmbox1
                0x080167a8                patternmbox
 .rodata        0x080167b0       0xa8 build/obj/testevt.o
                0x080167e4                testevt1
                0x08016814                testevt2
                0x08016838                testevt3
                0x08016848                patternevt
 *fill*         0x08016858        0x8 
 .rodata        0x08016860       0x40 build/obj/testheap.o
                0x08016888                testheap1
                0x08016898                patternheap
 .rodata        0x080168a0       0x34 build/obj/testpools.o
                0x080168bc                testpools1
                0x080168cc                patternpools
 *fill*         0x080168d4        0xc 
 .rodata        0x080168e0       0xe4 build/obj/testdyn.o
                0x0801691c                testdyn1
                0x0801696c                testdyn2
                0x080169a4                testdyn3
                0x080169b4                patterndyn
 *fill*         0x080169c4        0xc 
 .rodata        0x080169d0       0x64 build/obj/testqueues.o
                0x080169f0                testqueues1
                0x08016a18                testqueues2
                0x08016a28                patternqueues
 *fill*         0x08016a34        0xc 
 .rodata        0x08016a40       0x88 build/obj/testsys.o
                0x08016a58                testsys1
                0x08016a84                testsys2
                0x08016aa8                testsys3
                0x08016ab8                patternsys
 *fill*         0x08016ac8        0x8 
 .rodata        0x08016ad0      0x3d0 build/obj/testbmk.o
                0x08016b10                testbmk1
                0x08016b38                testbmk2
                0x08016b60                testbmk3
                0x08016b8c                testbmk4
                0x08016bc8                testbmk5
                0x08016bf8                testbmk6
                0x08016c44                testbmk7
                0x08016c80                testbmk8
                0x08016cc0                testbmk9
                0x08016d00                testbmk10
                0x08016d44                testbmk11
                0x08016d84                testbmk12
                0x08016e58                testbmk13
                0x08016e68                patternbmk
 .rodata        0x08016ea0       0x10 build/obj/memstreams.o
 .rodata        0x08016eb0        0x8 build/obj/chprintf.o
 *fill*         0x08016eb8        0x8 
 .rodata        0x08016ec0      0x238 build/obj/shell.o
 *fill*         0x080170f8        0x8 
 .rodata        0x08017100       0x78 build/obj/main.o
 *fill*         0x08017178        0x8 
 .rodata        0x08017180       0x60 build/obj/LSM303AGR_ACC_driver.o
                0x08017180                LSM303AGR_ACC_Sensitivity_List
 *(.rodata.*)
 *(.glue_7t)
 .glue_7t       0x00000000        0x0 linker stubs
 *(.glue_7)
 .glue_7        0x00000000        0x0 linker stubs
 *(.gcc*)

.vfp11_veneer   0x080171e0        0x0
 .vfp11_veneer  0x00000000        0x0 linker stubs

.v4_bx          0x080171e0        0x0
 .v4_bx         0x00000000        0x0 linker stubs

.iplt           0x080171e0        0x0
 .iplt          0x00000000        0x0 build/obj/crt0_v7m.o

.ARM.extab      0x080171e0        0x0
 *(.ARM.extab* .gnu.linkonce.armextab.*)
 .ARM.extab     0x080171e0        0x0 /nfs/nfs5/home/research/hardware/arm2/gcc-arm-embedded/gcc-arm-none-eabi-4_8-2014q2/bin/../lib/gcc/arm-none-eabi/4.8.4/armv7e-m/libgcc.a(_divdi3.o)
 .ARM.extab     0x080171e0        0x0 /nfs/nfs5/home/research/hardware/arm2/gcc-arm-embedded/gcc-arm-none-eabi-4_8-2014q2/bin/../lib/gcc/arm-none-eabi/4.8.4/armv7e-m/libgcc.a(_udivdi3.o)

.ARM.exidx      0x080171e0        0x8
                0x080171e0                __exidx_start = .
 *(.ARM.exidx* .gnu.linkonce.armexidx.*)
 .ARM.exidx     0x080171e0        0x8 /nfs/nfs5/home/research/hardware/arm2/gcc-arm-embedded/gcc-arm-none-eabi-4_8-2014q2/bin/../lib/gcc/arm-none-eabi/4.8.4/armv7e-m/libgcc.a(_divdi3.o)
 .ARM.exidx     0x080171e8        0x0 /nfs/nfs5/home/research/hardware/arm2/gcc-arm-embedded/gcc-arm-none-eabi-4_8-2014q2/bin/../lib/gcc/arm-none-eabi/4.8.4/armv7e-m/libgcc.a(_udivdi3.o)
                                  0x8 (size before relaxing)
                0x080171e8                __exidx_end = .

.rel.dyn        0x080171e8        0x0
 .rel.iplt      0x00000000        0x0 build/obj/crt0_v7m.o

.eh_frame_hdr
 *(.eh_frame_hdr)

.eh_frame
 *(.eh_frame)

.textalign      0x080171e8        0x0
                0x080171e8                . = ALIGN (0x8)
                0x080171e8                . = ALIGN (0x4)
                0x080171e8                PROVIDE (_etext, .)

.mstack         0x20000000      0x400
                0x20000000                . = ALIGN (0x8)
                0x20000000                __main_stack_base__ = .
                0x20000400                . = (. + __main_stack_size__)
 *fill*         0x20000000      0x400 
                0x20000400                . = ALIGN (0x8)
                0x20000400                __main_stack_end__ = .

.pstack         0x20000400      0x400
                0x20000400                __process_stack_base__ = .
                0x20000400                __main_thread_stack_base__ = .
                0x20000800                . = (. + __process_stack_size__)
 *fill*         0x20000400      0x400 
                0x20000800                . = ALIGN (0x8)
                0x20000800                __process_stack_end__ = .
                0x20000800                __main_thread_stack_end__ = .

.data           0x20000800      0x100 load address 0x080171e8
                0x20000800                . = ALIGN (0x4)
                0x080171e8                PROVIDE (_textdata, LOADADDR (.data))
                0x20000800                PROVIDE (_data, .)
                0x080171e8                _textdata_start = LOADADDR (.data)
                0x20000800                _data_start = .
 *(.data)
 .data          0x20000800        0x0 build/obj/crt0_v7m.o
 .data          0x20000800        0x0 build/obj/chcoreasm_v7m.o
 .data          0x20000800        0x0 build/obj/crt1.o
 .data          0x20000800        0x0 build/obj/vectors.o
 .data          0x20000800        0x0 build/obj/chsys.o
 .data          0x20000800        0x0 build/obj/chdebug.o
 .data          0x20000800        0x0 build/obj/chvt.o
 .data          0x20000800        0x0 build/obj/chschd.o
 .data          0x20000800        0x0 build/obj/chthreads.o
 .data          0x20000800        0x0 build/obj/chtm.o
 .data          0x20000800        0x0 build/obj/chdynamic.o
 .data          0x20000800        0x0 build/obj/chregistry.o
 .data          0x20000800        0x0 build/obj/chsem.o
 .data          0x20000800        0x0 build/obj/chmtx.o
 .data          0x20000800        0x0 build/obj/chcond.o
 .data          0x20000800        0x0 build/obj/chevents.o
 .data          0x20000800        0x0 build/obj/chmsg.o
 .data          0x20000800        0x0 build/obj/chmboxes.o
 .data          0x20000800        0x0 build/obj/chqueues.o
 .data          0x20000800        0x0 build/obj/chmemcore.o
 .data          0x20000800        0x0 build/obj/chheap.o
 .data          0x20000800        0x0 build/obj/chmempools.o
 .data          0x20000800        0x0 build/obj/chcore.o
 .data          0x20000800        0x0 build/obj/chcore_v7m.o
 .data          0x20000800        0x0 build/obj/osal.o
 .data          0x20000800        0x0 build/obj/hal.o
 .data          0x20000800        0x0 build/obj/st.o
 .data          0x20000800        0x0 build/obj/hal_buffers.o
 .data          0x20000800        0x0 build/obj/hal_queues.o
 .data          0x20000800        0x0 build/obj/hal_mmcsd.o
 .data          0x20000800        0x0 build/obj/pal.o
 .data          0x20000800        0x0 build/obj/sdc.o
 .data          0x20000800        0x0 build/obj/serial.o
 .data          0x20000800        0x0 build/obj/spi.o
 .data          0x20000800        0x0 build/obj/usb.o
 .data          0x20000800        0x0 build/obj/nvic.o
 .data          0x20000800        0x4 build/obj/hal_lld.o
                0x20000800                SystemCoreClock
 .data          0x20000804        0x0 build/obj/stm32_dma.o
 .data          0x20000804        0x0 build/obj/st_lld.o
 .data          0x20000804        0x0 build/obj/pal_lld.o
 .data          0x20000804        0x0 build/obj/usb_lld.o
 .data          0x20000804        0x0 build/obj/sdc_lld.o
 .data          0x20000804        0x0 build/obj/spi_lld.o
 .data          0x20000804        0x0 build/obj/serial_lld.o
 .data          0x20000804        0x0 build/obj/board.o
 .data          0x20000804       0x34 build/obj/test.o
 .data          0x20000838        0x0 build/obj/testthd.o
 .data          0x20000838        0xc build/obj/testsem.o
 .data          0x20000844       0x28 build/obj/testmtx.o
 .data          0x2000086c        0x0 build/obj/testmsg.o
 .data          0x2000086c       0x28 build/obj/testmbox.o
 .data          0x20000894        0x8 build/obj/testevt.o
 .data          0x2000089c        0x0 build/obj/testheap.o
 .data          0x2000089c        0xc build/obj/testpools.o
 .data          0x200008a8        0x0 build/obj/testdyn.o
 .data          0x200008a8       0x48 build/obj/testqueues.o
 .data          0x200008f0        0x0 build/obj/testsys.o
 .data          0x200008f0        0x0 build/obj/testbmk.o
 .data          0x200008f0        0x0 build/obj/evtimer.o
 .data          0x200008f0        0x0 build/obj/memstreams.o
 .data          0x200008f0        0x0 build/obj/chprintf.o
 .data          0x200008f0        0x0 build/obj/shell.o
 .data          0x200008f0        0x0 build/obj/main.o
 .data          0x200008f0       0x10 build/obj/LSM303AGR_ACC_driver.o
 .data          0x20000900        0x0 build/obj/SensorTile.o
 .data          0x20000900        0x0 /nfs/nfs5/home/research/hardware/arm2/gcc-arm-embedded/gcc-arm-none-eabi-4_8-2014q2/bin/../lib/gcc/arm-none-eabi/4.8.4/armv7e-m/libgcc.a(_aeabi_ldivmod.o)
 .data          0x20000900        0x0 /nfs/nfs5/home/research/hardware/arm2/gcc-arm-embedded/gcc-arm-none-eabi-4_8-2014q2/bin/../lib/gcc/arm-none-eabi/4.8.4/armv7e-m/libgcc.a(bpabi.o)
 .data          0x20000900        0x0 /nfs/nfs5/home/research/hardware/arm2/gcc-arm-embedded/gcc-arm-none-eabi-4_8-2014q2/bin/../lib/gcc/arm-none-eabi/4.8.4/armv7e-m/libgcc.a(_dvmd_tls.o)
 .data          0x20000900        0x0 /nfs/nfs5/home/research/hardware/arm2/gcc-arm-embedded/gcc-arm-none-eabi-4_8-2014q2/bin/../lib/gcc/arm-none-eabi/4.8.4/armv7e-m/libgcc.a(_divdi3.o)
 .data          0x20000900        0x0 /nfs/nfs5/home/research/hardware/arm2/gcc-arm-embedded/gcc-arm-none-eabi-4_8-2014q2/bin/../lib/gcc/arm-none-eabi/4.8.4/armv7e-m/libgcc.a(_udivdi3.o)
 .data          0x20000900        0x0 /nfs/nfs5/home/research/hardware/arm2/gcc-arm-embedded/gcc-arm-none-eabi-4_8-2014q2/bin/../lib/gcc/arm-none-eabi/4.8.4/../../../../arm-none-eabi/lib/armv7e-m/libg.a(lib_a-memcpy.o)
 .data          0x20000900        0x0 /nfs/nfs5/home/research/hardware/arm2/gcc-arm-embedded/gcc-arm-none-eabi-4_8-2014q2/bin/../lib/gcc/arm-none-eabi/4.8.4/../../../../arm-none-eabi/lib/armv7e-m/libg.a(lib_a-memset.o)
 .data          0x20000900        0x0 /nfs/nfs5/home/research/hardware/arm2/gcc-arm-embedded/gcc-arm-none-eabi-4_8-2014q2/bin/../lib/gcc/arm-none-eabi/4.8.4/../../../../arm-none-eabi/lib/armv7e-m/libg.a(lib_a-strcmp.o)
 .data          0x20000900        0x0 /nfs/nfs5/home/research/hardware/arm2/gcc-arm-embedded/gcc-arm-none-eabi-4_8-2014q2/bin/../lib/gcc/arm-none-eabi/4.8.4/../../../../arm-none-eabi/lib/armv7e-m/libg.a(lib_a-strpbrk.o)
 .data          0x20000900        0x0 /nfs/nfs5/home/research/hardware/arm2/gcc-arm-embedded/gcc-arm-none-eabi-4_8-2014q2/bin/../lib/gcc/arm-none-eabi/4.8.4/../../../../arm-none-eabi/lib/armv7e-m/libg.a(lib_a-strspn.o)
 *(.data.*)
 *(.ramtext)
                0x20000900                . = ALIGN (0x4)
                0x20000900                PROVIDE (_edata, .)
                0x20000900                _data_end = .

.igot.plt       0x20000900        0x0 load address 0x080172e8
 .igot.plt      0x00000000        0x0 build/obj/crt0_v7m.o

.bss            0x20000900      0xfa4 load address 0x080172e8
                0x20000900                . = ALIGN (0x4)
                0x20000900                _bss_start = .
 *(.bss)
 .bss           0x20000900        0x0 build/obj/crt0_v7m.o
 .bss           0x20000900        0x0 build/obj/chcoreasm_v7m.o
 .bss           0x20000900        0x0 build/obj/crt1.o
 .bss           0x20000900        0x0 build/obj/vectors.o
 .bss           0x20000900        0x0 build/obj/chsys.o
 .bss           0x20000900        0x0 build/obj/chdebug.o
 .bss           0x20000900        0x0 build/obj/chvt.o
 .bss           0x20000900        0x0 build/obj/chschd.o
 .bss           0x20000900        0x0 build/obj/chthreads.o
 .bss           0x20000900        0x0 build/obj/chtm.o
 .bss           0x20000900        0x0 build/obj/chdynamic.o
 .bss           0x20000900        0x0 build/obj/chregistry.o
 .bss           0x20000900        0x0 build/obj/chsem.o
 .bss           0x20000900        0x0 build/obj/chmtx.o
 .bss           0x20000900        0x0 build/obj/chcond.o
 .bss           0x20000900        0x0 build/obj/chevents.o
 .bss           0x20000900        0x0 build/obj/chmsg.o
 .bss           0x20000900        0x0 build/obj/chmboxes.o
 .bss           0x20000900        0x0 build/obj/chqueues.o
 .bss           0x20000900        0x8 build/obj/chmemcore.o
 .bss           0x20000908       0x20 build/obj/chheap.o
 .bss           0x20000928        0x0 build/obj/chmempools.o
 .bss           0x20000928        0x0 build/obj/chcore.o
 .bss           0x20000928        0x0 build/obj/chcore_v7m.o
 .bss           0x20000928        0x0 build/obj/osal.o
 .bss           0x20000928        0x0 build/obj/hal.o
 .bss           0x20000928        0x0 build/obj/st.o
 .bss           0x20000928        0x0 build/obj/hal_buffers.o
 .bss           0x20000928        0x0 build/obj/hal_queues.o
 .bss           0x20000928        0x0 build/obj/hal_mmcsd.o
 .bss           0x20000928        0x0 build/obj/pal.o
 .bss           0x20000928        0x0 build/obj/sdc.o
 .bss           0x20000928        0x0 build/obj/serial.o
 .bss           0x20000928        0x0 build/obj/spi.o
 .bss           0x20000928        0x0 build/obj/usb.o
 .bss           0x20000928        0x0 build/obj/nvic.o
 .bss           0x20000928        0x0 build/obj/hal_lld.o
 .bss           0x20000928        0x4 build/obj/stm32_dma.o
 .bss           0x2000092c        0x0 build/obj/st_lld.o
 .bss           0x2000092c        0x0 build/obj/pal_lld.o
 .bss           0x2000092c       0x18 build/obj/usb_lld.o
 .bss           0x20000944      0x200 build/obj/sdc_lld.o
 .bss           0x20000b44        0x2 build/obj/spi_lld.o
 .bss           0x20000b46        0x0 build/obj/serial_lld.o
 .bss           0x20000b46        0x0 build/obj/board.o
 *fill*         0x20000b46        0x2 
 .bss           0x20000b48       0x34 build/obj/test.o
 .bss           0x20000b7c        0x0 build/obj/testthd.o
 .bss           0x20000b7c        0x0 build/obj/testsem.o
 .bss           0x20000b7c        0x0 build/obj/testmtx.o
 .bss           0x20000b7c        0x0 build/obj/testmsg.o
 .bss           0x20000b7c        0x0 build/obj/testmbox.o
 .bss           0x20000b7c        0x0 build/obj/testevt.o
 *fill*         0x20000b7c        0x4 
 .bss           0x20000b80       0x20 build/obj/testheap.o
 .bss           0x20000ba0        0x0 build/obj/testpools.o
 .bss           0x20000ba0       0x30 build/obj/testdyn.o
 .bss           0x20000bd0        0x0 build/obj/testqueues.o
 .bss           0x20000bd0        0x0 build/obj/testsys.o
 .bss           0x20000bd0       0x78 build/obj/testbmk.o
 .bss           0x20000c48        0x0 build/obj/evtimer.o
 .bss           0x20000c48        0x0 build/obj/memstreams.o
 .bss           0x20000c48        0x0 build/obj/chprintf.o
 .bss           0x20000c48        0x0 build/obj/shell.o
 .bss           0x20000c48      0x150 build/obj/main.o
 .bss           0x20000d98        0x0 build/obj/LSM303AGR_ACC_driver.o
 .bss           0x20000d98        0x0 build/obj/SensorTile.o
 .bss           0x20000d98        0x0 /nfs/nfs5/home/research/hardware/arm2/gcc-arm-embedded/gcc-arm-none-eabi-4_8-2014q2/bin/../lib/gcc/arm-none-eabi/4.8.4/armv7e-m/libgcc.a(_aeabi_ldivmod.o)
 .bss           0x20000d98        0x0 /nfs/nfs5/home/research/hardware/arm2/gcc-arm-embedded/gcc-arm-none-eabi-4_8-2014q2/bin/../lib/gcc/arm-none-eabi/4.8.4/armv7e-m/libgcc.a(bpabi.o)
 .bss           0x20000d98        0x0 /nfs/nfs5/home/research/hardware/arm2/gcc-arm-embedded/gcc-arm-none-eabi-4_8-2014q2/bin/../lib/gcc/arm-none-eabi/4.8.4/armv7e-m/libgcc.a(_dvmd_tls.o)
 .bss           0x20000d98        0x0 /nfs/nfs5/home/research/hardware/arm2/gcc-arm-embedded/gcc-arm-none-eabi-4_8-2014q2/bin/../lib/gcc/arm-none-eabi/4.8.4/armv7e-m/libgcc.a(_divdi3.o)
 .bss           0x20000d98        0x0 /nfs/nfs5/home/research/hardware/arm2/gcc-arm-embedded/gcc-arm-none-eabi-4_8-2014q2/bin/../lib/gcc/arm-none-eabi/4.8.4/armv7e-m/libgcc.a(_udivdi3.o)
 .bss           0x20000d98        0x0 /nfs/nfs5/home/research/hardware/arm2/gcc-arm-embedded/gcc-arm-none-eabi-4_8-2014q2/bin/../lib/gcc/arm-none-eabi/4.8.4/../../../../arm-none-eabi/lib/armv7e-m/libg.a(lib_a-memcpy.o)
 .bss           0x20000d98        0x0 /nfs/nfs5/home/research/hardware/arm2/gcc-arm-embedded/gcc-arm-none-eabi-4_8-2014q2/bin/../lib/gcc/arm-none-eabi/4.8.4/../../../../arm-none-eabi/lib/armv7e-m/libg.a(lib_a-memset.o)
 .bss           0x20000d98        0x0 /nfs/nfs5/home/research/hardware/arm2/gcc-arm-embedded/gcc-arm-none-eabi-4_8-2014q2/bin/../lib/gcc/arm-none-eabi/4.8.4/../../../../arm-none-eabi/lib/armv7e-m/libg.a(lib_a-strcmp.o)
 .bss           0x20000d98        0x0 /nfs/nfs5/home/research/hardware/arm2/gcc-arm-embedded/gcc-arm-none-eabi-4_8-2014q2/bin/../lib/gcc/arm-none-eabi/4.8.4/../../../../arm-none-eabi/lib/armv7e-m/libg.a(lib_a-strpbrk.o)
 .bss           0x20000d98        0x0 /nfs/nfs5/home/research/hardware/arm2/gcc-arm-embedded/gcc-arm-none-eabi-4_8-2014q2/bin/../lib/gcc/arm-none-eabi/4.8.4/../../../../arm-none-eabi/lib/armv7e-m/libg.a(lib_a-strspn.o)
 *(.bss.*)
 *(COMMON)
 COMMON         0x20000d98      0x150 build/obj/chschd.o
                0x20000d98                ch
 COMMON         0x20000ee8       0x70 build/obj/stm32_dma.o
                0x20000ee8                _stm32_dma_isr_redir
 COMMON         0x20000f58      0x1d0 build/obj/usb_lld.o
                0x20000f58                USBD1
 COMMON         0x20001128       0x4c build/obj/sdc_lld.o
                0x20001128                SDCD1
 COMMON         0x20001174       0x30 build/obj/spi_lld.o
                0x20001174                SPID2
 COMMON         0x200011a4       0x7c build/obj/serial_lld.o
                0x200011a4                SD5
 COMMON         0x20001220      0x680 build/obj/test.o
                0x20001220                test_global_fail
                0x20001221                test_timer_done
                0x20001224                threads
                0x20001238                test
 COMMON         0x200018a0        0x4 build/obj/shell.o
                0x200018a0                shell_terminated
                0x200018a4                . = ALIGN (0x4)
                0x200018a4                _bss_end = .
                0x200018a4                PROVIDE (end, .)

.ram0_init      0x200018a4        0x0 load address 0x080172e8
                0x200018a4                . = ALIGN (0x4)
                0x080172e8                __ram0_init_text__ = LOADADDR (.ram0_init)
                0x200018a4                __ram0_init__ = .
 *(.ram0_init)
 *(.ram0_init.*)
                0x200018a4                . = ALIGN (0x4)

.ram0           0x200018a4        0x0 load address 0x080172e8
                0x200018a4                . = ALIGN (0x4)
                0x200018a4                __ram0_clear__ = .
 *(.ram0_clear)
 *(.ram0_clear.*)
                0x200018a4                . = ALIGN (0x4)
                0x200018a4                __ram0_noinit__ = .
 *(.ram0)
 *(.ram0.*)
                0x200018a4                . = ALIGN (0x4)
                0x200018a4                __ram0_free__ = .

.ram1_init      0x00000000        0x0 load address 0x080172e8
                0x00000000                . = ALIGN (0x4)
                0x080172e8                __ram1_init_text__ = LOADADDR (.ram1_init)
                0x00000000                __ram1_init__ = .
 *(.ram1_init)
 *(.ram1_init.*)
                0x00000000                . = ALIGN (0x4)

.ram1           0x00000000        0x0 load address 0x080172e8
                0x00000000                . = ALIGN (0x4)
                0x00000000                __ram1_clear__ = .
 *(.ram1_clear)
 *(.ram1_clear.*)
                0x00000000                . = ALIGN (0x4)
                0x00000000                __ram1_noinit__ = .
 *(.ram1)
 *(.ram1.*)
                0x00000000                . = ALIGN (0x4)
                0x00000000                __ram1_free__ = .

.ram2_init      0x00000000        0x0 load address 0x080172e8
                0x00000000                . = ALIGN (0x4)
                0x080172e8                __ram2_init_text__ = LOADADDR (.ram2_init)
                0x00000000                __ram2_init__ = .
 *(.ram2_init)
 *(.ram2_init.*)
                0x00000000                . = ALIGN (0x4)

.ram2           0x00000000        0x0 load address 0x080172e8
                0x00000000                . = ALIGN (0x4)
                0x00000000                __ram2_clear__ = .
 *(.ram2_clear)
 *(.ram2_clear.*)
                0x00000000                . = ALIGN (0x4)
                0x00000000                __ram2_noinit__ = .
 *(.ram2)
 *(.ram2.*)
                0x00000000                . = ALIGN (0x4)
                0x00000000                __ram2_free__ = .

.ram3_init      0x00000000        0x0 load address 0x080172e8
                0x00000000                . = ALIGN (0x4)
                0x080172e8                __ram3_init_text__ = LOADADDR (.ram3_init)
                0x00000000                __ram3_init__ = .
 *(.ram3_init)
 *(.ram3_init.*)
                0x00000000                . = ALIGN (0x4)

.ram3           0x00000000        0x0 load address 0x080172e8
                0x00000000                . = ALIGN (0x4)
                0x00000000                __ram3_clear__ = .
 *(.ram3_clear)
 *(.ram3_clear.*)
                0x00000000                . = ALIGN (0x4)
                0x00000000                __ram3_noinit__ = .
 *(.ram3)
 *(.ram3.*)
                0x00000000                . = ALIGN (0x4)
                0x00000000                __ram3_free__ = .

.ram4_init      0x10000000        0x0 load address 0x080172e8
                0x10000000                . = ALIGN (0x4)
                0x080172e8                __ram4_init_text__ = LOADADDR (.ram4_init)
                0x10000000                __ram4_init__ = .
 *(.ram4_init)
 *(.ram4_init.*)
                0x10000000                . = ALIGN (0x4)

.ram4           0x10000000        0x0 load address 0x080172e8
                0x10000000                . = ALIGN (0x4)
                0x10000000                __ram4_clear__ = .
 *(.ram4_clear)
 *(.ram4_clear.*)
                0x10000000                . = ALIGN (0x4)
                0x10000000                __ram4_noinit__ = .
 *(.ram4)
 *(.ram4.*)
                0x10000000                . = ALIGN (0x4)
                0x10000000                __ram4_free__ = .

.ram5_init      0x00000000        0x0 load address 0x080172e8
                0x00000000                . = ALIGN (0x4)
                0x080172e8                __ram5_init_text__ = LOADADDR (.ram5_init)
                0x00000000                __ram5_init__ = .
 *(.ram5_init)
 *(.ram5_init.*)
                0x00000000                . = ALIGN (0x4)

.ram5           0x00000000        0x0 load address 0x080172e8
                0x00000000                . = ALIGN (0x4)
                0x00000000                __ram5_clear__ = .
 *(.ram5_clear)
 *(.ram5_clear.*)
                0x00000000                . = ALIGN (0x4)
                0x00000000                __ram5_noinit__ = .
 *(.ram5)
 *(.ram5.*)
                0x00000000                . = ALIGN (0x4)
                0x00000000                __ram5_free__ = .

.ram6_init      0x00000000        0x0 load address 0x080172e8
                0x00000000                . = ALIGN (0x4)
                0x080172e8                __ram6_init_text__ = LOADADDR (.ram6_init)
                0x00000000                __ram6_init__ = .
 *(.ram6_init)
 *(.ram6_init.*)
                0x00000000                . = ALIGN (0x4)

.ram6           0x00000000        0x0 load address 0x080172e8
                0x00000000                . = ALIGN (0x4)
                0x00000000                __ram6_clear__ = .
 *(.ram6_clear)
 *(.ram6_clear.*)
                0x00000000                . = ALIGN (0x4)
                0x00000000                __ram6_noinit__ = .
 *(.ram6)
 *(.ram6.*)
                0x00000000                . = ALIGN (0x4)
                0x00000000                __ram6_free__ = .

.ram7_init      0x00000000        0x0 load address 0x080172e8
                0x00000000                . = ALIGN (0x4)
                0x080172e8                __ram7_init_text__ = LOADADDR (.ram7_init)
                0x00000000                __ram7_init__ = .
 *(.ram7_init)
 *(.ram7_init.*)
                0x00000000                . = ALIGN (0x4)

.ram7           0x00000000        0x0 load address 0x080172e8
                0x00000000                . = ALIGN (0x4)
                0x00000000                __ram7_clear__ = .
 *(.ram7_clear)
 *(.ram7_clear.*)
                0x00000000                . = ALIGN (0x4)
                0x00000000                __ram7_noinit__ = .
 *(.ram7)
 *(.ram7.*)
                0x00000000                . = ALIGN (0x4)
                0x00000000                __ram7_free__ = .

.heap           0x200018a4    0x1675c
                0x200018a8                . = ALIGN (0x8)
 *fill*         0x200018a4        0x4 
                0x200018a8                __heap_base__ = .
                0x20018000                . = (ORIGIN (HEAP_RAM) + 0x18000)
 *fill*         0x200018a8    0x16758 
                0x20018000                __heap_end__ = .
                0x00000400                __process_stack_size__ = 0x400
                0x00000400                __main_stack_size__ = 0x400
START GROUP
LOAD /nfs/nfs5/home/research/hardware/arm2/gcc-arm-embedded/gcc-arm-none-eabi-4_8-2014q2/bin/../lib/gcc/arm-none-eabi/4.8.4/armv7e-m/libgcc.a
LOAD /nfs/nfs5/home/research/hardware/arm2/gcc-arm-embedded/gcc-arm-none-eabi-4_8-2014q2/bin/../lib/gcc/arm-none-eabi/4.8.4/../../../../arm-none-eabi/lib/armv7e-m/libg.a
LOAD /nfs/nfs5/home/research/hardware/arm2/gcc-arm-embedded/gcc-arm-none-eabi-4_8-2014q2/bin/../lib/gcc/arm-none-eabi/4.8.4/../../../../arm-none-eabi/lib/armv7e-m/libc.a
END GROUP
OUTPUT(build/ch.elf elf32-littlearm)

.ARM.attributes
                0x00000000       0x2f
 .ARM.attributes
                0x00000000       0x21 build/obj/crt0_v7m.o
 .ARM.attributes
                0x00000021       0x21 build/obj/chcoreasm_v7m.o
 .ARM.attributes
                0x00000042       0x33 build/obj/crt1.o
 .ARM.attributes
                0x00000075       0x33 build/obj/vectors.o
 .ARM.attributes
                0x000000a8       0x33 build/obj/chsys.o
 .ARM.attributes
                0x000000db       0x33 build/obj/chdebug.o
 .ARM.attributes
                0x0000010e       0x33 build/obj/chvt.o
 .ARM.attributes
                0x00000141       0x33 build/obj/chschd.o
 .ARM.attributes
                0x00000174       0x33 build/obj/chthreads.o
 .ARM.attributes
                0x000001a7       0x33 build/obj/chtm.o
 .ARM.attributes
                0x000001da       0x33 build/obj/chdynamic.o
 .ARM.attributes
                0x0000020d       0x33 build/obj/chregistry.o
 .ARM.attributes
                0x00000240       0x33 build/obj/chsem.o
 .ARM.attributes
                0x00000273       0x33 build/obj/chmtx.o
 .ARM.attributes
                0x000002a6       0x33 build/obj/chcond.o
 .ARM.attributes
                0x000002d9       0x33 build/obj/chevents.o
 .ARM.attributes
                0x0000030c       0x33 build/obj/chmsg.o
 .ARM.attributes
                0x0000033f       0x33 build/obj/chmboxes.o
 .ARM.attributes
                0x00000372       0x33 build/obj/chqueues.o
 .ARM.attributes
                0x000003a5       0x33 build/obj/chmemcore.o
 .ARM.attributes
                0x000003d8       0x33 build/obj/chheap.o
 .ARM.attributes
                0x0000040b       0x33 build/obj/chmempools.o
 .ARM.attributes
                0x0000043e       0x33 build/obj/chcore.o
 .ARM.attributes
                0x00000471       0x33 build/obj/chcore_v7m.o
 .ARM.attributes
                0x000004a4       0x33 build/obj/osal.o
 .ARM.attributes
                0x000004d7       0x33 build/obj/hal.o
 .ARM.attributes
                0x0000050a       0x33 build/obj/st.o
 .ARM.attributes
                0x0000053d       0x33 build/obj/hal_buffers.o
 .ARM.attributes
                0x00000570       0x33 build/obj/hal_queues.o
 .ARM.attributes
                0x000005a3       0x33 build/obj/hal_mmcsd.o
 .ARM.attributes
                0x000005d6       0x33 build/obj/pal.o
 .ARM.attributes
                0x00000609       0x33 build/obj/sdc.o
 .ARM.attributes
                0x0000063c       0x33 build/obj/serial.o
 .ARM.attributes
                0x0000066f       0x33 build/obj/spi.o
 .ARM.attributes
                0x000006a2       0x33 build/obj/usb.o
 .ARM.attributes
                0x000006d5       0x33 build/obj/nvic.o
 .ARM.attributes
                0x00000708       0x33 build/obj/hal_lld.o
 .ARM.attributes
                0x0000073b       0x33 build/obj/stm32_dma.o
 .ARM.attributes
                0x0000076e       0x33 build/obj/st_lld.o
 .ARM.attributes
                0x000007a1       0x33 build/obj/pal_lld.o
 .ARM.attributes
                0x000007d4       0x33 build/obj/usb_lld.o
 .ARM.attributes
                0x00000807       0x33 build/obj/sdc_lld.o
 .ARM.attributes
                0x0000083a       0x33 build/obj/spi_lld.o
 .ARM.attributes
                0x0000086d       0x33 build/obj/serial_lld.o
 .ARM.attributes
                0x000008a0       0x33 build/obj/board.o
 .ARM.attributes
                0x000008d3       0x33 build/obj/test.o
 .ARM.attributes
                0x00000906       0x33 build/obj/testthd.o
 .ARM.attributes
                0x00000939       0x33 build/obj/testsem.o
 .ARM.attributes
                0x0000096c       0x33 build/obj/testmtx.o
 .ARM.attributes
                0x0000099f       0x33 build/obj/testmsg.o
 .ARM.attributes
                0x000009d2       0x33 build/obj/testmbox.o
 .ARM.attributes
                0x00000a05       0x33 build/obj/testevt.o
 .ARM.attributes
                0x00000a38       0x33 build/obj/testheap.o
 .ARM.attributes
                0x00000a6b       0x33 build/obj/testpools.o
 .ARM.attributes
                0x00000a9e       0x33 build/obj/testdyn.o
 .ARM.attributes
                0x00000ad1       0x33 build/obj/testqueues.o
 .ARM.attributes
                0x00000b04       0x33 build/obj/testsys.o
 .ARM.attributes
                0x00000b37       0x33 build/obj/testbmk.o
 .ARM.attributes
                0x00000b6a       0x33 build/obj/evtimer.o
 .ARM.attributes
                0x00000b9d       0x33 build/obj/memstreams.o
 .ARM.attributes
                0x00000bd0       0x33 build/obj/chprintf.o
 .ARM.attributes
                0x00000c03       0x33 build/obj/shell.o
 .ARM.attributes
                0x00000c36       0x33 build/obj/main.o
 .ARM.attributes
                0x00000c69       0x33 build/obj/LSM303AGR_ACC_driver.o
 .ARM.attributes
                0x00000c9c       0x33 build/obj/SensorTile.o
 .ARM.attributes
                0x00000ccf       0x1e /nfs/nfs5/home/research/hardware/arm2/gcc-arm-embedded/gcc-arm-none-eabi-4_8-2014q2/bin/../lib/gcc/arm-none-eabi/4.8.4/armv7e-m/libgcc.a(_aeabi_ldivmod.o)
 .ARM.attributes
                0x00000ced       0x2e /nfs/nfs5/home/research/hardware/arm2/gcc-arm-embedded/gcc-arm-none-eabi-4_8-2014q2/bin/../lib/gcc/arm-none-eabi/4.8.4/armv7e-m/libgcc.a(bpabi.o)
 .ARM.attributes
                0x00000d1b       0x1e /nfs/nfs5/home/research/hardware/arm2/gcc-arm-embedded/gcc-arm-none-eabi-4_8-2014q2/bin/../lib/gcc/arm-none-eabi/4.8.4/armv7e-m/libgcc.a(_dvmd_tls.o)
 .ARM.attributes
                0x00000d39       0x2e /nfs/nfs5/home/research/hardware/arm2/gcc-arm-embedded/gcc-arm-none-eabi-4_8-2014q2/bin/../lib/gcc/arm-none-eabi/4.8.4/armv7e-m/libgcc.a(_divdi3.o)
 .ARM.attributes
                0x00000d67       0x2e /nfs/nfs5/home/research/hardware/arm2/gcc-arm-embedded/gcc-arm-none-eabi-4_8-2014q2/bin/../lib/gcc/arm-none-eabi/4.8.4/armv7e-m/libgcc.a(_udivdi3.o)
 .ARM.attributes
                0x00000d95       0x1c /nfs/nfs5/home/research/hardware/arm2/gcc-arm-embedded/gcc-arm-none-eabi-4_8-2014q2/bin/../lib/gcc/arm-none-eabi/4.8.4/../../../../arm-none-eabi/lib/armv7e-m/libg.a(lib_a-memcpy.o)
 .ARM.attributes
                0x00000db1       0x2e /nfs/nfs5/home/research/hardware/arm2/gcc-arm-embedded/gcc-arm-none-eabi-4_8-2014q2/bin/../lib/gcc/arm-none-eabi/4.8.4/../../../../arm-none-eabi/lib/armv7e-m/libg.a(lib_a-memset.o)
 .ARM.attributes
                0x00000ddf       0x1c /nfs/nfs5/home/research/hardware/arm2/gcc-arm-embedded/gcc-arm-none-eabi-4_8-2014q2/bin/../lib/gcc/arm-none-eabi/4.8.4/../../../../arm-none-eabi/lib/armv7e-m/libg.a(lib_a-strcmp.o)
 .ARM.attributes
                0x00000dfb       0x2e /nfs/nfs5/home/research/hardware/arm2/gcc-arm-embedded/gcc-arm-none-eabi-4_8-2014q2/bin/../lib/gcc/arm-none-eabi/4.8.4/../../../../arm-none-eabi/lib/armv7e-m/libg.a(lib_a-strpbrk.o)
 .ARM.attributes
                0x00000e29       0x2e /nfs/nfs5/home/research/hardware/arm2/gcc-arm-embedded/gcc-arm-none-eabi-4_8-2014q2/bin/../lib/gcc/arm-none-eabi/4.8.4/../../../../arm-none-eabi/lib/armv7e-m/libg.a(lib_a-strspn.o)

.comment        0x00000000       0x70
 .comment       0x00000000       0x70 build/obj/crt1.o
                                 0x71 (size before relaxing)
 .comment       0x00000000       0x71 build/obj/vectors.o
 .comment       0x00000000       0x71 build/obj/chsys.o
 .comment       0x00000000       0x71 build/obj/chdebug.o
 .comment       0x00000000       0x71 build/obj/chvt.o
 .comment       0x00000000       0x71 build/obj/chschd.o
 .comment       0x00000000       0x71 build/obj/chthreads.o
 .comment       0x00000000       0x71 build/obj/chtm.o
 .comment       0x00000000       0x71 build/obj/chdynamic.o
 .comment       0x00000000       0x71 build/obj/chregistry.o
 .comment       0x00000000       0x71 build/obj/chsem.o
 .comment       0x00000000       0x71 build/obj/chmtx.o
 .comment       0x00000000       0x71 build/obj/chcond.o
 .comment       0x00000000       0x71 build/obj/chevents.o
 .comment       0x00000000       0x71 build/obj/chmsg.o
 .comment       0x00000000       0x71 build/obj/chmboxes.o
 .comment       0x00000000       0x71 build/obj/chqueues.o
 .comment       0x00000000       0x71 build/obj/chmemcore.o
 .comment       0x00000000       0x71 build/obj/chheap.o
 .comment       0x00000000       0x71 build/obj/chmempools.o
 .comment       0x00000000       0x71 build/obj/chcore.o
 .comment       0x00000000       0x71 build/obj/chcore_v7m.o
 .comment       0x00000000       0x71 build/obj/osal.o
 .comment       0x00000000       0x71 build/obj/hal.o
 .comment       0x00000000       0x71 build/obj/st.o
 .comment       0x00000000       0x71 build/obj/hal_buffers.o
 .comment       0x00000000       0x71 build/obj/hal_queues.o
 .comment       0x00000000       0x71 build/obj/hal_mmcsd.o
 .comment       0x00000000       0x71 build/obj/pal.o
 .comment       0x00000000       0x71 build/obj/sdc.o
 .comment       0x00000000       0x71 build/obj/serial.o
 .comment       0x00000000       0x71 build/obj/spi.o
 .comment       0x00000000       0x71 build/obj/usb.o
 .comment       0x00000000       0x71 build/obj/nvic.o
 .comment       0x00000000       0x71 build/obj/hal_lld.o
 .comment       0x00000000       0x71 build/obj/stm32_dma.o
 .comment       0x00000000       0x71 build/obj/st_lld.o
 .comment       0x00000000       0x71 build/obj/pal_lld.o
 .comment       0x00000000       0x71 build/obj/usb_lld.o
 .comment       0x00000000       0x71 build/obj/sdc_lld.o
 .comment       0x00000000       0x71 build/obj/spi_lld.o
 .comment       0x00000000       0x71 build/obj/serial_lld.o
 .comment       0x00000000       0x71 build/obj/board.o
 .comment       0x00000000       0x71 build/obj/test.o
 .comment       0x00000000       0x71 build/obj/testthd.o
 .comment       0x00000000       0x71 build/obj/testsem.o
 .comment       0x00000000       0x71 build/obj/testmtx.o
 .comment       0x00000000       0x71 build/obj/testmsg.o
 .comment       0x00000000       0x71 build/obj/testmbox.o
 .comment       0x00000000       0x71 build/obj/testevt.o
 .comment       0x00000000       0x71 build/obj/testheap.o
 .comment       0x00000000       0x71 build/obj/testpools.o
 .comment       0x00000000       0x71 build/obj/testdyn.o
 .comment       0x00000000       0x71 build/obj/testqueues.o
 .comment       0x00000000       0x71 build/obj/testsys.o
 .comment       0x00000000       0x71 build/obj/testbmk.o
 .comment       0x00000000       0x71 build/obj/evtimer.o
 .comment       0x00000000       0x71 build/obj/memstreams.o
 .comment       0x00000000       0x71 build/obj/chprintf.o
 .comment       0x00000000       0x71 build/obj/shell.o
 .comment       0x00000000       0x71 build/obj/main.o
 .comment       0x00000000       0x71 build/obj/LSM303AGR_ACC_driver.o
 .comment       0x00000000       0x71 build/obj/SensorTile.o

.debug_line     0x00000000     0xfc90
 .debug_line    0x00000000       0xc5 build/obj/crt0_v7m.o
 .debug_line    0x000000c5       0x84 build/obj/chcoreasm_v7m.o
 .debug_line    0x00000149      0x1c6 build/obj/crt1.o
 .debug_line    0x0000030f      0x1b1 build/obj/vectors.o
 .debug_line    0x000004c0      0x44b build/obj/chsys.o
 .debug_line    0x0000090b      0x227 build/obj/chdebug.o
 .debug_line    0x00000b32      0x286 build/obj/chvt.o
 .debug_line    0x00000db8      0x3fc build/obj/chschd.o
 .debug_line    0x000011b4      0x472 build/obj/chthreads.o
 .debug_line    0x00001626      0x28e build/obj/chtm.o
 .debug_line    0x000018b4      0x3a8 build/obj/chdynamic.o
 .debug_line    0x00001c5c      0x34f build/obj/chregistry.o
 .debug_line    0x00001fab      0x331 build/obj/chsem.o
 .debug_line    0x000022dc      0x38e build/obj/chmtx.o
 .debug_line    0x0000266a      0x34a build/obj/chcond.o
 .debug_line    0x000029b4      0x3a8 build/obj/chevents.o
 .debug_line    0x00002d5c      0x2ea build/obj/chmsg.o
 .debug_line    0x00003046      0x339 build/obj/chmboxes.o
 .debug_line    0x0000337f      0x44b build/obj/chqueues.o
 .debug_line    0x000037ca      0x348 build/obj/chmemcore.o
 .debug_line    0x00003b12      0x375 build/obj/chheap.o
 .debug_line    0x00003e87      0x385 build/obj/chmempools.o
 .debug_line    0x0000420c      0x227 build/obj/chcore.o
 .debug_line    0x00004433      0x2c1 build/obj/chcore_v7m.o
 .debug_line    0x000046f4      0x227 build/obj/osal.o
 .debug_line    0x0000491b      0x2d7 build/obj/hal.o
 .debug_line    0x00004bf2      0x2d1 build/obj/st.o
 .debug_line    0x00004ec3      0x565 build/obj/hal_buffers.o
 .debug_line    0x00005428      0x227 build/obj/hal_queues.o
 .debug_line    0x0000564f      0x34a build/obj/hal_mmcsd.o
 .debug_line    0x00005999      0x2ce build/obj/pal.o
 .debug_line    0x00005c67      0x5f8 build/obj/sdc.o
 .debug_line    0x0000625f      0x4a2 build/obj/serial.o
 .debug_line    0x00006701      0x4fa build/obj/spi.o
 .debug_line    0x00006bfb      0x5ec build/obj/usb.o
 .debug_line    0x000071e7      0x27c build/obj/nvic.o
 .debug_line    0x00007463      0x3d1 build/obj/hal_lld.o
 .debug_line    0x00007834      0x44a build/obj/stm32_dma.o
 .debug_line    0x00007c7e      0x307 build/obj/st_lld.o
 .debug_line    0x00007f85      0x301 build/obj/pal_lld.o
 .debug_line    0x00008286      0x76d build/obj/usb_lld.o
 .debug_line    0x000089f3      0x5dc build/obj/sdc_lld.o
 .debug_line    0x00008fcf      0x57c build/obj/spi_lld.o
 .debug_line    0x0000954b      0x4af build/obj/serial_lld.o
 .debug_line    0x000099fa      0x42b build/obj/board.o
 .debug_line    0x00009e25      0x511 build/obj/test.o
 .debug_line    0x0000a336      0x436 build/obj/testthd.o
 .debug_line    0x0000a76c      0x53f build/obj/testsem.o
 .debug_line    0x0000acab      0x4cf build/obj/testmtx.o
 .debug_line    0x0000b17a      0x336 build/obj/testmsg.o
 .debug_line    0x0000b4b0      0x5b6 build/obj/testmbox.o
 .debug_line    0x0000ba66      0x4a4 build/obj/testevt.o
 .debug_line    0x0000bf0a      0x3a0 build/obj/testheap.o
 .debug_line    0x0000c2aa      0x360 build/obj/testpools.o
 .debug_line    0x0000c60a      0x451 build/obj/testdyn.o
 .debug_line    0x0000ca5b      0x60d build/obj/testqueues.o
 .debug_line    0x0000d068      0x426 build/obj/testsys.o
 .debug_line    0x0000d48e      0x5ea build/obj/testbmk.o
 .debug_line    0x0000da78      0x31b build/obj/evtimer.o
 .debug_line    0x0000dd93      0x326 build/obj/memstreams.o
 .debug_line    0x0000e0b9      0x41b build/obj/chprintf.o
 .debug_line    0x0000e4d4      0x446 build/obj/shell.o
 .debug_line    0x0000e91a      0x46f build/obj/main.o
 .debug_line    0x0000ed89      0xb56 build/obj/LSM303AGR_ACC_driver.o
 .debug_line    0x0000f8df      0x3b1 build/obj/SensorTile.o

.debug_info     0x00000000    0x323d6
 .debug_info    0x00000000       0xb6 build/obj/crt0_v7m.o
 .debug_info    0x000000b6       0xb7 build/obj/chcoreasm_v7m.o
 .debug_info    0x0000016d      0x316 build/obj/crt1.o
 .debug_info    0x00000483      0x1e7 build/obj/vectors.o
 .debug_info    0x0000066a     0x13e8 build/obj/chsys.o
 .debug_info    0x00001a52      0x647 build/obj/chdebug.o
 .debug_info    0x00002099      0x728 build/obj/chvt.o
 .debug_info    0x000027c1      0xa62 build/obj/chschd.o
 .debug_info    0x00003223      0xfab build/obj/chthreads.o
 .debug_info    0x000041ce      0x92b build/obj/chtm.o
 .debug_info    0x00004af9      0x9d1 build/obj/chdynamic.o
 .debug_info    0x000054ca      0x8bd build/obj/chregistry.o
 .debug_info    0x00005d87      0xb18 build/obj/chsem.o
 .debug_info    0x0000689f      0xadd build/obj/chmtx.o
 .debug_info    0x0000737c      0xac1 build/obj/chcond.o
 .debug_info    0x00007e3d      0xca4 build/obj/chevents.o
 .debug_info    0x00008ae1      0x8b8 build/obj/chmsg.o
 .debug_info    0x00009399      0xb9c build/obj/chmboxes.o
 .debug_info    0x00009f35      0xc2d build/obj/chqueues.o
 .debug_info    0x0000ab62      0x80d build/obj/chmemcore.o
 .debug_info    0x0000b36f      0x8db build/obj/chheap.o
 .debug_info    0x0000bc4a      0x985 build/obj/chmempools.o
 .debug_info    0x0000c5cf      0x647 build/obj/chcore.o
 .debug_info    0x0000cc16      0x9f3 build/obj/chcore_v7m.o
 .debug_info    0x0000d609      0x647 build/obj/osal.o
 .debug_info    0x0000dc50      0x792 build/obj/hal.o
 .debug_info    0x0000e3e2      0x8d9 build/obj/st.o
 .debug_info    0x0000ecbb     0x10a0 build/obj/hal_buffers.o
 .debug_info    0x0000fd5b      0x64e build/obj/hal_queues.o
 .debug_info    0x000103a9     0x1147 build/obj/hal_mmcsd.o
 .debug_info    0x000114f0      0x8af build/obj/pal.o
 .debug_info    0x00011d9f     0x1558 build/obj/sdc.o
 .debug_info    0x000132f7     0x10ef build/obj/serial.o
 .debug_info    0x000143e6     0x103f build/obj/spi.o
 .debug_info    0x00015425     0x17d2 build/obj/usb.o
 .debug_info    0x00016bf7      0x9e5 build/obj/nvic.o
 .debug_info    0x000175dc      0xb27 build/obj/hal_lld.o
 .debug_info    0x00018103      0xe75 build/obj/stm32_dma.o
 .debug_info    0x00018f78      0x7c5 build/obj/st_lld.o
 .debug_info    0x0001973d      0xbe6 build/obj/pal_lld.o
 .debug_info    0x0001a323     0x1eab build/obj/usb_lld.o
 .debug_info    0x0001c1ce     0x179f build/obj/sdc_lld.o
 .debug_info    0x0001d96d     0x127c build/obj/spi_lld.o
 .debug_info    0x0001ebe9     0x1044 build/obj/serial_lld.o
 .debug_info    0x0001fc2d      0xcf3 build/obj/board.o
 .debug_info    0x00020920      0xf8e build/obj/test.o
 .debug_info    0x000218ae      0x909 build/obj/testthd.o
 .debug_info    0x000221b7      0xb5e build/obj/testsem.o
 .debug_info    0x00022d15      0xb35 build/obj/testmtx.o
 .debug_info    0x0002384a      0x7b9 build/obj/testmsg.o
 .debug_info    0x00024003      0x985 build/obj/testmbox.o
 .debug_info    0x00024988      0xb93 build/obj/testevt.o
 .debug_info    0x0002551b      0x8b3 build/obj/testheap.o
 .debug_info    0x00025dce      0x7dd build/obj/testpools.o
 .debug_info    0x000265ab      0xa7f build/obj/testdyn.o
 .debug_info    0x0002702a      0xbeb build/obj/testqueues.o
 .debug_info    0x00027c15      0xbb4 build/obj/testsys.o
 .debug_info    0x000287c9      0xdfe build/obj/testbmk.o
 .debug_info    0x000295c7      0xa14 build/obj/evtimer.o
 .debug_info    0x00029fdb      0x8fa build/obj/memstreams.o
 .debug_info    0x0002a8d5      0xabf build/obj/chprintf.o
 .debug_info    0x0002b394      0xd9a build/obj/shell.o
 .debug_info    0x0002c12e      0xe6a build/obj/main.o
 .debug_info    0x0002cf98     0x491e build/obj/LSM303AGR_ACC_driver.o
 .debug_info    0x000318b6      0xb20 build/obj/SensorTile.o

.debug_abbrev   0x00000000     0x94f1
 .debug_abbrev  0x00000000       0x14 build/obj/crt0_v7m.o
 .debug_abbrev  0x00000014       0x14 build/obj/chcoreasm_v7m.o
 .debug_abbrev  0x00000028       0xf7 build/obj/crt1.o
 .debug_abbrev  0x0000011f       0xc7 build/obj/vectors.o
 .debug_abbrev  0x000001e6      0x412 build/obj/chsys.o
 .debug_abbrev  0x000005f8      0x125 build/obj/chdebug.o
 .debug_abbrev  0x0000071d      0x1a2 build/obj/chvt.o
 .debug_abbrev  0x000008bf      0x315 build/obj/chschd.o
 .debug_abbrev  0x00000bd4      0x2f0 build/obj/chthreads.o
 .debug_abbrev  0x00000ec4      0x1d4 build/obj/chtm.o
 .debug_abbrev  0x00001098      0x256 build/obj/chdynamic.o
 .debug_abbrev  0x000012ee      0x1fb build/obj/chregistry.o
 .debug_abbrev  0x000014e9      0x299 build/obj/chsem.o
 .debug_abbrev  0x00001782      0x2a4 build/obj/chmtx.o
 .debug_abbrev  0x00001a26      0x2a0 build/obj/chcond.o
 .debug_abbrev  0x00001cc6      0x2b0 build/obj/chevents.o
 .debug_abbrev  0x00001f76      0x26e build/obj/chmsg.o
 .debug_abbrev  0x000021e4      0x28e build/obj/chmboxes.o
 .debug_abbrev  0x00002472      0x299 build/obj/chqueues.o
 .debug_abbrev  0x0000270b      0x25f build/obj/chmemcore.o
 .debug_abbrev  0x0000296a      0x22c build/obj/chheap.o
 .debug_abbrev  0x00002b96      0x25f build/obj/chmempools.o
 .debug_abbrev  0x00002df5      0x125 build/obj/chcore.o
 .debug_abbrev  0x00002f1a      0x222 build/obj/chcore_v7m.o
 .debug_abbrev  0x0000313c      0x125 build/obj/osal.o
 .debug_abbrev  0x00003261      0x171 build/obj/hal.o
 .debug_abbrev  0x000033d2      0x1f1 build/obj/st.o
 .debug_abbrev  0x000035c3      0x310 build/obj/hal_buffers.o
 .debug_abbrev  0x000038d3      0x125 build/obj/hal_queues.o
 .debug_abbrev  0x000039f8      0x235 build/obj/hal_mmcsd.o
 .debug_abbrev  0x00003c2d      0x1bc build/obj/pal.o
 .debug_abbrev  0x00003de9      0x36e build/obj/sdc.o
 .debug_abbrev  0x00004157      0x315 build/obj/serial.o
 .debug_abbrev  0x0000446c      0x294 build/obj/spi.o
 .debug_abbrev  0x00004700      0x33c build/obj/usb.o
 .debug_abbrev  0x00004a3c      0x1ba build/obj/nvic.o
 .debug_abbrev  0x00004bf6      0x1b4 build/obj/hal_lld.o
 .debug_abbrev  0x00004daa      0x21d build/obj/stm32_dma.o
 .debug_abbrev  0x00004fc7      0x1d7 build/obj/st_lld.o
 .debug_abbrev  0x0000519e      0x1df build/obj/pal_lld.o
 .debug_abbrev  0x0000537d      0x3a4 build/obj/usb_lld.o
 .debug_abbrev  0x00005721      0x372 build/obj/sdc_lld.o
 .debug_abbrev  0x00005a93      0x30d build/obj/spi_lld.o
 .debug_abbrev  0x00005da0      0x2d0 build/obj/serial_lld.o
 .debug_abbrev  0x00006070      0x1dd build/obj/board.o
 .debug_abbrev  0x0000624d      0x403 build/obj/test.o
 .debug_abbrev  0x00006650      0x294 build/obj/testthd.o
 .debug_abbrev  0x000068e4      0x2f7 build/obj/testsem.o
 .debug_abbrev  0x00006bdb      0x2d2 build/obj/testmtx.o
 .debug_abbrev  0x00006ead      0x1e8 build/obj/testmsg.o
 .debug_abbrev  0x00007095      0x2b6 build/obj/testmbox.o
 .debug_abbrev  0x0000734b      0x2fe build/obj/testevt.o
 .debug_abbrev  0x00007649      0x206 build/obj/testheap.o
 .debug_abbrev  0x0000784f      0x1c8 build/obj/testpools.o
 .debug_abbrev  0x00007a17      0x275 build/obj/testdyn.o
 .debug_abbrev  0x00007c8c      0x31d build/obj/testqueues.o
 .debug_abbrev  0x00007fa9      0x2fd build/obj/testsys.o
 .debug_abbrev  0x000082a6      0x317 build/obj/testbmk.o
 .debug_abbrev  0x000085bd      0x25f build/obj/evtimer.o
 .debug_abbrev  0x0000881c      0x1af build/obj/memstreams.o
 .debug_abbrev  0x000089cb      0x237 build/obj/chprintf.o
 .debug_abbrev  0x00008c02      0x30a build/obj/shell.o
 .debug_abbrev  0x00008f0c      0x213 build/obj/main.o
 .debug_abbrev  0x0000911f      0x223 build/obj/LSM303AGR_ACC_driver.o
 .debug_abbrev  0x00009342      0x1af build/obj/SensorTile.o

.debug_aranges  0x00000000      0x800
 .debug_aranges
                0x00000000       0x20 build/obj/crt0_v7m.o
 .debug_aranges
                0x00000020       0x20 build/obj/chcoreasm_v7m.o
 .debug_aranges
                0x00000040       0x20 build/obj/crt1.o
 .debug_aranges
                0x00000060       0x20 build/obj/vectors.o
 .debug_aranges
                0x00000080       0x20 build/obj/chsys.o
 .debug_aranges
                0x000000a0       0x18 build/obj/chdebug.o
 .debug_aranges
                0x000000b8       0x20 build/obj/chvt.o
 .debug_aranges
                0x000000d8       0x20 build/obj/chschd.o
 .debug_aranges
                0x000000f8       0x20 build/obj/chthreads.o
 .debug_aranges
                0x00000118       0x20 build/obj/chtm.o
 .debug_aranges
                0x00000138       0x20 build/obj/chdynamic.o
 .debug_aranges
                0x00000158       0x20 build/obj/chregistry.o
 .debug_aranges
                0x00000178       0x20 build/obj/chsem.o
 .debug_aranges
                0x00000198       0x20 build/obj/chmtx.o
 .debug_aranges
                0x000001b8       0x20 build/obj/chcond.o
 .debug_aranges
                0x000001d8       0x20 build/obj/chevents.o
 .debug_aranges
                0x000001f8       0x20 build/obj/chmsg.o
 .debug_aranges
                0x00000218       0x20 build/obj/chmboxes.o
 .debug_aranges
                0x00000238       0x20 build/obj/chqueues.o
 .debug_aranges
                0x00000258       0x20 build/obj/chmemcore.o
 .debug_aranges
                0x00000278       0x20 build/obj/chheap.o
 .debug_aranges
                0x00000298       0x20 build/obj/chmempools.o
 .debug_aranges
                0x000002b8       0x18 build/obj/chcore.o
 .debug_aranges
                0x000002d0       0x20 build/obj/chcore_v7m.o
 .debug_aranges
                0x000002f0       0x18 build/obj/osal.o
 .debug_aranges
                0x00000308       0x20 build/obj/hal.o
 .debug_aranges
                0x00000328       0x20 build/obj/st.o
 .debug_aranges
                0x00000348       0x20 build/obj/hal_buffers.o
 .debug_aranges
                0x00000368       0x18 build/obj/hal_queues.o
 .debug_aranges
                0x00000380       0x20 build/obj/hal_mmcsd.o
 .debug_aranges
                0x000003a0       0x20 build/obj/pal.o
 .debug_aranges
                0x000003c0       0x20 build/obj/sdc.o
 .debug_aranges
                0x000003e0       0x20 build/obj/serial.o
 .debug_aranges
                0x00000400       0x20 build/obj/spi.o
 .debug_aranges
                0x00000420       0x20 build/obj/usb.o
 .debug_aranges
                0x00000440       0x20 build/obj/nvic.o
 .debug_aranges
                0x00000460       0x20 build/obj/hal_lld.o
 .debug_aranges
                0x00000480       0x20 build/obj/stm32_dma.o
 .debug_aranges
                0x000004a0       0x20 build/obj/st_lld.o
 .debug_aranges
                0x000004c0       0x20 build/obj/pal_lld.o
 .debug_aranges
                0x000004e0       0x20 build/obj/usb_lld.o
 .debug_aranges
                0x00000500       0x20 build/obj/sdc_lld.o
 .debug_aranges
                0x00000520       0x20 build/obj/spi_lld.o
 .debug_aranges
                0x00000540       0x20 build/obj/serial_lld.o
 .debug_aranges
                0x00000560       0x20 build/obj/board.o
 .debug_aranges
                0x00000580       0x20 build/obj/test.o
 .debug_aranges
                0x000005a0       0x20 build/obj/testthd.o
 .debug_aranges
                0x000005c0       0x20 build/obj/testsem.o
 .debug_aranges
                0x000005e0       0x20 build/obj/testmtx.o
 .debug_aranges
                0x00000600       0x20 build/obj/testmsg.o
 .debug_aranges
                0x00000620       0x20 build/obj/testmbox.o
 .debug_aranges
                0x00000640       0x20 build/obj/testevt.o
 .debug_aranges
                0x00000660       0x20 build/obj/testheap.o
 .debug_aranges
                0x00000680       0x20 build/obj/testpools.o
 .debug_aranges
                0x000006a0       0x20 build/obj/testdyn.o
 .debug_aranges
                0x000006c0       0x20 build/obj/testqueues.o
 .debug_aranges
                0x000006e0       0x20 build/obj/testsys.o
 .debug_aranges
                0x00000700       0x20 build/obj/testbmk.o
 .debug_aranges
                0x00000720       0x20 build/obj/evtimer.o
 .debug_aranges
                0x00000740       0x20 build/obj/memstreams.o
 .debug_aranges
                0x00000760       0x20 build/obj/chprintf.o
 .debug_aranges
                0x00000780       0x20 build/obj/shell.o
 .debug_aranges
                0x000007a0       0x20 build/obj/main.o
 .debug_aranges
                0x000007c0       0x20 build/obj/LSM303AGR_ACC_driver.o
 .debug_aranges
                0x000007e0       0x20 build/obj/SensorTile.o

.debug_str      0x00000000     0x8a6f
 .debug_str     0x00000000      0x42b build/obj/crt1.o
                                0x484 (size before relaxing)
 .debug_str     0x0000042b      0x162 build/obj/vectors.o
                                0x321 (size before relaxing)
 .debug_str     0x0000058d      0xd66 build/obj/chsys.o
                                0xf86 (size before relaxing)
 .debug_str     0x000012f3       0x25 build/obj/chdebug.o
                                0x547 (size before relaxing)
 .debug_str     0x00001318       0x50 build/obj/chvt.o
                                0x581 (size before relaxing)
 .debug_str     0x00001368      0x14a build/obj/chschd.o
                                0x709 (size before relaxing)
 .debug_str     0x000014b2      0x234 build/obj/chthreads.o
                                0x7f8 (size before relaxing)
 .debug_str     0x000016e6       0xcd build/obj/chtm.o
                                0x6bf (size before relaxing)
 .debug_str     0x000017b3      0x104 build/obj/chdynamic.o
                                0x69d (size before relaxing)
 .debug_str     0x000018b7       0x49 build/obj/chregistry.o
                                0x6be (size before relaxing)
 .debug_str     0x00001900       0xce build/obj/chsem.o
                                0x674 (size before relaxing)
 .debug_str     0x000019ce       0xb1 build/obj/chmtx.o
                                0x664 (size before relaxing)
 .debug_str     0x00001a7f       0xf0 build/obj/chcond.o
                                0x6b2 (size before relaxing)
 .debug_str     0x00001b6f      0x1f8 build/obj/chevents.o
                                0x77c (size before relaxing)
 .debug_str     0x00001d67       0x62 build/obj/chmsg.o
                                0x5f2 (size before relaxing)
 .debug_str     0x00001dc9      0x11c build/obj/chmboxes.o
                                0x69b (size before relaxing)
 .debug_str     0x00001ee5      0x170 build/obj/chqueues.o
                                0x70f (size before relaxing)
 .debug_str     0x00002055       0x7b build/obj/chmemcore.o
                                0x5fd (size before relaxing)
 .debug_str     0x000020d0       0x77 build/obj/chheap.o
                                0x60f (size before relaxing)
 .debug_str     0x00002147       0x83 build/obj/chmempools.o
                                0x65a (size before relaxing)
 .debug_str     0x000021ca       0x2d build/obj/chcore.o
                                0x54f (size before relaxing)
 .debug_str     0x000021f7       0x90 build/obj/chcore_v7m.o
                                0x669 (size before relaxing)
 .debug_str     0x00002287       0x27 build/obj/osal.o
                                0x549 (size before relaxing)
 .debug_str     0x000022ae      0x10c build/obj/hal.o
                                0x5e7 (size before relaxing)
 .debug_str     0x000023ba       0xe2 build/obj/st.o
                                0x60c (size before relaxing)
 .debug_str     0x0000249c      0x2de build/obj/hal_buffers.o
                                0x8bb (size before relaxing)
 .debug_str     0x0000277a       0x29 build/obj/hal_queues.o
                                0x545 (size before relaxing)
 .debug_str     0x000027a3      0x438 build/obj/hal_mmcsd.o
                                0x99e (size before relaxing)
 .debug_str     0x00002bdb       0xca build/obj/pal.o
                                0x612 (size before relaxing)
 .debug_str     0x00002ca5      0x45c build/obj/sdc.o
                                0xb7b (size before relaxing)
 .debug_str     0x00003101      0x184 build/obj/serial.o
                                0x88b (size before relaxing)
 .debug_str     0x00003285      0x1ee build/obj/spi.o
                                0x87c (size before relaxing)
 .debug_str     0x00003473      0x7bd build/obj/usb.o
                                0xdf4 (size before relaxing)
 .debug_str     0x00003c30       0x84 build/obj/nvic.o
                                0x66d (size before relaxing)
 .debug_str     0x00003cb4      0x26b build/obj/hal_lld.o
                                0x7d4 (size before relaxing)
 .debug_str     0x00003f1f      0x176 build/obj/stm32_dma.o
                                0x878 (size before relaxing)
 .debug_str     0x00004095       0x7f build/obj/st_lld.o
                                0x63e (size before relaxing)
 .debug_str     0x00004114       0x7a build/obj/pal_lld.o
                                0x7f7 (size before relaxing)
 .debug_str     0x0000418e      0x328 build/obj/usb_lld.o
                               0x114f (size before relaxing)
 .debug_str     0x000044b6      0x23a build/obj/sdc_lld.o
                                0xc8a (size before relaxing)
 .debug_str     0x000046f0      0x15d build/obj/spi_lld.o
                                0xa90 (size before relaxing)
 .debug_str     0x0000484d       0x96 build/obj/serial_lld.o
                                0x9bb (size before relaxing)
 .debug_str     0x000048e3       0x73 build/obj/board.o
                                0x8c8 (size before relaxing)
 .debug_str     0x00004956      0x2ab build/obj/test.o
                                0x8ac (size before relaxing)
 .debug_str     0x00004c01       0x8d build/obj/testthd.o
                                0x683 (size before relaxing)
 .debug_str     0x00004c8e      0x14e build/obj/testsem.o
                                0x76d (size before relaxing)
 .debug_str     0x00004ddc      0x116 build/obj/testmtx.o
                                0x731 (size before relaxing)
 .debug_str     0x00004ef2       0x42 build/obj/testmsg.o
                                0x5ca (size before relaxing)
 .debug_str     0x00004f34       0x71 build/obj/testmbox.o
                                0x693 (size before relaxing)
 .debug_str     0x00004fa5       0xc0 build/obj/testevt.o
                                0x788 (size before relaxing)
 .debug_str     0x00005065       0x52 build/obj/testheap.o
                                0x625 (size before relaxing)
 .debug_str     0x000050b7       0x5a build/obj/testpools.o
                                0x60c (size before relaxing)
 .debug_str     0x00005111       0x94 build/obj/testdyn.o
                                0x6eb (size before relaxing)
 .debug_str     0x000051a5       0xa4 build/obj/testqueues.o
                                0x757 (size before relaxing)
 .debug_str     0x00005249       0xdc build/obj/testsys.o
                                0x789 (size before relaxing)
 .debug_str     0x00005325      0x19d build/obj/testbmk.o
                                0x83e (size before relaxing)
 .debug_str     0x000054c2       0x79 build/obj/evtimer.o
                                0x712 (size before relaxing)
 .debug_str     0x0000553b       0x5f build/obj/memstreams.o
                                0x59f (size before relaxing)
 .debug_str     0x0000559a       0xf3 build/obj/chprintf.o
                                0x68a (size before relaxing)
 .debug_str     0x0000568d      0x135 build/obj/shell.o
                                0x7da (size before relaxing)
 .debug_str     0x000057c2       0x70 build/obj/main.o
                                0x86d (size before relaxing)
 .debug_str     0x00005832     0x31c4 build/obj/LSM303AGR_ACC_driver.o
                               0x38bb (size before relaxing)
 .debug_str     0x000089f6       0x79 build/obj/SensorTile.o
                                0x754 (size before relaxing)

.debug_frame    0x00000000     0x7598
 .debug_frame   0x00000000       0x64 build/obj/crt1.o
 .debug_frame   0x00000064       0x20 build/obj/vectors.o
 .debug_frame   0x00000084      0x2f0 build/obj/chsys.o
 .debug_frame   0x00000374       0x48 build/obj/chvt.o
 .debug_frame   0x000003bc      0x240 build/obj/chschd.o
 .debug_frame   0x000005fc      0x410 build/obj/chthreads.o
 .debug_frame   0x00000a0c       0xb8 build/obj/chtm.o
 .debug_frame   0x00000ac4       0xe0 build/obj/chdynamic.o
 .debug_frame   0x00000ba4       0xa8 build/obj/chregistry.o
 .debug_frame   0x00000c4c      0x1f4 build/obj/chsem.o
 .debug_frame   0x00000e40      0x1c8 build/obj/chmtx.o
 .debug_frame   0x00001008      0x1e8 build/obj/chcond.o
 .debug_frame   0x000011f0      0x244 build/obj/chevents.o
 .debug_frame   0x00001434      0x11c build/obj/chmsg.o
 .debug_frame   0x00001550      0x1e8 build/obj/chmboxes.o
 .debug_frame   0x00001738      0x208 build/obj/chqueues.o
 .debug_frame   0x00001940       0xc0 build/obj/chmemcore.o
 .debug_frame   0x00001a00       0x9c build/obj/chheap.o
 .debug_frame   0x00001a9c      0x124 build/obj/chmempools.o
 .debug_frame   0x00001bc0       0xa8 build/obj/chcore_v7m.o
 .debug_frame   0x00001c68       0x3c build/obj/hal.o
 .debug_frame   0x00001ca4       0xe4 build/obj/st.o
 .debug_frame   0x00001d88      0x3c4 build/obj/hal_buffers.o
 .debug_frame   0x0000214c       0xe0 build/obj/hal_mmcsd.o
 .debug_frame   0x0000222c       0x54 build/obj/pal.o
 .debug_frame   0x00002280      0x360 build/obj/sdc.o
 .debug_frame   0x000025e0      0x2f8 build/obj/serial.o
 .debug_frame   0x000028d8      0x2d8 build/obj/spi.o
 .debug_frame   0x00002bb0      0x378 build/obj/usb.o
 .debug_frame   0x00002f28       0x60 build/obj/nvic.o
 .debug_frame   0x00002f88       0x50 build/obj/hal_lld.o
 .debug_frame   0x00002fd8      0x1e4 build/obj/stm32_dma.o
 .debug_frame   0x000031bc      0x134 build/obj/st_lld.o
 .debug_frame   0x000032f0       0x54 build/obj/pal_lld.o
 .debug_frame   0x00003344      0x504 build/obj/usb_lld.o
 .debug_frame   0x00003848      0x414 build/obj/sdc_lld.o
 .debug_frame   0x00003c5c      0x298 build/obj/spi_lld.o
 .debug_frame   0x00003ef4      0x1f4 build/obj/serial_lld.o
 .debug_frame   0x000040e8       0x64 build/obj/board.o
 .debug_frame   0x0000414c      0x310 build/obj/test.o
 .debug_frame   0x0000445c      0x154 build/obj/testthd.o
 .debug_frame   0x000045b0      0x2c4 build/obj/testsem.o
 .debug_frame   0x00004874      0x2a8 build/obj/testmtx.o
 .debug_frame   0x00004b1c       0x8c build/obj/testmsg.o
 .debug_frame   0x00004ba8       0xf4 build/obj/testmbox.o
 .debug_frame   0x00004c9c      0x260 build/obj/testevt.o
 .debug_frame   0x00004efc       0x48 build/obj/testheap.o
 .debug_frame   0x00004f44       0x5c build/obj/testpools.o
 .debug_frame   0x00004fa0      0x11c build/obj/testdyn.o
 .debug_frame   0x000050bc      0x208 build/obj/testqueues.o
 .debug_frame   0x000052c4      0x2d4 build/obj/testsys.o
 .debug_frame   0x00005598      0x364 build/obj/testbmk.o
 .debug_frame   0x000058fc      0x1e0 build/obj/evtimer.o
 .debug_frame   0x00005adc       0x84 build/obj/memstreams.o
 .debug_frame   0x00005b60       0xa8 build/obj/chprintf.o
 .debug_frame   0x00005c08      0x230 build/obj/shell.o
 .debug_frame   0x00005e38       0xa8 build/obj/main.o
 .debug_frame   0x00005ee0     0x1534 build/obj/LSM303AGR_ACC_driver.o
 .debug_frame   0x00007414       0x48 build/obj/SensorTile.o
 .debug_frame   0x0000745c       0x50 /nfs/nfs5/home/research/hardware/arm2/gcc-arm-embedded/gcc-arm-none-eabi-4_8-2014q2/bin/../lib/gcc/arm-none-eabi/4.8.4/armv7e-m/libgcc.a(bpabi.o)
 .debug_frame   0x000074ac       0x34 /nfs/nfs5/home/research/hardware/arm2/gcc-arm-embedded/gcc-arm-none-eabi-4_8-2014q2/bin/../lib/gcc/arm-none-eabi/4.8.4/armv7e-m/libgcc.a(_divdi3.o)
 .debug_frame   0x000074e0       0x34 /nfs/nfs5/home/research/hardware/arm2/gcc-arm-embedded/gcc-arm-none-eabi-4_8-2014q2/bin/../lib/gcc/arm-none-eabi/4.8.4/armv7e-m/libgcc.a(_udivdi3.o)
 .debug_frame   0x00007514       0x2c /nfs/nfs5/home/research/hardware/arm2/gcc-arm-embedded/gcc-arm-none-eabi-4_8-2014q2/bin/../lib/gcc/arm-none-eabi/4.8.4/../../../../arm-none-eabi/lib/armv7e-m/libg.a(lib_a-memset.o)
 .debug_frame   0x00007540       0x2c /nfs/nfs5/home/research/hardware/arm2/gcc-arm-embedded/gcc-arm-none-eabi-4_8-2014q2/bin/../lib/gcc/arm-none-eabi/4.8.4/../../../../arm-none-eabi/lib/armv7e-m/libg.a(lib_a-strpbrk.o)
 .debug_frame   0x0000756c       0x2c /nfs/nfs5/home/research/hardware/arm2/gcc-arm-embedded/gcc-arm-none-eabi-4_8-2014q2/bin/../lib/gcc/arm-none-eabi/4.8.4/../../../../arm-none-eabi/lib/armv7e-m/libg.a(lib_a-strspn.o)

Cross Reference Table

Symbol                                            File
BusFault_Handler                                  build/obj/vectors.o
DebugMon_Handler                                  build/obj/vectors.o
HardFault_Handler                                 build/obj/vectors.o
LSM303AGR_ACC_Get_Acceleration                    build/obj/LSM303AGR_ACC_driver.o
LSM303AGR_ACC_Get_Raw_Acceleration                build/obj/LSM303AGR_ACC_driver.o
LSM303AGR_ACC_Get_Voltage_ADC                     build/obj/LSM303AGR_ACC_driver.o
LSM303AGR_ACC_Init                                build/obj/LSM303AGR_ACC_driver.o
                                                  build/obj/main.o
LSM303AGR_ACC_R_4D_on_INT1                        build/obj/LSM303AGR_ACC_driver.o
LSM303AGR_ACC_R_4D_on_INT2                        build/obj/LSM303AGR_ACC_driver.o
LSM303AGR_ACC_R_ADC_PD                            build/obj/LSM303AGR_ACC_driver.o
LSM303AGR_ACC_R_BlockDataUpdate                   build/obj/LSM303AGR_ACC_driver.o
LSM303AGR_ACC_R_Boot_on_INT2                      build/obj/LSM303AGR_ACC_driver.o
LSM303AGR_ACC_R_CLICK_IA                          build/obj/LSM303AGR_ACC_driver.o
LSM303AGR_ACC_R_ClickSign                         build/obj/LSM303AGR_ACC_driver.o
LSM303AGR_ACC_R_ClickThreshold                    build/obj/LSM303AGR_ACC_driver.o
LSM303AGR_ACC_R_ClickTimeLatency                  build/obj/LSM303AGR_ACC_driver.o
LSM303AGR_ACC_R_ClickTimeLimit                    build/obj/LSM303AGR_ACC_driver.o
LSM303AGR_ACC_R_ClickTimeWindow                   build/obj/LSM303AGR_ACC_driver.o
LSM303AGR_ACC_R_ClickX                            build/obj/LSM303AGR_ACC_driver.o
LSM303AGR_ACC_R_ClickY                            build/obj/LSM303AGR_ACC_driver.o
LSM303AGR_ACC_R_ClickZ                            build/obj/LSM303AGR_ACC_driver.o
LSM303AGR_ACC_R_Click_on_INT2                     build/obj/LSM303AGR_ACC_driver.o
LSM303AGR_ACC_R_DataXOverrun                      build/obj/LSM303AGR_ACC_driver.o
LSM303AGR_ACC_R_DataXYZOverrun                    build/obj/LSM303AGR_ACC_driver.o
LSM303AGR_ACC_R_DataYOverrun                      build/obj/LSM303AGR_ACC_driver.o
LSM303AGR_ACC_R_DataZOverrun                      build/obj/LSM303AGR_ACC_driver.o
LSM303AGR_ACC_R_Data_Filter                       build/obj/LSM303AGR_ACC_driver.o
LSM303AGR_ACC_R_DoubleCLICK                       build/obj/LSM303AGR_ACC_driver.o
LSM303AGR_ACC_R_FIFO_AOL1_on_INT1                 build/obj/LSM303AGR_ACC_driver.o
LSM303AGR_ACC_R_FIFO_AOL2_on_INT1                 build/obj/LSM303AGR_ACC_driver.o
LSM303AGR_ACC_R_FIFO_Click_on_INT1                build/obj/LSM303AGR_ACC_driver.o
LSM303AGR_ACC_R_FIFO_DRDY1_on_INT1                build/obj/LSM303AGR_ACC_driver.o
LSM303AGR_ACC_R_FIFO_DRDY2_on_INT1                build/obj/LSM303AGR_ACC_driver.o
LSM303AGR_ACC_R_FIFO_EN                           build/obj/LSM303AGR_ACC_driver.o
LSM303AGR_ACC_R_FIFO_Overrun_on_INT1              build/obj/LSM303AGR_ACC_driver.o
LSM303AGR_ACC_R_FIFO_Watermark_on_INT1            build/obj/LSM303AGR_ACC_driver.o
LSM303AGR_ACC_R_FifoEmpty                         build/obj/LSM303AGR_ACC_driver.o
LSM303AGR_ACC_R_FifoMode                          build/obj/LSM303AGR_ACC_driver.o
LSM303AGR_ACC_R_FifoOverrun                       build/obj/LSM303AGR_ACC_driver.o
LSM303AGR_ACC_R_FifoSamplesAvail                  build/obj/LSM303AGR_ACC_driver.o
LSM303AGR_ACC_R_FifoThreshold                     build/obj/LSM303AGR_ACC_driver.o
LSM303AGR_ACC_R_FullScale                         build/obj/LSM303AGR_ACC_driver.o
LSM303AGR_ACC_R_HiRes                             build/obj/LSM303AGR_ACC_driver.o
LSM303AGR_ACC_R_I2_on_INT1                        build/obj/LSM303AGR_ACC_driver.o
LSM303AGR_ACC_R_I2_on_INT2                        build/obj/LSM303AGR_ACC_driver.o
LSM303AGR_ACC_R_Int1EnXHi                         build/obj/LSM303AGR_ACC_driver.o
LSM303AGR_ACC_R_Int1EnXLo                         build/obj/LSM303AGR_ACC_driver.o
LSM303AGR_ACC_R_Int1EnYHi                         build/obj/LSM303AGR_ACC_driver.o
LSM303AGR_ACC_R_Int1EnYLo                         build/obj/LSM303AGR_ACC_driver.o
LSM303AGR_ACC_R_Int1EnZHi                         build/obj/LSM303AGR_ACC_driver.o
LSM303AGR_ACC_R_Int1EnZLo                         build/obj/LSM303AGR_ACC_driver.o
LSM303AGR_ACC_R_Int1_6D                           build/obj/LSM303AGR_ACC_driver.o
LSM303AGR_ACC_R_Int1_AOI                          build/obj/LSM303AGR_ACC_driver.o
LSM303AGR_ACC_R_Int1_Duration                     build/obj/LSM303AGR_ACC_driver.o
LSM303AGR_ACC_R_Int1_IA                           build/obj/LSM303AGR_ACC_driver.o
LSM303AGR_ACC_R_Int1_Threshold                    build/obj/LSM303AGR_ACC_driver.o
LSM303AGR_ACC_R_Int1_XHi                          build/obj/LSM303AGR_ACC_driver.o
LSM303AGR_ACC_R_Int1_Xlo                          build/obj/LSM303AGR_ACC_driver.o
LSM303AGR_ACC_R_Int1_YHi                          build/obj/LSM303AGR_ACC_driver.o
LSM303AGR_ACC_R_Int1_YLo                          build/obj/LSM303AGR_ACC_driver.o
LSM303AGR_ACC_R_Int1_ZHi                          build/obj/LSM303AGR_ACC_driver.o
LSM303AGR_ACC_R_Int1_Zlo                          build/obj/LSM303AGR_ACC_driver.o
LSM303AGR_ACC_R_Int2EnXHi                         build/obj/LSM303AGR_ACC_driver.o
LSM303AGR_ACC_R_Int2EnXLo                         build/obj/LSM303AGR_ACC_driver.o
LSM303AGR_ACC_R_Int2EnYHi                         build/obj/LSM303AGR_ACC_driver.o
LSM303AGR_ACC_R_Int2EnYLo                         build/obj/LSM303AGR_ACC_driver.o
LSM303AGR_ACC_R_Int2EnZHi                         build/obj/LSM303AGR_ACC_driver.o
LSM303AGR_ACC_R_Int2EnZLo                         build/obj/LSM303AGR_ACC_driver.o
LSM303AGR_ACC_R_Int2_6D                           build/obj/LSM303AGR_ACC_driver.o
LSM303AGR_ACC_R_Int2_AOI                          build/obj/LSM303AGR_ACC_driver.o
LSM303AGR_ACC_R_Int2_Duration                     build/obj/LSM303AGR_ACC_driver.o
LSM303AGR_ACC_R_Int2_IA                           build/obj/LSM303AGR_ACC_driver.o
LSM303AGR_ACC_R_Int2_Threshold                    build/obj/LSM303AGR_ACC_driver.o
LSM303AGR_ACC_R_Int2_XHi                          build/obj/LSM303AGR_ACC_driver.o
LSM303AGR_ACC_R_Int2_Xlo                          build/obj/LSM303AGR_ACC_driver.o
LSM303AGR_ACC_R_Int2_YHi                          build/obj/LSM303AGR_ACC_driver.o
LSM303AGR_ACC_R_Int2_YLo                          build/obj/LSM303AGR_ACC_driver.o
LSM303AGR_ACC_R_Int2_ZHi                          build/obj/LSM303AGR_ACC_driver.o
LSM303AGR_ACC_R_Int2_Zlo                          build/obj/LSM303AGR_ACC_driver.o
LSM303AGR_ACC_R_IntActive                         build/obj/LSM303AGR_ACC_driver.o
LSM303AGR_ACC_R_LOWPWR_EN                         build/obj/LSM303AGR_ACC_driver.o
LSM303AGR_ACC_R_LatchInterrupt_on_INT1            build/obj/LSM303AGR_ACC_driver.o
LSM303AGR_ACC_R_LatchInterrupt_on_INT2            build/obj/LSM303AGR_ACC_driver.o
LSM303AGR_ACC_R_LittleBigEndian                   build/obj/LSM303AGR_ACC_driver.o
LSM303AGR_ACC_R_ODR                               build/obj/LSM303AGR_ACC_driver.o
LSM303AGR_ACC_R_P2_ACT                            build/obj/LSM303AGR_ACC_driver.o
LSM303AGR_ACC_R_RebootMemory                      build/obj/LSM303AGR_ACC_driver.o
LSM303AGR_ACC_R_ReferenceVal                      build/obj/LSM303AGR_ACC_driver.o
LSM303AGR_ACC_R_SPI_mode                          build/obj/LSM303AGR_ACC_driver.o
LSM303AGR_ACC_R_SelfTest                          build/obj/LSM303AGR_ACC_driver.o
LSM303AGR_ACC_R_SingleCLICK                       build/obj/LSM303AGR_ACC_driver.o
LSM303AGR_ACC_R_TEMP_EN_bits                      build/obj/LSM303AGR_ACC_driver.o
LSM303AGR_ACC_R_TriggerSel                        build/obj/LSM303AGR_ACC_driver.o
LSM303AGR_ACC_R_WHO_AM_I                          build/obj/LSM303AGR_ACC_driver.o
                                                  build/obj/main.o
LSM303AGR_ACC_R_WatermarkLevel                    build/obj/LSM303AGR_ACC_driver.o
LSM303AGR_ACC_R_XDataAvail                        build/obj/LSM303AGR_ACC_driver.o
LSM303AGR_ACC_R_XDataOverrun                      build/obj/LSM303AGR_ACC_driver.o
LSM303AGR_ACC_R_XDouble                           build/obj/LSM303AGR_ACC_driver.o
LSM303AGR_ACC_R_XEN                               build/obj/LSM303AGR_ACC_driver.o
LSM303AGR_ACC_R_XSingle                           build/obj/LSM303AGR_ACC_driver.o
LSM303AGR_ACC_R_XYZDataAvail                      build/obj/LSM303AGR_ACC_driver.o
LSM303AGR_ACC_R_XYZDataOverrun                    build/obj/LSM303AGR_ACC_driver.o
LSM303AGR_ACC_R_YDataAvail                        build/obj/LSM303AGR_ACC_driver.o
LSM303AGR_ACC_R_YDataOverrun                      build/obj/LSM303AGR_ACC_driver.o
LSM303AGR_ACC_R_YDouble                           build/obj/LSM303AGR_ACC_driver.o
LSM303AGR_ACC_R_YEN                               build/obj/LSM303AGR_ACC_driver.o
LSM303AGR_ACC_R_YSingle                           build/obj/LSM303AGR_ACC_driver.o
LSM303AGR_ACC_R_ZDataAvail                        build/obj/LSM303AGR_ACC_driver.o
LSM303AGR_ACC_R_ZDataOverrun                      build/obj/LSM303AGR_ACC_driver.o
LSM303AGR_ACC_R_ZDouble                           build/obj/LSM303AGR_ACC_driver.o
LSM303AGR_ACC_R_ZEN                               build/obj/LSM303AGR_ACC_driver.o
LSM303AGR_ACC_R_ZSingle                           build/obj/LSM303AGR_ACC_driver.o
LSM303AGR_ACC_R_hpf_aoi_en_int1                   build/obj/LSM303AGR_ACC_driver.o
LSM303AGR_ACC_R_hpf_aoi_en_int2                   build/obj/LSM303AGR_ACC_driver.o
LSM303AGR_ACC_R_hpf_click_en                      build/obj/LSM303AGR_ACC_driver.o
LSM303AGR_ACC_R_hpf_cutoff_freq                   build/obj/LSM303AGR_ACC_driver.o
LSM303AGR_ACC_R_hpf_mode                          build/obj/LSM303AGR_ACC_driver.o
LSM303AGR_ACC_R_int_counter                       build/obj/LSM303AGR_ACC_driver.o
LSM303AGR_ACC_R_x_data_avail                      build/obj/LSM303AGR_ACC_driver.o
LSM303AGR_ACC_R_xyz_data_avail                    build/obj/LSM303AGR_ACC_driver.o
LSM303AGR_ACC_R_y_data_avail                      build/obj/LSM303AGR_ACC_driver.o
LSM303AGR_ACC_R_z_data_avail                      build/obj/LSM303AGR_ACC_driver.o
LSM303AGR_ACC_ReadReg                             build/obj/LSM303AGR_ACC_driver.o
LSM303AGR_ACC_Sensitivity_List                    build/obj/LSM303AGR_ACC_driver.o
LSM303AGR_ACC_W_4D_on_INT1                        build/obj/LSM303AGR_ACC_driver.o
LSM303AGR_ACC_W_4D_on_INT2                        build/obj/LSM303AGR_ACC_driver.o
LSM303AGR_ACC_W_ADC_PD                            build/obj/LSM303AGR_ACC_driver.o
LSM303AGR_ACC_W_BlockDataUpdate                   build/obj/LSM303AGR_ACC_driver.o
LSM303AGR_ACC_W_Boot_on_INT2                      build/obj/LSM303AGR_ACC_driver.o
LSM303AGR_ACC_W_ClickThreshold                    build/obj/LSM303AGR_ACC_driver.o
LSM303AGR_ACC_W_ClickTimeLatency                  build/obj/LSM303AGR_ACC_driver.o
LSM303AGR_ACC_W_ClickTimeLimit                    build/obj/LSM303AGR_ACC_driver.o
LSM303AGR_ACC_W_ClickTimeWindow                   build/obj/LSM303AGR_ACC_driver.o
LSM303AGR_ACC_W_Click_on_INT2                     build/obj/LSM303AGR_ACC_driver.o
LSM303AGR_ACC_W_Data_Filter                       build/obj/LSM303AGR_ACC_driver.o
LSM303AGR_ACC_W_FIFO_AOL1_on_INT1                 build/obj/LSM303AGR_ACC_driver.o
LSM303AGR_ACC_W_FIFO_AOL2_on_INT1                 build/obj/LSM303AGR_ACC_driver.o
LSM303AGR_ACC_W_FIFO_Click_on_INT1                build/obj/LSM303AGR_ACC_driver.o
LSM303AGR_ACC_W_FIFO_DRDY1_on_INT1                build/obj/LSM303AGR_ACC_driver.o
LSM303AGR_ACC_W_FIFO_DRDY2_on_INT1                build/obj/LSM303AGR_ACC_driver.o
LSM303AGR_ACC_W_FIFO_EN                           build/obj/LSM303AGR_ACC_driver.o
LSM303AGR_ACC_W_FIFO_Overrun_on_INT1              build/obj/LSM303AGR_ACC_driver.o
LSM303AGR_ACC_W_FIFO_Watermark_on_INT1            build/obj/LSM303AGR_ACC_driver.o
LSM303AGR_ACC_W_FifoMode                          build/obj/LSM303AGR_ACC_driver.o
LSM303AGR_ACC_W_FifoThreshold                     build/obj/LSM303AGR_ACC_driver.o
LSM303AGR_ACC_W_FullScale                         build/obj/LSM303AGR_ACC_driver.o
LSM303AGR_ACC_W_HiRes                             build/obj/LSM303AGR_ACC_driver.o
LSM303AGR_ACC_W_I2_on_INT1                        build/obj/LSM303AGR_ACC_driver.o
LSM303AGR_ACC_W_I2_on_INT2                        build/obj/LSM303AGR_ACC_driver.o
LSM303AGR_ACC_W_Int1EnXHi                         build/obj/LSM303AGR_ACC_driver.o
LSM303AGR_ACC_W_Int1EnXLo                         build/obj/LSM303AGR_ACC_driver.o
LSM303AGR_ACC_W_Int1EnYHi                         build/obj/LSM303AGR_ACC_driver.o
LSM303AGR_ACC_W_Int1EnYLo                         build/obj/LSM303AGR_ACC_driver.o
LSM303AGR_ACC_W_Int1EnZHi                         build/obj/LSM303AGR_ACC_driver.o
LSM303AGR_ACC_W_Int1EnZLo                         build/obj/LSM303AGR_ACC_driver.o
LSM303AGR_ACC_W_Int1_6D                           build/obj/LSM303AGR_ACC_driver.o
LSM303AGR_ACC_W_Int1_AOI                          build/obj/LSM303AGR_ACC_driver.o
LSM303AGR_ACC_W_Int1_Duration                     build/obj/LSM303AGR_ACC_driver.o
LSM303AGR_ACC_W_Int1_Threshold                    build/obj/LSM303AGR_ACC_driver.o
LSM303AGR_ACC_W_Int2EnXHi                         build/obj/LSM303AGR_ACC_driver.o
LSM303AGR_ACC_W_Int2EnXLo                         build/obj/LSM303AGR_ACC_driver.o
LSM303AGR_ACC_W_Int2EnYHi                         build/obj/LSM303AGR_ACC_driver.o
LSM303AGR_ACC_W_Int2EnYLo                         build/obj/LSM303AGR_ACC_driver.o
LSM303AGR_ACC_W_Int2EnZHi                         build/obj/LSM303AGR_ACC_driver.o
LSM303AGR_ACC_W_Int2EnZLo                         build/obj/LSM303AGR_ACC_driver.o
LSM303AGR_ACC_W_Int2_6D                           build/obj/LSM303AGR_ACC_driver.o
LSM303AGR_ACC_W_Int2_AOI                          build/obj/LSM303AGR_ACC_driver.o
LSM303AGR_ACC_W_Int2_Duration                     build/obj/LSM303AGR_ACC_driver.o
LSM303AGR_ACC_W_Int2_Threshold                    build/obj/LSM303AGR_ACC_driver.o
LSM303AGR_ACC_W_IntActive                         build/obj/LSM303AGR_ACC_driver.o
LSM303AGR_ACC_W_LOWPWR_EN                         build/obj/LSM303AGR_ACC_driver.o
LSM303AGR_ACC_W_LatchInterrupt_on_INT1            build/obj/LSM303AGR_ACC_driver.o
LSM303AGR_ACC_W_LatchInterrupt_on_INT2            build/obj/LSM303AGR_ACC_driver.o
LSM303AGR_ACC_W_LittleBigEndian                   build/obj/LSM303AGR_ACC_driver.o
LSM303AGR_ACC_W_ODR                               build/obj/LSM303AGR_ACC_driver.o
LSM303AGR_ACC_W_P2_ACT                            build/obj/LSM303AGR_ACC_driver.o
LSM303AGR_ACC_W_RebootMemory                      build/obj/LSM303AGR_ACC_driver.o
LSM303AGR_ACC_W_ReferenceVal                      build/obj/LSM303AGR_ACC_driver.o
LSM303AGR_ACC_W_SPI_mode                          build/obj/LSM303AGR_ACC_driver.o
LSM303AGR_ACC_W_SelfTest                          build/obj/LSM303AGR_ACC_driver.o
LSM303AGR_ACC_W_TEMP_EN_bits                      build/obj/LSM303AGR_ACC_driver.o
LSM303AGR_ACC_W_TriggerSel                        build/obj/LSM303AGR_ACC_driver.o
LSM303AGR_ACC_W_XDouble                           build/obj/LSM303AGR_ACC_driver.o
LSM303AGR_ACC_W_XEN                               build/obj/LSM303AGR_ACC_driver.o
LSM303AGR_ACC_W_XSingle                           build/obj/LSM303AGR_ACC_driver.o
LSM303AGR_ACC_W_YDouble                           build/obj/LSM303AGR_ACC_driver.o
LSM303AGR_ACC_W_YEN                               build/obj/LSM303AGR_ACC_driver.o
LSM303AGR_ACC_W_YSingle                           build/obj/LSM303AGR_ACC_driver.o
LSM303AGR_ACC_W_ZDouble                           build/obj/LSM303AGR_ACC_driver.o
LSM303AGR_ACC_W_ZEN                               build/obj/LSM303AGR_ACC_driver.o
LSM303AGR_ACC_W_ZSingle                           build/obj/LSM303AGR_ACC_driver.o
LSM303AGR_ACC_W_hpf_aoi_en_int1                   build/obj/LSM303AGR_ACC_driver.o
LSM303AGR_ACC_W_hpf_aoi_en_int2                   build/obj/LSM303AGR_ACC_driver.o
LSM303AGR_ACC_W_hpf_click_en                      build/obj/LSM303AGR_ACC_driver.o
LSM303AGR_ACC_W_hpf_cutoff_freq                   build/obj/LSM303AGR_ACC_driver.o
LSM303AGR_ACC_W_hpf_mode                          build/obj/LSM303AGR_ACC_driver.o
LSM303AGR_ACC_WriteReg                            build/obj/LSM303AGR_ACC_driver.o
MemManage_Handler                                 build/obj/vectors.o
NMI_Handler                                       build/obj/vectors.o
PendSV_Handler                                    build/obj/vectors.o
Reset_Handler                                     build/obj/crt0_v7m.o
                                                  build/obj/vectors.o
SD5                                               build/obj/main.o
                                                  build/obj/serial_lld.o
SDCD1                                             build/obj/sdc_lld.o
SPID2                                             build/obj/LSM303AGR_ACC_driver.o
                                                  build/obj/spi_lld.o
SVC_Handler                                       build/obj/chcore_v7m.o
                                                  build/obj/vectors.o
Sensor_IO_SPI_Read                                build/obj/SensorTile.o
                                                  build/obj/LSM303AGR_ACC_driver.o
Sensor_IO_SPI_Write                               build/obj/SensorTile.o
                                                  build/obj/LSM303AGR_ACC_driver.o
SysTick_Handler                                   build/obj/st_lld.o
                                                  build/obj/vectors.o
SystemCoreClock                                   build/obj/hal_lld.o
TestThread                                        build/obj/test.o
USBD1                                             build/obj/usb_lld.o
UsageFault_Handler                                build/obj/vectors.o
Vector100                                         build/obj/vectors.o
Vector104                                         build/obj/sdc_lld.o
                                                  build/obj/vectors.o
Vector108                                         build/obj/vectors.o
Vector10C                                         build/obj/vectors.o
Vector110                                         build/obj/vectors.o
Vector114                                         build/obj/serial_lld.o
                                                  build/obj/vectors.o
Vector118                                         build/obj/vectors.o
Vector11C                                         build/obj/vectors.o
Vector120                                         build/obj/stm32_dma.o
                                                  build/obj/vectors.o
Vector124                                         build/obj/stm32_dma.o
                                                  build/obj/vectors.o
Vector128                                         build/obj/stm32_dma.o
                                                  build/obj/vectors.o
Vector12C                                         build/obj/stm32_dma.o
                                                  build/obj/vectors.o
Vector130                                         build/obj/stm32_dma.o
                                                  build/obj/vectors.o
Vector134                                         build/obj/vectors.o
Vector138                                         build/obj/vectors.o
Vector13C                                         build/obj/vectors.o
Vector140                                         build/obj/vectors.o
Vector144                                         build/obj/vectors.o
Vector148                                         build/obj/vectors.o
Vector14C                                         build/obj/usb_lld.o
                                                  build/obj/vectors.o
Vector150                                         build/obj/stm32_dma.o
                                                  build/obj/vectors.o
Vector154                                         build/obj/stm32_dma.o
                                                  build/obj/vectors.o
Vector158                                         build/obj/vectors.o
Vector15C                                         build/obj/vectors.o
Vector160                                         build/obj/vectors.o
Vector164                                         build/obj/vectors.o
Vector168                                         build/obj/vectors.o
Vector16C                                         build/obj/vectors.o
Vector170                                         build/obj/vectors.o
Vector174                                         build/obj/vectors.o
Vector178                                         build/obj/vectors.o
Vector17C                                         build/obj/vectors.o
Vector180                                         build/obj/vectors.o
Vector184                                         build/obj/vectors.o
Vector188                                         build/obj/vectors.o
Vector18C                                         build/obj/vectors.o
Vector190                                         build/obj/vectors.o
Vector194                                         build/obj/vectors.o
Vector198                                         build/obj/vectors.o
Vector19C                                         build/obj/vectors.o
Vector1C                                          build/obj/vectors.o
Vector20                                          build/obj/vectors.o
Vector24                                          build/obj/vectors.o
Vector28                                          build/obj/vectors.o
Vector34                                          build/obj/vectors.o
Vector40                                          build/obj/vectors.o
Vector44                                          build/obj/vectors.o
Vector48                                          build/obj/vectors.o
Vector4C                                          build/obj/vectors.o
Vector50                                          build/obj/vectors.o
Vector54                                          build/obj/vectors.o
Vector58                                          build/obj/vectors.o
Vector5C                                          build/obj/vectors.o
Vector60                                          build/obj/vectors.o
Vector64                                          build/obj/vectors.o
Vector68                                          build/obj/vectors.o
Vector6C                                          build/obj/stm32_dma.o
                                                  build/obj/vectors.o
Vector70                                          build/obj/stm32_dma.o
                                                  build/obj/vectors.o
Vector74                                          build/obj/stm32_dma.o
                                                  build/obj/vectors.o
Vector78                                          build/obj/stm32_dma.o
                                                  build/obj/vectors.o
Vector7C                                          build/obj/stm32_dma.o
                                                  build/obj/vectors.o
Vector80                                          build/obj/stm32_dma.o
                                                  build/obj/vectors.o
Vector84                                          build/obj/stm32_dma.o
                                                  build/obj/vectors.o
Vector88                                          build/obj/vectors.o
Vector8C                                          build/obj/vectors.o
Vector90                                          build/obj/vectors.o
Vector94                                          build/obj/vectors.o
Vector98                                          build/obj/vectors.o
Vector9C                                          build/obj/vectors.o
VectorA0                                          build/obj/vectors.o
VectorA4                                          build/obj/vectors.o
VectorA8                                          build/obj/vectors.o
VectorAC                                          build/obj/vectors.o
VectorB0                                          build/obj/vectors.o
VectorB4                                          build/obj/vectors.o
VectorB8                                          build/obj/vectors.o
VectorBC                                          build/obj/vectors.o
VectorC0                                          build/obj/vectors.o
VectorC4                                          build/obj/vectors.o
VectorC8                                          build/obj/vectors.o
VectorCC                                          build/obj/vectors.o
VectorD0                                          build/obj/vectors.o
VectorD4                                          build/obj/vectors.o
VectorD8                                          build/obj/vectors.o
VectorDC                                          build/obj/vectors.o
VectorE0                                          build/obj/vectors.o
VectorE4                                          build/obj/vectors.o
VectorE8                                          build/obj/vectors.o
VectorEC                                          build/obj/vectors.o
VectorF0                                          build/obj/vectors.o
VectorF4                                          build/obj/vectors.o
VectorF8                                          build/obj/vectors.o
VectorFC                                          build/obj/vectors.o
__aeabi_idiv0                                     /nfs/nfs5/home/research/hardware/arm2/gcc-arm-embedded/gcc-arm-none-eabi-4_8-2014q2/bin/../lib/gcc/arm-none-eabi/4.8.4/armv7e-m/libgcc.a(_dvmd_tls.o)
__aeabi_ldiv0                                     /nfs/nfs5/home/research/hardware/arm2/gcc-arm-embedded/gcc-arm-none-eabi-4_8-2014q2/bin/../lib/gcc/arm-none-eabi/4.8.4/armv7e-m/libgcc.a(_dvmd_tls.o)
                                                  /nfs/nfs5/home/research/hardware/arm2/gcc-arm-embedded/gcc-arm-none-eabi-4_8-2014q2/bin/../lib/gcc/arm-none-eabi/4.8.4/armv7e-m/libgcc.a(_aeabi_ldivmod.o)
__aeabi_ldivmod                                   /nfs/nfs5/home/research/hardware/arm2/gcc-arm-embedded/gcc-arm-none-eabi-4_8-2014q2/bin/../lib/gcc/arm-none-eabi/4.8.4/armv7e-m/libgcc.a(_aeabi_ldivmod.o)
                                                  build/obj/LSM303AGR_ACC_driver.o
__core_init                                       build/obj/crt1.o
                                                  build/obj/crt0_v7m.o
__default_exit                                    build/obj/crt1.o
                                                  build/obj/crt0_v7m.o
__divdi3                                          /nfs/nfs5/home/research/hardware/arm2/gcc-arm-embedded/gcc-arm-none-eabi-4_8-2014q2/bin/../lib/gcc/arm-none-eabi/4.8.4/armv7e-m/libgcc.a(_divdi3.o)
                                                  /nfs/nfs5/home/research/hardware/arm2/gcc-arm-embedded/gcc-arm-none-eabi-4_8-2014q2/bin/../lib/gcc/arm-none-eabi/4.8.4/armv7e-m/libgcc.a(bpabi.o)
__early_init                                      build/obj/board.o
                                                  build/obj/crt1.o
                                                  build/obj/crt0_v7m.o
__fini_array_end                                  build/obj/crt0_v7m.o
__fini_array_start                                build/obj/crt0_v7m.o
__gnu_ldivmod_helper                              /nfs/nfs5/home/research/hardware/arm2/gcc-arm-embedded/gcc-arm-none-eabi-4_8-2014q2/bin/../lib/gcc/arm-none-eabi/4.8.4/armv7e-m/libgcc.a(bpabi.o)
                                                  /nfs/nfs5/home/research/hardware/arm2/gcc-arm-embedded/gcc-arm-none-eabi-4_8-2014q2/bin/../lib/gcc/arm-none-eabi/4.8.4/armv7e-m/libgcc.a(_aeabi_ldivmod.o)
__gnu_uldivmod_helper                             /nfs/nfs5/home/research/hardware/arm2/gcc-arm-embedded/gcc-arm-none-eabi-4_8-2014q2/bin/../lib/gcc/arm-none-eabi/4.8.4/armv7e-m/libgcc.a(bpabi.o)
__heap_base__                                     build/obj/chmemcore.o
__heap_end__                                      build/obj/chmemcore.o
__init_array_end                                  build/obj/crt0_v7m.o
__init_array_start                                build/obj/crt0_v7m.o
__init_ram_areas                                  build/obj/crt1.o
                                                  build/obj/crt0_v7m.o
__late_init                                       build/obj/crt1.o
                                                  build/obj/crt0_v7m.o
__main_stack_base__                               build/obj/crt0_v7m.o
__main_stack_end__                                build/obj/vectors.o
                                                  build/obj/crt0_v7m.o
__process_stack_base__                            build/obj/crt0_v7m.o
__process_stack_end__                             build/obj/crt0_v7m.o
__ram0_clear__                                    build/obj/crt1.o
__ram0_init__                                     build/obj/crt1.o
__ram0_init_text__                                build/obj/crt1.o
__ram0_noinit__                                   build/obj/crt1.o
__ram1_clear__                                    build/obj/crt1.o
__ram1_init__                                     build/obj/crt1.o
__ram1_init_text__                                build/obj/crt1.o
__ram1_noinit__                                   build/obj/crt1.o
__ram2_clear__                                    build/obj/crt1.o
__ram2_init__                                     build/obj/crt1.o
__ram2_init_text__                                build/obj/crt1.o
__ram2_noinit__                                   build/obj/crt1.o
__ram3_clear__                                    build/obj/crt1.o
__ram3_init__                                     build/obj/crt1.o
__ram3_init_text__                                build/obj/crt1.o
__ram3_noinit__                                   build/obj/crt1.o
__ram4_clear__                                    build/obj/crt1.o
__ram4_init__                                     build/obj/crt1.o
__ram4_init_text__                                build/obj/crt1.o
__ram4_noinit__                                   build/obj/crt1.o
__ram5_clear__                                    build/obj/crt1.o
__ram5_init__                                     build/obj/crt1.o
__ram5_init_text__                                build/obj/crt1.o
__ram5_noinit__                                   build/obj/crt1.o
__ram6_clear__                                    build/obj/crt1.o
__ram6_init__                                     build/obj/crt1.o
__ram6_init_text__                                build/obj/crt1.o
__ram6_noinit__                                   build/obj/crt1.o
__ram7_clear__                                    build/obj/crt1.o
__ram7_init__                                     build/obj/crt1.o
__ram7_init_text__                                build/obj/crt1.o
__ram7_noinit__                                   build/obj/crt1.o
__udivdi3                                         /nfs/nfs5/home/research/hardware/arm2/gcc-arm-embedded/gcc-arm-none-eabi-4_8-2014q2/bin/../lib/gcc/arm-none-eabi/4.8.4/armv7e-m/libgcc.a(_udivdi3.o)
                                                  /nfs/nfs5/home/research/hardware/arm2/gcc-arm-embedded/gcc-arm-none-eabi-4_8-2014q2/bin/../lib/gcc/arm-none-eabi/4.8.4/armv7e-m/libgcc.a(bpabi.o)
_bss_end                                          build/obj/crt0_v7m.o
_bss_start                                        build/obj/crt0_v7m.o
_core_init                                        build/obj/chmemcore.o
                                                  build/obj/chsys.o
_data_end                                         build/obj/crt0_v7m.o
_data_start                                       build/obj/crt0_v7m.o
_heap_init                                        build/obj/chheap.o
                                                  build/obj/chsys.o
_mmcsd_get_capacity                               build/obj/hal_mmcsd.o
                                                  build/obj/sdc.o
_mmcsd_get_capacity_ext                           build/obj/hal_mmcsd.o
                                                  build/obj/sdc.o
_mmcsd_get_slice                                  build/obj/hal_mmcsd.o
                                                  build/obj/sdc.o
_mmcsd_unpack_csd_mmc                             build/obj/hal_mmcsd.o
_mmcsd_unpack_csd_v10                             build/obj/hal_mmcsd.o
_mmcsd_unpack_csd_v20                             build/obj/hal_mmcsd.o
_mmcsd_unpack_mmc_cid                             build/obj/hal_mmcsd.o
_mmcsd_unpack_sdc_cid                             build/obj/hal_mmcsd.o
_pal_lld_init                                     build/obj/pal_lld.o
                                                  build/obj/hal.o
_pal_lld_setgroupmode                             build/obj/pal_lld.o
                                                  build/obj/pal.o
_port_exit_from_isr                               build/obj/chcoreasm_v7m.o
                                                  build/obj/chcore_v7m.o
_port_irq_epilogue                                build/obj/chcore_v7m.o
                                                  build/obj/serial_lld.o
                                                  build/obj/sdc_lld.o
                                                  build/obj/usb_lld.o
                                                  build/obj/st_lld.o
                                                  build/obj/stm32_dma.o
_port_switch                                      build/obj/chcoreasm_v7m.o
                                                  build/obj/chschd.o
_port_switch_from_isr                             build/obj/chcoreasm_v7m.o
                                                  build/obj/chcore_v7m.o
_port_thread_start                                build/obj/chcoreasm_v7m.o
                                                  build/obj/chthreads.o
_scheduler_init                                   build/obj/chschd.o
                                                  build/obj/chsys.o
_sdc_wait_for_transfer_state                      build/obj/sdc.o
                                                  build/obj/sdc_lld.o
_stm32_dma_isr_redir                              build/obj/stm32_dma.o
_stm32_dma_streams                                build/obj/stm32_dma.o
                                                  build/obj/spi_lld.o
                                                  build/obj/sdc_lld.o
_test_assert                                      build/obj/test.o
                                                  build/obj/testsys.o
                                                  build/obj/testqueues.o
                                                  build/obj/testdyn.o
                                                  build/obj/testpools.o
                                                  build/obj/testheap.o
                                                  build/obj/testevt.o
                                                  build/obj/testmbox.o
                                                  build/obj/testmtx.o
                                                  build/obj/testsem.o
                                                  build/obj/testthd.o
_test_assert_sequence                             build/obj/test.o
                                                  build/obj/testqueues.o
                                                  build/obj/testdyn.o
                                                  build/obj/testevt.o
                                                  build/obj/testmbox.o
                                                  build/obj/testmsg.o
                                                  build/obj/testmtx.o
                                                  build/obj/testsem.o
                                                  build/obj/testthd.o
_test_assert_time_window                          build/obj/test.o
                                                  build/obj/testevt.o
                                                  build/obj/testsem.o
                                                  build/obj/testthd.o
_test_fail                                        build/obj/test.o
_textdata_start                                   build/obj/crt0_v7m.o
_thread_init                                      build/obj/chthreads.o
                                                  build/obj/chsys.o
_tm_init                                          build/obj/chtm.o
                                                  build/obj/chsys.o
_unhandled_exception                              build/obj/vectors.o
_usb_ep0in                                        build/obj/usb.o
                                                  build/obj/usb_lld.o
_usb_ep0out                                       build/obj/usb.o
                                                  build/obj/usb_lld.o
_usb_ep0setup                                     build/obj/usb.o
                                                  build/obj/usb_lld.o
_usb_reset                                        build/obj/usb.o
                                                  build/obj/usb_lld.o
_usb_suspend                                      build/obj/usb.o
                                                  build/obj/usb_lld.o
_usb_wakeup                                       build/obj/usb.o
                                                  build/obj/usb_lld.o
_vectors                                          build/obj/vectors.o
_vt_init                                          build/obj/chvt.o
                                                  build/obj/chsys.o
boardInit                                         build/obj/board.o
                                                  build/obj/hal.o
ch                                                build/obj/main.o
                                                  build/obj/shell.o
                                                  build/obj/testbmk.o
                                                  build/obj/testqueues.o
                                                  build/obj/testdyn.o
                                                  build/obj/testevt.o
                                                  build/obj/testmsg.o
                                                  build/obj/testmtx.o
                                                  build/obj/testsem.o
                                                  build/obj/testthd.o
                                                  build/obj/test.o
                                                  build/obj/usb_lld.o
                                                  build/obj/hal_buffers.o
                                                  build/obj/chmsg.o
                                                  build/obj/chevents.o
                                                  build/obj/chcond.o
                                                  build/obj/chmtx.o
                                                  build/obj/chsem.o
                                                  build/obj/chregistry.o
                                                  build/obj/chtm.o
                                                  build/obj/chthreads.o
                                                  build/obj/chschd.o
                                                  build/obj/chvt.o
                                                  build/obj/chsys.o
chCondBroadcast                                   build/obj/chcond.o
                                                  build/obj/testmtx.o
chCondBroadcastI                                  build/obj/chcond.o
chCondObjectInit                                  build/obj/chcond.o
                                                  build/obj/testmtx.o
chCondSignal                                      build/obj/chcond.o
                                                  build/obj/testmtx.o
chCondSignalI                                     build/obj/chcond.o
                                                  build/obj/testmtx.o
chCondWait                                        build/obj/chcond.o
                                                  build/obj/testmtx.o
chCondWaitS                                       build/obj/chcond.o
chCondWaitTimeout                                 build/obj/chcond.o
                                                  build/obj/testmtx.o
chCondWaitTimeoutS                                build/obj/chcond.o
chCoreAlloc                                       build/obj/chmemcore.o
                                                  build/obj/chheap.o
chCoreAllocI                                      build/obj/chmemcore.o
chCoreGetStatusX                                  build/obj/chmemcore.o
                                                  build/obj/testheap.o
chEvtAddEvents                                    build/obj/chevents.o
                                                  build/obj/testevt.o
chEvtBroadcastFlags                               build/obj/chevents.o
                                                  build/obj/testevt.o
chEvtBroadcastFlagsI                              build/obj/chevents.o
                                                  build/obj/shell.o
                                                  build/obj/evtimer.o
                                                  build/obj/serial_lld.o
                                                  build/obj/serial.o
chEvtDispatch                                     build/obj/chevents.o
                                                  build/obj/testevt.o
chEvtGetAndClearEvents                            build/obj/chevents.o
                                                  build/obj/testevt.o
chEvtGetAndClearFlags                             build/obj/chevents.o
chEvtGetAndClearFlagsI                            build/obj/chevents.o
chEvtRegisterMaskWithFlags                        build/obj/chevents.o
                                                  build/obj/testevt.o
chEvtSignal                                       build/obj/chevents.o
                                                  build/obj/testevt.o
chEvtSignalI                                      build/obj/chevents.o
chEvtUnregister                                   build/obj/chevents.o
                                                  build/obj/testevt.o
chEvtWaitAll                                      build/obj/chevents.o
                                                  build/obj/testevt.o
chEvtWaitAllTimeout                               build/obj/chevents.o
                                                  build/obj/testevt.o
chEvtWaitAny                                      build/obj/chevents.o
                                                  build/obj/testevt.o
chEvtWaitAnyTimeout                               build/obj/chevents.o
                                                  build/obj/testevt.o
chEvtWaitOne                                      build/obj/chevents.o
                                                  build/obj/testevt.o
chEvtWaitOneTimeout                               build/obj/chevents.o
                                                  build/obj/testevt.o
chHeapAlloc                                       build/obj/chheap.o
                                                  build/obj/testdyn.o
                                                  build/obj/testheap.o
                                                  build/obj/chdynamic.o
chHeapFree                                        build/obj/chheap.o
                                                  build/obj/testdyn.o
                                                  build/obj/testheap.o
                                                  build/obj/chdynamic.o
chHeapObjectInit                                  build/obj/chheap.o
                                                  build/obj/testdyn.o
                                                  build/obj/testheap.o
chHeapStatus                                      build/obj/chheap.o
                                                  build/obj/testdyn.o
                                                  build/obj/testheap.o
chIQGetTimeout                                    build/obj/chqueues.o
                                                  build/obj/testbmk.o
                                                  build/obj/testqueues.o
                                                  build/obj/serial.o
chIQObjectInit                                    build/obj/chqueues.o
                                                  build/obj/testbmk.o
                                                  build/obj/testqueues.o
                                                  build/obj/serial.o
chIQPutI                                          build/obj/chqueues.o
                                                  build/obj/testbmk.o
                                                  build/obj/testqueues.o
                                                  build/obj/serial.o
chIQReadTimeout                                   build/obj/chqueues.o
                                                  build/obj/testqueues.o
                                                  build/obj/serial.o
chIQResetI                                        build/obj/chqueues.o
                                                  build/obj/testqueues.o
                                                  build/obj/serial.o
chMBFetch                                         build/obj/chmboxes.o
                                                  build/obj/testmbox.o
chMBFetchI                                        build/obj/chmboxes.o
                                                  build/obj/testmbox.o
chMBFetchS                                        build/obj/chmboxes.o
chMBObjectInit                                    build/obj/chmboxes.o
                                                  build/obj/testmbox.o
chMBPost                                          build/obj/chmboxes.o
                                                  build/obj/testmbox.o
chMBPostAhead                                     build/obj/chmboxes.o
                                                  build/obj/testmbox.o
chMBPostAheadI                                    build/obj/chmboxes.o
                                                  build/obj/testmbox.o
chMBPostAheadS                                    build/obj/chmboxes.o
chMBPostI                                         build/obj/chmboxes.o
                                                  build/obj/testmbox.o
chMBPostS                                         build/obj/chmboxes.o
chMBReset                                         build/obj/chmboxes.o
                                                  build/obj/testmbox.o
chMBResetI                                        build/obj/chmboxes.o
chMsgRelease                                      build/obj/chmsg.o
                                                  build/obj/testbmk.o
                                                  build/obj/testmsg.o
chMsgSend                                         build/obj/chmsg.o
                                                  build/obj/testbmk.o
                                                  build/obj/testmsg.o
chMsgWait                                         build/obj/chmsg.o
                                                  build/obj/testbmk.o
                                                  build/obj/testmsg.o
chMtxLock                                         build/obj/chmtx.o
                                                  build/obj/testbmk.o
                                                  build/obj/testmtx.o
                                                  build/obj/spi.o
                                                  build/obj/chheap.o
chMtxLockS                                        build/obj/chmtx.o
                                                  build/obj/chcond.o
chMtxObjectInit                                   build/obj/chmtx.o
                                                  build/obj/testbmk.o
                                                  build/obj/testmtx.o
                                                  build/obj/spi.o
                                                  build/obj/chheap.o
chMtxTryLock                                      build/obj/chmtx.o
                                                  build/obj/testmtx.o
chMtxTryLockS                                     build/obj/chmtx.o
chMtxUnlock                                       build/obj/chmtx.o
                                                  build/obj/testbmk.o
                                                  build/obj/testmtx.o
                                                  build/obj/spi.o
                                                  build/obj/chheap.o
chMtxUnlockAll                                    build/obj/chmtx.o
                                                  build/obj/testmtx.o
chMtxUnlockS                                      build/obj/chmtx.o
                                                  build/obj/testmtx.o
                                                  build/obj/chcond.o
chOQGetI                                          build/obj/chqueues.o
                                                  build/obj/testqueues.o
                                                  build/obj/serial_lld.o
                                                  build/obj/serial.o
chOQObjectInit                                    build/obj/chqueues.o
                                                  build/obj/testqueues.o
                                                  build/obj/serial.o
chOQPutTimeout                                    build/obj/chqueues.o
                                                  build/obj/testqueues.o
                                                  build/obj/serial.o
chOQResetI                                        build/obj/chqueues.o
                                                  build/obj/testqueues.o
                                                  build/obj/serial.o
chOQWriteTimeout                                  build/obj/chqueues.o
                                                  build/obj/testqueues.o
                                                  build/obj/serial.o
chPoolAlloc                                       build/obj/chmempools.o
                                                  build/obj/testdyn.o
                                                  build/obj/testpools.o
                                                  build/obj/chdynamic.o
chPoolAllocI                                      build/obj/chmempools.o
chPoolFree                                        build/obj/chmempools.o
                                                  build/obj/testdyn.o
                                                  build/obj/testpools.o
                                                  build/obj/chdynamic.o
chPoolFreeI                                       build/obj/chmempools.o
chPoolLoadArray                                   build/obj/chmempools.o
                                                  build/obj/testpools.o
chPoolObjectInit                                  build/obj/chmempools.o
                                                  build/obj/testdyn.o
                                                  build/obj/testpools.o
chRegFirstThread                                  build/obj/chregistry.o
                                                  build/obj/testdyn.o
chRegNextThread                                   build/obj/chregistry.o
                                                  build/obj/testdyn.o
chSchDoReschedule                                 build/obj/chschd.o
                                                  build/obj/chcoreasm_v7m.o
chSchDoRescheduleAhead                            build/obj/chschd.o
chSchDoRescheduleBehind                           build/obj/chschd.o
                                                  build/obj/chthreads.o
chSchGoSleepS                                     build/obj/chschd.o
                                                  build/obj/testbmk.o
                                                  build/obj/chmsg.o
                                                  build/obj/chevents.o
                                                  build/obj/chcond.o
                                                  build/obj/chmtx.o
                                                  build/obj/chsem.o
                                                  build/obj/chthreads.o
chSchGoSleepTimeoutS                              build/obj/chschd.o
                                                  build/obj/chevents.o
                                                  build/obj/chcond.o
                                                  build/obj/chsem.o
                                                  build/obj/chthreads.o
chSchIsPreemptionRequired                         build/obj/chschd.o
                                                  build/obj/chcore_v7m.o
chSchReadyI                                       build/obj/chschd.o
                                                  build/obj/usb_lld.o
                                                  build/obj/chmsg.o
                                                  build/obj/chevents.o
                                                  build/obj/chcond.o
                                                  build/obj/chmtx.o
                                                  build/obj/chsem.o
                                                  build/obj/chthreads.o
chSchRescheduleS                                  build/obj/chschd.o
                                                  build/obj/testmtx.o
                                                  build/obj/testsem.o
                                                  build/obj/usb_lld.o
                                                  build/obj/usb.o
                                                  build/obj/serial.o
                                                  build/obj/chmboxes.o
                                                  build/obj/chevents.o
                                                  build/obj/chcond.o
                                                  build/obj/chmtx.o
                                                  build/obj/chsem.o
                                                  build/obj/chthreads.o
                                                  build/obj/chsys.o
chSchWakeupS                                      build/obj/chschd.o
                                                  build/obj/testbmk.o
                                                  build/obj/chmsg.o
                                                  build/obj/chcond.o
                                                  build/obj/chsem.o
                                                  build/obj/chdynamic.o
                                                  build/obj/chthreads.o
chSemAddCounterI                                  build/obj/chsem.o
                                                  build/obj/testsem.o
chSemObjectInit                                   build/obj/chsem.o
                                                  build/obj/testbmk.o
                                                  build/obj/testsem.o
                                                  build/obj/chmboxes.o
chSemReset                                        build/obj/chsem.o
                                                  build/obj/testbmk.o
                                                  build/obj/testsem.o
chSemResetI                                       build/obj/chsem.o
                                                  build/obj/chmboxes.o
chSemSignal                                       build/obj/chsem.o
                                                  build/obj/testbmk.o
                                                  build/obj/testsem.o
chSemSignalI                                      build/obj/chsem.o
                                                  build/obj/testsem.o
                                                  build/obj/chmboxes.o
chSemSignalWait                                   build/obj/chsem.o
                                                  build/obj/testsem.o
chSemWait                                         build/obj/chsem.o
                                                  build/obj/testbmk.o
                                                  build/obj/testsem.o
chSemWaitS                                        build/obj/chsem.o
chSemWaitTimeout                                  build/obj/chsem.o
                                                  build/obj/testsem.o
chSemWaitTimeoutS                                 build/obj/chsem.o
                                                  build/obj/chmboxes.o
chSysGetStatusAndLockX                            build/obj/chsys.o
                                                  build/obj/testsys.o
chSysHalt                                         build/obj/chsys.o
                                                  build/obj/spi_lld.o
chSysInit                                         build/obj/chsys.o
                                                  build/obj/main.o
chSysIntegrityCheckI                              build/obj/chsys.o
                                                  build/obj/testsys.o
chSysIsCounterWithinX                             build/obj/chsys.o
chSysPolledDelayX                                 build/obj/chsys.o
                                                  build/obj/usb_lld.o
chSysRestoreStatusX                               build/obj/chsys.o
                                                  build/obj/testsys.o
chSysTimerHandlerI                                build/obj/chsys.o
                                                  build/obj/st_lld.o
chTMChainMeasurementToX                           build/obj/chtm.o
chTMObjectInit                                    build/obj/chtm.o
chTMStartMeasurementX                             build/obj/chtm.o
chTMStopMeasurementX                              build/obj/chtm.o
chThdAddRef                                       build/obj/chdynamic.o
                                                  build/obj/testdyn.o
chThdCreateFromHeap                               build/obj/chdynamic.o
                                                  build/obj/shell.o
                                                  build/obj/testdyn.o
chThdCreateFromMemoryPool                         build/obj/chdynamic.o
                                                  build/obj/testdyn.o
chThdCreateI                                      build/obj/chthreads.o
                                                  build/obj/testthd.o
                                                  build/obj/usb_lld.o
                                                  build/obj/chdynamic.o
chThdCreateStatic                                 build/obj/chthreads.o
                                                  build/obj/main.o
                                                  build/obj/shell.o
                                                  build/obj/testbmk.o
                                                  build/obj/testqueues.o
                                                  build/obj/testevt.o
                                                  build/obj/testmsg.o
                                                  build/obj/testmtx.o
                                                  build/obj/testsem.o
                                                  build/obj/testthd.o
                                                  build/obj/chsys.o
chThdDequeueAllI                                  build/obj/chthreads.o
                                                  build/obj/hal_buffers.o
                                                  build/obj/chqueues.o
chThdDequeueNextI                                 build/obj/chthreads.o
                                                  build/obj/hal_buffers.o
                                                  build/obj/chqueues.o
chThdEnqueueTimeoutS                              build/obj/chthreads.o
                                                  build/obj/hal_buffers.o
                                                  build/obj/chqueues.o
chThdExit                                         build/obj/chthreads.o
                                                  build/obj/testbmk.o
                                                  build/obj/chcoreasm_v7m.o
chThdExitS                                        build/obj/chthreads.o
                                                  build/obj/shell.o
chThdRelease                                      build/obj/chdynamic.o
                                                  build/obj/main.o
                                                  build/obj/testdyn.o
                                                  build/obj/chregistry.o
                                                  build/obj/chthreads.o
chThdResume                                       build/obj/chthreads.o
chThdResumeI                                      build/obj/chthreads.o
                                                  build/obj/spi_lld.o
                                                  build/obj/sdc_lld.o
                                                  build/obj/usb_lld.o
chThdResumeS                                      build/obj/chthreads.o
chThdSetPriority                                  build/obj/chthreads.o
                                                  build/obj/testthd.o
chThdSleep                                        build/obj/chthreads.o
                                                  build/obj/main.o
                                                  build/obj/testbmk.o
                                                  build/obj/testsys.o
                                                  build/obj/testdyn.o
                                                  build/obj/testevt.o
                                                  build/obj/testmtx.o
                                                  build/obj/testsem.o
                                                  build/obj/testthd.o
                                                  build/obj/test.o
                                                  build/obj/sdc_lld.o
                                                  build/obj/sdc.o
chThdSleepUntil                                   build/obj/chthreads.o
                                                  build/obj/testthd.o
chThdSleepUntilWindowed                           build/obj/chthreads.o
chThdStart                                        build/obj/chthreads.o
                                                  build/obj/testthd.o
chThdSuspendS                                     build/obj/chthreads.o
                                                  build/obj/sdc_lld.o
                                                  build/obj/usb_lld.o
                                                  build/obj/spi.o
chThdSuspendTimeoutS                              build/obj/chthreads.o
chThdTerminate                                    build/obj/chthreads.o
                                                  build/obj/test.o
chThdWait                                         build/obj/chthreads.o
                                                  build/obj/testbmk.o
                                                  build/obj/test.o
chThdYield                                        build/obj/chthreads.o
                                                  build/obj/testbmk.o
chVTDoResetI                                      build/obj/chvt.o
                                                  build/obj/evtimer.o
                                                  build/obj/testbmk.o
                                                  build/obj/testsys.o
                                                  build/obj/test.o
                                                  build/obj/chschd.o
chVTDoSetI                                        build/obj/chvt.o
                                                  build/obj/evtimer.o
                                                  build/obj/testbmk.o
                                                  build/obj/testsys.o
                                                  build/obj/test.o
                                                  build/obj/chschd.o
ch_debug                                          build/obj/chregistry.o
                                                  build/obj/chsys.o
chprintf                                          build/obj/chprintf.o
                                                  build/obj/main.o
                                                  build/obj/shell.o
chsnprintf                                        build/obj/chprintf.o
chvprintf                                         build/obj/chprintf.o
dmaInit                                           build/obj/stm32_dma.o
                                                  build/obj/hal_lld.o
dmaStreamAllocate                                 build/obj/stm32_dma.o
                                                  build/obj/spi_lld.o
                                                  build/obj/sdc_lld.o
dmaStreamRelease                                  build/obj/stm32_dma.o
                                                  build/obj/spi_lld.o
                                                  build/obj/sdc_lld.o
evtObjectInit                                     build/obj/evtimer.o
evtStart                                          build/obj/evtimer.o
halInit                                           build/obj/hal.o
                                                  build/obj/main.o
hal_lld_init                                      build/obj/hal_lld.o
                                                  build/obj/hal.o
ibqGetEmptyBufferI                                build/obj/hal_buffers.o
ibqGetFullBufferTimeout                           build/obj/hal_buffers.o
ibqGetFullBufferTimeoutS                          build/obj/hal_buffers.o
ibqGetTimeout                                     build/obj/hal_buffers.o
ibqObjectInit                                     build/obj/hal_buffers.o
ibqPostFullBufferI                                build/obj/hal_buffers.o
ibqReadTimeout                                    build/obj/hal_buffers.o
ibqReleaseEmptyBuffer                             build/obj/hal_buffers.o
ibqReleaseEmptyBufferS                            build/obj/hal_buffers.o
ibqResetI                                         build/obj/hal_buffers.o
main                                              build/obj/main.o
                                                  build/obj/crt0_v7m.o
memcpy                                            /nfs/nfs5/home/research/hardware/arm2/gcc-arm-embedded/gcc-arm-none-eabi-4_8-2014q2/bin/../lib/gcc/arm-none-eabi/4.8.4/../../../../arm-none-eabi/lib/armv7e-m/libg.a(lib_a-memcpy.o)
                                                  build/obj/memstreams.o
                                                  build/obj/sdc_lld.o
                                                  build/obj/usb_lld.o
                                                  build/obj/hal_buffers.o
memset                                            /nfs/nfs5/home/research/hardware/arm2/gcc-arm-embedded/gcc-arm-none-eabi-4_8-2014q2/bin/../lib/gcc/arm-none-eabi/4.8.4/../../../../arm-none-eabi/lib/armv7e-m/libg.a(lib_a-memset.o)
                                                  build/obj/usb.o
msObjectInit                                      build/obj/memstreams.o
                                                  build/obj/chprintf.o
nvicClearPending                                  build/obj/nvic.o
nvicDisableVector                                 build/obj/nvic.o
                                                  build/obj/sdc_lld.o
                                                  build/obj/usb_lld.o
                                                  build/obj/stm32_dma.o
nvicEnableVector                                  build/obj/nvic.o
                                                  build/obj/serial_lld.o
                                                  build/obj/sdc_lld.o
                                                  build/obj/usb_lld.o
                                                  build/obj/stm32_dma.o
nvicSetSystemHandlerPriority                      build/obj/nvic.o
                                                  build/obj/st_lld.o
obqFlush                                          build/obj/hal_buffers.o
obqGetEmptyBufferTimeout                          build/obj/hal_buffers.o
obqGetEmptyBufferTimeoutS                         build/obj/hal_buffers.o
obqGetFullBufferI                                 build/obj/hal_buffers.o
obqObjectInit                                     build/obj/hal_buffers.o
obqPostFullBuffer                                 build/obj/hal_buffers.o
obqPostFullBufferS                                build/obj/hal_buffers.o
obqPutTimeout                                     build/obj/hal_buffers.o
obqReleaseEmptyBufferI                            build/obj/hal_buffers.o
obqResetI                                         build/obj/hal_buffers.o
obqTryFlushI                                      build/obj/hal_buffers.o
obqWriteTimeout                                   build/obj/hal_buffers.o
palReadBus                                        build/obj/pal.o
palSetBusMode                                     build/obj/pal.o
palWriteBus                                       build/obj/pal.o
pal_default_config                                build/obj/board.o
                                                  build/obj/hal.o
patternbmk                                        build/obj/testbmk.o
                                                  build/obj/test.o
patterndyn                                        build/obj/testdyn.o
                                                  build/obj/test.o
patternevt                                        build/obj/testevt.o
                                                  build/obj/test.o
patternheap                                       build/obj/testheap.o
                                                  build/obj/test.o
patternmbox                                       build/obj/testmbox.o
                                                  build/obj/test.o
patternmsg                                        build/obj/testmsg.o
                                                  build/obj/test.o
patternmtx                                        build/obj/testmtx.o
                                                  build/obj/test.o
patternpools                                      build/obj/testpools.o
                                                  build/obj/test.o
patternqueues                                     build/obj/testqueues.o
                                                  build/obj/test.o
patternsem                                        build/obj/testsem.o
                                                  build/obj/test.o
patternsys                                        build/obj/testsys.o
                                                  build/obj/test.o
patternthd                                        build/obj/testthd.o
                                                  build/obj/test.o
sdGetWouldBlock                                   build/obj/serial.o
sdIncomingDataI                                   build/obj/serial.o
                                                  build/obj/serial_lld.o
sdInit                                            build/obj/serial.o
                                                  build/obj/hal.o
sdObjectInit                                      build/obj/serial.o
                                                  build/obj/serial_lld.o
sdPutWouldBlock                                   build/obj/serial.o
sdRequestDataI                                    build/obj/serial.o
sdStart                                           build/obj/serial.o
                                                  build/obj/main.o
sdStop                                            build/obj/serial.o
sd_lld_init                                       build/obj/serial_lld.o
                                                  build/obj/serial.o
sd_lld_start                                      build/obj/serial_lld.o
                                                  build/obj/serial.o
sd_lld_stop                                       build/obj/serial_lld.o
                                                  build/obj/serial.o
sdcConnect                                        build/obj/sdc.o
sdcDisconnect                                     build/obj/sdc.o
sdcErase                                          build/obj/sdc.o
sdcGetAndClearErrors                              build/obj/sdc.o
sdcGetInfo                                        build/obj/sdc.o
sdcInit                                           build/obj/sdc.o
                                                  build/obj/hal.o
sdcObjectInit                                     build/obj/sdc.o
                                                  build/obj/sdc_lld.o
sdcRead                                           build/obj/sdc.o
sdcStart                                          build/obj/sdc.o
sdcStop                                           build/obj/sdc.o
sdcSync                                           build/obj/sdc.o
sdcWrite                                          build/obj/sdc.o
sdc_lld_init                                      build/obj/sdc_lld.o
                                                  build/obj/sdc.o
sdc_lld_is_card_inserted                          build/obj/board.o
                                                  build/obj/sdc.o
sdc_lld_is_write_protected                        build/obj/board.o
                                                  build/obj/sdc.o
sdc_lld_read                                      build/obj/sdc_lld.o
                                                  build/obj/sdc.o
sdc_lld_read_aligned                              build/obj/sdc_lld.o
sdc_lld_read_special                              build/obj/sdc_lld.o
                                                  build/obj/sdc.o
sdc_lld_send_cmd_long_crc                         build/obj/sdc_lld.o
                                                  build/obj/sdc.o
sdc_lld_send_cmd_none                             build/obj/sdc_lld.o
                                                  build/obj/sdc.o
sdc_lld_send_cmd_short                            build/obj/sdc_lld.o
                                                  build/obj/sdc.o
sdc_lld_send_cmd_short_crc                        build/obj/sdc_lld.o
                                                  build/obj/sdc.o
sdc_lld_set_bus_mode                              build/obj/sdc_lld.o
                                                  build/obj/sdc.o
sdc_lld_set_data_clk                              build/obj/sdc_lld.o
                                                  build/obj/sdc.o
sdc_lld_start                                     build/obj/sdc_lld.o
                                                  build/obj/sdc.o
sdc_lld_start_clk                                 build/obj/sdc_lld.o
                                                  build/obj/sdc.o
sdc_lld_stop                                      build/obj/sdc_lld.o
                                                  build/obj/sdc.o
sdc_lld_stop_clk                                  build/obj/sdc_lld.o
                                                  build/obj/sdc.o
sdc_lld_sync                                      build/obj/sdc_lld.o
                                                  build/obj/sdc.o
sdc_lld_write                                     build/obj/sdc_lld.o
                                                  build/obj/sdc.o
sdc_lld_write_aligned                             build/obj/sdc_lld.o
shellCreate                                       build/obj/shell.o
                                                  build/obj/main.o
shellCreateStatic                                 build/obj/shell.o
shellExit                                         build/obj/shell.o
shellGetLine                                      build/obj/shell.o
shellInit                                         build/obj/shell.o
                                                  build/obj/main.o
shell_terminated                                  build/obj/shell.o
spiAcquireBus                                     build/obj/spi.o
                                                  build/obj/SensorTile.o
spiExchange                                       build/obj/spi.o
spiIgnore                                         build/obj/spi.o
spiInit                                           build/obj/spi.o
                                                  build/obj/hal.o
spiObjectInit                                     build/obj/spi.o
                                                  build/obj/spi_lld.o
spiReceive                                        build/obj/spi.o
spiReleaseBus                                     build/obj/spi.o
                                                  build/obj/SensorTile.o
spiSelect                                         build/obj/spi.o
                                                  build/obj/SensorTile.o
spiSend                                           build/obj/spi.o
spiStart                                          build/obj/spi.o
                                                  build/obj/SensorTile.o
spiStartExchange                                  build/obj/spi.o
spiStartIgnore                                    build/obj/spi.o
spiStartReceive                                   build/obj/spi.o
spiStartSend                                      build/obj/spi.o
spiStop                                           build/obj/spi.o
spiUnselect                                       build/obj/spi.o
                                                  build/obj/SensorTile.o
spi_lld_exchange                                  build/obj/spi_lld.o
                                                  build/obj/spi.o
spi_lld_ignore                                    build/obj/spi_lld.o
                                                  build/obj/spi.o
spi_lld_init                                      build/obj/spi_lld.o
                                                  build/obj/spi.o
spi_lld_polled_exchange                           build/obj/spi_lld.o
spi_lld_polled_rx                                 build/obj/spi_lld.o
                                                  build/obj/SensorTile.o
spi_lld_polled_tx                                 build/obj/spi_lld.o
                                                  build/obj/SensorTile.o
spi_lld_receive                                   build/obj/spi_lld.o
                                                  build/obj/spi.o
spi_lld_select                                    build/obj/spi_lld.o
                                                  build/obj/spi.o
spi_lld_send                                      build/obj/spi_lld.o
                                                  build/obj/spi.o
spi_lld_start                                     build/obj/spi_lld.o
                                                  build/obj/spi.o
spi_lld_stop                                      build/obj/spi_lld.o
                                                  build/obj/spi.o
spi_lld_unselect                                  build/obj/spi_lld.o
                                                  build/obj/spi.o
stGetAlarm                                        build/obj/st.o
stInit                                            build/obj/st.o
                                                  build/obj/hal.o
stSetAlarm                                        build/obj/st.o
stStartAlarm                                      build/obj/st.o
stStopAlarm                                       build/obj/st.o
st_lld_init                                       build/obj/st_lld.o
                                                  build/obj/st.o
stm32_clock_init                                  build/obj/hal_lld.o
                                                  build/obj/board.o
strcmp                                            /nfs/nfs5/home/research/hardware/arm2/gcc-arm-embedded/gcc-arm-none-eabi-4_8-2014q2/bin/../lib/gcc/arm-none-eabi/4.8.4/../../../../arm-none-eabi/lib/armv7e-m/libg.a(lib_a-strcmp.o)
                                                  build/obj/shell.o
strpbrk                                           /nfs/nfs5/home/research/hardware/arm2/gcc-arm-embedded/gcc-arm-none-eabi-4_8-2014q2/bin/../lib/gcc/arm-none-eabi/4.8.4/../../../../arm-none-eabi/lib/armv7e-m/libg.a(lib_a-strpbrk.o)
                                                  build/obj/shell.o
strspn                                            /nfs/nfs5/home/research/hardware/arm2/gcc-arm-embedded/gcc-arm-none-eabi-4_8-2014q2/bin/../lib/gcc/arm-none-eabi/4.8.4/../../../../arm-none-eabi/lib/armv7e-m/libg.a(lib_a-strspn.o)
                                                  build/obj/shell.o
test                                              build/obj/testqueues.o
                                                  build/obj/testdyn.o
                                                  build/obj/testheap.o
                                                  build/obj/testmbox.o
                                                  build/obj/test.o
test_emit_token                                   build/obj/test.o
                                                  build/obj/testqueues.o
                                                  build/obj/testdyn.o
                                                  build/obj/testevt.o
                                                  build/obj/testmbox.o
                                                  build/obj/testmsg.o
                                                  build/obj/testmtx.o
                                                  build/obj/testsem.o
                                                  build/obj/testthd.o
test_global_fail                                  build/obj/test.o
test_print                                        build/obj/test.o
                                                  build/obj/testbmk.o
test_println                                      build/obj/test.o
                                                  build/obj/testbmk.o
test_printn                                       build/obj/test.o
                                                  build/obj/testbmk.o
test_start_timer                                  build/obj/test.o
                                                  build/obj/testbmk.o
test_terminate_threads                            build/obj/test.o
                                                  build/obj/testbmk.o
test_timer_done                                   build/obj/testbmk.o
                                                  build/obj/test.o
test_wait_threads                                 build/obj/test.o
                                                  build/obj/testbmk.o
                                                  build/obj/testqueues.o
                                                  build/obj/testdyn.o
                                                  build/obj/testevt.o
                                                  build/obj/testmtx.o
                                                  build/obj/testsem.o
                                                  build/obj/testthd.o
test_wait_tick                                    build/obj/test.o
                                                  build/obj/testbmk.o
                                                  build/obj/testevt.o
                                                  build/obj/testsem.o
                                                  build/obj/testthd.o
testbmk1                                          build/obj/testbmk.o
testbmk10                                         build/obj/testbmk.o
testbmk11                                         build/obj/testbmk.o
testbmk12                                         build/obj/testbmk.o
testbmk13                                         build/obj/testbmk.o
testbmk2                                          build/obj/testbmk.o
testbmk3                                          build/obj/testbmk.o
testbmk4                                          build/obj/testbmk.o
testbmk5                                          build/obj/testbmk.o
testbmk6                                          build/obj/testbmk.o
testbmk7                                          build/obj/testbmk.o
testbmk8                                          build/obj/testbmk.o
testbmk9                                          build/obj/testbmk.o
testdyn1                                          build/obj/testdyn.o
testdyn2                                          build/obj/testdyn.o
testdyn3                                          build/obj/testdyn.o
testevt1                                          build/obj/testevt.o
testevt2                                          build/obj/testevt.o
testevt3                                          build/obj/testevt.o
testheap1                                         build/obj/testheap.o
testmbox1                                         build/obj/testmbox.o
testmsg1                                          build/obj/testmsg.o
testmtx1                                          build/obj/testmtx.o
testmtx4                                          build/obj/testmtx.o
testmtx5                                          build/obj/testmtx.o
testmtx6                                          build/obj/testmtx.o
testmtx7                                          build/obj/testmtx.o
testmtx8                                          build/obj/testmtx.o
testpools1                                        build/obj/testpools.o
testqueues1                                       build/obj/testqueues.o
testqueues2                                       build/obj/testqueues.o
testsem1                                          build/obj/testsem.o
testsem2                                          build/obj/testsem.o
testsem3                                          build/obj/testsem.o
testsem4                                          build/obj/testsem.o
testsys1                                          build/obj/testsys.o
testsys2                                          build/obj/testsys.o
testsys3                                          build/obj/testsys.o
testthd1                                          build/obj/testthd.o
testthd2                                          build/obj/testthd.o
testthd3                                          build/obj/testthd.o
testthd4                                          build/obj/testthd.o
threads                                           build/obj/testbmk.o
                                                  build/obj/testqueues.o
                                                  build/obj/testdyn.o
                                                  build/obj/testevt.o
                                                  build/obj/testmsg.o
                                                  build/obj/testmtx.o
                                                  build/obj/testsem.o
                                                  build/obj/testthd.o
                                                  build/obj/test.o
usbDisableEndpointsI                              build/obj/usb.o
usbInit                                           build/obj/usb.o
                                                  build/obj/hal.o
usbInitEndpointI                                  build/obj/usb.o
usbObjectInit                                     build/obj/usb.o
                                                  build/obj/usb_lld.o
usbStallReceiveI                                  build/obj/usb.o
usbStallTransmitI                                 build/obj/usb.o
usbStart                                          build/obj/usb.o
usbStartReceiveI                                  build/obj/usb.o
usbStartTransmitI                                 build/obj/usb.o
usbStop                                           build/obj/usb.o
usb_lld_clear_in                                  build/obj/usb_lld.o
                                                  build/obj/usb.o
usb_lld_clear_out                                 build/obj/usb_lld.o
                                                  build/obj/usb.o
usb_lld_disable_endpoints                         build/obj/usb_lld.o
                                                  build/obj/usb.o
usb_lld_get_status_in                             build/obj/usb_lld.o
                                                  build/obj/usb.o
usb_lld_get_status_out                            build/obj/usb_lld.o
                                                  build/obj/usb.o
usb_lld_init                                      build/obj/usb_lld.o
                                                  build/obj/usb.o
usb_lld_init_endpoint                             build/obj/usb_lld.o
                                                  build/obj/usb.o
usb_lld_pump                                      build/obj/usb_lld.o
usb_lld_read_setup                                build/obj/usb_lld.o
                                                  build/obj/usb.o
usb_lld_reset                                     build/obj/usb_lld.o
                                                  build/obj/usb.o
usb_lld_set_address                               build/obj/usb_lld.o
                                                  build/obj/usb.o
usb_lld_stall_in                                  build/obj/usb_lld.o
                                                  build/obj/usb.o
usb_lld_stall_out                                 build/obj/usb_lld.o
                                                  build/obj/usb.o
usb_lld_start                                     build/obj/usb_lld.o
                                                  build/obj/usb.o
usb_lld_start_in                                  build/obj/usb_lld.o
                                                  build/obj/usb.o
usb_lld_start_out                                 build/obj/usb_lld.o
                                                  build/obj/usb.o
usb_lld_stop                                      build/obj/usb_lld.o
                                                  build/obj/usb.o
wa                                                build/obj/test.o
                                                  build/obj/testbmk.o
                                                  build/obj/testqueues.o
                                                  build/obj/testdyn.o
                                                  build/obj/testpools.o
                                                  build/obj/testevt.o
                                                  build/obj/testmsg.o
                                                  build/obj/testmtx.o
                                                  build/obj/testsem.o
                                                  build/obj/testthd.o
