ARM GAS  /tmp/ccxJ1I9Y.s 			page 1


   1              		.syntax unified
   2              		.cpu cortex-m4
   3              		.fpu softvfp
   4              		.eabi_attribute 20, 1
   5              		.eabi_attribute 21, 1
   6              		.eabi_attribute 23, 3
   7              		.eabi_attribute 24, 1
   8              		.eabi_attribute 25, 1
   9              		.eabi_attribute 26, 1
  10              		.eabi_attribute 30, 6
  11              		.eabi_attribute 34, 1
  12              		.eabi_attribute 18, 4
  13              		.thumb
  14              		.file	"ble_list.c"
  15              		.text
  16              	.Ltext0:
  17              		.cfi_sections	.debug_frame
  18              		.align	2
  19              		.p2align 4,,15
  20              		.global	list_init_head
  21              		.thumb
  22              		.thumb_func
  23              		.type	list_init_head, %function
  24              	list_init_head:
  25              	.LFB125:
  26              		.file 1 "../../../../../Middlewares/ST/STM32_BlueNRG/SimpleBlueNRG_HCI/utils/ble_list.c"
  27              		.loc 1 38 0
  28              		.cfi_startproc
  29              		@ args = 0, pretend = 0, frame = 8
  30              		@ frame_needed = 0, uses_anonymous_args = 0
  31              		@ link register save eliminated.
  32 0000 82B0     		sub	sp, sp, #8
  33              		.cfi_def_cfa_offset 8
  34 0002 0190     		str	r0, [sp, #4]
  35              		.loc 1 39 0
  36 0004 019B     		ldr	r3, [sp, #4]
  37 0006 019A     		ldr	r2, [sp, #4]
  38 0008 1A60     		str	r2, [r3]
  39              		.loc 1 40 0
  40 000a 019B     		ldr	r3, [sp, #4]
  41 000c 019A     		ldr	r2, [sp, #4]
  42 000e 5A60     		str	r2, [r3, #4]
  43              		.loc 1 41 0
  44 0010 02B0     		add	sp, sp, #8
  45              		@ sp needed
  46 0012 7047     		bx	lr
  47              		.cfi_endproc
  48              	.LFE125:
  49              		.size	list_init_head, .-list_init_head
  50              		.align	2
  51 0014 AFF30080 		.p2align 4,,15
  51      AFF30080 
  51      AFF30080 
  52              		.global	list_is_empty
  53              		.thumb
  54              		.thumb_func
  55              		.type	list_is_empty, %function
ARM GAS  /tmp/ccxJ1I9Y.s 			page 2


  56              	list_is_empty:
  57              	.LFB126:
  58              		.loc 1 44 0
  59              		.cfi_startproc
  60              		@ args = 0, pretend = 0, frame = 24
  61              		@ frame_needed = 0, uses_anonymous_args = 0
  62              		@ link register save eliminated.
  63 0020 86B0     		sub	sp, sp, #24
  64              		.cfi_def_cfa_offset 24
  65 0022 0190     		str	r0, [sp, #4]
  66              	.LBB68:
  67              	.LBB69:
  68              		.file 2 "../../../../../../ChibiOS/os/ext/CMSIS/include/core_cmFunc.h"
  69              		.loc 2 484 0
  70              	@ 484 "../../../../../../ChibiOS/os/ext/CMSIS/include/core_cmFunc.h" 1
  71 0024 EFF31083 		MRS r3, primask
  72              	@ 0 "" 2
  73              		.thumb
  74 0028 0393     		str	r3, [sp, #12]
  75              		.loc 2 485 0
  76 002a 039B     		ldr	r3, [sp, #12]
  77              	.LBE69:
  78              	.LBE68:
  79              		.loc 1 48 0
  80 002c 0493     		str	r3, [sp, #16]
  81              	.LBB70:
  82              	.LBB71:
  83              		.loc 2 344 0
  84              	@ 344 "../../../../../../ChibiOS/os/ext/CMSIS/include/core_cmFunc.h" 1
  85 002e 72B6     		cpsid i
  86              	@ 0 "" 2
  87              		.thumb
  88              	.LBE71:
  89              	.LBE70:
  90              		.loc 1 50 0
  91 0030 019B     		ldr	r3, [sp, #4]
  92 0032 1A68     		ldr	r2, [r3]
  93 0034 019B     		ldr	r3, [sp, #4]
  94 0036 9A42     		cmp	r2, r3
  95 0038 03D1     		bne	.L4
  96              		.loc 1 52 0
  97 003a 0123     		movs	r3, #1
  98 003c 8DF81730 		strb	r3, [sp, #23]
  99 0040 02E0     		b	.L5
 100              	.L4:
 101              		.loc 1 56 0
 102 0042 0023     		movs	r3, #0
 103 0044 8DF81730 		strb	r3, [sp, #23]
 104              	.L5:
 105 0048 049B     		ldr	r3, [sp, #16]
 106 004a 0293     		str	r3, [sp, #8]
 107              	.LBB72:
 108              	.LBB73:
 109              		.loc 2 497 0
 110 004c 029B     		ldr	r3, [sp, #8]
 111              	@ 497 "../../../../../../ChibiOS/os/ext/CMSIS/include/core_cmFunc.h" 1
 112 004e 83F31088 		MSR primask, r3
ARM GAS  /tmp/ccxJ1I9Y.s 			page 3


 113              	@ 0 "" 2
 114              		.thumb
 115              	.LBE73:
 116              	.LBE72:
 117              		.loc 1 60 0
 118 0052 9DF81730 		ldrb	r3, [sp, #23]	@ zero_extendqisi2
 119              		.loc 1 61 0
 120 0056 1846     		mov	r0, r3
 121 0058 06B0     		add	sp, sp, #24
 122              		@ sp needed
 123 005a 7047     		bx	lr
 124              		.cfi_endproc
 125              	.LFE126:
 126              		.size	list_is_empty, .-list_is_empty
 127              		.align	2
 128 005c AFF30080 		.p2align 4,,15
 129              		.global	list_insert_head
 130              		.thumb
 131              		.thumb_func
 132              		.type	list_insert_head, %function
 133              	list_insert_head:
 134              	.LFB127:
 135              		.loc 1 64 0
 136              		.cfi_startproc
 137              		@ args = 0, pretend = 0, frame = 24
 138              		@ frame_needed = 0, uses_anonymous_args = 0
 139              		@ link register save eliminated.
 140 0060 86B0     		sub	sp, sp, #24
 141              		.cfi_def_cfa_offset 24
 142 0062 0190     		str	r0, [sp, #4]
 143 0064 0091     		str	r1, [sp]
 144              	.LBB74:
 145              	.LBB75:
 146              		.loc 2 484 0
 147              	@ 484 "../../../../../../ChibiOS/os/ext/CMSIS/include/core_cmFunc.h" 1
 148 0066 EFF31083 		MRS r3, primask
 149              	@ 0 "" 2
 150              		.thumb
 151 006a 0493     		str	r3, [sp, #16]
 152              		.loc 2 485 0
 153 006c 049B     		ldr	r3, [sp, #16]
 154              	.LBE75:
 155              	.LBE74:
 156              		.loc 1 67 0
 157 006e 0593     		str	r3, [sp, #20]
 158              	.LBB76:
 159              	.LBB77:
 160              		.loc 2 344 0
 161              	@ 344 "../../../../../../ChibiOS/os/ext/CMSIS/include/core_cmFunc.h" 1
 162 0070 72B6     		cpsid i
 163              	@ 0 "" 2
 164              		.thumb
 165              	.LBE77:
 166              	.LBE76:
 167              		.loc 1 70 0
 168 0072 019B     		ldr	r3, [sp, #4]
 169 0074 1A68     		ldr	r2, [r3]
ARM GAS  /tmp/ccxJ1I9Y.s 			page 4


 170 0076 009B     		ldr	r3, [sp]
 171 0078 1A60     		str	r2, [r3]
 172              		.loc 1 71 0
 173 007a 009B     		ldr	r3, [sp]
 174 007c 019A     		ldr	r2, [sp, #4]
 175 007e 5A60     		str	r2, [r3, #4]
 176              		.loc 1 72 0
 177 0080 019B     		ldr	r3, [sp, #4]
 178 0082 009A     		ldr	r2, [sp]
 179 0084 1A60     		str	r2, [r3]
 180              		.loc 1 73 0
 181 0086 009B     		ldr	r3, [sp]
 182 0088 1B68     		ldr	r3, [r3]
 183 008a 009A     		ldr	r2, [sp]
 184 008c 5A60     		str	r2, [r3, #4]
 185 008e 059B     		ldr	r3, [sp, #20]
 186 0090 0393     		str	r3, [sp, #12]
 187              	.LBB78:
 188              	.LBB79:
 189              		.loc 2 497 0
 190 0092 039B     		ldr	r3, [sp, #12]
 191              	@ 497 "../../../../../../ChibiOS/os/ext/CMSIS/include/core_cmFunc.h" 1
 192 0094 83F31088 		MSR primask, r3
 193              	@ 0 "" 2
 194              		.thumb
 195              	.LBE79:
 196              	.LBE78:
 197              		.loc 1 76 0
 198 0098 06B0     		add	sp, sp, #24
 199              		@ sp needed
 200 009a 7047     		bx	lr
 201              		.cfi_endproc
 202              	.LFE127:
 203              		.size	list_insert_head, .-list_insert_head
 204              		.align	2
 205 009c AFF30080 		.p2align 4,,15
 206              		.global	list_insert_tail
 207              		.thumb
 208              		.thumb_func
 209              		.type	list_insert_tail, %function
 210              	list_insert_tail:
 211              	.LFB128:
 212              		.loc 1 79 0
 213              		.cfi_startproc
 214              		@ args = 0, pretend = 0, frame = 24
 215              		@ frame_needed = 0, uses_anonymous_args = 0
 216              		@ link register save eliminated.
 217 00a0 86B0     		sub	sp, sp, #24
 218              		.cfi_def_cfa_offset 24
 219 00a2 0190     		str	r0, [sp, #4]
 220 00a4 0091     		str	r1, [sp]
 221              	.LBB80:
 222              	.LBB81:
 223              		.loc 2 484 0
 224              	@ 484 "../../../../../../ChibiOS/os/ext/CMSIS/include/core_cmFunc.h" 1
 225 00a6 EFF31083 		MRS r3, primask
 226              	@ 0 "" 2
ARM GAS  /tmp/ccxJ1I9Y.s 			page 5


 227              		.thumb
 228 00aa 0493     		str	r3, [sp, #16]
 229              		.loc 2 485 0
 230 00ac 049B     		ldr	r3, [sp, #16]
 231              	.LBE81:
 232              	.LBE80:
 233              		.loc 1 82 0
 234 00ae 0593     		str	r3, [sp, #20]
 235              	.LBB82:
 236              	.LBB83:
 237              		.loc 2 344 0
 238              	@ 344 "../../../../../../ChibiOS/os/ext/CMSIS/include/core_cmFunc.h" 1
 239 00b0 72B6     		cpsid i
 240              	@ 0 "" 2
 241              		.thumb
 242              	.LBE83:
 243              	.LBE82:
 244              		.loc 1 85 0
 245 00b2 009B     		ldr	r3, [sp]
 246 00b4 019A     		ldr	r2, [sp, #4]
 247 00b6 1A60     		str	r2, [r3]
 248              		.loc 1 86 0
 249 00b8 019B     		ldr	r3, [sp, #4]
 250 00ba 5A68     		ldr	r2, [r3, #4]
 251 00bc 009B     		ldr	r3, [sp]
 252 00be 5A60     		str	r2, [r3, #4]
 253              		.loc 1 87 0
 254 00c0 019B     		ldr	r3, [sp, #4]
 255 00c2 009A     		ldr	r2, [sp]
 256 00c4 5A60     		str	r2, [r3, #4]
 257              		.loc 1 88 0
 258 00c6 009B     		ldr	r3, [sp]
 259 00c8 5B68     		ldr	r3, [r3, #4]
 260 00ca 009A     		ldr	r2, [sp]
 261 00cc 1A60     		str	r2, [r3]
 262 00ce 059B     		ldr	r3, [sp, #20]
 263 00d0 0393     		str	r3, [sp, #12]
 264              	.LBB84:
 265              	.LBB85:
 266              		.loc 2 497 0
 267 00d2 039B     		ldr	r3, [sp, #12]
 268              	@ 497 "../../../../../../ChibiOS/os/ext/CMSIS/include/core_cmFunc.h" 1
 269 00d4 83F31088 		MSR primask, r3
 270              	@ 0 "" 2
 271              		.thumb
 272              	.LBE85:
 273              	.LBE84:
 274              		.loc 1 91 0
 275 00d8 06B0     		add	sp, sp, #24
 276              		@ sp needed
 277 00da 7047     		bx	lr
 278              		.cfi_endproc
 279              	.LFE128:
 280              		.size	list_insert_tail, .-list_insert_tail
 281              		.align	2
 282 00dc AFF30080 		.p2align 4,,15
 283              		.global	list_remove_node
ARM GAS  /tmp/ccxJ1I9Y.s 			page 6


 284              		.thumb
 285              		.thumb_func
 286              		.type	list_remove_node, %function
 287              	list_remove_node:
 288              	.LFB129:
 289              		.loc 1 94 0
 290              		.cfi_startproc
 291              		@ args = 0, pretend = 0, frame = 24
 292              		@ frame_needed = 0, uses_anonymous_args = 0
 293              		@ link register save eliminated.
 294 00e0 86B0     		sub	sp, sp, #24
 295              		.cfi_def_cfa_offset 24
 296 00e2 0190     		str	r0, [sp, #4]
 297              	.LBB86:
 298              	.LBB87:
 299              		.loc 2 484 0
 300              	@ 484 "../../../../../../ChibiOS/os/ext/CMSIS/include/core_cmFunc.h" 1
 301 00e4 EFF31083 		MRS r3, primask
 302              	@ 0 "" 2
 303              		.thumb
 304 00e8 0493     		str	r3, [sp, #16]
 305              		.loc 2 485 0
 306 00ea 049B     		ldr	r3, [sp, #16]
 307              	.LBE87:
 308              	.LBE86:
 309              		.loc 1 97 0
 310 00ec 0593     		str	r3, [sp, #20]
 311              	.LBB88:
 312              	.LBB89:
 313              		.loc 2 344 0
 314              	@ 344 "../../../../../../ChibiOS/os/ext/CMSIS/include/core_cmFunc.h" 1
 315 00ee 72B6     		cpsid i
 316              	@ 0 "" 2
 317              		.thumb
 318              	.LBE89:
 319              	.LBE88:
 320              		.loc 1 100 0
 321 00f0 019B     		ldr	r3, [sp, #4]
 322 00f2 5B68     		ldr	r3, [r3, #4]
 323 00f4 019A     		ldr	r2, [sp, #4]
 324 00f6 1268     		ldr	r2, [r2]
 325 00f8 1A60     		str	r2, [r3]
 326              		.loc 1 101 0
 327 00fa 019B     		ldr	r3, [sp, #4]
 328 00fc 1B68     		ldr	r3, [r3]
 329 00fe 019A     		ldr	r2, [sp, #4]
 330 0100 5268     		ldr	r2, [r2, #4]
 331 0102 5A60     		str	r2, [r3, #4]
 332 0104 059B     		ldr	r3, [sp, #20]
 333 0106 0393     		str	r3, [sp, #12]
 334              	.LBB90:
 335              	.LBB91:
 336              		.loc 2 497 0
 337 0108 039B     		ldr	r3, [sp, #12]
 338              	@ 497 "../../../../../../ChibiOS/os/ext/CMSIS/include/core_cmFunc.h" 1
 339 010a 83F31088 		MSR primask, r3
 340              	@ 0 "" 2
ARM GAS  /tmp/ccxJ1I9Y.s 			page 7


 341              		.thumb
 342              	.LBE91:
 343              	.LBE90:
 344              		.loc 1 104 0
 345 010e 06B0     		add	sp, sp, #24
 346              		@ sp needed
 347 0110 7047     		bx	lr
 348              		.cfi_endproc
 349              	.LFE129:
 350              		.size	list_remove_node, .-list_remove_node
 351 0112 00BF     		.align	2
 352 0114 AFF30080 		.p2align 4,,15
 352      AFF30080 
 352      AFF30080 
 353              		.global	list_remove_head
 354              		.thumb
 355              		.thumb_func
 356              		.type	list_remove_head, %function
 357              	list_remove_head:
 358              	.LFB130:
 359              		.loc 1 107 0
 360              		.cfi_startproc
 361              		@ args = 0, pretend = 0, frame = 24
 362              		@ frame_needed = 0, uses_anonymous_args = 0
 363 0120 00B5     		push	{lr}
 364              		.cfi_def_cfa_offset 4
 365              		.cfi_offset 14, -4
 366 0122 87B0     		sub	sp, sp, #28
 367              		.cfi_def_cfa_offset 32
 368 0124 0190     		str	r0, [sp, #4]
 369 0126 0091     		str	r1, [sp]
 370              	.LBB92:
 371              	.LBB93:
 372              		.loc 2 484 0
 373              	@ 484 "../../../../../../ChibiOS/os/ext/CMSIS/include/core_cmFunc.h" 1
 374 0128 EFF31083 		MRS r3, primask
 375              	@ 0 "" 2
 376              		.thumb
 377 012c 0493     		str	r3, [sp, #16]
 378              		.loc 2 485 0
 379 012e 049B     		ldr	r3, [sp, #16]
 380              	.LBE93:
 381              	.LBE92:
 382              		.loc 1 110 0
 383 0130 0593     		str	r3, [sp, #20]
 384              	.LBB94:
 385              	.LBB95:
 386              		.loc 2 344 0
 387              	@ 344 "../../../../../../ChibiOS/os/ext/CMSIS/include/core_cmFunc.h" 1
 388 0132 72B6     		cpsid i
 389              	@ 0 "" 2
 390              		.thumb
 391              	.LBE95:
 392              	.LBE94:
 393              		.loc 1 113 0
 394 0134 019B     		ldr	r3, [sp, #4]
 395 0136 1A68     		ldr	r2, [r3]
ARM GAS  /tmp/ccxJ1I9Y.s 			page 8


 396 0138 009B     		ldr	r3, [sp]
 397 013a 1A60     		str	r2, [r3]
 398              		.loc 1 114 0
 399 013c 019B     		ldr	r3, [sp, #4]
 400 013e 1B68     		ldr	r3, [r3]
 401 0140 1846     		mov	r0, r3
 402 0142 FFF7FEFF 		bl	list_remove_node
 403              		.loc 1 115 0
 404 0146 009B     		ldr	r3, [sp]
 405 0148 1B68     		ldr	r3, [r3]
 406 014a 0022     		movs	r2, #0
 407 014c 1A60     		str	r2, [r3]
 408              		.loc 1 116 0
 409 014e 009B     		ldr	r3, [sp]
 410 0150 1B68     		ldr	r3, [r3]
 411 0152 0022     		movs	r2, #0
 412 0154 5A60     		str	r2, [r3, #4]
 413 0156 059B     		ldr	r3, [sp, #20]
 414 0158 0393     		str	r3, [sp, #12]
 415              	.LBB96:
 416              	.LBB97:
 417              		.loc 2 497 0
 418 015a 039B     		ldr	r3, [sp, #12]
 419              	@ 497 "../../../../../../ChibiOS/os/ext/CMSIS/include/core_cmFunc.h" 1
 420 015c 83F31088 		MSR primask, r3
 421              	@ 0 "" 2
 422              		.thumb
 423              	.LBE97:
 424              	.LBE96:
 425              		.loc 1 119 0
 426 0160 07B0     		add	sp, sp, #28
 427              		@ sp needed
 428 0162 5DF804FB 		ldr	pc, [sp], #4
 429              		.cfi_endproc
 430              	.LFE130:
 431              		.size	list_remove_head, .-list_remove_head
 432 0166 00BF     		.align	2
 433 0168 AFF30080 		.p2align 4,,15
 433      AFF30080 
 434              		.global	list_remove_tail
 435              		.thumb
 436              		.thumb_func
 437              		.type	list_remove_tail, %function
 438              	list_remove_tail:
 439              	.LFB131:
 440              		.loc 1 122 0
 441              		.cfi_startproc
 442              		@ args = 0, pretend = 0, frame = 24
 443              		@ frame_needed = 0, uses_anonymous_args = 0
 444 0170 00B5     		push	{lr}
 445              		.cfi_def_cfa_offset 4
 446              		.cfi_offset 14, -4
 447 0172 87B0     		sub	sp, sp, #28
 448              		.cfi_def_cfa_offset 32
 449 0174 0190     		str	r0, [sp, #4]
 450 0176 0091     		str	r1, [sp]
 451              	.LBB98:
ARM GAS  /tmp/ccxJ1I9Y.s 			page 9


 452              	.LBB99:
 453              		.loc 2 484 0
 454              	@ 484 "../../../../../../ChibiOS/os/ext/CMSIS/include/core_cmFunc.h" 1
 455 0178 EFF31083 		MRS r3, primask
 456              	@ 0 "" 2
 457              		.thumb
 458 017c 0493     		str	r3, [sp, #16]
 459              		.loc 2 485 0
 460 017e 049B     		ldr	r3, [sp, #16]
 461              	.LBE99:
 462              	.LBE98:
 463              		.loc 1 125 0
 464 0180 0593     		str	r3, [sp, #20]
 465              	.LBB100:
 466              	.LBB101:
 467              		.loc 2 344 0
 468              	@ 344 "../../../../../../ChibiOS/os/ext/CMSIS/include/core_cmFunc.h" 1
 469 0182 72B6     		cpsid i
 470              	@ 0 "" 2
 471              		.thumb
 472              	.LBE101:
 473              	.LBE100:
 474              		.loc 1 128 0
 475 0184 019B     		ldr	r3, [sp, #4]
 476 0186 5A68     		ldr	r2, [r3, #4]
 477 0188 009B     		ldr	r3, [sp]
 478 018a 1A60     		str	r2, [r3]
 479              		.loc 1 129 0
 480 018c 019B     		ldr	r3, [sp, #4]
 481 018e 5B68     		ldr	r3, [r3, #4]
 482 0190 1846     		mov	r0, r3
 483 0192 FFF7FEFF 		bl	list_remove_node
 484              		.loc 1 130 0
 485 0196 009B     		ldr	r3, [sp]
 486 0198 1B68     		ldr	r3, [r3]
 487 019a 0022     		movs	r2, #0
 488 019c 1A60     		str	r2, [r3]
 489              		.loc 1 131 0
 490 019e 009B     		ldr	r3, [sp]
 491 01a0 1B68     		ldr	r3, [r3]
 492 01a2 0022     		movs	r2, #0
 493 01a4 5A60     		str	r2, [r3, #4]
 494 01a6 059B     		ldr	r3, [sp, #20]
 495 01a8 0393     		str	r3, [sp, #12]
 496              	.LBB102:
 497              	.LBB103:
 498              		.loc 2 497 0
 499 01aa 039B     		ldr	r3, [sp, #12]
 500              	@ 497 "../../../../../../ChibiOS/os/ext/CMSIS/include/core_cmFunc.h" 1
 501 01ac 83F31088 		MSR primask, r3
 502              	@ 0 "" 2
 503              		.thumb
 504              	.LBE103:
 505              	.LBE102:
 506              		.loc 1 134 0
 507 01b0 07B0     		add	sp, sp, #28
 508              		@ sp needed
ARM GAS  /tmp/ccxJ1I9Y.s 			page 10


 509 01b2 5DF804FB 		ldr	pc, [sp], #4
 510              		.cfi_endproc
 511              	.LFE131:
 512              		.size	list_remove_tail, .-list_remove_tail
 513 01b6 00BF     		.align	2
 514 01b8 AFF30080 		.p2align 4,,15
 514      AFF30080 
 515              		.global	list_insert_node_after
 516              		.thumb
 517              		.thumb_func
 518              		.type	list_insert_node_after, %function
 519              	list_insert_node_after:
 520              	.LFB132:
 521              		.loc 1 137 0
 522              		.cfi_startproc
 523              		@ args = 0, pretend = 0, frame = 24
 524              		@ frame_needed = 0, uses_anonymous_args = 0
 525              		@ link register save eliminated.
 526 01c0 86B0     		sub	sp, sp, #24
 527              		.cfi_def_cfa_offset 24
 528 01c2 0190     		str	r0, [sp, #4]
 529 01c4 0091     		str	r1, [sp]
 530              	.LBB104:
 531              	.LBB105:
 532              		.loc 2 484 0
 533              	@ 484 "../../../../../../ChibiOS/os/ext/CMSIS/include/core_cmFunc.h" 1
 534 01c6 EFF31083 		MRS r3, primask
 535              	@ 0 "" 2
 536              		.thumb
 537 01ca 0493     		str	r3, [sp, #16]
 538              		.loc 2 485 0
 539 01cc 049B     		ldr	r3, [sp, #16]
 540              	.LBE105:
 541              	.LBE104:
 542              		.loc 1 140 0
 543 01ce 0593     		str	r3, [sp, #20]
 544              	.LBB106:
 545              	.LBB107:
 546              		.loc 2 344 0
 547              	@ 344 "../../../../../../ChibiOS/os/ext/CMSIS/include/core_cmFunc.h" 1
 548 01d0 72B6     		cpsid i
 549              	@ 0 "" 2
 550              		.thumb
 551              	.LBE107:
 552              	.LBE106:
 553              		.loc 1 143 0
 554 01d2 009B     		ldr	r3, [sp]
 555 01d4 1A68     		ldr	r2, [r3]
 556 01d6 019B     		ldr	r3, [sp, #4]
 557 01d8 1A60     		str	r2, [r3]
 558              		.loc 1 144 0
 559 01da 019B     		ldr	r3, [sp, #4]
 560 01dc 009A     		ldr	r2, [sp]
 561 01de 5A60     		str	r2, [r3, #4]
 562              		.loc 1 145 0
 563 01e0 009B     		ldr	r3, [sp]
 564 01e2 019A     		ldr	r2, [sp, #4]
ARM GAS  /tmp/ccxJ1I9Y.s 			page 11


 565 01e4 1A60     		str	r2, [r3]
 566              		.loc 1 146 0
 567 01e6 019B     		ldr	r3, [sp, #4]
 568 01e8 1B68     		ldr	r3, [r3]
 569 01ea 019A     		ldr	r2, [sp, #4]
 570 01ec 5A60     		str	r2, [r3, #4]
 571 01ee 059B     		ldr	r3, [sp, #20]
 572 01f0 0393     		str	r3, [sp, #12]
 573              	.LBB108:
 574              	.LBB109:
 575              		.loc 2 497 0
 576 01f2 039B     		ldr	r3, [sp, #12]
 577              	@ 497 "../../../../../../ChibiOS/os/ext/CMSIS/include/core_cmFunc.h" 1
 578 01f4 83F31088 		MSR primask, r3
 579              	@ 0 "" 2
 580              		.thumb
 581              	.LBE109:
 582              	.LBE108:
 583              		.loc 1 149 0
 584 01f8 06B0     		add	sp, sp, #24
 585              		@ sp needed
 586 01fa 7047     		bx	lr
 587              		.cfi_endproc
 588              	.LFE132:
 589              		.size	list_insert_node_after, .-list_insert_node_after
 590              		.align	2
 591 01fc AFF30080 		.p2align 4,,15
 592              		.global	list_insert_node_before
 593              		.thumb
 594              		.thumb_func
 595              		.type	list_insert_node_before, %function
 596              	list_insert_node_before:
 597              	.LFB133:
 598              		.loc 1 152 0
 599              		.cfi_startproc
 600              		@ args = 0, pretend = 0, frame = 24
 601              		@ frame_needed = 0, uses_anonymous_args = 0
 602              		@ link register save eliminated.
 603 0200 86B0     		sub	sp, sp, #24
 604              		.cfi_def_cfa_offset 24
 605 0202 0190     		str	r0, [sp, #4]
 606 0204 0091     		str	r1, [sp]
 607              	.LBB110:
 608              	.LBB111:
 609              		.loc 2 484 0
 610              	@ 484 "../../../../../../ChibiOS/os/ext/CMSIS/include/core_cmFunc.h" 1
 611 0206 EFF31083 		MRS r3, primask
 612              	@ 0 "" 2
 613              		.thumb
 614 020a 0493     		str	r3, [sp, #16]
 615              		.loc 2 485 0
 616 020c 049B     		ldr	r3, [sp, #16]
 617              	.LBE111:
 618              	.LBE110:
 619              		.loc 1 155 0
 620 020e 0593     		str	r3, [sp, #20]
 621              	.LBB112:
ARM GAS  /tmp/ccxJ1I9Y.s 			page 12


 622              	.LBB113:
 623              		.loc 2 344 0
 624              	@ 344 "../../../../../../ChibiOS/os/ext/CMSIS/include/core_cmFunc.h" 1
 625 0210 72B6     		cpsid i
 626              	@ 0 "" 2
 627              		.thumb
 628              	.LBE113:
 629              	.LBE112:
 630              		.loc 1 158 0
 631 0212 019B     		ldr	r3, [sp, #4]
 632 0214 009A     		ldr	r2, [sp]
 633 0216 1A60     		str	r2, [r3]
 634              		.loc 1 159 0
 635 0218 009B     		ldr	r3, [sp]
 636 021a 5A68     		ldr	r2, [r3, #4]
 637 021c 019B     		ldr	r3, [sp, #4]
 638 021e 5A60     		str	r2, [r3, #4]
 639              		.loc 1 160 0
 640 0220 009B     		ldr	r3, [sp]
 641 0222 019A     		ldr	r2, [sp, #4]
 642 0224 5A60     		str	r2, [r3, #4]
 643              		.loc 1 161 0
 644 0226 019B     		ldr	r3, [sp, #4]
 645 0228 5B68     		ldr	r3, [r3, #4]
 646 022a 019A     		ldr	r2, [sp, #4]
 647 022c 1A60     		str	r2, [r3]
 648 022e 059B     		ldr	r3, [sp, #20]
 649 0230 0393     		str	r3, [sp, #12]
 650              	.LBB114:
 651              	.LBB115:
 652              		.loc 2 497 0
 653 0232 039B     		ldr	r3, [sp, #12]
 654              	@ 497 "../../../../../../ChibiOS/os/ext/CMSIS/include/core_cmFunc.h" 1
 655 0234 83F31088 		MSR primask, r3
 656              	@ 0 "" 2
 657              		.thumb
 658              	.LBE115:
 659              	.LBE114:
 660              		.loc 1 164 0
 661 0238 06B0     		add	sp, sp, #24
 662              		@ sp needed
 663 023a 7047     		bx	lr
 664              		.cfi_endproc
 665              	.LFE133:
 666              		.size	list_insert_node_before, .-list_insert_node_before
 667              		.align	2
 668 023c AFF30080 		.p2align 4,,15
 669              		.global	list_get_size
 670              		.thumb
 671              		.thumb_func
 672              		.type	list_get_size, %function
 673              	list_get_size:
 674              	.LFB134:
 675              		.loc 1 167 0
 676              		.cfi_startproc
 677              		@ args = 0, pretend = 0, frame = 32
 678              		@ frame_needed = 0, uses_anonymous_args = 0
ARM GAS  /tmp/ccxJ1I9Y.s 			page 13


 679              		@ link register save eliminated.
 680 0240 88B0     		sub	sp, sp, #32
 681              		.cfi_def_cfa_offset 32
 682 0242 0190     		str	r0, [sp, #4]
 683              		.loc 1 168 0
 684 0244 0023     		movs	r3, #0
 685 0246 0793     		str	r3, [sp, #28]
 686              	.LBB116:
 687              	.LBB117:
 688              		.loc 2 484 0
 689              	@ 484 "../../../../../../ChibiOS/os/ext/CMSIS/include/core_cmFunc.h" 1
 690 0248 EFF31083 		MRS r3, primask
 691              	@ 0 "" 2
 692              		.thumb
 693 024c 0493     		str	r3, [sp, #16]
 694              		.loc 2 485 0
 695 024e 049B     		ldr	r3, [sp, #16]
 696              	.LBE117:
 697              	.LBE116:
 698              		.loc 1 172 0
 699 0250 0593     		str	r3, [sp, #20]
 700              	.LBB118:
 701              	.LBB119:
 702              		.loc 2 344 0
 703              	@ 344 "../../../../../../ChibiOS/os/ext/CMSIS/include/core_cmFunc.h" 1
 704 0252 72B6     		cpsid i
 705              	@ 0 "" 2
 706              		.thumb
 707              	.LBE119:
 708              	.LBE118:
 709              		.loc 1 175 0
 710 0254 019B     		ldr	r3, [sp, #4]
 711 0256 1B68     		ldr	r3, [r3]
 712 0258 0693     		str	r3, [sp, #24]
 713              		.loc 1 176 0
 714 025a 05E0     		b	.L23
 715              	.L24:
 716              		.loc 1 178 0
 717 025c 079B     		ldr	r3, [sp, #28]
 718 025e 0133     		adds	r3, r3, #1
 719 0260 0793     		str	r3, [sp, #28]
 720              		.loc 1 179 0
 721 0262 069B     		ldr	r3, [sp, #24]
 722 0264 1B68     		ldr	r3, [r3]
 723 0266 0693     		str	r3, [sp, #24]
 724              	.L23:
 725              		.loc 1 176 0 discriminator 1
 726 0268 069A     		ldr	r2, [sp, #24]
 727 026a 019B     		ldr	r3, [sp, #4]
 728 026c 9A42     		cmp	r2, r3
 729 026e F5D1     		bne	.L24
 730 0270 059B     		ldr	r3, [sp, #20]
 731 0272 0393     		str	r3, [sp, #12]
 732              	.LBB120:
 733              	.LBB121:
 734              		.loc 2 497 0
 735 0274 039B     		ldr	r3, [sp, #12]
ARM GAS  /tmp/ccxJ1I9Y.s 			page 14


 736              	@ 497 "../../../../../../ChibiOS/os/ext/CMSIS/include/core_cmFunc.h" 1
 737 0276 83F31088 		MSR primask, r3
 738              	@ 0 "" 2
 739              		.thumb
 740              	.LBE121:
 741              	.LBE120:
 742              		.loc 1 183 0
 743 027a 079B     		ldr	r3, [sp, #28]
 744              		.loc 1 184 0
 745 027c 1846     		mov	r0, r3
 746 027e 08B0     		add	sp, sp, #32
 747              		@ sp needed
 748 0280 7047     		bx	lr
 749              		.cfi_endproc
 750              	.LFE134:
 751              		.size	list_get_size, .-list_get_size
 752 0282 00BF     		.align	2
 753 0284 AFF30080 		.p2align 4,,15
 753      AFF30080 
 753      AFF30080 
 754              		.global	list_get_next_node
 755              		.thumb
 756              		.thumb_func
 757              		.type	list_get_next_node, %function
 758              	list_get_next_node:
 759              	.LFB135:
 760              		.loc 1 187 0
 761              		.cfi_startproc
 762              		@ args = 0, pretend = 0, frame = 24
 763              		@ frame_needed = 0, uses_anonymous_args = 0
 764              		@ link register save eliminated.
 765 0290 86B0     		sub	sp, sp, #24
 766              		.cfi_def_cfa_offset 24
 767 0292 0190     		str	r0, [sp, #4]
 768 0294 0091     		str	r1, [sp]
 769              	.LBB122:
 770              	.LBB123:
 771              		.loc 2 484 0
 772              	@ 484 "../../../../../../ChibiOS/os/ext/CMSIS/include/core_cmFunc.h" 1
 773 0296 EFF31083 		MRS r3, primask
 774              	@ 0 "" 2
 775              		.thumb
 776 029a 0493     		str	r3, [sp, #16]
 777              		.loc 2 485 0
 778 029c 049B     		ldr	r3, [sp, #16]
 779              	.LBE123:
 780              	.LBE122:
 781              		.loc 1 190 0
 782 029e 0593     		str	r3, [sp, #20]
 783              	.LBB124:
 784              	.LBB125:
 785              		.loc 2 344 0
 786              	@ 344 "../../../../../../ChibiOS/os/ext/CMSIS/include/core_cmFunc.h" 1
 787 02a0 72B6     		cpsid i
 788              	@ 0 "" 2
 789              		.thumb
 790              	.LBE125:
ARM GAS  /tmp/ccxJ1I9Y.s 			page 15


 791              	.LBE124:
 792              		.loc 1 193 0
 793 02a2 019B     		ldr	r3, [sp, #4]
 794 02a4 1A68     		ldr	r2, [r3]
 795 02a6 009B     		ldr	r3, [sp]
 796 02a8 1A60     		str	r2, [r3]
 797 02aa 059B     		ldr	r3, [sp, #20]
 798 02ac 0393     		str	r3, [sp, #12]
 799              	.LBB126:
 800              	.LBB127:
 801              		.loc 2 497 0
 802 02ae 039B     		ldr	r3, [sp, #12]
 803              	@ 497 "../../../../../../ChibiOS/os/ext/CMSIS/include/core_cmFunc.h" 1
 804 02b0 83F31088 		MSR primask, r3
 805              	@ 0 "" 2
 806              		.thumb
 807              	.LBE127:
 808              	.LBE126:
 809              		.loc 1 196 0
 810 02b4 06B0     		add	sp, sp, #24
 811              		@ sp needed
 812 02b6 7047     		bx	lr
 813              		.cfi_endproc
 814              	.LFE135:
 815              		.size	list_get_next_node, .-list_get_next_node
 816              		.align	2
 817 02b8 AFF30080 		.p2align 4,,15
 817      AFF30080 
 818              		.global	list_get_prev_node
 819              		.thumb
 820              		.thumb_func
 821              		.type	list_get_prev_node, %function
 822              	list_get_prev_node:
 823              	.LFB136:
 824              		.loc 1 199 0
 825              		.cfi_startproc
 826              		@ args = 0, pretend = 0, frame = 24
 827              		@ frame_needed = 0, uses_anonymous_args = 0
 828              		@ link register save eliminated.
 829 02c0 86B0     		sub	sp, sp, #24
 830              		.cfi_def_cfa_offset 24
 831 02c2 0190     		str	r0, [sp, #4]
 832 02c4 0091     		str	r1, [sp]
 833              	.LBB128:
 834              	.LBB129:
 835              		.loc 2 484 0
 836              	@ 484 "../../../../../../ChibiOS/os/ext/CMSIS/include/core_cmFunc.h" 1
 837 02c6 EFF31083 		MRS r3, primask
 838              	@ 0 "" 2
 839              		.thumb
 840 02ca 0493     		str	r3, [sp, #16]
 841              		.loc 2 485 0
 842 02cc 049B     		ldr	r3, [sp, #16]
 843              	.LBE129:
 844              	.LBE128:
 845              		.loc 1 202 0
 846 02ce 0593     		str	r3, [sp, #20]
ARM GAS  /tmp/ccxJ1I9Y.s 			page 16


 847              	.LBB130:
 848              	.LBB131:
 849              		.loc 2 344 0
 850              	@ 344 "../../../../../../ChibiOS/os/ext/CMSIS/include/core_cmFunc.h" 1
 851 02d0 72B6     		cpsid i
 852              	@ 0 "" 2
 853              		.thumb
 854              	.LBE131:
 855              	.LBE130:
 856              		.loc 1 205 0
 857 02d2 019B     		ldr	r3, [sp, #4]
 858 02d4 5A68     		ldr	r2, [r3, #4]
 859 02d6 009B     		ldr	r3, [sp]
 860 02d8 1A60     		str	r2, [r3]
 861 02da 059B     		ldr	r3, [sp, #20]
 862 02dc 0393     		str	r3, [sp, #12]
 863              	.LBB132:
 864              	.LBB133:
 865              		.loc 2 497 0
 866 02de 039B     		ldr	r3, [sp, #12]
 867              	@ 497 "../../../../../../ChibiOS/os/ext/CMSIS/include/core_cmFunc.h" 1
 868 02e0 83F31088 		MSR primask, r3
 869              	@ 0 "" 2
 870              		.thumb
 871              	.LBE133:
 872              	.LBE132:
 873              		.loc 1 208 0
 874 02e4 06B0     		add	sp, sp, #24
 875              		@ sp needed
 876 02e6 7047     		bx	lr
 877              		.cfi_endproc
 878              	.LFE136:
 879              		.size	list_get_prev_node, .-list_get_prev_node
 880              	.Letext0:
 881              		.file 3 "/nfs/nfs5/home/research/hardware/arm2/gcc-arm-embedded/gcc-arm-none-eabi-4_8-2014q2/arm-n
 882              		.file 4 "/nfs/nfs5/home/research/hardware/arm2/gcc-arm-embedded/gcc-arm-none-eabi-4_8-2014q2/arm-n
 883              		.file 5 "../../../../../Middlewares/ST/STM32_BlueNRG/SimpleBlueNRG_HCI/includes/ble_list.h"
 884              		.file 6 "../../../../../../ChibiOS/os/ext/CMSIS/include/core_cm4.h"
 885 02e8 AFF30080 		.section	.debug_info,"",%progbits
 885      AFF30080 
 886              	.Ldebug_info0:
 887 0000 87070000 		.4byte	0x787
 888 0004 0400     		.2byte	0x4
 889 0006 00000000 		.4byte	.Ldebug_abbrev0
 890 000a 04       		.byte	0x4
 891 000b 01       		.uleb128 0x1
 892 000c 3D010000 		.4byte	.LASF39
 893 0010 01       		.byte	0x1
 894 0011 85030000 		.4byte	.LASF40
 895 0015 CB020000 		.4byte	.LASF41
 896 0019 00000000 		.4byte	.Ltext0
 897 001d E8020000 		.4byte	.Letext0-.Ltext0
 898 0021 00000000 		.4byte	.Ldebug_line0
 899 0025 02       		.uleb128 0x2
 900 0026 01       		.byte	0x1
 901 0027 06       		.byte	0x6
 902 0028 5D030000 		.4byte	.LASF0
ARM GAS  /tmp/ccxJ1I9Y.s 			page 17


 903 002c 03       		.uleb128 0x3
 904 002d 22000000 		.4byte	.LASF4
 905 0031 03       		.byte	0x3
 906 0032 1C       		.byte	0x1c
 907 0033 37000000 		.4byte	0x37
 908 0037 02       		.uleb128 0x2
 909 0038 01       		.byte	0x1
 910 0039 08       		.byte	0x8
 911 003a C5000000 		.4byte	.LASF1
 912 003e 02       		.uleb128 0x2
 913 003f 02       		.byte	0x2
 914 0040 05       		.byte	0x5
 915 0041 76000000 		.4byte	.LASF2
 916 0045 02       		.uleb128 0x2
 917 0046 02       		.byte	0x2
 918 0047 07       		.byte	0x7
 919 0048 09010000 		.4byte	.LASF3
 920 004c 03       		.uleb128 0x3
 921 004d 53000000 		.4byte	.LASF5
 922 0051 03       		.byte	0x3
 923 0052 37       		.byte	0x37
 924 0053 57000000 		.4byte	0x57
 925 0057 02       		.uleb128 0x2
 926 0058 04       		.byte	0x4
 927 0059 05       		.byte	0x5
 928 005a B1020000 		.4byte	.LASF6
 929 005e 03       		.uleb128 0x3
 930 005f 32010000 		.4byte	.LASF7
 931 0063 03       		.byte	0x3
 932 0064 38       		.byte	0x38
 933 0065 69000000 		.4byte	0x69
 934 0069 02       		.uleb128 0x2
 935 006a 04       		.byte	0x4
 936 006b 07       		.byte	0x7
 937 006c F2000000 		.4byte	.LASF8
 938 0070 02       		.uleb128 0x2
 939 0071 08       		.byte	0x8
 940 0072 05       		.byte	0x5
 941 0073 43020000 		.4byte	.LASF9
 942 0077 02       		.uleb128 0x2
 943 0078 08       		.byte	0x8
 944 0079 07       		.byte	0x7
 945 007a 6E030000 		.4byte	.LASF10
 946 007e 04       		.uleb128 0x4
 947 007f 04       		.byte	0x4
 948 0080 05       		.byte	0x5
 949 0081 696E7400 		.ascii	"int\000"
 950 0085 02       		.uleb128 0x2
 951 0086 04       		.byte	0x4
 952 0087 07       		.byte	0x7
 953 0088 03020000 		.4byte	.LASF11
 954 008c 03       		.uleb128 0x3
 955 008d 15020000 		.4byte	.LASF12
 956 0091 04       		.byte	0x4
 957 0092 2A       		.byte	0x2a
 958 0093 2C000000 		.4byte	0x2c
 959 0097 03       		.uleb128 0x3
ARM GAS  /tmp/ccxJ1I9Y.s 			page 18


 960 0098 24020000 		.4byte	.LASF13
 961 009c 04       		.byte	0x4
 962 009d 41       		.byte	0x41
 963 009e 4C000000 		.4byte	0x4c
 964 00a2 03       		.uleb128 0x3
 965 00a3 1C010000 		.4byte	.LASF14
 966 00a7 04       		.byte	0x4
 967 00a8 42       		.byte	0x42
 968 00a9 5E000000 		.4byte	0x5e
 969 00ad 05       		.uleb128 0x5
 970 00ae 93000000 		.4byte	.LASF42
 971 00b2 08       		.byte	0x8
 972 00b3 05       		.byte	0x5
 973 00b4 12       		.byte	0x12
 974 00b5 D2000000 		.4byte	0xd2
 975 00b9 06       		.uleb128 0x6
 976 00ba 2C000000 		.4byte	.LASF15
 977 00be 05       		.byte	0x5
 978 00bf 13       		.byte	0x13
 979 00c0 D2000000 		.4byte	0xd2
 980 00c4 00       		.byte	0
 981 00c5 06       		.uleb128 0x6
 982 00c6 3F000000 		.4byte	.LASF16
 983 00ca 05       		.byte	0x5
 984 00cb 14       		.byte	0x14
 985 00cc D2000000 		.4byte	0xd2
 986 00d0 04       		.byte	0x4
 987 00d1 00       		.byte	0
 988 00d2 07       		.uleb128 0x7
 989 00d3 04       		.byte	0x4
 990 00d4 AD000000 		.4byte	0xad
 991 00d8 03       		.uleb128 0x3
 992 00d9 00000000 		.4byte	.LASF17
 993 00dd 05       		.byte	0x5
 994 00de 15       		.byte	0x15
 995 00df AD000000 		.4byte	0xad
 996 00e3 02       		.uleb128 0x2
 997 00e4 04       		.byte	0x4
 998 00e5 07       		.byte	0x7
 999 00e6 2C020000 		.4byte	.LASF18
 1000 00ea 02       		.uleb128 0x2
 1001 00eb 01       		.byte	0x1
 1002 00ec 08       		.byte	0x8
 1003 00ed 10020000 		.4byte	.LASF19
 1004 00f1 08       		.uleb128 0x8
 1005 00f2 D3000000 		.4byte	.LASF43
 1006 00f6 02       		.byte	0x2
 1007 00f7 E001     		.2byte	0x1e0
 1008 00f9 A2000000 		.4byte	0xa2
 1009 00fd 03       		.byte	0x3
 1010 00fe 0F010000 		.4byte	0x10f
 1011 0102 09       		.uleb128 0x9
 1012 0103 1D020000 		.4byte	.LASF44
 1013 0107 02       		.byte	0x2
 1014 0108 E201     		.2byte	0x1e2
 1015 010a A2000000 		.4byte	0xa2
 1016 010e 00       		.byte	0
ARM GAS  /tmp/ccxJ1I9Y.s 			page 19


 1017 010f 0A       		.uleb128 0xa
 1018 0110 A3020000 		.4byte	.LASF45
 1019 0114 02       		.byte	0x2
 1020 0115 5601     		.2byte	0x156
 1021 0117 03       		.byte	0x3
 1022 0118 0B       		.uleb128 0xb
 1023 0119 51020000 		.4byte	.LASF46
 1024 011d 02       		.byte	0x2
 1025 011e EF01     		.2byte	0x1ef
 1026 0120 03       		.byte	0x3
 1027 0121 32010000 		.4byte	0x132
 1028 0125 0C       		.uleb128 0xc
 1029 0126 5D000000 		.4byte	.LASF47
 1030 012a 02       		.byte	0x2
 1031 012b EF01     		.2byte	0x1ef
 1032 012d A2000000 		.4byte	0xa2
 1033 0131 00       		.byte	0
 1034 0132 0D       		.uleb128 0xd
 1035 0133 44000000 		.4byte	.LASF23
 1036 0137 01       		.byte	0x1
 1037 0138 25       		.byte	0x25
 1038 0139 00000000 		.4byte	.LFB125
 1039 013d 14000000 		.4byte	.LFE125-.LFB125
 1040 0141 01       		.uleb128 0x1
 1041 0142 9C       		.byte	0x9c
 1042 0143 56010000 		.4byte	0x156
 1043 0147 0E       		.uleb128 0xe
 1044 0148 AB000000 		.4byte	.LASF20
 1045 014c 01       		.byte	0x1
 1046 014d 25       		.byte	0x25
 1047 014e 56010000 		.4byte	0x156
 1048 0152 02       		.uleb128 0x2
 1049 0153 91       		.byte	0x91
 1050 0154 7C       		.sleb128 -4
 1051 0155 00       		.byte	0
 1052 0156 07       		.uleb128 0x7
 1053 0157 04       		.byte	0x4
 1054 0158 D8000000 		.4byte	0xd8
 1055 015c 0F       		.uleb128 0xf
 1056 015d 35020000 		.4byte	.LASF33
 1057 0161 01       		.byte	0x1
 1058 0162 2B       		.byte	0x2b
 1059 0163 8C000000 		.4byte	0x8c
 1060 0167 20000000 		.4byte	.LFB126
 1061 016b 3C000000 		.4byte	.LFE126-.LFB126
 1062 016f 01       		.uleb128 0x1
 1063 0170 9C       		.byte	0x9c
 1064 0171 ED010000 		.4byte	0x1ed
 1065 0175 0E       		.uleb128 0xe
 1066 0176 AB000000 		.4byte	.LASF20
 1067 017a 01       		.byte	0x1
 1068 017b 2B       		.byte	0x2b
 1069 017c 56010000 		.4byte	0x156
 1070 0180 02       		.uleb128 0x2
 1071 0181 91       		.byte	0x91
 1072 0182 6C       		.sleb128 -20
 1073 0183 10       		.uleb128 0x10
ARM GAS  /tmp/ccxJ1I9Y.s 			page 20


 1074 0184 31000000 		.4byte	.LASF21
 1075 0188 01       		.byte	0x1
 1076 0189 2D       		.byte	0x2d
 1077 018a A2000000 		.4byte	0xa2
 1078 018e 02       		.uleb128 0x2
 1079 018f 91       		.byte	0x91
 1080 0190 78       		.sleb128 -8
 1081 0191 10       		.uleb128 0x10
 1082 0192 9E000000 		.4byte	.LASF22
 1083 0196 01       		.byte	0x1
 1084 0197 2E       		.byte	0x2e
 1085 0198 8C000000 		.4byte	0x8c
 1086 019c 02       		.uleb128 0x2
 1087 019d 91       		.byte	0x91
 1088 019e 7F       		.sleb128 -1
 1089 019f 11       		.uleb128 0x11
 1090 01a0 F1000000 		.4byte	0xf1
 1091 01a4 24000000 		.4byte	.LBB68
 1092 01a8 08000000 		.4byte	.LBE68-.LBB68
 1093 01ac 01       		.byte	0x1
 1094 01ad 30       		.byte	0x30
 1095 01ae C5010000 		.4byte	0x1c5
 1096 01b2 12       		.uleb128 0x12
 1097 01b3 24000000 		.4byte	.LBB69
 1098 01b7 08000000 		.4byte	.LBE69-.LBB69
 1099 01bb 13       		.uleb128 0x13
 1100 01bc 02010000 		.4byte	0x102
 1101 01c0 02       		.uleb128 0x2
 1102 01c1 91       		.byte	0x91
 1103 01c2 74       		.sleb128 -12
 1104 01c3 00       		.byte	0
 1105 01c4 00       		.byte	0
 1106 01c5 14       		.uleb128 0x14
 1107 01c6 0F010000 		.4byte	0x10f
 1108 01ca 2E000000 		.4byte	.LBB70
 1109 01ce 02000000 		.4byte	.LBE70-.LBB70
 1110 01d2 01       		.byte	0x1
 1111 01d3 31       		.byte	0x31
 1112 01d4 15       		.uleb128 0x15
 1113 01d5 18010000 		.4byte	0x118
 1114 01d9 4C000000 		.4byte	.LBB72
 1115 01dd 06000000 		.4byte	.LBE72-.LBB72
 1116 01e1 01       		.byte	0x1
 1117 01e2 3A       		.byte	0x3a
 1118 01e3 16       		.uleb128 0x16
 1119 01e4 25010000 		.4byte	0x125
 1120 01e8 02       		.uleb128 0x2
 1121 01e9 91       		.byte	0x91
 1122 01ea 70       		.sleb128 -16
 1123 01eb 00       		.byte	0
 1124 01ec 00       		.byte	0
 1125 01ed 0D       		.uleb128 0xd
 1126 01ee BA020000 		.4byte	.LASF24
 1127 01f2 01       		.byte	0x1
 1128 01f3 3F       		.byte	0x3f
 1129 01f4 60000000 		.4byte	.LFB127
 1130 01f8 3C000000 		.4byte	.LFE127-.LFB127
ARM GAS  /tmp/ccxJ1I9Y.s 			page 21


 1131 01fc 01       		.uleb128 0x1
 1132 01fd 9C       		.byte	0x9c
 1133 01fe 7A020000 		.4byte	0x27a
 1134 0202 0E       		.uleb128 0xe
 1135 0203 AB000000 		.4byte	.LASF20
 1136 0207 01       		.byte	0x1
 1137 0208 3F       		.byte	0x3f
 1138 0209 56010000 		.4byte	0x156
 1139 020d 02       		.uleb128 0x2
 1140 020e 91       		.byte	0x91
 1141 020f 6C       		.sleb128 -20
 1142 0210 0E       		.uleb128 0xe
 1143 0211 9E020000 		.4byte	.LASF25
 1144 0215 01       		.byte	0x1
 1145 0216 3F       		.byte	0x3f
 1146 0217 56010000 		.4byte	0x156
 1147 021b 02       		.uleb128 0x2
 1148 021c 91       		.byte	0x91
 1149 021d 68       		.sleb128 -24
 1150 021e 10       		.uleb128 0x10
 1151 021f 31000000 		.4byte	.LASF21
 1152 0223 01       		.byte	0x1
 1153 0224 41       		.byte	0x41
 1154 0225 A2000000 		.4byte	0xa2
 1155 0229 02       		.uleb128 0x2
 1156 022a 91       		.byte	0x91
 1157 022b 7C       		.sleb128 -4
 1158 022c 11       		.uleb128 0x11
 1159 022d F1000000 		.4byte	0xf1
 1160 0231 66000000 		.4byte	.LBB74
 1161 0235 08000000 		.4byte	.LBE74-.LBB74
 1162 0239 01       		.byte	0x1
 1163 023a 43       		.byte	0x43
 1164 023b 52020000 		.4byte	0x252
 1165 023f 12       		.uleb128 0x12
 1166 0240 66000000 		.4byte	.LBB75
 1167 0244 08000000 		.4byte	.LBE75-.LBB75
 1168 0248 13       		.uleb128 0x13
 1169 0249 02010000 		.4byte	0x102
 1170 024d 02       		.uleb128 0x2
 1171 024e 91       		.byte	0x91
 1172 024f 78       		.sleb128 -8
 1173 0250 00       		.byte	0
 1174 0251 00       		.byte	0
 1175 0252 14       		.uleb128 0x14
 1176 0253 0F010000 		.4byte	0x10f
 1177 0257 70000000 		.4byte	.LBB76
 1178 025b 02000000 		.4byte	.LBE76-.LBB76
 1179 025f 01       		.byte	0x1
 1180 0260 44       		.byte	0x44
 1181 0261 15       		.uleb128 0x15
 1182 0262 18010000 		.4byte	0x118
 1183 0266 92000000 		.4byte	.LBB78
 1184 026a 06000000 		.4byte	.LBE78-.LBB78
 1185 026e 01       		.byte	0x1
 1186 026f 4B       		.byte	0x4b
 1187 0270 16       		.uleb128 0x16
ARM GAS  /tmp/ccxJ1I9Y.s 			page 22


 1188 0271 25010000 		.4byte	0x125
 1189 0275 02       		.uleb128 0x2
 1190 0276 91       		.byte	0x91
 1191 0277 74       		.sleb128 -12
 1192 0278 00       		.byte	0
 1193 0279 00       		.byte	0
 1194 027a 0D       		.uleb128 0xd
 1195 027b E1000000 		.4byte	.LASF26
 1196 027f 01       		.byte	0x1
 1197 0280 4E       		.byte	0x4e
 1198 0281 A0000000 		.4byte	.LFB128
 1199 0285 3C000000 		.4byte	.LFE128-.LFB128
 1200 0289 01       		.uleb128 0x1
 1201 028a 9C       		.byte	0x9c
 1202 028b 07030000 		.4byte	0x307
 1203 028f 0E       		.uleb128 0xe
 1204 0290 AB000000 		.4byte	.LASF20
 1205 0294 01       		.byte	0x1
 1206 0295 4E       		.byte	0x4e
 1207 0296 56010000 		.4byte	0x156
 1208 029a 02       		.uleb128 0x2
 1209 029b 91       		.byte	0x91
 1210 029c 6C       		.sleb128 -20
 1211 029d 0E       		.uleb128 0xe
 1212 029e 9E020000 		.4byte	.LASF25
 1213 02a2 01       		.byte	0x1
 1214 02a3 4E       		.byte	0x4e
 1215 02a4 56010000 		.4byte	0x156
 1216 02a8 02       		.uleb128 0x2
 1217 02a9 91       		.byte	0x91
 1218 02aa 68       		.sleb128 -24
 1219 02ab 10       		.uleb128 0x10
 1220 02ac 31000000 		.4byte	.LASF21
 1221 02b0 01       		.byte	0x1
 1222 02b1 50       		.byte	0x50
 1223 02b2 A2000000 		.4byte	0xa2
 1224 02b6 02       		.uleb128 0x2
 1225 02b7 91       		.byte	0x91
 1226 02b8 7C       		.sleb128 -4
 1227 02b9 11       		.uleb128 0x11
 1228 02ba F1000000 		.4byte	0xf1
 1229 02be A6000000 		.4byte	.LBB80
 1230 02c2 08000000 		.4byte	.LBE80-.LBB80
 1231 02c6 01       		.byte	0x1
 1232 02c7 52       		.byte	0x52
 1233 02c8 DF020000 		.4byte	0x2df
 1234 02cc 12       		.uleb128 0x12
 1235 02cd A6000000 		.4byte	.LBB81
 1236 02d1 08000000 		.4byte	.LBE81-.LBB81
 1237 02d5 13       		.uleb128 0x13
 1238 02d6 02010000 		.4byte	0x102
 1239 02da 02       		.uleb128 0x2
 1240 02db 91       		.byte	0x91
 1241 02dc 78       		.sleb128 -8
 1242 02dd 00       		.byte	0
 1243 02de 00       		.byte	0
 1244 02df 14       		.uleb128 0x14
ARM GAS  /tmp/ccxJ1I9Y.s 			page 23


 1245 02e0 0F010000 		.4byte	0x10f
 1246 02e4 B0000000 		.4byte	.LBB82
 1247 02e8 02000000 		.4byte	.LBE82-.LBB82
 1248 02ec 01       		.byte	0x1
 1249 02ed 53       		.byte	0x53
 1250 02ee 15       		.uleb128 0x15
 1251 02ef 18010000 		.4byte	0x118
 1252 02f3 D2000000 		.4byte	.LBB84
 1253 02f7 06000000 		.4byte	.LBE84-.LBB84
 1254 02fb 01       		.byte	0x1
 1255 02fc 5A       		.byte	0x5a
 1256 02fd 16       		.uleb128 0x16
 1257 02fe 25010000 		.4byte	0x125
 1258 0302 02       		.uleb128 0x2
 1259 0303 91       		.byte	0x91
 1260 0304 74       		.sleb128 -12
 1261 0305 00       		.byte	0
 1262 0306 00       		.byte	0
 1263 0307 0D       		.uleb128 0xd
 1264 0308 65000000 		.4byte	.LASF27
 1265 030c 01       		.byte	0x1
 1266 030d 5D       		.byte	0x5d
 1267 030e E0000000 		.4byte	.LFB129
 1268 0312 32000000 		.4byte	.LFE129-.LFB129
 1269 0316 01       		.uleb128 0x1
 1270 0317 9C       		.byte	0x9c
 1271 0318 86030000 		.4byte	0x386
 1272 031c 0E       		.uleb128 0xe
 1273 031d 9E020000 		.4byte	.LASF25
 1274 0321 01       		.byte	0x1
 1275 0322 5D       		.byte	0x5d
 1276 0323 56010000 		.4byte	0x156
 1277 0327 02       		.uleb128 0x2
 1278 0328 91       		.byte	0x91
 1279 0329 6C       		.sleb128 -20
 1280 032a 10       		.uleb128 0x10
 1281 032b 31000000 		.4byte	.LASF21
 1282 032f 01       		.byte	0x1
 1283 0330 5F       		.byte	0x5f
 1284 0331 A2000000 		.4byte	0xa2
 1285 0335 02       		.uleb128 0x2
 1286 0336 91       		.byte	0x91
 1287 0337 7C       		.sleb128 -4
 1288 0338 11       		.uleb128 0x11
 1289 0339 F1000000 		.4byte	0xf1
 1290 033d E4000000 		.4byte	.LBB86
 1291 0341 08000000 		.4byte	.LBE86-.LBB86
 1292 0345 01       		.byte	0x1
 1293 0346 61       		.byte	0x61
 1294 0347 5E030000 		.4byte	0x35e
 1295 034b 12       		.uleb128 0x12
 1296 034c E4000000 		.4byte	.LBB87
 1297 0350 08000000 		.4byte	.LBE87-.LBB87
 1298 0354 13       		.uleb128 0x13
 1299 0355 02010000 		.4byte	0x102
 1300 0359 02       		.uleb128 0x2
 1301 035a 91       		.byte	0x91
ARM GAS  /tmp/ccxJ1I9Y.s 			page 24


 1302 035b 78       		.sleb128 -8
 1303 035c 00       		.byte	0
 1304 035d 00       		.byte	0
 1305 035e 14       		.uleb128 0x14
 1306 035f 0F010000 		.4byte	0x10f
 1307 0363 EE000000 		.4byte	.LBB88
 1308 0367 02000000 		.4byte	.LBE88-.LBB88
 1309 036b 01       		.byte	0x1
 1310 036c 62       		.byte	0x62
 1311 036d 15       		.uleb128 0x15
 1312 036e 18010000 		.4byte	0x118
 1313 0372 08010000 		.4byte	.LBB90
 1314 0376 06000000 		.4byte	.LBE90-.LBB90
 1315 037a 01       		.byte	0x1
 1316 037b 67       		.byte	0x67
 1317 037c 16       		.uleb128 0x16
 1318 037d 25010000 		.4byte	0x125
 1319 0381 02       		.uleb128 0x2
 1320 0382 91       		.byte	0x91
 1321 0383 74       		.sleb128 -12
 1322 0384 00       		.byte	0
 1323 0385 00       		.byte	0
 1324 0386 17       		.uleb128 0x17
 1325 0387 8D020000 		.4byte	.LASF28
 1326 038b 01       		.byte	0x1
 1327 038c 6A       		.byte	0x6a
 1328 038d 20010000 		.4byte	.LFB130
 1329 0391 46000000 		.4byte	.LFE130-.LFB130
 1330 0395 01       		.uleb128 0x1
 1331 0396 9C       		.byte	0x9c
 1332 0397 13040000 		.4byte	0x413
 1333 039b 0E       		.uleb128 0xe
 1334 039c AB000000 		.4byte	.LASF20
 1335 03a0 01       		.byte	0x1
 1336 03a1 6A       		.byte	0x6a
 1337 03a2 56010000 		.4byte	0x156
 1338 03a6 02       		.uleb128 0x2
 1339 03a7 91       		.byte	0x91
 1340 03a8 64       		.sleb128 -28
 1341 03a9 0E       		.uleb128 0xe
 1342 03aa 9E020000 		.4byte	.LASF25
 1343 03ae 01       		.byte	0x1
 1344 03af 6A       		.byte	0x6a
 1345 03b0 13040000 		.4byte	0x413
 1346 03b4 02       		.uleb128 0x2
 1347 03b5 91       		.byte	0x91
 1348 03b6 60       		.sleb128 -32
 1349 03b7 10       		.uleb128 0x10
 1350 03b8 31000000 		.4byte	.LASF21
 1351 03bc 01       		.byte	0x1
 1352 03bd 6C       		.byte	0x6c
 1353 03be A2000000 		.4byte	0xa2
 1354 03c2 02       		.uleb128 0x2
 1355 03c3 91       		.byte	0x91
 1356 03c4 74       		.sleb128 -12
 1357 03c5 11       		.uleb128 0x11
 1358 03c6 F1000000 		.4byte	0xf1
ARM GAS  /tmp/ccxJ1I9Y.s 			page 25


 1359 03ca 28010000 		.4byte	.LBB92
 1360 03ce 08000000 		.4byte	.LBE92-.LBB92
 1361 03d2 01       		.byte	0x1
 1362 03d3 6E       		.byte	0x6e
 1363 03d4 EB030000 		.4byte	0x3eb
 1364 03d8 12       		.uleb128 0x12
 1365 03d9 28010000 		.4byte	.LBB93
 1366 03dd 08000000 		.4byte	.LBE93-.LBB93
 1367 03e1 13       		.uleb128 0x13
 1368 03e2 02010000 		.4byte	0x102
 1369 03e6 02       		.uleb128 0x2
 1370 03e7 91       		.byte	0x91
 1371 03e8 70       		.sleb128 -16
 1372 03e9 00       		.byte	0
 1373 03ea 00       		.byte	0
 1374 03eb 14       		.uleb128 0x14
 1375 03ec 0F010000 		.4byte	0x10f
 1376 03f0 32010000 		.4byte	.LBB94
 1377 03f4 02000000 		.4byte	.LBE94-.LBB94
 1378 03f8 01       		.byte	0x1
 1379 03f9 6F       		.byte	0x6f
 1380 03fa 15       		.uleb128 0x15
 1381 03fb 18010000 		.4byte	0x118
 1382 03ff 5A010000 		.4byte	.LBB96
 1383 0403 06000000 		.4byte	.LBE96-.LBB96
 1384 0407 01       		.byte	0x1
 1385 0408 76       		.byte	0x76
 1386 0409 16       		.uleb128 0x16
 1387 040a 25010000 		.4byte	0x125
 1388 040e 02       		.uleb128 0x2
 1389 040f 91       		.byte	0x91
 1390 0410 6C       		.sleb128 -20
 1391 0411 00       		.byte	0
 1392 0412 00       		.byte	0
 1393 0413 07       		.uleb128 0x7
 1394 0414 04       		.byte	0x4
 1395 0415 56010000 		.4byte	0x156
 1396 0419 17       		.uleb128 0x17
 1397 041a B4000000 		.4byte	.LASF29
 1398 041e 01       		.byte	0x1
 1399 041f 79       		.byte	0x79
 1400 0420 70010000 		.4byte	.LFB131
 1401 0424 46000000 		.4byte	.LFE131-.LFB131
 1402 0428 01       		.uleb128 0x1
 1403 0429 9C       		.byte	0x9c
 1404 042a A6040000 		.4byte	0x4a6
 1405 042e 0E       		.uleb128 0xe
 1406 042f AB000000 		.4byte	.LASF20
 1407 0433 01       		.byte	0x1
 1408 0434 79       		.byte	0x79
 1409 0435 56010000 		.4byte	0x156
 1410 0439 02       		.uleb128 0x2
 1411 043a 91       		.byte	0x91
 1412 043b 64       		.sleb128 -28
 1413 043c 0E       		.uleb128 0xe
 1414 043d 9E020000 		.4byte	.LASF25
 1415 0441 01       		.byte	0x1
ARM GAS  /tmp/ccxJ1I9Y.s 			page 26


 1416 0442 79       		.byte	0x79
 1417 0443 13040000 		.4byte	0x413
 1418 0447 02       		.uleb128 0x2
 1419 0448 91       		.byte	0x91
 1420 0449 60       		.sleb128 -32
 1421 044a 10       		.uleb128 0x10
 1422 044b 31000000 		.4byte	.LASF21
 1423 044f 01       		.byte	0x1
 1424 0450 7B       		.byte	0x7b
 1425 0451 A2000000 		.4byte	0xa2
 1426 0455 02       		.uleb128 0x2
 1427 0456 91       		.byte	0x91
 1428 0457 74       		.sleb128 -12
 1429 0458 11       		.uleb128 0x11
 1430 0459 F1000000 		.4byte	0xf1
 1431 045d 78010000 		.4byte	.LBB98
 1432 0461 08000000 		.4byte	.LBE98-.LBB98
 1433 0465 01       		.byte	0x1
 1434 0466 7D       		.byte	0x7d
 1435 0467 7E040000 		.4byte	0x47e
 1436 046b 12       		.uleb128 0x12
 1437 046c 78010000 		.4byte	.LBB99
 1438 0470 08000000 		.4byte	.LBE99-.LBB99
 1439 0474 13       		.uleb128 0x13
 1440 0475 02010000 		.4byte	0x102
 1441 0479 02       		.uleb128 0x2
 1442 047a 91       		.byte	0x91
 1443 047b 70       		.sleb128 -16
 1444 047c 00       		.byte	0
 1445 047d 00       		.byte	0
 1446 047e 14       		.uleb128 0x14
 1447 047f 0F010000 		.4byte	0x10f
 1448 0483 82010000 		.4byte	.LBB100
 1449 0487 02000000 		.4byte	.LBE100-.LBB100
 1450 048b 01       		.byte	0x1
 1451 048c 7E       		.byte	0x7e
 1452 048d 15       		.uleb128 0x15
 1453 048e 18010000 		.4byte	0x118
 1454 0492 AA010000 		.4byte	.LBB102
 1455 0496 06000000 		.4byte	.LBE102-.LBB102
 1456 049a 01       		.byte	0x1
 1457 049b 85       		.byte	0x85
 1458 049c 16       		.uleb128 0x16
 1459 049d 25010000 		.4byte	0x125
 1460 04a1 02       		.uleb128 0x2
 1461 04a2 91       		.byte	0x91
 1462 04a3 6C       		.sleb128 -20
 1463 04a4 00       		.byte	0
 1464 04a5 00       		.byte	0
 1465 04a6 0D       		.uleb128 0xd
 1466 04a7 68020000 		.4byte	.LASF30
 1467 04ab 01       		.byte	0x1
 1468 04ac 88       		.byte	0x88
 1469 04ad C0010000 		.4byte	.LFB132
 1470 04b1 3C000000 		.4byte	.LFE132-.LFB132
 1471 04b5 01       		.uleb128 0x1
 1472 04b6 9C       		.byte	0x9c
ARM GAS  /tmp/ccxJ1I9Y.s 			page 27


 1473 04b7 33050000 		.4byte	0x533
 1474 04bb 0E       		.uleb128 0xe
 1475 04bc 9E020000 		.4byte	.LASF25
 1476 04c0 01       		.byte	0x1
 1477 04c1 88       		.byte	0x88
 1478 04c2 56010000 		.4byte	0x156
 1479 04c6 02       		.uleb128 0x2
 1480 04c7 91       		.byte	0x91
 1481 04c8 6C       		.sleb128 -20
 1482 04c9 0E       		.uleb128 0xe
 1483 04ca 5F020000 		.4byte	.LASF31
 1484 04ce 01       		.byte	0x1
 1485 04cf 88       		.byte	0x88
 1486 04d0 56010000 		.4byte	0x156
 1487 04d4 02       		.uleb128 0x2
 1488 04d5 91       		.byte	0x91
 1489 04d6 68       		.sleb128 -24
 1490 04d7 10       		.uleb128 0x10
 1491 04d8 31000000 		.4byte	.LASF21
 1492 04dc 01       		.byte	0x1
 1493 04dd 8A       		.byte	0x8a
 1494 04de A2000000 		.4byte	0xa2
 1495 04e2 02       		.uleb128 0x2
 1496 04e3 91       		.byte	0x91
 1497 04e4 7C       		.sleb128 -4
 1498 04e5 11       		.uleb128 0x11
 1499 04e6 F1000000 		.4byte	0xf1
 1500 04ea C6010000 		.4byte	.LBB104
 1501 04ee 08000000 		.4byte	.LBE104-.LBB104
 1502 04f2 01       		.byte	0x1
 1503 04f3 8C       		.byte	0x8c
 1504 04f4 0B050000 		.4byte	0x50b
 1505 04f8 12       		.uleb128 0x12
 1506 04f9 C6010000 		.4byte	.LBB105
 1507 04fd 08000000 		.4byte	.LBE105-.LBB105
 1508 0501 13       		.uleb128 0x13
 1509 0502 02010000 		.4byte	0x102
 1510 0506 02       		.uleb128 0x2
 1511 0507 91       		.byte	0x91
 1512 0508 78       		.sleb128 -8
 1513 0509 00       		.byte	0
 1514 050a 00       		.byte	0
 1515 050b 14       		.uleb128 0x14
 1516 050c 0F010000 		.4byte	0x10f
 1517 0510 D0010000 		.4byte	.LBB106
 1518 0514 02000000 		.4byte	.LBE106-.LBB106
 1519 0518 01       		.byte	0x1
 1520 0519 8D       		.byte	0x8d
 1521 051a 15       		.uleb128 0x15
 1522 051b 18010000 		.4byte	0x118
 1523 051f F2010000 		.4byte	.LBB108
 1524 0523 06000000 		.4byte	.LBE108-.LBB108
 1525 0527 01       		.byte	0x1
 1526 0528 94       		.byte	0x94
 1527 0529 16       		.uleb128 0x16
 1528 052a 25010000 		.4byte	0x125
 1529 052e 02       		.uleb128 0x2
ARM GAS  /tmp/ccxJ1I9Y.s 			page 28


 1530 052f 91       		.byte	0x91
 1531 0530 74       		.sleb128 -12
 1532 0531 00       		.byte	0
 1533 0532 00       		.byte	0
 1534 0533 0D       		.uleb128 0xd
 1535 0534 0A000000 		.4byte	.LASF32
 1536 0538 01       		.byte	0x1
 1537 0539 97       		.byte	0x97
 1538 053a 00020000 		.4byte	.LFB133
 1539 053e 3C000000 		.4byte	.LFE133-.LFB133
 1540 0542 01       		.uleb128 0x1
 1541 0543 9C       		.byte	0x9c
 1542 0544 C0050000 		.4byte	0x5c0
 1543 0548 0E       		.uleb128 0xe
 1544 0549 9E020000 		.4byte	.LASF25
 1545 054d 01       		.byte	0x1
 1546 054e 97       		.byte	0x97
 1547 054f 56010000 		.4byte	0x156
 1548 0553 02       		.uleb128 0x2
 1549 0554 91       		.byte	0x91
 1550 0555 6C       		.sleb128 -20
 1551 0556 0E       		.uleb128 0xe
 1552 0557 5F020000 		.4byte	.LASF31
 1553 055b 01       		.byte	0x1
 1554 055c 97       		.byte	0x97
 1555 055d 56010000 		.4byte	0x156
 1556 0561 02       		.uleb128 0x2
 1557 0562 91       		.byte	0x91
 1558 0563 68       		.sleb128 -24
 1559 0564 10       		.uleb128 0x10
 1560 0565 31000000 		.4byte	.LASF21
 1561 0569 01       		.byte	0x1
 1562 056a 99       		.byte	0x99
 1563 056b A2000000 		.4byte	0xa2
 1564 056f 02       		.uleb128 0x2
 1565 0570 91       		.byte	0x91
 1566 0571 7C       		.sleb128 -4
 1567 0572 11       		.uleb128 0x11
 1568 0573 F1000000 		.4byte	0xf1
 1569 0577 06020000 		.4byte	.LBB110
 1570 057b 08000000 		.4byte	.LBE110-.LBB110
 1571 057f 01       		.byte	0x1
 1572 0580 9B       		.byte	0x9b
 1573 0581 98050000 		.4byte	0x598
 1574 0585 12       		.uleb128 0x12
 1575 0586 06020000 		.4byte	.LBB111
 1576 058a 08000000 		.4byte	.LBE111-.LBB111
 1577 058e 13       		.uleb128 0x13
 1578 058f 02010000 		.4byte	0x102
 1579 0593 02       		.uleb128 0x2
 1580 0594 91       		.byte	0x91
 1581 0595 78       		.sleb128 -8
 1582 0596 00       		.byte	0
 1583 0597 00       		.byte	0
 1584 0598 14       		.uleb128 0x14
 1585 0599 0F010000 		.4byte	0x10f
 1586 059d 10020000 		.4byte	.LBB112
ARM GAS  /tmp/ccxJ1I9Y.s 			page 29


 1587 05a1 02000000 		.4byte	.LBE112-.LBB112
 1588 05a5 01       		.byte	0x1
 1589 05a6 9C       		.byte	0x9c
 1590 05a7 15       		.uleb128 0x15
 1591 05a8 18010000 		.4byte	0x118
 1592 05ac 32020000 		.4byte	.LBB114
 1593 05b0 06000000 		.4byte	.LBE114-.LBB114
 1594 05b4 01       		.byte	0x1
 1595 05b5 A3       		.byte	0xa3
 1596 05b6 16       		.uleb128 0x16
 1597 05b7 25010000 		.4byte	0x125
 1598 05bb 02       		.uleb128 0x2
 1599 05bc 91       		.byte	0x91
 1600 05bd 74       		.sleb128 -12
 1601 05be 00       		.byte	0
 1602 05bf 00       		.byte	0
 1603 05c0 0F       		.uleb128 0xf
 1604 05c1 7F020000 		.4byte	.LASF34
 1605 05c5 01       		.byte	0x1
 1606 05c6 A6       		.byte	0xa6
 1607 05c7 7E000000 		.4byte	0x7e
 1608 05cb 40020000 		.4byte	.LFB134
 1609 05cf 42000000 		.4byte	.LFE134-.LFB134
 1610 05d3 01       		.uleb128 0x1
 1611 05d4 9C       		.byte	0x9c
 1612 05d5 5F060000 		.4byte	0x65f
 1613 05d9 0E       		.uleb128 0xe
 1614 05da AB000000 		.4byte	.LASF20
 1615 05de 01       		.byte	0x1
 1616 05df A6       		.byte	0xa6
 1617 05e0 56010000 		.4byte	0x156
 1618 05e4 02       		.uleb128 0x2
 1619 05e5 91       		.byte	0x91
 1620 05e6 64       		.sleb128 -28
 1621 05e7 10       		.uleb128 0x10
 1622 05e8 69030000 		.4byte	.LASF35
 1623 05ec 01       		.byte	0x1
 1624 05ed A8       		.byte	0xa8
 1625 05ee 7E000000 		.4byte	0x7e
 1626 05f2 02       		.uleb128 0x2
 1627 05f3 91       		.byte	0x91
 1628 05f4 7C       		.sleb128 -4
 1629 05f5 10       		.uleb128 0x10
 1630 05f6 04010000 		.4byte	.LASF36
 1631 05fa 01       		.byte	0x1
 1632 05fb A9       		.byte	0xa9
 1633 05fc 56010000 		.4byte	0x156
 1634 0600 02       		.uleb128 0x2
 1635 0601 91       		.byte	0x91
 1636 0602 78       		.sleb128 -8
 1637 0603 10       		.uleb128 0x10
 1638 0604 31000000 		.4byte	.LASF21
 1639 0608 01       		.byte	0x1
 1640 0609 AA       		.byte	0xaa
 1641 060a A2000000 		.4byte	0xa2
 1642 060e 02       		.uleb128 0x2
 1643 060f 91       		.byte	0x91
ARM GAS  /tmp/ccxJ1I9Y.s 			page 30


 1644 0610 74       		.sleb128 -12
 1645 0611 11       		.uleb128 0x11
 1646 0612 F1000000 		.4byte	0xf1
 1647 0616 48020000 		.4byte	.LBB116
 1648 061a 08000000 		.4byte	.LBE116-.LBB116
 1649 061e 01       		.byte	0x1
 1650 061f AC       		.byte	0xac
 1651 0620 37060000 		.4byte	0x637
 1652 0624 12       		.uleb128 0x12
 1653 0625 48020000 		.4byte	.LBB117
 1654 0629 08000000 		.4byte	.LBE117-.LBB117
 1655 062d 13       		.uleb128 0x13
 1656 062e 02010000 		.4byte	0x102
 1657 0632 02       		.uleb128 0x2
 1658 0633 91       		.byte	0x91
 1659 0634 70       		.sleb128 -16
 1660 0635 00       		.byte	0
 1661 0636 00       		.byte	0
 1662 0637 14       		.uleb128 0x14
 1663 0638 0F010000 		.4byte	0x10f
 1664 063c 52020000 		.4byte	.LBB118
 1665 0640 02000000 		.4byte	.LBE118-.LBB118
 1666 0644 01       		.byte	0x1
 1667 0645 AD       		.byte	0xad
 1668 0646 15       		.uleb128 0x15
 1669 0647 18010000 		.4byte	0x118
 1670 064b 74020000 		.4byte	.LBB120
 1671 064f 06000000 		.4byte	.LBE120-.LBB120
 1672 0653 01       		.byte	0x1
 1673 0654 B6       		.byte	0xb6
 1674 0655 16       		.uleb128 0x16
 1675 0656 25010000 		.4byte	0x125
 1676 065a 02       		.uleb128 0x2
 1677 065b 91       		.byte	0x91
 1678 065c 6C       		.sleb128 -20
 1679 065d 00       		.byte	0
 1680 065e 00       		.byte	0
 1681 065f 0D       		.uleb128 0xd
 1682 0660 80000000 		.4byte	.LASF37
 1683 0664 01       		.byte	0x1
 1684 0665 BA       		.byte	0xba
 1685 0666 90020000 		.4byte	.LFB135
 1686 066a 28000000 		.4byte	.LFE135-.LFB135
 1687 066e 01       		.uleb128 0x1
 1688 066f 9C       		.byte	0x9c
 1689 0670 EC060000 		.4byte	0x6ec
 1690 0674 0E       		.uleb128 0xe
 1691 0675 5F020000 		.4byte	.LASF31
 1692 0679 01       		.byte	0x1
 1693 067a BA       		.byte	0xba
 1694 067b 56010000 		.4byte	0x156
 1695 067f 02       		.uleb128 0x2
 1696 0680 91       		.byte	0x91
 1697 0681 6C       		.sleb128 -20
 1698 0682 0E       		.uleb128 0xe
 1699 0683 9E020000 		.4byte	.LASF25
 1700 0687 01       		.byte	0x1
ARM GAS  /tmp/ccxJ1I9Y.s 			page 31


 1701 0688 BA       		.byte	0xba
 1702 0689 13040000 		.4byte	0x413
 1703 068d 02       		.uleb128 0x2
 1704 068e 91       		.byte	0x91
 1705 068f 68       		.sleb128 -24
 1706 0690 10       		.uleb128 0x10
 1707 0691 31000000 		.4byte	.LASF21
 1708 0695 01       		.byte	0x1
 1709 0696 BC       		.byte	0xbc
 1710 0697 A2000000 		.4byte	0xa2
 1711 069b 02       		.uleb128 0x2
 1712 069c 91       		.byte	0x91
 1713 069d 7C       		.sleb128 -4
 1714 069e 11       		.uleb128 0x11
 1715 069f F1000000 		.4byte	0xf1
 1716 06a3 96020000 		.4byte	.LBB122
 1717 06a7 08000000 		.4byte	.LBE122-.LBB122
 1718 06ab 01       		.byte	0x1
 1719 06ac BE       		.byte	0xbe
 1720 06ad C4060000 		.4byte	0x6c4
 1721 06b1 12       		.uleb128 0x12
 1722 06b2 96020000 		.4byte	.LBB123
 1723 06b6 08000000 		.4byte	.LBE123-.LBB123
 1724 06ba 13       		.uleb128 0x13
 1725 06bb 02010000 		.4byte	0x102
 1726 06bf 02       		.uleb128 0x2
 1727 06c0 91       		.byte	0x91
 1728 06c1 78       		.sleb128 -8
 1729 06c2 00       		.byte	0
 1730 06c3 00       		.byte	0
 1731 06c4 14       		.uleb128 0x14
 1732 06c5 0F010000 		.4byte	0x10f
 1733 06c9 A0020000 		.4byte	.LBB124
 1734 06cd 02000000 		.4byte	.LBE124-.LBB124
 1735 06d1 01       		.byte	0x1
 1736 06d2 BF       		.byte	0xbf
 1737 06d3 15       		.uleb128 0x15
 1738 06d4 18010000 		.4byte	0x118
 1739 06d8 AE020000 		.4byte	.LBB126
 1740 06dc 06000000 		.4byte	.LBE126-.LBB126
 1741 06e0 01       		.byte	0x1
 1742 06e1 C3       		.byte	0xc3
 1743 06e2 16       		.uleb128 0x16
 1744 06e3 25010000 		.4byte	0x125
 1745 06e7 02       		.uleb128 0x2
 1746 06e8 91       		.byte	0x91
 1747 06e9 74       		.sleb128 -12
 1748 06ea 00       		.byte	0
 1749 06eb 00       		.byte	0
 1750 06ec 0D       		.uleb128 0xd
 1751 06ed F0010000 		.4byte	.LASF38
 1752 06f1 01       		.byte	0x1
 1753 06f2 C6       		.byte	0xc6
 1754 06f3 C0020000 		.4byte	.LFB136
 1755 06f7 28000000 		.4byte	.LFE136-.LFB136
 1756 06fb 01       		.uleb128 0x1
 1757 06fc 9C       		.byte	0x9c
ARM GAS  /tmp/ccxJ1I9Y.s 			page 32


 1758 06fd 79070000 		.4byte	0x779
 1759 0701 0E       		.uleb128 0xe
 1760 0702 5F020000 		.4byte	.LASF31
 1761 0706 01       		.byte	0x1
 1762 0707 C6       		.byte	0xc6
 1763 0708 56010000 		.4byte	0x156
 1764 070c 02       		.uleb128 0x2
 1765 070d 91       		.byte	0x91
 1766 070e 6C       		.sleb128 -20
 1767 070f 0E       		.uleb128 0xe
 1768 0710 9E020000 		.4byte	.LASF25
 1769 0714 01       		.byte	0x1
 1770 0715 C6       		.byte	0xc6
 1771 0716 13040000 		.4byte	0x413
 1772 071a 02       		.uleb128 0x2
 1773 071b 91       		.byte	0x91
 1774 071c 68       		.sleb128 -24
 1775 071d 10       		.uleb128 0x10
 1776 071e 31000000 		.4byte	.LASF21
 1777 0722 01       		.byte	0x1
 1778 0723 C8       		.byte	0xc8
 1779 0724 A2000000 		.4byte	0xa2
 1780 0728 02       		.uleb128 0x2
 1781 0729 91       		.byte	0x91
 1782 072a 7C       		.sleb128 -4
 1783 072b 11       		.uleb128 0x11
 1784 072c F1000000 		.4byte	0xf1
 1785 0730 C6020000 		.4byte	.LBB128
 1786 0734 08000000 		.4byte	.LBE128-.LBB128
 1787 0738 01       		.byte	0x1
 1788 0739 CA       		.byte	0xca
 1789 073a 51070000 		.4byte	0x751
 1790 073e 12       		.uleb128 0x12
 1791 073f C6020000 		.4byte	.LBB129
 1792 0743 08000000 		.4byte	.LBE129-.LBB129
 1793 0747 13       		.uleb128 0x13
 1794 0748 02010000 		.4byte	0x102
 1795 074c 02       		.uleb128 0x2
 1796 074d 91       		.byte	0x91
 1797 074e 78       		.sleb128 -8
 1798 074f 00       		.byte	0
 1799 0750 00       		.byte	0
 1800 0751 14       		.uleb128 0x14
 1801 0752 0F010000 		.4byte	0x10f
 1802 0756 D0020000 		.4byte	.LBB130
 1803 075a 02000000 		.4byte	.LBE130-.LBB130
 1804 075e 01       		.byte	0x1
 1805 075f CB       		.byte	0xcb
 1806 0760 15       		.uleb128 0x15
 1807 0761 18010000 		.4byte	0x118
 1808 0765 DE020000 		.4byte	.LBB132
 1809 0769 06000000 		.4byte	.LBE132-.LBB132
 1810 076d 01       		.byte	0x1
 1811 076e CF       		.byte	0xcf
 1812 076f 16       		.uleb128 0x16
 1813 0770 25010000 		.4byte	0x125
 1814 0774 02       		.uleb128 0x2
ARM GAS  /tmp/ccxJ1I9Y.s 			page 33


 1815 0775 91       		.byte	0x91
 1816 0776 74       		.sleb128 -12
 1817 0777 00       		.byte	0
 1818 0778 00       		.byte	0
 1819 0779 18       		.uleb128 0x18
 1820 077a 25010000 		.4byte	.LASF48
 1821 077e 06       		.byte	0x6
 1822 077f FA06     		.2byte	0x6fa
 1823 0781 85070000 		.4byte	0x785
 1824 0785 19       		.uleb128 0x19
 1825 0786 97000000 		.4byte	0x97
 1826 078a 00       		.byte	0
 1827              		.section	.debug_abbrev,"",%progbits
 1828              	.Ldebug_abbrev0:
 1829 0000 01       		.uleb128 0x1
 1830 0001 11       		.uleb128 0x11
 1831 0002 01       		.byte	0x1
 1832 0003 25       		.uleb128 0x25
 1833 0004 0E       		.uleb128 0xe
 1834 0005 13       		.uleb128 0x13
 1835 0006 0B       		.uleb128 0xb
 1836 0007 03       		.uleb128 0x3
 1837 0008 0E       		.uleb128 0xe
 1838 0009 1B       		.uleb128 0x1b
 1839 000a 0E       		.uleb128 0xe
 1840 000b 11       		.uleb128 0x11
 1841 000c 01       		.uleb128 0x1
 1842 000d 12       		.uleb128 0x12
 1843 000e 06       		.uleb128 0x6
 1844 000f 10       		.uleb128 0x10
 1845 0010 17       		.uleb128 0x17
 1846 0011 00       		.byte	0
 1847 0012 00       		.byte	0
 1848 0013 02       		.uleb128 0x2
 1849 0014 24       		.uleb128 0x24
 1850 0015 00       		.byte	0
 1851 0016 0B       		.uleb128 0xb
 1852 0017 0B       		.uleb128 0xb
 1853 0018 3E       		.uleb128 0x3e
 1854 0019 0B       		.uleb128 0xb
 1855 001a 03       		.uleb128 0x3
 1856 001b 0E       		.uleb128 0xe
 1857 001c 00       		.byte	0
 1858 001d 00       		.byte	0
 1859 001e 03       		.uleb128 0x3
 1860 001f 16       		.uleb128 0x16
 1861 0020 00       		.byte	0
 1862 0021 03       		.uleb128 0x3
 1863 0022 0E       		.uleb128 0xe
 1864 0023 3A       		.uleb128 0x3a
 1865 0024 0B       		.uleb128 0xb
 1866 0025 3B       		.uleb128 0x3b
 1867 0026 0B       		.uleb128 0xb
 1868 0027 49       		.uleb128 0x49
 1869 0028 13       		.uleb128 0x13
 1870 0029 00       		.byte	0
 1871 002a 00       		.byte	0
ARM GAS  /tmp/ccxJ1I9Y.s 			page 34


 1872 002b 04       		.uleb128 0x4
 1873 002c 24       		.uleb128 0x24
 1874 002d 00       		.byte	0
 1875 002e 0B       		.uleb128 0xb
 1876 002f 0B       		.uleb128 0xb
 1877 0030 3E       		.uleb128 0x3e
 1878 0031 0B       		.uleb128 0xb
 1879 0032 03       		.uleb128 0x3
 1880 0033 08       		.uleb128 0x8
 1881 0034 00       		.byte	0
 1882 0035 00       		.byte	0
 1883 0036 05       		.uleb128 0x5
 1884 0037 13       		.uleb128 0x13
 1885 0038 01       		.byte	0x1
 1886 0039 03       		.uleb128 0x3
 1887 003a 0E       		.uleb128 0xe
 1888 003b 0B       		.uleb128 0xb
 1889 003c 0B       		.uleb128 0xb
 1890 003d 3A       		.uleb128 0x3a
 1891 003e 0B       		.uleb128 0xb
 1892 003f 3B       		.uleb128 0x3b
 1893 0040 0B       		.uleb128 0xb
 1894 0041 01       		.uleb128 0x1
 1895 0042 13       		.uleb128 0x13
 1896 0043 00       		.byte	0
 1897 0044 00       		.byte	0
 1898 0045 06       		.uleb128 0x6
 1899 0046 0D       		.uleb128 0xd
 1900 0047 00       		.byte	0
 1901 0048 03       		.uleb128 0x3
 1902 0049 0E       		.uleb128 0xe
 1903 004a 3A       		.uleb128 0x3a
 1904 004b 0B       		.uleb128 0xb
 1905 004c 3B       		.uleb128 0x3b
 1906 004d 0B       		.uleb128 0xb
 1907 004e 49       		.uleb128 0x49
 1908 004f 13       		.uleb128 0x13
 1909 0050 38       		.uleb128 0x38
 1910 0051 0B       		.uleb128 0xb
 1911 0052 00       		.byte	0
 1912 0053 00       		.byte	0
 1913 0054 07       		.uleb128 0x7
 1914 0055 0F       		.uleb128 0xf
 1915 0056 00       		.byte	0
 1916 0057 0B       		.uleb128 0xb
 1917 0058 0B       		.uleb128 0xb
 1918 0059 49       		.uleb128 0x49
 1919 005a 13       		.uleb128 0x13
 1920 005b 00       		.byte	0
 1921 005c 00       		.byte	0
 1922 005d 08       		.uleb128 0x8
 1923 005e 2E       		.uleb128 0x2e
 1924 005f 01       		.byte	0x1
 1925 0060 03       		.uleb128 0x3
 1926 0061 0E       		.uleb128 0xe
 1927 0062 3A       		.uleb128 0x3a
 1928 0063 0B       		.uleb128 0xb
ARM GAS  /tmp/ccxJ1I9Y.s 			page 35


 1929 0064 3B       		.uleb128 0x3b
 1930 0065 05       		.uleb128 0x5
 1931 0066 27       		.uleb128 0x27
 1932 0067 19       		.uleb128 0x19
 1933 0068 49       		.uleb128 0x49
 1934 0069 13       		.uleb128 0x13
 1935 006a 20       		.uleb128 0x20
 1936 006b 0B       		.uleb128 0xb
 1937 006c 01       		.uleb128 0x1
 1938 006d 13       		.uleb128 0x13
 1939 006e 00       		.byte	0
 1940 006f 00       		.byte	0
 1941 0070 09       		.uleb128 0x9
 1942 0071 34       		.uleb128 0x34
 1943 0072 00       		.byte	0
 1944 0073 03       		.uleb128 0x3
 1945 0074 0E       		.uleb128 0xe
 1946 0075 3A       		.uleb128 0x3a
 1947 0076 0B       		.uleb128 0xb
 1948 0077 3B       		.uleb128 0x3b
 1949 0078 05       		.uleb128 0x5
 1950 0079 49       		.uleb128 0x49
 1951 007a 13       		.uleb128 0x13
 1952 007b 00       		.byte	0
 1953 007c 00       		.byte	0
 1954 007d 0A       		.uleb128 0xa
 1955 007e 2E       		.uleb128 0x2e
 1956 007f 00       		.byte	0
 1957 0080 03       		.uleb128 0x3
 1958 0081 0E       		.uleb128 0xe
 1959 0082 3A       		.uleb128 0x3a
 1960 0083 0B       		.uleb128 0xb
 1961 0084 3B       		.uleb128 0x3b
 1962 0085 05       		.uleb128 0x5
 1963 0086 27       		.uleb128 0x27
 1964 0087 19       		.uleb128 0x19
 1965 0088 20       		.uleb128 0x20
 1966 0089 0B       		.uleb128 0xb
 1967 008a 00       		.byte	0
 1968 008b 00       		.byte	0
 1969 008c 0B       		.uleb128 0xb
 1970 008d 2E       		.uleb128 0x2e
 1971 008e 01       		.byte	0x1
 1972 008f 03       		.uleb128 0x3
 1973 0090 0E       		.uleb128 0xe
 1974 0091 3A       		.uleb128 0x3a
 1975 0092 0B       		.uleb128 0xb
 1976 0093 3B       		.uleb128 0x3b
 1977 0094 05       		.uleb128 0x5
 1978 0095 27       		.uleb128 0x27
 1979 0096 19       		.uleb128 0x19
 1980 0097 20       		.uleb128 0x20
 1981 0098 0B       		.uleb128 0xb
 1982 0099 01       		.uleb128 0x1
 1983 009a 13       		.uleb128 0x13
 1984 009b 00       		.byte	0
 1985 009c 00       		.byte	0
ARM GAS  /tmp/ccxJ1I9Y.s 			page 36


 1986 009d 0C       		.uleb128 0xc
 1987 009e 05       		.uleb128 0x5
 1988 009f 00       		.byte	0
 1989 00a0 03       		.uleb128 0x3
 1990 00a1 0E       		.uleb128 0xe
 1991 00a2 3A       		.uleb128 0x3a
 1992 00a3 0B       		.uleb128 0xb
 1993 00a4 3B       		.uleb128 0x3b
 1994 00a5 05       		.uleb128 0x5
 1995 00a6 49       		.uleb128 0x49
 1996 00a7 13       		.uleb128 0x13
 1997 00a8 00       		.byte	0
 1998 00a9 00       		.byte	0
 1999 00aa 0D       		.uleb128 0xd
 2000 00ab 2E       		.uleb128 0x2e
 2001 00ac 01       		.byte	0x1
 2002 00ad 3F       		.uleb128 0x3f
 2003 00ae 19       		.uleb128 0x19
 2004 00af 03       		.uleb128 0x3
 2005 00b0 0E       		.uleb128 0xe
 2006 00b1 3A       		.uleb128 0x3a
 2007 00b2 0B       		.uleb128 0xb
 2008 00b3 3B       		.uleb128 0x3b
 2009 00b4 0B       		.uleb128 0xb
 2010 00b5 27       		.uleb128 0x27
 2011 00b6 19       		.uleb128 0x19
 2012 00b7 11       		.uleb128 0x11
 2013 00b8 01       		.uleb128 0x1
 2014 00b9 12       		.uleb128 0x12
 2015 00ba 06       		.uleb128 0x6
 2016 00bb 40       		.uleb128 0x40
 2017 00bc 18       		.uleb128 0x18
 2018 00bd 9742     		.uleb128 0x2117
 2019 00bf 19       		.uleb128 0x19
 2020 00c0 01       		.uleb128 0x1
 2021 00c1 13       		.uleb128 0x13
 2022 00c2 00       		.byte	0
 2023 00c3 00       		.byte	0
 2024 00c4 0E       		.uleb128 0xe
 2025 00c5 05       		.uleb128 0x5
 2026 00c6 00       		.byte	0
 2027 00c7 03       		.uleb128 0x3
 2028 00c8 0E       		.uleb128 0xe
 2029 00c9 3A       		.uleb128 0x3a
 2030 00ca 0B       		.uleb128 0xb
 2031 00cb 3B       		.uleb128 0x3b
 2032 00cc 0B       		.uleb128 0xb
 2033 00cd 49       		.uleb128 0x49
 2034 00ce 13       		.uleb128 0x13
 2035 00cf 02       		.uleb128 0x2
 2036 00d0 18       		.uleb128 0x18
 2037 00d1 00       		.byte	0
 2038 00d2 00       		.byte	0
 2039 00d3 0F       		.uleb128 0xf
 2040 00d4 2E       		.uleb128 0x2e
 2041 00d5 01       		.byte	0x1
 2042 00d6 3F       		.uleb128 0x3f
ARM GAS  /tmp/ccxJ1I9Y.s 			page 37


 2043 00d7 19       		.uleb128 0x19
 2044 00d8 03       		.uleb128 0x3
 2045 00d9 0E       		.uleb128 0xe
 2046 00da 3A       		.uleb128 0x3a
 2047 00db 0B       		.uleb128 0xb
 2048 00dc 3B       		.uleb128 0x3b
 2049 00dd 0B       		.uleb128 0xb
 2050 00de 27       		.uleb128 0x27
 2051 00df 19       		.uleb128 0x19
 2052 00e0 49       		.uleb128 0x49
 2053 00e1 13       		.uleb128 0x13
 2054 00e2 11       		.uleb128 0x11
 2055 00e3 01       		.uleb128 0x1
 2056 00e4 12       		.uleb128 0x12
 2057 00e5 06       		.uleb128 0x6
 2058 00e6 40       		.uleb128 0x40
 2059 00e7 18       		.uleb128 0x18
 2060 00e8 9742     		.uleb128 0x2117
 2061 00ea 19       		.uleb128 0x19
 2062 00eb 01       		.uleb128 0x1
 2063 00ec 13       		.uleb128 0x13
 2064 00ed 00       		.byte	0
 2065 00ee 00       		.byte	0
 2066 00ef 10       		.uleb128 0x10
 2067 00f0 34       		.uleb128 0x34
 2068 00f1 00       		.byte	0
 2069 00f2 03       		.uleb128 0x3
 2070 00f3 0E       		.uleb128 0xe
 2071 00f4 3A       		.uleb128 0x3a
 2072 00f5 0B       		.uleb128 0xb
 2073 00f6 3B       		.uleb128 0x3b
 2074 00f7 0B       		.uleb128 0xb
 2075 00f8 49       		.uleb128 0x49
 2076 00f9 13       		.uleb128 0x13
 2077 00fa 02       		.uleb128 0x2
 2078 00fb 18       		.uleb128 0x18
 2079 00fc 00       		.byte	0
 2080 00fd 00       		.byte	0
 2081 00fe 11       		.uleb128 0x11
 2082 00ff 1D       		.uleb128 0x1d
 2083 0100 01       		.byte	0x1
 2084 0101 31       		.uleb128 0x31
 2085 0102 13       		.uleb128 0x13
 2086 0103 11       		.uleb128 0x11
 2087 0104 01       		.uleb128 0x1
 2088 0105 12       		.uleb128 0x12
 2089 0106 06       		.uleb128 0x6
 2090 0107 58       		.uleb128 0x58
 2091 0108 0B       		.uleb128 0xb
 2092 0109 59       		.uleb128 0x59
 2093 010a 0B       		.uleb128 0xb
 2094 010b 01       		.uleb128 0x1
 2095 010c 13       		.uleb128 0x13
 2096 010d 00       		.byte	0
 2097 010e 00       		.byte	0
 2098 010f 12       		.uleb128 0x12
 2099 0110 0B       		.uleb128 0xb
ARM GAS  /tmp/ccxJ1I9Y.s 			page 38


 2100 0111 01       		.byte	0x1
 2101 0112 11       		.uleb128 0x11
 2102 0113 01       		.uleb128 0x1
 2103 0114 12       		.uleb128 0x12
 2104 0115 06       		.uleb128 0x6
 2105 0116 00       		.byte	0
 2106 0117 00       		.byte	0
 2107 0118 13       		.uleb128 0x13
 2108 0119 34       		.uleb128 0x34
 2109 011a 00       		.byte	0
 2110 011b 31       		.uleb128 0x31
 2111 011c 13       		.uleb128 0x13
 2112 011d 02       		.uleb128 0x2
 2113 011e 18       		.uleb128 0x18
 2114 011f 00       		.byte	0
 2115 0120 00       		.byte	0
 2116 0121 14       		.uleb128 0x14
 2117 0122 1D       		.uleb128 0x1d
 2118 0123 00       		.byte	0
 2119 0124 31       		.uleb128 0x31
 2120 0125 13       		.uleb128 0x13
 2121 0126 11       		.uleb128 0x11
 2122 0127 01       		.uleb128 0x1
 2123 0128 12       		.uleb128 0x12
 2124 0129 06       		.uleb128 0x6
 2125 012a 58       		.uleb128 0x58
 2126 012b 0B       		.uleb128 0xb
 2127 012c 59       		.uleb128 0x59
 2128 012d 0B       		.uleb128 0xb
 2129 012e 00       		.byte	0
 2130 012f 00       		.byte	0
 2131 0130 15       		.uleb128 0x15
 2132 0131 1D       		.uleb128 0x1d
 2133 0132 01       		.byte	0x1
 2134 0133 31       		.uleb128 0x31
 2135 0134 13       		.uleb128 0x13
 2136 0135 11       		.uleb128 0x11
 2137 0136 01       		.uleb128 0x1
 2138 0137 12       		.uleb128 0x12
 2139 0138 06       		.uleb128 0x6
 2140 0139 58       		.uleb128 0x58
 2141 013a 0B       		.uleb128 0xb
 2142 013b 59       		.uleb128 0x59
 2143 013c 0B       		.uleb128 0xb
 2144 013d 00       		.byte	0
 2145 013e 00       		.byte	0
 2146 013f 16       		.uleb128 0x16
 2147 0140 05       		.uleb128 0x5
 2148 0141 00       		.byte	0
 2149 0142 31       		.uleb128 0x31
 2150 0143 13       		.uleb128 0x13
 2151 0144 02       		.uleb128 0x2
 2152 0145 18       		.uleb128 0x18
 2153 0146 00       		.byte	0
 2154 0147 00       		.byte	0
 2155 0148 17       		.uleb128 0x17
 2156 0149 2E       		.uleb128 0x2e
ARM GAS  /tmp/ccxJ1I9Y.s 			page 39


 2157 014a 01       		.byte	0x1
 2158 014b 3F       		.uleb128 0x3f
 2159 014c 19       		.uleb128 0x19
 2160 014d 03       		.uleb128 0x3
 2161 014e 0E       		.uleb128 0xe
 2162 014f 3A       		.uleb128 0x3a
 2163 0150 0B       		.uleb128 0xb
 2164 0151 3B       		.uleb128 0x3b
 2165 0152 0B       		.uleb128 0xb
 2166 0153 27       		.uleb128 0x27
 2167 0154 19       		.uleb128 0x19
 2168 0155 11       		.uleb128 0x11
 2169 0156 01       		.uleb128 0x1
 2170 0157 12       		.uleb128 0x12
 2171 0158 06       		.uleb128 0x6
 2172 0159 40       		.uleb128 0x40
 2173 015a 18       		.uleb128 0x18
 2174 015b 9642     		.uleb128 0x2116
 2175 015d 19       		.uleb128 0x19
 2176 015e 01       		.uleb128 0x1
 2177 015f 13       		.uleb128 0x13
 2178 0160 00       		.byte	0
 2179 0161 00       		.byte	0
 2180 0162 18       		.uleb128 0x18
 2181 0163 34       		.uleb128 0x34
 2182 0164 00       		.byte	0
 2183 0165 03       		.uleb128 0x3
 2184 0166 0E       		.uleb128 0xe
 2185 0167 3A       		.uleb128 0x3a
 2186 0168 0B       		.uleb128 0xb
 2187 0169 3B       		.uleb128 0x3b
 2188 016a 05       		.uleb128 0x5
 2189 016b 49       		.uleb128 0x49
 2190 016c 13       		.uleb128 0x13
 2191 016d 3F       		.uleb128 0x3f
 2192 016e 19       		.uleb128 0x19
 2193 016f 3C       		.uleb128 0x3c
 2194 0170 19       		.uleb128 0x19
 2195 0171 00       		.byte	0
 2196 0172 00       		.byte	0
 2197 0173 19       		.uleb128 0x19
 2198 0174 35       		.uleb128 0x35
 2199 0175 00       		.byte	0
 2200 0176 49       		.uleb128 0x49
 2201 0177 13       		.uleb128 0x13
 2202 0178 00       		.byte	0
 2203 0179 00       		.byte	0
 2204 017a 00       		.byte	0
 2205              		.section	.debug_aranges,"",%progbits
 2206 0000 1C000000 		.4byte	0x1c
 2207 0004 0200     		.2byte	0x2
 2208 0006 00000000 		.4byte	.Ldebug_info0
 2209 000a 04       		.byte	0x4
 2210 000b 00       		.byte	0
 2211 000c 0000     		.2byte	0
 2212 000e 0000     		.2byte	0
 2213 0010 00000000 		.4byte	.Ltext0
ARM GAS  /tmp/ccxJ1I9Y.s 			page 40


 2214 0014 E8020000 		.4byte	.Letext0-.Ltext0
 2215 0018 00000000 		.4byte	0
 2216 001c 00000000 		.4byte	0
 2217              		.section	.debug_line,"",%progbits
 2218              	.Ldebug_line0:
 2219 0000 DE030000 		.section	.debug_str,"MS",%progbits,1
 2219      02000402 
 2219      00000201 
 2219      FB0E0D00 
 2219      01010101 
 2220              	.LASF17:
 2221 0000 744C6973 		.ascii	"tListNode\000"
 2221      744E6F64 
 2221      6500
 2222              	.LASF32:
 2223 000a 6C697374 		.ascii	"list_insert_node_before\000"
 2223      5F696E73 
 2223      6572745F 
 2223      6E6F6465 
 2223      5F626566 
 2224              	.LASF4:
 2225 0022 5F5F7569 		.ascii	"__uint8_t\000"
 2225      6E74385F 
 2225      7400
 2226              	.LASF15:
 2227 002c 6E657874 		.ascii	"next\000"
 2227      00
 2228              	.LASF21:
 2229 0031 75775052 		.ascii	"uwPRIMASK_Bit\000"
 2229      494D4153 
 2229      4B5F4269 
 2229      7400
 2230              	.LASF16:
 2231 003f 70726576 		.ascii	"prev\000"
 2231      00
 2232              	.LASF23:
 2233 0044 6C697374 		.ascii	"list_init_head\000"
 2233      5F696E69 
 2233      745F6865 
 2233      616400
 2234              	.LASF5:
 2235 0053 5F5F696E 		.ascii	"__int32_t\000"
 2235      7433325F 
 2235      7400
 2236              	.LASF47:
 2237 005d 7072694D 		.ascii	"priMask\000"
 2237      61736B00 
 2238              	.LASF27:
 2239 0065 6C697374 		.ascii	"list_remove_node\000"
 2239      5F72656D 
 2239      6F76655F 
 2239      6E6F6465 
 2239      00
 2240              	.LASF2:
 2241 0076 73686F72 		.ascii	"short int\000"
 2241      7420696E 
 2241      7400
ARM GAS  /tmp/ccxJ1I9Y.s 			page 41


 2242              	.LASF37:
 2243 0080 6C697374 		.ascii	"list_get_next_node\000"
 2243      5F676574 
 2243      5F6E6578 
 2243      745F6E6F 
 2243      646500
 2244              	.LASF42:
 2245 0093 5F744C69 		.ascii	"_tListNode\000"
 2245      73744E6F 
 2245      646500
 2246              	.LASF22:
 2247 009e 72657475 		.ascii	"return_value\000"
 2247      726E5F76 
 2247      616C7565 
 2247      00
 2248              	.LASF20:
 2249 00ab 6C697374 		.ascii	"listHead\000"
 2249      48656164 
 2249      00
 2250              	.LASF29:
 2251 00b4 6C697374 		.ascii	"list_remove_tail\000"
 2251      5F72656D 
 2251      6F76655F 
 2251      7461696C 
 2251      00
 2252              	.LASF1:
 2253 00c5 756E7369 		.ascii	"unsigned char\000"
 2253      676E6564 
 2253      20636861 
 2253      7200
 2254              	.LASF43:
 2255 00d3 5F5F6765 		.ascii	"__get_PRIMASK\000"
 2255      745F5052 
 2255      494D4153 
 2255      4B00
 2256              	.LASF26:
 2257 00e1 6C697374 		.ascii	"list_insert_tail\000"
 2257      5F696E73 
 2257      6572745F 
 2257      7461696C 
 2257      00
 2258              	.LASF8:
 2259 00f2 6C6F6E67 		.ascii	"long unsigned int\000"
 2259      20756E73 
 2259      69676E65 
 2259      6420696E 
 2259      7400
 2260              	.LASF36:
 2261 0104 74656D70 		.ascii	"temp\000"
 2261      00
 2262              	.LASF3:
 2263 0109 73686F72 		.ascii	"short unsigned int\000"
 2263      7420756E 
 2263      7369676E 
 2263      65642069 
 2263      6E7400
 2264              	.LASF14:
ARM GAS  /tmp/ccxJ1I9Y.s 			page 42


 2265 011c 75696E74 		.ascii	"uint32_t\000"
 2265      33325F74 
 2265      00
 2266              	.LASF48:
 2267 0125 49544D5F 		.ascii	"ITM_RxBuffer\000"
 2267      52784275 
 2267      66666572 
 2267      00
 2268              	.LASF7:
 2269 0132 5F5F7569 		.ascii	"__uint32_t\000"
 2269      6E743332 
 2269      5F7400
 2270              	.LASF39:
 2271 013d 474E5520 		.ascii	"GNU C 4.8.4 20140526 (release) [ARM/embedded-4_8-br"
 2271      4320342E 
 2271      382E3420 
 2271      32303134 
 2271      30353236 
 2272 0170 616E6368 		.ascii	"anch revision 211358] -mcpu=cortex-m4 -mno-thumb-in"
 2272      20726576 
 2272      6973696F 
 2272      6E203231 
 2272      31333538 
 2273 01a3 74657277 		.ascii	"terwork -mthumb -ggdb -O0 -std=c99 -fomit-frame-poi"
 2273      6F726B20 
 2273      2D6D7468 
 2273      756D6220 
 2273      2D676764 
 2274 01d6 6E746572 		.ascii	"nter -falign-functions=16\000"
 2274      202D6661 
 2274      6C69676E 
 2274      2D66756E 
 2274      6374696F 
 2275              	.LASF38:
 2276 01f0 6C697374 		.ascii	"list_get_prev_node\000"
 2276      5F676574 
 2276      5F707265 
 2276      765F6E6F 
 2276      646500
 2277              	.LASF11:
 2278 0203 756E7369 		.ascii	"unsigned int\000"
 2278      676E6564 
 2278      20696E74 
 2278      00
 2279              	.LASF19:
 2280 0210 63686172 		.ascii	"char\000"
 2280      00
 2281              	.LASF12:
 2282 0215 75696E74 		.ascii	"uint8_t\000"
 2282      385F7400 
 2283              	.LASF44:
 2284 021d 72657375 		.ascii	"result\000"
 2284      6C7400
 2285              	.LASF13:
 2286 0224 696E7433 		.ascii	"int32_t\000"
 2286      325F7400 
 2287              	.LASF18:
ARM GAS  /tmp/ccxJ1I9Y.s 			page 43


 2288 022c 73697A65 		.ascii	"sizetype\000"
 2288      74797065 
 2288      00
 2289              	.LASF33:
 2290 0235 6C697374 		.ascii	"list_is_empty\000"
 2290      5F69735F 
 2290      656D7074 
 2290      7900
 2291              	.LASF9:
 2292 0243 6C6F6E67 		.ascii	"long long int\000"
 2292      206C6F6E 
 2292      6720696E 
 2292      7400
 2293              	.LASF46:
 2294 0251 5F5F7365 		.ascii	"__set_PRIMASK\000"
 2294      745F5052 
 2294      494D4153 
 2294      4B00
 2295              	.LASF31:
 2296 025f 7265665F 		.ascii	"ref_node\000"
 2296      6E6F6465 
 2296      00
 2297              	.LASF30:
 2298 0268 6C697374 		.ascii	"list_insert_node_after\000"
 2298      5F696E73 
 2298      6572745F 
 2298      6E6F6465 
 2298      5F616674 
 2299              	.LASF34:
 2300 027f 6C697374 		.ascii	"list_get_size\000"
 2300      5F676574 
 2300      5F73697A 
 2300      6500
 2301              	.LASF28:
 2302 028d 6C697374 		.ascii	"list_remove_head\000"
 2302      5F72656D 
 2302      6F76655F 
 2302      68656164 
 2302      00
 2303              	.LASF25:
 2304 029e 6E6F6465 		.ascii	"node\000"
 2304      00
 2305              	.LASF45:
 2306 02a3 5F5F6469 		.ascii	"__disable_irq\000"
 2306      7361626C 
 2306      655F6972 
 2306      7100
 2307              	.LASF6:
 2308 02b1 6C6F6E67 		.ascii	"long int\000"
 2308      20696E74 
 2308      00
 2309              	.LASF24:
 2310 02ba 6C697374 		.ascii	"list_insert_head\000"
 2310      5F696E73 
 2310      6572745F 
 2310      68656164 
 2310      00
ARM GAS  /tmp/ccxJ1I9Y.s 			page 44


 2311              	.LASF41:
 2312 02cb 2F752F65 		.ascii	"/u/elawton2/p442-submissions/sensortile/reference/b"
 2312      6C617774 
 2312      6F6E322F 
 2312      70343432 
 2312      2D737562 
 2313 02fe 6C75656D 		.ascii	"luemicrosystem2/BlueMicrosystem2_V2.2.0/Projects/Mu"
 2313      6963726F 
 2313      73797374 
 2313      656D322F 
 2313      426C7565 
 2314 0331 6C74692F 		.ascii	"lti/Applications/BlueMicrosystem2/bluechibi\000"
 2314      4170706C 
 2314      69636174 
 2314      696F6E73 
 2314      2F426C75 
 2315              	.LASF0:
 2316 035d 7369676E 		.ascii	"signed char\000"
 2316      65642063 
 2316      68617200 
 2317              	.LASF35:
 2318 0369 73697A65 		.ascii	"size\000"
 2318      00
 2319              	.LASF10:
 2320 036e 6C6F6E67 		.ascii	"long long unsigned int\000"
 2320      206C6F6E 
 2320      6720756E 
 2320      7369676E 
 2320      65642069 
 2321              	.LASF40:
 2322 0385 2E2E2F2E 		.ascii	"../../../../../Middlewares/ST/STM32_BlueNRG/SimpleB"
 2322      2E2F2E2E 
 2322      2F2E2E2F 
 2322      2E2E2F4D 
 2322      6964646C 
 2323 03b8 6C75654E 		.ascii	"lueNRG_HCI/utils/ble_list.c\000"
 2323      52475F48 
 2323      43492F75 
 2323      74696C73 
 2323      2F626C65 
 2324              		.ident	"GCC: (GNU Tools for ARM Embedded Processors) 4.8.4 20140526 (release) [ARM/embedded-4_8-br
ARM GAS  /tmp/ccxJ1I9Y.s 			page 45


DEFINED SYMBOLS
                            *ABS*:00000000 ble_list.c
     /tmp/ccxJ1I9Y.s:18     .text:00000000 $t
     /tmp/ccxJ1I9Y.s:24     .text:00000000 list_init_head
     /tmp/ccxJ1I9Y.s:56     .text:00000020 list_is_empty
     /tmp/ccxJ1I9Y.s:133    .text:00000060 list_insert_head
     /tmp/ccxJ1I9Y.s:210    .text:000000a0 list_insert_tail
     /tmp/ccxJ1I9Y.s:287    .text:000000e0 list_remove_node
     /tmp/ccxJ1I9Y.s:357    .text:00000120 list_remove_head
     /tmp/ccxJ1I9Y.s:438    .text:00000170 list_remove_tail
     /tmp/ccxJ1I9Y.s:519    .text:000001c0 list_insert_node_after
     /tmp/ccxJ1I9Y.s:596    .text:00000200 list_insert_node_before
     /tmp/ccxJ1I9Y.s:673    .text:00000240 list_get_size
     /tmp/ccxJ1I9Y.s:758    .text:00000290 list_get_next_node
     /tmp/ccxJ1I9Y.s:822    .text:000002c0 list_get_prev_node
                     .debug_frame:00000010 $d

NO UNDEFINED SYMBOLS
