ARM GAS  /tmp/ccxJ1I9Y.s 			page 1


   1              		.syntax unified
   2              		.cpu cortex-m4
   3              		.fpu softvfp
   4              		.eabi_attribute 20, 1
   5              		.eabi_attribute 21, 1
   6              		.eabi_attribute 23, 3
   7              		.eabi_attribute 24, 1
   8              		.eabi_attribute 25, 1
   9              		.eabi_attribute 26, 1
  10              		.eabi_attribute 30, 6
  11              		.eabi_attribute 34, 1
  12              		.eabi_attribute 18, 4
  13              		.thumb
  14              		.file	"ble_list.c"
  15              		.text
  16              	.Ltext0:
  17              		.cfi_sections	.debug_frame
  18              		.align	2
  19              		.p2align 4,,15
  20              		.global	list_init_head
  21              		.thumb
  22              		.thumb_func
  23              		.type	list_init_head, %function
  24              	list_init_head:
  25              	.LFB125:
  26              		.file 1 "../../../../../Middlewares/ST/STM32_BlueNRG/SimpleBlueNRG_HCI/utils/ble_list.c"
  27              		.loc 1 38 0
  28              		.cfi_startproc
  29              		@ args = 0, pretend = 0, frame = 8
  30              		@ frame_needed = 0, uses_anonymous_args = 0
  31              		@ link register save eliminated.
  32 0000 82B0     		sub	sp, sp, #8
  33              		.cfi_def_cfa_offset 8
  34 0002 0190     		str	r0, [sp, #4]
  35              		.loc 1 39 0
  36 0004 019B     		ldr	r3, [sp, #4]
  37 0006 019A     		ldr	r2, [sp, #4]
  38 0008 1A60     		str	r2, [r3]
  39              		.loc 1 40 0
  40 000a 019B     		ldr	r3, [sp, #4]
  41 000c 019A     		ldr	r2, [sp, #4]
  42 000e 5A60     		str	r2, [r3, #4]
  43              		.loc 1 41 0
  44 0010 02B0     		add	sp, sp, #8
  45              		@ sp needed
  46 0012 7047     		bx	lr
  47              		.cfi_endproc
  48              	.LFE125:
  49              		.size	list_init_head, .-list_init_head
  50              		.align	2
  51 0014 AFF30080 		.p2align 4,,15
  51      AFF30080 
  51      AFF30080 
  52              		.global	list_is_empty
  53              		.thumb
  54              		.thumb_func
  55              		.type	list_is_empty, %function
ARM GAS  /tmp/ccxJ1I9Y.s 			page 2


  56              	list_is_empty:
  57              	.LFB126:
  58              		.loc 1 44 0
  59              		.cfi_startproc
  60              		@ args = 0, pretend = 0, frame = 24
  61              		@ frame_needed = 0, uses_anonymous_args = 0
  62              		@ link register save eliminated.
  63 0020 86B0     		sub	sp, sp, #24
  64              		.cfi_def_cfa_offset 24
  65 0022 0190     		str	r0, [sp, #4]
  66              	.LBB68:
  67              	.LBB69:
  68              		.file 2 "../../../../../../ChibiOS/os/ext/CMSIS/include/core_cmFunc.h"
  69              		.loc 2 484 0
  70              	@ 484 "../../../../../../ChibiOS/os/ext/CMSIS/include/core_cmFunc.h" 1
  71 0024 EFF31083 		MRS r3, primask
  72              	@ 0 "" 2
  73              		.thumb
  74 0028 0393     		str	r3, [sp, #12]
  75              		.loc 2 485 0
  76 002a 039B     		ldr	r3, [sp, #12]
  77              	.LBE69:
  78              	.LBE68:
  79              		.loc 1 48 0
  80 002c 0493     		str	r3, [sp, #16]
  81              	.LBB70:
  82              	.LBB71:
  83              		.loc 2 344 0
  84              	@ 344 "../../../../../../ChibiOS/os/ext/CMSIS/include/core_cmFunc.h" 1
  85 002e 72B6     		cpsid i
  86              	@ 0 "" 2
  87              		.thumb
  88              	.LBE71:
  89              	.LBE70:
  90              		.loc 1 50 0
  91 0030 019B     		ldr	r3, [sp, #4]
  92 0032 1A68     		ldr	r2, [r3]
  93 0034 019B     		ldr	r3, [sp, #4]
  94 0036 9A42     		cmp	r2, r3
  95 0038 03D1     		bne	.L4
  96              		.loc 1 52 0
  97 003a 0123     		movs	r3, #1
  98 003c 8DF81730 		strb	r3, [sp, #23]
  99 0040 02E0     		b	.L5
 100              	.L4:
 101              		.loc 1 56 0
 102 0042 0023     		movs	r3, #0
 103 0044 8DF81730 		strb	r3, [sp, #23]
 104              	.L5:
 105 0048 049B     		ldr	r3, [sp, #16]
 106 004a 0293     		str	r3, [sp, #8]
 107              	.LBB72:
 108              	.LBB73:
 109              		.loc 2 497 0
 110 004c 029B     		ldr	r3, [sp, #8]
 111              	@ 497 "../../../../../../ChibiOS/os/ext/CMSIS/include/core_cmFunc.h" 1
 112 004e 83F31088 		MSR primask, r3
ARM GAS  /tmp/ccxJ1I9Y.s 			page 3


 113              	@ 0 "" 2
 114              		.thumb
 115              	.LBE73:
 116              	.LBE72:
 117              		.loc 1 60 0
 118 0052 9DF81730 		ldrb	r3, [sp, #23]	@ zero_extendqisi2
 119              		.loc 1 61 0
 120 0056 1846     		mov	r0, r3
 121 0058 06B0     		add	sp, sp, #24
 122              		@ sp needed
 123 005a 7047     		bx	lr
 124              		.cfi_endproc
 125              	.LFE126:
 126              		.size	list_is_empty, .-list_is_empty
 127              		.align	2
 128 005c AFF30080 		.p2align 4,,15
 129              		.global	list_insert_head
 130              		.thumb
 131              		.thumb_func
 132              		.type	list_insert_head, %function
 133              	list_insert_head:
 134              	.LFB127:
 135              		.loc 1 64 0
 136              		.cfi_startproc
 137              		@ args = 0, pretend = 0, frame = 24
 138              		@ frame_needed = 0, uses_anonymous_args = 0
 139              		@ link register save eliminated.
 140 0060 86B0     		sub	sp, sp, #24
 141              		.cfi_def_cfa_offset 24
 142 0062 0190     		str	r0, [sp, #4]
 143 0064 0091     		str	r1, [sp]
 144              	.LBB74:
 145              	.LBB75:
 146              		.loc 2 484 0
 147              	@ 484 "../../../../../../ChibiOS/os/ext/CMSIS/include/core_cmFunc.h" 1
 148 0066 EFF31083 		MRS r3, primask
 149              	@ 0 "" 2
 150              		.thumb
 151 006a 0493     		str	r3, [sp, #16]
 152              		.loc 2 485 0
 153 006c 049B     		ldr	r3, [sp, #16]
 154              	.LBE75:
 155              	.LBE74:
 156              		.loc 1 67 0
 157 006e 0593     		str	r3, [sp, #20]
 158              	.LBB76:
 159              	.LBB77:
 160              		.loc 2 344 0
 161              	@ 344 "../../../../../../ChibiOS/os/ext/CMSIS/include/core_cmFunc.h" 1
 162 0070 72B6     		cpsid i
 163              	@ 0 "" 2
 164              		.thumb
 165              	.LBE77:
 166              	.LBE76:
 167              		.loc 1 70 0
 168 0072 019B     		ldr	r3, [sp, #4]
 169 0074 1A68     		ldr	r2, [r3]
ARM GAS  /tmp/ccxJ1I9Y.s 			page 4


 170 0076 009B     		ldr	r3, [sp]
 171 0078 1A60     		str	r2, [r3]
 172              		.loc 1 71 0
 173 007a 009B     		ldr	r3, [sp]
 174 007c 019A     		ldr	r2, [sp, #4]
 175 007e 5A60     		str	r2, [r3, #4]
 176              		.loc 1 72 0
 177 0080 019B     		ldr	r3, [sp, #4]
 178 0082 009A     		ldr	r2, [sp]
 179 0084 1A60     		str	r2, [r3]
 180              		.loc 1 73 0
 181 0086 009B     		ldr	r3, [sp]
 182 0088 1B68     		ldr	r3, [r3]
 183 008a 009A     		ldr	r2, [sp]
 184 008c 5A60     		str	r2, [r3, #4]
 185 008e 059B     		ldr	r3, [sp, #20]
 186 0090 0393     		str	r3, [sp, #12]
 187              	.LBB78:
 188              	.LBB79:
 189              		.loc 2 497 0
 190 0092 039B     		ldr	r3, [sp, #12]
 191              	@ 497 "../../../../../../ChibiOS/os/ext/CMSIS/include/core_cmFunc.h" 1
 192 0094 83F31088 		MSR primask, r3
 193              	@ 0 "" 2
 194              		.thumb
 195              	.LBE79:
 196              	.LBE78:
 197              		.loc 1 76 0
 198 0098 06B0     		add	sp, sp, #24
 199              		@ sp needed
 200 009a 7047     		bx	lr
 201              		.cfi_endproc
 202              	.LFE127:
 203              		.size	list_insert_head, .-list_insert_head
 204              		.align	2
 205 009c AFF30080 		.p2align 4,,15
 206              		.global	list_insert_tail
 207              		.thumb
 208              		.thumb_func
 209              		.type	list_insert_tail, %function
 210              	list_insert_tail:
 211              	.LFB128:
 212              		.loc 1 79 0
 213              		.cfi_startproc
 214              		@ args = 0, pretend = 0, frame = 24
 215              		@ frame_needed = 0, uses_anonymous_args = 0
 216              		@ link register save eliminated.
 217 00a0 86B0     		sub	sp, sp, #24
 218              		.cfi_def_cfa_offset 24
 219 00a2 0190     		str	r0, [sp, #4]
 220 00a4 0091     		str	r1, [sp]
 221              	.LBB80:
 222              	.LBB81:
 223              		.loc 2 484 0
 224              	@ 484 "../../../../../../ChibiOS/os/ext/CMSIS/include/core_cmFunc.h" 1
 225 00a6 EFF31083 		MRS r3, primask
 226              	@ 0 "" 2
ARM GAS  /tmp/ccxJ1I9Y.s 			page 5


 227              		.thumb
 228 00aa 0493     		str	r3, [sp, #16]
 229              		.loc 2 485 0
 230 00ac 049B     		ldr	r3, [sp, #16]
 231              	.LBE81:
 232              	.LBE80:
 233              		.loc 1 82 0
 234 00ae 0593     		str	r3, [sp, #20]
 235              	.LBB82:
 236              	.LBB83:
 237              		.loc 2 344 0
 238              	@ 344 "../../../../../../ChibiOS/os/ext/CMSIS/include/core_cmFunc.h" 1
 239 00b0 72B6     		cpsid i
 240              	@ 0 "" 2
 241              		.thumb
 242              	.LBE83:
 243              	.LBE82:
 244              		.loc 1 85 0
 245 00b2 009B     		ldr	r3, [sp]
 246 00b4 019A     		ldr	r2, [sp, #4]
 247 00b6 1A60     		str	r2, [r3]
 248              		.loc 1 86 0
 249 00b8 019B     		ldr	r3, [sp, #4]
 250 00ba 5A68     		ldr	r2, [r3, #4]
 251 00bc 009B     		ldr	r3, [sp]
 252 00be 5A60     		str	r2, [r3, #4]
 253              		.loc 1 87 0
 254 00c0 019B     		ldr	r3, [sp, #4]
 255 00c2 009A     		ldr	r2, [sp]
 256 00c4 5A60     		str	r2, [r3, #4]
 257              		.loc 1 88 0
 258 00c6 009B     		ldr	r3, [sp]
 259 00c8 5B68     		ldr	r3, [r3, #4]
 260 00ca 009A     		ldr	r2, [sp]
 261 00cc 1A60     		str	r2, [r3]
 262 00ce 059B     		ldr	r3, [sp, #20]
 263 00d0 0393     		str	r3, [sp, #12]
 264              	.LBB84:
 265              	.LBB85:
 266              		.loc 2 497 0
 267 00d2 039B     		ldr	r3, [sp, #12]
 268              	@ 497 "../../../../../../ChibiOS/os/ext/CMSIS/include/core_cmFunc.h" 1
 269 00d4 83F31088 		MSR primask, r3
 270              	@ 0 "" 2
 271              		.thumb
 272              	.LBE85:
 273              	.LBE84:
 274              		.loc 1 91 0
 275 00d8 06B0     		add	sp, sp, #24
 276              		@ sp needed
 277 00da 7047     		bx	lr
 278              		.cfi_endproc
 279              	.LFE128:
 280              		.size	list_insert_tail, .-list_insert_tail
 281              		.align	2
 282 00dc AFF30080 		.p2align 4,,15
 283              		.global	list_remove_node
ARM GAS  /tmp/ccxJ1I9Y.s 			page 6


 284              		.thumb
 285              		.thumb_func
 286              		.type	list_remove_node, %function
 287              	list_remove_node:
 288              	.LFB129:
 289              		.loc 1 94 0
 290              		.cfi_startproc
 291              		@ args = 0, pretend = 0, frame = 24
 292              		@ frame_needed = 0, uses_anonymous_args = 0
 293              		@ link register save eliminated.
 294 00e0 86B0     		sub	sp, sp, #24
 295              		.cfi_def_cfa_offset 24
 296 00e2 0190     		str	r0, [sp, #4]
 297              	.LBB86:
 298              	.LBB87:
 299              		.loc 2 484 0
 300              	@ 484 "../../../../../../ChibiOS/os/ext/CMSIS/include/core_cmFunc.h" 1
 301 00e4 EFF31083 		MRS r3, primask
 302              	@ 0 "" 2
 303              		.thumb
 304 00e8 0493     		str	r3, [sp, #16]
 305              		.loc 2 485 0
 306 00ea 049B     		ldr	r3, [sp, #16]
 307              	.LBE87:
 308              	.LBE86:
 309              		.loc 1 97 0
 310 00ec 0593     		str	r3, [sp, #20]
 311              	.LBB88:
 312              	.LBB89:
 313              		.loc 2 344 0
 314              	@ 344 "../../../../../../ChibiOS/os/ext/CMSIS/include/core_cmFunc.h" 1
 315 00ee 72B6     		cpsid i
 316              	@ 0 "" 2
 317              		.thumb
 318              	.LBE89:
 319              	.LBE88:
 320              		.loc 1 100 0
 321 00f0 019B     		ldr	r3, [sp, #4]
 322 00f2 5B68     		ldr	r3, [r3, #4]
 323 00f4 019A     		ldr	r2, [sp, #4]
 324 00f6 1268     		ldr	r2, [r2]
 325 00f8 1A60     		str	r2, [r3]
 326              		.loc 1 101 0
 327 00fa 019B     		ldr	r3, [sp, #4]
 328 00fc 1B68     		ldr	r3, [r3]
 329 00fe 019A     		ldr	r2, [sp, #4]
 330 0100 5268     		ldr	r2, [r2, #4]
 331 0102 5A60     		str	r2, [r3, #4]
 332 0104 059B     		ldr	r3, [sp, #20]
 333 0106 0393     		str	r3, [sp, #12]
 334              	.LBB90:
 335              	.LBB91:
 336              		.loc 2 497 0
 337 0108 039B     		ldr	r3, [sp, #12]
 338              	@ 497 "../../../../../../ChibiOS/os/ext/CMSIS/include/core_cmFunc.h" 1
 339 010a 83F31088 		MSR primask, r3
 340              	@ 0 "" 2
ARM GAS  /tmp/ccxJ1I9Y.s 			page 7


 341              		.thumb
 342              	.LBE91:
 343              	.LBE90:
 344              		.loc 1 104 0
 345 010e 06B0     		add	sp, sp, #24
 346              		@ sp needed
 347 0110 7047     		bx	lr
 348              		.cfi_endproc
 349              	.LFE129:
 350              		.size	list_remove_node, .-list_remove_node
 351 0112 00BF     		.align	2
 352 0114 AFF30080 		.p2align 4,,15
 352      AFF30080 
 352      AFF30080 
 353              		.global	list_remove_head
 354              		.thumb
 355              		.thumb_func
 356              		.type	list_remove_head, %function
 357              	list_remove_head:
 358              	.LFB130:
 359              		.loc 1 107 0
 360              		.cfi_startproc
 361              		@ args = 0, pretend = 0, frame = 24
 362              		@ frame_needed = 0, uses_anonymous_args = 0
 363 0120 00B5     		push	{lr}
 364              		.cfi_def_cfa_offset 4
 365              		.cfi_offset 14, -4
 366 0122 87B0     		sub	sp, sp, #28
 367              		.cfi_def_cfa_offset 32
 368 0124 0190     		str	r0, [sp, #4]
 369 0126 0091     		str	r1, [sp]
 370              	.LBB92:
 371              	.LBB93:
 372              		.loc 2 484 0
 373              	@ 484 "../../../../../../ChibiOS/os/ext/CMSIS/include/core_cmFunc.h" 1
 374 0128 EFF31083 		MRS r3, primask
 375              	@ 0 "" 2
 376              		.thumb
 377 012c 0493     		str	r3, [sp, #16]
 378              		.loc 2 485 0
 379 012e 049B     		ldr	r3, [sp, #16]
 380              	.LBE93:
 381              	.LBE92:
 382              		.loc 1 110 0
 383 0130 0593     		str	r3, [sp, #20]
 384              	.LBB94:
 385              	.LBB95:
 386              		.loc 2 344 0
 387              	@ 344 "../../../../../../ChibiOS/os/ext/CMSIS/include/core_cmFunc.h" 1
 388 0132 72B6     		cpsid i
 389              	@ 0 "" 2
 390              		.thumb
 391              	.LBE95:
 392              	.LBE94:
 393              		.loc 1 113 0
 394 0134 019B     		ldr	r3, [sp, #4]
 395 0136 1A68     		ldr	r2, [r3]
ARM GAS  /tmp/ccxJ1I9Y.s 			page 8


 396 0138 009B     		ldr	r3, [sp]
 397 013a 1A60     		str	r2, [r3]
 398              		.loc 1 114 0
 399 013c 019B     		ldr	r3, [sp, #4]
 400 013e 1B68     		ldr	r3, [r3]
 401 0140 1846     		mov	r0, r3
 402 0142 FFF7FEFF 		bl	list_remove_node
 403              		.loc 1 115 0
 404 0146 009B     		ldr	r3, [sp]
 405 0148 1B68     		ldr	r3, [r3]
 406 014a 0022     		movs	r2, #0
 407 014c 1A60     		str	r2, [r3]
 408              		.loc 1 116 0
 409 014e 009B     		ldr	r3, [sp]
 410 0150 1B68     		ldr	r3, [r3]
 411 0152 0022     		movs	r2, #0
 412 0154 5A60     		str	r2, [r3, #4]
 413 0156 059B     		ldr	r3, [sp, #20]
 414 0158 0393     		str	r3, [sp, #12]
 415              	.LBB96:
 416              	.LBB97:
 417              		.loc 2 497 0
 418 015a 039B     		ldr	r3, [sp, #12]
 419              	@ 497 "../../../../../../ChibiOS/os/ext/CMSIS/include/core_cmFunc.h" 1
 420 015c 83F31088 		MSR primask, r3
 421              	@ 0 "" 2
 422              		.thumb
 423              	.LBE97:
 424              	.LBE96:
 425              		.loc 1 119 0
 426 0160 07B0     		add	sp, sp, #28
 427              		@ sp needed
 428 0162 5DF804FB 		ldr	pc, [sp], #4
 429              		.cfi_endproc
 430              	.LFE130:
 431              		.size	list_remove_head, .-list_remove_head
 432 0166 00BF     		.align	2
 433 0168 AFF30080 		.p2align 4,,15
 433      AFF30080 
 434              		.global	list_remove_tail
 435              		.thumb
 436              		.thumb_func
 437              		.type	list_remove_tail, %function
 438              	list_remove_tail:
 439              	.LFB131:
 440              		.loc 1 122 0
 441              		.cfi_startproc
 442              		@ args = 0, pretend = 0, frame = 24
 443              		@ frame_needed = 0, uses_anonymous_args = 0
 444 0170 00B5     		push	{lr}
 445              		.cfi_def_cfa_offset 4
 446              		.cfi_offset 14, -4
 447 0172 87B0     		sub	sp, sp, #28
 448              		.cfi_def_cfa_offset 32
 449 0174 0190     		str	r0, [sp, #4]
 450 0176 0091     		str	r1, [sp]
 451              	.LBB98:
ARM GAS  /tmp/ccxJ1I9Y.s 			page 9


 452              	.LBB99:
 453              		.loc 2 484 0
 454              	@ 484 "../../../../../../ChibiOS/os/ext/CMSIS/include/core_cmFunc.h" 1
 455 0178 EFF31083 		MRS r3, primask
 456              	@ 0 "" 2
 457              		.thumb
 458 017c 0493     		str	r3, [sp, #16]
 459              		.loc 2 485 0
 460 017e 049B     		ldr	r3, [sp, #16]
 461              	.LBE99:
 462              	.LBE98:
 463              		.loc 1 125 0
 464 0180 0593     		str	r3, [sp, #20]
 465              	.LBB100:
 466              	.LBB101:
 467              		.loc 2 344 0
 468              	@ 344 "../../../../../../ChibiOS/os/ext/CMSIS/include/core_cmFunc.h" 1
 469 0182 72B6     		cpsid i
 470              	@ 0 "" 2
 471              		.thumb
 472              	.LBE101:
 473              	.LBE100:
 474              		.loc 1 128 0
 475 0184 019B     		ldr	r3, [sp, #4]
 476 0186 5A68     		ldr	r2, [r3, #4]
 477 0188 009B     		ldr	r3, [sp]
 478 018a 1A60     		str	r2, [r3]
 479              		.loc 1 129 0
 480 018c 019B     		ldr	r3, [sp, #4]
 481 018e 5B68     		ldr	r3, [r3, #4]
 482 0190 1846     		mov	r0, r3
 483 0192 FFF7FEFF 		bl	list_remove_node
 484              		.loc 1 130 0
 485 0196 009B     		ldr	r3, [sp]
 486 0198 1B68     		ldr	r3, [r3]
 487 019a 0022     		movs	r2, #0
 488 019c 1A60     		str	r2, [r3]
 489              		.loc 1 131 0
 490 019e 009B     		ldr	r3, [sp]
 491 01a0 1B68     		ldr	r3, [r3]
 492 01a2 0022     		movs	r2, #0
 493 01a4 5A60     		str	r2, [r3, #4]
 494 01a6 059B     		ldr	r3, [sp, #20]
 495 01a8 0393     		str	r3, [sp, #12]
 496              	.LBB102:
 497              	.LBB103:
 498              		.loc 2 497 0
 499 01aa 039B     		ldr	r3, [sp, #12]
 500              	@ 497 "../../../../../../ChibiOS/os/ext/CMSIS/include/core_cmFunc.h" 1
 501 01ac 83F31088 		MSR primask, r3
 502              	@ 0 "" 2
 503              		.thumb
 504              	.LBE103:
 505              	.LBE102:
 506              		.loc 1 134 0
 507 01b0 07B0     		add	sp, sp, #28
 508              		@ sp needed
ARM GAS  /tmp/ccxJ1I9Y.s 			page 10


 509 01b2 5DF804FB 		ldr	pc, [sp], #4
 510              		.cfi_endproc
 511              	.LFE131:
 512              		.size	list_remove_tail, .-list_remove_tail
 513 01b6 00BF     		.align	2
 514 01b8 AFF30080 		.p2align 4,,15
 514      AFF30080 
 515              		.global	list_insert_node_after
 516              		.thumb
 517              		.thumb_func
 518              		.type	list_insert_node_after, %function
 519              	list_insert_node_after:
 520              	.LFB132:
 521              		.loc 1 137 0
 522              		.cfi_startproc
 523              		@ args = 0, pretend = 0, frame = 24
 524              		@ frame_needed = 0, uses_anonymous_args = 0
 525              		@ link register save eliminated.
 526 01c0 86B0     		sub	sp, sp, #24
 527              		.cfi_def_cfa_offset 24
 528 01c2 0190     		str	r0, [sp, #4]
 529 01c4 0091     		str	r1, [sp]
 530              	.LBB104:
 531              	.LBB105:
 532              		.loc 2 484 0
 533              	@ 484 "../../../../../../ChibiOS/os/ext/CMSIS/include/core_cmFunc.h" 1
 534 01c6 EFF31083 		MRS r3, primask
 535              	@ 0 "" 2
 536              		.thumb
 537 01ca 0493     		str	r3, [sp, #16]
 538              		.loc 2 485 0
 539 01cc 049B     		ldr	r3, [sp, #16]
 540              	.LBE105:
 541              	.LBE104:
 542              		.loc 1 140 0
 543 01ce 0593     		str	r3, [sp, #20]
 544              	.LBB106:
 545              	.LBB107:
 546              		.loc 2 344 0
 547              	@ 344 "../../../../../../ChibiOS/os/ext/CMSIS/include/core_cmFunc.h" 1
 548 01d0 72B6     		cpsid i
 549              	@ 0 "" 2
 550              		.thumb
 551              	.LBE107:
 552              	.LBE106:
 553              		.loc 1 143 0
 554 01d2 009B     		ldr	r3, [sp]
 555 01d4 1A68     		ldr	r2, [r3]
 556 01d6 019B     		ldr	r3, [sp, #4]
 557 01d8 1A60     		str	r2, [r3]
 558              		.loc 1 144 0
 559 01da 019B     		ldr	r3, [sp, #4]
 560 01dc 009A     		ldr	r2, [sp]
 561 01de 5A60     		str	r2, [r3, #4]
 562              		.loc 1 145 0
 563 01e0 009B     		ldr	r3, [sp]
 564 01e2 019A     		ldr	r2, [sp, #4]
ARM GAS  /tmp/ccxJ1I9Y.s 			page 11


 565 01e4 1A60     		str	r2, [r3]
 566              		.loc 1 146 0
 567 01e6 019B     		ldr	r3, [sp, #4]
 568 01e8 1B68     		ldr	r3, [r3]
 569 01ea 019A     		ldr	r2, [sp, #4]
 570 01ec 5A60     		str	r2, [r3, #4]
 571 01ee 059B     		ldr	r3, [sp, #20]
 572 01f0 0393     		str	r3, [sp, #12]
 573              	.LBB108:
 574              	.LBB109:
 575              		.loc 2 497 0
 576 01f2 039B     		ldr	r3, [sp, #12]
 577              	@ 497 "../../../../../../ChibiOS/os/ext/CMSIS/include/core_cmFunc.h" 1
 578 01f4 83F31088 		MSR primask, r3
 579              	@ 0 "" 2
 580              		.thumb
 581              	.LBE109:
 582              	.LBE108:
 583              		.loc 1 149 0
 584 01f8 06B0     		add	sp, sp, #24
 585              		@ sp needed
 586 01fa 7047     		bx	lr
 587              		.cfi_endproc
 588              	.LFE132:
 589              		.size	list_insert_node_after, .-list_insert_node_after
 590              		.align	2
 591 01fc AFF30080 		.p2align 4,,15
 592              		.global	list_insert_node_before
 593              		.thumb
 594              		.thumb_func
 595              		.type	list_insert_node_before, %function
 596              	list_insert_node_before:
 597              	.LFB133:
 598              		.loc 1 152 0
 599              		.cfi_startproc
 600              		@ args = 0, pretend = 0, frame = 24
 601              		@ frame_needed = 0, uses_anonymous_args = 0
 602              		@ link register save eliminated.
 603 0200 86B0     		sub	sp, sp, #24
 604              		.cfi_def_cfa_offset 24
 605 0202 0190     		str	r0, [sp, #4]
 606 0204 0091     		str	r1, [sp]
 607              	.LBB110:
 608              	.LBB111:
 609              		.loc 2 484 0
 610              	@ 484 "../../../../../../ChibiOS/os/ext/CMSIS/include/core_cmFunc.h" 1
 611 0206 EFF31083 		MRS r3, primask
 612              	@ 0 "" 2
 613              		.thumb
 614 020a 0493     		str	r3, [sp, #16]
 615              		.loc 2 485 0
 616 020c 049B     		ldr	r3, [sp, #16]
 617              	.LBE111:
 618              	.LBE110:
 619              		.loc 1 155 0
 620 020e 0593     		str	r3, [sp, #20]
 621              	.LBB112:
ARM GAS  /tmp/ccxJ1I9Y.s 			page 12


 622              	.LBB113:
 623              		.loc 2 344 0
 624              	@ 344 "../../../../../../ChibiOS/os/ext/CMSIS/include/core_cmFunc.h" 1
 625 0210 72B6     		cpsid i
 626              	@ 0 "" 2
 627              		.thumb
 628              	.LBE113:
 629              	.LBE112:
 630              		.loc 1 158 0
 631 0212 019B     		ldr	r3, [sp, #4]
 632 0214 009A     		ldr	r2, [sp]
 633 0216 1A60     		str	r2, [r3]
 634              		.loc 1 159 0
 635 0218 009B     		ldr	r3, [sp]
 636 021a 5A68     		ldr	r2, [r3, #4]
 637 021c 019B     		ldr	r3, [sp, #4]
 638 021e 5A60     		str	r2, [r3, #4]
 639              		.loc 1 160 0
 640 0220 009B     		ldr	r3, [sp]
 641 0222 019A     		ldr	r2, [sp, #4]
 642 0224 5A60     		str	r2, [r3, #4]
 643              		.loc 1 161 0
 644 0226 019B     		ldr	r3, [sp, #4]
 645 0228 5B68     		ldr	r3, [r3, #4]
 646 022a 019A     		ldr	r2, [sp, #4]
 647 022c 1A60     		str	r2, [r3]
 648 022e 059B     		ldr	r3, [sp, #20]
 649 0230 0393     		str	r3, [sp, #12]
 650              	.LBB114:
 651              	.LBB115:
 652              		.loc 2 497 0
 653 0232 039B     		ldr	r3, [sp, #12]
 654              	@ 497 "../../../../../../ChibiOS/os/ext/CMSIS/include/core_cmFunc.h" 1
 655 0234 83F31088 		MSR primask, r3
 656              	@ 0 "" 2
 657              		.thumb
 658              	.LBE115:
 659              	.LBE114:
 660              		.loc 1 164 0
 661 0238 06B0     		add	sp, sp, #24
 662              		@ sp needed
 663 023a 7047     		bx	lr
 664              		.cfi_endproc
 665              	.LFE133:
 666              		.size	list_insert_node_before, .-list_insert_node_before
 667              		.align	2
 668 023c AFF30080 		.p2align 4,,15
 669              		.global	list_get_size
 670              		.thumb
 671              		.thumb_func
 672              		.type	list_get_size, %function
 673              	list_get_size:
 674              	.LFB134:
 675              		.loc 1 167 0
 676              		.cfi_startproc
 677              		@ args = 0, pretend = 0, frame = 32
 678              		@ frame_needed = 0, uses_anonymous_args = 0
ARM GAS  /tmp/ccxJ1I9Y.s 			page 13


 679              		@ link register save eliminated.
 680 0240 88B0     		sub	sp, sp, #32
 681              		.cfi_def_cfa_offset 32
 682 0242 0190     		str	r0, [sp, #4]
 683              		.loc 1 168 0
 684 0244 0023     		movs	r3, #0
 685 0246 0793     		str	r3, [sp, #28]
 686              	.LBB116:
 687              	.LBB117:
 688              		.loc 2 484 0
 689              	@ 484 "../../../../../../ChibiOS/os/ext/CMSIS/include/core_cmFunc.h" 1
 690 0248 EFF31083 		MRS r3, primask
 691              	@ 0 "" 2
 692              		.thumb
 693 024c 0493     		str	r3, [sp, #16]
 694              		.loc 2 485 0
 695 024e 049B     		ldr	r3, [sp, #16]
 696              	.LBE117:
 697              	.LBE116:
 698              		.loc 1 172 0
 699 0250 0593     		str	r3, [sp, #20]
 700              	.LBB118:
 701              	.LBB119:
 702              		.loc 2 344 0
 703              	@ 344 "../../../../../../ChibiOS/os/ext/CMSIS/include/core_cmFunc.h" 1
 704 0252 72B6     		cpsid i
 705              	@ 0 "" 2
 706              		.thumb
 707              	.LBE119:
 708              	.LBE118:
 709              		.loc 1 175 0
 710 0254 019B     		ldr	r3, [sp, #4]
 711 0256 1B68     		ldr	r3, [r3]
 712 0258 0693     		str	r3, [sp, #24]
 713              		.loc 1 176 0
 714 025a 05E0     		b	.L23
 715              	.L24:
 716              		.loc 1 178 0
 717 025c 079B     		ldr	r3, [sp, #28]
 718 025e 0133     		adds	r3, r3, #1
 719 0260 0793     		str	r3, [sp, #28]
 720              		.loc 1 179 0
 721 0262 069B     		ldr	r3, [sp, #24]
 722 0264 1B68     		ldr	r3, [r3]
 723 0266 0693     		str	r3, [sp, #24]
 724              	.L23:
 725              		.loc 1 176 0 discriminator 1
 726 0268 069A     		ldr	r2, [sp, #24]
 727 026a 019B     		ldr	r3, [sp, #4]
 728 026c 9A42     		cmp	r2, r3
 729 026e F5D1     		bne	.L24
 730 0270 059B     		ldr	r3, [sp, #20]
 731 0272 0393     		str	r3, [sp, #12]
 732              	.LBB120:
 733              	.LBB121:
 734              		.loc 2 497 0
 735 0274 039B     		ldr	r3, [sp, #12]
ARM GAS  /tmp/ccxJ1I9Y.s 			page 14


 736              	@ 497 "../../../../../../ChibiOS/os/ext/CMSIS/include/core_cmFunc.h" 1
 737 0276 83F31088 		MSR primask, r3
 738              	@ 0 "" 2
 739              		.thumb
 740              	.LBE121:
 741              	.LBE120:
 742              		.loc 1 183 0
 743 027a 079B     		ldr	r3, [sp, #28]
 744              		.loc 1 184 0
 745 027c 1846     		mov	r0, r3
 746 027e 08B0     		add	sp, sp, #32
 747              		@ sp needed
 748 0280 7047     		bx	lr
 749              		.cfi_endproc
 750              	.LFE134:
 751              		.size	list_get_size, .-list_get_size
 752 0282 00BF     		.align	2
 753 0284 AFF30080 		.p2align 4,,15
 753      AFF30080 
 753      AFF30080 
 754              		.global	list_get_next_node
 755              		.thumb
 756              		.thumb_func
 757              		.type	list_get_next_node, %function
 758              	list_get_next_node:
 759              	.LFB135:
 760              		.loc 1 187 0
 761              		.cfi_startproc
 762              		@ args = 0, pretend = 0, frame = 24
 763              		@ frame_needed = 0, uses_anonymous_args = 0
 764              		@ link register save eliminated.
 765 0290 86B0     		sub	sp, sp, #24
 766              		.cfi_def_cfa_offset 24
 767 0292 0190     		str	r0, [sp, #4]
 768 0294 0091     		str	r1, [sp]
 769              	.LBB122:
 770              	.LBB123:
 771              		.loc 2 484 0
 772              	@ 484 "../../../../../../ChibiOS/os/ext/CMSIS/include/core_cmFunc.h" 1
 773 0296 EFF31083 		MRS r3, primask
 774              	@ 0 "" 2
 775              		.thumb
 776 029a 0493     		str	r3, [sp, #16]
 777              		.loc 2 485 0
 778 029c 049B     		ldr	r3, [sp, #16]
 779              	.LBE123:
 780              	.LBE122:
 781              		.loc 1 190 0
 782 029e 0593     		str	r3, [sp, #20]
 783              	.LBB124:
 784              	.LBB125:
 785              		.loc 2 344 0
 786              	@ 344 "../../../../../../ChibiOS/os/ext/CMSIS/include/core_cmFunc.h" 1
 787 02a0 72B6     		cpsid i
 788              	@ 0 "" 2
 789              		.thumb
 790              	.LBE125:
ARM GAS  /tmp/ccxJ1I9Y.s 			page 15


 791              	.LBE124:
 792              		.loc 1 193 0
 793 02a2 019B     		ldr	r3, [sp, #4]
 794 02a4 1A68     		ldr	r2, [r3]
 795 02a6 009B     		ldr	r3, [sp]
 796 02a8 1A60     		str	r2, [r3]
 797 02aa 059B     		ldr	r3, [sp, #20]
 798 02ac 0393     		str	r3, [sp, #12]
 799              	.LBB126:
 800              	.LBB127:
 801              		.loc 2 497 0
 802 02ae 039B     		ldr	r3, [sp, #12]
 803              	@ 497 "../../../../../../ChibiOS/os/ext/CMSIS/include/core_cmFunc.h" 1
 804 02b0 83F31088 		MSR primask, r3
 805              	@ 0 "" 2
 806              		.thumb
 807              	.LBE127:
 808              	.LBE126:
 809              		.loc 1 196 0
 810 02b4 06B0     		add	sp, sp, #24
 811              		@ sp needed
 812 02b6 7047     		bx	lr
 813              		.cfi_endproc
 814              	.LFE135:
 815              		.size	list_get_next_node, .-list_get_next_node
 816              		.align	2
 817 02b8 AFF30080 		.p2align 4,,15
 817      AFF30080 
 818              		.global	list_get_prev_node
 819              		.thumb
 820              		.thumb_func
 821              		.type	list_get_prev_node, %function
 822              	list_get_prev_node:
 823              	.LFB136:
 824              		.loc 1 199 0
 825              		.cfi_startproc
 826              		@ args = 0, pretend = 0, frame = 24
 827              		@ frame_needed = 0, uses_anonymous_args = 0
 828              		@ link register save eliminated.
 829 02c0 86B0     		sub	sp, sp, #24
 830              		.cfi_def_cfa_offset 24
 831 02c2 0190     		str	r0, [sp, #4]
 832 02c4 0091     		str	r1, [sp]
 833              	.LBB128:
 834              	.LBB129:
 835              		.loc 2 484 0
 836              	@ 484 "../../../../../../ChibiOS/os/ext/CMSIS/include/core_cmFunc.h" 1
 837 02c6 EFF31083 		MRS r3, primask
 838              	@ 0 "" 2
 839              		.thumb
 840 02ca 0493     		str	r3, [sp, #16]
 841              		.loc 2 485 0
 842 02cc 049B     		ldr	r3, [sp, #16]
 843              	.LBE129:
 844              	.LBE128:
 845              		.loc 1 202 0
 846 02ce 0593     		str	r3, [sp, #20]
ARM GAS  /tmp/ccxJ1I9Y.s 			page 16


 847              	.LBB130:
 848              	.LBB131:
 849              		.loc 2 344 0
 850              	@ 344 "../../../../../../ChibiOS/os/ext/CMSIS/include/core_cmFunc.h" 1
 851 02d0 72B6     		cpsid i
 852              	@ 0 "" 2
 853              		.thumb
 854              	.LBE131:
 855              	.LBE130:
 856              		.loc 1 205 0
 857 02d2 019B     		ldr	r3, [sp, #4]
 858 02d4 5A68     		ldr	r2, [r3, #4]
 859 02d6 009B     		ldr	r3, [sp]
 860 02d8 1A60     		str	r2, [r3]
 861 02da 059B     		ldr	r3, [sp, #20]
 862 02dc 0393     		str	r3, [sp, #12]
 863              	.LBB132:
 864              	.LBB133:
 865              		.loc 2 497 0
 866 02de 039B     		ldr	r3, [sp, #12]
 867              	@ 497 "../../../../../../ChibiOS/os/ext/CMSIS/include/core_cmFunc.h" 1
 868 02e0 83F31088 		MSR primask, r3
 869              	@ 0 "" 2
 870              		.thumb
 871              	.LBE133:
 872              	.LBE132:
 873              		.loc 1 208 0
 874 02e4 06B0     		add	sp, sp, #24
 875              		@ sp needed
 876 02e6 7047     		bx	lr
 877              		.cfi_endproc
 878              	.LFE136:
 879              		.size	list_get_prev_node, .-list_get_prev_node
 880              	.Letext0:
 881              		.file 3 "/nfs/nfs5/home/research/hardware/arm2/gcc-arm-embedded/gcc-arm-none-eabi-4_8-2014q2/arm-n
 882              		.file 4 "/nfs/nfs5/home/research/hardware/arm2/gcc-arm-embedded/gcc-arm-none-eabi-4_8-2014q2/arm-n
 883              		.file 5 "../../../../../Middlewares/ST/STM32_BlueNRG/SimpleBlueNRG_HCI/includes/ble_list.h"
 884              		.file 6 "../../../../../../ChibiOS/os/ext/CMSIS/include/core_cm4.h"