ARM GAS  /tmp/ccbCgXmb.s 			page 1


   1              		.syntax unified
   2              		.cpu cortex-m4
   3              		.fpu softvfp
   4              		.eabi_attribute 20, 1
   5              		.eabi_attribute 21, 1
   6              		.eabi_attribute 23, 3
   7              		.eabi_attribute 24, 1
   8              		.eabi_attribute 25, 1
   9              		.eabi_attribute 26, 1
  10              		.eabi_attribute 30, 6
  11              		.eabi_attribute 34, 1
  12              		.eabi_attribute 18, 4
  13              		.thumb
  14              		.file	"bluenrg_hal_aci.c"
  15              		.text
  16              	.Ltext0:
  17              		.cfi_sections	.debug_frame
  18              		.align	2
  19              		.p2align 4,,15
  20              		.global	aci_hal_get_fw_build_number
  21              		.thumb
  22              		.thumb_func
  23              		.type	aci_hal_get_fw_build_number, %function
  24              	aci_hal_get_fw_build_number:
  25              	.LFB269:
  26              		.file 1 "../../../../../Middlewares/ST/STM32_BlueNRG/SimpleBlueNRG_HCI/hci/controller/bluenrg_hal_
  27              		.loc 1 31 0
  28              		.cfi_startproc
  29              		@ args = 0, pretend = 0, frame = 40
  30              		@ frame_needed = 0, uses_anonymous_args = 0
  31 0000 00B5     		push	{lr}
  32              		.cfi_def_cfa_offset 4
  33              		.cfi_offset 14, -4
  34 0002 8BB0     		sub	sp, sp, #44
  35              		.cfi_def_cfa_offset 48
  36 0004 0190     		str	r0, [sp, #4]
  37              		.loc 1 35 0
  38 0006 04AB     		add	r3, sp, #16
  39 0008 1846     		mov	r0, r3
  40 000a 0021     		movs	r1, #0
  41 000c 1822     		movs	r2, #24
  42 000e FFF7FEFF 		bl	Osal_MemSet
  43              		.loc 1 36 0
  44 0012 3F23     		movs	r3, #63
  45 0014 ADF81030 		strh	r3, [sp, #16]	@ movhi
  46              		.loc 1 37 0
  47 0018 0023     		movs	r3, #0
  48 001a ADF81230 		strh	r3, [sp, #18]	@ movhi
  49              		.loc 1 38 0
  50 001e 03AB     		add	r3, sp, #12
  51 0020 0893     		str	r3, [sp, #32]
  52              		.loc 1 39 0
  53 0022 0323     		movs	r3, #3
  54 0024 0993     		str	r3, [sp, #36]
  55              		.loc 1 41 0
  56 0026 04AB     		add	r3, sp, #16
  57 0028 1846     		mov	r0, r3
ARM GAS  /tmp/ccbCgXmb.s 			page 2


  58 002a 0021     		movs	r1, #0
  59 002c FFF7FEFF 		bl	hci_send_req
  60 0030 0346     		mov	r3, r0
  61 0032 002B     		cmp	r3, #0
  62 0034 01DA     		bge	.L2
  63              		.loc 1 42 0
  64 0036 FF23     		movs	r3, #255
  65 0038 0CE0     		b	.L5
  66              	.L2:
  67              		.loc 1 44 0
  68 003a 9DF80C30 		ldrb	r3, [sp, #12]	@ zero_extendqisi2
  69 003e 002B     		cmp	r3, #0
  70 0040 02D0     		beq	.L4
  71              		.loc 1 45 0
  72 0042 9DF80C30 		ldrb	r3, [sp, #12]	@ zero_extendqisi2
  73 0046 05E0     		b	.L5
  74              	.L4:
  75              		.loc 1 47 0
  76 0048 BDF80D30 		ldrh	r3, [sp, #13]	@ unaligned
  77 004c 9AB2     		uxth	r2, r3
  78 004e 019B     		ldr	r3, [sp, #4]
  79 0050 1A80     		strh	r2, [r3]	@ movhi
  80              		.loc 1 49 0
  81 0052 0023     		movs	r3, #0
  82              	.L5:
  83              		.loc 1 50 0
  84 0054 1846     		mov	r0, r3
  85 0056 0BB0     		add	sp, sp, #44
  86              		@ sp needed
  87 0058 5DF804FB 		ldr	pc, [sp], #4
  88              		.cfi_endproc
  89              	.LFE269:
  90              		.size	aci_hal_get_fw_build_number, .-aci_hal_get_fw_build_number
  91              		.align	2
  92 005c AFF30080 		.p2align 4,,15
  93              		.global	aci_hal_write_config_data
  94              		.thumb
  95              		.thumb_func
  96              		.type	aci_hal_write_config_data, %function
  97              	aci_hal_write_config_data:
  98              	.LFB270:
  99              		.loc 1 55 0
 100              		.cfi_startproc
 101              		@ args = 0, pretend = 0, frame = 168
 102              		@ frame_needed = 0, uses_anonymous_args = 0
 103 0060 00B5     		push	{lr}
 104              		.cfi_def_cfa_offset 4
 105              		.cfi_offset 14, -4
 106 0062 ABB0     		sub	sp, sp, #172
 107              		.cfi_def_cfa_offset 176
 108 0064 0B46     		mov	r3, r1
 109 0066 0092     		str	r2, [sp]
 110 0068 0246     		mov	r2, r0
 111 006a 8DF80720 		strb	r2, [sp, #7]
 112 006e 8DF80630 		strb	r3, [sp, #6]
 113              		.loc 1 59 0
 114 0072 0023     		movs	r3, #0
ARM GAS  /tmp/ccbCgXmb.s 			page 3


 115 0074 8DF8A730 		strb	r3, [sp, #167]
 116              		.loc 1 61 0
 117 0078 9DF80630 		ldrb	r3, [sp, #6]	@ zero_extendqisi2
 118 007c 0233     		adds	r3, r3, #2
 119 007e 802B     		cmp	r3, #128
 120 0080 01DD     		ble	.L7
 121              		.loc 1 62 0
 122 0082 4223     		movs	r3, #66
 123 0084 4DE0     		b	.L10
 124              	.L7:
 125              		.loc 1 64 0
 126 0086 9DF8A730 		ldrb	r3, [sp, #167]	@ zero_extendqisi2
 127 008a 2AAA     		add	r2, sp, #168
 128 008c 1344     		add	r3, r3, r2
 129 008e 9DF80720 		ldrb	r2, [sp, #7]
 130 0092 03F8A02C 		strb	r2, [r3, #-160]
 131              		.loc 1 65 0
 132 0096 9DF8A730 		ldrb	r3, [sp, #167]	@ zero_extendqisi2
 133 009a 0133     		adds	r3, r3, #1
 134 009c 8DF8A730 		strb	r3, [sp, #167]
 135              		.loc 1 67 0
 136 00a0 9DF8A730 		ldrb	r3, [sp, #167]	@ zero_extendqisi2
 137 00a4 2AAA     		add	r2, sp, #168
 138 00a6 1344     		add	r3, r3, r2
 139 00a8 9DF80620 		ldrb	r2, [sp, #6]
 140 00ac 03F8A02C 		strb	r2, [r3, #-160]
 141              		.loc 1 68 0
 142 00b0 9DF8A730 		ldrb	r3, [sp, #167]	@ zero_extendqisi2
 143 00b4 0133     		adds	r3, r3, #1
 144 00b6 8DF8A730 		strb	r3, [sp, #167]
 145              		.loc 1 70 0
 146 00ba 9DF8A730 		ldrb	r3, [sp, #167]	@ zero_extendqisi2
 147 00be 02AA     		add	r2, sp, #8
 148 00c0 1A44     		add	r2, r2, r3
 149 00c2 9DF80630 		ldrb	r3, [sp, #6]	@ zero_extendqisi2
 150 00c6 1046     		mov	r0, r2
 151 00c8 0099     		ldr	r1, [sp]
 152 00ca 1A46     		mov	r2, r3
 153 00cc FFF7FEFF 		bl	Osal_MemCpy
 154              		.loc 1 71 0
 155 00d0 9DF8A720 		ldrb	r2, [sp, #167]
 156 00d4 9DF80630 		ldrb	r3, [sp, #6]
 157 00d8 1344     		add	r3, r3, r2
 158 00da 8DF8A730 		strb	r3, [sp, #167]
 159              		.loc 1 73 0
 160 00de 23AB     		add	r3, sp, #140
 161 00e0 1846     		mov	r0, r3
 162 00e2 0021     		movs	r1, #0
 163 00e4 1822     		movs	r2, #24
 164 00e6 FFF7FEFF 		bl	Osal_MemSet
 165              		.loc 1 74 0
 166 00ea 3F23     		movs	r3, #63
 167 00ec ADF88C30 		strh	r3, [sp, #140]	@ movhi
 168              		.loc 1 75 0
 169 00f0 0C23     		movs	r3, #12
 170 00f2 ADF88E30 		strh	r3, [sp, #142]	@ movhi
 171              		.loc 1 76 0
ARM GAS  /tmp/ccbCgXmb.s 			page 4


 172 00f6 02AB     		add	r3, sp, #8
 173 00f8 2593     		str	r3, [sp, #148]
 174              		.loc 1 77 0
 175 00fa 9DF8A730 		ldrb	r3, [sp, #167]	@ zero_extendqisi2
 176 00fe 2693     		str	r3, [sp, #152]
 177              		.loc 1 78 0
 178 0100 0DF18B03 		add	r3, sp, #139
 179 0104 2793     		str	r3, [sp, #156]
 180              		.loc 1 79 0
 181 0106 0123     		movs	r3, #1
 182 0108 2893     		str	r3, [sp, #160]
 183              		.loc 1 81 0
 184 010a 23AB     		add	r3, sp, #140
 185 010c 1846     		mov	r0, r3
 186 010e 0021     		movs	r1, #0
 187 0110 FFF7FEFF 		bl	hci_send_req
 188 0114 0346     		mov	r3, r0
 189 0116 002B     		cmp	r3, #0
 190 0118 01DA     		bge	.L9
 191              		.loc 1 82 0
 192 011a FF23     		movs	r3, #255
 193 011c 01E0     		b	.L10
 194              	.L9:
 195              		.loc 1 84 0
 196 011e 9DF88B30 		ldrb	r3, [sp, #139]	@ zero_extendqisi2
 197              	.L10:
 198              		.loc 1 85 0
 199 0122 1846     		mov	r0, r3
 200 0124 2BB0     		add	sp, sp, #172
 201              		@ sp needed
 202 0126 5DF804FB 		ldr	pc, [sp], #4
 203              		.cfi_endproc
 204              	.LFE270:
 205              		.size	aci_hal_write_config_data, .-aci_hal_write_config_data
 206 012a 00BF     		.align	2
 207 012c AFF30080 		.p2align 4,,15
 208              		.global	aci_hal_read_config_data
 209              		.thumb
 210              		.thumb_func
 211              		.type	aci_hal_read_config_data, %function
 212              	aci_hal_read_config_data:
 213              	.LFB271:
 214              		.loc 1 88 0
 215              		.cfi_startproc
 216              		@ args = 0, pretend = 0, frame = 176
 217              		@ frame_needed = 0, uses_anonymous_args = 0
 218 0130 00B5     		push	{lr}
 219              		.cfi_def_cfa_offset 4
 220              		.cfi_offset 14, -4
 221 0132 ADB0     		sub	sp, sp, #180
 222              		.cfi_def_cfa_offset 184
 223 0134 0292     		str	r2, [sp, #8]
 224 0136 0193     		str	r3, [sp, #4]
 225 0138 0346     		mov	r3, r0
 226 013a 8DF80F30 		strb	r3, [sp, #15]
 227 013e 0B46     		mov	r3, r1	@ movhi
 228 0140 ADF80C30 		strh	r3, [sp, #12]	@ movhi
ARM GAS  /tmp/ccbCgXmb.s 			page 5


 229              		.loc 1 93 0
 230 0144 9DF80F30 		ldrb	r3, [sp, #15]
 231 0148 8DF89430 		strb	r3, [sp, #148]
 232              		.loc 1 95 0
 233 014c 26AB     		add	r3, sp, #152
 234 014e 1846     		mov	r0, r3
 235 0150 0021     		movs	r1, #0
 236 0152 1822     		movs	r2, #24
 237 0154 FFF7FEFF 		bl	Osal_MemSet
 238              		.loc 1 96 0
 239 0158 3F23     		movs	r3, #63
 240 015a ADF89830 		strh	r3, [sp, #152]	@ movhi
 241              		.loc 1 97 0
 242 015e 0D23     		movs	r3, #13
 243 0160 ADF89A30 		strh	r3, [sp, #154]	@ movhi
 244              		.loc 1 98 0
 245 0164 25AB     		add	r3, sp, #148
 246 0166 2893     		str	r3, [sp, #160]
 247              		.loc 1 99 0
 248 0168 0123     		movs	r3, #1
 249 016a 2993     		str	r3, [sp, #164]
 250              		.loc 1 100 0
 251 016c 05AB     		add	r3, sp, #20
 252 016e 2A93     		str	r3, [sp, #168]
 253              		.loc 1 101 0
 254 0170 8023     		movs	r3, #128
 255 0172 2B93     		str	r3, [sp, #172]
 256              		.loc 1 103 0
 257 0174 26AB     		add	r3, sp, #152
 258 0176 1846     		mov	r0, r3
 259 0178 0021     		movs	r1, #0
 260 017a FFF7FEFF 		bl	hci_send_req
 261 017e 0346     		mov	r3, r0
 262 0180 002B     		cmp	r3, #0
 263 0182 01DA     		bge	.L12
 264              		.loc 1 104 0
 265 0184 FF23     		movs	r3, #255
 266 0186 1DE0     		b	.L15
 267              	.L12:
 268              		.loc 1 106 0
 269 0188 9DF81430 		ldrb	r3, [sp, #20]	@ zero_extendqisi2
 270 018c 002B     		cmp	r3, #0
 271 018e 02D0     		beq	.L14
 272              		.loc 1 107 0
 273 0190 9DF81430 		ldrb	r3, [sp, #20]	@ zero_extendqisi2
 274 0194 16E0     		b	.L15
 275              	.L14:
 276              		.loc 1 109 0
 277 0196 2B9B     		ldr	r3, [sp, #172]
 278 0198 DBB2     		uxtb	r3, r3
 279 019a 013B     		subs	r3, r3, #1
 280 019c DAB2     		uxtb	r2, r3
 281 019e 029B     		ldr	r3, [sp, #8]
 282 01a0 1A70     		strb	r2, [r3]
 283              		.loc 1 111 0
 284 01a2 029B     		ldr	r3, [sp, #8]
 285 01a4 1B78     		ldrb	r3, [r3]	@ zero_extendqisi2
ARM GAS  /tmp/ccbCgXmb.s 			page 6


 286 01a6 1A46     		mov	r2, r3
 287 01a8 BDF80C30 		ldrh	r3, [sp, #12]
 288 01ac 9A42     		cmp	r2, r3
 289 01ae 38BF     		it	cc
 290 01b0 1346     		movcc	r3, r2
 291 01b2 9BB2     		uxth	r3, r3
 292 01b4 05AA     		add	r2, sp, #20
 293 01b6 0132     		adds	r2, r2, #1
 294 01b8 0198     		ldr	r0, [sp, #4]
 295 01ba 1146     		mov	r1, r2
 296 01bc 1A46     		mov	r2, r3
 297 01be FFF7FEFF 		bl	Osal_MemCpy
 298              		.loc 1 113 0
 299 01c2 0023     		movs	r3, #0
 300              	.L15:
 301              		.loc 1 114 0
 302 01c4 1846     		mov	r0, r3
 303 01c6 2DB0     		add	sp, sp, #180
 304              		@ sp needed
 305 01c8 5DF804FB 		ldr	pc, [sp], #4
 306              		.cfi_endproc
 307              	.LFE271:
 308              		.size	aci_hal_read_config_data, .-aci_hal_read_config_data
 309              		.align	2
 310 01cc AFF30080 		.p2align 4,,15
 311              		.global	aci_hal_set_tx_power_level
 312              		.thumb
 313              		.thumb_func
 314              		.type	aci_hal_set_tx_power_level, %function
 315              	aci_hal_set_tx_power_level:
 316              	.LFB272:
 317              		.loc 1 117 0
 318              		.cfi_startproc
 319              		@ args = 0, pretend = 0, frame = 40
 320              		@ frame_needed = 0, uses_anonymous_args = 0
 321 01d0 00B5     		push	{lr}
 322              		.cfi_def_cfa_offset 4
 323              		.cfi_offset 14, -4
 324 01d2 8BB0     		sub	sp, sp, #44
 325              		.cfi_def_cfa_offset 48
 326 01d4 0246     		mov	r2, r0
 327 01d6 0B46     		mov	r3, r1
 328 01d8 8DF80720 		strb	r2, [sp, #7]
 329 01dc 8DF80630 		strb	r3, [sp, #6]
 330              		.loc 1 122 0
 331 01e0 9DF80730 		ldrb	r3, [sp, #7]
 332 01e4 8DF80C30 		strb	r3, [sp, #12]
 333              		.loc 1 123 0
 334 01e8 9DF80630 		ldrb	r3, [sp, #6]
 335 01ec 8DF80D30 		strb	r3, [sp, #13]
 336              		.loc 1 125 0
 337 01f0 04AB     		add	r3, sp, #16
 338 01f2 1846     		mov	r0, r3
 339 01f4 0021     		movs	r1, #0
 340 01f6 1822     		movs	r2, #24
 341 01f8 FFF7FEFF 		bl	Osal_MemSet
 342              		.loc 1 126 0
ARM GAS  /tmp/ccbCgXmb.s 			page 7


 343 01fc 3F23     		movs	r3, #63
 344 01fe ADF81030 		strh	r3, [sp, #16]	@ movhi
 345              		.loc 1 127 0
 346 0202 0F23     		movs	r3, #15
 347 0204 ADF81230 		strh	r3, [sp, #18]	@ movhi
 348              		.loc 1 128 0
 349 0208 03AB     		add	r3, sp, #12
 350 020a 0693     		str	r3, [sp, #24]
 351              		.loc 1 129 0
 352 020c 0223     		movs	r3, #2
 353 020e 0793     		str	r3, [sp, #28]
 354              		.loc 1 130 0
 355 0210 0DF10B03 		add	r3, sp, #11
 356 0214 0893     		str	r3, [sp, #32]
 357              		.loc 1 131 0
 358 0216 0123     		movs	r3, #1
 359 0218 0993     		str	r3, [sp, #36]
 360              		.loc 1 133 0
 361 021a 04AB     		add	r3, sp, #16
 362 021c 1846     		mov	r0, r3
 363 021e 0021     		movs	r1, #0
 364 0220 FFF7FEFF 		bl	hci_send_req
 365 0224 0346     		mov	r3, r0
 366 0226 002B     		cmp	r3, #0
 367 0228 01DA     		bge	.L17
 368              		.loc 1 134 0
 369 022a FF23     		movs	r3, #255
 370 022c 01E0     		b	.L19
 371              	.L17:
 372              		.loc 1 136 0
 373 022e 9DF80B30 		ldrb	r3, [sp, #11]	@ zero_extendqisi2
 374              	.L19:
 375              		.loc 1 137 0
 376 0232 1846     		mov	r0, r3
 377 0234 0BB0     		add	sp, sp, #44
 378              		@ sp needed
 379 0236 5DF804FB 		ldr	pc, [sp], #4
 380              		.cfi_endproc
 381              	.LFE272:
 382              		.size	aci_hal_set_tx_power_level, .-aci_hal_set_tx_power_level
 383 023a 00BF     		.align	2
 384 023c AFF30080 		.p2align 4,,15
 385              		.global	aci_hal_le_tx_test_packet_number
 386              		.thumb
 387              		.thumb_func
 388              		.type	aci_hal_le_tx_test_packet_number, %function
 389              	aci_hal_le_tx_test_packet_number:
 390              	.LFB273:
 391              		.loc 1 140 0
 392              		.cfi_startproc
 393              		@ args = 0, pretend = 0, frame = 40
 394              		@ frame_needed = 0, uses_anonymous_args = 0
 395 0240 00B5     		push	{lr}
 396              		.cfi_def_cfa_offset 4
 397              		.cfi_offset 14, -4
 398 0242 8BB0     		sub	sp, sp, #44
 399              		.cfi_def_cfa_offset 48
ARM GAS  /tmp/ccbCgXmb.s 			page 8


 400 0244 0190     		str	r0, [sp, #4]
 401              		.loc 1 144 0
 402 0246 04AB     		add	r3, sp, #16
 403 0248 1846     		mov	r0, r3
 404 024a 0021     		movs	r1, #0
 405 024c 1822     		movs	r2, #24
 406 024e FFF7FEFF 		bl	Osal_MemSet
 407              		.loc 1 145 0
 408 0252 3F23     		movs	r3, #63
 409 0254 ADF81030 		strh	r3, [sp, #16]	@ movhi
 410              		.loc 1 146 0
 411 0258 1423     		movs	r3, #20
 412 025a ADF81230 		strh	r3, [sp, #18]	@ movhi
 413              		.loc 1 147 0
 414 025e 02AB     		add	r3, sp, #8
 415 0260 0893     		str	r3, [sp, #32]
 416              		.loc 1 148 0
 417 0262 0523     		movs	r3, #5
 418 0264 0993     		str	r3, [sp, #36]
 419              		.loc 1 150 0
 420 0266 04AB     		add	r3, sp, #16
 421 0268 1846     		mov	r0, r3
 422 026a 0021     		movs	r1, #0
 423 026c FFF7FEFF 		bl	hci_send_req
 424 0270 0346     		mov	r3, r0
 425 0272 002B     		cmp	r3, #0
 426 0274 01DA     		bge	.L21
 427              		.loc 1 151 0
 428 0276 FF23     		movs	r3, #255
 429 0278 0BE0     		b	.L24
 430              	.L21:
 431              		.loc 1 153 0
 432 027a 9DF80830 		ldrb	r3, [sp, #8]	@ zero_extendqisi2
 433 027e 002B     		cmp	r3, #0
 434 0280 02D0     		beq	.L23
 435              		.loc 1 154 0
 436 0282 9DF80830 		ldrb	r3, [sp, #8]	@ zero_extendqisi2
 437 0286 04E0     		b	.L24
 438              	.L23:
 439              		.loc 1 157 0
 440 0288 DDF80920 		ldr	r2, [sp, #9]	@ unaligned
 441 028c 019B     		ldr	r3, [sp, #4]
 442 028e 1A60     		str	r2, [r3]
 443              		.loc 1 159 0
 444 0290 0023     		movs	r3, #0
 445              	.L24:
 446              		.loc 1 160 0
 447 0292 1846     		mov	r0, r3
 448 0294 0BB0     		add	sp, sp, #44
 449              		@ sp needed
 450 0296 5DF804FB 		ldr	pc, [sp], #4
 451              		.cfi_endproc
 452              	.LFE273:
 453              		.size	aci_hal_le_tx_test_packet_number, .-aci_hal_le_tx_test_packet_number
 454 029a 00BF     		.align	2
 455 029c AFF30080 		.p2align 4,,15
 456              		.global	aci_hal_device_standby
ARM GAS  /tmp/ccbCgXmb.s 			page 9


 457              		.thumb
 458              		.thumb_func
 459              		.type	aci_hal_device_standby, %function
 460              	aci_hal_device_standby:
 461              	.LFB274:
 462              		.loc 1 163 0
 463              		.cfi_startproc
 464              		@ args = 0, pretend = 0, frame = 32
 465              		@ frame_needed = 0, uses_anonymous_args = 0
 466 02a0 00B5     		push	{lr}
 467              		.cfi_def_cfa_offset 4
 468              		.cfi_offset 14, -4
 469 02a2 89B0     		sub	sp, sp, #36
 470              		.cfi_def_cfa_offset 40
 471              		.loc 1 167 0
 472 02a4 02AB     		add	r3, sp, #8
 473 02a6 1846     		mov	r0, r3
 474 02a8 0021     		movs	r1, #0
 475 02aa 1822     		movs	r2, #24
 476 02ac FFF7FEFF 		bl	Osal_MemSet
 477              		.loc 1 168 0
 478 02b0 3F23     		movs	r3, #63
 479 02b2 ADF80830 		strh	r3, [sp, #8]	@ movhi
 480              		.loc 1 169 0
 481 02b6 1323     		movs	r3, #19
 482 02b8 ADF80A30 		strh	r3, [sp, #10]	@ movhi
 483              		.loc 1 170 0
 484 02bc 0DF10703 		add	r3, sp, #7
 485 02c0 0693     		str	r3, [sp, #24]
 486              		.loc 1 171 0
 487 02c2 0123     		movs	r3, #1
 488 02c4 0793     		str	r3, [sp, #28]
 489              		.loc 1 173 0
 490 02c6 02AB     		add	r3, sp, #8
 491 02c8 1846     		mov	r0, r3
 492 02ca 0021     		movs	r1, #0
 493 02cc FFF7FEFF 		bl	hci_send_req
 494 02d0 0346     		mov	r3, r0
 495 02d2 002B     		cmp	r3, #0
 496 02d4 01DA     		bge	.L26
 497              		.loc 1 174 0
 498 02d6 FF23     		movs	r3, #255
 499 02d8 01E0     		b	.L28
 500              	.L26:
 501              		.loc 1 176 0
 502 02da 9DF80730 		ldrb	r3, [sp, #7]	@ zero_extendqisi2
 503              	.L28:
 504              		.loc 1 177 0
 505 02de 1846     		mov	r0, r3
 506 02e0 09B0     		add	sp, sp, #36
 507              		@ sp needed
 508 02e2 5DF804FB 		ldr	pc, [sp], #4
 509              		.cfi_endproc
 510              	.LFE274:
 511              		.size	aci_hal_device_standby, .-aci_hal_device_standby
 512 02e6 00BF     		.align	2
 513 02e8 AFF30080 		.p2align 4,,15
ARM GAS  /tmp/ccbCgXmb.s 			page 10


 513      AFF30080 
 514              		.global	aci_hal_tone_start
 515              		.thumb
 516              		.thumb_func
 517              		.type	aci_hal_tone_start, %function
 518              	aci_hal_tone_start:
 519              	.LFB275:
 520              		.loc 1 180 0
 521              		.cfi_startproc
 522              		@ args = 0, pretend = 0, frame = 40
 523              		@ frame_needed = 0, uses_anonymous_args = 0
 524 02f0 00B5     		push	{lr}
 525              		.cfi_def_cfa_offset 4
 526              		.cfi_offset 14, -4
 527 02f2 8BB0     		sub	sp, sp, #44
 528              		.cfi_def_cfa_offset 48
 529 02f4 0346     		mov	r3, r0
 530 02f6 8DF80730 		strb	r3, [sp, #7]
 531              		.loc 1 185 0
 532 02fa 9DF80730 		ldrb	r3, [sp, #7]
 533 02fe 8DF80C30 		strb	r3, [sp, #12]
 534              		.loc 1 187 0
 535 0302 04AB     		add	r3, sp, #16
 536 0304 1846     		mov	r0, r3
 537 0306 0021     		movs	r1, #0
 538 0308 1822     		movs	r2, #24
 539 030a FFF7FEFF 		bl	Osal_MemSet
 540              		.loc 1 188 0
 541 030e 3F23     		movs	r3, #63
 542 0310 ADF81030 		strh	r3, [sp, #16]	@ movhi
 543              		.loc 1 189 0
 544 0314 1523     		movs	r3, #21
 545 0316 ADF81230 		strh	r3, [sp, #18]	@ movhi
 546              		.loc 1 190 0
 547 031a 03AB     		add	r3, sp, #12
 548 031c 0693     		str	r3, [sp, #24]
 549              		.loc 1 191 0
 550 031e 0123     		movs	r3, #1
 551 0320 0793     		str	r3, [sp, #28]
 552              		.loc 1 192 0
 553 0322 0DF10B03 		add	r3, sp, #11
 554 0326 0893     		str	r3, [sp, #32]
 555              		.loc 1 193 0
 556 0328 0123     		movs	r3, #1
 557 032a 0993     		str	r3, [sp, #36]
 558              		.loc 1 195 0
 559 032c 04AB     		add	r3, sp, #16
 560 032e 1846     		mov	r0, r3
 561 0330 0021     		movs	r1, #0
 562 0332 FFF7FEFF 		bl	hci_send_req
 563 0336 0346     		mov	r3, r0
 564 0338 002B     		cmp	r3, #0
 565 033a 01DA     		bge	.L30
 566              		.loc 1 196 0
 567 033c FF23     		movs	r3, #255
 568 033e 01E0     		b	.L32
 569              	.L30:
ARM GAS  /tmp/ccbCgXmb.s 			page 11


 570              		.loc 1 198 0
 571 0340 9DF80B30 		ldrb	r3, [sp, #11]	@ zero_extendqisi2
 572              	.L32:
 573              		.loc 1 199 0
 574 0344 1846     		mov	r0, r3
 575 0346 0BB0     		add	sp, sp, #44
 576              		@ sp needed
 577 0348 5DF804FB 		ldr	pc, [sp], #4
 578              		.cfi_endproc
 579              	.LFE275:
 580              		.size	aci_hal_tone_start, .-aci_hal_tone_start
 581              		.align	2
 582 034c AFF30080 		.p2align 4,,15
 583              		.global	aci_hal_tone_stop
 584              		.thumb
 585              		.thumb_func
 586              		.type	aci_hal_tone_stop, %function
 587              	aci_hal_tone_stop:
 588              	.LFB276:
 589              		.loc 1 202 0
 590              		.cfi_startproc
 591              		@ args = 0, pretend = 0, frame = 32
 592              		@ frame_needed = 0, uses_anonymous_args = 0
 593 0350 00B5     		push	{lr}
 594              		.cfi_def_cfa_offset 4
 595              		.cfi_offset 14, -4
 596 0352 89B0     		sub	sp, sp, #36
 597              		.cfi_def_cfa_offset 40
 598              		.loc 1 206 0
 599 0354 02AB     		add	r3, sp, #8
 600 0356 1846     		mov	r0, r3
 601 0358 0021     		movs	r1, #0
 602 035a 1822     		movs	r2, #24
 603 035c FFF7FEFF 		bl	Osal_MemSet
 604              		.loc 1 207 0
 605 0360 3F23     		movs	r3, #63
 606 0362 ADF80830 		strh	r3, [sp, #8]	@ movhi
 607              		.loc 1 208 0
 608 0366 1623     		movs	r3, #22
 609 0368 ADF80A30 		strh	r3, [sp, #10]	@ movhi
 610              		.loc 1 209 0
 611 036c 0DF10703 		add	r3, sp, #7
 612 0370 0693     		str	r3, [sp, #24]
 613              		.loc 1 210 0
 614 0372 0123     		movs	r3, #1
 615 0374 0793     		str	r3, [sp, #28]
 616              		.loc 1 212 0
 617 0376 02AB     		add	r3, sp, #8
 618 0378 1846     		mov	r0, r3
 619 037a 0021     		movs	r1, #0
 620 037c FFF7FEFF 		bl	hci_send_req
 621 0380 0346     		mov	r3, r0
 622 0382 002B     		cmp	r3, #0
 623 0384 01DA     		bge	.L34
 624              		.loc 1 213 0
 625 0386 FF23     		movs	r3, #255
 626 0388 01E0     		b	.L36
ARM GAS  /tmp/ccbCgXmb.s 			page 12


 627              	.L34:
 628              		.loc 1 215 0
 629 038a 9DF80730 		ldrb	r3, [sp, #7]	@ zero_extendqisi2
 630              	.L36:
 631              		.loc 1 216 0
 632 038e 1846     		mov	r0, r3
 633 0390 09B0     		add	sp, sp, #36
 634              		@ sp needed
 635 0392 5DF804FB 		ldr	pc, [sp], #4
 636              		.cfi_endproc
 637              	.LFE276:
 638              		.size	aci_hal_tone_stop, .-aci_hal_tone_stop
 639 0396 00BF     		.align	2
 640 0398 AFF30080 		.p2align 4,,15
 640      AFF30080 
 641              		.global	aci_hal_get_link_status
 642              		.thumb
 643              		.thumb_func
 644              		.type	aci_hal_get_link_status, %function
 645              	aci_hal_get_link_status:
 646              	.LFB277:
 647              		.loc 1 219 0
 648              		.cfi_startproc
 649              		@ args = 0, pretend = 0, frame = 64
 650              		@ frame_needed = 0, uses_anonymous_args = 0
 651 03a0 00B5     		push	{lr}
 652              		.cfi_def_cfa_offset 4
 653              		.cfi_offset 14, -4
 654 03a2 91B0     		sub	sp, sp, #68
 655              		.cfi_def_cfa_offset 72
 656 03a4 0190     		str	r0, [sp, #4]
 657 03a6 0091     		str	r1, [sp]
 658              		.loc 1 223 0
 659 03a8 09AB     		add	r3, sp, #36
 660 03aa 1846     		mov	r0, r3
 661 03ac 0021     		movs	r1, #0
 662 03ae 1822     		movs	r2, #24
 663 03b0 FFF7FEFF 		bl	Osal_MemSet
 664              		.loc 1 224 0
 665 03b4 3F23     		movs	r3, #63
 666 03b6 ADF82430 		strh	r3, [sp, #36]	@ movhi
 667              		.loc 1 225 0
 668 03ba 1723     		movs	r3, #23
 669 03bc ADF82630 		strh	r3, [sp, #38]	@ movhi
 670              		.loc 1 226 0
 671 03c0 02AB     		add	r3, sp, #8
 672 03c2 0D93     		str	r3, [sp, #52]
 673              		.loc 1 227 0
 674 03c4 1923     		movs	r3, #25
 675 03c6 0E93     		str	r3, [sp, #56]
 676              		.loc 1 229 0
 677 03c8 09AB     		add	r3, sp, #36
 678 03ca 1846     		mov	r0, r3
 679 03cc 0021     		movs	r1, #0
 680 03ce FFF7FEFF 		bl	hci_send_req
 681 03d2 0346     		mov	r3, r0
 682 03d4 002B     		cmp	r3, #0
ARM GAS  /tmp/ccbCgXmb.s 			page 13


 683 03d6 01DA     		bge	.L38
 684              		.loc 1 230 0
 685 03d8 FF23     		movs	r3, #255
 686 03da 24E0     		b	.L43
 687              	.L38:
 688              		.loc 1 232 0
 689 03dc 9DF80830 		ldrb	r3, [sp, #8]	@ zero_extendqisi2
 690 03e0 002B     		cmp	r3, #0
 691 03e2 02D0     		beq	.L40
 692              		.loc 1 233 0
 693 03e4 9DF80830 		ldrb	r3, [sp, #8]	@ zero_extendqisi2
 694 03e8 1DE0     		b	.L43
 695              	.L40:
 696              		.loc 1 235 0
 697 03ea 02AB     		add	r3, sp, #8
 698 03ec 0133     		adds	r3, r3, #1
 699 03ee 0198     		ldr	r0, [sp, #4]
 700 03f0 1946     		mov	r1, r3
 701 03f2 0422     		movs	r2, #4
 702 03f4 FFF7FEFF 		bl	Osal_MemCpy
 703              	.LBB2:
 704              		.loc 1 236 0
 705 03f8 0023     		movs	r3, #0
 706 03fa 0F93     		str	r3, [sp, #60]
 707 03fc 0FE0     		b	.L41
 708              	.L42:
 709              		.loc 1 237 0 discriminator 2
 710 03fe 0F9B     		ldr	r3, [sp, #60]
 711 0400 5B00     		lsls	r3, r3, #1
 712 0402 009A     		ldr	r2, [sp]
 713 0404 1A44     		add	r2, r2, r3
 714 0406 0F9B     		ldr	r3, [sp, #60]
 715 0408 0433     		adds	r3, r3, #4
 716 040a 5B00     		lsls	r3, r3, #1
 717 040c 10A9     		add	r1, sp, #64
 718 040e 0B44     		add	r3, r3, r1
 719 0410 33F8373C 		ldrh	r3, [r3, #-55]	@ unaligned
 720 0414 9BB2     		uxth	r3, r3
 721 0416 1380     		strh	r3, [r2]	@ movhi
 722              		.loc 1 236 0 discriminator 2
 723 0418 0F9B     		ldr	r3, [sp, #60]
 724 041a 0133     		adds	r3, r3, #1
 725 041c 0F93     		str	r3, [sp, #60]
 726              	.L41:
 727              		.loc 1 236 0 is_stmt 0 discriminator 1
 728 041e 0F9B     		ldr	r3, [sp, #60]
 729 0420 072B     		cmp	r3, #7
 730 0422 ECDD     		ble	.L42
 731              	.LBE2:
 732              		.loc 1 239 0 is_stmt 1
 733 0424 0023     		movs	r3, #0
 734              	.L43:
 735              		.loc 1 240 0
 736 0426 1846     		mov	r0, r3
 737 0428 11B0     		add	sp, sp, #68
 738              		@ sp needed
 739 042a 5DF804FB 		ldr	pc, [sp], #4
ARM GAS  /tmp/ccbCgXmb.s 			page 14


 740              		.cfi_endproc
 741              	.LFE277:
 742              		.size	aci_hal_get_link_status, .-aci_hal_get_link_status
 743 042e 00BF     		.align	2
 744              		.p2align 4,,15
 745              		.global	aci_hal_get_anchor_period
 746              		.thumb
 747              		.thumb_func
 748              		.type	aci_hal_get_anchor_period, %function
 749              	aci_hal_get_anchor_period:
 750              	.LFB278:
 751              		.loc 1 243 0
 752              		.cfi_startproc
 753              		@ args = 0, pretend = 0, frame = 48
 754              		@ frame_needed = 0, uses_anonymous_args = 0
 755 0430 00B5     		push	{lr}
 756              		.cfi_def_cfa_offset 4
 757              		.cfi_offset 14, -4
 758 0432 8DB0     		sub	sp, sp, #52
 759              		.cfi_def_cfa_offset 56
 760 0434 0190     		str	r0, [sp, #4]
 761 0436 0091     		str	r1, [sp]
 762              		.loc 1 247 0
 763 0438 06AB     		add	r3, sp, #24
 764 043a 1846     		mov	r0, r3
 765 043c 0021     		movs	r1, #0
 766 043e 1822     		movs	r2, #24
 767 0440 FFF7FEFF 		bl	Osal_MemSet
 768              		.loc 1 248 0
 769 0444 3F23     		movs	r3, #63
 770 0446 ADF81830 		strh	r3, [sp, #24]	@ movhi
 771              		.loc 1 249 0
 772 044a 1923     		movs	r3, #25
 773 044c ADF81A30 		strh	r3, [sp, #26]	@ movhi
 774              		.loc 1 250 0
 775 0450 03AB     		add	r3, sp, #12
 776 0452 0A93     		str	r3, [sp, #40]
 777              		.loc 1 251 0
 778 0454 0923     		movs	r3, #9
 779 0456 0B93     		str	r3, [sp, #44]
 780              		.loc 1 253 0
 781 0458 06AB     		add	r3, sp, #24
 782 045a 1846     		mov	r0, r3
 783 045c 0021     		movs	r1, #0
 784 045e FFF7FEFF 		bl	hci_send_req
 785 0462 0346     		mov	r3, r0
 786 0464 002B     		cmp	r3, #0
 787 0466 01DA     		bge	.L45
 788              		.loc 1 254 0
 789 0468 FF23     		movs	r3, #255
 790 046a 0FE0     		b	.L48
 791              	.L45:
 792              		.loc 1 256 0
 793 046c 9DF80C30 		ldrb	r3, [sp, #12]	@ zero_extendqisi2
 794 0470 002B     		cmp	r3, #0
 795 0472 02D0     		beq	.L47
 796              		.loc 1 257 0
ARM GAS  /tmp/ccbCgXmb.s 			page 15


 797 0474 9DF80C30 		ldrb	r3, [sp, #12]	@ zero_extendqisi2
 798 0478 08E0     		b	.L48
 799              	.L47:
 800              		.loc 1 259 0
 801 047a DDF80D20 		ldr	r2, [sp, #13]	@ unaligned
 802 047e 019B     		ldr	r3, [sp, #4]
 803 0480 1A60     		str	r2, [r3]
 804              		.loc 1 260 0
 805 0482 DDF81120 		ldr	r2, [sp, #17]	@ unaligned
 806 0486 009B     		ldr	r3, [sp]
 807 0488 1A60     		str	r2, [r3]
 808              		.loc 1 262 0
 809 048a 0023     		movs	r3, #0
 810              	.L48:
 811              		.loc 1 263 0
 812 048c 1846     		mov	r0, r3
 813 048e 0DB0     		add	sp, sp, #52
 814              		@ sp needed
 815 0490 5DF804FB 		ldr	pc, [sp], #4
 816              		.cfi_endproc
 817              	.LFE278:
 818              		.size	aci_hal_get_anchor_period, .-aci_hal_get_anchor_period
 819              	.Letext0:
 820              		.file 2 "/nfs/nfs5/home/research/hardware/arm2/gcc-arm-embedded/gcc-arm-none-eabi-4_8-2014q2/arm-n
 821              		.file 3 "/nfs/nfs5/home/research/hardware/arm2/gcc-arm-embedded/gcc-arm-none-eabi-4_8-2014q2/arm-n
 822              		.file 4 "../../../../../../ChibiOS/os/rt/ports/ARMCMx/compilers/GCC/chtypes.h"
 823              		.file 5 "../../../../../../ChibiOS/os/rt/include/chsystypes.h"
 824              		.file 6 "../../../../../../ChibiOS/os/rt/include/chschd.h"
 825              		.file 7 "../../../../../../ChibiOS/os/rt/ports/ARMCMx/chcore.h"
 826              		.file 8 "../../../../../../ChibiOS/os/rt/ports/ARMCMx/chcore_v7m.h"
 827              		.file 9 "../../../../../../ChibiOS/os/rt/include/chtm.h"
 828              		.file 10 "../../../../../../ChibiOS/os/rt/include/chsem.h"
 829              		.file 11 "../../../../../../ChibiOS/os/rt/include/chmtx.h"
 830              		.file 12 "../../../../../Middlewares/ST/STM32_BlueNRG/SimpleBlueNRG_HCI/includes/ble_status.h"
 831              		.file 13 "../../../../../Middlewares/ST/STM32_BlueNRG/SimpleBlueNRG_HCI/includes/hci_const.h"
 832              		.file 14 "../../../../../Middlewares/ST/STM32_BlueNRG/SimpleBlueNRG_HCI/includes/bluenrg_aci_const
 833              		.file 15 "../../../../../../ChibiOS/os/ext/CMSIS/include/core_cm4.h"
 834 0494 AFF30080 		.section	.debug_info,"",%progbits
 834      AFF30080 
 834      AFF30080 
 835              	.Ldebug_info0:
 836 0000 0B0C0000 		.4byte	0xc0b
 837 0004 0400     		.2byte	0x4
 838 0006 00000000 		.4byte	.Ldebug_abbrev0
 839 000a 04       		.byte	0x4
 840 000b 01       		.uleb128 0x1
 841 000c 67050000 		.4byte	.LASF156
 842 0010 01       		.byte	0x1
 843 0011 CB000000 		.4byte	.LASF157
 844 0015 80020000 		.4byte	.LASF158
 845 0019 00000000 		.4byte	.Ltext0
 846 001d 94040000 		.4byte	.Letext0-.Ltext0
 847 0021 00000000 		.4byte	.Ldebug_line0
 848 0025 02       		.uleb128 0x2
 849 0026 01       		.byte	0x1
 850 0027 06       		.byte	0x6
 851 0028 9F010000 		.4byte	.LASF0
ARM GAS  /tmp/ccbCgXmb.s 			page 16


 852 002c 03       		.uleb128 0x3
 853 002d 54000000 		.4byte	.LASF3
 854 0031 02       		.byte	0x2
 855 0032 1C       		.byte	0x1c
 856 0033 37000000 		.4byte	0x37
 857 0037 02       		.uleb128 0x2
 858 0038 01       		.byte	0x1
 859 0039 08       		.byte	0x8
 860 003a 59050000 		.4byte	.LASF1
 861 003e 02       		.uleb128 0x2
 862 003f 02       		.byte	0x2
 863 0040 05       		.byte	0x5
 864 0041 24060000 		.4byte	.LASF2
 865 0045 03       		.uleb128 0x3
 866 0046 13070000 		.4byte	.LASF4
 867 004a 02       		.byte	0x2
 868 004b 26       		.byte	0x26
 869 004c 50000000 		.4byte	0x50
 870 0050 02       		.uleb128 0x2
 871 0051 02       		.byte	0x2
 872 0052 07       		.byte	0x7
 873 0053 B3030000 		.4byte	.LASF5
 874 0057 03       		.uleb128 0x3
 875 0058 12040000 		.4byte	.LASF6
 876 005c 02       		.byte	0x2
 877 005d 37       		.byte	0x37
 878 005e 62000000 		.4byte	0x62
 879 0062 02       		.uleb128 0x2
 880 0063 04       		.byte	0x4
 881 0064 05       		.byte	0x5
 882 0065 C6070000 		.4byte	.LASF7
 883 0069 03       		.uleb128 0x3
 884 006a 4A070000 		.4byte	.LASF8
 885 006e 02       		.byte	0x2
 886 006f 38       		.byte	0x38
 887 0070 74000000 		.4byte	0x74
 888 0074 02       		.uleb128 0x2
 889 0075 04       		.byte	0x4
 890 0076 07       		.byte	0x7
 891 0077 F5060000 		.4byte	.LASF9
 892 007b 02       		.uleb128 0x2
 893 007c 08       		.byte	0x8
 894 007d 05       		.byte	0x5
 895 007e 91010000 		.4byte	.LASF10
 896 0082 03       		.uleb128 0x3
 897 0083 D1040000 		.4byte	.LASF11
 898 0087 02       		.byte	0x2
 899 0088 4E       		.byte	0x4e
 900 0089 8D000000 		.4byte	0x8d
 901 008d 02       		.uleb128 0x2
 902 008e 08       		.byte	0x8
 903 008f 07       		.byte	0x7
 904 0090 B4000000 		.4byte	.LASF12
 905 0094 04       		.uleb128 0x4
 906 0095 04       		.byte	0x4
 907 0096 05       		.byte	0x5
 908 0097 696E7400 		.ascii	"int\000"
ARM GAS  /tmp/ccbCgXmb.s 			page 17


 909 009b 02       		.uleb128 0x2
 910 009c 04       		.byte	0x4
 911 009d 07       		.byte	0x7
 912 009e 46030000 		.4byte	.LASF13
 913 00a2 03       		.uleb128 0x3
 914 00a3 4A080000 		.4byte	.LASF14
 915 00a7 03       		.byte	0x3
 916 00a8 2A       		.byte	0x2a
 917 00a9 2C000000 		.4byte	0x2c
 918 00ad 03       		.uleb128 0x3
 919 00ae 04020000 		.4byte	.LASF15
 920 00b2 03       		.byte	0x3
 921 00b3 36       		.byte	0x36
 922 00b4 45000000 		.4byte	0x45
 923 00b8 03       		.uleb128 0x3
 924 00b9 51050000 		.4byte	.LASF16
 925 00bd 03       		.byte	0x3
 926 00be 41       		.byte	0x41
 927 00bf 57000000 		.4byte	0x57
 928 00c3 03       		.uleb128 0x3
 929 00c4 C0060000 		.4byte	.LASF17
 930 00c8 03       		.byte	0x3
 931 00c9 42       		.byte	0x42
 932 00ca 69000000 		.4byte	0x69
 933 00ce 03       		.uleb128 0x3
 934 00cf 33000000 		.4byte	.LASF18
 935 00d3 03       		.byte	0x3
 936 00d4 4E       		.byte	0x4e
 937 00d5 82000000 		.4byte	0x82
 938 00d9 03       		.uleb128 0x3
 939 00da 39040000 		.4byte	.LASF19
 940 00de 04       		.byte	0x4
 941 00df 39       		.byte	0x39
 942 00e0 C3000000 		.4byte	0xc3
 943 00e4 03       		.uleb128 0x3
 944 00e5 E7030000 		.4byte	.LASF20
 945 00e9 04       		.byte	0x4
 946 00ea 3C       		.byte	0x3c
 947 00eb A2000000 		.4byte	0xa2
 948 00ef 03       		.uleb128 0x3
 949 00f0 D6010000 		.4byte	.LASF21
 950 00f4 04       		.byte	0x4
 951 00f5 3D       		.byte	0x3d
 952 00f6 A2000000 		.4byte	0xa2
 953 00fa 03       		.uleb128 0x3
 954 00fb FD040000 		.4byte	.LASF22
 955 00ff 04       		.byte	0x4
 956 0100 3E       		.byte	0x3e
 957 0101 A2000000 		.4byte	0xa2
 958 0105 03       		.uleb128 0x3
 959 0106 C2010000 		.4byte	.LASF23
 960 010a 04       		.byte	0x4
 961 010b 3F       		.byte	0x3f
 962 010c A2000000 		.4byte	0xa2
 963 0110 03       		.uleb128 0x3
 964 0111 1C050000 		.4byte	.LASF24
 965 0115 04       		.byte	0x4
ARM GAS  /tmp/ccbCgXmb.s 			page 18


 966 0116 40       		.byte	0x40
 967 0117 C3000000 		.4byte	0xc3
 968 011b 03       		.uleb128 0x3
 969 011c D0030000 		.4byte	.LASF25
 970 0120 04       		.byte	0x4
 971 0121 41       		.byte	0x41
 972 0122 B8000000 		.4byte	0xb8
 973 0126 03       		.uleb128 0x3
 974 0127 06040000 		.4byte	.LASF26
 975 012b 04       		.byte	0x4
 976 012c 43       		.byte	0x43
 977 012d C3000000 		.4byte	0xc3
 978 0131 03       		.uleb128 0x3
 979 0132 BA060000 		.4byte	.LASF27
 980 0136 04       		.byte	0x4
 981 0137 45       		.byte	0x45
 982 0138 B8000000 		.4byte	0xb8
 983 013c 03       		.uleb128 0x3
 984 013d 2E070000 		.4byte	.LASF28
 985 0141 05       		.byte	0x5
 986 0142 33       		.byte	0x33
 987 0143 C3000000 		.4byte	0xc3
 988 0147 03       		.uleb128 0x3
 989 0148 1E070000 		.4byte	.LASF29
 990 014c 05       		.byte	0x5
 991 014d 3F       		.byte	0x3f
 992 014e 52010000 		.4byte	0x152
 993 0152 05       		.uleb128 0x5
 994 0153 C6030000 		.4byte	.LASF50
 995 0157 44       		.byte	0x44
 996 0158 06       		.byte	0x6
 997 0159 C2       		.byte	0xc2
 998 015a 4B020000 		.4byte	0x24b
 999 015e 06       		.uleb128 0x6
 1000 015f 69060000 		.4byte	.LASF30
 1001 0163 06       		.byte	0x6
 1002 0164 C3       		.byte	0xc3
 1003 0165 56020000 		.4byte	0x256
 1004 0169 00       		.byte	0
 1005 016a 06       		.uleb128 0x6
 1006 016b 15050000 		.4byte	.LASF31
 1007 016f 06       		.byte	0x6
 1008 0170 C5       		.byte	0xc5
 1009 0171 56020000 		.4byte	0x256
 1010 0175 04       		.byte	0x4
 1011 0176 06       		.uleb128 0x6
 1012 0177 94040000 		.4byte	.LASF32
 1013 017b 06       		.byte	0x6
 1014 017c C7       		.byte	0xc7
 1015 017d 10010000 		.4byte	0x110
 1016 0181 08       		.byte	0x8
 1017 0182 06       		.uleb128 0x6
 1018 0183 2D090000 		.4byte	.LASF33
 1019 0187 06       		.byte	0x6
 1020 0188 C8       		.byte	0xc8
 1021 0189 9E040000 		.4byte	0x49e
 1022 018d 0C       		.byte	0xc
ARM GAS  /tmp/ccbCgXmb.s 			page 19


 1023 018e 06       		.uleb128 0x6
 1024 018f 2D020000 		.4byte	.LASF34
 1025 0193 06       		.byte	0x6
 1026 0194 CA       		.byte	0xca
 1027 0195 56020000 		.4byte	0x256
 1028 0199 10       		.byte	0x10
 1029 019a 06       		.uleb128 0x6
 1030 019b 9B040000 		.4byte	.LASF35
 1031 019f 06       		.byte	0x6
 1032 01a0 CB       		.byte	0xcb
 1033 01a1 56020000 		.4byte	0x256
 1034 01a5 14       		.byte	0x14
 1035 01a6 06       		.uleb128 0x6
 1036 01a7 B4080000 		.4byte	.LASF36
 1037 01ab 06       		.byte	0x6
 1038 01ac D2       		.byte	0xd2
 1039 01ad 77040000 		.4byte	0x477
 1040 01b1 18       		.byte	0x18
 1041 01b2 06       		.uleb128 0x6
 1042 01b3 2E060000 		.4byte	.LASF37
 1043 01b7 06       		.byte	0x6
 1044 01b8 DD       		.byte	0xdd
 1045 01b9 EF000000 		.4byte	0xef
 1046 01bd 1C       		.byte	0x1c
 1047 01be 06       		.uleb128 0x6
 1048 01bf 70060000 		.4byte	.LASF38
 1049 01c3 06       		.byte	0x6
 1050 01c4 E1       		.byte	0xe1
 1051 01c5 E4000000 		.4byte	0xe4
 1052 01c9 1D       		.byte	0x1d
 1053 01ca 06       		.uleb128 0x6
 1054 01cb 05080000 		.4byte	.LASF39
 1055 01cf 06       		.byte	0x6
 1056 01d0 E6       		.byte	0xe6
 1057 01d1 FA000000 		.4byte	0xfa
 1058 01d5 1E       		.byte	0x1e
 1059 01d6 06       		.uleb128 0x6
 1060 01d7 36060000 		.4byte	.LASF40
 1061 01db 06       		.byte	0x6
 1062 01dc EC       		.byte	0xec
 1063 01dd 05010000 		.4byte	0x105
 1064 01e1 1F       		.byte	0x1f
 1065 01e2 07       		.uleb128 0x7
 1066 01e3 705F7500 		.ascii	"p_u\000"
 1067 01e7 06       		.byte	0x6
 1068 01e8 3101     		.2byte	0x131
 1069 01ea 58050000 		.4byte	0x558
 1070 01ee 20       		.byte	0x20
 1071 01ef 08       		.uleb128 0x8
 1072 01f0 33090000 		.4byte	.LASF41
 1073 01f4 06       		.byte	0x6
 1074 01f5 3601     		.2byte	0x136
 1075 01f7 5C020000 		.4byte	0x25c
 1076 01fb 24       		.byte	0x24
 1077 01fc 08       		.uleb128 0x8
 1078 01fd CF070000 		.4byte	.LASF42
 1079 0201 06       		.byte	0x6
ARM GAS  /tmp/ccbCgXmb.s 			page 20


 1080 0202 3C01     		.2byte	0x13c
 1081 0204 80020000 		.4byte	0x280
 1082 0208 28       		.byte	0x28
 1083 0209 08       		.uleb128 0x8
 1084 020a FE080000 		.4byte	.LASF43
 1085 020e 06       		.byte	0x6
 1086 020f 4001     		.2byte	0x140
 1087 0211 1B010000 		.4byte	0x11b
 1088 0215 30       		.byte	0x30
 1089 0216 08       		.uleb128 0x8
 1090 0217 AF060000 		.4byte	.LASF44
 1091 021b 06       		.byte	0x6
 1092 021c 4601     		.2byte	0x146
 1093 021e 26010000 		.4byte	0x126
 1094 0222 34       		.byte	0x34
 1095 0223 08       		.uleb128 0x8
 1096 0224 1A060000 		.4byte	.LASF45
 1097 0228 06       		.byte	0x6
 1098 0229 4D01     		.2byte	0x14d
 1099 022b 17060000 		.4byte	0x617
 1100 022f 38       		.byte	0x38
 1101 0230 08       		.uleb128 0x8
 1102 0231 38070000 		.4byte	.LASF46
 1103 0235 06       		.byte	0x6
 1104 0236 5101     		.2byte	0x151
 1105 0238 10010000 		.4byte	0x110
 1106 023c 3C       		.byte	0x3c
 1107 023d 08       		.uleb128 0x8
 1108 023e AB010000 		.4byte	.LASF47
 1109 0242 06       		.byte	0x6
 1110 0243 5801     		.2byte	0x158
 1111 0245 33030000 		.4byte	0x333
 1112 0249 40       		.byte	0x40
 1113 024a 00       		.byte	0
 1114 024b 03       		.uleb128 0x3
 1115 024c 41040000 		.4byte	.LASF48
 1116 0250 05       		.byte	0x5
 1117 0251 44       		.byte	0x44
 1118 0252 56020000 		.4byte	0x256
 1119 0256 09       		.uleb128 0x9
 1120 0257 04       		.byte	0x4
 1121 0258 47010000 		.4byte	0x147
 1122 025c 03       		.uleb128 0x3
 1123 025d BB080000 		.4byte	.LASF49
 1124 0261 05       		.byte	0x5
 1125 0262 49       		.byte	0x49
 1126 0263 67020000 		.4byte	0x267
 1127 0267 05       		.uleb128 0x5
 1128 0268 E5060000 		.4byte	.LASF51
 1129 026c 04       		.byte	0x4
 1130 026d 06       		.byte	0x6
 1131 026e B0       		.byte	0xb0
 1132 026f 80020000 		.4byte	0x280
 1133 0273 06       		.uleb128 0x6
 1134 0274 69060000 		.4byte	.LASF30
 1135 0278 06       		.byte	0x6
 1136 0279 B1       		.byte	0xb1
ARM GAS  /tmp/ccbCgXmb.s 			page 21


 1137 027a 56020000 		.4byte	0x256
 1138 027e 00       		.byte	0
 1139 027f 00       		.byte	0
 1140 0280 03       		.uleb128 0x3
 1141 0281 81060000 		.4byte	.LASF52
 1142 0285 05       		.byte	0x5
 1143 0286 50       		.byte	0x50
 1144 0287 8B020000 		.4byte	0x28b
 1145 028b 05       		.uleb128 0x5
 1146 028c 66010000 		.4byte	.LASF53
 1147 0290 08       		.byte	0x8
 1148 0291 06       		.byte	0x6
 1149 0292 B7       		.byte	0xb7
 1150 0293 B0020000 		.4byte	0x2b0
 1151 0297 06       		.uleb128 0x6
 1152 0298 69060000 		.4byte	.LASF30
 1153 029c 06       		.byte	0x6
 1154 029d B8       		.byte	0xb8
 1155 029e 56020000 		.4byte	0x256
 1156 02a2 00       		.byte	0
 1157 02a3 06       		.uleb128 0x6
 1158 02a4 15050000 		.4byte	.LASF31
 1159 02a8 06       		.byte	0x6
 1160 02a9 B9       		.byte	0xb9
 1161 02aa 56020000 		.4byte	0x256
 1162 02ae 04       		.byte	0x4
 1163 02af 00       		.byte	0
 1164 02b0 03       		.uleb128 0x3
 1165 02b1 19000000 		.4byte	.LASF54
 1166 02b5 05       		.byte	0x5
 1167 02b6 57       		.byte	0x57
 1168 02b7 BB020000 		.4byte	0x2bb
 1169 02bb 0A       		.uleb128 0xa
 1170 02bc F8030000 		.4byte	.LASF55
 1171 02c0 1C       		.byte	0x1c
 1172 02c1 06       		.byte	0x6
 1173 02c2 9001     		.2byte	0x190
 1174 02c4 17030000 		.4byte	0x317
 1175 02c8 08       		.uleb128 0x8
 1176 02c9 D2060000 		.4byte	.LASF56
 1177 02cd 06       		.byte	0x6
 1178 02ce 9101     		.2byte	0x191
 1179 02d0 80020000 		.4byte	0x280
 1180 02d4 00       		.byte	0
 1181 02d5 08       		.uleb128 0x8
 1182 02d6 5B060000 		.4byte	.LASF57
 1183 02da 06       		.byte	0x6
 1184 02db 9201     		.2byte	0x192
 1185 02dd 10010000 		.4byte	0x110
 1186 02e1 08       		.byte	0x8
 1187 02e2 08       		.uleb128 0x8
 1188 02e3 A3040000 		.4byte	.LASF58
 1189 02e7 06       		.byte	0x6
 1190 02e8 9401     		.2byte	0x194
 1191 02ea 9E040000 		.4byte	0x49e
 1192 02ee 0C       		.byte	0xc
 1193 02ef 08       		.uleb128 0x8
ARM GAS  /tmp/ccbCgXmb.s 			page 22


 1194 02f0 57020000 		.4byte	.LASF59
 1195 02f4 06       		.byte	0x6
 1196 02f5 9701     		.2byte	0x197
 1197 02f7 56020000 		.4byte	0x256
 1198 02fb 10       		.byte	0x10
 1199 02fc 08       		.uleb128 0x8
 1200 02fd C9040000 		.4byte	.LASF60
 1201 0301 06       		.byte	0x6
 1202 0302 9801     		.2byte	0x198
 1203 0304 56020000 		.4byte	0x256
 1204 0308 14       		.byte	0x14
 1205 0309 08       		.uleb128 0x8
 1206 030a BF040000 		.4byte	.LASF61
 1207 030e 06       		.byte	0x6
 1208 030f 9B01     		.2byte	0x19b
 1209 0311 56020000 		.4byte	0x256
 1210 0315 18       		.byte	0x18
 1211 0316 00       		.byte	0
 1212 0317 03       		.uleb128 0x3
 1213 0318 9E030000 		.4byte	.LASF62
 1214 031c 05       		.byte	0x5
 1215 031d 5C       		.byte	0x5c
 1216 031e 22030000 		.4byte	0x322
 1217 0322 09       		.uleb128 0x9
 1218 0323 04       		.byte	0x4
 1219 0324 28030000 		.4byte	0x328
 1220 0328 0B       		.uleb128 0xb
 1221 0329 33030000 		.4byte	0x333
 1222 032d 0C       		.uleb128 0xc
 1223 032e 33030000 		.4byte	0x333
 1224 0332 00       		.byte	0
 1225 0333 0D       		.uleb128 0xd
 1226 0334 04       		.byte	0x4
 1227 0335 03       		.uleb128 0x3
 1228 0336 05050000 		.4byte	.LASF63
 1229 033a 05       		.byte	0x5
 1230 033b 61       		.byte	0x61
 1231 033c 40030000 		.4byte	0x340
 1232 0340 0A       		.uleb128 0xa
 1233 0341 91060000 		.4byte	.LASF64
 1234 0345 14       		.byte	0x14
 1235 0346 06       		.byte	0x6
 1236 0347 6B01     		.2byte	0x16b
 1237 0349 8F030000 		.4byte	0x38f
 1238 034d 08       		.uleb128 0x8
 1239 034e 8A030000 		.4byte	.LASF65
 1240 0352 06       		.byte	0x6
 1241 0353 6C01     		.2byte	0x16c
 1242 0355 1D060000 		.4byte	0x61d
 1243 0359 00       		.byte	0
 1244 035a 08       		.uleb128 0x8
 1245 035b 78020000 		.4byte	.LASF66
 1246 035f 06       		.byte	0x6
 1247 0360 6D01     		.2byte	0x16d
 1248 0362 1D060000 		.4byte	0x61d
 1249 0366 04       		.byte	0x4
 1250 0367 08       		.uleb128 0x8
ARM GAS  /tmp/ccbCgXmb.s 			page 23


 1251 0368 72030000 		.4byte	.LASF67
 1252 036c 06       		.byte	0x6
 1253 036d 6E01     		.2byte	0x16e
 1254 036f 3C010000 		.4byte	0x13c
 1255 0373 08       		.byte	0x8
 1256 0374 08       		.uleb128 0x8
 1257 0375 8C040000 		.4byte	.LASF68
 1258 0379 06       		.byte	0x6
 1259 037a 6F01     		.2byte	0x16f
 1260 037c 17030000 		.4byte	0x317
 1261 0380 0C       		.byte	0xc
 1262 0381 08       		.uleb128 0x8
 1263 0382 DA070000 		.4byte	.LASF69
 1264 0386 06       		.byte	0x6
 1265 0387 7101     		.2byte	0x171
 1266 0389 33030000 		.4byte	0x333
 1267 038d 10       		.byte	0x10
 1268 038e 00       		.byte	0
 1269 038f 03       		.uleb128 0x3
 1270 0390 43010000 		.4byte	.LASF70
 1271 0394 05       		.byte	0x5
 1272 0395 66       		.byte	0x66
 1273 0396 9A030000 		.4byte	0x39a
 1274 039a 0A       		.uleb128 0xa
 1275 039b 75040000 		.4byte	.LASF71
 1276 039f 10       		.byte	0x10
 1277 03a0 06       		.byte	0x6
 1278 03a1 7B01     		.2byte	0x17b
 1279 03a3 DC030000 		.4byte	0x3dc
 1280 03a7 08       		.uleb128 0x8
 1281 03a8 8A030000 		.4byte	.LASF65
 1282 03ac 06       		.byte	0x6
 1283 03ad 7C01     		.2byte	0x17c
 1284 03af 1D060000 		.4byte	0x61d
 1285 03b3 00       		.byte	0
 1286 03b4 08       		.uleb128 0x8
 1287 03b5 78020000 		.4byte	.LASF66
 1288 03b9 06       		.byte	0x6
 1289 03ba 7E01     		.2byte	0x17e
 1290 03bc 1D060000 		.4byte	0x61d
 1291 03c0 04       		.byte	0x4
 1292 03c1 08       		.uleb128 0x8
 1293 03c2 72030000 		.4byte	.LASF67
 1294 03c6 06       		.byte	0x6
 1295 03c7 8001     		.2byte	0x180
 1296 03c9 3C010000 		.4byte	0x13c
 1297 03cd 08       		.byte	0x8
 1298 03ce 08       		.uleb128 0x8
 1299 03cf DA060000 		.4byte	.LASF72
 1300 03d3 06       		.byte	0x6
 1301 03d4 8201     		.2byte	0x182
 1302 03d6 23060000 		.4byte	0x623
 1303 03da 0C       		.byte	0xc
 1304 03db 00       		.byte	0
 1305 03dc 03       		.uleb128 0x3
 1306 03dd 7B030000 		.4byte	.LASF73
 1307 03e1 05       		.byte	0x5
ARM GAS  /tmp/ccbCgXmb.s 			page 24


 1308 03e2 6B       		.byte	0x6b
 1309 03e3 E7030000 		.4byte	0x3e7
 1310 03e7 0A       		.uleb128 0xa
 1311 03e8 3B050000 		.4byte	.LASF74
 1312 03ec 04       		.byte	0x4
 1313 03ed 06       		.byte	0x6
 1314 03ee A201     		.2byte	0x1a2
 1315 03f0 02040000 		.4byte	0x402
 1316 03f4 08       		.uleb128 0x8
 1317 03f5 61070000 		.4byte	.LASF75
 1318 03f9 06       		.byte	0x6
 1319 03fa AA01     		.2byte	0x1aa
 1320 03fc 28060000 		.4byte	0x628
 1321 0400 00       		.byte	0
 1322 0401 00       		.byte	0
 1323 0402 03       		.uleb128 0x3
 1324 0403 D6030000 		.4byte	.LASF76
 1325 0407 05       		.byte	0x5
 1326 0408 70       		.byte	0x70
 1327 0409 0D040000 		.4byte	0x40d
 1328 040d 0E       		.uleb128 0xe
 1329 040e CC010000 		.4byte	.LASF77
 1330 0412 5001     		.2byte	0x150
 1331 0414 06       		.byte	0x6
 1332 0415 C201     		.2byte	0x1c2
 1333 0417 69040000 		.4byte	0x469
 1334 041b 08       		.uleb128 0x8
 1335 041c 3C080000 		.4byte	.LASF78
 1336 0420 06       		.byte	0x6
 1337 0421 C601     		.2byte	0x1c6
 1338 0423 B0020000 		.4byte	0x2b0
 1339 0427 00       		.byte	0
 1340 0428 08       		.uleb128 0x8
 1341 0429 78000000 		.4byte	.LASF79
 1342 042d 06       		.byte	0x6
 1343 042e CA01     		.2byte	0x1ca
 1344 0430 8F030000 		.4byte	0x38f
 1345 0434 1C       		.byte	0x1c
 1346 0435 07       		.uleb128 0x7
 1347 0436 64626700 		.ascii	"dbg\000"
 1348 043a 06       		.byte	0x6
 1349 043b CE01     		.2byte	0x1ce
 1350 043d DC030000 		.4byte	0x3dc
 1351 0441 2C       		.byte	0x2c
 1352 0442 08       		.uleb128 0x8
 1353 0443 38010000 		.4byte	.LASF80
 1354 0447 06       		.byte	0x6
 1355 0448 D201     		.2byte	0x1d2
 1356 044a 47010000 		.4byte	0x147
 1357 044e 30       		.byte	0x30
 1358 044f 07       		.uleb128 0x7
 1359 0450 746D00   		.ascii	"tm\000"
 1360 0453 06       		.byte	0x6
 1361 0454 D701     		.2byte	0x1d7
 1362 0456 4D050000 		.4byte	0x54d
 1363 045a 74       		.byte	0x74
 1364 045b 08       		.uleb128 0x8
ARM GAS  /tmp/ccbCgXmb.s 			page 25


 1365 045c 2B030000 		.4byte	.LASF81
 1366 0460 06       		.byte	0x6
 1367 0461 E301     		.2byte	0x1e3
 1368 0463 2D060000 		.4byte	0x62d
 1369 0467 78       		.byte	0x78
 1370 0468 00       		.byte	0
 1371 0469 02       		.uleb128 0x2
 1372 046a 04       		.byte	0x4
 1373 046b 07       		.byte	0x7
 1374 046c 94080000 		.4byte	.LASF82
 1375 0470 02       		.uleb128 0x2
 1376 0471 01       		.byte	0x1
 1377 0472 08       		.byte	0x8
 1378 0473 07070000 		.4byte	.LASF83
 1379 0477 09       		.uleb128 0x9
 1380 0478 04       		.byte	0x4
 1381 0479 7D040000 		.4byte	0x47d
 1382 047d 0F       		.uleb128 0xf
 1383 047e 70040000 		.4byte	0x470
 1384 0482 09       		.uleb128 0x9
 1385 0483 04       		.byte	0x4
 1386 0484 A2000000 		.4byte	0xa2
 1387 0488 03       		.uleb128 0x3
 1388 0489 C9060000 		.4byte	.LASF84
 1389 048d 07       		.byte	0x7
 1390 048e 65       		.byte	0x65
 1391 048f 33030000 		.4byte	0x333
 1392 0493 03       		.uleb128 0x3
 1393 0494 2E040000 		.4byte	.LASF85
 1394 0498 07       		.byte	0x7
 1395 0499 6D       		.byte	0x6d
 1396 049a CE000000 		.4byte	0xce
 1397 049e 05       		.uleb128 0x5
 1398 049f BE070000 		.4byte	.LASF86
 1399 04a3 04       		.byte	0x4
 1400 04a4 07       		.byte	0x7
 1401 04a5 89       		.byte	0x89
 1402 04a6 B7040000 		.4byte	0x4b7
 1403 04aa 10       		.uleb128 0x10
 1404 04ab 72313300 		.ascii	"r13\000"
 1405 04af 07       		.byte	0x7
 1406 04b0 8A       		.byte	0x8a
 1407 04b1 32050000 		.4byte	0x532
 1408 04b5 00       		.byte	0
 1409 04b6 00       		.byte	0
 1410 04b7 05       		.uleb128 0x5
 1411 04b8 6C000000 		.4byte	.LASF87
 1412 04bc 24       		.byte	0x24
 1413 04bd 08       		.byte	0x8
 1414 04be FD       		.byte	0xfd
 1415 04bf 32050000 		.4byte	0x532
 1416 04c3 07       		.uleb128 0x7
 1417 04c4 723400   		.ascii	"r4\000"
 1418 04c7 08       		.byte	0x8
 1419 04c8 1001     		.2byte	0x110
 1420 04ca 88040000 		.4byte	0x488
 1421 04ce 00       		.byte	0
ARM GAS  /tmp/ccbCgXmb.s 			page 26


 1422 04cf 07       		.uleb128 0x7
 1423 04d0 723500   		.ascii	"r5\000"
 1424 04d3 08       		.byte	0x8
 1425 04d4 1101     		.2byte	0x111
 1426 04d6 88040000 		.4byte	0x488
 1427 04da 04       		.byte	0x4
 1428 04db 07       		.uleb128 0x7
 1429 04dc 723600   		.ascii	"r6\000"
 1430 04df 08       		.byte	0x8
 1431 04e0 1201     		.2byte	0x112
 1432 04e2 88040000 		.4byte	0x488
 1433 04e6 08       		.byte	0x8
 1434 04e7 07       		.uleb128 0x7
 1435 04e8 723700   		.ascii	"r7\000"
 1436 04eb 08       		.byte	0x8
 1437 04ec 1301     		.2byte	0x113
 1438 04ee 88040000 		.4byte	0x488
 1439 04f2 0C       		.byte	0xc
 1440 04f3 07       		.uleb128 0x7
 1441 04f4 723800   		.ascii	"r8\000"
 1442 04f7 08       		.byte	0x8
 1443 04f8 1401     		.2byte	0x114
 1444 04fa 88040000 		.4byte	0x488
 1445 04fe 10       		.byte	0x10
 1446 04ff 07       		.uleb128 0x7
 1447 0500 723900   		.ascii	"r9\000"
 1448 0503 08       		.byte	0x8
 1449 0504 1501     		.2byte	0x115
 1450 0506 88040000 		.4byte	0x488
 1451 050a 14       		.byte	0x14
 1452 050b 07       		.uleb128 0x7
 1453 050c 72313000 		.ascii	"r10\000"
 1454 0510 08       		.byte	0x8
 1455 0511 1601     		.2byte	0x116
 1456 0513 88040000 		.4byte	0x488
 1457 0517 18       		.byte	0x18
 1458 0518 07       		.uleb128 0x7
 1459 0519 72313100 		.ascii	"r11\000"
 1460 051d 08       		.byte	0x8
 1461 051e 1701     		.2byte	0x117
 1462 0520 88040000 		.4byte	0x488
 1463 0524 1C       		.byte	0x1c
 1464 0525 07       		.uleb128 0x7
 1465 0526 6C7200   		.ascii	"lr\000"
 1466 0529 08       		.byte	0x8
 1467 052a 1801     		.2byte	0x118
 1468 052c 88040000 		.4byte	0x488
 1469 0530 20       		.byte	0x20
 1470 0531 00       		.byte	0
 1471 0532 09       		.uleb128 0x9
 1472 0533 04       		.byte	0x4
 1473 0534 B7040000 		.4byte	0x4b7
 1474 0538 11       		.uleb128 0x11
 1475 0539 04       		.byte	0x4
 1476 053a 09       		.byte	0x9
 1477 053b 38       		.byte	0x38
 1478 053c 4D050000 		.4byte	0x54d
ARM GAS  /tmp/ccbCgXmb.s 			page 27


 1479 0540 06       		.uleb128 0x6
 1480 0541 0D020000 		.4byte	.LASF88
 1481 0545 09       		.byte	0x9
 1482 0546 3C       		.byte	0x3c
 1483 0547 D9000000 		.4byte	0xd9
 1484 054b 00       		.byte	0
 1485 054c 00       		.byte	0
 1486 054d 03       		.uleb128 0x3
 1487 054e AE040000 		.4byte	.LASF89
 1488 0552 09       		.byte	0x9
 1489 0553 3D       		.byte	0x3d
 1490 0554 38050000 		.4byte	0x538
 1491 0558 12       		.uleb128 0x12
 1492 0559 04       		.byte	0x4
 1493 055a 06       		.byte	0x6
 1494 055b FA       		.byte	0xfa
 1495 055c B5050000 		.4byte	0x5b5
 1496 0560 13       		.uleb128 0x13
 1497 0561 2C000000 		.4byte	.LASF90
 1498 0565 06       		.byte	0x6
 1499 0566 0101     		.2byte	0x101
 1500 0568 1B010000 		.4byte	0x11b
 1501 056c 13       		.uleb128 0x13
 1502 056d 2F010000 		.4byte	.LASF91
 1503 0571 06       		.byte	0x6
 1504 0572 0801     		.2byte	0x108
 1505 0574 1B010000 		.4byte	0x11b
 1506 0578 13       		.uleb128 0x13
 1507 0579 BB010000 		.4byte	.LASF92
 1508 057d 06       		.byte	0x6
 1509 057e 0F01     		.2byte	0x10f
 1510 0580 33030000 		.4byte	0x333
 1511 0584 13       		.uleb128 0x13
 1512 0585 26000000 		.4byte	.LASF93
 1513 0589 06       		.byte	0x6
 1514 058a 1601     		.2byte	0x116
 1515 058c B5050000 		.4byte	0x5b5
 1516 0590 13       		.uleb128 0x13
 1517 0591 6B030000 		.4byte	.LASF94
 1518 0595 06       		.byte	0x6
 1519 0596 1E01     		.2byte	0x11e
 1520 0598 E0050000 		.4byte	0x5e0
 1521 059c 13       		.uleb128 0x13
 1522 059d 0C070000 		.4byte	.LASF95
 1523 05a1 06       		.byte	0x6
 1524 05a2 2701     		.2byte	0x127
 1525 05a4 17060000 		.4byte	0x617
 1526 05a8 13       		.uleb128 0x13
 1527 05a9 62060000 		.4byte	.LASF96
 1528 05ad 06       		.byte	0x6
 1529 05ae 2F01     		.2byte	0x12f
 1530 05b0 26010000 		.4byte	0x126
 1531 05b4 00       		.byte	0
 1532 05b5 09       		.uleb128 0x9
 1533 05b6 04       		.byte	0x4
 1534 05b7 4B020000 		.4byte	0x24b
 1535 05bb 05       		.uleb128 0x5
ARM GAS  /tmp/ccbCgXmb.s 			page 28


 1536 05bc A2060000 		.4byte	.LASF97
 1537 05c0 0C       		.byte	0xc
 1538 05c1 0A       		.byte	0xa
 1539 05c2 34       		.byte	0x34
 1540 05c3 E0050000 		.4byte	0x5e0
 1541 05c7 06       		.uleb128 0x6
 1542 05c8 35020000 		.4byte	.LASF98
 1543 05cc 0A       		.byte	0xa
 1544 05cd 35       		.byte	0x35
 1545 05ce 80020000 		.4byte	0x280
 1546 05d2 00       		.byte	0
 1547 05d3 06       		.uleb128 0x6
 1548 05d4 A7030000 		.4byte	.LASF99
 1549 05d8 0A       		.byte	0xa
 1550 05d9 37       		.byte	0x37
 1551 05da 31010000 		.4byte	0x131
 1552 05de 08       		.byte	0x8
 1553 05df 00       		.byte	0
 1554 05e0 09       		.uleb128 0x9
 1555 05e1 04       		.byte	0x4
 1556 05e2 BB050000 		.4byte	0x5bb
 1557 05e6 05       		.uleb128 0x5
 1558 05e7 9D080000 		.4byte	.LASF100
 1559 05eb 10       		.byte	0x10
 1560 05ec 0B       		.byte	0xb
 1561 05ed 39       		.byte	0x39
 1562 05ee 17060000 		.4byte	0x617
 1563 05f2 06       		.uleb128 0x6
 1564 05f3 B3010000 		.4byte	.LASF101
 1565 05f7 0B       		.byte	0xb
 1566 05f8 3A       		.byte	0x3a
 1567 05f9 80020000 		.4byte	0x280
 1568 05fd 00       		.byte	0
 1569 05fe 06       		.uleb128 0x6
 1570 05ff 42080000 		.4byte	.LASF102
 1571 0603 0B       		.byte	0xb
 1572 0604 3C       		.byte	0x3c
 1573 0605 56020000 		.4byte	0x256
 1574 0609 08       		.byte	0x8
 1575 060a 06       		.uleb128 0x6
 1576 060b 27070000 		.4byte	.LASF103
 1577 060f 0B       		.byte	0xb
 1578 0610 3E       		.byte	0x3e
 1579 0611 48060000 		.4byte	0x648
 1580 0615 0C       		.byte	0xc
 1581 0616 00       		.byte	0
 1582 0617 09       		.uleb128 0x9
 1583 0618 04       		.byte	0x4
 1584 0619 E6050000 		.4byte	0x5e6
 1585 061d 09       		.uleb128 0x9
 1586 061e 04       		.byte	0x4
 1587 061f 35030000 		.4byte	0x335
 1588 0623 14       		.uleb128 0x14
 1589 0624 3C010000 		.4byte	0x13c
 1590 0628 14       		.uleb128 0x14
 1591 0629 77040000 		.4byte	0x477
 1592 062d 15       		.uleb128 0x15
ARM GAS  /tmp/ccbCgXmb.s 			page 29


 1593 062e 93040000 		.4byte	0x493
 1594 0632 3D060000 		.4byte	0x63d
 1595 0636 16       		.uleb128 0x16
 1596 0637 69040000 		.4byte	0x469
 1597 063b 1A       		.byte	0x1a
 1598 063c 00       		.byte	0
 1599 063d 03       		.uleb128 0x3
 1600 063e 89010000 		.4byte	.LASF104
 1601 0642 0B       		.byte	0xb
 1602 0643 34       		.byte	0x34
 1603 0644 E6050000 		.4byte	0x5e6
 1604 0648 09       		.uleb128 0x9
 1605 0649 04       		.byte	0x4
 1606 064a 3D060000 		.4byte	0x63d
 1607 064e 09       		.uleb128 0x9
 1608 064f 04       		.byte	0x4
 1609 0650 54060000 		.4byte	0x654
 1610 0654 0F       		.uleb128 0xf
 1611 0655 A2000000 		.4byte	0xa2
 1612 0659 03       		.uleb128 0x3
 1613 065a 22090000 		.4byte	.LASF105
 1614 065e 0C       		.byte	0xc
 1615 065f 24       		.byte	0x24
 1616 0660 A2000000 		.4byte	0xa2
 1617 0664 02       		.uleb128 0x2
 1618 0665 01       		.byte	0x1
 1619 0666 02       		.byte	0x2
 1620 0667 4B050000 		.4byte	.LASF106
 1621 066b 15       		.uleb128 0x15
 1622 066c A2000000 		.4byte	0xa2
 1623 0670 7B060000 		.4byte	0x67b
 1624 0674 16       		.uleb128 0x16
 1625 0675 69040000 		.4byte	0x469
 1626 0679 07       		.byte	0x7
 1627 067a 00       		.byte	0
 1628 067b 15       		.uleb128 0x15
 1629 067c A2000000 		.4byte	0xa2
 1630 0680 8B060000 		.4byte	0x68b
 1631 0684 16       		.uleb128 0x16
 1632 0685 69040000 		.4byte	0x469
 1633 0689 7F       		.byte	0x7f
 1634 068a 00       		.byte	0
 1635 068b 0A       		.uleb128 0xa
 1636 068c 92030000 		.4byte	.LASF107
 1637 0690 18       		.byte	0x18
 1638 0691 0D       		.byte	0xd
 1639 0692 1402     		.2byte	0x214
 1640 0694 F4060000 		.4byte	0x6f4
 1641 0698 07       		.uleb128 0x7
 1642 0699 6F676600 		.ascii	"ogf\000"
 1643 069d 0D       		.byte	0xd
 1644 069e 1502     		.2byte	0x215
 1645 06a0 AD000000 		.4byte	0xad
 1646 06a4 00       		.byte	0
 1647 06a5 07       		.uleb128 0x7
 1648 06a6 6F636600 		.ascii	"ocf\000"
 1649 06aa 0D       		.byte	0xd
ARM GAS  /tmp/ccbCgXmb.s 			page 30


 1650 06ab 1602     		.2byte	0x216
 1651 06ad AD000000 		.4byte	0xad
 1652 06b1 02       		.byte	0x2
 1653 06b2 08       		.uleb128 0x8
 1654 06b3 AD030000 		.4byte	.LASF108
 1655 06b7 0D       		.byte	0xd
 1656 06b8 1702     		.2byte	0x217
 1657 06ba 94000000 		.4byte	0x94
 1658 06be 04       		.byte	0x4
 1659 06bf 08       		.uleb128 0x8
 1660 06c0 3F030000 		.4byte	.LASF109
 1661 06c4 0D       		.byte	0xd
 1662 06c5 1802     		.2byte	0x218
 1663 06c7 33030000 		.4byte	0x333
 1664 06cb 08       		.byte	0x8
 1665 06cc 08       		.uleb128 0x8
 1666 06cd A9040000 		.4byte	.LASF110
 1667 06d1 0D       		.byte	0xd
 1668 06d2 1902     		.2byte	0x219
 1669 06d4 94000000 		.4byte	0x94
 1670 06d8 0C       		.byte	0xc
 1671 06d9 08       		.uleb128 0x8
 1672 06da 04090000 		.4byte	.LASF111
 1673 06de 0D       		.byte	0xd
 1674 06df 1A02     		.2byte	0x21a
 1675 06e1 33030000 		.4byte	0x333
 1676 06e5 10       		.byte	0x10
 1677 06e6 08       		.uleb128 0x8
 1678 06e7 DF010000 		.4byte	.LASF112
 1679 06eb 0D       		.byte	0xd
 1680 06ec 1B02     		.2byte	0x21b
 1681 06ee 94000000 		.4byte	0x94
 1682 06f2 14       		.byte	0x14
 1683 06f3 00       		.byte	0
 1684 06f4 05       		.uleb128 0x5
 1685 06f5 6D080000 		.4byte	.LASF113
 1686 06f9 03       		.byte	0x3
 1687 06fa 0E       		.byte	0xe
 1688 06fb 1B       		.byte	0x1b
 1689 06fc 19070000 		.4byte	0x719
 1690 0700 06       		.uleb128 0x6
 1691 0701 0C080000 		.4byte	.LASF114
 1692 0705 0E       		.byte	0xe
 1693 0706 1C       		.byte	0x1c
 1694 0707 A2000000 		.4byte	0xa2
 1695 070b 00       		.byte	0
 1696 070c 06       		.uleb128 0x6
 1697 070d F7010000 		.4byte	.LASF115
 1698 0711 0E       		.byte	0xe
 1699 0712 1D       		.byte	0x1d
 1700 0713 AD000000 		.4byte	0xad
 1701 0717 01       		.byte	0x1
 1702 0718 00       		.byte	0
 1703 0719 03       		.uleb128 0x3
 1704 071a 40060000 		.4byte	.LASF116
 1705 071e 0E       		.byte	0xe
 1706 071f 1E       		.byte	0x1e
ARM GAS  /tmp/ccbCgXmb.s 			page 31


 1707 0720 F4060000 		.4byte	0x6f4
 1708 0724 05       		.uleb128 0x5
 1709 0725 12030000 		.4byte	.LASF117
 1710 0729 01       		.byte	0x1
 1711 072a 0E       		.byte	0xe
 1712 072b 22       		.byte	0x22
 1713 072c 3D070000 		.4byte	0x73d
 1714 0730 06       		.uleb128 0x6
 1715 0731 0D020000 		.4byte	.LASF88
 1716 0735 0E       		.byte	0xe
 1717 0736 23       		.byte	0x23
 1718 0737 A2000000 		.4byte	0xa2
 1719 073b 00       		.byte	0
 1720 073c 00       		.byte	0
 1721 073d 03       		.uleb128 0x3
 1722 073e E6080000 		.4byte	.LASF118
 1723 0742 0E       		.byte	0xe
 1724 0743 24       		.byte	0x24
 1725 0744 24070000 		.4byte	0x724
 1726 0748 05       		.uleb128 0x5
 1727 0749 5F020000 		.4byte	.LASF119
 1728 074d 80       		.byte	0x80
 1729 074e 0E       		.byte	0xe
 1730 074f 26       		.byte	0x26
 1731 0750 6D070000 		.4byte	0x76d
 1732 0754 06       		.uleb128 0x6
 1733 0755 0C080000 		.4byte	.LASF114
 1734 0759 0E       		.byte	0xe
 1735 075a 27       		.byte	0x27
 1736 075b A2000000 		.4byte	0xa2
 1737 075f 00       		.byte	0
 1738 0760 06       		.uleb128 0x6
 1739 0761 2A010000 		.4byte	.LASF120
 1740 0765 0E       		.byte	0xe
 1741 0766 28       		.byte	0x28
 1742 0767 6D070000 		.4byte	0x76d
 1743 076b 01       		.byte	0x1
 1744 076c 00       		.byte	0
 1745 076d 15       		.uleb128 0x15
 1746 076e A2000000 		.4byte	0xa2
 1747 0772 7D070000 		.4byte	0x77d
 1748 0776 16       		.uleb128 0x16
 1749 0777 69040000 		.4byte	0x469
 1750 077b 7E       		.byte	0x7e
 1751 077c 00       		.byte	0
 1752 077d 03       		.uleb128 0x3
 1753 077e 53030000 		.4byte	.LASF121
 1754 0782 0E       		.byte	0xe
 1755 0783 29       		.byte	0x29
 1756 0784 48070000 		.4byte	0x748
 1757 0788 05       		.uleb128 0x5
 1758 0789 52080000 		.4byte	.LASF122
 1759 078d 02       		.byte	0x2
 1760 078e 0E       		.byte	0xe
 1761 078f 2C       		.byte	0x2c
 1762 0790 AD070000 		.4byte	0x7ad
 1763 0794 06       		.uleb128 0x6
ARM GAS  /tmp/ccbCgXmb.s 			page 32


 1764 0795 A6080000 		.4byte	.LASF123
 1765 0799 0E       		.byte	0xe
 1766 079a 2D       		.byte	0x2d
 1767 079b A2000000 		.4byte	0xa2
 1768 079f 00       		.byte	0
 1769 07a0 06       		.uleb128 0x6
 1770 07a1 EF030000 		.4byte	.LASF124
 1771 07a5 0E       		.byte	0xe
 1772 07a6 2E       		.byte	0x2e
 1773 07a7 A2000000 		.4byte	0xa2
 1774 07ab 01       		.byte	0x1
 1775 07ac 00       		.byte	0
 1776 07ad 03       		.uleb128 0x3
 1777 07ae 3D020000 		.4byte	.LASF125
 1778 07b2 0E       		.byte	0xe
 1779 07b3 2F       		.byte	0x2f
 1780 07b4 88070000 		.4byte	0x788
 1781 07b8 05       		.uleb128 0x5
 1782 07b9 54040000 		.4byte	.LASF126
 1783 07bd 05       		.byte	0x5
 1784 07be 0E       		.byte	0xe
 1785 07bf 34       		.byte	0x34
 1786 07c0 DD070000 		.4byte	0x7dd
 1787 07c4 06       		.uleb128 0x6
 1788 07c5 0C080000 		.4byte	.LASF114
 1789 07c9 0E       		.byte	0xe
 1790 07ca 35       		.byte	0x35
 1791 07cb A2000000 		.4byte	0xa2
 1792 07cf 00       		.byte	0
 1793 07d0 06       		.uleb128 0x6
 1794 07d1 77010000 		.4byte	.LASF127
 1795 07d5 0E       		.byte	0xe
 1796 07d6 36       		.byte	0x36
 1797 07d7 C3000000 		.4byte	0xc3
 1798 07db 01       		.byte	0x1
 1799 07dc 00       		.byte	0
 1800 07dd 03       		.uleb128 0x3
 1801 07de 90070000 		.4byte	.LASF128
 1802 07e2 0E       		.byte	0xe
 1803 07e3 37       		.byte	0x37
 1804 07e4 B8070000 		.4byte	0x7b8
 1805 07e8 05       		.uleb128 0x5
 1806 07e9 E4010000 		.4byte	.LASF129
 1807 07ed 01       		.byte	0x1
 1808 07ee 0E       		.byte	0xe
 1809 07ef 3A       		.byte	0x3a
 1810 07f0 01080000 		.4byte	0x801
 1811 07f4 06       		.uleb128 0x6
 1812 07f5 89080000 		.4byte	.LASF130
 1813 07f9 0E       		.byte	0xe
 1814 07fa 3B       		.byte	0x3b
 1815 07fb A2000000 		.4byte	0xa2
 1816 07ff 00       		.byte	0
 1817 0800 00       		.byte	0
 1818 0801 03       		.uleb128 0x3
 1819 0802 7E070000 		.4byte	.LASF131
 1820 0806 0E       		.byte	0xe
ARM GAS  /tmp/ccbCgXmb.s 			page 33


 1821 0807 3C       		.byte	0x3c
 1822 0808 E8070000 		.4byte	0x7e8
 1823 080c 05       		.uleb128 0x5
 1824 080d 3C000000 		.4byte	.LASF132
 1825 0811 19       		.byte	0x19
 1826 0812 0E       		.byte	0xe
 1827 0813 41       		.byte	0x41
 1828 0814 3D080000 		.4byte	0x83d
 1829 0818 06       		.uleb128 0x6
 1830 0819 0C080000 		.4byte	.LASF114
 1831 081d 0E       		.byte	0xe
 1832 081e 42       		.byte	0x42
 1833 081f A2000000 		.4byte	0xa2
 1834 0823 00       		.byte	0
 1835 0824 06       		.uleb128 0x6
 1836 0825 55070000 		.4byte	.LASF133
 1837 0829 0E       		.byte	0xe
 1838 082a 43       		.byte	0x43
 1839 082b 6B060000 		.4byte	0x66b
 1840 082f 01       		.byte	0x1
 1841 0830 06       		.uleb128 0x6
 1842 0831 E1070000 		.4byte	.LASF134
 1843 0835 0E       		.byte	0xe
 1844 0836 44       		.byte	0x44
 1845 0837 3D080000 		.4byte	0x83d
 1846 083b 09       		.byte	0x9
 1847 083c 00       		.byte	0
 1848 083d 15       		.uleb128 0x15
 1849 083e AD000000 		.4byte	0xad
 1850 0842 4D080000 		.4byte	0x84d
 1851 0846 16       		.uleb128 0x16
 1852 0847 69040000 		.4byte	0x469
 1853 084b 07       		.byte	0x7
 1854 084c 00       		.byte	0
 1855 084d 03       		.uleb128 0x3
 1856 084e 24050000 		.4byte	.LASF135
 1857 0852 0E       		.byte	0xe
 1858 0853 45       		.byte	0x45
 1859 0854 0C080000 		.4byte	0x80c
 1860 0858 05       		.uleb128 0x5
 1861 0859 3D090000 		.4byte	.LASF136
 1862 085d 09       		.byte	0x9
 1863 085e 0E       		.byte	0xe
 1864 085f 48       		.byte	0x48
 1865 0860 89080000 		.4byte	0x889
 1866 0864 06       		.uleb128 0x6
 1867 0865 0C080000 		.4byte	.LASF114
 1868 0869 0E       		.byte	0xe
 1869 086a 49       		.byte	0x49
 1870 086b A2000000 		.4byte	0xa2
 1871 086f 00       		.byte	0
 1872 0870 06       		.uleb128 0x6
 1873 0871 B0070000 		.4byte	.LASF137
 1874 0875 0E       		.byte	0xe
 1875 0876 4A       		.byte	0x4a
 1876 0877 C3000000 		.4byte	0xc3
 1877 087b 01       		.byte	0x1
ARM GAS  /tmp/ccbCgXmb.s 			page 34


 1878 087c 06       		.uleb128 0x6
 1879 087d 5E000000 		.4byte	.LASF138
 1880 0881 0E       		.byte	0xe
 1881 0882 4B       		.byte	0x4b
 1882 0883 C3000000 		.4byte	0xc3
 1883 0887 05       		.byte	0x5
 1884 0888 00       		.byte	0
 1885 0889 03       		.uleb128 0x3
 1886 088a 00000000 		.4byte	.LASF139
 1887 088e 0E       		.byte	0xe
 1888 088f 4C       		.byte	0x4c
 1889 0890 58080000 		.4byte	0x858
 1890 0894 17       		.uleb128 0x17
 1891 0895 CA080000 		.4byte	.LASF140
 1892 0899 01       		.byte	0x1
 1893 089a 1E       		.byte	0x1e
 1894 089b 59060000 		.4byte	0x659
 1895 089f 00000000 		.4byte	.LFB269
 1896 08a3 5C000000 		.4byte	.LFE269-.LFB269
 1897 08a7 01       		.uleb128 0x1
 1898 08a8 9C       		.byte	0x9c
 1899 08a9 D6080000 		.4byte	0x8d6
 1900 08ad 18       		.uleb128 0x18
 1901 08ae F7010000 		.4byte	.LASF115
 1902 08b2 01       		.byte	0x1
 1903 08b3 1E       		.byte	0x1e
 1904 08b4 D6080000 		.4byte	0x8d6
 1905 08b8 02       		.uleb128 0x2
 1906 08b9 91       		.byte	0x91
 1907 08ba 54       		.sleb128 -44
 1908 08bb 19       		.uleb128 0x19
 1909 08bc 727100   		.ascii	"rq\000"
 1910 08bf 01       		.byte	0x1
 1911 08c0 20       		.byte	0x20
 1912 08c1 8B060000 		.4byte	0x68b
 1913 08c5 02       		.uleb128 0x2
 1914 08c6 91       		.byte	0x91
 1915 08c7 60       		.sleb128 -32
 1916 08c8 19       		.uleb128 0x19
 1917 08c9 727000   		.ascii	"rp\000"
 1918 08cc 01       		.byte	0x1
 1919 08cd 21       		.byte	0x21
 1920 08ce 19070000 		.4byte	0x719
 1921 08d2 02       		.uleb128 0x2
 1922 08d3 91       		.byte	0x91
 1923 08d4 5C       		.sleb128 -36
 1924 08d5 00       		.byte	0
 1925 08d6 09       		.uleb128 0x9
 1926 08d7 04       		.byte	0x4
 1927 08d8 AD000000 		.4byte	0xad
 1928 08dc 17       		.uleb128 0x17
 1929 08dd 7F000000 		.4byte	.LASF141
 1930 08e1 01       		.byte	0x1
 1931 08e2 34       		.byte	0x34
 1932 08e3 59060000 		.4byte	0x659
 1933 08e7 60000000 		.4byte	.LFB270
 1934 08eb CA000000 		.4byte	.LFE270-.LFB270
ARM GAS  /tmp/ccbCgXmb.s 			page 35


 1935 08ef 01       		.uleb128 0x1
 1936 08f0 9C       		.byte	0x9c
 1937 08f1 5B090000 		.4byte	0x95b
 1938 08f5 18       		.uleb128 0x18
 1939 08f6 0D020000 		.4byte	.LASF88
 1940 08fa 01       		.byte	0x1
 1941 08fb 34       		.byte	0x34
 1942 08fc A2000000 		.4byte	0xa2
 1943 0900 03       		.uleb128 0x3
 1944 0901 91       		.byte	0x91
 1945 0902 D77E     		.sleb128 -169
 1946 0904 1A       		.uleb128 0x1a
 1947 0905 6C656E00 		.ascii	"len\000"
 1948 0909 01       		.byte	0x1
 1949 090a 35       		.byte	0x35
 1950 090b A2000000 		.4byte	0xa2
 1951 090f 03       		.uleb128 0x3
 1952 0910 91       		.byte	0x91
 1953 0911 D67E     		.sleb128 -170
 1954 0913 1A       		.uleb128 0x1a
 1955 0914 76616C00 		.ascii	"val\000"
 1956 0918 01       		.byte	0x1
 1957 0919 36       		.byte	0x36
 1958 091a 4E060000 		.4byte	0x64e
 1959 091e 03       		.uleb128 0x3
 1960 091f 91       		.byte	0x91
 1961 0920 D07E     		.sleb128 -176
 1962 0922 19       		.uleb128 0x19
 1963 0923 727100   		.ascii	"rq\000"
 1964 0926 01       		.byte	0x1
 1965 0927 38       		.byte	0x38
 1966 0928 8B060000 		.4byte	0x68b
 1967 092c 02       		.uleb128 0x2
 1968 092d 91       		.byte	0x91
 1969 092e 5C       		.sleb128 -36
 1970 092f 1B       		.uleb128 0x1b
 1971 0930 0C080000 		.4byte	.LASF114
 1972 0934 01       		.byte	0x1
 1973 0935 39       		.byte	0x39
 1974 0936 A2000000 		.4byte	0xa2
 1975 093a 02       		.uleb128 0x2
 1976 093b 91       		.byte	0x91
 1977 093c 5B       		.sleb128 -37
 1978 093d 1B       		.uleb128 0x1b
 1979 093e 43070000 		.4byte	.LASF142
 1980 0942 01       		.byte	0x1
 1981 0943 3A       		.byte	0x3a
 1982 0944 7B060000 		.4byte	0x67b
 1983 0948 03       		.uleb128 0x3
 1984 0949 91       		.byte	0x91
 1985 094a D87E     		.sleb128 -168
 1986 094c 1B       		.uleb128 0x1b
 1987 094d E2030000 		.4byte	.LASF143
 1988 0951 01       		.byte	0x1
 1989 0952 3B       		.byte	0x3b
 1990 0953 A2000000 		.4byte	0xa2
 1991 0957 02       		.uleb128 0x2
ARM GAS  /tmp/ccbCgXmb.s 			page 36


 1992 0958 91       		.byte	0x91
 1993 0959 77       		.sleb128 -9
 1994 095a 00       		.byte	0
 1995 095b 17       		.uleb128 0x17
 1996 095c 14020000 		.4byte	.LASF144
 1997 0960 01       		.byte	0x1
 1998 0961 57       		.byte	0x57
 1999 0962 59060000 		.4byte	0x659
 2000 0966 30010000 		.4byte	.LFB271
 2001 096a 9C000000 		.4byte	.LFE271-.LFB271
 2002 096e 01       		.uleb128 0x1
 2003 096f 9C       		.byte	0x9c
 2004 0970 D9090000 		.4byte	0x9d9
 2005 0974 18       		.uleb128 0x18
 2006 0975 0D020000 		.4byte	.LASF88
 2007 0979 01       		.byte	0x1
 2008 097a 57       		.byte	0x57
 2009 097b A2000000 		.4byte	0xa2
 2010 097f 03       		.uleb128 0x3
 2011 0980 91       		.byte	0x91
 2012 0981 D77E     		.sleb128 -169
 2013 0983 18       		.uleb128 0x18
 2014 0984 78060000 		.4byte	.LASF145
 2015 0988 01       		.byte	0x1
 2016 0989 57       		.byte	0x57
 2017 098a AD000000 		.4byte	0xad
 2018 098e 03       		.uleb128 0x3
 2019 098f 91       		.byte	0x91
 2020 0990 D47E     		.sleb128 -172
 2021 0992 18       		.uleb128 0x18
 2022 0993 13080000 		.4byte	.LASF146
 2023 0997 01       		.byte	0x1
 2024 0998 57       		.byte	0x57
 2025 0999 82040000 		.4byte	0x482
 2026 099d 03       		.uleb128 0x3
 2027 099e 91       		.byte	0x91
 2028 099f D07E     		.sleb128 -176
 2029 09a1 18       		.uleb128 0x18
 2030 09a2 2A010000 		.4byte	.LASF120
 2031 09a6 01       		.byte	0x1
 2032 09a7 57       		.byte	0x57
 2033 09a8 82040000 		.4byte	0x482
 2034 09ac 03       		.uleb128 0x3
 2035 09ad 91       		.byte	0x91
 2036 09ae CC7E     		.sleb128 -180
 2037 09b0 19       		.uleb128 0x19
 2038 09b1 727100   		.ascii	"rq\000"
 2039 09b4 01       		.byte	0x1
 2040 09b5 59       		.byte	0x59
 2041 09b6 8B060000 		.4byte	0x68b
 2042 09ba 02       		.uleb128 0x2
 2043 09bb 91       		.byte	0x91
 2044 09bc 60       		.sleb128 -32
 2045 09bd 19       		.uleb128 0x19
 2046 09be 637000   		.ascii	"cp\000"
 2047 09c1 01       		.byte	0x1
 2048 09c2 5A       		.byte	0x5a
ARM GAS  /tmp/ccbCgXmb.s 			page 37


 2049 09c3 3D070000 		.4byte	0x73d
 2050 09c7 02       		.uleb128 0x2
 2051 09c8 91       		.byte	0x91
 2052 09c9 5C       		.sleb128 -36
 2053 09ca 19       		.uleb128 0x19
 2054 09cb 727000   		.ascii	"rp\000"
 2055 09ce 01       		.byte	0x1
 2056 09cf 5B       		.byte	0x5b
 2057 09d0 7D070000 		.4byte	0x77d
 2058 09d4 03       		.uleb128 0x3
 2059 09d5 91       		.byte	0x91
 2060 09d6 DC7E     		.sleb128 -164
 2061 09d8 00       		.byte	0
 2062 09d9 17       		.uleb128 0x17
 2063 09da 99000000 		.4byte	.LASF147
 2064 09de 01       		.byte	0x1
 2065 09df 74       		.byte	0x74
 2066 09e0 59060000 		.4byte	0x659
 2067 09e4 D0010000 		.4byte	.LFB272
 2068 09e8 6A000000 		.4byte	.LFE272-.LFB272
 2069 09ec 01       		.uleb128 0x1
 2070 09ed 9C       		.byte	0x9c
 2071 09ee 370A0000 		.4byte	0xa37
 2072 09f2 18       		.uleb128 0x18
 2073 09f3 A6080000 		.4byte	.LASF123
 2074 09f7 01       		.byte	0x1
 2075 09f8 74       		.byte	0x74
 2076 09f9 A2000000 		.4byte	0xa2
 2077 09fd 02       		.uleb128 0x2
 2078 09fe 91       		.byte	0x91
 2079 09ff 57       		.sleb128 -41
 2080 0a00 18       		.uleb128 0x18
 2081 0a01 EF030000 		.4byte	.LASF124
 2082 0a05 01       		.byte	0x1
 2083 0a06 74       		.byte	0x74
 2084 0a07 A2000000 		.4byte	0xa2
 2085 0a0b 02       		.uleb128 0x2
 2086 0a0c 91       		.byte	0x91
 2087 0a0d 56       		.sleb128 -42
 2088 0a0e 19       		.uleb128 0x19
 2089 0a0f 727100   		.ascii	"rq\000"
 2090 0a12 01       		.byte	0x1
 2091 0a13 76       		.byte	0x76
 2092 0a14 8B060000 		.4byte	0x68b
 2093 0a18 02       		.uleb128 0x2
 2094 0a19 91       		.byte	0x91
 2095 0a1a 60       		.sleb128 -32
 2096 0a1b 19       		.uleb128 0x19
 2097 0a1c 637000   		.ascii	"cp\000"
 2098 0a1f 01       		.byte	0x1
 2099 0a20 77       		.byte	0x77
 2100 0a21 AD070000 		.4byte	0x7ad
 2101 0a25 02       		.uleb128 0x2
 2102 0a26 91       		.byte	0x91
 2103 0a27 5C       		.sleb128 -36
 2104 0a28 1B       		.uleb128 0x1b
 2105 0a29 0C080000 		.4byte	.LASF114
ARM GAS  /tmp/ccbCgXmb.s 			page 38


 2106 0a2d 01       		.byte	0x1
 2107 0a2e 78       		.byte	0x78
 2108 0a2f A2000000 		.4byte	0xa2
 2109 0a33 02       		.uleb128 0x2
 2110 0a34 91       		.byte	0x91
 2111 0a35 5B       		.sleb128 -37
 2112 0a36 00       		.byte	0
 2113 0a37 17       		.uleb128 0x17
 2114 0a38 DC040000 		.4byte	.LASF148
 2115 0a3c 01       		.byte	0x1
 2116 0a3d 8B       		.byte	0x8b
 2117 0a3e 59060000 		.4byte	0x659
 2118 0a42 40020000 		.4byte	.LFB273
 2119 0a46 5A000000 		.4byte	.LFE273-.LFB273
 2120 0a4a 01       		.uleb128 0x1
 2121 0a4b 9C       		.byte	0x9c
 2122 0a4c 7A0A0000 		.4byte	0xa7a
 2123 0a50 18       		.uleb128 0x18
 2124 0a51 77010000 		.4byte	.LASF127
 2125 0a55 01       		.byte	0x1
 2126 0a56 8B       		.byte	0x8b
 2127 0a57 7A0A0000 		.4byte	0xa7a
 2128 0a5b 02       		.uleb128 0x2
 2129 0a5c 91       		.byte	0x91
 2130 0a5d 54       		.sleb128 -44
 2131 0a5e 19       		.uleb128 0x19
 2132 0a5f 727100   		.ascii	"rq\000"
 2133 0a62 01       		.byte	0x1
 2134 0a63 8D       		.byte	0x8d
 2135 0a64 8B060000 		.4byte	0x68b
 2136 0a68 02       		.uleb128 0x2
 2137 0a69 91       		.byte	0x91
 2138 0a6a 60       		.sleb128 -32
 2139 0a6b 1B       		.uleb128 0x1b
 2140 0a6c 3A030000 		.4byte	.LASF149
 2141 0a70 01       		.byte	0x1
 2142 0a71 8E       		.byte	0x8e
 2143 0a72 DD070000 		.4byte	0x7dd
 2144 0a76 02       		.uleb128 0x2
 2145 0a77 91       		.byte	0x91
 2146 0a78 58       		.sleb128 -40
 2147 0a79 00       		.byte	0
 2148 0a7a 09       		.uleb128 0x9
 2149 0a7b 04       		.byte	0x4
 2150 0a7c C3000000 		.4byte	0xc3
 2151 0a80 17       		.uleb128 0x17
 2152 0a81 0B090000 		.4byte	.LASF150
 2153 0a85 01       		.byte	0x1
 2154 0a86 A2       		.byte	0xa2
 2155 0a87 59060000 		.4byte	0x659
 2156 0a8b A0020000 		.4byte	.LFB274
 2157 0a8f 46000000 		.4byte	.LFE274-.LFB274
 2158 0a93 01       		.uleb128 0x1
 2159 0a94 9C       		.byte	0x9c
 2160 0a95 B50A0000 		.4byte	0xab5
 2161 0a99 19       		.uleb128 0x19
 2162 0a9a 727100   		.ascii	"rq\000"
ARM GAS  /tmp/ccbCgXmb.s 			page 39


 2163 0a9d 01       		.byte	0x1
 2164 0a9e A4       		.byte	0xa4
 2165 0a9f 8B060000 		.4byte	0x68b
 2166 0aa3 02       		.uleb128 0x2
 2167 0aa4 91       		.byte	0x91
 2168 0aa5 60       		.sleb128 -32
 2169 0aa6 1B       		.uleb128 0x1b
 2170 0aa7 0C080000 		.4byte	.LASF114
 2171 0aab 01       		.byte	0x1
 2172 0aac A5       		.byte	0xa5
 2173 0aad A2000000 		.4byte	0xa2
 2174 0ab1 02       		.uleb128 0x2
 2175 0ab2 91       		.byte	0x91
 2176 0ab3 5F       		.sleb128 -33
 2177 0ab4 00       		.byte	0
 2178 0ab5 17       		.uleb128 0x17
 2179 0ab6 6B070000 		.4byte	.LASF151
 2180 0aba 01       		.byte	0x1
 2181 0abb B3       		.byte	0xb3
 2182 0abc 59060000 		.4byte	0x659
 2183 0ac0 F0020000 		.4byte	.LFB275
 2184 0ac4 5C000000 		.4byte	.LFE275-.LFB275
 2185 0ac8 01       		.uleb128 0x1
 2186 0ac9 9C       		.byte	0x9c
 2187 0aca 050B0000 		.4byte	0xb05
 2188 0ace 18       		.uleb128 0x18
 2189 0acf 89080000 		.4byte	.LASF130
 2190 0ad3 01       		.byte	0x1
 2191 0ad4 B3       		.byte	0xb3
 2192 0ad5 A2000000 		.4byte	0xa2
 2193 0ad9 02       		.uleb128 0x2
 2194 0ada 91       		.byte	0x91
 2195 0adb 57       		.sleb128 -41
 2196 0adc 19       		.uleb128 0x19
 2197 0add 727100   		.ascii	"rq\000"
 2198 0ae0 01       		.byte	0x1
 2199 0ae1 B5       		.byte	0xb5
 2200 0ae2 8B060000 		.4byte	0x68b
 2201 0ae6 02       		.uleb128 0x2
 2202 0ae7 91       		.byte	0x91
 2203 0ae8 60       		.sleb128 -32
 2204 0ae9 19       		.uleb128 0x19
 2205 0aea 637000   		.ascii	"cp\000"
 2206 0aed 01       		.byte	0x1
 2207 0aee B6       		.byte	0xb6
 2208 0aef 01080000 		.4byte	0x801
 2209 0af3 02       		.uleb128 0x2
 2210 0af4 91       		.byte	0x91
 2211 0af5 5C       		.sleb128 -36
 2212 0af6 1B       		.uleb128 0x1b
 2213 0af7 0C080000 		.4byte	.LASF114
 2214 0afb 01       		.byte	0x1
 2215 0afc B7       		.byte	0xb7
 2216 0afd A2000000 		.4byte	0xa2
 2217 0b01 02       		.uleb128 0x2
 2218 0b02 91       		.byte	0x91
 2219 0b03 5B       		.sleb128 -37
ARM GAS  /tmp/ccbCgXmb.s 			page 40


 2220 0b04 00       		.byte	0
 2221 0b05 17       		.uleb128 0x17
 2222 0b06 1C040000 		.4byte	.LASF152
 2223 0b0a 01       		.byte	0x1
 2224 0b0b C9       		.byte	0xc9
 2225 0b0c 59060000 		.4byte	0x659
 2226 0b10 50030000 		.4byte	.LFB276
 2227 0b14 46000000 		.4byte	.LFE276-.LFB276
 2228 0b18 01       		.uleb128 0x1
 2229 0b19 9C       		.byte	0x9c
 2230 0b1a 3A0B0000 		.4byte	0xb3a
 2231 0b1e 19       		.uleb128 0x19
 2232 0b1f 727100   		.ascii	"rq\000"
 2233 0b22 01       		.byte	0x1
 2234 0b23 CB       		.byte	0xcb
 2235 0b24 8B060000 		.4byte	0x68b
 2236 0b28 02       		.uleb128 0x2
 2237 0b29 91       		.byte	0x91
 2238 0b2a 60       		.sleb128 -32
 2239 0b2b 1B       		.uleb128 0x1b
 2240 0b2c 0C080000 		.4byte	.LASF114
 2241 0b30 01       		.byte	0x1
 2242 0b31 CC       		.byte	0xcc
 2243 0b32 A2000000 		.4byte	0xa2
 2244 0b36 02       		.uleb128 0x2
 2245 0b37 91       		.byte	0x91
 2246 0b38 5F       		.sleb128 -33
 2247 0b39 00       		.byte	0
 2248 0b3a 17       		.uleb128 0x17
 2249 0b3b ED070000 		.4byte	.LASF153
 2250 0b3f 01       		.byte	0x1
 2251 0b40 DA       		.byte	0xda
 2252 0b41 59060000 		.4byte	0x659
 2253 0b45 A0030000 		.4byte	.LFB277
 2254 0b49 8E000000 		.4byte	.LFE277-.LFB277
 2255 0b4d 01       		.uleb128 0x1
 2256 0b4e 9C       		.byte	0x9c
 2257 0b4f A20B0000 		.4byte	0xba2
 2258 0b53 18       		.uleb128 0x18
 2259 0b54 55070000 		.4byte	.LASF133
 2260 0b58 01       		.byte	0x1
 2261 0b59 DA       		.byte	0xda
 2262 0b5a 82040000 		.4byte	0x482
 2263 0b5e 03       		.uleb128 0x3
 2264 0b5f 91       		.byte	0x91
 2265 0b60 BC7F     		.sleb128 -68
 2266 0b62 18       		.uleb128 0x18
 2267 0b63 E1070000 		.4byte	.LASF134
 2268 0b67 01       		.byte	0x1
 2269 0b68 DA       		.byte	0xda
 2270 0b69 D6080000 		.4byte	0x8d6
 2271 0b6d 03       		.uleb128 0x3
 2272 0b6e 91       		.byte	0x91
 2273 0b6f B87F     		.sleb128 -72
 2274 0b71 19       		.uleb128 0x19
 2275 0b72 727100   		.ascii	"rq\000"
 2276 0b75 01       		.byte	0x1
ARM GAS  /tmp/ccbCgXmb.s 			page 41


 2277 0b76 DC       		.byte	0xdc
 2278 0b77 8B060000 		.4byte	0x68b
 2279 0b7b 02       		.uleb128 0x2
 2280 0b7c 91       		.byte	0x91
 2281 0b7d 5C       		.sleb128 -36
 2282 0b7e 19       		.uleb128 0x19
 2283 0b7f 727000   		.ascii	"rp\000"
 2284 0b82 01       		.byte	0x1
 2285 0b83 DD       		.byte	0xdd
 2286 0b84 4D080000 		.4byte	0x84d
 2287 0b88 02       		.uleb128 0x2
 2288 0b89 91       		.byte	0x91
 2289 0b8a 40       		.sleb128 -64
 2290 0b8b 1C       		.uleb128 0x1c
 2291 0b8c F8030000 		.4byte	.LBB2
 2292 0b90 2C000000 		.4byte	.LBE2-.LBB2
 2293 0b94 19       		.uleb128 0x19
 2294 0b95 6900     		.ascii	"i\000"
 2295 0b97 01       		.byte	0x1
 2296 0b98 EC       		.byte	0xec
 2297 0b99 94000000 		.4byte	0x94
 2298 0b9d 02       		.uleb128 0x2
 2299 0b9e 91       		.byte	0x91
 2300 0b9f 74       		.sleb128 -12
 2301 0ba0 00       		.byte	0
 2302 0ba1 00       		.byte	0
 2303 0ba2 17       		.uleb128 0x17
 2304 0ba3 22080000 		.4byte	.LASF154
 2305 0ba7 01       		.byte	0x1
 2306 0ba8 F2       		.byte	0xf2
 2307 0ba9 59060000 		.4byte	0x659
 2308 0bad 30040000 		.4byte	.LFB278
 2309 0bb1 64000000 		.4byte	.LFE278-.LFB278
 2310 0bb5 01       		.uleb128 0x1
 2311 0bb6 9C       		.byte	0x9c
 2312 0bb7 F20B0000 		.4byte	0xbf2
 2313 0bbb 18       		.uleb128 0x18
 2314 0bbc B0070000 		.4byte	.LASF137
 2315 0bc0 01       		.byte	0x1
 2316 0bc1 F2       		.byte	0xf2
 2317 0bc2 7A0A0000 		.4byte	0xa7a
 2318 0bc6 02       		.uleb128 0x2
 2319 0bc7 91       		.byte	0x91
 2320 0bc8 4C       		.sleb128 -52
 2321 0bc9 18       		.uleb128 0x18
 2322 0bca 5E000000 		.4byte	.LASF138
 2323 0bce 01       		.byte	0x1
 2324 0bcf F2       		.byte	0xf2
 2325 0bd0 7A0A0000 		.4byte	0xa7a
 2326 0bd4 02       		.uleb128 0x2
 2327 0bd5 91       		.byte	0x91
 2328 0bd6 48       		.sleb128 -56
 2329 0bd7 19       		.uleb128 0x19
 2330 0bd8 727100   		.ascii	"rq\000"
 2331 0bdb 01       		.byte	0x1
 2332 0bdc F4       		.byte	0xf4
 2333 0bdd 8B060000 		.4byte	0x68b
ARM GAS  /tmp/ccbCgXmb.s 			page 42


 2334 0be1 02       		.uleb128 0x2
 2335 0be2 91       		.byte	0x91
 2336 0be3 60       		.sleb128 -32
 2337 0be4 19       		.uleb128 0x19
 2338 0be5 727000   		.ascii	"rp\000"
 2339 0be8 01       		.byte	0x1
 2340 0be9 F5       		.byte	0xf5
 2341 0bea 89080000 		.4byte	0x889
 2342 0bee 02       		.uleb128 0x2
 2343 0bef 91       		.byte	0x91
 2344 0bf0 54       		.sleb128 -44
 2345 0bf1 00       		.byte	0
 2346 0bf2 1D       		.uleb128 0x1d
 2347 0bf3 59010000 		.4byte	.LASF155
 2348 0bf7 0F       		.byte	0xf
 2349 0bf8 FA06     		.2byte	0x6fa
 2350 0bfa FE0B0000 		.4byte	0xbfe
 2351 0bfe 14       		.uleb128 0x14
 2352 0bff B8000000 		.4byte	0xb8
 2353 0c03 1E       		.uleb128 0x1e
 2354 0c04 636800   		.ascii	"ch\000"
 2355 0c07 06       		.byte	0x6
 2356 0c08 0902     		.2byte	0x209
 2357 0c0a 02040000 		.4byte	0x402
 2358 0c0e 00       		.byte	0
 2359              		.section	.debug_abbrev,"",%progbits
 2360              	.Ldebug_abbrev0:
 2361 0000 01       		.uleb128 0x1
 2362 0001 11       		.uleb128 0x11
 2363 0002 01       		.byte	0x1
 2364 0003 25       		.uleb128 0x25
 2365 0004 0E       		.uleb128 0xe
 2366 0005 13       		.uleb128 0x13
 2367 0006 0B       		.uleb128 0xb
 2368 0007 03       		.uleb128 0x3
 2369 0008 0E       		.uleb128 0xe
 2370 0009 1B       		.uleb128 0x1b
 2371 000a 0E       		.uleb128 0xe
 2372 000b 11       		.uleb128 0x11
 2373 000c 01       		.uleb128 0x1
 2374 000d 12       		.uleb128 0x12
 2375 000e 06       		.uleb128 0x6
 2376 000f 10       		.uleb128 0x10
 2377 0010 17       		.uleb128 0x17
 2378 0011 00       		.byte	0
 2379 0012 00       		.byte	0
 2380 0013 02       		.uleb128 0x2
 2381 0014 24       		.uleb128 0x24
 2382 0015 00       		.byte	0
 2383 0016 0B       		.uleb128 0xb
 2384 0017 0B       		.uleb128 0xb
 2385 0018 3E       		.uleb128 0x3e
 2386 0019 0B       		.uleb128 0xb
 2387 001a 03       		.uleb128 0x3
 2388 001b 0E       		.uleb128 0xe
 2389 001c 00       		.byte	0
 2390 001d 00       		.byte	0
ARM GAS  /tmp/ccbCgXmb.s 			page 43


 2391 001e 03       		.uleb128 0x3
 2392 001f 16       		.uleb128 0x16
 2393 0020 00       		.byte	0
 2394 0021 03       		.uleb128 0x3
 2395 0022 0E       		.uleb128 0xe
 2396 0023 3A       		.uleb128 0x3a
 2397 0024 0B       		.uleb128 0xb
 2398 0025 3B       		.uleb128 0x3b
 2399 0026 0B       		.uleb128 0xb
 2400 0027 49       		.uleb128 0x49
 2401 0028 13       		.uleb128 0x13
 2402 0029 00       		.byte	0
 2403 002a 00       		.byte	0
 2404 002b 04       		.uleb128 0x4
 2405 002c 24       		.uleb128 0x24
 2406 002d 00       		.byte	0
 2407 002e 0B       		.uleb128 0xb
 2408 002f 0B       		.uleb128 0xb
 2409 0030 3E       		.uleb128 0x3e
 2410 0031 0B       		.uleb128 0xb
 2411 0032 03       		.uleb128 0x3
 2412 0033 08       		.uleb128 0x8
 2413 0034 00       		.byte	0
 2414 0035 00       		.byte	0
 2415 0036 05       		.uleb128 0x5
 2416 0037 13       		.uleb128 0x13
 2417 0038 01       		.byte	0x1
 2418 0039 03       		.uleb128 0x3
 2419 003a 0E       		.uleb128 0xe
 2420 003b 0B       		.uleb128 0xb
 2421 003c 0B       		.uleb128 0xb
 2422 003d 3A       		.uleb128 0x3a
 2423 003e 0B       		.uleb128 0xb
 2424 003f 3B       		.uleb128 0x3b
 2425 0040 0B       		.uleb128 0xb
 2426 0041 01       		.uleb128 0x1
 2427 0042 13       		.uleb128 0x13
 2428 0043 00       		.byte	0
 2429 0044 00       		.byte	0
 2430 0045 06       		.uleb128 0x6
 2431 0046 0D       		.uleb128 0xd
 2432 0047 00       		.byte	0
 2433 0048 03       		.uleb128 0x3
 2434 0049 0E       		.uleb128 0xe
 2435 004a 3A       		.uleb128 0x3a
 2436 004b 0B       		.uleb128 0xb
 2437 004c 3B       		.uleb128 0x3b
 2438 004d 0B       		.uleb128 0xb
 2439 004e 49       		.uleb128 0x49
 2440 004f 13       		.uleb128 0x13
 2441 0050 38       		.uleb128 0x38
 2442 0051 0B       		.uleb128 0xb
 2443 0052 00       		.byte	0
 2444 0053 00       		.byte	0
 2445 0054 07       		.uleb128 0x7
 2446 0055 0D       		.uleb128 0xd
 2447 0056 00       		.byte	0
ARM GAS  /tmp/ccbCgXmb.s 			page 44


 2448 0057 03       		.uleb128 0x3
 2449 0058 08       		.uleb128 0x8
 2450 0059 3A       		.uleb128 0x3a
 2451 005a 0B       		.uleb128 0xb
 2452 005b 3B       		.uleb128 0x3b
 2453 005c 05       		.uleb128 0x5
 2454 005d 49       		.uleb128 0x49
 2455 005e 13       		.uleb128 0x13
 2456 005f 38       		.uleb128 0x38
 2457 0060 0B       		.uleb128 0xb
 2458 0061 00       		.byte	0
 2459 0062 00       		.byte	0
 2460 0063 08       		.uleb128 0x8
 2461 0064 0D       		.uleb128 0xd
 2462 0065 00       		.byte	0
 2463 0066 03       		.uleb128 0x3
 2464 0067 0E       		.uleb128 0xe
 2465 0068 3A       		.uleb128 0x3a
 2466 0069 0B       		.uleb128 0xb
 2467 006a 3B       		.uleb128 0x3b
 2468 006b 05       		.uleb128 0x5
 2469 006c 49       		.uleb128 0x49
 2470 006d 13       		.uleb128 0x13
 2471 006e 38       		.uleb128 0x38
 2472 006f 0B       		.uleb128 0xb
 2473 0070 00       		.byte	0
 2474 0071 00       		.byte	0
 2475 0072 09       		.uleb128 0x9
 2476 0073 0F       		.uleb128 0xf
 2477 0074 00       		.byte	0
 2478 0075 0B       		.uleb128 0xb
 2479 0076 0B       		.uleb128 0xb
 2480 0077 49       		.uleb128 0x49
 2481 0078 13       		.uleb128 0x13
 2482 0079 00       		.byte	0
 2483 007a 00       		.byte	0
 2484 007b 0A       		.uleb128 0xa
 2485 007c 13       		.uleb128 0x13
 2486 007d 01       		.byte	0x1
 2487 007e 03       		.uleb128 0x3
 2488 007f 0E       		.uleb128 0xe
 2489 0080 0B       		.uleb128 0xb
 2490 0081 0B       		.uleb128 0xb
 2491 0082 3A       		.uleb128 0x3a
 2492 0083 0B       		.uleb128 0xb
 2493 0084 3B       		.uleb128 0x3b
 2494 0085 05       		.uleb128 0x5
 2495 0086 01       		.uleb128 0x1
 2496 0087 13       		.uleb128 0x13
 2497 0088 00       		.byte	0
 2498 0089 00       		.byte	0
 2499 008a 0B       		.uleb128 0xb
 2500 008b 15       		.uleb128 0x15
 2501 008c 01       		.byte	0x1
 2502 008d 27       		.uleb128 0x27
 2503 008e 19       		.uleb128 0x19
 2504 008f 01       		.uleb128 0x1
ARM GAS  /tmp/ccbCgXmb.s 			page 45


 2505 0090 13       		.uleb128 0x13
 2506 0091 00       		.byte	0
 2507 0092 00       		.byte	0
 2508 0093 0C       		.uleb128 0xc
 2509 0094 05       		.uleb128 0x5
 2510 0095 00       		.byte	0
 2511 0096 49       		.uleb128 0x49
 2512 0097 13       		.uleb128 0x13
 2513 0098 00       		.byte	0
 2514 0099 00       		.byte	0
 2515 009a 0D       		.uleb128 0xd
 2516 009b 0F       		.uleb128 0xf
 2517 009c 00       		.byte	0
 2518 009d 0B       		.uleb128 0xb
 2519 009e 0B       		.uleb128 0xb
 2520 009f 00       		.byte	0
 2521 00a0 00       		.byte	0
 2522 00a1 0E       		.uleb128 0xe
 2523 00a2 13       		.uleb128 0x13
 2524 00a3 01       		.byte	0x1
 2525 00a4 03       		.uleb128 0x3
 2526 00a5 0E       		.uleb128 0xe
 2527 00a6 0B       		.uleb128 0xb
 2528 00a7 05       		.uleb128 0x5
 2529 00a8 3A       		.uleb128 0x3a
 2530 00a9 0B       		.uleb128 0xb
 2531 00aa 3B       		.uleb128 0x3b
 2532 00ab 05       		.uleb128 0x5
 2533 00ac 01       		.uleb128 0x1
 2534 00ad 13       		.uleb128 0x13
 2535 00ae 00       		.byte	0
 2536 00af 00       		.byte	0
 2537 00b0 0F       		.uleb128 0xf
 2538 00b1 26       		.uleb128 0x26
 2539 00b2 00       		.byte	0
 2540 00b3 49       		.uleb128 0x49
 2541 00b4 13       		.uleb128 0x13
 2542 00b5 00       		.byte	0
 2543 00b6 00       		.byte	0
 2544 00b7 10       		.uleb128 0x10
 2545 00b8 0D       		.uleb128 0xd
 2546 00b9 00       		.byte	0
 2547 00ba 03       		.uleb128 0x3
 2548 00bb 08       		.uleb128 0x8
 2549 00bc 3A       		.uleb128 0x3a
 2550 00bd 0B       		.uleb128 0xb
 2551 00be 3B       		.uleb128 0x3b
 2552 00bf 0B       		.uleb128 0xb
 2553 00c0 49       		.uleb128 0x49
 2554 00c1 13       		.uleb128 0x13
 2555 00c2 38       		.uleb128 0x38
 2556 00c3 0B       		.uleb128 0xb
 2557 00c4 00       		.byte	0
 2558 00c5 00       		.byte	0
 2559 00c6 11       		.uleb128 0x11
 2560 00c7 13       		.uleb128 0x13
 2561 00c8 01       		.byte	0x1
ARM GAS  /tmp/ccbCgXmb.s 			page 46


 2562 00c9 0B       		.uleb128 0xb
 2563 00ca 0B       		.uleb128 0xb
 2564 00cb 3A       		.uleb128 0x3a
 2565 00cc 0B       		.uleb128 0xb
 2566 00cd 3B       		.uleb128 0x3b
 2567 00ce 0B       		.uleb128 0xb
 2568 00cf 01       		.uleb128 0x1
 2569 00d0 13       		.uleb128 0x13
 2570 00d1 00       		.byte	0
 2571 00d2 00       		.byte	0
 2572 00d3 12       		.uleb128 0x12
 2573 00d4 17       		.uleb128 0x17
 2574 00d5 01       		.byte	0x1
 2575 00d6 0B       		.uleb128 0xb
 2576 00d7 0B       		.uleb128 0xb
 2577 00d8 3A       		.uleb128 0x3a
 2578 00d9 0B       		.uleb128 0xb
 2579 00da 3B       		.uleb128 0x3b
 2580 00db 0B       		.uleb128 0xb
 2581 00dc 01       		.uleb128 0x1
 2582 00dd 13       		.uleb128 0x13
 2583 00de 00       		.byte	0
 2584 00df 00       		.byte	0
 2585 00e0 13       		.uleb128 0x13
 2586 00e1 0D       		.uleb128 0xd
 2587 00e2 00       		.byte	0
 2588 00e3 03       		.uleb128 0x3
 2589 00e4 0E       		.uleb128 0xe
 2590 00e5 3A       		.uleb128 0x3a
 2591 00e6 0B       		.uleb128 0xb
 2592 00e7 3B       		.uleb128 0x3b
 2593 00e8 05       		.uleb128 0x5
 2594 00e9 49       		.uleb128 0x49
 2595 00ea 13       		.uleb128 0x13
 2596 00eb 00       		.byte	0
 2597 00ec 00       		.byte	0
 2598 00ed 14       		.uleb128 0x14
 2599 00ee 35       		.uleb128 0x35
 2600 00ef 00       		.byte	0
 2601 00f0 49       		.uleb128 0x49
 2602 00f1 13       		.uleb128 0x13
 2603 00f2 00       		.byte	0
 2604 00f3 00       		.byte	0
 2605 00f4 15       		.uleb128 0x15
 2606 00f5 01       		.uleb128 0x1
 2607 00f6 01       		.byte	0x1
 2608 00f7 49       		.uleb128 0x49
 2609 00f8 13       		.uleb128 0x13
 2610 00f9 01       		.uleb128 0x1
 2611 00fa 13       		.uleb128 0x13
 2612 00fb 00       		.byte	0
 2613 00fc 00       		.byte	0
 2614 00fd 16       		.uleb128 0x16
 2615 00fe 21       		.uleb128 0x21
 2616 00ff 00       		.byte	0
 2617 0100 49       		.uleb128 0x49
 2618 0101 13       		.uleb128 0x13
ARM GAS  /tmp/ccbCgXmb.s 			page 47


 2619 0102 2F       		.uleb128 0x2f
 2620 0103 0B       		.uleb128 0xb
 2621 0104 00       		.byte	0
 2622 0105 00       		.byte	0
 2623 0106 17       		.uleb128 0x17
 2624 0107 2E       		.uleb128 0x2e
 2625 0108 01       		.byte	0x1
 2626 0109 3F       		.uleb128 0x3f
 2627 010a 19       		.uleb128 0x19
 2628 010b 03       		.uleb128 0x3
 2629 010c 0E       		.uleb128 0xe
 2630 010d 3A       		.uleb128 0x3a
 2631 010e 0B       		.uleb128 0xb
 2632 010f 3B       		.uleb128 0x3b
 2633 0110 0B       		.uleb128 0xb
 2634 0111 27       		.uleb128 0x27
 2635 0112 19       		.uleb128 0x19
 2636 0113 49       		.uleb128 0x49
 2637 0114 13       		.uleb128 0x13
 2638 0115 11       		.uleb128 0x11
 2639 0116 01       		.uleb128 0x1
 2640 0117 12       		.uleb128 0x12
 2641 0118 06       		.uleb128 0x6
 2642 0119 40       		.uleb128 0x40
 2643 011a 18       		.uleb128 0x18
 2644 011b 9642     		.uleb128 0x2116
 2645 011d 19       		.uleb128 0x19
 2646 011e 01       		.uleb128 0x1
 2647 011f 13       		.uleb128 0x13
 2648 0120 00       		.byte	0
 2649 0121 00       		.byte	0
 2650 0122 18       		.uleb128 0x18
 2651 0123 05       		.uleb128 0x5
 2652 0124 00       		.byte	0
 2653 0125 03       		.uleb128 0x3
 2654 0126 0E       		.uleb128 0xe
 2655 0127 3A       		.uleb128 0x3a
 2656 0128 0B       		.uleb128 0xb
 2657 0129 3B       		.uleb128 0x3b
 2658 012a 0B       		.uleb128 0xb
 2659 012b 49       		.uleb128 0x49
 2660 012c 13       		.uleb128 0x13
 2661 012d 02       		.uleb128 0x2
 2662 012e 18       		.uleb128 0x18
 2663 012f 00       		.byte	0
 2664 0130 00       		.byte	0
 2665 0131 19       		.uleb128 0x19
 2666 0132 34       		.uleb128 0x34
 2667 0133 00       		.byte	0
 2668 0134 03       		.uleb128 0x3
 2669 0135 08       		.uleb128 0x8
 2670 0136 3A       		.uleb128 0x3a
 2671 0137 0B       		.uleb128 0xb
 2672 0138 3B       		.uleb128 0x3b
 2673 0139 0B       		.uleb128 0xb
 2674 013a 49       		.uleb128 0x49
 2675 013b 13       		.uleb128 0x13
ARM GAS  /tmp/ccbCgXmb.s 			page 48


 2676 013c 02       		.uleb128 0x2
 2677 013d 18       		.uleb128 0x18
 2678 013e 00       		.byte	0
 2679 013f 00       		.byte	0
 2680 0140 1A       		.uleb128 0x1a
 2681 0141 05       		.uleb128 0x5
 2682 0142 00       		.byte	0
 2683 0143 03       		.uleb128 0x3
 2684 0144 08       		.uleb128 0x8
 2685 0145 3A       		.uleb128 0x3a
 2686 0146 0B       		.uleb128 0xb
 2687 0147 3B       		.uleb128 0x3b
 2688 0148 0B       		.uleb128 0xb
 2689 0149 49       		.uleb128 0x49
 2690 014a 13       		.uleb128 0x13
 2691 014b 02       		.uleb128 0x2
 2692 014c 18       		.uleb128 0x18
 2693 014d 00       		.byte	0
 2694 014e 00       		.byte	0
 2695 014f 1B       		.uleb128 0x1b
 2696 0150 34       		.uleb128 0x34
 2697 0151 00       		.byte	0
 2698 0152 03       		.uleb128 0x3
 2699 0153 0E       		.uleb128 0xe
 2700 0154 3A       		.uleb128 0x3a
 2701 0155 0B       		.uleb128 0xb
 2702 0156 3B       		.uleb128 0x3b
 2703 0157 0B       		.uleb128 0xb
 2704 0158 49       		.uleb128 0x49
 2705 0159 13       		.uleb128 0x13
 2706 015a 02       		.uleb128 0x2
 2707 015b 18       		.uleb128 0x18
 2708 015c 00       		.byte	0
 2709 015d 00       		.byte	0
 2710 015e 1C       		.uleb128 0x1c
 2711 015f 0B       		.uleb128 0xb
 2712 0160 01       		.byte	0x1
 2713 0161 11       		.uleb128 0x11
 2714 0162 01       		.uleb128 0x1
 2715 0163 12       		.uleb128 0x12
 2716 0164 06       		.uleb128 0x6
 2717 0165 00       		.byte	0
 2718 0166 00       		.byte	0
 2719 0167 1D       		.uleb128 0x1d
 2720 0168 34       		.uleb128 0x34
 2721 0169 00       		.byte	0
 2722 016a 03       		.uleb128 0x3
 2723 016b 0E       		.uleb128 0xe
 2724 016c 3A       		.uleb128 0x3a
 2725 016d 0B       		.uleb128 0xb
 2726 016e 3B       		.uleb128 0x3b
 2727 016f 05       		.uleb128 0x5
 2728 0170 49       		.uleb128 0x49
 2729 0171 13       		.uleb128 0x13
 2730 0172 3F       		.uleb128 0x3f
 2731 0173 19       		.uleb128 0x19
 2732 0174 3C       		.uleb128 0x3c
ARM GAS  /tmp/ccbCgXmb.s 			page 49


 2733 0175 19       		.uleb128 0x19
 2734 0176 00       		.byte	0
 2735 0177 00       		.byte	0
 2736 0178 1E       		.uleb128 0x1e
 2737 0179 34       		.uleb128 0x34
 2738 017a 00       		.byte	0
 2739 017b 03       		.uleb128 0x3
 2740 017c 08       		.uleb128 0x8
 2741 017d 3A       		.uleb128 0x3a
 2742 017e 0B       		.uleb128 0xb
 2743 017f 3B       		.uleb128 0x3b
 2744 0180 05       		.uleb128 0x5
 2745 0181 49       		.uleb128 0x49
 2746 0182 13       		.uleb128 0x13
 2747 0183 3F       		.uleb128 0x3f
 2748 0184 19       		.uleb128 0x19
 2749 0185 3C       		.uleb128 0x3c
 2750 0186 19       		.uleb128 0x19
 2751 0187 00       		.byte	0
 2752 0188 00       		.byte	0
 2753 0189 00       		.byte	0
 2754              		.section	.debug_aranges,"",%progbits
 2755 0000 1C000000 		.4byte	0x1c
 2756 0004 0200     		.2byte	0x2
 2757 0006 00000000 		.4byte	.Ldebug_info0
 2758 000a 04       		.byte	0x4
 2759 000b 00       		.byte	0
 2760 000c 0000     		.2byte	0
 2761 000e 0000     		.2byte	0
 2762 0010 00000000 		.4byte	.Ltext0
 2763 0014 94040000 		.4byte	.Letext0-.Ltext0
 2764 0018 00000000 		.4byte	0
 2765 001c 00000000 		.4byte	0
 2766              		.section	.debug_line,"",%progbits
 2767              	.Ldebug_line0:
 2768 0000 D0030000 		.section	.debug_str,"MS",%progbits,1
 2768      02002003 
 2768      00000201 
 2768      FB0E0D00 
 2768      01010101 
 2769              	.LASF139:
 2770 0000 68616C5F 		.ascii	"hal_get_anchor_period_rp\000"
 2770      6765745F 
 2770      616E6368 
 2770      6F725F70 
 2770      6572696F 
 2771              	.LASF54:
 2772 0019 72656164 		.ascii	"ready_list_t\000"
 2772      795F6C69 
 2772      73745F74 
 2772      00
 2773              	.LASF93:
 2774 0026 77747472 		.ascii	"wttrp\000"
 2774      7000
 2775              	.LASF90:
 2776 002c 7264796D 		.ascii	"rdymsg\000"
 2776      736700
ARM GAS  /tmp/ccbCgXmb.s 			page 50


 2777              	.LASF18:
 2778 0033 75696E74 		.ascii	"uint64_t\000"
 2778      36345F74 
 2778      00
 2779              	.LASF132:
 2780 003c 5F68616C 		.ascii	"_hal_get_link_status_rp\000"
 2780      5F676574 
 2780      5F6C696E 
 2780      6B5F7374 
 2780      61747573 
 2781              	.LASF3:
 2782 0054 5F5F7569 		.ascii	"__uint8_t\000"
 2782      6E74385F 
 2782      7400
 2783              	.LASF138:
 2784 005e 6D61785F 		.ascii	"max_free_slot\000"
 2784      66726565 
 2784      5F736C6F 
 2784      7400
 2785              	.LASF87:
 2786 006c 706F7274 		.ascii	"port_intctx\000"
 2786      5F696E74 
 2786      63747800 
 2787              	.LASF79:
 2788 0078 76746C69 		.ascii	"vtlist\000"
 2788      737400
 2789              	.LASF141:
 2790 007f 6163695F 		.ascii	"aci_hal_write_config_data\000"
 2790      68616C5F 
 2790      77726974 
 2790      655F636F 
 2790      6E666967 
 2791              	.LASF147:
 2792 0099 6163695F 		.ascii	"aci_hal_set_tx_power_level\000"
 2792      68616C5F 
 2792      7365745F 
 2792      74785F70 
 2792      6F776572 
 2793              	.LASF12:
 2794 00b4 6C6F6E67 		.ascii	"long long unsigned int\000"
 2794      206C6F6E 
 2794      6720756E 
 2794      7369676E 
 2794      65642069 
 2795              	.LASF157:
 2796 00cb 2E2E2F2E 		.ascii	"../../../../../Middlewares/ST/STM32_BlueNRG/SimpleB"
 2796      2E2F2E2E 
 2796      2F2E2E2F 
 2796      2E2E2F4D 
 2796      6964646C 
 2797 00fe 6C75654E 		.ascii	"lueNRG_HCI/hci/controller/bluenrg_hal_aci.c\000"
 2797      52475F48 
 2797      43492F68 
 2797      63692F63 
 2797      6F6E7472 
 2798              	.LASF120:
 2799 012a 64617461 		.ascii	"data\000"
ARM GAS  /tmp/ccbCgXmb.s 			page 51


 2799      00
 2800              	.LASF91:
 2801 012f 65786974 		.ascii	"exitcode\000"
 2801      636F6465 
 2801      00
 2802              	.LASF80:
 2803 0138 6D61696E 		.ascii	"mainthread\000"
 2803      74687265 
 2803      616400
 2804              	.LASF70:
 2805 0143 76697274 		.ascii	"virtual_timers_list_t\000"
 2805      75616C5F 
 2805      74696D65 
 2805      72735F6C 
 2805      6973745F 
 2806              	.LASF155:
 2807 0159 49544D5F 		.ascii	"ITM_RxBuffer\000"
 2807      52784275 
 2807      66666572 
 2807      00
 2808              	.LASF53:
 2809 0166 63685F74 		.ascii	"ch_threads_queue\000"
 2809      68726561 
 2809      64735F71 
 2809      75657565 
 2809      00
 2810              	.LASF127:
 2811 0177 6E756D62 		.ascii	"number_of_packets\000"
 2811      65725F6F 
 2811      665F7061 
 2811      636B6574 
 2811      7300
 2812              	.LASF104:
 2813 0189 6D757465 		.ascii	"mutex_t\000"
 2813      785F7400 
 2814              	.LASF10:
 2815 0191 6C6F6E67 		.ascii	"long long int\000"
 2815      206C6F6E 
 2815      6720696E 
 2815      7400
 2816              	.LASF0:
 2817 019f 7369676E 		.ascii	"signed char\000"
 2817      65642063 
 2817      68617200 
 2818              	.LASF47:
 2819 01ab 705F6D70 		.ascii	"p_mpool\000"
 2819      6F6F6C00 
 2820              	.LASF101:
 2821 01b3 6D5F7175 		.ascii	"m_queue\000"
 2821      65756500 
 2822              	.LASF92:
 2823 01bb 77746F62 		.ascii	"wtobjp\000"
 2823      6A7000
 2824              	.LASF23:
 2825 01c2 74736C69 		.ascii	"tslices_t\000"
 2825      6365735F 
 2825      7400
ARM GAS  /tmp/ccbCgXmb.s 			page 52


 2826              	.LASF77:
 2827 01cc 63685F73 		.ascii	"ch_system\000"
 2827      79737465 
 2827      6D00
 2828              	.LASF21:
 2829 01d6 74737461 		.ascii	"tstate_t\000"
 2829      74655F74 
 2829      00
 2830              	.LASF112:
 2831 01df 726C656E 		.ascii	"rlen\000"
 2831      00
 2832              	.LASF129:
 2833 01e4 5F68616C 		.ascii	"_hal_tone_start_cp\000"
 2833      5F746F6E 
 2833      655F7374 
 2833      6172745F 
 2833      637000
 2834              	.LASF115:
 2835 01f7 6275696C 		.ascii	"build_number\000"
 2835      645F6E75 
 2835      6D626572 
 2835      00
 2836              	.LASF15:
 2837 0204 75696E74 		.ascii	"uint16_t\000"
 2837      31365F74 
 2837      00
 2838              	.LASF88:
 2839 020d 6F666673 		.ascii	"offset\000"
 2839      657400
 2840              	.LASF144:
 2841 0214 6163695F 		.ascii	"aci_hal_read_config_data\000"
 2841      68616C5F 
 2841      72656164 
 2841      5F636F6E 
 2841      6669675F 
 2842              	.LASF34:
 2843 022d 705F6E65 		.ascii	"p_newer\000"
 2843      77657200 
 2844              	.LASF98:
 2845 0235 735F7175 		.ascii	"s_queue\000"
 2845      65756500 
 2846              	.LASF125:
 2847 023d 68616C5F 		.ascii	"hal_set_tx_power_level_cp\000"
 2847      7365745F 
 2847      74785F70 
 2847      6F776572 
 2847      5F6C6576 
 2848              	.LASF59:
 2849 0257 725F6E65 		.ascii	"r_newer\000"
 2849      77657200 
 2850              	.LASF119:
 2851 025f 5F68616C 		.ascii	"_hal_read_config_data_rp\000"
 2851      5F726561 
 2851      645F636F 
 2851      6E666967 
 2851      5F646174 
 2852              	.LASF66:
ARM GAS  /tmp/ccbCgXmb.s 			page 53


 2853 0278 76745F70 		.ascii	"vt_prev\000"
 2853      72657600 
 2854              	.LASF158:
 2855 0280 2F752F65 		.ascii	"/u/elawton2/p442-submissions/sensortile/reference/b"
 2855      6C617774 
 2855      6F6E322F 
 2855      70343432 
 2855      2D737562 
 2856 02b3 6C75656D 		.ascii	"luemicrosystem2/BlueMicrosystem2_V2.2.0/Projects/Mu"
 2856      6963726F 
 2856      73797374 
 2856      656D322F 
 2856      426C7565 
 2857 02e6 6C74692F 		.ascii	"lti/Applications/BlueMicrosystem2/bluechibi\000"
 2857      4170706C 
 2857      69636174 
 2857      696F6E73 
 2857      2F426C75 
 2858              	.LASF117:
 2859 0312 5F68616C 		.ascii	"_hal_read_config_data_cp\000"
 2859      5F726561 
 2859      645F636F 
 2859      6E666967 
 2859      5F646174 
 2860              	.LASF81:
 2861 032b 69646C65 		.ascii	"idle_thread_wa\000"
 2861      5F746872 
 2861      6561645F 
 2861      776100
 2862              	.LASF149:
 2863 033a 72657370 		.ascii	"resp\000"
 2863      00
 2864              	.LASF109:
 2865 033f 63706172 		.ascii	"cparam\000"
 2865      616D00
 2866              	.LASF13:
 2867 0346 756E7369 		.ascii	"unsigned int\000"
 2867      676E6564 
 2867      20696E74 
 2867      00
 2868              	.LASF121:
 2869 0353 68616C5F 		.ascii	"hal_read_config_data_rp\000"
 2869      72656164 
 2869      5F636F6E 
 2869      6669675F 
 2869      64617461 
 2870              	.LASF94:
 2871 036b 77747365 		.ascii	"wtsemp\000"
 2871      6D7000
 2872              	.LASF67:
 2873 0372 76745F64 		.ascii	"vt_delta\000"
 2873      656C7461 
 2873      00
 2874              	.LASF73:
 2875 037b 73797374 		.ascii	"system_debug_t\000"
 2875      656D5F64 
 2875      65627567 
ARM GAS  /tmp/ccbCgXmb.s 			page 54


 2875      5F7400
 2876              	.LASF65:
 2877 038a 76745F6E 		.ascii	"vt_next\000"
 2877      65787400 
 2878              	.LASF107:
 2879 0392 6863695F 		.ascii	"hci_request\000"
 2879      72657175 
 2879      65737400 
 2880              	.LASF62:
 2881 039e 76746675 		.ascii	"vtfunc_t\000"
 2881      6E635F74 
 2881      00
 2882              	.LASF99:
 2883 03a7 735F636E 		.ascii	"s_cnt\000"
 2883      7400
 2884              	.LASF108:
 2885 03ad 6576656E 		.ascii	"event\000"
 2885      7400
 2886              	.LASF5:
 2887 03b3 73686F72 		.ascii	"short unsigned int\000"
 2887      7420756E 
 2887      7369676E 
 2887      65642069 
 2887      6E7400
 2888              	.LASF50:
 2889 03c6 63685F74 		.ascii	"ch_thread\000"
 2889      68726561 
 2889      6400
 2890              	.LASF25:
 2891 03d0 6D73675F 		.ascii	"msg_t\000"
 2891      7400
 2892              	.LASF76:
 2893 03d6 63685F73 		.ascii	"ch_system_t\000"
 2893      79737465 
 2893      6D5F7400 
 2894              	.LASF143:
 2895 03e2 696E6478 		.ascii	"indx\000"
 2895      00
 2896              	.LASF20:
 2897 03e7 746D6F64 		.ascii	"tmode_t\000"
 2897      655F7400 
 2898              	.LASF124:
 2899 03ef 70615F6C 		.ascii	"pa_level\000"
 2899      6576656C 
 2899      00
 2900              	.LASF55:
 2901 03f8 63685F72 		.ascii	"ch_ready_list\000"
 2901      65616479 
 2901      5F6C6973 
 2901      7400
 2902              	.LASF26:
 2903 0406 6576656E 		.ascii	"eventmask_t\000"
 2903      746D6173 
 2903      6B5F7400 
 2904              	.LASF6:
 2905 0412 5F5F696E 		.ascii	"__int32_t\000"
 2905      7433325F 
ARM GAS  /tmp/ccbCgXmb.s 			page 55


 2905      7400
 2906              	.LASF152:
 2907 041c 6163695F 		.ascii	"aci_hal_tone_stop\000"
 2907      68616C5F 
 2907      746F6E65 
 2907      5F73746F 
 2907      7000
 2908              	.LASF85:
 2909 042e 73746B61 		.ascii	"stkalign_t\000"
 2909      6C69676E 
 2909      5F7400
 2910              	.LASF19:
 2911 0439 7274636E 		.ascii	"rtcnt_t\000"
 2911      745F7400 
 2912              	.LASF48:
 2913 0441 74687265 		.ascii	"thread_reference_t\000"
 2913      61645F72 
 2913      65666572 
 2913      656E6365 
 2913      5F7400
 2914              	.LASF126:
 2915 0454 5F68616C 		.ascii	"_hal_le_tx_test_packet_number_rp\000"
 2915      5F6C655F 
 2915      74785F74 
 2915      6573745F 
 2915      7061636B 
 2916              	.LASF71:
 2917 0475 63685F76 		.ascii	"ch_virtual_timers_list\000"
 2917      69727475 
 2917      616C5F74 
 2917      696D6572 
 2917      735F6C69 
 2918              	.LASF68:
 2919 048c 76745F66 		.ascii	"vt_func\000"
 2919      756E6300 
 2920              	.LASF32:
 2921 0494 705F7072 		.ascii	"p_prio\000"
 2921      696F00
 2922              	.LASF35:
 2923 049b 705F6F6C 		.ascii	"p_older\000"
 2923      64657200 
 2924              	.LASF58:
 2925 04a3 725F6374 		.ascii	"r_ctx\000"
 2925      7800
 2926              	.LASF110:
 2927 04a9 636C656E 		.ascii	"clen\000"
 2927      00
 2928              	.LASF89:
 2929 04ae 746D5F63 		.ascii	"tm_calibration_t\000"
 2929      616C6962 
 2929      72617469 
 2929      6F6E5F74 
 2929      00
 2930              	.LASF61:
 2931 04bf 725F6375 		.ascii	"r_current\000"
 2931      7272656E 
 2931      7400
ARM GAS  /tmp/ccbCgXmb.s 			page 56


 2932              	.LASF60:
 2933 04c9 725F6F6C 		.ascii	"r_older\000"
 2933      64657200 
 2934              	.LASF11:
 2935 04d1 5F5F7569 		.ascii	"__uint64_t\000"
 2935      6E743634 
 2935      5F7400
 2936              	.LASF148:
 2937 04dc 6163695F 		.ascii	"aci_hal_le_tx_test_packet_number\000"
 2937      68616C5F 
 2937      6C655F74 
 2937      785F7465 
 2937      73745F70 
 2938              	.LASF22:
 2939 04fd 74726566 		.ascii	"trefs_t\000"
 2939      735F7400 
 2940              	.LASF63:
 2941 0505 76697274 		.ascii	"virtual_timer_t\000"
 2941      75616C5F 
 2941      74696D65 
 2941      725F7400 
 2942              	.LASF31:
 2943 0515 705F7072 		.ascii	"p_prev\000"
 2943      657600
 2944              	.LASF24:
 2945 051c 74707269 		.ascii	"tprio_t\000"
 2945      6F5F7400 
 2946              	.LASF135:
 2947 0524 68616C5F 		.ascii	"hal_get_link_status_rp\000"
 2947      6765745F 
 2947      6C696E6B 
 2947      5F737461 
 2947      7475735F 
 2948              	.LASF74:
 2949 053b 63685F73 		.ascii	"ch_system_debug\000"
 2949      79737465 
 2949      6D5F6465 
 2949      62756700 
 2950              	.LASF106:
 2951 054b 5F426F6F 		.ascii	"_Bool\000"
 2951      6C00
 2952              	.LASF16:
 2953 0551 696E7433 		.ascii	"int32_t\000"
 2953      325F7400 
 2954              	.LASF1:
 2955 0559 756E7369 		.ascii	"unsigned char\000"
 2955      676E6564 
 2955      20636861 
 2955      7200
 2956              	.LASF156:
 2957 0567 474E5520 		.ascii	"GNU C 4.8.4 20140526 (release) [ARM/embedded-4_8-br"
 2957      4320342E 
 2957      382E3420 
 2957      32303134 
 2957      30353236 
 2958 059a 616E6368 		.ascii	"anch revision 211358] -mcpu=cortex-m4 -mno-thumb-in"
 2958      20726576 
ARM GAS  /tmp/ccbCgXmb.s 			page 57


 2958      6973696F 
 2958      6E203231 
 2958      31333538 
 2959 05cd 74657277 		.ascii	"terwork -mthumb -ggdb -O0 -std=c99 -fomit-frame-poi"
 2959      6F726B20 
 2959      2D6D7468 
 2959      756D6220 
 2959      2D676764 
 2960 0600 6E746572 		.ascii	"nter -falign-functions=16\000"
 2960      202D6661 
 2960      6C69676E 
 2960      2D66756E 
 2960      6374696F 
 2961              	.LASF45:
 2962 061a 705F6D74 		.ascii	"p_mtxlist\000"
 2962      786C6973 
 2962      7400
 2963              	.LASF2:
 2964 0624 73686F72 		.ascii	"short int\000"
 2964      7420696E 
 2964      7400
 2965              	.LASF37:
 2966 062e 705F7374 		.ascii	"p_state\000"
 2966      61746500 
 2967              	.LASF40:
 2968 0636 705F7072 		.ascii	"p_preempt\000"
 2968      65656D70 
 2968      7400
 2969              	.LASF116:
 2970 0640 68616C5F 		.ascii	"hal_get_fw_build_number_rp\000"
 2970      6765745F 
 2970      66775F62 
 2970      75696C64 
 2970      5F6E756D 
 2971              	.LASF57:
 2972 065b 725F7072 		.ascii	"r_prio\000"
 2972      696F00
 2973              	.LASF96:
 2974 0662 65776D61 		.ascii	"ewmask\000"
 2974      736B00
 2975              	.LASF30:
 2976 0669 705F6E65 		.ascii	"p_next\000"
 2976      787400
 2977              	.LASF38:
 2978 0670 705F666C 		.ascii	"p_flags\000"
 2978      61677300 
 2979              	.LASF145:
 2980 0678 64617461 		.ascii	"data_len\000"
 2980      5F6C656E 
 2980      00
 2981              	.LASF52:
 2982 0681 74687265 		.ascii	"threads_queue_t\000"
 2982      6164735F 
 2982      71756575 
 2982      655F7400 
 2983              	.LASF64:
 2984 0691 63685F76 		.ascii	"ch_virtual_timer\000"
ARM GAS  /tmp/ccbCgXmb.s 			page 58


 2984      69727475 
 2984      616C5F74 
 2984      696D6572 
 2984      00
 2985              	.LASF97:
 2986 06a2 63685F73 		.ascii	"ch_semaphore\000"
 2986      656D6170 
 2986      686F7265 
 2986      00
 2987              	.LASF44:
 2988 06af 705F6570 		.ascii	"p_epending\000"
 2988      656E6469 
 2988      6E6700
 2989              	.LASF27:
 2990 06ba 636E745F 		.ascii	"cnt_t\000"
 2990      7400
 2991              	.LASF17:
 2992 06c0 75696E74 		.ascii	"uint32_t\000"
 2992      33325F74 
 2992      00
 2993              	.LASF84:
 2994 06c9 72656761 		.ascii	"regarm_t\000"
 2994      726D5F74 
 2994      00
 2995              	.LASF56:
 2996 06d2 725F7175 		.ascii	"r_queue\000"
 2996      65756500 
 2997              	.LASF72:
 2998 06da 76745F73 		.ascii	"vt_systime\000"
 2998      79737469 
 2998      6D6500
 2999              	.LASF51:
 3000 06e5 63685F74 		.ascii	"ch_threads_list\000"
 3000      68726561 
 3000      64735F6C 
 3000      69737400 
 3001              	.LASF9:
 3002 06f5 6C6F6E67 		.ascii	"long unsigned int\000"
 3002      20756E73 
 3002      69676E65 
 3002      6420696E 
 3002      7400
 3003              	.LASF83:
 3004 0707 63686172 		.ascii	"char\000"
 3004      00
 3005              	.LASF95:
 3006 070c 77746D74 		.ascii	"wtmtxp\000"
 3006      787000
 3007              	.LASF4:
 3008 0713 5F5F7569 		.ascii	"__uint16_t\000"
 3008      6E743136 
 3008      5F7400
 3009              	.LASF29:
 3010 071e 74687265 		.ascii	"thread_t\000"
 3010      61645F74 
 3010      00
 3011              	.LASF103:
ARM GAS  /tmp/ccbCgXmb.s 			page 59


 3012 0727 6D5F6E65 		.ascii	"m_next\000"
 3012      787400
 3013              	.LASF28:
 3014 072e 73797374 		.ascii	"systime_t\000"
 3014      696D655F 
 3014      7400
 3015              	.LASF46:
 3016 0738 705F7265 		.ascii	"p_realprio\000"
 3016      616C7072 
 3016      696F00
 3017              	.LASF142:
 3018 0743 62756666 		.ascii	"buffer\000"
 3018      657200
 3019              	.LASF8:
 3020 074a 5F5F7569 		.ascii	"__uint32_t\000"
 3020      6E743332 
 3020      5F7400
 3021              	.LASF133:
 3022 0755 6C696E6B 		.ascii	"link_status\000"
 3022      5F737461 
 3022      74757300 
 3023              	.LASF75:
 3024 0761 70616E69 		.ascii	"panic_msg\000"
 3024      635F6D73 
 3024      6700
 3025              	.LASF151:
 3026 076b 6163695F 		.ascii	"aci_hal_tone_start\000"
 3026      68616C5F 
 3026      746F6E65 
 3026      5F737461 
 3026      727400
 3027              	.LASF131:
 3028 077e 68616C5F 		.ascii	"hal_tone_start_cp\000"
 3028      746F6E65 
 3028      5F737461 
 3028      72745F63 
 3028      7000
 3029              	.LASF128:
 3030 0790 68616C5F 		.ascii	"hal_le_tx_test_packet_number_rp\000"
 3030      6C655F74 
 3030      785F7465 
 3030      73745F70 
 3030      61636B65 
 3031              	.LASF137:
 3032 07b0 616E6368 		.ascii	"anchor_period\000"
 3032      6F725F70 
 3032      6572696F 
 3032      6400
 3033              	.LASF86:
 3034 07be 636F6E74 		.ascii	"context\000"
 3034      65787400 
 3035              	.LASF7:
 3036 07c6 6C6F6E67 		.ascii	"long int\000"
 3036      20696E74 
 3036      00
 3037              	.LASF42:
 3038 07cf 705F6D73 		.ascii	"p_msgqueue\000"
ARM GAS  /tmp/ccbCgXmb.s 			page 60


 3038      67717565 
 3038      756500
 3039              	.LASF69:
 3040 07da 76745F70 		.ascii	"vt_par\000"
 3040      617200
 3041              	.LASF134:
 3042 07e1 636F6E6E 		.ascii	"conn_handle\000"
 3042      5F68616E 
 3042      646C6500 
 3043              	.LASF153:
 3044 07ed 6163695F 		.ascii	"aci_hal_get_link_status\000"
 3044      68616C5F 
 3044      6765745F 
 3044      6C696E6B 
 3044      5F737461 
 3045              	.LASF39:
 3046 0805 705F7265 		.ascii	"p_refs\000"
 3046      667300
 3047              	.LASF114:
 3048 080c 73746174 		.ascii	"status\000"
 3048      757300
 3049              	.LASF146:
 3050 0813 64617461 		.ascii	"data_len_out_p\000"
 3050      5F6C656E 
 3050      5F6F7574 
 3050      5F7000
 3051              	.LASF154:
 3052 0822 6163695F 		.ascii	"aci_hal_get_anchor_period\000"
 3052      68616C5F 
 3052      6765745F 
 3052      616E6368 
 3052      6F725F70 
 3053              	.LASF78:
 3054 083c 726C6973 		.ascii	"rlist\000"
 3054      7400
 3055              	.LASF102:
 3056 0842 6D5F6F77 		.ascii	"m_owner\000"
 3056      6E657200 
 3057              	.LASF14:
 3058 084a 75696E74 		.ascii	"uint8_t\000"
 3058      385F7400 
 3059              	.LASF122:
 3060 0852 5F68616C 		.ascii	"_hal_set_tx_power_level_cp\000"
 3060      5F736574 
 3060      5F74785F 
 3060      706F7765 
 3060      725F6C65 
 3061              	.LASF113:
 3062 086d 5F68616C 		.ascii	"_hal_get_fw_build_number_rp\000"
 3062      5F676574 
 3062      5F66775F 
 3062      6275696C 
 3062      645F6E75 
 3063              	.LASF130:
 3064 0889 72665F63 		.ascii	"rf_channel\000"
 3064      68616E6E 
 3064      656C00
ARM GAS  /tmp/ccbCgXmb.s 			page 61


 3065              	.LASF82:
 3066 0894 73697A65 		.ascii	"sizetype\000"
 3066      74797065 
 3066      00
 3067              	.LASF100:
 3068 089d 63685F6D 		.ascii	"ch_mutex\000"
 3068      75746578 
 3068      00
 3069              	.LASF123:
 3070 08a6 656E5F68 		.ascii	"en_high_power\000"
 3070      6967685F 
 3070      706F7765 
 3070      7200
 3071              	.LASF36:
 3072 08b4 705F6E61 		.ascii	"p_name\000"
 3072      6D6500
 3073              	.LASF49:
 3074 08bb 74687265 		.ascii	"threads_list_t\000"
 3074      6164735F 
 3074      6C697374 
 3074      5F7400
 3075              	.LASF140:
 3076 08ca 6163695F 		.ascii	"aci_hal_get_fw_build_number\000"
 3076      68616C5F 
 3076      6765745F 
 3076      66775F62 
 3076      75696C64 
 3077              	.LASF118:
 3078 08e6 68616C5F 		.ascii	"hal_read_config_data_cp\000"
 3078      72656164 
 3078      5F636F6E 
 3078      6669675F 
 3078      64617461 
 3079              	.LASF43:
 3080 08fe 705F6D73 		.ascii	"p_msg\000"
 3080      6700
 3081              	.LASF111:
 3082 0904 72706172 		.ascii	"rparam\000"
 3082      616D00
 3083              	.LASF150:
 3084 090b 6163695F 		.ascii	"aci_hal_device_standby\000"
 3084      68616C5F 
 3084      64657669 
 3084      63655F73 
 3084      74616E64 
 3085              	.LASF105:
 3086 0922 74426C65 		.ascii	"tBleStatus\000"
 3086      53746174 
 3086      757300
 3087              	.LASF33:
 3088 092d 705F6374 		.ascii	"p_ctx\000"
 3088      7800
 3089              	.LASF41:
 3090 0933 705F7761 		.ascii	"p_waiting\000"
 3090      6974696E 
 3090      6700
 3091              	.LASF136:
ARM GAS  /tmp/ccbCgXmb.s 			page 62


 3092 093d 5F68616C 		.ascii	"_hal_get_anchor_period_rp\000"
 3092      5F676574 
 3092      5F616E63 
 3092      686F725F 
 3092      70657269 
 3093              		.ident	"GCC: (GNU Tools for ARM Embedded Processors) 4.8.4 20140526 (release) [ARM/embedded-4_8-br
ARM GAS  /tmp/ccbCgXmb.s 			page 63


DEFINED SYMBOLS
                            *ABS*:00000000 bluenrg_hal_aci.c
     /tmp/ccbCgXmb.s:18     .text:00000000 $t
     /tmp/ccbCgXmb.s:24     .text:00000000 aci_hal_get_fw_build_number
     /tmp/ccbCgXmb.s:97     .text:00000060 aci_hal_write_config_data
     /tmp/ccbCgXmb.s:212    .text:00000130 aci_hal_read_config_data
     /tmp/ccbCgXmb.s:315    .text:000001d0 aci_hal_set_tx_power_level
     /tmp/ccbCgXmb.s:389    .text:00000240 aci_hal_le_tx_test_packet_number
     /tmp/ccbCgXmb.s:460    .text:000002a0 aci_hal_device_standby
     /tmp/ccbCgXmb.s:518    .text:000002f0 aci_hal_tone_start
     /tmp/ccbCgXmb.s:587    .text:00000350 aci_hal_tone_stop
     /tmp/ccbCgXmb.s:645    .text:000003a0 aci_hal_get_link_status
     /tmp/ccbCgXmb.s:749    .text:00000430 aci_hal_get_anchor_period
                     .debug_frame:00000010 $d

UNDEFINED SYMBOLS
Osal_MemSet
hci_send_req
Osal_MemCpy
