ARM GAS  /tmp/ccbCgXmb.s 			page 1


   1              		.syntax unified
   2              		.cpu cortex-m4
   3              		.fpu softvfp
   4              		.eabi_attribute 20, 1
   5              		.eabi_attribute 21, 1
   6              		.eabi_attribute 23, 3
   7              		.eabi_attribute 24, 1
   8              		.eabi_attribute 25, 1
   9              		.eabi_attribute 26, 1
  10              		.eabi_attribute 30, 6
  11              		.eabi_attribute 34, 1
  12              		.eabi_attribute 18, 4
  13              		.thumb
  14              		.file	"bluenrg_hal_aci.c"
  15              		.text
  16              	.Ltext0:
  17              		.cfi_sections	.debug_frame
  18              		.align	2
  19              		.p2align 4,,15
  20              		.global	aci_hal_get_fw_build_number
  21              		.thumb
  22              		.thumb_func
  23              		.type	aci_hal_get_fw_build_number, %function
  24              	aci_hal_get_fw_build_number:
  25              	.LFB269:
  26              		.file 1 "../../../../../Middlewares/ST/STM32_BlueNRG/SimpleBlueNRG_HCI/hci/controller/bluenrg_hal_
  27              		.loc 1 31 0
  28              		.cfi_startproc
  29              		@ args = 0, pretend = 0, frame = 40
  30              		@ frame_needed = 0, uses_anonymous_args = 0
  31 0000 00B5     		push	{lr}
  32              		.cfi_def_cfa_offset 4
  33              		.cfi_offset 14, -4
  34 0002 8BB0     		sub	sp, sp, #44
  35              		.cfi_def_cfa_offset 48
  36 0004 0190     		str	r0, [sp, #4]
  37              		.loc 1 35 0
  38 0006 04AB     		add	r3, sp, #16
  39 0008 1846     		mov	r0, r3
  40 000a 0021     		movs	r1, #0
  41 000c 1822     		movs	r2, #24
  42 000e FFF7FEFF 		bl	Osal_MemSet
  43              		.loc 1 36 0
  44 0012 3F23     		movs	r3, #63
  45 0014 ADF81030 		strh	r3, [sp, #16]	@ movhi
  46              		.loc 1 37 0
  47 0018 0023     		movs	r3, #0
  48 001a ADF81230 		strh	r3, [sp, #18]	@ movhi
  49              		.loc 1 38 0
  50 001e 03AB     		add	r3, sp, #12
  51 0020 0893     		str	r3, [sp, #32]
  52              		.loc 1 39 0
  53 0022 0323     		movs	r3, #3
  54 0024 0993     		str	r3, [sp, #36]
  55              		.loc 1 41 0
  56 0026 04AB     		add	r3, sp, #16
  57 0028 1846     		mov	r0, r3
ARM GAS  /tmp/ccbCgXmb.s 			page 2


  58 002a 0021     		movs	r1, #0
  59 002c FFF7FEFF 		bl	hci_send_req
  60 0030 0346     		mov	r3, r0
  61 0032 002B     		cmp	r3, #0
  62 0034 01DA     		bge	.L2
  63              		.loc 1 42 0
  64 0036 FF23     		movs	r3, #255
  65 0038 0CE0     		b	.L5
  66              	.L2:
  67              		.loc 1 44 0
  68 003a 9DF80C30 		ldrb	r3, [sp, #12]	@ zero_extendqisi2
  69 003e 002B     		cmp	r3, #0
  70 0040 02D0     		beq	.L4
  71              		.loc 1 45 0
  72 0042 9DF80C30 		ldrb	r3, [sp, #12]	@ zero_extendqisi2
  73 0046 05E0     		b	.L5
  74              	.L4:
  75              		.loc 1 47 0
  76 0048 BDF80D30 		ldrh	r3, [sp, #13]	@ unaligned
  77 004c 9AB2     		uxth	r2, r3
  78 004e 019B     		ldr	r3, [sp, #4]
  79 0050 1A80     		strh	r2, [r3]	@ movhi
  80              		.loc 1 49 0
  81 0052 0023     		movs	r3, #0
  82              	.L5:
  83              		.loc 1 50 0
  84 0054 1846     		mov	r0, r3
  85 0056 0BB0     		add	sp, sp, #44
  86              		@ sp needed
  87 0058 5DF804FB 		ldr	pc, [sp], #4
  88              		.cfi_endproc
  89              	.LFE269:
  90              		.size	aci_hal_get_fw_build_number, .-aci_hal_get_fw_build_number
  91              		.align	2
  92 005c AFF30080 		.p2align 4,,15
  93              		.global	aci_hal_write_config_data
  94              		.thumb
  95              		.thumb_func
  96              		.type	aci_hal_write_config_data, %function
  97              	aci_hal_write_config_data:
  98              	.LFB270:
  99              		.loc 1 55 0
 100              		.cfi_startproc
 101              		@ args = 0, pretend = 0, frame = 168
 102              		@ frame_needed = 0, uses_anonymous_args = 0
 103 0060 00B5     		push	{lr}
 104              		.cfi_def_cfa_offset 4
 105              		.cfi_offset 14, -4
 106 0062 ABB0     		sub	sp, sp, #172
 107              		.cfi_def_cfa_offset 176
 108 0064 0B46     		mov	r3, r1
 109 0066 0092     		str	r2, [sp]
 110 0068 0246     		mov	r2, r0
 111 006a 8DF80720 		strb	r2, [sp, #7]
 112 006e 8DF80630 		strb	r3, [sp, #6]
 113              		.loc 1 59 0
 114 0072 0023     		movs	r3, #0
ARM GAS  /tmp/ccbCgXmb.s 			page 3


 115 0074 8DF8A730 		strb	r3, [sp, #167]
 116              		.loc 1 61 0
 117 0078 9DF80630 		ldrb	r3, [sp, #6]	@ zero_extendqisi2
 118 007c 0233     		adds	r3, r3, #2
 119 007e 802B     		cmp	r3, #128
 120 0080 01DD     		ble	.L7
 121              		.loc 1 62 0
 122 0082 4223     		movs	r3, #66
 123 0084 4DE0     		b	.L10
 124              	.L7:
 125              		.loc 1 64 0
 126 0086 9DF8A730 		ldrb	r3, [sp, #167]	@ zero_extendqisi2
 127 008a 2AAA     		add	r2, sp, #168
 128 008c 1344     		add	r3, r3, r2
 129 008e 9DF80720 		ldrb	r2, [sp, #7]
 130 0092 03F8A02C 		strb	r2, [r3, #-160]
 131              		.loc 1 65 0
 132 0096 9DF8A730 		ldrb	r3, [sp, #167]	@ zero_extendqisi2
 133 009a 0133     		adds	r3, r3, #1
 134 009c 8DF8A730 		strb	r3, [sp, #167]
 135              		.loc 1 67 0
 136 00a0 9DF8A730 		ldrb	r3, [sp, #167]	@ zero_extendqisi2
 137 00a4 2AAA     		add	r2, sp, #168
 138 00a6 1344     		add	r3, r3, r2
 139 00a8 9DF80620 		ldrb	r2, [sp, #6]
 140 00ac 03F8A02C 		strb	r2, [r3, #-160]
 141              		.loc 1 68 0
 142 00b0 9DF8A730 		ldrb	r3, [sp, #167]	@ zero_extendqisi2
 143 00b4 0133     		adds	r3, r3, #1
 144 00b6 8DF8A730 		strb	r3, [sp, #167]
 145              		.loc 1 70 0
 146 00ba 9DF8A730 		ldrb	r3, [sp, #167]	@ zero_extendqisi2
 147 00be 02AA     		add	r2, sp, #8
 148 00c0 1A44     		add	r2, r2, r3
 149 00c2 9DF80630 		ldrb	r3, [sp, #6]	@ zero_extendqisi2
 150 00c6 1046     		mov	r0, r2
 151 00c8 0099     		ldr	r1, [sp]
 152 00ca 1A46     		mov	r2, r3
 153 00cc FFF7FEFF 		bl	Osal_MemCpy
 154              		.loc 1 71 0
 155 00d0 9DF8A720 		ldrb	r2, [sp, #167]
 156 00d4 9DF80630 		ldrb	r3, [sp, #6]
 157 00d8 1344     		add	r3, r3, r2
 158 00da 8DF8A730 		strb	r3, [sp, #167]
 159              		.loc 1 73 0
 160 00de 23AB     		add	r3, sp, #140
 161 00e0 1846     		mov	r0, r3
 162 00e2 0021     		movs	r1, #0
 163 00e4 1822     		movs	r2, #24
 164 00e6 FFF7FEFF 		bl	Osal_MemSet
 165              		.loc 1 74 0
 166 00ea 3F23     		movs	r3, #63
 167 00ec ADF88C30 		strh	r3, [sp, #140]	@ movhi
 168              		.loc 1 75 0
 169 00f0 0C23     		movs	r3, #12
 170 00f2 ADF88E30 		strh	r3, [sp, #142]	@ movhi
 171              		.loc 1 76 0
ARM GAS  /tmp/ccbCgXmb.s 			page 4


 172 00f6 02AB     		add	r3, sp, #8
 173 00f8 2593     		str	r3, [sp, #148]
 174              		.loc 1 77 0
 175 00fa 9DF8A730 		ldrb	r3, [sp, #167]	@ zero_extendqisi2
 176 00fe 2693     		str	r3, [sp, #152]
 177              		.loc 1 78 0
 178 0100 0DF18B03 		add	r3, sp, #139
 179 0104 2793     		str	r3, [sp, #156]
 180              		.loc 1 79 0
 181 0106 0123     		movs	r3, #1
 182 0108 2893     		str	r3, [sp, #160]
 183              		.loc 1 81 0
 184 010a 23AB     		add	r3, sp, #140
 185 010c 1846     		mov	r0, r3
 186 010e 0021     		movs	r1, #0
 187 0110 FFF7FEFF 		bl	hci_send_req
 188 0114 0346     		mov	r3, r0
 189 0116 002B     		cmp	r3, #0
 190 0118 01DA     		bge	.L9
 191              		.loc 1 82 0
 192 011a FF23     		movs	r3, #255
 193 011c 01E0     		b	.L10
 194              	.L9:
 195              		.loc 1 84 0
 196 011e 9DF88B30 		ldrb	r3, [sp, #139]	@ zero_extendqisi2
 197              	.L10:
 198              		.loc 1 85 0
 199 0122 1846     		mov	r0, r3
 200 0124 2BB0     		add	sp, sp, #172
 201              		@ sp needed
 202 0126 5DF804FB 		ldr	pc, [sp], #4
 203              		.cfi_endproc
 204              	.LFE270:
 205              		.size	aci_hal_write_config_data, .-aci_hal_write_config_data
 206 012a 00BF     		.align	2
 207 012c AFF30080 		.p2align 4,,15
 208              		.global	aci_hal_read_config_data
 209              		.thumb
 210              		.thumb_func
 211              		.type	aci_hal_read_config_data, %function
 212              	aci_hal_read_config_data:
 213              	.LFB271:
 214              		.loc 1 88 0
 215              		.cfi_startproc
 216              		@ args = 0, pretend = 0, frame = 176
 217              		@ frame_needed = 0, uses_anonymous_args = 0
 218 0130 00B5     		push	{lr}
 219              		.cfi_def_cfa_offset 4
 220              		.cfi_offset 14, -4
 221 0132 ADB0     		sub	sp, sp, #180
 222              		.cfi_def_cfa_offset 184
 223 0134 0292     		str	r2, [sp, #8]
 224 0136 0193     		str	r3, [sp, #4]
 225 0138 0346     		mov	r3, r0
 226 013a 8DF80F30 		strb	r3, [sp, #15]
 227 013e 0B46     		mov	r3, r1	@ movhi
 228 0140 ADF80C30 		strh	r3, [sp, #12]	@ movhi
ARM GAS  /tmp/ccbCgXmb.s 			page 5


 229              		.loc 1 93 0
 230 0144 9DF80F30 		ldrb	r3, [sp, #15]
 231 0148 8DF89430 		strb	r3, [sp, #148]
 232              		.loc 1 95 0
 233 014c 26AB     		add	r3, sp, #152
 234 014e 1846     		mov	r0, r3
 235 0150 0021     		movs	r1, #0
 236 0152 1822     		movs	r2, #24
 237 0154 FFF7FEFF 		bl	Osal_MemSet
 238              		.loc 1 96 0
 239 0158 3F23     		movs	r3, #63
 240 015a ADF89830 		strh	r3, [sp, #152]	@ movhi
 241              		.loc 1 97 0
 242 015e 0D23     		movs	r3, #13
 243 0160 ADF89A30 		strh	r3, [sp, #154]	@ movhi
 244              		.loc 1 98 0
 245 0164 25AB     		add	r3, sp, #148
 246 0166 2893     		str	r3, [sp, #160]
 247              		.loc 1 99 0
 248 0168 0123     		movs	r3, #1
 249 016a 2993     		str	r3, [sp, #164]
 250              		.loc 1 100 0
 251 016c 05AB     		add	r3, sp, #20
 252 016e 2A93     		str	r3, [sp, #168]
 253              		.loc 1 101 0
 254 0170 8023     		movs	r3, #128
 255 0172 2B93     		str	r3, [sp, #172]
 256              		.loc 1 103 0
 257 0174 26AB     		add	r3, sp, #152
 258 0176 1846     		mov	r0, r3
 259 0178 0021     		movs	r1, #0
 260 017a FFF7FEFF 		bl	hci_send_req
 261 017e 0346     		mov	r3, r0
 262 0180 002B     		cmp	r3, #0
 263 0182 01DA     		bge	.L12
 264              		.loc 1 104 0
 265 0184 FF23     		movs	r3, #255
 266 0186 1DE0     		b	.L15
 267              	.L12:
 268              		.loc 1 106 0
 269 0188 9DF81430 		ldrb	r3, [sp, #20]	@ zero_extendqisi2
 270 018c 002B     		cmp	r3, #0
 271 018e 02D0     		beq	.L14
 272              		.loc 1 107 0
 273 0190 9DF81430 		ldrb	r3, [sp, #20]	@ zero_extendqisi2
 274 0194 16E0     		b	.L15
 275              	.L14:
 276              		.loc 1 109 0
 277 0196 2B9B     		ldr	r3, [sp, #172]
 278 0198 DBB2     		uxtb	r3, r3
 279 019a 013B     		subs	r3, r3, #1
 280 019c DAB2     		uxtb	r2, r3
 281 019e 029B     		ldr	r3, [sp, #8]
 282 01a0 1A70     		strb	r2, [r3]
 283              		.loc 1 111 0
 284 01a2 029B     		ldr	r3, [sp, #8]
 285 01a4 1B78     		ldrb	r3, [r3]	@ zero_extendqisi2
ARM GAS  /tmp/ccbCgXmb.s 			page 6


 286 01a6 1A46     		mov	r2, r3
 287 01a8 BDF80C30 		ldrh	r3, [sp, #12]
 288 01ac 9A42     		cmp	r2, r3
 289 01ae 38BF     		it	cc
 290 01b0 1346     		movcc	r3, r2
 291 01b2 9BB2     		uxth	r3, r3
 292 01b4 05AA     		add	r2, sp, #20
 293 01b6 0132     		adds	r2, r2, #1
 294 01b8 0198     		ldr	r0, [sp, #4]
 295 01ba 1146     		mov	r1, r2
 296 01bc 1A46     		mov	r2, r3
 297 01be FFF7FEFF 		bl	Osal_MemCpy
 298              		.loc 1 113 0
 299 01c2 0023     		movs	r3, #0
 300              	.L15:
 301              		.loc 1 114 0
 302 01c4 1846     		mov	r0, r3
 303 01c6 2DB0     		add	sp, sp, #180
 304              		@ sp needed
 305 01c8 5DF804FB 		ldr	pc, [sp], #4
 306              		.cfi_endproc
 307              	.LFE271:
 308              		.size	aci_hal_read_config_data, .-aci_hal_read_config_data
 309              		.align	2
 310 01cc AFF30080 		.p2align 4,,15
 311              		.global	aci_hal_set_tx_power_level
 312              		.thumb
 313              		.thumb_func
 314              		.type	aci_hal_set_tx_power_level, %function
 315              	aci_hal_set_tx_power_level:
 316              	.LFB272:
 317              		.loc 1 117 0
 318              		.cfi_startproc
 319              		@ args = 0, pretend = 0, frame = 40
 320              		@ frame_needed = 0, uses_anonymous_args = 0
 321 01d0 00B5     		push	{lr}
 322              		.cfi_def_cfa_offset 4
 323              		.cfi_offset 14, -4
 324 01d2 8BB0     		sub	sp, sp, #44
 325              		.cfi_def_cfa_offset 48
 326 01d4 0246     		mov	r2, r0
 327 01d6 0B46     		mov	r3, r1
 328 01d8 8DF80720 		strb	r2, [sp, #7]
 329 01dc 8DF80630 		strb	r3, [sp, #6]
 330              		.loc 1 122 0
 331 01e0 9DF80730 		ldrb	r3, [sp, #7]
 332 01e4 8DF80C30 		strb	r3, [sp, #12]
 333              		.loc 1 123 0
 334 01e8 9DF80630 		ldrb	r3, [sp, #6]
 335 01ec 8DF80D30 		strb	r3, [sp, #13]
 336              		.loc 1 125 0
 337 01f0 04AB     		add	r3, sp, #16
 338 01f2 1846     		mov	r0, r3
 339 01f4 0021     		movs	r1, #0
 340 01f6 1822     		movs	r2, #24
 341 01f8 FFF7FEFF 		bl	Osal_MemSet
 342              		.loc 1 126 0
ARM GAS  /tmp/ccbCgXmb.s 			page 7


 343 01fc 3F23     		movs	r3, #63
 344 01fe ADF81030 		strh	r3, [sp, #16]	@ movhi
 345              		.loc 1 127 0
 346 0202 0F23     		movs	r3, #15
 347 0204 ADF81230 		strh	r3, [sp, #18]	@ movhi
 348              		.loc 1 128 0
 349 0208 03AB     		add	r3, sp, #12
 350 020a 0693     		str	r3, [sp, #24]
 351              		.loc 1 129 0
 352 020c 0223     		movs	r3, #2
 353 020e 0793     		str	r3, [sp, #28]
 354              		.loc 1 130 0
 355 0210 0DF10B03 		add	r3, sp, #11
 356 0214 0893     		str	r3, [sp, #32]
 357              		.loc 1 131 0
 358 0216 0123     		movs	r3, #1
 359 0218 0993     		str	r3, [sp, #36]
 360              		.loc 1 133 0
 361 021a 04AB     		add	r3, sp, #16
 362 021c 1846     		mov	r0, r3
 363 021e 0021     		movs	r1, #0
 364 0220 FFF7FEFF 		bl	hci_send_req
 365 0224 0346     		mov	r3, r0
 366 0226 002B     		cmp	r3, #0
 367 0228 01DA     		bge	.L17
 368              		.loc 1 134 0
 369 022a FF23     		movs	r3, #255
 370 022c 01E0     		b	.L19
 371              	.L17:
 372              		.loc 1 136 0
 373 022e 9DF80B30 		ldrb	r3, [sp, #11]	@ zero_extendqisi2
 374              	.L19:
 375              		.loc 1 137 0
 376 0232 1846     		mov	r0, r3
 377 0234 0BB0     		add	sp, sp, #44
 378              		@ sp needed
 379 0236 5DF804FB 		ldr	pc, [sp], #4
 380              		.cfi_endproc
 381              	.LFE272:
 382              		.size	aci_hal_set_tx_power_level, .-aci_hal_set_tx_power_level
 383 023a 00BF     		.align	2
 384 023c AFF30080 		.p2align 4,,15
 385              		.global	aci_hal_le_tx_test_packet_number
 386              		.thumb
 387              		.thumb_func
 388              		.type	aci_hal_le_tx_test_packet_number, %function
 389              	aci_hal_le_tx_test_packet_number:
 390              	.LFB273:
 391              		.loc 1 140 0
 392              		.cfi_startproc
 393              		@ args = 0, pretend = 0, frame = 40
 394              		@ frame_needed = 0, uses_anonymous_args = 0
 395 0240 00B5     		push	{lr}
 396              		.cfi_def_cfa_offset 4
 397              		.cfi_offset 14, -4
 398 0242 8BB0     		sub	sp, sp, #44
 399              		.cfi_def_cfa_offset 48
ARM GAS  /tmp/ccbCgXmb.s 			page 8


 400 0244 0190     		str	r0, [sp, #4]
 401              		.loc 1 144 0
 402 0246 04AB     		add	r3, sp, #16
 403 0248 1846     		mov	r0, r3
 404 024a 0021     		movs	r1, #0
 405 024c 1822     		movs	r2, #24
 406 024e FFF7FEFF 		bl	Osal_MemSet
 407              		.loc 1 145 0
 408 0252 3F23     		movs	r3, #63
 409 0254 ADF81030 		strh	r3, [sp, #16]	@ movhi
 410              		.loc 1 146 0
 411 0258 1423     		movs	r3, #20
 412 025a ADF81230 		strh	r3, [sp, #18]	@ movhi
 413              		.loc 1 147 0
 414 025e 02AB     		add	r3, sp, #8
 415 0260 0893     		str	r3, [sp, #32]
 416              		.loc 1 148 0
 417 0262 0523     		movs	r3, #5
 418 0264 0993     		str	r3, [sp, #36]
 419              		.loc 1 150 0
 420 0266 04AB     		add	r3, sp, #16
 421 0268 1846     		mov	r0, r3
 422 026a 0021     		movs	r1, #0
 423 026c FFF7FEFF 		bl	hci_send_req
 424 0270 0346     		mov	r3, r0
 425 0272 002B     		cmp	r3, #0
 426 0274 01DA     		bge	.L21
 427              		.loc 1 151 0
 428 0276 FF23     		movs	r3, #255
 429 0278 0BE0     		b	.L24
 430              	.L21:
 431              		.loc 1 153 0
 432 027a 9DF80830 		ldrb	r3, [sp, #8]	@ zero_extendqisi2
 433 027e 002B     		cmp	r3, #0
 434 0280 02D0     		beq	.L23
 435              		.loc 1 154 0
 436 0282 9DF80830 		ldrb	r3, [sp, #8]	@ zero_extendqisi2
 437 0286 04E0     		b	.L24
 438              	.L23:
 439              		.loc 1 157 0
 440 0288 DDF80920 		ldr	r2, [sp, #9]	@ unaligned
 441 028c 019B     		ldr	r3, [sp, #4]
 442 028e 1A60     		str	r2, [r3]
 443              		.loc 1 159 0
 444 0290 0023     		movs	r3, #0
 445              	.L24:
 446              		.loc 1 160 0
 447 0292 1846     		mov	r0, r3
 448 0294 0BB0     		add	sp, sp, #44
 449              		@ sp needed
 450 0296 5DF804FB 		ldr	pc, [sp], #4
 451              		.cfi_endproc
 452              	.LFE273:
 453              		.size	aci_hal_le_tx_test_packet_number, .-aci_hal_le_tx_test_packet_number
 454 029a 00BF     		.align	2
 455 029c AFF30080 		.p2align 4,,15
 456              		.global	aci_hal_device_standby
ARM GAS  /tmp/ccbCgXmb.s 			page 9


 457              		.thumb
 458              		.thumb_func
 459              		.type	aci_hal_device_standby, %function
 460              	aci_hal_device_standby:
 461              	.LFB274:
 462              		.loc 1 163 0
 463              		.cfi_startproc
 464              		@ args = 0, pretend = 0, frame = 32
 465              		@ frame_needed = 0, uses_anonymous_args = 0
 466 02a0 00B5     		push	{lr}
 467              		.cfi_def_cfa_offset 4
 468              		.cfi_offset 14, -4
 469 02a2 89B0     		sub	sp, sp, #36
 470              		.cfi_def_cfa_offset 40
 471              		.loc 1 167 0
 472 02a4 02AB     		add	r3, sp, #8
 473 02a6 1846     		mov	r0, r3
 474 02a8 0021     		movs	r1, #0
 475 02aa 1822     		movs	r2, #24
 476 02ac FFF7FEFF 		bl	Osal_MemSet
 477              		.loc 1 168 0
 478 02b0 3F23     		movs	r3, #63
 479 02b2 ADF80830 		strh	r3, [sp, #8]	@ movhi
 480              		.loc 1 169 0
 481 02b6 1323     		movs	r3, #19
 482 02b8 ADF80A30 		strh	r3, [sp, #10]	@ movhi
 483              		.loc 1 170 0
 484 02bc 0DF10703 		add	r3, sp, #7
 485 02c0 0693     		str	r3, [sp, #24]
 486              		.loc 1 171 0
 487 02c2 0123     		movs	r3, #1
 488 02c4 0793     		str	r3, [sp, #28]
 489              		.loc 1 173 0
 490 02c6 02AB     		add	r3, sp, #8
 491 02c8 1846     		mov	r0, r3
 492 02ca 0021     		movs	r1, #0
 493 02cc FFF7FEFF 		bl	hci_send_req
 494 02d0 0346     		mov	r3, r0
 495 02d2 002B     		cmp	r3, #0
 496 02d4 01DA     		bge	.L26
 497              		.loc 1 174 0
 498 02d6 FF23     		movs	r3, #255
 499 02d8 01E0     		b	.L28
 500              	.L26:
 501              		.loc 1 176 0
 502 02da 9DF80730 		ldrb	r3, [sp, #7]	@ zero_extendqisi2
 503              	.L28:
 504              		.loc 1 177 0
 505 02de 1846     		mov	r0, r3
 506 02e0 09B0     		add	sp, sp, #36
 507              		@ sp needed
 508 02e2 5DF804FB 		ldr	pc, [sp], #4
 509              		.cfi_endproc
 510              	.LFE274:
 511              		.size	aci_hal_device_standby, .-aci_hal_device_standby
 512 02e6 00BF     		.align	2
 513 02e8 AFF30080 		.p2align 4,,15
ARM GAS  /tmp/ccbCgXmb.s 			page 10


 513      AFF30080 
 514              		.global	aci_hal_tone_start
 515              		.thumb
 516              		.thumb_func
 517              		.type	aci_hal_tone_start, %function
 518              	aci_hal_tone_start:
 519              	.LFB275:
 520              		.loc 1 180 0
 521              		.cfi_startproc
 522              		@ args = 0, pretend = 0, frame = 40
 523              		@ frame_needed = 0, uses_anonymous_args = 0
 524 02f0 00B5     		push	{lr}
 525              		.cfi_def_cfa_offset 4
 526              		.cfi_offset 14, -4
 527 02f2 8BB0     		sub	sp, sp, #44
 528              		.cfi_def_cfa_offset 48
 529 02f4 0346     		mov	r3, r0
 530 02f6 8DF80730 		strb	r3, [sp, #7]
 531              		.loc 1 185 0
 532 02fa 9DF80730 		ldrb	r3, [sp, #7]
 533 02fe 8DF80C30 		strb	r3, [sp, #12]
 534              		.loc 1 187 0
 535 0302 04AB     		add	r3, sp, #16
 536 0304 1846     		mov	r0, r3
 537 0306 0021     		movs	r1, #0
 538 0308 1822     		movs	r2, #24
 539 030a FFF7FEFF 		bl	Osal_MemSet
 540              		.loc 1 188 0
 541 030e 3F23     		movs	r3, #63
 542 0310 ADF81030 		strh	r3, [sp, #16]	@ movhi
 543              		.loc 1 189 0
 544 0314 1523     		movs	r3, #21
 545 0316 ADF81230 		strh	r3, [sp, #18]	@ movhi
 546              		.loc 1 190 0
 547 031a 03AB     		add	r3, sp, #12
 548 031c 0693     		str	r3, [sp, #24]
 549              		.loc 1 191 0
 550 031e 0123     		movs	r3, #1
 551 0320 0793     		str	r3, [sp, #28]
 552              		.loc 1 192 0
 553 0322 0DF10B03 		add	r3, sp, #11
 554 0326 0893     		str	r3, [sp, #32]
 555              		.loc 1 193 0
 556 0328 0123     		movs	r3, #1
 557 032a 0993     		str	r3, [sp, #36]
 558              		.loc 1 195 0
 559 032c 04AB     		add	r3, sp, #16
 560 032e 1846     		mov	r0, r3
 561 0330 0021     		movs	r1, #0
 562 0332 FFF7FEFF 		bl	hci_send_req
 563 0336 0346     		mov	r3, r0
 564 0338 002B     		cmp	r3, #0
 565 033a 01DA     		bge	.L30
 566              		.loc 1 196 0
 567 033c FF23     		movs	r3, #255
 568 033e 01E0     		b	.L32
 569              	.L30:
ARM GAS  /tmp/ccbCgXmb.s 			page 11


 570              		.loc 1 198 0
 571 0340 9DF80B30 		ldrb	r3, [sp, #11]	@ zero_extendqisi2
 572              	.L32:
 573              		.loc 1 199 0
 574 0344 1846     		mov	r0, r3
 575 0346 0BB0     		add	sp, sp, #44
 576              		@ sp needed
 577 0348 5DF804FB 		ldr	pc, [sp], #4
 578              		.cfi_endproc
 579              	.LFE275:
 580              		.size	aci_hal_tone_start, .-aci_hal_tone_start
 581              		.align	2
 582 034c AFF30080 		.p2align 4,,15
 583              		.global	aci_hal_tone_stop
 584              		.thumb
 585              		.thumb_func
 586              		.type	aci_hal_tone_stop, %function
 587              	aci_hal_tone_stop:
 588              	.LFB276:
 589              		.loc 1 202 0
 590              		.cfi_startproc
 591              		@ args = 0, pretend = 0, frame = 32
 592              		@ frame_needed = 0, uses_anonymous_args = 0
 593 0350 00B5     		push	{lr}
 594              		.cfi_def_cfa_offset 4
 595              		.cfi_offset 14, -4
 596 0352 89B0     		sub	sp, sp, #36
 597              		.cfi_def_cfa_offset 40
 598              		.loc 1 206 0
 599 0354 02AB     		add	r3, sp, #8
 600 0356 1846     		mov	r0, r3
 601 0358 0021     		movs	r1, #0
 602 035a 1822     		movs	r2, #24
 603 035c FFF7FEFF 		bl	Osal_MemSet
 604              		.loc 1 207 0
 605 0360 3F23     		movs	r3, #63
 606 0362 ADF80830 		strh	r3, [sp, #8]	@ movhi
 607              		.loc 1 208 0
 608 0366 1623     		movs	r3, #22
 609 0368 ADF80A30 		strh	r3, [sp, #10]	@ movhi
 610              		.loc 1 209 0
 611 036c 0DF10703 		add	r3, sp, #7
 612 0370 0693     		str	r3, [sp, #24]
 613              		.loc 1 210 0
 614 0372 0123     		movs	r3, #1
 615 0374 0793     		str	r3, [sp, #28]
 616              		.loc 1 212 0
 617 0376 02AB     		add	r3, sp, #8
 618 0378 1846     		mov	r0, r3
 619 037a 0021     		movs	r1, #0
 620 037c FFF7FEFF 		bl	hci_send_req
 621 0380 0346     		mov	r3, r0
 622 0382 002B     		cmp	r3, #0
 623 0384 01DA     		bge	.L34
 624              		.loc 1 213 0
 625 0386 FF23     		movs	r3, #255
 626 0388 01E0     		b	.L36
ARM GAS  /tmp/ccbCgXmb.s 			page 12


 627              	.L34:
 628              		.loc 1 215 0
 629 038a 9DF80730 		ldrb	r3, [sp, #7]	@ zero_extendqisi2
 630              	.L36:
 631              		.loc 1 216 0
 632 038e 1846     		mov	r0, r3
 633 0390 09B0     		add	sp, sp, #36
 634              		@ sp needed
 635 0392 5DF804FB 		ldr	pc, [sp], #4
 636              		.cfi_endproc
 637              	.LFE276:
 638              		.size	aci_hal_tone_stop, .-aci_hal_tone_stop
 639 0396 00BF     		.align	2
 640 0398 AFF30080 		.p2align 4,,15
 640      AFF30080 
 641              		.global	aci_hal_get_link_status
 642              		.thumb
 643              		.thumb_func
 644              		.type	aci_hal_get_link_status, %function
 645              	aci_hal_get_link_status:
 646              	.LFB277:
 647              		.loc 1 219 0
 648              		.cfi_startproc
 649              		@ args = 0, pretend = 0, frame = 64
 650              		@ frame_needed = 0, uses_anonymous_args = 0
 651 03a0 00B5     		push	{lr}
 652              		.cfi_def_cfa_offset 4
 653              		.cfi_offset 14, -4
 654 03a2 91B0     		sub	sp, sp, #68
 655              		.cfi_def_cfa_offset 72
 656 03a4 0190     		str	r0, [sp, #4]
 657 03a6 0091     		str	r1, [sp]
 658              		.loc 1 223 0
 659 03a8 09AB     		add	r3, sp, #36
 660 03aa 1846     		mov	r0, r3
 661 03ac 0021     		movs	r1, #0
 662 03ae 1822     		movs	r2, #24
 663 03b0 FFF7FEFF 		bl	Osal_MemSet
 664              		.loc 1 224 0
 665 03b4 3F23     		movs	r3, #63
 666 03b6 ADF82430 		strh	r3, [sp, #36]	@ movhi
 667              		.loc 1 225 0
 668 03ba 1723     		movs	r3, #23
 669 03bc ADF82630 		strh	r3, [sp, #38]	@ movhi
 670              		.loc 1 226 0
 671 03c0 02AB     		add	r3, sp, #8
 672 03c2 0D93     		str	r3, [sp, #52]
 673              		.loc 1 227 0
 674 03c4 1923     		movs	r3, #25
 675 03c6 0E93     		str	r3, [sp, #56]
 676              		.loc 1 229 0
 677 03c8 09AB     		add	r3, sp, #36
 678 03ca 1846     		mov	r0, r3
 679 03cc 0021     		movs	r1, #0
 680 03ce FFF7FEFF 		bl	hci_send_req
 681 03d2 0346     		mov	r3, r0
 682 03d4 002B     		cmp	r3, #0
ARM GAS  /tmp/ccbCgXmb.s 			page 13


 683 03d6 01DA     		bge	.L38
 684              		.loc 1 230 0
 685 03d8 FF23     		movs	r3, #255
 686 03da 24E0     		b	.L43
 687              	.L38:
 688              		.loc 1 232 0
 689 03dc 9DF80830 		ldrb	r3, [sp, #8]	@ zero_extendqisi2
 690 03e0 002B     		cmp	r3, #0
 691 03e2 02D0     		beq	.L40
 692              		.loc 1 233 0
 693 03e4 9DF80830 		ldrb	r3, [sp, #8]	@ zero_extendqisi2
 694 03e8 1DE0     		b	.L43
 695              	.L40:
 696              		.loc 1 235 0
 697 03ea 02AB     		add	r3, sp, #8
 698 03ec 0133     		adds	r3, r3, #1
 699 03ee 0198     		ldr	r0, [sp, #4]
 700 03f0 1946     		mov	r1, r3
 701 03f2 0422     		movs	r2, #4
 702 03f4 FFF7FEFF 		bl	Osal_MemCpy
 703              	.LBB2:
 704              		.loc 1 236 0
 705 03f8 0023     		movs	r3, #0
 706 03fa 0F93     		str	r3, [sp, #60]
 707 03fc 0FE0     		b	.L41
 708              	.L42:
 709              		.loc 1 237 0 discriminator 2
 710 03fe 0F9B     		ldr	r3, [sp, #60]
 711 0400 5B00     		lsls	r3, r3, #1
 712 0402 009A     		ldr	r2, [sp]
 713 0404 1A44     		add	r2, r2, r3
 714 0406 0F9B     		ldr	r3, [sp, #60]
 715 0408 0433     		adds	r3, r3, #4
 716 040a 5B00     		lsls	r3, r3, #1
 717 040c 10A9     		add	r1, sp, #64
 718 040e 0B44     		add	r3, r3, r1
 719 0410 33F8373C 		ldrh	r3, [r3, #-55]	@ unaligned
 720 0414 9BB2     		uxth	r3, r3
 721 0416 1380     		strh	r3, [r2]	@ movhi
 722              		.loc 1 236 0 discriminator 2
 723 0418 0F9B     		ldr	r3, [sp, #60]
 724 041a 0133     		adds	r3, r3, #1
 725 041c 0F93     		str	r3, [sp, #60]
 726              	.L41:
 727              		.loc 1 236 0 is_stmt 0 discriminator 1
 728 041e 0F9B     		ldr	r3, [sp, #60]
 729 0420 072B     		cmp	r3, #7
 730 0422 ECDD     		ble	.L42
 731              	.LBE2:
 732              		.loc 1 239 0 is_stmt 1
 733 0424 0023     		movs	r3, #0
 734              	.L43:
 735              		.loc 1 240 0
 736 0426 1846     		mov	r0, r3
 737 0428 11B0     		add	sp, sp, #68
 738              		@ sp needed
 739 042a 5DF804FB 		ldr	pc, [sp], #4
ARM GAS  /tmp/ccbCgXmb.s 			page 14


 740              		.cfi_endproc
 741              	.LFE277:
 742              		.size	aci_hal_get_link_status, .-aci_hal_get_link_status
 743 042e 00BF     		.align	2
 744              		.p2align 4,,15
 745              		.global	aci_hal_get_anchor_period
 746              		.thumb
 747              		.thumb_func
 748              		.type	aci_hal_get_anchor_period, %function
 749              	aci_hal_get_anchor_period:
 750              	.LFB278:
 751              		.loc 1 243 0
 752              		.cfi_startproc
 753              		@ args = 0, pretend = 0, frame = 48
 754              		@ frame_needed = 0, uses_anonymous_args = 0
 755 0430 00B5     		push	{lr}
 756              		.cfi_def_cfa_offset 4
 757              		.cfi_offset 14, -4
 758 0432 8DB0     		sub	sp, sp, #52
 759              		.cfi_def_cfa_offset 56
 760 0434 0190     		str	r0, [sp, #4]
 761 0436 0091     		str	r1, [sp]
 762              		.loc 1 247 0
 763 0438 06AB     		add	r3, sp, #24
 764 043a 1846     		mov	r0, r3
 765 043c 0021     		movs	r1, #0
 766 043e 1822     		movs	r2, #24
 767 0440 FFF7FEFF 		bl	Osal_MemSet
 768              		.loc 1 248 0
 769 0444 3F23     		movs	r3, #63
 770 0446 ADF81830 		strh	r3, [sp, #24]	@ movhi
 771              		.loc 1 249 0
 772 044a 1923     		movs	r3, #25
 773 044c ADF81A30 		strh	r3, [sp, #26]	@ movhi
 774              		.loc 1 250 0
 775 0450 03AB     		add	r3, sp, #12
 776 0452 0A93     		str	r3, [sp, #40]
 777              		.loc 1 251 0
 778 0454 0923     		movs	r3, #9
 779 0456 0B93     		str	r3, [sp, #44]
 780              		.loc 1 253 0
 781 0458 06AB     		add	r3, sp, #24
 782 045a 1846     		mov	r0, r3
 783 045c 0021     		movs	r1, #0
 784 045e FFF7FEFF 		bl	hci_send_req
 785 0462 0346     		mov	r3, r0
 786 0464 002B     		cmp	r3, #0
 787 0466 01DA     		bge	.L45
 788              		.loc 1 254 0
 789 0468 FF23     		movs	r3, #255
 790 046a 0FE0     		b	.L48
 791              	.L45:
 792              		.loc 1 256 0
 793 046c 9DF80C30 		ldrb	r3, [sp, #12]	@ zero_extendqisi2
 794 0470 002B     		cmp	r3, #0
 795 0472 02D0     		beq	.L47
 796              		.loc 1 257 0
ARM GAS  /tmp/ccbCgXmb.s 			page 15


 797 0474 9DF80C30 		ldrb	r3, [sp, #12]	@ zero_extendqisi2
 798 0478 08E0     		b	.L48
 799              	.L47:
 800              		.loc 1 259 0
 801 047a DDF80D20 		ldr	r2, [sp, #13]	@ unaligned
 802 047e 019B     		ldr	r3, [sp, #4]
 803 0480 1A60     		str	r2, [r3]
 804              		.loc 1 260 0
 805 0482 DDF81120 		ldr	r2, [sp, #17]	@ unaligned
 806 0486 009B     		ldr	r3, [sp]
 807 0488 1A60     		str	r2, [r3]
 808              		.loc 1 262 0
 809 048a 0023     		movs	r3, #0
 810              	.L48:
 811              		.loc 1 263 0
 812 048c 1846     		mov	r0, r3
 813 048e 0DB0     		add	sp, sp, #52
 814              		@ sp needed
 815 0490 5DF804FB 		ldr	pc, [sp], #4
 816              		.cfi_endproc
 817              	.LFE278:
 818              		.size	aci_hal_get_anchor_period, .-aci_hal_get_anchor_period
 819              	.Letext0:
 820              		.file 2 "/nfs/nfs5/home/research/hardware/arm2/gcc-arm-embedded/gcc-arm-none-eabi-4_8-2014q2/arm-n
 821              		.file 3 "/nfs/nfs5/home/research/hardware/arm2/gcc-arm-embedded/gcc-arm-none-eabi-4_8-2014q2/arm-n
 822              		.file 4 "../../../../../../ChibiOS/os/rt/ports/ARMCMx/compilers/GCC/chtypes.h"
 823              		.file 5 "../../../../../../ChibiOS/os/rt/include/chsystypes.h"
 824              		.file 6 "../../../../../../ChibiOS/os/rt/include/chschd.h"
 825              		.file 7 "../../../../../../ChibiOS/os/rt/ports/ARMCMx/chcore.h"
 826              		.file 8 "../../../../../../ChibiOS/os/rt/ports/ARMCMx/chcore_v7m.h"
 827              		.file 9 "../../../../../../ChibiOS/os/rt/include/chtm.h"
 828              		.file 10 "../../../../../../ChibiOS/os/rt/include/chsem.h"
 829              		.file 11 "../../../../../../ChibiOS/os/rt/include/chmtx.h"
 830              		.file 12 "../../../../../Middlewares/ST/STM32_BlueNRG/SimpleBlueNRG_HCI/includes/ble_status.h"
 831              		.file 13 "../../../../../Middlewares/ST/STM32_BlueNRG/SimpleBlueNRG_HCI/includes/hci_const.h"
 832              		.file 14 "../../../../../Middlewares/ST/STM32_BlueNRG/SimpleBlueNRG_HCI/includes/bluenrg_aci_const
 833              		.file 15 "../../../../../../ChibiOS/os/ext/CMSIS/include/core_cm4.h"