ARM GAS  /tmp/ccXaFLhi.s 			page 1


   1              		.syntax unified
   2              		.cpu cortex-m4
   3              		.fpu softvfp
   4              		.eabi_attribute 20, 1
   5              		.eabi_attribute 21, 1
   6              		.eabi_attribute 23, 3
   7              		.eabi_attribute 24, 1
   8              		.eabi_attribute 25, 1
   9              		.eabi_attribute 26, 1
  10              		.eabi_attribute 30, 6
  11              		.eabi_attribute 34, 1
  12              		.eabi_attribute 18, 4
  13              		.thumb
  14              		.file	"bluenrg_l2cap_aci.c"
  15              		.text
  16              	.Ltext0:
  17              		.cfi_sections	.debug_frame
  18              		.align	2
  19              		.p2align 4,,15
  20              		.global	aci_l2cap_connection_parameter_update_request
  21              		.thumb
  22              		.thumb_func
  23              		.type	aci_l2cap_connection_parameter_update_request, %function
  24              	aci_l2cap_connection_parameter_update_request:
  25              	.LFB269:
  26              		.file 1 "../../../../../Middlewares/ST/STM32_BlueNRG/SimpleBlueNRG_HCI/hci/controller/bluenrg_l2ca
  27              		.loc 1 32 0
  28              		.cfi_startproc
  29              		@ args = 4, pretend = 0, frame = 48
  30              		@ frame_needed = 0, uses_anonymous_args = 0
  31 0000 00B5     		push	{lr}
  32              		.cfi_def_cfa_offset 4
  33              		.cfi_offset 14, -4
  34 0002 8DB0     		sub	sp, sp, #52
  35              		.cfi_def_cfa_offset 56
  36 0004 ADF80600 		strh	r0, [sp, #6]	@ movhi
  37 0008 ADF80410 		strh	r1, [sp, #4]	@ movhi
  38 000c ADF80220 		strh	r2, [sp, #2]	@ movhi
  39 0010 ADF80030 		strh	r3, [sp]	@ movhi
  40              		.loc 1 37 0
  41 0014 BDF80630 		ldrh	r3, [sp, #6]	@ movhi
  42 0018 ADF80C30 		strh	r3, [sp, #12]	@ movhi
  43              		.loc 1 38 0
  44 001c BDF80430 		ldrh	r3, [sp, #4]	@ movhi
  45 0020 ADF80E30 		strh	r3, [sp, #14]	@ movhi
  46              		.loc 1 39 0
  47 0024 BDF80230 		ldrh	r3, [sp, #2]	@ movhi
  48 0028 ADF81030 		strh	r3, [sp, #16]	@ movhi
  49              		.loc 1 40 0
  50 002c BDF80030 		ldrh	r3, [sp]	@ movhi
  51 0030 ADF81230 		strh	r3, [sp, #18]	@ movhi
  52              		.loc 1 41 0
  53 0034 BDF83830 		ldrh	r3, [sp, #56]	@ movhi
  54 0038 ADF81430 		strh	r3, [sp, #20]	@ movhi
  55              		.loc 1 43 0
  56 003c 06AB     		add	r3, sp, #24
  57 003e 1846     		mov	r0, r3
ARM GAS  /tmp/ccXaFLhi.s 			page 2


  58 0040 0021     		movs	r1, #0
  59 0042 1822     		movs	r2, #24
  60 0044 FFF7FEFF 		bl	Osal_MemSet
  61              		.loc 1 44 0
  62 0048 3F23     		movs	r3, #63
  63 004a ADF81830 		strh	r3, [sp, #24]	@ movhi
  64              		.loc 1 45 0
  65 004e 40F28113 		movw	r3, #385
  66 0052 ADF81A30 		strh	r3, [sp, #26]	@ movhi
  67              		.loc 1 46 0
  68 0056 03AB     		add	r3, sp, #12
  69 0058 0893     		str	r3, [sp, #32]
  70              		.loc 1 47 0
  71 005a 0A23     		movs	r3, #10
  72 005c 0993     		str	r3, [sp, #36]
  73              		.loc 1 48 0
  74 005e 0F23     		movs	r3, #15
  75 0060 0793     		str	r3, [sp, #28]
  76              		.loc 1 49 0
  77 0062 0DF11703 		add	r3, sp, #23
  78 0066 0A93     		str	r3, [sp, #40]
  79              		.loc 1 50 0
  80 0068 0123     		movs	r3, #1
  81 006a 0B93     		str	r3, [sp, #44]
  82              		.loc 1 52 0
  83 006c 06AB     		add	r3, sp, #24
  84 006e 1846     		mov	r0, r3
  85 0070 0021     		movs	r1, #0
  86 0072 FFF7FEFF 		bl	hci_send_req
  87 0076 0346     		mov	r3, r0
  88 0078 002B     		cmp	r3, #0
  89 007a 01DA     		bge	.L2
  90              		.loc 1 53 0
  91 007c FF23     		movs	r3, #255
  92 007e 01E0     		b	.L4
  93              	.L2:
  94              		.loc 1 55 0
  95 0080 9DF81730 		ldrb	r3, [sp, #23]	@ zero_extendqisi2
  96              	.L4:
  97              		.loc 1 56 0
  98 0084 1846     		mov	r0, r3
  99 0086 0DB0     		add	sp, sp, #52
 100              		@ sp needed
 101 0088 5DF804FB 		ldr	pc, [sp], #4
 102              		.cfi_endproc
 103              	.LFE269:
 104              		.size	aci_l2cap_connection_parameter_update_request, .-aci_l2cap_connection_parameter_update_reque
 105              		.align	2
 106 008c AFF30080 		.p2align 4,,15
 107              		.global	aci_l2cap_connection_parameter_update_response_IDB05A1
 108              		.thumb
 109              		.thumb_func
 110              		.type	aci_l2cap_connection_parameter_update_response_IDB05A1, %function
 111              	aci_l2cap_connection_parameter_update_response_IDB05A1:
 112              	.LFB270:
 113              		.loc 1 62 0
 114              		.cfi_startproc
ARM GAS  /tmp/ccXaFLhi.s 			page 3


 115              		@ args = 20, pretend = 0, frame = 56
 116              		@ frame_needed = 0, uses_anonymous_args = 0
 117 0090 00B5     		push	{lr}
 118              		.cfi_def_cfa_offset 4
 119              		.cfi_offset 14, -4
 120 0092 8FB0     		sub	sp, sp, #60
 121              		.cfi_def_cfa_offset 64
 122 0094 ADF80600 		strh	r0, [sp, #6]	@ movhi
 123 0098 ADF80410 		strh	r1, [sp, #4]	@ movhi
 124 009c ADF80220 		strh	r2, [sp, #2]	@ movhi
 125 00a0 ADF80030 		strh	r3, [sp]	@ movhi
 126              		.loc 1 67 0
 127 00a4 BDF80630 		ldrh	r3, [sp, #6]	@ movhi
 128 00a8 ADF80C30 		strh	r3, [sp, #12]	@ movhi
 129              		.loc 1 68 0
 130 00ac BDF80430 		ldrh	r3, [sp, #4]	@ movhi
 131 00b0 ADF80E30 		strh	r3, [sp, #14]	@ movhi
 132              		.loc 1 69 0
 133 00b4 BDF80230 		ldrh	r3, [sp, #2]	@ movhi
 134 00b8 ADF81030 		strh	r3, [sp, #16]	@ movhi
 135              		.loc 1 70 0
 136 00bc BDF80030 		ldrh	r3, [sp]	@ movhi
 137 00c0 ADF81230 		strh	r3, [sp, #18]	@ movhi
 138              		.loc 1 71 0
 139 00c4 BDF84030 		ldrh	r3, [sp, #64]	@ movhi
 140 00c8 ADF81430 		strh	r3, [sp, #20]	@ movhi
 141              		.loc 1 72 0
 142 00cc BDF84430 		ldrh	r3, [sp, #68]	@ movhi
 143 00d0 ADF81630 		strh	r3, [sp, #22]	@ movhi
 144              		.loc 1 73 0
 145 00d4 BDF84830 		ldrh	r3, [sp, #72]	@ movhi
 146 00d8 ADF81830 		strh	r3, [sp, #24]	@ movhi
 147              		.loc 1 74 0
 148 00dc 9DF84C30 		ldrb	r3, [sp, #76]
 149 00e0 8DF81A30 		strb	r3, [sp, #26]
 150              		.loc 1 75 0
 151 00e4 9DF85030 		ldrb	r3, [sp, #80]
 152 00e8 8DF81B30 		strb	r3, [sp, #27]
 153              		.loc 1 77 0
 154 00ec 08AB     		add	r3, sp, #32
 155 00ee 1846     		mov	r0, r3
 156 00f0 0021     		movs	r1, #0
 157 00f2 1822     		movs	r2, #24
 158 00f4 FFF7FEFF 		bl	Osal_MemSet
 159              		.loc 1 78 0
 160 00f8 3F23     		movs	r3, #63
 161 00fa ADF82030 		strh	r3, [sp, #32]	@ movhi
 162              		.loc 1 79 0
 163 00fe 4FF4C173 		mov	r3, #386
 164 0102 ADF82230 		strh	r3, [sp, #34]	@ movhi
 165              		.loc 1 80 0
 166 0106 03AB     		add	r3, sp, #12
 167 0108 0A93     		str	r3, [sp, #40]
 168              		.loc 1 81 0
 169 010a 1023     		movs	r3, #16
 170 010c 0B93     		str	r3, [sp, #44]
 171              		.loc 1 82 0
ARM GAS  /tmp/ccXaFLhi.s 			page 4


 172 010e 0DF11F03 		add	r3, sp, #31
 173 0112 0C93     		str	r3, [sp, #48]
 174              		.loc 1 83 0
 175 0114 0123     		movs	r3, #1
 176 0116 0D93     		str	r3, [sp, #52]
 177              		.loc 1 85 0
 178 0118 08AB     		add	r3, sp, #32
 179 011a 1846     		mov	r0, r3
 180 011c 0021     		movs	r1, #0
 181 011e FFF7FEFF 		bl	hci_send_req
 182 0122 0346     		mov	r3, r0
 183 0124 002B     		cmp	r3, #0
 184 0126 01DA     		bge	.L6
 185              		.loc 1 86 0
 186 0128 FF23     		movs	r3, #255
 187 012a 01E0     		b	.L8
 188              	.L6:
 189              		.loc 1 88 0
 190 012c 9DF81F30 		ldrb	r3, [sp, #31]	@ zero_extendqisi2
 191              	.L8:
 192              		.loc 1 89 0
 193 0130 1846     		mov	r0, r3
 194 0132 0FB0     		add	sp, sp, #60
 195              		@ sp needed
 196 0134 5DF804FB 		ldr	pc, [sp], #4
 197              		.cfi_endproc
 198              	.LFE270:
 199              		.size	aci_l2cap_connection_parameter_update_response_IDB05A1, .-aci_l2cap_connection_parameter_upd
 200              		.align	2
 201 0138 AFF30080 		.p2align 4,,15
 201      AFF30080 
 202              		.global	aci_l2cap_connection_parameter_update_response_IDB04A1
 203              		.thumb
 204              		.thumb_func
 205              		.type	aci_l2cap_connection_parameter_update_response_IDB04A1, %function
 206              	aci_l2cap_connection_parameter_update_response_IDB04A1:
 207              	.LFB271:
 208              		.loc 1 94 0
 209              		.cfi_startproc
 210              		@ args = 12, pretend = 0, frame = 48
 211              		@ frame_needed = 0, uses_anonymous_args = 0
 212 0140 00B5     		push	{lr}
 213              		.cfi_def_cfa_offset 4
 214              		.cfi_offset 14, -4
 215 0142 8DB0     		sub	sp, sp, #52
 216              		.cfi_def_cfa_offset 56
 217 0144 ADF80600 		strh	r0, [sp, #6]	@ movhi
 218 0148 ADF80410 		strh	r1, [sp, #4]	@ movhi
 219 014c ADF80220 		strh	r2, [sp, #2]	@ movhi
 220 0150 ADF80030 		strh	r3, [sp]	@ movhi
 221              		.loc 1 99 0
 222 0154 BDF80630 		ldrh	r3, [sp, #6]	@ movhi
 223 0158 ADF80830 		strh	r3, [sp, #8]	@ movhi
 224              		.loc 1 100 0
 225 015c BDF80430 		ldrh	r3, [sp, #4]	@ movhi
 226 0160 ADF80A30 		strh	r3, [sp, #10]	@ movhi
 227              		.loc 1 101 0
ARM GAS  /tmp/ccXaFLhi.s 			page 5


 228 0164 BDF80230 		ldrh	r3, [sp, #2]	@ movhi
 229 0168 ADF80C30 		strh	r3, [sp, #12]	@ movhi
 230              		.loc 1 102 0
 231 016c BDF80030 		ldrh	r3, [sp]	@ movhi
 232 0170 ADF80E30 		strh	r3, [sp, #14]	@ movhi
 233              		.loc 1 103 0
 234 0174 BDF83830 		ldrh	r3, [sp, #56]	@ movhi
 235 0178 ADF81030 		strh	r3, [sp, #16]	@ movhi
 236              		.loc 1 104 0
 237 017c 9DF83C30 		ldrb	r3, [sp, #60]
 238 0180 8DF81230 		strb	r3, [sp, #18]
 239              		.loc 1 105 0
 240 0184 9DF84030 		ldrb	r3, [sp, #64]
 241 0188 8DF81330 		strb	r3, [sp, #19]
 242              		.loc 1 107 0
 243 018c 06AB     		add	r3, sp, #24
 244 018e 1846     		mov	r0, r3
 245 0190 0021     		movs	r1, #0
 246 0192 1822     		movs	r2, #24
 247 0194 FFF7FEFF 		bl	Osal_MemSet
 248              		.loc 1 108 0
 249 0198 3F23     		movs	r3, #63
 250 019a ADF81830 		strh	r3, [sp, #24]	@ movhi
 251              		.loc 1 109 0
 252 019e 4FF4C173 		mov	r3, #386
 253 01a2 ADF81A30 		strh	r3, [sp, #26]	@ movhi
 254              		.loc 1 110 0
 255 01a6 02AB     		add	r3, sp, #8
 256 01a8 0893     		str	r3, [sp, #32]
 257              		.loc 1 111 0
 258 01aa 0C23     		movs	r3, #12
 259 01ac 0993     		str	r3, [sp, #36]
 260              		.loc 1 112 0
 261 01ae 0DF11703 		add	r3, sp, #23
 262 01b2 0A93     		str	r3, [sp, #40]
 263              		.loc 1 113 0
 264 01b4 0123     		movs	r3, #1
 265 01b6 0B93     		str	r3, [sp, #44]
 266              		.loc 1 115 0
 267 01b8 06AB     		add	r3, sp, #24
 268 01ba 1846     		mov	r0, r3
 269 01bc 0021     		movs	r1, #0
 270 01be FFF7FEFF 		bl	hci_send_req
 271 01c2 0346     		mov	r3, r0
 272 01c4 002B     		cmp	r3, #0
 273 01c6 01DA     		bge	.L10
 274              		.loc 1 116 0
 275 01c8 FF23     		movs	r3, #255
 276 01ca 01E0     		b	.L12
 277              	.L10:
 278              		.loc 1 118 0
 279 01cc 9DF81730 		ldrb	r3, [sp, #23]	@ zero_extendqisi2
 280              	.L12:
 281              		.loc 1 119 0
 282 01d0 1846     		mov	r0, r3
 283 01d2 0DB0     		add	sp, sp, #52
 284              		@ sp needed
ARM GAS  /tmp/ccXaFLhi.s 			page 6


 285 01d4 5DF804FB 		ldr	pc, [sp], #4
 286              		.cfi_endproc
 287              	.LFE271:
 288              		.size	aci_l2cap_connection_parameter_update_response_IDB04A1, .-aci_l2cap_connection_parameter_upd
 289              	.Letext0:
 290              		.file 2 "/nfs/nfs5/home/research/hardware/arm2/gcc-arm-embedded/gcc-arm-none-eabi-4_8-2014q2/arm-n
 291              		.file 3 "/nfs/nfs5/home/research/hardware/arm2/gcc-arm-embedded/gcc-arm-none-eabi-4_8-2014q2/arm-n
 292              		.file 4 "../../../../../../ChibiOS/os/rt/ports/ARMCMx/compilers/GCC/chtypes.h"
 293              		.file 5 "../../../../../../ChibiOS/os/rt/include/chsystypes.h"
 294              		.file 6 "../../../../../../ChibiOS/os/rt/include/chschd.h"
 295              		.file 7 "../../../../../../ChibiOS/os/rt/ports/ARMCMx/chcore.h"
 296              		.file 8 "../../../../../../ChibiOS/os/rt/ports/ARMCMx/chcore_v7m.h"
 297              		.file 9 "../../../../../../ChibiOS/os/rt/include/chtm.h"
 298              		.file 10 "../../../../../../ChibiOS/os/rt/include/chsem.h"
 299              		.file 11 "../../../../../../ChibiOS/os/rt/include/chmtx.h"
 300              		.file 12 "../../../../../Middlewares/ST/STM32_BlueNRG/SimpleBlueNRG_HCI/includes/ble_status.h"
 301              		.file 13 "../../../../../Middlewares/ST/STM32_BlueNRG/SimpleBlueNRG_HCI/includes/hci_const.h"
 302              		.file 14 "../../../../../Middlewares/ST/STM32_BlueNRG/SimpleBlueNRG_HCI/includes/bluenrg_aci_const
 303              		.file 15 "../../../../../../ChibiOS/os/ext/CMSIS/include/core_cm4.h"