ARM GAS  /tmp/ccXaFLhi.s 			page 1


   1              		.syntax unified
   2              		.cpu cortex-m4
   3              		.fpu softvfp
   4              		.eabi_attribute 20, 1
   5              		.eabi_attribute 21, 1
   6              		.eabi_attribute 23, 3
   7              		.eabi_attribute 24, 1
   8              		.eabi_attribute 25, 1
   9              		.eabi_attribute 26, 1
  10              		.eabi_attribute 30, 6
  11              		.eabi_attribute 34, 1
  12              		.eabi_attribute 18, 4
  13              		.thumb
  14              		.file	"bluenrg_l2cap_aci.c"
  15              		.text
  16              	.Ltext0:
  17              		.cfi_sections	.debug_frame
  18              		.align	2
  19              		.p2align 4,,15
  20              		.global	aci_l2cap_connection_parameter_update_request
  21              		.thumb
  22              		.thumb_func
  23              		.type	aci_l2cap_connection_parameter_update_request, %function
  24              	aci_l2cap_connection_parameter_update_request:
  25              	.LFB269:
  26              		.file 1 "../../../../../Middlewares/ST/STM32_BlueNRG/SimpleBlueNRG_HCI/hci/controller/bluenrg_l2ca
  27              		.loc 1 32 0
  28              		.cfi_startproc
  29              		@ args = 4, pretend = 0, frame = 48
  30              		@ frame_needed = 0, uses_anonymous_args = 0
  31 0000 00B5     		push	{lr}
  32              		.cfi_def_cfa_offset 4
  33              		.cfi_offset 14, -4
  34 0002 8DB0     		sub	sp, sp, #52
  35              		.cfi_def_cfa_offset 56
  36 0004 ADF80600 		strh	r0, [sp, #6]	@ movhi
  37 0008 ADF80410 		strh	r1, [sp, #4]	@ movhi
  38 000c ADF80220 		strh	r2, [sp, #2]	@ movhi
  39 0010 ADF80030 		strh	r3, [sp]	@ movhi
  40              		.loc 1 37 0
  41 0014 BDF80630 		ldrh	r3, [sp, #6]	@ movhi
  42 0018 ADF80C30 		strh	r3, [sp, #12]	@ movhi
  43              		.loc 1 38 0
  44 001c BDF80430 		ldrh	r3, [sp, #4]	@ movhi
  45 0020 ADF80E30 		strh	r3, [sp, #14]	@ movhi
  46              		.loc 1 39 0
  47 0024 BDF80230 		ldrh	r3, [sp, #2]	@ movhi
  48 0028 ADF81030 		strh	r3, [sp, #16]	@ movhi
  49              		.loc 1 40 0
  50 002c BDF80030 		ldrh	r3, [sp]	@ movhi
  51 0030 ADF81230 		strh	r3, [sp, #18]	@ movhi
  52              		.loc 1 41 0
  53 0034 BDF83830 		ldrh	r3, [sp, #56]	@ movhi
  54 0038 ADF81430 		strh	r3, [sp, #20]	@ movhi
  55              		.loc 1 43 0
  56 003c 06AB     		add	r3, sp, #24
  57 003e 1846     		mov	r0, r3
ARM GAS  /tmp/ccXaFLhi.s 			page 2


  58 0040 0021     		movs	r1, #0
  59 0042 1822     		movs	r2, #24
  60 0044 FFF7FEFF 		bl	Osal_MemSet
  61              		.loc 1 44 0
  62 0048 3F23     		movs	r3, #63
  63 004a ADF81830 		strh	r3, [sp, #24]	@ movhi
  64              		.loc 1 45 0
  65 004e 40F28113 		movw	r3, #385
  66 0052 ADF81A30 		strh	r3, [sp, #26]	@ movhi
  67              		.loc 1 46 0
  68 0056 03AB     		add	r3, sp, #12
  69 0058 0893     		str	r3, [sp, #32]
  70              		.loc 1 47 0
  71 005a 0A23     		movs	r3, #10
  72 005c 0993     		str	r3, [sp, #36]
  73              		.loc 1 48 0
  74 005e 0F23     		movs	r3, #15
  75 0060 0793     		str	r3, [sp, #28]
  76              		.loc 1 49 0
  77 0062 0DF11703 		add	r3, sp, #23
  78 0066 0A93     		str	r3, [sp, #40]
  79              		.loc 1 50 0
  80 0068 0123     		movs	r3, #1
  81 006a 0B93     		str	r3, [sp, #44]
  82              		.loc 1 52 0
  83 006c 06AB     		add	r3, sp, #24
  84 006e 1846     		mov	r0, r3
  85 0070 0021     		movs	r1, #0
  86 0072 FFF7FEFF 		bl	hci_send_req
  87 0076 0346     		mov	r3, r0
  88 0078 002B     		cmp	r3, #0
  89 007a 01DA     		bge	.L2
  90              		.loc 1 53 0
  91 007c FF23     		movs	r3, #255
  92 007e 01E0     		b	.L4
  93              	.L2:
  94              		.loc 1 55 0
  95 0080 9DF81730 		ldrb	r3, [sp, #23]	@ zero_extendqisi2
  96              	.L4:
  97              		.loc 1 56 0
  98 0084 1846     		mov	r0, r3
  99 0086 0DB0     		add	sp, sp, #52
 100              		@ sp needed
 101 0088 5DF804FB 		ldr	pc, [sp], #4
 102              		.cfi_endproc
 103              	.LFE269:
 104              		.size	aci_l2cap_connection_parameter_update_request, .-aci_l2cap_connection_parameter_update_reque
 105              		.align	2
 106 008c AFF30080 		.p2align 4,,15
 107              		.global	aci_l2cap_connection_parameter_update_response_IDB05A1
 108              		.thumb
 109              		.thumb_func
 110              		.type	aci_l2cap_connection_parameter_update_response_IDB05A1, %function
 111              	aci_l2cap_connection_parameter_update_response_IDB05A1:
 112              	.LFB270:
 113              		.loc 1 62 0
 114              		.cfi_startproc
ARM GAS  /tmp/ccXaFLhi.s 			page 3


 115              		@ args = 20, pretend = 0, frame = 56
 116              		@ frame_needed = 0, uses_anonymous_args = 0
 117 0090 00B5     		push	{lr}
 118              		.cfi_def_cfa_offset 4
 119              		.cfi_offset 14, -4
 120 0092 8FB0     		sub	sp, sp, #60
 121              		.cfi_def_cfa_offset 64
 122 0094 ADF80600 		strh	r0, [sp, #6]	@ movhi
 123 0098 ADF80410 		strh	r1, [sp, #4]	@ movhi
 124 009c ADF80220 		strh	r2, [sp, #2]	@ movhi
 125 00a0 ADF80030 		strh	r3, [sp]	@ movhi
 126              		.loc 1 67 0
 127 00a4 BDF80630 		ldrh	r3, [sp, #6]	@ movhi
 128 00a8 ADF80C30 		strh	r3, [sp, #12]	@ movhi
 129              		.loc 1 68 0
 130 00ac BDF80430 		ldrh	r3, [sp, #4]	@ movhi
 131 00b0 ADF80E30 		strh	r3, [sp, #14]	@ movhi
 132              		.loc 1 69 0
 133 00b4 BDF80230 		ldrh	r3, [sp, #2]	@ movhi
 134 00b8 ADF81030 		strh	r3, [sp, #16]	@ movhi
 135              		.loc 1 70 0
 136 00bc BDF80030 		ldrh	r3, [sp]	@ movhi
 137 00c0 ADF81230 		strh	r3, [sp, #18]	@ movhi
 138              		.loc 1 71 0
 139 00c4 BDF84030 		ldrh	r3, [sp, #64]	@ movhi
 140 00c8 ADF81430 		strh	r3, [sp, #20]	@ movhi
 141              		.loc 1 72 0
 142 00cc BDF84430 		ldrh	r3, [sp, #68]	@ movhi
 143 00d0 ADF81630 		strh	r3, [sp, #22]	@ movhi
 144              		.loc 1 73 0
 145 00d4 BDF84830 		ldrh	r3, [sp, #72]	@ movhi
 146 00d8 ADF81830 		strh	r3, [sp, #24]	@ movhi
 147              		.loc 1 74 0
 148 00dc 9DF84C30 		ldrb	r3, [sp, #76]
 149 00e0 8DF81A30 		strb	r3, [sp, #26]
 150              		.loc 1 75 0
 151 00e4 9DF85030 		ldrb	r3, [sp, #80]
 152 00e8 8DF81B30 		strb	r3, [sp, #27]
 153              		.loc 1 77 0
 154 00ec 08AB     		add	r3, sp, #32
 155 00ee 1846     		mov	r0, r3
 156 00f0 0021     		movs	r1, #0
 157 00f2 1822     		movs	r2, #24
 158 00f4 FFF7FEFF 		bl	Osal_MemSet
 159              		.loc 1 78 0
 160 00f8 3F23     		movs	r3, #63
 161 00fa ADF82030 		strh	r3, [sp, #32]	@ movhi
 162              		.loc 1 79 0
 163 00fe 4FF4C173 		mov	r3, #386
 164 0102 ADF82230 		strh	r3, [sp, #34]	@ movhi
 165              		.loc 1 80 0
 166 0106 03AB     		add	r3, sp, #12
 167 0108 0A93     		str	r3, [sp, #40]
 168              		.loc 1 81 0
 169 010a 1023     		movs	r3, #16
 170 010c 0B93     		str	r3, [sp, #44]
 171              		.loc 1 82 0
ARM GAS  /tmp/ccXaFLhi.s 			page 4


 172 010e 0DF11F03 		add	r3, sp, #31
 173 0112 0C93     		str	r3, [sp, #48]
 174              		.loc 1 83 0
 175 0114 0123     		movs	r3, #1
 176 0116 0D93     		str	r3, [sp, #52]
 177              		.loc 1 85 0
 178 0118 08AB     		add	r3, sp, #32
 179 011a 1846     		mov	r0, r3
 180 011c 0021     		movs	r1, #0
 181 011e FFF7FEFF 		bl	hci_send_req
 182 0122 0346     		mov	r3, r0
 183 0124 002B     		cmp	r3, #0
 184 0126 01DA     		bge	.L6
 185              		.loc 1 86 0
 186 0128 FF23     		movs	r3, #255
 187 012a 01E0     		b	.L8
 188              	.L6:
 189              		.loc 1 88 0
 190 012c 9DF81F30 		ldrb	r3, [sp, #31]	@ zero_extendqisi2
 191              	.L8:
 192              		.loc 1 89 0
 193 0130 1846     		mov	r0, r3
 194 0132 0FB0     		add	sp, sp, #60
 195              		@ sp needed
 196 0134 5DF804FB 		ldr	pc, [sp], #4
 197              		.cfi_endproc
 198              	.LFE270:
 199              		.size	aci_l2cap_connection_parameter_update_response_IDB05A1, .-aci_l2cap_connection_parameter_upd
 200              		.align	2
 201 0138 AFF30080 		.p2align 4,,15
 201      AFF30080 
 202              		.global	aci_l2cap_connection_parameter_update_response_IDB04A1
 203              		.thumb
 204              		.thumb_func
 205              		.type	aci_l2cap_connection_parameter_update_response_IDB04A1, %function
 206              	aci_l2cap_connection_parameter_update_response_IDB04A1:
 207              	.LFB271:
 208              		.loc 1 94 0
 209              		.cfi_startproc
 210              		@ args = 12, pretend = 0, frame = 48
 211              		@ frame_needed = 0, uses_anonymous_args = 0
 212 0140 00B5     		push	{lr}
 213              		.cfi_def_cfa_offset 4
 214              		.cfi_offset 14, -4
 215 0142 8DB0     		sub	sp, sp, #52
 216              		.cfi_def_cfa_offset 56
 217 0144 ADF80600 		strh	r0, [sp, #6]	@ movhi
 218 0148 ADF80410 		strh	r1, [sp, #4]	@ movhi
 219 014c ADF80220 		strh	r2, [sp, #2]	@ movhi
 220 0150 ADF80030 		strh	r3, [sp]	@ movhi
 221              		.loc 1 99 0
 222 0154 BDF80630 		ldrh	r3, [sp, #6]	@ movhi
 223 0158 ADF80830 		strh	r3, [sp, #8]	@ movhi
 224              		.loc 1 100 0
 225 015c BDF80430 		ldrh	r3, [sp, #4]	@ movhi
 226 0160 ADF80A30 		strh	r3, [sp, #10]	@ movhi
 227              		.loc 1 101 0
ARM GAS  /tmp/ccXaFLhi.s 			page 5


 228 0164 BDF80230 		ldrh	r3, [sp, #2]	@ movhi
 229 0168 ADF80C30 		strh	r3, [sp, #12]	@ movhi
 230              		.loc 1 102 0
 231 016c BDF80030 		ldrh	r3, [sp]	@ movhi
 232 0170 ADF80E30 		strh	r3, [sp, #14]	@ movhi
 233              		.loc 1 103 0
 234 0174 BDF83830 		ldrh	r3, [sp, #56]	@ movhi
 235 0178 ADF81030 		strh	r3, [sp, #16]	@ movhi
 236              		.loc 1 104 0
 237 017c 9DF83C30 		ldrb	r3, [sp, #60]
 238 0180 8DF81230 		strb	r3, [sp, #18]
 239              		.loc 1 105 0
 240 0184 9DF84030 		ldrb	r3, [sp, #64]
 241 0188 8DF81330 		strb	r3, [sp, #19]
 242              		.loc 1 107 0
 243 018c 06AB     		add	r3, sp, #24
 244 018e 1846     		mov	r0, r3
 245 0190 0021     		movs	r1, #0
 246 0192 1822     		movs	r2, #24
 247 0194 FFF7FEFF 		bl	Osal_MemSet
 248              		.loc 1 108 0
 249 0198 3F23     		movs	r3, #63
 250 019a ADF81830 		strh	r3, [sp, #24]	@ movhi
 251              		.loc 1 109 0
 252 019e 4FF4C173 		mov	r3, #386
 253 01a2 ADF81A30 		strh	r3, [sp, #26]	@ movhi
 254              		.loc 1 110 0
 255 01a6 02AB     		add	r3, sp, #8
 256 01a8 0893     		str	r3, [sp, #32]
 257              		.loc 1 111 0
 258 01aa 0C23     		movs	r3, #12
 259 01ac 0993     		str	r3, [sp, #36]
 260              		.loc 1 112 0
 261 01ae 0DF11703 		add	r3, sp, #23
 262 01b2 0A93     		str	r3, [sp, #40]
 263              		.loc 1 113 0
 264 01b4 0123     		movs	r3, #1
 265 01b6 0B93     		str	r3, [sp, #44]
 266              		.loc 1 115 0
 267 01b8 06AB     		add	r3, sp, #24
 268 01ba 1846     		mov	r0, r3
 269 01bc 0021     		movs	r1, #0
 270 01be FFF7FEFF 		bl	hci_send_req
 271 01c2 0346     		mov	r3, r0
 272 01c4 002B     		cmp	r3, #0
 273 01c6 01DA     		bge	.L10
 274              		.loc 1 116 0
 275 01c8 FF23     		movs	r3, #255
 276 01ca 01E0     		b	.L12
 277              	.L10:
 278              		.loc 1 118 0
 279 01cc 9DF81730 		ldrb	r3, [sp, #23]	@ zero_extendqisi2
 280              	.L12:
 281              		.loc 1 119 0
 282 01d0 1846     		mov	r0, r3
 283 01d2 0DB0     		add	sp, sp, #52
 284              		@ sp needed
ARM GAS  /tmp/ccXaFLhi.s 			page 6


 285 01d4 5DF804FB 		ldr	pc, [sp], #4
 286              		.cfi_endproc
 287              	.LFE271:
 288              		.size	aci_l2cap_connection_parameter_update_response_IDB04A1, .-aci_l2cap_connection_parameter_upd
 289              	.Letext0:
 290              		.file 2 "/nfs/nfs5/home/research/hardware/arm2/gcc-arm-embedded/gcc-arm-none-eabi-4_8-2014q2/arm-n
 291              		.file 3 "/nfs/nfs5/home/research/hardware/arm2/gcc-arm-embedded/gcc-arm-none-eabi-4_8-2014q2/arm-n
 292              		.file 4 "../../../../../../ChibiOS/os/rt/ports/ARMCMx/compilers/GCC/chtypes.h"
 293              		.file 5 "../../../../../../ChibiOS/os/rt/include/chsystypes.h"
 294              		.file 6 "../../../../../../ChibiOS/os/rt/include/chschd.h"
 295              		.file 7 "../../../../../../ChibiOS/os/rt/ports/ARMCMx/chcore.h"
 296              		.file 8 "../../../../../../ChibiOS/os/rt/ports/ARMCMx/chcore_v7m.h"
 297              		.file 9 "../../../../../../ChibiOS/os/rt/include/chtm.h"
 298              		.file 10 "../../../../../../ChibiOS/os/rt/include/chsem.h"
 299              		.file 11 "../../../../../../ChibiOS/os/rt/include/chmtx.h"
 300              		.file 12 "../../../../../Middlewares/ST/STM32_BlueNRG/SimpleBlueNRG_HCI/includes/ble_status.h"
 301              		.file 13 "../../../../../Middlewares/ST/STM32_BlueNRG/SimpleBlueNRG_HCI/includes/hci_const.h"
 302              		.file 14 "../../../../../Middlewares/ST/STM32_BlueNRG/SimpleBlueNRG_HCI/includes/bluenrg_aci_const
 303              		.file 15 "../../../../../../ChibiOS/os/ext/CMSIS/include/core_cm4.h"
 304 01d8 AFF30080 		.section	.debug_info,"",%progbits
 304      AFF30080 
 305              	.Ldebug_info0:
 306 0000 230A0000 		.4byte	0xa23
 307 0004 0400     		.2byte	0x4
 308 0006 00000000 		.4byte	.Ldebug_abbrev0
 309 000a 04       		.byte	0x4
 310 000b 01       		.uleb128 0x1
 311 000c 33050000 		.4byte	.LASF132
 312 0010 01       		.byte	0x1
 313 0011 49030000 		.4byte	.LASF133
 314 0015 ED010000 		.4byte	.LASF134
 315 0019 00000000 		.4byte	.Ltext0
 316 001d D8010000 		.4byte	.Letext0-.Ltext0
 317 0021 00000000 		.4byte	.Ldebug_line0
 318 0025 02       		.uleb128 0x2
 319 0026 01       		.byte	0x1
 320 0027 06       		.byte	0x6
 321 0028 00010000 		.4byte	.LASF0
 322 002c 03       		.uleb128 0x3
 323 002d 2F000000 		.4byte	.LASF3
 324 0031 02       		.byte	0x2
 325 0032 1C       		.byte	0x1c
 326 0033 37000000 		.4byte	0x37
 327 0037 02       		.uleb128 0x2
 328 0038 01       		.byte	0x1
 329 0039 08       		.byte	0x8
 330 003a 25050000 		.4byte	.LASF1
 331 003e 02       		.uleb128 0x2
 332 003f 02       		.byte	0x2
 333 0040 05       		.byte	0x5
 334 0041 F0050000 		.4byte	.LASF2
 335 0045 03       		.uleb128 0x3
 336 0046 C5060000 		.4byte	.LASF4
 337 004a 02       		.byte	0x2
 338 004b 26       		.byte	0x26
 339 004c 50000000 		.4byte	0x50
 340 0050 02       		.uleb128 0x2
ARM GAS  /tmp/ccXaFLhi.s 			page 7


 341 0051 02       		.byte	0x2
 342 0052 07       		.byte	0x7
 343 0053 26030000 		.4byte	.LASF5
 344 0057 03       		.uleb128 0x3
 345 0058 08040000 		.4byte	.LASF6
 346 005c 02       		.byte	0x2
 347 005d 37       		.byte	0x37
 348 005e 62000000 		.4byte	0x62
 349 0062 02       		.uleb128 0x2
 350 0063 04       		.byte	0x4
 351 0064 05       		.byte	0x5
 352 0065 6B000000 		.4byte	.LASF7
 353 0069 03       		.uleb128 0x3
 354 006a FE060000 		.4byte	.LASF8
 355 006e 02       		.byte	0x2
 356 006f 38       		.byte	0x38
 357 0070 74000000 		.4byte	0x74
 358 0074 02       		.uleb128 0x2
 359 0075 04       		.byte	0x4
 360 0076 07       		.byte	0x7
 361 0077 85060000 		.4byte	.LASF9
 362 007b 02       		.uleb128 0x2
 363 007c 08       		.byte	0x8
 364 007d 05       		.byte	0x5
 365 007e F2000000 		.4byte	.LASF10
 366 0082 03       		.uleb128 0x3
 367 0083 C2040000 		.4byte	.LASF11
 368 0087 02       		.byte	0x2
 369 0088 4E       		.byte	0x4e
 370 0089 8D000000 		.4byte	0x8d
 371 008d 02       		.uleb128 0x2
 372 008e 08       		.byte	0x8
 373 008f 07       		.byte	0x7
 374 0090 4B010000 		.4byte	.LASF12
 375 0094 04       		.uleb128 0x4
 376 0095 04       		.byte	0x4
 377 0096 05       		.byte	0x5
 378 0097 696E7400 		.ascii	"int\000"
 379 009b 02       		.uleb128 0x2
 380 009c 04       		.byte	0x4
 381 009d 07       		.byte	0x7
 382 009e A3020000 		.4byte	.LASF13
 383 00a2 03       		.uleb128 0x3
 384 00a3 58070000 		.4byte	.LASF14
 385 00a7 03       		.byte	0x3
 386 00a8 2A       		.byte	0x2a
 387 00a9 2C000000 		.4byte	0x2c
 388 00ad 03       		.uleb128 0x3
 389 00ae AE010000 		.4byte	.LASF15
 390 00b2 03       		.byte	0x3
 391 00b3 36       		.byte	0x36
 392 00b4 45000000 		.4byte	0x45
 393 00b8 03       		.uleb128 0x3
 394 00b9 1D050000 		.4byte	.LASF16
 395 00bd 03       		.byte	0x3
 396 00be 41       		.byte	0x41
 397 00bf 57000000 		.4byte	0x57
ARM GAS  /tmp/ccXaFLhi.s 			page 8


 398 00c3 03       		.uleb128 0x3
 399 00c4 52060000 		.4byte	.LASF17
 400 00c8 03       		.byte	0x3
 401 00c9 42       		.byte	0x42
 402 00ca 69000000 		.4byte	0x69
 403 00ce 03       		.uleb128 0x3
 404 00cf 26000000 		.4byte	.LASF18
 405 00d3 03       		.byte	0x3
 406 00d4 4E       		.byte	0x4e
 407 00d5 82000000 		.4byte	0x82
 408 00d9 03       		.uleb128 0x3
 409 00da 1D040000 		.4byte	.LASF19
 410 00de 04       		.byte	0x4
 411 00df 39       		.byte	0x39
 412 00e0 C3000000 		.4byte	0xc3
 413 00e4 03       		.uleb128 0x3
 414 00e5 B6030000 		.4byte	.LASF20
 415 00e9 04       		.byte	0x4
 416 00ea 3C       		.byte	0x3c
 417 00eb A2000000 		.4byte	0xa2
 418 00ef 03       		.uleb128 0x3
 419 00f0 93010000 		.4byte	.LASF21
 420 00f4 04       		.byte	0x4
 421 00f5 3D       		.byte	0x3d
 422 00f6 A2000000 		.4byte	0xa2
 423 00fa 03       		.uleb128 0x3
 424 00fb CD040000 		.4byte	.LASF22
 425 00ff 04       		.byte	0x4
 426 0100 3E       		.byte	0x3e
 427 0101 A2000000 		.4byte	0xa2
 428 0105 03       		.uleb128 0x3
 429 0106 7F010000 		.4byte	.LASF23
 430 010a 04       		.byte	0x4
 431 010b 3F       		.byte	0x3f
 432 010c A2000000 		.4byte	0xa2
 433 0110 03       		.uleb128 0x3
 434 0111 FF040000 		.4byte	.LASF24
 435 0115 04       		.byte	0x4
 436 0116 40       		.byte	0x40
 437 0117 C3000000 		.4byte	0xc3
 438 011b 03       		.uleb128 0x3
 439 011c 43030000 		.4byte	.LASF25
 440 0120 04       		.byte	0x4
 441 0121 41       		.byte	0x41
 442 0122 B8000000 		.4byte	0xb8
 443 0126 03       		.uleb128 0x3
 444 0127 F5030000 		.4byte	.LASF26
 445 012b 04       		.byte	0x4
 446 012c 43       		.byte	0x43
 447 012d C3000000 		.4byte	0xc3
 448 0131 03       		.uleb128 0x3
 449 0132 96020000 		.4byte	.LASF27
 450 0136 04       		.byte	0x4
 451 0137 45       		.byte	0x45
 452 0138 B8000000 		.4byte	0xb8
 453 013c 03       		.uleb128 0x3
 454 013d E0060000 		.4byte	.LASF28
ARM GAS  /tmp/ccXaFLhi.s 			page 9


 455 0141 05       		.byte	0x5
 456 0142 33       		.byte	0x33
 457 0143 C3000000 		.4byte	0xc3
 458 0147 03       		.uleb128 0x3
 459 0148 D0060000 		.4byte	.LASF29
 460 014c 05       		.byte	0x5
 461 014d 3F       		.byte	0x3f
 462 014e 52010000 		.4byte	0x152
 463 0152 05       		.uleb128 0x5
 464 0153 39030000 		.4byte	.LASF50
 465 0157 44       		.byte	0x44
 466 0158 06       		.byte	0x6
 467 0159 C2       		.byte	0xc2
 468 015a 4B020000 		.4byte	0x24b
 469 015e 06       		.uleb128 0x6
 470 015f 1A060000 		.4byte	.LASF30
 471 0163 06       		.byte	0x6
 472 0164 C3       		.byte	0xc3
 473 0165 56020000 		.4byte	0x256
 474 0169 00       		.byte	0
 475 016a 06       		.uleb128 0x6
 476 016b E5040000 		.4byte	.LASF31
 477 016f 06       		.byte	0x6
 478 0170 C5       		.byte	0xc5
 479 0171 56020000 		.4byte	0x256
 480 0175 04       		.byte	0x4
 481 0176 06       		.uleb128 0x6
 482 0177 57040000 		.4byte	.LASF32
 483 017b 06       		.byte	0x6
 484 017c C7       		.byte	0xc7
 485 017d 10010000 		.4byte	0x110
 486 0181 08       		.byte	0x8
 487 0182 06       		.uleb128 0x6
 488 0183 FE070000 		.4byte	.LASF33
 489 0187 06       		.byte	0x6
 490 0188 C8       		.byte	0xc8
 491 0189 98040000 		.4byte	0x498
 492 018d 0C       		.byte	0xc
 493 018e 06       		.uleb128 0x6
 494 018f B7010000 		.4byte	.LASF34
 495 0193 06       		.byte	0x6
 496 0194 CA       		.byte	0xca
 497 0195 56020000 		.4byte	0x256
 498 0199 10       		.byte	0x10
 499 019a 06       		.uleb128 0x6
 500 019b 5E040000 		.4byte	.LASF35
 501 019f 06       		.byte	0x6
 502 01a0 CB       		.byte	0xcb
 503 01a1 56020000 		.4byte	0x256
 504 01a5 14       		.byte	0x14
 505 01a6 06       		.uleb128 0x6
 506 01a7 BA070000 		.4byte	.LASF36
 507 01ab 06       		.byte	0x6
 508 01ac D2       		.byte	0xd2
 509 01ad 77040000 		.4byte	0x477
 510 01b1 18       		.byte	0x18
 511 01b2 06       		.uleb128 0x6
ARM GAS  /tmp/ccXaFLhi.s 			page 10


 512 01b3 FA050000 		.4byte	.LASF37
 513 01b7 06       		.byte	0x6
 514 01b8 DD       		.byte	0xdd
 515 01b9 EF000000 		.4byte	0xef
 516 01bd 1C       		.byte	0x1c
 517 01be 06       		.uleb128 0x6
 518 01bf 21060000 		.4byte	.LASF38
 519 01c3 06       		.byte	0x6
 520 01c4 E1       		.byte	0xe1
 521 01c5 E4000000 		.4byte	0xe4
 522 01c9 1D       		.byte	0x1d
 523 01ca 06       		.uleb128 0x6
 524 01cb 44070000 		.4byte	.LASF39
 525 01cf 06       		.byte	0x6
 526 01d0 E6       		.byte	0xe6
 527 01d1 FA000000 		.4byte	0xfa
 528 01d5 1E       		.byte	0x1e
 529 01d6 06       		.uleb128 0x6
 530 01d7 02060000 		.4byte	.LASF40
 531 01db 06       		.byte	0x6
 532 01dc EC       		.byte	0xec
 533 01dd 05010000 		.4byte	0x105
 534 01e1 1F       		.byte	0x1f
 535 01e2 07       		.uleb128 0x7
 536 01e3 705F7500 		.ascii	"p_u\000"
 537 01e7 06       		.byte	0x6
 538 01e8 3101     		.2byte	0x131
 539 01ea 52050000 		.4byte	0x552
 540 01ee 20       		.byte	0x20
 541 01ef 08       		.uleb128 0x8
 542 01f0 04080000 		.4byte	.LASF41
 543 01f4 06       		.byte	0x6
 544 01f5 3601     		.2byte	0x136
 545 01f7 5C020000 		.4byte	0x25c
 546 01fb 24       		.byte	0x24
 547 01fc 08       		.uleb128 0x8
 548 01fd 22070000 		.4byte	.LASF42
 549 0201 06       		.byte	0x6
 550 0202 3C01     		.2byte	0x13c
 551 0204 80020000 		.4byte	0x280
 552 0208 28       		.byte	0x28
 553 0209 08       		.uleb128 0x8
 554 020a DE070000 		.4byte	.LASF43
 555 020e 06       		.byte	0x6
 556 020f 4001     		.2byte	0x140
 557 0211 1B010000 		.4byte	0x11b
 558 0215 30       		.byte	0x30
 559 0216 08       		.uleb128 0x8
 560 0217 47060000 		.4byte	.LASF44
 561 021b 06       		.byte	0x6
 562 021c 4601     		.2byte	0x146
 563 021e 26010000 		.4byte	0x126
 564 0222 34       		.byte	0x34
 565 0223 08       		.uleb128 0x8
 566 0224 E6050000 		.4byte	.LASF45
 567 0228 06       		.byte	0x6
 568 0229 4D01     		.2byte	0x14d
ARM GAS  /tmp/ccXaFLhi.s 			page 11


 569 022b 11060000 		.4byte	0x611
 570 022f 38       		.byte	0x38
 571 0230 08       		.uleb128 0x8
 572 0231 EA060000 		.4byte	.LASF46
 573 0235 06       		.byte	0x6
 574 0236 5101     		.2byte	0x151
 575 0238 10010000 		.4byte	0x110
 576 023c 3C       		.byte	0x3c
 577 023d 08       		.uleb128 0x8
 578 023e 43010000 		.4byte	.LASF47
 579 0242 06       		.byte	0x6
 580 0243 5801     		.2byte	0x158
 581 0245 33030000 		.4byte	0x333
 582 0249 40       		.byte	0x40
 583 024a 00       		.byte	0
 584 024b 03       		.uleb128 0x3
 585 024c 25040000 		.4byte	.LASF48
 586 0250 05       		.byte	0x5
 587 0251 44       		.byte	0x44
 588 0252 56020000 		.4byte	0x256
 589 0256 09       		.uleb128 0x9
 590 0257 04       		.byte	0x4
 591 0258 47010000 		.4byte	0x147
 592 025c 03       		.uleb128 0x3
 593 025d C1070000 		.4byte	.LASF49
 594 0261 05       		.byte	0x5
 595 0262 49       		.byte	0x49
 596 0263 67020000 		.4byte	0x267
 597 0267 05       		.uleb128 0x5
 598 0268 75060000 		.4byte	.LASF51
 599 026c 04       		.byte	0x4
 600 026d 06       		.byte	0x6
 601 026e B0       		.byte	0xb0
 602 026f 80020000 		.4byte	0x280
 603 0273 06       		.uleb128 0x6
 604 0274 1A060000 		.4byte	.LASF30
 605 0278 06       		.byte	0x6
 606 0279 B1       		.byte	0xb1
 607 027a 56020000 		.4byte	0x256
 608 027e 00       		.byte	0
 609 027f 00       		.byte	0
 610 0280 03       		.uleb128 0x3
 611 0281 34070000 		.4byte	.LASF52
 612 0285 05       		.byte	0x5
 613 0286 50       		.byte	0x50
 614 0287 8B020000 		.4byte	0x28b
 615 028b 05       		.uleb128 0x5
 616 028c E1000000 		.4byte	.LASF53
 617 0290 08       		.byte	0x8
 618 0291 06       		.byte	0x6
 619 0292 B7       		.byte	0xb7
 620 0293 B0020000 		.4byte	0x2b0
 621 0297 06       		.uleb128 0x6
 622 0298 1A060000 		.4byte	.LASF30
 623 029c 06       		.byte	0x6
 624 029d B8       		.byte	0xb8
 625 029e 56020000 		.4byte	0x256
ARM GAS  /tmp/ccXaFLhi.s 			page 12


 626 02a2 00       		.byte	0
 627 02a3 06       		.uleb128 0x6
 628 02a4 E5040000 		.4byte	.LASF31
 629 02a8 06       		.byte	0x6
 630 02a9 B9       		.byte	0xb9
 631 02aa 56020000 		.4byte	0x256
 632 02ae 04       		.byte	0x4
 633 02af 00       		.byte	0
 634 02b0 03       		.uleb128 0x3
 635 02b1 0C000000 		.4byte	.LASF54
 636 02b5 05       		.byte	0x5
 637 02b6 57       		.byte	0x57
 638 02b7 BB020000 		.4byte	0x2bb
 639 02bb 0A       		.uleb128 0xa
 640 02bc E7030000 		.4byte	.LASF55
 641 02c0 1C       		.byte	0x1c
 642 02c1 06       		.byte	0x6
 643 02c2 9001     		.2byte	0x190
 644 02c4 17030000 		.4byte	0x317
 645 02c8 08       		.uleb128 0x8
 646 02c9 62060000 		.4byte	.LASF56
 647 02cd 06       		.byte	0x6
 648 02ce 9101     		.2byte	0x191
 649 02d0 80020000 		.4byte	0x280
 650 02d4 00       		.byte	0
 651 02d5 08       		.uleb128 0x8
 652 02d6 0C060000 		.4byte	.LASF57
 653 02da 06       		.byte	0x6
 654 02db 9201     		.2byte	0x192
 655 02dd 10010000 		.4byte	0x110
 656 02e1 08       		.byte	0x8
 657 02e2 08       		.uleb128 0x8
 658 02e3 66040000 		.4byte	.LASF58
 659 02e7 06       		.byte	0x6
 660 02e8 9401     		.2byte	0x194
 661 02ea 98040000 		.4byte	0x498
 662 02ee 0C       		.byte	0xc
 663 02ef 08       		.uleb128 0x8
 664 02f0 D4010000 		.4byte	.LASF59
 665 02f4 06       		.byte	0x6
 666 02f5 9701     		.2byte	0x197
 667 02f7 56020000 		.4byte	0x256
 668 02fb 10       		.byte	0x10
 669 02fc 08       		.uleb128 0x8
 670 02fd BA040000 		.4byte	.LASF60
 671 0301 06       		.byte	0x6
 672 0302 9801     		.2byte	0x198
 673 0304 56020000 		.4byte	0x256
 674 0308 14       		.byte	0x14
 675 0309 08       		.uleb128 0x8
 676 030a B0040000 		.4byte	.LASF61
 677 030e 06       		.byte	0x6
 678 030f 9B01     		.2byte	0x19b
 679 0311 56020000 		.4byte	0x256
 680 0315 18       		.byte	0x18
 681 0316 00       		.byte	0
 682 0317 03       		.uleb128 0x3
ARM GAS  /tmp/ccXaFLhi.s 			page 13


 683 0318 F5060000 		.4byte	.LASF62
 684 031c 05       		.byte	0x5
 685 031d 5C       		.byte	0x5c
 686 031e 22030000 		.4byte	0x322
 687 0322 09       		.uleb128 0x9
 688 0323 04       		.byte	0x4
 689 0324 28030000 		.4byte	0x328
 690 0328 0B       		.uleb128 0xb
 691 0329 33030000 		.4byte	0x333
 692 032d 0C       		.uleb128 0xc
 693 032e 33030000 		.4byte	0x333
 694 0332 00       		.byte	0
 695 0333 0D       		.uleb128 0xd
 696 0334 04       		.byte	0x4
 697 0335 03       		.uleb128 0x3
 698 0336 D5040000 		.4byte	.LASF63
 699 033a 05       		.byte	0x5
 700 033b 61       		.byte	0x61
 701 033c 40030000 		.4byte	0x340
 702 0340 0A       		.uleb128 0xa
 703 0341 29060000 		.4byte	.LASF64
 704 0345 14       		.byte	0x14
 705 0346 06       		.byte	0x6
 706 0347 6B01     		.2byte	0x16b
 707 0349 8F030000 		.4byte	0x38f
 708 034d 08       		.uleb128 0x8
 709 034e 06030000 		.4byte	.LASF65
 710 0352 06       		.byte	0x6
 711 0353 6C01     		.2byte	0x16c
 712 0355 17060000 		.4byte	0x617
 713 0359 00       		.byte	0
 714 035a 08       		.uleb128 0x8
 715 035b E5010000 		.4byte	.LASF66
 716 035f 06       		.byte	0x6
 717 0360 6D01     		.2byte	0x16d
 718 0362 17060000 		.4byte	0x617
 719 0366 04       		.byte	0x4
 720 0367 08       		.uleb128 0x8
 721 0368 EE020000 		.4byte	.LASF67
 722 036c 06       		.byte	0x6
 723 036d 6E01     		.2byte	0x16e
 724 036f 3C010000 		.4byte	0x13c
 725 0373 08       		.byte	0x8
 726 0374 08       		.uleb128 0x8
 727 0375 4F040000 		.4byte	.LASF68
 728 0379 06       		.byte	0x6
 729 037a 6F01     		.2byte	0x16f
 730 037c 17030000 		.4byte	0x317
 731 0380 0C       		.byte	0xc
 732 0381 08       		.uleb128 0x8
 733 0382 2D070000 		.4byte	.LASF69
 734 0386 06       		.byte	0x6
 735 0387 7101     		.2byte	0x171
 736 0389 33030000 		.4byte	0x333
 737 038d 10       		.byte	0x10
 738 038e 00       		.byte	0
 739 038f 03       		.uleb128 0x3
ARM GAS  /tmp/ccXaFLhi.s 			page 14


 740 0390 BE000000 		.4byte	.LASF70
 741 0394 05       		.byte	0x5
 742 0395 66       		.byte	0x66
 743 0396 9A030000 		.4byte	0x39a
 744 039a 0A       		.uleb128 0xa
 745 039b 38040000 		.4byte	.LASF71
 746 039f 10       		.byte	0x10
 747 03a0 06       		.byte	0x6
 748 03a1 7B01     		.2byte	0x17b
 749 03a3 DC030000 		.4byte	0x3dc
 750 03a7 08       		.uleb128 0x8
 751 03a8 06030000 		.4byte	.LASF65
 752 03ac 06       		.byte	0x6
 753 03ad 7C01     		.2byte	0x17c
 754 03af 17060000 		.4byte	0x617
 755 03b3 00       		.byte	0
 756 03b4 08       		.uleb128 0x8
 757 03b5 E5010000 		.4byte	.LASF66
 758 03b9 06       		.byte	0x6
 759 03ba 7E01     		.2byte	0x17e
 760 03bc 17060000 		.4byte	0x617
 761 03c0 04       		.byte	0x4
 762 03c1 08       		.uleb128 0x8
 763 03c2 EE020000 		.4byte	.LASF67
 764 03c6 06       		.byte	0x6
 765 03c7 8001     		.2byte	0x180
 766 03c9 3C010000 		.4byte	0x13c
 767 03cd 08       		.byte	0x8
 768 03ce 08       		.uleb128 0x8
 769 03cf 6A060000 		.4byte	.LASF72
 770 03d3 06       		.byte	0x6
 771 03d4 8201     		.2byte	0x182
 772 03d6 1D060000 		.4byte	0x61d
 773 03da 0C       		.byte	0xc
 774 03db 00       		.byte	0
 775 03dc 03       		.uleb128 0x3
 776 03dd F7020000 		.4byte	.LASF73
 777 03e1 05       		.byte	0x5
 778 03e2 6B       		.byte	0x6b
 779 03e3 E7030000 		.4byte	0x3e7
 780 03e7 0A       		.uleb128 0xa
 781 03e8 07050000 		.4byte	.LASF74
 782 03ec 04       		.byte	0x4
 783 03ed 06       		.byte	0x6
 784 03ee A201     		.2byte	0x1a2
 785 03f0 02040000 		.4byte	0x402
 786 03f4 08       		.uleb128 0x8
 787 03f5 09070000 		.4byte	.LASF75
 788 03f9 06       		.byte	0x6
 789 03fa AA01     		.2byte	0x1aa
 790 03fc 22060000 		.4byte	0x622
 791 0400 00       		.byte	0
 792 0401 00       		.byte	0
 793 0402 03       		.uleb128 0x3
 794 0403 AA030000 		.4byte	.LASF76
 795 0407 05       		.byte	0x5
 796 0408 70       		.byte	0x70
ARM GAS  /tmp/ccXaFLhi.s 			page 15


 797 0409 0D040000 		.4byte	0x40d
 798 040d 0E       		.uleb128 0xe
 799 040e 89010000 		.4byte	.LASF77
 800 0412 5001     		.2byte	0x150
 801 0414 06       		.byte	0x6
 802 0415 C201     		.2byte	0x1c2
 803 0417 69040000 		.4byte	0x469
 804 041b 08       		.uleb128 0x8
 805 041c 52070000 		.4byte	.LASF78
 806 0420 06       		.byte	0x6
 807 0421 C601     		.2byte	0x1c6
 808 0423 B0020000 		.4byte	0x2b0
 809 0427 00       		.byte	0
 810 0428 08       		.uleb128 0x8
 811 0429 64000000 		.4byte	.LASF79
 812 042d 06       		.byte	0x6
 813 042e CA01     		.2byte	0x1ca
 814 0430 8F030000 		.4byte	0x38f
 815 0434 1C       		.byte	0x1c
 816 0435 07       		.uleb128 0x7
 817 0436 64626700 		.ascii	"dbg\000"
 818 043a 06       		.byte	0x6
 819 043b CE01     		.2byte	0x1ce
 820 043d DC030000 		.4byte	0x3dc
 821 0441 2C       		.byte	0x2c
 822 0442 08       		.uleb128 0x8
 823 0443 B3000000 		.4byte	.LASF80
 824 0447 06       		.byte	0x6
 825 0448 D201     		.2byte	0x1d2
 826 044a 47010000 		.4byte	0x147
 827 044e 30       		.byte	0x30
 828 044f 07       		.uleb128 0x7
 829 0450 746D00   		.ascii	"tm\000"
 830 0453 06       		.byte	0x6
 831 0454 D701     		.2byte	0x1d7
 832 0456 47050000 		.4byte	0x547
 833 045a 74       		.byte	0x74
 834 045b 08       		.uleb128 0x8
 835 045c 87020000 		.4byte	.LASF81
 836 0460 06       		.byte	0x6
 837 0461 E301     		.2byte	0x1e3
 838 0463 27060000 		.4byte	0x627
 839 0467 78       		.byte	0x78
 840 0468 00       		.byte	0
 841 0469 02       		.uleb128 0x2
 842 046a 04       		.byte	0x4
 843 046b 07       		.byte	0x7
 844 046c 88070000 		.4byte	.LASF82
 845 0470 02       		.uleb128 0x2
 846 0471 01       		.byte	0x1
 847 0472 08       		.byte	0x8
 848 0473 97060000 		.4byte	.LASF83
 849 0477 09       		.uleb128 0x9
 850 0478 04       		.byte	0x4
 851 0479 7D040000 		.4byte	0x47d
 852 047d 0F       		.uleb128 0xf
 853 047e 70040000 		.4byte	0x470
ARM GAS  /tmp/ccXaFLhi.s 			page 16


 854 0482 03       		.uleb128 0x3
 855 0483 DC010000 		.4byte	.LASF84
 856 0487 07       		.byte	0x7
 857 0488 65       		.byte	0x65
 858 0489 33030000 		.4byte	0x333
 859 048d 03       		.uleb128 0x3
 860 048e 12040000 		.4byte	.LASF85
 861 0492 07       		.byte	0x7
 862 0493 6D       		.byte	0x6d
 863 0494 CE000000 		.4byte	0xce
 864 0498 05       		.uleb128 0x5
 865 0499 1A070000 		.4byte	.LASF86
 866 049d 04       		.byte	0x4
 867 049e 07       		.byte	0x7
 868 049f 89       		.byte	0x89
 869 04a0 B1040000 		.4byte	0x4b1
 870 04a4 10       		.uleb128 0x10
 871 04a5 72313300 		.ascii	"r13\000"
 872 04a9 07       		.byte	0x7
 873 04aa 8A       		.byte	0x8a
 874 04ab 2C050000 		.4byte	0x52c
 875 04af 00       		.byte	0
 876 04b0 00       		.byte	0
 877 04b1 05       		.uleb128 0x5
 878 04b2 39000000 		.4byte	.LASF87
 879 04b6 24       		.byte	0x24
 880 04b7 08       		.byte	0x8
 881 04b8 FD       		.byte	0xfd
 882 04b9 2C050000 		.4byte	0x52c
 883 04bd 07       		.uleb128 0x7
 884 04be 723400   		.ascii	"r4\000"
 885 04c1 08       		.byte	0x8
 886 04c2 1001     		.2byte	0x110
 887 04c4 82040000 		.4byte	0x482
 888 04c8 00       		.byte	0
 889 04c9 07       		.uleb128 0x7
 890 04ca 723500   		.ascii	"r5\000"
 891 04cd 08       		.byte	0x8
 892 04ce 1101     		.2byte	0x111
 893 04d0 82040000 		.4byte	0x482
 894 04d4 04       		.byte	0x4
 895 04d5 07       		.uleb128 0x7
 896 04d6 723600   		.ascii	"r6\000"
 897 04d9 08       		.byte	0x8
 898 04da 1201     		.2byte	0x112
 899 04dc 82040000 		.4byte	0x482
 900 04e0 08       		.byte	0x8
 901 04e1 07       		.uleb128 0x7
 902 04e2 723700   		.ascii	"r7\000"
 903 04e5 08       		.byte	0x8
 904 04e6 1301     		.2byte	0x113
 905 04e8 82040000 		.4byte	0x482
 906 04ec 0C       		.byte	0xc
 907 04ed 07       		.uleb128 0x7
 908 04ee 723800   		.ascii	"r8\000"
 909 04f1 08       		.byte	0x8
 910 04f2 1401     		.2byte	0x114
ARM GAS  /tmp/ccXaFLhi.s 			page 17


 911 04f4 82040000 		.4byte	0x482
 912 04f8 10       		.byte	0x10
 913 04f9 07       		.uleb128 0x7
 914 04fa 723900   		.ascii	"r9\000"
 915 04fd 08       		.byte	0x8
 916 04fe 1501     		.2byte	0x115
 917 0500 82040000 		.4byte	0x482
 918 0504 14       		.byte	0x14
 919 0505 07       		.uleb128 0x7
 920 0506 72313000 		.ascii	"r10\000"
 921 050a 08       		.byte	0x8
 922 050b 1601     		.2byte	0x116
 923 050d 82040000 		.4byte	0x482
 924 0511 18       		.byte	0x18
 925 0512 07       		.uleb128 0x7
 926 0513 72313100 		.ascii	"r11\000"
 927 0517 08       		.byte	0x8
 928 0518 1701     		.2byte	0x117
 929 051a 82040000 		.4byte	0x482
 930 051e 1C       		.byte	0x1c
 931 051f 07       		.uleb128 0x7
 932 0520 6C7200   		.ascii	"lr\000"
 933 0523 08       		.byte	0x8
 934 0524 1801     		.2byte	0x118
 935 0526 82040000 		.4byte	0x482
 936 052a 20       		.byte	0x20
 937 052b 00       		.byte	0
 938 052c 09       		.uleb128 0x9
 939 052d 04       		.byte	0x4
 940 052e B1040000 		.4byte	0x4b1
 941 0532 11       		.uleb128 0x11
 942 0533 04       		.byte	0x4
 943 0534 09       		.byte	0x9
 944 0535 38       		.byte	0x38
 945 0536 47050000 		.4byte	0x547
 946 053a 06       		.uleb128 0x6
 947 053b 13070000 		.4byte	.LASF88
 948 053f 09       		.byte	0x9
 949 0540 3C       		.byte	0x3c
 950 0541 D9000000 		.4byte	0xd9
 951 0545 00       		.byte	0
 952 0546 00       		.byte	0
 953 0547 03       		.uleb128 0x3
 954 0548 71040000 		.4byte	.LASF89
 955 054c 09       		.byte	0x9
 956 054d 3D       		.byte	0x3d
 957 054e 32050000 		.4byte	0x532
 958 0552 12       		.uleb128 0x12
 959 0553 04       		.byte	0x4
 960 0554 06       		.byte	0x6
 961 0555 FA       		.byte	0xfa
 962 0556 AF050000 		.4byte	0x5af
 963 055a 13       		.uleb128 0x13
 964 055b 1F000000 		.4byte	.LASF90
 965 055f 06       		.byte	0x6
 966 0560 0101     		.2byte	0x101
 967 0562 1B010000 		.4byte	0x11b
ARM GAS  /tmp/ccXaFLhi.s 			page 18


 968 0566 13       		.uleb128 0x13
 969 0567 AA000000 		.4byte	.LASF91
 970 056b 06       		.byte	0x6
 971 056c 0801     		.2byte	0x108
 972 056e 1B010000 		.4byte	0x11b
 973 0572 13       		.uleb128 0x13
 974 0573 78010000 		.4byte	.LASF92
 975 0577 06       		.byte	0x6
 976 0578 0F01     		.2byte	0x10f
 977 057a 33030000 		.4byte	0x333
 978 057e 13       		.uleb128 0x13
 979 057f 19000000 		.4byte	.LASF93
 980 0583 06       		.byte	0x6
 981 0584 1601     		.2byte	0x116
 982 0586 AF050000 		.4byte	0x5af
 983 058a 13       		.uleb128 0x13
 984 058b E7020000 		.4byte	.LASF94
 985 058f 06       		.byte	0x6
 986 0590 1E01     		.2byte	0x11e
 987 0592 DA050000 		.4byte	0x5da
 988 0596 13       		.uleb128 0x13
 989 0597 5B060000 		.4byte	.LASF95
 990 059b 06       		.byte	0x6
 991 059c 2701     		.2byte	0x127
 992 059e 11060000 		.4byte	0x611
 993 05a2 13       		.uleb128 0x13
 994 05a3 13060000 		.4byte	.LASF96
 995 05a7 06       		.byte	0x6
 996 05a8 2F01     		.2byte	0x12f
 997 05aa 26010000 		.4byte	0x126
 998 05ae 00       		.byte	0
 999 05af 09       		.uleb128 0x9
 1000 05b0 04       		.byte	0x4
 1001 05b1 4B020000 		.4byte	0x24b
 1002 05b5 05       		.uleb128 0x5
 1003 05b6 3A060000 		.4byte	.LASF97
 1004 05ba 0C       		.byte	0xc
 1005 05bb 0A       		.byte	0xa
 1006 05bc 34       		.byte	0x34
 1007 05bd DA050000 		.4byte	0x5da
 1008 05c1 06       		.uleb128 0x6
 1009 05c2 BF010000 		.4byte	.LASF98
 1010 05c6 0A       		.byte	0xa
 1011 05c7 35       		.byte	0x35
 1012 05c8 80020000 		.4byte	0x280
 1013 05cc 00       		.byte	0
 1014 05cd 06       		.uleb128 0x6
 1015 05ce 1A030000 		.4byte	.LASF99
 1016 05d2 0A       		.byte	0xa
 1017 05d3 37       		.byte	0x37
 1018 05d4 31010000 		.4byte	0x131
 1019 05d8 08       		.byte	0x8
 1020 05d9 00       		.byte	0
 1021 05da 09       		.uleb128 0x9
 1022 05db 04       		.byte	0x4
 1023 05dc B5050000 		.4byte	0x5b5
 1024 05e0 05       		.uleb128 0x5
ARM GAS  /tmp/ccXaFLhi.s 			page 19


 1025 05e1 B1070000 		.4byte	.LASF100
 1026 05e5 10       		.byte	0x10
 1027 05e6 0B       		.byte	0xb
 1028 05e7 39       		.byte	0x39
 1029 05e8 11060000 		.4byte	0x611
 1030 05ec 06       		.uleb128 0x6
 1031 05ed 62010000 		.4byte	.LASF101
 1032 05f1 0B       		.byte	0xb
 1033 05f2 3A       		.byte	0x3a
 1034 05f3 80020000 		.4byte	0x280
 1035 05f7 00       		.byte	0
 1036 05f8 06       		.uleb128 0x6
 1037 05f9 EB070000 		.4byte	.LASF102
 1038 05fd 0B       		.byte	0xb
 1039 05fe 3C       		.byte	0x3c
 1040 05ff 56020000 		.4byte	0x256
 1041 0603 08       		.byte	0x8
 1042 0604 06       		.uleb128 0x6
 1043 0605 D9060000 		.4byte	.LASF103
 1044 0609 0B       		.byte	0xb
 1045 060a 3E       		.byte	0x3e
 1046 060b 42060000 		.4byte	0x642
 1047 060f 0C       		.byte	0xc
 1048 0610 00       		.byte	0
 1049 0611 09       		.uleb128 0x9
 1050 0612 04       		.byte	0x4
 1051 0613 E0050000 		.4byte	0x5e0
 1052 0617 09       		.uleb128 0x9
 1053 0618 04       		.byte	0x4
 1054 0619 35030000 		.4byte	0x335
 1055 061d 14       		.uleb128 0x14
 1056 061e 3C010000 		.4byte	0x13c
 1057 0622 14       		.uleb128 0x14
 1058 0623 77040000 		.4byte	0x477
 1059 0627 15       		.uleb128 0x15
 1060 0628 8D040000 		.4byte	0x48d
 1061 062c 37060000 		.4byte	0x637
 1062 0630 16       		.uleb128 0x16
 1063 0631 69040000 		.4byte	0x469
 1064 0635 1A       		.byte	0x1a
 1065 0636 00       		.byte	0
 1066 0637 03       		.uleb128 0x3
 1067 0638 7F020000 		.4byte	.LASF104
 1068 063c 0B       		.byte	0xb
 1069 063d 34       		.byte	0x34
 1070 063e E0050000 		.4byte	0x5e0
 1071 0642 09       		.uleb128 0x9
 1072 0643 04       		.byte	0x4
 1073 0644 37060000 		.4byte	0x637
 1074 0648 03       		.uleb128 0x3
 1075 0649 F3070000 		.4byte	.LASF105
 1076 064d 0C       		.byte	0xc
 1077 064e 24       		.byte	0x24
 1078 064f A2000000 		.4byte	0xa2
 1079 0653 02       		.uleb128 0x2
 1080 0654 01       		.byte	0x1
 1081 0655 02       		.byte	0x2
ARM GAS  /tmp/ccXaFLhi.s 			page 20


 1082 0656 17050000 		.4byte	.LASF106
 1083 065a 0A       		.uleb128 0xa
 1084 065b 0E030000 		.4byte	.LASF107
 1085 065f 18       		.byte	0x18
 1086 0660 0D       		.byte	0xd
 1087 0661 1402     		.2byte	0x214
 1088 0663 C3060000 		.4byte	0x6c3
 1089 0667 07       		.uleb128 0x7
 1090 0668 6F676600 		.ascii	"ogf\000"
 1091 066c 0D       		.byte	0xd
 1092 066d 1502     		.2byte	0x215
 1093 066f AD000000 		.4byte	0xad
 1094 0673 00       		.byte	0
 1095 0674 07       		.uleb128 0x7
 1096 0675 6F636600 		.ascii	"ocf\000"
 1097 0679 0D       		.byte	0xd
 1098 067a 1602     		.2byte	0x216
 1099 067c AD000000 		.4byte	0xad
 1100 0680 02       		.byte	0x2
 1101 0681 08       		.uleb128 0x8
 1102 0682 20030000 		.4byte	.LASF108
 1103 0686 0D       		.byte	0xd
 1104 0687 1702     		.2byte	0x217
 1105 0689 94000000 		.4byte	0x94
 1106 068d 04       		.byte	0x4
 1107 068e 08       		.uleb128 0x8
 1108 068f 9C020000 		.4byte	.LASF109
 1109 0693 0D       		.byte	0xd
 1110 0694 1802     		.2byte	0x218
 1111 0696 33030000 		.4byte	0x333
 1112 069a 08       		.byte	0x8
 1113 069b 08       		.uleb128 0x8
 1114 069c 6C040000 		.4byte	.LASF110
 1115 06a0 0D       		.byte	0xd
 1116 06a1 1902     		.2byte	0x219
 1117 06a3 94000000 		.4byte	0x94
 1118 06a7 0C       		.byte	0xc
 1119 06a8 08       		.uleb128 0x8
 1120 06a9 E4070000 		.4byte	.LASF111
 1121 06ad 0D       		.byte	0xd
 1122 06ae 1A02     		.2byte	0x21a
 1123 06b0 33030000 		.4byte	0x333
 1124 06b4 10       		.byte	0x10
 1125 06b5 08       		.uleb128 0x8
 1126 06b6 9C010000 		.4byte	.LASF112
 1127 06ba 0D       		.byte	0xd
 1128 06bb 1B02     		.2byte	0x21b
 1129 06bd 94000000 		.4byte	0x94
 1130 06c1 14       		.byte	0x14
 1131 06c2 00       		.byte	0
 1132 06c3 0A       		.uleb128 0xa
 1133 06c4 91070000 		.4byte	.LASF113
 1134 06c8 0A       		.byte	0xa
 1135 06c9 0E       		.byte	0xe
 1136 06ca FE02     		.2byte	0x2fe
 1137 06cc 12070000 		.4byte	0x712
 1138 06d0 08       		.uleb128 0x8
ARM GAS  /tmp/ccXaFLhi.s 			page 21


 1139 06d1 00000000 		.4byte	.LASF114
 1140 06d5 0E       		.byte	0xe
 1141 06d6 FF02     		.2byte	0x2ff
 1142 06d8 AD000000 		.4byte	0xad
 1143 06dc 00       		.byte	0
 1144 06dd 08       		.uleb128 0x8
 1145 06de C7010000 		.4byte	.LASF115
 1146 06e2 0E       		.byte	0xe
 1147 06e3 0003     		.2byte	0x300
 1148 06e5 AD000000 		.4byte	0xad
 1149 06e9 02       		.byte	0x2
 1150 06ea 08       		.uleb128 0x8
 1151 06eb A1010000 		.4byte	.LASF116
 1152 06ef 0E       		.byte	0xe
 1153 06f0 0103     		.2byte	0x301
 1154 06f2 AD000000 		.4byte	0xad
 1155 06f6 04       		.byte	0x4
 1156 06f7 08       		.uleb128 0x8
 1157 06f8 D0070000 		.4byte	.LASF117
 1158 06fc 0E       		.byte	0xe
 1159 06fd 0203     		.2byte	0x302
 1160 06ff AD000000 		.4byte	0xad
 1161 0703 06       		.byte	0x6
 1162 0704 08       		.uleb128 0x8
 1163 0705 EC040000 		.4byte	.LASF118
 1164 0709 0E       		.byte	0xe
 1165 070a 0303     		.2byte	0x303
 1166 070c AD000000 		.4byte	0xad
 1167 0710 08       		.byte	0x8
 1168 0711 00       		.byte	0
 1169 0712 17       		.uleb128 0x17
 1170 0713 45000000 		.4byte	.LASF119
 1171 0717 0E       		.byte	0xe
 1172 0718 0403     		.2byte	0x304
 1173 071a C3060000 		.4byte	0x6c3
 1174 071e 0A       		.uleb128 0xa
 1175 071f BE030000 		.4byte	.LASF120
 1176 0723 10       		.byte	0x10
 1177 0724 0E       		.byte	0xe
 1178 0725 0903     		.2byte	0x309
 1179 0727 A0070000 		.4byte	0x7a0
 1180 072b 08       		.uleb128 0x8
 1181 072c 00000000 		.4byte	.LASF114
 1182 0730 0E       		.byte	0xe
 1183 0731 0A03     		.2byte	0x30a
 1184 0733 AD000000 		.4byte	0xad
 1185 0737 00       		.byte	0
 1186 0738 08       		.uleb128 0x8
 1187 0739 C7010000 		.4byte	.LASF115
 1188 073d 0E       		.byte	0xe
 1189 073e 0B03     		.2byte	0x30b
 1190 0740 AD000000 		.4byte	0xad
 1191 0744 02       		.byte	0x2
 1192 0745 08       		.uleb128 0x8
 1193 0746 A1010000 		.4byte	.LASF116
 1194 074a 0E       		.byte	0xe
 1195 074b 0C03     		.2byte	0x30c
ARM GAS  /tmp/ccXaFLhi.s 			page 22


 1196 074d AD000000 		.4byte	0xad
 1197 0751 04       		.byte	0x4
 1198 0752 08       		.uleb128 0x8
 1199 0753 D0070000 		.4byte	.LASF117
 1200 0757 0E       		.byte	0xe
 1201 0758 0D03     		.2byte	0x30d
 1202 075a AD000000 		.4byte	0xad
 1203 075e 06       		.byte	0x6
 1204 075f 08       		.uleb128 0x8
 1205 0760 EC040000 		.4byte	.LASF118
 1206 0764 0E       		.byte	0xe
 1207 0765 0E03     		.2byte	0x30e
 1208 0767 AD000000 		.4byte	0xad
 1209 076b 08       		.byte	0x8
 1210 076c 08       		.uleb128 0x8
 1211 076d 9C000000 		.4byte	.LASF121
 1212 0771 0E       		.byte	0xe
 1213 0772 0F03     		.2byte	0x30f
 1214 0774 AD000000 		.4byte	0xad
 1215 0778 0A       		.byte	0xa
 1216 0779 08       		.uleb128 0x8
 1217 077a 6A010000 		.4byte	.LASF122
 1218 077e 0E       		.byte	0xe
 1219 077f 1003     		.2byte	0x310
 1220 0781 AD000000 		.4byte	0xad
 1221 0785 0C       		.byte	0xc
 1222 0786 07       		.uleb128 0x7
 1223 0787 696400   		.ascii	"id\000"
 1224 078a 0E       		.byte	0xe
 1225 078b 1103     		.2byte	0x311
 1226 078d A2000000 		.4byte	0xa2
 1227 0791 0E       		.byte	0xe
 1228 0792 08       		.uleb128 0x8
 1229 0793 01040000 		.4byte	.LASF123
 1230 0797 0E       		.byte	0xe
 1231 0798 1203     		.2byte	0x312
 1232 079a A2000000 		.4byte	0xa2
 1233 079e 0F       		.byte	0xf
 1234 079f 00       		.byte	0
 1235 07a0 17       		.uleb128 0x17
 1236 07a1 60070000 		.4byte	.LASF124
 1237 07a5 0E       		.byte	0xe
 1238 07a6 1303     		.2byte	0x313
 1239 07a8 1E070000 		.4byte	0x71e
 1240 07ac 0A       		.uleb128 0xa
 1241 07ad 9C060000 		.4byte	.LASF125
 1242 07b1 0C       		.byte	0xc
 1243 07b2 0E       		.byte	0xe
 1244 07b3 1503     		.2byte	0x315
 1245 07b5 14080000 		.4byte	0x814
 1246 07b9 08       		.uleb128 0x8
 1247 07ba 00000000 		.4byte	.LASF114
 1248 07be 0E       		.byte	0xe
 1249 07bf 1603     		.2byte	0x316
 1250 07c1 AD000000 		.4byte	0xad
 1251 07c5 00       		.byte	0
 1252 07c6 08       		.uleb128 0x8
ARM GAS  /tmp/ccXaFLhi.s 			page 23


 1253 07c7 C7010000 		.4byte	.LASF115
 1254 07cb 0E       		.byte	0xe
 1255 07cc 1703     		.2byte	0x317
 1256 07ce AD000000 		.4byte	0xad
 1257 07d2 02       		.byte	0x2
 1258 07d3 08       		.uleb128 0x8
 1259 07d4 A1010000 		.4byte	.LASF116
 1260 07d8 0E       		.byte	0xe
 1261 07d9 1803     		.2byte	0x318
 1262 07db AD000000 		.4byte	0xad
 1263 07df 04       		.byte	0x4
 1264 07e0 08       		.uleb128 0x8
 1265 07e1 D0070000 		.4byte	.LASF117
 1266 07e5 0E       		.byte	0xe
 1267 07e6 1903     		.2byte	0x319
 1268 07e8 AD000000 		.4byte	0xad
 1269 07ec 06       		.byte	0x6
 1270 07ed 08       		.uleb128 0x8
 1271 07ee EC040000 		.4byte	.LASF118
 1272 07f2 0E       		.byte	0xe
 1273 07f3 1A03     		.2byte	0x31a
 1274 07f5 AD000000 		.4byte	0xad
 1275 07f9 08       		.byte	0x8
 1276 07fa 07       		.uleb128 0x7
 1277 07fb 696400   		.ascii	"id\000"
 1278 07fe 0E       		.byte	0xe
 1279 07ff 1B03     		.2byte	0x31b
 1280 0801 A2000000 		.4byte	0xa2
 1281 0805 0A       		.byte	0xa
 1282 0806 08       		.uleb128 0x8
 1283 0807 01040000 		.4byte	.LASF123
 1284 080b 0E       		.byte	0xe
 1285 080c 1C03     		.2byte	0x31c
 1286 080e A2000000 		.4byte	0xa2
 1287 0812 0B       		.byte	0xb
 1288 0813 00       		.byte	0
 1289 0814 17       		.uleb128 0x17
 1290 0815 74000000 		.4byte	.LASF126
 1291 0819 0E       		.byte	0xe
 1292 081a 1D03     		.2byte	0x31d
 1293 081c AC070000 		.4byte	0x7ac
 1294 0820 18       		.uleb128 0x18
 1295 0821 82040000 		.4byte	.LASF128
 1296 0825 01       		.byte	0x1
 1297 0826 1D       		.byte	0x1d
 1298 0827 48060000 		.4byte	0x648
 1299 082b 00000000 		.4byte	.LFB269
 1300 082f 8C000000 		.4byte	.LFE269-.LFB269
 1301 0833 01       		.uleb128 0x1
 1302 0834 9C       		.byte	0x9c
 1303 0835 A8080000 		.4byte	0x8a8
 1304 0839 19       		.uleb128 0x19
 1305 083a 00000000 		.4byte	.LASF114
 1306 083e 01       		.byte	0x1
 1307 083f 1D       		.byte	0x1d
 1308 0840 AD000000 		.4byte	0xad
 1309 0844 02       		.uleb128 0x2
ARM GAS  /tmp/ccXaFLhi.s 			page 24


 1310 0845 91       		.byte	0x91
 1311 0846 4E       		.sleb128 -50
 1312 0847 19       		.uleb128 0x19
 1313 0848 C7010000 		.4byte	.LASF115
 1314 084c 01       		.byte	0x1
 1315 084d 1D       		.byte	0x1d
 1316 084e AD000000 		.4byte	0xad
 1317 0852 02       		.uleb128 0x2
 1318 0853 91       		.byte	0x91
 1319 0854 4C       		.sleb128 -52
 1320 0855 19       		.uleb128 0x19
 1321 0856 A1010000 		.4byte	.LASF116
 1322 085a 01       		.byte	0x1
 1323 085b 1E       		.byte	0x1e
 1324 085c AD000000 		.4byte	0xad
 1325 0860 02       		.uleb128 0x2
 1326 0861 91       		.byte	0x91
 1327 0862 4A       		.sleb128 -54
 1328 0863 19       		.uleb128 0x19
 1329 0864 D0070000 		.4byte	.LASF117
 1330 0868 01       		.byte	0x1
 1331 0869 1E       		.byte	0x1e
 1332 086a AD000000 		.4byte	0xad
 1333 086e 02       		.uleb128 0x2
 1334 086f 91       		.byte	0x91
 1335 0870 48       		.sleb128 -56
 1336 0871 19       		.uleb128 0x19
 1337 0872 EC040000 		.4byte	.LASF118
 1338 0876 01       		.byte	0x1
 1339 0877 1F       		.byte	0x1f
 1340 0878 AD000000 		.4byte	0xad
 1341 087c 02       		.uleb128 0x2
 1342 087d 91       		.byte	0x91
 1343 087e 00       		.sleb128 0
 1344 087f 1A       		.uleb128 0x1a
 1345 0880 727100   		.ascii	"rq\000"
 1346 0883 01       		.byte	0x1
 1347 0884 21       		.byte	0x21
 1348 0885 5A060000 		.4byte	0x65a
 1349 0889 02       		.uleb128 0x2
 1350 088a 91       		.byte	0x91
 1351 088b 60       		.sleb128 -32
 1352 088c 1B       		.uleb128 0x1b
 1353 088d 4B070000 		.4byte	.LASF127
 1354 0891 01       		.byte	0x1
 1355 0892 22       		.byte	0x22
 1356 0893 A2000000 		.4byte	0xa2
 1357 0897 02       		.uleb128 0x2
 1358 0898 91       		.byte	0x91
 1359 0899 5F       		.sleb128 -33
 1360 089a 1A       		.uleb128 0x1a
 1361 089b 637000   		.ascii	"cp\000"
 1362 089e 01       		.byte	0x1
 1363 089f 23       		.byte	0x23
 1364 08a0 12070000 		.4byte	0x712
 1365 08a4 02       		.uleb128 0x2
 1366 08a5 91       		.byte	0x91
ARM GAS  /tmp/ccXaFLhi.s 			page 25


 1367 08a6 54       		.sleb128 -44
 1368 08a7 00       		.byte	0
 1369 08a8 18       		.uleb128 0x18
 1370 08a9 0C010000 		.4byte	.LASF129
 1371 08ad 01       		.byte	0x1
 1372 08ae 3A       		.byte	0x3a
 1373 08af 48060000 		.4byte	0x648
 1374 08b3 90000000 		.4byte	.LFB270
 1375 08b7 A8000000 		.4byte	.LFE270-.LFB270
 1376 08bb 01       		.uleb128 0x1
 1377 08bc 9C       		.byte	0x9c
 1378 08bd 67090000 		.4byte	0x967
 1379 08c1 19       		.uleb128 0x19
 1380 08c2 00000000 		.4byte	.LASF114
 1381 08c6 01       		.byte	0x1
 1382 08c7 3A       		.byte	0x3a
 1383 08c8 AD000000 		.4byte	0xad
 1384 08cc 02       		.uleb128 0x2
 1385 08cd 91       		.byte	0x91
 1386 08ce 46       		.sleb128 -58
 1387 08cf 19       		.uleb128 0x19
 1388 08d0 C7010000 		.4byte	.LASF115
 1389 08d4 01       		.byte	0x1
 1390 08d5 3A       		.byte	0x3a
 1391 08d6 AD000000 		.4byte	0xad
 1392 08da 02       		.uleb128 0x2
 1393 08db 91       		.byte	0x91
 1394 08dc 44       		.sleb128 -60
 1395 08dd 19       		.uleb128 0x19
 1396 08de A1010000 		.4byte	.LASF116
 1397 08e2 01       		.byte	0x1
 1398 08e3 3B       		.byte	0x3b
 1399 08e4 AD000000 		.4byte	0xad
 1400 08e8 02       		.uleb128 0x2
 1401 08e9 91       		.byte	0x91
 1402 08ea 42       		.sleb128 -62
 1403 08eb 19       		.uleb128 0x19
 1404 08ec D0070000 		.4byte	.LASF117
 1405 08f0 01       		.byte	0x1
 1406 08f1 3B       		.byte	0x3b
 1407 08f2 AD000000 		.4byte	0xad
 1408 08f6 02       		.uleb128 0x2
 1409 08f7 91       		.byte	0x91
 1410 08f8 40       		.sleb128 -64
 1411 08f9 19       		.uleb128 0x19
 1412 08fa EC040000 		.4byte	.LASF118
 1413 08fe 01       		.byte	0x1
 1414 08ff 3C       		.byte	0x3c
 1415 0900 AD000000 		.4byte	0xad
 1416 0904 02       		.uleb128 0x2
 1417 0905 91       		.byte	0x91
 1418 0906 00       		.sleb128 0
 1419 0907 19       		.uleb128 0x19
 1420 0908 9C000000 		.4byte	.LASF121
 1421 090c 01       		.byte	0x1
 1422 090d 3C       		.byte	0x3c
 1423 090e AD000000 		.4byte	0xad
ARM GAS  /tmp/ccXaFLhi.s 			page 26


 1424 0912 02       		.uleb128 0x2
 1425 0913 91       		.byte	0x91
 1426 0914 04       		.sleb128 4
 1427 0915 19       		.uleb128 0x19
 1428 0916 6A010000 		.4byte	.LASF122
 1429 091a 01       		.byte	0x1
 1430 091b 3C       		.byte	0x3c
 1431 091c AD000000 		.4byte	0xad
 1432 0920 02       		.uleb128 0x2
 1433 0921 91       		.byte	0x91
 1434 0922 08       		.sleb128 8
 1435 0923 1C       		.uleb128 0x1c
 1436 0924 696400   		.ascii	"id\000"
 1437 0927 01       		.byte	0x1
 1438 0928 3D       		.byte	0x3d
 1439 0929 A2000000 		.4byte	0xa2
 1440 092d 02       		.uleb128 0x2
 1441 092e 91       		.byte	0x91
 1442 092f 0C       		.sleb128 12
 1443 0930 19       		.uleb128 0x19
 1444 0931 01040000 		.4byte	.LASF123
 1445 0935 01       		.byte	0x1
 1446 0936 3D       		.byte	0x3d
 1447 0937 A2000000 		.4byte	0xa2
 1448 093b 02       		.uleb128 0x2
 1449 093c 91       		.byte	0x91
 1450 093d 10       		.sleb128 16
 1451 093e 1A       		.uleb128 0x1a
 1452 093f 727100   		.ascii	"rq\000"
 1453 0942 01       		.byte	0x1
 1454 0943 3F       		.byte	0x3f
 1455 0944 5A060000 		.4byte	0x65a
 1456 0948 02       		.uleb128 0x2
 1457 0949 91       		.byte	0x91
 1458 094a 60       		.sleb128 -32
 1459 094b 1B       		.uleb128 0x1b
 1460 094c 4B070000 		.4byte	.LASF127
 1461 0950 01       		.byte	0x1
 1462 0951 40       		.byte	0x40
 1463 0952 A2000000 		.4byte	0xa2
 1464 0956 02       		.uleb128 0x2
 1465 0957 91       		.byte	0x91
 1466 0958 5F       		.sleb128 -33
 1467 0959 1A       		.uleb128 0x1a
 1468 095a 637000   		.ascii	"cp\000"
 1469 095d 01       		.byte	0x1
 1470 095e 41       		.byte	0x41
 1471 095f A0070000 		.4byte	0x7a0
 1472 0963 02       		.uleb128 0x2
 1473 0964 91       		.byte	0x91
 1474 0965 4C       		.sleb128 -52
 1475 0966 00       		.byte	0
 1476 0967 18       		.uleb128 0x18
 1477 0968 B0020000 		.4byte	.LASF130
 1478 096c 01       		.byte	0x1
 1479 096d 5B       		.byte	0x5b
 1480 096e 48060000 		.4byte	0x648
ARM GAS  /tmp/ccXaFLhi.s 			page 27


 1481 0972 40010000 		.4byte	.LFB271
 1482 0976 98000000 		.4byte	.LFE271-.LFB271
 1483 097a 01       		.uleb128 0x1
 1484 097b 9C       		.byte	0x9c
 1485 097c 0A0A0000 		.4byte	0xa0a
 1486 0980 19       		.uleb128 0x19
 1487 0981 00000000 		.4byte	.LASF114
 1488 0985 01       		.byte	0x1
 1489 0986 5B       		.byte	0x5b
 1490 0987 AD000000 		.4byte	0xad
 1491 098b 02       		.uleb128 0x2
 1492 098c 91       		.byte	0x91
 1493 098d 4E       		.sleb128 -50
 1494 098e 19       		.uleb128 0x19
 1495 098f C7010000 		.4byte	.LASF115
 1496 0993 01       		.byte	0x1
 1497 0994 5B       		.byte	0x5b
 1498 0995 AD000000 		.4byte	0xad
 1499 0999 02       		.uleb128 0x2
 1500 099a 91       		.byte	0x91
 1501 099b 4C       		.sleb128 -52
 1502 099c 19       		.uleb128 0x19
 1503 099d A1010000 		.4byte	.LASF116
 1504 09a1 01       		.byte	0x1
 1505 09a2 5C       		.byte	0x5c
 1506 09a3 AD000000 		.4byte	0xad
 1507 09a7 02       		.uleb128 0x2
 1508 09a8 91       		.byte	0x91
 1509 09a9 4A       		.sleb128 -54
 1510 09aa 19       		.uleb128 0x19
 1511 09ab D0070000 		.4byte	.LASF117
 1512 09af 01       		.byte	0x1
 1513 09b0 5C       		.byte	0x5c
 1514 09b1 AD000000 		.4byte	0xad
 1515 09b5 02       		.uleb128 0x2
 1516 09b6 91       		.byte	0x91
 1517 09b7 48       		.sleb128 -56
 1518 09b8 19       		.uleb128 0x19
 1519 09b9 EC040000 		.4byte	.LASF118
 1520 09bd 01       		.byte	0x1
 1521 09be 5D       		.byte	0x5d
 1522 09bf AD000000 		.4byte	0xad
 1523 09c3 02       		.uleb128 0x2
 1524 09c4 91       		.byte	0x91
 1525 09c5 00       		.sleb128 0
 1526 09c6 1C       		.uleb128 0x1c
 1527 09c7 696400   		.ascii	"id\000"
 1528 09ca 01       		.byte	0x1
 1529 09cb 5D       		.byte	0x5d
 1530 09cc A2000000 		.4byte	0xa2
 1531 09d0 02       		.uleb128 0x2
 1532 09d1 91       		.byte	0x91
 1533 09d2 04       		.sleb128 4
 1534 09d3 19       		.uleb128 0x19
 1535 09d4 01040000 		.4byte	.LASF123
 1536 09d8 01       		.byte	0x1
 1537 09d9 5D       		.byte	0x5d
ARM GAS  /tmp/ccXaFLhi.s 			page 28


 1538 09da A2000000 		.4byte	0xa2
 1539 09de 02       		.uleb128 0x2
 1540 09df 91       		.byte	0x91
 1541 09e0 08       		.sleb128 8
 1542 09e1 1A       		.uleb128 0x1a
 1543 09e2 727100   		.ascii	"rq\000"
 1544 09e5 01       		.byte	0x1
 1545 09e6 5F       		.byte	0x5f
 1546 09e7 5A060000 		.4byte	0x65a
 1547 09eb 02       		.uleb128 0x2
 1548 09ec 91       		.byte	0x91
 1549 09ed 60       		.sleb128 -32
 1550 09ee 1B       		.uleb128 0x1b
 1551 09ef 4B070000 		.4byte	.LASF127
 1552 09f3 01       		.byte	0x1
 1553 09f4 60       		.byte	0x60
 1554 09f5 A2000000 		.4byte	0xa2
 1555 09f9 02       		.uleb128 0x2
 1556 09fa 91       		.byte	0x91
 1557 09fb 5F       		.sleb128 -33
 1558 09fc 1A       		.uleb128 0x1a
 1559 09fd 637000   		.ascii	"cp\000"
 1560 0a00 01       		.byte	0x1
 1561 0a01 61       		.byte	0x61
 1562 0a02 14080000 		.4byte	0x814
 1563 0a06 02       		.uleb128 0x2
 1564 0a07 91       		.byte	0x91
 1565 0a08 50       		.sleb128 -48
 1566 0a09 00       		.byte	0
 1567 0a0a 1D       		.uleb128 0x1d
 1568 0a0b D4000000 		.4byte	.LASF131
 1569 0a0f 0F       		.byte	0xf
 1570 0a10 FA06     		.2byte	0x6fa
 1571 0a12 160A0000 		.4byte	0xa16
 1572 0a16 14       		.uleb128 0x14
 1573 0a17 B8000000 		.4byte	0xb8
 1574 0a1b 1E       		.uleb128 0x1e
 1575 0a1c 636800   		.ascii	"ch\000"
 1576 0a1f 06       		.byte	0x6
 1577 0a20 0902     		.2byte	0x209
 1578 0a22 02040000 		.4byte	0x402
 1579 0a26 00       		.byte	0
 1580              		.section	.debug_abbrev,"",%progbits
 1581              	.Ldebug_abbrev0:
 1582 0000 01       		.uleb128 0x1
 1583 0001 11       		.uleb128 0x11
 1584 0002 01       		.byte	0x1
 1585 0003 25       		.uleb128 0x25
 1586 0004 0E       		.uleb128 0xe
 1587 0005 13       		.uleb128 0x13
 1588 0006 0B       		.uleb128 0xb
 1589 0007 03       		.uleb128 0x3
 1590 0008 0E       		.uleb128 0xe
 1591 0009 1B       		.uleb128 0x1b
 1592 000a 0E       		.uleb128 0xe
 1593 000b 11       		.uleb128 0x11
 1594 000c 01       		.uleb128 0x1
ARM GAS  /tmp/ccXaFLhi.s 			page 29


 1595 000d 12       		.uleb128 0x12
 1596 000e 06       		.uleb128 0x6
 1597 000f 10       		.uleb128 0x10
 1598 0010 17       		.uleb128 0x17
 1599 0011 00       		.byte	0
 1600 0012 00       		.byte	0
 1601 0013 02       		.uleb128 0x2
 1602 0014 24       		.uleb128 0x24
 1603 0015 00       		.byte	0
 1604 0016 0B       		.uleb128 0xb
 1605 0017 0B       		.uleb128 0xb
 1606 0018 3E       		.uleb128 0x3e
 1607 0019 0B       		.uleb128 0xb
 1608 001a 03       		.uleb128 0x3
 1609 001b 0E       		.uleb128 0xe
 1610 001c 00       		.byte	0
 1611 001d 00       		.byte	0
 1612 001e 03       		.uleb128 0x3
 1613 001f 16       		.uleb128 0x16
 1614 0020 00       		.byte	0
 1615 0021 03       		.uleb128 0x3
 1616 0022 0E       		.uleb128 0xe
 1617 0023 3A       		.uleb128 0x3a
 1618 0024 0B       		.uleb128 0xb
 1619 0025 3B       		.uleb128 0x3b
 1620 0026 0B       		.uleb128 0xb
 1621 0027 49       		.uleb128 0x49
 1622 0028 13       		.uleb128 0x13
 1623 0029 00       		.byte	0
 1624 002a 00       		.byte	0
 1625 002b 04       		.uleb128 0x4
 1626 002c 24       		.uleb128 0x24
 1627 002d 00       		.byte	0
 1628 002e 0B       		.uleb128 0xb
 1629 002f 0B       		.uleb128 0xb
 1630 0030 3E       		.uleb128 0x3e
 1631 0031 0B       		.uleb128 0xb
 1632 0032 03       		.uleb128 0x3
 1633 0033 08       		.uleb128 0x8
 1634 0034 00       		.byte	0
 1635 0035 00       		.byte	0
 1636 0036 05       		.uleb128 0x5
 1637 0037 13       		.uleb128 0x13
 1638 0038 01       		.byte	0x1
 1639 0039 03       		.uleb128 0x3
 1640 003a 0E       		.uleb128 0xe
 1641 003b 0B       		.uleb128 0xb
 1642 003c 0B       		.uleb128 0xb
 1643 003d 3A       		.uleb128 0x3a
 1644 003e 0B       		.uleb128 0xb
 1645 003f 3B       		.uleb128 0x3b
 1646 0040 0B       		.uleb128 0xb
 1647 0041 01       		.uleb128 0x1
 1648 0042 13       		.uleb128 0x13
 1649 0043 00       		.byte	0
 1650 0044 00       		.byte	0
 1651 0045 06       		.uleb128 0x6
ARM GAS  /tmp/ccXaFLhi.s 			page 30


 1652 0046 0D       		.uleb128 0xd
 1653 0047 00       		.byte	0
 1654 0048 03       		.uleb128 0x3
 1655 0049 0E       		.uleb128 0xe
 1656 004a 3A       		.uleb128 0x3a
 1657 004b 0B       		.uleb128 0xb
 1658 004c 3B       		.uleb128 0x3b
 1659 004d 0B       		.uleb128 0xb
 1660 004e 49       		.uleb128 0x49
 1661 004f 13       		.uleb128 0x13
 1662 0050 38       		.uleb128 0x38
 1663 0051 0B       		.uleb128 0xb
 1664 0052 00       		.byte	0
 1665 0053 00       		.byte	0
 1666 0054 07       		.uleb128 0x7
 1667 0055 0D       		.uleb128 0xd
 1668 0056 00       		.byte	0
 1669 0057 03       		.uleb128 0x3
 1670 0058 08       		.uleb128 0x8
 1671 0059 3A       		.uleb128 0x3a
 1672 005a 0B       		.uleb128 0xb
 1673 005b 3B       		.uleb128 0x3b
 1674 005c 05       		.uleb128 0x5
 1675 005d 49       		.uleb128 0x49
 1676 005e 13       		.uleb128 0x13
 1677 005f 38       		.uleb128 0x38
 1678 0060 0B       		.uleb128 0xb
 1679 0061 00       		.byte	0
 1680 0062 00       		.byte	0
 1681 0063 08       		.uleb128 0x8
 1682 0064 0D       		.uleb128 0xd
 1683 0065 00       		.byte	0
 1684 0066 03       		.uleb128 0x3
 1685 0067 0E       		.uleb128 0xe
 1686 0068 3A       		.uleb128 0x3a
 1687 0069 0B       		.uleb128 0xb
 1688 006a 3B       		.uleb128 0x3b
 1689 006b 05       		.uleb128 0x5
 1690 006c 49       		.uleb128 0x49
 1691 006d 13       		.uleb128 0x13
 1692 006e 38       		.uleb128 0x38
 1693 006f 0B       		.uleb128 0xb
 1694 0070 00       		.byte	0
 1695 0071 00       		.byte	0
 1696 0072 09       		.uleb128 0x9
 1697 0073 0F       		.uleb128 0xf
 1698 0074 00       		.byte	0
 1699 0075 0B       		.uleb128 0xb
 1700 0076 0B       		.uleb128 0xb
 1701 0077 49       		.uleb128 0x49
 1702 0078 13       		.uleb128 0x13
 1703 0079 00       		.byte	0
 1704 007a 00       		.byte	0
 1705 007b 0A       		.uleb128 0xa
 1706 007c 13       		.uleb128 0x13
 1707 007d 01       		.byte	0x1
 1708 007e 03       		.uleb128 0x3
ARM GAS  /tmp/ccXaFLhi.s 			page 31


 1709 007f 0E       		.uleb128 0xe
 1710 0080 0B       		.uleb128 0xb
 1711 0081 0B       		.uleb128 0xb
 1712 0082 3A       		.uleb128 0x3a
 1713 0083 0B       		.uleb128 0xb
 1714 0084 3B       		.uleb128 0x3b
 1715 0085 05       		.uleb128 0x5
 1716 0086 01       		.uleb128 0x1
 1717 0087 13       		.uleb128 0x13
 1718 0088 00       		.byte	0
 1719 0089 00       		.byte	0
 1720 008a 0B       		.uleb128 0xb
 1721 008b 15       		.uleb128 0x15
 1722 008c 01       		.byte	0x1
 1723 008d 27       		.uleb128 0x27
 1724 008e 19       		.uleb128 0x19
 1725 008f 01       		.uleb128 0x1
 1726 0090 13       		.uleb128 0x13
 1727 0091 00       		.byte	0
 1728 0092 00       		.byte	0
 1729 0093 0C       		.uleb128 0xc
 1730 0094 05       		.uleb128 0x5
 1731 0095 00       		.byte	0
 1732 0096 49       		.uleb128 0x49
 1733 0097 13       		.uleb128 0x13
 1734 0098 00       		.byte	0
 1735 0099 00       		.byte	0
 1736 009a 0D       		.uleb128 0xd
 1737 009b 0F       		.uleb128 0xf
 1738 009c 00       		.byte	0
 1739 009d 0B       		.uleb128 0xb
 1740 009e 0B       		.uleb128 0xb
 1741 009f 00       		.byte	0
 1742 00a0 00       		.byte	0
 1743 00a1 0E       		.uleb128 0xe
 1744 00a2 13       		.uleb128 0x13
 1745 00a3 01       		.byte	0x1
 1746 00a4 03       		.uleb128 0x3
 1747 00a5 0E       		.uleb128 0xe
 1748 00a6 0B       		.uleb128 0xb
 1749 00a7 05       		.uleb128 0x5
 1750 00a8 3A       		.uleb128 0x3a
 1751 00a9 0B       		.uleb128 0xb
 1752 00aa 3B       		.uleb128 0x3b
 1753 00ab 05       		.uleb128 0x5
 1754 00ac 01       		.uleb128 0x1
 1755 00ad 13       		.uleb128 0x13
 1756 00ae 00       		.byte	0
 1757 00af 00       		.byte	0
 1758 00b0 0F       		.uleb128 0xf
 1759 00b1 26       		.uleb128 0x26
 1760 00b2 00       		.byte	0
 1761 00b3 49       		.uleb128 0x49
 1762 00b4 13       		.uleb128 0x13
 1763 00b5 00       		.byte	0
 1764 00b6 00       		.byte	0
 1765 00b7 10       		.uleb128 0x10
ARM GAS  /tmp/ccXaFLhi.s 			page 32


 1766 00b8 0D       		.uleb128 0xd
 1767 00b9 00       		.byte	0
 1768 00ba 03       		.uleb128 0x3
 1769 00bb 08       		.uleb128 0x8
 1770 00bc 3A       		.uleb128 0x3a
 1771 00bd 0B       		.uleb128 0xb
 1772 00be 3B       		.uleb128 0x3b
 1773 00bf 0B       		.uleb128 0xb
 1774 00c0 49       		.uleb128 0x49
 1775 00c1 13       		.uleb128 0x13
 1776 00c2 38       		.uleb128 0x38
 1777 00c3 0B       		.uleb128 0xb
 1778 00c4 00       		.byte	0
 1779 00c5 00       		.byte	0
 1780 00c6 11       		.uleb128 0x11
 1781 00c7 13       		.uleb128 0x13
 1782 00c8 01       		.byte	0x1
 1783 00c9 0B       		.uleb128 0xb
 1784 00ca 0B       		.uleb128 0xb
 1785 00cb 3A       		.uleb128 0x3a
 1786 00cc 0B       		.uleb128 0xb
 1787 00cd 3B       		.uleb128 0x3b
 1788 00ce 0B       		.uleb128 0xb
 1789 00cf 01       		.uleb128 0x1
 1790 00d0 13       		.uleb128 0x13
 1791 00d1 00       		.byte	0
 1792 00d2 00       		.byte	0
 1793 00d3 12       		.uleb128 0x12
 1794 00d4 17       		.uleb128 0x17
 1795 00d5 01       		.byte	0x1
 1796 00d6 0B       		.uleb128 0xb
 1797 00d7 0B       		.uleb128 0xb
 1798 00d8 3A       		.uleb128 0x3a
 1799 00d9 0B       		.uleb128 0xb
 1800 00da 3B       		.uleb128 0x3b
 1801 00db 0B       		.uleb128 0xb
 1802 00dc 01       		.uleb128 0x1
 1803 00dd 13       		.uleb128 0x13
 1804 00de 00       		.byte	0
 1805 00df 00       		.byte	0
 1806 00e0 13       		.uleb128 0x13
 1807 00e1 0D       		.uleb128 0xd
 1808 00e2 00       		.byte	0
 1809 00e3 03       		.uleb128 0x3
 1810 00e4 0E       		.uleb128 0xe
 1811 00e5 3A       		.uleb128 0x3a
 1812 00e6 0B       		.uleb128 0xb
 1813 00e7 3B       		.uleb128 0x3b
 1814 00e8 05       		.uleb128 0x5
 1815 00e9 49       		.uleb128 0x49
 1816 00ea 13       		.uleb128 0x13
 1817 00eb 00       		.byte	0
 1818 00ec 00       		.byte	0
 1819 00ed 14       		.uleb128 0x14
 1820 00ee 35       		.uleb128 0x35
 1821 00ef 00       		.byte	0
 1822 00f0 49       		.uleb128 0x49
ARM GAS  /tmp/ccXaFLhi.s 			page 33


 1823 00f1 13       		.uleb128 0x13
 1824 00f2 00       		.byte	0
 1825 00f3 00       		.byte	0
 1826 00f4 15       		.uleb128 0x15
 1827 00f5 01       		.uleb128 0x1
 1828 00f6 01       		.byte	0x1
 1829 00f7 49       		.uleb128 0x49
 1830 00f8 13       		.uleb128 0x13
 1831 00f9 01       		.uleb128 0x1
 1832 00fa 13       		.uleb128 0x13
 1833 00fb 00       		.byte	0
 1834 00fc 00       		.byte	0
 1835 00fd 16       		.uleb128 0x16
 1836 00fe 21       		.uleb128 0x21
 1837 00ff 00       		.byte	0
 1838 0100 49       		.uleb128 0x49
 1839 0101 13       		.uleb128 0x13
 1840 0102 2F       		.uleb128 0x2f
 1841 0103 0B       		.uleb128 0xb
 1842 0104 00       		.byte	0
 1843 0105 00       		.byte	0
 1844 0106 17       		.uleb128 0x17
 1845 0107 16       		.uleb128 0x16
 1846 0108 00       		.byte	0
 1847 0109 03       		.uleb128 0x3
 1848 010a 0E       		.uleb128 0xe
 1849 010b 3A       		.uleb128 0x3a
 1850 010c 0B       		.uleb128 0xb
 1851 010d 3B       		.uleb128 0x3b
 1852 010e 05       		.uleb128 0x5
 1853 010f 49       		.uleb128 0x49
 1854 0110 13       		.uleb128 0x13
 1855 0111 00       		.byte	0
 1856 0112 00       		.byte	0
 1857 0113 18       		.uleb128 0x18
 1858 0114 2E       		.uleb128 0x2e
 1859 0115 01       		.byte	0x1
 1860 0116 3F       		.uleb128 0x3f
 1861 0117 19       		.uleb128 0x19
 1862 0118 03       		.uleb128 0x3
 1863 0119 0E       		.uleb128 0xe
 1864 011a 3A       		.uleb128 0x3a
 1865 011b 0B       		.uleb128 0xb
 1866 011c 3B       		.uleb128 0x3b
 1867 011d 0B       		.uleb128 0xb
 1868 011e 27       		.uleb128 0x27
 1869 011f 19       		.uleb128 0x19
 1870 0120 49       		.uleb128 0x49
 1871 0121 13       		.uleb128 0x13
 1872 0122 11       		.uleb128 0x11
 1873 0123 01       		.uleb128 0x1
 1874 0124 12       		.uleb128 0x12
 1875 0125 06       		.uleb128 0x6
 1876 0126 40       		.uleb128 0x40
 1877 0127 18       		.uleb128 0x18
 1878 0128 9642     		.uleb128 0x2116
 1879 012a 19       		.uleb128 0x19
ARM GAS  /tmp/ccXaFLhi.s 			page 34


 1880 012b 01       		.uleb128 0x1
 1881 012c 13       		.uleb128 0x13
 1882 012d 00       		.byte	0
 1883 012e 00       		.byte	0
 1884 012f 19       		.uleb128 0x19
 1885 0130 05       		.uleb128 0x5
 1886 0131 00       		.byte	0
 1887 0132 03       		.uleb128 0x3
 1888 0133 0E       		.uleb128 0xe
 1889 0134 3A       		.uleb128 0x3a
 1890 0135 0B       		.uleb128 0xb
 1891 0136 3B       		.uleb128 0x3b
 1892 0137 0B       		.uleb128 0xb
 1893 0138 49       		.uleb128 0x49
 1894 0139 13       		.uleb128 0x13
 1895 013a 02       		.uleb128 0x2
 1896 013b 18       		.uleb128 0x18
 1897 013c 00       		.byte	0
 1898 013d 00       		.byte	0
 1899 013e 1A       		.uleb128 0x1a
 1900 013f 34       		.uleb128 0x34
 1901 0140 00       		.byte	0
 1902 0141 03       		.uleb128 0x3
 1903 0142 08       		.uleb128 0x8
 1904 0143 3A       		.uleb128 0x3a
 1905 0144 0B       		.uleb128 0xb
 1906 0145 3B       		.uleb128 0x3b
 1907 0146 0B       		.uleb128 0xb
 1908 0147 49       		.uleb128 0x49
 1909 0148 13       		.uleb128 0x13
 1910 0149 02       		.uleb128 0x2
 1911 014a 18       		.uleb128 0x18
 1912 014b 00       		.byte	0
 1913 014c 00       		.byte	0
 1914 014d 1B       		.uleb128 0x1b
 1915 014e 34       		.uleb128 0x34
 1916 014f 00       		.byte	0
 1917 0150 03       		.uleb128 0x3
 1918 0151 0E       		.uleb128 0xe
 1919 0152 3A       		.uleb128 0x3a
 1920 0153 0B       		.uleb128 0xb
 1921 0154 3B       		.uleb128 0x3b
 1922 0155 0B       		.uleb128 0xb
 1923 0156 49       		.uleb128 0x49
 1924 0157 13       		.uleb128 0x13
 1925 0158 02       		.uleb128 0x2
 1926 0159 18       		.uleb128 0x18
 1927 015a 00       		.byte	0
 1928 015b 00       		.byte	0
 1929 015c 1C       		.uleb128 0x1c
 1930 015d 05       		.uleb128 0x5
 1931 015e 00       		.byte	0
 1932 015f 03       		.uleb128 0x3
 1933 0160 08       		.uleb128 0x8
 1934 0161 3A       		.uleb128 0x3a
 1935 0162 0B       		.uleb128 0xb
 1936 0163 3B       		.uleb128 0x3b
ARM GAS  /tmp/ccXaFLhi.s 			page 35


 1937 0164 0B       		.uleb128 0xb
 1938 0165 49       		.uleb128 0x49
 1939 0166 13       		.uleb128 0x13
 1940 0167 02       		.uleb128 0x2
 1941 0168 18       		.uleb128 0x18
 1942 0169 00       		.byte	0
 1943 016a 00       		.byte	0
 1944 016b 1D       		.uleb128 0x1d
 1945 016c 34       		.uleb128 0x34
 1946 016d 00       		.byte	0
 1947 016e 03       		.uleb128 0x3
 1948 016f 0E       		.uleb128 0xe
 1949 0170 3A       		.uleb128 0x3a
 1950 0171 0B       		.uleb128 0xb
 1951 0172 3B       		.uleb128 0x3b
 1952 0173 05       		.uleb128 0x5
 1953 0174 49       		.uleb128 0x49
 1954 0175 13       		.uleb128 0x13
 1955 0176 3F       		.uleb128 0x3f
 1956 0177 19       		.uleb128 0x19
 1957 0178 3C       		.uleb128 0x3c
 1958 0179 19       		.uleb128 0x19
 1959 017a 00       		.byte	0
 1960 017b 00       		.byte	0
 1961 017c 1E       		.uleb128 0x1e
 1962 017d 34       		.uleb128 0x34
 1963 017e 00       		.byte	0
 1964 017f 03       		.uleb128 0x3
 1965 0180 08       		.uleb128 0x8
 1966 0181 3A       		.uleb128 0x3a
 1967 0182 0B       		.uleb128 0xb
 1968 0183 3B       		.uleb128 0x3b
 1969 0184 05       		.uleb128 0x5
 1970 0185 49       		.uleb128 0x49
 1971 0186 13       		.uleb128 0x13
 1972 0187 3F       		.uleb128 0x3f
 1973 0188 19       		.uleb128 0x19
 1974 0189 3C       		.uleb128 0x3c
 1975 018a 19       		.uleb128 0x19
 1976 018b 00       		.byte	0
 1977 018c 00       		.byte	0
 1978 018d 00       		.byte	0
 1979              		.section	.debug_aranges,"",%progbits
 1980 0000 1C000000 		.4byte	0x1c
 1981 0004 0200     		.2byte	0x2
 1982 0006 00000000 		.4byte	.Ldebug_info0
 1983 000a 04       		.byte	0x4
 1984 000b 00       		.byte	0
 1985 000c 0000     		.2byte	0
 1986 000e 0000     		.2byte	0
 1987 0010 00000000 		.4byte	.Ltext0
 1988 0014 D8010000 		.4byte	.Letext0-.Ltext0
 1989 0018 00000000 		.4byte	0
 1990 001c 00000000 		.4byte	0
 1991              		.section	.debug_line,"",%progbits
 1992              	.Ldebug_line0:
 1993 0000 70030000 		.section	.debug_str,"MS",%progbits,1
ARM GAS  /tmp/ccXaFLhi.s 			page 36


 1993      02002203 
 1993      00000201 
 1993      FB0E0D00 
 1993      01010101 
 1994              	.LASF114:
 1995 0000 636F6E6E 		.ascii	"conn_handle\000"
 1995      5F68616E 
 1995      646C6500 
 1996              	.LASF54:
 1997 000c 72656164 		.ascii	"ready_list_t\000"
 1997      795F6C69 
 1997      73745F74 
 1997      00
 1998              	.LASF93:
 1999 0019 77747472 		.ascii	"wttrp\000"
 1999      7000
 2000              	.LASF90:
 2001 001f 7264796D 		.ascii	"rdymsg\000"
 2001      736700
 2002              	.LASF18:
 2003 0026 75696E74 		.ascii	"uint64_t\000"
 2003      36345F74 
 2003      00
 2004              	.LASF3:
 2005 002f 5F5F7569 		.ascii	"__uint8_t\000"
 2005      6E74385F 
 2005      7400
 2006              	.LASF87:
 2007 0039 706F7274 		.ascii	"port_intctx\000"
 2007      5F696E74 
 2007      63747800 
 2008              	.LASF119:
 2009 0045 6C326361 		.ascii	"l2cap_conn_param_update_req_cp\000"
 2009      705F636F 
 2009      6E6E5F70 
 2009      6172616D 
 2009      5F757064 
 2010              	.LASF79:
 2011 0064 76746C69 		.ascii	"vtlist\000"
 2011      737400
 2012              	.LASF7:
 2013 006b 6C6F6E67 		.ascii	"long int\000"
 2013      20696E74 
 2013      00
 2014              	.LASF126:
 2015 0074 6C326361 		.ascii	"l2cap_conn_param_update_resp_cp_IDB04A1\000"
 2015      705F636F 
 2015      6E6E5F70 
 2015      6172616D 
 2015      5F757064 
 2016              	.LASF121:
 2017 009c 6D696E5F 		.ascii	"min_ce_length\000"
 2017      63655F6C 
 2017      656E6774 
 2017      6800
 2018              	.LASF91:
 2019 00aa 65786974 		.ascii	"exitcode\000"
ARM GAS  /tmp/ccXaFLhi.s 			page 37


 2019      636F6465 
 2019      00
 2020              	.LASF80:
 2021 00b3 6D61696E 		.ascii	"mainthread\000"
 2021      74687265 
 2021      616400
 2022              	.LASF70:
 2023 00be 76697274 		.ascii	"virtual_timers_list_t\000"
 2023      75616C5F 
 2023      74696D65 
 2023      72735F6C 
 2023      6973745F 
 2024              	.LASF131:
 2025 00d4 49544D5F 		.ascii	"ITM_RxBuffer\000"
 2025      52784275 
 2025      66666572 
 2025      00
 2026              	.LASF53:
 2027 00e1 63685F74 		.ascii	"ch_threads_queue\000"
 2027      68726561 
 2027      64735F71 
 2027      75657565 
 2027      00
 2028              	.LASF10:
 2029 00f2 6C6F6E67 		.ascii	"long long int\000"
 2029      206C6F6E 
 2029      6720696E 
 2029      7400
 2030              	.LASF0:
 2031 0100 7369676E 		.ascii	"signed char\000"
 2031      65642063 
 2031      68617200 
 2032              	.LASF129:
 2033 010c 6163695F 		.ascii	"aci_l2cap_connection_parameter_update_response_IDB0"
 2033      6C326361 
 2033      705F636F 
 2033      6E6E6563 
 2033      74696F6E 
 2034 013f 35413100 		.ascii	"5A1\000"
 2035              	.LASF47:
 2036 0143 705F6D70 		.ascii	"p_mpool\000"
 2036      6F6F6C00 
 2037              	.LASF12:
 2038 014b 6C6F6E67 		.ascii	"long long unsigned int\000"
 2038      206C6F6E 
 2038      6720756E 
 2038      7369676E 
 2038      65642069 
 2039              	.LASF101:
 2040 0162 6D5F7175 		.ascii	"m_queue\000"
 2040      65756500 
 2041              	.LASF122:
 2042 016a 6D61785F 		.ascii	"max_ce_length\000"
 2042      63655F6C 
 2042      656E6774 
 2042      6800
 2043              	.LASF92:
ARM GAS  /tmp/ccXaFLhi.s 			page 38


 2044 0178 77746F62 		.ascii	"wtobjp\000"
 2044      6A7000
 2045              	.LASF23:
 2046 017f 74736C69 		.ascii	"tslices_t\000"
 2046      6365735F 
 2046      7400
 2047              	.LASF77:
 2048 0189 63685F73 		.ascii	"ch_system\000"
 2048      79737465 
 2048      6D00
 2049              	.LASF21:
 2050 0193 74737461 		.ascii	"tstate_t\000"
 2050      74655F74 
 2050      00
 2051              	.LASF112:
 2052 019c 726C656E 		.ascii	"rlen\000"
 2052      00
 2053              	.LASF116:
 2054 01a1 696E7465 		.ascii	"interval_max\000"
 2054      7276616C 
 2054      5F6D6178 
 2054      00
 2055              	.LASF15:
 2056 01ae 75696E74 		.ascii	"uint16_t\000"
 2056      31365F74 
 2056      00
 2057              	.LASF34:
 2058 01b7 705F6E65 		.ascii	"p_newer\000"
 2058      77657200 
 2059              	.LASF98:
 2060 01bf 735F7175 		.ascii	"s_queue\000"
 2060      65756500 
 2061              	.LASF115:
 2062 01c7 696E7465 		.ascii	"interval_min\000"
 2062      7276616C 
 2062      5F6D696E 
 2062      00
 2063              	.LASF59:
 2064 01d4 725F6E65 		.ascii	"r_newer\000"
 2064      77657200 
 2065              	.LASF84:
 2066 01dc 72656761 		.ascii	"regarm_t\000"
 2066      726D5F74 
 2066      00
 2067              	.LASF66:
 2068 01e5 76745F70 		.ascii	"vt_prev\000"
 2068      72657600 
 2069              	.LASF134:
 2070 01ed 2F752F65 		.ascii	"/u/elawton2/p442-submissions/sensortile/reference/b"
 2070      6C617774 
 2070      6F6E322F 
 2070      70343432 
 2070      2D737562 
 2071 0220 6C75656D 		.ascii	"luemicrosystem2/BlueMicrosystem2_V2.2.0/Projects/Mu"
 2071      6963726F 
 2071      73797374 
 2071      656D322F 
ARM GAS  /tmp/ccXaFLhi.s 			page 39


 2071      426C7565 
 2072 0253 6C74692F 		.ascii	"lti/Applications/BlueMicrosystem2/bluechibi\000"
 2072      4170706C 
 2072      69636174 
 2072      696F6E73 
 2072      2F426C75 
 2073              	.LASF104:
 2074 027f 6D757465 		.ascii	"mutex_t\000"
 2074      785F7400 
 2075              	.LASF81:
 2076 0287 69646C65 		.ascii	"idle_thread_wa\000"
 2076      5F746872 
 2076      6561645F 
 2076      776100
 2077              	.LASF27:
 2078 0296 636E745F 		.ascii	"cnt_t\000"
 2078      7400
 2079              	.LASF109:
 2080 029c 63706172 		.ascii	"cparam\000"
 2080      616D00
 2081              	.LASF13:
 2082 02a3 756E7369 		.ascii	"unsigned int\000"
 2082      676E6564 
 2082      20696E74 
 2082      00
 2083              	.LASF130:
 2084 02b0 6163695F 		.ascii	"aci_l2cap_connection_parameter_update_response_IDB0"
 2084      6C326361 
 2084      705F636F 
 2084      6E6E6563 
 2084      74696F6E 
 2085 02e3 34413100 		.ascii	"4A1\000"
 2086              	.LASF94:
 2087 02e7 77747365 		.ascii	"wtsemp\000"
 2087      6D7000
 2088              	.LASF67:
 2089 02ee 76745F64 		.ascii	"vt_delta\000"
 2089      656C7461 
 2089      00
 2090              	.LASF73:
 2091 02f7 73797374 		.ascii	"system_debug_t\000"
 2091      656D5F64 
 2091      65627567 
 2091      5F7400
 2092              	.LASF65:
 2093 0306 76745F6E 		.ascii	"vt_next\000"
 2093      65787400 
 2094              	.LASF107:
 2095 030e 6863695F 		.ascii	"hci_request\000"
 2095      72657175 
 2095      65737400 
 2096              	.LASF99:
 2097 031a 735F636E 		.ascii	"s_cnt\000"
 2097      7400
 2098              	.LASF108:
 2099 0320 6576656E 		.ascii	"event\000"
 2099      7400
ARM GAS  /tmp/ccXaFLhi.s 			page 40


 2100              	.LASF5:
 2101 0326 73686F72 		.ascii	"short unsigned int\000"
 2101      7420756E 
 2101      7369676E 
 2101      65642069 
 2101      6E7400
 2102              	.LASF50:
 2103 0339 63685F74 		.ascii	"ch_thread\000"
 2103      68726561 
 2103      6400
 2104              	.LASF25:
 2105 0343 6D73675F 		.ascii	"msg_t\000"
 2105      7400
 2106              	.LASF133:
 2107 0349 2E2E2F2E 		.ascii	"../../../../../Middlewares/ST/STM32_BlueNRG/SimpleB"
 2107      2E2F2E2E 
 2107      2F2E2E2F 
 2107      2E2E2F4D 
 2107      6964646C 
 2108 037c 6C75654E 		.ascii	"lueNRG_HCI/hci/controller/bluenrg_l2cap_aci.c\000"
 2108      52475F48 
 2108      43492F68 
 2108      63692F63 
 2108      6F6E7472 
 2109              	.LASF76:
 2110 03aa 63685F73 		.ascii	"ch_system_t\000"
 2110      79737465 
 2110      6D5F7400 
 2111              	.LASF20:
 2112 03b6 746D6F64 		.ascii	"tmode_t\000"
 2112      655F7400 
 2113              	.LASF120:
 2114 03be 5F6C3263 		.ascii	"_l2cap_conn_param_update_resp_cp_IDB05A1\000"
 2114      61705F63 
 2114      6F6E6E5F 
 2114      70617261 
 2114      6D5F7570 
 2115              	.LASF55:
 2116 03e7 63685F72 		.ascii	"ch_ready_list\000"
 2116      65616479 
 2116      5F6C6973 
 2116      7400
 2117              	.LASF26:
 2118 03f5 6576656E 		.ascii	"eventmask_t\000"
 2118      746D6173 
 2118      6B5F7400 
 2119              	.LASF123:
 2120 0401 61636365 		.ascii	"accept\000"
 2120      707400
 2121              	.LASF6:
 2122 0408 5F5F696E 		.ascii	"__int32_t\000"
 2122      7433325F 
 2122      7400
 2123              	.LASF85:
 2124 0412 73746B61 		.ascii	"stkalign_t\000"
 2124      6C69676E 
 2124      5F7400
ARM GAS  /tmp/ccXaFLhi.s 			page 41


 2125              	.LASF19:
 2126 041d 7274636E 		.ascii	"rtcnt_t\000"
 2126      745F7400 
 2127              	.LASF48:
 2128 0425 74687265 		.ascii	"thread_reference_t\000"
 2128      61645F72 
 2128      65666572 
 2128      656E6365 
 2128      5F7400
 2129              	.LASF71:
 2130 0438 63685F76 		.ascii	"ch_virtual_timers_list\000"
 2130      69727475 
 2130      616C5F74 
 2130      696D6572 
 2130      735F6C69 
 2131              	.LASF68:
 2132 044f 76745F66 		.ascii	"vt_func\000"
 2132      756E6300 
 2133              	.LASF32:
 2134 0457 705F7072 		.ascii	"p_prio\000"
 2134      696F00
 2135              	.LASF35:
 2136 045e 705F6F6C 		.ascii	"p_older\000"
 2136      64657200 
 2137              	.LASF58:
 2138 0466 725F6374 		.ascii	"r_ctx\000"
 2138      7800
 2139              	.LASF110:
 2140 046c 636C656E 		.ascii	"clen\000"
 2140      00
 2141              	.LASF89:
 2142 0471 746D5F63 		.ascii	"tm_calibration_t\000"
 2142      616C6962 
 2142      72617469 
 2142      6F6E5F74 
 2142      00
 2143              	.LASF128:
 2144 0482 6163695F 		.ascii	"aci_l2cap_connection_parameter_update_request\000"
 2144      6C326361 
 2144      705F636F 
 2144      6E6E6563 
 2144      74696F6E 
 2145              	.LASF61:
 2146 04b0 725F6375 		.ascii	"r_current\000"
 2146      7272656E 
 2146      7400
 2147              	.LASF60:
 2148 04ba 725F6F6C 		.ascii	"r_older\000"
 2148      64657200 
 2149              	.LASF11:
 2150 04c2 5F5F7569 		.ascii	"__uint64_t\000"
 2150      6E743634 
 2150      5F7400
 2151              	.LASF22:
 2152 04cd 74726566 		.ascii	"trefs_t\000"
 2152      735F7400 
 2153              	.LASF63:
ARM GAS  /tmp/ccXaFLhi.s 			page 42


 2154 04d5 76697274 		.ascii	"virtual_timer_t\000"
 2154      75616C5F 
 2154      74696D65 
 2154      725F7400 
 2155              	.LASF31:
 2156 04e5 705F7072 		.ascii	"p_prev\000"
 2156      657600
 2157              	.LASF118:
 2158 04ec 74696D65 		.ascii	"timeout_multiplier\000"
 2158      6F75745F 
 2158      6D756C74 
 2158      69706C69 
 2158      657200
 2159              	.LASF24:
 2160 04ff 74707269 		.ascii	"tprio_t\000"
 2160      6F5F7400 
 2161              	.LASF74:
 2162 0507 63685F73 		.ascii	"ch_system_debug\000"
 2162      79737465 
 2162      6D5F6465 
 2162      62756700 
 2163              	.LASF106:
 2164 0517 5F426F6F 		.ascii	"_Bool\000"
 2164      6C00
 2165              	.LASF16:
 2166 051d 696E7433 		.ascii	"int32_t\000"
 2166      325F7400 
 2167              	.LASF1:
 2168 0525 756E7369 		.ascii	"unsigned char\000"
 2168      676E6564 
 2168      20636861 
 2168      7200
 2169              	.LASF132:
 2170 0533 474E5520 		.ascii	"GNU C 4.8.4 20140526 (release) [ARM/embedded-4_8-br"
 2170      4320342E 
 2170      382E3420 
 2170      32303134 
 2170      30353236 
 2171 0566 616E6368 		.ascii	"anch revision 211358] -mcpu=cortex-m4 -mno-thumb-in"
 2171      20726576 
 2171      6973696F 
 2171      6E203231 
 2171      31333538 
 2172 0599 74657277 		.ascii	"terwork -mthumb -ggdb -O0 -std=c99 -fomit-frame-poi"
 2172      6F726B20 
 2172      2D6D7468 
 2172      756D6220 
 2172      2D676764 
 2173 05cc 6E746572 		.ascii	"nter -falign-functions=16\000"
 2173      202D6661 
 2173      6C69676E 
 2173      2D66756E 
 2173      6374696F 
 2174              	.LASF45:
 2175 05e6 705F6D74 		.ascii	"p_mtxlist\000"
 2175      786C6973 
 2175      7400
ARM GAS  /tmp/ccXaFLhi.s 			page 43


 2176              	.LASF2:
 2177 05f0 73686F72 		.ascii	"short int\000"
 2177      7420696E 
 2177      7400
 2178              	.LASF37:
 2179 05fa 705F7374 		.ascii	"p_state\000"
 2179      61746500 
 2180              	.LASF40:
 2181 0602 705F7072 		.ascii	"p_preempt\000"
 2181      65656D70 
 2181      7400
 2182              	.LASF57:
 2183 060c 725F7072 		.ascii	"r_prio\000"
 2183      696F00
 2184              	.LASF96:
 2185 0613 65776D61 		.ascii	"ewmask\000"
 2185      736B00
 2186              	.LASF30:
 2187 061a 705F6E65 		.ascii	"p_next\000"
 2187      787400
 2188              	.LASF38:
 2189 0621 705F666C 		.ascii	"p_flags\000"
 2189      61677300 
 2190              	.LASF64:
 2191 0629 63685F76 		.ascii	"ch_virtual_timer\000"
 2191      69727475 
 2191      616C5F74 
 2191      696D6572 
 2191      00
 2192              	.LASF97:
 2193 063a 63685F73 		.ascii	"ch_semaphore\000"
 2193      656D6170 
 2193      686F7265 
 2193      00
 2194              	.LASF44:
 2195 0647 705F6570 		.ascii	"p_epending\000"
 2195      656E6469 
 2195      6E6700
 2196              	.LASF17:
 2197 0652 75696E74 		.ascii	"uint32_t\000"
 2197      33325F74 
 2197      00
 2198              	.LASF95:
 2199 065b 77746D74 		.ascii	"wtmtxp\000"
 2199      787000
 2200              	.LASF56:
 2201 0662 725F7175 		.ascii	"r_queue\000"
 2201      65756500 
 2202              	.LASF72:
 2203 066a 76745F73 		.ascii	"vt_systime\000"
 2203      79737469 
 2203      6D6500
 2204              	.LASF51:
 2205 0675 63685F74 		.ascii	"ch_threads_list\000"
 2205      68726561 
 2205      64735F6C 
 2205      69737400 
ARM GAS  /tmp/ccXaFLhi.s 			page 44


 2206              	.LASF9:
 2207 0685 6C6F6E67 		.ascii	"long unsigned int\000"
 2207      20756E73 
 2207      69676E65 
 2207      6420696E 
 2207      7400
 2208              	.LASF83:
 2209 0697 63686172 		.ascii	"char\000"
 2209      00
 2210              	.LASF125:
 2211 069c 5F6C3263 		.ascii	"_l2cap_conn_param_update_resp_cp_IDB04A1\000"
 2211      61705F63 
 2211      6F6E6E5F 
 2211      70617261 
 2211      6D5F7570 
 2212              	.LASF4:
 2213 06c5 5F5F7569 		.ascii	"__uint16_t\000"
 2213      6E743136 
 2213      5F7400
 2214              	.LASF29:
 2215 06d0 74687265 		.ascii	"thread_t\000"
 2215      61645F74 
 2215      00
 2216              	.LASF103:
 2217 06d9 6D5F6E65 		.ascii	"m_next\000"
 2217      787400
 2218              	.LASF28:
 2219 06e0 73797374 		.ascii	"systime_t\000"
 2219      696D655F 
 2219      7400
 2220              	.LASF46:
 2221 06ea 705F7265 		.ascii	"p_realprio\000"
 2221      616C7072 
 2221      696F00
 2222              	.LASF62:
 2223 06f5 76746675 		.ascii	"vtfunc_t\000"
 2223      6E635F74 
 2223      00
 2224              	.LASF8:
 2225 06fe 5F5F7569 		.ascii	"__uint32_t\000"
 2225      6E743332 
 2225      5F7400
 2226              	.LASF75:
 2227 0709 70616E69 		.ascii	"panic_msg\000"
 2227      635F6D73 
 2227      6700
 2228              	.LASF88:
 2229 0713 6F666673 		.ascii	"offset\000"
 2229      657400
 2230              	.LASF86:
 2231 071a 636F6E74 		.ascii	"context\000"
 2231      65787400 
 2232              	.LASF42:
 2233 0722 705F6D73 		.ascii	"p_msgqueue\000"
 2233      67717565 
 2233      756500
 2234              	.LASF69:
ARM GAS  /tmp/ccXaFLhi.s 			page 45


 2235 072d 76745F70 		.ascii	"vt_par\000"
 2235      617200
 2236              	.LASF52:
 2237 0734 74687265 		.ascii	"threads_queue_t\000"
 2237      6164735F 
 2237      71756575 
 2237      655F7400 
 2238              	.LASF39:
 2239 0744 705F7265 		.ascii	"p_refs\000"
 2239      667300
 2240              	.LASF127:
 2241 074b 73746174 		.ascii	"status\000"
 2241      757300
 2242              	.LASF78:
 2243 0752 726C6973 		.ascii	"rlist\000"
 2243      7400
 2244              	.LASF14:
 2245 0758 75696E74 		.ascii	"uint8_t\000"
 2245      385F7400 
 2246              	.LASF124:
 2247 0760 6C326361 		.ascii	"l2cap_conn_param_update_resp_cp_IDB05A1\000"
 2247      705F636F 
 2247      6E6E5F70 
 2247      6172616D 
 2247      5F757064 
 2248              	.LASF82:
 2249 0788 73697A65 		.ascii	"sizetype\000"
 2249      74797065 
 2249      00
 2250              	.LASF113:
 2251 0791 5F6C3263 		.ascii	"_l2cap_conn_param_update_req_cp\000"
 2251      61705F63 
 2251      6F6E6E5F 
 2251      70617261 
 2251      6D5F7570 
 2252              	.LASF100:
 2253 07b1 63685F6D 		.ascii	"ch_mutex\000"
 2253      75746578 
 2253      00
 2254              	.LASF36:
 2255 07ba 705F6E61 		.ascii	"p_name\000"
 2255      6D6500
 2256              	.LASF49:
 2257 07c1 74687265 		.ascii	"threads_list_t\000"
 2257      6164735F 
 2257      6C697374 
 2257      5F7400
 2258              	.LASF117:
 2259 07d0 736C6176 		.ascii	"slave_latency\000"
 2259      655F6C61 
 2259      74656E63 
 2259      7900
 2260              	.LASF43:
 2261 07de 705F6D73 		.ascii	"p_msg\000"
 2261      6700
 2262              	.LASF111:
 2263 07e4 72706172 		.ascii	"rparam\000"
ARM GAS  /tmp/ccXaFLhi.s 			page 46


 2263      616D00
 2264              	.LASF102:
 2265 07eb 6D5F6F77 		.ascii	"m_owner\000"
 2265      6E657200 
 2266              	.LASF105:
 2267 07f3 74426C65 		.ascii	"tBleStatus\000"
 2267      53746174 
 2267      757300
 2268              	.LASF33:
 2269 07fe 705F6374 		.ascii	"p_ctx\000"
 2269      7800
 2270              	.LASF41:
 2271 0804 705F7761 		.ascii	"p_waiting\000"
 2271      6974696E 
 2271      6700
 2272              		.ident	"GCC: (GNU Tools for ARM Embedded Processors) 4.8.4 20140526 (release) [ARM/embedded-4_8-br
ARM GAS  /tmp/ccXaFLhi.s 			page 47


DEFINED SYMBOLS
                            *ABS*:00000000 bluenrg_l2cap_aci.c
     /tmp/ccXaFLhi.s:18     .text:00000000 $t
     /tmp/ccXaFLhi.s:24     .text:00000000 aci_l2cap_connection_parameter_update_request
     /tmp/ccXaFLhi.s:111    .text:00000090 aci_l2cap_connection_parameter_update_response_IDB05A1
     /tmp/ccXaFLhi.s:206    .text:00000140 aci_l2cap_connection_parameter_update_response_IDB04A1
                     .debug_frame:00000010 $d

UNDEFINED SYMBOLS
Osal_MemSet
hci_send_req
