ARM GAS  /tmp/cctBih8p.s 			page 1


   1              		.syntax unified
   2              		.cpu cortex-m4
   3              		.fpu softvfp
   4              		.eabi_attribute 20, 1
   5              		.eabi_attribute 21, 1
   6              		.eabi_attribute 23, 3
   7              		.eabi_attribute 24, 1
   8              		.eabi_attribute 25, 1
   9              		.eabi_attribute 26, 1
  10              		.eabi_attribute 30, 6
  11              		.eabi_attribute 34, 1
  12              		.eabi_attribute 18, 4
  13              		.thumb
  14              		.file	"board.c"
  15              		.text
  16              	.Ltext0:
  17              		.cfi_sections	.debug_frame
  18              		.global	pal_default_config
  19              		.section	.rodata
  20              		.align	2
  21              		.type	pal_default_config, %object
  22              		.size	pal_default_config, 288
  23              	pal_default_config:
  24 0000 73ABFFEB 		.word	-335565965
  25 0004 00000000 		.word	0
  26 0008 C0FCF0C3 		.word	-1007616832
  27 000c 08000028 		.word	671088648
  28 0010 FFFF0000 		.word	65535
  29 0014 00005055 		.word	1431306240
  30 0018 B0000000 		.word	176
  31 001c 00000000 		.word	0
  32 0020 00000000 		.word	0
  33 0024 D4AFFCB9 		.word	-1174622252
  34 0028 00000000 		.word	0
  35 002c 3F3C0FCF 		.word	-821085121
  36 0030 02000A00 		.word	655362
  37 0034 FFFF0000 		.word	65535
  38 0038 00000006 		.word	100663296
  39 003c 00005B50 		.word	1348141056
  40 0040 00000000 		.word	0
  41 0044 00000000 		.word	0
  42 0048 ECF1FF0E 		.word	251654636
  43 004c 00000000 		.word	0
  44 0050 3CCFC30F 		.word	264490812
  45 0054 22080000 		.word	2082
  46 0058 FFFD0000 		.word	65023
  47 005c 00060000 		.word	1536
  48 0060 00000800 		.word	524288
  49 0064 00000000 		.word	0
  50 0068 00000000 		.word	0
  51 006c EFFFFFFF 		.word	-17
  52 0070 00000000 		.word	0
  53 0074 FFFFFFFF 		.word	-1
  54 0078 00000000 		.word	0
  55 007c FEFF0000 		.word	65534
  56 0080 00080000 		.word	2048
  57 0084 00000000 		.word	0
ARM GAS  /tmp/cctBih8p.s 			page 2


  58 0088 00000000 		.word	0
  59 008c 00000000 		.word	0
  60 0090 FFFFFFFF 		.word	-1
  61 0094 00000000 		.word	0
  62 0098 FFFFFFFF 		.word	-1
  63 009c 09005055 		.word	1431306249
  64 00a0 FFFE0000 		.word	65279
  65 00a4 000DDD6D 		.word	1843203328
  66 00a8 60AAAAAA 		.word	-1431655840
  67 00ac 00000000 		.word	0
  68 00b0 00000000 		.word	0
  69 00b4 FFFFFFFF 		.word	-1
  70 00b8 00000000 		.word	0
  71 00bc FFFFFFFF 		.word	-1
  72 00c0 00000000 		.word	0
  73 00c4 FFFF0000 		.word	65535
  74 00c8 00000000 		.word	0
  75 00cc 00000000 		.word	0
  76 00d0 00000000 		.word	0
  77 00d4 00000000 		.word	0
  78 00d8 FFFFABFD 		.word	-39059457
  79 00dc 00000000 		.word	0
  80 00e0 0000FC03 		.word	66846720
  81 00e4 00000000 		.word	0
  82 00e8 FFFF0000 		.word	65535
  83 00ec 00000000 		.word	0
  84 00f0 60660000 		.word	26208
  85 00f4 00000000 		.word	0
  86 00f8 00000000 		.word	0
  87 00fc FDFFFFFF 		.word	-3
  88 0100 00000000 		.word	0
  89 0104 03000000 		.word	3
  90 0108 00000000 		.word	0
  91 010c FFFF0000 		.word	65535
  92 0110 00000000 		.word	0
  93 0114 00000000 		.word	0
  94 0118 00000000 		.word	0
  95 011c 00000000 		.word	0
  96              		.text
  97              		.align	2
  98              		.p2align 4,,15
  99              		.global	__early_init
 100              		.thumb
 101              		.thumb_func
 102              		.type	__early_init, %function
 103              	__early_init:
 104              	.LFB269:
 105              		.file 1 "../../../../../../ChibiOS/os/hal/boards/ST_SENSORTILE/board.c"
 106              		.loc 1 80 0
 107              		.cfi_startproc
 108              		@ args = 0, pretend = 0, frame = 0
 109              		@ frame_needed = 0, uses_anonymous_args = 0
 110 0000 08B5     		push	{r3, lr}
 111              		.cfi_def_cfa_offset 8
 112              		.cfi_offset 3, -8
 113              		.cfi_offset 14, -4
 114              		.loc 1 82 0
ARM GAS  /tmp/cctBih8p.s 			page 3


 115 0002 FFF7FEFF 		bl	stm32_clock_init
 116              		.loc 1 83 0
 117 0006 08BD     		pop	{r3, pc}
 118              		.cfi_endproc
 119              	.LFE269:
 120              		.size	__early_init, .-__early_init
 121              		.align	2
 122 0008 AFF30080 		.p2align 4,,15
 122      AFF30080 
 123              		.global	mmc_lld_is_card_inserted
 124              		.thumb
 125              		.thumb_func
 126              		.type	mmc_lld_is_card_inserted, %function
 127              	mmc_lld_is_card_inserted:
 128              	.LFB270:
 129              		.loc 1 111 0
 130              		.cfi_startproc
 131              		@ args = 0, pretend = 0, frame = 8
 132              		@ frame_needed = 0, uses_anonymous_args = 0
 133              		@ link register save eliminated.
 134 0010 82B0     		sub	sp, sp, #8
 135              		.cfi_def_cfa_offset 8
 136 0012 0190     		str	r0, [sp, #4]
 137              		.loc 1 115 0
 138 0014 0123     		movs	r3, #1
 139              		.loc 1 116 0
 140 0016 1846     		mov	r0, r3
 141 0018 02B0     		add	sp, sp, #8
 142              		@ sp needed
 143 001a 7047     		bx	lr
 144              		.cfi_endproc
 145              	.LFE270:
 146              		.size	mmc_lld_is_card_inserted, .-mmc_lld_is_card_inserted
 147              		.align	2
 148 001c AFF30080 		.p2align 4,,15
 149              		.global	mmc_lld_is_write_protected
 150              		.thumb
 151              		.thumb_func
 152              		.type	mmc_lld_is_write_protected, %function
 153              	mmc_lld_is_write_protected:
 154              	.LFB271:
 155              		.loc 1 121 0
 156              		.cfi_startproc
 157              		@ args = 0, pretend = 0, frame = 8
 158              		@ frame_needed = 0, uses_anonymous_args = 0
 159              		@ link register save eliminated.
 160 0020 82B0     		sub	sp, sp, #8
 161              		.cfi_def_cfa_offset 8
 162 0022 0190     		str	r0, [sp, #4]
 163              		.loc 1 125 0
 164 0024 0023     		movs	r3, #0
 165              		.loc 1 126 0
 166 0026 1846     		mov	r0, r3
 167 0028 02B0     		add	sp, sp, #8
 168              		@ sp needed
 169 002a 7047     		bx	lr
 170              		.cfi_endproc
ARM GAS  /tmp/cctBih8p.s 			page 4


 171              	.LFE271:
 172              		.size	mmc_lld_is_write_protected, .-mmc_lld_is_write_protected
 173              		.align	2
 174 002c AFF30080 		.p2align 4,,15
 175              		.global	boardInit
 176              		.thumb
 177              		.thumb_func
 178              		.type	boardInit, %function
 179              	boardInit:
 180              	.LFB272:
 181              		.loc 1 133 0
 182              		.cfi_startproc
 183              		@ args = 0, pretend = 0, frame = 0
 184              		@ frame_needed = 0, uses_anonymous_args = 0
 185              		@ link register save eliminated.
 186              		.loc 1 134 0
 187 0030 7047     		bx	lr
 188              		.cfi_endproc
 189              	.LFE272:
 190              		.size	boardInit, .-boardInit
 191              	.Letext0:
 192              		.file 2 "/nfs/nfs5/home/research/hardware/arm2/gcc-arm-embedded/gcc-arm-none-eabi-4_8-2014q2/lib/g
 193              		.file 3 "/nfs/nfs5/home/research/hardware/arm2/gcc-arm-embedded/gcc-arm-none-eabi-4_8-2014q2/arm-n
 194              		.file 4 "/nfs/nfs5/home/research/hardware/arm2/gcc-arm-embedded/gcc-arm-none-eabi-4_8-2014q2/arm-n
 195              		.file 5 "../../../../../../ChibiOS/os/rt/ports/ARMCMx/compilers/GCC/chtypes.h"
 196              		.file 6 "../../../../../../ChibiOS/os/rt/include/chsystypes.h"
 197              		.file 7 "../../../../../../ChibiOS/os/rt/include/chschd.h"
 198              		.file 8 "../../../../../../ChibiOS/os/ext/CMSIS/ST/STM32L4xx/stm32l476xx.h"
 199              		.file 9 "../../../../../../ChibiOS/os/rt/ports/ARMCMx/chcore.h"
 200              		.file 10 "../../../../../../ChibiOS/os/rt/ports/ARMCMx/chcore_v7m.h"
 201              		.file 11 "../../../../../../ChibiOS/os/rt/include/chtm.h"
 202              		.file 12 "../../../../../../ChibiOS/os/rt/include/chsem.h"
 203              		.file 13 "../../../../../../ChibiOS/os/rt/include/chmtx.h"
 204              		.file 14 "../../../../../../ChibiOS/os/hal/ports/STM32/LLD/DMAv1/stm32_dma.h"
 205              		.file 15 "../../../../../../ChibiOS/os/hal/include/hal_ioblock.h"
 206              		.file 16 "../../../../../../ChibiOS/os/hal/ports/STM32/LLD/GPIOv3/pal_lld.h"
 207              		.file 17 "../../../../../../ChibiOS/os/hal/include/spi.h"
 208              		.file 18 "../../../../../../ChibiOS/os/hal/ports/STM32/LLD/SPIv2/spi_lld.h"
 209              		.file 19 "../../../../../../ChibiOS/os/hal/include/mmc_spi.h"
 210              		.file 20 "../../../../../../ChibiOS/os/ext/CMSIS/include/core_cm4.h"