ARM GAS  /tmp/ccQpHQw3.s 			page 1


   1              		.syntax unified
   2              		.cpu cortex-m4
   3              		.fpu softvfp
   4              		.eabi_attribute 20, 1
   5              		.eabi_attribute 21, 1
   6              		.eabi_attribute 23, 3
   7              		.eabi_attribute 24, 1
   8              		.eabi_attribute 25, 1
   9              		.eabi_attribute 26, 1
  10              		.eabi_attribute 30, 6
  11              		.eabi_attribute 34, 1
  12              		.eabi_attribute 18, 4
  13              		.thumb
  14              		.file	"btle.c"
  15              		.text
  16              	.Ltext0:
  17              		.cfi_sections	.debug_frame
  18              		.comm	sensitivity,4,4
  19              		.comm	sensitivity_Mul,4,4
  20              		.comm	magOffset,24,4
  21              		.global	ConnectionBleStatus
  22              		.bss
  23              		.align	2
  24              		.type	ConnectionBleStatus, %object
  25              		.size	ConnectionBleStatus, 4
  26              	ConnectionBleStatus:
  27 0000 00000000 		.space	4
  28              		.global	ForceReCalibration
  29              		.align	2
  30              		.type	ForceReCalibration, %object
  31              		.size	ForceReCalibration, 4
  32              	ForceReCalibration:
  33 0004 00000000 		.space	4
  34              		.global	FirstConnectionConfig
  35              		.align	2
  36              		.type	FirstConnectionConfig, %object
  37              		.size	FirstConnectionConfig, 4
  38              	FirstConnectionConfig:
  39 0008 00000000 		.space	4
  40              		.comm	BufferToWrite,256,4
  41              		.comm	BytesToWrite,4,4
  42              		.comm	TimCCHandle,60,4
  43              		.comm	TimEnvHandle,60,4
  44              		.comm	TimAudioDataHandle,60,4
  45              		.comm	bdaddr,6,4
  46              		.global	uhCCR4_Val
  47              		.data
  48              		.align	2
  49              		.type	uhCCR4_Val, %object
  50              		.size	uhCCR4_Val, 4
  51              	uhCCR4_Val:
  52 0000 F4010000 		.word	500
  53              		.global	known_OsxLic
  54              		.align	2
  55              		.type	known_OsxLic, %object
  56              		.size	known_OsxLic, 270
  57              	known_OsxLic:
ARM GAS  /tmp/ccQpHQw3.s 			page 2


  58 0004 01       		.byte	1
  59 0005 4D6F7469 		.ascii	"Motion\000"
  59      6F6E00
  60 000c 00       		.space	1
  61 000d 6F73784D 		.ascii	"osxMotionFX x9/x6 v1.0.7\000"
  61      6F74696F 
  61      6E465820 
  61      78392F78 
  61      36207631 
  62 0026 00000000 		.space	11
  62      00000000 
  62      000000
  63 0031 02       		.byte	2
  64 0032 4D6F7469 		.ascii	"Motion\000"
  64      6F6E00
  65 0039 00       		.space	1
  66 003a 6F73784D 		.ascii	"osxMotionAR v1.2.0\000"
  66      6F74696F 
  66      6E415220 
  66      76312E32 
  66      2E3000
  67 004d 00000000 		.space	17
  67      00000000 
  67      00000000 
  67      00000000 
  67      00
  68 005e 03       		.byte	3
  69 005f 4D6F7469 		.ascii	"Motion\000"
  69      6F6E00
  70 0066 00       		.space	1
  71 0067 6F73784D 		.ascii	"osxMotionCP v1.0.0\000"
  71      6F74696F 
  71      6E435020 
  71      76312E30 
  71      2E3000
  72 007a 00000000 		.space	17
  72      00000000 
  72      00000000 
  72      00000000 
  72      00
  73 008b 04       		.byte	4
  74 008c 4D6F7469 		.ascii	"Motion\000"
  74      6F6E00
  75 0093 00       		.space	1
  76 0094 6F73784D 		.ascii	"osxMotionGR v1.0.0\000"
  76      6F74696F 
  76      6E475220 
  76      76312E30 
  76      2E3000
  77 00a7 00000000 		.space	17
  77      00000000 
  77      00000000 
  77      00000000 
  77      00
  78 00b8 08       		.byte	8
  79 00b9 41756469 		.ascii	"Audio\000"
  79      6F00
ARM GAS  /tmp/ccQpHQw3.s 			page 3


  80 00bf 0000     		.space	2
  81 00c1 6F737842 		.ascii	"osxBlueVoice v2.0.0\000"
  81      6C756556 
  81      6F696365 
  81      2076322E 
  81      302E3000 
  82 00d5 00000000 		.space	16
  82      00000000 
  82      00000000 
  82      00000000 
  83 00e5 00       		.byte	0
  84 00e6 4C415354 		.ascii	"LAST\000"
  84      00
  85 00eb 000000   		.space	3
  86 00ee 00       		.ascii	"\000"
  87 00ef 00000000 		.space	35
  87      00000000 
  87      00000000 
  87      00000000 
  87      00000000 
  88 0112 0000     		.bss
  89              		.align	2
  90              	ButtonPressed:
  91 000c 00000000 		.space	4
  92              		.align	2
  93              	MEMSInterrupt:
  94 0010 00000000 		.space	4
  95              		.align	2
  96              	HCI_ProcessEvent:
  97 0014 00000000 		.space	4
  98              		.align	2
  99              	SendEnv:
 100 0018 00000000 		.space	4
 101              		.align	2
 102              	SendAudioLevel:
 103 001c 00000000 		.space	4
 104              		.align	2
 105              	SendAccGyroMag:
 106 0020 00000000 		.space	4
 107              		.align	2
 108              	Quaternion:
 109 0024 00000000 		.space	4
 110              		.align	2
 111              	UpdateMotionAR:
 112 0028 00000000 		.space	4
 113              		.align	2
 114              	UpdateMotionCP:
 115 002c 00000000 		.space	4
 116              		.align	2
 117              	UpdateMotionGR:
 118 0030 00000000 		.space	4
 119              		.align	1
 120              	num_byte_sent:
 121 0034 0000     		.space	2
 122              	isCal:
 123 0036 00       		.space	1
 124              		.global	t_coin
ARM GAS  /tmp/ccQpHQw3.s 			page 4


 125 0037 00       		.align	2
 126              		.type	t_coin, %object
 127              		.size	t_coin, 4
 128              	t_coin:
 129 0038 00000000 		.space	4
 130              		.global	__aeabi_fmul
 131              		.text
 132              		.align	2
 133              		.p2align 4,,15
 134              		.global	btle_main
 135              		.thumb
 136              		.thumb_func
 137              		.type	btle_main, %function
 138              	btle_main:
 139              	.LFB269:
 140              		.file 1 "btle.c"
 141              		.loc 1 384 0
 142              		.cfi_startproc
 143              		@ args = 0, pretend = 0, frame = 24
 144              		@ frame_needed = 0, uses_anonymous_args = 0
 145 0000 00B5     		push	{lr}
 146              		.cfi_def_cfa_offset 4
 147              		.cfi_offset 14, -4
 148 0002 87B0     		sub	sp, sp, #28
 149              		.cfi_def_cfa_offset 32
 150              		.loc 1 393 0
 151 0004 0220     		movs	r0, #2
 152 0006 FFF7FEFF 		bl	InitTargetPlatform
 153              		.loc 1 397 0
 154 000a 6148     		ldr	r0, .L37
 155 000c 0021     		movs	r1, #0
 156 000e 0022     		movs	r2, #0
 157 0010 FFF7FEFF 		bl	InitMetaDataManager
 158              	.LBB11:
 159              		.loc 1 400 0
 160 0014 0023     		movs	r3, #0
 161 0016 0593     		str	r3, [sp, #20]
 162              		.loc 1 401 0
 163 0018 6DE0     		b	.L2
 164              	.L11:
 165              	.LBB12:
 166              		.loc 1 402 0
 167 001a 5D49     		ldr	r1, .L37
 168 001c 059A     		ldr	r2, [sp, #20]
 169 001e 1346     		mov	r3, r2
 170 0020 5B00     		lsls	r3, r3, #1
 171 0022 1344     		add	r3, r3, r2
 172 0024 1A01     		lsls	r2, r3, #4
 173 0026 D21A     		subs	r2, r2, r3
 174 0028 8B18     		adds	r3, r1, r2
 175 002a 1B78     		ldrb	r3, [r3]	@ zero_extendqisi2
 176 002c 594A     		ldr	r2, .L37+4
 177 002e 5B01     		lsls	r3, r3, #5
 178 0030 1344     		add	r3, r3, r2
 179 0032 1833     		adds	r3, r3, #24
 180 0034 5B68     		ldr	r3, [r3, #4]
 181 0036 0493     		str	r3, [sp, #16]
ARM GAS  /tmp/ccQpHQw3.s 			page 5


 182              		.loc 1 403 0
 183 0038 049B     		ldr	r3, [sp, #16]
 184 003a 5B68     		ldr	r3, [r3, #4]
 185 003c 002B     		cmp	r3, #0
 186 003e 57D0     		beq	.L3
 187              		.loc 1 404 0
 188 0040 5349     		ldr	r1, .L37
 189 0042 059A     		ldr	r2, [sp, #20]
 190 0044 1346     		mov	r3, r2
 191 0046 5B00     		lsls	r3, r3, #1
 192 0048 1344     		add	r3, r3, r2
 193 004a 1A01     		lsls	r2, r3, #4
 194 004c D21A     		subs	r2, r2, r3
 195 004e 8B18     		adds	r3, r1, r2
 196 0050 1B78     		ldrb	r3, [r3]	@ zero_extendqisi2
 197 0052 013B     		subs	r3, r3, #1
 198 0054 072B     		cmp	r3, #7
 199 0056 4AD8     		bhi	.L36
 200 0058 01A2     		adr	r2, .L6
 201 005a 52F823F0 		ldr	pc, [r2, r3, lsl #2]
 202 005e 00BF     		.p2align 2
 203              	.L6:
 204 0060 81000000 		.word	.L5+1
 205 0064 97000000 		.word	.L7+1
 206 0068 AD000000 		.word	.L8+1
 207 006c C3000000 		.word	.L9+1
 208 0070 EF000000 		.word	.L36+1
 209 0074 EF000000 		.word	.L36+1
 210 0078 EF000000 		.word	.L36+1
 211 007c D9000000 		.word	.L10+1
 212              		.p2align 1
 213              	.L5:
 214              		.loc 1 408 0
 215 0080 049B     		ldr	r3, [sp, #16]
 216 0082 2C33     		adds	r3, r3, #44
 217 0084 4448     		ldr	r0, .L37+8
 218 0086 1946     		mov	r1, r3
 219 0088 3022     		movs	r2, #48
 220 008a FFF7FEFF 		bl	memcpy
 221              		.loc 1 409 0
 222 008e 0498     		ldr	r0, [sp, #16]
 223 0090 FFF7FEFF 		bl	MotionFX_License_init
 224              		.loc 1 410 0
 225 0094 2CE0     		b	.L3
 226              	.L7:
 227              		.loc 1 415 0
 228 0096 049B     		ldr	r3, [sp, #16]
 229 0098 2C33     		adds	r3, r3, #44
 230 009a 4048     		ldr	r0, .L37+12
 231 009c 1946     		mov	r1, r3
 232 009e 3022     		movs	r2, #48
 233 00a0 FFF7FEFF 		bl	memcpy
 234              		.loc 1 416 0
 235 00a4 0498     		ldr	r0, [sp, #16]
 236 00a6 FFF7FEFF 		bl	MotionAR_License_init
 237              		.loc 1 417 0
 238 00aa 21E0     		b	.L3
ARM GAS  /tmp/ccQpHQw3.s 			page 6


 239              	.L8:
 240              		.loc 1 422 0
 241 00ac 049B     		ldr	r3, [sp, #16]
 242 00ae 2C33     		adds	r3, r3, #44
 243 00b0 3B48     		ldr	r0, .L37+16
 244 00b2 1946     		mov	r1, r3
 245 00b4 3022     		movs	r2, #48
 246 00b6 FFF7FEFF 		bl	memcpy
 247              		.loc 1 423 0
 248 00ba 0498     		ldr	r0, [sp, #16]
 249 00bc FFF7FEFF 		bl	MotionCP_License_init
 250              		.loc 1 424 0
 251 00c0 16E0     		b	.L3
 252              	.L9:
 253              		.loc 1 429 0
 254 00c2 049B     		ldr	r3, [sp, #16]
 255 00c4 2C33     		adds	r3, r3, #44
 256 00c6 3748     		ldr	r0, .L37+20
 257 00c8 1946     		mov	r1, r3
 258 00ca 3022     		movs	r2, #48
 259 00cc FFF7FEFF 		bl	memcpy
 260              		.loc 1 430 0
 261 00d0 0498     		ldr	r0, [sp, #16]
 262 00d2 FFF7FEFF 		bl	MotionGR_License_init
 263              		.loc 1 431 0
 264 00d6 0BE0     		b	.L3
 265              	.L10:
 266              		.loc 1 443 0
 267 00d8 049B     		ldr	r3, [sp, #16]
 268 00da 2C33     		adds	r3, r3, #44
 269 00dc 3248     		ldr	r0, .L37+24
 270 00de 1946     		mov	r1, r3
 271 00e0 3022     		movs	r2, #48
 272 00e2 FFF7FEFF 		bl	memcpy
 273              		.loc 1 444 0
 274 00e6 0498     		ldr	r0, [sp, #16]
 275 00e8 FFF7FEFF 		bl	AudioBV_License_init
 276              		.loc 1 445 0
 277 00ec 00E0     		b	.L3
 278              	.L36:
 279              		.loc 1 451 0
 280 00ee 00BF     		nop
 281              	.L3:
 282              		.loc 1 497 0
 283 00f0 059B     		ldr	r3, [sp, #20]
 284 00f2 0133     		adds	r3, r3, #1
 285 00f4 0593     		str	r3, [sp, #20]
 286              	.L2:
 287              	.LBE12:
 288              		.loc 1 401 0 discriminator 1
 289 00f6 2649     		ldr	r1, .L37
 290 00f8 059A     		ldr	r2, [sp, #20]
 291 00fa 1346     		mov	r3, r2
 292 00fc 5B00     		lsls	r3, r3, #1
 293 00fe 1344     		add	r3, r3, r2
 294 0100 1A01     		lsls	r2, r3, #4
 295 0102 D21A     		subs	r2, r2, r3
ARM GAS  /tmp/ccQpHQw3.s 			page 7


 296 0104 8B18     		adds	r3, r1, r2
 297 0106 1B78     		ldrb	r3, [r3]	@ zero_extendqisi2
 298 0108 002B     		cmp	r3, #0
 299 010a 86D1     		bne	.L11
 300              	.LBE11:
 301              		.loc 1 534 0
 302 010c 01F0C0FA 		bl	Init_BlueNRG_Stack
 303              		.loc 1 537 0
 304 0110 01F06EFB 		bl	Init_BlueNRG_Custom_Services
 305              		.loc 1 539 0
 306 0114 254B     		ldr	r3, .L37+28
 307 0116 9B69     		ldr	r3, [r3, #24]
 308 0118 002B     		cmp	r3, #0
 309 011a 01D0     		beq	.L12
 310              		.loc 1 540 0
 311 011c FFF7FEFF 		bl	InitHWFeatures
 312              	.L12:
 313              		.loc 1 544 0
 314 0120 FFF7FEFF 		bl	Set2GAccelerometerFullScale
 315              		.loc 1 547 0
 316 0124 214B     		ldr	r3, .L37+28
 317 0126 DB69     		ldr	r3, [r3, #28]
 318 0128 1846     		mov	r0, r3
 319 012a 2149     		ldr	r1, .L37+32
 320 012c FFF7FEFF 		bl	BSP_ACCELERO_Get_Sensitivity
 321              		.loc 1 548 0
 322 0130 1F4B     		ldr	r3, .L37+32
 323 0132 1B68     		ldr	r3, [r3]	@ float
 324 0134 1846     		mov	r0, r3
 325 0136 1F49     		ldr	r1, .L37+36
 326 0138 FFF7FEFF 		bl	__aeabi_fmul
 327 013c 0346     		mov	r3, r0
 328 013e 1A46     		mov	r2, r3
 329 0140 1D4B     		ldr	r3, .L37+40
 330 0142 1A60     		str	r2, [r3]	@ float
 331              		.loc 1 551 0
 332 0144 01F0FCF9 		bl	InitTimers
 333              		.loc 1 554 0
 334 0148 124B     		ldr	r3, .L37+4
 335 014a DB6B     		ldr	r3, [r3, #60]
 336 014c 002B     		cmp	r3, #0
 337 014e 0BD0     		beq	.L13
 338              	.LBB13:
 339              		.loc 1 555 0
 340 0150 104B     		ldr	r3, .L37+4
 341 0152 DB6B     		ldr	r3, [r3, #60]
 342 0154 0393     		str	r3, [sp, #12]
 343              		.loc 1 556 0
 344 0156 039B     		ldr	r3, [sp, #12]
 345 0158 5B68     		ldr	r3, [r3, #4]
 346 015a 002B     		cmp	r3, #0
 347 015c 04D0     		beq	.L13
 348              		.loc 1 557 0
 349 015e 039B     		ldr	r3, [sp, #12]
 350 0160 5C33     		adds	r3, r3, #92
 351 0162 1846     		mov	r0, r3
 352 0164 01F0DCFC 		bl	ReCallCalibrationFromMemory
ARM GAS  /tmp/ccQpHQw3.s 			page 8


 353              	.L13:
 354              	.LBE13:
 355              		.loc 1 564 0
 356 0168 144B     		ldr	r3, .L37+44
 357 016a 1B68     		ldr	r3, [r3]
 358 016c 002B     		cmp	r3, #0
 359 016e 30D1     		bne	.L14
 360              		.loc 1 565 0
 361 0170 0E4B     		ldr	r3, .L37+28
 362 0172 93F82C30 		ldrb	r3, [r3, #44]	@ zero_extendqisi2
 363 0176 002B     		cmp	r3, #0
 364 0178 22D1     		bne	.L15
 365              		.loc 1 566 0
 366 017a FFF7FEFF 		bl	HAL_GetTick
 367 017e 0346     		mov	r3, r0
 368 0180 C3F30903 		ubfx	r3, r3, #0, #10
 369 0184 002B     		cmp	r3, #0
 370 0186 24D1     		bne	.L14
 371              		.loc 1 567 0
 372 0188 FFF7FEFF 		bl	LedOnTargetPlatform
 373 018c 21E0     		b	.L14
 374              	.L38:
 375 018e 00BF     		.align	2
 376              	.L37:
 377 0190 00000000 		.word	known_OsxLic
 378 0194 00000000 		.word	MDM_LicTable
 379 0198 00000000 		.word	osx_mfx_license
 380 019c 00000000 		.word	osx_mar_license
 381 01a0 00000000 		.word	osx_mcp_license
 382 01a4 00000000 		.word	osx_mgr_license
 383 01a8 00000000 		.word	osx_bv_license
 384 01ac 00000000 		.word	TargetBoardFeatures
 385 01b0 00000000 		.word	sensitivity
 386 01b4 6F12833A 		.word	981668463
 387 01b8 00000000 		.word	sensitivity_Mul
 388 01bc 00000000 		.word	connected
 389              	.L15:
 390              		.loc 1 570 0
 391 01c0 FFF7FEFF 		bl	HAL_GetTick
 392 01c4 0346     		mov	r3, r0
 393 01c6 03F03F03 		and	r3, r3, #63
 394 01ca 002B     		cmp	r3, #0
 395 01cc 01D1     		bne	.L14
 396              		.loc 1 571 0
 397 01ce FFF7FEFF 		bl	LedOffTargetPlatform
 398              	.L14:
 399              		.loc 1 576 0
 400 01d2 754B     		ldr	r3, .L39
 401 01d4 1B78     		ldrb	r3, [r3]	@ zero_extendqisi2
 402 01d6 002B     		cmp	r3, #0
 403 01d8 78D0     		beq	.L17
 404              	.LBB14:
 405              		.loc 1 582 0
 406 01da 744B     		ldr	r3, .L39+4
 407 01dc DB6B     		ldr	r3, [r3, #60]
 408 01de 0293     		str	r3, [sp, #8]
 409              		.loc 1 583 0
ARM GAS  /tmp/ccQpHQw3.s 			page 9


 410 01e0 029B     		ldr	r3, [sp, #8]
 411 01e2 002B     		cmp	r3, #0
 412 01e4 0FD0     		beq	.L18
 413              		.loc 1 584 0
 414 01e6 029B     		ldr	r3, [sp, #8]
 415 01e8 5A68     		ldr	r2, [r3, #4]
 416 01ea 714B     		ldr	r3, .L39+8
 417 01ec 5B6B     		ldr	r3, [r3, #52]
 418 01ee 002B     		cmp	r3, #0
 419 01f0 14BF     		ite	ne
 420 01f2 0023     		movne	r3, #0
 421 01f4 0123     		moveq	r3, #1
 422 01f6 DBB2     		uxtb	r3, r3
 423 01f8 1340     		ands	r3, r3, r2
 424 01fa 002B     		cmp	r3, #0
 425 01fc 03D0     		beq	.L18
 426              		.loc 1 585 0
 427 01fe FFF7FEFF 		bl	MotionFX_manager_init
 428              		.loc 1 586 0
 429 0202 FFF7FEFF 		bl	MotionFX_manager_start_9X
 430              	.L18:
 431              		.loc 1 593 0
 432 0206 694B     		ldr	r3, .L39+4
 433 0208 DB6D     		ldr	r3, [r3, #92]
 434 020a 0293     		str	r3, [sp, #8]
 435              		.loc 1 594 0
 436 020c 029B     		ldr	r3, [sp, #8]
 437 020e 002B     		cmp	r3, #0
 438 0210 0DD0     		beq	.L19
 439              		.loc 1 595 0
 440 0212 029B     		ldr	r3, [sp, #8]
 441 0214 5A68     		ldr	r2, [r3, #4]
 442 0216 664B     		ldr	r3, .L39+8
 443 0218 9B6B     		ldr	r3, [r3, #56]
 444 021a 002B     		cmp	r3, #0
 445 021c 14BF     		ite	ne
 446 021e 0023     		movne	r3, #0
 447 0220 0123     		moveq	r3, #1
 448 0222 DBB2     		uxtb	r3, r3
 449 0224 1340     		ands	r3, r3, r2
 450 0226 002B     		cmp	r3, #0
 451 0228 01D0     		beq	.L19
 452              		.loc 1 596 0
 453 022a FFF7FEFF 		bl	MotionAR_manager_init
 454              	.L19:
 455              		.loc 1 603 0
 456 022e 5F4B     		ldr	r3, .L39+4
 457 0230 DB6F     		ldr	r3, [r3, #124]
 458 0232 0293     		str	r3, [sp, #8]
 459              		.loc 1 604 0
 460 0234 029B     		ldr	r3, [sp, #8]
 461 0236 002B     		cmp	r3, #0
 462 0238 0DD0     		beq	.L20
 463              		.loc 1 605 0
 464 023a 029B     		ldr	r3, [sp, #8]
 465 023c 5A68     		ldr	r2, [r3, #4]
 466 023e 5C4B     		ldr	r3, .L39+8
ARM GAS  /tmp/ccQpHQw3.s 			page 10


 467 0240 DB6B     		ldr	r3, [r3, #60]
 468 0242 002B     		cmp	r3, #0
 469 0244 14BF     		ite	ne
 470 0246 0023     		movne	r3, #0
 471 0248 0123     		moveq	r3, #1
 472 024a DBB2     		uxtb	r3, r3
 473 024c 1340     		ands	r3, r3, r2
 474 024e 002B     		cmp	r3, #0
 475 0250 01D0     		beq	.L20
 476              		.loc 1 606 0
 477 0252 FFF7FEFF 		bl	MotionCP_manager_init
 478              	.L20:
 479              		.loc 1 613 0
 480 0256 554B     		ldr	r3, .L39+4
 481 0258 D3F89C30 		ldr	r3, [r3, #156]
 482 025c 0293     		str	r3, [sp, #8]
 483              		.loc 1 614 0
 484 025e 029B     		ldr	r3, [sp, #8]
 485 0260 002B     		cmp	r3, #0
 486 0262 0DD0     		beq	.L21
 487              		.loc 1 615 0
 488 0264 029B     		ldr	r3, [sp, #8]
 489 0266 5A68     		ldr	r2, [r3, #4]
 490 0268 514B     		ldr	r3, .L39+8
 491 026a 1B6C     		ldr	r3, [r3, #64]
 492 026c 002B     		cmp	r3, #0
 493 026e 14BF     		ite	ne
 494 0270 0023     		movne	r3, #0
 495 0272 0123     		moveq	r3, #1
 496 0274 DBB2     		uxtb	r3, r3
 497 0276 1340     		ands	r3, r3, r2
 498 0278 002B     		cmp	r3, #0
 499 027a 01D0     		beq	.L21
 500              		.loc 1 616 0
 501 027c FFF7FEFF 		bl	MotionGR_manager_init
 502              	.L21:
 503              		.loc 1 633 0
 504 0280 4A4B     		ldr	r3, .L39+4
 505 0282 D3F81C31 		ldr	r3, [r3, #284]
 506 0286 0293     		str	r3, [sp, #8]
 507              		.loc 1 634 0
 508 0288 029B     		ldr	r3, [sp, #8]
 509 028a 002B     		cmp	r3, #0
 510 028c 0DD0     		beq	.L22
 511              		.loc 1 635 0
 512 028e 029B     		ldr	r3, [sp, #8]
 513 0290 5A68     		ldr	r2, [r3, #4]
 514 0292 474B     		ldr	r3, .L39+8
 515 0294 5B6C     		ldr	r3, [r3, #68]
 516 0296 002B     		cmp	r3, #0
 517 0298 14BF     		ite	ne
 518 029a 0023     		movne	r3, #0
 519 029c 0123     		moveq	r3, #1
 520 029e DBB2     		uxtb	r3, r3
 521 02a0 1340     		ands	r3, r3, r2
 522 02a2 002B     		cmp	r3, #0
 523 02a4 01D0     		beq	.L22
ARM GAS  /tmp/ccQpHQw3.s 			page 11


 524              		.loc 1 636 0
 525 02a6 FFF7FEFF 		bl	AudioBV_Manager_init
 526              	.L22:
 527              		.loc 1 641 0
 528 02aa 424B     		ldr	r3, .L39+12
 529 02ac 1B68     		ldr	r3, [r3]
 530 02ae 002B     		cmp	r3, #0
 531 02b0 07D0     		beq	.L23
 532              	.LBB15:
 533              		.loc 1 642 0
 534 02b2 FFF7FEFF 		bl	EraseMetaDataManager
 535 02b6 0190     		str	r0, [sp, #4]
 536              		.loc 1 643 0
 537 02b8 019B     		ldr	r3, [sp, #4]
 538 02ba 002B     		cmp	r3, #0
 539 02bc 01D0     		beq	.L23
 540              		.loc 1 644 0
 541 02be FFF7FEFF 		bl	SaveMetaDataManager
 542              	.L23:
 543              	.LBE15:
 544              		.loc 1 649 0
 545 02c2 FFF7FEFF 		bl	setConnectable
 546              		.loc 1 650 0
 547 02c6 384B     		ldr	r3, .L39
 548 02c8 0022     		movs	r2, #0
 549 02ca 1A70     		strb	r2, [r3]
 550              	.L17:
 551              	.LBE14:
 552              		.loc 1 659 0
 553 02cc 3A4B     		ldr	r3, .L39+16
 554 02ce 1B68     		ldr	r3, [r3]
 555 02d0 002B     		cmp	r3, #0
 556 02d2 04D0     		beq	.L24
 557              		.loc 1 660 0
 558 02d4 00F05CFA 		bl	MEMSCallback
 559              		.loc 1 661 0
 560 02d8 374B     		ldr	r3, .L39+16
 561 02da 0022     		movs	r2, #0
 562 02dc 1A60     		str	r2, [r3]
 563              	.L24:
 564              		.loc 1 665 0
 565 02de 374B     		ldr	r3, .L39+20
 566 02e0 1B68     		ldr	r3, [r3]
 567 02e2 002B     		cmp	r3, #0
 568 02e4 04D0     		beq	.L25
 569              		.loc 1 666 0
 570 02e6 00F08BF9 		bl	ButtonCallback
 571              		.loc 1 667 0
 572 02ea 344B     		ldr	r3, .L39+20
 573 02ec 0022     		movs	r2, #0
 574 02ee 1A60     		str	r2, [r3]
 575              	.L25:
 576              		.loc 1 671 0
 577 02f0 334B     		ldr	r3, .L39+24
 578 02f2 1B68     		ldr	r3, [r3]
 579 02f4 002B     		cmp	r3, #0
 580 02f6 04D0     		beq	.L26
ARM GAS  /tmp/ccQpHQw3.s 			page 12


 581              		.loc 1 672 0
 582 02f8 314B     		ldr	r3, .L39+24
 583 02fa 0022     		movs	r2, #0
 584 02fc 1A60     		str	r2, [r3]
 585              		.loc 1 673 0
 586 02fe 00F0EFF9 		bl	ReCalibration
 587              	.L26:
 588              		.loc 1 677 0
 589 0302 304B     		ldr	r3, .L39+28
 590 0304 1B68     		ldr	r3, [r3]
 591 0306 002B     		cmp	r3, #0
 592 0308 04D0     		beq	.L27
 593              		.loc 1 678 0
 594 030a 2E4B     		ldr	r3, .L39+28
 595 030c 0022     		movs	r2, #0
 596 030e 1A60     		str	r2, [r3]
 597              		.loc 1 679 0
 598 0310 FFF7FEFF 		bl	HCI_Process
 599              	.L27:
 600              		.loc 1 683 0
 601 0314 2C4B     		ldr	r3, .L39+32
 602 0316 1B68     		ldr	r3, [r3]
 603 0318 002B     		cmp	r3, #0
 604 031a 04D0     		beq	.L28
 605              		.loc 1 684 0
 606 031c 2A4B     		ldr	r3, .L39+32
 607 031e 0022     		movs	r2, #0
 608 0320 1A60     		str	r2, [r3]
 609              		.loc 1 685 0
 610 0322 00F09DFE 		bl	SendEnvironmentalData
 611              	.L28:
 612              		.loc 1 689 0
 613 0326 294B     		ldr	r3, .L39+36
 614 0328 1B68     		ldr	r3, [r3]
 615 032a 002B     		cmp	r3, #0
 616 032c 04D0     		beq	.L29
 617              		.loc 1 690 0
 618 032e 274B     		ldr	r3, .L39+36
 619 0330 0022     		movs	r2, #0
 620 0332 1A60     		str	r2, [r3]
 621              		.loc 1 691 0
 622 0334 00F0C4FD 		bl	SendAudioLevelData
 623              	.L29:
 624              		.loc 1 695 0
 625 0338 254B     		ldr	r3, .L39+40
 626 033a 1B68     		ldr	r3, [r3]
 627 033c 002B     		cmp	r3, #0
 628 033e 04D0     		beq	.L30
 629              		.loc 1 696 0
 630 0340 234B     		ldr	r3, .L39+40
 631 0342 0022     		movs	r2, #0
 632 0344 1A60     		str	r2, [r3]
 633              		.loc 1 697 0
 634 0346 00F0D3FA 		bl	SendMotionData
 635              	.L30:
 636              		.loc 1 701 0
 637 034a 224B     		ldr	r3, .L39+44
ARM GAS  /tmp/ccQpHQw3.s 			page 13


 638 034c 1B68     		ldr	r3, [r3]
 639 034e 002B     		cmp	r3, #0
 640 0350 04D0     		beq	.L31
 641              		.loc 1 702 0
 642 0352 204B     		ldr	r3, .L39+44
 643 0354 0022     		movs	r2, #0
 644 0356 1A60     		str	r2, [r3]
 645              		.loc 1 703 0
 646 0358 00F0F2FA 		bl	ComputeQuaternions
 647              	.L31:
 648              		.loc 1 708 0
 649 035c 1E4B     		ldr	r3, .L39+48
 650 035e 1B68     		ldr	r3, [r3]
 651 0360 002B     		cmp	r3, #0
 652 0362 04D0     		beq	.L32
 653              		.loc 1 709 0
 654 0364 1C4B     		ldr	r3, .L39+48
 655 0366 0022     		movs	r2, #0
 656 0368 1A60     		str	r2, [r3]
 657              		.loc 1 710 0
 658 036a 00F089FC 		bl	ComputeMotionAR
 659              	.L32:
 660              		.loc 1 715 0
 661 036e 1B4B     		ldr	r3, .L39+52
 662 0370 1B68     		ldr	r3, [r3]
 663 0372 002B     		cmp	r3, #0
 664 0374 04D0     		beq	.L33
 665              		.loc 1 716 0
 666 0376 194B     		ldr	r3, .L39+52
 667 0378 0022     		movs	r2, #0
 668 037a 1A60     		str	r2, [r3]
 669              		.loc 1 717 0
 670 037c 00F0C8FC 		bl	ComputeMotionCP
 671              	.L33:
 672              		.loc 1 722 0
 673 0380 174B     		ldr	r3, .L39+56
 674 0382 1B68     		ldr	r3, [r3]
 675 0384 002B     		cmp	r3, #0
 676 0386 04D0     		beq	.L34
 677              		.loc 1 723 0
 678 0388 154B     		ldr	r3, .L39+56
 679 038a 0022     		movs	r2, #0
 680 038c 1A60     		str	r2, [r3]
 681              		.loc 1 724 0
 682 038e 00F007FD 		bl	ComputeMotionGR
 683              	.L34:
 684              		.loc 1 730 0
 685 0392 144B     		ldr	r3, .L39+60
 686 0394 1B78     		ldrb	r3, [r3]
 687 0396 DBB2     		uxtb	r3, r3
 688 0398 002B     		cmp	r3, #0
 689 039a 02D0     		beq	.L35
 690              		.loc 1 735 0
 691 039c 114B     		ldr	r3, .L39+60
 692 039e 0022     		movs	r2, #0
 693 03a0 1A70     		strb	r2, [r3]
 694              	.L35:
ARM GAS  /tmp/ccQpHQw3.s 			page 14


 695              	.LBB16:
 696              	.LBB17:
 697              		.file 2 "../../../../../../ChibiOS/os/ext/CMSIS/include/core_cmInstr.h"
 698              		.loc 2 434 0
 699              	@ 434 "../../../../../../ChibiOS/os/ext/CMSIS/include/core_cmInstr.h" 1
 700 03a2 30BF     		wfi
 701              	@ 0 "" 2
 702              		.thumb
 703              	.LBE17:
 704              	.LBE16:
 705              		.loc 1 750 0
 706 03a4 E0E6     		b	.L13
 707              	.L40:
 708 03a6 00BF     		.align	2
 709              	.L39:
 710 03a8 00000000 		.word	set_connectable
 711 03ac 00000000 		.word	MDM_LicTable
 712 03b0 00000000 		.word	TargetBoardFeatures
 713 03b4 00000000 		.word	NecessityToSaveMetaDataManager
 714 03b8 10000000 		.word	MEMSInterrupt
 715 03bc 0C000000 		.word	ButtonPressed
 716 03c0 00000000 		.word	ForceReCalibration
 717 03c4 14000000 		.word	HCI_ProcessEvent
 718 03c8 18000000 		.word	SendEnv
 719 03cc 1C000000 		.word	SendAudioLevel
 720 03d0 20000000 		.word	SendAccGyroMag
 721 03d4 24000000 		.word	Quaternion
 722 03d8 28000000 		.word	UpdateMotionAR
 723 03dc 2C000000 		.word	UpdateMotionCP
 724 03e0 30000000 		.word	UpdateMotionGR
 725 03e4 00000000 		.word	SendBlueVoice
 726              		.cfi_endproc
 727              	.LFE269:
 728              		.size	btle_main, .-btle_main
 729              		.align	2
 730 03e8 AFF30080 		.p2align 4,,15
 730      AFF30080 
 731              		.global	Set2GAccelerometerFullScale
 732              		.thumb
 733              		.thumb_func
 734              		.type	Set2GAccelerometerFullScale, %function
 735              	Set2GAccelerometerFullScale:
 736              	.LFB270:
 737              		.loc 1 759 0
 738              		.cfi_startproc
 739              		@ args = 0, pretend = 0, frame = 0
 740              		@ frame_needed = 0, uses_anonymous_args = 0
 741 03f0 08B5     		push	{r3, lr}
 742              		.cfi_def_cfa_offset 8
 743              		.cfi_offset 3, -8
 744              		.cfi_offset 14, -4
 745              		.loc 1 761 0
 746 03f2 0C4B     		ldr	r3, .L42
 747 03f4 DB69     		ldr	r3, [r3, #28]
 748 03f6 1846     		mov	r0, r3
 749 03f8 4FF08041 		mov	r1, #1073741824
 750 03fc FFF7FEFF 		bl	BSP_ACCELERO_Set_FS_Value
ARM GAS  /tmp/ccQpHQw3.s 			page 15


 751              		.loc 1 764 0
 752 0400 084B     		ldr	r3, .L42
 753 0402 DB69     		ldr	r3, [r3, #28]
 754 0404 1846     		mov	r0, r3
 755 0406 0849     		ldr	r1, .L42+4
 756 0408 FFF7FEFF 		bl	BSP_ACCELERO_Get_Sensitivity
 757              		.loc 1 765 0
 758 040c 064B     		ldr	r3, .L42+4
 759 040e 1B68     		ldr	r3, [r3]	@ float
 760 0410 1846     		mov	r0, r3
 761 0412 0649     		ldr	r1, .L42+8
 762 0414 FFF7FEFF 		bl	__aeabi_fmul
 763 0418 0346     		mov	r3, r0
 764 041a 1A46     		mov	r2, r3
 765 041c 044B     		ldr	r3, .L42+12
 766 041e 1A60     		str	r2, [r3]	@ float
 767              		.loc 1 766 0
 768 0420 08BD     		pop	{r3, pc}
 769              	.L43:
 770 0422 00BF     		.align	2
 771              	.L42:
 772 0424 00000000 		.word	TargetBoardFeatures
 773 0428 00000000 		.word	sensitivity
 774 042c 6F12833A 		.word	981668463
 775 0430 00000000 		.word	sensitivity_Mul
 776              		.cfi_endproc
 777              	.LFE270:
 778              		.size	Set2GAccelerometerFullScale, .-Set2GAccelerometerFullScale
 779              		.align	2
 780 0434 AFF30080 		.p2align 4,,15
 780      AFF30080 
 780      AFF30080 
 781              		.global	Set4GAccelerometerFullScale
 782              		.thumb
 783              		.thumb_func
 784              		.type	Set4GAccelerometerFullScale, %function
 785              	Set4GAccelerometerFullScale:
 786              	.LFB271:
 787              		.loc 1 774 0
 788              		.cfi_startproc
 789              		@ args = 0, pretend = 0, frame = 0
 790              		@ frame_needed = 0, uses_anonymous_args = 0
 791 0440 08B5     		push	{r3, lr}
 792              		.cfi_def_cfa_offset 8
 793              		.cfi_offset 3, -8
 794              		.cfi_offset 14, -4
 795              		.loc 1 777 0
 796 0442 0C4B     		ldr	r3, .L45
 797 0444 DB69     		ldr	r3, [r3, #28]
 798 0446 1846     		mov	r0, r3
 799 0448 4FF08141 		mov	r1, #1082130432
 800 044c FFF7FEFF 		bl	BSP_ACCELERO_Set_FS_Value
 801              		.loc 1 780 0
 802 0450 084B     		ldr	r3, .L45
 803 0452 DB69     		ldr	r3, [r3, #28]
 804 0454 1846     		mov	r0, r3
 805 0456 0849     		ldr	r1, .L45+4
ARM GAS  /tmp/ccQpHQw3.s 			page 16


 806 0458 FFF7FEFF 		bl	BSP_ACCELERO_Get_Sensitivity
 807              		.loc 1 781 0
 808 045c 064B     		ldr	r3, .L45+4
 809 045e 1B68     		ldr	r3, [r3]	@ float
 810 0460 1846     		mov	r0, r3
 811 0462 0649     		ldr	r1, .L45+8
 812 0464 FFF7FEFF 		bl	__aeabi_fmul
 813 0468 0346     		mov	r3, r0
 814 046a 1A46     		mov	r2, r3
 815 046c 044B     		ldr	r3, .L45+12
 816 046e 1A60     		str	r2, [r3]	@ float
 817              		.loc 1 782 0
 818 0470 08BD     		pop	{r3, pc}
 819              	.L46:
 820 0472 00BF     		.align	2
 821              	.L45:
 822 0474 00000000 		.word	TargetBoardFeatures
 823 0478 00000000 		.word	sensitivity
 824 047c 6F12833A 		.word	981668463
 825 0480 00000000 		.word	sensitivity_Mul
 826              		.cfi_endproc
 827              	.LFE271:
 828              		.size	Set4GAccelerometerFullScale, .-Set4GAccelerometerFullScale
 829              		.align	2
 830 0484 AFF30080 		.p2align 4,,15
 830      AFF30080 
 830      AFF30080 
 831              		.global	HAL_TIM_OC_DelayElapsedCallback
 832              		.thumb
 833              		.thumb_func
 834              		.type	HAL_TIM_OC_DelayElapsedCallback, %function
 835              	HAL_TIM_OC_DelayElapsedCallback:
 836              	.LFB272:
 837              		.loc 1 790 0
 838              		.cfi_startproc
 839              		@ args = 0, pretend = 0, frame = 16
 840              		@ frame_needed = 0, uses_anonymous_args = 0
 841 0490 00B5     		push	{lr}
 842              		.cfi_def_cfa_offset 4
 843              		.cfi_offset 14, -4
 844 0492 85B0     		sub	sp, sp, #20
 845              		.cfi_def_cfa_offset 24
 846 0494 0190     		str	r0, [sp, #4]
 847              		.loc 1 791 0
 848 0496 0023     		movs	r3, #0
 849 0498 0393     		str	r3, [sp, #12]
 850              		.loc 1 795 0
 851 049a 019B     		ldr	r3, [sp, #4]
 852 049c 1B7E     		ldrb	r3, [r3, #24]	@ zero_extendqisi2
 853 049e 012B     		cmp	r3, #1
 854 04a0 2BD1     		bne	.L48
 855              		.loc 1 797 0
 856 04a2 0198     		ldr	r0, [sp, #4]
 857 04a4 0021     		movs	r1, #0
 858 04a6 FFF7FEFF 		bl	HAL_TIM_ReadCapturedValue
 859 04aa 0390     		str	r0, [sp, #12]
 860              		.loc 1 799 0
ARM GAS  /tmp/ccQpHQw3.s 			page 17


 861 04ac 354B     		ldr	r3, .L53
 862 04ae 1B68     		ldr	r3, [r3]
 863 04b0 039A     		ldr	r2, [sp, #12]
 864 04b2 6432     		adds	r2, r2, #100
 865 04b4 5A63     		str	r2, [r3, #52]
 866              		.loc 1 802 0
 867 04b6 344B     		ldr	r3, .L53+4
 868 04b8 1B68     		ldr	r3, [r3]
 869 04ba 03F01003 		and	r3, r3, #16
 870 04be 002B     		cmp	r3, #0
 871 04c0 0CBF     		ite	eq
 872 04c2 0023     		moveq	r3, #0
 873 04c4 0123     		movne	r3, #1
 874 04c6 DAB2     		uxtb	r2, r3
 875 04c8 2F4B     		ldr	r3, .L53+4
 876 04ca 1B68     		ldr	r3, [r3]
 877 04cc 03F02003 		and	r3, r3, #32
 878 04d0 002B     		cmp	r3, #0
 879 04d2 0CBF     		ite	eq
 880 04d4 0023     		moveq	r3, #0
 881 04d6 0123     		movne	r3, #1
 882 04d8 DBB2     		uxtb	r3, r3
 883 04da 1343     		orrs	r3, r3, r2
 884 04dc DBB2     		uxtb	r3, r3
 885 04de 002B     		cmp	r3, #0
 886 04e0 02D0     		beq	.L49
 887              		.loc 1 803 0
 888 04e2 2A4B     		ldr	r3, .L53+8
 889 04e4 0122     		movs	r2, #1
 890 04e6 1A60     		str	r2, [r3]
 891              	.L49:
 892              		.loc 1 808 0
 893 04e8 274B     		ldr	r3, .L53+4
 894 04ea 1B68     		ldr	r3, [r3]
 895 04ec 03F48073 		and	r3, r3, #256
 896 04f0 002B     		cmp	r3, #0
 897 04f2 02D0     		beq	.L48
 898              		.loc 1 809 0
 899 04f4 264B     		ldr	r3, .L53+12
 900 04f6 0122     		movs	r2, #1
 901 04f8 1A60     		str	r2, [r3]
 902              	.L48:
 903              		.loc 1 817 0
 904 04fa 019B     		ldr	r3, [sp, #4]
 905 04fc 1B7E     		ldrb	r3, [r3, #24]	@ zero_extendqisi2
 906 04fe 022B     		cmp	r3, #2
 907 0500 12D1     		bne	.L50
 908              		.loc 1 819 0
 909 0502 0198     		ldr	r0, [sp, #4]
 910 0504 0421     		movs	r1, #4
 911 0506 FFF7FEFF 		bl	HAL_TIM_ReadCapturedValue
 912 050a 0390     		str	r0, [sp, #12]
 913              		.loc 1 821 0
 914 050c 1D4B     		ldr	r3, .L53
 915 050e 1B68     		ldr	r3, [r3]
 916 0510 039A     		ldr	r2, [sp, #12]
 917 0512 C832     		adds	r2, r2, #200
ARM GAS  /tmp/ccQpHQw3.s 			page 18


 918 0514 9A63     		str	r2, [r3, #56]
 919              		.loc 1 823 0
 920 0516 1C4B     		ldr	r3, .L53+4
 921 0518 1B68     		ldr	r3, [r3]
 922 051a 03F08003 		and	r3, r3, #128
 923 051e 002B     		cmp	r3, #0
 924 0520 02D0     		beq	.L50
 925              		.loc 1 824 0
 926 0522 1C4B     		ldr	r3, .L53+16
 927 0524 0122     		movs	r2, #1
 928 0526 1A60     		str	r2, [r3]
 929              	.L50:
 930              		.loc 1 831 0
 931 0528 019B     		ldr	r3, [sp, #4]
 932 052a 1B7E     		ldrb	r3, [r3, #24]	@ zero_extendqisi2
 933 052c 042B     		cmp	r3, #4
 934 052e 13D1     		bne	.L51
 935              		.loc 1 833 0
 936 0530 0198     		ldr	r0, [sp, #4]
 937 0532 0821     		movs	r1, #8
 938 0534 FFF7FEFF 		bl	HAL_TIM_ReadCapturedValue
 939 0538 0390     		str	r0, [sp, #12]
 940              		.loc 1 835 0
 941 053a 124B     		ldr	r3, .L53
 942 053c 1B68     		ldr	r3, [r3]
 943 053e 039A     		ldr	r2, [sp, #12]
 944 0540 02F27122 		addw	r2, r2, #625
 945 0544 DA63     		str	r2, [r3, #60]
 946              		.loc 1 837 0
 947 0546 104B     		ldr	r3, .L53+4
 948 0548 1B68     		ldr	r3, [r3]
 949 054a 03F04003 		and	r3, r3, #64
 950 054e 002B     		cmp	r3, #0
 951 0550 02D0     		beq	.L51
 952              		.loc 1 838 0
 953 0552 114B     		ldr	r3, .L53+20
 954 0554 0122     		movs	r2, #1
 955 0556 1A60     		str	r2, [r3]
 956              	.L51:
 957              		.loc 1 844 0
 958 0558 019B     		ldr	r3, [sp, #4]
 959 055a 1B7E     		ldrb	r3, [r3, #24]	@ zero_extendqisi2
 960 055c 082B     		cmp	r3, #8
 961 055e 0ED1     		bne	.L47
 962              		.loc 1 846 0
 963 0560 0198     		ldr	r0, [sp, #4]
 964 0562 0C21     		movs	r1, #12
 965 0564 FFF7FEFF 		bl	HAL_TIM_ReadCapturedValue
 966 0568 0390     		str	r0, [sp, #12]
 967              		.loc 1 848 0
 968 056a 064B     		ldr	r3, .L53
 969 056c 1B68     		ldr	r3, [r3]
 970 056e 0B4A     		ldr	r2, .L53+24
 971 0570 1168     		ldr	r1, [r2]
 972 0572 039A     		ldr	r2, [sp, #12]
 973 0574 0A44     		add	r2, r2, r1
 974 0576 1A64     		str	r2, [r3, #64]
ARM GAS  /tmp/ccQpHQw3.s 			page 19


 975              		.loc 1 849 0
 976 0578 094B     		ldr	r3, .L53+28
 977 057a 0122     		movs	r2, #1
 978 057c 1A60     		str	r2, [r3]
 979              	.L47:
 980              		.loc 1 851 0
 981 057e 05B0     		add	sp, sp, #20
 982              		@ sp needed
 983 0580 5DF804FB 		ldr	pc, [sp], #4
 984              	.L54:
 985              		.align	2
 986              	.L53:
 987 0584 00000000 		.word	TimCCHandle
 988 0588 00000000 		.word	ConnectionBleStatus
 989 058c 24000000 		.word	Quaternion
 990 0590 30000000 		.word	UpdateMotionGR
 991 0594 2C000000 		.word	UpdateMotionCP
 992 0598 28000000 		.word	UpdateMotionAR
 993 059c 00000000 		.word	uhCCR4_Val
 994 05a0 20000000 		.word	SendAccGyroMag
 995              		.cfi_endproc
 996              	.LFE272:
 997              		.size	HAL_TIM_OC_DelayElapsedCallback, .-HAL_TIM_OC_DelayElapsedCallback
 998              		.align	2
 999 05a4 AFF30080 		.p2align 4,,15
 999      AFF30080 
 999      AFF30080 
 1000              		.global	HAL_TIM_PeriodElapsedCallback
 1001              		.thumb
 1002              		.thumb_func
 1003              		.type	HAL_TIM_PeriodElapsedCallback, %function
 1004              	HAL_TIM_PeriodElapsedCallback:
 1005              	.LFB273:
 1006              		.loc 1 860 0
 1007              		.cfi_startproc
 1008              		@ args = 0, pretend = 0, frame = 8
 1009              		@ frame_needed = 0, uses_anonymous_args = 0
 1010              		@ link register save eliminated.
 1011 05b0 82B0     		sub	sp, sp, #8
 1012              		.cfi_def_cfa_offset 8
 1013 05b2 0190     		str	r0, [sp, #4]
 1014              		.loc 1 861 0
 1015 05b4 019A     		ldr	r2, [sp, #4]
 1016 05b6 0B4B     		ldr	r3, .L58
 1017 05b8 9A42     		cmp	r2, r3
 1018 05ba 03D1     		bne	.L56
 1019              		.loc 1 863 0
 1020 05bc 0A4B     		ldr	r3, .L58+4
 1021 05be 0122     		movs	r2, #1
 1022 05c0 1A60     		str	r2, [r3]
 1023 05c2 0CE0     		b	.L55
 1024              	.L56:
 1025              		.loc 1 870 0
 1026 05c4 019A     		ldr	r2, [sp, #4]
 1027 05c6 094B     		ldr	r3, .L58+8
 1028 05c8 9A42     		cmp	r2, r3
 1029 05ca 08D1     		bne	.L55
ARM GAS  /tmp/ccQpHQw3.s 			page 20


 1030              		.loc 1 872 0
 1031 05cc 084B     		ldr	r3, .L58+12
 1032 05ce 1B68     		ldr	r3, [r3]
 1033 05d0 03F00803 		and	r3, r3, #8
 1034 05d4 002B     		cmp	r3, #0
 1035 05d6 02D0     		beq	.L55
 1036              		.loc 1 873 0
 1037 05d8 064B     		ldr	r3, .L58+16
 1038 05da 0122     		movs	r2, #1
 1039 05dc 1A60     		str	r2, [r3]
 1040              	.L55:
 1041              		.loc 1 881 0
 1042 05de 02B0     		add	sp, sp, #8
 1043              		@ sp needed
 1044 05e0 7047     		bx	lr
 1045              	.L59:
 1046 05e2 00BF     		.align	2
 1047              	.L58:
 1048 05e4 00000000 		.word	TimEnvHandle
 1049 05e8 18000000 		.word	SendEnv
 1050 05ec 00000000 		.word	TimAudioDataHandle
 1051 05f0 00000000 		.word	ConnectionBleStatus
 1052 05f4 1C000000 		.word	SendAudioLevel
 1053              		.cfi_endproc
 1054              	.LFE273:
 1055              		.size	HAL_TIM_PeriodElapsedCallback, .-HAL_TIM_PeriodElapsedCallback
 1056              		.section	.rodata
 1057              		.align	2
 1058              	.LC1:
 1059 0000 256C6420 		.ascii	"%ld in %ldmS Reset Calib\015\012\000"
 1059      696E2025 
 1059      6C646D53 
 1059      20526573 
 1059      65742043 
 1060              		.text
 1061              		.align	2
 1062 05f8 AFF30080 		.p2align 4,,15
 1062      AFF30080 
 1063              		.thumb
 1064              		.thumb_func
 1065              		.type	ButtonCallback, %function
 1066              	ButtonCallback:
 1067              	.LFB274:
 1068              		.loc 1 889 0
 1069              		.cfi_startproc
 1070              		@ args = 0, pretend = 0, frame = 8
 1071              		@ frame_needed = 0, uses_anonymous_args = 0
 1072 0600 00B5     		push	{lr}
 1073              		.cfi_def_cfa_offset 4
 1074              		.cfi_offset 14, -4
 1075 0602 83B0     		sub	sp, sp, #12
 1076              		.cfi_def_cfa_offset 16
 1077              		.loc 1 891 0
 1078 0604 2C4B     		ldr	r3, .L66
 1079 0606 1B68     		ldr	r3, [r3]
 1080 0608 002B     		cmp	r3, #0
 1081 060a 51D0     		beq	.L60
ARM GAS  /tmp/ccQpHQw3.s 			page 21


 1082              	.LBB18:
 1083              		.loc 1 896 0
 1084 060c 2B4B     		ldr	r3, .L66+4
 1085 060e 1B68     		ldr	r3, [r3]
 1086 0610 002B     		cmp	r3, #0
 1087 0612 04D1     		bne	.L62
 1088              		.loc 1 897 0
 1089 0614 FFF7FEFF 		bl	HAL_GetTick
 1090 0618 0246     		mov	r2, r0
 1091 061a 284B     		ldr	r3, .L66+4
 1092 061c 1A60     		str	r2, [r3]
 1093              	.L62:
 1094              		.loc 1 899 0
 1095 061e FFF7FEFF 		bl	HAL_GetTick
 1096 0622 0190     		str	r0, [sp, #4]
 1097              		.loc 1 901 0
 1098 0624 254B     		ldr	r3, .L66+4
 1099 0626 1B68     		ldr	r3, [r3]
 1100 0628 019A     		ldr	r2, [sp, #4]
 1101 062a D31A     		subs	r3, r2, r3
 1102 062c B3F5FA6F 		cmp	r3, #2000
 1103 0630 05D9     		bls	.L63
 1104              		.loc 1 902 0
 1105 0632 234B     		ldr	r3, .L66+8
 1106 0634 0022     		movs	r2, #0
 1107 0636 1A60     		str	r2, [r3]
 1108              		.loc 1 903 0
 1109 0638 204B     		ldr	r3, .L66+4
 1110 063a 019A     		ldr	r2, [sp, #4]
 1111 063c 1A60     		str	r2, [r3]
 1112              	.L63:
 1113              		.loc 1 906 0
 1114 063e 214B     		ldr	r3, .L66+12
 1115 0640 DB6B     		ldr	r3, [r3, #60]
 1116 0642 002B     		cmp	r3, #0
 1117 0644 34D0     		beq	.L60
 1118              	.LBB19:
 1119              		.loc 1 907 0
 1120 0646 1F4B     		ldr	r3, .L66+12
 1121 0648 DB6B     		ldr	r3, [r3, #60]
 1122 064a 0093     		str	r3, [sp]
 1123              		.loc 1 908 0
 1124 064c 009B     		ldr	r3, [sp]
 1125 064e 5B68     		ldr	r3, [r3, #4]
 1126 0650 002B     		cmp	r3, #0
 1127 0652 2DD0     		beq	.L64
 1128              		.loc 1 909 0
 1129 0654 1A4B     		ldr	r3, .L66+8
 1130 0656 1B68     		ldr	r3, [r3]
 1131 0658 022B     		cmp	r3, #2
 1132 065a 06D1     		bne	.L65
 1133              		.loc 1 910 0
 1134 065c 1A4B     		ldr	r3, .L66+16
 1135 065e 0122     		movs	r2, #1
 1136 0660 1A60     		str	r2, [r3]
 1137              		.loc 1 911 0
 1138 0662 174B     		ldr	r3, .L66+8
ARM GAS  /tmp/ccQpHQw3.s 			page 22


 1139 0664 0022     		movs	r2, #0
 1140 0666 1A60     		str	r2, [r3]
 1141 0668 22E0     		b	.L64
 1142              	.L65:
 1143              		.loc 1 913 0
 1144 066a 154B     		ldr	r3, .L66+8
 1145 066c 1B68     		ldr	r3, [r3]
 1146 066e 5A1C     		adds	r2, r3, #1
 1147 0670 134B     		ldr	r3, .L66+8
 1148 0672 1A60     		str	r2, [r3]
 1149              		.loc 1 914 0
 1150 0674 154B     		ldr	r3, .L66+20
 1151 0676 1B68     		ldr	r3, [r3]
 1152 0678 03F48063 		and	r3, r3, #1024
 1153 067c 002B     		cmp	r3, #0
 1154 067e 17D0     		beq	.L64
 1155              		.loc 1 915 0
 1156 0680 0F4B     		ldr	r3, .L66+8
 1157 0682 1B68     		ldr	r3, [r3]
 1158 0684 C3F10302 		rsb	r2, r3, #3
 1159 0688 0C4B     		ldr	r3, .L66+4
 1160 068a 1968     		ldr	r1, [r3]
 1161 068c 019B     		ldr	r3, [sp, #4]
 1162 068e CB1A     		subs	r3, r1, r3
 1163 0690 03F5FA63 		add	r3, r3, #2000
 1164 0694 0E48     		ldr	r0, .L66+24
 1165 0696 0F49     		ldr	r1, .L66+28
 1166 0698 FFF7FEFF 		bl	sprintf
 1167 069c 0246     		mov	r2, r0
 1168 069e 0E4B     		ldr	r3, .L66+32
 1169 06a0 1A60     		str	r2, [r3]
 1170              		.loc 1 916 0
 1171 06a2 0D4B     		ldr	r3, .L66+32
 1172 06a4 1B68     		ldr	r3, [r3]
 1173 06a6 DBB2     		uxtb	r3, r3
 1174 06a8 0948     		ldr	r0, .L66+24
 1175 06aa 1946     		mov	r1, r3
 1176 06ac FFF7FEFF 		bl	Term_Update
 1177              	.L64:
 1178              	.L60:
 1179              	.LBE19:
 1180              	.LBE18:
 1181              		.loc 1 926 0
 1182 06b0 03B0     		add	sp, sp, #12
 1183              		@ sp needed
 1184 06b2 5DF804FB 		ldr	pc, [sp], #4
 1185              	.L67:
 1186 06b6 00BF     		.align	2
 1187              	.L66:
 1188 06b8 00000000 		.word	connected
 1189 06bc 3C000000 		.word	tickstart.19044
 1190 06c0 40000000 		.word	HowManyButtonPress.19043
 1191 06c4 00000000 		.word	MDM_LicTable
 1192 06c8 00000000 		.word	ForceReCalibration
 1193 06cc 00000000 		.word	ConnectionBleStatus
 1194 06d0 00000000 		.word	BufferToWrite
 1195 06d4 00000000 		.word	.LC1
ARM GAS  /tmp/ccQpHQw3.s 			page 23


 1196 06d8 00000000 		.word	BytesToWrite
 1197              		.cfi_endproc
 1198              	.LFE274:
 1199              		.size	ButtonCallback, .-ButtonCallback
 1200              		.section	.rodata
 1201 001b 00       		.align	2
 1202              	.LC2:
 1203 001c 466F7263 		.ascii	"Force ReCalibration\012\015\000"
 1203      65205265 
 1203      43616C69 
 1203      62726174 
 1203      696F6E0A 
 1204              		.text
 1205              		.align	2
 1206 06dc AFF30080 		.p2align 4,,15
 1207              		.thumb
 1208              		.thumb_func
 1209              		.type	ReCalibration, %function
 1210              	ReCalibration:
 1211              	.LFB275:
 1212              		.loc 1 934 0
 1213              		.cfi_startproc
 1214              		@ args = 0, pretend = 0, frame = 8
 1215              		@ frame_needed = 0, uses_anonymous_args = 0
 1216 06e0 30B5     		push	{r4, r5, lr}
 1217              		.cfi_def_cfa_offset 12
 1218              		.cfi_offset 4, -12
 1219              		.cfi_offset 5, -8
 1220              		.cfi_offset 14, -4
 1221 06e2 83B0     		sub	sp, sp, #12
 1222              		.cfi_def_cfa_offset 24
 1223              		.loc 1 936 0
 1224 06e4 224B     		ldr	r3, .L73
 1225 06e6 1B68     		ldr	r3, [r3]
 1226 06e8 002B     		cmp	r3, #0
 1227 06ea 3FD0     		beq	.L68
 1228              		.loc 1 938 0
 1229 06ec 214B     		ldr	r3, .L73+4
 1230 06ee 0022     		movs	r2, #0
 1231 06f0 1A70     		strb	r2, [r3]
 1232              		.loc 1 941 0
 1233 06f2 204B     		ldr	r3, .L73+4
 1234 06f4 1B78     		ldrb	r3, [r3]	@ zero_extendqisi2
 1235 06f6 002B     		cmp	r3, #0
 1236 06f8 01D0     		beq	.L70
 1237              		.loc 1 941 0 is_stmt 0 discriminator 1
 1238 06fa 6423     		movs	r3, #100
 1239 06fc 00E0     		b	.L71
 1240              	.L70:
 1241              		.loc 1 941 0 discriminator 2
 1242 06fe 0023     		movs	r3, #0
 1243              	.L71:
 1244              		.loc 1 941 0 discriminator 3
 1245 0700 4FF48070 		mov	r0, #256
 1246 0704 FF21     		movs	r1, #255
 1247 0706 1A46     		mov	r2, r3
 1248 0708 FFF7FEFF 		bl	Config_Notify
ARM GAS  /tmp/ccQpHQw3.s 			page 24


 1249              		.loc 1 948 0 is_stmt 1 discriminator 3
 1250 070c 1A4B     		ldr	r3, .L73+8
 1251 070e 1B68     		ldr	r3, [r3]
 1252 0710 03F48063 		and	r3, r3, #1024
 1253 0714 002B     		cmp	r3, #0
 1254 0716 14D0     		beq	.L72
 1255              		.loc 1 949 0
 1256 0718 184A     		ldr	r2, .L73+12
 1257 071a 194B     		ldr	r3, .L73+16
 1258 071c 1446     		mov	r4, r2
 1259 071e 1D46     		mov	r5, r3
 1260 0720 0FCD     		ldmia	r5!, {r0, r1, r2, r3}
 1261 0722 0FC4     		stmia	r4!, {r0, r1, r2, r3}
 1262 0724 95E80300 		ldmia	r5, {r0, r1}
 1263 0728 2060     		str	r0, [r4]
 1264 072a 0434     		adds	r4, r4, #4
 1265 072c 2180     		strh	r1, [r4]	@ movhi
 1266 072e 154B     		ldr	r3, .L73+20
 1267 0730 1522     		movs	r2, #21
 1268 0732 1A60     		str	r2, [r3]
 1269              		.loc 1 950 0
 1270 0734 134B     		ldr	r3, .L73+20
 1271 0736 1B68     		ldr	r3, [r3]
 1272 0738 DBB2     		uxtb	r3, r3
 1273 073a 1048     		ldr	r0, .L73+12
 1274 073c 1946     		mov	r1, r3
 1275 073e FFF7FEFF 		bl	Term_Update
 1276              	.L72:
 1277              	.LBB20:
 1278              		.loc 1 954 0
 1279 0742 114B     		ldr	r3, .L73+24
 1280 0744 DB6B     		ldr	r3, [r3, #60]
 1281 0746 0193     		str	r3, [sp, #4]
 1282              		.loc 1 955 0
 1283 0748 019B     		ldr	r3, [sp, #4]
 1284 074a 5C33     		adds	r3, r3, #92
 1285 074c 1846     		mov	r0, r3
 1286 074e 01F09FF9 		bl	ResetCalibrationInMemory
 1287              	.LBE20:
 1288              		.loc 1 959 0
 1289 0752 0E4B     		ldr	r3, .L73+28
 1290 0754 0022     		movs	r2, #0
 1291 0756 9A80     		strh	r2, [r3, #4]	@ movhi
 1292 0758 0C4B     		ldr	r3, .L73+28
 1293 075a 9A88     		ldrh	r2, [r3, #4]
 1294 075c 0B4B     		ldr	r3, .L73+28
 1295 075e 5A80     		strh	r2, [r3, #2]	@ movhi
 1296 0760 0A4B     		ldr	r3, .L73+28
 1297 0762 5A88     		ldrh	r2, [r3, #2]
 1298 0764 094B     		ldr	r3, .L73+28
 1299 0766 1A80     		strh	r2, [r3]	@ movhi
 1300              		.loc 1 962 0
 1301 0768 FFF7FEFF 		bl	LedOffTargetPlatform
 1302              	.L68:
 1303              		.loc 1 964 0
 1304 076c 03B0     		add	sp, sp, #12
 1305              		@ sp needed
ARM GAS  /tmp/ccQpHQw3.s 			page 25


 1306 076e 30BD     		pop	{r4, r5, pc}
 1307              	.L74:
 1308              		.align	2
 1309              	.L73:
 1310 0770 00000000 		.word	connected
 1311 0774 36000000 		.word	isCal
 1312 0778 00000000 		.word	ConnectionBleStatus
 1313 077c 00000000 		.word	BufferToWrite
 1314 0780 1C000000 		.word	.LC2
 1315 0784 00000000 		.word	BytesToWrite
 1316 0788 00000000 		.word	MDM_LicTable
 1317 078c 00000000 		.word	magOffset
 1318              		.cfi_endproc
 1319              	.LFE275:
 1320              		.size	ReCalibration, .-ReCalibration
 1321              		.align	2
 1322              		.p2align 4,,15
 1323              		.thumb
 1324              		.thumb_func
 1325              		.type	MEMSCallback, %function
 1326              	MEMSCallback:
 1327              	.LFB276:
 1328              		.loc 1 972 0
 1329              		.cfi_startproc
 1330              		@ args = 0, pretend = 0, frame = 8
 1331              		@ frame_needed = 0, uses_anonymous_args = 0
 1332 0790 00B5     		push	{lr}
 1333              		.cfi_def_cfa_offset 4
 1334              		.cfi_offset 14, -4
 1335 0792 83B0     		sub	sp, sp, #12
 1336              		.cfi_def_cfa_offset 16
 1337              		.loc 1 973 0
 1338 0794 0023     		movs	r3, #0
 1339 0796 8DF80330 		strb	r3, [sp, #3]
 1340              		.loc 1 975 0
 1341 079a 524B     		ldr	r3, .L83
 1342 079c 1B68     		ldr	r3, [r3]
 1343 079e 03F00203 		and	r3, r3, #2
 1344 07a2 002B     		cmp	r3, #0
 1345 07a4 0ED0     		beq	.L76
 1346              		.loc 1 977 0
 1347 07a6 504B     		ldr	r3, .L83+4
 1348 07a8 DA69     		ldr	r2, [r3, #28]
 1349 07aa 0DF10303 		add	r3, sp, #3
 1350 07ae 1046     		mov	r0, r2
 1351 07b0 1946     		mov	r1, r3
 1352 07b2 FFF7FEFF 		bl	BSP_ACCELERO_Get_Free_Fall_Detection_Status_Ext
 1353              		.loc 1 978 0
 1354 07b6 9DF80330 		ldrb	r3, [sp, #3]	@ zero_extendqisi2
 1355 07ba 002B     		cmp	r3, #0
 1356 07bc 02D0     		beq	.L76
 1357              		.loc 1 979 0
 1358 07be 1020     		movs	r0, #16
 1359 07c0 FFF7FEFF 		bl	AccEvent_Notify
 1360              	.L76:
 1361              		.loc 1 983 0
 1362 07c4 474B     		ldr	r3, .L83
ARM GAS  /tmp/ccQpHQw3.s 			page 26


 1363 07c6 1B68     		ldr	r3, [r3]
 1364 07c8 03F00403 		and	r3, r3, #4
 1365 07cc 002B     		cmp	r3, #0
 1366 07ce 0ED0     		beq	.L77
 1367              		.loc 1 985 0
 1368 07d0 454B     		ldr	r3, .L83+4
 1369 07d2 DA69     		ldr	r2, [r3, #28]
 1370 07d4 0DF10303 		add	r3, sp, #3
 1371 07d8 1046     		mov	r0, r2
 1372 07da 1946     		mov	r1, r3
 1373 07dc FFF7FEFF 		bl	BSP_ACCELERO_Get_Double_Tap_Detection_Status_Ext
 1374              		.loc 1 986 0
 1375 07e0 9DF80330 		ldrb	r3, [sp, #3]	@ zero_extendqisi2
 1376 07e4 002B     		cmp	r3, #0
 1377 07e6 02D0     		beq	.L77
 1378              		.loc 1 987 0
 1379 07e8 4020     		movs	r0, #64
 1380 07ea FFF7FEFF 		bl	AccEvent_Notify
 1381              	.L77:
 1382              		.loc 1 991 0
 1383 07ee 3D4B     		ldr	r3, .L83
 1384 07f0 1B68     		ldr	r3, [r3]
 1385 07f2 03F00803 		and	r3, r3, #8
 1386 07f6 002B     		cmp	r3, #0
 1387 07f8 0ED0     		beq	.L78
 1388              		.loc 1 993 0
 1389 07fa 3B4B     		ldr	r3, .L83+4
 1390 07fc DA69     		ldr	r2, [r3, #28]
 1391 07fe 0DF10303 		add	r3, sp, #3
 1392 0802 1046     		mov	r0, r2
 1393 0804 1946     		mov	r1, r3
 1394 0806 FFF7FEFF 		bl	BSP_ACCELERO_Get_Single_Tap_Detection_Status_Ext
 1395              		.loc 1 994 0
 1396 080a 9DF80330 		ldrb	r3, [sp, #3]	@ zero_extendqisi2
 1397 080e 002B     		cmp	r3, #0
 1398 0810 02D0     		beq	.L78
 1399              		.loc 1 995 0
 1400 0812 2020     		movs	r0, #32
 1401 0814 FFF7FEFF 		bl	AccEvent_Notify
 1402              	.L78:
 1403              		.loc 1 999 0
 1404 0818 324B     		ldr	r3, .L83
 1405 081a 1B68     		ldr	r3, [r3]
 1406 081c 03F01003 		and	r3, r3, #16
 1407 0820 002B     		cmp	r3, #0
 1408 0822 0ED0     		beq	.L79
 1409              		.loc 1 1001 0
 1410 0824 304B     		ldr	r3, .L83+4
 1411 0826 DA69     		ldr	r2, [r3, #28]
 1412 0828 0DF10303 		add	r3, sp, #3
 1413 082c 1046     		mov	r0, r2
 1414 082e 1946     		mov	r1, r3
 1415 0830 FFF7FEFF 		bl	BSP_ACCELERO_Get_Wake_Up_Detection_Status_Ext
 1416              		.loc 1 1002 0
 1417 0834 9DF80330 		ldrb	r3, [sp, #3]	@ zero_extendqisi2
 1418 0838 002B     		cmp	r3, #0
 1419 083a 02D0     		beq	.L79
ARM GAS  /tmp/ccQpHQw3.s 			page 27


 1420              		.loc 1 1003 0
 1421 083c 8020     		movs	r0, #128
 1422 083e FFF7FEFF 		bl	AccEvent_Notify
 1423              	.L79:
 1424              		.loc 1 1007 0
 1425 0842 284B     		ldr	r3, .L83
 1426 0844 1B68     		ldr	r3, [r3]
 1427 0846 03F02003 		and	r3, r3, #32
 1428 084a 002B     		cmp	r3, #0
 1429 084c 0ED0     		beq	.L80
 1430              		.loc 1 1009 0
 1431 084e 264B     		ldr	r3, .L83+4
 1432 0850 DA69     		ldr	r2, [r3, #28]
 1433 0852 0DF10303 		add	r3, sp, #3
 1434 0856 1046     		mov	r0, r2
 1435 0858 1946     		mov	r1, r3
 1436 085a FFF7FEFF 		bl	BSP_ACCELERO_Get_Tilt_Detection_Status_Ext
 1437              		.loc 1 1010 0
 1438 085e 9DF80330 		ldrb	r3, [sp, #3]	@ zero_extendqisi2
 1439 0862 002B     		cmp	r3, #0
 1440 0864 02D0     		beq	.L80
 1441              		.loc 1 1011 0
 1442 0866 0820     		movs	r0, #8
 1443 0868 FFF7FEFF 		bl	AccEvent_Notify
 1444              	.L80:
 1445              		.loc 1 1015 0
 1446 086c 1D4B     		ldr	r3, .L83
 1447 086e 1B68     		ldr	r3, [r3]
 1448 0870 03F04003 		and	r3, r3, #64
 1449 0874 002B     		cmp	r3, #0
 1450 0876 16D0     		beq	.L81
 1451              		.loc 1 1017 0
 1452 0878 1B4B     		ldr	r3, .L83+4
 1453 087a DA69     		ldr	r2, [r3, #28]
 1454 087c 0DF10303 		add	r3, sp, #3
 1455 0880 1046     		mov	r0, r2
 1456 0882 1946     		mov	r1, r3
 1457 0884 FFF7FEFF 		bl	BSP_ACCELERO_Get_6D_Orientation_Status_Ext
 1458              		.loc 1 1018 0
 1459 0888 9DF80330 		ldrb	r3, [sp, #3]	@ zero_extendqisi2
 1460 088c 002B     		cmp	r3, #0
 1461 088e 0AD0     		beq	.L81
 1462              	.LBB21:
 1463              		.loc 1 1019 0
 1464 0890 FFF7FEFF 		bl	GetHWOrientation6D
 1465 0894 0346     		mov	r3, r0
 1466 0896 8DF80730 		strb	r3, [sp, #7]
 1467              		.loc 1 1020 0
 1468 089a 9DF80730 		ldrb	r3, [sp, #7]	@ zero_extendqisi2
 1469 089e 9BB2     		uxth	r3, r3
 1470 08a0 1846     		mov	r0, r3
 1471 08a2 FFF7FEFF 		bl	AccEvent_Notify
 1472              	.L81:
 1473              	.LBE21:
 1474              		.loc 1 1024 0
 1475 08a6 0F4B     		ldr	r3, .L83
 1476 08a8 1B68     		ldr	r3, [r3]
ARM GAS  /tmp/ccQpHQw3.s 			page 28


 1477 08aa 03F00103 		and	r3, r3, #1
 1478 08ae 002B     		cmp	r3, #0
 1479 08b0 15D0     		beq	.L75
 1480              		.loc 1 1026 0
 1481 08b2 0D4B     		ldr	r3, .L83+4
 1482 08b4 DA69     		ldr	r2, [r3, #28]
 1483 08b6 0DF10303 		add	r3, sp, #3
 1484 08ba 1046     		mov	r0, r2
 1485 08bc 1946     		mov	r1, r3
 1486 08be FFF7FEFF 		bl	BSP_ACCELERO_Get_Pedometer_Status_Ext
 1487              		.loc 1 1027 0
 1488 08c2 9DF80330 		ldrb	r3, [sp, #3]	@ zero_extendqisi2
 1489 08c6 002B     		cmp	r3, #0
 1490 08c8 09D0     		beq	.L75
 1491              	.LBB22:
 1492              		.loc 1 1028 0
 1493 08ca FFF7FEFF 		bl	GetStepHWPedometer
 1494 08ce 0346     		mov	r3, r0
 1495 08d0 ADF80430 		strh	r3, [sp, #4]	@ movhi
 1496              		.loc 1 1029 0
 1497 08d4 BDF80430 		ldrh	r3, [sp, #4]
 1498 08d8 1846     		mov	r0, r3
 1499 08da FFF7FEFF 		bl	AccEvent_Notify
 1500              	.L75:
 1501              	.LBE22:
 1502              		.loc 1 1032 0
 1503 08de 03B0     		add	sp, sp, #12
 1504              		@ sp needed
 1505 08e0 5DF804FB 		ldr	pc, [sp], #4
 1506              	.L84:
 1507              		.align	2
 1508              	.L83:
 1509 08e4 00000000 		.word	HWAdvanceFeaturesStatus
 1510 08e8 00000000 		.word	TargetBoardFeatures
 1511              		.cfi_endproc
 1512              	.LFE276:
 1513              		.size	MEMSCallback, .-MEMSCallback
 1514              		.align	2
 1515 08ec AFF30080 		.p2align 4,,15
 1516              		.thumb
 1517              		.thumb_func
 1518              		.type	SendMotionData, %function
 1519              	SendMotionData:
 1520              	.LFB277:
 1521              		.loc 1 1040 0
 1522              		.cfi_startproc
 1523              		@ args = 0, pretend = 0, frame = 40
 1524              		@ frame_needed = 0, uses_anonymous_args = 0
 1525 08f0 00B5     		push	{lr}
 1526              		.cfi_def_cfa_offset 4
 1527              		.cfi_offset 14, -4
 1528 08f2 8BB0     		sub	sp, sp, #44
 1529              		.cfi_def_cfa_offset 48
 1530              		.loc 1 1046 0
 1531 08f4 0F4B     		ldr	r3, .L86
 1532 08f6 DA69     		ldr	r2, [r3, #28]
 1533 08f8 07AB     		add	r3, sp, #28
ARM GAS  /tmp/ccQpHQw3.s 			page 29


 1534 08fa 1046     		mov	r0, r2
 1535 08fc 1946     		mov	r1, r3
 1536 08fe FFF7FEFF 		bl	BSP_ACCELERO_Get_Axes
 1537              		.loc 1 1049 0
 1538 0902 0C4B     		ldr	r3, .L86
 1539 0904 5A6A     		ldr	r2, [r3, #36]
 1540 0906 01AB     		add	r3, sp, #4
 1541 0908 1046     		mov	r0, r2
 1542 090a 1946     		mov	r1, r3
 1543 090c FFF7FEFF 		bl	BSP_MAGNETO_Get_Axes
 1544              		.loc 1 1052 0
 1545 0910 084B     		ldr	r3, .L86
 1546 0912 1A6A     		ldr	r2, [r3, #32]
 1547 0914 04AB     		add	r3, sp, #16
 1548 0916 1046     		mov	r0, r2
 1549 0918 1946     		mov	r1, r3
 1550 091a FFF7FEFF 		bl	BSP_GYRO_Get_Axes
 1551              		.loc 1 1054 0
 1552 091e 07A9     		add	r1, sp, #28
 1553 0920 04AA     		add	r2, sp, #16
 1554 0922 01AB     		add	r3, sp, #4
 1555 0924 0846     		mov	r0, r1
 1556 0926 1146     		mov	r1, r2
 1557 0928 1A46     		mov	r2, r3
 1558 092a FFF7FEFF 		bl	AccGyroMag_Update
 1559              		.loc 1 1055 0
 1560 092e 0BB0     		add	sp, sp, #44
 1561              		@ sp needed
 1562 0930 5DF804FB 		ldr	pc, [sp], #4
 1563              	.L87:
 1564              		.align	2
 1565              	.L86:
 1566 0934 00000000 		.word	TargetBoardFeatures
 1567              		.cfi_endproc
 1568              	.LFE277:
 1569              		.size	SendMotionData, .-SendMotionData
 1570              		.global	__aeabi_i2f
 1571              		.global	__aeabi_f2iz
 1572              		.section	.rodata
 1573 0032 0000     		.align	2
 1574              	.LC3:
 1575 0034 436F6D70 		.ascii	"Compass Calibrated\012\015\000"
 1575      61737320 
 1575      43616C69 
 1575      62726174 
 1575      65640A0D 
 1576              		.global	__aeabi_f2d
 1577              		.global	__aeabi_d2uiz
 1578              		.global	__aeabi_fcmplt
 1579              		.text
 1580              		.align	2
 1581 0938 AFF30080 		.p2align 4,,15
 1581      AFF30080 
 1582              		.thumb
 1583              		.thumb_func
 1584              		.type	ComputeQuaternions, %function
 1585              	ComputeQuaternions:
ARM GAS  /tmp/ccQpHQw3.s 			page 30


 1586              	.LFB278:
 1587              		.loc 1 1063 0
 1588              		.cfi_startproc
 1589              		@ args = 0, pretend = 0, frame = 64
 1590              		@ frame_needed = 0, uses_anonymous_args = 0
 1591 0940 30B5     		push	{r4, r5, lr}
 1592              		.cfi_def_cfa_offset 12
 1593              		.cfi_offset 4, -12
 1594              		.cfi_offset 5, -8
 1595              		.cfi_offset 14, -4
 1596 0942 95B0     		sub	sp, sp, #84
 1597              		.cfi_def_cfa_offset 96
 1598              		.loc 1 1074 0
 1599 0944 9A4B     		ldr	r3, .L107
 1600 0946 1B68     		ldr	r3, [r3]
 1601 0948 03F02003 		and	r3, r3, #32
 1602 094c 002B     		cmp	r3, #0
 1603 094e 05D0     		beq	.L89
 1604              		.loc 1 1075 0
 1605 0950 984B     		ldr	r3, .L107+4
 1606 0952 1B68     		ldr	r3, [r3]
 1607 0954 5A1C     		adds	r2, r3, #1
 1608 0956 974B     		ldr	r3, .L107+4
 1609 0958 1A60     		str	r2, [r3]
 1610 095a 04E0     		b	.L90
 1611              	.L89:
 1612              		.loc 1 1077 0
 1613 095c 964B     		ldr	r3, .L107+8
 1614 095e 1B68     		ldr	r3, [r3]
 1615 0960 5A1C     		adds	r2, r3, #1
 1616 0962 954B     		ldr	r3, .L107+8
 1617 0964 1A60     		str	r2, [r3]
 1618              	.L90:
 1619              		.loc 1 1081 0
 1620 0966 954B     		ldr	r3, .L107+12
 1621 0968 DA69     		ldr	r2, [r3, #28]
 1622 096a 0BAB     		add	r3, sp, #44
 1623 096c 1046     		mov	r0, r2
 1624 096e 1946     		mov	r1, r3
 1625 0970 FFF7FEFF 		bl	BSP_ACCELERO_Get_AxesRaw
 1626              		.loc 1 1084 0
 1627 0974 914B     		ldr	r3, .L107+12
 1628 0976 5A6A     		ldr	r2, [r3, #36]
 1629 0978 05AB     		add	r3, sp, #20
 1630 097a 1046     		mov	r0, r2
 1631 097c 1946     		mov	r1, r3
 1632 097e FFF7FEFF 		bl	BSP_MAGNETO_Get_Axes
 1633              		.loc 1 1087 0
 1634 0982 8E4B     		ldr	r3, .L107+12
 1635 0984 1A6A     		ldr	r2, [r3, #32]
 1636 0986 08AB     		add	r3, sp, #32
 1637 0988 1046     		mov	r0, r2
 1638 098a 1946     		mov	r1, r3
 1639 098c FFF7FEFF 		bl	BSP_GYRO_Get_Axes
 1640              		.loc 1 1089 0
 1641 0990 01AC     		add	r4, sp, #4
 1642 0992 05AB     		add	r3, sp, #20
ARM GAS  /tmp/ccQpHQw3.s 			page 31


 1643 0994 93E80700 		ldmia	r3, {r0, r1, r2}
 1644 0998 84E80700 		stmia	r4, {r0, r1, r2}
 1645 099c 0A9B     		ldr	r3, [sp, #40]
 1646 099e 0093     		str	r3, [sp]
 1647 09a0 08AB     		add	r3, sp, #32
 1648 09a2 0CCB     		ldmia	r3, {r2, r3}
 1649 09a4 0BA9     		add	r1, sp, #44
 1650 09a6 03C9     		ldmia	r1, {r0, r1}
 1651 09a8 FFF7FEFF 		bl	MotionFX_manager_run
 1652              		.loc 1 1092 0
 1653 09ac 844B     		ldr	r3, .L107+16
 1654 09ae 1B78     		ldrb	r3, [r3]	@ zero_extendqisi2
 1655 09b0 012B     		cmp	r3, #1
 1656 09b2 7BD0     		beq	.L91
 1657              		.loc 1 1094 0
 1658 09b4 834B     		ldr	r3, .L107+20
 1659 09b6 1B68     		ldr	r3, [r3]
 1660 09b8 5A1C     		adds	r2, r3, #1
 1661 09ba 824B     		ldr	r3, .L107+20
 1662 09bc 1A60     		str	r2, [r3]
 1663              		.loc 1 1095 0
 1664 09be 814B     		ldr	r3, .L107+20
 1665 09c0 1B68     		ldr	r3, [r3]
 1666 09c2 042B     		cmp	r3, #4
 1667 09c4 75D1     		bne	.L96
 1668              		.loc 1 1096 0
 1669 09c6 7F4B     		ldr	r3, .L107+20
 1670 09c8 0022     		movs	r2, #0
 1671 09ca 1A60     		str	r2, [r3]
 1672              		.loc 1 1097 0
 1673 09cc BDF82C30 		ldrh	r3, [sp, #44]
 1674 09d0 1BB2     		sxth	r3, r3
 1675 09d2 1846     		mov	r0, r3
 1676 09d4 FFF7FEFF 		bl	__aeabi_i2f
 1677 09d8 0246     		mov	r2, r0
 1678 09da 7B4B     		ldr	r3, .L107+24
 1679 09dc 1B68     		ldr	r3, [r3]	@ float
 1680 09de 1046     		mov	r0, r2
 1681 09e0 1946     		mov	r1, r3
 1682 09e2 FFF7FEFF 		bl	__aeabi_fmul
 1683 09e6 0346     		mov	r3, r0
 1684 09e8 1846     		mov	r0, r3
 1685 09ea FFF7FEFF 		bl	__aeabi_f2iz
 1686 09ee 0346     		mov	r3, r0
 1687 09f0 0D93     		str	r3, [sp, #52]
 1688              		.loc 1 1098 0
 1689 09f2 BDF82E30 		ldrh	r3, [sp, #46]
 1690 09f6 1BB2     		sxth	r3, r3
 1691 09f8 1846     		mov	r0, r3
 1692 09fa FFF7FEFF 		bl	__aeabi_i2f
 1693 09fe 0246     		mov	r2, r0
 1694 0a00 714B     		ldr	r3, .L107+24
 1695 0a02 1B68     		ldr	r3, [r3]	@ float
 1696 0a04 1046     		mov	r0, r2
 1697 0a06 1946     		mov	r1, r3
 1698 0a08 FFF7FEFF 		bl	__aeabi_fmul
 1699 0a0c 0346     		mov	r3, r0
ARM GAS  /tmp/ccQpHQw3.s 			page 32


 1700 0a0e 1846     		mov	r0, r3
 1701 0a10 FFF7FEFF 		bl	__aeabi_f2iz
 1702 0a14 0346     		mov	r3, r0
 1703 0a16 0E93     		str	r3, [sp, #56]
 1704              		.loc 1 1099 0
 1705 0a18 BDF83030 		ldrh	r3, [sp, #48]
 1706 0a1c 1BB2     		sxth	r3, r3
 1707 0a1e 1846     		mov	r0, r3
 1708 0a20 FFF7FEFF 		bl	__aeabi_i2f
 1709 0a24 0246     		mov	r2, r0
 1710 0a26 684B     		ldr	r3, .L107+24
 1711 0a28 1B68     		ldr	r3, [r3]	@ float
 1712 0a2a 1046     		mov	r0, r2
 1713 0a2c 1946     		mov	r1, r3
 1714 0a2e FFF7FEFF 		bl	__aeabi_fmul
 1715 0a32 0346     		mov	r3, r0
 1716 0a34 1846     		mov	r0, r3
 1717 0a36 FFF7FEFF 		bl	__aeabi_f2iz
 1718 0a3a 0346     		mov	r3, r0
 1719 0a3c 0F93     		str	r3, [sp, #60]
 1720              		.loc 1 1106 0
 1721 0a3e 604B     		ldr	r3, .L107+16
 1722 0a40 1B78     		ldrb	r3, [r3]	@ zero_extendqisi2
 1723 0a42 012B     		cmp	r3, #1
 1724 0a44 35D1     		bne	.L96
 1725              		.loc 1 1107 0
 1726 0a46 5A4B     		ldr	r3, .L107
 1727 0a48 1B68     		ldr	r3, [r3]
 1728 0a4a 03F48063 		and	r3, r3, #1024
 1729 0a4e 002B     		cmp	r3, #0
 1730 0a50 14D0     		beq	.L93
 1731              		.loc 1 1108 0
 1732 0a52 5E4A     		ldr	r2, .L107+28
 1733 0a54 5E4B     		ldr	r3, .L107+32
 1734 0a56 1446     		mov	r4, r2
 1735 0a58 1D46     		mov	r5, r3
 1736 0a5a 0FCD     		ldmia	r5!, {r0, r1, r2, r3}
 1737 0a5c 0FC4     		stmia	r4!, {r0, r1, r2, r3}
 1738 0a5e 95E80300 		ldmia	r5, {r0, r1}
 1739 0a62 2060     		str	r0, [r4]
 1740 0a64 0434     		adds	r4, r4, #4
 1741 0a66 2170     		strb	r1, [r4]
 1742 0a68 5A4B     		ldr	r3, .L107+36
 1743 0a6a 1422     		movs	r2, #20
 1744 0a6c 1A60     		str	r2, [r3]
 1745              		.loc 1 1109 0
 1746 0a6e 594B     		ldr	r3, .L107+36
 1747 0a70 1B68     		ldr	r3, [r3]
 1748 0a72 DBB2     		uxtb	r3, r3
 1749 0a74 5548     		ldr	r0, .L107+28
 1750 0a76 1946     		mov	r1, r3
 1751 0a78 FFF7FEFF 		bl	Term_Update
 1752              	.L93:
 1753              	.LBB23:
 1754              		.loc 1 1119 0
 1755 0a7c 564B     		ldr	r3, .L107+40
 1756 0a7e DB6B     		ldr	r3, [r3, #60]
ARM GAS  /tmp/ccQpHQw3.s 			page 33


 1757 0a80 1393     		str	r3, [sp, #76]
 1758              		.loc 1 1120 0
 1759 0a82 139B     		ldr	r3, [sp, #76]
 1760 0a84 5C33     		adds	r3, r3, #92
 1761 0a86 1846     		mov	r0, r3
 1762 0a88 00F082FF 		bl	SaveCalibrationToMemory
 1763              	.LBE23:
 1764              		.loc 1 1124 0
 1765 0a8c FFF7FEFF 		bl	LedOnTargetPlatform
 1766              		.loc 1 1127 0
 1767 0a90 4B4B     		ldr	r3, .L107+16
 1768 0a92 1B78     		ldrb	r3, [r3]	@ zero_extendqisi2
 1769 0a94 002B     		cmp	r3, #0
 1770 0a96 01D0     		beq	.L94
 1771              		.loc 1 1127 0 is_stmt 0 discriminator 1
 1772 0a98 6423     		movs	r3, #100
 1773 0a9a 00E0     		b	.L95
 1774              	.L94:
 1775              		.loc 1 1127 0 discriminator 2
 1776 0a9c 0023     		movs	r3, #0
 1777              	.L95:
 1778              		.loc 1 1127 0 discriminator 3
 1779 0a9e 4FF48070 		mov	r0, #256
 1780 0aa2 FF21     		movs	r1, #255
 1781 0aa4 1A46     		mov	r2, r3
 1782 0aa6 FFF7FEFF 		bl	Config_Notify
 1783 0aaa 02E0     		b	.L96
 1784              	.L91:
 1785              		.loc 1 1131 0 is_stmt 1
 1786 0aac 454B     		ldr	r3, .L107+20
 1787 0aae 0022     		movs	r2, #0
 1788 0ab0 1A60     		str	r2, [r3]
 1789              	.L96:
 1790              		.loc 1 1135 0
 1791 0ab2 FFF7FEFF 		bl	MotionFX_manager_getDataOUT
 1792 0ab6 1290     		str	r0, [sp, #72]
 1793              		.loc 1 1137 0
 1794 0ab8 3D4B     		ldr	r3, .L107
 1795 0aba 1B68     		ldr	r3, [r3]
 1796 0abc 03F02003 		and	r3, r3, #32
 1797 0ac0 002B     		cmp	r3, #0
 1798 0ac2 26D0     		beq	.L97
 1799              		.loc 1 1139 0
 1800 0ac4 3B4B     		ldr	r3, .L107+4
 1801 0ac6 1B68     		ldr	r3, [r3]
 1802 0ac8 0A2B     		cmp	r3, #10
 1803 0aca 40F0D180 		bne	.L88
 1804              	.LBB24:
 1805              		.loc 1 1140 0
 1806 0ace 129B     		ldr	r3, [sp, #72]
 1807 0ad0 5B6B     		ldr	r3, [r3, #52]	@ float
 1808 0ad2 1846     		mov	r0, r3
 1809 0ad4 4149     		ldr	r1, .L107+44
 1810 0ad6 FFF7FEFF 		bl	__aeabi_fmul
 1811 0ada 0346     		mov	r3, r0
 1812 0adc 1846     		mov	r0, r3
 1813 0ade FFF7FEFF 		bl	__aeabi_f2d
ARM GAS  /tmp/ccQpHQw3.s 			page 34


 1814 0ae2 0246     		mov	r2, r0
 1815 0ae4 0B46     		mov	r3, r1
 1816 0ae6 1046     		mov	r0, r2
 1817 0ae8 1946     		mov	r1, r3
 1818 0aea FFF7FEFF 		bl	trunc
 1819 0aee 0246     		mov	r2, r0
 1820 0af0 0B46     		mov	r3, r1
 1821 0af2 1046     		mov	r0, r2
 1822 0af4 1946     		mov	r1, r3
 1823 0af6 FFF7FEFF 		bl	__aeabi_d2uiz
 1824 0afa 0346     		mov	r3, r0
 1825 0afc ADF84630 		strh	r3, [sp, #70]	@ movhi
 1826              		.loc 1 1141 0
 1827 0b00 2C4B     		ldr	r3, .L107+4
 1828 0b02 0022     		movs	r2, #0
 1829 0b04 1A60     		str	r2, [r3]
 1830              		.loc 1 1142 0
 1831 0b06 BDF84630 		ldrh	r3, [sp, #70]
 1832 0b0a 1846     		mov	r0, r3
 1833 0b0c FFF7FEFF 		bl	ECompass_Update
 1834 0b10 AEE0     		b	.L88
 1835              	.L97:
 1836              	.LBE24:
 1837              	.LBB25:
 1838              		.loc 1 1145 0
 1839 0b12 294B     		ldr	r3, .L107+8
 1840 0b14 1B68     		ldr	r3, [r3]
 1841 0b16 032B     		cmp	r3, #3
 1842 0b18 03DC     		bgt	.L100
 1843              		.loc 1 1145 0 is_stmt 0 discriminator 1
 1844 0b1a 274B     		ldr	r3, .L107+8
 1845 0b1c 1B68     		ldr	r3, [r3]
 1846 0b1e 013B     		subs	r3, r3, #1
 1847 0b20 00E0     		b	.L101
 1848              	.L100:
 1849              		.loc 1 1145 0 discriminator 2
 1850 0b22 0223     		movs	r3, #2
 1851              	.L101:
 1852              		.loc 1 1145 0 discriminator 3
 1853 0b24 1093     		str	r3, [sp, #64]
 1854              		.loc 1 1151 0 is_stmt 1 discriminator 3
 1855 0b26 129B     		ldr	r3, [sp, #72]
 1856 0b28 9B69     		ldr	r3, [r3, #24]	@ float
 1857 0b2a 1846     		mov	r0, r3
 1858 0b2c 4FF00001 		mov	r1, #0
 1859 0b30 FFF7FEFF 		bl	__aeabi_fcmplt
 1860 0b34 0346     		mov	r3, r0
 1861 0b36 002B     		cmp	r3, #0
 1862 0b38 56D0     		beq	.L106
 1863              		.loc 1 1152 0
 1864 0b3a 129B     		ldr	r3, [sp, #72]
 1865 0b3c DB68     		ldr	r3, [r3, #12]	@ float
 1866 0b3e 1846     		mov	r0, r3
 1867 0b40 2749     		ldr	r1, .L107+48
 1868 0b42 FFF7FEFF 		bl	__aeabi_fmul
 1869 0b46 0346     		mov	r3, r0
 1870 0b48 1846     		mov	r0, r3
ARM GAS  /tmp/ccQpHQw3.s 			page 35


 1871 0b4a FFF7FEFF 		bl	__aeabi_f2iz
 1872 0b4e 0146     		mov	r1, r0
 1873 0b50 2448     		ldr	r0, .L107+52
 1874 0b52 109A     		ldr	r2, [sp, #64]
 1875 0b54 1346     		mov	r3, r2
 1876 0b56 5B00     		lsls	r3, r3, #1
 1877 0b58 1344     		add	r3, r3, r2
 1878 0b5a 9B00     		lsls	r3, r3, #2
 1879 0b5c 0344     		add	r3, r3, r0
 1880 0b5e 1960     		str	r1, [r3]
 1881              		.loc 1 1153 0
 1882 0b60 129B     		ldr	r3, [sp, #72]
 1883 0b62 1B69     		ldr	r3, [r3, #16]	@ float
 1884 0b64 1846     		mov	r0, r3
 1885 0b66 1E49     		ldr	r1, .L107+48
 1886 0b68 FFF7FEFF 		bl	__aeabi_fmul
 1887 0b6c 0346     		mov	r3, r0
 1888 0b6e 1846     		mov	r0, r3
 1889 0b70 FFF7FEFF 		bl	__aeabi_f2iz
 1890 0b74 0146     		mov	r1, r0
 1891 0b76 1B48     		ldr	r0, .L107+52
 1892 0b78 109A     		ldr	r2, [sp, #64]
 1893 0b7a 1346     		mov	r3, r2
 1894 0b7c 5B00     		lsls	r3, r3, #1
 1895 0b7e 1344     		add	r3, r3, r2
 1896 0b80 9B00     		lsls	r3, r3, #2
 1897 0b82 0344     		add	r3, r3, r0
 1898 0b84 5960     		str	r1, [r3, #4]
 1899              		.loc 1 1154 0
 1900 0b86 129B     		ldr	r3, [sp, #72]
 1901 0b88 5B69     		ldr	r3, [r3, #20]	@ float
 1902 0b8a 1846     		mov	r0, r3
 1903 0b8c 1449     		ldr	r1, .L107+48
 1904 0b8e FFF7FEFF 		bl	__aeabi_fmul
 1905 0b92 0346     		mov	r3, r0
 1906 0b94 1846     		mov	r0, r3
 1907 0b96 FFF7FEFF 		bl	__aeabi_f2iz
 1908 0b9a 0146     		mov	r1, r0
 1909 0b9c 1148     		ldr	r0, .L107+52
 1910 0b9e 109A     		ldr	r2, [sp, #64]
 1911 0ba0 1346     		mov	r3, r2
 1912 0ba2 5B00     		lsls	r3, r3, #1
 1913 0ba4 1344     		add	r3, r3, r2
 1914 0ba6 9B00     		lsls	r3, r3, #2
 1915 0ba8 0344     		add	r3, r3, r0
 1916 0baa 0833     		adds	r3, r3, #8
 1917 0bac 1960     		str	r1, [r3]
 1918 0bae 55E0     		b	.L104
 1919              	.L108:
 1920              		.align	2
 1921              	.L107:
 1922 0bb0 00000000 		.word	ConnectionBleStatus
 1923 0bb4 44000000 		.word	CounterEC.19069
 1924 0bb8 48000000 		.word	CounterFX.19068
 1925 0bbc 00000000 		.word	TargetBoardFeatures
 1926 0bc0 36000000 		.word	isCal
 1927 0bc4 4C000000 		.word	calibIndex.19067
ARM GAS  /tmp/ccQpHQw3.s 			page 36


 1928 0bc8 00000000 		.word	sensitivity
 1929 0bcc 00000000 		.word	BufferToWrite
 1930 0bd0 34000000 		.word	.LC3
 1931 0bd4 00000000 		.word	BytesToWrite
 1932 0bd8 00000000 		.word	MDM_LicTable
 1933 0bdc 0000C842 		.word	1120403456
 1934 0be0 00401CC6 		.word	-971227136
 1935 0be4 50000000 		.word	quat_axes.19066
 1936              	.L106:
 1937              		.loc 1 1156 0
 1938 0be8 129B     		ldr	r3, [sp, #72]
 1939 0bea DB68     		ldr	r3, [r3, #12]	@ float
 1940 0bec 1846     		mov	r0, r3
 1941 0bee 2149     		ldr	r1, .L109
 1942 0bf0 FFF7FEFF 		bl	__aeabi_fmul
 1943 0bf4 0346     		mov	r3, r0
 1944 0bf6 1846     		mov	r0, r3
 1945 0bf8 FFF7FEFF 		bl	__aeabi_f2iz
 1946 0bfc 0146     		mov	r1, r0
 1947 0bfe 1E48     		ldr	r0, .L109+4
 1948 0c00 109A     		ldr	r2, [sp, #64]
 1949 0c02 1346     		mov	r3, r2
 1950 0c04 5B00     		lsls	r3, r3, #1
 1951 0c06 1344     		add	r3, r3, r2
 1952 0c08 9B00     		lsls	r3, r3, #2
 1953 0c0a 0344     		add	r3, r3, r0
 1954 0c0c 1960     		str	r1, [r3]
 1955              		.loc 1 1157 0
 1956 0c0e 129B     		ldr	r3, [sp, #72]
 1957 0c10 1B69     		ldr	r3, [r3, #16]	@ float
 1958 0c12 1846     		mov	r0, r3
 1959 0c14 1749     		ldr	r1, .L109
 1960 0c16 FFF7FEFF 		bl	__aeabi_fmul
 1961 0c1a 0346     		mov	r3, r0
 1962 0c1c 1846     		mov	r0, r3
 1963 0c1e FFF7FEFF 		bl	__aeabi_f2iz
 1964 0c22 0146     		mov	r1, r0
 1965 0c24 1448     		ldr	r0, .L109+4
 1966 0c26 109A     		ldr	r2, [sp, #64]
 1967 0c28 1346     		mov	r3, r2
 1968 0c2a 5B00     		lsls	r3, r3, #1
 1969 0c2c 1344     		add	r3, r3, r2
 1970 0c2e 9B00     		lsls	r3, r3, #2
 1971 0c30 0344     		add	r3, r3, r0
 1972 0c32 5960     		str	r1, [r3, #4]
 1973              		.loc 1 1158 0
 1974 0c34 129B     		ldr	r3, [sp, #72]
 1975 0c36 5B69     		ldr	r3, [r3, #20]	@ float
 1976 0c38 1846     		mov	r0, r3
 1977 0c3a 0E49     		ldr	r1, .L109
 1978 0c3c FFF7FEFF 		bl	__aeabi_fmul
 1979 0c40 0346     		mov	r3, r0
 1980 0c42 1846     		mov	r0, r3
 1981 0c44 FFF7FEFF 		bl	__aeabi_f2iz
 1982 0c48 0146     		mov	r1, r0
 1983 0c4a 0B48     		ldr	r0, .L109+4
 1984 0c4c 109A     		ldr	r2, [sp, #64]
ARM GAS  /tmp/ccQpHQw3.s 			page 37


 1985 0c4e 1346     		mov	r3, r2
 1986 0c50 5B00     		lsls	r3, r3, #1
 1987 0c52 1344     		add	r3, r3, r2
 1988 0c54 9B00     		lsls	r3, r3, #2
 1989 0c56 0344     		add	r3, r3, r0
 1990 0c58 0833     		adds	r3, r3, #8
 1991 0c5a 1960     		str	r1, [r3]
 1992              	.L104:
 1993              		.loc 1 1162 0
 1994 0c5c 074B     		ldr	r3, .L109+8
 1995 0c5e 1B68     		ldr	r3, [r3]
 1996 0c60 032B     		cmp	r3, #3
 1997 0c62 05D1     		bne	.L88
 1998              		.loc 1 1163 0
 1999 0c64 0448     		ldr	r0, .L109+4
 2000 0c66 FFF7FEFF 		bl	Quat_Update
 2001              		.loc 1 1164 0
 2002 0c6a 044B     		ldr	r3, .L109+8
 2003 0c6c 0022     		movs	r2, #0
 2004 0c6e 1A60     		str	r2, [r3]
 2005              	.L88:
 2006              	.LBE25:
 2007              		.loc 1 1167 0
 2008 0c70 15B0     		add	sp, sp, #84
 2009              		@ sp needed
 2010 0c72 30BD     		pop	{r4, r5, pc}
 2011              	.L110:
 2012              		.align	2
 2013              	.L109:
 2014 0c74 00401C46 		.word	1176256512
 2015 0c78 50000000 		.word	quat_axes.19066
 2016 0c7c 48000000 		.word	CounterFX.19068
 2017              		.cfi_endproc
 2018              	.LFE278:
 2019              		.size	ComputeQuaternions, .-ComputeQuaternions
 2020              		.section	.rodata
 2021 0049 000000   		.align	2
 2022              	.LC4:
 2023 004c 53656E64 		.ascii	"Sending: AR=%d\015\012\000"
 2023      696E673A 
 2023      2041523D 
 2023      25640D0A 
 2023      00
 2024              		.text
 2025              		.align	2
 2026              		.p2align 4,,15
 2027              		.thumb
 2028              		.thumb_func
 2029              		.type	ComputeMotionAR, %function
 2030              	ComputeMotionAR:
 2031              	.LFB279:
 2032              		.loc 1 1177 0
 2033              		.cfi_startproc
 2034              		@ args = 0, pretend = 0, frame = 8
 2035              		@ frame_needed = 0, uses_anonymous_args = 0
 2036 0c80 00B5     		push	{lr}
 2037              		.cfi_def_cfa_offset 4
ARM GAS  /tmp/ccQpHQw3.s 			page 38


 2038              		.cfi_offset 14, -4
 2039 0c82 83B0     		sub	sp, sp, #12
 2040              		.cfi_def_cfa_offset 16
 2041              		.loc 1 1182 0
 2042 0c84 1A4B     		ldr	r3, .L113
 2043 0c86 DA69     		ldr	r2, [r3, #28]
 2044 0c88 6B46     		mov	r3, sp
 2045 0c8a 1046     		mov	r0, r2
 2046 0c8c 1946     		mov	r1, r3
 2047 0c8e FFF7FEFF 		bl	BSP_ACCELERO_Get_AxesRaw
 2048              		.loc 1 1184 0
 2049 0c92 6B46     		mov	r3, sp
 2050 0c94 93E80300 		ldmia	r3, {r0, r1}
 2051 0c98 FFF7FEFF 		bl	MotionAR_manager_run
 2052              		.loc 1 1186 0
 2053 0c9c 154B     		ldr	r3, .L113+4
 2054 0c9e 1A78     		ldrb	r2, [r3]	@ zero_extendqisi2
 2055 0ca0 154B     		ldr	r3, .L113+8
 2056 0ca2 1B78     		ldrb	r3, [r3]	@ zero_extendqisi2
 2057 0ca4 9A42     		cmp	r2, r3
 2058 0ca6 1FD0     		beq	.L111
 2059              		.loc 1 1187 0
 2060 0ca8 134B     		ldr	r3, .L113+8
 2061 0caa 1A78     		ldrb	r2, [r3]	@ zero_extendqisi2
 2062 0cac 114B     		ldr	r3, .L113+4
 2063 0cae 1A70     		strb	r2, [r3]
 2064              		.loc 1 1189 0
 2065 0cb0 114B     		ldr	r3, .L113+8
 2066 0cb2 1B78     		ldrb	r3, [r3]	@ zero_extendqisi2
 2067 0cb4 1846     		mov	r0, r3
 2068 0cb6 FFF7FEFF 		bl	ActivityRec_Update
 2069              		.loc 1 1191 0
 2070 0cba 104B     		ldr	r3, .L113+12
 2071 0cbc 1B68     		ldr	r3, [r3]
 2072 0cbe 03F48063 		and	r3, r3, #1024
 2073 0cc2 002B     		cmp	r3, #0
 2074 0cc4 10D0     		beq	.L111
 2075              		.loc 1 1192 0
 2076 0cc6 0C4B     		ldr	r3, .L113+8
 2077 0cc8 1B78     		ldrb	r3, [r3]	@ zero_extendqisi2
 2078 0cca 0D48     		ldr	r0, .L113+16
 2079 0ccc 0D49     		ldr	r1, .L113+20
 2080 0cce 1A46     		mov	r2, r3
 2081 0cd0 FFF7FEFF 		bl	sprintf
 2082 0cd4 0246     		mov	r2, r0
 2083 0cd6 0C4B     		ldr	r3, .L113+24
 2084 0cd8 1A60     		str	r2, [r3]
 2085              		.loc 1 1193 0
 2086 0cda 0B4B     		ldr	r3, .L113+24
 2087 0cdc 1B68     		ldr	r3, [r3]
 2088 0cde DBB2     		uxtb	r3, r3
 2089 0ce0 0748     		ldr	r0, .L113+16
 2090 0ce2 1946     		mov	r1, r3
 2091 0ce4 FFF7FEFF 		bl	Term_Update
 2092              	.L111:
 2093              		.loc 1 1198 0
 2094 0ce8 03B0     		add	sp, sp, #12
ARM GAS  /tmp/ccQpHQw3.s 			page 39


 2095              		@ sp needed
 2096 0cea 5DF804FB 		ldr	pc, [sp], #4
 2097              	.L114:
 2098 0cee 00BF     		.align	2
 2099              	.L113:
 2100 0cf0 00000000 		.word	TargetBoardFeatures
 2101 0cf4 74000000 		.word	ActivityCodeStored.19081
 2102 0cf8 00000000 		.word	ActivityCode
 2103 0cfc 00000000 		.word	ConnectionBleStatus
 2104 0d00 00000000 		.word	BufferToWrite
 2105 0d04 4C000000 		.word	.LC4
 2106 0d08 00000000 		.word	BytesToWrite
 2107              		.cfi_endproc
 2108              	.LFE279:
 2109              		.size	ComputeMotionAR, .-ComputeMotionAR
 2110              		.section	.rodata
 2111 005d 000000   		.align	2
 2112              	.LC5:
 2113 0060 53656E64 		.ascii	"Sending: CP=%d\015\012\000"
 2113      696E673A 
 2113      2043503D 
 2113      25640D0A 
 2113      00
 2114              		.text
 2115              		.align	2
 2116 0d0c AFF30080 		.p2align 4,,15
 2117              		.thumb
 2118              		.thumb_func
 2119              		.type	ComputeMotionCP, %function
 2120              	ComputeMotionCP:
 2121              	.LFB280:
 2122              		.loc 1 1208 0
 2123              		.cfi_startproc
 2124              		@ args = 0, pretend = 0, frame = 8
 2125              		@ frame_needed = 0, uses_anonymous_args = 0
 2126 0d10 00B5     		push	{lr}
 2127              		.cfi_def_cfa_offset 4
 2128              		.cfi_offset 14, -4
 2129 0d12 83B0     		sub	sp, sp, #12
 2130              		.cfi_def_cfa_offset 16
 2131              		.loc 1 1213 0
 2132 0d14 1A4B     		ldr	r3, .L117
 2133 0d16 DA69     		ldr	r2, [r3, #28]
 2134 0d18 6B46     		mov	r3, sp
 2135 0d1a 1046     		mov	r0, r2
 2136 0d1c 1946     		mov	r1, r3
 2137 0d1e FFF7FEFF 		bl	BSP_ACCELERO_Get_AxesRaw
 2138              		.loc 1 1214 0
 2139 0d22 6B46     		mov	r3, sp
 2140 0d24 93E80300 		ldmia	r3, {r0, r1}
 2141 0d28 FFF7FEFF 		bl	MotionCP_manager_run
 2142              		.loc 1 1216 0
 2143 0d2c 154B     		ldr	r3, .L117+4
 2144 0d2e 1A78     		ldrb	r2, [r3]	@ zero_extendqisi2
 2145 0d30 154B     		ldr	r3, .L117+8
 2146 0d32 1B78     		ldrb	r3, [r3]	@ zero_extendqisi2
 2147 0d34 9A42     		cmp	r2, r3
ARM GAS  /tmp/ccQpHQw3.s 			page 40


 2148 0d36 1FD0     		beq	.L115
 2149              		.loc 1 1217 0
 2150 0d38 134B     		ldr	r3, .L117+8
 2151 0d3a 1A78     		ldrb	r2, [r3]	@ zero_extendqisi2
 2152 0d3c 114B     		ldr	r3, .L117+4
 2153 0d3e 1A70     		strb	r2, [r3]
 2154              		.loc 1 1218 0
 2155 0d40 114B     		ldr	r3, .L117+8
 2156 0d42 1B78     		ldrb	r3, [r3]	@ zero_extendqisi2
 2157 0d44 1846     		mov	r0, r3
 2158 0d46 FFF7FEFF 		bl	CarryPosRec_Update
 2159              		.loc 1 1220 0
 2160 0d4a 104B     		ldr	r3, .L117+12
 2161 0d4c 1B68     		ldr	r3, [r3]
 2162 0d4e 03F48063 		and	r3, r3, #1024
 2163 0d52 002B     		cmp	r3, #0
 2164 0d54 10D0     		beq	.L115
 2165              		.loc 1 1221 0
 2166 0d56 0C4B     		ldr	r3, .L117+8
 2167 0d58 1B78     		ldrb	r3, [r3]	@ zero_extendqisi2
 2168 0d5a 0D48     		ldr	r0, .L117+16
 2169 0d5c 0D49     		ldr	r1, .L117+20
 2170 0d5e 1A46     		mov	r2, r3
 2171 0d60 FFF7FEFF 		bl	sprintf
 2172 0d64 0246     		mov	r2, r0
 2173 0d66 0C4B     		ldr	r3, .L117+24
 2174 0d68 1A60     		str	r2, [r3]
 2175              		.loc 1 1222 0
 2176 0d6a 0B4B     		ldr	r3, .L117+24
 2177 0d6c 1B68     		ldr	r3, [r3]
 2178 0d6e DBB2     		uxtb	r3, r3
 2179 0d70 0748     		ldr	r0, .L117+16
 2180 0d72 1946     		mov	r1, r3
 2181 0d74 FFF7FEFF 		bl	Term_Update
 2182              	.L115:
 2183              		.loc 1 1227 0
 2184 0d78 03B0     		add	sp, sp, #12
 2185              		@ sp needed
 2186 0d7a 5DF804FB 		ldr	pc, [sp], #4
 2187              	.L118:
 2188 0d7e 00BF     		.align	2
 2189              	.L117:
 2190 0d80 00000000 		.word	TargetBoardFeatures
 2191 0d84 75000000 		.word	CarryPositionCodeStored.19086
 2192 0d88 00000000 		.word	CarryPositionCode
 2193 0d8c 00000000 		.word	ConnectionBleStatus
 2194 0d90 00000000 		.word	BufferToWrite
 2195 0d94 60000000 		.word	.LC5
 2196 0d98 00000000 		.word	BytesToWrite
 2197              		.cfi_endproc
 2198              	.LFE280:
 2199              		.size	ComputeMotionCP, .-ComputeMotionCP
 2200              		.section	.rodata
 2201 0071 000000   		.align	2
 2202              	.LC6:
 2203 0074 53656E64 		.ascii	"Sending: GR=%d\015\012\000"
 2203      696E673A 
ARM GAS  /tmp/ccQpHQw3.s 			page 41


 2203      2047523D 
 2203      25640D0A 
 2203      00
 2204              		.text
 2205              		.align	2
 2206 0d9c AFF30080 		.p2align 4,,15
 2207              		.thumb
 2208              		.thumb_func
 2209              		.type	ComputeMotionGR, %function
 2210              	ComputeMotionGR:
 2211              	.LFB281:
 2212              		.loc 1 1237 0
 2213              		.cfi_startproc
 2214              		@ args = 0, pretend = 0, frame = 8
 2215              		@ frame_needed = 0, uses_anonymous_args = 0
 2216 0da0 00B5     		push	{lr}
 2217              		.cfi_def_cfa_offset 4
 2218              		.cfi_offset 14, -4
 2219 0da2 83B0     		sub	sp, sp, #12
 2220              		.cfi_def_cfa_offset 16
 2221              		.loc 1 1242 0
 2222 0da4 1A4B     		ldr	r3, .L121
 2223 0da6 DA69     		ldr	r2, [r3, #28]
 2224 0da8 6B46     		mov	r3, sp
 2225 0daa 1046     		mov	r0, r2
 2226 0dac 1946     		mov	r1, r3
 2227 0dae FFF7FEFF 		bl	BSP_ACCELERO_Get_AxesRaw
 2228              		.loc 1 1243 0
 2229 0db2 6B46     		mov	r3, sp
 2230 0db4 93E80300 		ldmia	r3, {r0, r1}
 2231 0db8 FFF7FEFF 		bl	MotionGR_manager_run
 2232              		.loc 1 1245 0
 2233 0dbc 154B     		ldr	r3, .L121+4
 2234 0dbe 1A78     		ldrb	r2, [r3]	@ zero_extendqisi2
 2235 0dc0 154B     		ldr	r3, .L121+8
 2236 0dc2 1B78     		ldrb	r3, [r3]	@ zero_extendqisi2
 2237 0dc4 9A42     		cmp	r2, r3
 2238 0dc6 1FD0     		beq	.L119
 2239              		.loc 1 1246 0
 2240 0dc8 134B     		ldr	r3, .L121+8
 2241 0dca 1A78     		ldrb	r2, [r3]	@ zero_extendqisi2
 2242 0dcc 114B     		ldr	r3, .L121+4
 2243 0dce 1A70     		strb	r2, [r3]
 2244              		.loc 1 1247 0
 2245 0dd0 114B     		ldr	r3, .L121+8
 2246 0dd2 1B78     		ldrb	r3, [r3]	@ zero_extendqisi2
 2247 0dd4 1846     		mov	r0, r3
 2248 0dd6 FFF7FEFF 		bl	GestureRec_Update
 2249              		.loc 1 1249 0
 2250 0dda 104B     		ldr	r3, .L121+12
 2251 0ddc 1B68     		ldr	r3, [r3]
 2252 0dde 03F48063 		and	r3, r3, #1024
 2253 0de2 002B     		cmp	r3, #0
 2254 0de4 10D0     		beq	.L119
 2255              		.loc 1 1250 0
 2256 0de6 0C4B     		ldr	r3, .L121+8
 2257 0de8 1B78     		ldrb	r3, [r3]	@ zero_extendqisi2
ARM GAS  /tmp/ccQpHQw3.s 			page 42


 2258 0dea 0D48     		ldr	r0, .L121+16
 2259 0dec 0D49     		ldr	r1, .L121+20
 2260 0dee 1A46     		mov	r2, r3
 2261 0df0 FFF7FEFF 		bl	sprintf
 2262 0df4 0246     		mov	r2, r0
 2263 0df6 0C4B     		ldr	r3, .L121+24
 2264 0df8 1A60     		str	r2, [r3]
 2265              		.loc 1 1251 0
 2266 0dfa 0B4B     		ldr	r3, .L121+24
 2267 0dfc 1B68     		ldr	r3, [r3]
 2268 0dfe DBB2     		uxtb	r3, r3
 2269 0e00 0748     		ldr	r0, .L121+16
 2270 0e02 1946     		mov	r1, r3
 2271 0e04 FFF7FEFF 		bl	Term_Update
 2272              	.L119:
 2273              		.loc 1 1256 0
 2274 0e08 03B0     		add	sp, sp, #12
 2275              		@ sp needed
 2276 0e0a 5DF804FB 		ldr	pc, [sp], #4
 2277              	.L122:
 2278 0e0e 00BF     		.align	2
 2279              	.L121:
 2280 0e10 00000000 		.word	TargetBoardFeatures
 2281 0e14 76000000 		.word	GestureRecognitionCodeStored.19091
 2282 0e18 00000000 		.word	GestureRecognitionCode
 2283 0e1c 00000000 		.word	ConnectionBleStatus
 2284 0e20 00000000 		.word	BufferToWrite
 2285 0e24 74000000 		.word	.LC6
 2286 0e28 00000000 		.word	BytesToWrite
 2287              		.cfi_endproc
 2288              	.LFE281:
 2289              		.size	ComputeMotionGR, .-ComputeMotionGR
 2290              		.global	__aeabi_fadd
 2291              		.align	2
 2292 0e2c AFF30080 		.p2align 4,,15
 2293              		.global	AudioProcess
 2294              		.thumb
 2295              		.thumb_func
 2296              		.type	AudioProcess, %function
 2297              	AudioProcess:
 2298              	.LFB282:
 2299              		.loc 1 1265 0
 2300              		.cfi_startproc
 2301              		@ args = 0, pretend = 0, frame = 8
 2302              		@ frame_needed = 0, uses_anonymous_args = 0
 2303 0e30 10B5     		push	{r4, lr}
 2304              		.cfi_def_cfa_offset 8
 2305              		.cfi_offset 4, -8
 2306              		.cfi_offset 14, -4
 2307 0e32 82B0     		sub	sp, sp, #8
 2308              		.cfi_def_cfa_offset 16
 2309              		.loc 1 1269 0
 2310 0e34 1E4B     		ldr	r3, .L129
 2311 0e36 1B68     		ldr	r3, [r3]
 2312 0e38 03F00803 		and	r3, r3, #8
 2313 0e3c 002B     		cmp	r3, #0
 2314 0e3e 35D0     		beq	.L123
ARM GAS  /tmp/ccQpHQw3.s 			page 43


 2315              		.loc 1 1270 0
 2316 0e40 0023     		movs	r3, #0
 2317 0e42 0193     		str	r3, [sp, #4]
 2318 0e44 2FE0     		b	.L125
 2319              	.L128:
 2320              		.loc 1 1271 0
 2321 0e46 0023     		movs	r3, #0
 2322 0e48 0093     		str	r3, [sp]
 2323 0e4a 26E0     		b	.L126
 2324              	.L127:
 2325              		.loc 1 1272 0 discriminator 2
 2326 0e4c 194B     		ldr	r3, .L129+4
 2327 0e4e 009A     		ldr	r2, [sp]
 2328 0e50 53F82240 		ldr	r4, [r3, r2, lsl #2]	@ float
 2329 0e54 019A     		ldr	r2, [sp, #4]
 2330 0e56 009B     		ldr	r3, [sp]
 2331 0e58 1A44     		add	r2, r2, r3
 2332 0e5a 174B     		ldr	r3, .L129+8
 2333 0e5c 33F81230 		ldrh	r3, [r3, r2, lsl #1]
 2334 0e60 9BB2     		uxth	r3, r3
 2335 0e62 1BB2     		sxth	r3, r3
 2336 0e64 0199     		ldr	r1, [sp, #4]
 2337 0e66 009A     		ldr	r2, [sp]
 2338 0e68 1144     		add	r1, r1, r2
 2339 0e6a 134A     		ldr	r2, .L129+8
 2340 0e6c 32F81120 		ldrh	r2, [r2, r1, lsl #1]
 2341 0e70 92B2     		uxth	r2, r2
 2342 0e72 12B2     		sxth	r2, r2
 2343 0e74 02FB03F3 		mul	r3, r2, r3
 2344 0e78 1846     		mov	r0, r3
 2345 0e7a FFF7FEFF 		bl	__aeabi_i2f
 2346 0e7e 0346     		mov	r3, r0
 2347 0e80 2046     		mov	r0, r4
 2348 0e82 1946     		mov	r1, r3
 2349 0e84 FFF7FEFF 		bl	__aeabi_fadd
 2350 0e88 0346     		mov	r3, r0
 2351 0e8a 1946     		mov	r1, r3
 2352 0e8c 094B     		ldr	r3, .L129+4
 2353 0e8e 009A     		ldr	r2, [sp]
 2354 0e90 43F82210 		str	r1, [r3, r2, lsl #2]	@ float
 2355              		.loc 1 1271 0 discriminator 2
 2356 0e94 009B     		ldr	r3, [sp]
 2357 0e96 0133     		adds	r3, r3, #1
 2358 0e98 0093     		str	r3, [sp]
 2359              	.L126:
 2360              		.loc 1 1271 0 is_stmt 0 discriminator 1
 2361 0e9a 009B     		ldr	r3, [sp]
 2362 0e9c 002B     		cmp	r3, #0
 2363 0e9e D5DD     		ble	.L127
 2364              		.loc 1 1270 0 is_stmt 1
 2365 0ea0 019B     		ldr	r3, [sp, #4]
 2366 0ea2 0133     		adds	r3, r3, #1
 2367 0ea4 0193     		str	r3, [sp, #4]
 2368              	.L125:
 2369              		.loc 1 1270 0 is_stmt 0 discriminator 1
 2370 0ea6 019B     		ldr	r3, [sp, #4]
 2371 0ea8 0F2B     		cmp	r3, #15
ARM GAS  /tmp/ccQpHQw3.s 			page 44


 2372 0eaa CCDD     		ble	.L128
 2373              	.L123:
 2374              		.loc 1 1276 0 is_stmt 1
 2375 0eac 02B0     		add	sp, sp, #8
 2376              		@ sp needed
 2377 0eae 10BD     		pop	{r4, pc}
 2378              	.L130:
 2379              		.align	2
 2380              	.L129:
 2381 0eb0 00000000 		.word	ConnectionBleStatus
 2382 0eb4 00000000 		.word	RMS_Ch
 2383 0eb8 00000000 		.word	PCM_Buffer
 2384              		.cfi_endproc
 2385              	.LFE282:
 2386              		.size	AudioProcess, .-AudioProcess
 2387              		.global	__aeabi_fdiv
 2388              		.global	__aeabi_f2uiz
 2389              		.global	__aeabi_ui2f
 2390              		.align	2
 2391 0ebc AFF30080 		.p2align 4,,15
 2392              		.thumb
 2393              		.thumb_func
 2394              		.type	SendAudioLevelData, %function
 2395              	SendAudioLevelData:
 2396              	.LFB283:
 2397              		.loc 1 1284 0
 2398              		.cfi_startproc
 2399              		@ args = 0, pretend = 0, frame = 8
 2400              		@ frame_needed = 0, uses_anonymous_args = 0
 2401 0ec0 10B5     		push	{r4, lr}
 2402              		.cfi_def_cfa_offset 8
 2403              		.cfi_offset 4, -8
 2404              		.cfi_offset 14, -4
 2405 0ec2 82B0     		sub	sp, sp, #8
 2406              		.cfi_def_cfa_offset 16
 2407              		.loc 1 1288 0
 2408 0ec4 0023     		movs	r3, #0
 2409 0ec6 0193     		str	r3, [sp, #4]
 2410 0ec8 5CE0     		b	.L132
 2411              	.L133:
 2412              		.loc 1 1289 0 discriminator 2
 2413 0eca 019B     		ldr	r3, [sp, #4]
 2414 0ecc 5B00     		lsls	r3, r3, #1
 2415 0ece 02A9     		add	r1, sp, #8
 2416 0ed0 0B44     		add	r3, r3, r1
 2417 0ed2 0022     		movs	r2, #0
 2418 0ed4 23F8082C 		strh	r2, [r3, #-8]	@ movhi
 2419              		.loc 1 1291 0 discriminator 2
 2420 0ed8 2F4B     		ldr	r3, .L134
 2421 0eda 019A     		ldr	r2, [sp, #4]
 2422 0edc 53F82230 		ldr	r3, [r3, r2, lsl #2]	@ float
 2423 0ee0 1846     		mov	r0, r3
 2424 0ee2 2E49     		ldr	r1, .L134+4
 2425 0ee4 FFF7FEFF 		bl	__aeabi_fdiv
 2426 0ee8 0346     		mov	r3, r0
 2427 0eea 1946     		mov	r1, r3
 2428 0eec 2A4B     		ldr	r3, .L134
ARM GAS  /tmp/ccQpHQw3.s 			page 45


 2429 0eee 019A     		ldr	r2, [sp, #4]
 2430 0ef0 43F82210 		str	r1, [r3, r2, lsl #2]	@ float
 2431              		.loc 1 1293 0 discriminator 2
 2432 0ef4 284B     		ldr	r3, .L134
 2433 0ef6 019A     		ldr	r2, [sp, #4]
 2434 0ef8 53F82230 		ldr	r3, [r3, r2, lsl #2]	@ float
 2435 0efc 1846     		mov	r0, r3
 2436 0efe FFF7FEFF 		bl	log10f
 2437 0f02 0346     		mov	r3, r0
 2438 0f04 1846     		mov	r0, r3
 2439 0f06 2649     		ldr	r1, .L134+8
 2440 0f08 FFF7FEFF 		bl	__aeabi_fmul
 2441 0f0c 0346     		mov	r3, r0
 2442 0f0e 1846     		mov	r0, r3
 2443 0f10 2449     		ldr	r1, .L134+12
 2444 0f12 FFF7FEFF 		bl	__aeabi_fadd
 2445 0f16 0346     		mov	r3, r0
 2446 0f18 1846     		mov	r0, r3
 2447 0f1a 2349     		ldr	r1, .L134+16
 2448 0f1c FFF7FEFF 		bl	__aeabi_fmul
 2449 0f20 0346     		mov	r3, r0
 2450 0f22 1C46     		mov	r4, r3
 2451 0f24 214B     		ldr	r3, .L134+20
 2452 0f26 019A     		ldr	r2, [sp, #4]
 2453 0f28 53F82230 		ldr	r3, [r3, r2, lsl #2]	@ float
 2454 0f2c 1846     		mov	r0, r3
 2455 0f2e 2049     		ldr	r1, .L134+24
 2456 0f30 FFF7FEFF 		bl	__aeabi_fmul
 2457 0f34 0346     		mov	r3, r0
 2458 0f36 2046     		mov	r0, r4
 2459 0f38 1946     		mov	r1, r3
 2460 0f3a FFF7FEFF 		bl	__aeabi_fadd
 2461 0f3e 0346     		mov	r3, r0
 2462 0f40 1846     		mov	r0, r3
 2463 0f42 FFF7FEFF 		bl	__aeabi_f2uiz
 2464 0f46 0346     		mov	r3, r0
 2465 0f48 9AB2     		uxth	r2, r3
 2466 0f4a 019B     		ldr	r3, [sp, #4]
 2467 0f4c 5B00     		lsls	r3, r3, #1
 2468 0f4e 02A9     		add	r1, sp, #8
 2469 0f50 0B44     		add	r3, r3, r1
 2470 0f52 23F8082C 		strh	r2, [r3, #-8]	@ movhi
 2471              		.loc 1 1294 0 discriminator 2
 2472 0f56 019B     		ldr	r3, [sp, #4]
 2473 0f58 5B00     		lsls	r3, r3, #1
 2474 0f5a 02AA     		add	r2, sp, #8
 2475 0f5c 1344     		add	r3, r3, r2
 2476 0f5e 33F8083C 		ldrh	r3, [r3, #-8]
 2477 0f62 1846     		mov	r0, r3
 2478 0f64 FFF7FEFF 		bl	__aeabi_ui2f
 2479 0f68 0146     		mov	r1, r0
 2480 0f6a 104B     		ldr	r3, .L134+20
 2481 0f6c 019A     		ldr	r2, [sp, #4]
 2482 0f6e 43F82210 		str	r1, [r3, r2, lsl #2]	@ float
 2483              		.loc 1 1295 0 discriminator 2
 2484 0f72 094B     		ldr	r3, .L134
 2485 0f74 019A     		ldr	r2, [sp, #4]
ARM GAS  /tmp/ccQpHQw3.s 			page 46


 2486 0f76 4FF00001 		mov	r1, #0
 2487 0f7a 43F82210 		str	r1, [r3, r2, lsl #2]	@ float
 2488              		.loc 1 1288 0 discriminator 2
 2489 0f7e 019B     		ldr	r3, [sp, #4]
 2490 0f80 0133     		adds	r3, r3, #1
 2491 0f82 0193     		str	r3, [sp, #4]
 2492              	.L132:
 2493              		.loc 1 1288 0 is_stmt 0 discriminator 1
 2494 0f84 019B     		ldr	r3, [sp, #4]
 2495 0f86 002B     		cmp	r3, #0
 2496 0f88 9FDD     		ble	.L133
 2497              		.loc 1 1298 0 is_stmt 1
 2498 0f8a 6B46     		mov	r3, sp
 2499 0f8c 1846     		mov	r0, r3
 2500 0f8e FFF7FEFF 		bl	AudioLevel_Update
 2501              		.loc 1 1299 0
 2502 0f92 02B0     		add	sp, sp, #8
 2503              		@ sp needed
 2504 0f94 10BD     		pop	{r4, pc}
 2505              	.L135:
 2506 0f96 00BF     		.align	2
 2507              	.L134:
 2508 0f98 00000000 		.word	RMS_Ch
 2509 0f9c 00004844 		.word	1145569280
 2510 0fa0 00002041 		.word	1092616192
 2511 0fa4 2C87ED41 		.word	1106085676
 2512 0fa8 9A99993E 		.word	1050253722
 2513 0fac 00000000 		.word	DBNOISE_Value_Old_Ch
 2514 0fb0 3333333F 		.word	1060320051
 2515              		.cfi_endproc
 2516              	.LFE283:
 2517              		.size	SendAudioLevelData, .-SendAudioLevelData
 2518              		.align	2
 2519 0fb4 AFF30080 		.p2align 4,,15
 2519      AFF30080 
 2519      AFF30080 
 2520              		.global	BSP_AUDIO_IN_HalfTransfer_CallBack
 2521              		.thumb
 2522              		.thumb_func
 2523              		.type	BSP_AUDIO_IN_HalfTransfer_CallBack, %function
 2524              	BSP_AUDIO_IN_HalfTransfer_CallBack:
 2525              	.LFB284:
 2526              		.loc 1 1321 0
 2527              		.cfi_startproc
 2528              		@ args = 0, pretend = 0, frame = 0
 2529              		@ frame_needed = 0, uses_anonymous_args = 0
 2530 0fc0 08B5     		push	{r3, lr}
 2531              		.cfi_def_cfa_offset 8
 2532              		.cfi_offset 3, -8
 2533              		.cfi_offset 14, -4
 2534              		.loc 1 1328 0
 2535 0fc2 104B     		ldr	r3, .L139
 2536 0fc4 1B68     		ldr	r3, [r3]
 2537 0fc6 03F00803 		and	r3, r3, #8
 2538 0fca 002B     		cmp	r3, #0
 2539 0fcc 01D0     		beq	.L137
 2540              		.loc 1 1330 0
ARM GAS  /tmp/ccQpHQw3.s 			page 47


 2541 0fce FFF7FEFF 		bl	AudioProcess
 2542              	.L137:
 2543              		.loc 1 1339 0
 2544 0fd2 0C4B     		ldr	r3, .L139
 2545 0fd4 1B68     		ldr	r3, [r3]
 2546 0fd6 03F40053 		and	r3, r3, #8192
 2547 0fda 002B     		cmp	r3, #0
 2548 0fdc 0CBF     		ite	eq
 2549 0fde 0023     		moveq	r3, #0
 2550 0fe0 0123     		movne	r3, #1
 2551 0fe2 DAB2     		uxtb	r2, r3
 2552 0fe4 074B     		ldr	r3, .L139
 2553 0fe6 1B68     		ldr	r3, [r3]
 2554 0fe8 03F48043 		and	r3, r3, #16384
 2555 0fec 002B     		cmp	r3, #0
 2556 0fee 0CBF     		ite	eq
 2557 0ff0 0023     		moveq	r3, #0
 2558 0ff2 0123     		movne	r3, #1
 2559 0ff4 DBB2     		uxtb	r3, r3
 2560 0ff6 1340     		ands	r3, r3, r2
 2561 0ff8 DBB2     		uxtb	r3, r3
 2562 0ffa 002B     		cmp	r3, #0
 2563 0ffc 01D0     		beq	.L136
 2564              		.loc 1 1341 0
 2565 0ffe FFF7FEFF 		bl	AudioProcess_BV
 2566              	.L136:
 2567              		.loc 1 1344 0
 2568 1002 08BD     		pop	{r3, pc}
 2569              	.L140:
 2570              		.align	2
 2571              	.L139:
 2572 1004 00000000 		.word	ConnectionBleStatus
 2573              		.cfi_endproc
 2574              	.LFE284:
 2575              		.size	BSP_AUDIO_IN_HalfTransfer_CallBack, .-BSP_AUDIO_IN_HalfTransfer_CallBack
 2576              		.align	2
 2577 1008 AFF30080 		.p2align 4,,15
 2577      AFF30080 
 2578              		.global	BSP_AUDIO_IN_TransferComplete_CallBack
 2579              		.thumb
 2580              		.thumb_func
 2581              		.type	BSP_AUDIO_IN_TransferComplete_CallBack, %function
 2582              	BSP_AUDIO_IN_TransferComplete_CallBack:
 2583              	.LFB285:
 2584              		.loc 1 1352 0
 2585              		.cfi_startproc
 2586              		@ args = 0, pretend = 0, frame = 0
 2587              		@ frame_needed = 0, uses_anonymous_args = 0
 2588 1010 08B5     		push	{r3, lr}
 2589              		.cfi_def_cfa_offset 8
 2590              		.cfi_offset 3, -8
 2591              		.cfi_offset 14, -4
 2592              		.loc 1 1359 0
 2593 1012 104B     		ldr	r3, .L144
 2594 1014 1B68     		ldr	r3, [r3]
 2595 1016 03F00803 		and	r3, r3, #8
 2596 101a 002B     		cmp	r3, #0
ARM GAS  /tmp/ccQpHQw3.s 			page 48


 2597 101c 01D0     		beq	.L142
 2598              		.loc 1 1361 0
 2599 101e FFF7FEFF 		bl	AudioProcess
 2600              	.L142:
 2601              		.loc 1 1370 0
 2602 1022 0C4B     		ldr	r3, .L144
 2603 1024 1B68     		ldr	r3, [r3]
 2604 1026 03F40053 		and	r3, r3, #8192
 2605 102a 002B     		cmp	r3, #0
 2606 102c 0CBF     		ite	eq
 2607 102e 0023     		moveq	r3, #0
 2608 1030 0123     		movne	r3, #1
 2609 1032 DAB2     		uxtb	r2, r3
 2610 1034 074B     		ldr	r3, .L144
 2611 1036 1B68     		ldr	r3, [r3]
 2612 1038 03F48043 		and	r3, r3, #16384
 2613 103c 002B     		cmp	r3, #0
 2614 103e 0CBF     		ite	eq
 2615 1040 0023     		moveq	r3, #0
 2616 1042 0123     		movne	r3, #1
 2617 1044 DBB2     		uxtb	r3, r3
 2618 1046 1340     		ands	r3, r3, r2
 2619 1048 DBB2     		uxtb	r3, r3
 2620 104a 002B     		cmp	r3, #0
 2621 104c 01D0     		beq	.L141
 2622              		.loc 1 1372 0
 2623 104e FFF7FEFF 		bl	AudioProcess_BV
 2624              	.L141:
 2625              		.loc 1 1375 0
 2626 1052 08BD     		pop	{r3, pc}
 2627              	.L145:
 2628              		.align	2
 2629              	.L144:
 2630 1054 00000000 		.word	ConnectionBleStatus
 2631              		.cfi_endproc
 2632              	.LFE285:
 2633              		.size	BSP_AUDIO_IN_TransferComplete_CallBack, .-BSP_AUDIO_IN_TransferComplete_CallBack
 2634              		.section	.rodata
 2635 0085 000000   		.align	2
 2636              	.LC7:
 2637 0088 53656E64 		.ascii	"Sending: \000"
 2637      696E673A 
 2637      2000
 2638 0092 0000     		.align	2
 2639              	.LC8:
 2640 0094 43616C3D 		.ascii	"Cal=%d \000"
 2640      25642000 
 2641              		.align	2
 2642              	.LC9:
 2643 009c 42617474 		.ascii	"Battery Report \000"
 2643      65727920 
 2643      5265706F 
 2643      72742000 
 2644              		.global	__aeabi_fsub
 2645              		.align	2
 2646              	.LC10:
 2647 00ac 50726573 		.ascii	"Press=%ld \000"
ARM GAS  /tmp/ccQpHQw3.s 			page 49


 2647      733D256C 
 2647      642000
 2648 00b7 00       		.align	2
 2649              	.LC11:
 2650 00b8 48756D3D 		.ascii	"Hum=%d \000"
 2650      25642000 
 2651              		.align	2
 2652              	.LC12:
 2653 00c0 54656D70 		.ascii	"Temp=%d \000"
 2653      3D256420 
 2653      00
 2654 00c9 000000   		.align	2
 2655              	.LC13:
 2656 00cc 54656D70 		.ascii	"Temp2=%d \000"
 2656      323D2564 
 2656      2000
 2657 00d6 0000     		.align	2
 2658              	.LC14:
 2659 00d8 54656D70 		.ascii	"Temp1=%d \000"
 2659      313D2564 
 2659      2000
 2660 00e2 0000     		.align	2
 2661              	.LC15:
 2662 00e4 0D0A00   		.ascii	"\015\012\000"
 2663              		.text
 2664              		.align	2
 2665 1058 AFF30080 		.p2align 4,,15
 2665      AFF30080 
 2666              		.thumb
 2667              		.thumb_func
 2668              		.type	SendEnvironmentalData, %function
 2669              	SendEnvironmentalData:
 2670              	.LFB286:
 2671              		.loc 1 1383 0
 2672              		.cfi_startproc
 2673              		@ args = 0, pretend = 0, frame = 32
 2674              		@ frame_needed = 0, uses_anonymous_args = 0
 2675 1060 10B5     		push	{r4, lr}
 2676              		.cfi_def_cfa_offset 8
 2677              		.cfi_offset 4, -8
 2678              		.cfi_offset 14, -4
 2679 1062 88B0     		sub	sp, sp, #32
 2680              		.cfi_def_cfa_offset 40
 2681              		.loc 1 1387 0
 2682 1064 234B     		ldr	r3, .L161
 2683 1066 1B68     		ldr	r3, [r3]
 2684 1068 03F48063 		and	r3, r3, #1024
 2685 106c 002B     		cmp	r3, #0
 2686 106e 0ED0     		beq	.L147
 2687              		.loc 1 1388 0
 2688 1070 214B     		ldr	r3, .L161+4
 2689 1072 224A     		ldr	r2, .L161+8
 2690 1074 07CA     		ldmia	r2, {r0, r1, r2}
 2691 1076 03C3     		stmia	r3!, {r0, r1}
 2692 1078 1A80     		strh	r2, [r3]	@ movhi
 2693 107a 214B     		ldr	r3, .L161+12
 2694 107c 0922     		movs	r2, #9
ARM GAS  /tmp/ccQpHQw3.s 			page 50


 2695 107e 1A60     		str	r2, [r3]
 2696              		.loc 1 1389 0
 2697 1080 1F4B     		ldr	r3, .L161+12
 2698 1082 1B68     		ldr	r3, [r3]
 2699 1084 DBB2     		uxtb	r3, r3
 2700 1086 1C48     		ldr	r0, .L161+4
 2701 1088 1946     		mov	r1, r3
 2702 108a FFF7FEFF 		bl	Term_Update
 2703              	.L147:
 2704              		.loc 1 1396 0
 2705 108e 1D4B     		ldr	r3, .L161+16
 2706 1090 1B68     		ldr	r3, [r3]
 2707 1092 002B     		cmp	r3, #0
 2708 1094 3ED0     		beq	.L148
 2709              		.loc 1 1397 0
 2710 1096 1C4B     		ldr	r3, .L161+20
 2711 1098 1B78     		ldrb	r3, [r3]	@ zero_extendqisi2
 2712 109a 002B     		cmp	r3, #0
 2713 109c 01D0     		beq	.L149
 2714              		.loc 1 1397 0 is_stmt 0 discriminator 1
 2715 109e 6423     		movs	r3, #100
 2716 10a0 00E0     		b	.L150
 2717              	.L149:
 2718              		.loc 1 1397 0 discriminator 2
 2719 10a2 0023     		movs	r3, #0
 2720              	.L150:
 2721              		.loc 1 1397 0 discriminator 3
 2722 10a4 4FF48070 		mov	r0, #256
 2723 10a8 FF21     		movs	r1, #255
 2724 10aa 1A46     		mov	r2, r3
 2725 10ac FFF7FEFF 		bl	Config_Notify
 2726              		.loc 1 1399 0 is_stmt 1 discriminator 3
 2727 10b0 104B     		ldr	r3, .L161
 2728 10b2 1B68     		ldr	r3, [r3]
 2729 10b4 03F48063 		and	r3, r3, #1024
 2730 10b8 002B     		cmp	r3, #0
 2731 10ba 10D0     		beq	.L151
 2732              		.loc 1 1400 0
 2733 10bc 124B     		ldr	r3, .L161+20
 2734 10be 1B78     		ldrb	r3, [r3]	@ zero_extendqisi2
 2735 10c0 0D48     		ldr	r0, .L161+4
 2736 10c2 1249     		ldr	r1, .L161+24
 2737 10c4 1A46     		mov	r2, r3
 2738 10c6 FFF7FEFF 		bl	sprintf
 2739 10ca 0246     		mov	r2, r0
 2740 10cc 0C4B     		ldr	r3, .L161+12
 2741 10ce 1A60     		str	r2, [r3]
 2742              		.loc 1 1401 0
 2743 10d0 0B4B     		ldr	r3, .L161+12
 2744 10d2 1B68     		ldr	r3, [r3]
 2745 10d4 DBB2     		uxtb	r3, r3
 2746 10d6 0848     		ldr	r0, .L161+4
 2747 10d8 1946     		mov	r1, r3
 2748 10da FFF7FEFF 		bl	Term_Update
 2749              	.L151:
 2750              		.loc 1 1406 0
 2751 10de 094B     		ldr	r3, .L161+16
ARM GAS  /tmp/ccQpHQw3.s 			page 51


 2752 10e0 0022     		movs	r2, #0
 2753 10e2 1A60     		str	r2, [r3]
 2754              		.loc 1 1409 0
 2755 10e4 084B     		ldr	r3, .L161+20
 2756 10e6 1B78     		ldrb	r3, [r3]	@ zero_extendqisi2
 2757 10e8 002B     		cmp	r3, #0
 2758 10ea 11D0     		beq	.L152
 2759              		.loc 1 1410 0
 2760 10ec FFF7FEFF 		bl	LedOnTargetPlatform
 2761 10f0 10E0     		b	.L148
 2762              	.L162:
 2763 10f2 00BF     		.align	2
 2764              	.L161:
 2765 10f4 00000000 		.word	ConnectionBleStatus
 2766 10f8 00000000 		.word	BufferToWrite
 2767 10fc 88000000 		.word	.LC7
 2768 1100 00000000 		.word	BytesToWrite
 2769 1104 00000000 		.word	FirstConnectionConfig
 2770 1108 36000000 		.word	isCal
 2771 110c 94000000 		.word	.LC8
 2772              	.L152:
 2773              		.loc 1 1412 0
 2774 1110 FFF7FEFF 		bl	LedOffTargetPlatform
 2775              	.L148:
 2776              		.loc 1 1417 0
 2777 1114 A14B     		ldr	r3, .L163
 2778 1116 1B68     		ldr	r3, [r3]
 2779 1118 03F40043 		and	r3, r3, #32768
 2780 111c 002B     		cmp	r3, #0
 2781 111e 17D0     		beq	.L153
 2782              		.loc 1 1418 0
 2783 1120 FFF7FEFF 		bl	GG_Update
 2784              		.loc 1 1420 0
 2785 1124 9D4B     		ldr	r3, .L163
 2786 1126 1B68     		ldr	r3, [r3]
 2787 1128 03F48063 		and	r3, r3, #1024
 2788 112c 002B     		cmp	r3, #0
 2789 112e 0FD0     		beq	.L153
 2790              		.loc 1 1421 0
 2791 1130 9B4A     		ldr	r2, .L163+4
 2792 1132 9C4B     		ldr	r3, .L163+8
 2793 1134 1446     		mov	r4, r2
 2794 1136 0FCB     		ldmia	r3, {r0, r1, r2, r3}
 2795 1138 84E80F00 		stmia	r4, {r0, r1, r2, r3}
 2796 113c 9A4B     		ldr	r3, .L163+12
 2797 113e 0F22     		movs	r2, #15
 2798 1140 1A60     		str	r2, [r3]
 2799              		.loc 1 1422 0
 2800 1142 994B     		ldr	r3, .L163+12
 2801 1144 1B68     		ldr	r3, [r3]
 2802 1146 DBB2     		uxtb	r3, r3
 2803 1148 9548     		ldr	r0, .L163+4
 2804 114a 1946     		mov	r1, r3
 2805 114c FFF7FEFF 		bl	Term_Update
 2806              	.L153:
 2807              		.loc 1 1431 0
 2808 1150 924B     		ldr	r3, .L163
ARM GAS  /tmp/ccQpHQw3.s 			page 52


 2809 1152 1B68     		ldr	r3, [r3]
 2810 1154 03F00103 		and	r3, r3, #1
 2811 1158 002B     		cmp	r3, #0
 2812 115a 00F0C381 		beq	.L154
 2813              	.LBB26:
 2814              		.loc 1 1433 0
 2815 115e 0023     		movs	r3, #0
 2816 1160 0793     		str	r3, [sp, #28]
 2817              		.loc 1 1434 0
 2818 1162 0023     		movs	r3, #0
 2819 1164 ADF81A30 		strh	r3, [sp, #26]	@ movhi
 2820              		.loc 1 1435 0
 2821 1168 0023     		movs	r3, #0
 2822 116a ADF81830 		strh	r3, [sp, #24]	@ movhi
 2823 116e 0023     		movs	r3, #0
 2824 1170 ADF81630 		strh	r3, [sp, #22]	@ movhi
 2825              		.loc 1 1438 0
 2826 1174 8D4B     		ldr	r3, .L163+16
 2827 1176 1B69     		ldr	r3, [r3, #16]
 2828 1178 002B     		cmp	r3, #0
 2829 117a 47D0     		beq	.L155
 2830              		.loc 1 1439 0
 2831 117c 8B4B     		ldr	r3, .L163+16
 2832 117e 1A69     		ldr	r2, [r3, #16]
 2833 1180 0DF10B03 		add	r3, sp, #11
 2834 1184 1046     		mov	r0, r2
 2835 1186 1946     		mov	r1, r3
 2836 1188 FFF7FEFF 		bl	BSP_PRESSURE_IsInitialized
 2837 118c 0346     		mov	r3, r0
 2838 118e 002B     		cmp	r3, #0
 2839 1190 3CD1     		bne	.L155
 2840              		.loc 1 1440 0
 2841 1192 864B     		ldr	r3, .L163+16
 2842 1194 1A69     		ldr	r2, [r3, #16]
 2843 1196 01AB     		add	r3, sp, #4
 2844 1198 1046     		mov	r0, r2
 2845 119a 1946     		mov	r1, r3
 2846 119c FFF7FEFF 		bl	BSP_PRESSURE_Get_Press
 2847              		.loc 1 1441 0
 2848 11a0 019B     		ldr	r3, [sp, #4]	@ float
 2849 11a2 1846     		mov	r0, r3
 2850 11a4 FFF7FEFF 		bl	__aeabi_f2iz
 2851 11a8 0346     		mov	r3, r0
 2852 11aa 0493     		str	r3, [sp, #16]
 2853 11ac 019C     		ldr	r4, [sp, #4]	@ float
 2854 11ae 0498     		ldr	r0, [sp, #16]
 2855 11b0 FFF7FEFF 		bl	__aeabi_i2f
 2856 11b4 0346     		mov	r3, r0
 2857 11b6 2046     		mov	r0, r4
 2858 11b8 1946     		mov	r1, r3
 2859 11ba FFF7FEFF 		bl	__aeabi_fsub
 2860 11be 0346     		mov	r3, r0
 2861 11c0 1846     		mov	r0, r3
 2862 11c2 7B49     		ldr	r1, .L163+20
 2863 11c4 FFF7FEFF 		bl	__aeabi_fmul
 2864 11c8 0346     		mov	r3, r0
 2865 11ca 1846     		mov	r0, r3
ARM GAS  /tmp/ccQpHQw3.s 			page 53


 2866 11cc FFF7FEFF 		bl	__aeabi_f2iz
 2867 11d0 0346     		mov	r3, r0
 2868 11d2 0393     		str	r3, [sp, #12]
 2869              		.loc 1 1442 0
 2870 11d4 049B     		ldr	r3, [sp, #16]
 2871 11d6 6422     		movs	r2, #100
 2872 11d8 02FB03F2 		mul	r2, r2, r3
 2873 11dc 039B     		ldr	r3, [sp, #12]
 2874 11de 1344     		add	r3, r3, r2
 2875 11e0 0793     		str	r3, [sp, #28]
 2876              		.loc 1 1444 0
 2877 11e2 6E4B     		ldr	r3, .L163
 2878 11e4 1B68     		ldr	r3, [r3]
 2879 11e6 03F48063 		and	r3, r3, #1024
 2880 11ea 002B     		cmp	r3, #0
 2881 11ec 0ED0     		beq	.L155
 2882              		.loc 1 1445 0
 2883 11ee 6C48     		ldr	r0, .L163+4
 2884 11f0 7049     		ldr	r1, .L163+24
 2885 11f2 079A     		ldr	r2, [sp, #28]
 2886 11f4 FFF7FEFF 		bl	sprintf
 2887 11f8 0246     		mov	r2, r0
 2888 11fa 6B4B     		ldr	r3, .L163+12
 2889 11fc 1A60     		str	r2, [r3]
 2890              		.loc 1 1446 0
 2891 11fe 6A4B     		ldr	r3, .L163+12
 2892 1200 1B68     		ldr	r3, [r3]
 2893 1202 DBB2     		uxtb	r3, r3
 2894 1204 6648     		ldr	r0, .L163+4
 2895 1206 1946     		mov	r1, r3
 2896 1208 FFF7FEFF 		bl	Term_Update
 2897              	.L155:
 2898              		.loc 1 1454 0
 2899 120c 674B     		ldr	r3, .L163+16
 2900 120e 5B69     		ldr	r3, [r3, #20]
 2901 1210 002B     		cmp	r3, #0
 2902 1212 4ED0     		beq	.L156
 2903              		.loc 1 1455 0
 2904 1214 654B     		ldr	r3, .L163+16
 2905 1216 5A69     		ldr	r2, [r3, #20]
 2906 1218 0DF10B03 		add	r3, sp, #11
 2907 121c 1046     		mov	r0, r2
 2908 121e 1946     		mov	r1, r3
 2909 1220 FFF7FEFF 		bl	BSP_HUMIDITY_IsInitialized
 2910 1224 0346     		mov	r3, r0
 2911 1226 002B     		cmp	r3, #0
 2912 1228 43D1     		bne	.L156
 2913              		.loc 1 1456 0
 2914 122a 604B     		ldr	r3, .L163+16
 2915 122c 5A69     		ldr	r2, [r3, #20]
 2916 122e 01AB     		add	r3, sp, #4
 2917 1230 1046     		mov	r0, r2
 2918 1232 1946     		mov	r1, r3
 2919 1234 FFF7FEFF 		bl	BSP_HUMIDITY_Get_Hum
 2920              		.loc 1 1457 0
 2921 1238 019B     		ldr	r3, [sp, #4]	@ float
 2922 123a 1846     		mov	r0, r3
ARM GAS  /tmp/ccQpHQw3.s 			page 54


 2923 123c FFF7FEFF 		bl	__aeabi_f2iz
 2924 1240 0346     		mov	r3, r0
 2925 1242 0493     		str	r3, [sp, #16]
 2926 1244 019C     		ldr	r4, [sp, #4]	@ float
 2927 1246 0498     		ldr	r0, [sp, #16]
 2928 1248 FFF7FEFF 		bl	__aeabi_i2f
 2929 124c 0346     		mov	r3, r0
 2930 124e 2046     		mov	r0, r4
 2931 1250 1946     		mov	r1, r3
 2932 1252 FFF7FEFF 		bl	__aeabi_fsub
 2933 1256 0346     		mov	r3, r0
 2934 1258 1846     		mov	r0, r3
 2935 125a 5749     		ldr	r1, .L163+28
 2936 125c FFF7FEFF 		bl	__aeabi_fmul
 2937 1260 0346     		mov	r3, r0
 2938 1262 1846     		mov	r0, r3
 2939 1264 FFF7FEFF 		bl	__aeabi_f2iz
 2940 1268 0346     		mov	r3, r0
 2941 126a 0393     		str	r3, [sp, #12]
 2942              		.loc 1 1458 0
 2943 126c 049B     		ldr	r3, [sp, #16]
 2944 126e 9BB2     		uxth	r3, r3
 2945 1270 1A46     		mov	r2, r3	@ movhi
 2946 1272 9200     		lsls	r2, r2, #2
 2947 1274 1344     		add	r3, r3, r2
 2948 1276 5B00     		lsls	r3, r3, #1
 2949 1278 9AB2     		uxth	r2, r3
 2950 127a 039B     		ldr	r3, [sp, #12]
 2951 127c 9BB2     		uxth	r3, r3
 2952 127e 1344     		add	r3, r3, r2
 2953 1280 ADF81A30 		strh	r3, [sp, #26]	@ movhi
 2954              		.loc 1 1460 0
 2955 1284 454B     		ldr	r3, .L163
 2956 1286 1B68     		ldr	r3, [r3]
 2957 1288 03F48063 		and	r3, r3, #1024
 2958 128c 002B     		cmp	r3, #0
 2959 128e 10D0     		beq	.L156
 2960              		.loc 1 1461 0
 2961 1290 BDF81A30 		ldrh	r3, [sp, #26]
 2962 1294 4248     		ldr	r0, .L163+4
 2963 1296 4949     		ldr	r1, .L163+32
 2964 1298 1A46     		mov	r2, r3
 2965 129a FFF7FEFF 		bl	sprintf
 2966 129e 0246     		mov	r2, r0
 2967 12a0 414B     		ldr	r3, .L163+12
 2968 12a2 1A60     		str	r2, [r3]
 2969              		.loc 1 1462 0
 2970 12a4 404B     		ldr	r3, .L163+12
 2971 12a6 1B68     		ldr	r3, [r3]
 2972 12a8 DBB2     		uxtb	r3, r3
 2973 12aa 3D48     		ldr	r0, .L163+4
 2974 12ac 1946     		mov	r1, r3
 2975 12ae FFF7FEFF 		bl	Term_Update
 2976              	.L156:
 2977              		.loc 1 1470 0
 2978 12b2 3E4B     		ldr	r3, .L163+16
 2979 12b4 5B68     		ldr	r3, [r3, #4]
ARM GAS  /tmp/ccQpHQw3.s 			page 55


 2980 12b6 022B     		cmp	r3, #2
 2981 12b8 40F0B780 		bne	.L157
 2982              		.loc 1 1471 0
 2983 12bc 3B4B     		ldr	r3, .L163+16
 2984 12be 9A68     		ldr	r2, [r3, #8]
 2985 12c0 0DF10B03 		add	r3, sp, #11
 2986 12c4 1046     		mov	r0, r2
 2987 12c6 1946     		mov	r1, r3
 2988 12c8 FFF7FEFF 		bl	BSP_TEMPERATURE_IsInitialized
 2989 12cc 0346     		mov	r3, r0
 2990 12ce 002B     		cmp	r3, #0
 2991 12d0 44D1     		bne	.L158
 2992              		.loc 1 1472 0
 2993 12d2 364B     		ldr	r3, .L163+16
 2994 12d4 9A68     		ldr	r2, [r3, #8]
 2995 12d6 01AB     		add	r3, sp, #4
 2996 12d8 1046     		mov	r0, r2
 2997 12da 1946     		mov	r1, r3
 2998 12dc FFF7FEFF 		bl	BSP_TEMPERATURE_Get_Temp
 2999              		.loc 1 1473 0
 3000 12e0 019B     		ldr	r3, [sp, #4]	@ float
 3001 12e2 1846     		mov	r0, r3
 3002 12e4 FFF7FEFF 		bl	__aeabi_f2iz
 3003 12e8 0346     		mov	r3, r0
 3004 12ea 0493     		str	r3, [sp, #16]
 3005 12ec 019C     		ldr	r4, [sp, #4]	@ float
 3006 12ee 0498     		ldr	r0, [sp, #16]
 3007 12f0 FFF7FEFF 		bl	__aeabi_i2f
 3008 12f4 0346     		mov	r3, r0
 3009 12f6 2046     		mov	r0, r4
 3010 12f8 1946     		mov	r1, r3
 3011 12fa FFF7FEFF 		bl	__aeabi_fsub
 3012 12fe 0346     		mov	r3, r0
 3013 1300 1846     		mov	r0, r3
 3014 1302 2D49     		ldr	r1, .L163+28
 3015 1304 FFF7FEFF 		bl	__aeabi_fmul
 3016 1308 0346     		mov	r3, r0
 3017 130a 1846     		mov	r0, r3
 3018 130c FFF7FEFF 		bl	__aeabi_f2iz
 3019 1310 0346     		mov	r3, r0
 3020 1312 0393     		str	r3, [sp, #12]
 3021              		.loc 1 1474 0
 3022 1314 049B     		ldr	r3, [sp, #16]
 3023 1316 9BB2     		uxth	r3, r3
 3024 1318 1A46     		mov	r2, r3	@ movhi
 3025 131a 9200     		lsls	r2, r2, #2
 3026 131c 1344     		add	r3, r3, r2
 3027 131e 5B00     		lsls	r3, r3, #1
 3028 1320 9AB2     		uxth	r2, r3
 3029 1322 039B     		ldr	r3, [sp, #12]
 3030 1324 9BB2     		uxth	r3, r3
 3031 1326 1344     		add	r3, r3, r2
 3032 1328 9BB2     		uxth	r3, r3
 3033 132a ADF81630 		strh	r3, [sp, #22]	@ movhi
 3034              		.loc 1 1476 0
 3035 132e 1B4B     		ldr	r3, .L163
 3036 1330 1B68     		ldr	r3, [r3]
ARM GAS  /tmp/ccQpHQw3.s 			page 56


 3037 1332 03F48063 		and	r3, r3, #1024
 3038 1336 002B     		cmp	r3, #0
 3039 1338 10D0     		beq	.L158
 3040              		.loc 1 1477 0
 3041 133a BDF91630 		ldrsh	r3, [sp, #22]
 3042 133e 1848     		ldr	r0, .L163+4
 3043 1340 1F49     		ldr	r1, .L163+36
 3044 1342 1A46     		mov	r2, r3
 3045 1344 FFF7FEFF 		bl	sprintf
 3046 1348 0246     		mov	r2, r0
 3047 134a 174B     		ldr	r3, .L163+12
 3048 134c 1A60     		str	r2, [r3]
 3049              		.loc 1 1478 0
 3050 134e 164B     		ldr	r3, .L163+12
 3051 1350 1B68     		ldr	r3, [r3]
 3052 1352 DBB2     		uxtb	r3, r3
 3053 1354 1248     		ldr	r0, .L163+4
 3054 1356 1946     		mov	r1, r3
 3055 1358 FFF7FEFF 		bl	Term_Update
 3056              	.L158:
 3057              		.loc 1 1485 0
 3058 135c 134B     		ldr	r3, .L163+16
 3059 135e DA68     		ldr	r2, [r3, #12]
 3060 1360 0DF10B03 		add	r3, sp, #11
 3061 1364 1046     		mov	r0, r2
 3062 1366 1946     		mov	r1, r3
 3063 1368 FFF7FEFF 		bl	BSP_TEMPERATURE_IsInitialized
 3064 136c 0346     		mov	r3, r0
 3065 136e 002B     		cmp	r3, #0
 3066 1370 40F0AF80 		bne	.L159
 3067              		.loc 1 1486 0
 3068 1374 0D4B     		ldr	r3, .L163+16
 3069 1376 DA68     		ldr	r2, [r3, #12]
 3070 1378 01AB     		add	r3, sp, #4
 3071 137a 1046     		mov	r0, r2
 3072 137c 1946     		mov	r1, r3
 3073 137e FFF7FEFF 		bl	BSP_TEMPERATURE_Get_Temp
 3074              		.loc 1 1487 0
 3075 1382 019B     		ldr	r3, [sp, #4]	@ float
 3076 1384 1846     		mov	r0, r3
 3077 1386 FFF7FEFF 		bl	__aeabi_f2iz
 3078 138a 0346     		mov	r3, r0
 3079 138c 0493     		str	r3, [sp, #16]
 3080 138e 019C     		ldr	r4, [sp, #4]	@ float
 3081 1390 0498     		ldr	r0, [sp, #16]
 3082 1392 FFF7FEFF 		bl	__aeabi_i2f
 3083 1396 0346     		mov	r3, r0
 3084 1398 2046     		mov	r0, r4
 3085 139a 13E0     		b	.L164
 3086              	.L165:
 3087              		.align	2
 3088              	.L163:
 3089 139c 00000000 		.word	ConnectionBleStatus
 3090 13a0 00000000 		.word	BufferToWrite
 3091 13a4 9C000000 		.word	.LC9
 3092 13a8 00000000 		.word	BytesToWrite
 3093 13ac 00000000 		.word	TargetBoardFeatures
ARM GAS  /tmp/ccQpHQw3.s 			page 57


 3094 13b0 0000C842 		.word	1120403456
 3095 13b4 AC000000 		.word	.LC10
 3096 13b8 00002041 		.word	1092616192
 3097 13bc B8000000 		.word	.LC11
 3098 13c0 C0000000 		.word	.LC12
 3099              	.L164:
 3100 13c4 1946     		mov	r1, r3
 3101 13c6 FFF7FEFF 		bl	__aeabi_fsub
 3102 13ca 0346     		mov	r3, r0
 3103 13cc 1846     		mov	r0, r3
 3104 13ce 5249     		ldr	r1, .L166
 3105 13d0 FFF7FEFF 		bl	__aeabi_fmul
 3106 13d4 0346     		mov	r3, r0
 3107 13d6 1846     		mov	r0, r3
 3108 13d8 FFF7FEFF 		bl	__aeabi_f2iz
 3109 13dc 0346     		mov	r3, r0
 3110 13de 0393     		str	r3, [sp, #12]
 3111              		.loc 1 1488 0
 3112 13e0 049B     		ldr	r3, [sp, #16]
 3113 13e2 9BB2     		uxth	r3, r3
 3114 13e4 1A46     		mov	r2, r3	@ movhi
 3115 13e6 9200     		lsls	r2, r2, #2
 3116 13e8 1344     		add	r3, r3, r2
 3117 13ea 5B00     		lsls	r3, r3, #1
 3118 13ec 9AB2     		uxth	r2, r3
 3119 13ee 039B     		ldr	r3, [sp, #12]
 3120 13f0 9BB2     		uxth	r3, r3
 3121 13f2 1344     		add	r3, r3, r2
 3122 13f4 9BB2     		uxth	r3, r3
 3123 13f6 ADF81830 		strh	r3, [sp, #24]	@ movhi
 3124              		.loc 1 1490 0
 3125 13fa 484B     		ldr	r3, .L166+4
 3126 13fc 1B68     		ldr	r3, [r3]
 3127 13fe 03F48063 		and	r3, r3, #1024
 3128 1402 002B     		cmp	r3, #0
 3129 1404 65D0     		beq	.L159
 3130              		.loc 1 1491 0
 3131 1406 BDF91830 		ldrsh	r3, [sp, #24]
 3132 140a 4548     		ldr	r0, .L166+8
 3133 140c 4549     		ldr	r1, .L166+12
 3134 140e 1A46     		mov	r2, r3
 3135 1410 FFF7FEFF 		bl	sprintf
 3136 1414 0246     		mov	r2, r0
 3137 1416 444B     		ldr	r3, .L166+16
 3138 1418 1A60     		str	r2, [r3]
 3139              		.loc 1 1492 0
 3140 141a 434B     		ldr	r3, .L166+16
 3141 141c 1B68     		ldr	r3, [r3]
 3142 141e DBB2     		uxtb	r3, r3
 3143 1420 3F48     		ldr	r0, .L166+8
 3144 1422 1946     		mov	r1, r3
 3145 1424 FFF7FEFF 		bl	Term_Update
 3146 1428 53E0     		b	.L159
 3147              	.L157:
 3148              		.loc 1 1498 0
 3149 142a 404B     		ldr	r3, .L166+20
 3150 142c 5B68     		ldr	r3, [r3, #4]
ARM GAS  /tmp/ccQpHQw3.s 			page 58


 3151 142e 012B     		cmp	r3, #1
 3152 1430 4FD1     		bne	.L159
 3153              		.loc 1 1499 0
 3154 1432 3E4B     		ldr	r3, .L166+20
 3155 1434 9A68     		ldr	r2, [r3, #8]
 3156 1436 0DF10B03 		add	r3, sp, #11
 3157 143a 1046     		mov	r0, r2
 3158 143c 1946     		mov	r1, r3
 3159 143e FFF7FEFF 		bl	BSP_TEMPERATURE_IsInitialized
 3160 1442 0346     		mov	r3, r0
 3161 1444 002B     		cmp	r3, #0
 3162 1446 44D1     		bne	.L159
 3163              		.loc 1 1500 0
 3164 1448 384B     		ldr	r3, .L166+20
 3165 144a 9A68     		ldr	r2, [r3, #8]
 3166 144c 01AB     		add	r3, sp, #4
 3167 144e 1046     		mov	r0, r2
 3168 1450 1946     		mov	r1, r3
 3169 1452 FFF7FEFF 		bl	BSP_TEMPERATURE_Get_Temp
 3170              		.loc 1 1501 0
 3171 1456 019B     		ldr	r3, [sp, #4]	@ float
 3172 1458 1846     		mov	r0, r3
 3173 145a FFF7FEFF 		bl	__aeabi_f2iz
 3174 145e 0346     		mov	r3, r0
 3175 1460 0493     		str	r3, [sp, #16]
 3176 1462 019C     		ldr	r4, [sp, #4]	@ float
 3177 1464 0498     		ldr	r0, [sp, #16]
 3178 1466 FFF7FEFF 		bl	__aeabi_i2f
 3179 146a 0346     		mov	r3, r0
 3180 146c 2046     		mov	r0, r4
 3181 146e 1946     		mov	r1, r3
 3182 1470 FFF7FEFF 		bl	__aeabi_fsub
 3183 1474 0346     		mov	r3, r0
 3184 1476 1846     		mov	r0, r3
 3185 1478 2749     		ldr	r1, .L166
 3186 147a FFF7FEFF 		bl	__aeabi_fmul
 3187 147e 0346     		mov	r3, r0
 3188 1480 1846     		mov	r0, r3
 3189 1482 FFF7FEFF 		bl	__aeabi_f2iz
 3190 1486 0346     		mov	r3, r0
 3191 1488 0393     		str	r3, [sp, #12]
 3192              		.loc 1 1502 0
 3193 148a 049B     		ldr	r3, [sp, #16]
 3194 148c 9BB2     		uxth	r3, r3
 3195 148e 1A46     		mov	r2, r3	@ movhi
 3196 1490 9200     		lsls	r2, r2, #2
 3197 1492 1344     		add	r3, r3, r2
 3198 1494 5B00     		lsls	r3, r3, #1
 3199 1496 9AB2     		uxth	r2, r3
 3200 1498 039B     		ldr	r3, [sp, #12]
 3201 149a 9BB2     		uxth	r3, r3
 3202 149c 1344     		add	r3, r3, r2
 3203 149e 9BB2     		uxth	r3, r3
 3204 14a0 ADF81630 		strh	r3, [sp, #22]	@ movhi
 3205              		.loc 1 1504 0
 3206 14a4 1D4B     		ldr	r3, .L166+4
 3207 14a6 1B68     		ldr	r3, [r3]
ARM GAS  /tmp/ccQpHQw3.s 			page 59


 3208 14a8 03F48063 		and	r3, r3, #1024
 3209 14ac 002B     		cmp	r3, #0
 3210 14ae 10D0     		beq	.L159
 3211              		.loc 1 1505 0
 3212 14b0 BDF91630 		ldrsh	r3, [sp, #22]
 3213 14b4 1A48     		ldr	r0, .L166+8
 3214 14b6 1E49     		ldr	r1, .L166+24
 3215 14b8 1A46     		mov	r2, r3
 3216 14ba FFF7FEFF 		bl	sprintf
 3217 14be 0246     		mov	r2, r0
 3218 14c0 194B     		ldr	r3, .L166+16
 3219 14c2 1A60     		str	r2, [r3]
 3220              		.loc 1 1506 0
 3221 14c4 184B     		ldr	r3, .L166+16
 3222 14c6 1B68     		ldr	r3, [r3]
 3223 14c8 DBB2     		uxtb	r3, r3
 3224 14ca 1548     		ldr	r0, .L166+8
 3225 14cc 1946     		mov	r1, r3
 3226 14ce FFF7FEFF 		bl	Term_Update
 3227              	.L159:
 3228              		.loc 1 1513 0 discriminator 2
 3229 14d2 BDF81A10 		ldrh	r1, [sp, #26]
 3230 14d6 BDF91820 		ldrsh	r2, [sp, #24]
 3231 14da BDF91630 		ldrsh	r3, [sp, #22]
 3232 14de 0798     		ldr	r0, [sp, #28]
 3233 14e0 FFF7FEFF 		bl	Environmental_Update
 3234              	.L154:
 3235              	.LBE26:
 3236              		.loc 1 1517 0
 3237 14e4 0D4B     		ldr	r3, .L166+4
 3238 14e6 1B68     		ldr	r3, [r3]
 3239 14e8 03F48063 		and	r3, r3, #1024
 3240 14ec 002B     		cmp	r3, #0
 3241 14ee 11D0     		beq	.L146
 3242              		.loc 1 1518 0
 3243 14f0 0B4B     		ldr	r3, .L166+8
 3244 14f2 104A     		ldr	r2, .L166+28
 3245 14f4 1268     		ldr	r2, [r2]
 3246 14f6 1146     		mov	r1, r2	@ movhi
 3247 14f8 1980     		strh	r1, [r3]	@ movhi
 3248 14fa 0233     		adds	r3, r3, #2
 3249 14fc 120C     		lsrs	r2, r2, #16
 3250 14fe 1A70     		strb	r2, [r3]
 3251 1500 094B     		ldr	r3, .L166+16
 3252 1502 0222     		movs	r2, #2
 3253 1504 1A60     		str	r2, [r3]
 3254              		.loc 1 1519 0
 3255 1506 084B     		ldr	r3, .L166+16
 3256 1508 1B68     		ldr	r3, [r3]
 3257 150a DBB2     		uxtb	r3, r3
 3258 150c 0448     		ldr	r0, .L166+8
 3259 150e 1946     		mov	r1, r3
 3260 1510 FFF7FEFF 		bl	Term_Update
 3261              	.L146:
 3262              		.loc 1 1524 0
 3263 1514 08B0     		add	sp, sp, #32
 3264              		@ sp needed
ARM GAS  /tmp/ccQpHQw3.s 			page 60


 3265 1516 10BD     		pop	{r4, pc}
 3266              	.L167:
 3267              		.align	2
 3268              	.L166:
 3269 1518 00002041 		.word	1092616192
 3270 151c 00000000 		.word	ConnectionBleStatus
 3271 1520 00000000 		.word	BufferToWrite
 3272 1524 CC000000 		.word	.LC13
 3273 1528 00000000 		.word	BytesToWrite
 3274 152c 00000000 		.word	TargetBoardFeatures
 3275 1530 D8000000 		.word	.LC14
 3276 1534 E4000000 		.word	.LC15
 3277              		.cfi_endproc
 3278              	.LFE286:
 3279              		.size	SendEnvironmentalData, .-SendEnvironmentalData
 3280              		.align	2
 3281 1538 AFF30080 		.p2align 4,,15
 3281      AFF30080 
 3282              		.thumb
 3283              		.thumb_func
 3284              		.type	InitTimers, %function
 3285              	InitTimers:
 3286              	.LFB287:
 3287              		.loc 1 1534 0
 3288              		.cfi_startproc
 3289              		@ args = 0, pretend = 0, frame = 32
 3290              		@ frame_needed = 0, uses_anonymous_args = 0
 3291 1540 00B5     		push	{lr}
 3292              		.cfi_def_cfa_offset 4
 3293              		.cfi_offset 14, -4
 3294 1542 89B0     		sub	sp, sp, #36
 3295              		.cfi_def_cfa_offset 40
 3296              		.loc 1 1541 0
 3297 1544 474B     		ldr	r3, .L175
 3298 1546 1A68     		ldr	r2, [r3]
 3299 1548 474B     		ldr	r3, .L175+4
 3300 154a A3FB0213 		umull	r1, r3, r3, r2
 3301 154e DB09     		lsrs	r3, r3, #7
 3302 1550 013B     		subs	r3, r3, #1
 3303 1552 0793     		str	r3, [sp, #28]
 3304              		.loc 1 1544 0
 3305 1554 454B     		ldr	r3, .L175+8
 3306 1556 464A     		ldr	r2, .L175+12
 3307 1558 1A60     		str	r2, [r3]
 3308              		.loc 1 1546 0
 3309 155a 444B     		ldr	r3, .L175+8
 3310 155c 40F2E732 		movw	r2, #999
 3311 1560 DA60     		str	r2, [r3, #12]
 3312              		.loc 1 1547 0
 3313 1562 424B     		ldr	r3, .L175+8
 3314 1564 079A     		ldr	r2, [sp, #28]
 3315 1566 5A60     		str	r2, [r3, #4]
 3316              		.loc 1 1548 0
 3317 1568 404B     		ldr	r3, .L175+8
 3318 156a 0022     		movs	r2, #0
 3319 156c 1A61     		str	r2, [r3, #16]
 3320              		.loc 1 1549 0
ARM GAS  /tmp/ccQpHQw3.s 			page 61


 3321 156e 3F4B     		ldr	r3, .L175+8
 3322 1570 0022     		movs	r2, #0
 3323 1572 9A60     		str	r2, [r3, #8]
 3324              		.loc 1 1550 0
 3325 1574 3D48     		ldr	r0, .L175+8
 3326 1576 FFF7FEFF 		bl	HAL_TIM_Base_Init
 3327              		.loc 1 1555 0
 3328 157a 3A4B     		ldr	r3, .L175
 3329 157c 1A68     		ldr	r2, [r3]
 3330 157e 3D4B     		ldr	r3, .L175+16
 3331 1580 A3FB0213 		umull	r1, r3, r3, r2
 3332 1584 5B0B     		lsrs	r3, r3, #13
 3333 1586 013B     		subs	r3, r3, #1
 3334 1588 0793     		str	r3, [sp, #28]
 3335              		.loc 1 1557 0
 3336 158a 3B4B     		ldr	r3, .L175+20
 3337 158c 3B4A     		ldr	r2, .L175+24
 3338 158e 1A60     		str	r2, [r3]
 3339              		.loc 1 1558 0
 3340 1590 394B     		ldr	r3, .L175+20
 3341 1592 4FF6FF72 		movw	r2, #65535
 3342 1596 DA60     		str	r2, [r3, #12]
 3343              		.loc 1 1559 0
 3344 1598 374B     		ldr	r3, .L175+20
 3345 159a 079A     		ldr	r2, [sp, #28]
 3346 159c 5A60     		str	r2, [r3, #4]
 3347              		.loc 1 1560 0
 3348 159e 364B     		ldr	r3, .L175+20
 3349 15a0 0022     		movs	r2, #0
 3350 15a2 1A61     		str	r2, [r3, #16]
 3351              		.loc 1 1561 0
 3352 15a4 344B     		ldr	r3, .L175+20
 3353 15a6 0022     		movs	r2, #0
 3354 15a8 9A60     		str	r2, [r3, #8]
 3355              		.loc 1 1562 0
 3356 15aa 3348     		ldr	r0, .L175+20
 3357 15ac FFF7FEFF 		bl	HAL_TIM_OC_Init
 3358 15b0 0346     		mov	r3, r0
 3359 15b2 002B     		cmp	r3, #0
 3360 15b4 01D0     		beq	.L169
 3361              		.loc 1 1565 0
 3362 15b6 FFF7FEFF 		bl	Error_Handler
 3363              	.L169:
 3364              		.loc 1 1570 0
 3365 15ba 3023     		movs	r3, #48
 3366 15bc 0093     		str	r3, [sp]
 3367              		.loc 1 1571 0
 3368 15be 0223     		movs	r3, #2
 3369 15c0 0293     		str	r3, [sp, #8]
 3370              		.loc 1 1575 0
 3371 15c2 6423     		movs	r3, #100
 3372 15c4 0193     		str	r3, [sp, #4]
 3373              		.loc 1 1576 0
 3374 15c6 6B46     		mov	r3, sp
 3375 15c8 2B48     		ldr	r0, .L175+20
 3376 15ca 1946     		mov	r1, r3
 3377 15cc 0022     		movs	r2, #0
ARM GAS  /tmp/ccQpHQw3.s 			page 62


 3378 15ce FFF7FEFF 		bl	HAL_TIM_OC_ConfigChannel
 3379 15d2 0346     		mov	r3, r0
 3380 15d4 002B     		cmp	r3, #0
 3381 15d6 01D0     		beq	.L170
 3382              		.loc 1 1579 0
 3383 15d8 FFF7FEFF 		bl	Error_Handler
 3384              	.L170:
 3385              		.loc 1 1585 0
 3386 15dc C823     		movs	r3, #200
 3387 15de 0193     		str	r3, [sp, #4]
 3388              		.loc 1 1586 0
 3389 15e0 6B46     		mov	r3, sp
 3390 15e2 2548     		ldr	r0, .L175+20
 3391 15e4 1946     		mov	r1, r3
 3392 15e6 0422     		movs	r2, #4
 3393 15e8 FFF7FEFF 		bl	HAL_TIM_OC_ConfigChannel
 3394 15ec 0346     		mov	r3, r0
 3395 15ee 002B     		cmp	r3, #0
 3396 15f0 01D0     		beq	.L171
 3397              		.loc 1 1589 0
 3398 15f2 FFF7FEFF 		bl	Error_Handler
 3399              	.L171:
 3400              		.loc 1 1595 0
 3401 15f6 40F27123 		movw	r3, #625
 3402 15fa 0193     		str	r3, [sp, #4]
 3403              		.loc 1 1596 0
 3404 15fc 6B46     		mov	r3, sp
 3405 15fe 1E48     		ldr	r0, .L175+20
 3406 1600 1946     		mov	r1, r3
 3407 1602 0822     		movs	r2, #8
 3408 1604 FFF7FEFF 		bl	HAL_TIM_OC_ConfigChannel
 3409 1608 0346     		mov	r3, r0
 3410 160a 002B     		cmp	r3, #0
 3411 160c 01D0     		beq	.L172
 3412              		.loc 1 1599 0
 3413 160e FFF7FEFF 		bl	Error_Handler
 3414              	.L172:
 3415              		.loc 1 1604 0
 3416 1612 4FF4FA73 		mov	r3, #500
 3417 1616 0193     		str	r3, [sp, #4]
 3418              		.loc 1 1605 0
 3419 1618 6B46     		mov	r3, sp
 3420 161a 1748     		ldr	r0, .L175+20
 3421 161c 1946     		mov	r1, r3
 3422 161e 0C22     		movs	r2, #12
 3423 1620 FFF7FEFF 		bl	HAL_TIM_OC_ConfigChannel
 3424 1624 0346     		mov	r3, r0
 3425 1626 002B     		cmp	r3, #0
 3426 1628 01D0     		beq	.L173
 3427              		.loc 1 1608 0
 3428 162a FFF7FEFF 		bl	Error_Handler
 3429              	.L173:
 3430              		.loc 1 1612 0
 3431 162e 144B     		ldr	r3, .L175+28
 3432 1630 144A     		ldr	r2, .L175+32
 3433 1632 1A60     		str	r2, [r3]
 3434              		.loc 1 1619 0
ARM GAS  /tmp/ccQpHQw3.s 			page 63


 3435 1634 124B     		ldr	r3, .L175+28
 3436 1636 40F2F312 		movw	r2, #499
 3437 163a DA60     		str	r2, [r3, #12]
 3438              		.loc 1 1620 0
 3439 163c 104B     		ldr	r3, .L175+28
 3440 163e 079A     		ldr	r2, [sp, #28]
 3441 1640 5A60     		str	r2, [r3, #4]
 3442              		.loc 1 1621 0
 3443 1642 0F4B     		ldr	r3, .L175+28
 3444 1644 0022     		movs	r2, #0
 3445 1646 1A61     		str	r2, [r3, #16]
 3446              		.loc 1 1622 0
 3447 1648 0D4B     		ldr	r3, .L175+28
 3448 164a 0022     		movs	r2, #0
 3449 164c 9A60     		str	r2, [r3, #8]
 3450              		.loc 1 1623 0
 3451 164e 0C48     		ldr	r0, .L175+28
 3452 1650 FFF7FEFF 		bl	HAL_TIM_Base_Init
 3453 1654 0346     		mov	r3, r0
 3454 1656 002B     		cmp	r3, #0
 3455 1658 01D0     		beq	.L168
 3456              		.loc 1 1625 0
 3457 165a FFF7FEFF 		bl	Error_Handler
 3458              	.L168:
 3459              		.loc 1 1627 0
 3460 165e 09B0     		add	sp, sp, #36
 3461              		@ sp needed
 3462 1660 5DF804FB 		ldr	pc, [sp], #4
 3463              	.L176:
 3464              		.align	2
 3465              	.L175:
 3466 1664 00000000 		.word	SystemCoreClock
 3467 1668 D34D6210 		.word	274877907
 3468 166c 00000000 		.word	TimEnvHandle
 3469 1670 00080040 		.word	1073743872
 3470 1674 5917B7D1 		.word	-776530087
 3471 1678 00000000 		.word	TimCCHandle
 3472 167c 002C0140 		.word	1073818624
 3473 1680 00000000 		.word	TimAudioDataHandle
 3474 1684 000C0040 		.word	1073744896
 3475              		.cfi_endproc
 3476              	.LFE287:
 3477              		.size	InitTimers, .-InitTimers
 3478              		.section	.rodata
 3479 00e7 00       		.align	2
 3480              	.LC0:
 3481 00e8 42       		.byte	66
 3482 00e9 4D       		.byte	77
 3483 00ea 32       		.byte	50
 3484 00eb 56       		.byte	86
 3485 00ec 32       		.byte	50
 3486 00ed 32       		.byte	50
 3487 00ee 30       		.byte	48
 3488 00ef 00       		.byte	0
 3489              		.text
 3490              		.align	2
 3491 1688 AFF30080 		.p2align 4,,15
ARM GAS  /tmp/ccQpHQw3.s 			page 64


 3491      AFF30080 
 3492              		.thumb
 3493              		.thumb_func
 3494              		.type	Init_BlueNRG_Stack, %function
 3495              	Init_BlueNRG_Stack:
 3496              	.LFB288:
 3497              		.loc 1 1634 0
 3498              		.cfi_startproc
 3499              		@ args = 0, pretend = 0, frame = 24
 3500              		@ frame_needed = 0, uses_anonymous_args = 0
 3501 1690 00B5     		push	{lr}
 3502              		.cfi_def_cfa_offset 4
 3503              		.cfi_offset 14, -4
 3504 1692 8BB0     		sub	sp, sp, #44
 3505              		.cfi_def_cfa_offset 48
 3506              		.loc 1 1635 0
 3507 1694 4F4A     		ldr	r2, .L191
 3508 1696 07AB     		add	r3, sp, #28
 3509 1698 1068     		ldr	r0, [r2]	@ unaligned
 3510 169a 5168     		ldr	r1, [r2, #4]	@ unaligned
 3511 169c 03C3     		stmia	r3!, {r0, r1}
 3512              		.loc 1 1652 0
 3513 169e FFF7FEFF 		bl	BNRG_SPI_Init
 3514              		.loc 1 1656 0
 3515 16a2 FFF7FEFF 		bl	HCI_Init
 3516              		.loc 1 1659 0
 3517 16a6 FFF7FEFF 		bl	BlueNRG_RST
 3518              		.loc 1 1662 0
 3519 16aa 0DF11502 		add	r2, sp, #21
 3520 16ae 0DF11203 		add	r3, sp, #18
 3521 16b2 1046     		mov	r0, r2
 3522 16b4 1946     		mov	r1, r3
 3523 16b6 FFF7FEFF 		bl	getBlueNRGVersion
 3524              		.loc 1 1664 0
 3525 16ba 9DF81530 		ldrb	r3, [sp, #21]	@ zero_extendqisi2
 3526 16be 302B     		cmp	r3, #48
 3527 16c0 04D9     		bls	.L178
 3528              		.loc 1 1666 0
 3529 16c2 454B     		ldr	r3, .L191+4
 3530 16c4 0122     		movs	r2, #1
 3531 16c6 83F82D20 		strb	r2, [r3, #45]
 3532 16ca 03E0     		b	.L179
 3533              	.L178:
 3534              		.loc 1 1669 0
 3535 16cc 424B     		ldr	r3, .L191+4
 3536 16ce 0022     		movs	r2, #0
 3537 16d0 83F82D20 		strb	r2, [r3, #45]
 3538              	.L179:
 3539              		.loc 1 1675 0
 3540 16d4 FFF7FEFF 		bl	BlueNRG_RST
 3541              		.loc 1 1681 0
 3542 16d8 404B     		ldr	r3, .L191+8
 3543 16da 1B68     		ldr	r3, [r3]
 3544 16dc 1B0E     		lsrs	r3, r3, #24
 3545 16de DAB2     		uxtb	r2, r3
 3546 16e0 3F4B     		ldr	r3, .L191+12
 3547 16e2 1A70     		strb	r2, [r3]
ARM GAS  /tmp/ccQpHQw3.s 			page 65


 3548              		.loc 1 1682 0
 3549 16e4 3F4B     		ldr	r3, .L191+16
 3550 16e6 1B68     		ldr	r3, [r3]
 3551 16e8 DAB2     		uxtb	r2, r3
 3552 16ea 3D4B     		ldr	r3, .L191+12
 3553 16ec 5A70     		strb	r2, [r3, #1]
 3554              		.loc 1 1683 0
 3555 16ee 3E4B     		ldr	r3, .L191+20
 3556 16f0 1B68     		ldr	r3, [r3]
 3557 16f2 1B0A     		lsrs	r3, r3, #8
 3558 16f4 DAB2     		uxtb	r2, r3
 3559 16f6 3A4B     		ldr	r3, .L191+12
 3560 16f8 9A70     		strb	r2, [r3, #2]
 3561              		.loc 1 1684 0
 3562 16fa 3A4B     		ldr	r3, .L191+16
 3563 16fc 1B68     		ldr	r3, [r3]
 3564 16fe 1B0C     		lsrs	r3, r3, #16
 3565 1700 DAB2     		uxtb	r2, r3
 3566 1702 374B     		ldr	r3, .L191+12
 3567 1704 DA70     		strb	r2, [r3, #3]
 3568              		.loc 1 1693 0
 3569 1706 364B     		ldr	r3, .L191+12
 3570 1708 7A22     		movs	r2, #122
 3571 170a 1A71     		strb	r2, [r3, #4]
 3572              		.loc 1 1695 0
 3573 170c 344B     		ldr	r3, .L191+12
 3574 170e C022     		movs	r2, #192
 3575 1710 5A71     		strb	r2, [r3, #5]
 3576              		.loc 1 1720 0
 3577 1712 FFF7FEFF 		bl	aci_gatt_init
 3578 1716 0346     		mov	r3, r0
 3579 1718 0993     		str	r3, [sp, #36]
 3580              		.loc 1 1721 0
 3581 171a 099B     		ldr	r3, [sp, #36]
 3582 171c 002B     		cmp	r3, #0
 3583 171e 00D0     		beq	.L180
 3584              		.loc 1 1723 0
 3585 1720 54E0     		b	.L181
 3586              	.L180:
 3587              		.loc 1 1726 0
 3588 1722 2D4B     		ldr	r3, .L191+4
 3589 1724 93F82D30 		ldrb	r3, [r3, #45]	@ zero_extendqisi2
 3590 1728 012B     		cmp	r3, #1
 3591 172a 0ED1     		bne	.L182
 3592              		.loc 1 1727 0
 3593 172c 0DF11A03 		add	r3, sp, #26
 3594 1730 06AA     		add	r2, sp, #24
 3595 1732 0092     		str	r2, [sp]
 3596 1734 0DF11602 		add	r2, sp, #22
 3597 1738 0192     		str	r2, [sp, #4]
 3598 173a 0120     		movs	r0, #1
 3599 173c 0021     		movs	r1, #0
 3600 173e 0722     		movs	r2, #7
 3601 1740 FFF7FEFF 		bl	aci_gap_init_IDB05A1
 3602 1744 0346     		mov	r3, r0
 3603 1746 0993     		str	r3, [sp, #36]
 3604 1748 09E0     		b	.L183
ARM GAS  /tmp/ccQpHQw3.s 			page 66


 3605              	.L182:
 3606              		.loc 1 1729 0
 3607 174a 0DF11A01 		add	r1, sp, #26
 3608 174e 06AA     		add	r2, sp, #24
 3609 1750 0DF11603 		add	r3, sp, #22
 3610 1754 0120     		movs	r0, #1
 3611 1756 FFF7FEFF 		bl	aci_gap_init_IDB04A1
 3612 175a 0346     		mov	r3, r0
 3613 175c 0993     		str	r3, [sp, #36]
 3614              	.L183:
 3615              		.loc 1 1732 0
 3616 175e 099B     		ldr	r3, [sp, #36]
 3617 1760 002B     		cmp	r3, #0
 3618 1762 00D0     		beq	.L184
 3619              		.loc 1 1734 0
 3620 1764 32E0     		b	.L181
 3621              	.L184:
 3622              		.loc 1 1739 0
 3623 1766 1E48     		ldr	r0, .L191+12
 3624 1768 FFF7FEFF 		bl	hci_le_set_random_address
 3625 176c 0990     		str	r0, [sp, #36]
 3626              		.loc 1 1741 0
 3627 176e 099B     		ldr	r3, [sp, #36]
 3628 1770 002B     		cmp	r3, #0
 3629 1772 00D0     		beq	.L185
 3630              		.loc 1 1743 0
 3631 1774 2AE0     		b	.L181
 3632              	.L185:
 3633              		.loc 1 1748 0
 3634 1776 BDF81A20 		ldrh	r2, [sp, #26]
 3635 177a BDF81830 		ldrh	r3, [sp, #24]
 3636 177e 07A9     		add	r1, sp, #28
 3637 1780 0091     		str	r1, [sp]
 3638 1782 1046     		mov	r0, r2
 3639 1784 1946     		mov	r1, r3
 3640 1786 0022     		movs	r2, #0
 3641 1788 0723     		movs	r3, #7
 3642 178a FFF7FEFF 		bl	aci_gatt_update_char_value
 3643 178e 0346     		mov	r3, r0
 3644 1790 0993     		str	r3, [sp, #36]
 3645              		.loc 1 1751 0
 3646 1792 099B     		ldr	r3, [sp, #36]
 3647 1794 002B     		cmp	r3, #0
 3648 1796 00D0     		beq	.L186
 3649              	.L187:
 3650              		.loc 1 1753 0 discriminator 1
 3651 1798 FEE7     		b	.L187
 3652              	.L186:
 3653              		.loc 1 1756 0
 3654 179a 1023     		movs	r3, #16
 3655 179c 0093     		str	r3, [sp]
 3656 179e 0023     		movs	r3, #0
 3657 17a0 0193     		str	r3, [sp, #4]
 3658 17a2 124B     		ldr	r3, .L191+24
 3659 17a4 0293     		str	r3, [sp, #8]
 3660 17a6 0123     		movs	r3, #1
 3661 17a8 0393     		str	r3, [sp, #12]
ARM GAS  /tmp/ccQpHQw3.s 			page 67


 3662 17aa 0120     		movs	r0, #1
 3663 17ac 0021     		movs	r1, #0
 3664 17ae 0022     		movs	r2, #0
 3665 17b0 0723     		movs	r3, #7
 3666 17b2 FFF7FEFF 		bl	aci_gap_set_auth_requirement
 3667 17b6 0346     		mov	r3, r0
 3668 17b8 0993     		str	r3, [sp, #36]
 3669              		.loc 1 1761 0
 3670 17ba 099B     		ldr	r3, [sp, #36]
 3671 17bc 002B     		cmp	r3, #0
 3672 17be 00D0     		beq	.L188
 3673              		.loc 1 1763 0
 3674 17c0 04E0     		b	.L181
 3675              	.L188:
 3676              		.loc 1 1779 0
 3677 17c2 0120     		movs	r0, #1
 3678 17c4 0421     		movs	r1, #4
 3679 17c6 FFF7FEFF 		bl	aci_hal_set_tx_power_level
 3680              		.loc 1 1781 0
 3681 17ca 00E0     		b	.L177
 3682              	.L181:
 3683              		.loc 1 1784 0
 3684 17cc 00BF     		nop
 3685              	.L177:
 3686              		.loc 1 1785 0
 3687 17ce 0BB0     		add	sp, sp, #44
 3688              		@ sp needed
 3689 17d0 5DF804FB 		ldr	pc, [sp], #4
 3690              	.L192:
 3691              		.align	2
 3692              	.L191:
 3693 17d4 E8000000 		.word	.LC0
 3694 17d8 00000000 		.word	TargetBoardFeatures
 3695 17dc 9475FF1F 		.word	536835476
 3696 17e0 00000000 		.word	bdaddr
 3697 17e4 9075FF1F 		.word	536835472
 3698 17e8 9875FF1F 		.word	536835480
 3699 17ec 40E20100 		.word	123456
 3700              		.cfi_endproc
 3701              	.LFE288:
 3702              		.size	Init_BlueNRG_Stack, .-Init_BlueNRG_Stack
 3703              		.align	2
 3704              		.p2align 4,,15
 3705              		.thumb
 3706              		.thumb_func
 3707              		.type	Init_BlueNRG_Custom_Services, %function
 3708              	Init_BlueNRG_Custom_Services:
 3709              	.LFB289:
 3710              		.loc 1 1792 0
 3711              		.cfi_startproc
 3712              		@ args = 0, pretend = 0, frame = 8
 3713              		@ frame_needed = 0, uses_anonymous_args = 0
 3714 17f0 00B5     		push	{lr}
 3715              		.cfi_def_cfa_offset 4
 3716              		.cfi_offset 14, -4
 3717 17f2 83B0     		sub	sp, sp, #12
 3718              		.cfi_def_cfa_offset 16
ARM GAS  /tmp/ccQpHQw3.s 			page 68


 3719              		.loc 1 1805 0
 3720 17f4 FFF7FEFF 		bl	Add_ConsoleW2ST_Service
 3721 17f8 0346     		mov	r3, r0
 3722 17fa 0193     		str	r3, [sp, #4]
 3723              		.loc 1 1824 0
 3724 17fc 03B0     		add	sp, sp, #12
 3725              		@ sp needed
 3726 17fe 5DF804FB 		ldr	pc, [sp], #4
 3727              		.cfi_endproc
 3728              	.LFE289:
 3729              		.size	Init_BlueNRG_Custom_Services, .-Init_BlueNRG_Custom_Services
 3730 1802 00BF     		.align	2
 3731 1804 AFF30080 		.p2align 4,,15
 3731      AFF30080 
 3731      AFF30080 
 3732              		.thumb
 3733              		.thumb_func
 3734              		.type	SystemClock_Config, %function
 3735              	SystemClock_Config:
 3736              	.LFB290:
 3737              		.loc 1 1947 0
 3738              		.cfi_startproc
 3739              		@ args = 0, pretend = 0, frame = 232
 3740              		@ frame_needed = 0, uses_anonymous_args = 0
 3741 1810 00B5     		push	{lr}
 3742              		.cfi_def_cfa_offset 4
 3743              		.cfi_offset 14, -4
 3744 1812 BBB0     		sub	sp, sp, #236
 3745              		.cfi_def_cfa_offset 240
 3746              		.loc 1 1948 0
 3747 1814 35AB     		add	r3, sp, #212
 3748 1816 0022     		movs	r2, #0
 3749 1818 1A60     		str	r2, [r3]
 3750 181a 0433     		adds	r3, r3, #4
 3751 181c 0022     		movs	r2, #0
 3752 181e 1A60     		str	r2, [r3]
 3753 1820 0433     		adds	r3, r3, #4
 3754 1822 0022     		movs	r2, #0
 3755 1824 1A60     		str	r2, [r3]
 3756 1826 0433     		adds	r3, r3, #4
 3757 1828 0022     		movs	r2, #0
 3758 182a 1A60     		str	r2, [r3]
 3759 182c 0433     		adds	r3, r3, #4
 3760 182e 0022     		movs	r2, #0
 3761 1830 1A60     		str	r2, [r3]
 3762 1832 0433     		adds	r3, r3, #4
 3763              		.loc 1 1949 0
 3764 1834 24AA     		add	r2, sp, #144
 3765 1836 4423     		movs	r3, #68
 3766 1838 1046     		mov	r0, r2
 3767 183a 0021     		movs	r1, #0
 3768 183c 1A46     		mov	r2, r3
 3769 183e FFF7FEFF 		bl	memset
 3770              		.loc 1 1950 0
 3771 1842 02AA     		add	r2, sp, #8
 3772 1844 8823     		movs	r3, #136
 3773 1846 1046     		mov	r0, r2
ARM GAS  /tmp/ccQpHQw3.s 			page 69


 3774 1848 0021     		movs	r1, #0
 3775 184a 1A46     		mov	r2, r3
 3776 184c FFF7FEFF 		bl	memset
 3777              	.LBB27:
 3778              		.loc 1 1952 0
 3779 1850 2D4B     		ldr	r3, .L201
 3780 1852 2D4A     		ldr	r2, .L201
 3781 1854 926D     		ldr	r2, [r2, #88]
 3782 1856 42F08052 		orr	r2, r2, #268435456
 3783 185a 9A65     		str	r2, [r3, #88]
 3784 185c 2A4B     		ldr	r3, .L201
 3785 185e 9B6D     		ldr	r3, [r3, #88]
 3786 1860 03F08053 		and	r3, r3, #268435456
 3787 1864 0193     		str	r3, [sp, #4]
 3788 1866 019B     		ldr	r3, [sp, #4]
 3789              	.LBE27:
 3790              		.loc 1 1953 0
 3791 1868 FFF7FEFF 		bl	HAL_PWR_EnableBkUpAccess
 3792              		.loc 1 1956 0
 3793 186c 0423     		movs	r3, #4
 3794 186e 2493     		str	r3, [sp, #144]
 3795              		.loc 1 1957 0
 3796 1870 0123     		movs	r3, #1
 3797 1872 2693     		str	r3, [sp, #152]
 3798              		.loc 1 1958 0
 3799 1874 24AB     		add	r3, sp, #144
 3800 1876 1846     		mov	r0, r3
 3801 1878 FFF7FEFF 		bl	HAL_RCC_OscConfig
 3802 187c 0346     		mov	r3, r0
 3803 187e 002B     		cmp	r3, #0
 3804 1880 00D0     		beq	.L195
 3805              	.L196:
 3806              		.loc 1 1959 0 discriminator 1
 3807 1882 FEE7     		b	.L196
 3808              	.L195:
 3809              		.loc 1 1963 0
 3810 1884 FFF7FEFF 		bl	HAL_RCCEx_DisableLSECSS
 3811              		.loc 1 1966 0
 3812 1888 1023     		movs	r3, #16
 3813 188a 2493     		str	r3, [sp, #144]
 3814              		.loc 1 1967 0
 3815 188c 0123     		movs	r3, #1
 3816 188e 2A93     		str	r3, [sp, #168]
 3817              		.loc 1 1968 0
 3818 1890 0023     		movs	r3, #0
 3819 1892 2893     		str	r3, [sp, #160]
 3820              		.loc 1 1969 0
 3821 1894 B023     		movs	r3, #176
 3822 1896 2C93     		str	r3, [sp, #176]
 3823              		.loc 1 1970 0
 3824 1898 0223     		movs	r3, #2
 3825 189a 2E93     		str	r3, [sp, #184]
 3826              		.loc 1 1971 0
 3827 189c 0123     		movs	r3, #1
 3828 189e 2F93     		str	r3, [sp, #188]
 3829              		.loc 1 1972 0
 3830 18a0 0623     		movs	r3, #6
ARM GAS  /tmp/ccQpHQw3.s 			page 70


 3831 18a2 3093     		str	r3, [sp, #192]
 3832              		.loc 1 1973 0
 3833 18a4 2823     		movs	r3, #40
 3834 18a6 3193     		str	r3, [sp, #196]
 3835              		.loc 1 1974 0
 3836 18a8 0723     		movs	r3, #7
 3837 18aa 3293     		str	r3, [sp, #200]
 3838              		.loc 1 1975 0
 3839 18ac 0423     		movs	r3, #4
 3840 18ae 3393     		str	r3, [sp, #204]
 3841              		.loc 1 1976 0
 3842 18b0 0423     		movs	r3, #4
 3843 18b2 3493     		str	r3, [sp, #208]
 3844              		.loc 1 1977 0
 3845 18b4 24AB     		add	r3, sp, #144
 3846 18b6 1846     		mov	r0, r3
 3847 18b8 FFF7FEFF 		bl	HAL_RCC_OscConfig
 3848 18bc 0346     		mov	r3, r0
 3849 18be 002B     		cmp	r3, #0
 3850 18c0 00D0     		beq	.L197
 3851              	.L198:
 3852              		.loc 1 1978 0 discriminator 1
 3853 18c2 FEE7     		b	.L198
 3854              	.L197:
 3855              		.loc 1 1982 0
 3856 18c4 FFF7FEFF 		bl	HAL_RCCEx_EnableMSIPLLMode
 3857              		.loc 1 1985 0
 3858 18c8 4FF40053 		mov	r3, #8192
 3859 18cc 0293     		str	r3, [sp, #8]
 3860              		.loc 1 1986 0
 3861 18ce 4FF04063 		mov	r3, #201326592
 3862 18d2 1D93     		str	r3, [sp, #116]
 3863              		.loc 1 1987 0
 3864 18d4 02AB     		add	r3, sp, #8
 3865 18d6 1846     		mov	r0, r3
 3866 18d8 FFF7FEFF 		bl	HAL_RCCEx_PeriphCLKConfig
 3867              		.loc 1 1991 0
 3868 18dc 0F23     		movs	r3, #15
 3869 18de 3593     		str	r3, [sp, #212]
 3870              		.loc 1 1992 0
 3871 18e0 0323     		movs	r3, #3
 3872 18e2 3693     		str	r3, [sp, #216]
 3873              		.loc 1 1993 0
 3874 18e4 0023     		movs	r3, #0
 3875 18e6 3793     		str	r3, [sp, #220]
 3876              		.loc 1 1994 0
 3877 18e8 0023     		movs	r3, #0
 3878 18ea 3893     		str	r3, [sp, #224]
 3879              		.loc 1 1995 0
 3880 18ec 0023     		movs	r3, #0
 3881 18ee 3993     		str	r3, [sp, #228]
 3882              		.loc 1 1996 0
 3883 18f0 35AB     		add	r3, sp, #212
 3884 18f2 1846     		mov	r0, r3
 3885 18f4 0421     		movs	r1, #4
 3886 18f6 FFF7FEFF 		bl	HAL_RCC_ClockConfig
 3887 18fa 0346     		mov	r3, r0
ARM GAS  /tmp/ccQpHQw3.s 			page 71


 3888 18fc 002B     		cmp	r3, #0
 3889 18fe 00D0     		beq	.L194
 3890              	.L200:
 3891              		.loc 1 1997 0 discriminator 1
 3892 1900 FEE7     		b	.L200
 3893              	.L194:
 3894              		.loc 1 1999 0
 3895 1902 3BB0     		add	sp, sp, #236
 3896              		@ sp needed
 3897 1904 5DF804FB 		ldr	pc, [sp], #4
 3898              	.L202:
 3899              		.align	2
 3900              	.L201:
 3901 1908 00100240 		.word	1073876992
 3902              		.cfi_endproc
 3903              	.LFE290:
 3904              		.size	SystemClock_Config, .-SystemClock_Config
 3905              		.align	2
 3906 190c AFF30080 		.p2align 4,,15
 3907              		.global	HAL_Delay
 3908              		.thumb
 3909              		.thumb_func
 3910              		.type	HAL_Delay, %function
 3911              	HAL_Delay:
 3912              	.LFB291:
 3913              		.loc 1 2011 0
 3914              		.cfi_startproc
 3915              		@ args = 0, pretend = 0, frame = 16
 3916              		@ frame_needed = 0, uses_anonymous_args = 0
 3917 1910 00B5     		push	{lr}
 3918              		.cfi_def_cfa_offset 4
 3919              		.cfi_offset 14, -4
 3920 1912 85B0     		sub	sp, sp, #20
 3921              		.cfi_def_cfa_offset 24
 3922 1914 0190     		str	r0, [sp, #4]
 3923              		.loc 1 2012 0
 3924 1916 0023     		movs	r3, #0
 3925 1918 0393     		str	r3, [sp, #12]
 3926              		.loc 1 2013 0
 3927 191a FFF7FEFF 		bl	HAL_GetTick
 3928 191e 0390     		str	r0, [sp, #12]
 3929              		.loc 1 2014 0
 3930 1920 00E0     		b	.L204
 3931              	.L205:
 3932              	.LBB28:
 3933              	.LBB29:
 3934              		.loc 2 434 0
 3935              	@ 434 "../../../../../../ChibiOS/os/ext/CMSIS/include/core_cmInstr.h" 1
 3936 1922 30BF     		wfi
 3937              	@ 0 "" 2
 3938              		.thumb
 3939              	.L204:
 3940              	.LBE29:
 3941              	.LBE28:
 3942              		.loc 1 2014 0 discriminator 1
 3943 1924 FFF7FEFF 		bl	HAL_GetTick
 3944 1928 0246     		mov	r2, r0
ARM GAS  /tmp/ccQpHQw3.s 			page 72


 3945 192a 039B     		ldr	r3, [sp, #12]
 3946 192c D21A     		subs	r2, r2, r3
 3947 192e 019B     		ldr	r3, [sp, #4]
 3948 1930 9A42     		cmp	r2, r3
 3949 1932 F6D3     		bcc	.L205
 3950              		.loc 1 2017 0
 3951 1934 05B0     		add	sp, sp, #20
 3952              		@ sp needed
 3953 1936 5DF804FB 		ldr	pc, [sp], #4
 3954              		.cfi_endproc
 3955              	.LFE291:
 3956              		.size	HAL_Delay, .-HAL_Delay
 3957 193a 00BF     		.align	2
 3958 193c AFF30080 		.p2align 4,,15
 3959              		.global	Error_Handler
 3960              		.thumb
 3961              		.thumb_func
 3962              		.type	Error_Handler, %function
 3963              	Error_Handler:
 3964              	.LFB292:
 3965              		.loc 1 2025 0
 3966              		.cfi_startproc
 3967              		@ args = 0, pretend = 0, frame = 0
 3968              		@ frame_needed = 0, uses_anonymous_args = 0
 3969              		@ link register save eliminated.
 3970              	.L207:
 3971              		.loc 1 2028 0 discriminator 1
 3972 1940 FEE7     		b	.L207
 3973              		.cfi_endproc
 3974              	.LFE292:
 3975              		.size	Error_Handler, .-Error_Handler
 3976 1942 00BF     		.align	2
 3977 1944 AFF30080 		.p2align 4,,15
 3977      AFF30080 
 3977      AFF30080 
 3978              		.global	HAL_GPIO_EXTI_Callback
 3979              		.thumb
 3980              		.thumb_func
 3981              		.type	HAL_GPIO_EXTI_Callback, %function
 3982              	HAL_GPIO_EXTI_Callback:
 3983              	.LFB293:
 3984              		.loc 1 2037 0
 3985              		.cfi_startproc
 3986              		@ args = 0, pretend = 0, frame = 8
 3987              		@ frame_needed = 0, uses_anonymous_args = 0
 3988 1950 00B5     		push	{lr}
 3989              		.cfi_def_cfa_offset 4
 3990              		.cfi_offset 14, -4
 3991 1952 83B0     		sub	sp, sp, #12
 3992              		.cfi_def_cfa_offset 16
 3993 1954 0346     		mov	r3, r0
 3994 1956 ADF80630 		strh	r3, [sp, #6]	@ movhi
 3995              		.loc 1 2038 0
 3996 195a BDF80630 		ldrh	r3, [sp, #6]
 3997 195e 042B     		cmp	r3, #4
 3998 1960 07D0     		beq	.L210
 3999 1962 202B     		cmp	r3, #32
ARM GAS  /tmp/ccQpHQw3.s 			page 73


 4000 1964 09D1     		bne	.L208
 4001              		.loc 1 2044 0
 4002 1966 FFF7FEFF 		bl	HCI_Isr
 4003              		.loc 1 2045 0
 4004 196a 054B     		ldr	r3, .L212
 4005 196c 0122     		movs	r2, #1
 4006 196e 1A60     		str	r2, [r3]
 4007              		.loc 1 2046 0
 4008 1970 03E0     		b	.L208
 4009              	.L210:
 4010              		.loc 1 2062 0
 4011 1972 044B     		ldr	r3, .L212+4
 4012 1974 0122     		movs	r2, #1
 4013 1976 1A60     		str	r2, [r3]
 4014              		.loc 1 2063 0
 4015 1978 00BF     		nop
 4016              	.L208:
 4017              		.loc 1 2065 0
 4018 197a 03B0     		add	sp, sp, #12
 4019              		@ sp needed
 4020 197c 5DF804FB 		ldr	pc, [sp], #4
 4021              	.L213:
 4022              		.align	2
 4023              	.L212:
 4024 1980 14000000 		.word	HCI_ProcessEvent
 4025 1984 10000000 		.word	MEMSInterrupt
 4026              		.cfi_endproc
 4027              	.LFE293:
 4028              		.size	HAL_GPIO_EXTI_Callback, .-HAL_GPIO_EXTI_Callback
 4029              		.section	.rodata
 4030              		.align	2
 4031              	.LC16:
 4032 00f0 4D61676E 		.ascii	"Magneto Calibration will be saved in FLASH\015\012\000"
 4032      65746F20 
 4032      43616C69 
 4032      62726174 
 4032      696F6E20 
 4033              		.text
 4034              		.align	2
 4035 1988 AFF30080 		.p2align 4,,15
 4035      AFF30080 
 4036              		.thumb
 4037              		.thumb_func
 4038              		.type	SaveCalibrationToMemory, %function
 4039              	SaveCalibrationToMemory:
 4040              	.LFB294:
 4041              		.loc 1 2092 0
 4042              		.cfi_startproc
 4043              		@ args = 0, pretend = 0, frame = 16
 4044              		@ frame_needed = 0, uses_anonymous_args = 0
 4045 1990 30B5     		push	{r4, r5, lr}
 4046              		.cfi_def_cfa_offset 12
 4047              		.cfi_offset 4, -12
 4048              		.cfi_offset 5, -8
 4049              		.cfi_offset 14, -4
 4050 1992 85B0     		sub	sp, sp, #20
 4051              		.cfi_def_cfa_offset 32
ARM GAS  /tmp/ccQpHQw3.s 			page 74


 4052 1994 0190     		str	r0, [sp, #4]
 4053              		.loc 1 2093 0
 4054 1996 0123     		movs	r3, #1
 4055 1998 8DF80F30 		strb	r3, [sp, #15]
 4056              		.loc 1 2096 0
 4057 199c 0198     		ldr	r0, [sp, #4]
 4058 199e 00F077F8 		bl	ResetCalibrationInMemory
 4059 19a2 0346     		mov	r3, r0
 4060 19a4 8DF80F30 		strb	r3, [sp, #15]
 4061              		.loc 1 2098 0
 4062 19a8 9DF80F30 		ldrb	r3, [sp, #15]	@ zero_extendqisi2
 4063 19ac 002B     		cmp	r3, #0
 4064 19ae 4FD0     		beq	.L215
 4065              	.LBB30:
 4066              		.loc 1 2101 0
 4067 19b0 019B     		ldr	r3, [sp, #4]
 4068 19b2 2A4A     		ldr	r2, .L218
 4069 19b4 1A60     		str	r2, [r3]
 4070              		.loc 1 2102 0
 4071 19b6 019B     		ldr	r3, [sp, #4]
 4072 19b8 0433     		adds	r3, r3, #4
 4073 19ba 294A     		ldr	r2, .L218+4
 4074 19bc 1288     		ldrh	r2, [r2]
 4075 19be 12B2     		sxth	r2, r2
 4076 19c0 1A60     		str	r2, [r3]
 4077              		.loc 1 2103 0
 4078 19c2 019B     		ldr	r3, [sp, #4]
 4079 19c4 0833     		adds	r3, r3, #8
 4080 19c6 264A     		ldr	r2, .L218+4
 4081 19c8 5288     		ldrh	r2, [r2, #2]
 4082 19ca 12B2     		sxth	r2, r2
 4083 19cc 1A60     		str	r2, [r3]
 4084              		.loc 1 2104 0
 4085 19ce 019B     		ldr	r3, [sp, #4]
 4086 19d0 0C33     		adds	r3, r3, #12
 4087 19d2 234A     		ldr	r2, .L218+4
 4088 19d4 9288     		ldrh	r2, [r2, #4]
 4089 19d6 12B2     		sxth	r2, r2
 4090 19d8 1A60     		str	r2, [r3]
 4091              		.loc 1 2106 0
 4092 19da 224B     		ldr	r3, .L218+8
 4093 19dc 0293     		str	r3, [sp, #8]
 4094              		.loc 1 2107 0
 4095 19de 019B     		ldr	r3, [sp, #4]
 4096 19e0 1033     		adds	r3, r3, #16
 4097 19e2 029A     		ldr	r2, [sp, #8]
 4098 19e4 1268     		ldr	r2, [r2]
 4099 19e6 1A60     		str	r2, [r3]
 4100              		.loc 1 2108 0
 4101 19e8 1F4B     		ldr	r3, .L218+12
 4102 19ea 0293     		str	r3, [sp, #8]
 4103              		.loc 1 2109 0
 4104 19ec 019B     		ldr	r3, [sp, #4]
 4105 19ee 1433     		adds	r3, r3, #20
 4106 19f0 029A     		ldr	r2, [sp, #8]
 4107 19f2 1268     		ldr	r2, [r2]
 4108 19f4 1A60     		str	r2, [r3]
ARM GAS  /tmp/ccQpHQw3.s 			page 75


 4109              		.loc 1 2110 0
 4110 19f6 1D4B     		ldr	r3, .L218+16
 4111 19f8 0293     		str	r3, [sp, #8]
 4112              		.loc 1 2111 0
 4113 19fa 019B     		ldr	r3, [sp, #4]
 4114 19fc 1833     		adds	r3, r3, #24
 4115 19fe 029A     		ldr	r2, [sp, #8]
 4116 1a00 1268     		ldr	r2, [r2]
 4117 1a02 1A60     		str	r2, [r3]
 4118              		.loc 1 2112 0
 4119 1a04 1A4B     		ldr	r3, .L218+20
 4120 1a06 0293     		str	r3, [sp, #8]
 4121              		.loc 1 2113 0
 4122 1a08 019B     		ldr	r3, [sp, #4]
 4123 1a0a 1C33     		adds	r3, r3, #28
 4124 1a0c 029A     		ldr	r2, [sp, #8]
 4125 1a0e 1268     		ldr	r2, [r2]
 4126 1a10 1A60     		str	r2, [r3]
 4127              		.loc 1 2115 0
 4128 1a12 184B     		ldr	r3, .L218+24
 4129 1a14 1B68     		ldr	r3, [r3]
 4130 1a16 03F48063 		and	r3, r3, #1024
 4131 1a1a 002B     		cmp	r3, #0
 4132 1a1c 15D0     		beq	.L216
 4133              		.loc 1 2116 0
 4134 1a1e 164A     		ldr	r2, .L218+28
 4135 1a20 164B     		ldr	r3, .L218+32
 4136 1a22 1446     		mov	r4, r2
 4137 1a24 1D46     		mov	r5, r3
 4138 1a26 0FCD     		ldmia	r5!, {r0, r1, r2, r3}
 4139 1a28 0FC4     		stmia	r4!, {r0, r1, r2, r3}
 4140 1a2a 0FCD     		ldmia	r5!, {r0, r1, r2, r3}
 4141 1a2c 0FC4     		stmia	r4!, {r0, r1, r2, r3}
 4142 1a2e 95E80F00 		ldmia	r5, {r0, r1, r2, r3}
 4143 1a32 07C4     		stmia	r4!, {r0, r1, r2}
 4144 1a34 2370     		strb	r3, [r4]
 4145 1a36 124B     		ldr	r3, .L218+36
 4146 1a38 2C22     		movs	r2, #44
 4147 1a3a 1A60     		str	r2, [r3]
 4148              		.loc 1 2117 0
 4149 1a3c 104B     		ldr	r3, .L218+36
 4150 1a3e 1B68     		ldr	r3, [r3]
 4151 1a40 DBB2     		uxtb	r3, r3
 4152 1a42 0D48     		ldr	r0, .L218+28
 4153 1a44 1946     		mov	r1, r3
 4154 1a46 FFF7FEFF 		bl	Term_Update
 4155              	.L216:
 4156              		.loc 1 2121 0
 4157 1a4a 0E4B     		ldr	r3, .L218+40
 4158 1a4c 0122     		movs	r2, #1
 4159 1a4e 1A60     		str	r2, [r3]
 4160              	.L215:
 4161              	.LBE30:
 4162              		.loc 1 2124 0
 4163 1a50 9DF80F30 		ldrb	r3, [sp, #15]	@ zero_extendqisi2
 4164              		.loc 1 2125 0
 4165 1a54 1846     		mov	r0, r3
ARM GAS  /tmp/ccQpHQw3.s 			page 76


 4166 1a56 05B0     		add	sp, sp, #20
 4167              		@ sp needed
 4168 1a58 30BD     		pop	{r4, r5, pc}
 4169              	.L219:
 4170 1a5a 00BF     		.align	2
 4171              	.L218:
 4172 1a5c 78563412 		.word	305419896
 4173 1a60 00000000 		.word	magOffset
 4174 1a64 08000000 		.word	magOffset+8
 4175 1a68 0C000000 		.word	magOffset+12
 4176 1a6c 10000000 		.word	magOffset+16
 4177 1a70 14000000 		.word	magOffset+20
 4178 1a74 00000000 		.word	ConnectionBleStatus
 4179 1a78 00000000 		.word	BufferToWrite
 4180 1a7c F0000000 		.word	.LC16
 4181 1a80 00000000 		.word	BytesToWrite
 4182 1a84 00000000 		.word	NecessityToSaveMetaDataManager
 4183              		.cfi_endproc
 4184              	.LFE294:
 4185              		.size	SaveCalibrationToMemory, .-SaveCalibrationToMemory
 4186              		.section	.rodata
 4187 011d 000000   		.align	2
 4188              	.LC17:
 4189 0120 4D61676E 		.ascii	"Magneto Calibration will be eresed in FLASH\015\012"
 4189      65746F20 
 4189      43616C69 
 4189      62726174 
 4189      696F6E20 
 4190 014d 00       		.ascii	"\000"
 4191 014e 0000     		.text
 4192              		.align	2
 4193 1a88 AFF30080 		.p2align 4,,15
 4193      AFF30080 
 4194              		.thumb
 4195              		.thumb_func
 4196              		.type	ResetCalibrationInMemory, %function
 4197              	ResetCalibrationInMemory:
 4198              	.LFB295:
 4199              		.loc 1 2133 0
 4200              		.cfi_startproc
 4201              		@ args = 0, pretend = 0, frame = 16
 4202              		@ frame_needed = 0, uses_anonymous_args = 0
 4203 1a90 30B5     		push	{r4, r5, lr}
 4204              		.cfi_def_cfa_offset 12
 4205              		.cfi_offset 4, -12
 4206              		.cfi_offset 5, -8
 4207              		.cfi_offset 14, -4
 4208 1a92 85B0     		sub	sp, sp, #20
 4209              		.cfi_def_cfa_offset 32
 4210 1a94 0190     		str	r0, [sp, #4]
 4211              		.loc 1 2135 0
 4212 1a96 0123     		movs	r3, #1
 4213 1a98 8DF80B30 		strb	r3, [sp, #11]
 4214              		.loc 1 2138 0
 4215 1a9c 0023     		movs	r3, #0
 4216 1a9e 0393     		str	r3, [sp, #12]
 4217 1aa0 09E0     		b	.L221
ARM GAS  /tmp/ccQpHQw3.s 			page 77


 4218              	.L222:
 4219              		.loc 1 2139 0 discriminator 2
 4220 1aa2 039B     		ldr	r3, [sp, #12]
 4221 1aa4 9B00     		lsls	r3, r3, #2
 4222 1aa6 019A     		ldr	r2, [sp, #4]
 4223 1aa8 1344     		add	r3, r3, r2
 4224 1aaa 4FF0FF32 		mov	r2, #-1
 4225 1aae 1A60     		str	r2, [r3]
 4226              		.loc 1 2138 0 discriminator 2
 4227 1ab0 039B     		ldr	r3, [sp, #12]
 4228 1ab2 0133     		adds	r3, r3, #1
 4229 1ab4 0393     		str	r3, [sp, #12]
 4230              	.L221:
 4231              		.loc 1 2138 0 is_stmt 0 discriminator 1
 4232 1ab6 039B     		ldr	r3, [sp, #12]
 4233 1ab8 072B     		cmp	r3, #7
 4234 1aba F2DD     		ble	.L222
 4235              		.loc 1 2141 0 is_stmt 1
 4236 1abc 114B     		ldr	r3, .L225
 4237 1abe 1B68     		ldr	r3, [r3]
 4238 1ac0 03F48063 		and	r3, r3, #1024
 4239 1ac4 002B     		cmp	r3, #0
 4240 1ac6 15D0     		beq	.L223
 4241              		.loc 1 2142 0
 4242 1ac8 0F4A     		ldr	r2, .L225+4
 4243 1aca 104B     		ldr	r3, .L225+8
 4244 1acc 1446     		mov	r4, r2
 4245 1ace 1D46     		mov	r5, r3
 4246 1ad0 0FCD     		ldmia	r5!, {r0, r1, r2, r3}
 4247 1ad2 0FC4     		stmia	r4!, {r0, r1, r2, r3}
 4248 1ad4 0FCD     		ldmia	r5!, {r0, r1, r2, r3}
 4249 1ad6 0FC4     		stmia	r4!, {r0, r1, r2, r3}
 4250 1ad8 95E80F00 		ldmia	r5, {r0, r1, r2, r3}
 4251 1adc 07C4     		stmia	r4!, {r0, r1, r2}
 4252 1ade 2380     		strh	r3, [r4]	@ movhi
 4253 1ae0 0B4B     		ldr	r3, .L225+12
 4254 1ae2 2D22     		movs	r2, #45
 4255 1ae4 1A60     		str	r2, [r3]
 4256              		.loc 1 2143 0
 4257 1ae6 0A4B     		ldr	r3, .L225+12
 4258 1ae8 1B68     		ldr	r3, [r3]
 4259 1aea DBB2     		uxtb	r3, r3
 4260 1aec 0648     		ldr	r0, .L225+4
 4261 1aee 1946     		mov	r1, r3
 4262 1af0 FFF7FEFF 		bl	Term_Update
 4263              	.L223:
 4264              		.loc 1 2147 0
 4265 1af4 074B     		ldr	r3, .L225+16
 4266 1af6 0122     		movs	r2, #1
 4267 1af8 1A60     		str	r2, [r3]
 4268              		.loc 1 2149 0
 4269 1afa 9DF80B30 		ldrb	r3, [sp, #11]	@ zero_extendqisi2
 4270              		.loc 1 2150 0
 4271 1afe 1846     		mov	r0, r3
 4272 1b00 05B0     		add	sp, sp, #20
 4273              		@ sp needed
 4274 1b02 30BD     		pop	{r4, r5, pc}
ARM GAS  /tmp/ccQpHQw3.s 			page 78


 4275              	.L226:
 4276              		.align	2
 4277              	.L225:
 4278 1b04 00000000 		.word	ConnectionBleStatus
 4279 1b08 00000000 		.word	BufferToWrite
 4280 1b0c 20010000 		.word	.LC17
 4281 1b10 00000000 		.word	BytesToWrite
 4282 1b14 00000000 		.word	NecessityToSaveMetaDataManager
 4283              		.cfi_endproc
 4284              	.LFE295:
 4285              		.size	ResetCalibrationInMemory, .-ResetCalibrationInMemory
 4286              		.align	2
 4287 1b18 AFF30080 		.p2align 4,,15
 4287      AFF30080 
 4288              		.thumb
 4289              		.thumb_func
 4290              		.type	ReCallCalibrationFromMemory, %function
 4291              	ReCallCalibrationFromMemory:
 4292              	.LFB296:
 4293              		.loc 1 2158 0
 4294              		.cfi_startproc
 4295              		@ args = 0, pretend = 0, frame = 16
 4296              		@ frame_needed = 0, uses_anonymous_args = 0
 4297              		@ link register save eliminated.
 4298 1b20 84B0     		sub	sp, sp, #16
 4299              		.cfi_def_cfa_offset 16
 4300 1b22 0190     		str	r0, [sp, #4]
 4301              		.loc 1 2160 0
 4302 1b24 0123     		movs	r3, #1
 4303 1b26 8DF80F30 		strb	r3, [sp, #15]
 4304              		.loc 1 2162 0
 4305 1b2a 019B     		ldr	r3, [sp, #4]
 4306 1b2c 1A68     		ldr	r2, [r3]
 4307 1b2e 1D4B     		ldr	r3, .L231
 4308 1b30 9A42     		cmp	r2, r3
 4309 1b32 2ED1     		bne	.L228
 4310              	.LBB31:
 4311              		.loc 1 2164 0
 4312 1b34 019B     		ldr	r3, [sp, #4]
 4313 1b36 0433     		adds	r3, r3, #4
 4314 1b38 1B68     		ldr	r3, [r3]
 4315 1b3a 9AB2     		uxth	r2, r3
 4316 1b3c 1A4B     		ldr	r3, .L231+4
 4317 1b3e 1A80     		strh	r2, [r3]	@ movhi
 4318              		.loc 1 2165 0
 4319 1b40 019B     		ldr	r3, [sp, #4]
 4320 1b42 0833     		adds	r3, r3, #8
 4321 1b44 1B68     		ldr	r3, [r3]
 4322 1b46 9AB2     		uxth	r2, r3
 4323 1b48 174B     		ldr	r3, .L231+4
 4324 1b4a 5A80     		strh	r2, [r3, #2]	@ movhi
 4325              		.loc 1 2166 0
 4326 1b4c 019B     		ldr	r3, [sp, #4]
 4327 1b4e 0C33     		adds	r3, r3, #12
 4328 1b50 1B68     		ldr	r3, [r3]
 4329 1b52 9AB2     		uxth	r2, r3
 4330 1b54 144B     		ldr	r3, .L231+4
ARM GAS  /tmp/ccQpHQw3.s 			page 79


 4331 1b56 9A80     		strh	r2, [r3, #4]	@ movhi
 4332              		.loc 1 2167 0
 4333 1b58 019B     		ldr	r3, [sp, #4]
 4334 1b5a 1033     		adds	r3, r3, #16
 4335 1b5c 0293     		str	r3, [sp, #8]
 4336              		.loc 1 2168 0
 4337 1b5e 029B     		ldr	r3, [sp, #8]
 4338 1b60 1A68     		ldr	r2, [r3]	@ float
 4339 1b62 114B     		ldr	r3, .L231+4
 4340 1b64 9A60     		str	r2, [r3, #8]	@ float
 4341              		.loc 1 2169 0
 4342 1b66 019B     		ldr	r3, [sp, #4]
 4343 1b68 1433     		adds	r3, r3, #20
 4344 1b6a 0293     		str	r3, [sp, #8]
 4345              		.loc 1 2170 0
 4346 1b6c 029B     		ldr	r3, [sp, #8]
 4347 1b6e 1A68     		ldr	r2, [r3]	@ float
 4348 1b70 0D4B     		ldr	r3, .L231+4
 4349 1b72 DA60     		str	r2, [r3, #12]	@ float
 4350              		.loc 1 2171 0
 4351 1b74 019B     		ldr	r3, [sp, #4]
 4352 1b76 1833     		adds	r3, r3, #24
 4353 1b78 0293     		str	r3, [sp, #8]
 4354              		.loc 1 2172 0
 4355 1b7a 029B     		ldr	r3, [sp, #8]
 4356 1b7c 1A68     		ldr	r2, [r3]	@ float
 4357 1b7e 0A4B     		ldr	r3, .L231+4
 4358 1b80 1A61     		str	r2, [r3, #16]	@ float
 4359              		.loc 1 2173 0
 4360 1b82 019B     		ldr	r3, [sp, #4]
 4361 1b84 1C33     		adds	r3, r3, #28
 4362 1b86 0293     		str	r3, [sp, #8]
 4363              		.loc 1 2174 0
 4364 1b88 029B     		ldr	r3, [sp, #8]
 4365 1b8a 1A68     		ldr	r2, [r3]	@ float
 4366 1b8c 064B     		ldr	r3, .L231+4
 4367 1b8e 5A61     		str	r2, [r3, #20]	@ float
 4368              	.LBE31:
 4369 1b90 02E0     		b	.L229
 4370              	.L228:
 4371              		.loc 1 2184 0
 4372 1b92 064B     		ldr	r3, .L231+8
 4373 1b94 0022     		movs	r2, #0
 4374 1b96 1A70     		strb	r2, [r3]
 4375              	.L229:
 4376              		.loc 1 2187 0
 4377 1b98 9DF80F30 		ldrb	r3, [sp, #15]	@ zero_extendqisi2
 4378              		.loc 1 2188 0
 4379 1b9c 1846     		mov	r0, r3
 4380 1b9e 04B0     		add	sp, sp, #16
 4381              		@ sp needed
 4382 1ba0 7047     		bx	lr
 4383              	.L232:
 4384 1ba2 00BF     		.align	2
 4385              	.L231:
 4386 1ba4 78563412 		.word	305419896
 4387 1ba8 00000000 		.word	magOffset
ARM GAS  /tmp/ccQpHQw3.s 			page 80


 4388 1bac 36000000 		.word	isCal
 4389              		.cfi_endproc
 4390              	.LFE296:
 4391              		.size	ReCallCalibrationFromMemory, .-ReCallCalibrationFromMemory
 4392              		.bss
 4393              		.align	2
 4394              	tickstart.19044:
 4395 003c 00000000 		.space	4
 4396              		.align	2
 4397              	HowManyButtonPress.19043:
 4398 0040 00000000 		.space	4
 4399              		.align	2
 4400              	CounterEC.19069:
 4401 0044 00000000 		.space	4
 4402              		.align	2
 4403              	CounterFX.19068:
 4404 0048 00000000 		.space	4
 4405              		.align	2
 4406              	calibIndex.19067:
 4407 004c 00000000 		.space	4
 4408              		.align	2
 4409              	quat_axes.19066:
 4410 0050 00000000 		.space	36
 4410      00000000 
 4410      00000000 
 4410      00000000 
 4410      00000000 
 4411              	ActivityCodeStored.19081:
 4412 0074 00       		.space	1
 4413              	CarryPositionCodeStored.19086:
 4414 0075 00       		.space	1
 4415              	GestureRecognitionCodeStored.19091:
 4416 0076 00       		.space	1
 4417 0077 00       		.text
 4418              	.Letext0:
 4419              		.file 3 "/nfs/nfs5/home/research/hardware/arm2/gcc-arm-embedded/gcc-arm-none-eabi-4_8-2014q2/lib/g
 4420              		.file 4 "/nfs/nfs5/home/research/hardware/arm2/gcc-arm-embedded/gcc-arm-none-eabi-4_8-2014q2/arm-n
 4421              		.file 5 "/nfs/nfs5/home/research/hardware/arm2/gcc-arm-embedded/gcc-arm-none-eabi-4_8-2014q2/arm-n
 4422              		.file 6 "../../../../../../ChibiOS/os/ext/CMSIS/ST/STM32L4xx/stm32l476xx.h"
 4423              		.file 7 "../../../../../Drivers/STM32L4xx_HAL_Driver/Inc/stm32l4xx_hal_def.h"
 4424              		.file 8 "../../../../../Drivers/STM32L4xx_HAL_Driver/Inc/stm32l4xx_hal_rcc.h"
 4425              		.file 9 "../../../../../Drivers/STM32L4xx_HAL_Driver/Inc/stm32l4xx_hal_rcc_ex.h"
 4426              		.file 10 "../../../../../Drivers/STM32L4xx_HAL_Driver/Inc/stm32l4xx_hal_dma.h"
 4427              		.file 11 "../../../../../Drivers/STM32L4xx_HAL_Driver/Inc/stm32l4xx_hal_tim.h"
 4428              		.file 12 "../../../../../Drivers/BSP/Components/Common/component.h"
 4429              		.file 13 "../../../../../Drivers/BSP/Components/Common/sensor.h"
 4430              		.file 14 "../../../../../Middlewares/ST/STM32_MetaDataManager/MetaDataManager.h"
 4431              		.file 15 "../../../../../Middlewares/ST/STM32_OSX_MotionFX_Library/Inc/osx_motion_fx.h"
 4432              		.file 16 "../../../../../Middlewares/ST/STM32_OSX_MotionAR_Library/Inc/osx_motion_ar.h"
 4433              		.file 17 "../../../../../Middlewares/ST/STM32_OSX_MotionCP_Library/Inc/osx_motion_cp.h"
 4434              		.file 18 "../../../../../Middlewares/ST/STM32_OSX_MotionGR_Library/Inc/osx_motion_gr.h"
 4435              		.file 19 "../../../../../Projects/Multi/Applications/BlueMicrosystem2/Inc/TargetFeatures.h"
 4436              		.file 20 "../../../../../../ChibiOS/os/rt/ports/ARMCMx/compilers/GCC/chtypes.h"
 4437              		.file 21 "../../../../../../ChibiOS/os/rt/include/chsystypes.h"
 4438              		.file 22 "../../../../../../ChibiOS/os/rt/include/chschd.h"
 4439              		.file 23 "../../../../../../ChibiOS/os/rt/ports/ARMCMx/chcore.h"
 4440              		.file 24 "../../../../../../ChibiOS/os/rt/ports/ARMCMx/chcore_v7m.h"
ARM GAS  /tmp/ccQpHQw3.s 			page 81


 4441              		.file 25 "../../../../../../ChibiOS/os/rt/include/chtm.h"
 4442              		.file 26 "../../../../../../ChibiOS/os/rt/include/chsem.h"
 4443              		.file 27 "../../../../../../ChibiOS/os/rt/include/chmtx.h"
 4444              		.file 28 "../../../../../Projects/Multi/Applications/BlueMicrosystem2/Inc/HWAdvanceFeatures.h"
 4445              		.file 29 "../../../../../../ChibiOS/os/ext/CMSIS/include/core_cm4.h"
 4446              		.file 30 "../../../../../../ChibiOS/os/ext/CMSIS/ST/STM32L4xx/system_stm32l4xx.h"
 4447              		.file 31 "../../../../../Projects/Multi/Applications/BlueMicrosystem2/Inc/AudioBV_Manager.h"