ARM GAS  /tmp/ccQpHQw3.s 			page 1


   1              		.syntax unified
   2              		.cpu cortex-m4
   3              		.fpu softvfp
   4              		.eabi_attribute 20, 1
   5              		.eabi_attribute 21, 1
   6              		.eabi_attribute 23, 3
   7              		.eabi_attribute 24, 1
   8              		.eabi_attribute 25, 1
   9              		.eabi_attribute 26, 1
  10              		.eabi_attribute 30, 6
  11              		.eabi_attribute 34, 1
  12              		.eabi_attribute 18, 4
  13              		.thumb
  14              		.file	"btle.c"
  15              		.text
  16              	.Ltext0:
  17              		.cfi_sections	.debug_frame
  18              		.comm	sensitivity,4,4
  19              		.comm	sensitivity_Mul,4,4
  20              		.comm	magOffset,24,4
  21              		.global	ConnectionBleStatus
  22              		.bss
  23              		.align	2
  24              		.type	ConnectionBleStatus, %object
  25              		.size	ConnectionBleStatus, 4
  26              	ConnectionBleStatus:
  27 0000 00000000 		.space	4
  28              		.global	ForceReCalibration
  29              		.align	2
  30              		.type	ForceReCalibration, %object
  31              		.size	ForceReCalibration, 4
  32              	ForceReCalibration:
  33 0004 00000000 		.space	4
  34              		.global	FirstConnectionConfig
  35              		.align	2
  36              		.type	FirstConnectionConfig, %object
  37              		.size	FirstConnectionConfig, 4
  38              	FirstConnectionConfig:
  39 0008 00000000 		.space	4
  40              		.comm	BufferToWrite,256,4
  41              		.comm	BytesToWrite,4,4
  42              		.comm	TimCCHandle,60,4
  43              		.comm	TimEnvHandle,60,4
  44              		.comm	TimAudioDataHandle,60,4
  45              		.comm	bdaddr,6,4
  46              		.global	uhCCR4_Val
  47              		.data
  48              		.align	2
  49              		.type	uhCCR4_Val, %object
  50              		.size	uhCCR4_Val, 4
  51              	uhCCR4_Val:
  52 0000 F4010000 		.word	500
  53              		.global	known_OsxLic
  54              		.align	2
  55              		.type	known_OsxLic, %object
  56              		.size	known_OsxLic, 270
  57              	known_OsxLic:
ARM GAS  /tmp/ccQpHQw3.s 			page 2


  58 0004 01       		.byte	1
  59 0005 4D6F7469 		.ascii	"Motion\000"
  59      6F6E00
  60 000c 00       		.space	1
  61 000d 6F73784D 		.ascii	"osxMotionFX x9/x6 v1.0.7\000"
  61      6F74696F 
  61      6E465820 
  61      78392F78 
  61      36207631 
  62 0026 00000000 		.space	11
  62      00000000 
  62      000000
  63 0031 02       		.byte	2
  64 0032 4D6F7469 		.ascii	"Motion\000"
  64      6F6E00
  65 0039 00       		.space	1
  66 003a 6F73784D 		.ascii	"osxMotionAR v1.2.0\000"
  66      6F74696F 
  66      6E415220 
  66      76312E32 
  66      2E3000
  67 004d 00000000 		.space	17
  67      00000000 
  67      00000000 
  67      00000000 
  67      00
  68 005e 03       		.byte	3
  69 005f 4D6F7469 		.ascii	"Motion\000"
  69      6F6E00
  70 0066 00       		.space	1
  71 0067 6F73784D 		.ascii	"osxMotionCP v1.0.0\000"
  71      6F74696F 
  71      6E435020 
  71      76312E30 
  71      2E3000
  72 007a 00000000 		.space	17
  72      00000000 
  72      00000000 
  72      00000000 
  72      00
  73 008b 04       		.byte	4
  74 008c 4D6F7469 		.ascii	"Motion\000"
  74      6F6E00
  75 0093 00       		.space	1
  76 0094 6F73784D 		.ascii	"osxMotionGR v1.0.0\000"
  76      6F74696F 
  76      6E475220 
  76      76312E30 
  76      2E3000
  77 00a7 00000000 		.space	17
  77      00000000 
  77      00000000 
  77      00000000 
  77      00
  78 00b8 08       		.byte	8
  79 00b9 41756469 		.ascii	"Audio\000"
  79      6F00
ARM GAS  /tmp/ccQpHQw3.s 			page 3


  80 00bf 0000     		.space	2
  81 00c1 6F737842 		.ascii	"osxBlueVoice v2.0.0\000"
  81      6C756556 
  81      6F696365 
  81      2076322E 
  81      302E3000 
  82 00d5 00000000 		.space	16
  82      00000000 
  82      00000000 
  82      00000000 
  83 00e5 00       		.byte	0
  84 00e6 4C415354 		.ascii	"LAST\000"
  84      00
  85 00eb 000000   		.space	3
  86 00ee 00       		.ascii	"\000"
  87 00ef 00000000 		.space	35
  87      00000000 
  87      00000000 
  87      00000000 
  87      00000000 
  88 0112 0000     		.bss
  89              		.align	2
  90              	ButtonPressed:
  91 000c 00000000 		.space	4
  92              		.align	2
  93              	MEMSInterrupt:
  94 0010 00000000 		.space	4
  95              		.align	2
  96              	HCI_ProcessEvent:
  97 0014 00000000 		.space	4
  98              		.align	2
  99              	SendEnv:
 100 0018 00000000 		.space	4
 101              		.align	2
 102              	SendAudioLevel:
 103 001c 00000000 		.space	4
 104              		.align	2
 105              	SendAccGyroMag:
 106 0020 00000000 		.space	4
 107              		.align	2
 108              	Quaternion:
 109 0024 00000000 		.space	4
 110              		.align	2
 111              	UpdateMotionAR:
 112 0028 00000000 		.space	4
 113              		.align	2
 114              	UpdateMotionCP:
 115 002c 00000000 		.space	4
 116              		.align	2
 117              	UpdateMotionGR:
 118 0030 00000000 		.space	4
 119              		.align	1
 120              	num_byte_sent:
 121 0034 0000     		.space	2
 122              	isCal:
 123 0036 00       		.space	1
 124              		.global	t_coin
ARM GAS  /tmp/ccQpHQw3.s 			page 4


 125 0037 00       		.align	2
 126              		.type	t_coin, %object
 127              		.size	t_coin, 4
 128              	t_coin:
 129 0038 00000000 		.space	4
 130              		.global	__aeabi_fmul
 131              		.text
 132              		.align	2
 133              		.p2align 4,,15
 134              		.global	btle_main
 135              		.thumb
 136              		.thumb_func
 137              		.type	btle_main, %function
 138              	btle_main:
 139              	.LFB269:
 140              		.file 1 "btle.c"
 141              		.loc 1 384 0
 142              		.cfi_startproc
 143              		@ args = 0, pretend = 0, frame = 24
 144              		@ frame_needed = 0, uses_anonymous_args = 0
 145 0000 00B5     		push	{lr}
 146              		.cfi_def_cfa_offset 4
 147              		.cfi_offset 14, -4
 148 0002 87B0     		sub	sp, sp, #28
 149              		.cfi_def_cfa_offset 32
 150              		.loc 1 393 0
 151 0004 0220     		movs	r0, #2
 152 0006 FFF7FEFF 		bl	InitTargetPlatform
 153              		.loc 1 397 0
 154 000a 6148     		ldr	r0, .L37
 155 000c 0021     		movs	r1, #0
 156 000e 0022     		movs	r2, #0
 157 0010 FFF7FEFF 		bl	InitMetaDataManager
 158              	.LBB11:
 159              		.loc 1 400 0
 160 0014 0023     		movs	r3, #0
 161 0016 0593     		str	r3, [sp, #20]
 162              		.loc 1 401 0
 163 0018 6DE0     		b	.L2
 164              	.L11:
 165              	.LBB12:
 166              		.loc 1 402 0
 167 001a 5D49     		ldr	r1, .L37
 168 001c 059A     		ldr	r2, [sp, #20]
 169 001e 1346     		mov	r3, r2
 170 0020 5B00     		lsls	r3, r3, #1
 171 0022 1344     		add	r3, r3, r2
 172 0024 1A01     		lsls	r2, r3, #4
 173 0026 D21A     		subs	r2, r2, r3
 174 0028 8B18     		adds	r3, r1, r2
 175 002a 1B78     		ldrb	r3, [r3]	@ zero_extendqisi2
 176 002c 594A     		ldr	r2, .L37+4
 177 002e 5B01     		lsls	r3, r3, #5
 178 0030 1344     		add	r3, r3, r2
 179 0032 1833     		adds	r3, r3, #24
 180 0034 5B68     		ldr	r3, [r3, #4]
 181 0036 0493     		str	r3, [sp, #16]
ARM GAS  /tmp/ccQpHQw3.s 			page 5


 182              		.loc 1 403 0
 183 0038 049B     		ldr	r3, [sp, #16]
 184 003a 5B68     		ldr	r3, [r3, #4]
 185 003c 002B     		cmp	r3, #0
 186 003e 57D0     		beq	.L3
 187              		.loc 1 404 0
 188 0040 5349     		ldr	r1, .L37
 189 0042 059A     		ldr	r2, [sp, #20]
 190 0044 1346     		mov	r3, r2
 191 0046 5B00     		lsls	r3, r3, #1
 192 0048 1344     		add	r3, r3, r2
 193 004a 1A01     		lsls	r2, r3, #4
 194 004c D21A     		subs	r2, r2, r3
 195 004e 8B18     		adds	r3, r1, r2
 196 0050 1B78     		ldrb	r3, [r3]	@ zero_extendqisi2
 197 0052 013B     		subs	r3, r3, #1
 198 0054 072B     		cmp	r3, #7
 199 0056 4AD8     		bhi	.L36
 200 0058 01A2     		adr	r2, .L6
 201 005a 52F823F0 		ldr	pc, [r2, r3, lsl #2]
 202 005e 00BF     		.p2align 2
 203              	.L6:
 204 0060 81000000 		.word	.L5+1
 205 0064 97000000 		.word	.L7+1
 206 0068 AD000000 		.word	.L8+1
 207 006c C3000000 		.word	.L9+1
 208 0070 EF000000 		.word	.L36+1
 209 0074 EF000000 		.word	.L36+1
 210 0078 EF000000 		.word	.L36+1
 211 007c D9000000 		.word	.L10+1
 212              		.p2align 1
 213              	.L5:
 214              		.loc 1 408 0
 215 0080 049B     		ldr	r3, [sp, #16]
 216 0082 2C33     		adds	r3, r3, #44
 217 0084 4448     		ldr	r0, .L37+8
 218 0086 1946     		mov	r1, r3
 219 0088 3022     		movs	r2, #48
 220 008a FFF7FEFF 		bl	memcpy
 221              		.loc 1 409 0
 222 008e 0498     		ldr	r0, [sp, #16]
 223 0090 FFF7FEFF 		bl	MotionFX_License_init
 224              		.loc 1 410 0
 225 0094 2CE0     		b	.L3
 226              	.L7:
 227              		.loc 1 415 0
 228 0096 049B     		ldr	r3, [sp, #16]
 229 0098 2C33     		adds	r3, r3, #44
 230 009a 4048     		ldr	r0, .L37+12
 231 009c 1946     		mov	r1, r3
 232 009e 3022     		movs	r2, #48
 233 00a0 FFF7FEFF 		bl	memcpy
 234              		.loc 1 416 0
 235 00a4 0498     		ldr	r0, [sp, #16]
 236 00a6 FFF7FEFF 		bl	MotionAR_License_init
 237              		.loc 1 417 0
 238 00aa 21E0     		b	.L3
ARM GAS  /tmp/ccQpHQw3.s 			page 6


 239              	.L8:
 240              		.loc 1 422 0
 241 00ac 049B     		ldr	r3, [sp, #16]
 242 00ae 2C33     		adds	r3, r3, #44
 243 00b0 3B48     		ldr	r0, .L37+16
 244 00b2 1946     		mov	r1, r3
 245 00b4 3022     		movs	r2, #48
 246 00b6 FFF7FEFF 		bl	memcpy
 247              		.loc 1 423 0
 248 00ba 0498     		ldr	r0, [sp, #16]
 249 00bc FFF7FEFF 		bl	MotionCP_License_init
 250              		.loc 1 424 0
 251 00c0 16E0     		b	.L3
 252              	.L9:
 253              		.loc 1 429 0
 254 00c2 049B     		ldr	r3, [sp, #16]
 255 00c4 2C33     		adds	r3, r3, #44
 256 00c6 3748     		ldr	r0, .L37+20
 257 00c8 1946     		mov	r1, r3
 258 00ca 3022     		movs	r2, #48
 259 00cc FFF7FEFF 		bl	memcpy
 260              		.loc 1 430 0
 261 00d0 0498     		ldr	r0, [sp, #16]
 262 00d2 FFF7FEFF 		bl	MotionGR_License_init
 263              		.loc 1 431 0
 264 00d6 0BE0     		b	.L3
 265              	.L10:
 266              		.loc 1 443 0
 267 00d8 049B     		ldr	r3, [sp, #16]
 268 00da 2C33     		adds	r3, r3, #44
 269 00dc 3248     		ldr	r0, .L37+24
 270 00de 1946     		mov	r1, r3
 271 00e0 3022     		movs	r2, #48
 272 00e2 FFF7FEFF 		bl	memcpy
 273              		.loc 1 444 0
 274 00e6 0498     		ldr	r0, [sp, #16]
 275 00e8 FFF7FEFF 		bl	AudioBV_License_init
 276              		.loc 1 445 0
 277 00ec 00E0     		b	.L3
 278              	.L36:
 279              		.loc 1 451 0
 280 00ee 00BF     		nop
 281              	.L3:
 282              		.loc 1 497 0
 283 00f0 059B     		ldr	r3, [sp, #20]
 284 00f2 0133     		adds	r3, r3, #1
 285 00f4 0593     		str	r3, [sp, #20]
 286              	.L2:
 287              	.LBE12:
 288              		.loc 1 401 0 discriminator 1
 289 00f6 2649     		ldr	r1, .L37
 290 00f8 059A     		ldr	r2, [sp, #20]
 291 00fa 1346     		mov	r3, r2
 292 00fc 5B00     		lsls	r3, r3, #1
 293 00fe 1344     		add	r3, r3, r2
 294 0100 1A01     		lsls	r2, r3, #4
 295 0102 D21A     		subs	r2, r2, r3
ARM GAS  /tmp/ccQpHQw3.s 			page 7


 296 0104 8B18     		adds	r3, r1, r2
 297 0106 1B78     		ldrb	r3, [r3]	@ zero_extendqisi2
 298 0108 002B     		cmp	r3, #0
 299 010a 86D1     		bne	.L11
 300              	.LBE11:
 301              		.loc 1 534 0
 302 010c 01F0C0FA 		bl	Init_BlueNRG_Stack
 303              		.loc 1 537 0
 304 0110 01F06EFB 		bl	Init_BlueNRG_Custom_Services
 305              		.loc 1 539 0
 306 0114 254B     		ldr	r3, .L37+28
 307 0116 9B69     		ldr	r3, [r3, #24]
 308 0118 002B     		cmp	r3, #0
 309 011a 01D0     		beq	.L12
 310              		.loc 1 540 0
 311 011c FFF7FEFF 		bl	InitHWFeatures
 312              	.L12:
 313              		.loc 1 544 0
 314 0120 FFF7FEFF 		bl	Set2GAccelerometerFullScale
 315              		.loc 1 547 0
 316 0124 214B     		ldr	r3, .L37+28
 317 0126 DB69     		ldr	r3, [r3, #28]
 318 0128 1846     		mov	r0, r3
 319 012a 2149     		ldr	r1, .L37+32
 320 012c FFF7FEFF 		bl	BSP_ACCELERO_Get_Sensitivity
 321              		.loc 1 548 0
 322 0130 1F4B     		ldr	r3, .L37+32
 323 0132 1B68     		ldr	r3, [r3]	@ float
 324 0134 1846     		mov	r0, r3
 325 0136 1F49     		ldr	r1, .L37+36
 326 0138 FFF7FEFF 		bl	__aeabi_fmul
 327 013c 0346     		mov	r3, r0
 328 013e 1A46     		mov	r2, r3
 329 0140 1D4B     		ldr	r3, .L37+40
 330 0142 1A60     		str	r2, [r3]	@ float
 331              		.loc 1 551 0
 332 0144 01F0FCF9 		bl	InitTimers
 333              		.loc 1 554 0
 334 0148 124B     		ldr	r3, .L37+4
 335 014a DB6B     		ldr	r3, [r3, #60]
 336 014c 002B     		cmp	r3, #0
 337 014e 0BD0     		beq	.L13
 338              	.LBB13:
 339              		.loc 1 555 0
 340 0150 104B     		ldr	r3, .L37+4
 341 0152 DB6B     		ldr	r3, [r3, #60]
 342 0154 0393     		str	r3, [sp, #12]
 343              		.loc 1 556 0
 344 0156 039B     		ldr	r3, [sp, #12]
 345 0158 5B68     		ldr	r3, [r3, #4]
 346 015a 002B     		cmp	r3, #0
 347 015c 04D0     		beq	.L13
 348              		.loc 1 557 0
 349 015e 039B     		ldr	r3, [sp, #12]
 350 0160 5C33     		adds	r3, r3, #92
 351 0162 1846     		mov	r0, r3
 352 0164 01F0DCFC 		bl	ReCallCalibrationFromMemory
ARM GAS  /tmp/ccQpHQw3.s 			page 8


 353              	.L13:
 354              	.LBE13:
 355              		.loc 1 564 0
 356 0168 144B     		ldr	r3, .L37+44
 357 016a 1B68     		ldr	r3, [r3]
 358 016c 002B     		cmp	r3, #0
 359 016e 30D1     		bne	.L14
 360              		.loc 1 565 0
 361 0170 0E4B     		ldr	r3, .L37+28
 362 0172 93F82C30 		ldrb	r3, [r3, #44]	@ zero_extendqisi2
 363 0176 002B     		cmp	r3, #0
 364 0178 22D1     		bne	.L15
 365              		.loc 1 566 0
 366 017a FFF7FEFF 		bl	HAL_GetTick
 367 017e 0346     		mov	r3, r0
 368 0180 C3F30903 		ubfx	r3, r3, #0, #10
 369 0184 002B     		cmp	r3, #0
 370 0186 24D1     		bne	.L14
 371              		.loc 1 567 0
 372 0188 FFF7FEFF 		bl	LedOnTargetPlatform
 373 018c 21E0     		b	.L14
 374              	.L38:
 375 018e 00BF     		.align	2
 376              	.L37:
 377 0190 00000000 		.word	known_OsxLic
 378 0194 00000000 		.word	MDM_LicTable
 379 0198 00000000 		.word	osx_mfx_license
 380 019c 00000000 		.word	osx_mar_license
 381 01a0 00000000 		.word	osx_mcp_license
 382 01a4 00000000 		.word	osx_mgr_license
 383 01a8 00000000 		.word	osx_bv_license
 384 01ac 00000000 		.word	TargetBoardFeatures
 385 01b0 00000000 		.word	sensitivity
 386 01b4 6F12833A 		.word	981668463
 387 01b8 00000000 		.word	sensitivity_Mul
 388 01bc 00000000 		.word	connected
 389              	.L15:
 390              		.loc 1 570 0
 391 01c0 FFF7FEFF 		bl	HAL_GetTick
 392 01c4 0346     		mov	r3, r0
 393 01c6 03F03F03 		and	r3, r3, #63
 394 01ca 002B     		cmp	r3, #0
 395 01cc 01D1     		bne	.L14
 396              		.loc 1 571 0
 397 01ce FFF7FEFF 		bl	LedOffTargetPlatform
 398              	.L14:
 399              		.loc 1 576 0
 400 01d2 754B     		ldr	r3, .L39
 401 01d4 1B78     		ldrb	r3, [r3]	@ zero_extendqisi2
 402 01d6 002B     		cmp	r3, #0
 403 01d8 78D0     		beq	.L17
 404              	.LBB14:
 405              		.loc 1 582 0
 406 01da 744B     		ldr	r3, .L39+4
 407 01dc DB6B     		ldr	r3, [r3, #60]
 408 01de 0293     		str	r3, [sp, #8]
 409              		.loc 1 583 0
ARM GAS  /tmp/ccQpHQw3.s 			page 9


 410 01e0 029B     		ldr	r3, [sp, #8]
 411 01e2 002B     		cmp	r3, #0
 412 01e4 0FD0     		beq	.L18
 413              		.loc 1 584 0
 414 01e6 029B     		ldr	r3, [sp, #8]
 415 01e8 5A68     		ldr	r2, [r3, #4]
 416 01ea 714B     		ldr	r3, .L39+8
 417 01ec 5B6B     		ldr	r3, [r3, #52]
 418 01ee 002B     		cmp	r3, #0
 419 01f0 14BF     		ite	ne
 420 01f2 0023     		movne	r3, #0
 421 01f4 0123     		moveq	r3, #1
 422 01f6 DBB2     		uxtb	r3, r3
 423 01f8 1340     		ands	r3, r3, r2
 424 01fa 002B     		cmp	r3, #0
 425 01fc 03D0     		beq	.L18
 426              		.loc 1 585 0
 427 01fe FFF7FEFF 		bl	MotionFX_manager_init
 428              		.loc 1 586 0
 429 0202 FFF7FEFF 		bl	MotionFX_manager_start_9X
 430              	.L18:
 431              		.loc 1 593 0
 432 0206 694B     		ldr	r3, .L39+4
 433 0208 DB6D     		ldr	r3, [r3, #92]
 434 020a 0293     		str	r3, [sp, #8]
 435              		.loc 1 594 0
 436 020c 029B     		ldr	r3, [sp, #8]
 437 020e 002B     		cmp	r3, #0
 438 0210 0DD0     		beq	.L19
 439              		.loc 1 595 0
 440 0212 029B     		ldr	r3, [sp, #8]
 441 0214 5A68     		ldr	r2, [r3, #4]
 442 0216 664B     		ldr	r3, .L39+8
 443 0218 9B6B     		ldr	r3, [r3, #56]
 444 021a 002B     		cmp	r3, #0
 445 021c 14BF     		ite	ne
 446 021e 0023     		movne	r3, #0
 447 0220 0123     		moveq	r3, #1
 448 0222 DBB2     		uxtb	r3, r3
 449 0224 1340     		ands	r3, r3, r2
 450 0226 002B     		cmp	r3, #0
 451 0228 01D0     		beq	.L19
 452              		.loc 1 596 0
 453 022a FFF7FEFF 		bl	MotionAR_manager_init
 454              	.L19:
 455              		.loc 1 603 0
 456 022e 5F4B     		ldr	r3, .L39+4
 457 0230 DB6F     		ldr	r3, [r3, #124]
 458 0232 0293     		str	r3, [sp, #8]
 459              		.loc 1 604 0
 460 0234 029B     		ldr	r3, [sp, #8]
 461 0236 002B     		cmp	r3, #0
 462 0238 0DD0     		beq	.L20
 463              		.loc 1 605 0
 464 023a 029B     		ldr	r3, [sp, #8]
 465 023c 5A68     		ldr	r2, [r3, #4]
 466 023e 5C4B     		ldr	r3, .L39+8
ARM GAS  /tmp/ccQpHQw3.s 			page 10


 467 0240 DB6B     		ldr	r3, [r3, #60]
 468 0242 002B     		cmp	r3, #0
 469 0244 14BF     		ite	ne
 470 0246 0023     		movne	r3, #0
 471 0248 0123     		moveq	r3, #1
 472 024a DBB2     		uxtb	r3, r3
 473 024c 1340     		ands	r3, r3, r2
 474 024e 002B     		cmp	r3, #0
 475 0250 01D0     		beq	.L20
 476              		.loc 1 606 0
 477 0252 FFF7FEFF 		bl	MotionCP_manager_init
 478              	.L20:
 479              		.loc 1 613 0
 480 0256 554B     		ldr	r3, .L39+4
 481 0258 D3F89C30 		ldr	r3, [r3, #156]
 482 025c 0293     		str	r3, [sp, #8]
 483              		.loc 1 614 0
 484 025e 029B     		ldr	r3, [sp, #8]
 485 0260 002B     		cmp	r3, #0
 486 0262 0DD0     		beq	.L21
 487              		.loc 1 615 0
 488 0264 029B     		ldr	r3, [sp, #8]
 489 0266 5A68     		ldr	r2, [r3, #4]
 490 0268 514B     		ldr	r3, .L39+8
 491 026a 1B6C     		ldr	r3, [r3, #64]
 492 026c 002B     		cmp	r3, #0
 493 026e 14BF     		ite	ne
 494 0270 0023     		movne	r3, #0
 495 0272 0123     		moveq	r3, #1
 496 0274 DBB2     		uxtb	r3, r3
 497 0276 1340     		ands	r3, r3, r2
 498 0278 002B     		cmp	r3, #0
 499 027a 01D0     		beq	.L21
 500              		.loc 1 616 0
 501 027c FFF7FEFF 		bl	MotionGR_manager_init
 502              	.L21:
 503              		.loc 1 633 0
 504 0280 4A4B     		ldr	r3, .L39+4
 505 0282 D3F81C31 		ldr	r3, [r3, #284]
 506 0286 0293     		str	r3, [sp, #8]
 507              		.loc 1 634 0
 508 0288 029B     		ldr	r3, [sp, #8]
 509 028a 002B     		cmp	r3, #0
 510 028c 0DD0     		beq	.L22
 511              		.loc 1 635 0
 512 028e 029B     		ldr	r3, [sp, #8]
 513 0290 5A68     		ldr	r2, [r3, #4]
 514 0292 474B     		ldr	r3, .L39+8
 515 0294 5B6C     		ldr	r3, [r3, #68]
 516 0296 002B     		cmp	r3, #0
 517 0298 14BF     		ite	ne
 518 029a 0023     		movne	r3, #0
 519 029c 0123     		moveq	r3, #1
 520 029e DBB2     		uxtb	r3, r3
 521 02a0 1340     		ands	r3, r3, r2
 522 02a2 002B     		cmp	r3, #0
 523 02a4 01D0     		beq	.L22
ARM GAS  /tmp/ccQpHQw3.s 			page 11


 524              		.loc 1 636 0
 525 02a6 FFF7FEFF 		bl	AudioBV_Manager_init
 526              	.L22:
 527              		.loc 1 641 0
 528 02aa 424B     		ldr	r3, .L39+12
 529 02ac 1B68     		ldr	r3, [r3]
 530 02ae 002B     		cmp	r3, #0
 531 02b0 07D0     		beq	.L23
 532              	.LBB15:
 533              		.loc 1 642 0
 534 02b2 FFF7FEFF 		bl	EraseMetaDataManager
 535 02b6 0190     		str	r0, [sp, #4]
 536              		.loc 1 643 0
 537 02b8 019B     		ldr	r3, [sp, #4]
 538 02ba 002B     		cmp	r3, #0
 539 02bc 01D0     		beq	.L23
 540              		.loc 1 644 0
 541 02be FFF7FEFF 		bl	SaveMetaDataManager
 542              	.L23:
 543              	.LBE15:
 544              		.loc 1 649 0
 545 02c2 FFF7FEFF 		bl	setConnectable
 546              		.loc 1 650 0
 547 02c6 384B     		ldr	r3, .L39
 548 02c8 0022     		movs	r2, #0
 549 02ca 1A70     		strb	r2, [r3]
 550              	.L17:
 551              	.LBE14:
 552              		.loc 1 659 0
 553 02cc 3A4B     		ldr	r3, .L39+16
 554 02ce 1B68     		ldr	r3, [r3]
 555 02d0 002B     		cmp	r3, #0
 556 02d2 04D0     		beq	.L24
 557              		.loc 1 660 0
 558 02d4 00F05CFA 		bl	MEMSCallback
 559              		.loc 1 661 0
 560 02d8 374B     		ldr	r3, .L39+16
 561 02da 0022     		movs	r2, #0
 562 02dc 1A60     		str	r2, [r3]
 563              	.L24:
 564              		.loc 1 665 0
 565 02de 374B     		ldr	r3, .L39+20
 566 02e0 1B68     		ldr	r3, [r3]
 567 02e2 002B     		cmp	r3, #0
 568 02e4 04D0     		beq	.L25
 569              		.loc 1 666 0
 570 02e6 00F08BF9 		bl	ButtonCallback
 571              		.loc 1 667 0
 572 02ea 344B     		ldr	r3, .L39+20
 573 02ec 0022     		movs	r2, #0
 574 02ee 1A60     		str	r2, [r3]
 575              	.L25:
 576              		.loc 1 671 0
 577 02f0 334B     		ldr	r3, .L39+24
 578 02f2 1B68     		ldr	r3, [r3]
 579 02f4 002B     		cmp	r3, #0
 580 02f6 04D0     		beq	.L26
ARM GAS  /tmp/ccQpHQw3.s 			page 12


 581              		.loc 1 672 0
 582 02f8 314B     		ldr	r3, .L39+24
 583 02fa 0022     		movs	r2, #0
 584 02fc 1A60     		str	r2, [r3]
 585              		.loc 1 673 0
 586 02fe 00F0EFF9 		bl	ReCalibration
 587              	.L26:
 588              		.loc 1 677 0
 589 0302 304B     		ldr	r3, .L39+28
 590 0304 1B68     		ldr	r3, [r3]
 591 0306 002B     		cmp	r3, #0
 592 0308 04D0     		beq	.L27
 593              		.loc 1 678 0
 594 030a 2E4B     		ldr	r3, .L39+28
 595 030c 0022     		movs	r2, #0
 596 030e 1A60     		str	r2, [r3]
 597              		.loc 1 679 0
 598 0310 FFF7FEFF 		bl	HCI_Process
 599              	.L27:
 600              		.loc 1 683 0
 601 0314 2C4B     		ldr	r3, .L39+32
 602 0316 1B68     		ldr	r3, [r3]
 603 0318 002B     		cmp	r3, #0
 604 031a 04D0     		beq	.L28
 605              		.loc 1 684 0
 606 031c 2A4B     		ldr	r3, .L39+32
 607 031e 0022     		movs	r2, #0
 608 0320 1A60     		str	r2, [r3]
 609              		.loc 1 685 0
 610 0322 00F09DFE 		bl	SendEnvironmentalData
 611              	.L28:
 612              		.loc 1 689 0
 613 0326 294B     		ldr	r3, .L39+36
 614 0328 1B68     		ldr	r3, [r3]
 615 032a 002B     		cmp	r3, #0
 616 032c 04D0     		beq	.L29
 617              		.loc 1 690 0
 618 032e 274B     		ldr	r3, .L39+36
 619 0330 0022     		movs	r2, #0
 620 0332 1A60     		str	r2, [r3]
 621              		.loc 1 691 0
 622 0334 00F0C4FD 		bl	SendAudioLevelData
 623              	.L29:
 624              		.loc 1 695 0
 625 0338 254B     		ldr	r3, .L39+40
 626 033a 1B68     		ldr	r3, [r3]
 627 033c 002B     		cmp	r3, #0
 628 033e 04D0     		beq	.L30
 629              		.loc 1 696 0
 630 0340 234B     		ldr	r3, .L39+40
 631 0342 0022     		movs	r2, #0
 632 0344 1A60     		str	r2, [r3]
 633              		.loc 1 697 0
 634 0346 00F0D3FA 		bl	SendMotionData
 635              	.L30:
 636              		.loc 1 701 0
 637 034a 224B     		ldr	r3, .L39+44
ARM GAS  /tmp/ccQpHQw3.s 			page 13


 638 034c 1B68     		ldr	r3, [r3]
 639 034e 002B     		cmp	r3, #0
 640 0350 04D0     		beq	.L31
 641              		.loc 1 702 0
 642 0352 204B     		ldr	r3, .L39+44
 643 0354 0022     		movs	r2, #0
 644 0356 1A60     		str	r2, [r3]
 645              		.loc 1 703 0
 646 0358 00F0F2FA 		bl	ComputeQuaternions
 647              	.L31:
 648              		.loc 1 708 0
 649 035c 1E4B     		ldr	r3, .L39+48
 650 035e 1B68     		ldr	r3, [r3]
 651 0360 002B     		cmp	r3, #0
 652 0362 04D0     		beq	.L32
 653              		.loc 1 709 0
 654 0364 1C4B     		ldr	r3, .L39+48
 655 0366 0022     		movs	r2, #0
 656 0368 1A60     		str	r2, [r3]
 657              		.loc 1 710 0
 658 036a 00F089FC 		bl	ComputeMotionAR
 659              	.L32:
 660              		.loc 1 715 0
 661 036e 1B4B     		ldr	r3, .L39+52
 662 0370 1B68     		ldr	r3, [r3]
 663 0372 002B     		cmp	r3, #0
 664 0374 04D0     		beq	.L33
 665              		.loc 1 716 0
 666 0376 194B     		ldr	r3, .L39+52
 667 0378 0022     		movs	r2, #0
 668 037a 1A60     		str	r2, [r3]
 669              		.loc 1 717 0
 670 037c 00F0C8FC 		bl	ComputeMotionCP
 671              	.L33:
 672              		.loc 1 722 0
 673 0380 174B     		ldr	r3, .L39+56
 674 0382 1B68     		ldr	r3, [r3]
 675 0384 002B     		cmp	r3, #0
 676 0386 04D0     		beq	.L34
 677              		.loc 1 723 0
 678 0388 154B     		ldr	r3, .L39+56
 679 038a 0022     		movs	r2, #0
 680 038c 1A60     		str	r2, [r3]
 681              		.loc 1 724 0
 682 038e 00F007FD 		bl	ComputeMotionGR
 683              	.L34:
 684              		.loc 1 730 0
 685 0392 144B     		ldr	r3, .L39+60
 686 0394 1B78     		ldrb	r3, [r3]
 687 0396 DBB2     		uxtb	r3, r3
 688 0398 002B     		cmp	r3, #0
 689 039a 02D0     		beq	.L35
 690              		.loc 1 735 0
 691 039c 114B     		ldr	r3, .L39+60
 692 039e 0022     		movs	r2, #0
 693 03a0 1A70     		strb	r2, [r3]
 694              	.L35:
ARM GAS  /tmp/ccQpHQw3.s 			page 14


 695              	.LBB16:
 696              	.LBB17:
 697              		.file 2 "../../../../../../ChibiOS/os/ext/CMSIS/include/core_cmInstr.h"
 698              		.loc 2 434 0
 699              	@ 434 "../../../../../../ChibiOS/os/ext/CMSIS/include/core_cmInstr.h" 1
 700 03a2 30BF     		wfi
 701              	@ 0 "" 2
 702              		.thumb
 703              	.LBE17:
 704              	.LBE16:
 705              		.loc 1 750 0
 706 03a4 E0E6     		b	.L13
 707              	.L40:
 708 03a6 00BF     		.align	2
 709              	.L39:
 710 03a8 00000000 		.word	set_connectable
 711 03ac 00000000 		.word	MDM_LicTable
 712 03b0 00000000 		.word	TargetBoardFeatures
 713 03b4 00000000 		.word	NecessityToSaveMetaDataManager
 714 03b8 10000000 		.word	MEMSInterrupt
 715 03bc 0C000000 		.word	ButtonPressed
 716 03c0 00000000 		.word	ForceReCalibration
 717 03c4 14000000 		.word	HCI_ProcessEvent
 718 03c8 18000000 		.word	SendEnv
 719 03cc 1C000000 		.word	SendAudioLevel
 720 03d0 20000000 		.word	SendAccGyroMag
 721 03d4 24000000 		.word	Quaternion
 722 03d8 28000000 		.word	UpdateMotionAR
 723 03dc 2C000000 		.word	UpdateMotionCP
 724 03e0 30000000 		.word	UpdateMotionGR
 725 03e4 00000000 		.word	SendBlueVoice
 726              		.cfi_endproc
 727              	.LFE269:
 728              		.size	btle_main, .-btle_main
 729              		.align	2
 730 03e8 AFF30080 		.p2align 4,,15
 730      AFF30080 
 731              		.global	Set2GAccelerometerFullScale
 732              		.thumb
 733              		.thumb_func
 734              		.type	Set2GAccelerometerFullScale, %function
 735              	Set2GAccelerometerFullScale:
 736              	.LFB270:
 737              		.loc 1 759 0
 738              		.cfi_startproc
 739              		@ args = 0, pretend = 0, frame = 0
 740              		@ frame_needed = 0, uses_anonymous_args = 0
 741 03f0 08B5     		push	{r3, lr}
 742              		.cfi_def_cfa_offset 8
 743              		.cfi_offset 3, -8
 744              		.cfi_offset 14, -4
 745              		.loc 1 761 0
 746 03f2 0C4B     		ldr	r3, .L42
 747 03f4 DB69     		ldr	r3, [r3, #28]
 748 03f6 1846     		mov	r0, r3
 749 03f8 4FF08041 		mov	r1, #1073741824
 750 03fc FFF7FEFF 		bl	BSP_ACCELERO_Set_FS_Value
ARM GAS  /tmp/ccQpHQw3.s 			page 15


 751              		.loc 1 764 0
 752 0400 084B     		ldr	r3, .L42
 753 0402 DB69     		ldr	r3, [r3, #28]
 754 0404 1846     		mov	r0, r3
 755 0406 0849     		ldr	r1, .L42+4
 756 0408 FFF7FEFF 		bl	BSP_ACCELERO_Get_Sensitivity
 757              		.loc 1 765 0
 758 040c 064B     		ldr	r3, .L42+4
 759 040e 1B68     		ldr	r3, [r3]	@ float
 760 0410 1846     		mov	r0, r3
 761 0412 0649     		ldr	r1, .L42+8
 762 0414 FFF7FEFF 		bl	__aeabi_fmul
 763 0418 0346     		mov	r3, r0
 764 041a 1A46     		mov	r2, r3
 765 041c 044B     		ldr	r3, .L42+12
 766 041e 1A60     		str	r2, [r3]	@ float
 767              		.loc 1 766 0
 768 0420 08BD     		pop	{r3, pc}
 769              	.L43:
 770 0422 00BF     		.align	2
 771              	.L42:
 772 0424 00000000 		.word	TargetBoardFeatures
 773 0428 00000000 		.word	sensitivity
 774 042c 6F12833A 		.word	981668463
 775 0430 00000000 		.word	sensitivity_Mul
 776              		.cfi_endproc
 777              	.LFE270:
 778              		.size	Set2GAccelerometerFullScale, .-Set2GAccelerometerFullScale
 779              		.align	2
 780 0434 AFF30080 		.p2align 4,,15
 780      AFF30080 
 780      AFF30080 
 781              		.global	Set4GAccelerometerFullScale
 782              		.thumb
 783              		.thumb_func
 784              		.type	Set4GAccelerometerFullScale, %function
 785              	Set4GAccelerometerFullScale:
 786              	.LFB271:
 787              		.loc 1 774 0
 788              		.cfi_startproc
 789              		@ args = 0, pretend = 0, frame = 0
 790              		@ frame_needed = 0, uses_anonymous_args = 0
 791 0440 08B5     		push	{r3, lr}
 792              		.cfi_def_cfa_offset 8
 793              		.cfi_offset 3, -8
 794              		.cfi_offset 14, -4
 795              		.loc 1 777 0
 796 0442 0C4B     		ldr	r3, .L45
 797 0444 DB69     		ldr	r3, [r3, #28]
 798 0446 1846     		mov	r0, r3
 799 0448 4FF08141 		mov	r1, #1082130432
 800 044c FFF7FEFF 		bl	BSP_ACCELERO_Set_FS_Value
 801              		.loc 1 780 0
 802 0450 084B     		ldr	r3, .L45
 803 0452 DB69     		ldr	r3, [r3, #28]
 804 0454 1846     		mov	r0, r3
 805 0456 0849     		ldr	r1, .L45+4
ARM GAS  /tmp/ccQpHQw3.s 			page 16


 806 0458 FFF7FEFF 		bl	BSP_ACCELERO_Get_Sensitivity
 807              		.loc 1 781 0
 808 045c 064B     		ldr	r3, .L45+4
 809 045e 1B68     		ldr	r3, [r3]	@ float
 810 0460 1846     		mov	r0, r3
 811 0462 0649     		ldr	r1, .L45+8
 812 0464 FFF7FEFF 		bl	__aeabi_fmul
 813 0468 0346     		mov	r3, r0
 814 046a 1A46     		mov	r2, r3
 815 046c 044B     		ldr	r3, .L45+12
 816 046e 1A60     		str	r2, [r3]	@ float
 817              		.loc 1 782 0
 818 0470 08BD     		pop	{r3, pc}
 819              	.L46:
 820 0472 00BF     		.align	2
 821              	.L45:
 822 0474 00000000 		.word	TargetBoardFeatures
 823 0478 00000000 		.word	sensitivity
 824 047c 6F12833A 		.word	981668463
 825 0480 00000000 		.word	sensitivity_Mul
 826              		.cfi_endproc
 827              	.LFE271:
 828              		.size	Set4GAccelerometerFullScale, .-Set4GAccelerometerFullScale
 829              		.align	2
 830 0484 AFF30080 		.p2align 4,,15
 830      AFF30080 
 830      AFF30080 
 831              		.global	HAL_TIM_OC_DelayElapsedCallback
 832              		.thumb
 833              		.thumb_func
 834              		.type	HAL_TIM_OC_DelayElapsedCallback, %function
 835              	HAL_TIM_OC_DelayElapsedCallback:
 836              	.LFB272:
 837              		.loc 1 790 0
 838              		.cfi_startproc
 839              		@ args = 0, pretend = 0, frame = 16
 840              		@ frame_needed = 0, uses_anonymous_args = 0
 841 0490 00B5     		push	{lr}
 842              		.cfi_def_cfa_offset 4
 843              		.cfi_offset 14, -4
 844 0492 85B0     		sub	sp, sp, #20
 845              		.cfi_def_cfa_offset 24
 846 0494 0190     		str	r0, [sp, #4]
 847              		.loc 1 791 0
 848 0496 0023     		movs	r3, #0
 849 0498 0393     		str	r3, [sp, #12]
 850              		.loc 1 795 0
 851 049a 019B     		ldr	r3, [sp, #4]
 852 049c 1B7E     		ldrb	r3, [r3, #24]	@ zero_extendqisi2
 853 049e 012B     		cmp	r3, #1
 854 04a0 2BD1     		bne	.L48
 855              		.loc 1 797 0
 856 04a2 0198     		ldr	r0, [sp, #4]
 857 04a4 0021     		movs	r1, #0
 858 04a6 FFF7FEFF 		bl	HAL_TIM_ReadCapturedValue
 859 04aa 0390     		str	r0, [sp, #12]
 860              		.loc 1 799 0
ARM GAS  /tmp/ccQpHQw3.s 			page 17


 861 04ac 354B     		ldr	r3, .L53
 862 04ae 1B68     		ldr	r3, [r3]
 863 04b0 039A     		ldr	r2, [sp, #12]
 864 04b2 6432     		adds	r2, r2, #100
 865 04b4 5A63     		str	r2, [r3, #52]
 866              		.loc 1 802 0
 867 04b6 344B     		ldr	r3, .L53+4
 868 04b8 1B68     		ldr	r3, [r3]
 869 04ba 03F01003 		and	r3, r3, #16
 870 04be 002B     		cmp	r3, #0
 871 04c0 0CBF     		ite	eq
 872 04c2 0023     		moveq	r3, #0
 873 04c4 0123     		movne	r3, #1
 874 04c6 DAB2     		uxtb	r2, r3
 875 04c8 2F4B     		ldr	r3, .L53+4
 876 04ca 1B68     		ldr	r3, [r3]
 877 04cc 03F02003 		and	r3, r3, #32
 878 04d0 002B     		cmp	r3, #0
 879 04d2 0CBF     		ite	eq
 880 04d4 0023     		moveq	r3, #0
 881 04d6 0123     		movne	r3, #1
 882 04d8 DBB2     		uxtb	r3, r3
 883 04da 1343     		orrs	r3, r3, r2
 884 04dc DBB2     		uxtb	r3, r3
 885 04de 002B     		cmp	r3, #0
 886 04e0 02D0     		beq	.L49
 887              		.loc 1 803 0
 888 04e2 2A4B     		ldr	r3, .L53+8
 889 04e4 0122     		movs	r2, #1
 890 04e6 1A60     		str	r2, [r3]
 891              	.L49:
 892              		.loc 1 808 0
 893 04e8 274B     		ldr	r3, .L53+4
 894 04ea 1B68     		ldr	r3, [r3]
 895 04ec 03F48073 		and	r3, r3, #256
 896 04f0 002B     		cmp	r3, #0
 897 04f2 02D0     		beq	.L48
 898              		.loc 1 809 0
 899 04f4 264B     		ldr	r3, .L53+12
 900 04f6 0122     		movs	r2, #1
 901 04f8 1A60     		str	r2, [r3]
 902              	.L48:
 903              		.loc 1 817 0
 904 04fa 019B     		ldr	r3, [sp, #4]
 905 04fc 1B7E     		ldrb	r3, [r3, #24]	@ zero_extendqisi2
 906 04fe 022B     		cmp	r3, #2
 907 0500 12D1     		bne	.L50
 908              		.loc 1 819 0
 909 0502 0198     		ldr	r0, [sp, #4]
 910 0504 0421     		movs	r1, #4
 911 0506 FFF7FEFF 		bl	HAL_TIM_ReadCapturedValue
 912 050a 0390     		str	r0, [sp, #12]
 913              		.loc 1 821 0
 914 050c 1D4B     		ldr	r3, .L53
 915 050e 1B68     		ldr	r3, [r3]
 916 0510 039A     		ldr	r2, [sp, #12]
 917 0512 C832     		adds	r2, r2, #200
ARM GAS  /tmp/ccQpHQw3.s 			page 18


 918 0514 9A63     		str	r2, [r3, #56]
 919              		.loc 1 823 0
 920 0516 1C4B     		ldr	r3, .L53+4
 921 0518 1B68     		ldr	r3, [r3]
 922 051a 03F08003 		and	r3, r3, #128
 923 051e 002B     		cmp	r3, #0
 924 0520 02D0     		beq	.L50
 925              		.loc 1 824 0
 926 0522 1C4B     		ldr	r3, .L53+16
 927 0524 0122     		movs	r2, #1
 928 0526 1A60     		str	r2, [r3]
 929              	.L50:
 930              		.loc 1 831 0
 931 0528 019B     		ldr	r3, [sp, #4]
 932 052a 1B7E     		ldrb	r3, [r3, #24]	@ zero_extendqisi2
 933 052c 042B     		cmp	r3, #4
 934 052e 13D1     		bne	.L51
 935              		.loc 1 833 0
 936 0530 0198     		ldr	r0, [sp, #4]
 937 0532 0821     		movs	r1, #8
 938 0534 FFF7FEFF 		bl	HAL_TIM_ReadCapturedValue
 939 0538 0390     		str	r0, [sp, #12]
 940              		.loc 1 835 0
 941 053a 124B     		ldr	r3, .L53
 942 053c 1B68     		ldr	r3, [r3]
 943 053e 039A     		ldr	r2, [sp, #12]
 944 0540 02F27122 		addw	r2, r2, #625
 945 0544 DA63     		str	r2, [r3, #60]
 946              		.loc 1 837 0
 947 0546 104B     		ldr	r3, .L53+4
 948 0548 1B68     		ldr	r3, [r3]
 949 054a 03F04003 		and	r3, r3, #64
 950 054e 002B     		cmp	r3, #0
 951 0550 02D0     		beq	.L51
 952              		.loc 1 838 0
 953 0552 114B     		ldr	r3, .L53+20
 954 0554 0122     		movs	r2, #1
 955 0556 1A60     		str	r2, [r3]
 956              	.L51:
 957              		.loc 1 844 0
 958 0558 019B     		ldr	r3, [sp, #4]
 959 055a 1B7E     		ldrb	r3, [r3, #24]	@ zero_extendqisi2
 960 055c 082B     		cmp	r3, #8
 961 055e 0ED1     		bne	.L47
 962              		.loc 1 846 0
 963 0560 0198     		ldr	r0, [sp, #4]
 964 0562 0C21     		movs	r1, #12
 965 0564 FFF7FEFF 		bl	HAL_TIM_ReadCapturedValue
 966 0568 0390     		str	r0, [sp, #12]
 967              		.loc 1 848 0
 968 056a 064B     		ldr	r3, .L53
 969 056c 1B68     		ldr	r3, [r3]
 970 056e 0B4A     		ldr	r2, .L53+24
 971 0570 1168     		ldr	r1, [r2]
 972 0572 039A     		ldr	r2, [sp, #12]
 973 0574 0A44     		add	r2, r2, r1
 974 0576 1A64     		str	r2, [r3, #64]
ARM GAS  /tmp/ccQpHQw3.s 			page 19


 975              		.loc 1 849 0
 976 0578 094B     		ldr	r3, .L53+28
 977 057a 0122     		movs	r2, #1
 978 057c 1A60     		str	r2, [r3]
 979              	.L47:
 980              		.loc 1 851 0
 981 057e 05B0     		add	sp, sp, #20
 982              		@ sp needed
 983 0580 5DF804FB 		ldr	pc, [sp], #4
 984              	.L54:
 985              		.align	2
 986              	.L53:
 987 0584 00000000 		.word	TimCCHandle
 988 0588 00000000 		.word	ConnectionBleStatus
 989 058c 24000000 		.word	Quaternion
 990 0590 30000000 		.word	UpdateMotionGR
 991 0594 2C000000 		.word	UpdateMotionCP
 992 0598 28000000 		.word	UpdateMotionAR
 993 059c 00000000 		.word	uhCCR4_Val
 994 05a0 20000000 		.word	SendAccGyroMag
 995              		.cfi_endproc
 996              	.LFE272:
 997              		.size	HAL_TIM_OC_DelayElapsedCallback, .-HAL_TIM_OC_DelayElapsedCallback
 998              		.align	2
 999 05a4 AFF30080 		.p2align 4,,15
 999      AFF30080 
 999      AFF30080 
 1000              		.global	HAL_TIM_PeriodElapsedCallback
 1001              		.thumb
 1002              		.thumb_func
 1003              		.type	HAL_TIM_PeriodElapsedCallback, %function
 1004              	HAL_TIM_PeriodElapsedCallback:
 1005              	.LFB273:
 1006              		.loc 1 860 0
 1007              		.cfi_startproc
 1008              		@ args = 0, pretend = 0, frame = 8
 1009              		@ frame_needed = 0, uses_anonymous_args = 0
 1010              		@ link register save eliminated.
 1011 05b0 82B0     		sub	sp, sp, #8
 1012              		.cfi_def_cfa_offset 8
 1013 05b2 0190     		str	r0, [sp, #4]
 1014              		.loc 1 861 0
 1015 05b4 019A     		ldr	r2, [sp, #4]
 1016 05b6 0B4B     		ldr	r3, .L58
 1017 05b8 9A42     		cmp	r2, r3
 1018 05ba 03D1     		bne	.L56
 1019              		.loc 1 863 0
 1020 05bc 0A4B     		ldr	r3, .L58+4
 1021 05be 0122     		movs	r2, #1
 1022 05c0 1A60     		str	r2, [r3]
 1023 05c2 0CE0     		b	.L55
 1024              	.L56:
 1025              		.loc 1 870 0
 1026 05c4 019A     		ldr	r2, [sp, #4]
 1027 05c6 094B     		ldr	r3, .L58+8
 1028 05c8 9A42     		cmp	r2, r3
 1029 05ca 08D1     		bne	.L55
ARM GAS  /tmp/ccQpHQw3.s 			page 20


 1030              		.loc 1 872 0
 1031 05cc 084B     		ldr	r3, .L58+12
 1032 05ce 1B68     		ldr	r3, [r3]
 1033 05d0 03F00803 		and	r3, r3, #8
 1034 05d4 002B     		cmp	r3, #0
 1035 05d6 02D0     		beq	.L55
 1036              		.loc 1 873 0
 1037 05d8 064B     		ldr	r3, .L58+16
 1038 05da 0122     		movs	r2, #1
 1039 05dc 1A60     		str	r2, [r3]
 1040              	.L55:
 1041              		.loc 1 881 0
 1042 05de 02B0     		add	sp, sp, #8
 1043              		@ sp needed
 1044 05e0 7047     		bx	lr
 1045              	.L59:
 1046 05e2 00BF     		.align	2
 1047              	.L58:
 1048 05e4 00000000 		.word	TimEnvHandle
 1049 05e8 18000000 		.word	SendEnv
 1050 05ec 00000000 		.word	TimAudioDataHandle
 1051 05f0 00000000 		.word	ConnectionBleStatus
 1052 05f4 1C000000 		.word	SendAudioLevel
 1053              		.cfi_endproc
 1054              	.LFE273:
 1055              		.size	HAL_TIM_PeriodElapsedCallback, .-HAL_TIM_PeriodElapsedCallback
 1056              		.section	.rodata
 1057              		.align	2
 1058              	.LC1:
 1059 0000 256C6420 		.ascii	"%ld in %ldmS Reset Calib\015\012\000"
 1059      696E2025 
 1059      6C646D53 
 1059      20526573 
 1059      65742043 
 1060              		.text
 1061              		.align	2
 1062 05f8 AFF30080 		.p2align 4,,15
 1062      AFF30080 
 1063              		.thumb
 1064              		.thumb_func
 1065              		.type	ButtonCallback, %function
 1066              	ButtonCallback:
 1067              	.LFB274:
 1068              		.loc 1 889 0
 1069              		.cfi_startproc
 1070              		@ args = 0, pretend = 0, frame = 8
 1071              		@ frame_needed = 0, uses_anonymous_args = 0
 1072 0600 00B5     		push	{lr}
 1073              		.cfi_def_cfa_offset 4
 1074              		.cfi_offset 14, -4
 1075 0602 83B0     		sub	sp, sp, #12
 1076              		.cfi_def_cfa_offset 16
 1077              		.loc 1 891 0
 1078 0604 2C4B     		ldr	r3, .L66
 1079 0606 1B68     		ldr	r3, [r3]
 1080 0608 002B     		cmp	r3, #0
 1081 060a 51D0     		beq	.L60
ARM GAS  /tmp/ccQpHQw3.s 			page 21


 1082              	.LBB18:
 1083              		.loc 1 896 0
 1084 060c 2B4B     		ldr	r3, .L66+4
 1085 060e 1B68     		ldr	r3, [r3]
 1086 0610 002B     		cmp	r3, #0
 1087 0612 04D1     		bne	.L62
 1088              		.loc 1 897 0
 1089 0614 FFF7FEFF 		bl	HAL_GetTick
 1090 0618 0246     		mov	r2, r0
 1091 061a 284B     		ldr	r3, .L66+4
 1092 061c 1A60     		str	r2, [r3]
 1093              	.L62:
 1094              		.loc 1 899 0
 1095 061e FFF7FEFF 		bl	HAL_GetTick
 1096 0622 0190     		str	r0, [sp, #4]
 1097              		.loc 1 901 0
 1098 0624 254B     		ldr	r3, .L66+4
 1099 0626 1B68     		ldr	r3, [r3]
 1100 0628 019A     		ldr	r2, [sp, #4]
 1101 062a D31A     		subs	r3, r2, r3
 1102 062c B3F5FA6F 		cmp	r3, #2000
 1103 0630 05D9     		bls	.L63
 1104              		.loc 1 902 0
 1105 0632 234B     		ldr	r3, .L66+8
 1106 0634 0022     		movs	r2, #0
 1107 0636 1A60     		str	r2, [r3]
 1108              		.loc 1 903 0
 1109 0638 204B     		ldr	r3, .L66+4
 1110 063a 019A     		ldr	r2, [sp, #4]
 1111 063c 1A60     		str	r2, [r3]
 1112              	.L63:
 1113              		.loc 1 906 0
 1114 063e 214B     		ldr	r3, .L66+12
 1115 0640 DB6B     		ldr	r3, [r3, #60]
 1116 0642 002B     		cmp	r3, #0
 1117 0644 34D0     		beq	.L60
 1118              	.LBB19:
 1119              		.loc 1 907 0
 1120 0646 1F4B     		ldr	r3, .L66+12
 1121 0648 DB6B     		ldr	r3, [r3, #60]
 1122 064a 0093     		str	r3, [sp]
 1123              		.loc 1 908 0
 1124 064c 009B     		ldr	r3, [sp]
 1125 064e 5B68     		ldr	r3, [r3, #4]
 1126 0650 002B     		cmp	r3, #0
 1127 0652 2DD0     		beq	.L64
 1128              		.loc 1 909 0
 1129 0654 1A4B     		ldr	r3, .L66+8
 1130 0656 1B68     		ldr	r3, [r3]
 1131 0658 022B     		cmp	r3, #2
 1132 065a 06D1     		bne	.L65
 1133              		.loc 1 910 0
 1134 065c 1A4B     		ldr	r3, .L66+16
 1135 065e 0122     		movs	r2, #1
 1136 0660 1A60     		str	r2, [r3]
 1137              		.loc 1 911 0
 1138 0662 174B     		ldr	r3, .L66+8
ARM GAS  /tmp/ccQpHQw3.s 			page 22


 1139 0664 0022     		movs	r2, #0
 1140 0666 1A60     		str	r2, [r3]
 1141 0668 22E0     		b	.L64
 1142              	.L65:
 1143              		.loc 1 913 0
 1144 066a 154B     		ldr	r3, .L66+8
 1145 066c 1B68     		ldr	r3, [r3]
 1146 066e 5A1C     		adds	r2, r3, #1
 1147 0670 134B     		ldr	r3, .L66+8
 1148 0672 1A60     		str	r2, [r3]
 1149              		.loc 1 914 0
 1150 0674 154B     		ldr	r3, .L66+20
 1151 0676 1B68     		ldr	r3, [r3]
 1152 0678 03F48063 		and	r3, r3, #1024
 1153 067c 002B     		cmp	r3, #0
 1154 067e 17D0     		beq	.L64
 1155              		.loc 1 915 0
 1156 0680 0F4B     		ldr	r3, .L66+8
 1157 0682 1B68     		ldr	r3, [r3]
 1158 0684 C3F10302 		rsb	r2, r3, #3
 1159 0688 0C4B     		ldr	r3, .L66+4
 1160 068a 1968     		ldr	r1, [r3]
 1161 068c 019B     		ldr	r3, [sp, #4]
 1162 068e CB1A     		subs	r3, r1, r3
 1163 0690 03F5FA63 		add	r3, r3, #2000
 1164 0694 0E48     		ldr	r0, .L66+24
 1165 0696 0F49     		ldr	r1, .L66+28
 1166 0698 FFF7FEFF 		bl	sprintf
 1167 069c 0246     		mov	r2, r0
 1168 069e 0E4B     		ldr	r3, .L66+32
 1169 06a0 1A60     		str	r2, [r3]
 1170              		.loc 1 916 0
 1171 06a2 0D4B     		ldr	r3, .L66+32
 1172 06a4 1B68     		ldr	r3, [r3]
 1173 06a6 DBB2     		uxtb	r3, r3
 1174 06a8 0948     		ldr	r0, .L66+24
 1175 06aa 1946     		mov	r1, r3
 1176 06ac FFF7FEFF 		bl	Term_Update
 1177              	.L64:
 1178              	.L60:
 1179              	.LBE19:
 1180              	.LBE18:
 1181              		.loc 1 926 0
 1182 06b0 03B0     		add	sp, sp, #12
 1183              		@ sp needed
 1184 06b2 5DF804FB 		ldr	pc, [sp], #4
 1185              	.L67:
 1186 06b6 00BF     		.align	2
 1187              	.L66:
 1188 06b8 00000000 		.word	connected
 1189 06bc 3C000000 		.word	tickstart.19044
 1190 06c0 40000000 		.word	HowManyButtonPress.19043
 1191 06c4 00000000 		.word	MDM_LicTable
 1192 06c8 00000000 		.word	ForceReCalibration
 1193 06cc 00000000 		.word	ConnectionBleStatus
 1194 06d0 00000000 		.word	BufferToWrite
 1195 06d4 00000000 		.word	.LC1
ARM GAS  /tmp/ccQpHQw3.s 			page 23


 1196 06d8 00000000 		.word	BytesToWrite
 1197              		.cfi_endproc
 1198              	.LFE274:
 1199              		.size	ButtonCallback, .-ButtonCallback
 1200              		.section	.rodata
 1201 001b 00       		.align	2
 1202              	.LC2:
 1203 001c 466F7263 		.ascii	"Force ReCalibration\012\015\000"
 1203      65205265 
 1203      43616C69 
 1203      62726174 
 1203      696F6E0A 
 1204              		.text
 1205              		.align	2
 1206 06dc AFF30080 		.p2align 4,,15
 1207              		.thumb
 1208              		.thumb_func
 1209              		.type	ReCalibration, %function
 1210              	ReCalibration:
 1211              	.LFB275:
 1212              		.loc 1 934 0
 1213              		.cfi_startproc
 1214              		@ args = 0, pretend = 0, frame = 8
 1215              		@ frame_needed = 0, uses_anonymous_args = 0
 1216 06e0 30B5     		push	{r4, r5, lr}
 1217              		.cfi_def_cfa_offset 12
 1218              		.cfi_offset 4, -12
 1219              		.cfi_offset 5, -8
 1220              		.cfi_offset 14, -4
 1221 06e2 83B0     		sub	sp, sp, #12
 1222              		.cfi_def_cfa_offset 24
 1223              		.loc 1 936 0
 1224 06e4 224B     		ldr	r3, .L73
 1225 06e6 1B68     		ldr	r3, [r3]
 1226 06e8 002B     		cmp	r3, #0
 1227 06ea 3FD0     		beq	.L68
 1228              		.loc 1 938 0
 1229 06ec 214B     		ldr	r3, .L73+4
 1230 06ee 0022     		movs	r2, #0
 1231 06f0 1A70     		strb	r2, [r3]
 1232              		.loc 1 941 0
 1233 06f2 204B     		ldr	r3, .L73+4
 1234 06f4 1B78     		ldrb	r3, [r3]	@ zero_extendqisi2
 1235 06f6 002B     		cmp	r3, #0
 1236 06f8 01D0     		beq	.L70
 1237              		.loc 1 941 0 is_stmt 0 discriminator 1
 1238 06fa 6423     		movs	r3, #100
 1239 06fc 00E0     		b	.L71
 1240              	.L70:
 1241              		.loc 1 941 0 discriminator 2
 1242 06fe 0023     		movs	r3, #0
 1243              	.L71:
 1244              		.loc 1 941 0 discriminator 3
 1245 0700 4FF48070 		mov	r0, #256
 1246 0704 FF21     		movs	r1, #255
 1247 0706 1A46     		mov	r2, r3
 1248 0708 FFF7FEFF 		bl	Config_Notify
ARM GAS  /tmp/ccQpHQw3.s 			page 24


 1249              		.loc 1 948 0 is_stmt 1 discriminator 3
 1250 070c 1A4B     		ldr	r3, .L73+8
 1251 070e 1B68     		ldr	r3, [r3]
 1252 0710 03F48063 		and	r3, r3, #1024
 1253 0714 002B     		cmp	r3, #0
 1254 0716 14D0     		beq	.L72
 1255              		.loc 1 949 0
 1256 0718 184A     		ldr	r2, .L73+12
 1257 071a 194B     		ldr	r3, .L73+16
 1258 071c 1446     		mov	r4, r2
 1259 071e 1D46     		mov	r5, r3
 1260 0720 0FCD     		ldmia	r5!, {r0, r1, r2, r3}
 1261 0722 0FC4     		stmia	r4!, {r0, r1, r2, r3}
 1262 0724 95E80300 		ldmia	r5, {r0, r1}
 1263 0728 2060     		str	r0, [r4]
 1264 072a 0434     		adds	r4, r4, #4
 1265 072c 2180     		strh	r1, [r4]	@ movhi
 1266 072e 154B     		ldr	r3, .L73+20
 1267 0730 1522     		movs	r2, #21
 1268 0732 1A60     		str	r2, [r3]
 1269              		.loc 1 950 0
 1270 0734 134B     		ldr	r3, .L73+20
 1271 0736 1B68     		ldr	r3, [r3]
 1272 0738 DBB2     		uxtb	r3, r3
 1273 073a 1048     		ldr	r0, .L73+12
 1274 073c 1946     		mov	r1, r3
 1275 073e FFF7FEFF 		bl	Term_Update
 1276              	.L72:
 1277              	.LBB20:
 1278              		.loc 1 954 0
 1279 0742 114B     		ldr	r3, .L73+24
 1280 0744 DB6B     		ldr	r3, [r3, #60]
 1281 0746 0193     		str	r3, [sp, #4]
 1282              		.loc 1 955 0
 1283 0748 019B     		ldr	r3, [sp, #4]
 1284 074a 5C33     		adds	r3, r3, #92
 1285 074c 1846     		mov	r0, r3
 1286 074e 01F09FF9 		bl	ResetCalibrationInMemory
 1287              	.LBE20:
 1288              		.loc 1 959 0
 1289 0752 0E4B     		ldr	r3, .L73+28
 1290 0754 0022     		movs	r2, #0
 1291 0756 9A80     		strh	r2, [r3, #4]	@ movhi
 1292 0758 0C4B     		ldr	r3, .L73+28
 1293 075a 9A88     		ldrh	r2, [r3, #4]
 1294 075c 0B4B     		ldr	r3, .L73+28
 1295 075e 5A80     		strh	r2, [r3, #2]	@ movhi
 1296 0760 0A4B     		ldr	r3, .L73+28
 1297 0762 5A88     		ldrh	r2, [r3, #2]
 1298 0764 094B     		ldr	r3, .L73+28
 1299 0766 1A80     		strh	r2, [r3]	@ movhi
 1300              		.loc 1 962 0
 1301 0768 FFF7FEFF 		bl	LedOffTargetPlatform
 1302              	.L68:
 1303              		.loc 1 964 0
 1304 076c 03B0     		add	sp, sp, #12
 1305              		@ sp needed
ARM GAS  /tmp/ccQpHQw3.s 			page 25


 1306 076e 30BD     		pop	{r4, r5, pc}
 1307              	.L74:
 1308              		.align	2
 1309              	.L73:
 1310 0770 00000000 		.word	connected
 1311 0774 36000000 		.word	isCal
 1312 0778 00000000 		.word	ConnectionBleStatus
 1313 077c 00000000 		.word	BufferToWrite
 1314 0780 1C000000 		.word	.LC2
 1315 0784 00000000 		.word	BytesToWrite
 1316 0788 00000000 		.word	MDM_LicTable
 1317 078c 00000000 		.word	magOffset
 1318              		.cfi_endproc
 1319              	.LFE275:
 1320              		.size	ReCalibration, .-ReCalibration
 1321              		.align	2
 1322              		.p2align 4,,15
 1323              		.thumb
 1324              		.thumb_func
 1325              		.type	MEMSCallback, %function
 1326              	MEMSCallback:
 1327              	.LFB276:
 1328              		.loc 1 972 0
 1329              		.cfi_startproc
 1330              		@ args = 0, pretend = 0, frame = 8
 1331              		@ frame_needed = 0, uses_anonymous_args = 0
 1332 0790 00B5     		push	{lr}
 1333              		.cfi_def_cfa_offset 4
 1334              		.cfi_offset 14, -4
 1335 0792 83B0     		sub	sp, sp, #12
 1336              		.cfi_def_cfa_offset 16
 1337              		.loc 1 973 0
 1338 0794 0023     		movs	r3, #0
 1339 0796 8DF80330 		strb	r3, [sp, #3]
 1340              		.loc 1 975 0
 1341 079a 524B     		ldr	r3, .L83
 1342 079c 1B68     		ldr	r3, [r3]
 1343 079e 03F00203 		and	r3, r3, #2
 1344 07a2 002B     		cmp	r3, #0
 1345 07a4 0ED0     		beq	.L76
 1346              		.loc 1 977 0
 1347 07a6 504B     		ldr	r3, .L83+4
 1348 07a8 DA69     		ldr	r2, [r3, #28]
 1349 07aa 0DF10303 		add	r3, sp, #3
 1350 07ae 1046     		mov	r0, r2
 1351 07b0 1946     		mov	r1, r3
 1352 07b2 FFF7FEFF 		bl	BSP_ACCELERO_Get_Free_Fall_Detection_Status_Ext
 1353              		.loc 1 978 0
 1354 07b6 9DF80330 		ldrb	r3, [sp, #3]	@ zero_extendqisi2
 1355 07ba 002B     		cmp	r3, #0
 1356 07bc 02D0     		beq	.L76
 1357              		.loc 1 979 0
 1358 07be 1020     		movs	r0, #16
 1359 07c0 FFF7FEFF 		bl	AccEvent_Notify
 1360              	.L76:
 1361              		.loc 1 983 0
 1362 07c4 474B     		ldr	r3, .L83
ARM GAS  /tmp/ccQpHQw3.s 			page 26


 1363 07c6 1B68     		ldr	r3, [r3]
 1364 07c8 03F00403 		and	r3, r3, #4
 1365 07cc 002B     		cmp	r3, #0
 1366 07ce 0ED0     		beq	.L77
 1367              		.loc 1 985 0
 1368 07d0 454B     		ldr	r3, .L83+4
 1369 07d2 DA69     		ldr	r2, [r3, #28]
 1370 07d4 0DF10303 		add	r3, sp, #3
 1371 07d8 1046     		mov	r0, r2
 1372 07da 1946     		mov	r1, r3
 1373 07dc FFF7FEFF 		bl	BSP_ACCELERO_Get_Double_Tap_Detection_Status_Ext
 1374              		.loc 1 986 0
 1375 07e0 9DF80330 		ldrb	r3, [sp, #3]	@ zero_extendqisi2
 1376 07e4 002B     		cmp	r3, #0
 1377 07e6 02D0     		beq	.L77
 1378              		.loc 1 987 0
 1379 07e8 4020     		movs	r0, #64
 1380 07ea FFF7FEFF 		bl	AccEvent_Notify
 1381              	.L77:
 1382              		.loc 1 991 0
 1383 07ee 3D4B     		ldr	r3, .L83
 1384 07f0 1B68     		ldr	r3, [r3]
 1385 07f2 03F00803 		and	r3, r3, #8
 1386 07f6 002B     		cmp	r3, #0
 1387 07f8 0ED0     		beq	.L78
 1388              		.loc 1 993 0
 1389 07fa 3B4B     		ldr	r3, .L83+4
 1390 07fc DA69     		ldr	r2, [r3, #28]
 1391 07fe 0DF10303 		add	r3, sp, #3
 1392 0802 1046     		mov	r0, r2
 1393 0804 1946     		mov	r1, r3
 1394 0806 FFF7FEFF 		bl	BSP_ACCELERO_Get_Single_Tap_Detection_Status_Ext
 1395              		.loc 1 994 0
 1396 080a 9DF80330 		ldrb	r3, [sp, #3]	@ zero_extendqisi2
 1397 080e 002B     		cmp	r3, #0
 1398 0810 02D0     		beq	.L78
 1399              		.loc 1 995 0
 1400 0812 2020     		movs	r0, #32
 1401 0814 FFF7FEFF 		bl	AccEvent_Notify
 1402              	.L78:
 1403              		.loc 1 999 0
 1404 0818 324B     		ldr	r3, .L83
 1405 081a 1B68     		ldr	r3, [r3]
 1406 081c 03F01003 		and	r3, r3, #16
 1407 0820 002B     		cmp	r3, #0
 1408 0822 0ED0     		beq	.L79
 1409              		.loc 1 1001 0
 1410 0824 304B     		ldr	r3, .L83+4
 1411 0826 DA69     		ldr	r2, [r3, #28]
 1412 0828 0DF10303 		add	r3, sp, #3
 1413 082c 1046     		mov	r0, r2
 1414 082e 1946     		mov	r1, r3
 1415 0830 FFF7FEFF 		bl	BSP_ACCELERO_Get_Wake_Up_Detection_Status_Ext
 1416              		.loc 1 1002 0
 1417 0834 9DF80330 		ldrb	r3, [sp, #3]	@ zero_extendqisi2
 1418 0838 002B     		cmp	r3, #0
 1419 083a 02D0     		beq	.L79
ARM GAS  /tmp/ccQpHQw3.s 			page 27


 1420              		.loc 1 1003 0
 1421 083c 8020     		movs	r0, #128
 1422 083e FFF7FEFF 		bl	AccEvent_Notify
 1423              	.L79:
 1424              		.loc 1 1007 0
 1425 0842 284B     		ldr	r3, .L83
 1426 0844 1B68     		ldr	r3, [r3]
 1427 0846 03F02003 		and	r3, r3, #32
 1428 084a 002B     		cmp	r3, #0
 1429 084c 0ED0     		beq	.L80
 1430              		.loc 1 1009 0
 1431 084e 264B     		ldr	r3, .L83+4
 1432 0850 DA69     		ldr	r2, [r3, #28]
 1433 0852 0DF10303 		add	r3, sp, #3
 1434 0856 1046     		mov	r0, r2
 1435 0858 1946     		mov	r1, r3
 1436 085a FFF7FEFF 		bl	BSP_ACCELERO_Get_Tilt_Detection_Status_Ext
 1437              		.loc 1 1010 0
 1438 085e 9DF80330 		ldrb	r3, [sp, #3]	@ zero_extendqisi2
 1439 0862 002B     		cmp	r3, #0
 1440 0864 02D0     		beq	.L80
 1441              		.loc 1 1011 0
 1442 0866 0820     		movs	r0, #8
 1443 0868 FFF7FEFF 		bl	AccEvent_Notify
 1444              	.L80:
 1445              		.loc 1 1015 0
 1446 086c 1D4B     		ldr	r3, .L83
 1447 086e 1B68     		ldr	r3, [r3]
 1448 0870 03F04003 		and	r3, r3, #64
 1449 0874 002B     		cmp	r3, #0
 1450 0876 16D0     		beq	.L81
 1451              		.loc 1 1017 0
 1452 0878 1B4B     		ldr	r3, .L83+4
 1453 087a DA69     		ldr	r2, [r3, #28]
 1454 087c 0DF10303 		add	r3, sp, #3
 1455 0880 1046     		mov	r0, r2
 1456 0882 1946     		mov	r1, r3
 1457 0884 FFF7FEFF 		bl	BSP_ACCELERO_Get_6D_Orientation_Status_Ext
 1458              		.loc 1 1018 0
 1459 0888 9DF80330 		ldrb	r3, [sp, #3]	@ zero_extendqisi2
 1460 088c 002B     		cmp	r3, #0
 1461 088e 0AD0     		beq	.L81
 1462              	.LBB21:
 1463              		.loc 1 1019 0
 1464 0890 FFF7FEFF 		bl	GetHWOrientation6D
 1465 0894 0346     		mov	r3, r0
 1466 0896 8DF80730 		strb	r3, [sp, #7]
 1467              		.loc 1 1020 0
 1468 089a 9DF80730 		ldrb	r3, [sp, #7]	@ zero_extendqisi2
 1469 089e 9BB2     		uxth	r3, r3
 1470 08a0 1846     		mov	r0, r3
 1471 08a2 FFF7FEFF 		bl	AccEvent_Notify
 1472              	.L81:
 1473              	.LBE21:
 1474              		.loc 1 1024 0
 1475 08a6 0F4B     		ldr	r3, .L83
 1476 08a8 1B68     		ldr	r3, [r3]
ARM GAS  /tmp/ccQpHQw3.s 			page 28


 1477 08aa 03F00103 		and	r3, r3, #1
 1478 08ae 002B     		cmp	r3, #0
 1479 08b0 15D0     		beq	.L75
 1480              		.loc 1 1026 0
 1481 08b2 0D4B     		ldr	r3, .L83+4
 1482 08b4 DA69     		ldr	r2, [r3, #28]
 1483 08b6 0DF10303 		add	r3, sp, #3
 1484 08ba 1046     		mov	r0, r2
 1485 08bc 1946     		mov	r1, r3
 1486 08be FFF7FEFF 		bl	BSP_ACCELERO_Get_Pedometer_Status_Ext
 1487              		.loc 1 1027 0
 1488 08c2 9DF80330 		ldrb	r3, [sp, #3]	@ zero_extendqisi2
 1489 08c6 002B     		cmp	r3, #0
 1490 08c8 09D0     		beq	.L75
 1491              	.LBB22:
 1492              		.loc 1 1028 0
 1493 08ca FFF7FEFF 		bl	GetStepHWPedometer
 1494 08ce 0346     		mov	r3, r0
 1495 08d0 ADF80430 		strh	r3, [sp, #4]	@ movhi
 1496              		.loc 1 1029 0
 1497 08d4 BDF80430 		ldrh	r3, [sp, #4]
 1498 08d8 1846     		mov	r0, r3
 1499 08da FFF7FEFF 		bl	AccEvent_Notify
 1500              	.L75:
 1501              	.LBE22:
 1502              		.loc 1 1032 0
 1503 08de 03B0     		add	sp, sp, #12
 1504              		@ sp needed
 1505 08e0 5DF804FB 		ldr	pc, [sp], #4
 1506              	.L84:
 1507              		.align	2
 1508              	.L83:
 1509 08e4 00000000 		.word	HWAdvanceFeaturesStatus
 1510 08e8 00000000 		.word	TargetBoardFeatures
 1511              		.cfi_endproc
 1512              	.LFE276:
 1513              		.size	MEMSCallback, .-MEMSCallback
 1514              		.align	2
 1515 08ec AFF30080 		.p2align 4,,15
 1516              		.thumb
 1517              		.thumb_func
 1518              		.type	SendMotionData, %function
 1519              	SendMotionData:
 1520              	.LFB277:
 1521              		.loc 1 1040 0
 1522              		.cfi_startproc
 1523              		@ args = 0, pretend = 0, frame = 40
 1524              		@ frame_needed = 0, uses_anonymous_args = 0
 1525 08f0 00B5     		push	{lr}
 1526              		.cfi_def_cfa_offset 4
 1527              		.cfi_offset 14, -4
 1528 08f2 8BB0     		sub	sp, sp, #44
 1529              		.cfi_def_cfa_offset 48
 1530              		.loc 1 1046 0
 1531 08f4 0F4B     		ldr	r3, .L86
 1532 08f6 DA69     		ldr	r2, [r3, #28]
 1533 08f8 07AB     		add	r3, sp, #28
ARM GAS  /tmp/ccQpHQw3.s 			page 29


 1534 08fa 1046     		mov	r0, r2
 1535 08fc 1946     		mov	r1, r3
 1536 08fe FFF7FEFF 		bl	BSP_ACCELERO_Get_Axes
 1537              		.loc 1 1049 0
 1538 0902 0C4B     		ldr	r3, .L86
 1539 0904 5A6A     		ldr	r2, [r3, #36]
 1540 0906 01AB     		add	r3, sp, #4
 1541 0908 1046     		mov	r0, r2
 1542 090a 1946     		mov	r1, r3
 1543 090c FFF7FEFF 		bl	BSP_MAGNETO_Get_Axes
 1544              		.loc 1 1052 0
 1545 0910 084B     		ldr	r3, .L86
 1546 0912 1A6A     		ldr	r2, [r3, #32]
 1547 0914 04AB     		add	r3, sp, #16
 1548 0916 1046     		mov	r0, r2
 1549 0918 1946     		mov	r1, r3
 1550 091a FFF7FEFF 		bl	BSP_GYRO_Get_Axes
 1551              		.loc 1 1054 0
 1552 091e 07A9     		add	r1, sp, #28
 1553 0920 04AA     		add	r2, sp, #16
 1554 0922 01AB     		add	r3, sp, #4
 1555 0924 0846     		mov	r0, r1
 1556 0926 1146     		mov	r1, r2
 1557 0928 1A46     		mov	r2, r3
 1558 092a FFF7FEFF 		bl	AccGyroMag_Update
 1559              		.loc 1 1055 0
 1560 092e 0BB0     		add	sp, sp, #44
 1561              		@ sp needed
 1562 0930 5DF804FB 		ldr	pc, [sp], #4
 1563              	.L87:
 1564              		.align	2
 1565              	.L86:
 1566 0934 00000000 		.word	TargetBoardFeatures
 1567              		.cfi_endproc
 1568              	.LFE277:
 1569              		.size	SendMotionData, .-SendMotionData
 1570              		.global	__aeabi_i2f
 1571              		.global	__aeabi_f2iz
 1572              		.section	.rodata
 1573 0032 0000     		.align	2
 1574              	.LC3:
 1575 0034 436F6D70 		.ascii	"Compass Calibrated\012\015\000"
 1575      61737320 
 1575      43616C69 
 1575      62726174 
 1575      65640A0D 
 1576              		.global	__aeabi_f2d
 1577              		.global	__aeabi_d2uiz
 1578              		.global	__aeabi_fcmplt
 1579              		.text
 1580              		.align	2
 1581 0938 AFF30080 		.p2align 4,,15
 1581      AFF30080 
 1582              		.thumb
 1583              		.thumb_func
 1584              		.type	ComputeQuaternions, %function
 1585              	ComputeQuaternions:
ARM GAS  /tmp/ccQpHQw3.s 			page 30


 1586              	.LFB278:
 1587              		.loc 1 1063 0
 1588              		.cfi_startproc
 1589              		@ args = 0, pretend = 0, frame = 64
 1590              		@ frame_needed = 0, uses_anonymous_args = 0
 1591 0940 30B5     		push	{r4, r5, lr}
 1592              		.cfi_def_cfa_offset 12
 1593              		.cfi_offset 4, -12
 1594              		.cfi_offset 5, -8
 1595              		.cfi_offset 14, -4
 1596 0942 95B0     		sub	sp, sp, #84
 1597              		.cfi_def_cfa_offset 96
 1598              		.loc 1 1074 0
 1599 0944 9A4B     		ldr	r3, .L107
 1600 0946 1B68     		ldr	r3, [r3]
 1601 0948 03F02003 		and	r3, r3, #32
 1602 094c 002B     		cmp	r3, #0
 1603 094e 05D0     		beq	.L89
 1604              		.loc 1 1075 0
 1605 0950 984B     		ldr	r3, .L107+4
 1606 0952 1B68     		ldr	r3, [r3]
 1607 0954 5A1C     		adds	r2, r3, #1
 1608 0956 974B     		ldr	r3, .L107+4
 1609 0958 1A60     		str	r2, [r3]
 1610 095a 04E0     		b	.L90
 1611              	.L89:
 1612              		.loc 1 1077 0
 1613 095c 964B     		ldr	r3, .L107+8
 1614 095e 1B68     		ldr	r3, [r3]
 1615 0960 5A1C     		adds	r2, r3, #1
 1616 0962 954B     		ldr	r3, .L107+8
 1617 0964 1A60     		str	r2, [r3]
 1618              	.L90:
 1619              		.loc 1 1081 0
 1620 0966 954B     		ldr	r3, .L107+12
 1621 0968 DA69     		ldr	r2, [r3, #28]
 1622 096a 0BAB     		add	r3, sp, #44
 1623 096c 1046     		mov	r0, r2
 1624 096e 1946     		mov	r1, r3
 1625 0970 FFF7FEFF 		bl	BSP_ACCELERO_Get_AxesRaw
 1626              		.loc 1 1084 0
 1627 0974 914B     		ldr	r3, .L107+12
 1628 0976 5A6A     		ldr	r2, [r3, #36]
 1629 0978 05AB     		add	r3, sp, #20
 1630 097a 1046     		mov	r0, r2
 1631 097c 1946     		mov	r1, r3
 1632 097e FFF7FEFF 		bl	BSP_MAGNETO_Get_Axes
 1633              		.loc 1 1087 0
 1634 0982 8E4B     		ldr	r3, .L107+12
 1635 0984 1A6A     		ldr	r2, [r3, #32]
 1636 0986 08AB     		add	r3, sp, #32
 1637 0988 1046     		mov	r0, r2
 1638 098a 1946     		mov	r1, r3
 1639 098c FFF7FEFF 		bl	BSP_GYRO_Get_Axes
 1640              		.loc 1 1089 0
 1641 0990 01AC     		add	r4, sp, #4
 1642 0992 05AB     		add	r3, sp, #20
ARM GAS  /tmp/ccQpHQw3.s 			page 31


 1643 0994 93E80700 		ldmia	r3, {r0, r1, r2}
 1644 0998 84E80700 		stmia	r4, {r0, r1, r2}
 1645 099c 0A9B     		ldr	r3, [sp, #40]
 1646 099e 0093     		str	r3, [sp]
 1647 09a0 08AB     		add	r3, sp, #32
 1648 09a2 0CCB     		ldmia	r3, {r2, r3}
 1649 09a4 0BA9     		add	r1, sp, #44
 1650 09a6 03C9     		ldmia	r1, {r0, r1}
 1651 09a8 FFF7FEFF 		bl	MotionFX_manager_run
 1652              		.loc 1 1092 0
 1653 09ac 844B     		ldr	r3, .L107+16
 1654 09ae 1B78     		ldrb	r3, [r3]	@ zero_extendqisi2
 1655 09b0 012B     		cmp	r3, #1
 1656 09b2 7BD0     		beq	.L91
 1657              		.loc 1 1094 0
 1658 09b4 834B     		ldr	r3, .L107+20
 1659 09b6 1B68     		ldr	r3, [r3]
 1660 09b8 5A1C     		adds	r2, r3, #1
 1661 09ba 824B     		ldr	r3, .L107+20
 1662 09bc 1A60     		str	r2, [r3]
 1663              		.loc 1 1095 0
 1664 09be 814B     		ldr	r3, .L107+20
 1665 09c0 1B68     		ldr	r3, [r3]
 1666 09c2 042B     		cmp	r3, #4
 1667 09c4 75D1     		bne	.L96
 1668              		.loc 1 1096 0
 1669 09c6 7F4B     		ldr	r3, .L107+20
 1670 09c8 0022     		movs	r2, #0
 1671 09ca 1A60     		str	r2, [r3]
 1672              		.loc 1 1097 0
 1673 09cc BDF82C30 		ldrh	r3, [sp, #44]
 1674 09d0 1BB2     		sxth	r3, r3
 1675 09d2 1846     		mov	r0, r3
 1676 09d4 FFF7FEFF 		bl	__aeabi_i2f
 1677 09d8 0246     		mov	r2, r0
 1678 09da 7B4B     		ldr	r3, .L107+24
 1679 09dc 1B68     		ldr	r3, [r3]	@ float
 1680 09de 1046     		mov	r0, r2
 1681 09e0 1946     		mov	r1, r3
 1682 09e2 FFF7FEFF 		bl	__aeabi_fmul
 1683 09e6 0346     		mov	r3, r0
 1684 09e8 1846     		mov	r0, r3
 1685 09ea FFF7FEFF 		bl	__aeabi_f2iz
 1686 09ee 0346     		mov	r3, r0
 1687 09f0 0D93     		str	r3, [sp, #52]
 1688              		.loc 1 1098 0
 1689 09f2 BDF82E30 		ldrh	r3, [sp, #46]
 1690 09f6 1BB2     		sxth	r3, r3
 1691 09f8 1846     		mov	r0, r3
 1692 09fa FFF7FEFF 		bl	__aeabi_i2f
 1693 09fe 0246     		mov	r2, r0
 1694 0a00 714B     		ldr	r3, .L107+24
 1695 0a02 1B68     		ldr	r3, [r3]	@ float
 1696 0a04 1046     		mov	r0, r2
 1697 0a06 1946     		mov	r1, r3
 1698 0a08 FFF7FEFF 		bl	__aeabi_fmul
 1699 0a0c 0346     		mov	r3, r0
ARM GAS  /tmp/ccQpHQw3.s 			page 32


 1700 0a0e 1846     		mov	r0, r3
 1701 0a10 FFF7FEFF 		bl	__aeabi_f2iz
 1702 0a14 0346     		mov	r3, r0
 1703 0a16 0E93     		str	r3, [sp, #56]
 1704              		.loc 1 1099 0
 1705 0a18 BDF83030 		ldrh	r3, [sp, #48]
 1706 0a1c 1BB2     		sxth	r3, r3
 1707 0a1e 1846     		mov	r0, r3
 1708 0a20 FFF7FEFF 		bl	__aeabi_i2f
 1709 0a24 0246     		mov	r2, r0
 1710 0a26 684B     		ldr	r3, .L107+24
 1711 0a28 1B68     		ldr	r3, [r3]	@ float
 1712 0a2a 1046     		mov	r0, r2
 1713 0a2c 1946     		mov	r1, r3
 1714 0a2e FFF7FEFF 		bl	__aeabi_fmul
 1715 0a32 0346     		mov	r3, r0
 1716 0a34 1846     		mov	r0, r3
 1717 0a36 FFF7FEFF 		bl	__aeabi_f2iz
 1718 0a3a 0346     		mov	r3, r0
 1719 0a3c 0F93     		str	r3, [sp, #60]
 1720              		.loc 1 1106 0
 1721 0a3e 604B     		ldr	r3, .L107+16
 1722 0a40 1B78     		ldrb	r3, [r3]	@ zero_extendqisi2
 1723 0a42 012B     		cmp	r3, #1
 1724 0a44 35D1     		bne	.L96
 1725              		.loc 1 1107 0
 1726 0a46 5A4B     		ldr	r3, .L107
 1727 0a48 1B68     		ldr	r3, [r3]
 1728 0a4a 03F48063 		and	r3, r3, #1024
 1729 0a4e 002B     		cmp	r3, #0
 1730 0a50 14D0     		beq	.L93
 1731              		.loc 1 1108 0
 1732 0a52 5E4A     		ldr	r2, .L107+28
 1733 0a54 5E4B     		ldr	r3, .L107+32
 1734 0a56 1446     		mov	r4, r2
 1735 0a58 1D46     		mov	r5, r3
 1736 0a5a 0FCD     		ldmia	r5!, {r0, r1, r2, r3}
 1737 0a5c 0FC4     		stmia	r4!, {r0, r1, r2, r3}
 1738 0a5e 95E80300 		ldmia	r5, {r0, r1}
 1739 0a62 2060     		str	r0, [r4]
 1740 0a64 0434     		adds	r4, r4, #4
 1741 0a66 2170     		strb	r1, [r4]
 1742 0a68 5A4B     		ldr	r3, .L107+36
 1743 0a6a 1422     		movs	r2, #20
 1744 0a6c 1A60     		str	r2, [r3]
 1745              		.loc 1 1109 0
 1746 0a6e 594B     		ldr	r3, .L107+36
 1747 0a70 1B68     		ldr	r3, [r3]
 1748 0a72 DBB2     		uxtb	r3, r3
 1749 0a74 5548     		ldr	r0, .L107+28
 1750 0a76 1946     		mov	r1, r3
 1751 0a78 FFF7FEFF 		bl	Term_Update
 1752              	.L93:
 1753              	.LBB23:
 1754              		.loc 1 1119 0
 1755 0a7c 564B     		ldr	r3, .L107+40
 1756 0a7e DB6B     		ldr	r3, [r3, #60]
ARM GAS  /tmp/ccQpHQw3.s 			page 33


 1757 0a80 1393     		str	r3, [sp, #76]
 1758              		.loc 1 1120 0
 1759 0a82 139B     		ldr	r3, [sp, #76]
 1760 0a84 5C33     		adds	r3, r3, #92
 1761 0a86 1846     		mov	r0, r3
 1762 0a88 00F082FF 		bl	SaveCalibrationToMemory
 1763              	.LBE23:
 1764              		.loc 1 1124 0
 1765 0a8c FFF7FEFF 		bl	LedOnTargetPlatform
 1766              		.loc 1 1127 0
 1767 0a90 4B4B     		ldr	r3, .L107+16
 1768 0a92 1B78     		ldrb	r3, [r3]	@ zero_extendqisi2
 1769 0a94 002B     		cmp	r3, #0
 1770 0a96 01D0     		beq	.L94
 1771              		.loc 1 1127 0 is_stmt 0 discriminator 1
 1772 0a98 6423     		movs	r3, #100
 1773 0a9a 00E0     		b	.L95
 1774              	.L94:
 1775              		.loc 1 1127 0 discriminator 2
 1776 0a9c 0023     		movs	r3, #0
 1777              	.L95:
 1778              		.loc 1 1127 0 discriminator 3
 1779 0a9e 4FF48070 		mov	r0, #256
 1780 0aa2 FF21     		movs	r1, #255
 1781 0aa4 1A46     		mov	r2, r3
 1782 0aa6 FFF7FEFF 		bl	Config_Notify
 1783 0aaa 02E0     		b	.L96
 1784              	.L91:
 1785              		.loc 1 1131 0 is_stmt 1
 1786 0aac 454B     		ldr	r3, .L107+20
 1787 0aae 0022     		movs	r2, #0
 1788 0ab0 1A60     		str	r2, [r3]
 1789              	.L96:
 1790              		.loc 1 1135 0
 1791 0ab2 FFF7FEFF 		bl	MotionFX_manager_getDataOUT
 1792 0ab6 1290     		str	r0, [sp, #72]
 1793              		.loc 1 1137 0
 1794 0ab8 3D4B     		ldr	r3, .L107
 1795 0aba 1B68     		ldr	r3, [r3]
 1796 0abc 03F02003 		and	r3, r3, #32
 1797 0ac0 002B     		cmp	r3, #0
 1798 0ac2 26D0     		beq	.L97
 1799              		.loc 1 1139 0
 1800 0ac4 3B4B     		ldr	r3, .L107+4
 1801 0ac6 1B68     		ldr	r3, [r3]
 1802 0ac8 0A2B     		cmp	r3, #10
 1803 0aca 40F0D180 		bne	.L88
 1804              	.LBB24:
 1805              		.loc 1 1140 0
 1806 0ace 129B     		ldr	r3, [sp, #72]
 1807 0ad0 5B6B     		ldr	r3, [r3, #52]	@ float
 1808 0ad2 1846     		mov	r0, r3
 1809 0ad4 4149     		ldr	r1, .L107+44
 1810 0ad6 FFF7FEFF 		bl	__aeabi_fmul
 1811 0ada 0346     		mov	r3, r0
 1812 0adc 1846     		mov	r0, r3
 1813 0ade FFF7FEFF 		bl	__aeabi_f2d
ARM GAS  /tmp/ccQpHQw3.s 			page 34


 1814 0ae2 0246     		mov	r2, r0
 1815 0ae4 0B46     		mov	r3, r1
 1816 0ae6 1046     		mov	r0, r2
 1817 0ae8 1946     		mov	r1, r3
 1818 0aea FFF7FEFF 		bl	trunc
 1819 0aee 0246     		mov	r2, r0
 1820 0af0 0B46     		mov	r3, r1
 1821 0af2 1046     		mov	r0, r2
 1822 0af4 1946     		mov	r1, r3
 1823 0af6 FFF7FEFF 		bl	__aeabi_d2uiz
 1824 0afa 0346     		mov	r3, r0
 1825 0afc ADF84630 		strh	r3, [sp, #70]	@ movhi
 1826              		.loc 1 1141 0
 1827 0b00 2C4B     		ldr	r3, .L107+4
 1828 0b02 0022     		movs	r2, #0
 1829 0b04 1A60     		str	r2, [r3]
 1830              		.loc 1 1142 0
 1831 0b06 BDF84630 		ldrh	r3, [sp, #70]
 1832 0b0a 1846     		mov	r0, r3
 1833 0b0c FFF7FEFF 		bl	ECompass_Update
 1834 0b10 AEE0     		b	.L88
 1835              	.L97:
 1836              	.LBE24:
 1837              	.LBB25:
 1838              		.loc 1 1145 0
 1839 0b12 294B     		ldr	r3, .L107+8
 1840 0b14 1B68     		ldr	r3, [r3]
 1841 0b16 032B     		cmp	r3, #3
 1842 0b18 03DC     		bgt	.L100
 1843              		.loc 1 1145 0 is_stmt 0 discriminator 1
 1844 0b1a 274B     		ldr	r3, .L107+8
 1845 0b1c 1B68     		ldr	r3, [r3]
 1846 0b1e 013B     		subs	r3, r3, #1
 1847 0b20 00E0     		b	.L101
 1848              	.L100:
 1849              		.loc 1 1145 0 discriminator 2
 1850 0b22 0223     		movs	r3, #2
 1851              	.L101:
 1852              		.loc 1 1145 0 discriminator 3
 1853 0b24 1093     		str	r3, [sp, #64]
 1854              		.loc 1 1151 0 is_stmt 1 discriminator 3
 1855 0b26 129B     		ldr	r3, [sp, #72]
 1856 0b28 9B69     		ldr	r3, [r3, #24]	@ float
 1857 0b2a 1846     		mov	r0, r3
 1858 0b2c 4FF00001 		mov	r1, #0
 1859 0b30 FFF7FEFF 		bl	__aeabi_fcmplt
 1860 0b34 0346     		mov	r3, r0
 1861 0b36 002B     		cmp	r3, #0
 1862 0b38 56D0     		beq	.L106
 1863              		.loc 1 1152 0
 1864 0b3a 129B     		ldr	r3, [sp, #72]
 1865 0b3c DB68     		ldr	r3, [r3, #12]	@ float
 1866 0b3e 1846     		mov	r0, r3
 1867 0b40 2749     		ldr	r1, .L107+48
 1868 0b42 FFF7FEFF 		bl	__aeabi_fmul
 1869 0b46 0346     		mov	r3, r0
 1870 0b48 1846     		mov	r0, r3
ARM GAS  /tmp/ccQpHQw3.s 			page 35


 1871 0b4a FFF7FEFF 		bl	__aeabi_f2iz
 1872 0b4e 0146     		mov	r1, r0
 1873 0b50 2448     		ldr	r0, .L107+52
 1874 0b52 109A     		ldr	r2, [sp, #64]
 1875 0b54 1346     		mov	r3, r2
 1876 0b56 5B00     		lsls	r3, r3, #1
 1877 0b58 1344     		add	r3, r3, r2
 1878 0b5a 9B00     		lsls	r3, r3, #2
 1879 0b5c 0344     		add	r3, r3, r0
 1880 0b5e 1960     		str	r1, [r3]
 1881              		.loc 1 1153 0
 1882 0b60 129B     		ldr	r3, [sp, #72]
 1883 0b62 1B69     		ldr	r3, [r3, #16]	@ float
 1884 0b64 1846     		mov	r0, r3
 1885 0b66 1E49     		ldr	r1, .L107+48
 1886 0b68 FFF7FEFF 		bl	__aeabi_fmul
 1887 0b6c 0346     		mov	r3, r0
 1888 0b6e 1846     		mov	r0, r3
 1889 0b70 FFF7FEFF 		bl	__aeabi_f2iz
 1890 0b74 0146     		mov	r1, r0
 1891 0b76 1B48     		ldr	r0, .L107+52
 1892 0b78 109A     		ldr	r2, [sp, #64]
 1893 0b7a 1346     		mov	r3, r2
 1894 0b7c 5B00     		lsls	r3, r3, #1
 1895 0b7e 1344     		add	r3, r3, r2
 1896 0b80 9B00     		lsls	r3, r3, #2
 1897 0b82 0344     		add	r3, r3, r0
 1898 0b84 5960     		str	r1, [r3, #4]
 1899              		.loc 1 1154 0
 1900 0b86 129B     		ldr	r3, [sp, #72]
 1901 0b88 5B69     		ldr	r3, [r3, #20]	@ float
 1902 0b8a 1846     		mov	r0, r3
 1903 0b8c 1449     		ldr	r1, .L107+48
 1904 0b8e FFF7FEFF 		bl	__aeabi_fmul
 1905 0b92 0346     		mov	r3, r0
 1906 0b94 1846     		mov	r0, r3
 1907 0b96 FFF7FEFF 		bl	__aeabi_f2iz
 1908 0b9a 0146     		mov	r1, r0
 1909 0b9c 1148     		ldr	r0, .L107+52
 1910 0b9e 109A     		ldr	r2, [sp, #64]
 1911 0ba0 1346     		mov	r3, r2
 1912 0ba2 5B00     		lsls	r3, r3, #1
 1913 0ba4 1344     		add	r3, r3, r2
 1914 0ba6 9B00     		lsls	r3, r3, #2
 1915 0ba8 0344     		add	r3, r3, r0
 1916 0baa 0833     		adds	r3, r3, #8
 1917 0bac 1960     		str	r1, [r3]
 1918 0bae 55E0     		b	.L104
 1919              	.L108:
 1920              		.align	2
 1921              	.L107:
 1922 0bb0 00000000 		.word	ConnectionBleStatus
 1923 0bb4 44000000 		.word	CounterEC.19069
 1924 0bb8 48000000 		.word	CounterFX.19068
 1925 0bbc 00000000 		.word	TargetBoardFeatures
 1926 0bc0 36000000 		.word	isCal
 1927 0bc4 4C000000 		.word	calibIndex.19067
ARM GAS  /tmp/ccQpHQw3.s 			page 36


 1928 0bc8 00000000 		.word	sensitivity
 1929 0bcc 00000000 		.word	BufferToWrite
 1930 0bd0 34000000 		.word	.LC3
 1931 0bd4 00000000 		.word	BytesToWrite
 1932 0bd8 00000000 		.word	MDM_LicTable
 1933 0bdc 0000C842 		.word	1120403456
 1934 0be0 00401CC6 		.word	-971227136
 1935 0be4 50000000 		.word	quat_axes.19066
 1936              	.L106:
 1937              		.loc 1 1156 0
 1938 0be8 129B     		ldr	r3, [sp, #72]
 1939 0bea DB68     		ldr	r3, [r3, #12]	@ float
 1940 0bec 1846     		mov	r0, r3
 1941 0bee 2149     		ldr	r1, .L109
 1942 0bf0 FFF7FEFF 		bl	__aeabi_fmul
 1943 0bf4 0346     		mov	r3, r0
 1944 0bf6 1846     		mov	r0, r3
 1945 0bf8 FFF7FEFF 		bl	__aeabi_f2iz
 1946 0bfc 0146     		mov	r1, r0
 1947 0bfe 1E48     		ldr	r0, .L109+4
 1948 0c00 109A     		ldr	r2, [sp, #64]
 1949 0c02 1346     		mov	r3, r2
 1950 0c04 5B00     		lsls	r3, r3, #1
 1951 0c06 1344     		add	r3, r3, r2
 1952 0c08 9B00     		lsls	r3, r3, #2
 1953 0c0a 0344     		add	r3, r3, r0
 1954 0c0c 1960     		str	r1, [r3]
 1955              		.loc 1 1157 0
 1956 0c0e 129B     		ldr	r3, [sp, #72]
 1957 0c10 1B69     		ldr	r3, [r3, #16]	@ float
 1958 0c12 1846     		mov	r0, r3
 1959 0c14 1749     		ldr	r1, .L109
 1960 0c16 FFF7FEFF 		bl	__aeabi_fmul
 1961 0c1a 0346     		mov	r3, r0
 1962 0c1c 1846     		mov	r0, r3
 1963 0c1e FFF7FEFF 		bl	__aeabi_f2iz
 1964 0c22 0146     		mov	r1, r0
 1965 0c24 1448     		ldr	r0, .L109+4
 1966 0c26 109A     		ldr	r2, [sp, #64]
 1967 0c28 1346     		mov	r3, r2
 1968 0c2a 5B00     		lsls	r3, r3, #1
 1969 0c2c 1344     		add	r3, r3, r2
 1970 0c2e 9B00     		lsls	r3, r3, #2
 1971 0c30 0344     		add	r3, r3, r0
 1972 0c32 5960     		str	r1, [r3, #4]
 1973              		.loc 1 1158 0
 1974 0c34 129B     		ldr	r3, [sp, #72]
 1975 0c36 5B69     		ldr	r3, [r3, #20]	@ float
 1976 0c38 1846     		mov	r0, r3
 1977 0c3a 0E49     		ldr	r1, .L109
 1978 0c3c FFF7FEFF 		bl	__aeabi_fmul
 1979 0c40 0346     		mov	r3, r0
 1980 0c42 1846     		mov	r0, r3
 1981 0c44 FFF7FEFF 		bl	__aeabi_f2iz
 1982 0c48 0146     		mov	r1, r0
 1983 0c4a 0B48     		ldr	r0, .L109+4
 1984 0c4c 109A     		ldr	r2, [sp, #64]
ARM GAS  /tmp/ccQpHQw3.s 			page 37


 1985 0c4e 1346     		mov	r3, r2
 1986 0c50 5B00     		lsls	r3, r3, #1
 1987 0c52 1344     		add	r3, r3, r2
 1988 0c54 9B00     		lsls	r3, r3, #2
 1989 0c56 0344     		add	r3, r3, r0
 1990 0c58 0833     		adds	r3, r3, #8
 1991 0c5a 1960     		str	r1, [r3]
 1992              	.L104:
 1993              		.loc 1 1162 0
 1994 0c5c 074B     		ldr	r3, .L109+8
 1995 0c5e 1B68     		ldr	r3, [r3]
 1996 0c60 032B     		cmp	r3, #3
 1997 0c62 05D1     		bne	.L88
 1998              		.loc 1 1163 0
 1999 0c64 0448     		ldr	r0, .L109+4
 2000 0c66 FFF7FEFF 		bl	Quat_Update
 2001              		.loc 1 1164 0
 2002 0c6a 044B     		ldr	r3, .L109+8
 2003 0c6c 0022     		movs	r2, #0
 2004 0c6e 1A60     		str	r2, [r3]
 2005              	.L88:
 2006              	.LBE25:
 2007              		.loc 1 1167 0
 2008 0c70 15B0     		add	sp, sp, #84
 2009              		@ sp needed
 2010 0c72 30BD     		pop	{r4, r5, pc}
 2011              	.L110:
 2012              		.align	2
 2013              	.L109:
 2014 0c74 00401C46 		.word	1176256512
 2015 0c78 50000000 		.word	quat_axes.19066
 2016 0c7c 48000000 		.word	CounterFX.19068
 2017              		.cfi_endproc
 2018              	.LFE278:
 2019              		.size	ComputeQuaternions, .-ComputeQuaternions
 2020              		.section	.rodata
 2021 0049 000000   		.align	2
 2022              	.LC4:
 2023 004c 53656E64 		.ascii	"Sending: AR=%d\015\012\000"
 2023      696E673A 
 2023      2041523D 
 2023      25640D0A 
 2023      00
 2024              		.text
 2025              		.align	2
 2026              		.p2align 4,,15
 2027              		.thumb
 2028              		.thumb_func
 2029              		.type	ComputeMotionAR, %function
 2030              	ComputeMotionAR:
 2031              	.LFB279:
 2032              		.loc 1 1177 0
 2033              		.cfi_startproc
 2034              		@ args = 0, pretend = 0, frame = 8
 2035              		@ frame_needed = 0, uses_anonymous_args = 0
 2036 0c80 00B5     		push	{lr}
 2037              		.cfi_def_cfa_offset 4
ARM GAS  /tmp/ccQpHQw3.s 			page 38


 2038              		.cfi_offset 14, -4
 2039 0c82 83B0     		sub	sp, sp, #12
 2040              		.cfi_def_cfa_offset 16
 2041              		.loc 1 1182 0
 2042 0c84 1A4B     		ldr	r3, .L113
 2043 0c86 DA69     		ldr	r2, [r3, #28]
 2044 0c88 6B46     		mov	r3, sp
 2045 0c8a 1046     		mov	r0, r2
 2046 0c8c 1946     		mov	r1, r3
 2047 0c8e FFF7FEFF 		bl	BSP_ACCELERO_Get_AxesRaw
 2048              		.loc 1 1184 0
 2049 0c92 6B46     		mov	r3, sp
 2050 0c94 93E80300 		ldmia	r3, {r0, r1}
 2051 0c98 FFF7FEFF 		bl	MotionAR_manager_run
 2052              		.loc 1 1186 0
 2053 0c9c 154B     		ldr	r3, .L113+4
 2054 0c9e 1A78     		ldrb	r2, [r3]	@ zero_extendqisi2
 2055 0ca0 154B     		ldr	r3, .L113+8
 2056 0ca2 1B78     		ldrb	r3, [r3]	@ zero_extendqisi2
 2057 0ca4 9A42     		cmp	r2, r3
 2058 0ca6 1FD0     		beq	.L111
 2059              		.loc 1 1187 0
 2060 0ca8 134B     		ldr	r3, .L113+8
 2061 0caa 1A78     		ldrb	r2, [r3]	@ zero_extendqisi2
 2062 0cac 114B     		ldr	r3, .L113+4
 2063 0cae 1A70     		strb	r2, [r3]
 2064              		.loc 1 1189 0
 2065 0cb0 114B     		ldr	r3, .L113+8
 2066 0cb2 1B78     		ldrb	r3, [r3]	@ zero_extendqisi2
 2067 0cb4 1846     		mov	r0, r3
 2068 0cb6 FFF7FEFF 		bl	ActivityRec_Update
 2069              		.loc 1 1191 0
 2070 0cba 104B     		ldr	r3, .L113+12
 2071 0cbc 1B68     		ldr	r3, [r3]
 2072 0cbe 03F48063 		and	r3, r3, #1024
 2073 0cc2 002B     		cmp	r3, #0
 2074 0cc4 10D0     		beq	.L111
 2075              		.loc 1 1192 0
 2076 0cc6 0C4B     		ldr	r3, .L113+8
 2077 0cc8 1B78     		ldrb	r3, [r3]	@ zero_extendqisi2
 2078 0cca 0D48     		ldr	r0, .L113+16
 2079 0ccc 0D49     		ldr	r1, .L113+20
 2080 0cce 1A46     		mov	r2, r3
 2081 0cd0 FFF7FEFF 		bl	sprintf
 2082 0cd4 0246     		mov	r2, r0
 2083 0cd6 0C4B     		ldr	r3, .L113+24
 2084 0cd8 1A60     		str	r2, [r3]
 2085              		.loc 1 1193 0
 2086 0cda 0B4B     		ldr	r3, .L113+24
 2087 0cdc 1B68     		ldr	r3, [r3]
 2088 0cde DBB2     		uxtb	r3, r3
 2089 0ce0 0748     		ldr	r0, .L113+16
 2090 0ce2 1946     		mov	r1, r3
 2091 0ce4 FFF7FEFF 		bl	Term_Update
 2092              	.L111:
 2093              		.loc 1 1198 0
 2094 0ce8 03B0     		add	sp, sp, #12
ARM GAS  /tmp/ccQpHQw3.s 			page 39


 2095              		@ sp needed
 2096 0cea 5DF804FB 		ldr	pc, [sp], #4
 2097              	.L114:
 2098 0cee 00BF     		.align	2
 2099              	.L113:
 2100 0cf0 00000000 		.word	TargetBoardFeatures
 2101 0cf4 74000000 		.word	ActivityCodeStored.19081
 2102 0cf8 00000000 		.word	ActivityCode
 2103 0cfc 00000000 		.word	ConnectionBleStatus
 2104 0d00 00000000 		.word	BufferToWrite
 2105 0d04 4C000000 		.word	.LC4
 2106 0d08 00000000 		.word	BytesToWrite
 2107              		.cfi_endproc
 2108              	.LFE279:
 2109              		.size	ComputeMotionAR, .-ComputeMotionAR
 2110              		.section	.rodata
 2111 005d 000000   		.align	2
 2112              	.LC5:
 2113 0060 53656E64 		.ascii	"Sending: CP=%d\015\012\000"
 2113      696E673A 
 2113      2043503D 
 2113      25640D0A 
 2113      00
 2114              		.text
 2115              		.align	2
 2116 0d0c AFF30080 		.p2align 4,,15
 2117              		.thumb
 2118              		.thumb_func
 2119              		.type	ComputeMotionCP, %function
 2120              	ComputeMotionCP:
 2121              	.LFB280:
 2122              		.loc 1 1208 0
 2123              		.cfi_startproc
 2124              		@ args = 0, pretend = 0, frame = 8
 2125              		@ frame_needed = 0, uses_anonymous_args = 0
 2126 0d10 00B5     		push	{lr}
 2127              		.cfi_def_cfa_offset 4
 2128              		.cfi_offset 14, -4
 2129 0d12 83B0     		sub	sp, sp, #12
 2130              		.cfi_def_cfa_offset 16
 2131              		.loc 1 1213 0
 2132 0d14 1A4B     		ldr	r3, .L117
 2133 0d16 DA69     		ldr	r2, [r3, #28]
 2134 0d18 6B46     		mov	r3, sp
 2135 0d1a 1046     		mov	r0, r2
 2136 0d1c 1946     		mov	r1, r3
 2137 0d1e FFF7FEFF 		bl	BSP_ACCELERO_Get_AxesRaw
 2138              		.loc 1 1214 0
 2139 0d22 6B46     		mov	r3, sp
 2140 0d24 93E80300 		ldmia	r3, {r0, r1}
 2141 0d28 FFF7FEFF 		bl	MotionCP_manager_run
 2142              		.loc 1 1216 0
 2143 0d2c 154B     		ldr	r3, .L117+4
 2144 0d2e 1A78     		ldrb	r2, [r3]	@ zero_extendqisi2
 2145 0d30 154B     		ldr	r3, .L117+8
 2146 0d32 1B78     		ldrb	r3, [r3]	@ zero_extendqisi2
 2147 0d34 9A42     		cmp	r2, r3
ARM GAS  /tmp/ccQpHQw3.s 			page 40


 2148 0d36 1FD0     		beq	.L115
 2149              		.loc 1 1217 0
 2150 0d38 134B     		ldr	r3, .L117+8
 2151 0d3a 1A78     		ldrb	r2, [r3]	@ zero_extendqisi2
 2152 0d3c 114B     		ldr	r3, .L117+4
 2153 0d3e 1A70     		strb	r2, [r3]
 2154              		.loc 1 1218 0
 2155 0d40 114B     		ldr	r3, .L117+8
 2156 0d42 1B78     		ldrb	r3, [r3]	@ zero_extendqisi2
 2157 0d44 1846     		mov	r0, r3
 2158 0d46 FFF7FEFF 		bl	CarryPosRec_Update
 2159              		.loc 1 1220 0
 2160 0d4a 104B     		ldr	r3, .L117+12
 2161 0d4c 1B68     		ldr	r3, [r3]
 2162 0d4e 03F48063 		and	r3, r3, #1024
 2163 0d52 002B     		cmp	r3, #0
 2164 0d54 10D0     		beq	.L115
 2165              		.loc 1 1221 0
 2166 0d56 0C4B     		ldr	r3, .L117+8
 2167 0d58 1B78     		ldrb	r3, [r3]	@ zero_extendqisi2
 2168 0d5a 0D48     		ldr	r0, .L117+16
 2169 0d5c 0D49     		ldr	r1, .L117+20
 2170 0d5e 1A46     		mov	r2, r3
 2171 0d60 FFF7FEFF 		bl	sprintf
 2172 0d64 0246     		mov	r2, r0
 2173 0d66 0C4B     		ldr	r3, .L117+24
 2174 0d68 1A60     		str	r2, [r3]
 2175              		.loc 1 1222 0
 2176 0d6a 0B4B     		ldr	r3, .L117+24
 2177 0d6c 1B68     		ldr	r3, [r3]
 2178 0d6e DBB2     		uxtb	r3, r3
 2179 0d70 0748     		ldr	r0, .L117+16
 2180 0d72 1946     		mov	r1, r3
 2181 0d74 FFF7FEFF 		bl	Term_Update
 2182              	.L115:
 2183              		.loc 1 1227 0
 2184 0d78 03B0     		add	sp, sp, #12
 2185              		@ sp needed
 2186 0d7a 5DF804FB 		ldr	pc, [sp], #4
 2187              	.L118:
 2188 0d7e 00BF     		.align	2
 2189              	.L117:
 2190 0d80 00000000 		.word	TargetBoardFeatures
 2191 0d84 75000000 		.word	CarryPositionCodeStored.19086
 2192 0d88 00000000 		.word	CarryPositionCode
 2193 0d8c 00000000 		.word	ConnectionBleStatus
 2194 0d90 00000000 		.word	BufferToWrite
 2195 0d94 60000000 		.word	.LC5
 2196 0d98 00000000 		.word	BytesToWrite
 2197              		.cfi_endproc
 2198              	.LFE280:
 2199              		.size	ComputeMotionCP, .-ComputeMotionCP
 2200              		.section	.rodata
 2201 0071 000000   		.align	2
 2202              	.LC6:
 2203 0074 53656E64 		.ascii	"Sending: GR=%d\015\012\000"
 2203      696E673A 
ARM GAS  /tmp/ccQpHQw3.s 			page 41


 2203      2047523D 
 2203      25640D0A 
 2203      00
 2204              		.text
 2205              		.align	2
 2206 0d9c AFF30080 		.p2align 4,,15
 2207              		.thumb
 2208              		.thumb_func
 2209              		.type	ComputeMotionGR, %function
 2210              	ComputeMotionGR:
 2211              	.LFB281:
 2212              		.loc 1 1237 0
 2213              		.cfi_startproc
 2214              		@ args = 0, pretend = 0, frame = 8
 2215              		@ frame_needed = 0, uses_anonymous_args = 0
 2216 0da0 00B5     		push	{lr}
 2217              		.cfi_def_cfa_offset 4
 2218              		.cfi_offset 14, -4
 2219 0da2 83B0     		sub	sp, sp, #12
 2220              		.cfi_def_cfa_offset 16
 2221              		.loc 1 1242 0
 2222 0da4 1A4B     		ldr	r3, .L121
 2223 0da6 DA69     		ldr	r2, [r3, #28]
 2224 0da8 6B46     		mov	r3, sp
 2225 0daa 1046     		mov	r0, r2
 2226 0dac 1946     		mov	r1, r3
 2227 0dae FFF7FEFF 		bl	BSP_ACCELERO_Get_AxesRaw
 2228              		.loc 1 1243 0
 2229 0db2 6B46     		mov	r3, sp
 2230 0db4 93E80300 		ldmia	r3, {r0, r1}
 2231 0db8 FFF7FEFF 		bl	MotionGR_manager_run
 2232              		.loc 1 1245 0
 2233 0dbc 154B     		ldr	r3, .L121+4
 2234 0dbe 1A78     		ldrb	r2, [r3]	@ zero_extendqisi2
 2235 0dc0 154B     		ldr	r3, .L121+8
 2236 0dc2 1B78     		ldrb	r3, [r3]	@ zero_extendqisi2
 2237 0dc4 9A42     		cmp	r2, r3
 2238 0dc6 1FD0     		beq	.L119
 2239              		.loc 1 1246 0
 2240 0dc8 134B     		ldr	r3, .L121+8
 2241 0dca 1A78     		ldrb	r2, [r3]	@ zero_extendqisi2
 2242 0dcc 114B     		ldr	r3, .L121+4
 2243 0dce 1A70     		strb	r2, [r3]
 2244              		.loc 1 1247 0
 2245 0dd0 114B     		ldr	r3, .L121+8
 2246 0dd2 1B78     		ldrb	r3, [r3]	@ zero_extendqisi2
 2247 0dd4 1846     		mov	r0, r3
 2248 0dd6 FFF7FEFF 		bl	GestureRec_Update
 2249              		.loc 1 1249 0
 2250 0dda 104B     		ldr	r3, .L121+12
 2251 0ddc 1B68     		ldr	r3, [r3]
 2252 0dde 03F48063 		and	r3, r3, #1024
 2253 0de2 002B     		cmp	r3, #0
 2254 0de4 10D0     		beq	.L119
 2255              		.loc 1 1250 0
 2256 0de6 0C4B     		ldr	r3, .L121+8
 2257 0de8 1B78     		ldrb	r3, [r3]	@ zero_extendqisi2
ARM GAS  /tmp/ccQpHQw3.s 			page 42


 2258 0dea 0D48     		ldr	r0, .L121+16
 2259 0dec 0D49     		ldr	r1, .L121+20
 2260 0dee 1A46     		mov	r2, r3
 2261 0df0 FFF7FEFF 		bl	sprintf
 2262 0df4 0246     		mov	r2, r0
 2263 0df6 0C4B     		ldr	r3, .L121+24
 2264 0df8 1A60     		str	r2, [r3]
 2265              		.loc 1 1251 0
 2266 0dfa 0B4B     		ldr	r3, .L121+24
 2267 0dfc 1B68     		ldr	r3, [r3]
 2268 0dfe DBB2     		uxtb	r3, r3
 2269 0e00 0748     		ldr	r0, .L121+16
 2270 0e02 1946     		mov	r1, r3
 2271 0e04 FFF7FEFF 		bl	Term_Update
 2272              	.L119:
 2273              		.loc 1 1256 0
 2274 0e08 03B0     		add	sp, sp, #12
 2275              		@ sp needed
 2276 0e0a 5DF804FB 		ldr	pc, [sp], #4
 2277              	.L122:
 2278 0e0e 00BF     		.align	2
 2279              	.L121:
 2280 0e10 00000000 		.word	TargetBoardFeatures
 2281 0e14 76000000 		.word	GestureRecognitionCodeStored.19091
 2282 0e18 00000000 		.word	GestureRecognitionCode
 2283 0e1c 00000000 		.word	ConnectionBleStatus
 2284 0e20 00000000 		.word	BufferToWrite
 2285 0e24 74000000 		.word	.LC6
 2286 0e28 00000000 		.word	BytesToWrite
 2287              		.cfi_endproc
 2288              	.LFE281:
 2289              		.size	ComputeMotionGR, .-ComputeMotionGR
 2290              		.global	__aeabi_fadd
 2291              		.align	2
 2292 0e2c AFF30080 		.p2align 4,,15
 2293              		.global	AudioProcess
 2294              		.thumb
 2295              		.thumb_func
 2296              		.type	AudioProcess, %function
 2297              	AudioProcess:
 2298              	.LFB282:
 2299              		.loc 1 1265 0
 2300              		.cfi_startproc
 2301              		@ args = 0, pretend = 0, frame = 8
 2302              		@ frame_needed = 0, uses_anonymous_args = 0
 2303 0e30 10B5     		push	{r4, lr}
 2304              		.cfi_def_cfa_offset 8
 2305              		.cfi_offset 4, -8
 2306              		.cfi_offset 14, -4
 2307 0e32 82B0     		sub	sp, sp, #8
 2308              		.cfi_def_cfa_offset 16
 2309              		.loc 1 1269 0
 2310 0e34 1E4B     		ldr	r3, .L129
 2311 0e36 1B68     		ldr	r3, [r3]
 2312 0e38 03F00803 		and	r3, r3, #8
 2313 0e3c 002B     		cmp	r3, #0
 2314 0e3e 35D0     		beq	.L123
ARM GAS  /tmp/ccQpHQw3.s 			page 43


 2315              		.loc 1 1270 0
 2316 0e40 0023     		movs	r3, #0
 2317 0e42 0193     		str	r3, [sp, #4]
 2318 0e44 2FE0     		b	.L125
 2319              	.L128:
 2320              		.loc 1 1271 0
 2321 0e46 0023     		movs	r3, #0
 2322 0e48 0093     		str	r3, [sp]
 2323 0e4a 26E0     		b	.L126
 2324              	.L127:
 2325              		.loc 1 1272 0 discriminator 2
 2326 0e4c 194B     		ldr	r3, .L129+4
 2327 0e4e 009A     		ldr	r2, [sp]
 2328 0e50 53F82240 		ldr	r4, [r3, r2, lsl #2]	@ float
 2329 0e54 019A     		ldr	r2, [sp, #4]
 2330 0e56 009B     		ldr	r3, [sp]
 2331 0e58 1A44     		add	r2, r2, r3
 2332 0e5a 174B     		ldr	r3, .L129+8
 2333 0e5c 33F81230 		ldrh	r3, [r3, r2, lsl #1]
 2334 0e60 9BB2     		uxth	r3, r3
 2335 0e62 1BB2     		sxth	r3, r3
 2336 0e64 0199     		ldr	r1, [sp, #4]
 2337 0e66 009A     		ldr	r2, [sp]
 2338 0e68 1144     		add	r1, r1, r2
 2339 0e6a 134A     		ldr	r2, .L129+8
 2340 0e6c 32F81120 		ldrh	r2, [r2, r1, lsl #1]
 2341 0e70 92B2     		uxth	r2, r2
 2342 0e72 12B2     		sxth	r2, r2
 2343 0e74 02FB03F3 		mul	r3, r2, r3
 2344 0e78 1846     		mov	r0, r3
 2345 0e7a FFF7FEFF 		bl	__aeabi_i2f
 2346 0e7e 0346     		mov	r3, r0
 2347 0e80 2046     		mov	r0, r4
 2348 0e82 1946     		mov	r1, r3
 2349 0e84 FFF7FEFF 		bl	__aeabi_fadd
 2350 0e88 0346     		mov	r3, r0
 2351 0e8a 1946     		mov	r1, r3
 2352 0e8c 094B     		ldr	r3, .L129+4
 2353 0e8e 009A     		ldr	r2, [sp]
 2354 0e90 43F82210 		str	r1, [r3, r2, lsl #2]	@ float
 2355              		.loc 1 1271 0 discriminator 2
 2356 0e94 009B     		ldr	r3, [sp]
 2357 0e96 0133     		adds	r3, r3, #1
 2358 0e98 0093     		str	r3, [sp]
 2359              	.L126:
 2360              		.loc 1 1271 0 is_stmt 0 discriminator 1
 2361 0e9a 009B     		ldr	r3, [sp]
 2362 0e9c 002B     		cmp	r3, #0
 2363 0e9e D5DD     		ble	.L127
 2364              		.loc 1 1270 0 is_stmt 1
 2365 0ea0 019B     		ldr	r3, [sp, #4]
 2366 0ea2 0133     		adds	r3, r3, #1
 2367 0ea4 0193     		str	r3, [sp, #4]
 2368              	.L125:
 2369              		.loc 1 1270 0 is_stmt 0 discriminator 1
 2370 0ea6 019B     		ldr	r3, [sp, #4]
 2371 0ea8 0F2B     		cmp	r3, #15
ARM GAS  /tmp/ccQpHQw3.s 			page 44


 2372 0eaa CCDD     		ble	.L128
 2373              	.L123:
 2374              		.loc 1 1276 0 is_stmt 1
 2375 0eac 02B0     		add	sp, sp, #8
 2376              		@ sp needed
 2377 0eae 10BD     		pop	{r4, pc}
 2378              	.L130:
 2379              		.align	2
 2380              	.L129:
 2381 0eb0 00000000 		.word	ConnectionBleStatus
 2382 0eb4 00000000 		.word	RMS_Ch
 2383 0eb8 00000000 		.word	PCM_Buffer
 2384              		.cfi_endproc
 2385              	.LFE282:
 2386              		.size	AudioProcess, .-AudioProcess
 2387              		.global	__aeabi_fdiv
 2388              		.global	__aeabi_f2uiz
 2389              		.global	__aeabi_ui2f
 2390              		.align	2
 2391 0ebc AFF30080 		.p2align 4,,15
 2392              		.thumb
 2393              		.thumb_func
 2394              		.type	SendAudioLevelData, %function
 2395              	SendAudioLevelData:
 2396              	.LFB283:
 2397              		.loc 1 1284 0
 2398              		.cfi_startproc
 2399              		@ args = 0, pretend = 0, frame = 8
 2400              		@ frame_needed = 0, uses_anonymous_args = 0
 2401 0ec0 10B5     		push	{r4, lr}
 2402              		.cfi_def_cfa_offset 8
 2403              		.cfi_offset 4, -8
 2404              		.cfi_offset 14, -4
 2405 0ec2 82B0     		sub	sp, sp, #8
 2406              		.cfi_def_cfa_offset 16
 2407              		.loc 1 1288 0
 2408 0ec4 0023     		movs	r3, #0
 2409 0ec6 0193     		str	r3, [sp, #4]
 2410 0ec8 5CE0     		b	.L132
 2411              	.L133:
 2412              		.loc 1 1289 0 discriminator 2
 2413 0eca 019B     		ldr	r3, [sp, #4]
 2414 0ecc 5B00     		lsls	r3, r3, #1
 2415 0ece 02A9     		add	r1, sp, #8
 2416 0ed0 0B44     		add	r3, r3, r1
 2417 0ed2 0022     		movs	r2, #0
 2418 0ed4 23F8082C 		strh	r2, [r3, #-8]	@ movhi
 2419              		.loc 1 1291 0 discriminator 2
 2420 0ed8 2F4B     		ldr	r3, .L134
 2421 0eda 019A     		ldr	r2, [sp, #4]
 2422 0edc 53F82230 		ldr	r3, [r3, r2, lsl #2]	@ float
 2423 0ee0 1846     		mov	r0, r3
 2424 0ee2 2E49     		ldr	r1, .L134+4
 2425 0ee4 FFF7FEFF 		bl	__aeabi_fdiv
 2426 0ee8 0346     		mov	r3, r0
 2427 0eea 1946     		mov	r1, r3
 2428 0eec 2A4B     		ldr	r3, .L134
ARM GAS  /tmp/ccQpHQw3.s 			page 45


 2429 0eee 019A     		ldr	r2, [sp, #4]
 2430 0ef0 43F82210 		str	r1, [r3, r2, lsl #2]	@ float
 2431              		.loc 1 1293 0 discriminator 2
 2432 0ef4 284B     		ldr	r3, .L134
 2433 0ef6 019A     		ldr	r2, [sp, #4]
 2434 0ef8 53F82230 		ldr	r3, [r3, r2, lsl #2]	@ float
 2435 0efc 1846     		mov	r0, r3
 2436 0efe FFF7FEFF 		bl	log10f
 2437 0f02 0346     		mov	r3, r0
 2438 0f04 1846     		mov	r0, r3
 2439 0f06 2649     		ldr	r1, .L134+8
 2440 0f08 FFF7FEFF 		bl	__aeabi_fmul
 2441 0f0c 0346     		mov	r3, r0
 2442 0f0e 1846     		mov	r0, r3
 2443 0f10 2449     		ldr	r1, .L134+12
 2444 0f12 FFF7FEFF 		bl	__aeabi_fadd
 2445 0f16 0346     		mov	r3, r0
 2446 0f18 1846     		mov	r0, r3
 2447 0f1a 2349     		ldr	r1, .L134+16
 2448 0f1c FFF7FEFF 		bl	__aeabi_fmul
 2449 0f20 0346     		mov	r3, r0
 2450 0f22 1C46     		mov	r4, r3
 2451 0f24 214B     		ldr	r3, .L134+20
 2452 0f26 019A     		ldr	r2, [sp, #4]
 2453 0f28 53F82230 		ldr	r3, [r3, r2, lsl #2]	@ float
 2454 0f2c 1846     		mov	r0, r3
 2455 0f2e 2049     		ldr	r1, .L134+24
 2456 0f30 FFF7FEFF 		bl	__aeabi_fmul
 2457 0f34 0346     		mov	r3, r0
 2458 0f36 2046     		mov	r0, r4
 2459 0f38 1946     		mov	r1, r3
 2460 0f3a FFF7FEFF 		bl	__aeabi_fadd
 2461 0f3e 0346     		mov	r3, r0
 2462 0f40 1846     		mov	r0, r3
 2463 0f42 FFF7FEFF 		bl	__aeabi_f2uiz
 2464 0f46 0346     		mov	r3, r0
 2465 0f48 9AB2     		uxth	r2, r3
 2466 0f4a 019B     		ldr	r3, [sp, #4]
 2467 0f4c 5B00     		lsls	r3, r3, #1
 2468 0f4e 02A9     		add	r1, sp, #8
 2469 0f50 0B44     		add	r3, r3, r1
 2470 0f52 23F8082C 		strh	r2, [r3, #-8]	@ movhi
 2471              		.loc 1 1294 0 discriminator 2
 2472 0f56 019B     		ldr	r3, [sp, #4]
 2473 0f58 5B00     		lsls	r3, r3, #1
 2474 0f5a 02AA     		add	r2, sp, #8
 2475 0f5c 1344     		add	r3, r3, r2
 2476 0f5e 33F8083C 		ldrh	r3, [r3, #-8]
 2477 0f62 1846     		mov	r0, r3
 2478 0f64 FFF7FEFF 		bl	__aeabi_ui2f
 2479 0f68 0146     		mov	r1, r0
 2480 0f6a 104B     		ldr	r3, .L134+20
 2481 0f6c 019A     		ldr	r2, [sp, #4]
 2482 0f6e 43F82210 		str	r1, [r3, r2, lsl #2]	@ float
 2483              		.loc 1 1295 0 discriminator 2
 2484 0f72 094B     		ldr	r3, .L134
 2485 0f74 019A     		ldr	r2, [sp, #4]
ARM GAS  /tmp/ccQpHQw3.s 			page 46


 2486 0f76 4FF00001 		mov	r1, #0
 2487 0f7a 43F82210 		str	r1, [r3, r2, lsl #2]	@ float
 2488              		.loc 1 1288 0 discriminator 2
 2489 0f7e 019B     		ldr	r3, [sp, #4]
 2490 0f80 0133     		adds	r3, r3, #1
 2491 0f82 0193     		str	r3, [sp, #4]
 2492              	.L132:
 2493              		.loc 1 1288 0 is_stmt 0 discriminator 1
 2494 0f84 019B     		ldr	r3, [sp, #4]
 2495 0f86 002B     		cmp	r3, #0
 2496 0f88 9FDD     		ble	.L133
 2497              		.loc 1 1298 0 is_stmt 1
 2498 0f8a 6B46     		mov	r3, sp
 2499 0f8c 1846     		mov	r0, r3
 2500 0f8e FFF7FEFF 		bl	AudioLevel_Update
 2501              		.loc 1 1299 0
 2502 0f92 02B0     		add	sp, sp, #8
 2503              		@ sp needed
 2504 0f94 10BD     		pop	{r4, pc}
 2505              	.L135:
 2506 0f96 00BF     		.align	2
 2507              	.L134:
 2508 0f98 00000000 		.word	RMS_Ch
 2509 0f9c 00004844 		.word	1145569280
 2510 0fa0 00002041 		.word	1092616192
 2511 0fa4 2C87ED41 		.word	1106085676
 2512 0fa8 9A99993E 		.word	1050253722
 2513 0fac 00000000 		.word	DBNOISE_Value_Old_Ch
 2514 0fb0 3333333F 		.word	1060320051
 2515              		.cfi_endproc
 2516              	.LFE283:
 2517              		.size	SendAudioLevelData, .-SendAudioLevelData
 2518              		.align	2
 2519 0fb4 AFF30080 		.p2align 4,,15
 2519      AFF30080 
 2519      AFF30080 
 2520              		.global	BSP_AUDIO_IN_HalfTransfer_CallBack
 2521              		.thumb
 2522              		.thumb_func
 2523              		.type	BSP_AUDIO_IN_HalfTransfer_CallBack, %function
 2524              	BSP_AUDIO_IN_HalfTransfer_CallBack:
 2525              	.LFB284:
 2526              		.loc 1 1321 0
 2527              		.cfi_startproc
 2528              		@ args = 0, pretend = 0, frame = 0
 2529              		@ frame_needed = 0, uses_anonymous_args = 0
 2530 0fc0 08B5     		push	{r3, lr}
 2531              		.cfi_def_cfa_offset 8
 2532              		.cfi_offset 3, -8
 2533              		.cfi_offset 14, -4
 2534              		.loc 1 1328 0
 2535 0fc2 104B     		ldr	r3, .L139
 2536 0fc4 1B68     		ldr	r3, [r3]
 2537 0fc6 03F00803 		and	r3, r3, #8
 2538 0fca 002B     		cmp	r3, #0
 2539 0fcc 01D0     		beq	.L137
 2540              		.loc 1 1330 0
ARM GAS  /tmp/ccQpHQw3.s 			page 47


 2541 0fce FFF7FEFF 		bl	AudioProcess
 2542              	.L137:
 2543              		.loc 1 1339 0
 2544 0fd2 0C4B     		ldr	r3, .L139
 2545 0fd4 1B68     		ldr	r3, [r3]
 2546 0fd6 03F40053 		and	r3, r3, #8192
 2547 0fda 002B     		cmp	r3, #0
 2548 0fdc 0CBF     		ite	eq
 2549 0fde 0023     		moveq	r3, #0
 2550 0fe0 0123     		movne	r3, #1
 2551 0fe2 DAB2     		uxtb	r2, r3
 2552 0fe4 074B     		ldr	r3, .L139
 2553 0fe6 1B68     		ldr	r3, [r3]
 2554 0fe8 03F48043 		and	r3, r3, #16384
 2555 0fec 002B     		cmp	r3, #0
 2556 0fee 0CBF     		ite	eq
 2557 0ff0 0023     		moveq	r3, #0
 2558 0ff2 0123     		movne	r3, #1
 2559 0ff4 DBB2     		uxtb	r3, r3
 2560 0ff6 1340     		ands	r3, r3, r2
 2561 0ff8 DBB2     		uxtb	r3, r3
 2562 0ffa 002B     		cmp	r3, #0
 2563 0ffc 01D0     		beq	.L136
 2564              		.loc 1 1341 0
 2565 0ffe FFF7FEFF 		bl	AudioProcess_BV
 2566              	.L136:
 2567              		.loc 1 1344 0
 2568 1002 08BD     		pop	{r3, pc}
 2569              	.L140:
 2570              		.align	2
 2571              	.L139:
 2572 1004 00000000 		.word	ConnectionBleStatus
 2573              		.cfi_endproc
 2574              	.LFE284:
 2575              		.size	BSP_AUDIO_IN_HalfTransfer_CallBack, .-BSP_AUDIO_IN_HalfTransfer_CallBack
 2576              		.align	2
 2577 1008 AFF30080 		.p2align 4,,15
 2577      AFF30080 
 2578              		.global	BSP_AUDIO_IN_TransferComplete_CallBack
 2579              		.thumb
 2580              		.thumb_func
 2581              		.type	BSP_AUDIO_IN_TransferComplete_CallBack, %function
 2582              	BSP_AUDIO_IN_TransferComplete_CallBack:
 2583              	.LFB285:
 2584              		.loc 1 1352 0
 2585              		.cfi_startproc
 2586              		@ args = 0, pretend = 0, frame = 0
 2587              		@ frame_needed = 0, uses_anonymous_args = 0
 2588 1010 08B5     		push	{r3, lr}
 2589              		.cfi_def_cfa_offset 8
 2590              		.cfi_offset 3, -8
 2591              		.cfi_offset 14, -4
 2592              		.loc 1 1359 0
 2593 1012 104B     		ldr	r3, .L144
 2594 1014 1B68     		ldr	r3, [r3]
 2595 1016 03F00803 		and	r3, r3, #8
 2596 101a 002B     		cmp	r3, #0
ARM GAS  /tmp/ccQpHQw3.s 			page 48


 2597 101c 01D0     		beq	.L142
 2598              		.loc 1 1361 0
 2599 101e FFF7FEFF 		bl	AudioProcess
 2600              	.L142:
 2601              		.loc 1 1370 0
 2602 1022 0C4B     		ldr	r3, .L144
 2603 1024 1B68     		ldr	r3, [r3]
 2604 1026 03F40053 		and	r3, r3, #8192
 2605 102a 002B     		cmp	r3, #0
 2606 102c 0CBF     		ite	eq
 2607 102e 0023     		moveq	r3, #0
 2608 1030 0123     		movne	r3, #1
 2609 1032 DAB2     		uxtb	r2, r3
 2610 1034 074B     		ldr	r3, .L144
 2611 1036 1B68     		ldr	r3, [r3]
 2612 1038 03F48043 		and	r3, r3, #16384
 2613 103c 002B     		cmp	r3, #0
 2614 103e 0CBF     		ite	eq
 2615 1040 0023     		moveq	r3, #0
 2616 1042 0123     		movne	r3, #1
 2617 1044 DBB2     		uxtb	r3, r3
 2618 1046 1340     		ands	r3, r3, r2
 2619 1048 DBB2     		uxtb	r3, r3
 2620 104a 002B     		cmp	r3, #0
 2621 104c 01D0     		beq	.L141
 2622              		.loc 1 1372 0
 2623 104e FFF7FEFF 		bl	AudioProcess_BV
 2624              	.L141:
 2625              		.loc 1 1375 0
 2626 1052 08BD     		pop	{r3, pc}
 2627              	.L145:
 2628              		.align	2
 2629              	.L144:
 2630 1054 00000000 		.word	ConnectionBleStatus
 2631              		.cfi_endproc
 2632              	.LFE285:
 2633              		.size	BSP_AUDIO_IN_TransferComplete_CallBack, .-BSP_AUDIO_IN_TransferComplete_CallBack
 2634              		.section	.rodata
 2635 0085 000000   		.align	2
 2636              	.LC7:
 2637 0088 53656E64 		.ascii	"Sending: \000"
 2637      696E673A 
 2637      2000
 2638 0092 0000     		.align	2
 2639              	.LC8:
 2640 0094 43616C3D 		.ascii	"Cal=%d \000"
 2640      25642000 
 2641              		.align	2
 2642              	.LC9:
 2643 009c 42617474 		.ascii	"Battery Report \000"
 2643      65727920 
 2643      5265706F 
 2643      72742000 
 2644              		.global	__aeabi_fsub
 2645              		.align	2
 2646              	.LC10:
 2647 00ac 50726573 		.ascii	"Press=%ld \000"
ARM GAS  /tmp/ccQpHQw3.s 			page 49


 2647      733D256C 
 2647      642000
 2648 00b7 00       		.align	2
 2649              	.LC11:
 2650 00b8 48756D3D 		.ascii	"Hum=%d \000"
 2650      25642000 
 2651              		.align	2
 2652              	.LC12:
 2653 00c0 54656D70 		.ascii	"Temp=%d \000"
 2653      3D256420 
 2653      00
 2654 00c9 000000   		.align	2
 2655              	.LC13:
 2656 00cc 54656D70 		.ascii	"Temp2=%d \000"
 2656      323D2564 
 2656      2000
 2657 00d6 0000     		.align	2
 2658              	.LC14:
 2659 00d8 54656D70 		.ascii	"Temp1=%d \000"
 2659      313D2564 
 2659      2000
 2660 00e2 0000     		.align	2
 2661              	.LC15:
 2662 00e4 0D0A00   		.ascii	"\015\012\000"
 2663              		.text
 2664              		.align	2
 2665 1058 AFF30080 		.p2align 4,,15
 2665      AFF30080 
 2666              		.thumb
 2667              		.thumb_func
 2668              		.type	SendEnvironmentalData, %function
 2669              	SendEnvironmentalData:
 2670              	.LFB286:
 2671              		.loc 1 1383 0
 2672              		.cfi_startproc
 2673              		@ args = 0, pretend = 0, frame = 32
 2674              		@ frame_needed = 0, uses_anonymous_args = 0
 2675 1060 10B5     		push	{r4, lr}
 2676              		.cfi_def_cfa_offset 8
 2677              		.cfi_offset 4, -8
 2678              		.cfi_offset 14, -4
 2679 1062 88B0     		sub	sp, sp, #32
 2680              		.cfi_def_cfa_offset 40
 2681              		.loc 1 1387 0
 2682 1064 234B     		ldr	r3, .L161
 2683 1066 1B68     		ldr	r3, [r3]
 2684 1068 03F48063 		and	r3, r3, #1024
 2685 106c 002B     		cmp	r3, #0
 2686 106e 0ED0     		beq	.L147
 2687              		.loc 1 1388 0
 2688 1070 214B     		ldr	r3, .L161+4
 2689 1072 224A     		ldr	r2, .L161+8
 2690 1074 07CA     		ldmia	r2, {r0, r1, r2}
 2691 1076 03C3     		stmia	r3!, {r0, r1}
 2692 1078 1A80     		strh	r2, [r3]	@ movhi
 2693 107a 214B     		ldr	r3, .L161+12
 2694 107c 0922     		movs	r2, #9
ARM GAS  /tmp/ccQpHQw3.s 			page 50


 2695 107e 1A60     		str	r2, [r3]
 2696              		.loc 1 1389 0
 2697 1080 1F4B     		ldr	r3, .L161+12
 2698 1082 1B68     		ldr	r3, [r3]
 2699 1084 DBB2     		uxtb	r3, r3
 2700 1086 1C48     		ldr	r0, .L161+4
 2701 1088 1946     		mov	r1, r3
 2702 108a FFF7FEFF 		bl	Term_Update
 2703              	.L147:
 2704              		.loc 1 1396 0
 2705 108e 1D4B     		ldr	r3, .L161+16
 2706 1090 1B68     		ldr	r3, [r3]
 2707 1092 002B     		cmp	r3, #0
 2708 1094 3ED0     		beq	.L148
 2709              		.loc 1 1397 0
 2710 1096 1C4B     		ldr	r3, .L161+20
 2711 1098 1B78     		ldrb	r3, [r3]	@ zero_extendqisi2
 2712 109a 002B     		cmp	r3, #0
 2713 109c 01D0     		beq	.L149
 2714              		.loc 1 1397 0 is_stmt 0 discriminator 1
 2715 109e 6423     		movs	r3, #100
 2716 10a0 00E0     		b	.L150
 2717              	.L149:
 2718              		.loc 1 1397 0 discriminator 2
 2719 10a2 0023     		movs	r3, #0
 2720              	.L150:
 2721              		.loc 1 1397 0 discriminator 3
 2722 10a4 4FF48070 		mov	r0, #256
 2723 10a8 FF21     		movs	r1, #255
 2724 10aa 1A46     		mov	r2, r3
 2725 10ac FFF7FEFF 		bl	Config_Notify
 2726              		.loc 1 1399 0 is_stmt 1 discriminator 3
 2727 10b0 104B     		ldr	r3, .L161
 2728 10b2 1B68     		ldr	r3, [r3]
 2729 10b4 03F48063 		and	r3, r3, #1024
 2730 10b8 002B     		cmp	r3, #0
 2731 10ba 10D0     		beq	.L151
 2732              		.loc 1 1400 0
 2733 10bc 124B     		ldr	r3, .L161+20
 2734 10be 1B78     		ldrb	r3, [r3]	@ zero_extendqisi2
 2735 10c0 0D48     		ldr	r0, .L161+4
 2736 10c2 1249     		ldr	r1, .L161+24
 2737 10c4 1A46     		mov	r2, r3
 2738 10c6 FFF7FEFF 		bl	sprintf
 2739 10ca 0246     		mov	r2, r0
 2740 10cc 0C4B     		ldr	r3, .L161+12
 2741 10ce 1A60     		str	r2, [r3]
 2742              		.loc 1 1401 0
 2743 10d0 0B4B     		ldr	r3, .L161+12
 2744 10d2 1B68     		ldr	r3, [r3]
 2745 10d4 DBB2     		uxtb	r3, r3
 2746 10d6 0848     		ldr	r0, .L161+4
 2747 10d8 1946     		mov	r1, r3
 2748 10da FFF7FEFF 		bl	Term_Update
 2749              	.L151:
 2750              		.loc 1 1406 0
 2751 10de 094B     		ldr	r3, .L161+16
ARM GAS  /tmp/ccQpHQw3.s 			page 51


 2752 10e0 0022     		movs	r2, #0
 2753 10e2 1A60     		str	r2, [r3]
 2754              		.loc 1 1409 0
 2755 10e4 084B     		ldr	r3, .L161+20
 2756 10e6 1B78     		ldrb	r3, [r3]	@ zero_extendqisi2
 2757 10e8 002B     		cmp	r3, #0
 2758 10ea 11D0     		beq	.L152
 2759              		.loc 1 1410 0
 2760 10ec FFF7FEFF 		bl	LedOnTargetPlatform
 2761 10f0 10E0     		b	.L148
 2762              	.L162:
 2763 10f2 00BF     		.align	2
 2764              	.L161:
 2765 10f4 00000000 		.word	ConnectionBleStatus
 2766 10f8 00000000 		.word	BufferToWrite
 2767 10fc 88000000 		.word	.LC7
 2768 1100 00000000 		.word	BytesToWrite
 2769 1104 00000000 		.word	FirstConnectionConfig
 2770 1108 36000000 		.word	isCal
 2771 110c 94000000 		.word	.LC8
 2772              	.L152:
 2773              		.loc 1 1412 0
 2774 1110 FFF7FEFF 		bl	LedOffTargetPlatform
 2775              	.L148:
 2776              		.loc 1 1417 0
 2777 1114 A14B     		ldr	r3, .L163
 2778 1116 1B68     		ldr	r3, [r3]
 2779 1118 03F40043 		and	r3, r3, #32768
 2780 111c 002B     		cmp	r3, #0
 2781 111e 17D0     		beq	.L153
 2782              		.loc 1 1418 0
 2783 1120 FFF7FEFF 		bl	GG_Update
 2784              		.loc 1 1420 0
 2785 1124 9D4B     		ldr	r3, .L163
 2786 1126 1B68     		ldr	r3, [r3]
 2787 1128 03F48063 		and	r3, r3, #1024
 2788 112c 002B     		cmp	r3, #0
 2789 112e 0FD0     		beq	.L153
 2790              		.loc 1 1421 0
 2791 1130 9B4A     		ldr	r2, .L163+4
 2792 1132 9C4B     		ldr	r3, .L163+8
 2793 1134 1446     		mov	r4, r2
 2794 1136 0FCB     		ldmia	r3, {r0, r1, r2, r3}
 2795 1138 84E80F00 		stmia	r4, {r0, r1, r2, r3}
 2796 113c 9A4B     		ldr	r3, .L163+12
 2797 113e 0F22     		movs	r2, #15
 2798 1140 1A60     		str	r2, [r3]
 2799              		.loc 1 1422 0
 2800 1142 994B     		ldr	r3, .L163+12
 2801 1144 1B68     		ldr	r3, [r3]
 2802 1146 DBB2     		uxtb	r3, r3
 2803 1148 9548     		ldr	r0, .L163+4
 2804 114a 1946     		mov	r1, r3
 2805 114c FFF7FEFF 		bl	Term_Update
 2806              	.L153:
 2807              		.loc 1 1431 0
 2808 1150 924B     		ldr	r3, .L163
ARM GAS  /tmp/ccQpHQw3.s 			page 52


 2809 1152 1B68     		ldr	r3, [r3]
 2810 1154 03F00103 		and	r3, r3, #1
 2811 1158 002B     		cmp	r3, #0
 2812 115a 00F0C381 		beq	.L154
 2813              	.LBB26:
 2814              		.loc 1 1433 0
 2815 115e 0023     		movs	r3, #0
 2816 1160 0793     		str	r3, [sp, #28]
 2817              		.loc 1 1434 0
 2818 1162 0023     		movs	r3, #0
 2819 1164 ADF81A30 		strh	r3, [sp, #26]	@ movhi
 2820              		.loc 1 1435 0
 2821 1168 0023     		movs	r3, #0
 2822 116a ADF81830 		strh	r3, [sp, #24]	@ movhi
 2823 116e 0023     		movs	r3, #0
 2824 1170 ADF81630 		strh	r3, [sp, #22]	@ movhi
 2825              		.loc 1 1438 0
 2826 1174 8D4B     		ldr	r3, .L163+16
 2827 1176 1B69     		ldr	r3, [r3, #16]
 2828 1178 002B     		cmp	r3, #0
 2829 117a 47D0     		beq	.L155
 2830              		.loc 1 1439 0
 2831 117c 8B4B     		ldr	r3, .L163+16
 2832 117e 1A69     		ldr	r2, [r3, #16]
 2833 1180 0DF10B03 		add	r3, sp, #11
 2834 1184 1046     		mov	r0, r2
 2835 1186 1946     		mov	r1, r3
 2836 1188 FFF7FEFF 		bl	BSP_PRESSURE_IsInitialized
 2837 118c 0346     		mov	r3, r0
 2838 118e 002B     		cmp	r3, #0
 2839 1190 3CD1     		bne	.L155
 2840              		.loc 1 1440 0
 2841 1192 864B     		ldr	r3, .L163+16
 2842 1194 1A69     		ldr	r2, [r3, #16]
 2843 1196 01AB     		add	r3, sp, #4
 2844 1198 1046     		mov	r0, r2
 2845 119a 1946     		mov	r1, r3
 2846 119c FFF7FEFF 		bl	BSP_PRESSURE_Get_Press
 2847              		.loc 1 1441 0
 2848 11a0 019B     		ldr	r3, [sp, #4]	@ float
 2849 11a2 1846     		mov	r0, r3
 2850 11a4 FFF7FEFF 		bl	__aeabi_f2iz
 2851 11a8 0346     		mov	r3, r0
 2852 11aa 0493     		str	r3, [sp, #16]
 2853 11ac 019C     		ldr	r4, [sp, #4]	@ float
 2854 11ae 0498     		ldr	r0, [sp, #16]
 2855 11b0 FFF7FEFF 		bl	__aeabi_i2f
 2856 11b4 0346     		mov	r3, r0
 2857 11b6 2046     		mov	r0, r4
 2858 11b8 1946     		mov	r1, r3
 2859 11ba FFF7FEFF 		bl	__aeabi_fsub
 2860 11be 0346     		mov	r3, r0
 2861 11c0 1846     		mov	r0, r3
 2862 11c2 7B49     		ldr	r1, .L163+20
 2863 11c4 FFF7FEFF 		bl	__aeabi_fmul
 2864 11c8 0346     		mov	r3, r0
 2865 11ca 1846     		mov	r0, r3
ARM GAS  /tmp/ccQpHQw3.s 			page 53


 2866 11cc FFF7FEFF 		bl	__aeabi_f2iz
 2867 11d0 0346     		mov	r3, r0
 2868 11d2 0393     		str	r3, [sp, #12]
 2869              		.loc 1 1442 0
 2870 11d4 049B     		ldr	r3, [sp, #16]
 2871 11d6 6422     		movs	r2, #100
 2872 11d8 02FB03F2 		mul	r2, r2, r3
 2873 11dc 039B     		ldr	r3, [sp, #12]
 2874 11de 1344     		add	r3, r3, r2
 2875 11e0 0793     		str	r3, [sp, #28]
 2876              		.loc 1 1444 0
 2877 11e2 6E4B     		ldr	r3, .L163
 2878 11e4 1B68     		ldr	r3, [r3]
 2879 11e6 03F48063 		and	r3, r3, #1024
 2880 11ea 002B     		cmp	r3, #0
 2881 11ec 0ED0     		beq	.L155
 2882              		.loc 1 1445 0
 2883 11ee 6C48     		ldr	r0, .L163+4
 2884 11f0 7049     		ldr	r1, .L163+24
 2885 11f2 079A     		ldr	r2, [sp, #28]
 2886 11f4 FFF7FEFF 		bl	sprintf
 2887 11f8 0246     		mov	r2, r0
 2888 11fa 6B4B     		ldr	r3, .L163+12
 2889 11fc 1A60     		str	r2, [r3]
 2890              		.loc 1 1446 0
 2891 11fe 6A4B     		ldr	r3, .L163+12
 2892 1200 1B68     		ldr	r3, [r3]
 2893 1202 DBB2     		uxtb	r3, r3
 2894 1204 6648     		ldr	r0, .L163+4
 2895 1206 1946     		mov	r1, r3
 2896 1208 FFF7FEFF 		bl	Term_Update
 2897              	.L155:
 2898              		.loc 1 1454 0
 2899 120c 674B     		ldr	r3, .L163+16
 2900 120e 5B69     		ldr	r3, [r3, #20]
 2901 1210 002B     		cmp	r3, #0
 2902 1212 4ED0     		beq	.L156
 2903              		.loc 1 1455 0
 2904 1214 654B     		ldr	r3, .L163+16
 2905 1216 5A69     		ldr	r2, [r3, #20]
 2906 1218 0DF10B03 		add	r3, sp, #11
 2907 121c 1046     		mov	r0, r2
 2908 121e 1946     		mov	r1, r3
 2909 1220 FFF7FEFF 		bl	BSP_HUMIDITY_IsInitialized
 2910 1224 0346     		mov	r3, r0
 2911 1226 002B     		cmp	r3, #0
 2912 1228 43D1     		bne	.L156
 2913              		.loc 1 1456 0
 2914 122a 604B     		ldr	r3, .L163+16
 2915 122c 5A69     		ldr	r2, [r3, #20]
 2916 122e 01AB     		add	r3, sp, #4
 2917 1230 1046     		mov	r0, r2
 2918 1232 1946     		mov	r1, r3
 2919 1234 FFF7FEFF 		bl	BSP_HUMIDITY_Get_Hum
 2920              		.loc 1 1457 0
 2921 1238 019B     		ldr	r3, [sp, #4]	@ float
 2922 123a 1846     		mov	r0, r3
ARM GAS  /tmp/ccQpHQw3.s 			page 54


 2923 123c FFF7FEFF 		bl	__aeabi_f2iz
 2924 1240 0346     		mov	r3, r0
 2925 1242 0493     		str	r3, [sp, #16]
 2926 1244 019C     		ldr	r4, [sp, #4]	@ float
 2927 1246 0498     		ldr	r0, [sp, #16]
 2928 1248 FFF7FEFF 		bl	__aeabi_i2f
 2929 124c 0346     		mov	r3, r0
 2930 124e 2046     		mov	r0, r4
 2931 1250 1946     		mov	r1, r3
 2932 1252 FFF7FEFF 		bl	__aeabi_fsub
 2933 1256 0346     		mov	r3, r0
 2934 1258 1846     		mov	r0, r3
 2935 125a 5749     		ldr	r1, .L163+28
 2936 125c FFF7FEFF 		bl	__aeabi_fmul
 2937 1260 0346     		mov	r3, r0
 2938 1262 1846     		mov	r0, r3
 2939 1264 FFF7FEFF 		bl	__aeabi_f2iz
 2940 1268 0346     		mov	r3, r0
 2941 126a 0393     		str	r3, [sp, #12]
 2942              		.loc 1 1458 0
 2943 126c 049B     		ldr	r3, [sp, #16]
 2944 126e 9BB2     		uxth	r3, r3
 2945 1270 1A46     		mov	r2, r3	@ movhi
 2946 1272 9200     		lsls	r2, r2, #2
 2947 1274 1344     		add	r3, r3, r2
 2948 1276 5B00     		lsls	r3, r3, #1
 2949 1278 9AB2     		uxth	r2, r3
 2950 127a 039B     		ldr	r3, [sp, #12]
 2951 127c 9BB2     		uxth	r3, r3
 2952 127e 1344     		add	r3, r3, r2
 2953 1280 ADF81A30 		strh	r3, [sp, #26]	@ movhi
 2954              		.loc 1 1460 0
 2955 1284 454B     		ldr	r3, .L163
 2956 1286 1B68     		ldr	r3, [r3]
 2957 1288 03F48063 		and	r3, r3, #1024
 2958 128c 002B     		cmp	r3, #0
 2959 128e 10D0     		beq	.L156
 2960              		.loc 1 1461 0
 2961 1290 BDF81A30 		ldrh	r3, [sp, #26]
 2962 1294 4248     		ldr	r0, .L163+4
 2963 1296 4949     		ldr	r1, .L163+32
 2964 1298 1A46     		mov	r2, r3
 2965 129a FFF7FEFF 		bl	sprintf
 2966 129e 0246     		mov	r2, r0
 2967 12a0 414B     		ldr	r3, .L163+12
 2968 12a2 1A60     		str	r2, [r3]
 2969              		.loc 1 1462 0
 2970 12a4 404B     		ldr	r3, .L163+12
 2971 12a6 1B68     		ldr	r3, [r3]
 2972 12a8 DBB2     		uxtb	r3, r3
 2973 12aa 3D48     		ldr	r0, .L163+4
 2974 12ac 1946     		mov	r1, r3
 2975 12ae FFF7FEFF 		bl	Term_Update
 2976              	.L156:
 2977              		.loc 1 1470 0
 2978 12b2 3E4B     		ldr	r3, .L163+16
 2979 12b4 5B68     		ldr	r3, [r3, #4]
ARM GAS  /tmp/ccQpHQw3.s 			page 55


 2980 12b6 022B     		cmp	r3, #2
 2981 12b8 40F0B780 		bne	.L157
 2982              		.loc 1 1471 0
 2983 12bc 3B4B     		ldr	r3, .L163+16
 2984 12be 9A68     		ldr	r2, [r3, #8]
 2985 12c0 0DF10B03 		add	r3, sp, #11
 2986 12c4 1046     		mov	r0, r2
 2987 12c6 1946     		mov	r1, r3
 2988 12c8 FFF7FEFF 		bl	BSP_TEMPERATURE_IsInitialized
 2989 12cc 0346     		mov	r3, r0
 2990 12ce 002B     		cmp	r3, #0
 2991 12d0 44D1     		bne	.L158
 2992              		.loc 1 1472 0
 2993 12d2 364B     		ldr	r3, .L163+16
 2994 12d4 9A68     		ldr	r2, [r3, #8]
 2995 12d6 01AB     		add	r3, sp, #4
 2996 12d8 1046     		mov	r0, r2
 2997 12da 1946     		mov	r1, r3
 2998 12dc FFF7FEFF 		bl	BSP_TEMPERATURE_Get_Temp
 2999              		.loc 1 1473 0
 3000 12e0 019B     		ldr	r3, [sp, #4]	@ float
 3001 12e2 1846     		mov	r0, r3
 3002 12e4 FFF7FEFF 		bl	__aeabi_f2iz
 3003 12e8 0346     		mov	r3, r0
 3004 12ea 0493     		str	r3, [sp, #16]
 3005 12ec 019C     		ldr	r4, [sp, #4]	@ float
 3006 12ee 0498     		ldr	r0, [sp, #16]
 3007 12f0 FFF7FEFF 		bl	__aeabi_i2f
 3008 12f4 0346     		mov	r3, r0
 3009 12f6 2046     		mov	r0, r4
 3010 12f8 1946     		mov	r1, r3
 3011 12fa FFF7FEFF 		bl	__aeabi_fsub
 3012 12fe 0346     		mov	r3, r0
 3013 1300 1846     		mov	r0, r3
 3014 1302 2D49     		ldr	r1, .L163+28
 3015 1304 FFF7FEFF 		bl	__aeabi_fmul
 3016 1308 0346     		mov	r3, r0
 3017 130a 1846     		mov	r0, r3
 3018 130c FFF7FEFF 		bl	__aeabi_f2iz
 3019 1310 0346     		mov	r3, r0
 3020 1312 0393     		str	r3, [sp, #12]
 3021              		.loc 1 1474 0
 3022 1314 049B     		ldr	r3, [sp, #16]
 3023 1316 9BB2     		uxth	r3, r3
 3024 1318 1A46     		mov	r2, r3	@ movhi
 3025 131a 9200     		lsls	r2, r2, #2
 3026 131c 1344     		add	r3, r3, r2
 3027 131e 5B00     		lsls	r3, r3, #1
 3028 1320 9AB2     		uxth	r2, r3
 3029 1322 039B     		ldr	r3, [sp, #12]
 3030 1324 9BB2     		uxth	r3, r3
 3031 1326 1344     		add	r3, r3, r2
 3032 1328 9BB2     		uxth	r3, r3
 3033 132a ADF81630 		strh	r3, [sp, #22]	@ movhi
 3034              		.loc 1 1476 0
 3035 132e 1B4B     		ldr	r3, .L163
 3036 1330 1B68     		ldr	r3, [r3]
ARM GAS  /tmp/ccQpHQw3.s 			page 56


 3037 1332 03F48063 		and	r3, r3, #1024
 3038 1336 002B     		cmp	r3, #0
 3039 1338 10D0     		beq	.L158
 3040              		.loc 1 1477 0
 3041 133a BDF91630 		ldrsh	r3, [sp, #22]
 3042 133e 1848     		ldr	r0, .L163+4
 3043 1340 1F49     		ldr	r1, .L163+36
 3044 1342 1A46     		mov	r2, r3
 3045 1344 FFF7FEFF 		bl	sprintf
 3046 1348 0246     		mov	r2, r0
 3047 134a 174B     		ldr	r3, .L163+12
 3048 134c 1A60     		str	r2, [r3]
 3049              		.loc 1 1478 0
 3050 134e 164B     		ldr	r3, .L163+12
 3051 1350 1B68     		ldr	r3, [r3]
 3052 1352 DBB2     		uxtb	r3, r3
 3053 1354 1248     		ldr	r0, .L163+4
 3054 1356 1946     		mov	r1, r3
 3055 1358 FFF7FEFF 		bl	Term_Update
 3056              	.L158:
 3057              		.loc 1 1485 0
 3058 135c 134B     		ldr	r3, .L163+16
 3059 135e DA68     		ldr	r2, [r3, #12]
 3060 1360 0DF10B03 		add	r3, sp, #11
 3061 1364 1046     		mov	r0, r2
 3062 1366 1946     		mov	r1, r3
 3063 1368 FFF7FEFF 		bl	BSP_TEMPERATURE_IsInitialized
 3064 136c 0346     		mov	r3, r0
 3065 136e 002B     		cmp	r3, #0
 3066 1370 40F0AF80 		bne	.L159
 3067              		.loc 1 1486 0
 3068 1374 0D4B     		ldr	r3, .L163+16
 3069 1376 DA68     		ldr	r2, [r3, #12]
 3070 1378 01AB     		add	r3, sp, #4
 3071 137a 1046     		mov	r0, r2
 3072 137c 1946     		mov	r1, r3
 3073 137e FFF7FEFF 		bl	BSP_TEMPERATURE_Get_Temp
 3074              		.loc 1 1487 0
 3075 1382 019B     		ldr	r3, [sp, #4]	@ float
 3076 1384 1846     		mov	r0, r3
 3077 1386 FFF7FEFF 		bl	__aeabi_f2iz
 3078 138a 0346     		mov	r3, r0
 3079 138c 0493     		str	r3, [sp, #16]
 3080 138e 019C     		ldr	r4, [sp, #4]	@ float
 3081 1390 0498     		ldr	r0, [sp, #16]
 3082 1392 FFF7FEFF 		bl	__aeabi_i2f
 3083 1396 0346     		mov	r3, r0
 3084 1398 2046     		mov	r0, r4
 3085 139a 13E0     		b	.L164
 3086              	.L165:
 3087              		.align	2
 3088              	.L163:
 3089 139c 00000000 		.word	ConnectionBleStatus
 3090 13a0 00000000 		.word	BufferToWrite
 3091 13a4 9C000000 		.word	.LC9
 3092 13a8 00000000 		.word	BytesToWrite
 3093 13ac 00000000 		.word	TargetBoardFeatures
ARM GAS  /tmp/ccQpHQw3.s 			page 57


 3094 13b0 0000C842 		.word	1120403456
 3095 13b4 AC000000 		.word	.LC10
 3096 13b8 00002041 		.word	1092616192
 3097 13bc B8000000 		.word	.LC11
 3098 13c0 C0000000 		.word	.LC12
 3099              	.L164:
 3100 13c4 1946     		mov	r1, r3
 3101 13c6 FFF7FEFF 		bl	__aeabi_fsub
 3102 13ca 0346     		mov	r3, r0
 3103 13cc 1846     		mov	r0, r3
 3104 13ce 5249     		ldr	r1, .L166
 3105 13d0 FFF7FEFF 		bl	__aeabi_fmul
 3106 13d4 0346     		mov	r3, r0
 3107 13d6 1846     		mov	r0, r3
 3108 13d8 FFF7FEFF 		bl	__aeabi_f2iz
 3109 13dc 0346     		mov	r3, r0
 3110 13de 0393     		str	r3, [sp, #12]
 3111              		.loc 1 1488 0
 3112 13e0 049B     		ldr	r3, [sp, #16]
 3113 13e2 9BB2     		uxth	r3, r3
 3114 13e4 1A46     		mov	r2, r3	@ movhi
 3115 13e6 9200     		lsls	r2, r2, #2
 3116 13e8 1344     		add	r3, r3, r2
 3117 13ea 5B00     		lsls	r3, r3, #1
 3118 13ec 9AB2     		uxth	r2, r3
 3119 13ee 039B     		ldr	r3, [sp, #12]
 3120 13f0 9BB2     		uxth	r3, r3
 3121 13f2 1344     		add	r3, r3, r2
 3122 13f4 9BB2     		uxth	r3, r3
 3123 13f6 ADF81830 		strh	r3, [sp, #24]	@ movhi
 3124              		.loc 1 1490 0
 3125 13fa 484B     		ldr	r3, .L166+4
 3126 13fc 1B68     		ldr	r3, [r3]
 3127 13fe 03F48063 		and	r3, r3, #1024
 3128 1402 002B     		cmp	r3, #0
 3129 1404 65D0     		beq	.L159
 3130              		.loc 1 1491 0
 3131 1406 BDF91830 		ldrsh	r3, [sp, #24]
 3132 140a 4548     		ldr	r0, .L166+8
 3133 140c 4549     		ldr	r1, .L166+12
 3134 140e 1A46     		mov	r2, r3
 3135 1410 FFF7FEFF 		bl	sprintf
 3136 1414 0246     		mov	r2, r0
 3137 1416 444B     		ldr	r3, .L166+16
 3138 1418 1A60     		str	r2, [r3]
 3139              		.loc 1 1492 0
 3140 141a 434B     		ldr	r3, .L166+16
 3141 141c 1B68     		ldr	r3, [r3]
 3142 141e DBB2     		uxtb	r3, r3
 3143 1420 3F48     		ldr	r0, .L166+8
 3144 1422 1946     		mov	r1, r3
 3145 1424 FFF7FEFF 		bl	Term_Update
 3146 1428 53E0     		b	.L159
 3147              	.L157:
 3148              		.loc 1 1498 0
 3149 142a 404B     		ldr	r3, .L166+20
 3150 142c 5B68     		ldr	r3, [r3, #4]
ARM GAS  /tmp/ccQpHQw3.s 			page 58


 3151 142e 012B     		cmp	r3, #1
 3152 1430 4FD1     		bne	.L159
 3153              		.loc 1 1499 0
 3154 1432 3E4B     		ldr	r3, .L166+20
 3155 1434 9A68     		ldr	r2, [r3, #8]
 3156 1436 0DF10B03 		add	r3, sp, #11
 3157 143a 1046     		mov	r0, r2
 3158 143c 1946     		mov	r1, r3
 3159 143e FFF7FEFF 		bl	BSP_TEMPERATURE_IsInitialized
 3160 1442 0346     		mov	r3, r0
 3161 1444 002B     		cmp	r3, #0
 3162 1446 44D1     		bne	.L159
 3163              		.loc 1 1500 0
 3164 1448 384B     		ldr	r3, .L166+20
 3165 144a 9A68     		ldr	r2, [r3, #8]
 3166 144c 01AB     		add	r3, sp, #4
 3167 144e 1046     		mov	r0, r2
 3168 1450 1946     		mov	r1, r3
 3169 1452 FFF7FEFF 		bl	BSP_TEMPERATURE_Get_Temp
 3170              		.loc 1 1501 0
 3171 1456 019B     		ldr	r3, [sp, #4]	@ float
 3172 1458 1846     		mov	r0, r3
 3173 145a FFF7FEFF 		bl	__aeabi_f2iz
 3174 145e 0346     		mov	r3, r0
 3175 1460 0493     		str	r3, [sp, #16]
 3176 1462 019C     		ldr	r4, [sp, #4]	@ float
 3177 1464 0498     		ldr	r0, [sp, #16]
 3178 1466 FFF7FEFF 		bl	__aeabi_i2f
 3179 146a 0346     		mov	r3, r0
 3180 146c 2046     		mov	r0, r4
 3181 146e 1946     		mov	r1, r3
 3182 1470 FFF7FEFF 		bl	__aeabi_fsub
 3183 1474 0346     		mov	r3, r0
 3184 1476 1846     		mov	r0, r3
 3185 1478 2749     		ldr	r1, .L166
 3186 147a FFF7FEFF 		bl	__aeabi_fmul
 3187 147e 0346     		mov	r3, r0
 3188 1480 1846     		mov	r0, r3
 3189 1482 FFF7FEFF 		bl	__aeabi_f2iz
 3190 1486 0346     		mov	r3, r0
 3191 1488 0393     		str	r3, [sp, #12]
 3192              		.loc 1 1502 0
 3193 148a 049B     		ldr	r3, [sp, #16]
 3194 148c 9BB2     		uxth	r3, r3
 3195 148e 1A46     		mov	r2, r3	@ movhi
 3196 1490 9200     		lsls	r2, r2, #2
 3197 1492 1344     		add	r3, r3, r2
 3198 1494 5B00     		lsls	r3, r3, #1
 3199 1496 9AB2     		uxth	r2, r3
 3200 1498 039B     		ldr	r3, [sp, #12]
 3201 149a 9BB2     		uxth	r3, r3
 3202 149c 1344     		add	r3, r3, r2
 3203 149e 9BB2     		uxth	r3, r3
 3204 14a0 ADF81630 		strh	r3, [sp, #22]	@ movhi
 3205              		.loc 1 1504 0
 3206 14a4 1D4B     		ldr	r3, .L166+4
 3207 14a6 1B68     		ldr	r3, [r3]
ARM GAS  /tmp/ccQpHQw3.s 			page 59


 3208 14a8 03F48063 		and	r3, r3, #1024
 3209 14ac 002B     		cmp	r3, #0
 3210 14ae 10D0     		beq	.L159
 3211              		.loc 1 1505 0
 3212 14b0 BDF91630 		ldrsh	r3, [sp, #22]
 3213 14b4 1A48     		ldr	r0, .L166+8
 3214 14b6 1E49     		ldr	r1, .L166+24
 3215 14b8 1A46     		mov	r2, r3
 3216 14ba FFF7FEFF 		bl	sprintf
 3217 14be 0246     		mov	r2, r0
 3218 14c0 194B     		ldr	r3, .L166+16
 3219 14c2 1A60     		str	r2, [r3]
 3220              		.loc 1 1506 0
 3221 14c4 184B     		ldr	r3, .L166+16
 3222 14c6 1B68     		ldr	r3, [r3]
 3223 14c8 DBB2     		uxtb	r3, r3
 3224 14ca 1548     		ldr	r0, .L166+8
 3225 14cc 1946     		mov	r1, r3
 3226 14ce FFF7FEFF 		bl	Term_Update
 3227              	.L159:
 3228              		.loc 1 1513 0 discriminator 2
 3229 14d2 BDF81A10 		ldrh	r1, [sp, #26]
 3230 14d6 BDF91820 		ldrsh	r2, [sp, #24]
 3231 14da BDF91630 		ldrsh	r3, [sp, #22]
 3232 14de 0798     		ldr	r0, [sp, #28]
 3233 14e0 FFF7FEFF 		bl	Environmental_Update
 3234              	.L154:
 3235              	.LBE26:
 3236              		.loc 1 1517 0
 3237 14e4 0D4B     		ldr	r3, .L166+4
 3238 14e6 1B68     		ldr	r3, [r3]
 3239 14e8 03F48063 		and	r3, r3, #1024
 3240 14ec 002B     		cmp	r3, #0
 3241 14ee 11D0     		beq	.L146
 3242              		.loc 1 1518 0
 3243 14f0 0B4B     		ldr	r3, .L166+8
 3244 14f2 104A     		ldr	r2, .L166+28
 3245 14f4 1268     		ldr	r2, [r2]
 3246 14f6 1146     		mov	r1, r2	@ movhi
 3247 14f8 1980     		strh	r1, [r3]	@ movhi
 3248 14fa 0233     		adds	r3, r3, #2
 3249 14fc 120C     		lsrs	r2, r2, #16
 3250 14fe 1A70     		strb	r2, [r3]
 3251 1500 094B     		ldr	r3, .L166+16
 3252 1502 0222     		movs	r2, #2
 3253 1504 1A60     		str	r2, [r3]
 3254              		.loc 1 1519 0
 3255 1506 084B     		ldr	r3, .L166+16
 3256 1508 1B68     		ldr	r3, [r3]
 3257 150a DBB2     		uxtb	r3, r3
 3258 150c 0448     		ldr	r0, .L166+8
 3259 150e 1946     		mov	r1, r3
 3260 1510 FFF7FEFF 		bl	Term_Update
 3261              	.L146:
 3262              		.loc 1 1524 0
 3263 1514 08B0     		add	sp, sp, #32
 3264              		@ sp needed
ARM GAS  /tmp/ccQpHQw3.s 			page 60


 3265 1516 10BD     		pop	{r4, pc}
 3266              	.L167:
 3267              		.align	2
 3268              	.L166:
 3269 1518 00002041 		.word	1092616192
 3270 151c 00000000 		.word	ConnectionBleStatus
 3271 1520 00000000 		.word	BufferToWrite
 3272 1524 CC000000 		.word	.LC13
 3273 1528 00000000 		.word	BytesToWrite
 3274 152c 00000000 		.word	TargetBoardFeatures
 3275 1530 D8000000 		.word	.LC14
 3276 1534 E4000000 		.word	.LC15
 3277              		.cfi_endproc
 3278              	.LFE286:
 3279              		.size	SendEnvironmentalData, .-SendEnvironmentalData
 3280              		.align	2
 3281 1538 AFF30080 		.p2align 4,,15
 3281      AFF30080 
 3282              		.thumb
 3283              		.thumb_func
 3284              		.type	InitTimers, %function
 3285              	InitTimers:
 3286              	.LFB287:
 3287              		.loc 1 1534 0
 3288              		.cfi_startproc
 3289              		@ args = 0, pretend = 0, frame = 32
 3290              		@ frame_needed = 0, uses_anonymous_args = 0
 3291 1540 00B5     		push	{lr}
 3292              		.cfi_def_cfa_offset 4
 3293              		.cfi_offset 14, -4
 3294 1542 89B0     		sub	sp, sp, #36
 3295              		.cfi_def_cfa_offset 40
 3296              		.loc 1 1541 0
 3297 1544 474B     		ldr	r3, .L175
 3298 1546 1A68     		ldr	r2, [r3]
 3299 1548 474B     		ldr	r3, .L175+4
 3300 154a A3FB0213 		umull	r1, r3, r3, r2
 3301 154e DB09     		lsrs	r3, r3, #7
 3302 1550 013B     		subs	r3, r3, #1
 3303 1552 0793     		str	r3, [sp, #28]
 3304              		.loc 1 1544 0
 3305 1554 454B     		ldr	r3, .L175+8
 3306 1556 464A     		ldr	r2, .L175+12
 3307 1558 1A60     		str	r2, [r3]
 3308              		.loc 1 1546 0
 3309 155a 444B     		ldr	r3, .L175+8
 3310 155c 40F2E732 		movw	r2, #999
 3311 1560 DA60     		str	r2, [r3, #12]
 3312              		.loc 1 1547 0
 3313 1562 424B     		ldr	r3, .L175+8
 3314 1564 079A     		ldr	r2, [sp, #28]
 3315 1566 5A60     		str	r2, [r3, #4]
 3316              		.loc 1 1548 0
 3317 1568 404B     		ldr	r3, .L175+8
 3318 156a 0022     		movs	r2, #0
 3319 156c 1A61     		str	r2, [r3, #16]
 3320              		.loc 1 1549 0
ARM GAS  /tmp/ccQpHQw3.s 			page 61


 3321 156e 3F4B     		ldr	r3, .L175+8
 3322 1570 0022     		movs	r2, #0
 3323 1572 9A60     		str	r2, [r3, #8]
 3324              		.loc 1 1550 0
 3325 1574 3D48     		ldr	r0, .L175+8
 3326 1576 FFF7FEFF 		bl	HAL_TIM_Base_Init
 3327              		.loc 1 1555 0
 3328 157a 3A4B     		ldr	r3, .L175
 3329 157c 1A68     		ldr	r2, [r3]
 3330 157e 3D4B     		ldr	r3, .L175+16
 3331 1580 A3FB0213 		umull	r1, r3, r3, r2
 3332 1584 5B0B     		lsrs	r3, r3, #13
 3333 1586 013B     		subs	r3, r3, #1
 3334 1588 0793     		str	r3, [sp, #28]
 3335              		.loc 1 1557 0
 3336 158a 3B4B     		ldr	r3, .L175+20
 3337 158c 3B4A     		ldr	r2, .L175+24
 3338 158e 1A60     		str	r2, [r3]
 3339              		.loc 1 1558 0
 3340 1590 394B     		ldr	r3, .L175+20
 3341 1592 4FF6FF72 		movw	r2, #65535
 3342 1596 DA60     		str	r2, [r3, #12]
 3343              		.loc 1 1559 0
 3344 1598 374B     		ldr	r3, .L175+20
 3345 159a 079A     		ldr	r2, [sp, #28]
 3346 159c 5A60     		str	r2, [r3, #4]
 3347              		.loc 1 1560 0
 3348 159e 364B     		ldr	r3, .L175+20
 3349 15a0 0022     		movs	r2, #0
 3350 15a2 1A61     		str	r2, [r3, #16]
 3351              		.loc 1 1561 0
 3352 15a4 344B     		ldr	r3, .L175+20
 3353 15a6 0022     		movs	r2, #0
 3354 15a8 9A60     		str	r2, [r3, #8]
 3355              		.loc 1 1562 0
 3356 15aa 3348     		ldr	r0, .L175+20
 3357 15ac FFF7FEFF 		bl	HAL_TIM_OC_Init
 3358 15b0 0346     		mov	r3, r0
 3359 15b2 002B     		cmp	r3, #0
 3360 15b4 01D0     		beq	.L169
 3361              		.loc 1 1565 0
 3362 15b6 FFF7FEFF 		bl	Error_Handler
 3363              	.L169:
 3364              		.loc 1 1570 0
 3365 15ba 3023     		movs	r3, #48
 3366 15bc 0093     		str	r3, [sp]
 3367              		.loc 1 1571 0
 3368 15be 0223     		movs	r3, #2
 3369 15c0 0293     		str	r3, [sp, #8]
 3370              		.loc 1 1575 0
 3371 15c2 6423     		movs	r3, #100
 3372 15c4 0193     		str	r3, [sp, #4]
 3373              		.loc 1 1576 0
 3374 15c6 6B46     		mov	r3, sp
 3375 15c8 2B48     		ldr	r0, .L175+20
 3376 15ca 1946     		mov	r1, r3
 3377 15cc 0022     		movs	r2, #0
ARM GAS  /tmp/ccQpHQw3.s 			page 62


 3378 15ce FFF7FEFF 		bl	HAL_TIM_OC_ConfigChannel
 3379 15d2 0346     		mov	r3, r0
 3380 15d4 002B     		cmp	r3, #0
 3381 15d6 01D0     		beq	.L170
 3382              		.loc 1 1579 0
 3383 15d8 FFF7FEFF 		bl	Error_Handler
 3384              	.L170:
 3385              		.loc 1 1585 0
 3386 15dc C823     		movs	r3, #200
 3387 15de 0193     		str	r3, [sp, #4]
 3388              		.loc 1 1586 0
 3389 15e0 6B46     		mov	r3, sp
 3390 15e2 2548     		ldr	r0, .L175+20
 3391 15e4 1946     		mov	r1, r3
 3392 15e6 0422     		movs	r2, #4
 3393 15e8 FFF7FEFF 		bl	HAL_TIM_OC_ConfigChannel
 3394 15ec 0346     		mov	r3, r0
 3395 15ee 002B     		cmp	r3, #0
 3396 15f0 01D0     		beq	.L171
 3397              		.loc 1 1589 0
 3398 15f2 FFF7FEFF 		bl	Error_Handler
 3399              	.L171:
 3400              		.loc 1 1595 0
 3401 15f6 40F27123 		movw	r3, #625
 3402 15fa 0193     		str	r3, [sp, #4]
 3403              		.loc 1 1596 0
 3404 15fc 6B46     		mov	r3, sp
 3405 15fe 1E48     		ldr	r0, .L175+20
 3406 1600 1946     		mov	r1, r3
 3407 1602 0822     		movs	r2, #8
 3408 1604 FFF7FEFF 		bl	HAL_TIM_OC_ConfigChannel
 3409 1608 0346     		mov	r3, r0
 3410 160a 002B     		cmp	r3, #0
 3411 160c 01D0     		beq	.L172
 3412              		.loc 1 1599 0
 3413 160e FFF7FEFF 		bl	Error_Handler
 3414              	.L172:
 3415              		.loc 1 1604 0
 3416 1612 4FF4FA73 		mov	r3, #500
 3417 1616 0193     		str	r3, [sp, #4]
 3418              		.loc 1 1605 0
 3419 1618 6B46     		mov	r3, sp
 3420 161a 1748     		ldr	r0, .L175+20
 3421 161c 1946     		mov	r1, r3
 3422 161e 0C22     		movs	r2, #12
 3423 1620 FFF7FEFF 		bl	HAL_TIM_OC_ConfigChannel
 3424 1624 0346     		mov	r3, r0
 3425 1626 002B     		cmp	r3, #0
 3426 1628 01D0     		beq	.L173
 3427              		.loc 1 1608 0
 3428 162a FFF7FEFF 		bl	Error_Handler
 3429              	.L173:
 3430              		.loc 1 1612 0
 3431 162e 144B     		ldr	r3, .L175+28
 3432 1630 144A     		ldr	r2, .L175+32
 3433 1632 1A60     		str	r2, [r3]
 3434              		.loc 1 1619 0
ARM GAS  /tmp/ccQpHQw3.s 			page 63


 3435 1634 124B     		ldr	r3, .L175+28
 3436 1636 40F2F312 		movw	r2, #499
 3437 163a DA60     		str	r2, [r3, #12]
 3438              		.loc 1 1620 0
 3439 163c 104B     		ldr	r3, .L175+28
 3440 163e 079A     		ldr	r2, [sp, #28]
 3441 1640 5A60     		str	r2, [r3, #4]
 3442              		.loc 1 1621 0
 3443 1642 0F4B     		ldr	r3, .L175+28
 3444 1644 0022     		movs	r2, #0
 3445 1646 1A61     		str	r2, [r3, #16]
 3446              		.loc 1 1622 0
 3447 1648 0D4B     		ldr	r3, .L175+28
 3448 164a 0022     		movs	r2, #0
 3449 164c 9A60     		str	r2, [r3, #8]
 3450              		.loc 1 1623 0
 3451 164e 0C48     		ldr	r0, .L175+28
 3452 1650 FFF7FEFF 		bl	HAL_TIM_Base_Init
 3453 1654 0346     		mov	r3, r0
 3454 1656 002B     		cmp	r3, #0
 3455 1658 01D0     		beq	.L168
 3456              		.loc 1 1625 0
 3457 165a FFF7FEFF 		bl	Error_Handler
 3458              	.L168:
 3459              		.loc 1 1627 0
 3460 165e 09B0     		add	sp, sp, #36
 3461              		@ sp needed
 3462 1660 5DF804FB 		ldr	pc, [sp], #4
 3463              	.L176:
 3464              		.align	2
 3465              	.L175:
 3466 1664 00000000 		.word	SystemCoreClock
 3467 1668 D34D6210 		.word	274877907
 3468 166c 00000000 		.word	TimEnvHandle
 3469 1670 00080040 		.word	1073743872
 3470 1674 5917B7D1 		.word	-776530087
 3471 1678 00000000 		.word	TimCCHandle
 3472 167c 002C0140 		.word	1073818624
 3473 1680 00000000 		.word	TimAudioDataHandle
 3474 1684 000C0040 		.word	1073744896
 3475              		.cfi_endproc
 3476              	.LFE287:
 3477              		.size	InitTimers, .-InitTimers
 3478              		.section	.rodata
 3479 00e7 00       		.align	2
 3480              	.LC0:
 3481 00e8 42       		.byte	66
 3482 00e9 4D       		.byte	77
 3483 00ea 32       		.byte	50
 3484 00eb 56       		.byte	86
 3485 00ec 32       		.byte	50
 3486 00ed 32       		.byte	50
 3487 00ee 30       		.byte	48
 3488 00ef 00       		.byte	0
 3489              		.text
 3490              		.align	2
 3491 1688 AFF30080 		.p2align 4,,15
ARM GAS  /tmp/ccQpHQw3.s 			page 64


 3491      AFF30080 
 3492              		.thumb
 3493              		.thumb_func
 3494              		.type	Init_BlueNRG_Stack, %function
 3495              	Init_BlueNRG_Stack:
 3496              	.LFB288:
 3497              		.loc 1 1634 0
 3498              		.cfi_startproc
 3499              		@ args = 0, pretend = 0, frame = 24
 3500              		@ frame_needed = 0, uses_anonymous_args = 0
 3501 1690 00B5     		push	{lr}
 3502              		.cfi_def_cfa_offset 4
 3503              		.cfi_offset 14, -4
 3504 1692 8BB0     		sub	sp, sp, #44
 3505              		.cfi_def_cfa_offset 48
 3506              		.loc 1 1635 0
 3507 1694 4F4A     		ldr	r2, .L191
 3508 1696 07AB     		add	r3, sp, #28
 3509 1698 1068     		ldr	r0, [r2]	@ unaligned
 3510 169a 5168     		ldr	r1, [r2, #4]	@ unaligned
 3511 169c 03C3     		stmia	r3!, {r0, r1}
 3512              		.loc 1 1652 0
 3513 169e FFF7FEFF 		bl	BNRG_SPI_Init
 3514              		.loc 1 1656 0
 3515 16a2 FFF7FEFF 		bl	HCI_Init
 3516              		.loc 1 1659 0
 3517 16a6 FFF7FEFF 		bl	BlueNRG_RST
 3518              		.loc 1 1662 0
 3519 16aa 0DF11502 		add	r2, sp, #21
 3520 16ae 0DF11203 		add	r3, sp, #18
 3521 16b2 1046     		mov	r0, r2
 3522 16b4 1946     		mov	r1, r3
 3523 16b6 FFF7FEFF 		bl	getBlueNRGVersion
 3524              		.loc 1 1664 0
 3525 16ba 9DF81530 		ldrb	r3, [sp, #21]	@ zero_extendqisi2
 3526 16be 302B     		cmp	r3, #48
 3527 16c0 04D9     		bls	.L178
 3528              		.loc 1 1666 0
 3529 16c2 454B     		ldr	r3, .L191+4
 3530 16c4 0122     		movs	r2, #1
 3531 16c6 83F82D20 		strb	r2, [r3, #45]
 3532 16ca 03E0     		b	.L179
 3533              	.L178:
 3534              		.loc 1 1669 0
 3535 16cc 424B     		ldr	r3, .L191+4
 3536 16ce 0022     		movs	r2, #0
 3537 16d0 83F82D20 		strb	r2, [r3, #45]
 3538              	.L179:
 3539              		.loc 1 1675 0
 3540 16d4 FFF7FEFF 		bl	BlueNRG_RST
 3541              		.loc 1 1681 0
 3542 16d8 404B     		ldr	r3, .L191+8
 3543 16da 1B68     		ldr	r3, [r3]
 3544 16dc 1B0E     		lsrs	r3, r3, #24
 3545 16de DAB2     		uxtb	r2, r3
 3546 16e0 3F4B     		ldr	r3, .L191+12
 3547 16e2 1A70     		strb	r2, [r3]
ARM GAS  /tmp/ccQpHQw3.s 			page 65


 3548              		.loc 1 1682 0
 3549 16e4 3F4B     		ldr	r3, .L191+16
 3550 16e6 1B68     		ldr	r3, [r3]
 3551 16e8 DAB2     		uxtb	r2, r3
 3552 16ea 3D4B     		ldr	r3, .L191+12
 3553 16ec 5A70     		strb	r2, [r3, #1]
 3554              		.loc 1 1683 0
 3555 16ee 3E4B     		ldr	r3, .L191+20
 3556 16f0 1B68     		ldr	r3, [r3]
 3557 16f2 1B0A     		lsrs	r3, r3, #8
 3558 16f4 DAB2     		uxtb	r2, r3
 3559 16f6 3A4B     		ldr	r3, .L191+12
 3560 16f8 9A70     		strb	r2, [r3, #2]
 3561              		.loc 1 1684 0
 3562 16fa 3A4B     		ldr	r3, .L191+16
 3563 16fc 1B68     		ldr	r3, [r3]
 3564 16fe 1B0C     		lsrs	r3, r3, #16
 3565 1700 DAB2     		uxtb	r2, r3
 3566 1702 374B     		ldr	r3, .L191+12
 3567 1704 DA70     		strb	r2, [r3, #3]
 3568              		.loc 1 1693 0
 3569 1706 364B     		ldr	r3, .L191+12
 3570 1708 7A22     		movs	r2, #122
 3571 170a 1A71     		strb	r2, [r3, #4]
 3572              		.loc 1 1695 0
 3573 170c 344B     		ldr	r3, .L191+12
 3574 170e C022     		movs	r2, #192
 3575 1710 5A71     		strb	r2, [r3, #5]
 3576              		.loc 1 1720 0
 3577 1712 FFF7FEFF 		bl	aci_gatt_init
 3578 1716 0346     		mov	r3, r0
 3579 1718 0993     		str	r3, [sp, #36]
 3580              		.loc 1 1721 0
 3581 171a 099B     		ldr	r3, [sp, #36]
 3582 171c 002B     		cmp	r3, #0
 3583 171e 00D0     		beq	.L180
 3584              		.loc 1 1723 0
 3585 1720 54E0     		b	.L181
 3586              	.L180:
 3587              		.loc 1 1726 0
 3588 1722 2D4B     		ldr	r3, .L191+4
 3589 1724 93F82D30 		ldrb	r3, [r3, #45]	@ zero_extendqisi2
 3590 1728 012B     		cmp	r3, #1
 3591 172a 0ED1     		bne	.L182
 3592              		.loc 1 1727 0
 3593 172c 0DF11A03 		add	r3, sp, #26
 3594 1730 06AA     		add	r2, sp, #24
 3595 1732 0092     		str	r2, [sp]
 3596 1734 0DF11602 		add	r2, sp, #22
 3597 1738 0192     		str	r2, [sp, #4]
 3598 173a 0120     		movs	r0, #1
 3599 173c 0021     		movs	r1, #0
 3600 173e 0722     		movs	r2, #7
 3601 1740 FFF7FEFF 		bl	aci_gap_init_IDB05A1
 3602 1744 0346     		mov	r3, r0
 3603 1746 0993     		str	r3, [sp, #36]
 3604 1748 09E0     		b	.L183
ARM GAS  /tmp/ccQpHQw3.s 			page 66


 3605              	.L182:
 3606              		.loc 1 1729 0
 3607 174a 0DF11A01 		add	r1, sp, #26
 3608 174e 06AA     		add	r2, sp, #24
 3609 1750 0DF11603 		add	r3, sp, #22
 3610 1754 0120     		movs	r0, #1
 3611 1756 FFF7FEFF 		bl	aci_gap_init_IDB04A1
 3612 175a 0346     		mov	r3, r0
 3613 175c 0993     		str	r3, [sp, #36]
 3614              	.L183:
 3615              		.loc 1 1732 0
 3616 175e 099B     		ldr	r3, [sp, #36]
 3617 1760 002B     		cmp	r3, #0
 3618 1762 00D0     		beq	.L184
 3619              		.loc 1 1734 0
 3620 1764 32E0     		b	.L181
 3621              	.L184:
 3622              		.loc 1 1739 0
 3623 1766 1E48     		ldr	r0, .L191+12
 3624 1768 FFF7FEFF 		bl	hci_le_set_random_address
 3625 176c 0990     		str	r0, [sp, #36]
 3626              		.loc 1 1741 0
 3627 176e 099B     		ldr	r3, [sp, #36]
 3628 1770 002B     		cmp	r3, #0
 3629 1772 00D0     		beq	.L185
 3630              		.loc 1 1743 0
 3631 1774 2AE0     		b	.L181
 3632              	.L185:
 3633              		.loc 1 1748 0
 3634 1776 BDF81A20 		ldrh	r2, [sp, #26]
 3635 177a BDF81830 		ldrh	r3, [sp, #24]
 3636 177e 07A9     		add	r1, sp, #28
 3637 1780 0091     		str	r1, [sp]
 3638 1782 1046     		mov	r0, r2
 3639 1784 1946     		mov	r1, r3
 3640 1786 0022     		movs	r2, #0
 3641 1788 0723     		movs	r3, #7
 3642 178a FFF7FEFF 		bl	aci_gatt_update_char_value
 3643 178e 0346     		mov	r3, r0
 3644 1790 0993     		str	r3, [sp, #36]
 3645              		.loc 1 1751 0
 3646 1792 099B     		ldr	r3, [sp, #36]
 3647 1794 002B     		cmp	r3, #0
 3648 1796 00D0     		beq	.L186
 3649              	.L187:
 3650              		.loc 1 1753 0 discriminator 1
 3651 1798 FEE7     		b	.L187
 3652              	.L186:
 3653              		.loc 1 1756 0
 3654 179a 1023     		movs	r3, #16
 3655 179c 0093     		str	r3, [sp]
 3656 179e 0023     		movs	r3, #0
 3657 17a0 0193     		str	r3, [sp, #4]
 3658 17a2 124B     		ldr	r3, .L191+24
 3659 17a4 0293     		str	r3, [sp, #8]
 3660 17a6 0123     		movs	r3, #1
 3661 17a8 0393     		str	r3, [sp, #12]
ARM GAS  /tmp/ccQpHQw3.s 			page 67


 3662 17aa 0120     		movs	r0, #1
 3663 17ac 0021     		movs	r1, #0
 3664 17ae 0022     		movs	r2, #0
 3665 17b0 0723     		movs	r3, #7
 3666 17b2 FFF7FEFF 		bl	aci_gap_set_auth_requirement
 3667 17b6 0346     		mov	r3, r0
 3668 17b8 0993     		str	r3, [sp, #36]
 3669              		.loc 1 1761 0
 3670 17ba 099B     		ldr	r3, [sp, #36]
 3671 17bc 002B     		cmp	r3, #0
 3672 17be 00D0     		beq	.L188
 3673              		.loc 1 1763 0
 3674 17c0 04E0     		b	.L181
 3675              	.L188:
 3676              		.loc 1 1779 0
 3677 17c2 0120     		movs	r0, #1
 3678 17c4 0421     		movs	r1, #4
 3679 17c6 FFF7FEFF 		bl	aci_hal_set_tx_power_level
 3680              		.loc 1 1781 0
 3681 17ca 00E0     		b	.L177
 3682              	.L181:
 3683              		.loc 1 1784 0
 3684 17cc 00BF     		nop
 3685              	.L177:
 3686              		.loc 1 1785 0
 3687 17ce 0BB0     		add	sp, sp, #44
 3688              		@ sp needed
 3689 17d0 5DF804FB 		ldr	pc, [sp], #4
 3690              	.L192:
 3691              		.align	2
 3692              	.L191:
 3693 17d4 E8000000 		.word	.LC0
 3694 17d8 00000000 		.word	TargetBoardFeatures
 3695 17dc 9475FF1F 		.word	536835476
 3696 17e0 00000000 		.word	bdaddr
 3697 17e4 9075FF1F 		.word	536835472
 3698 17e8 9875FF1F 		.word	536835480
 3699 17ec 40E20100 		.word	123456
 3700              		.cfi_endproc
 3701              	.LFE288:
 3702              		.size	Init_BlueNRG_Stack, .-Init_BlueNRG_Stack
 3703              		.align	2
 3704              		.p2align 4,,15
 3705              		.thumb
 3706              		.thumb_func
 3707              		.type	Init_BlueNRG_Custom_Services, %function
 3708              	Init_BlueNRG_Custom_Services:
 3709              	.LFB289:
 3710              		.loc 1 1792 0
 3711              		.cfi_startproc
 3712              		@ args = 0, pretend = 0, frame = 8
 3713              		@ frame_needed = 0, uses_anonymous_args = 0
 3714 17f0 00B5     		push	{lr}
 3715              		.cfi_def_cfa_offset 4
 3716              		.cfi_offset 14, -4
 3717 17f2 83B0     		sub	sp, sp, #12
 3718              		.cfi_def_cfa_offset 16
ARM GAS  /tmp/ccQpHQw3.s 			page 68


 3719              		.loc 1 1805 0
 3720 17f4 FFF7FEFF 		bl	Add_ConsoleW2ST_Service
 3721 17f8 0346     		mov	r3, r0
 3722 17fa 0193     		str	r3, [sp, #4]
 3723              		.loc 1 1824 0
 3724 17fc 03B0     		add	sp, sp, #12
 3725              		@ sp needed
 3726 17fe 5DF804FB 		ldr	pc, [sp], #4
 3727              		.cfi_endproc
 3728              	.LFE289:
 3729              		.size	Init_BlueNRG_Custom_Services, .-Init_BlueNRG_Custom_Services
 3730 1802 00BF     		.align	2
 3731 1804 AFF30080 		.p2align 4,,15
 3731      AFF30080 
 3731      AFF30080 
 3732              		.thumb
 3733              		.thumb_func
 3734              		.type	SystemClock_Config, %function
 3735              	SystemClock_Config:
 3736              	.LFB290:
 3737              		.loc 1 1947 0
 3738              		.cfi_startproc
 3739              		@ args = 0, pretend = 0, frame = 232
 3740              		@ frame_needed = 0, uses_anonymous_args = 0
 3741 1810 00B5     		push	{lr}
 3742              		.cfi_def_cfa_offset 4
 3743              		.cfi_offset 14, -4
 3744 1812 BBB0     		sub	sp, sp, #236
 3745              		.cfi_def_cfa_offset 240
 3746              		.loc 1 1948 0
 3747 1814 35AB     		add	r3, sp, #212
 3748 1816 0022     		movs	r2, #0
 3749 1818 1A60     		str	r2, [r3]
 3750 181a 0433     		adds	r3, r3, #4
 3751 181c 0022     		movs	r2, #0
 3752 181e 1A60     		str	r2, [r3]
 3753 1820 0433     		adds	r3, r3, #4
 3754 1822 0022     		movs	r2, #0
 3755 1824 1A60     		str	r2, [r3]
 3756 1826 0433     		adds	r3, r3, #4
 3757 1828 0022     		movs	r2, #0
 3758 182a 1A60     		str	r2, [r3]
 3759 182c 0433     		adds	r3, r3, #4
 3760 182e 0022     		movs	r2, #0
 3761 1830 1A60     		str	r2, [r3]
 3762 1832 0433     		adds	r3, r3, #4
 3763              		.loc 1 1949 0
 3764 1834 24AA     		add	r2, sp, #144
 3765 1836 4423     		movs	r3, #68
 3766 1838 1046     		mov	r0, r2
 3767 183a 0021     		movs	r1, #0
 3768 183c 1A46     		mov	r2, r3
 3769 183e FFF7FEFF 		bl	memset
 3770              		.loc 1 1950 0
 3771 1842 02AA     		add	r2, sp, #8
 3772 1844 8823     		movs	r3, #136
 3773 1846 1046     		mov	r0, r2
ARM GAS  /tmp/ccQpHQw3.s 			page 69


 3774 1848 0021     		movs	r1, #0
 3775 184a 1A46     		mov	r2, r3
 3776 184c FFF7FEFF 		bl	memset
 3777              	.LBB27:
 3778              		.loc 1 1952 0
 3779 1850 2D4B     		ldr	r3, .L201
 3780 1852 2D4A     		ldr	r2, .L201
 3781 1854 926D     		ldr	r2, [r2, #88]
 3782 1856 42F08052 		orr	r2, r2, #268435456
 3783 185a 9A65     		str	r2, [r3, #88]
 3784 185c 2A4B     		ldr	r3, .L201
 3785 185e 9B6D     		ldr	r3, [r3, #88]
 3786 1860 03F08053 		and	r3, r3, #268435456
 3787 1864 0193     		str	r3, [sp, #4]
 3788 1866 019B     		ldr	r3, [sp, #4]
 3789              	.LBE27:
 3790              		.loc 1 1953 0
 3791 1868 FFF7FEFF 		bl	HAL_PWR_EnableBkUpAccess
 3792              		.loc 1 1956 0
 3793 186c 0423     		movs	r3, #4
 3794 186e 2493     		str	r3, [sp, #144]
 3795              		.loc 1 1957 0
 3796 1870 0123     		movs	r3, #1
 3797 1872 2693     		str	r3, [sp, #152]
 3798              		.loc 1 1958 0
 3799 1874 24AB     		add	r3, sp, #144
 3800 1876 1846     		mov	r0, r3
 3801 1878 FFF7FEFF 		bl	HAL_RCC_OscConfig
 3802 187c 0346     		mov	r3, r0
 3803 187e 002B     		cmp	r3, #0
 3804 1880 00D0     		beq	.L195
 3805              	.L196:
 3806              		.loc 1 1959 0 discriminator 1
 3807 1882 FEE7     		b	.L196
 3808              	.L195:
 3809              		.loc 1 1963 0
 3810 1884 FFF7FEFF 		bl	HAL_RCCEx_DisableLSECSS
 3811              		.loc 1 1966 0
 3812 1888 1023     		movs	r3, #16
 3813 188a 2493     		str	r3, [sp, #144]
 3814              		.loc 1 1967 0
 3815 188c 0123     		movs	r3, #1
 3816 188e 2A93     		str	r3, [sp, #168]
 3817              		.loc 1 1968 0
 3818 1890 0023     		movs	r3, #0
 3819 1892 2893     		str	r3, [sp, #160]
 3820              		.loc 1 1969 0
 3821 1894 B023     		movs	r3, #176
 3822 1896 2C93     		str	r3, [sp, #176]
 3823              		.loc 1 1970 0
 3824 1898 0223     		movs	r3, #2
 3825 189a 2E93     		str	r3, [sp, #184]
 3826              		.loc 1 1971 0
 3827 189c 0123     		movs	r3, #1
 3828 189e 2F93     		str	r3, [sp, #188]
 3829              		.loc 1 1972 0
 3830 18a0 0623     		movs	r3, #6
ARM GAS  /tmp/ccQpHQw3.s 			page 70


 3831 18a2 3093     		str	r3, [sp, #192]
 3832              		.loc 1 1973 0
 3833 18a4 2823     		movs	r3, #40
 3834 18a6 3193     		str	r3, [sp, #196]
 3835              		.loc 1 1974 0
 3836 18a8 0723     		movs	r3, #7
 3837 18aa 3293     		str	r3, [sp, #200]
 3838              		.loc 1 1975 0
 3839 18ac 0423     		movs	r3, #4
 3840 18ae 3393     		str	r3, [sp, #204]
 3841              		.loc 1 1976 0
 3842 18b0 0423     		movs	r3, #4
 3843 18b2 3493     		str	r3, [sp, #208]
 3844              		.loc 1 1977 0
 3845 18b4 24AB     		add	r3, sp, #144
 3846 18b6 1846     		mov	r0, r3
 3847 18b8 FFF7FEFF 		bl	HAL_RCC_OscConfig
 3848 18bc 0346     		mov	r3, r0
 3849 18be 002B     		cmp	r3, #0
 3850 18c0 00D0     		beq	.L197
 3851              	.L198:
 3852              		.loc 1 1978 0 discriminator 1
 3853 18c2 FEE7     		b	.L198
 3854              	.L197:
 3855              		.loc 1 1982 0
 3856 18c4 FFF7FEFF 		bl	HAL_RCCEx_EnableMSIPLLMode
 3857              		.loc 1 1985 0
 3858 18c8 4FF40053 		mov	r3, #8192
 3859 18cc 0293     		str	r3, [sp, #8]
 3860              		.loc 1 1986 0
 3861 18ce 4FF04063 		mov	r3, #201326592
 3862 18d2 1D93     		str	r3, [sp, #116]
 3863              		.loc 1 1987 0
 3864 18d4 02AB     		add	r3, sp, #8
 3865 18d6 1846     		mov	r0, r3
 3866 18d8 FFF7FEFF 		bl	HAL_RCCEx_PeriphCLKConfig
 3867              		.loc 1 1991 0
 3868 18dc 0F23     		movs	r3, #15
 3869 18de 3593     		str	r3, [sp, #212]
 3870              		.loc 1 1992 0
 3871 18e0 0323     		movs	r3, #3
 3872 18e2 3693     		str	r3, [sp, #216]
 3873              		.loc 1 1993 0
 3874 18e4 0023     		movs	r3, #0
 3875 18e6 3793     		str	r3, [sp, #220]
 3876              		.loc 1 1994 0
 3877 18e8 0023     		movs	r3, #0
 3878 18ea 3893     		str	r3, [sp, #224]
 3879              		.loc 1 1995 0
 3880 18ec 0023     		movs	r3, #0
 3881 18ee 3993     		str	r3, [sp, #228]
 3882              		.loc 1 1996 0
 3883 18f0 35AB     		add	r3, sp, #212
 3884 18f2 1846     		mov	r0, r3
 3885 18f4 0421     		movs	r1, #4
 3886 18f6 FFF7FEFF 		bl	HAL_RCC_ClockConfig
 3887 18fa 0346     		mov	r3, r0
ARM GAS  /tmp/ccQpHQw3.s 			page 71


 3888 18fc 002B     		cmp	r3, #0
 3889 18fe 00D0     		beq	.L194
 3890              	.L200:
 3891              		.loc 1 1997 0 discriminator 1
 3892 1900 FEE7     		b	.L200
 3893              	.L194:
 3894              		.loc 1 1999 0
 3895 1902 3BB0     		add	sp, sp, #236
 3896              		@ sp needed
 3897 1904 5DF804FB 		ldr	pc, [sp], #4
 3898              	.L202:
 3899              		.align	2
 3900              	.L201:
 3901 1908 00100240 		.word	1073876992
 3902              		.cfi_endproc
 3903              	.LFE290:
 3904              		.size	SystemClock_Config, .-SystemClock_Config
 3905              		.align	2
 3906 190c AFF30080 		.p2align 4,,15
 3907              		.global	HAL_Delay
 3908              		.thumb
 3909              		.thumb_func
 3910              		.type	HAL_Delay, %function
 3911              	HAL_Delay:
 3912              	.LFB291:
 3913              		.loc 1 2011 0
 3914              		.cfi_startproc
 3915              		@ args = 0, pretend = 0, frame = 16
 3916              		@ frame_needed = 0, uses_anonymous_args = 0
 3917 1910 00B5     		push	{lr}
 3918              		.cfi_def_cfa_offset 4
 3919              		.cfi_offset 14, -4
 3920 1912 85B0     		sub	sp, sp, #20
 3921              		.cfi_def_cfa_offset 24
 3922 1914 0190     		str	r0, [sp, #4]
 3923              		.loc 1 2012 0
 3924 1916 0023     		movs	r3, #0
 3925 1918 0393     		str	r3, [sp, #12]
 3926              		.loc 1 2013 0
 3927 191a FFF7FEFF 		bl	HAL_GetTick
 3928 191e 0390     		str	r0, [sp, #12]
 3929              		.loc 1 2014 0
 3930 1920 00E0     		b	.L204
 3931              	.L205:
 3932              	.LBB28:
 3933              	.LBB29:
 3934              		.loc 2 434 0
 3935              	@ 434 "../../../../../../ChibiOS/os/ext/CMSIS/include/core_cmInstr.h" 1
 3936 1922 30BF     		wfi
 3937              	@ 0 "" 2
 3938              		.thumb
 3939              	.L204:
 3940              	.LBE29:
 3941              	.LBE28:
 3942              		.loc 1 2014 0 discriminator 1
 3943 1924 FFF7FEFF 		bl	HAL_GetTick
 3944 1928 0246     		mov	r2, r0
ARM GAS  /tmp/ccQpHQw3.s 			page 72


 3945 192a 039B     		ldr	r3, [sp, #12]
 3946 192c D21A     		subs	r2, r2, r3
 3947 192e 019B     		ldr	r3, [sp, #4]
 3948 1930 9A42     		cmp	r2, r3
 3949 1932 F6D3     		bcc	.L205
 3950              		.loc 1 2017 0
 3951 1934 05B0     		add	sp, sp, #20
 3952              		@ sp needed
 3953 1936 5DF804FB 		ldr	pc, [sp], #4
 3954              		.cfi_endproc
 3955              	.LFE291:
 3956              		.size	HAL_Delay, .-HAL_Delay
 3957 193a 00BF     		.align	2
 3958 193c AFF30080 		.p2align 4,,15
 3959              		.global	Error_Handler
 3960              		.thumb
 3961              		.thumb_func
 3962              		.type	Error_Handler, %function
 3963              	Error_Handler:
 3964              	.LFB292:
 3965              		.loc 1 2025 0
 3966              		.cfi_startproc
 3967              		@ args = 0, pretend = 0, frame = 0
 3968              		@ frame_needed = 0, uses_anonymous_args = 0
 3969              		@ link register save eliminated.
 3970              	.L207:
 3971              		.loc 1 2028 0 discriminator 1
 3972 1940 FEE7     		b	.L207
 3973              		.cfi_endproc
 3974              	.LFE292:
 3975              		.size	Error_Handler, .-Error_Handler
 3976 1942 00BF     		.align	2
 3977 1944 AFF30080 		.p2align 4,,15
 3977      AFF30080 
 3977      AFF30080 
 3978              		.global	HAL_GPIO_EXTI_Callback
 3979              		.thumb
 3980              		.thumb_func
 3981              		.type	HAL_GPIO_EXTI_Callback, %function
 3982              	HAL_GPIO_EXTI_Callback:
 3983              	.LFB293:
 3984              		.loc 1 2037 0
 3985              		.cfi_startproc
 3986              		@ args = 0, pretend = 0, frame = 8
 3987              		@ frame_needed = 0, uses_anonymous_args = 0
 3988 1950 00B5     		push	{lr}
 3989              		.cfi_def_cfa_offset 4
 3990              		.cfi_offset 14, -4
 3991 1952 83B0     		sub	sp, sp, #12
 3992              		.cfi_def_cfa_offset 16
 3993 1954 0346     		mov	r3, r0
 3994 1956 ADF80630 		strh	r3, [sp, #6]	@ movhi
 3995              		.loc 1 2038 0
 3996 195a BDF80630 		ldrh	r3, [sp, #6]
 3997 195e 042B     		cmp	r3, #4
 3998 1960 07D0     		beq	.L210
 3999 1962 202B     		cmp	r3, #32
ARM GAS  /tmp/ccQpHQw3.s 			page 73


 4000 1964 09D1     		bne	.L208
 4001              		.loc 1 2044 0
 4002 1966 FFF7FEFF 		bl	HCI_Isr
 4003              		.loc 1 2045 0
 4004 196a 054B     		ldr	r3, .L212
 4005 196c 0122     		movs	r2, #1
 4006 196e 1A60     		str	r2, [r3]
 4007              		.loc 1 2046 0
 4008 1970 03E0     		b	.L208
 4009              	.L210:
 4010              		.loc 1 2062 0
 4011 1972 044B     		ldr	r3, .L212+4
 4012 1974 0122     		movs	r2, #1
 4013 1976 1A60     		str	r2, [r3]
 4014              		.loc 1 2063 0
 4015 1978 00BF     		nop
 4016              	.L208:
 4017              		.loc 1 2065 0
 4018 197a 03B0     		add	sp, sp, #12
 4019              		@ sp needed
 4020 197c 5DF804FB 		ldr	pc, [sp], #4
 4021              	.L213:
 4022              		.align	2
 4023              	.L212:
 4024 1980 14000000 		.word	HCI_ProcessEvent
 4025 1984 10000000 		.word	MEMSInterrupt
 4026              		.cfi_endproc
 4027              	.LFE293:
 4028              		.size	HAL_GPIO_EXTI_Callback, .-HAL_GPIO_EXTI_Callback
 4029              		.section	.rodata
 4030              		.align	2
 4031              	.LC16:
 4032 00f0 4D61676E 		.ascii	"Magneto Calibration will be saved in FLASH\015\012\000"
 4032      65746F20 
 4032      43616C69 
 4032      62726174 
 4032      696F6E20 
 4033              		.text
 4034              		.align	2
 4035 1988 AFF30080 		.p2align 4,,15
 4035      AFF30080 
 4036              		.thumb
 4037              		.thumb_func
 4038              		.type	SaveCalibrationToMemory, %function
 4039              	SaveCalibrationToMemory:
 4040              	.LFB294:
 4041              		.loc 1 2092 0
 4042              		.cfi_startproc
 4043              		@ args = 0, pretend = 0, frame = 16
 4044              		@ frame_needed = 0, uses_anonymous_args = 0
 4045 1990 30B5     		push	{r4, r5, lr}
 4046              		.cfi_def_cfa_offset 12
 4047              		.cfi_offset 4, -12
 4048              		.cfi_offset 5, -8
 4049              		.cfi_offset 14, -4
 4050 1992 85B0     		sub	sp, sp, #20
 4051              		.cfi_def_cfa_offset 32
ARM GAS  /tmp/ccQpHQw3.s 			page 74


 4052 1994 0190     		str	r0, [sp, #4]
 4053              		.loc 1 2093 0
 4054 1996 0123     		movs	r3, #1
 4055 1998 8DF80F30 		strb	r3, [sp, #15]
 4056              		.loc 1 2096 0
 4057 199c 0198     		ldr	r0, [sp, #4]
 4058 199e 00F077F8 		bl	ResetCalibrationInMemory
 4059 19a2 0346     		mov	r3, r0
 4060 19a4 8DF80F30 		strb	r3, [sp, #15]
 4061              		.loc 1 2098 0
 4062 19a8 9DF80F30 		ldrb	r3, [sp, #15]	@ zero_extendqisi2
 4063 19ac 002B     		cmp	r3, #0
 4064 19ae 4FD0     		beq	.L215
 4065              	.LBB30:
 4066              		.loc 1 2101 0
 4067 19b0 019B     		ldr	r3, [sp, #4]
 4068 19b2 2A4A     		ldr	r2, .L218
 4069 19b4 1A60     		str	r2, [r3]
 4070              		.loc 1 2102 0
 4071 19b6 019B     		ldr	r3, [sp, #4]
 4072 19b8 0433     		adds	r3, r3, #4
 4073 19ba 294A     		ldr	r2, .L218+4
 4074 19bc 1288     		ldrh	r2, [r2]
 4075 19be 12B2     		sxth	r2, r2
 4076 19c0 1A60     		str	r2, [r3]
 4077              		.loc 1 2103 0
 4078 19c2 019B     		ldr	r3, [sp, #4]
 4079 19c4 0833     		adds	r3, r3, #8
 4080 19c6 264A     		ldr	r2, .L218+4
 4081 19c8 5288     		ldrh	r2, [r2, #2]
 4082 19ca 12B2     		sxth	r2, r2
 4083 19cc 1A60     		str	r2, [r3]
 4084              		.loc 1 2104 0
 4085 19ce 019B     		ldr	r3, [sp, #4]
 4086 19d0 0C33     		adds	r3, r3, #12
 4087 19d2 234A     		ldr	r2, .L218+4
 4088 19d4 9288     		ldrh	r2, [r2, #4]
 4089 19d6 12B2     		sxth	r2, r2
 4090 19d8 1A60     		str	r2, [r3]
 4091              		.loc 1 2106 0
 4092 19da 224B     		ldr	r3, .L218+8
 4093 19dc 0293     		str	r3, [sp, #8]
 4094              		.loc 1 2107 0
 4095 19de 019B     		ldr	r3, [sp, #4]
 4096 19e0 1033     		adds	r3, r3, #16
 4097 19e2 029A     		ldr	r2, [sp, #8]
 4098 19e4 1268     		ldr	r2, [r2]
 4099 19e6 1A60     		str	r2, [r3]
 4100              		.loc 1 2108 0
 4101 19e8 1F4B     		ldr	r3, .L218+12
 4102 19ea 0293     		str	r3, [sp, #8]
 4103              		.loc 1 2109 0
 4104 19ec 019B     		ldr	r3, [sp, #4]
 4105 19ee 1433     		adds	r3, r3, #20
 4106 19f0 029A     		ldr	r2, [sp, #8]
 4107 19f2 1268     		ldr	r2, [r2]
 4108 19f4 1A60     		str	r2, [r3]
ARM GAS  /tmp/ccQpHQw3.s 			page 75


 4109              		.loc 1 2110 0
 4110 19f6 1D4B     		ldr	r3, .L218+16
 4111 19f8 0293     		str	r3, [sp, #8]
 4112              		.loc 1 2111 0
 4113 19fa 019B     		ldr	r3, [sp, #4]
 4114 19fc 1833     		adds	r3, r3, #24
 4115 19fe 029A     		ldr	r2, [sp, #8]
 4116 1a00 1268     		ldr	r2, [r2]
 4117 1a02 1A60     		str	r2, [r3]
 4118              		.loc 1 2112 0
 4119 1a04 1A4B     		ldr	r3, .L218+20
 4120 1a06 0293     		str	r3, [sp, #8]
 4121              		.loc 1 2113 0
 4122 1a08 019B     		ldr	r3, [sp, #4]
 4123 1a0a 1C33     		adds	r3, r3, #28
 4124 1a0c 029A     		ldr	r2, [sp, #8]
 4125 1a0e 1268     		ldr	r2, [r2]
 4126 1a10 1A60     		str	r2, [r3]
 4127              		.loc 1 2115 0
 4128 1a12 184B     		ldr	r3, .L218+24
 4129 1a14 1B68     		ldr	r3, [r3]
 4130 1a16 03F48063 		and	r3, r3, #1024
 4131 1a1a 002B     		cmp	r3, #0
 4132 1a1c 15D0     		beq	.L216
 4133              		.loc 1 2116 0
 4134 1a1e 164A     		ldr	r2, .L218+28
 4135 1a20 164B     		ldr	r3, .L218+32
 4136 1a22 1446     		mov	r4, r2
 4137 1a24 1D46     		mov	r5, r3
 4138 1a26 0FCD     		ldmia	r5!, {r0, r1, r2, r3}
 4139 1a28 0FC4     		stmia	r4!, {r0, r1, r2, r3}
 4140 1a2a 0FCD     		ldmia	r5!, {r0, r1, r2, r3}
 4141 1a2c 0FC4     		stmia	r4!, {r0, r1, r2, r3}
 4142 1a2e 95E80F00 		ldmia	r5, {r0, r1, r2, r3}
 4143 1a32 07C4     		stmia	r4!, {r0, r1, r2}
 4144 1a34 2370     		strb	r3, [r4]
 4145 1a36 124B     		ldr	r3, .L218+36
 4146 1a38 2C22     		movs	r2, #44
 4147 1a3a 1A60     		str	r2, [r3]
 4148              		.loc 1 2117 0
 4149 1a3c 104B     		ldr	r3, .L218+36
 4150 1a3e 1B68     		ldr	r3, [r3]
 4151 1a40 DBB2     		uxtb	r3, r3
 4152 1a42 0D48     		ldr	r0, .L218+28
 4153 1a44 1946     		mov	r1, r3
 4154 1a46 FFF7FEFF 		bl	Term_Update
 4155              	.L216:
 4156              		.loc 1 2121 0
 4157 1a4a 0E4B     		ldr	r3, .L218+40
 4158 1a4c 0122     		movs	r2, #1
 4159 1a4e 1A60     		str	r2, [r3]
 4160              	.L215:
 4161              	.LBE30:
 4162              		.loc 1 2124 0
 4163 1a50 9DF80F30 		ldrb	r3, [sp, #15]	@ zero_extendqisi2
 4164              		.loc 1 2125 0
 4165 1a54 1846     		mov	r0, r3
ARM GAS  /tmp/ccQpHQw3.s 			page 76


 4166 1a56 05B0     		add	sp, sp, #20
 4167              		@ sp needed
 4168 1a58 30BD     		pop	{r4, r5, pc}
 4169              	.L219:
 4170 1a5a 00BF     		.align	2
 4171              	.L218:
 4172 1a5c 78563412 		.word	305419896
 4173 1a60 00000000 		.word	magOffset
 4174 1a64 08000000 		.word	magOffset+8
 4175 1a68 0C000000 		.word	magOffset+12
 4176 1a6c 10000000 		.word	magOffset+16
 4177 1a70 14000000 		.word	magOffset+20
 4178 1a74 00000000 		.word	ConnectionBleStatus
 4179 1a78 00000000 		.word	BufferToWrite
 4180 1a7c F0000000 		.word	.LC16
 4181 1a80 00000000 		.word	BytesToWrite
 4182 1a84 00000000 		.word	NecessityToSaveMetaDataManager
 4183              		.cfi_endproc
 4184              	.LFE294:
 4185              		.size	SaveCalibrationToMemory, .-SaveCalibrationToMemory
 4186              		.section	.rodata
 4187 011d 000000   		.align	2
 4188              	.LC17:
 4189 0120 4D61676E 		.ascii	"Magneto Calibration will be eresed in FLASH\015\012"
 4189      65746F20 
 4189      43616C69 
 4189      62726174 
 4189      696F6E20 
 4190 014d 00       		.ascii	"\000"
 4191 014e 0000     		.text
 4192              		.align	2
 4193 1a88 AFF30080 		.p2align 4,,15
 4193      AFF30080 
 4194              		.thumb
 4195              		.thumb_func
 4196              		.type	ResetCalibrationInMemory, %function
 4197              	ResetCalibrationInMemory:
 4198              	.LFB295:
 4199              		.loc 1 2133 0
 4200              		.cfi_startproc
 4201              		@ args = 0, pretend = 0, frame = 16
 4202              		@ frame_needed = 0, uses_anonymous_args = 0
 4203 1a90 30B5     		push	{r4, r5, lr}
 4204              		.cfi_def_cfa_offset 12
 4205              		.cfi_offset 4, -12
 4206              		.cfi_offset 5, -8
 4207              		.cfi_offset 14, -4
 4208 1a92 85B0     		sub	sp, sp, #20
 4209              		.cfi_def_cfa_offset 32
 4210 1a94 0190     		str	r0, [sp, #4]
 4211              		.loc 1 2135 0
 4212 1a96 0123     		movs	r3, #1
 4213 1a98 8DF80B30 		strb	r3, [sp, #11]
 4214              		.loc 1 2138 0
 4215 1a9c 0023     		movs	r3, #0
 4216 1a9e 0393     		str	r3, [sp, #12]
 4217 1aa0 09E0     		b	.L221
ARM GAS  /tmp/ccQpHQw3.s 			page 77


 4218              	.L222:
 4219              		.loc 1 2139 0 discriminator 2
 4220 1aa2 039B     		ldr	r3, [sp, #12]
 4221 1aa4 9B00     		lsls	r3, r3, #2
 4222 1aa6 019A     		ldr	r2, [sp, #4]
 4223 1aa8 1344     		add	r3, r3, r2
 4224 1aaa 4FF0FF32 		mov	r2, #-1
 4225 1aae 1A60     		str	r2, [r3]
 4226              		.loc 1 2138 0 discriminator 2
 4227 1ab0 039B     		ldr	r3, [sp, #12]
 4228 1ab2 0133     		adds	r3, r3, #1
 4229 1ab4 0393     		str	r3, [sp, #12]
 4230              	.L221:
 4231              		.loc 1 2138 0 is_stmt 0 discriminator 1
 4232 1ab6 039B     		ldr	r3, [sp, #12]
 4233 1ab8 072B     		cmp	r3, #7
 4234 1aba F2DD     		ble	.L222
 4235              		.loc 1 2141 0 is_stmt 1
 4236 1abc 114B     		ldr	r3, .L225
 4237 1abe 1B68     		ldr	r3, [r3]
 4238 1ac0 03F48063 		and	r3, r3, #1024
 4239 1ac4 002B     		cmp	r3, #0
 4240 1ac6 15D0     		beq	.L223
 4241              		.loc 1 2142 0
 4242 1ac8 0F4A     		ldr	r2, .L225+4
 4243 1aca 104B     		ldr	r3, .L225+8
 4244 1acc 1446     		mov	r4, r2
 4245 1ace 1D46     		mov	r5, r3
 4246 1ad0 0FCD     		ldmia	r5!, {r0, r1, r2, r3}
 4247 1ad2 0FC4     		stmia	r4!, {r0, r1, r2, r3}
 4248 1ad4 0FCD     		ldmia	r5!, {r0, r1, r2, r3}
 4249 1ad6 0FC4     		stmia	r4!, {r0, r1, r2, r3}
 4250 1ad8 95E80F00 		ldmia	r5, {r0, r1, r2, r3}
 4251 1adc 07C4     		stmia	r4!, {r0, r1, r2}
 4252 1ade 2380     		strh	r3, [r4]	@ movhi
 4253 1ae0 0B4B     		ldr	r3, .L225+12
 4254 1ae2 2D22     		movs	r2, #45
 4255 1ae4 1A60     		str	r2, [r3]
 4256              		.loc 1 2143 0
 4257 1ae6 0A4B     		ldr	r3, .L225+12
 4258 1ae8 1B68     		ldr	r3, [r3]
 4259 1aea DBB2     		uxtb	r3, r3
 4260 1aec 0648     		ldr	r0, .L225+4
 4261 1aee 1946     		mov	r1, r3
 4262 1af0 FFF7FEFF 		bl	Term_Update
 4263              	.L223:
 4264              		.loc 1 2147 0
 4265 1af4 074B     		ldr	r3, .L225+16
 4266 1af6 0122     		movs	r2, #1
 4267 1af8 1A60     		str	r2, [r3]
 4268              		.loc 1 2149 0
 4269 1afa 9DF80B30 		ldrb	r3, [sp, #11]	@ zero_extendqisi2
 4270              		.loc 1 2150 0
 4271 1afe 1846     		mov	r0, r3
 4272 1b00 05B0     		add	sp, sp, #20
 4273              		@ sp needed
 4274 1b02 30BD     		pop	{r4, r5, pc}
ARM GAS  /tmp/ccQpHQw3.s 			page 78


 4275              	.L226:
 4276              		.align	2
 4277              	.L225:
 4278 1b04 00000000 		.word	ConnectionBleStatus
 4279 1b08 00000000 		.word	BufferToWrite
 4280 1b0c 20010000 		.word	.LC17
 4281 1b10 00000000 		.word	BytesToWrite
 4282 1b14 00000000 		.word	NecessityToSaveMetaDataManager
 4283              		.cfi_endproc
 4284              	.LFE295:
 4285              		.size	ResetCalibrationInMemory, .-ResetCalibrationInMemory
 4286              		.align	2
 4287 1b18 AFF30080 		.p2align 4,,15
 4287      AFF30080 
 4288              		.thumb
 4289              		.thumb_func
 4290              		.type	ReCallCalibrationFromMemory, %function
 4291              	ReCallCalibrationFromMemory:
 4292              	.LFB296:
 4293              		.loc 1 2158 0
 4294              		.cfi_startproc
 4295              		@ args = 0, pretend = 0, frame = 16
 4296              		@ frame_needed = 0, uses_anonymous_args = 0
 4297              		@ link register save eliminated.
 4298 1b20 84B0     		sub	sp, sp, #16
 4299              		.cfi_def_cfa_offset 16
 4300 1b22 0190     		str	r0, [sp, #4]
 4301              		.loc 1 2160 0
 4302 1b24 0123     		movs	r3, #1
 4303 1b26 8DF80F30 		strb	r3, [sp, #15]
 4304              		.loc 1 2162 0
 4305 1b2a 019B     		ldr	r3, [sp, #4]
 4306 1b2c 1A68     		ldr	r2, [r3]
 4307 1b2e 1D4B     		ldr	r3, .L231
 4308 1b30 9A42     		cmp	r2, r3
 4309 1b32 2ED1     		bne	.L228
 4310              	.LBB31:
 4311              		.loc 1 2164 0
 4312 1b34 019B     		ldr	r3, [sp, #4]
 4313 1b36 0433     		adds	r3, r3, #4
 4314 1b38 1B68     		ldr	r3, [r3]
 4315 1b3a 9AB2     		uxth	r2, r3
 4316 1b3c 1A4B     		ldr	r3, .L231+4
 4317 1b3e 1A80     		strh	r2, [r3]	@ movhi
 4318              		.loc 1 2165 0
 4319 1b40 019B     		ldr	r3, [sp, #4]
 4320 1b42 0833     		adds	r3, r3, #8
 4321 1b44 1B68     		ldr	r3, [r3]
 4322 1b46 9AB2     		uxth	r2, r3
 4323 1b48 174B     		ldr	r3, .L231+4
 4324 1b4a 5A80     		strh	r2, [r3, #2]	@ movhi
 4325              		.loc 1 2166 0
 4326 1b4c 019B     		ldr	r3, [sp, #4]
 4327 1b4e 0C33     		adds	r3, r3, #12
 4328 1b50 1B68     		ldr	r3, [r3]
 4329 1b52 9AB2     		uxth	r2, r3
 4330 1b54 144B     		ldr	r3, .L231+4
ARM GAS  /tmp/ccQpHQw3.s 			page 79


 4331 1b56 9A80     		strh	r2, [r3, #4]	@ movhi
 4332              		.loc 1 2167 0
 4333 1b58 019B     		ldr	r3, [sp, #4]
 4334 1b5a 1033     		adds	r3, r3, #16
 4335 1b5c 0293     		str	r3, [sp, #8]
 4336              		.loc 1 2168 0
 4337 1b5e 029B     		ldr	r3, [sp, #8]
 4338 1b60 1A68     		ldr	r2, [r3]	@ float
 4339 1b62 114B     		ldr	r3, .L231+4
 4340 1b64 9A60     		str	r2, [r3, #8]	@ float
 4341              		.loc 1 2169 0
 4342 1b66 019B     		ldr	r3, [sp, #4]
 4343 1b68 1433     		adds	r3, r3, #20
 4344 1b6a 0293     		str	r3, [sp, #8]
 4345              		.loc 1 2170 0
 4346 1b6c 029B     		ldr	r3, [sp, #8]
 4347 1b6e 1A68     		ldr	r2, [r3]	@ float
 4348 1b70 0D4B     		ldr	r3, .L231+4
 4349 1b72 DA60     		str	r2, [r3, #12]	@ float
 4350              		.loc 1 2171 0
 4351 1b74 019B     		ldr	r3, [sp, #4]
 4352 1b76 1833     		adds	r3, r3, #24
 4353 1b78 0293     		str	r3, [sp, #8]
 4354              		.loc 1 2172 0
 4355 1b7a 029B     		ldr	r3, [sp, #8]
 4356 1b7c 1A68     		ldr	r2, [r3]	@ float
 4357 1b7e 0A4B     		ldr	r3, .L231+4
 4358 1b80 1A61     		str	r2, [r3, #16]	@ float
 4359              		.loc 1 2173 0
 4360 1b82 019B     		ldr	r3, [sp, #4]
 4361 1b84 1C33     		adds	r3, r3, #28
 4362 1b86 0293     		str	r3, [sp, #8]
 4363              		.loc 1 2174 0
 4364 1b88 029B     		ldr	r3, [sp, #8]
 4365 1b8a 1A68     		ldr	r2, [r3]	@ float
 4366 1b8c 064B     		ldr	r3, .L231+4
 4367 1b8e 5A61     		str	r2, [r3, #20]	@ float
 4368              	.LBE31:
 4369 1b90 02E0     		b	.L229
 4370              	.L228:
 4371              		.loc 1 2184 0
 4372 1b92 064B     		ldr	r3, .L231+8
 4373 1b94 0022     		movs	r2, #0
 4374 1b96 1A70     		strb	r2, [r3]
 4375              	.L229:
 4376              		.loc 1 2187 0
 4377 1b98 9DF80F30 		ldrb	r3, [sp, #15]	@ zero_extendqisi2
 4378              		.loc 1 2188 0
 4379 1b9c 1846     		mov	r0, r3
 4380 1b9e 04B0     		add	sp, sp, #16
 4381              		@ sp needed
 4382 1ba0 7047     		bx	lr
 4383              	.L232:
 4384 1ba2 00BF     		.align	2
 4385              	.L231:
 4386 1ba4 78563412 		.word	305419896
 4387 1ba8 00000000 		.word	magOffset
ARM GAS  /tmp/ccQpHQw3.s 			page 80


 4388 1bac 36000000 		.word	isCal
 4389              		.cfi_endproc
 4390              	.LFE296:
 4391              		.size	ReCallCalibrationFromMemory, .-ReCallCalibrationFromMemory
 4392              		.bss
 4393              		.align	2
 4394              	tickstart.19044:
 4395 003c 00000000 		.space	4
 4396              		.align	2
 4397              	HowManyButtonPress.19043:
 4398 0040 00000000 		.space	4
 4399              		.align	2
 4400              	CounterEC.19069:
 4401 0044 00000000 		.space	4
 4402              		.align	2
 4403              	CounterFX.19068:
 4404 0048 00000000 		.space	4
 4405              		.align	2
 4406              	calibIndex.19067:
 4407 004c 00000000 		.space	4
 4408              		.align	2
 4409              	quat_axes.19066:
 4410 0050 00000000 		.space	36
 4410      00000000 
 4410      00000000 
 4410      00000000 
 4410      00000000 
 4411              	ActivityCodeStored.19081:
 4412 0074 00       		.space	1
 4413              	CarryPositionCodeStored.19086:
 4414 0075 00       		.space	1
 4415              	GestureRecognitionCodeStored.19091:
 4416 0076 00       		.space	1
 4417 0077 00       		.text
 4418              	.Letext0:
 4419              		.file 3 "/nfs/nfs5/home/research/hardware/arm2/gcc-arm-embedded/gcc-arm-none-eabi-4_8-2014q2/lib/g
 4420              		.file 4 "/nfs/nfs5/home/research/hardware/arm2/gcc-arm-embedded/gcc-arm-none-eabi-4_8-2014q2/arm-n
 4421              		.file 5 "/nfs/nfs5/home/research/hardware/arm2/gcc-arm-embedded/gcc-arm-none-eabi-4_8-2014q2/arm-n
 4422              		.file 6 "../../../../../../ChibiOS/os/ext/CMSIS/ST/STM32L4xx/stm32l476xx.h"
 4423              		.file 7 "../../../../../Drivers/STM32L4xx_HAL_Driver/Inc/stm32l4xx_hal_def.h"
 4424              		.file 8 "../../../../../Drivers/STM32L4xx_HAL_Driver/Inc/stm32l4xx_hal_rcc.h"
 4425              		.file 9 "../../../../../Drivers/STM32L4xx_HAL_Driver/Inc/stm32l4xx_hal_rcc_ex.h"
 4426              		.file 10 "../../../../../Drivers/STM32L4xx_HAL_Driver/Inc/stm32l4xx_hal_dma.h"
 4427              		.file 11 "../../../../../Drivers/STM32L4xx_HAL_Driver/Inc/stm32l4xx_hal_tim.h"
 4428              		.file 12 "../../../../../Drivers/BSP/Components/Common/component.h"
 4429              		.file 13 "../../../../../Drivers/BSP/Components/Common/sensor.h"
 4430              		.file 14 "../../../../../Middlewares/ST/STM32_MetaDataManager/MetaDataManager.h"
 4431              		.file 15 "../../../../../Middlewares/ST/STM32_OSX_MotionFX_Library/Inc/osx_motion_fx.h"
 4432              		.file 16 "../../../../../Middlewares/ST/STM32_OSX_MotionAR_Library/Inc/osx_motion_ar.h"
 4433              		.file 17 "../../../../../Middlewares/ST/STM32_OSX_MotionCP_Library/Inc/osx_motion_cp.h"
 4434              		.file 18 "../../../../../Middlewares/ST/STM32_OSX_MotionGR_Library/Inc/osx_motion_gr.h"
 4435              		.file 19 "../../../../../Projects/Multi/Applications/BlueMicrosystem2/Inc/TargetFeatures.h"
 4436              		.file 20 "../../../../../../ChibiOS/os/rt/ports/ARMCMx/compilers/GCC/chtypes.h"
 4437              		.file 21 "../../../../../../ChibiOS/os/rt/include/chsystypes.h"
 4438              		.file 22 "../../../../../../ChibiOS/os/rt/include/chschd.h"
 4439              		.file 23 "../../../../../../ChibiOS/os/rt/ports/ARMCMx/chcore.h"
 4440              		.file 24 "../../../../../../ChibiOS/os/rt/ports/ARMCMx/chcore_v7m.h"
ARM GAS  /tmp/ccQpHQw3.s 			page 81


 4441              		.file 25 "../../../../../../ChibiOS/os/rt/include/chtm.h"
 4442              		.file 26 "../../../../../../ChibiOS/os/rt/include/chsem.h"
 4443              		.file 27 "../../../../../../ChibiOS/os/rt/include/chmtx.h"
 4444              		.file 28 "../../../../../Projects/Multi/Applications/BlueMicrosystem2/Inc/HWAdvanceFeatures.h"
 4445              		.file 29 "../../../../../../ChibiOS/os/ext/CMSIS/include/core_cm4.h"
 4446              		.file 30 "../../../../../../ChibiOS/os/ext/CMSIS/ST/STM32L4xx/system_stm32l4xx.h"
 4447              		.file 31 "../../../../../Projects/Multi/Applications/BlueMicrosystem2/Inc/AudioBV_Manager.h"
 4448              		.section	.debug_info,"",%progbits
 4449              	.Ldebug_info0:
 4450 0000 CC210000 		.4byte	0x21cc
 4451 0004 0400     		.2byte	0x4
 4452 0006 00000000 		.4byte	.Ldebug_abbrev0
 4453 000a 04       		.byte	0x4
 4454 000b 01       		.uleb128 0x1
 4455 000c F2150000 		.4byte	.LASF539
 4456 0010 01       		.byte	0x1
 4457 0011 260F0000 		.4byte	.LASF540
 4458 0015 980D0000 		.4byte	.LASF541
 4459 0019 00000000 		.4byte	.Ltext0
 4460 001d B01B0000 		.4byte	.Letext0-.Ltext0
 4461 0021 00000000 		.4byte	.Ldebug_line0
 4462 0025 02       		.uleb128 0x2
 4463 0026 32000000 		.4byte	.LASF2
 4464 002a 03       		.byte	0x3
 4465 002b D4       		.byte	0xd4
 4466 002c 30000000 		.4byte	0x30
 4467 0030 03       		.uleb128 0x3
 4468 0031 04       		.byte	0x4
 4469 0032 07       		.byte	0x7
 4470 0033 11100000 		.4byte	.LASF0
 4471 0037 04       		.uleb128 0x4
 4472 0038 04       		.byte	0x4
 4473 0039 05       		.uleb128 0x5
 4474 003a 04       		.byte	0x4
 4475 003b 05       		.byte	0x5
 4476 003c 696E7400 		.ascii	"int\000"
 4477 0040 03       		.uleb128 0x3
 4478 0041 01       		.byte	0x1
 4479 0042 06       		.byte	0x6
 4480 0043 EB040000 		.4byte	.LASF1
 4481 0047 02       		.uleb128 0x2
 4482 0048 AF020000 		.4byte	.LASF3
 4483 004c 04       		.byte	0x4
 4484 004d 1C       		.byte	0x1c
 4485 004e 52000000 		.4byte	0x52
 4486 0052 03       		.uleb128 0x3
 4487 0053 01       		.byte	0x1
 4488 0054 08       		.byte	0x8
 4489 0055 5E110000 		.4byte	.LASF4
 4490 0059 02       		.uleb128 0x2
 4491 005a 5D150000 		.4byte	.LASF5
 4492 005e 04       		.byte	0x4
 4493 005f 25       		.byte	0x25
 4494 0060 64000000 		.4byte	0x64
 4495 0064 03       		.uleb128 0x3
 4496 0065 02       		.byte	0x2
 4497 0066 05       		.byte	0x5
ARM GAS  /tmp/ccQpHQw3.s 			page 82


 4498 0067 D4180000 		.4byte	.LASF6
 4499 006b 02       		.uleb128 0x2
 4500 006c C0070000 		.4byte	.LASF7
 4501 0070 04       		.byte	0x4
 4502 0071 26       		.byte	0x26
 4503 0072 76000000 		.4byte	0x76
 4504 0076 03       		.uleb128 0x3
 4505 0077 02       		.byte	0x2
 4506 0078 07       		.byte	0x7
 4507 0079 611B0000 		.4byte	.LASF8
 4508 007d 02       		.uleb128 0x2
 4509 007e F51B0000 		.4byte	.LASF9
 4510 0082 04       		.byte	0x4
 4511 0083 37       		.byte	0x37
 4512 0084 88000000 		.4byte	0x88
 4513 0088 03       		.uleb128 0x3
 4514 0089 04       		.byte	0x4
 4515 008a 05       		.byte	0x5
 4516 008b 33030000 		.4byte	.LASF10
 4517 008f 02       		.uleb128 0x2
 4518 0090 8C0B0000 		.4byte	.LASF11
 4519 0094 04       		.byte	0x4
 4520 0095 38       		.byte	0x38
 4521 0096 9A000000 		.4byte	0x9a
 4522 009a 03       		.uleb128 0x3
 4523 009b 04       		.byte	0x4
 4524 009c 07       		.byte	0x7
 4525 009d 4C0B0000 		.4byte	.LASF12
 4526 00a1 03       		.uleb128 0x3
 4527 00a2 08       		.byte	0x8
 4528 00a3 05       		.byte	0x5
 4529 00a4 2A0E0000 		.4byte	.LASF13
 4530 00a8 02       		.uleb128 0x2
 4531 00a9 250B0000 		.4byte	.LASF14
 4532 00ad 04       		.byte	0x4
 4533 00ae 4E       		.byte	0x4e
 4534 00af B3000000 		.4byte	0xb3
 4535 00b3 03       		.uleb128 0x3
 4536 00b4 08       		.byte	0x8
 4537 00b5 07       		.byte	0x7
 4538 00b6 45130000 		.4byte	.LASF15
 4539 00ba 03       		.uleb128 0x3
 4540 00bb 04       		.byte	0x4
 4541 00bc 07       		.byte	0x7
 4542 00bd 39000000 		.4byte	.LASF16
 4543 00c1 03       		.uleb128 0x3
 4544 00c2 01       		.byte	0x1
 4545 00c3 08       		.byte	0x8
 4546 00c4 7D070000 		.4byte	.LASF17
 4547 00c8 06       		.uleb128 0x6
 4548 00c9 04       		.byte	0x4
 4549 00ca CE000000 		.4byte	0xce
 4550 00ce 07       		.uleb128 0x7
 4551 00cf C1000000 		.4byte	0xc1
 4552 00d3 08       		.uleb128 0x8
 4553 00d4 C1000000 		.4byte	0xc1
 4554 00d8 E3000000 		.4byte	0xe3
ARM GAS  /tmp/ccQpHQw3.s 			page 83


 4555 00dc 09       		.uleb128 0x9
 4556 00dd BA000000 		.4byte	0xba
 4557 00e1 07       		.byte	0x7
 4558 00e2 00       		.byte	0
 4559 00e3 03       		.uleb128 0x3
 4560 00e4 08       		.byte	0x8
 4561 00e5 04       		.byte	0x4
 4562 00e6 A50E0000 		.4byte	.LASF18
 4563 00ea 03       		.uleb128 0x3
 4564 00eb 04       		.byte	0x4
 4565 00ec 04       		.byte	0x4
 4566 00ed 730F0000 		.4byte	.LASF19
 4567 00f1 03       		.uleb128 0x3
 4568 00f2 08       		.byte	0x8
 4569 00f3 04       		.byte	0x4
 4570 00f4 FB110000 		.4byte	.LASF20
 4571 00f8 02       		.uleb128 0x2
 4572 00f9 01050000 		.4byte	.LASF21
 4573 00fd 05       		.byte	0x5
 4574 00fe 2A       		.byte	0x2a
 4575 00ff 47000000 		.4byte	0x47
 4576 0103 02       		.uleb128 0x2
 4577 0104 1C190000 		.4byte	.LASF22
 4578 0108 05       		.byte	0x5
 4579 0109 35       		.byte	0x35
 4580 010a 59000000 		.4byte	0x59
 4581 010e 02       		.uleb128 0x2
 4582 010f 8A060000 		.4byte	.LASF23
 4583 0113 05       		.byte	0x5
 4584 0114 36       		.byte	0x36
 4585 0115 6B000000 		.4byte	0x6b
 4586 0119 02       		.uleb128 0x2
 4587 011a AB000000 		.4byte	.LASF24
 4588 011e 05       		.byte	0x5
 4589 011f 41       		.byte	0x41
 4590 0120 7D000000 		.4byte	0x7d
 4591 0124 02       		.uleb128 0x2
 4592 0125 AF1A0000 		.4byte	.LASF25
 4593 0129 05       		.byte	0x5
 4594 012a 42       		.byte	0x42
 4595 012b 8F000000 		.4byte	0x8f
 4596 012f 02       		.uleb128 0x2
 4597 0130 DE180000 		.4byte	.LASF26
 4598 0134 05       		.byte	0x5
 4599 0135 4E       		.byte	0x4e
 4600 0136 A8000000 		.4byte	0xa8
 4601 013a 0A       		.uleb128 0xa
 4602 013b 24010000 		.4byte	0x124
 4603 013f 08       		.uleb128 0x8
 4604 0140 F8000000 		.4byte	0xf8
 4605 0144 4F010000 		.4byte	0x14f
 4606 0148 09       		.uleb128 0x9
 4607 0149 BA000000 		.4byte	0xba
 4608 014d 0B       		.byte	0xb
 4609 014e 00       		.byte	0
 4610 014f 0A       		.uleb128 0xa
 4611 0150 F8000000 		.4byte	0xf8
ARM GAS  /tmp/ccQpHQw3.s 			page 84


 4612 0154 0B       		.uleb128 0xb
 4613 0155 10       		.byte	0x10
 4614 0156 06       		.byte	0x6
 4615 0157 A701     		.2byte	0x1a7
 4616 0159 92010000 		.4byte	0x192
 4617 015d 0C       		.uleb128 0xc
 4618 015e 43435200 		.ascii	"CCR\000"
 4619 0162 06       		.byte	0x6
 4620 0163 A901     		.2byte	0x1a9
 4621 0165 3A010000 		.4byte	0x13a
 4622 0169 00       		.byte	0
 4623 016a 0D       		.uleb128 0xd
 4624 016b 17020000 		.4byte	.LASF27
 4625 016f 06       		.byte	0x6
 4626 0170 AA01     		.2byte	0x1aa
 4627 0172 3A010000 		.4byte	0x13a
 4628 0176 04       		.byte	0x4
 4629 0177 0D       		.uleb128 0xd
 4630 0178 E6040000 		.4byte	.LASF28
 4631 017c 06       		.byte	0x6
 4632 017d AB01     		.2byte	0x1ab
 4633 017f 3A010000 		.4byte	0x13a
 4634 0183 08       		.byte	0x8
 4635 0184 0D       		.uleb128 0xd
 4636 0185 E5100000 		.4byte	.LASF29
 4637 0189 06       		.byte	0x6
 4638 018a AC01     		.2byte	0x1ac
 4639 018c 3A010000 		.4byte	0x13a
 4640 0190 0C       		.byte	0xc
 4641 0191 00       		.byte	0
 4642 0192 0E       		.uleb128 0xe
 4643 0193 CF120000 		.4byte	.LASF30
 4644 0197 06       		.byte	0x6
 4645 0198 AD01     		.2byte	0x1ad
 4646 019a 54010000 		.4byte	0x154
 4647 019e 0B       		.uleb128 0xb
 4648 019f 08       		.byte	0x8
 4649 01a0 06       		.byte	0x6
 4650 01a1 AF01     		.2byte	0x1af
 4651 01a3 C2010000 		.4byte	0x1c2
 4652 01a7 0C       		.uleb128 0xc
 4653 01a8 49535200 		.ascii	"ISR\000"
 4654 01ac 06       		.byte	0x6
 4655 01ad B101     		.2byte	0x1b1
 4656 01af 3A010000 		.4byte	0x13a
 4657 01b3 00       		.byte	0
 4658 01b4 0D       		.uleb128 0xd
 4659 01b5 A2070000 		.4byte	.LASF31
 4660 01b9 06       		.byte	0x6
 4661 01ba B201     		.2byte	0x1b2
 4662 01bc 3A010000 		.4byte	0x13a
 4663 01c0 04       		.byte	0x4
 4664 01c1 00       		.byte	0
 4665 01c2 0E       		.uleb128 0xe
 4666 01c3 B9020000 		.4byte	.LASF32
 4667 01c7 06       		.byte	0x6
 4668 01c8 B301     		.2byte	0x1b3
ARM GAS  /tmp/ccQpHQw3.s 			page 85


 4669 01ca 9E010000 		.4byte	0x19e
 4670 01ce 08       		.uleb128 0x8
 4671 01cf 24010000 		.4byte	0x124
 4672 01d3 DE010000 		.4byte	0x1de
 4673 01d7 09       		.uleb128 0x9
 4674 01d8 BA000000 		.4byte	0xba
 4675 01dc 0F       		.byte	0xf
 4676 01dd 00       		.byte	0
 4677 01de 0B       		.uleb128 0xb
 4678 01df 98       		.byte	0x98
 4679 01e0 06       		.byte	0x6
 4680 01e1 C002     		.2byte	0x2c0
 4681 01e3 D5030000 		.4byte	0x3d5
 4682 01e7 0C       		.uleb128 0xc
 4683 01e8 435200   		.ascii	"CR\000"
 4684 01eb 06       		.byte	0x6
 4685 01ec C202     		.2byte	0x2c2
 4686 01ee 3A010000 		.4byte	0x13a
 4687 01f2 00       		.byte	0
 4688 01f3 0D       		.uleb128 0xd
 4689 01f4 CC020000 		.4byte	.LASF33
 4690 01f8 06       		.byte	0x6
 4691 01f9 C302     		.2byte	0x2c3
 4692 01fb 3A010000 		.4byte	0x13a
 4693 01ff 04       		.byte	0x4
 4694 0200 0D       		.uleb128 0xd
 4695 0201 400A0000 		.4byte	.LASF34
 4696 0205 06       		.byte	0x6
 4697 0206 C402     		.2byte	0x2c4
 4698 0208 3A010000 		.4byte	0x13a
 4699 020c 08       		.byte	0x8
 4700 020d 0D       		.uleb128 0xd
 4701 020e 290D0000 		.4byte	.LASF35
 4702 0212 06       		.byte	0x6
 4703 0213 C502     		.2byte	0x2c5
 4704 0215 3A010000 		.4byte	0x13a
 4705 0219 0C       		.byte	0xc
 4706 021a 0D       		.uleb128 0xd
 4707 021b 551B0000 		.4byte	.LASF36
 4708 021f 06       		.byte	0x6
 4709 0220 C602     		.2byte	0x2c6
 4710 0222 3A010000 		.4byte	0x13a
 4711 0226 10       		.byte	0x10
 4712 0227 0D       		.uleb128 0xd
 4713 0228 B2010000 		.4byte	.LASF37
 4714 022c 06       		.byte	0x6
 4715 022d C702     		.2byte	0x2c7
 4716 022f 3A010000 		.4byte	0x13a
 4717 0233 14       		.byte	0x14
 4718 0234 0D       		.uleb128 0xd
 4719 0235 011B0000 		.4byte	.LASF38
 4720 0239 06       		.byte	0x6
 4721 023a C802     		.2byte	0x2c8
 4722 023c 3A010000 		.4byte	0x13a
 4723 0240 18       		.byte	0x18
 4724 0241 0D       		.uleb128 0xd
 4725 0242 F01B0000 		.4byte	.LASF39
ARM GAS  /tmp/ccQpHQw3.s 			page 86


 4726 0246 06       		.byte	0x6
 4727 0247 C902     		.2byte	0x2c9
 4728 0249 3A010000 		.4byte	0x13a
 4729 024d 1C       		.byte	0x1c
 4730 024e 0D       		.uleb128 0xd
 4731 024f 61190000 		.4byte	.LASF40
 4732 0253 06       		.byte	0x6
 4733 0254 CA02     		.2byte	0x2ca
 4734 0256 3A010000 		.4byte	0x13a
 4735 025a 20       		.byte	0x20
 4736 025b 0D       		.uleb128 0xd
 4737 025c 87050000 		.4byte	.LASF41
 4738 0260 06       		.byte	0x6
 4739 0261 CB02     		.2byte	0x2cb
 4740 0263 24010000 		.4byte	0x124
 4741 0267 24       		.byte	0x24
 4742 0268 0D       		.uleb128 0xd
 4743 0269 A7070000 		.4byte	.LASF42
 4744 026d 06       		.byte	0x6
 4745 026e CC02     		.2byte	0x2cc
 4746 0270 3A010000 		.4byte	0x13a
 4747 0274 28       		.byte	0x28
 4748 0275 0D       		.uleb128 0xd
 4749 0276 0C180000 		.4byte	.LASF43
 4750 027a 06       		.byte	0x6
 4751 027b CD02     		.2byte	0x2cd
 4752 027d 3A010000 		.4byte	0x13a
 4753 0281 2C       		.byte	0x2c
 4754 0282 0D       		.uleb128 0xd
 4755 0283 E9110000 		.4byte	.LASF44
 4756 0287 06       		.byte	0x6
 4757 0288 CE02     		.2byte	0x2ce
 4758 028a 3A010000 		.4byte	0x13a
 4759 028e 30       		.byte	0x30
 4760 028f 0D       		.uleb128 0xd
 4761 0290 91050000 		.4byte	.LASF45
 4762 0294 06       		.byte	0x6
 4763 0295 CF02     		.2byte	0x2cf
 4764 0297 24010000 		.4byte	0x124
 4765 029b 34       		.byte	0x34
 4766 029c 0D       		.uleb128 0xd
 4767 029d F0080000 		.4byte	.LASF46
 4768 02a1 06       		.byte	0x6
 4769 02a2 D002     		.2byte	0x2d0
 4770 02a4 3A010000 		.4byte	0x13a
 4771 02a8 38       		.byte	0x38
 4772 02a9 0D       		.uleb128 0xd
 4773 02aa FA080000 		.4byte	.LASF47
 4774 02ae 06       		.byte	0x6
 4775 02af D102     		.2byte	0x2d1
 4776 02b1 3A010000 		.4byte	0x13a
 4777 02b5 3C       		.byte	0x3c
 4778 02b6 0D       		.uleb128 0xd
 4779 02b7 CB0E0000 		.4byte	.LASF48
 4780 02bb 06       		.byte	0x6
 4781 02bc D202     		.2byte	0x2d2
 4782 02be 3A010000 		.4byte	0x13a
ARM GAS  /tmp/ccQpHQw3.s 			page 87


 4783 02c2 40       		.byte	0x40
 4784 02c3 0D       		.uleb128 0xd
 4785 02c4 9B050000 		.4byte	.LASF49
 4786 02c8 06       		.byte	0x6
 4787 02c9 D302     		.2byte	0x2d3
 4788 02cb 24010000 		.4byte	0x124
 4789 02cf 44       		.byte	0x44
 4790 02d0 0D       		.uleb128 0xd
 4791 02d1 63170000 		.4byte	.LASF50
 4792 02d5 06       		.byte	0x6
 4793 02d6 D402     		.2byte	0x2d4
 4794 02d8 3A010000 		.4byte	0x13a
 4795 02dc 48       		.byte	0x48
 4796 02dd 0D       		.uleb128 0xd
 4797 02de CB070000 		.4byte	.LASF51
 4798 02e2 06       		.byte	0x6
 4799 02e3 D502     		.2byte	0x2d5
 4800 02e5 3A010000 		.4byte	0x13a
 4801 02e9 4C       		.byte	0x4c
 4802 02ea 0D       		.uleb128 0xd
 4803 02eb C8170000 		.4byte	.LASF52
 4804 02ef 06       		.byte	0x6
 4805 02f0 D602     		.2byte	0x2d6
 4806 02f2 3A010000 		.4byte	0x13a
 4807 02f6 50       		.byte	0x50
 4808 02f7 0D       		.uleb128 0xd
 4809 02f8 A5050000 		.4byte	.LASF53
 4810 02fc 06       		.byte	0x6
 4811 02fd D702     		.2byte	0x2d7
 4812 02ff 24010000 		.4byte	0x124
 4813 0303 54       		.byte	0x54
 4814 0304 0D       		.uleb128 0xd
 4815 0305 64000000 		.4byte	.LASF54
 4816 0309 06       		.byte	0x6
 4817 030a D802     		.2byte	0x2d8
 4818 030c 3A010000 		.4byte	0x13a
 4819 0310 58       		.byte	0x58
 4820 0311 0D       		.uleb128 0xd
 4821 0312 6D000000 		.4byte	.LASF55
 4822 0316 06       		.byte	0x6
 4823 0317 D902     		.2byte	0x2d9
 4824 0319 3A010000 		.4byte	0x13a
 4825 031d 5C       		.byte	0x5c
 4826 031e 0D       		.uleb128 0xd
 4827 031f 061C0000 		.4byte	.LASF56
 4828 0323 06       		.byte	0x6
 4829 0324 DA02     		.2byte	0x2da
 4830 0326 3A010000 		.4byte	0x13a
 4831 032a 60       		.byte	0x60
 4832 032b 0D       		.uleb128 0xd
 4833 032c AF050000 		.4byte	.LASF57
 4834 0330 06       		.byte	0x6
 4835 0331 DB02     		.2byte	0x2db
 4836 0333 24010000 		.4byte	0x124
 4837 0337 64       		.byte	0x64
 4838 0338 0D       		.uleb128 0xd
 4839 0339 EC1A0000 		.4byte	.LASF58
ARM GAS  /tmp/ccQpHQw3.s 			page 88


 4840 033d 06       		.byte	0x6
 4841 033e DC02     		.2byte	0x2dc
 4842 0340 3A010000 		.4byte	0x13a
 4843 0344 68       		.byte	0x68
 4844 0345 0D       		.uleb128 0xd
 4845 0346 770B0000 		.4byte	.LASF59
 4846 034a 06       		.byte	0x6
 4847 034b DD02     		.2byte	0x2dd
 4848 034d 3A010000 		.4byte	0x13a
 4849 0351 6C       		.byte	0x6c
 4850 0352 0D       		.uleb128 0xd
 4851 0353 07170000 		.4byte	.LASF60
 4852 0357 06       		.byte	0x6
 4853 0358 DE02     		.2byte	0x2de
 4854 035a 3A010000 		.4byte	0x13a
 4855 035e 70       		.byte	0x70
 4856 035f 0D       		.uleb128 0xd
 4857 0360 EF070000 		.4byte	.LASF61
 4858 0364 06       		.byte	0x6
 4859 0365 DF02     		.2byte	0x2df
 4860 0367 24010000 		.4byte	0x124
 4861 036b 74       		.byte	0x74
 4862 036c 0D       		.uleb128 0xd
 4863 036d 66190000 		.4byte	.LASF62
 4864 0371 06       		.byte	0x6
 4865 0372 E002     		.2byte	0x2e0
 4866 0374 3A010000 		.4byte	0x13a
 4867 0378 78       		.byte	0x78
 4868 0379 0D       		.uleb128 0xd
 4869 037a 71190000 		.4byte	.LASF63
 4870 037e 06       		.byte	0x6
 4871 037f E102     		.2byte	0x2e1
 4872 0381 3A010000 		.4byte	0x13a
 4873 0385 7C       		.byte	0x7c
 4874 0386 0D       		.uleb128 0xd
 4875 0387 C51B0000 		.4byte	.LASF64
 4876 038b 06       		.byte	0x6
 4877 038c E202     		.2byte	0x2e2
 4878 038e 3A010000 		.4byte	0x13a
 4879 0392 80       		.byte	0x80
 4880 0393 0D       		.uleb128 0xd
 4881 0394 C8050000 		.4byte	.LASF65
 4882 0398 06       		.byte	0x6
 4883 0399 E302     		.2byte	0x2e3
 4884 039b 24010000 		.4byte	0x124
 4885 039f 84       		.byte	0x84
 4886 03a0 0D       		.uleb128 0xd
 4887 03a1 1F0B0000 		.4byte	.LASF66
 4888 03a5 06       		.byte	0x6
 4889 03a6 E402     		.2byte	0x2e4
 4890 03a8 3A010000 		.4byte	0x13a
 4891 03ac 88       		.byte	0x88
 4892 03ad 0D       		.uleb128 0xd
 4893 03ae D2050000 		.4byte	.LASF67
 4894 03b2 06       		.byte	0x6
 4895 03b3 E502     		.2byte	0x2e5
 4896 03b5 3A010000 		.4byte	0x13a
ARM GAS  /tmp/ccQpHQw3.s 			page 89


 4897 03b9 8C       		.byte	0x8c
 4898 03ba 0D       		.uleb128 0xd
 4899 03bb 56090000 		.4byte	.LASF68
 4900 03bf 06       		.byte	0x6
 4901 03c0 E602     		.2byte	0x2e6
 4902 03c2 3A010000 		.4byte	0x13a
 4903 03c6 90       		.byte	0x90
 4904 03c7 0C       		.uleb128 0xc
 4905 03c8 43535200 		.ascii	"CSR\000"
 4906 03cc 06       		.byte	0x6
 4907 03cd E702     		.2byte	0x2e7
 4908 03cf 3A010000 		.4byte	0x13a
 4909 03d3 94       		.byte	0x94
 4910 03d4 00       		.byte	0
 4911 03d5 0E       		.uleb128 0xe
 4912 03d6 C8180000 		.4byte	.LASF69
 4913 03da 06       		.byte	0x6
 4914 03db E802     		.2byte	0x2e8
 4915 03dd DE010000 		.4byte	0x1de
 4916 03e1 0B       		.uleb128 0xb
 4917 03e2 68       		.byte	0x68
 4918 03e3 06       		.byte	0x6
 4919 03e4 9303     		.2byte	0x393
 4920 03e6 3C050000 		.4byte	0x53c
 4921 03ea 0C       		.uleb128 0xc
 4922 03eb 43523100 		.ascii	"CR1\000"
 4923 03ef 06       		.byte	0x6
 4924 03f0 9503     		.2byte	0x395
 4925 03f2 3A010000 		.4byte	0x13a
 4926 03f6 00       		.byte	0
 4927 03f7 0C       		.uleb128 0xc
 4928 03f8 43523200 		.ascii	"CR2\000"
 4929 03fc 06       		.byte	0x6
 4930 03fd 9603     		.2byte	0x396
 4931 03ff 3A010000 		.4byte	0x13a
 4932 0403 04       		.byte	0x4
 4933 0404 0D       		.uleb128 0xd
 4934 0405 48150000 		.4byte	.LASF70
 4935 0409 06       		.byte	0x6
 4936 040a 9703     		.2byte	0x397
 4937 040c 3A010000 		.4byte	0x13a
 4938 0410 08       		.byte	0x8
 4939 0411 0D       		.uleb128 0xd
 4940 0412 970B0000 		.4byte	.LASF71
 4941 0416 06       		.byte	0x6
 4942 0417 9803     		.2byte	0x398
 4943 0419 3A010000 		.4byte	0x13a
 4944 041d 0C       		.byte	0xc
 4945 041e 0C       		.uleb128 0xc
 4946 041f 535200   		.ascii	"SR\000"
 4947 0422 06       		.byte	0x6
 4948 0423 9903     		.2byte	0x399
 4949 0425 3A010000 		.4byte	0x13a
 4950 0429 10       		.byte	0x10
 4951 042a 0C       		.uleb128 0xc
 4952 042b 45475200 		.ascii	"EGR\000"
 4953 042f 06       		.byte	0x6
ARM GAS  /tmp/ccQpHQw3.s 			page 90


 4954 0430 9A03     		.2byte	0x39a
 4955 0432 3A010000 		.4byte	0x13a
 4956 0436 14       		.byte	0x14
 4957 0437 0D       		.uleb128 0xd
 4958 0438 9B100000 		.4byte	.LASF72
 4959 043c 06       		.byte	0x6
 4960 043d 9B03     		.2byte	0x39b
 4961 043f 3A010000 		.4byte	0x13a
 4962 0443 18       		.byte	0x18
 4963 0444 0D       		.uleb128 0xd
 4964 0445 71070000 		.4byte	.LASF73
 4965 0449 06       		.byte	0x6
 4966 044a 9C03     		.2byte	0x39c
 4967 044c 3A010000 		.4byte	0x13a
 4968 0450 1C       		.byte	0x1c
 4969 0451 0D       		.uleb128 0xd
 4970 0452 841A0000 		.4byte	.LASF74
 4971 0456 06       		.byte	0x6
 4972 0457 9D03     		.2byte	0x39d
 4973 0459 3A010000 		.4byte	0x13a
 4974 045d 20       		.byte	0x20
 4975 045e 0C       		.uleb128 0xc
 4976 045f 434E5400 		.ascii	"CNT\000"
 4977 0463 06       		.byte	0x6
 4978 0464 9E03     		.2byte	0x39e
 4979 0466 3A010000 		.4byte	0x13a
 4980 046a 24       		.byte	0x24
 4981 046b 0C       		.uleb128 0xc
 4982 046c 50534300 		.ascii	"PSC\000"
 4983 0470 06       		.byte	0x6
 4984 0471 9F03     		.2byte	0x39f
 4985 0473 3A010000 		.4byte	0x13a
 4986 0477 28       		.byte	0x28
 4987 0478 0C       		.uleb128 0xc
 4988 0479 41525200 		.ascii	"ARR\000"
 4989 047d 06       		.byte	0x6
 4990 047e A003     		.2byte	0x3a0
 4991 0480 3A010000 		.4byte	0x13a
 4992 0484 2C       		.byte	0x2c
 4993 0485 0C       		.uleb128 0xc
 4994 0486 52435200 		.ascii	"RCR\000"
 4995 048a 06       		.byte	0x6
 4996 048b A103     		.2byte	0x3a1
 4997 048d 3A010000 		.4byte	0x13a
 4998 0491 30       		.byte	0x30
 4999 0492 0D       		.uleb128 0xd
 5000 0493 91020000 		.4byte	.LASF75
 5001 0497 06       		.byte	0x6
 5002 0498 A203     		.2byte	0x3a2
 5003 049a 3A010000 		.4byte	0x13a
 5004 049e 34       		.byte	0x34
 5005 049f 0D       		.uleb128 0xd
 5006 04a0 96020000 		.4byte	.LASF76
 5007 04a4 06       		.byte	0x6
 5008 04a5 A303     		.2byte	0x3a3
 5009 04a7 3A010000 		.4byte	0x13a
 5010 04ab 38       		.byte	0x38
ARM GAS  /tmp/ccQpHQw3.s 			page 91


 5011 04ac 0D       		.uleb128 0xd
 5012 04ad 9B020000 		.4byte	.LASF77
 5013 04b1 06       		.byte	0x6
 5014 04b2 A403     		.2byte	0x3a4
 5015 04b4 3A010000 		.4byte	0x13a
 5016 04b8 3C       		.byte	0x3c
 5017 04b9 0D       		.uleb128 0xd
 5018 04ba A0020000 		.4byte	.LASF78
 5019 04be 06       		.byte	0x6
 5020 04bf A503     		.2byte	0x3a5
 5021 04c1 3A010000 		.4byte	0x13a
 5022 04c5 40       		.byte	0x40
 5023 04c6 0D       		.uleb128 0xd
 5024 04c7 891A0000 		.4byte	.LASF79
 5025 04cb 06       		.byte	0x6
 5026 04cc A603     		.2byte	0x3a6
 5027 04ce 3A010000 		.4byte	0x13a
 5028 04d2 44       		.byte	0x44
 5029 04d3 0C       		.uleb128 0xc
 5030 04d4 44435200 		.ascii	"DCR\000"
 5031 04d8 06       		.byte	0x6
 5032 04d9 A703     		.2byte	0x3a7
 5033 04db 3A010000 		.4byte	0x13a
 5034 04df 48       		.byte	0x48
 5035 04e0 0D       		.uleb128 0xd
 5036 04e1 48020000 		.4byte	.LASF80
 5037 04e5 06       		.byte	0x6
 5038 04e6 A803     		.2byte	0x3a8
 5039 04e8 3A010000 		.4byte	0x13a
 5040 04ec 4C       		.byte	0x4c
 5041 04ed 0C       		.uleb128 0xc
 5042 04ee 4F523100 		.ascii	"OR1\000"
 5043 04f2 06       		.byte	0x6
 5044 04f3 A903     		.2byte	0x3a9
 5045 04f5 3A010000 		.4byte	0x13a
 5046 04f9 50       		.byte	0x50
 5047 04fa 0D       		.uleb128 0xd
 5048 04fb 77070000 		.4byte	.LASF81
 5049 04ff 06       		.byte	0x6
 5050 0500 AA03     		.2byte	0x3aa
 5051 0502 3A010000 		.4byte	0x13a
 5052 0506 54       		.byte	0x54
 5053 0507 0D       		.uleb128 0xd
 5054 0508 A5020000 		.4byte	.LASF82
 5055 050c 06       		.byte	0x6
 5056 050d AB03     		.2byte	0x3ab
 5057 050f 3A010000 		.4byte	0x13a
 5058 0513 58       		.byte	0x58
 5059 0514 0D       		.uleb128 0xd
 5060 0515 B5110000 		.4byte	.LASF83
 5061 0519 06       		.byte	0x6
 5062 051a AC03     		.2byte	0x3ac
 5063 051c 3A010000 		.4byte	0x13a
 5064 0520 5C       		.byte	0x5c
 5065 0521 0C       		.uleb128 0xc
 5066 0522 4F523200 		.ascii	"OR2\000"
 5067 0526 06       		.byte	0x6
ARM GAS  /tmp/ccQpHQw3.s 			page 92


 5068 0527 AD03     		.2byte	0x3ad
 5069 0529 3A010000 		.4byte	0x13a
 5070 052d 60       		.byte	0x60
 5071 052e 0C       		.uleb128 0xc
 5072 052f 4F523300 		.ascii	"OR3\000"
 5073 0533 06       		.byte	0x6
 5074 0534 AE03     		.2byte	0x3ae
 5075 0536 3A010000 		.4byte	0x13a
 5076 053a 64       		.byte	0x64
 5077 053b 00       		.byte	0
 5078 053c 0E       		.uleb128 0xe
 5079 053d 6A050000 		.4byte	.LASF84
 5080 0541 06       		.byte	0x6
 5081 0542 AF03     		.2byte	0x3af
 5082 0544 E1030000 		.4byte	0x3e1
 5083 0548 0F       		.uleb128 0xf
 5084 0549 01       		.byte	0x1
 5085 054a 07       		.byte	0x7
 5086 054b 3A       		.byte	0x3a
 5087 054c 69050000 		.4byte	0x569
 5088 0550 10       		.uleb128 0x10
 5089 0551 25050000 		.4byte	.LASF85
 5090 0555 00       		.sleb128 0
 5091 0556 10       		.uleb128 0x10
 5092 0557 0F140000 		.4byte	.LASF86
 5093 055b 01       		.sleb128 1
 5094 055c 10       		.uleb128 0x10
 5095 055d A3120000 		.4byte	.LASF87
 5096 0561 02       		.sleb128 2
 5097 0562 10       		.uleb128 0x10
 5098 0563 491B0000 		.4byte	.LASF88
 5099 0567 03       		.sleb128 3
 5100 0568 00       		.byte	0
 5101 0569 0F       		.uleb128 0xf
 5102 056a 01       		.byte	0x1
 5103 056b 07       		.byte	0x7
 5104 056c 45       		.byte	0x45
 5105 056d 7E050000 		.4byte	0x57e
 5106 0571 10       		.uleb128 0x10
 5107 0572 83140000 		.4byte	.LASF89
 5108 0576 00       		.sleb128 0
 5109 0577 10       		.uleb128 0x10
 5110 0578 371B0000 		.4byte	.LASF90
 5111 057c 01       		.sleb128 1
 5112 057d 00       		.byte	0
 5113 057e 02       		.uleb128 0x2
 5114 057f 2A040000 		.4byte	.LASF91
 5115 0583 07       		.byte	0x7
 5116 0584 48       		.byte	0x48
 5117 0585 69050000 		.4byte	0x569
 5118 0589 11       		.uleb128 0x11
 5119 058a 1C       		.byte	0x1c
 5120 058b 08       		.byte	0x8
 5121 058c 41       		.byte	0x41
 5122 058d E6050000 		.4byte	0x5e6
 5123 0591 12       		.uleb128 0x12
 5124 0592 92100000 		.4byte	.LASF92
ARM GAS  /tmp/ccQpHQw3.s 			page 93


 5125 0596 08       		.byte	0x8
 5126 0597 43       		.byte	0x43
 5127 0598 24010000 		.4byte	0x124
 5128 059c 00       		.byte	0
 5129 059d 12       		.uleb128 0x12
 5130 059e 150B0000 		.4byte	.LASF93
 5131 05a2 08       		.byte	0x8
 5132 05a3 46       		.byte	0x46
 5133 05a4 24010000 		.4byte	0x124
 5134 05a8 04       		.byte	0x4
 5135 05a9 12       		.uleb128 0x12
 5136 05aa E2020000 		.4byte	.LASF94
 5137 05ae 08       		.byte	0x8
 5138 05af 49       		.byte	0x49
 5139 05b0 24010000 		.4byte	0x124
 5140 05b4 08       		.byte	0x8
 5141 05b5 12       		.uleb128 0x12
 5142 05b6 8D080000 		.4byte	.LASF95
 5143 05ba 08       		.byte	0x8
 5144 05bb 4C       		.byte	0x4c
 5145 05bc 24010000 		.4byte	0x124
 5146 05c0 0C       		.byte	0xc
 5147 05c1 12       		.uleb128 0x12
 5148 05c2 92080000 		.4byte	.LASF96
 5149 05c6 08       		.byte	0x8
 5150 05c7 4F       		.byte	0x4f
 5151 05c8 24010000 		.4byte	0x124
 5152 05cc 10       		.byte	0x10
 5153 05cd 12       		.uleb128 0x12
 5154 05ce 97080000 		.4byte	.LASF97
 5155 05d2 08       		.byte	0x8
 5156 05d3 52       		.byte	0x52
 5157 05d4 24010000 		.4byte	0x124
 5158 05d8 14       		.byte	0x14
 5159 05d9 12       		.uleb128 0x12
 5160 05da 9C080000 		.4byte	.LASF98
 5161 05de 08       		.byte	0x8
 5162 05df 55       		.byte	0x55
 5163 05e0 24010000 		.4byte	0x124
 5164 05e4 18       		.byte	0x18
 5165 05e5 00       		.byte	0
 5166 05e6 02       		.uleb128 0x2
 5167 05e7 4A140000 		.4byte	.LASF99
 5168 05eb 08       		.byte	0x8
 5169 05ec 59       		.byte	0x59
 5170 05ed 89050000 		.4byte	0x589
 5171 05f1 11       		.uleb128 0x11
 5172 05f2 44       		.byte	0x44
 5173 05f3 08       		.byte	0x8
 5174 05f4 5E       		.byte	0x5e
 5175 05f5 7E060000 		.4byte	0x67e
 5176 05f9 12       		.uleb128 0x12
 5177 05fa CF1B0000 		.4byte	.LASF100
 5178 05fe 08       		.byte	0x8
 5179 05ff 60       		.byte	0x60
 5180 0600 24010000 		.4byte	0x124
 5181 0604 00       		.byte	0
ARM GAS  /tmp/ccQpHQw3.s 			page 94


 5182 0605 12       		.uleb128 0x12
 5183 0606 1E100000 		.4byte	.LASF101
 5184 060a 08       		.byte	0x8
 5185 060b 63       		.byte	0x63
 5186 060c 24010000 		.4byte	0x124
 5187 0610 04       		.byte	0x4
 5188 0611 12       		.uleb128 0x12
 5189 0612 23010000 		.4byte	.LASF102
 5190 0616 08       		.byte	0x8
 5191 0617 66       		.byte	0x66
 5192 0618 24010000 		.4byte	0x124
 5193 061c 08       		.byte	0x8
 5194 061d 12       		.uleb128 0x12
 5195 061e B6060000 		.4byte	.LASF103
 5196 0622 08       		.byte	0x8
 5197 0623 69       		.byte	0x69
 5198 0624 24010000 		.4byte	0x124
 5199 0628 0C       		.byte	0xc
 5200 0629 12       		.uleb128 0x12
 5201 062a B9160000 		.4byte	.LASF104
 5202 062e 08       		.byte	0x8
 5203 062f 6C       		.byte	0x6c
 5204 0630 24010000 		.4byte	0x124
 5205 0634 10       		.byte	0x10
 5206 0635 12       		.uleb128 0x12
 5207 0636 2C050000 		.4byte	.LASF105
 5208 063a 08       		.byte	0x8
 5209 063b 70       		.byte	0x70
 5210 063c 24010000 		.4byte	0x124
 5211 0640 14       		.byte	0x14
 5212 0641 12       		.uleb128 0x12
 5213 0642 58190000 		.4byte	.LASF106
 5214 0646 08       		.byte	0x8
 5215 0647 73       		.byte	0x73
 5216 0648 24010000 		.4byte	0x124
 5217 064c 18       		.byte	0x18
 5218 064d 12       		.uleb128 0x12
 5219 064e 790F0000 		.4byte	.LASF107
 5220 0652 08       		.byte	0x8
 5221 0653 76       		.byte	0x76
 5222 0654 24010000 		.4byte	0x124
 5223 0658 1C       		.byte	0x1c
 5224 0659 12       		.uleb128 0x12
 5225 065a D1090000 		.4byte	.LASF108
 5226 065e 08       		.byte	0x8
 5227 065f 79       		.byte	0x79
 5228 0660 24010000 		.4byte	0x124
 5229 0664 20       		.byte	0x20
 5230 0665 12       		.uleb128 0x12
 5231 0666 F10B0000 		.4byte	.LASF109
 5232 066a 08       		.byte	0x8
 5233 066b 7C       		.byte	0x7c
 5234 066c 24010000 		.4byte	0x124
 5235 0670 24       		.byte	0x24
 5236 0671 13       		.uleb128 0x13
 5237 0672 504C4C00 		.ascii	"PLL\000"
 5238 0676 08       		.byte	0x8
ARM GAS  /tmp/ccQpHQw3.s 			page 95


 5239 0677 7F       		.byte	0x7f
 5240 0678 E6050000 		.4byte	0x5e6
 5241 067c 28       		.byte	0x28
 5242 067d 00       		.byte	0
 5243 067e 02       		.uleb128 0x2
 5244 067f 5E0B0000 		.4byte	.LASF110
 5245 0683 08       		.byte	0x8
 5246 0684 81       		.byte	0x81
 5247 0685 F1050000 		.4byte	0x5f1
 5248 0689 11       		.uleb128 0x11
 5249 068a 14       		.byte	0x14
 5250 068b 08       		.byte	0x8
 5251 068c 86       		.byte	0x86
 5252 068d CE060000 		.4byte	0x6ce
 5253 0691 12       		.uleb128 0x12
 5254 0692 18040000 		.4byte	.LASF111
 5255 0696 08       		.byte	0x8
 5256 0697 88       		.byte	0x88
 5257 0698 24010000 		.4byte	0x124
 5258 069c 00       		.byte	0
 5259 069d 12       		.uleb128 0x12
 5260 069e 7C010000 		.4byte	.LASF112
 5261 06a2 08       		.byte	0x8
 5262 06a3 8B       		.byte	0x8b
 5263 06a4 24010000 		.4byte	0x124
 5264 06a8 04       		.byte	0x4
 5265 06a9 12       		.uleb128 0x12
 5266 06aa CF0A0000 		.4byte	.LASF113
 5267 06ae 08       		.byte	0x8
 5268 06af 8E       		.byte	0x8e
 5269 06b0 24010000 		.4byte	0x124
 5270 06b4 08       		.byte	0x8
 5271 06b5 12       		.uleb128 0x12
 5272 06b6 741B0000 		.4byte	.LASF114
 5273 06ba 08       		.byte	0x8
 5274 06bb 91       		.byte	0x91
 5275 06bc 24010000 		.4byte	0x124
 5276 06c0 0C       		.byte	0xc
 5277 06c1 12       		.uleb128 0x12
 5278 06c2 E4050000 		.4byte	.LASF115
 5279 06c6 08       		.byte	0x8
 5280 06c7 94       		.byte	0x94
 5281 06c8 24010000 		.4byte	0x124
 5282 06cc 10       		.byte	0x10
 5283 06cd 00       		.byte	0
 5284 06ce 02       		.uleb128 0x2
 5285 06cf B3000000 		.4byte	.LASF116
 5286 06d3 08       		.byte	0x8
 5287 06d4 97       		.byte	0x97
 5288 06d5 89060000 		.4byte	0x689
 5289 06d9 11       		.uleb128 0x11
 5290 06da 1C       		.byte	0x1c
 5291 06db 09       		.byte	0x9
 5292 06dc 42       		.byte	0x42
 5293 06dd 36070000 		.4byte	0x736
 5294 06e1 12       		.uleb128 0x12
 5295 06e2 A3090000 		.4byte	.LASF117
ARM GAS  /tmp/ccQpHQw3.s 			page 96


 5296 06e6 09       		.byte	0x9
 5297 06e7 45       		.byte	0x45
 5298 06e8 24010000 		.4byte	0x124
 5299 06ec 00       		.byte	0
 5300 06ed 12       		.uleb128 0x12
 5301 06ee D4160000 		.4byte	.LASF118
 5302 06f2 09       		.byte	0x9
 5303 06f3 48       		.byte	0x48
 5304 06f4 24010000 		.4byte	0x124
 5305 06f8 04       		.byte	0x4
 5306 06f9 12       		.uleb128 0x12
 5307 06fa DD160000 		.4byte	.LASF119
 5308 06fe 09       		.byte	0x9
 5309 06ff 4B       		.byte	0x4b
 5310 0700 24010000 		.4byte	0x124
 5311 0704 08       		.byte	0x8
 5312 0705 12       		.uleb128 0x12
 5313 0706 E6160000 		.4byte	.LASF120
 5314 070a 09       		.byte	0x9
 5315 070b 4E       		.byte	0x4e
 5316 070c 24010000 		.4byte	0x124
 5317 0710 0C       		.byte	0xc
 5318 0711 12       		.uleb128 0x12
 5319 0712 EF160000 		.4byte	.LASF121
 5320 0716 09       		.byte	0x9
 5321 0717 51       		.byte	0x51
 5322 0718 24010000 		.4byte	0x124
 5323 071c 10       		.byte	0x10
 5324 071d 12       		.uleb128 0x12
 5325 071e F8160000 		.4byte	.LASF122
 5326 0722 09       		.byte	0x9
 5327 0723 54       		.byte	0x54
 5328 0724 24010000 		.4byte	0x124
 5329 0728 14       		.byte	0x14
 5330 0729 12       		.uleb128 0x12
 5331 072a D80B0000 		.4byte	.LASF123
 5332 072e 09       		.byte	0x9
 5333 072f 57       		.byte	0x57
 5334 0730 24010000 		.4byte	0x124
 5335 0734 18       		.byte	0x18
 5336 0735 00       		.byte	0
 5337 0736 02       		.uleb128 0x2
 5338 0737 22020000 		.4byte	.LASF124
 5339 073b 09       		.byte	0x9
 5340 073c 59       		.byte	0x59
 5341 073d D9060000 		.4byte	0x6d9
 5342 0741 11       		.uleb128 0x11
 5343 0742 18       		.byte	0x18
 5344 0743 09       		.byte	0x9
 5345 0744 60       		.byte	0x60
 5346 0745 92070000 		.4byte	0x792
 5347 0749 12       		.uleb128 0x12
 5348 074a 300B0000 		.4byte	.LASF125
 5349 074e 09       		.byte	0x9
 5350 074f 63       		.byte	0x63
 5351 0750 24010000 		.4byte	0x124
 5352 0754 00       		.byte	0
ARM GAS  /tmp/ccQpHQw3.s 			page 97


 5353 0755 12       		.uleb128 0x12
 5354 0756 47180000 		.4byte	.LASF126
 5355 075a 09       		.byte	0x9
 5356 075b 66       		.byte	0x66
 5357 075c 24010000 		.4byte	0x124
 5358 0760 04       		.byte	0x4
 5359 0761 12       		.uleb128 0x12
 5360 0762 50180000 		.4byte	.LASF127
 5361 0766 09       		.byte	0x9
 5362 0767 69       		.byte	0x69
 5363 0768 24010000 		.4byte	0x124
 5364 076c 08       		.byte	0x8
 5365 076d 12       		.uleb128 0x12
 5366 076e BC1B0000 		.4byte	.LASF128
 5367 0772 09       		.byte	0x9
 5368 0773 6C       		.byte	0x6c
 5369 0774 24010000 		.4byte	0x124
 5370 0778 0C       		.byte	0xc
 5371 0779 12       		.uleb128 0x12
 5372 077a 68180000 		.4byte	.LASF129
 5373 077e 09       		.byte	0x9
 5374 077f 6F       		.byte	0x6f
 5375 0780 24010000 		.4byte	0x124
 5376 0784 10       		.byte	0x10
 5377 0785 12       		.uleb128 0x12
 5378 0786 4C120000 		.4byte	.LASF130
 5379 078a 09       		.byte	0x9
 5380 078b 72       		.byte	0x72
 5381 078c 24010000 		.4byte	0x124
 5382 0790 14       		.byte	0x14
 5383 0791 00       		.byte	0
 5384 0792 02       		.uleb128 0x2
 5385 0793 E00E0000 		.4byte	.LASF131
 5386 0797 09       		.byte	0x9
 5387 0798 74       		.byte	0x74
 5388 0799 41070000 		.4byte	0x741
 5389 079d 11       		.uleb128 0x11
 5390 079e 88       		.byte	0x88
 5391 079f 09       		.byte	0x9
 5392 07a0 7B       		.byte	0x7b
 5393 07a1 BA080000 		.4byte	0x8ba
 5394 07a5 12       		.uleb128 0x12
 5395 07a6 EA140000 		.4byte	.LASF132
 5396 07aa 09       		.byte	0x9
 5397 07ab 7D       		.byte	0x7d
 5398 07ac 24010000 		.4byte	0x124
 5399 07b0 00       		.byte	0
 5400 07b1 12       		.uleb128 0x12
 5401 07b2 440F0000 		.4byte	.LASF133
 5402 07b6 09       		.byte	0x9
 5403 07b7 80       		.byte	0x80
 5404 07b8 36070000 		.4byte	0x736
 5405 07bc 04       		.byte	0x4
 5406 07bd 12       		.uleb128 0x12
 5407 07be 1D110000 		.4byte	.LASF134
 5408 07c2 09       		.byte	0x9
 5409 07c3 85       		.byte	0x85
ARM GAS  /tmp/ccQpHQw3.s 			page 98


 5410 07c4 92070000 		.4byte	0x792
 5411 07c8 20       		.byte	0x20
 5412 07c9 12       		.uleb128 0x12
 5413 07ca 880C0000 		.4byte	.LASF135
 5414 07ce 09       		.byte	0x9
 5415 07cf 8A       		.byte	0x8a
 5416 07d0 24010000 		.4byte	0x124
 5417 07d4 38       		.byte	0x38
 5418 07d5 12       		.uleb128 0x12
 5419 07d6 0E1C0000 		.4byte	.LASF136
 5420 07da 09       		.byte	0x9
 5421 07db 8D       		.byte	0x8d
 5422 07dc 24010000 		.4byte	0x124
 5423 07e0 3C       		.byte	0x3c
 5424 07e1 12       		.uleb128 0x12
 5425 07e2 43030000 		.4byte	.LASF137
 5426 07e6 09       		.byte	0x9
 5427 07e7 92       		.byte	0x92
 5428 07e8 24010000 		.4byte	0x124
 5429 07ec 40       		.byte	0x40
 5430 07ed 12       		.uleb128 0x12
 5431 07ee BD030000 		.4byte	.LASF138
 5432 07f2 09       		.byte	0x9
 5433 07f3 99       		.byte	0x99
 5434 07f4 24010000 		.4byte	0x124
 5435 07f8 44       		.byte	0x44
 5436 07f9 12       		.uleb128 0x12
 5437 07fa DF090000 		.4byte	.LASF139
 5438 07fe 09       		.byte	0x9
 5439 07ff A0       		.byte	0xa0
 5440 0800 24010000 		.4byte	0x124
 5441 0804 48       		.byte	0x48
 5442 0805 12       		.uleb128 0x12
 5443 0806 BB090000 		.4byte	.LASF140
 5444 080a 09       		.byte	0x9
 5445 080b A5       		.byte	0xa5
 5446 080c 24010000 		.4byte	0x124
 5447 0810 4C       		.byte	0x4c
 5448 0811 12       		.uleb128 0x12
 5449 0812 91180000 		.4byte	.LASF141
 5450 0816 09       		.byte	0x9
 5451 0817 A8       		.byte	0xa8
 5452 0818 24010000 		.4byte	0x124
 5453 081c 50       		.byte	0x50
 5454 081d 12       		.uleb128 0x12
 5455 081e C6130000 		.4byte	.LASF142
 5456 0822 09       		.byte	0x9
 5457 0823 AD       		.byte	0xad
 5458 0824 24010000 		.4byte	0x124
 5459 0828 54       		.byte	0x54
 5460 0829 12       		.uleb128 0x12
 5461 082a 4F040000 		.4byte	.LASF143
 5462 082e 09       		.byte	0x9
 5463 082f B2       		.byte	0xb2
 5464 0830 24010000 		.4byte	0x124
 5465 0834 58       		.byte	0x58
 5466 0835 12       		.uleb128 0x12
ARM GAS  /tmp/ccQpHQw3.s 			page 99


 5467 0836 C71A0000 		.4byte	.LASF144
 5468 083a 09       		.byte	0x9
 5469 083b B5       		.byte	0xb5
 5470 083c 24010000 		.4byte	0x124
 5471 0840 5C       		.byte	0x5c
 5472 0841 12       		.uleb128 0x12
 5473 0842 1D000000 		.4byte	.LASF145
 5474 0846 09       		.byte	0x9
 5475 0847 B8       		.byte	0xb8
 5476 0848 24010000 		.4byte	0x124
 5477 084c 60       		.byte	0x60
 5478 084d 12       		.uleb128 0x12
 5479 084e F9070000 		.4byte	.LASF146
 5480 0852 09       		.byte	0x9
 5481 0853 BB       		.byte	0xbb
 5482 0854 24010000 		.4byte	0x124
 5483 0858 64       		.byte	0x64
 5484 0859 12       		.uleb128 0x12
 5485 085a A7130000 		.4byte	.LASF147
 5486 085e 09       		.byte	0x9
 5487 085f C0       		.byte	0xc0
 5488 0860 24010000 		.4byte	0x124
 5489 0864 68       		.byte	0x68
 5490 0865 12       		.uleb128 0x12
 5491 0866 83090000 		.4byte	.LASF148
 5492 086a 09       		.byte	0x9
 5493 086b C7       		.byte	0xc7
 5494 086c 24010000 		.4byte	0x124
 5495 0870 6C       		.byte	0x6c
 5496 0871 12       		.uleb128 0x12
 5497 0872 4C100000 		.4byte	.LASF149
 5498 0876 09       		.byte	0x9
 5499 0877 CE       		.byte	0xce
 5500 0878 24010000 		.4byte	0x124
 5501 087c 70       		.byte	0x70
 5502 087d 12       		.uleb128 0x12
 5503 087e 44090000 		.4byte	.LASF150
 5504 0882 09       		.byte	0x9
 5505 0883 D3       		.byte	0xd3
 5506 0884 24010000 		.4byte	0x124
 5507 0888 74       		.byte	0x74
 5508 0889 12       		.uleb128 0x12
 5509 088a 89190000 		.4byte	.LASF151
 5510 088e 09       		.byte	0x9
 5511 088f D6       		.byte	0xd6
 5512 0890 24010000 		.4byte	0x124
 5513 0894 78       		.byte	0x78
 5514 0895 12       		.uleb128 0x12
 5515 0896 20150000 		.4byte	.LASF152
 5516 089a 09       		.byte	0x9
 5517 089b DB       		.byte	0xdb
 5518 089c 24010000 		.4byte	0x124
 5519 08a0 7C       		.byte	0x7c
 5520 08a1 12       		.uleb128 0x12
 5521 08a2 140D0000 		.4byte	.LASF153
 5522 08a6 09       		.byte	0x9
 5523 08a7 E2       		.byte	0xe2
ARM GAS  /tmp/ccQpHQw3.s 			page 100


 5524 08a8 24010000 		.4byte	0x124
 5525 08ac 80       		.byte	0x80
 5526 08ad 12       		.uleb128 0x12
 5527 08ae 05030000 		.4byte	.LASF154
 5528 08b2 09       		.byte	0x9
 5529 08b3 E7       		.byte	0xe7
 5530 08b4 24010000 		.4byte	0x124
 5531 08b8 84       		.byte	0x84
 5532 08b9 00       		.byte	0
 5533 08ba 02       		.uleb128 0x2
 5534 08bb F3090000 		.4byte	.LASF155
 5535 08bf 09       		.byte	0x9
 5536 08c0 E9       		.byte	0xe9
 5537 08c1 9D070000 		.4byte	0x79d
 5538 08c5 11       		.uleb128 0x11
 5539 08c6 20       		.byte	0x20
 5540 08c7 0A       		.byte	0xa
 5541 08c8 42       		.byte	0x42
 5542 08c9 2E090000 		.4byte	0x92e
 5543 08cd 12       		.uleb128 0x12
 5544 08ce D0170000 		.4byte	.LASF156
 5545 08d2 0A       		.byte	0xa
 5546 08d3 44       		.byte	0x44
 5547 08d4 24010000 		.4byte	0x124
 5548 08d8 00       		.byte	0
 5549 08d9 12       		.uleb128 0x12
 5550 08da C9140000 		.4byte	.LASF157
 5551 08de 0A       		.byte	0xa
 5552 08df 47       		.byte	0x47
 5553 08e0 24010000 		.4byte	0x124
 5554 08e4 04       		.byte	0x4
 5555 08e5 12       		.uleb128 0x12
 5556 08e6 2E090000 		.4byte	.LASF158
 5557 08ea 0A       		.byte	0xa
 5558 08eb 4B       		.byte	0x4b
 5559 08ec 24010000 		.4byte	0x124
 5560 08f0 08       		.byte	0x8
 5561 08f1 12       		.uleb128 0x12
 5562 08f2 6C110000 		.4byte	.LASF159
 5563 08f6 0A       		.byte	0xa
 5564 08f7 4E       		.byte	0x4e
 5565 08f8 24010000 		.4byte	0x124
 5566 08fc 0C       		.byte	0xc
 5567 08fd 12       		.uleb128 0x12
 5568 08fe 750E0000 		.4byte	.LASF160
 5569 0902 0A       		.byte	0xa
 5570 0903 51       		.byte	0x51
 5571 0904 24010000 		.4byte	0x124
 5572 0908 10       		.byte	0x10
 5573 0909 12       		.uleb128 0x12
 5574 090a 570D0000 		.4byte	.LASF161
 5575 090e 0A       		.byte	0xa
 5576 090f 54       		.byte	0x54
 5577 0910 24010000 		.4byte	0x124
 5578 0914 14       		.byte	0x14
 5579 0915 12       		.uleb128 0x12
 5580 0916 75120000 		.4byte	.LASF162
ARM GAS  /tmp/ccQpHQw3.s 			page 101


 5581 091a 0A       		.byte	0xa
 5582 091b 57       		.byte	0x57
 5583 091c 24010000 		.4byte	0x124
 5584 0920 18       		.byte	0x18
 5585 0921 12       		.uleb128 0x12
 5586 0922 E80B0000 		.4byte	.LASF163
 5587 0926 0A       		.byte	0xa
 5588 0927 5C       		.byte	0x5c
 5589 0928 24010000 		.4byte	0x124
 5590 092c 1C       		.byte	0x1c
 5591 092d 00       		.byte	0
 5592 092e 02       		.uleb128 0x2
 5593 092f 3C120000 		.4byte	.LASF164
 5594 0933 0A       		.byte	0xa
 5595 0934 5E       		.byte	0x5e
 5596 0935 C5080000 		.4byte	0x8c5
 5597 0939 0F       		.uleb128 0xf
 5598 093a 01       		.byte	0x1
 5599 093b 0A       		.byte	0xa
 5600 093c 64       		.byte	0x64
 5601 093d 5A090000 		.4byte	0x95a
 5602 0941 10       		.uleb128 0x10
 5603 0942 EA100000 		.4byte	.LASF165
 5604 0946 00       		.sleb128 0
 5605 0947 10       		.uleb128 0x10
 5606 0948 A81B0000 		.4byte	.LASF166
 5607 094c 01       		.sleb128 1
 5608 094d 10       		.uleb128 0x10
 5609 094e 2A170000 		.4byte	.LASF167
 5610 0952 02       		.sleb128 2
 5611 0953 10       		.uleb128 0x10
 5612 0954 FB0F0000 		.4byte	.LASF168
 5613 0958 03       		.sleb128 3
 5614 0959 00       		.byte	0
 5615 095a 02       		.uleb128 0x2
 5616 095b 6A1C0000 		.4byte	.LASF169
 5617 095f 0A       		.byte	0xa
 5618 0960 69       		.byte	0x69
 5619 0961 39090000 		.4byte	0x939
 5620 0965 14       		.uleb128 0x14
 5621 0966 74130000 		.4byte	.LASF325
 5622 096a 48       		.byte	0x48
 5623 096b 0A       		.byte	0xa
 5624 096c 85       		.byte	0x85
 5625 096d 020A0000 		.4byte	0xa02
 5626 0971 12       		.uleb128 0x12
 5627 0972 A30A0000 		.4byte	.LASF170
 5628 0976 0A       		.byte	0xa
 5629 0977 87       		.byte	0x87
 5630 0978 020A0000 		.4byte	0xa02
 5631 097c 00       		.byte	0
 5632 097d 12       		.uleb128 0x12
 5633 097e 36110000 		.4byte	.LASF171
 5634 0982 0A       		.byte	0xa
 5635 0983 89       		.byte	0x89
 5636 0984 2E090000 		.4byte	0x92e
 5637 0988 04       		.byte	0x4
ARM GAS  /tmp/ccQpHQw3.s 			page 102


 5638 0989 12       		.uleb128 0x12
 5639 098a AA020000 		.4byte	.LASF172
 5640 098e 0A       		.byte	0xa
 5641 098f 8B       		.byte	0x8b
 5642 0990 7E050000 		.4byte	0x57e
 5643 0994 24       		.byte	0x24
 5644 0995 12       		.uleb128 0x12
 5645 0996 25140000 		.4byte	.LASF173
 5646 099a 0A       		.byte	0xa
 5647 099b 8D       		.byte	0x8d
 5648 099c 080A0000 		.4byte	0xa08
 5649 09a0 25       		.byte	0x25
 5650 09a1 12       		.uleb128 0x12
 5651 09a2 DE100000 		.4byte	.LASF174
 5652 09a6 0A       		.byte	0xa
 5653 09a7 8F       		.byte	0x8f
 5654 09a8 37000000 		.4byte	0x37
 5655 09ac 28       		.byte	0x28
 5656 09ad 12       		.uleb128 0x12
 5657 09ae 89120000 		.4byte	.LASF175
 5658 09b2 0A       		.byte	0xa
 5659 09b3 91       		.byte	0x91
 5660 09b4 1E0A0000 		.4byte	0xa1e
 5661 09b8 2C       		.byte	0x2c
 5662 09b9 12       		.uleb128 0x12
 5663 09ba 1D1A0000 		.4byte	.LASF176
 5664 09be 0A       		.byte	0xa
 5665 09bf 93       		.byte	0x93
 5666 09c0 1E0A0000 		.4byte	0xa1e
 5667 09c4 30       		.byte	0x30
 5668 09c5 12       		.uleb128 0x12
 5669 09c6 D7110000 		.4byte	.LASF177
 5670 09ca 0A       		.byte	0xa
 5671 09cb 95       		.byte	0x95
 5672 09cc 1E0A0000 		.4byte	0xa1e
 5673 09d0 34       		.byte	0x34
 5674 09d1 12       		.uleb128 0x12
 5675 09d2 6B090000 		.4byte	.LASF178
 5676 09d6 0A       		.byte	0xa
 5677 09d7 97       		.byte	0x97
 5678 09d8 1E0A0000 		.4byte	0xa1e
 5679 09dc 38       		.byte	0x38
 5680 09dd 12       		.uleb128 0x12
 5681 09de B3030000 		.4byte	.LASF179
 5682 09e2 0A       		.byte	0xa
 5683 09e3 99       		.byte	0x99
 5684 09e4 3A010000 		.4byte	0x13a
 5685 09e8 3C       		.byte	0x3c
 5686 09e9 12       		.uleb128 0x12
 5687 09ea 540F0000 		.4byte	.LASF180
 5688 09ee 0A       		.byte	0xa
 5689 09ef 9B       		.byte	0x9b
 5690 09f0 240A0000 		.4byte	0xa24
 5691 09f4 40       		.byte	0x40
 5692 09f5 12       		.uleb128 0x12
 5693 09f6 1A060000 		.4byte	.LASF181
 5694 09fa 0A       		.byte	0xa
ARM GAS  /tmp/ccQpHQw3.s 			page 103


 5695 09fb 9D       		.byte	0x9d
 5696 09fc 24010000 		.4byte	0x124
 5697 0a00 44       		.byte	0x44
 5698 0a01 00       		.byte	0
 5699 0a02 06       		.uleb128 0x6
 5700 0a03 04       		.byte	0x4
 5701 0a04 92010000 		.4byte	0x192
 5702 0a08 0A       		.uleb128 0xa
 5703 0a09 5A090000 		.4byte	0x95a
 5704 0a0d 15       		.uleb128 0x15
 5705 0a0e 180A0000 		.4byte	0xa18
 5706 0a12 16       		.uleb128 0x16
 5707 0a13 180A0000 		.4byte	0xa18
 5708 0a17 00       		.byte	0
 5709 0a18 06       		.uleb128 0x6
 5710 0a19 04       		.byte	0x4
 5711 0a1a 65090000 		.4byte	0x965
 5712 0a1e 06       		.uleb128 0x6
 5713 0a1f 04       		.byte	0x4
 5714 0a20 0D0A0000 		.4byte	0xa0d
 5715 0a24 06       		.uleb128 0x6
 5716 0a25 04       		.byte	0x4
 5717 0a26 C2010000 		.4byte	0x1c2
 5718 0a2a 02       		.uleb128 0x2
 5719 0a2b 90140000 		.4byte	.LASF182
 5720 0a2f 0A       		.byte	0xa
 5721 0a30 9E       		.byte	0x9e
 5722 0a31 65090000 		.4byte	0x965
 5723 0a35 06       		.uleb128 0x6
 5724 0a36 04       		.byte	0x4
 5725 0a37 2A0A0000 		.4byte	0xa2a
 5726 0a3b 11       		.uleb128 0x11
 5727 0a3c 14       		.byte	0x14
 5728 0a3d 0B       		.byte	0xb
 5729 0a3e 41       		.byte	0x41
 5730 0a3f 800A0000 		.4byte	0xa80
 5731 0a43 12       		.uleb128 0x12
 5732 0a44 24090000 		.4byte	.LASF183
 5733 0a48 0B       		.byte	0xb
 5734 0a49 43       		.byte	0x43
 5735 0a4a 24010000 		.4byte	0x124
 5736 0a4e 00       		.byte	0
 5737 0a4f 12       		.uleb128 0x12
 5738 0a50 19140000 		.4byte	.LASF184
 5739 0a54 0B       		.byte	0xb
 5740 0a55 46       		.byte	0x46
 5741 0a56 24010000 		.4byte	0x124
 5742 0a5a 04       		.byte	0x4
 5743 0a5b 12       		.uleb128 0x12
 5744 0a5c 59180000 		.4byte	.LASF185
 5745 0a60 0B       		.byte	0xb
 5746 0a61 49       		.byte	0x49
 5747 0a62 24010000 		.4byte	0x124
 5748 0a66 08       		.byte	0x8
 5749 0a67 12       		.uleb128 0x12
 5750 0a68 011D0000 		.4byte	.LASF186
 5751 0a6c 0B       		.byte	0xb
ARM GAS  /tmp/ccQpHQw3.s 			page 104


 5752 0a6d 4D       		.byte	0x4d
 5753 0a6e 24010000 		.4byte	0x124
 5754 0a72 0C       		.byte	0xc
 5755 0a73 12       		.uleb128 0x12
 5756 0a74 51170000 		.4byte	.LASF187
 5757 0a78 0B       		.byte	0xb
 5758 0a79 50       		.byte	0x50
 5759 0a7a 24010000 		.4byte	0x124
 5760 0a7e 10       		.byte	0x10
 5761 0a7f 00       		.byte	0
 5762 0a80 02       		.uleb128 0x2
 5763 0a81 5F030000 		.4byte	.LASF188
 5764 0a85 0B       		.byte	0xb
 5765 0a86 58       		.byte	0x58
 5766 0a87 3B0A0000 		.4byte	0xa3b
 5767 0a8b 11       		.uleb128 0x11
 5768 0a8c 1C       		.byte	0x1c
 5769 0a8d 0B       		.byte	0xb
 5770 0a8e 5D       		.byte	0x5d
 5771 0a8f E80A0000 		.4byte	0xae8
 5772 0a93 12       		.uleb128 0x12
 5773 0a94 49110000 		.4byte	.LASF189
 5774 0a98 0B       		.byte	0xb
 5775 0a99 5F       		.byte	0x5f
 5776 0a9a 24010000 		.4byte	0x124
 5777 0a9e 00       		.byte	0
 5778 0a9f 12       		.uleb128 0x12
 5779 0aa0 AB190000 		.4byte	.LASF190
 5780 0aa4 0B       		.byte	0xb
 5781 0aa5 62       		.byte	0x62
 5782 0aa6 24010000 		.4byte	0x124
 5783 0aaa 04       		.byte	0x4
 5784 0aab 12       		.uleb128 0x12
 5785 0aac DF1C0000 		.4byte	.LASF191
 5786 0ab0 0B       		.byte	0xb
 5787 0ab1 65       		.byte	0x65
 5788 0ab2 24010000 		.4byte	0x124
 5789 0ab6 08       		.byte	0x8
 5790 0ab7 12       		.uleb128 0x12
 5791 0ab8 38090000 		.4byte	.LASF192
 5792 0abc 0B       		.byte	0xb
 5793 0abd 68       		.byte	0x68
 5794 0abe 24010000 		.4byte	0x124
 5795 0ac2 0C       		.byte	0xc
 5796 0ac3 12       		.uleb128 0x12
 5797 0ac4 41100000 		.4byte	.LASF193
 5798 0ac8 0B       		.byte	0xb
 5799 0ac9 6C       		.byte	0x6c
 5800 0aca 24010000 		.4byte	0x124
 5801 0ace 10       		.byte	0x10
 5802 0acf 12       		.uleb128 0x12
 5803 0ad0 34010000 		.4byte	.LASF194
 5804 0ad4 0B       		.byte	0xb
 5805 0ad5 71       		.byte	0x71
 5806 0ad6 24010000 		.4byte	0x124
 5807 0ada 14       		.byte	0x14
 5808 0adb 12       		.uleb128 0x12
ARM GAS  /tmp/ccQpHQw3.s 			page 105


 5809 0adc 95070000 		.4byte	.LASF195
 5810 0ae0 0B       		.byte	0xb
 5811 0ae1 75       		.byte	0x75
 5812 0ae2 24010000 		.4byte	0x124
 5813 0ae6 18       		.byte	0x18
 5814 0ae7 00       		.byte	0
 5815 0ae8 02       		.uleb128 0x2
 5816 0ae9 AA0F0000 		.4byte	.LASF196
 5817 0aed 0B       		.byte	0xb
 5818 0aee 78       		.byte	0x78
 5819 0aef 8B0A0000 		.4byte	0xa8b
 5820 0af3 17       		.uleb128 0x17
 5821 0af4 01       		.byte	0x1
 5822 0af5 0B       		.byte	0xb
 5823 0af6 3501     		.2byte	0x135
 5824 0af8 1B0B0000 		.4byte	0xb1b
 5825 0afc 10       		.uleb128 0x10
 5826 0afd 220C0000 		.4byte	.LASF197
 5827 0b01 00       		.sleb128 0
 5828 0b02 10       		.uleb128 0x10
 5829 0b03 3D170000 		.4byte	.LASF198
 5830 0b07 01       		.sleb128 1
 5831 0b08 10       		.uleb128 0x10
 5832 0b09 2D0A0000 		.4byte	.LASF199
 5833 0b0d 02       		.sleb128 2
 5834 0b0e 10       		.uleb128 0x10
 5835 0b0f 5D140000 		.4byte	.LASF200
 5836 0b13 03       		.sleb128 3
 5837 0b14 10       		.uleb128 0x10
 5838 0b15 1F030000 		.4byte	.LASF201
 5839 0b19 04       		.sleb128 4
 5840 0b1a 00       		.byte	0
 5841 0b1b 0E       		.uleb128 0xe
 5842 0b1c 9F040000 		.4byte	.LASF202
 5843 0b20 0B       		.byte	0xb
 5844 0b21 3B01     		.2byte	0x13b
 5845 0b23 F30A0000 		.4byte	0xaf3
 5846 0b27 17       		.uleb128 0x17
 5847 0b28 01       		.byte	0x1
 5848 0b29 0B       		.byte	0xb
 5849 0b2a 4101     		.2byte	0x141
 5850 0b2c 5B0B0000 		.4byte	0xb5b
 5851 0b30 10       		.uleb128 0x10
 5852 0b31 DB060000 		.4byte	.LASF203
 5853 0b35 01       		.sleb128 1
 5854 0b36 10       		.uleb128 0x10
 5855 0b37 F4060000 		.4byte	.LASF204
 5856 0b3b 02       		.sleb128 2
 5857 0b3c 10       		.uleb128 0x10
 5858 0b3d 0D070000 		.4byte	.LASF205
 5859 0b41 04       		.sleb128 4
 5860 0b42 10       		.uleb128 0x10
 5861 0b43 26070000 		.4byte	.LASF206
 5862 0b47 08       		.sleb128 8
 5863 0b48 10       		.uleb128 0x10
 5864 0b49 3F070000 		.4byte	.LASF207
 5865 0b4d 10       		.sleb128 16
ARM GAS  /tmp/ccQpHQw3.s 			page 106


 5866 0b4e 10       		.uleb128 0x10
 5867 0b4f 58070000 		.4byte	.LASF208
 5868 0b53 20       		.sleb128 32
 5869 0b54 10       		.uleb128 0x10
 5870 0b55 AC0E0000 		.4byte	.LASF209
 5871 0b59 00       		.sleb128 0
 5872 0b5a 00       		.byte	0
 5873 0b5b 0E       		.uleb128 0xe
 5874 0b5c AC120000 		.4byte	.LASF210
 5875 0b60 0B       		.byte	0xb
 5876 0b61 4901     		.2byte	0x149
 5877 0b63 270B0000 		.4byte	0xb27
 5878 0b67 0B       		.uleb128 0xb
 5879 0b68 3C       		.byte	0x3c
 5880 0b69 0B       		.byte	0xb
 5881 0b6a 4E01     		.2byte	0x14e
 5882 0b6c BF0B0000 		.4byte	0xbbf
 5883 0b70 0D       		.uleb128 0xd
 5884 0b71 A30A0000 		.4byte	.LASF170
 5885 0b75 0B       		.byte	0xb
 5886 0b76 5001     		.2byte	0x150
 5887 0b78 BF0B0000 		.4byte	0xbbf
 5888 0b7c 00       		.byte	0
 5889 0b7d 0D       		.uleb128 0xd
 5890 0b7e 36110000 		.4byte	.LASF171
 5891 0b82 0B       		.byte	0xb
 5892 0b83 5101     		.2byte	0x151
 5893 0b85 800A0000 		.4byte	0xa80
 5894 0b89 04       		.byte	0x4
 5895 0b8a 0D       		.uleb128 0xd
 5896 0b8b 47040000 		.4byte	.LASF211
 5897 0b8f 0B       		.byte	0xb
 5898 0b90 5201     		.2byte	0x152
 5899 0b92 5B0B0000 		.4byte	0xb5b
 5900 0b96 18       		.byte	0x18
 5901 0b97 0D       		.uleb128 0xd
 5902 0b98 280A0000 		.4byte	.LASF212
 5903 0b9c 0B       		.byte	0xb
 5904 0b9d 5301     		.2byte	0x153
 5905 0b9f C50B0000 		.4byte	0xbc5
 5906 0ba3 1C       		.byte	0x1c
 5907 0ba4 0D       		.uleb128 0xd
 5908 0ba5 AA020000 		.4byte	.LASF172
 5909 0ba9 0B       		.byte	0xb
 5910 0baa 5501     		.2byte	0x155
 5911 0bac 7E050000 		.4byte	0x57e
 5912 0bb0 38       		.byte	0x38
 5913 0bb1 0D       		.uleb128 0xd
 5914 0bb2 25140000 		.4byte	.LASF173
 5915 0bb6 0B       		.byte	0xb
 5916 0bb7 5601     		.2byte	0x156
 5917 0bb9 D50B0000 		.4byte	0xbd5
 5918 0bbd 39       		.byte	0x39
 5919 0bbe 00       		.byte	0
 5920 0bbf 06       		.uleb128 0x6
 5921 0bc0 04       		.byte	0x4
 5922 0bc1 3C050000 		.4byte	0x53c
ARM GAS  /tmp/ccQpHQw3.s 			page 107


 5923 0bc5 08       		.uleb128 0x8
 5924 0bc6 350A0000 		.4byte	0xa35
 5925 0bca D50B0000 		.4byte	0xbd5
 5926 0bce 09       		.uleb128 0x9
 5927 0bcf BA000000 		.4byte	0xba
 5928 0bd3 06       		.byte	0x6
 5929 0bd4 00       		.byte	0
 5930 0bd5 0A       		.uleb128 0xa
 5931 0bd6 1B0B0000 		.4byte	0xb1b
 5932 0bda 0E       		.uleb128 0xe
 5933 0bdb 0B1A0000 		.4byte	.LASF213
 5934 0bdf 0B       		.byte	0xb
 5935 0be0 5701     		.2byte	0x157
 5936 0be2 670B0000 		.4byte	0xb67
 5937 0be6 0F       		.uleb128 0xf
 5938 0be7 01       		.byte	0x1
 5939 0be8 0C       		.byte	0xc
 5940 0be9 79       		.byte	0x79
 5941 0bea 070C0000 		.4byte	0xc07
 5942 0bee 10       		.uleb128 0x10
 5943 0bef AC0A0000 		.4byte	.LASF214
 5944 0bf3 00       		.sleb128 0
 5945 0bf4 10       		.uleb128 0x10
 5946 0bf5 64130000 		.4byte	.LASF215
 5947 0bf9 01       		.sleb128 1
 5948 0bfa 10       		.uleb128 0x10
 5949 0bfb 62040000 		.4byte	.LASF216
 5950 0bff 02       		.sleb128 2
 5951 0c00 10       		.uleb128 0x10
 5952 0c01 EA0A0000 		.4byte	.LASF217
 5953 0c05 03       		.sleb128 3
 5954 0c06 00       		.byte	0
 5955 0c07 11       		.uleb128 0x11
 5956 0c08 06       		.byte	0x6
 5957 0c09 0D       		.byte	0xd
 5958 0c0a 4D       		.byte	0x4d
 5959 0c0b 340C0000 		.4byte	0xc34
 5960 0c0f 12       		.uleb128 0x12
 5961 0c10 84100000 		.4byte	.LASF218
 5962 0c14 0D       		.byte	0xd
 5963 0c15 4F       		.byte	0x4f
 5964 0c16 03010000 		.4byte	0x103
 5965 0c1a 00       		.byte	0
 5966 0c1b 12       		.uleb128 0x12
 5967 0c1c 8B100000 		.4byte	.LASF219
 5968 0c20 0D       		.byte	0xd
 5969 0c21 50       		.byte	0x50
 5970 0c22 03010000 		.4byte	0x103
 5971 0c26 02       		.byte	0x2
 5972 0c27 12       		.uleb128 0x12
 5973 0c28 D3070000 		.4byte	.LASF220
 5974 0c2c 0D       		.byte	0xd
 5975 0c2d 51       		.byte	0x51
 5976 0c2e 03010000 		.4byte	0x103
 5977 0c32 04       		.byte	0x4
 5978 0c33 00       		.byte	0
 5979 0c34 02       		.uleb128 0x2
ARM GAS  /tmp/ccQpHQw3.s 			page 108


 5980 0c35 A70C0000 		.4byte	.LASF221
 5981 0c39 0D       		.byte	0xd
 5982 0c3a 52       		.byte	0x52
 5983 0c3b 070C0000 		.4byte	0xc07
 5984 0c3f 11       		.uleb128 0x11
 5985 0c40 0C       		.byte	0xc
 5986 0c41 0D       		.byte	0xd
 5987 0c42 57       		.byte	0x57
 5988 0c43 6C0C0000 		.4byte	0xc6c
 5989 0c47 12       		.uleb128 0x12
 5990 0c48 84100000 		.4byte	.LASF218
 5991 0c4c 0D       		.byte	0xd
 5992 0c4d 59       		.byte	0x59
 5993 0c4e 19010000 		.4byte	0x119
 5994 0c52 00       		.byte	0
 5995 0c53 12       		.uleb128 0x12
 5996 0c54 8B100000 		.4byte	.LASF219
 5997 0c58 0D       		.byte	0xd
 5998 0c59 5A       		.byte	0x5a
 5999 0c5a 19010000 		.4byte	0x119
 6000 0c5e 04       		.byte	0x4
 6001 0c5f 12       		.uleb128 0x12
 6002 0c60 D3070000 		.4byte	.LASF220
 6003 0c64 0D       		.byte	0xd
 6004 0c65 5B       		.byte	0x5b
 6005 0c66 19010000 		.4byte	0x119
 6006 0c6a 08       		.byte	0x8
 6007 0c6b 00       		.byte	0
 6008 0c6c 02       		.uleb128 0x2
 6009 0c6d DD0A0000 		.4byte	.LASF222
 6010 0c71 0D       		.byte	0xd
 6011 0c72 5C       		.byte	0x5c
 6012 0c73 3F0C0000 		.4byte	0xc3f
 6013 0c77 06       		.uleb128 0x6
 6014 0c78 04       		.byte	0x4
 6015 0c79 24010000 		.4byte	0x124
 6016 0c7d 0F       		.uleb128 0xf
 6017 0c7e 01       		.byte	0x1
 6018 0c7f 0E       		.byte	0xe
 6019 0c80 9D       		.byte	0x9d
 6020 0c81 990C0000 		.4byte	0xc99
 6021 0c85 10       		.uleb128 0x10
 6022 0c86 13050000 		.4byte	.LASF223
 6023 0c8a 00       		.sleb128 0
 6024 0c8b 10       		.uleb128 0x10
 6025 0c8c 12090000 		.4byte	.LASF224
 6026 0c90 01       		.sleb128 1
 6027 0c91 10       		.uleb128 0x10
 6028 0c92 391C0000 		.4byte	.LASF225
 6029 0c96 FF01     		.sleb128 255
 6030 0c98 00       		.byte	0
 6031 0c99 0F       		.uleb128 0xf
 6032 0c9a 01       		.byte	0x1
 6033 0c9b 0E       		.byte	0xe
 6034 0c9c B2       		.byte	0xb2
 6035 0c9d E40C0000 		.4byte	0xce4
 6036 0ca1 10       		.uleb128 0x10
ARM GAS  /tmp/ccQpHQw3.s 			page 109


 6037 0ca2 5C130000 		.4byte	.LASF226
 6038 0ca6 00       		.sleb128 0
 6039 0ca7 10       		.uleb128 0x10
 6040 0ca8 3E0B0000 		.4byte	.LASF227
 6041 0cac 01       		.sleb128 1
 6042 0cad 10       		.uleb128 0x10
 6043 0cae E1070000 		.4byte	.LASF228
 6044 0cb2 02       		.sleb128 2
 6045 0cb3 10       		.uleb128 0x10
 6046 0cb4 41080000 		.4byte	.LASF229
 6047 0cb8 03       		.sleb128 3
 6048 0cb9 10       		.uleb128 0x10
 6049 0cba 3F0C0000 		.4byte	.LASF230
 6050 0cbe 04       		.sleb128 4
 6051 0cbf 10       		.uleb128 0x10
 6052 0cc0 12150000 		.4byte	.LASF231
 6053 0cc4 05       		.sleb128 5
 6054 0cc5 10       		.uleb128 0x10
 6055 0cc6 E40C0000 		.4byte	.LASF232
 6056 0cca 06       		.sleb128 6
 6057 0ccb 10       		.uleb128 0x10
 6058 0ccc DC1A0000 		.4byte	.LASF233
 6059 0cd0 07       		.sleb128 7
 6060 0cd1 10       		.uleb128 0x10
 6061 0cd2 D9040000 		.4byte	.LASF234
 6062 0cd6 08       		.sleb128 8
 6063 0cd7 10       		.uleb128 0x10
 6064 0cd8 380E0000 		.4byte	.LASF235
 6065 0cdc 09       		.sleb128 9
 6066 0cdd 10       		.uleb128 0x10
 6067 0cde C5190000 		.4byte	.LASF236
 6068 0ce2 0A       		.sleb128 10
 6069 0ce3 00       		.byte	0
 6070 0ce4 02       		.uleb128 0x2
 6071 0ce5 C4040000 		.4byte	.LASF237
 6072 0ce9 0E       		.byte	0xe
 6073 0cea BE       		.byte	0xbe
 6074 0ceb 990C0000 		.4byte	0xc99
 6075 0cef 11       		.uleb128 0x11
 6076 0cf0 2D       		.byte	0x2d
 6077 0cf1 0E       		.byte	0xe
 6078 0cf2 C3       		.byte	0xc3
 6079 0cf3 1C0D0000 		.4byte	0xd1c
 6080 0cf7 12       		.uleb128 0x12
 6081 0cf8 EB010000 		.4byte	.LASF238
 6082 0cfc 0E       		.byte	0xe
 6083 0cfd C4       		.byte	0xc4
 6084 0cfe E40C0000 		.4byte	0xce4
 6085 0d02 00       		.byte	0
 6086 0d03 12       		.uleb128 0x12
 6087 0d04 A01C0000 		.4byte	.LASF239
 6088 0d08 0E       		.byte	0xe
 6089 0d09 C5       		.byte	0xc5
 6090 0d0a D3000000 		.4byte	0xd3
 6091 0d0e 01       		.byte	0x1
 6092 0d0f 12       		.uleb128 0x12
 6093 0d10 6C0A0000 		.4byte	.LASF240
ARM GAS  /tmp/ccQpHQw3.s 			page 110


 6094 0d14 0E       		.byte	0xe
 6095 0d15 C6       		.byte	0xc6
 6096 0d16 1C0D0000 		.4byte	0xd1c
 6097 0d1a 09       		.byte	0x9
 6098 0d1b 00       		.byte	0
 6099 0d1c 08       		.uleb128 0x8
 6100 0d1d C1000000 		.4byte	0xc1
 6101 0d21 2C0D0000 		.4byte	0xd2c
 6102 0d25 09       		.uleb128 0x9
 6103 0d26 BA000000 		.4byte	0xba
 6104 0d2a 23       		.byte	0x23
 6105 0d2b 00       		.byte	0
 6106 0d2c 02       		.uleb128 0x2
 6107 0d2d C6000000 		.4byte	.LASF241
 6108 0d31 0E       		.byte	0xe
 6109 0d32 C7       		.byte	0xc7
 6110 0d33 EF0C0000 		.4byte	0xcef
 6111 0d37 11       		.uleb128 0x11
 6112 0d38 20       		.byte	0x20
 6113 0d39 0E       		.byte	0xe
 6114 0d3a CC       		.byte	0xcc
 6115 0d3b 700D0000 		.4byte	0xd70
 6116 0d3f 12       		.uleb128 0x12
 6117 0d40 EB010000 		.4byte	.LASF238
 6118 0d44 0E       		.byte	0xe
 6119 0d45 CD       		.byte	0xcd
 6120 0d46 24010000 		.4byte	0x124
 6121 0d4a 00       		.byte	0
 6122 0d4b 12       		.uleb128 0x12
 6123 0d4c 35150000 		.4byte	.LASF242
 6124 0d50 0E       		.byte	0xe
 6125 0d51 CE       		.byte	0xce
 6126 0d52 3F010000 		.4byte	0x13f
 6127 0d56 04       		.byte	0x4
 6128 0d57 12       		.uleb128 0x12
 6129 0d58 07140000 		.4byte	.LASF243
 6130 0d5c 0E       		.byte	0xe
 6131 0d5d CF       		.byte	0xcf
 6132 0d5e 3F010000 		.4byte	0x13f
 6133 0d62 10       		.byte	0x10
 6134 0d63 12       		.uleb128 0x12
 6135 0d64 22040000 		.4byte	.LASF244
 6136 0d68 0E       		.byte	0xe
 6137 0d69 D0       		.byte	0xd0
 6138 0d6a 24010000 		.4byte	0x124
 6139 0d6e 1C       		.byte	0x1c
 6140 0d6f 00       		.byte	0
 6141 0d70 02       		.uleb128 0x2
 6142 0d71 231C0000 		.4byte	.LASF245
 6143 0d75 0E       		.byte	0xe
 6144 0d76 D1       		.byte	0xd1
 6145 0d77 370D0000 		.4byte	0xd37
 6146 0d7b 11       		.uleb128 0x11
 6147 0d7c 9C       		.byte	0x9c
 6148 0d7d 0E       		.byte	0xe
 6149 0d7e D6       		.byte	0xd6
 6150 0d7f C00D0000 		.4byte	0xdc0
ARM GAS  /tmp/ccQpHQw3.s 			page 111


 6151 0d83 12       		.uleb128 0x12
 6152 0d84 EB010000 		.4byte	.LASF238
 6153 0d88 0E       		.byte	0xe
 6154 0d89 D7       		.byte	0xd7
 6155 0d8a 24010000 		.4byte	0x124
 6156 0d8e 00       		.byte	0
 6157 0d8f 12       		.uleb128 0x12
 6158 0d90 B90A0000 		.4byte	.LASF246
 6159 0d94 0E       		.byte	0xe
 6160 0d95 D8       		.byte	0xd8
 6161 0d96 24010000 		.4byte	0x124
 6162 0d9a 04       		.byte	0x4
 6163 0d9b 12       		.uleb128 0x12
 6164 0d9c 6C0A0000 		.4byte	.LASF240
 6165 0da0 0E       		.byte	0xe
 6166 0da1 D9       		.byte	0xd9
 6167 0da2 1C0D0000 		.4byte	0xd1c
 6168 0da6 08       		.byte	0x8
 6169 0da7 12       		.uleb128 0x12
 6170 0da8 7E150000 		.4byte	.LASF247
 6171 0dac 0E       		.byte	0xe
 6172 0dad DA       		.byte	0xda
 6173 0dae C00D0000 		.4byte	0xdc0
 6174 0db2 2C       		.byte	0x2c
 6175 0db3 12       		.uleb128 0x12
 6176 0db4 9C0B0000 		.4byte	.LASF248
 6177 0db8 0E       		.byte	0xe
 6178 0db9 DB       		.byte	0xdb
 6179 0dba CE010000 		.4byte	0x1ce
 6180 0dbe 5C       		.byte	0x5c
 6181 0dbf 00       		.byte	0
 6182 0dc0 08       		.uleb128 0x8
 6183 0dc1 24010000 		.4byte	0x124
 6184 0dc5 D60D0000 		.4byte	0xdd6
 6185 0dc9 09       		.uleb128 0x9
 6186 0dca BA000000 		.4byte	0xba
 6187 0dce 02       		.byte	0x2
 6188 0dcf 09       		.uleb128 0x9
 6189 0dd0 BA000000 		.4byte	0xba
 6190 0dd4 03       		.byte	0x3
 6191 0dd5 00       		.byte	0
 6192 0dd6 02       		.uleb128 0x2
 6193 0dd7 49000000 		.4byte	.LASF249
 6194 0ddb 0E       		.byte	0xe
 6195 0ddc DC       		.byte	0xdc
 6196 0ddd 7B0D0000 		.4byte	0xd7b
 6197 0de1 08       		.uleb128 0x8
 6198 0de2 EA000000 		.4byte	0xea
 6199 0de6 F10D0000 		.4byte	0xdf1
 6200 0dea 09       		.uleb128 0x9
 6201 0deb BA000000 		.4byte	0xba
 6202 0def 02       		.byte	0x2
 6203 0df0 00       		.byte	0
 6204 0df1 11       		.uleb128 0x11
 6205 0df2 70       		.byte	0x70
 6206 0df3 0F       		.byte	0xf
 6207 0df4 6F       		.byte	0x6f
ARM GAS  /tmp/ccQpHQw3.s 			page 112


 6208 0df5 720E0000 		.4byte	0xe72
 6209 0df9 12       		.uleb128 0x12
 6210 0dfa A6010000 		.4byte	.LASF250
 6211 0dfe 0F       		.byte	0xf
 6212 0dff 71       		.byte	0x71
 6213 0e00 E10D0000 		.4byte	0xde1
 6214 0e04 00       		.byte	0
 6215 0e05 12       		.uleb128 0x12
 6216 0e06 E7180000 		.4byte	.LASF251
 6217 0e0a 0F       		.byte	0xf
 6218 0e0b 72       		.byte	0x72
 6219 0e0c 720E0000 		.4byte	0xe72
 6220 0e10 0C       		.byte	0xc
 6221 0e11 12       		.uleb128 0x12
 6222 0e12 7F1C0000 		.4byte	.LASF252
 6223 0e16 0F       		.byte	0xf
 6224 0e17 73       		.byte	0x73
 6225 0e18 E10D0000 		.4byte	0xde1
 6226 0e1c 1C       		.byte	0x1c
 6227 0e1d 12       		.uleb128 0x12
 6228 0e1e D3140000 		.4byte	.LASF253
 6229 0e22 0F       		.byte	0xf
 6230 0e23 74       		.byte	0x74
 6231 0e24 E10D0000 		.4byte	0xde1
 6232 0e28 28       		.byte	0x28
 6233 0e29 12       		.uleb128 0x12
 6234 0e2a 2D0F0000 		.4byte	.LASF254
 6235 0e2e 0F       		.byte	0xf
 6236 0e2f 75       		.byte	0x75
 6237 0e30 EA000000 		.4byte	0xea
 6238 0e34 34       		.byte	0x34
 6239 0e35 12       		.uleb128 0x12
 6240 0e36 5E1C0000 		.4byte	.LASF255
 6241 0e3a 0F       		.byte	0xf
 6242 0e3b 76       		.byte	0x76
 6243 0e3c E10D0000 		.4byte	0xde1
 6244 0e40 38       		.byte	0x38
 6245 0e41 12       		.uleb128 0x12
 6246 0e42 BB140000 		.4byte	.LASF256
 6247 0e46 0F       		.byte	0xf
 6248 0e47 77       		.byte	0x77
 6249 0e48 720E0000 		.4byte	0xe72
 6250 0e4c 44       		.byte	0x44
 6251 0e4d 12       		.uleb128 0x12
 6252 0e4e F8190000 		.4byte	.LASF257
 6253 0e52 0F       		.byte	0xf
 6254 0e53 78       		.byte	0x78
 6255 0e54 E10D0000 		.4byte	0xde1
 6256 0e58 54       		.byte	0x54
 6257 0e59 12       		.uleb128 0x12
 6258 0e5a 87110000 		.4byte	.LASF258
 6259 0e5e 0F       		.byte	0xf
 6260 0e5f 79       		.byte	0x79
 6261 0e60 E10D0000 		.4byte	0xde1
 6262 0e64 60       		.byte	0x60
 6263 0e65 12       		.uleb128 0x12
 6264 0e66 CD0B0000 		.4byte	.LASF259
ARM GAS  /tmp/ccQpHQw3.s 			page 113


 6265 0e6a 0F       		.byte	0xf
 6266 0e6b 7A       		.byte	0x7a
 6267 0e6c EA000000 		.4byte	0xea
 6268 0e70 6C       		.byte	0x6c
 6269 0e71 00       		.byte	0
 6270 0e72 08       		.uleb128 0x8
 6271 0e73 EA000000 		.4byte	0xea
 6272 0e77 820E0000 		.4byte	0xe82
 6273 0e7b 09       		.uleb128 0x9
 6274 0e7c BA000000 		.4byte	0xba
 6275 0e80 03       		.byte	0x3
 6276 0e81 00       		.byte	0
 6277 0e82 02       		.uleb128 0x2
 6278 0e83 04090000 		.4byte	.LASF260
 6279 0e87 0F       		.byte	0xf
 6280 0e88 7B       		.byte	0x7b
 6281 0e89 F10D0000 		.4byte	0xdf1
 6282 0e8d 11       		.uleb128 0x11
 6283 0e8e 18       		.byte	0x18
 6284 0e8f 0F       		.byte	0xf
 6285 0e90 7D       		.byte	0x7d
 6286 0e91 EA0E0000 		.4byte	0xeea
 6287 0e95 12       		.uleb128 0x12
 6288 0e96 621A0000 		.4byte	.LASF261
 6289 0e9a 0F       		.byte	0xf
 6290 0e9b 7F       		.byte	0x7f
 6291 0e9c 64000000 		.4byte	0x64
 6292 0ea0 00       		.byte	0
 6293 0ea1 12       		.uleb128 0x12
 6294 0ea2 6A1A0000 		.4byte	.LASF262
 6295 0ea6 0F       		.byte	0xf
 6296 0ea7 80       		.byte	0x80
 6297 0ea8 64000000 		.4byte	0x64
 6298 0eac 02       		.byte	0x2
 6299 0ead 12       		.uleb128 0x12
 6300 0eae D8170000 		.4byte	.LASF263
 6301 0eb2 0F       		.byte	0xf
 6302 0eb3 81       		.byte	0x81
 6303 0eb4 64000000 		.4byte	0x64
 6304 0eb8 04       		.byte	0x4
 6305 0eb9 12       		.uleb128 0x12
 6306 0eba A1100000 		.4byte	.LASF264
 6307 0ebe 0F       		.byte	0xf
 6308 0ebf 82       		.byte	0x82
 6309 0ec0 EA000000 		.4byte	0xea
 6310 0ec4 08       		.byte	0x8
 6311 0ec5 12       		.uleb128 0x12
 6312 0ec6 AA100000 		.4byte	.LASF265
 6313 0eca 0F       		.byte	0xf
 6314 0ecb 83       		.byte	0x83
 6315 0ecc EA000000 		.4byte	0xea
 6316 0ed0 0C       		.byte	0xc
 6317 0ed1 12       		.uleb128 0x12
 6318 0ed2 B3100000 		.4byte	.LASF266
 6319 0ed6 0F       		.byte	0xf
 6320 0ed7 84       		.byte	0x84
 6321 0ed8 EA000000 		.4byte	0xea
ARM GAS  /tmp/ccQpHQw3.s 			page 114


 6322 0edc 10       		.byte	0x10
 6323 0edd 12       		.uleb128 0x12
 6324 0ede 66020000 		.4byte	.LASF267
 6325 0ee2 0F       		.byte	0xf
 6326 0ee3 85       		.byte	0x85
 6327 0ee4 EA000000 		.4byte	0xea
 6328 0ee8 14       		.byte	0x14
 6329 0ee9 00       		.byte	0
 6330 0eea 02       		.uleb128 0x2
 6331 0eeb 450A0000 		.4byte	.LASF268
 6332 0eef 0F       		.byte	0xf
 6333 0ef0 86       		.byte	0x86
 6334 0ef1 8D0E0000 		.4byte	0xe8d
 6335 0ef5 0F       		.uleb128 0xf
 6336 0ef6 01       		.byte	0x1
 6337 0ef7 10       		.byte	0x10
 6338 0ef8 4C       		.byte	0x4c
 6339 0ef9 280F0000 		.4byte	0xf28
 6340 0efd 10       		.uleb128 0x10
 6341 0efe A4180000 		.4byte	.LASF269
 6342 0f02 00       		.sleb128 0
 6343 0f03 10       		.uleb128 0x10
 6344 0f04 D10C0000 		.4byte	.LASF270
 6345 0f08 01       		.sleb128 1
 6346 0f09 10       		.uleb128 0x10
 6347 0f0a 951A0000 		.4byte	.LASF271
 6348 0f0e 02       		.sleb128 2
 6349 0f0f 10       		.uleb128 0x10
 6350 0f10 3C0D0000 		.4byte	.LASF272
 6351 0f14 03       		.sleb128 3
 6352 0f15 10       		.uleb128 0x10
 6353 0f16 88170000 		.4byte	.LASF273
 6354 0f1a 04       		.sleb128 4
 6355 0f1b 10       		.uleb128 0x10
 6356 0f1c 89010000 		.4byte	.LASF274
 6357 0f20 05       		.sleb128 5
 6358 0f21 10       		.uleb128 0x10
 6359 0f22 181B0000 		.4byte	.LASF275
 6360 0f26 06       		.sleb128 6
 6361 0f27 00       		.byte	0
 6362 0f28 02       		.uleb128 0x2
 6363 0f29 F70E0000 		.4byte	.LASF276
 6364 0f2d 10       		.byte	0x10
 6365 0f2e 54       		.byte	0x54
 6366 0f2f F50E0000 		.4byte	0xef5
 6367 0f33 0F       		.uleb128 0xf
 6368 0f34 01       		.byte	0x1
 6369 0f35 11       		.byte	0x11
 6370 0f36 4C       		.byte	0x4c
 6371 0f37 660F0000 		.4byte	0xf66
 6372 0f3b 10       		.uleb128 0x10
 6373 0f3c 5B090000 		.4byte	.LASF277
 6374 0f40 00       		.sleb128 0
 6375 0f41 10       		.uleb128 0x10
 6376 0f42 07130000 		.4byte	.LASF278
 6377 0f46 01       		.sleb128 1
 6378 0f47 10       		.uleb128 0x10
ARM GAS  /tmp/ccQpHQw3.s 			page 115


 6379 0f48 00000000 		.4byte	.LASF279
 6380 0f4c 02       		.sleb128 2
 6381 0f4d 10       		.uleb128 0x10
 6382 0f4e EA1C0000 		.4byte	.LASF280
 6383 0f52 03       		.sleb128 3
 6384 0f53 10       		.uleb128 0x10
 6385 0f54 A5160000 		.4byte	.LASF281
 6386 0f58 04       		.sleb128 4
 6387 0f59 10       		.uleb128 0x10
 6388 0f5a 0D010000 		.4byte	.LASF282
 6389 0f5e 05       		.sleb128 5
 6390 0f5f 10       		.uleb128 0x10
 6391 0f60 49050000 		.4byte	.LASF283
 6392 0f64 06       		.sleb128 6
 6393 0f65 00       		.byte	0
 6394 0f66 02       		.uleb128 0x2
 6395 0f67 47190000 		.4byte	.LASF284
 6396 0f6b 11       		.byte	0x11
 6397 0f6c 54       		.byte	0x54
 6398 0f6d 330F0000 		.4byte	0xf33
 6399 0f71 0F       		.uleb128 0xf
 6400 0f72 01       		.byte	0x1
 6401 0f73 12       		.byte	0x12
 6402 0f74 4D       		.byte	0x4d
 6403 0f75 920F0000 		.4byte	0xf92
 6404 0f79 10       		.uleb128 0x10
 6405 0f7a 53060000 		.4byte	.LASF285
 6406 0f7e 00       		.sleb128 0
 6407 0f7f 10       		.uleb128 0x10
 6408 0f80 B81A0000 		.4byte	.LASF286
 6409 0f84 01       		.sleb128 1
 6410 0f85 10       		.uleb128 0x10
 6411 0f86 281B0000 		.4byte	.LASF287
 6412 0f8a 02       		.sleb128 2
 6413 0f8b 10       		.uleb128 0x10
 6414 0f8c 831B0000 		.4byte	.LASF288
 6415 0f90 03       		.sleb128 3
 6416 0f91 00       		.byte	0
 6417 0f92 02       		.uleb128 0x2
 6418 0f93 FC000000 		.4byte	.LASF289
 6419 0f97 12       		.byte	0x12
 6420 0f98 52       		.byte	0x52
 6421 0f99 710F0000 		.4byte	0xf71
 6422 0f9d 08       		.uleb128 0x8
 6423 0f9e F8000000 		.4byte	0xf8
 6424 0fa2 AD0F0000 		.4byte	0xfad
 6425 0fa6 09       		.uleb128 0x9
 6426 0fa7 BA000000 		.4byte	0xba
 6427 0fab 05       		.byte	0x5
 6428 0fac 00       		.byte	0
 6429 0fad 0F       		.uleb128 0xf
 6430 0fae 01       		.byte	0x1
 6431 0faf 13       		.byte	0x13
 6432 0fb0 B2       		.byte	0xb2
 6433 0fb1 CE0F0000 		.4byte	0xfce
 6434 0fb5 10       		.uleb128 0x10
 6435 0fb6 7A0C0000 		.4byte	.LASF290
ARM GAS  /tmp/ccQpHQw3.s 			page 116


 6436 0fba 00       		.sleb128 0
 6437 0fbb 10       		.uleb128 0x10
 6438 0fbc 5A050000 		.4byte	.LASF291
 6439 0fc0 01       		.sleb128 1
 6440 0fc1 10       		.uleb128 0x10
 6441 0fc2 DE1B0000 		.4byte	.LASF292
 6442 0fc6 02       		.sleb128 2
 6443 0fc7 10       		.uleb128 0x10
 6444 0fc8 460E0000 		.4byte	.LASF293
 6445 0fcc 03       		.sleb128 3
 6446 0fcd 00       		.byte	0
 6447 0fce 02       		.uleb128 0x2
 6448 0fcf D1010000 		.4byte	.LASF294
 6449 0fd3 13       		.byte	0x13
 6450 0fd4 B7       		.byte	0xb7
 6451 0fd5 AD0F0000 		.4byte	0xfad
 6452 0fd9 11       		.uleb128 0x11
 6453 0fda 48       		.byte	0x48
 6454 0fdb 13       		.byte	0x13
 6455 0fdc BC       		.byte	0xbc
 6456 0fdd BA100000 		.4byte	0x10ba
 6457 0fe1 12       		.uleb128 0x12
 6458 0fe2 B1090000 		.4byte	.LASF295
 6459 0fe6 13       		.byte	0x13
 6460 0fe7 BE       		.byte	0xbe
 6461 0fe8 CE0F0000 		.4byte	0xfce
 6462 0fec 00       		.byte	0
 6463 0fed 12       		.uleb128 0x12
 6464 0fee D4150000 		.4byte	.LASF296
 6465 0ff2 13       		.byte	0x13
 6466 0ff3 BF       		.byte	0xbf
 6467 0ff4 19010000 		.4byte	0x119
 6468 0ff8 04       		.byte	0x4
 6469 0ff9 12       		.uleb128 0x12
 6470 0ffa 721A0000 		.4byte	.LASF297
 6471 0ffe 13       		.byte	0x13
 6472 0fff C0       		.byte	0xc0
 6473 1000 BA100000 		.4byte	0x10ba
 6474 1004 08       		.byte	0x8
 6475 1005 12       		.uleb128 0x12
 6476 1006 061B0000 		.4byte	.LASF298
 6477 100a 13       		.byte	0x13
 6478 100b C2       		.byte	0xc2
 6479 100c 37000000 		.4byte	0x37
 6480 1010 10       		.byte	0x10
 6481 1011 12       		.uleb128 0x12
 6482 1012 2C120000 		.4byte	.LASF299
 6483 1016 13       		.byte	0x13
 6484 1017 C3       		.byte	0xc3
 6485 1018 37000000 		.4byte	0x37
 6486 101c 14       		.byte	0x14
 6487 101d 12       		.uleb128 0x12
 6488 101e 98170000 		.4byte	.LASF300
 6489 1022 13       		.byte	0x13
 6490 1023 C5       		.byte	0xc5
 6491 1024 19010000 		.4byte	0x119
 6492 1028 18       		.byte	0x18
ARM GAS  /tmp/ccQpHQw3.s 			page 117


 6493 1029 12       		.uleb128 0x12
 6494 102a EE030000 		.4byte	.LASF301
 6495 102e 13       		.byte	0x13
 6496 102f C6       		.byte	0xc6
 6497 1030 37000000 		.4byte	0x37
 6498 1034 1C       		.byte	0x1c
 6499 1035 12       		.uleb128 0x12
 6500 1036 B7180000 		.4byte	.LASF302
 6501 103a 13       		.byte	0x13
 6502 103b C7       		.byte	0xc7
 6503 103c 37000000 		.4byte	0x37
 6504 1040 20       		.byte	0x20
 6505 1041 12       		.uleb128 0x12
 6506 1042 C4150000 		.4byte	.LASF303
 6507 1046 13       		.byte	0x13
 6508 1047 C8       		.byte	0xc8
 6509 1048 37000000 		.4byte	0x37
 6510 104c 24       		.byte	0x24
 6511 104d 12       		.uleb128 0x12
 6512 104e 98010000 		.4byte	.LASF304
 6513 1052 13       		.byte	0x13
 6514 1053 CA       		.byte	0xca
 6515 1054 19010000 		.4byte	0x119
 6516 1058 28       		.byte	0x28
 6517 1059 12       		.uleb128 0x12
 6518 105a 170A0000 		.4byte	.LASF305
 6519 105e 13       		.byte	0x13
 6520 105f CC       		.byte	0xcc
 6521 1060 F8000000 		.4byte	0xf8
 6522 1064 2C       		.byte	0x2c
 6523 1065 12       		.uleb128 0x12
 6524 1066 93060000 		.4byte	.LASF306
 6525 106a 13       		.byte	0x13
 6526 106b CD       		.byte	0xcd
 6527 106c F8000000 		.4byte	0xf8
 6528 1070 2D       		.byte	0x2d
 6529 1071 12       		.uleb128 0x12
 6530 1072 16130000 		.4byte	.LASF307
 6531 1076 13       		.byte	0x13
 6532 1077 D0       		.byte	0xd0
 6533 1078 37000000 		.4byte	0x37
 6534 107c 30       		.byte	0x30
 6535 107d 12       		.uleb128 0x12
 6536 107e 5D0E0000 		.4byte	.LASF308
 6537 1082 13       		.byte	0x13
 6538 1083 D4       		.byte	0xd4
 6539 1084 24010000 		.4byte	0x124
 6540 1088 34       		.byte	0x34
 6541 1089 12       		.uleb128 0x12
 6542 108a 800D0000 		.4byte	.LASF309
 6543 108e 13       		.byte	0x13
 6544 108f D8       		.byte	0xd8
 6545 1090 24010000 		.4byte	0x124
 6546 1094 38       		.byte	0x38
 6547 1095 12       		.uleb128 0x12
 6548 1096 F3010000 		.4byte	.LASF310
 6549 109a 13       		.byte	0x13
ARM GAS  /tmp/ccQpHQw3.s 			page 118


 6550 109b DC       		.byte	0xdc
 6551 109c 24010000 		.4byte	0x124
 6552 10a0 3C       		.byte	0x3c
 6553 10a1 12       		.uleb128 0x12
 6554 10a2 1F180000 		.4byte	.LASF311
 6555 10a6 13       		.byte	0x13
 6556 10a7 E0       		.byte	0xe0
 6557 10a8 24010000 		.4byte	0x124
 6558 10ac 40       		.byte	0x40
 6559 10ad 12       		.uleb128 0x12
 6560 10ae 69080000 		.4byte	.LASF312
 6561 10b2 13       		.byte	0x13
 6562 10b3 E4       		.byte	0xe4
 6563 10b4 24010000 		.4byte	0x124
 6564 10b8 44       		.byte	0x44
 6565 10b9 00       		.byte	0
 6566 10ba 08       		.uleb128 0x8
 6567 10bb 37000000 		.4byte	0x37
 6568 10bf CA100000 		.4byte	0x10ca
 6569 10c3 09       		.uleb128 0x9
 6570 10c4 BA000000 		.4byte	0xba
 6571 10c8 01       		.byte	0x1
 6572 10c9 00       		.byte	0
 6573 10ca 02       		.uleb128 0x2
 6574 10cb 39140000 		.4byte	.LASF313
 6575 10cf 13       		.byte	0x13
 6576 10d0 EB       		.byte	0xeb
 6577 10d1 D90F0000 		.4byte	0xfd9
 6578 10d5 02       		.uleb128 0x2
 6579 10d6 31100000 		.4byte	.LASF314
 6580 10da 14       		.byte	0x14
 6581 10db 39       		.byte	0x39
 6582 10dc 24010000 		.4byte	0x124
 6583 10e0 02       		.uleb128 0x2
 6584 10e1 910E0000 		.4byte	.LASF315
 6585 10e5 14       		.byte	0x14
 6586 10e6 3C       		.byte	0x3c
 6587 10e7 F8000000 		.4byte	0xf8
 6588 10eb 02       		.uleb128 0x2
 6589 10ec 82030000 		.4byte	.LASF316
 6590 10f0 14       		.byte	0x14
 6591 10f1 3D       		.byte	0x3d
 6592 10f2 F8000000 		.4byte	0xf8
 6593 10f6 02       		.uleb128 0x2
 6594 10f7 4B1A0000 		.4byte	.LASF317
 6595 10fb 14       		.byte	0x14
 6596 10fc 3E       		.byte	0x3e
 6597 10fd F8000000 		.4byte	0xf8
 6598 1101 02       		.uleb128 0x2
 6599 1102 B70C0000 		.4byte	.LASF318
 6600 1106 14       		.byte	0x14
 6601 1107 3F       		.byte	0x3f
 6602 1108 F8000000 		.4byte	0xf8
 6603 110c 02       		.uleb128 0x2
 6604 110d 7C000000 		.4byte	.LASF319
 6605 1111 14       		.byte	0x14
 6606 1112 40       		.byte	0x40
ARM GAS  /tmp/ccQpHQw3.s 			page 119


 6607 1113 24010000 		.4byte	0x124
 6608 1117 02       		.uleb128 0x2
 6609 1118 D9130000 		.4byte	.LASF320
 6610 111c 14       		.byte	0x14
 6611 111d 41       		.byte	0x41
 6612 111e 19010000 		.4byte	0x119
 6613 1122 02       		.uleb128 0x2
 6614 1123 35050000 		.4byte	.LASF321
 6615 1127 14       		.byte	0x14
 6616 1128 43       		.byte	0x43
 6617 1129 24010000 		.4byte	0x124
 6618 112d 02       		.uleb128 0x2
 6619 112e 7D090000 		.4byte	.LASF322
 6620 1132 14       		.byte	0x14
 6621 1133 45       		.byte	0x45
 6622 1134 19010000 		.4byte	0x119
 6623 1138 02       		.uleb128 0x2
 6624 1139 5A000000 		.4byte	.LASF323
 6625 113d 15       		.byte	0x15
 6626 113e 33       		.byte	0x33
 6627 113f 24010000 		.4byte	0x124
 6628 1143 02       		.uleb128 0x2
 6629 1144 F2110000 		.4byte	.LASF324
 6630 1148 15       		.byte	0x15
 6631 1149 3F       		.byte	0x3f
 6632 114a 4E110000 		.4byte	0x114e
 6633 114e 14       		.uleb128 0x14
 6634 114f C30B0000 		.4byte	.LASF326
 6635 1153 44       		.byte	0x44
 6636 1154 16       		.byte	0x16
 6637 1155 C2       		.byte	0xc2
 6638 1156 47120000 		.4byte	0x1247
 6639 115a 12       		.uleb128 0x12
 6640 115b 3C030000 		.4byte	.LASF327
 6641 115f 16       		.byte	0x16
 6642 1160 C3       		.byte	0xc3
 6643 1161 52120000 		.4byte	0x1252
 6644 1165 00       		.byte	0
 6645 1166 12       		.uleb128 0x12
 6646 1167 58030000 		.4byte	.LASF328
 6647 116b 16       		.byte	0x16
 6648 116c C5       		.byte	0xc5
 6649 116d 52120000 		.4byte	0x1252
 6650 1171 04       		.byte	0x4
 6651 1172 12       		.uleb128 0x12
 6652 1173 B9070000 		.4byte	.LASF329
 6653 1177 16       		.byte	0x16
 6654 1178 C7       		.byte	0xc7
 6655 1179 0C110000 		.4byte	0x110c
 6656 117d 08       		.byte	0x8
 6657 117e 12       		.uleb128 0x12
 6658 117f 76000000 		.4byte	.LASF330
 6659 1183 16       		.byte	0x16
 6660 1184 C8       		.byte	0xc8
 6661 1185 79140000 		.4byte	0x1479
 6662 1189 0C       		.byte	0xc
 6663 118a 12       		.uleb128 0x12
ARM GAS  /tmp/ccQpHQw3.s 			page 120


 6664 118b 17030000 		.4byte	.LASF331
 6665 118f 16       		.byte	0x16
 6666 1190 CA       		.byte	0xca
 6667 1191 52120000 		.4byte	0x1252
 6668 1195 10       		.byte	0x10
 6669 1196 12       		.uleb128 0x12
 6670 1197 9F130000 		.4byte	.LASF332
 6671 119b 16       		.byte	0x16
 6672 119c CB       		.byte	0xcb
 6673 119d 52120000 		.4byte	0x1252
 6674 11a1 14       		.byte	0x14
 6675 11a2 12       		.uleb128 0x12
 6676 11a3 BD1C0000 		.4byte	.LASF333
 6677 11a7 16       		.byte	0x16
 6678 11a8 D2       		.byte	0xd2
 6679 11a9 C8000000 		.4byte	0xc8
 6680 11ad 18       		.byte	0x18
 6681 11ae 12       		.uleb128 0x12
 6682 11af 371D0000 		.4byte	.LASF334
 6683 11b3 16       		.byte	0x16
 6684 11b4 DD       		.byte	0xdd
 6685 11b5 EB100000 		.4byte	0x10eb
 6686 11b9 1C       		.byte	0x1c
 6687 11ba 12       		.uleb128 0x12
 6688 11bb E40F0000 		.4byte	.LASF335
 6689 11bf 16       		.byte	0x16
 6690 11c0 E1       		.byte	0xe1
 6691 11c1 E0100000 		.4byte	0x10e0
 6692 11c5 1D       		.byte	0x1d
 6693 11c6 12       		.uleb128 0x12
 6694 11c7 7D100000 		.4byte	.LASF336
 6695 11cb 16       		.byte	0x16
 6696 11cc E6       		.byte	0xe6
 6697 11cd F6100000 		.4byte	0x10f6
 6698 11d1 1E       		.byte	0x1e
 6699 11d2 12       		.uleb128 0x12
 6700 11d3 F7040000 		.4byte	.LASF337
 6701 11d7 16       		.byte	0x16
 6702 11d8 EC       		.byte	0xec
 6703 11d9 01110000 		.4byte	0x1101
 6704 11dd 1F       		.byte	0x1f
 6705 11de 0C       		.uleb128 0xc
 6706 11df 705F7500 		.ascii	"p_u\000"
 6707 11e3 16       		.byte	0x16
 6708 11e4 3101     		.2byte	0x131
 6709 11e6 33150000 		.4byte	0x1533
 6710 11ea 20       		.byte	0x20
 6711 11eb 0D       		.uleb128 0xd
 6712 11ec 8D0F0000 		.4byte	.LASF338
 6713 11f0 16       		.byte	0x16
 6714 11f1 3601     		.2byte	0x136
 6715 11f3 58120000 		.4byte	0x1258
 6716 11f7 24       		.byte	0x24
 6717 11f8 0D       		.uleb128 0xd
 6718 11f9 84000000 		.4byte	.LASF339
 6719 11fd 16       		.byte	0x16
 6720 11fe 3C01     		.2byte	0x13c
ARM GAS  /tmp/ccQpHQw3.s 			page 121


 6721 1200 7C120000 		.4byte	0x127c
 6722 1204 28       		.byte	0x28
 6723 1205 0D       		.uleb128 0xd
 6724 1206 FB1C0000 		.4byte	.LASF340
 6725 120a 16       		.byte	0x16
 6726 120b 4001     		.2byte	0x140
 6727 120d 17110000 		.4byte	0x1117
 6728 1211 30       		.byte	0x30
 6729 1212 0D       		.uleb128 0xd
 6730 1213 0C0A0000 		.4byte	.LASF341
 6731 1217 16       		.byte	0x16
 6732 1218 4601     		.2byte	0x146
 6733 121a 22110000 		.4byte	0x1122
 6734 121e 34       		.byte	0x34
 6735 121f 0D       		.uleb128 0xd
 6736 1220 A9030000 		.4byte	.LASF342
 6737 1224 16       		.byte	0x16
 6738 1225 4D01     		.2byte	0x14d
 6739 1227 F2150000 		.4byte	0x15f2
 6740 122b 38       		.byte	0x38
 6741 122c 0D       		.uleb128 0xd
 6742 122d 7A0A0000 		.4byte	.LASF343
 6743 1231 16       		.byte	0x16
 6744 1232 5101     		.2byte	0x151
 6745 1234 0C110000 		.4byte	0x110c
 6746 1238 3C       		.byte	0x3c
 6747 1239 0D       		.uleb128 0xd
 6748 123a 39100000 		.4byte	.LASF344
 6749 123e 16       		.byte	0x16
 6750 123f 5801     		.2byte	0x158
 6751 1241 37000000 		.4byte	0x37
 6752 1245 40       		.byte	0x40
 6753 1246 00       		.byte	0
 6754 1247 02       		.uleb128 0x2
 6755 1248 07120000 		.4byte	.LASF345
 6756 124c 15       		.byte	0x15
 6757 124d 44       		.byte	0x44
 6758 124e 52120000 		.4byte	0x1252
 6759 1252 06       		.uleb128 0x6
 6760 1253 04       		.byte	0x4
 6761 1254 43110000 		.4byte	0x1143
 6762 1258 02       		.uleb128 0x2
 6763 1259 531A0000 		.4byte	.LASF346
 6764 125d 15       		.byte	0x15
 6765 125e 49       		.byte	0x49
 6766 125f 63120000 		.4byte	0x1263
 6767 1263 14       		.uleb128 0x14
 6768 1264 C10C0000 		.4byte	.LASF347
 6769 1268 04       		.byte	0x4
 6770 1269 16       		.byte	0x16
 6771 126a B0       		.byte	0xb0
 6772 126b 7C120000 		.4byte	0x127c
 6773 126f 12       		.uleb128 0x12
 6774 1270 3C030000 		.4byte	.LASF327
 6775 1274 16       		.byte	0x16
 6776 1275 B1       		.byte	0xb1
 6777 1276 52120000 		.4byte	0x1252
ARM GAS  /tmp/ccQpHQw3.s 			page 122


 6778 127a 00       		.byte	0
 6779 127b 00       		.byte	0
 6780 127c 02       		.uleb128 0x2
 6781 127d 99030000 		.4byte	.LASF348
 6782 1281 15       		.byte	0x15
 6783 1282 50       		.byte	0x50
 6784 1283 87120000 		.4byte	0x1287
 6785 1287 14       		.uleb128 0x14
 6786 1288 F6130000 		.4byte	.LASF349
 6787 128c 08       		.byte	0x8
 6788 128d 16       		.byte	0x16
 6789 128e B7       		.byte	0xb7
 6790 128f AC120000 		.4byte	0x12ac
 6791 1293 12       		.uleb128 0x12
 6792 1294 3C030000 		.4byte	.LASF327
 6793 1298 16       		.byte	0x16
 6794 1299 B8       		.byte	0xb8
 6795 129a 52120000 		.4byte	0x1252
 6796 129e 00       		.byte	0
 6797 129f 12       		.uleb128 0x12
 6798 12a0 58030000 		.4byte	.LASF328
 6799 12a4 16       		.byte	0x16
 6800 12a5 B9       		.byte	0xb9
 6801 12a6 52120000 		.4byte	0x1252
 6802 12aa 04       		.byte	0x4
 6803 12ab 00       		.byte	0
 6804 12ac 02       		.uleb128 0x2
 6805 12ad 5D0C0000 		.4byte	.LASF350
 6806 12b1 15       		.byte	0x15
 6807 12b2 57       		.byte	0x57
 6808 12b3 B7120000 		.4byte	0x12b7
 6809 12b7 18       		.uleb128 0x18
 6810 12b8 501C0000 		.4byte	.LASF351
 6811 12bc 1C       		.byte	0x1c
 6812 12bd 16       		.byte	0x16
 6813 12be 9001     		.2byte	0x190
 6814 12c0 13130000 		.4byte	0x1313
 6815 12c4 0D       		.uleb128 0xd
 6816 12c5 70150000 		.4byte	.LASF352
 6817 12c9 16       		.byte	0x16
 6818 12ca 9101     		.2byte	0x191
 6819 12cc 7C120000 		.4byte	0x127c
 6820 12d0 00       		.byte	0
 6821 12d1 0D       		.uleb128 0xd
 6822 12d2 36190000 		.4byte	.LASF353
 6823 12d6 16       		.byte	0x16
 6824 12d7 9201     		.2byte	0x192
 6825 12d9 0C110000 		.4byte	0x110c
 6826 12dd 08       		.byte	0x8
 6827 12de 0D       		.uleb128 0xd
 6828 12df A5000000 		.4byte	.LASF354
 6829 12e3 16       		.byte	0x16
 6830 12e4 9401     		.2byte	0x194
 6831 12e6 79140000 		.4byte	0x1479
 6832 12ea 0C       		.byte	0xc
 6833 12eb 0D       		.uleb128 0xd
 6834 12ec 73060000 		.4byte	.LASF355
ARM GAS  /tmp/ccQpHQw3.s 			page 123


 6835 12f0 16       		.byte	0x16
 6836 12f1 9701     		.2byte	0x197
 6837 12f3 52120000 		.4byte	0x1252
 6838 12f7 10       		.byte	0x10
 6839 12f8 0D       		.uleb128 0xd
 6840 12f9 E0170000 		.4byte	.LASF356
 6841 12fd 16       		.byte	0x16
 6842 12fe 9801     		.2byte	0x198
 6843 1300 52120000 		.4byte	0x1252
 6844 1304 14       		.byte	0x14
 6845 1305 0D       		.uleb128 0xd
 6846 1306 A2140000 		.4byte	.LASF357
 6847 130a 16       		.byte	0x16
 6848 130b 9B01     		.2byte	0x19b
 6849 130d 52120000 		.4byte	0x1252
 6850 1311 18       		.byte	0x18
 6851 1312 00       		.byte	0
 6852 1313 02       		.uleb128 0x2
 6853 1314 DC000000 		.4byte	.LASF358
 6854 1318 15       		.byte	0x15
 6855 1319 5C       		.byte	0x5c
 6856 131a 1E130000 		.4byte	0x131e
 6857 131e 06       		.uleb128 0x6
 6858 131f 04       		.byte	0x4
 6859 1320 24130000 		.4byte	0x1324
 6860 1324 15       		.uleb128 0x15
 6861 1325 2F130000 		.4byte	0x132f
 6862 1329 16       		.uleb128 0x16
 6863 132a 37000000 		.4byte	0x37
 6864 132e 00       		.byte	0
 6865 132f 02       		.uleb128 0x2
 6866 1330 4D0C0000 		.4byte	.LASF359
 6867 1334 15       		.byte	0x15
 6868 1335 61       		.byte	0x61
 6869 1336 3A130000 		.4byte	0x133a
 6870 133a 18       		.uleb128 0x18
 6871 133b E3120000 		.4byte	.LASF360
 6872 133f 14       		.byte	0x14
 6873 1340 16       		.byte	0x16
 6874 1341 6B01     		.2byte	0x16b
 6875 1343 89130000 		.4byte	0x1389
 6876 1347 0D       		.uleb128 0xd
 6877 1348 890E0000 		.4byte	.LASF361
 6878 134c 16       		.byte	0x16
 6879 134d 6C01     		.2byte	0x16c
 6880 134f F8150000 		.4byte	0x15f8
 6881 1353 00       		.byte	0
 6882 1354 0D       		.uleb128 0xd
 6883 1355 DC050000 		.4byte	.LASF362
 6884 1359 16       		.byte	0x16
 6885 135a 6D01     		.2byte	0x16d
 6886 135c F8150000 		.4byte	0x15f8
 6887 1360 04       		.byte	0x4
 6888 1361 0D       		.uleb128 0xd
 6889 1362 9A120000 		.4byte	.LASF363
 6890 1366 16       		.byte	0x16
 6891 1367 6E01     		.2byte	0x16e
ARM GAS  /tmp/ccQpHQw3.s 			page 124


 6892 1369 38110000 		.4byte	0x1138
 6893 136d 08       		.byte	0x8
 6894 136e 0D       		.uleb128 0xd
 6895 136f 9B090000 		.4byte	.LASF364
 6896 1373 16       		.byte	0x16
 6897 1374 6F01     		.2byte	0x16f
 6898 1376 13130000 		.4byte	0x1313
 6899 137a 0C       		.byte	0xc
 6900 137b 0D       		.uleb128 0xd
 6901 137c 8A020000 		.4byte	.LASF365
 6902 1380 16       		.byte	0x16
 6903 1381 7101     		.2byte	0x171
 6904 1383 37000000 		.4byte	0x37
 6905 1387 10       		.byte	0x10
 6906 1388 00       		.byte	0
 6907 1389 02       		.uleb128 0x2
 6908 138a FC0B0000 		.4byte	.LASF366
 6909 138e 15       		.byte	0x15
 6910 138f 66       		.byte	0x66
 6911 1390 94130000 		.4byte	0x1394
 6912 1394 18       		.uleb128 0x18
 6913 1395 E5000000 		.4byte	.LASF367
 6914 1399 10       		.byte	0x10
 6915 139a 16       		.byte	0x16
 6916 139b 7B01     		.2byte	0x17b
 6917 139d D6130000 		.4byte	0x13d6
 6918 13a1 0D       		.uleb128 0xd
 6919 13a2 890E0000 		.4byte	.LASF361
 6920 13a6 16       		.byte	0x16
 6921 13a7 7C01     		.2byte	0x17c
 6922 13a9 F8150000 		.4byte	0x15f8
 6923 13ad 00       		.byte	0
 6924 13ae 0D       		.uleb128 0xd
 6925 13af DC050000 		.4byte	.LASF362
 6926 13b3 16       		.byte	0x16
 6927 13b4 7E01     		.2byte	0x17e
 6928 13b6 F8150000 		.4byte	0x15f8
 6929 13ba 04       		.byte	0x4
 6930 13bb 0D       		.uleb128 0xd
 6931 13bc 9A120000 		.4byte	.LASF363
 6932 13c0 16       		.byte	0x16
 6933 13c1 8001     		.2byte	0x180
 6934 13c3 38110000 		.4byte	0x1138
 6935 13c7 08       		.byte	0x8
 6936 13c8 0D       		.uleb128 0xd
 6937 13c9 BD170000 		.4byte	.LASF368
 6938 13cd 16       		.byte	0x16
 6939 13ce 8201     		.2byte	0x182
 6940 13d0 FE150000 		.4byte	0x15fe
 6941 13d4 0C       		.byte	0xc
 6942 13d5 00       		.byte	0
 6943 13d6 02       		.uleb128 0x2
 6944 13d7 7B060000 		.4byte	.LASF369
 6945 13db 15       		.byte	0x15
 6946 13dc 6B       		.byte	0x6b
 6947 13dd E1130000 		.4byte	0x13e1
 6948 13e1 18       		.uleb128 0x18
ARM GAS  /tmp/ccQpHQw3.s 			page 125


 6949 13e2 B4040000 		.4byte	.LASF370
 6950 13e6 04       		.byte	0x4
 6951 13e7 16       		.byte	0x16
 6952 13e8 A201     		.2byte	0x1a2
 6953 13ea FC130000 		.4byte	0x13fc
 6954 13ee 0D       		.uleb128 0xd
 6955 13ef 9D0C0000 		.4byte	.LASF371
 6956 13f3 16       		.byte	0x16
 6957 13f4 AA01     		.2byte	0x1aa
 6958 13f6 03160000 		.4byte	0x1603
 6959 13fa 00       		.byte	0
 6960 13fb 00       		.byte	0
 6961 13fc 02       		.uleb128 0x2
 6962 13fd 921B0000 		.4byte	.LASF372
 6963 1401 15       		.byte	0x15
 6964 1402 70       		.byte	0x70
 6965 1403 07140000 		.4byte	0x1407
 6966 1407 19       		.uleb128 0x19
 6967 1408 3D190000 		.4byte	.LASF373
 6968 140c 5001     		.2byte	0x150
 6969 140e 16       		.byte	0x16
 6970 140f C201     		.2byte	0x1c2
 6971 1411 63140000 		.4byte	0x1463
 6972 1415 0D       		.uleb128 0xd
 6973 1416 01170000 		.4byte	.LASF374
 6974 141a 16       		.byte	0x16
 6975 141b C601     		.2byte	0x1c6
 6976 141d AC120000 		.4byte	0x12ac
 6977 1421 00       		.byte	0
 6978 1422 0D       		.uleb128 0xd
 6979 1423 BE190000 		.4byte	.LASF375
 6980 1427 16       		.byte	0x16
 6981 1428 CA01     		.2byte	0x1ca
 6982 142a 89130000 		.4byte	0x1389
 6983 142e 1C       		.byte	0x1c
 6984 142f 0C       		.uleb128 0xc
 6985 1430 64626700 		.ascii	"dbg\000"
 6986 1434 16       		.byte	0x16
 6987 1435 CE01     		.2byte	0x1ce
 6988 1437 D6130000 		.4byte	0x13d6
 6989 143b 2C       		.byte	0x2c
 6990 143c 0D       		.uleb128 0xd
 6991 143d 3D150000 		.4byte	.LASF376
 6992 1441 16       		.byte	0x16
 6993 1442 D201     		.2byte	0x1d2
 6994 1444 43110000 		.4byte	0x1143
 6995 1448 30       		.byte	0x30
 6996 1449 0C       		.uleb128 0xc
 6997 144a 746D00   		.ascii	"tm\000"
 6998 144d 16       		.byte	0x16
 6999 144e D701     		.2byte	0x1d7
 7000 1450 28150000 		.4byte	0x1528
 7001 1454 74       		.byte	0x74
 7002 1455 0D       		.uleb128 0xd
 7003 1456 EC0F0000 		.4byte	.LASF377
 7004 145a 16       		.byte	0x16
 7005 145b E301     		.2byte	0x1e3
ARM GAS  /tmp/ccQpHQw3.s 			page 126


 7006 145d 08160000 		.4byte	0x1608
 7007 1461 78       		.byte	0x78
 7008 1462 00       		.byte	0
 7009 1463 02       		.uleb128 0x2
 7010 1464 E5030000 		.4byte	.LASF378
 7011 1468 17       		.byte	0x17
 7012 1469 65       		.byte	0x65
 7013 146a 37000000 		.4byte	0x37
 7014 146e 02       		.uleb128 0x2
 7015 146f 36080000 		.4byte	.LASF379
 7016 1473 17       		.byte	0x17
 7017 1474 6D       		.byte	0x6d
 7018 1475 2F010000 		.4byte	0x12f
 7019 1479 14       		.uleb128 0x14
 7020 147a 41050000 		.4byte	.LASF380
 7021 147e 04       		.byte	0x4
 7022 147f 17       		.byte	0x17
 7023 1480 89       		.byte	0x89
 7024 1481 92140000 		.4byte	0x1492
 7025 1485 13       		.uleb128 0x13
 7026 1486 72313300 		.ascii	"r13\000"
 7027 148a 17       		.byte	0x17
 7028 148b 8A       		.byte	0x8a
 7029 148c 0D150000 		.4byte	0x150d
 7030 1490 00       		.byte	0
 7031 1491 00       		.byte	0
 7032 1492 14       		.uleb128 0x14
 7033 1493 5C120000 		.4byte	.LASF381
 7034 1497 24       		.byte	0x24
 7035 1498 18       		.byte	0x18
 7036 1499 FD       		.byte	0xfd
 7037 149a 0D150000 		.4byte	0x150d
 7038 149e 0C       		.uleb128 0xc
 7039 149f 723400   		.ascii	"r4\000"
 7040 14a2 18       		.byte	0x18
 7041 14a3 1001     		.2byte	0x110
 7042 14a5 63140000 		.4byte	0x1463
 7043 14a9 00       		.byte	0
 7044 14aa 0C       		.uleb128 0xc
 7045 14ab 723500   		.ascii	"r5\000"
 7046 14ae 18       		.byte	0x18
 7047 14af 1101     		.2byte	0x111
 7048 14b1 63140000 		.4byte	0x1463
 7049 14b5 04       		.byte	0x4
 7050 14b6 0C       		.uleb128 0xc
 7051 14b7 723600   		.ascii	"r6\000"
 7052 14ba 18       		.byte	0x18
 7053 14bb 1201     		.2byte	0x112
 7054 14bd 63140000 		.4byte	0x1463
 7055 14c1 08       		.byte	0x8
 7056 14c2 0C       		.uleb128 0xc
 7057 14c3 723700   		.ascii	"r7\000"
 7058 14c6 18       		.byte	0x18
 7059 14c7 1301     		.2byte	0x113
 7060 14c9 63140000 		.4byte	0x1463
 7061 14cd 0C       		.byte	0xc
 7062 14ce 0C       		.uleb128 0xc
ARM GAS  /tmp/ccQpHQw3.s 			page 127


 7063 14cf 723800   		.ascii	"r8\000"
 7064 14d2 18       		.byte	0x18
 7065 14d3 1401     		.2byte	0x114
 7066 14d5 63140000 		.4byte	0x1463
 7067 14d9 10       		.byte	0x10
 7068 14da 0C       		.uleb128 0xc
 7069 14db 723900   		.ascii	"r9\000"
 7070 14de 18       		.byte	0x18
 7071 14df 1501     		.2byte	0x115
 7072 14e1 63140000 		.4byte	0x1463
 7073 14e5 14       		.byte	0x14
 7074 14e6 0C       		.uleb128 0xc
 7075 14e7 72313000 		.ascii	"r10\000"
 7076 14eb 18       		.byte	0x18
 7077 14ec 1601     		.2byte	0x116
 7078 14ee 63140000 		.4byte	0x1463
 7079 14f2 18       		.byte	0x18
 7080 14f3 0C       		.uleb128 0xc
 7081 14f4 72313100 		.ascii	"r11\000"
 7082 14f8 18       		.byte	0x18
 7083 14f9 1701     		.2byte	0x117
 7084 14fb 63140000 		.4byte	0x1463
 7085 14ff 1C       		.byte	0x1c
 7086 1500 0C       		.uleb128 0xc
 7087 1501 6C7200   		.ascii	"lr\000"
 7088 1504 18       		.byte	0x18
 7089 1505 1801     		.2byte	0x118
 7090 1507 63140000 		.4byte	0x1463
 7091 150b 20       		.byte	0x20
 7092 150c 00       		.byte	0
 7093 150d 06       		.uleb128 0x6
 7094 150e 04       		.byte	0x4
 7095 150f 92140000 		.4byte	0x1492
 7096 1513 11       		.uleb128 0x11
 7097 1514 04       		.byte	0x4
 7098 1515 19       		.byte	0x19
 7099 1516 38       		.byte	0x38
 7100 1517 28150000 		.4byte	0x1528
 7101 151b 12       		.uleb128 0x12
 7102 151c 2F110000 		.4byte	.LASF382
 7103 1520 19       		.byte	0x19
 7104 1521 3C       		.byte	0x3c
 7105 1522 D5100000 		.4byte	0x10d5
 7106 1526 00       		.byte	0
 7107 1527 00       		.byte	0
 7108 1528 02       		.uleb128 0x2
 7109 1529 E8170000 		.4byte	.LASF383
 7110 152d 19       		.byte	0x19
 7111 152e 3D       		.byte	0x3d
 7112 152f 13150000 		.4byte	0x1513
 7113 1533 1A       		.uleb128 0x1a
 7114 1534 04       		.byte	0x4
 7115 1535 16       		.byte	0x16
 7116 1536 FA       		.byte	0xfa
 7117 1537 90150000 		.4byte	0x1590
 7118 153b 1B       		.uleb128 0x1b
 7119 153c 421B0000 		.4byte	.LASF384
ARM GAS  /tmp/ccQpHQw3.s 			page 128


 7120 1540 16       		.byte	0x16
 7121 1541 0101     		.2byte	0x101
 7122 1543 17110000 		.4byte	0x1117
 7123 1547 1B       		.uleb128 0x1b
 7124 1548 B0070000 		.4byte	.LASF385
 7125 154c 16       		.byte	0x16
 7126 154d 0801     		.2byte	0x108
 7127 154f 17110000 		.4byte	0x1117
 7128 1553 1B       		.uleb128 0x1b
 7129 1554 DA070000 		.4byte	.LASF386
 7130 1558 16       		.byte	0x16
 7131 1559 0F01     		.2byte	0x10f
 7132 155b 37000000 		.4byte	0x37
 7133 155f 1B       		.uleb128 0x1b
 7134 1560 76050000 		.4byte	.LASF387
 7135 1564 16       		.byte	0x16
 7136 1565 1601     		.2byte	0x116
 7137 1567 90150000 		.4byte	0x1590
 7138 156b 1B       		.uleb128 0x1b
 7139 156c 42000000 		.4byte	.LASF388
 7140 1570 16       		.byte	0x16
 7141 1571 1E01     		.2byte	0x11e
 7142 1573 BB150000 		.4byte	0x15bb
 7143 1577 1B       		.uleb128 0x1b
 7144 1578 210A0000 		.4byte	.LASF389
 7145 157c 16       		.byte	0x16
 7146 157d 2701     		.2byte	0x127
 7147 157f F2150000 		.4byte	0x15f2
 7148 1583 1B       		.uleb128 0x1b
 7149 1584 C5020000 		.4byte	.LASF390
 7150 1588 16       		.byte	0x16
 7151 1589 2F01     		.2byte	0x12f
 7152 158b 22110000 		.4byte	0x1122
 7153 158f 00       		.byte	0
 7154 1590 06       		.uleb128 0x6
 7155 1591 04       		.byte	0x4
 7156 1592 47120000 		.4byte	0x1247
 7157 1596 14       		.uleb128 0x14
 7158 1597 B60B0000 		.4byte	.LASF391
 7159 159b 0C       		.byte	0xc
 7160 159c 1A       		.byte	0x1a
 7161 159d 34       		.byte	0x34
 7162 159e BB150000 		.4byte	0x15bb
 7163 15a2 12       		.uleb128 0x12
 7164 15a3 60180000 		.4byte	.LASF392
 7165 15a7 1A       		.byte	0x1a
 7166 15a8 35       		.byte	0x35
 7167 15a9 7C120000 		.4byte	0x127c
 7168 15ad 00       		.byte	0
 7169 15ae 12       		.uleb128 0x12
 7170 15af 01130000 		.4byte	.LASF393
 7171 15b3 1A       		.byte	0x1a
 7172 15b4 37       		.byte	0x37
 7173 15b5 2D110000 		.4byte	0x112d
 7174 15b9 08       		.byte	0x8
 7175 15ba 00       		.byte	0
 7176 15bb 06       		.uleb128 0x6
ARM GAS  /tmp/ccQpHQw3.s 			page 129


 7177 15bc 04       		.byte	0x4
 7178 15bd 96150000 		.4byte	0x1596
 7179 15c1 14       		.uleb128 0x14
 7180 15c2 13190000 		.4byte	.LASF394
 7181 15c6 10       		.byte	0x10
 7182 15c7 1B       		.byte	0x1b
 7183 15c8 39       		.byte	0x39
 7184 15c9 F2150000 		.4byte	0x15f2
 7185 15cd 12       		.uleb128 0x12
 7186 15ce 550E0000 		.4byte	.LASF395
 7187 15d2 1B       		.byte	0x1b
 7188 15d3 3A       		.byte	0x3a
 7189 15d4 7C120000 		.4byte	0x127c
 7190 15d8 00       		.byte	0
 7191 15d9 12       		.uleb128 0x12
 7192 15da 82020000 		.4byte	.LASF396
 7193 15de 1B       		.byte	0x1b
 7194 15df 3C       		.byte	0x3c
 7195 15e0 52120000 		.4byte	0x1252
 7196 15e4 08       		.byte	0x8
 7197 15e5 12       		.uleb128 0x12
 7198 15e6 C41C0000 		.4byte	.LASF397
 7199 15ea 1B       		.byte	0x1b
 7200 15eb 3E       		.byte	0x3e
 7201 15ec 23160000 		.4byte	0x1623
 7202 15f0 0C       		.byte	0xc
 7203 15f1 00       		.byte	0
 7204 15f2 06       		.uleb128 0x6
 7205 15f3 04       		.byte	0x4
 7206 15f4 C1150000 		.4byte	0x15c1
 7207 15f8 06       		.uleb128 0x6
 7208 15f9 04       		.byte	0x4
 7209 15fa 2F130000 		.4byte	0x132f
 7210 15fe 0A       		.uleb128 0xa
 7211 15ff 38110000 		.4byte	0x1138
 7212 1603 0A       		.uleb128 0xa
 7213 1604 C8000000 		.4byte	0xc8
 7214 1608 08       		.uleb128 0x8
 7215 1609 6E140000 		.4byte	0x146e
 7216 160d 18160000 		.4byte	0x1618
 7217 1611 09       		.uleb128 0x9
 7218 1612 BA000000 		.4byte	0xba
 7219 1616 1A       		.byte	0x1a
 7220 1617 00       		.byte	0
 7221 1618 02       		.uleb128 0x2
 7222 1619 431A0000 		.4byte	.LASF398
 7223 161d 1B       		.byte	0x1b
 7224 161e 34       		.byte	0x34
 7225 161f C1150000 		.4byte	0x15c1
 7226 1623 06       		.uleb128 0x6
 7227 1624 04       		.byte	0x4
 7228 1625 18160000 		.4byte	0x1618
 7229 1629 03       		.uleb128 0x3
 7230 162a 01       		.byte	0x1
 7231 162b 02       		.byte	0x2
 7232 162c A8060000 		.4byte	.LASF399
 7233 1630 0F       		.uleb128 0xf
ARM GAS  /tmp/ccQpHQw3.s 			page 130


 7234 1631 01       		.byte	0x1
 7235 1632 1C       		.byte	0x1c
 7236 1633 3D       		.byte	0x3d
 7237 1634 83160000 		.4byte	0x1683
 7238 1638 10       		.uleb128 0x10
 7239 1639 80080000 		.4byte	.LASF400
 7240 163d 00       		.sleb128 0
 7241 163e 10       		.uleb128 0x10
 7242 163f 74030000 		.4byte	.LASF401
 7243 1643 01       		.sleb128 1
 7244 1644 10       		.uleb128 0x10
 7245 1645 6E100000 		.4byte	.LASF402
 7246 1649 02       		.sleb128 2
 7247 164a 10       		.uleb128 0x10
 7248 164b 030D0000 		.4byte	.LASF403
 7249 164f 03       		.sleb128 3
 7250 1650 10       		.uleb128 0x10
 7251 1651 6A0C0000 		.4byte	.LASF404
 7252 1655 04       		.sleb128 4
 7253 1656 10       		.uleb128 0x10
 7254 1657 3A040000 		.4byte	.LASF405
 7255 165b 05       		.sleb128 5
 7256 165c 10       		.uleb128 0x10
 7257 165d 57020000 		.4byte	.LASF406
 7258 1661 06       		.sleb128 6
 7259 1662 10       		.uleb128 0x10
 7260 1663 360C0000 		.4byte	.LASF407
 7261 1667 08       		.sleb128 8
 7262 1668 10       		.uleb128 0x10
 7263 1669 3B110000 		.4byte	.LASF408
 7264 166d 10       		.sleb128 16
 7265 166e 10       		.uleb128 0x10
 7266 166f E3150000 		.4byte	.LASF409
 7267 1673 20       		.sleb128 32
 7268 1674 10       		.uleb128 0x10
 7269 1675 E1080000 		.4byte	.LASF410
 7270 1679 C000     		.sleb128 64
 7271 167b 10       		.uleb128 0x10
 7272 167c FE030000 		.4byte	.LASF411
 7273 1680 8001     		.sleb128 128
 7274 1682 00       		.byte	0
 7275 1683 02       		.uleb128 0x2
 7276 1684 C2120000 		.4byte	.LASF412
 7277 1688 1C       		.byte	0x1c
 7278 1689 4A       		.byte	0x4a
 7279 168a 30160000 		.4byte	0x1630
 7280 168e 1C       		.uleb128 0x1c
 7281 168f 78150000 		.4byte	.LASF542
 7282 1693 02       		.byte	0x2
 7283 1694 B001     		.2byte	0x1b0
 7284 1696 03       		.byte	0x3
 7285 1697 1D       		.uleb128 0x1d
 7286 1698 9E1B0000 		.4byte	.LASF543
 7287 169c 01       		.byte	0x1
 7288 169d 7F01     		.2byte	0x17f
 7289 169f 39000000 		.4byte	0x39
 7290 16a3 00000000 		.4byte	.LFB269
ARM GAS  /tmp/ccQpHQw3.s 			page 131


 7291 16a7 E8030000 		.4byte	.LFE269-.LFB269
 7292 16ab 01       		.uleb128 0x1
 7293 16ac 9C       		.byte	0x9c
 7294 16ad 4B170000 		.4byte	0x174b
 7295 16b1 1E       		.uleb128 0x1e
 7296 16b2 14000000 		.4byte	.LBB11
 7297 16b6 F8000000 		.4byte	.LBE11-.LBB11
 7298 16ba E7160000 		.4byte	0x16e7
 7299 16be 1F       		.uleb128 0x1f
 7300 16bf 95090000 		.4byte	.LASF413
 7301 16c3 01       		.byte	0x1
 7302 16c4 9001     		.2byte	0x190
 7303 16c6 19010000 		.4byte	0x119
 7304 16ca 02       		.uleb128 0x2
 7305 16cb 91       		.byte	0x91
 7306 16cc 74       		.sleb128 -12
 7307 16cd 20       		.uleb128 0x20
 7308 16ce 1A000000 		.4byte	.LBB12
 7309 16d2 DC000000 		.4byte	.LBE12-.LBB12
 7310 16d6 1F       		.uleb128 0x1f
 7311 16d7 2C010000 		.4byte	.LASF414
 7312 16db 01       		.byte	0x1
 7313 16dc 9201     		.2byte	0x192
 7314 16de 4B170000 		.4byte	0x174b
 7315 16e2 02       		.uleb128 0x2
 7316 16e3 91       		.byte	0x91
 7317 16e4 70       		.sleb128 -16
 7318 16e5 00       		.byte	0
 7319 16e6 00       		.byte	0
 7320 16e7 1E       		.uleb128 0x1e
 7321 16e8 50010000 		.4byte	.LBB13
 7322 16ec 18000000 		.4byte	.LBE13-.LBB13
 7323 16f0 04170000 		.4byte	0x1704
 7324 16f4 1F       		.uleb128 0x1f
 7325 16f5 2C010000 		.4byte	.LASF414
 7326 16f9 01       		.byte	0x1
 7327 16fa 2B02     		.2byte	0x22b
 7328 16fc 4B170000 		.4byte	0x174b
 7329 1700 02       		.uleb128 0x2
 7330 1701 91       		.byte	0x91
 7331 1702 6C       		.sleb128 -20
 7332 1703 00       		.byte	0
 7333 1704 1E       		.uleb128 0x1e
 7334 1705 DA010000 		.4byte	.LBB14
 7335 1709 F2000000 		.4byte	.LBE14-.LBB14
 7336 170d 3A170000 		.4byte	0x173a
 7337 1711 1F       		.uleb128 0x1f
 7338 1712 2C010000 		.4byte	.LASF414
 7339 1716 01       		.byte	0x1
 7340 1717 4102     		.2byte	0x241
 7341 1719 4B170000 		.4byte	0x174b
 7342 171d 02       		.uleb128 0x2
 7343 171e 91       		.byte	0x91
 7344 171f 68       		.sleb128 -24
 7345 1720 20       		.uleb128 0x20
 7346 1721 B2020000 		.4byte	.LBB15
 7347 1725 10000000 		.4byte	.LBE15-.LBB15
ARM GAS  /tmp/ccQpHQw3.s 			page 132


 7348 1729 1F       		.uleb128 0x1f
 7349 172a 640A0000 		.4byte	.LASF415
 7350 172e 01       		.byte	0x1
 7351 172f 8202     		.2byte	0x282
 7352 1731 24010000 		.4byte	0x124
 7353 1735 02       		.uleb128 0x2
 7354 1736 91       		.byte	0x91
 7355 1737 64       		.sleb128 -28
 7356 1738 00       		.byte	0
 7357 1739 00       		.byte	0
 7358 173a 21       		.uleb128 0x21
 7359 173b 8E160000 		.4byte	0x168e
 7360 173f A2030000 		.4byte	.LBB16
 7361 1743 02000000 		.4byte	.LBE16-.LBB16
 7362 1747 01       		.byte	0x1
 7363 1748 ED02     		.2byte	0x2ed
 7364 174a 00       		.byte	0
 7365 174b 06       		.uleb128 0x6
 7366 174c 04       		.byte	0x4
 7367 174d D60D0000 		.4byte	0xdd6
 7368 1751 22       		.uleb128 0x22
 7369 1752 74040000 		.4byte	.LASF416
 7370 1756 01       		.byte	0x1
 7371 1757 F602     		.2byte	0x2f6
 7372 1759 F0030000 		.4byte	.LFB270
 7373 175d 44000000 		.4byte	.LFE270-.LFB270
 7374 1761 01       		.uleb128 0x1
 7375 1762 9C       		.byte	0x9c
 7376 1763 22       		.uleb128 0x22
 7377 1764 C5080000 		.4byte	.LASF417
 7378 1768 01       		.byte	0x1
 7379 1769 0503     		.2byte	0x305
 7380 176b 40040000 		.4byte	.LFB271
 7381 176f 44000000 		.4byte	.LFE271-.LFB271
 7382 1773 01       		.uleb128 0x1
 7383 1774 9C       		.byte	0x9c
 7384 1775 23       		.uleb128 0x23
 7385 1776 27060000 		.4byte	.LASF419
 7386 177a 01       		.byte	0x1
 7387 177b 1503     		.2byte	0x315
 7388 177d 90040000 		.4byte	.LFB272
 7389 1781 14010000 		.4byte	.LFE272-.LFB272
 7390 1785 01       		.uleb128 0x1
 7391 1786 9C       		.byte	0x9c
 7392 1787 AA170000 		.4byte	0x17aa
 7393 178b 24       		.uleb128 0x24
 7394 178c FE0C0000 		.4byte	.LASF421
 7395 1790 01       		.byte	0x1
 7396 1791 1503     		.2byte	0x315
 7397 1793 AA170000 		.4byte	0x17aa
 7398 1797 02       		.uleb128 0x2
 7399 1798 91       		.byte	0x91
 7400 1799 6C       		.sleb128 -20
 7401 179a 1F       		.uleb128 0x1f
 7402 179b 25110000 		.4byte	.LASF418
 7403 179f 01       		.byte	0x1
 7404 17a0 1703     		.2byte	0x317
ARM GAS  /tmp/ccQpHQw3.s 			page 133


 7405 17a2 24010000 		.4byte	0x124
 7406 17a6 02       		.uleb128 0x2
 7407 17a7 91       		.byte	0x91
 7408 17a8 74       		.sleb128 -12
 7409 17a9 00       		.byte	0
 7410 17aa 06       		.uleb128 0x6
 7411 17ab 04       		.byte	0x4
 7412 17ac DA0B0000 		.4byte	0xbda
 7413 17b0 25       		.uleb128 0x25
 7414 17b1 89150000 		.4byte	.LASF420
 7415 17b5 01       		.byte	0x1
 7416 17b6 5B03     		.2byte	0x35b
 7417 17b8 B0050000 		.4byte	.LFB273
 7418 17bc 48000000 		.4byte	.LFE273-.LFB273
 7419 17c0 01       		.uleb128 0x1
 7420 17c1 9C       		.byte	0x9c
 7421 17c2 D6170000 		.4byte	0x17d6
 7422 17c6 24       		.uleb128 0x24
 7423 17c7 FE0C0000 		.4byte	.LASF421
 7424 17cb 01       		.byte	0x1
 7425 17cc 5B03     		.2byte	0x35b
 7426 17ce AA170000 		.4byte	0x17aa
 7427 17d2 02       		.uleb128 0x2
 7428 17d3 91       		.byte	0x91
 7429 17d4 7C       		.sleb128 -4
 7430 17d5 00       		.byte	0
 7431 17d6 26       		.uleb128 0x26
 7432 17d7 7A120000 		.4byte	.LASF425
 7433 17db 01       		.byte	0x1
 7434 17dc 7803     		.2byte	0x378
 7435 17de 00060000 		.4byte	.LFB274
 7436 17e2 DC000000 		.4byte	.LFE274-.LFB274
 7437 17e6 01       		.uleb128 0x1
 7438 17e7 9C       		.byte	0x9c
 7439 17e8 43180000 		.4byte	0x1843
 7440 17ec 20       		.uleb128 0x20
 7441 17ed 0C060000 		.4byte	.LBB18
 7442 17f1 A4000000 		.4byte	.LBE18-.LBB18
 7443 17f5 1F       		.uleb128 0x1f
 7444 17f6 FF140000 		.4byte	.LASF422
 7445 17fa 01       		.byte	0x1
 7446 17fb 7C03     		.2byte	0x37c
 7447 17fd 24010000 		.4byte	0x124
 7448 1801 05       		.uleb128 0x5
 7449 1802 03       		.byte	0x3
 7450 1803 40000000 		.4byte	HowManyButtonPress.19043
 7451 1807 1F       		.uleb128 0x1f
 7452 1808 A51A0000 		.4byte	.LASF423
 7453 180c 01       		.byte	0x1
 7454 180d 7D03     		.2byte	0x37d
 7455 180f 24010000 		.4byte	0x124
 7456 1813 05       		.uleb128 0x5
 7457 1814 03       		.byte	0x3
 7458 1815 3C000000 		.4byte	tickstart.19044
 7459 1819 1F       		.uleb128 0x1f
 7460 181a 67150000 		.4byte	.LASF424
 7461 181e 01       		.byte	0x1
ARM GAS  /tmp/ccQpHQw3.s 			page 134


 7462 181f 7E03     		.2byte	0x37e
 7463 1821 24010000 		.4byte	0x124
 7464 1825 02       		.uleb128 0x2
 7465 1826 91       		.byte	0x91
 7466 1827 74       		.sleb128 -12
 7467 1828 20       		.uleb128 0x20
 7468 1829 46060000 		.4byte	.LBB19
 7469 182d 6A000000 		.4byte	.LBE19-.LBB19
 7470 1831 1F       		.uleb128 0x1f
 7471 1832 2C010000 		.4byte	.LASF414
 7472 1836 01       		.byte	0x1
 7473 1837 8B03     		.2byte	0x38b
 7474 1839 4B170000 		.4byte	0x174b
 7475 183d 02       		.uleb128 0x2
 7476 183e 91       		.byte	0x91
 7477 183f 70       		.sleb128 -16
 7478 1840 00       		.byte	0
 7479 1841 00       		.byte	0
 7480 1842 00       		.byte	0
 7481 1843 26       		.uleb128 0x26
 7482 1844 50110000 		.4byte	.LASF426
 7483 1848 01       		.byte	0x1
 7484 1849 A503     		.2byte	0x3a5
 7485 184b E0060000 		.4byte	.LFB275
 7486 184f B0000000 		.4byte	.LFE275-.LFB275
 7487 1853 01       		.uleb128 0x1
 7488 1854 9C       		.byte	0x9c
 7489 1855 73180000 		.4byte	0x1873
 7490 1859 20       		.uleb128 0x20
 7491 185a 42070000 		.4byte	.LBB20
 7492 185e 10000000 		.4byte	.LBE20-.LBB20
 7493 1862 1F       		.uleb128 0x1f
 7494 1863 2C010000 		.4byte	.LASF414
 7495 1867 01       		.byte	0x1
 7496 1868 BA03     		.2byte	0x3ba
 7497 186a 4B170000 		.4byte	0x174b
 7498 186e 02       		.uleb128 0x2
 7499 186f 91       		.byte	0x91
 7500 1870 6C       		.sleb128 -20
 7501 1871 00       		.byte	0
 7502 1872 00       		.byte	0
 7503 1873 26       		.uleb128 0x26
 7504 1874 F4120000 		.4byte	.LASF427
 7505 1878 01       		.byte	0x1
 7506 1879 CB03     		.2byte	0x3cb
 7507 187b 90070000 		.4byte	.LFB276
 7508 187f 5C010000 		.4byte	.LFE276-.LFB276
 7509 1883 01       		.uleb128 0x1
 7510 1884 9C       		.byte	0x9c
 7511 1885 CF180000 		.4byte	0x18cf
 7512 1889 1F       		.uleb128 0x1f
 7513 188a 1D020000 		.4byte	.LASF428
 7514 188e 01       		.byte	0x1
 7515 188f CD03     		.2byte	0x3cd
 7516 1891 F8000000 		.4byte	0xf8
 7517 1895 02       		.uleb128 0x2
 7518 1896 91       		.byte	0x91
ARM GAS  /tmp/ccQpHQw3.s 			page 135


 7519 1897 73       		.sleb128 -13
 7520 1898 1E       		.uleb128 0x1e
 7521 1899 90080000 		.4byte	.LBB21
 7522 189d 16000000 		.4byte	.LBE21-.LBB21
 7523 18a1 B5180000 		.4byte	0x18b5
 7524 18a5 1F       		.uleb128 0x1f
 7525 18a6 47060000 		.4byte	.LASF429
 7526 18aa 01       		.byte	0x1
 7527 18ab FB03     		.2byte	0x3fb
 7528 18ad 83160000 		.4byte	0x1683
 7529 18b1 02       		.uleb128 0x2
 7530 18b2 91       		.byte	0x91
 7531 18b3 77       		.sleb128 -9
 7532 18b4 00       		.byte	0
 7533 18b5 20       		.uleb128 0x20
 7534 18b6 CA080000 		.4byte	.LBB22
 7535 18ba 14000000 		.4byte	.LBE22-.LBB22
 7536 18be 1F       		.uleb128 0x1f
 7537 18bf 27100000 		.4byte	.LASF430
 7538 18c3 01       		.byte	0x1
 7539 18c4 0404     		.2byte	0x404
 7540 18c6 0E010000 		.4byte	0x10e
 7541 18ca 02       		.uleb128 0x2
 7542 18cb 91       		.byte	0x91
 7543 18cc 74       		.sleb128 -12
 7544 18cd 00       		.byte	0
 7545 18ce 00       		.byte	0
 7546 18cf 26       		.uleb128 0x26
 7547 18d0 AC140000 		.4byte	.LASF431
 7548 18d4 01       		.byte	0x1
 7549 18d5 0F04     		.2byte	0x40f
 7550 18d7 F0080000 		.4byte	.LFB277
 7551 18db 48000000 		.4byte	.LFE277-.LFB277
 7552 18df 01       		.uleb128 0x1
 7553 18e0 9C       		.byte	0x9c
 7554 18e1 13190000 		.4byte	0x1913
 7555 18e5 1F       		.uleb128 0x1f
 7556 18e6 4D020000 		.4byte	.LASF432
 7557 18ea 01       		.byte	0x1
 7558 18eb 1104     		.2byte	0x411
 7559 18ed 6C0C0000 		.4byte	0xc6c
 7560 18f1 02       		.uleb128 0x2
 7561 18f2 91       		.byte	0x91
 7562 18f3 6C       		.sleb128 -20
 7563 18f4 1F       		.uleb128 0x1f
 7564 18f5 F40C0000 		.4byte	.LASF433
 7565 18f9 01       		.byte	0x1
 7566 18fa 1204     		.2byte	0x412
 7567 18fc 6C0C0000 		.4byte	0xc6c
 7568 1900 02       		.uleb128 0x2
 7569 1901 91       		.byte	0x91
 7570 1902 60       		.sleb128 -32
 7571 1903 1F       		.uleb128 0x1f
 7572 1904 28130000 		.4byte	.LASF434
 7573 1908 01       		.byte	0x1
 7574 1909 1304     		.2byte	0x413
 7575 190b 6C0C0000 		.4byte	0xc6c
ARM GAS  /tmp/ccQpHQw3.s 			page 136


 7576 190f 02       		.uleb128 0x2
 7577 1910 91       		.byte	0x91
 7578 1911 54       		.sleb128 -44
 7579 1912 00       		.byte	0
 7580 1913 26       		.uleb128 0x26
 7581 1914 40010000 		.4byte	.LASF435
 7582 1918 01       		.byte	0x1
 7583 1919 2604     		.2byte	0x426
 7584 191b 40090000 		.4byte	.LFB278
 7585 191f 40030000 		.4byte	.LFE278-.LFB278
 7586 1923 01       		.uleb128 0x1
 7587 1924 9C       		.byte	0x9c
 7588 1925 111A0000 		.4byte	0x1a11
 7589 1929 1F       		.uleb128 0x1f
 7590 192a A1080000 		.4byte	.LASF436
 7591 192e 01       		.byte	0x1
 7592 192f 2804     		.2byte	0x428
 7593 1931 111A0000 		.4byte	0x1a11
 7594 1935 05       		.uleb128 0x5
 7595 1936 03       		.byte	0x3
 7596 1937 50000000 		.4byte	quat_axes.19066
 7597 193b 1F       		.uleb128 0x1f
 7598 193c 7C050000 		.4byte	.LASF437
 7599 1940 01       		.byte	0x1
 7600 1941 2904     		.2byte	0x429
 7601 1943 19010000 		.4byte	0x119
 7602 1947 05       		.uleb128 0x5
 7603 1948 03       		.byte	0x3
 7604 1949 4C000000 		.4byte	calibIndex.19067
 7605 194d 1F       		.uleb128 0x1f
 7606 194e 24190000 		.4byte	.LASF438
 7607 1952 01       		.byte	0x1
 7608 1953 2A04     		.2byte	0x42a
 7609 1955 19010000 		.4byte	0x119
 7610 1959 05       		.uleb128 0x5
 7611 195a 03       		.byte	0x3
 7612 195b 48000000 		.4byte	CounterFX.19068
 7613 195f 1F       		.uleb128 0x1f
 7614 1960 AA170000 		.4byte	.LASF439
 7615 1964 01       		.byte	0x1
 7616 1965 2B04     		.2byte	0x42b
 7617 1967 19010000 		.4byte	0x119
 7618 196b 05       		.uleb128 0x5
 7619 196c 03       		.byte	0x3
 7620 196d 44000000 		.4byte	CounterEC.19069
 7621 1971 1F       		.uleb128 0x1f
 7622 1972 4D020000 		.4byte	.LASF432
 7623 1976 01       		.byte	0x1
 7624 1977 2C04     		.2byte	0x42c
 7625 1979 6C0C0000 		.4byte	0xc6c
 7626 197d 02       		.uleb128 0x2
 7627 197e 91       		.byte	0x91
 7628 197f 54       		.sleb128 -44
 7629 1980 1F       		.uleb128 0x1f
 7630 1981 0A040000 		.4byte	.LASF440
 7631 1985 01       		.byte	0x1
 7632 1986 2D04     		.2byte	0x42d
ARM GAS  /tmp/ccQpHQw3.s 			page 137


 7633 1988 340C0000 		.4byte	0xc34
 7634 198c 02       		.uleb128 0x2
 7635 198d 91       		.byte	0x91
 7636 198e 4C       		.sleb128 -52
 7637 198f 1F       		.uleb128 0x1f
 7638 1990 F40C0000 		.4byte	.LASF433
 7639 1994 01       		.byte	0x1
 7640 1995 2E04     		.2byte	0x42e
 7641 1997 6C0C0000 		.4byte	0xc6c
 7642 199b 02       		.uleb128 0x2
 7643 199c 91       		.byte	0x91
 7644 199d 40       		.sleb128 -64
 7645 199e 1F       		.uleb128 0x1f
 7646 199f 28130000 		.4byte	.LASF434
 7647 19a3 01       		.byte	0x1
 7648 19a4 2F04     		.2byte	0x42f
 7649 19a6 6C0C0000 		.4byte	0xc6c
 7650 19aa 03       		.uleb128 0x3
 7651 19ab 91       		.byte	0x91
 7652 19ac B47F     		.sleb128 -76
 7653 19ae 1F       		.uleb128 0x1f
 7654 19af 22080000 		.4byte	.LASF441
 7655 19b3 01       		.byte	0x1
 7656 19b4 6F04     		.2byte	0x46f
 7657 19b6 211A0000 		.4byte	0x1a21
 7658 19ba 02       		.uleb128 0x2
 7659 19bb 91       		.byte	0x91
 7660 19bc 68       		.sleb128 -24
 7661 19bd 1E       		.uleb128 0x1e
 7662 19be 7C0A0000 		.4byte	.LBB23
 7663 19c2 10000000 		.4byte	.LBE23-.LBB23
 7664 19c6 DA190000 		.4byte	0x19da
 7665 19ca 1F       		.uleb128 0x1f
 7666 19cb 2C010000 		.4byte	.LASF414
 7667 19cf 01       		.byte	0x1
 7668 19d0 5F04     		.2byte	0x45f
 7669 19d2 4B170000 		.4byte	0x174b
 7670 19d6 02       		.uleb128 0x2
 7671 19d7 91       		.byte	0x91
 7672 19d8 6C       		.sleb128 -20
 7673 19d9 00       		.byte	0
 7674 19da 1E       		.uleb128 0x1e
 7675 19db CE0A0000 		.4byte	.LBB24
 7676 19df 44000000 		.4byte	.LBE24-.LBB24
 7677 19e3 F7190000 		.4byte	0x19f7
 7678 19e7 1F       		.uleb128 0x1f
 7679 19e8 710B0000 		.4byte	.LASF442
 7680 19ec 01       		.byte	0x1
 7681 19ed 7404     		.2byte	0x474
 7682 19ef 0E010000 		.4byte	0x10e
 7683 19f3 02       		.uleb128 0x2
 7684 19f4 91       		.byte	0x91
 7685 19f5 66       		.sleb128 -26
 7686 19f6 00       		.byte	0
 7687 19f7 20       		.uleb128 0x20
 7688 19f8 120B0000 		.4byte	.LBB25
 7689 19fc 5E010000 		.4byte	.LBE25-.LBB25
ARM GAS  /tmp/ccQpHQw3.s 			page 138


 7690 1a00 1F       		.uleb128 0x1f
 7691 1a01 321A0000 		.4byte	.LASF443
 7692 1a05 01       		.byte	0x1
 7693 1a06 7904     		.2byte	0x479
 7694 1a08 19010000 		.4byte	0x119
 7695 1a0c 02       		.uleb128 0x2
 7696 1a0d 91       		.byte	0x91
 7697 1a0e 60       		.sleb128 -32
 7698 1a0f 00       		.byte	0
 7699 1a10 00       		.byte	0
 7700 1a11 08       		.uleb128 0x8
 7701 1a12 6C0C0000 		.4byte	0xc6c
 7702 1a16 211A0000 		.4byte	0x1a21
 7703 1a1a 09       		.uleb128 0x9
 7704 1a1b BA000000 		.4byte	0xba
 7705 1a1f 02       		.byte	0x2
 7706 1a20 00       		.byte	0
 7707 1a21 06       		.uleb128 0x6
 7708 1a22 04       		.byte	0x4
 7709 1a23 820E0000 		.4byte	0xe82
 7710 1a27 26       		.uleb128 0x26
 7711 1a28 37180000 		.4byte	.LASF444
 7712 1a2c 01       		.byte	0x1
 7713 1a2d 9804     		.2byte	0x498
 7714 1a2f 800C0000 		.4byte	.LFB279
 7715 1a33 8C000000 		.4byte	.LFE279-.LFB279
 7716 1a37 01       		.uleb128 0x1
 7717 1a38 9C       		.byte	0x9c
 7718 1a39 5F1A0000 		.4byte	0x1a5f
 7719 1a3d 1F       		.uleb128 0x1f
 7720 1a3e F9170000 		.4byte	.LASF445
 7721 1a42 01       		.byte	0x1
 7722 1a43 9A04     		.2byte	0x49a
 7723 1a45 280F0000 		.4byte	0xf28
 7724 1a49 05       		.uleb128 0x5
 7725 1a4a 03       		.byte	0x3
 7726 1a4b 74000000 		.4byte	ActivityCodeStored.19081
 7727 1a4f 1F       		.uleb128 0x1f
 7728 1a50 0A040000 		.4byte	.LASF440
 7729 1a54 01       		.byte	0x1
 7730 1a55 9B04     		.2byte	0x49b
 7731 1a57 340C0000 		.4byte	0xc34
 7732 1a5b 02       		.uleb128 0x2
 7733 1a5c 91       		.byte	0x91
 7734 1a5d 70       		.sleb128 -16
 7735 1a5e 00       		.byte	0
 7736 1a5f 26       		.uleb128 0x26
 7737 1a60 9B190000 		.4byte	.LASF446
 7738 1a64 01       		.byte	0x1
 7739 1a65 B704     		.2byte	0x4b7
 7740 1a67 100D0000 		.4byte	.LFB280
 7741 1a6b 8C000000 		.4byte	.LFE280-.LFB280
 7742 1a6f 01       		.uleb128 0x1
 7743 1a70 9C       		.byte	0x9c
 7744 1a71 971A0000 		.4byte	0x1a97
 7745 1a75 1F       		.uleb128 0x1f
 7746 1a76 BC100000 		.4byte	.LASF447
ARM GAS  /tmp/ccQpHQw3.s 			page 139


 7747 1a7a 01       		.byte	0x1
 7748 1a7b B904     		.2byte	0x4b9
 7749 1a7d 660F0000 		.4byte	0xf66
 7750 1a81 05       		.uleb128 0x5
 7751 1a82 03       		.byte	0x3
 7752 1a83 75000000 		.4byte	CarryPositionCodeStored.19086
 7753 1a87 1F       		.uleb128 0x1f
 7754 1a88 0A040000 		.4byte	.LASF440
 7755 1a8c 01       		.byte	0x1
 7756 1a8d BA04     		.2byte	0x4ba
 7757 1a8f 340C0000 		.4byte	0xc34
 7758 1a93 02       		.uleb128 0x2
 7759 1a94 91       		.byte	0x91
 7760 1a95 70       		.sleb128 -16
 7761 1a96 00       		.byte	0
 7762 1a97 26       		.uleb128 0x26
 7763 1a98 F5180000 		.4byte	.LASF448
 7764 1a9c 01       		.byte	0x1
 7765 1a9d D404     		.2byte	0x4d4
 7766 1a9f A00D0000 		.4byte	.LFB281
 7767 1aa3 8C000000 		.4byte	.LFE281-.LFB281
 7768 1aa7 01       		.uleb128 0x1
 7769 1aa8 9C       		.byte	0x9c
 7770 1aa9 CF1A0000 		.4byte	0x1acf
 7771 1aad 1F       		.uleb128 0x1f
 7772 1aae A7150000 		.4byte	.LASF449
 7773 1ab2 01       		.byte	0x1
 7774 1ab3 D604     		.2byte	0x4d6
 7775 1ab5 920F0000 		.4byte	0xf92
 7776 1ab9 05       		.uleb128 0x5
 7777 1aba 03       		.byte	0x3
 7778 1abb 76000000 		.4byte	GestureRecognitionCodeStored.19091
 7779 1abf 1F       		.uleb128 0x1f
 7780 1ac0 0A040000 		.4byte	.LASF440
 7781 1ac4 01       		.byte	0x1
 7782 1ac5 D704     		.2byte	0x4d7
 7783 1ac7 340C0000 		.4byte	0xc34
 7784 1acb 02       		.uleb128 0x2
 7785 1acc 91       		.byte	0x91
 7786 1acd 70       		.sleb128 -16
 7787 1ace 00       		.byte	0
 7788 1acf 23       		.uleb128 0x23
 7789 1ad0 61100000 		.4byte	.LASF450
 7790 1ad4 01       		.byte	0x1
 7791 1ad5 F004     		.2byte	0x4f0
 7792 1ad7 300E0000 		.4byte	.LFB282
 7793 1adb 8C000000 		.4byte	.LFE282-.LFB282
 7794 1adf 01       		.uleb128 0x1
 7795 1ae0 9C       		.byte	0x9c
 7796 1ae1 021B0000 		.4byte	0x1b02
 7797 1ae5 27       		.uleb128 0x27
 7798 1ae6 6900     		.ascii	"i\000"
 7799 1ae8 01       		.byte	0x1
 7800 1ae9 F204     		.2byte	0x4f2
 7801 1aeb 19010000 		.4byte	0x119
 7802 1aef 02       		.uleb128 0x2
 7803 1af0 91       		.byte	0x91
ARM GAS  /tmp/ccQpHQw3.s 			page 140


 7804 1af1 74       		.sleb128 -12
 7805 1af2 1F       		.uleb128 0x1f
 7806 1af3 D4100000 		.4byte	.LASF451
 7807 1af7 01       		.byte	0x1
 7808 1af8 F304     		.2byte	0x4f3
 7809 1afa 19010000 		.4byte	0x119
 7810 1afe 02       		.uleb128 0x2
 7811 1aff 91       		.byte	0x91
 7812 1b00 70       		.sleb128 -16
 7813 1b01 00       		.byte	0
 7814 1b02 26       		.uleb128 0x26
 7815 1b03 82070000 		.4byte	.LASF452
 7816 1b07 01       		.byte	0x1
 7817 1b08 0305     		.2byte	0x503
 7818 1b0a C00E0000 		.4byte	.LFB283
 7819 1b0e F4000000 		.4byte	.LFE283-.LFB283
 7820 1b12 01       		.uleb128 0x1
 7821 1b13 9C       		.byte	0x9c
 7822 1b14 371B0000 		.4byte	0x1b37
 7823 1b18 1F       		.uleb128 0x1f
 7824 1b19 D4100000 		.4byte	.LASF451
 7825 1b1d 01       		.byte	0x1
 7826 1b1e 0505     		.2byte	0x505
 7827 1b20 19010000 		.4byte	0x119
 7828 1b24 02       		.uleb128 0x2
 7829 1b25 91       		.byte	0x91
 7830 1b26 74       		.sleb128 -12
 7831 1b27 1F       		.uleb128 0x1f
 7832 1b28 150F0000 		.4byte	.LASF453
 7833 1b2c 01       		.byte	0x1
 7834 1b2d 0605     		.2byte	0x506
 7835 1b2f 371B0000 		.4byte	0x1b37
 7836 1b33 02       		.uleb128 0x2
 7837 1b34 91       		.byte	0x91
 7838 1b35 70       		.sleb128 -16
 7839 1b36 00       		.byte	0
 7840 1b37 08       		.uleb128 0x8
 7841 1b38 0E010000 		.4byte	0x10e
 7842 1b3c 471B0000 		.4byte	0x1b47
 7843 1b40 09       		.uleb128 0x9
 7844 1b41 BA000000 		.4byte	0xba
 7845 1b45 00       		.byte	0
 7846 1b46 00       		.byte	0
 7847 1b47 22       		.uleb128 0x22
 7848 1b48 D5190000 		.4byte	.LASF454
 7849 1b4c 01       		.byte	0x1
 7850 1b4d 2805     		.2byte	0x528
 7851 1b4f C00F0000 		.4byte	.LFB284
 7852 1b53 48000000 		.4byte	.LFE284-.LFB284
 7853 1b57 01       		.uleb128 0x1
 7854 1b58 9C       		.byte	0x9c
 7855 1b59 22       		.uleb128 0x22
 7856 1b5a BD0F0000 		.4byte	.LASF455
 7857 1b5e 01       		.byte	0x1
 7858 1b5f 4705     		.2byte	0x547
 7859 1b61 10100000 		.4byte	.LFB285
 7860 1b65 48000000 		.4byte	.LFE285-.LFB285
ARM GAS  /tmp/ccQpHQw3.s 			page 141


 7861 1b69 01       		.uleb128 0x1
 7862 1b6a 9C       		.byte	0x9c
 7863 1b6b 26       		.uleb128 0x26
 7864 1b6c 0C080000 		.4byte	.LASF456
 7865 1b70 01       		.byte	0x1
 7866 1b71 6605     		.2byte	0x566
 7867 1b73 60100000 		.4byte	.LFB286
 7868 1b77 D8040000 		.4byte	.LFE286-.LFB286
 7869 1b7b 01       		.uleb128 0x1
 7870 1b7c 9C       		.byte	0x9c
 7871 1b7d 041C0000 		.4byte	0x1c04
 7872 1b81 1F       		.uleb128 0x1f
 7873 1b82 500D0000 		.4byte	.LASF457
 7874 1b86 01       		.byte	0x1
 7875 1b87 6805     		.2byte	0x568
 7876 1b89 F8000000 		.4byte	0xf8
 7877 1b8d 02       		.uleb128 0x2
 7878 1b8e 91       		.byte	0x91
 7879 1b8f 63       		.sleb128 -29
 7880 1b90 20       		.uleb128 0x20
 7881 1b91 5E110000 		.4byte	.LBB26
 7882 1b95 86030000 		.4byte	.LBE26-.LBB26
 7883 1b99 1F       		.uleb128 0x1f
 7884 1b9a 380F0000 		.4byte	.LASF458
 7885 1b9e 01       		.byte	0x1
 7886 1b9f 9805     		.2byte	0x598
 7887 1ba1 EA000000 		.4byte	0xea
 7888 1ba5 02       		.uleb128 0x2
 7889 1ba6 91       		.byte	0x91
 7890 1ba7 5C       		.sleb128 -36
 7891 1ba8 1F       		.uleb128 0x1f
 7892 1ba9 990E0000 		.4byte	.LASF459
 7893 1bad 01       		.byte	0x1
 7894 1bae 9905     		.2byte	0x599
 7895 1bb0 19010000 		.4byte	0x119
 7896 1bb4 02       		.uleb128 0x2
 7897 1bb5 91       		.byte	0x91
 7898 1bb6 74       		.sleb128 -12
 7899 1bb7 1F       		.uleb128 0x1f
 7900 1bb8 FB020000 		.4byte	.LASF460
 7901 1bbc 01       		.byte	0x1
 7902 1bbd 9A05     		.2byte	0x59a
 7903 1bbf 0E010000 		.4byte	0x10e
 7904 1bc3 02       		.uleb128 0x2
 7905 1bc4 91       		.byte	0x91
 7906 1bc5 72       		.sleb128 -14
 7907 1bc6 1F       		.uleb128 0x1f
 7908 1bc7 580A0000 		.4byte	.LASF461
 7909 1bcb 01       		.byte	0x1
 7910 1bcc 9B05     		.2byte	0x59b
 7911 1bce 03010000 		.4byte	0x103
 7912 1bd2 02       		.uleb128 0x2
 7913 1bd3 91       		.byte	0x91
 7914 1bd4 70       		.sleb128 -16
 7915 1bd5 1F       		.uleb128 0x1f
 7916 1bd6 BA130000 		.4byte	.LASF462
 7917 1bda 01       		.byte	0x1
ARM GAS  /tmp/ccQpHQw3.s 			page 142


 7918 1bdb 9B05     		.2byte	0x59b
 7919 1bdd 03010000 		.4byte	0x103
 7920 1be1 02       		.uleb128 0x2
 7921 1be2 91       		.byte	0x91
 7922 1be3 6E       		.sleb128 -18
 7923 1be4 1F       		.uleb128 0x1f
 7924 1be5 031A0000 		.4byte	.LASF463
 7925 1be9 01       		.byte	0x1
 7926 1bea 9C05     		.2byte	0x59c
 7927 1bec 19010000 		.4byte	0x119
 7928 1bf0 02       		.uleb128 0x2
 7929 1bf1 91       		.byte	0x91
 7930 1bf2 64       		.sleb128 -28
 7931 1bf3 1F       		.uleb128 0x1f
 7932 1bf4 4C0F0000 		.4byte	.LASF464
 7933 1bf8 01       		.byte	0x1
 7934 1bf9 9C05     		.2byte	0x59c
 7935 1bfb 19010000 		.4byte	0x119
 7936 1bff 02       		.uleb128 0x2
 7937 1c00 91       		.byte	0x91
 7938 1c01 68       		.sleb128 -24
 7939 1c02 00       		.byte	0
 7940 1c03 00       		.byte	0
 7941 1c04 26       		.uleb128 0x26
 7942 1c05 AB080000 		.4byte	.LASF465
 7943 1c09 01       		.byte	0x1
 7944 1c0a FD05     		.2byte	0x5fd
 7945 1c0c 40150000 		.4byte	.LFB287
 7946 1c10 48010000 		.4byte	.LFE287-.LFB287
 7947 1c14 01       		.uleb128 0x1
 7948 1c15 9C       		.byte	0x9c
 7949 1c16 391C0000 		.4byte	0x1c39
 7950 1c1a 1F       		.uleb128 0x1f
 7951 1c1b 71020000 		.4byte	.LASF466
 7952 1c1f 01       		.byte	0x1
 7953 1c20 FF05     		.2byte	0x5ff
 7954 1c22 24010000 		.4byte	0x124
 7955 1c26 02       		.uleb128 0x2
 7956 1c27 91       		.byte	0x91
 7957 1c28 74       		.sleb128 -12
 7958 1c29 1F       		.uleb128 0x1f
 7959 1c2a F3050000 		.4byte	.LASF467
 7960 1c2e 01       		.byte	0x1
 7961 1c2f 0206     		.2byte	0x602
 7962 1c31 E80A0000 		.4byte	0xae8
 7963 1c35 02       		.uleb128 0x2
 7964 1c36 91       		.byte	0x91
 7965 1c37 58       		.sleb128 -40
 7966 1c38 00       		.byte	0
 7967 1c39 26       		.uleb128 0x26
 7968 1c3a 63010000 		.4byte	.LASF468
 7969 1c3e 01       		.byte	0x1
 7970 1c3f 6106     		.2byte	0x661
 7971 1c41 90160000 		.4byte	.LFB288
 7972 1c45 60010000 		.4byte	.LFE288-.LFB288
 7973 1c49 01       		.uleb128 0x1
 7974 1c4a 9C       		.byte	0x9c
ARM GAS  /tmp/ccQpHQw3.s 			page 143


 7975 1c4b C51C0000 		.4byte	0x1cc5
 7976 1c4f 1F       		.uleb128 0x1f
 7977 1c50 15180000 		.4byte	.LASF469
 7978 1c54 01       		.byte	0x1
 7979 1c55 6306     		.2byte	0x663
 7980 1c57 C51C0000 		.4byte	0x1cc5
 7981 1c5b 02       		.uleb128 0x2
 7982 1c5c 91       		.byte	0x91
 7983 1c5d 6C       		.sleb128 -20
 7984 1c5e 1F       		.uleb128 0x1f
 7985 1c5f 940A0000 		.4byte	.LASF470
 7986 1c63 01       		.byte	0x1
 7987 1c64 6406     		.2byte	0x664
 7988 1c66 0E010000 		.4byte	0x10e
 7989 1c6a 02       		.uleb128 0x2
 7990 1c6b 91       		.byte	0x91
 7991 1c6c 6A       		.sleb128 -22
 7992 1c6d 1F       		.uleb128 0x1f
 7993 1c6e A81C0000 		.4byte	.LASF471
 7994 1c72 01       		.byte	0x1
 7995 1c73 6406     		.2byte	0x664
 7996 1c75 0E010000 		.4byte	0x10e
 7997 1c79 02       		.uleb128 0x2
 7998 1c7a 91       		.byte	0x91
 7999 1c7b 68       		.sleb128 -24
 8000 1c7c 1F       		.uleb128 0x1f
 8001 1c7d 9E110000 		.4byte	.LASF472
 8002 1c81 01       		.byte	0x1
 8003 1c82 6406     		.2byte	0x664
 8004 1c84 0E010000 		.4byte	0x10e
 8005 1c88 02       		.uleb128 0x2
 8006 1c89 91       		.byte	0x91
 8007 1c8a 66       		.sleb128 -26
 8008 1c8b 27       		.uleb128 0x27
 8009 1c8c 72657400 		.ascii	"ret\000"
 8010 1c90 01       		.byte	0x1
 8011 1c91 6506     		.2byte	0x665
 8012 1c93 39000000 		.4byte	0x39
 8013 1c97 02       		.uleb128 0x2
 8014 1c98 91       		.byte	0x91
 8015 1c99 74       		.sleb128 -12
 8016 1c9a 1F       		.uleb128 0x1f
 8017 1c9b D51C0000 		.4byte	.LASF473
 8018 1c9f 01       		.byte	0x1
 8019 1ca0 6606     		.2byte	0x666
 8020 1ca2 F8000000 		.4byte	0xf8
 8021 1ca6 02       		.uleb128 0x2
 8022 1ca7 91       		.byte	0x91
 8023 1ca8 65       		.sleb128 -27
 8024 1ca9 1F       		.uleb128 0x1f
 8025 1caa 09050000 		.4byte	.LASF474
 8026 1cae 01       		.byte	0x1
 8027 1caf 6706     		.2byte	0x667
 8028 1cb1 0E010000 		.4byte	0x10e
 8029 1cb5 02       		.uleb128 0x2
 8030 1cb6 91       		.byte	0x91
 8031 1cb7 62       		.sleb128 -30
ARM GAS  /tmp/ccQpHQw3.s 			page 144


 8032 1cb8 28       		.uleb128 0x28
 8033 1cb9 BA110000 		.4byte	.LASF544
 8034 1cbd 01       		.byte	0x1
 8035 1cbe F706     		.2byte	0x6f7
 8036 1cc0 CC170000 		.4byte	.L181
 8037 1cc4 00       		.byte	0
 8038 1cc5 07       		.uleb128 0x7
 8039 1cc6 D3000000 		.4byte	0xd3
 8040 1cca 26       		.uleb128 0x26
 8041 1ccb 6B170000 		.4byte	.LASF475
 8042 1ccf 01       		.byte	0x1
 8043 1cd0 FF06     		.2byte	0x6ff
 8044 1cd2 F0170000 		.4byte	.LFB289
 8045 1cd6 12000000 		.4byte	.LFE289-.LFB289
 8046 1cda 01       		.uleb128 0x1
 8047 1cdb 9C       		.byte	0x9c
 8048 1cdc F01C0000 		.4byte	0x1cf0
 8049 1ce0 27       		.uleb128 0x27
 8050 1ce1 72657400 		.ascii	"ret\000"
 8051 1ce5 01       		.byte	0x1
 8052 1ce6 0107     		.2byte	0x701
 8053 1ce8 39000000 		.4byte	0x39
 8054 1cec 02       		.uleb128 0x2
 8055 1ced 91       		.byte	0x91
 8056 1cee 74       		.sleb128 -12
 8057 1cef 00       		.byte	0
 8058 1cf0 26       		.uleb128 0x26
 8059 1cf1 970F0000 		.4byte	.LASF476
 8060 1cf5 01       		.byte	0x1
 8061 1cf6 9A07     		.2byte	0x79a
 8062 1cf8 10180000 		.4byte	.LFB290
 8063 1cfc FC000000 		.4byte	.LFE290-.LFB290
 8064 1d00 01       		.uleb128 0x1
 8065 1d01 9C       		.byte	0x9c
 8066 1d02 501D0000 		.4byte	0x1d50
 8067 1d06 1F       		.uleb128 0x1f
 8068 1d07 0B110000 		.4byte	.LASF477
 8069 1d0b 01       		.byte	0x1
 8070 1d0c 9C07     		.2byte	0x79c
 8071 1d0e CE060000 		.4byte	0x6ce
 8072 1d12 02       		.uleb128 0x2
 8073 1d13 91       		.byte	0x91
 8074 1d14 64       		.sleb128 -28
 8075 1d15 1F       		.uleb128 0x1f
 8076 1d16 7F180000 		.4byte	.LASF478
 8077 1d1a 01       		.byte	0x1
 8078 1d1b 9D07     		.2byte	0x79d
 8079 1d1d 7E060000 		.4byte	0x67e
 8080 1d21 03       		.uleb128 0x3
 8081 1d22 91       		.byte	0x91
 8082 1d23 A07F     		.sleb128 -96
 8083 1d25 1F       		.uleb128 0x1f
 8084 1d26 D1030000 		.4byte	.LASF479
 8085 1d2a 01       		.byte	0x1
 8086 1d2b 9E07     		.2byte	0x79e
 8087 1d2d BA080000 		.4byte	0x8ba
 8088 1d31 03       		.uleb128 0x3
ARM GAS  /tmp/ccQpHQw3.s 			page 145


 8089 1d32 91       		.byte	0x91
 8090 1d33 987E     		.sleb128 -232
 8091 1d35 20       		.uleb128 0x20
 8092 1d36 50180000 		.4byte	.LBB27
 8093 1d3a 18000000 		.4byte	.LBE27-.LBB27
 8094 1d3e 1F       		.uleb128 0x1f
 8095 1d3f CD160000 		.4byte	.LASF480
 8096 1d43 01       		.byte	0x1
 8097 1d44 A007     		.2byte	0x7a0
 8098 1d46 3A010000 		.4byte	0x13a
 8099 1d4a 03       		.uleb128 0x3
 8100 1d4b 91       		.byte	0x91
 8101 1d4c 947E     		.sleb128 -236
 8102 1d4e 00       		.byte	0
 8103 1d4f 00       		.byte	0
 8104 1d50 23       		.uleb128 0x23
 8105 1d51 5F080000 		.4byte	.LASF481
 8106 1d55 01       		.byte	0x1
 8107 1d56 DA07     		.2byte	0x7da
 8108 1d58 10190000 		.4byte	.LFB291
 8109 1d5c 2A000000 		.4byte	.LFE291-.LFB291
 8110 1d60 01       		.uleb128 0x1
 8111 1d61 9C       		.byte	0x9c
 8112 1d62 951D0000 		.4byte	0x1d95
 8113 1d66 24       		.uleb128 0x24
 8114 1d67 76010000 		.4byte	.LASF482
 8115 1d6b 01       		.byte	0x1
 8116 1d6c DA07     		.2byte	0x7da
 8117 1d6e 3A010000 		.4byte	0x13a
 8118 1d72 02       		.uleb128 0x2
 8119 1d73 91       		.byte	0x91
 8120 1d74 6C       		.sleb128 -20
 8121 1d75 1F       		.uleb128 0x1f
 8122 1d76 A51A0000 		.4byte	.LASF423
 8123 1d7a 01       		.byte	0x1
 8124 1d7b DC07     		.2byte	0x7dc
 8125 1d7d 24010000 		.4byte	0x124
 8126 1d81 02       		.uleb128 0x2
 8127 1d82 91       		.byte	0x91
 8128 1d83 74       		.sleb128 -12
 8129 1d84 21       		.uleb128 0x21
 8130 1d85 8E160000 		.4byte	0x168e
 8131 1d89 22190000 		.4byte	.LBB28
 8132 1d8d 02000000 		.4byte	.LBE28-.LBB28
 8133 1d91 01       		.byte	0x1
 8134 1d92 DF07     		.2byte	0x7df
 8135 1d94 00       		.byte	0
 8136 1d95 29       		.uleb128 0x29
 8137 1d96 65060000 		.4byte	.LASF483
 8138 1d9a 01       		.byte	0x1
 8139 1d9b E807     		.2byte	0x7e8
 8140 1d9d 40190000 		.4byte	.LFB292
 8141 1da1 02000000 		.4byte	.LFE292-.LFB292
 8142 1da5 01       		.uleb128 0x1
 8143 1da6 9C       		.byte	0x9c
 8144 1da7 23       		.uleb128 0x23
 8145 1da8 88130000 		.4byte	.LASF484
ARM GAS  /tmp/ccQpHQw3.s 			page 146


 8146 1dac 01       		.byte	0x1
 8147 1dad F407     		.2byte	0x7f4
 8148 1daf 50190000 		.4byte	.LFB293
 8149 1db3 38000000 		.4byte	.LFE293-.LFB293
 8150 1db7 01       		.uleb128 0x1
 8151 1db8 9C       		.byte	0x9c
 8152 1db9 CD1D0000 		.4byte	0x1dcd
 8153 1dbd 24       		.uleb128 0x24
 8154 1dbe B4170000 		.4byte	.LASF485
 8155 1dc2 01       		.byte	0x1
 8156 1dc3 F407     		.2byte	0x7f4
 8157 1dc5 0E010000 		.4byte	0x10e
 8158 1dc9 02       		.uleb128 0x2
 8159 1dca 91       		.byte	0x91
 8160 1dcb 76       		.sleb128 -10
 8161 1dcc 00       		.byte	0
 8162 1dcd 2A       		.uleb128 0x2a
 8163 1dce 680D0000 		.4byte	.LASF488
 8164 1dd2 01       		.byte	0x1
 8165 1dd3 2B08     		.2byte	0x82b
 8166 1dd5 52000000 		.4byte	0x52
 8167 1dd9 90190000 		.4byte	.LFB294
 8168 1ddd F8000000 		.4byte	.LFE294-.LFB294
 8169 1de1 01       		.uleb128 0x1
 8170 1de2 9C       		.byte	0x9c
 8171 1de3 1F1E0000 		.4byte	0x1e1f
 8172 1de7 24       		.uleb128 0x24
 8173 1de8 BE010000 		.4byte	.LASF486
 8174 1dec 01       		.byte	0x1
 8175 1ded 2B08     		.2byte	0x82b
 8176 1def 770C0000 		.4byte	0xc77
 8177 1df3 02       		.uleb128 0x2
 8178 1df4 91       		.byte	0x91
 8179 1df5 64       		.sleb128 -28
 8180 1df6 1F       		.uleb128 0x1f
 8181 1df7 640A0000 		.4byte	.LASF415
 8182 1dfb 01       		.byte	0x1
 8183 1dfc 2D08     		.2byte	0x82d
 8184 1dfe 52000000 		.4byte	0x52
 8185 1e02 02       		.uleb128 0x2
 8186 1e03 91       		.byte	0x91
 8187 1e04 6F       		.sleb128 -17
 8188 1e05 20       		.uleb128 0x20
 8189 1e06 B0190000 		.4byte	.LBB30
 8190 1e0a A0000000 		.4byte	.LBE30-.LBB30
 8191 1e0e 1F       		.uleb128 0x1f
 8192 1e0f 4B1C0000 		.4byte	.LASF487
 8193 1e13 01       		.byte	0x1
 8194 1e14 3308     		.2byte	0x833
 8195 1e16 37000000 		.4byte	0x37
 8196 1e1a 02       		.uleb128 0x2
 8197 1e1b 91       		.byte	0x91
 8198 1e1c 68       		.sleb128 -24
 8199 1e1d 00       		.byte	0
 8200 1e1e 00       		.byte	0
 8201 1e1f 2A       		.uleb128 0x2a
 8202 1e20 11170000 		.4byte	.LASF489
ARM GAS  /tmp/ccQpHQw3.s 			page 147


 8203 1e24 01       		.byte	0x1
 8204 1e25 5408     		.2byte	0x854
 8205 1e27 52000000 		.4byte	0x52
 8206 1e2b 901A0000 		.4byte	.LFB295
 8207 1e2f 88000000 		.4byte	.LFE295-.LFB295
 8208 1e33 01       		.uleb128 0x1
 8209 1e34 9C       		.byte	0x9c
 8210 1e35 671E0000 		.4byte	0x1e67
 8211 1e39 24       		.uleb128 0x24
 8212 1e3a BE010000 		.4byte	.LASF486
 8213 1e3e 01       		.byte	0x1
 8214 1e3f 5408     		.2byte	0x854
 8215 1e41 770C0000 		.4byte	0xc77
 8216 1e45 02       		.uleb128 0x2
 8217 1e46 91       		.byte	0x91
 8218 1e47 64       		.sleb128 -28
 8219 1e48 1F       		.uleb128 0x1f
 8220 1e49 640A0000 		.4byte	.LASF415
 8221 1e4d 01       		.byte	0x1
 8222 1e4e 5708     		.2byte	0x857
 8223 1e50 52000000 		.4byte	0x52
 8224 1e54 02       		.uleb128 0x2
 8225 1e55 91       		.byte	0x91
 8226 1e56 6B       		.sleb128 -21
 8227 1e57 1F       		.uleb128 0x1f
 8228 1e58 AE060000 		.4byte	.LASF490
 8229 1e5c 01       		.byte	0x1
 8230 1e5d 5808     		.2byte	0x858
 8231 1e5f 19010000 		.4byte	0x119
 8232 1e63 02       		.uleb128 0x2
 8233 1e64 91       		.byte	0x91
 8234 1e65 6C       		.sleb128 -20
 8235 1e66 00       		.byte	0
 8236 1e67 2B       		.uleb128 0x2b
 8237 1e68 BF060000 		.4byte	.LASF491
 8238 1e6c 01       		.byte	0x1
 8239 1e6d 6D08     		.2byte	0x86d
 8240 1e6f 52000000 		.4byte	0x52
 8241 1e73 201B0000 		.4byte	.LFB296
 8242 1e77 90000000 		.4byte	.LFE296-.LFB296
 8243 1e7b 01       		.uleb128 0x1
 8244 1e7c 9C       		.byte	0x9c
 8245 1e7d B91E0000 		.4byte	0x1eb9
 8246 1e81 24       		.uleb128 0x24
 8247 1e82 BE010000 		.4byte	.LASF486
 8248 1e86 01       		.byte	0x1
 8249 1e87 6D08     		.2byte	0x86d
 8250 1e89 770C0000 		.4byte	0xc77
 8251 1e8d 02       		.uleb128 0x2
 8252 1e8e 91       		.byte	0x91
 8253 1e8f 74       		.sleb128 -12
 8254 1e90 1F       		.uleb128 0x1f
 8255 1e91 640A0000 		.4byte	.LASF415
 8256 1e95 01       		.byte	0x1
 8257 1e96 7008     		.2byte	0x870
 8258 1e98 52000000 		.4byte	0x52
 8259 1e9c 02       		.uleb128 0x2
ARM GAS  /tmp/ccQpHQw3.s 			page 148


 8260 1e9d 91       		.byte	0x91
 8261 1e9e 7F       		.sleb128 -1
 8262 1e9f 20       		.uleb128 0x20
 8263 1ea0 341B0000 		.4byte	.LBB31
 8264 1ea4 5C000000 		.4byte	.LBE31-.LBB31
 8265 1ea8 1F       		.uleb128 0x1f
 8266 1ea9 4B1C0000 		.4byte	.LASF487
 8267 1ead 01       		.byte	0x1
 8268 1eae 7308     		.2byte	0x873
 8269 1eb0 37000000 		.4byte	0x37
 8270 1eb4 02       		.uleb128 0x2
 8271 1eb5 91       		.byte	0x91
 8272 1eb6 78       		.sleb128 -8
 8273 1eb7 00       		.byte	0
 8274 1eb8 00       		.byte	0
 8275 1eb9 1F       		.uleb128 0x1f
 8276 1eba 05190000 		.4byte	.LASF492
 8277 1ebe 01       		.byte	0x1
 8278 1ebf 2E01     		.2byte	0x12e
 8279 1ec1 CB1E0000 		.4byte	0x1ecb
 8280 1ec5 05       		.uleb128 0x5
 8281 1ec6 03       		.byte	0x3
 8282 1ec7 0C000000 		.4byte	ButtonPressed
 8283 1ecb 0A       		.uleb128 0xa
 8284 1ecc 39000000 		.4byte	0x39
 8285 1ed0 1F       		.uleb128 0x1f
 8286 1ed1 2B140000 		.4byte	.LASF493
 8287 1ed5 01       		.byte	0x1
 8288 1ed6 2F01     		.2byte	0x12f
 8289 1ed8 CB1E0000 		.4byte	0x1ecb
 8290 1edc 05       		.uleb128 0x5
 8291 1edd 03       		.byte	0x3
 8292 1ede 10000000 		.4byte	MEMSInterrupt
 8293 1ee2 1F       		.uleb128 0x1f
 8294 1ee3 040B0000 		.4byte	.LASF494
 8295 1ee7 01       		.byte	0x1
 8296 1ee8 3001     		.2byte	0x130
 8297 1eea 3A010000 		.4byte	0x13a
 8298 1eee 05       		.uleb128 0x5
 8299 1eef 03       		.byte	0x3
 8300 1ef0 14000000 		.4byte	HCI_ProcessEvent
 8301 1ef4 1F       		.uleb128 0x1f
 8302 1ef5 2E190000 		.4byte	.LASF495
 8303 1ef9 01       		.byte	0x1
 8304 1efa 3101     		.2byte	0x131
 8305 1efc 3A010000 		.4byte	0x13a
 8306 1f00 05       		.uleb128 0x5
 8307 1f01 03       		.byte	0x3
 8308 1f02 18000000 		.4byte	SendEnv
 8309 1f06 1F       		.uleb128 0x1f
 8310 1f07 850A0000 		.4byte	.LASF496
 8311 1f0b 01       		.byte	0x1
 8312 1f0c 3201     		.2byte	0x132
 8313 1f0e 3A010000 		.4byte	0x13a
 8314 1f12 05       		.uleb128 0x5
 8315 1f13 03       		.byte	0x3
 8316 1f14 1C000000 		.4byte	SendAudioLevel
ARM GAS  /tmp/ccQpHQw3.s 			page 149


 8317 1f18 1F       		.uleb128 0x1f
 8318 1f19 B6080000 		.4byte	.LASF497
 8319 1f1d 01       		.byte	0x1
 8320 1f1e 3301     		.2byte	0x133
 8321 1f20 3A010000 		.4byte	0x13a
 8322 1f24 05       		.uleb128 0x5
 8323 1f25 03       		.byte	0x3
 8324 1f26 20000000 		.4byte	SendAccGyroMag
 8325 1f2a 1F       		.uleb128 0x1f
 8326 1f2b F61A0000 		.4byte	.LASF498
 8327 1f2f 01       		.byte	0x1
 8328 1f30 3601     		.2byte	0x136
 8329 1f32 3A010000 		.4byte	0x13a
 8330 1f36 05       		.uleb128 0x5
 8331 1f37 03       		.byte	0x3
 8332 1f38 24000000 		.4byte	Quaternion
 8333 1f3c 1F       		.uleb128 0x1f
 8334 1f3d 8F000000 		.4byte	.LASF499
 8335 1f41 01       		.byte	0x1
 8336 1f42 3A01     		.2byte	0x13a
 8337 1f44 3A010000 		.4byte	0x13a
 8338 1f48 05       		.uleb128 0x5
 8339 1f49 03       		.byte	0x3
 8340 1f4a 28000000 		.4byte	UpdateMotionAR
 8341 1f4e 1F       		.uleb128 0x1f
 8342 1f4f 39020000 		.4byte	.LASF500
 8343 1f53 01       		.byte	0x1
 8344 1f54 3E01     		.2byte	0x13e
 8345 1f56 3A010000 		.4byte	0x13a
 8346 1f5a 05       		.uleb128 0x5
 8347 1f5b 03       		.byte	0x3
 8348 1f5c 2C000000 		.4byte	UpdateMotionCP
 8349 1f60 1F       		.uleb128 0x1f
 8350 1f61 B9050000 		.4byte	.LASF501
 8351 1f65 01       		.byte	0x1
 8352 1f66 4201     		.2byte	0x142
 8353 1f68 3A010000 		.4byte	0x13a
 8354 1f6c 05       		.uleb128 0x5
 8355 1f6d 03       		.byte	0x3
 8356 1f6e 30000000 		.4byte	UpdateMotionGR
 8357 1f72 1F       		.uleb128 0x1f
 8358 1f73 0F000000 		.4byte	.LASF502
 8359 1f77 01       		.byte	0x1
 8360 1f78 4601     		.2byte	0x146
 8361 1f7a 0E010000 		.4byte	0x10e
 8362 1f7e 05       		.uleb128 0x5
 8363 1f7f 03       		.byte	0x3
 8364 1f80 34000000 		.4byte	num_byte_sent
 8365 1f84 1F       		.uleb128 0x1f
 8366 1f85 D2020000 		.4byte	.LASF503
 8367 1f89 01       		.byte	0x1
 8368 1f8a 4F01     		.2byte	0x14f
 8369 1f8c 52000000 		.4byte	0x52
 8370 1f90 05       		.uleb128 0x5
 8371 1f91 03       		.byte	0x3
 8372 1f92 36000000 		.4byte	isCal
 8373 1f96 2C       		.uleb128 0x2c
ARM GAS  /tmp/ccQpHQw3.s 			page 150


 8374 1f97 B1190000 		.4byte	.LASF504
 8375 1f9b 1D       		.byte	0x1d
 8376 1f9c FA06     		.2byte	0x6fa
 8377 1f9e A21F0000 		.4byte	0x1fa2
 8378 1fa2 0A       		.uleb128 0xa
 8379 1fa3 19010000 		.4byte	0x119
 8380 1fa7 2D       		.uleb128 0x2d
 8381 1fa8 A60B0000 		.4byte	.LASF505
 8382 1fac 1E       		.byte	0x1e
 8383 1fad 4C       		.byte	0x4c
 8384 1fae 24010000 		.4byte	0x124
 8385 1fb2 08       		.uleb128 0x8
 8386 1fb3 2C0D0000 		.4byte	0xd2c
 8387 1fb7 C21F0000 		.4byte	0x1fc2
 8388 1fbb 09       		.uleb128 0x9
 8389 1fbc BA000000 		.4byte	0xba
 8390 1fc0 05       		.byte	0x5
 8391 1fc1 00       		.byte	0
 8392 1fc2 2E       		.uleb128 0x2e
 8393 1fc3 080F0000 		.4byte	.LASF506
 8394 1fc7 01       		.byte	0x1
 8395 1fc8 0101     		.2byte	0x101
 8396 1fca B21F0000 		.4byte	0x1fb2
 8397 1fce 05       		.uleb128 0x5
 8398 1fcf 03       		.byte	0x3
 8399 1fd0 00000000 		.4byte	known_OsxLic
 8400 1fd4 08       		.uleb128 0x8
 8401 1fd5 700D0000 		.4byte	0xd70
 8402 1fd9 DF1F0000 		.4byte	0x1fdf
 8403 1fdd 2F       		.uleb128 0x2f
 8404 1fde 00       		.byte	0
 8405 1fdf 2C       		.uleb128 0x2c
 8406 1fe0 DE010000 		.4byte	.LASF507
 8407 1fe4 0E       		.byte	0xe
 8408 1fe5 0D01     		.2byte	0x10d
 8409 1fe7 D41F0000 		.4byte	0x1fd4
 8410 1feb 2C       		.uleb128 0x2c
 8411 1fec FB050000 		.4byte	.LASF508
 8412 1ff0 0E       		.byte	0xe
 8413 1ff1 0F01     		.2byte	0x10f
 8414 1ff3 24010000 		.4byte	0x124
 8415 1ff7 2D       		.uleb128 0x2d
 8416 1ff8 71180000 		.4byte	.LASF509
 8417 1ffc 1F       		.byte	0x1f
 8418 1ffd 2F       		.byte	0x2f
 8419 1ffe 4F010000 		.4byte	0x14f
 8420 2002 2D       		.uleb128 0x2d
 8421 2003 E7020000 		.4byte	.LASF510
 8422 2007 13       		.byte	0x13
 8423 2008 EE       		.byte	0xee
 8424 2009 CA100000 		.4byte	0x10ca
 8425 200d 30       		.uleb128 0x30
 8426 200e 636800   		.ascii	"ch\000"
 8427 2011 16       		.byte	0x16
 8428 2012 0902     		.2byte	0x209
 8429 2014 FC130000 		.4byte	0x13fc
 8430 2018 08       		.uleb128 0x8
ARM GAS  /tmp/ccQpHQw3.s 			page 151


 8431 2019 F8000000 		.4byte	0xf8
 8432 201d 28200000 		.4byte	0x2028
 8433 2021 09       		.uleb128 0x9
 8434 2022 BA000000 		.4byte	0xba
 8435 2026 FF       		.byte	0xff
 8436 2027 00       		.byte	0
 8437 2028 31       		.uleb128 0x31
 8438 2029 8B030000 		.4byte	.LASF511
 8439 202d 01       		.byte	0x1
 8440 202e F5       		.byte	0xf5
 8441 202f 18200000 		.4byte	0x2018
 8442 2033 05       		.uleb128 0x5
 8443 2034 03       		.byte	0x3
 8444 2035 00000000 		.4byte	BufferToWrite
 8445 2039 31       		.uleb128 0x31
 8446 203a 7C190000 		.4byte	.LASF512
 8447 203e 01       		.byte	0x1
 8448 203f F6       		.byte	0xf6
 8449 2040 19010000 		.4byte	0x119
 8450 2044 05       		.uleb128 0x5
 8451 2045 03       		.byte	0x3
 8452 2046 00000000 		.4byte	BytesToWrite
 8453 204a 2D       		.uleb128 0x2d
 8454 204b BF110000 		.4byte	.LASF513
 8455 204f 1C       		.byte	0x1c
 8456 2050 6A       		.byte	0x6a
 8457 2051 24010000 		.4byte	0x124
 8458 2055 2D       		.uleb128 0x2d
 8459 2056 53010000 		.4byte	.LASF514
 8460 205a 01       		.byte	0x1
 8461 205b BA       		.byte	0xba
 8462 205c F8000000 		.4byte	0xf8
 8463 2060 2D       		.uleb128 0x2d
 8464 2061 CB1C0000 		.4byte	.LASF515
 8465 2065 01       		.byte	0x1
 8466 2066 BB       		.byte	0xbb
 8467 2067 39000000 		.4byte	0x39
 8468 206b 2D       		.uleb128 0x2d
 8469 206c FE100000 		.4byte	.LASF516
 8470 2070 01       		.byte	0x1
 8471 2071 BE       		.byte	0xbe
 8472 2072 280F0000 		.4byte	0xf28
 8473 2076 2D       		.uleb128 0x2d
 8474 2077 1A120000 		.4byte	.LASF517
 8475 207b 01       		.byte	0x1
 8476 207c C2       		.byte	0xc2
 8477 207d 660F0000 		.4byte	0xf66
 8478 2081 2D       		.uleb128 0x2d
 8479 2082 DF130000 		.4byte	.LASF518
 8480 2086 01       		.byte	0x1
 8481 2087 C6       		.byte	0xc6
 8482 2088 920F0000 		.4byte	0xf92
 8483 208c 2D       		.uleb128 0x2d
 8484 208d 630F0000 		.4byte	.LASF519
 8485 2091 01       		.byte	0x1
 8486 2092 D1       		.byte	0xd1
 8487 2093 C00D0000 		.4byte	0xdc0
ARM GAS  /tmp/ccQpHQw3.s 			page 152


 8488 2097 2D       		.uleb128 0x2d
 8489 2098 120C0000 		.4byte	.LASF520
 8490 209c 01       		.byte	0x1
 8491 209d D5       		.byte	0xd5
 8492 209e C00D0000 		.4byte	0xdc0
 8493 20a2 2D       		.uleb128 0x2d
 8494 20a3 4F080000 		.4byte	.LASF521
 8495 20a7 01       		.byte	0x1
 8496 20a8 D9       		.byte	0xd9
 8497 20a9 C00D0000 		.4byte	0xdc0
 8498 20ad 2D       		.uleb128 0x2d
 8499 20ae 73140000 		.4byte	.LASF522
 8500 20b2 01       		.byte	0x1
 8501 20b3 DD       		.byte	0xdd
 8502 20b4 C00D0000 		.4byte	0xdc0
 8503 20b8 2D       		.uleb128 0x2d
 8504 20b9 90040000 		.4byte	.LASF523
 8505 20bd 01       		.byte	0x1
 8506 20be E1       		.byte	0xe1
 8507 20bf C00D0000 		.4byte	0xdc0
 8508 20c3 31       		.uleb128 0x31
 8509 20c4 0B020000 		.4byte	.LASF524
 8510 20c8 01       		.byte	0x1
 8511 20c9 EA       		.byte	0xea
 8512 20ca EA000000 		.4byte	0xea
 8513 20ce 05       		.uleb128 0x5
 8514 20cf 03       		.byte	0x3
 8515 20d0 00000000 		.4byte	sensitivity
 8516 20d4 31       		.uleb128 0x31
 8517 20d5 4D150000 		.4byte	.LASF525
 8518 20d9 01       		.byte	0x1
 8519 20da EC       		.byte	0xec
 8520 20db EA000000 		.4byte	0xea
 8521 20df 05       		.uleb128 0x5
 8522 20e0 03       		.byte	0x3
 8523 20e1 00000000 		.4byte	sensitivity_Mul
 8524 20e5 31       		.uleb128 0x31
 8525 20e6 D8020000 		.4byte	.LASF526
 8526 20ea 01       		.byte	0x1
 8527 20eb EE       		.byte	0xee
 8528 20ec EA0E0000 		.4byte	0xeea
 8529 20f0 05       		.uleb128 0x5
 8530 20f1 03       		.byte	0x3
 8531 20f2 00000000 		.4byte	magOffset
 8532 20f6 31       		.uleb128 0x31
 8533 20f7 73110000 		.4byte	.LASF527
 8534 20fb 01       		.byte	0x1
 8535 20fc F0       		.byte	0xf0
 8536 20fd 24010000 		.4byte	0x124
 8537 2101 05       		.uleb128 0x5
 8538 2102 03       		.byte	0x3
 8539 2103 00000000 		.4byte	ConnectionBleStatus
 8540 2107 31       		.uleb128 0x31
 8541 2108 0F1D0000 		.4byte	.LASF528
 8542 210c 01       		.byte	0x1
 8543 210d F2       		.byte	0xf2
 8544 210e 24010000 		.4byte	0x124
ARM GAS  /tmp/ccQpHQw3.s 			page 153


 8545 2112 05       		.uleb128 0x5
 8546 2113 03       		.byte	0x3
 8547 2114 00000000 		.4byte	ForceReCalibration
 8548 2118 31       		.uleb128 0x31
 8549 2119 8A1C0000 		.4byte	.LASF529
 8550 211d 01       		.byte	0x1
 8551 211e F3       		.byte	0xf3
 8552 211f 24010000 		.4byte	0x124
 8553 2123 05       		.uleb128 0x5
 8554 2124 03       		.byte	0x3
 8555 2125 00000000 		.4byte	FirstConnectionConfig
 8556 2129 31       		.uleb128 0x31
 8557 212a D40E0000 		.4byte	.LASF530
 8558 212e 01       		.byte	0x1
 8559 212f F8       		.byte	0xf8
 8560 2130 DA0B0000 		.4byte	0xbda
 8561 2134 05       		.uleb128 0x5
 8562 2135 03       		.byte	0x3
 8563 2136 00000000 		.4byte	TimCCHandle
 8564 213a 31       		.uleb128 0x31
 8565 213b 68120000 		.4byte	.LASF531
 8566 213f 01       		.byte	0x1
 8567 2140 F9       		.byte	0xf9
 8568 2141 DA0B0000 		.4byte	0xbda
 8569 2145 05       		.uleb128 0x5
 8570 2146 03       		.byte	0x3
 8571 2147 00000000 		.4byte	TimEnvHandle
 8572 214b 31       		.uleb128 0x31
 8573 214c 32130000 		.4byte	.LASF532
 8574 2150 01       		.byte	0x1
 8575 2151 FA       		.byte	0xfa
 8576 2152 DA0B0000 		.4byte	0xbda
 8577 2156 05       		.uleb128 0x5
 8578 2157 03       		.byte	0x3
 8579 2158 00000000 		.4byte	TimAudioDataHandle
 8580 215c 31       		.uleb128 0x31
 8581 215d 9E000000 		.4byte	.LASF533
 8582 2161 01       		.byte	0x1
 8583 2162 FC       		.byte	0xfc
 8584 2163 9D0F0000 		.4byte	0xf9d
 8585 2167 05       		.uleb128 0x5
 8586 2168 03       		.byte	0x3
 8587 2169 00000000 		.4byte	bdaddr
 8588 216d 31       		.uleb128 0x31
 8589 216e 310D0000 		.4byte	.LASF534
 8590 2172 01       		.byte	0x1
 8591 2173 FE       		.byte	0xfe
 8592 2174 24010000 		.4byte	0x124
 8593 2178 05       		.uleb128 0x5
 8594 2179 03       		.byte	0x3
 8595 217a 00000000 		.4byte	uhCCR4_Val
 8596 217e 08       		.uleb128 0x8
 8597 217f EA000000 		.4byte	0xea
 8598 2183 89210000 		.4byte	0x2189
 8599 2187 2F       		.uleb128 0x2f
 8600 2188 00       		.byte	0
 8601 2189 2C       		.uleb128 0x2c
ARM GAS  /tmp/ccQpHQw3.s 			page 154


 8602 218a FF1B0000 		.4byte	.LASF535
 8603 218e 01       		.byte	0x1
 8604 218f 2501     		.2byte	0x125
 8605 2191 95210000 		.4byte	0x2195
 8606 2195 0A       		.uleb128 0xa
 8607 2196 7E210000 		.4byte	0x217e
 8608 219a 2C       		.uleb128 0x2c
 8609 219b 221D0000 		.4byte	.LASF536
 8610 219f 01       		.byte	0x1
 8611 21a0 2601     		.2byte	0x126
 8612 21a2 7E210000 		.4byte	0x217e
 8613 21a6 08       		.uleb128 0x8
 8614 21a7 0E010000 		.4byte	0x10e
 8615 21ab B1210000 		.4byte	0x21b1
 8616 21af 2F       		.uleb128 0x2f
 8617 21b0 00       		.byte	0
 8618 21b1 2C       		.uleb128 0x2c
 8619 21b2 810B0000 		.4byte	.LASF537
 8620 21b6 01       		.byte	0x1
 8621 21b7 2701     		.2byte	0x127
 8622 21b9 A6210000 		.4byte	0x21a6
 8623 21bd 2E       		.uleb128 0x2e
 8624 21be 8E1A0000 		.4byte	.LASF538
 8625 21c2 01       		.byte	0x1
 8626 21c3 7901     		.2byte	0x179
 8627 21c5 24010000 		.4byte	0x124
 8628 21c9 05       		.uleb128 0x5
 8629 21ca 03       		.byte	0x3
 8630 21cb 00000000 		.4byte	t_coin
 8631 21cf 00       		.byte	0
 8632              		.section	.debug_abbrev,"",%progbits
 8633              	.Ldebug_abbrev0:
 8634 0000 01       		.uleb128 0x1
 8635 0001 11       		.uleb128 0x11
 8636 0002 01       		.byte	0x1
 8637 0003 25       		.uleb128 0x25
 8638 0004 0E       		.uleb128 0xe
 8639 0005 13       		.uleb128 0x13
 8640 0006 0B       		.uleb128 0xb
 8641 0007 03       		.uleb128 0x3
 8642 0008 0E       		.uleb128 0xe
 8643 0009 1B       		.uleb128 0x1b
 8644 000a 0E       		.uleb128 0xe
 8645 000b 11       		.uleb128 0x11
 8646 000c 01       		.uleb128 0x1
 8647 000d 12       		.uleb128 0x12
 8648 000e 06       		.uleb128 0x6
 8649 000f 10       		.uleb128 0x10
 8650 0010 17       		.uleb128 0x17
 8651 0011 00       		.byte	0
 8652 0012 00       		.byte	0
 8653 0013 02       		.uleb128 0x2
 8654 0014 16       		.uleb128 0x16
 8655 0015 00       		.byte	0
 8656 0016 03       		.uleb128 0x3
 8657 0017 0E       		.uleb128 0xe
 8658 0018 3A       		.uleb128 0x3a
ARM GAS  /tmp/ccQpHQw3.s 			page 155


 8659 0019 0B       		.uleb128 0xb
 8660 001a 3B       		.uleb128 0x3b
 8661 001b 0B       		.uleb128 0xb
 8662 001c 49       		.uleb128 0x49
 8663 001d 13       		.uleb128 0x13
 8664 001e 00       		.byte	0
 8665 001f 00       		.byte	0
 8666 0020 03       		.uleb128 0x3
 8667 0021 24       		.uleb128 0x24
 8668 0022 00       		.byte	0
 8669 0023 0B       		.uleb128 0xb
 8670 0024 0B       		.uleb128 0xb
 8671 0025 3E       		.uleb128 0x3e
 8672 0026 0B       		.uleb128 0xb
 8673 0027 03       		.uleb128 0x3
 8674 0028 0E       		.uleb128 0xe
 8675 0029 00       		.byte	0
 8676 002a 00       		.byte	0
 8677 002b 04       		.uleb128 0x4
 8678 002c 0F       		.uleb128 0xf
 8679 002d 00       		.byte	0
 8680 002e 0B       		.uleb128 0xb
 8681 002f 0B       		.uleb128 0xb
 8682 0030 00       		.byte	0
 8683 0031 00       		.byte	0
 8684 0032 05       		.uleb128 0x5
 8685 0033 24       		.uleb128 0x24
 8686 0034 00       		.byte	0
 8687 0035 0B       		.uleb128 0xb
 8688 0036 0B       		.uleb128 0xb
 8689 0037 3E       		.uleb128 0x3e
 8690 0038 0B       		.uleb128 0xb
 8691 0039 03       		.uleb128 0x3
 8692 003a 08       		.uleb128 0x8
 8693 003b 00       		.byte	0
 8694 003c 00       		.byte	0
 8695 003d 06       		.uleb128 0x6
 8696 003e 0F       		.uleb128 0xf
 8697 003f 00       		.byte	0
 8698 0040 0B       		.uleb128 0xb
 8699 0041 0B       		.uleb128 0xb
 8700 0042 49       		.uleb128 0x49
 8701 0043 13       		.uleb128 0x13
 8702 0044 00       		.byte	0
 8703 0045 00       		.byte	0
 8704 0046 07       		.uleb128 0x7
 8705 0047 26       		.uleb128 0x26
 8706 0048 00       		.byte	0
 8707 0049 49       		.uleb128 0x49
 8708 004a 13       		.uleb128 0x13
 8709 004b 00       		.byte	0
 8710 004c 00       		.byte	0
 8711 004d 08       		.uleb128 0x8
 8712 004e 01       		.uleb128 0x1
 8713 004f 01       		.byte	0x1
 8714 0050 49       		.uleb128 0x49
 8715 0051 13       		.uleb128 0x13
ARM GAS  /tmp/ccQpHQw3.s 			page 156


 8716 0052 01       		.uleb128 0x1
 8717 0053 13       		.uleb128 0x13
 8718 0054 00       		.byte	0
 8719 0055 00       		.byte	0
 8720 0056 09       		.uleb128 0x9
 8721 0057 21       		.uleb128 0x21
 8722 0058 00       		.byte	0
 8723 0059 49       		.uleb128 0x49
 8724 005a 13       		.uleb128 0x13
 8725 005b 2F       		.uleb128 0x2f
 8726 005c 0B       		.uleb128 0xb
 8727 005d 00       		.byte	0
 8728 005e 00       		.byte	0
 8729 005f 0A       		.uleb128 0xa
 8730 0060 35       		.uleb128 0x35
 8731 0061 00       		.byte	0
 8732 0062 49       		.uleb128 0x49
 8733 0063 13       		.uleb128 0x13
 8734 0064 00       		.byte	0
 8735 0065 00       		.byte	0
 8736 0066 0B       		.uleb128 0xb
 8737 0067 13       		.uleb128 0x13
 8738 0068 01       		.byte	0x1
 8739 0069 0B       		.uleb128 0xb
 8740 006a 0B       		.uleb128 0xb
 8741 006b 3A       		.uleb128 0x3a
 8742 006c 0B       		.uleb128 0xb
 8743 006d 3B       		.uleb128 0x3b
 8744 006e 05       		.uleb128 0x5
 8745 006f 01       		.uleb128 0x1
 8746 0070 13       		.uleb128 0x13
 8747 0071 00       		.byte	0
 8748 0072 00       		.byte	0
 8749 0073 0C       		.uleb128 0xc
 8750 0074 0D       		.uleb128 0xd
 8751 0075 00       		.byte	0
 8752 0076 03       		.uleb128 0x3
 8753 0077 08       		.uleb128 0x8
 8754 0078 3A       		.uleb128 0x3a
 8755 0079 0B       		.uleb128 0xb
 8756 007a 3B       		.uleb128 0x3b
 8757 007b 05       		.uleb128 0x5
 8758 007c 49       		.uleb128 0x49
 8759 007d 13       		.uleb128 0x13
 8760 007e 38       		.uleb128 0x38
 8761 007f 0B       		.uleb128 0xb
 8762 0080 00       		.byte	0
 8763 0081 00       		.byte	0
 8764 0082 0D       		.uleb128 0xd
 8765 0083 0D       		.uleb128 0xd
 8766 0084 00       		.byte	0
 8767 0085 03       		.uleb128 0x3
 8768 0086 0E       		.uleb128 0xe
 8769 0087 3A       		.uleb128 0x3a
 8770 0088 0B       		.uleb128 0xb
 8771 0089 3B       		.uleb128 0x3b
 8772 008a 05       		.uleb128 0x5
ARM GAS  /tmp/ccQpHQw3.s 			page 157


 8773 008b 49       		.uleb128 0x49
 8774 008c 13       		.uleb128 0x13
 8775 008d 38       		.uleb128 0x38
 8776 008e 0B       		.uleb128 0xb
 8777 008f 00       		.byte	0
 8778 0090 00       		.byte	0
 8779 0091 0E       		.uleb128 0xe
 8780 0092 16       		.uleb128 0x16
 8781 0093 00       		.byte	0
 8782 0094 03       		.uleb128 0x3
 8783 0095 0E       		.uleb128 0xe
 8784 0096 3A       		.uleb128 0x3a
 8785 0097 0B       		.uleb128 0xb
 8786 0098 3B       		.uleb128 0x3b
 8787 0099 05       		.uleb128 0x5
 8788 009a 49       		.uleb128 0x49
 8789 009b 13       		.uleb128 0x13
 8790 009c 00       		.byte	0
 8791 009d 00       		.byte	0
 8792 009e 0F       		.uleb128 0xf
 8793 009f 04       		.uleb128 0x4
 8794 00a0 01       		.byte	0x1
 8795 00a1 0B       		.uleb128 0xb
 8796 00a2 0B       		.uleb128 0xb
 8797 00a3 3A       		.uleb128 0x3a
 8798 00a4 0B       		.uleb128 0xb
 8799 00a5 3B       		.uleb128 0x3b
 8800 00a6 0B       		.uleb128 0xb
 8801 00a7 01       		.uleb128 0x1
 8802 00a8 13       		.uleb128 0x13
 8803 00a9 00       		.byte	0
 8804 00aa 00       		.byte	0
 8805 00ab 10       		.uleb128 0x10
 8806 00ac 28       		.uleb128 0x28
 8807 00ad 00       		.byte	0
 8808 00ae 03       		.uleb128 0x3
 8809 00af 0E       		.uleb128 0xe
 8810 00b0 1C       		.uleb128 0x1c
 8811 00b1 0D       		.uleb128 0xd
 8812 00b2 00       		.byte	0
 8813 00b3 00       		.byte	0
 8814 00b4 11       		.uleb128 0x11
 8815 00b5 13       		.uleb128 0x13
 8816 00b6 01       		.byte	0x1
 8817 00b7 0B       		.uleb128 0xb
 8818 00b8 0B       		.uleb128 0xb
 8819 00b9 3A       		.uleb128 0x3a
 8820 00ba 0B       		.uleb128 0xb
 8821 00bb 3B       		.uleb128 0x3b
 8822 00bc 0B       		.uleb128 0xb
 8823 00bd 01       		.uleb128 0x1
 8824 00be 13       		.uleb128 0x13
 8825 00bf 00       		.byte	0
 8826 00c0 00       		.byte	0
 8827 00c1 12       		.uleb128 0x12
 8828 00c2 0D       		.uleb128 0xd
 8829 00c3 00       		.byte	0
ARM GAS  /tmp/ccQpHQw3.s 			page 158


 8830 00c4 03       		.uleb128 0x3
 8831 00c5 0E       		.uleb128 0xe
 8832 00c6 3A       		.uleb128 0x3a
 8833 00c7 0B       		.uleb128 0xb
 8834 00c8 3B       		.uleb128 0x3b
 8835 00c9 0B       		.uleb128 0xb
 8836 00ca 49       		.uleb128 0x49
 8837 00cb 13       		.uleb128 0x13
 8838 00cc 38       		.uleb128 0x38
 8839 00cd 0B       		.uleb128 0xb
 8840 00ce 00       		.byte	0
 8841 00cf 00       		.byte	0
 8842 00d0 13       		.uleb128 0x13
 8843 00d1 0D       		.uleb128 0xd
 8844 00d2 00       		.byte	0
 8845 00d3 03       		.uleb128 0x3
 8846 00d4 08       		.uleb128 0x8
 8847 00d5 3A       		.uleb128 0x3a
 8848 00d6 0B       		.uleb128 0xb
 8849 00d7 3B       		.uleb128 0x3b
 8850 00d8 0B       		.uleb128 0xb
 8851 00d9 49       		.uleb128 0x49
 8852 00da 13       		.uleb128 0x13
 8853 00db 38       		.uleb128 0x38
 8854 00dc 0B       		.uleb128 0xb
 8855 00dd 00       		.byte	0
 8856 00de 00       		.byte	0
 8857 00df 14       		.uleb128 0x14
 8858 00e0 13       		.uleb128 0x13
 8859 00e1 01       		.byte	0x1
 8860 00e2 03       		.uleb128 0x3
 8861 00e3 0E       		.uleb128 0xe
 8862 00e4 0B       		.uleb128 0xb
 8863 00e5 0B       		.uleb128 0xb
 8864 00e6 3A       		.uleb128 0x3a
 8865 00e7 0B       		.uleb128 0xb
 8866 00e8 3B       		.uleb128 0x3b
 8867 00e9 0B       		.uleb128 0xb
 8868 00ea 01       		.uleb128 0x1
 8869 00eb 13       		.uleb128 0x13
 8870 00ec 00       		.byte	0
 8871 00ed 00       		.byte	0
 8872 00ee 15       		.uleb128 0x15
 8873 00ef 15       		.uleb128 0x15
 8874 00f0 01       		.byte	0x1
 8875 00f1 27       		.uleb128 0x27
 8876 00f2 19       		.uleb128 0x19
 8877 00f3 01       		.uleb128 0x1
 8878 00f4 13       		.uleb128 0x13
 8879 00f5 00       		.byte	0
 8880 00f6 00       		.byte	0
 8881 00f7 16       		.uleb128 0x16
 8882 00f8 05       		.uleb128 0x5
 8883 00f9 00       		.byte	0
 8884 00fa 49       		.uleb128 0x49
 8885 00fb 13       		.uleb128 0x13
 8886 00fc 00       		.byte	0
ARM GAS  /tmp/ccQpHQw3.s 			page 159


 8887 00fd 00       		.byte	0
 8888 00fe 17       		.uleb128 0x17
 8889 00ff 04       		.uleb128 0x4
 8890 0100 01       		.byte	0x1
 8891 0101 0B       		.uleb128 0xb
 8892 0102 0B       		.uleb128 0xb
 8893 0103 3A       		.uleb128 0x3a
 8894 0104 0B       		.uleb128 0xb
 8895 0105 3B       		.uleb128 0x3b
 8896 0106 05       		.uleb128 0x5
 8897 0107 01       		.uleb128 0x1
 8898 0108 13       		.uleb128 0x13
 8899 0109 00       		.byte	0
 8900 010a 00       		.byte	0
 8901 010b 18       		.uleb128 0x18
 8902 010c 13       		.uleb128 0x13
 8903 010d 01       		.byte	0x1
 8904 010e 03       		.uleb128 0x3
 8905 010f 0E       		.uleb128 0xe
 8906 0110 0B       		.uleb128 0xb
 8907 0111 0B       		.uleb128 0xb
 8908 0112 3A       		.uleb128 0x3a
 8909 0113 0B       		.uleb128 0xb
 8910 0114 3B       		.uleb128 0x3b
 8911 0115 05       		.uleb128 0x5
 8912 0116 01       		.uleb128 0x1
 8913 0117 13       		.uleb128 0x13
 8914 0118 00       		.byte	0
 8915 0119 00       		.byte	0
 8916 011a 19       		.uleb128 0x19
 8917 011b 13       		.uleb128 0x13
 8918 011c 01       		.byte	0x1
 8919 011d 03       		.uleb128 0x3
 8920 011e 0E       		.uleb128 0xe
 8921 011f 0B       		.uleb128 0xb
 8922 0120 05       		.uleb128 0x5
 8923 0121 3A       		.uleb128 0x3a
 8924 0122 0B       		.uleb128 0xb
 8925 0123 3B       		.uleb128 0x3b
 8926 0124 05       		.uleb128 0x5
 8927 0125 01       		.uleb128 0x1
 8928 0126 13       		.uleb128 0x13
 8929 0127 00       		.byte	0
 8930 0128 00       		.byte	0
 8931 0129 1A       		.uleb128 0x1a
 8932 012a 17       		.uleb128 0x17
 8933 012b 01       		.byte	0x1
 8934 012c 0B       		.uleb128 0xb
 8935 012d 0B       		.uleb128 0xb
 8936 012e 3A       		.uleb128 0x3a
 8937 012f 0B       		.uleb128 0xb
 8938 0130 3B       		.uleb128 0x3b
 8939 0131 0B       		.uleb128 0xb
 8940 0132 01       		.uleb128 0x1
 8941 0133 13       		.uleb128 0x13
 8942 0134 00       		.byte	0
 8943 0135 00       		.byte	0
ARM GAS  /tmp/ccQpHQw3.s 			page 160


 8944 0136 1B       		.uleb128 0x1b
 8945 0137 0D       		.uleb128 0xd
 8946 0138 00       		.byte	0
 8947 0139 03       		.uleb128 0x3
 8948 013a 0E       		.uleb128 0xe
 8949 013b 3A       		.uleb128 0x3a
 8950 013c 0B       		.uleb128 0xb
 8951 013d 3B       		.uleb128 0x3b
 8952 013e 05       		.uleb128 0x5
 8953 013f 49       		.uleb128 0x49
 8954 0140 13       		.uleb128 0x13
 8955 0141 00       		.byte	0
 8956 0142 00       		.byte	0
 8957 0143 1C       		.uleb128 0x1c
 8958 0144 2E       		.uleb128 0x2e
 8959 0145 00       		.byte	0
 8960 0146 03       		.uleb128 0x3
 8961 0147 0E       		.uleb128 0xe
 8962 0148 3A       		.uleb128 0x3a
 8963 0149 0B       		.uleb128 0xb
 8964 014a 3B       		.uleb128 0x3b
 8965 014b 05       		.uleb128 0x5
 8966 014c 27       		.uleb128 0x27
 8967 014d 19       		.uleb128 0x19
 8968 014e 20       		.uleb128 0x20
 8969 014f 0B       		.uleb128 0xb
 8970 0150 00       		.byte	0
 8971 0151 00       		.byte	0
 8972 0152 1D       		.uleb128 0x1d
 8973 0153 2E       		.uleb128 0x2e
 8974 0154 01       		.byte	0x1
 8975 0155 3F       		.uleb128 0x3f
 8976 0156 19       		.uleb128 0x19
 8977 0157 03       		.uleb128 0x3
 8978 0158 0E       		.uleb128 0xe
 8979 0159 3A       		.uleb128 0x3a
 8980 015a 0B       		.uleb128 0xb
 8981 015b 3B       		.uleb128 0x3b
 8982 015c 05       		.uleb128 0x5
 8983 015d 27       		.uleb128 0x27
 8984 015e 19       		.uleb128 0x19
 8985 015f 49       		.uleb128 0x49
 8986 0160 13       		.uleb128 0x13
 8987 0161 11       		.uleb128 0x11
 8988 0162 01       		.uleb128 0x1
 8989 0163 12       		.uleb128 0x12
 8990 0164 06       		.uleb128 0x6
 8991 0165 40       		.uleb128 0x40
 8992 0166 18       		.uleb128 0x18
 8993 0167 9642     		.uleb128 0x2116
 8994 0169 19       		.uleb128 0x19
 8995 016a 01       		.uleb128 0x1
 8996 016b 13       		.uleb128 0x13
 8997 016c 00       		.byte	0
 8998 016d 00       		.byte	0
 8999 016e 1E       		.uleb128 0x1e
 9000 016f 0B       		.uleb128 0xb
ARM GAS  /tmp/ccQpHQw3.s 			page 161


 9001 0170 01       		.byte	0x1
 9002 0171 11       		.uleb128 0x11
 9003 0172 01       		.uleb128 0x1
 9004 0173 12       		.uleb128 0x12
 9005 0174 06       		.uleb128 0x6
 9006 0175 01       		.uleb128 0x1
 9007 0176 13       		.uleb128 0x13
 9008 0177 00       		.byte	0
 9009 0178 00       		.byte	0
 9010 0179 1F       		.uleb128 0x1f
 9011 017a 34       		.uleb128 0x34
 9012 017b 00       		.byte	0
 9013 017c 03       		.uleb128 0x3
 9014 017d 0E       		.uleb128 0xe
 9015 017e 3A       		.uleb128 0x3a
 9016 017f 0B       		.uleb128 0xb
 9017 0180 3B       		.uleb128 0x3b
 9018 0181 05       		.uleb128 0x5
 9019 0182 49       		.uleb128 0x49
 9020 0183 13       		.uleb128 0x13
 9021 0184 02       		.uleb128 0x2
 9022 0185 18       		.uleb128 0x18
 9023 0186 00       		.byte	0
 9024 0187 00       		.byte	0
 9025 0188 20       		.uleb128 0x20
 9026 0189 0B       		.uleb128 0xb
 9027 018a 01       		.byte	0x1
 9028 018b 11       		.uleb128 0x11
 9029 018c 01       		.uleb128 0x1
 9030 018d 12       		.uleb128 0x12
 9031 018e 06       		.uleb128 0x6
 9032 018f 00       		.byte	0
 9033 0190 00       		.byte	0
 9034 0191 21       		.uleb128 0x21
 9035 0192 1D       		.uleb128 0x1d
 9036 0193 00       		.byte	0
 9037 0194 31       		.uleb128 0x31
 9038 0195 13       		.uleb128 0x13
 9039 0196 11       		.uleb128 0x11
 9040 0197 01       		.uleb128 0x1
 9041 0198 12       		.uleb128 0x12
 9042 0199 06       		.uleb128 0x6
 9043 019a 58       		.uleb128 0x58
 9044 019b 0B       		.uleb128 0xb
 9045 019c 59       		.uleb128 0x59
 9046 019d 05       		.uleb128 0x5
 9047 019e 00       		.byte	0
 9048 019f 00       		.byte	0
 9049 01a0 22       		.uleb128 0x22
 9050 01a1 2E       		.uleb128 0x2e
 9051 01a2 00       		.byte	0
 9052 01a3 3F       		.uleb128 0x3f
 9053 01a4 19       		.uleb128 0x19
 9054 01a5 03       		.uleb128 0x3
 9055 01a6 0E       		.uleb128 0xe
 9056 01a7 3A       		.uleb128 0x3a
 9057 01a8 0B       		.uleb128 0xb
ARM GAS  /tmp/ccQpHQw3.s 			page 162


 9058 01a9 3B       		.uleb128 0x3b
 9059 01aa 05       		.uleb128 0x5
 9060 01ab 27       		.uleb128 0x27
 9061 01ac 19       		.uleb128 0x19
 9062 01ad 11       		.uleb128 0x11
 9063 01ae 01       		.uleb128 0x1
 9064 01af 12       		.uleb128 0x12
 9065 01b0 06       		.uleb128 0x6
 9066 01b1 40       		.uleb128 0x40
 9067 01b2 18       		.uleb128 0x18
 9068 01b3 9642     		.uleb128 0x2116
 9069 01b5 19       		.uleb128 0x19
 9070 01b6 00       		.byte	0
 9071 01b7 00       		.byte	0
 9072 01b8 23       		.uleb128 0x23
 9073 01b9 2E       		.uleb128 0x2e
 9074 01ba 01       		.byte	0x1
 9075 01bb 3F       		.uleb128 0x3f
 9076 01bc 19       		.uleb128 0x19
 9077 01bd 03       		.uleb128 0x3
 9078 01be 0E       		.uleb128 0xe
 9079 01bf 3A       		.uleb128 0x3a
 9080 01c0 0B       		.uleb128 0xb
 9081 01c1 3B       		.uleb128 0x3b
 9082 01c2 05       		.uleb128 0x5
 9083 01c3 27       		.uleb128 0x27
 9084 01c4 19       		.uleb128 0x19
 9085 01c5 11       		.uleb128 0x11
 9086 01c6 01       		.uleb128 0x1
 9087 01c7 12       		.uleb128 0x12
 9088 01c8 06       		.uleb128 0x6
 9089 01c9 40       		.uleb128 0x40
 9090 01ca 18       		.uleb128 0x18
 9091 01cb 9642     		.uleb128 0x2116
 9092 01cd 19       		.uleb128 0x19
 9093 01ce 01       		.uleb128 0x1
 9094 01cf 13       		.uleb128 0x13
 9095 01d0 00       		.byte	0
 9096 01d1 00       		.byte	0
 9097 01d2 24       		.uleb128 0x24
 9098 01d3 05       		.uleb128 0x5
 9099 01d4 00       		.byte	0
 9100 01d5 03       		.uleb128 0x3
 9101 01d6 0E       		.uleb128 0xe
 9102 01d7 3A       		.uleb128 0x3a
 9103 01d8 0B       		.uleb128 0xb
 9104 01d9 3B       		.uleb128 0x3b
 9105 01da 05       		.uleb128 0x5
 9106 01db 49       		.uleb128 0x49
 9107 01dc 13       		.uleb128 0x13
 9108 01dd 02       		.uleb128 0x2
 9109 01de 18       		.uleb128 0x18
 9110 01df 00       		.byte	0
 9111 01e0 00       		.byte	0
 9112 01e1 25       		.uleb128 0x25
 9113 01e2 2E       		.uleb128 0x2e
 9114 01e3 01       		.byte	0x1
ARM GAS  /tmp/ccQpHQw3.s 			page 163


 9115 01e4 3F       		.uleb128 0x3f
 9116 01e5 19       		.uleb128 0x19
 9117 01e6 03       		.uleb128 0x3
 9118 01e7 0E       		.uleb128 0xe
 9119 01e8 3A       		.uleb128 0x3a
 9120 01e9 0B       		.uleb128 0xb
 9121 01ea 3B       		.uleb128 0x3b
 9122 01eb 05       		.uleb128 0x5
 9123 01ec 27       		.uleb128 0x27
 9124 01ed 19       		.uleb128 0x19
 9125 01ee 11       		.uleb128 0x11
 9126 01ef 01       		.uleb128 0x1
 9127 01f0 12       		.uleb128 0x12
 9128 01f1 06       		.uleb128 0x6
 9129 01f2 40       		.uleb128 0x40
 9130 01f3 18       		.uleb128 0x18
 9131 01f4 9742     		.uleb128 0x2117
 9132 01f6 19       		.uleb128 0x19
 9133 01f7 01       		.uleb128 0x1
 9134 01f8 13       		.uleb128 0x13
 9135 01f9 00       		.byte	0
 9136 01fa 00       		.byte	0
 9137 01fb 26       		.uleb128 0x26
 9138 01fc 2E       		.uleb128 0x2e
 9139 01fd 01       		.byte	0x1
 9140 01fe 03       		.uleb128 0x3
 9141 01ff 0E       		.uleb128 0xe
 9142 0200 3A       		.uleb128 0x3a
 9143 0201 0B       		.uleb128 0xb
 9144 0202 3B       		.uleb128 0x3b
 9145 0203 05       		.uleb128 0x5
 9146 0204 27       		.uleb128 0x27
 9147 0205 19       		.uleb128 0x19
 9148 0206 11       		.uleb128 0x11
 9149 0207 01       		.uleb128 0x1
 9150 0208 12       		.uleb128 0x12
 9151 0209 06       		.uleb128 0x6
 9152 020a 40       		.uleb128 0x40
 9153 020b 18       		.uleb128 0x18
 9154 020c 9642     		.uleb128 0x2116
 9155 020e 19       		.uleb128 0x19
 9156 020f 01       		.uleb128 0x1
 9157 0210 13       		.uleb128 0x13
 9158 0211 00       		.byte	0
 9159 0212 00       		.byte	0
 9160 0213 27       		.uleb128 0x27
 9161 0214 34       		.uleb128 0x34
 9162 0215 00       		.byte	0
 9163 0216 03       		.uleb128 0x3
 9164 0217 08       		.uleb128 0x8
 9165 0218 3A       		.uleb128 0x3a
 9166 0219 0B       		.uleb128 0xb
 9167 021a 3B       		.uleb128 0x3b
 9168 021b 05       		.uleb128 0x5
 9169 021c 49       		.uleb128 0x49
 9170 021d 13       		.uleb128 0x13
 9171 021e 02       		.uleb128 0x2
ARM GAS  /tmp/ccQpHQw3.s 			page 164


 9172 021f 18       		.uleb128 0x18
 9173 0220 00       		.byte	0
 9174 0221 00       		.byte	0
 9175 0222 28       		.uleb128 0x28
 9176 0223 0A       		.uleb128 0xa
 9177 0224 00       		.byte	0
 9178 0225 03       		.uleb128 0x3
 9179 0226 0E       		.uleb128 0xe
 9180 0227 3A       		.uleb128 0x3a
 9181 0228 0B       		.uleb128 0xb
 9182 0229 3B       		.uleb128 0x3b
 9183 022a 05       		.uleb128 0x5
 9184 022b 11       		.uleb128 0x11
 9185 022c 01       		.uleb128 0x1
 9186 022d 00       		.byte	0
 9187 022e 00       		.byte	0
 9188 022f 29       		.uleb128 0x29
 9189 0230 2E       		.uleb128 0x2e
 9190 0231 00       		.byte	0
 9191 0232 3F       		.uleb128 0x3f
 9192 0233 19       		.uleb128 0x19
 9193 0234 03       		.uleb128 0x3
 9194 0235 0E       		.uleb128 0xe
 9195 0236 3A       		.uleb128 0x3a
 9196 0237 0B       		.uleb128 0xb
 9197 0238 3B       		.uleb128 0x3b
 9198 0239 05       		.uleb128 0x5
 9199 023a 27       		.uleb128 0x27
 9200 023b 19       		.uleb128 0x19
 9201 023c 11       		.uleb128 0x11
 9202 023d 01       		.uleb128 0x1
 9203 023e 12       		.uleb128 0x12
 9204 023f 06       		.uleb128 0x6
 9205 0240 40       		.uleb128 0x40
 9206 0241 18       		.uleb128 0x18
 9207 0242 9742     		.uleb128 0x2117
 9208 0244 19       		.uleb128 0x19
 9209 0245 00       		.byte	0
 9210 0246 00       		.byte	0
 9211 0247 2A       		.uleb128 0x2a
 9212 0248 2E       		.uleb128 0x2e
 9213 0249 01       		.byte	0x1
 9214 024a 03       		.uleb128 0x3
 9215 024b 0E       		.uleb128 0xe
 9216 024c 3A       		.uleb128 0x3a
 9217 024d 0B       		.uleb128 0xb
 9218 024e 3B       		.uleb128 0x3b
 9219 024f 05       		.uleb128 0x5
 9220 0250 27       		.uleb128 0x27
 9221 0251 19       		.uleb128 0x19
 9222 0252 49       		.uleb128 0x49
 9223 0253 13       		.uleb128 0x13
 9224 0254 11       		.uleb128 0x11
 9225 0255 01       		.uleb128 0x1
 9226 0256 12       		.uleb128 0x12
 9227 0257 06       		.uleb128 0x6
 9228 0258 40       		.uleb128 0x40
ARM GAS  /tmp/ccQpHQw3.s 			page 165


 9229 0259 18       		.uleb128 0x18
 9230 025a 9642     		.uleb128 0x2116
 9231 025c 19       		.uleb128 0x19
 9232 025d 01       		.uleb128 0x1
 9233 025e 13       		.uleb128 0x13
 9234 025f 00       		.byte	0
 9235 0260 00       		.byte	0
 9236 0261 2B       		.uleb128 0x2b
 9237 0262 2E       		.uleb128 0x2e
 9238 0263 01       		.byte	0x1
 9239 0264 03       		.uleb128 0x3
 9240 0265 0E       		.uleb128 0xe
 9241 0266 3A       		.uleb128 0x3a
 9242 0267 0B       		.uleb128 0xb
 9243 0268 3B       		.uleb128 0x3b
 9244 0269 05       		.uleb128 0x5
 9245 026a 27       		.uleb128 0x27
 9246 026b 19       		.uleb128 0x19
 9247 026c 49       		.uleb128 0x49
 9248 026d 13       		.uleb128 0x13
 9249 026e 11       		.uleb128 0x11
 9250 026f 01       		.uleb128 0x1
 9251 0270 12       		.uleb128 0x12
 9252 0271 06       		.uleb128 0x6
 9253 0272 40       		.uleb128 0x40
 9254 0273 18       		.uleb128 0x18
 9255 0274 9742     		.uleb128 0x2117
 9256 0276 19       		.uleb128 0x19
 9257 0277 01       		.uleb128 0x1
 9258 0278 13       		.uleb128 0x13
 9259 0279 00       		.byte	0
 9260 027a 00       		.byte	0
 9261 027b 2C       		.uleb128 0x2c
 9262 027c 34       		.uleb128 0x34
 9263 027d 00       		.byte	0
 9264 027e 03       		.uleb128 0x3
 9265 027f 0E       		.uleb128 0xe
 9266 0280 3A       		.uleb128 0x3a
 9267 0281 0B       		.uleb128 0xb
 9268 0282 3B       		.uleb128 0x3b
 9269 0283 05       		.uleb128 0x5
 9270 0284 49       		.uleb128 0x49
 9271 0285 13       		.uleb128 0x13
 9272 0286 3F       		.uleb128 0x3f
 9273 0287 19       		.uleb128 0x19
 9274 0288 3C       		.uleb128 0x3c
 9275 0289 19       		.uleb128 0x19
 9276 028a 00       		.byte	0
 9277 028b 00       		.byte	0
 9278 028c 2D       		.uleb128 0x2d
 9279 028d 34       		.uleb128 0x34
 9280 028e 00       		.byte	0
 9281 028f 03       		.uleb128 0x3
 9282 0290 0E       		.uleb128 0xe
 9283 0291 3A       		.uleb128 0x3a
 9284 0292 0B       		.uleb128 0xb
 9285 0293 3B       		.uleb128 0x3b
ARM GAS  /tmp/ccQpHQw3.s 			page 166


 9286 0294 0B       		.uleb128 0xb
 9287 0295 49       		.uleb128 0x49
 9288 0296 13       		.uleb128 0x13
 9289 0297 3F       		.uleb128 0x3f
 9290 0298 19       		.uleb128 0x19
 9291 0299 3C       		.uleb128 0x3c
 9292 029a 19       		.uleb128 0x19
 9293 029b 00       		.byte	0
 9294 029c 00       		.byte	0
 9295 029d 2E       		.uleb128 0x2e
 9296 029e 34       		.uleb128 0x34
 9297 029f 00       		.byte	0
 9298 02a0 03       		.uleb128 0x3
 9299 02a1 0E       		.uleb128 0xe
 9300 02a2 3A       		.uleb128 0x3a
 9301 02a3 0B       		.uleb128 0xb
 9302 02a4 3B       		.uleb128 0x3b
 9303 02a5 05       		.uleb128 0x5
 9304 02a6 49       		.uleb128 0x49
 9305 02a7 13       		.uleb128 0x13
 9306 02a8 3F       		.uleb128 0x3f
 9307 02a9 19       		.uleb128 0x19
 9308 02aa 02       		.uleb128 0x2
 9309 02ab 18       		.uleb128 0x18
 9310 02ac 00       		.byte	0
 9311 02ad 00       		.byte	0
 9312 02ae 2F       		.uleb128 0x2f
 9313 02af 21       		.uleb128 0x21
 9314 02b0 00       		.byte	0
 9315 02b1 00       		.byte	0
 9316 02b2 00       		.byte	0
 9317 02b3 30       		.uleb128 0x30
 9318 02b4 34       		.uleb128 0x34
 9319 02b5 00       		.byte	0
 9320 02b6 03       		.uleb128 0x3
 9321 02b7 08       		.uleb128 0x8
 9322 02b8 3A       		.uleb128 0x3a
 9323 02b9 0B       		.uleb128 0xb
 9324 02ba 3B       		.uleb128 0x3b
 9325 02bb 05       		.uleb128 0x5
 9326 02bc 49       		.uleb128 0x49
 9327 02bd 13       		.uleb128 0x13
 9328 02be 3F       		.uleb128 0x3f
 9329 02bf 19       		.uleb128 0x19
 9330 02c0 3C       		.uleb128 0x3c
 9331 02c1 19       		.uleb128 0x19
 9332 02c2 00       		.byte	0
 9333 02c3 00       		.byte	0
 9334 02c4 31       		.uleb128 0x31
 9335 02c5 34       		.uleb128 0x34
 9336 02c6 00       		.byte	0
 9337 02c7 03       		.uleb128 0x3
 9338 02c8 0E       		.uleb128 0xe
 9339 02c9 3A       		.uleb128 0x3a
 9340 02ca 0B       		.uleb128 0xb
 9341 02cb 3B       		.uleb128 0x3b
 9342 02cc 0B       		.uleb128 0xb
ARM GAS  /tmp/ccQpHQw3.s 			page 167


 9343 02cd 49       		.uleb128 0x49
 9344 02ce 13       		.uleb128 0x13
 9345 02cf 3F       		.uleb128 0x3f
 9346 02d0 19       		.uleb128 0x19
 9347 02d1 02       		.uleb128 0x2
 9348 02d2 18       		.uleb128 0x18
 9349 02d3 00       		.byte	0
 9350 02d4 00       		.byte	0
 9351 02d5 00       		.byte	0
 9352              		.section	.debug_aranges,"",%progbits
 9353 0000 1C000000 		.4byte	0x1c
 9354 0004 0200     		.2byte	0x2
 9355 0006 00000000 		.4byte	.Ldebug_info0
 9356 000a 04       		.byte	0x4
 9357 000b 00       		.byte	0
 9358 000c 0000     		.2byte	0
 9359 000e 0000     		.2byte	0
 9360 0010 00000000 		.4byte	.Ltext0
 9361 0014 B01B0000 		.4byte	.Letext0-.Ltext0
 9362 0018 00000000 		.4byte	0
 9363 001c 00000000 		.4byte	0
 9364              		.section	.debug_line,"",%progbits
 9365              	.Ldebug_line0:
 9366 0000 BD090000 		.section	.debug_str,"MS",%progbits,1
 9366      02003306 
 9366      00000201 
 9366      FB0E0D00 
 9366      01010101 
 9367              	.LASF279:
 9368 0000 4F53585F 		.ascii	"OSX_MCP_INHAND\000"
 9368      4D43505F 
 9368      494E4841 
 9368      4E4400
 9369              	.LASF502:
 9370 000f 6E756D5F 		.ascii	"num_byte_sent\000"
 9370      62797465 
 9370      5F73656E 
 9370      7400
 9371              	.LASF145:
 9372 001d 4C707469 		.ascii	"Lptim2ClockSelection\000"
 9372      6D32436C 
 9372      6F636B53 
 9372      656C6563 
 9372      74696F6E 
 9373              	.LASF2:
 9374 0032 73697A65 		.ascii	"size_t\000"
 9374      5F7400
 9375              	.LASF16:
 9376 0039 73697A65 		.ascii	"sizetype\000"
 9376      74797065 
 9376      00
 9377              	.LASF388:
 9378 0042 77747365 		.ascii	"wtsemp\000"
 9378      6D7000
 9379              	.LASF249:
 9380 0049 4D444D5F 		.ascii	"MDM_PayLoadLic_t\000"
 9380      5061794C 
ARM GAS  /tmp/ccQpHQw3.s 			page 168


 9380      6F61644C 
 9380      69635F74 
 9380      00
 9381              	.LASF323:
 9382 005a 73797374 		.ascii	"systime_t\000"
 9382      696D655F 
 9382      7400
 9383              	.LASF54:
 9384 0064 41504231 		.ascii	"APB1ENR1\000"
 9384      454E5231 
 9384      00
 9385              	.LASF55:
 9386 006d 41504231 		.ascii	"APB1ENR2\000"
 9386      454E5232 
 9386      00
 9387              	.LASF330:
 9388 0076 705F6374 		.ascii	"p_ctx\000"
 9388      7800
 9389              	.LASF319:
 9390 007c 74707269 		.ascii	"tprio_t\000"
 9390      6F5F7400 
 9391              	.LASF339:
 9392 0084 705F6D73 		.ascii	"p_msgqueue\000"
 9392      67717565 
 9392      756500
 9393              	.LASF499:
 9394 008f 55706461 		.ascii	"UpdateMotionAR\000"
 9394      74654D6F 
 9394      74696F6E 
 9394      415200
 9395              	.LASF533:
 9396 009e 62646164 		.ascii	"bdaddr\000"
 9396      647200
 9397              	.LASF354:
 9398 00a5 725F6374 		.ascii	"r_ctx\000"
 9398      7800
 9399              	.LASF24:
 9400 00ab 696E7433 		.ascii	"int32_t\000"
 9400      325F7400 
 9401              	.LASF116:
 9402 00b3 5243435F 		.ascii	"RCC_ClkInitTypeDef\000"
 9402      436C6B49 
 9402      6E697454 
 9402      79706544 
 9402      656600
 9403              	.LASF241:
 9404 00c6 4D444D5F 		.ascii	"MDM_knownOsxLicense_t\000"
 9404      6B6E6F77 
 9404      6E4F7378 
 9404      4C696365 
 9404      6E73655F 
 9405              	.LASF358:
 9406 00dc 76746675 		.ascii	"vtfunc_t\000"
 9406      6E635F74 
 9406      00
 9407              	.LASF367:
 9408 00e5 63685F76 		.ascii	"ch_virtual_timers_list\000"
ARM GAS  /tmp/ccQpHQw3.s 			page 169


 9408      69727475 
 9408      616C5F74 
 9408      696D6572 
 9408      735F6C69 
 9409              	.LASF289:
 9410 00fc 6F73785F 		.ascii	"osx_MGR_output_t\000"
 9410      4D47525F 
 9410      6F757470 
 9410      75745F74 
 9410      00
 9411              	.LASF282:
 9412 010d 4F53585F 		.ascii	"OSX_MCP_TROUSERPOCKET\000"
 9412      4D43505F 
 9412      54524F55 
 9412      53455250 
 9412      4F434B45 
 9413              	.LASF102:
 9414 0123 4C534553 		.ascii	"LSEState\000"
 9414      74617465 
 9414      00
 9415              	.LASF414:
 9416 012c 5061794C 		.ascii	"PayLoad\000"
 9416      6F616400 
 9417              	.LASF194:
 9418 0134 4F434964 		.ascii	"OCIdleState\000"
 9418      6C655374 
 9418      61746500 
 9419              	.LASF435:
 9420 0140 436F6D70 		.ascii	"ComputeQuaternions\000"
 9420      75746551 
 9420      75617465 
 9420      726E696F 
 9420      6E7300
 9421              	.LASF514:
 9422 0153 7365745F 		.ascii	"set_connectable\000"
 9422      636F6E6E 
 9422      65637461 
 9422      626C6500 
 9423              	.LASF468:
 9424 0163 496E6974 		.ascii	"Init_BlueNRG_Stack\000"
 9424      5F426C75 
 9424      654E5247 
 9424      5F537461 
 9424      636B00
 9425              	.LASF482:
 9426 0176 44656C61 		.ascii	"Delay\000"
 9426      7900
 9427              	.LASF112:
 9428 017c 53595343 		.ascii	"SYSCLKSource\000"
 9428      4C4B536F 
 9428      75726365 
 9428      00
 9429              	.LASF274:
 9430 0189 4F53585F 		.ascii	"OSX_MAR_BIKING\000"
 9430      4D41525F 
 9430      42494B49 
 9430      4E4700
ARM GAS  /tmp/ccQpHQw3.s 			page 170


 9431              	.LASF304:
 9432 0198 4E756D4D 		.ascii	"NumMicSensors\000"
 9432      69635365 
 9432      6E736F72 
 9432      7300
 9433              	.LASF250:
 9434 01a6 726F7461 		.ascii	"rotation_9X\000"
 9434      74696F6E 
 9434      5F395800 
 9435              	.LASF37:
 9436 01b2 504C4C53 		.ascii	"PLLSAI2CFGR\000"
 9436      41493243 
 9436      46475200 
 9437              	.LASF486:
 9438 01be 4D61676E 		.ascii	"MagnetoCalibration\000"
 9438      65746F43 
 9438      616C6962 
 9438      72617469 
 9438      6F6E00
 9439              	.LASF294:
 9440 01d1 54617267 		.ascii	"TargetType_t\000"
 9440      65745479 
 9440      70655F74 
 9440      00
 9441              	.LASF507:
 9442 01de 4D444D5F 		.ascii	"MDM_LicTable\000"
 9442      4C696354 
 9442      61626C65 
 9442      00
 9443              	.LASF238:
 9444 01eb 4C696345 		.ascii	"LicEnum\000"
 9444      6E756D00 
 9445              	.LASF310:
 9446 01f3 6F73784D 		.ascii	"osxMotionCPIsInitalized\000"
 9446      6F74696F 
 9446      6E435049 
 9446      73496E69 
 9446      74616C69 
 9447              	.LASF524:
 9448 020b 73656E73 		.ascii	"sensitivity\000"
 9448      69746976 
 9448      69747900 
 9449              	.LASF27:
 9450 0217 434E4454 		.ascii	"CNDTR\000"
 9450      5200
 9451              	.LASF428:
 9452 021d 73746174 		.ascii	"stat\000"
 9452      00
 9453              	.LASF124:
 9454 0222 5243435F 		.ascii	"RCC_PLLSAI1InitTypeDef\000"
 9454      504C4C53 
 9454      41493149 
 9454      6E697454 
 9454      79706544 
 9455              	.LASF500:
 9456 0239 55706461 		.ascii	"UpdateMotionCP\000"
 9456      74654D6F 
ARM GAS  /tmp/ccQpHQw3.s 			page 171


 9456      74696F6E 
 9456      435000
 9457              	.LASF80:
 9458 0248 444D4152 		.ascii	"DMAR\000"
 9458      00
 9459              	.LASF432:
 9460 024d 4143435F 		.ascii	"ACC_Value\000"
 9460      56616C75 
 9460      6500
 9461              	.LASF406:
 9462 0257 4143435F 		.ascii	"ACC_6D_OR_DOWN\000"
 9462      36445F4F 
 9462      525F444F 
 9462      574E00
 9463              	.LASF267:
 9464 0266 6578704D 		.ascii	"expMagVect\000"
 9464      61675665 
 9464      637400
 9465              	.LASF466:
 9466 0271 75775072 		.ascii	"uwPrescalerValue\000"
 9466      65736361 
 9466      6C657256 
 9466      616C7565 
 9466      00
 9467              	.LASF396:
 9468 0282 6D5F6F77 		.ascii	"m_owner\000"
 9468      6E657200 
 9469              	.LASF365:
 9470 028a 76745F70 		.ascii	"vt_par\000"
 9470      617200
 9471              	.LASF75:
 9472 0291 43435231 		.ascii	"CCR1\000"
 9472      00
 9473              	.LASF76:
 9474 0296 43435232 		.ascii	"CCR2\000"
 9474      00
 9475              	.LASF77:
 9476 029b 43435233 		.ascii	"CCR3\000"
 9476      00
 9477              	.LASF78:
 9478 02a0 43435234 		.ascii	"CCR4\000"
 9478      00
 9479              	.LASF82:
 9480 02a5 43435235 		.ascii	"CCR5\000"
 9480      00
 9481              	.LASF172:
 9482 02aa 4C6F636B 		.ascii	"Lock\000"
 9482      00
 9483              	.LASF3:
 9484 02af 5F5F7569 		.ascii	"__uint8_t\000"
 9484      6E74385F 
 9484      7400
 9485              	.LASF32:
 9486 02b9 444D415F 		.ascii	"DMA_TypeDef\000"
 9486      54797065 
 9486      44656600 
 9487              	.LASF390:
ARM GAS  /tmp/ccQpHQw3.s 			page 172


 9488 02c5 65776D61 		.ascii	"ewmask\000"
 9488      736B00
 9489              	.LASF33:
 9490 02cc 49435343 		.ascii	"ICSCR\000"
 9490      5200
 9491              	.LASF503:
 9492 02d2 69734361 		.ascii	"isCal\000"
 9492      6C00
 9493              	.LASF526:
 9494 02d8 6D61674F 		.ascii	"magOffset\000"
 9494      66667365 
 9494      7400
 9495              	.LASF94:
 9496 02e2 504C4C4D 		.ascii	"PLLM\000"
 9496      00
 9497              	.LASF510:
 9498 02e7 54617267 		.ascii	"TargetBoardFeatures\000"
 9498      6574426F 
 9498      61726446 
 9498      65617475 
 9498      72657300 
 9499              	.LASF460:
 9500 02fb 48756D54 		.ascii	"HumToSend\000"
 9500      6F53656E 
 9500      6400
 9501              	.LASF154:
 9502 0305 52544343 		.ascii	"RTCClockSelection\000"
 9502      6C6F636B 
 9502      53656C65 
 9502      6374696F 
 9502      6E00
 9503              	.LASF331:
 9504 0317 705F6E65 		.ascii	"p_newer\000"
 9504      77657200 
 9505              	.LASF201:
 9506 031f 48414C5F 		.ascii	"HAL_TIM_STATE_ERROR\000"
 9506      54494D5F 
 9506      53544154 
 9506      455F4552 
 9506      524F5200 
 9507              	.LASF10:
 9508 0333 6C6F6E67 		.ascii	"long int\000"
 9508      20696E74 
 9508      00
 9509              	.LASF327:
 9510 033c 705F6E65 		.ascii	"p_next\000"
 9510      787400
 9511              	.LASF137:
 9512 0343 55736172 		.ascii	"Usart3ClockSelection\000"
 9512      7433436C 
 9512      6F636B53 
 9512      656C6563 
 9512      74696F6E 
 9513              	.LASF328:
 9514 0358 705F7072 		.ascii	"p_prev\000"
 9514      657600
 9515              	.LASF188:
ARM GAS  /tmp/ccQpHQw3.s 			page 173


 9516 035f 54494D5F 		.ascii	"TIM_Base_InitTypeDef\000"
 9516      42617365 
 9516      5F496E69 
 9516      74547970 
 9516      65446566 
 9517              	.LASF401:
 9518 0374 4143435F 		.ascii	"ACC_6D_OR_TOP\000"
 9518      36445F4F 
 9518      525F544F 
 9518      5000
 9519              	.LASF316:
 9520 0382 74737461 		.ascii	"tstate_t\000"
 9520      74655F74 
 9520      00
 9521              	.LASF511:
 9522 038b 42756666 		.ascii	"BufferToWrite\000"
 9522      6572546F 
 9522      57726974 
 9522      6500
 9523              	.LASF348:
 9524 0399 74687265 		.ascii	"threads_queue_t\000"
 9524      6164735F 
 9524      71756575 
 9524      655F7400 
 9525              	.LASF342:
 9526 03a9 705F6D74 		.ascii	"p_mtxlist\000"
 9526      786C6973 
 9526      7400
 9527              	.LASF179:
 9528 03b3 4572726F 		.ascii	"ErrorCode\000"
 9528      72436F64 
 9528      6500
 9529              	.LASF138:
 9530 03bd 55617274 		.ascii	"Uart4ClockSelection\000"
 9530      34436C6F 
 9530      636B5365 
 9530      6C656374 
 9530      696F6E00 
 9531              	.LASF479:
 9532 03d1 50657269 		.ascii	"PeriphClkInitStruct\000"
 9532      7068436C 
 9532      6B496E69 
 9532      74537472 
 9532      75637400 
 9533              	.LASF378:
 9534 03e5 72656761 		.ascii	"regarm_t\000"
 9534      726D5F74 
 9534      00
 9535              	.LASF301:
 9536 03ee 48616E64 		.ascii	"HandleAccSensor\000"
 9536      6C654163 
 9536      6353656E 
 9536      736F7200 
 9537              	.LASF411:
 9538 03fe 4143435F 		.ascii	"ACC_WAKE_UP\000"
 9538      57414B45 
 9538      5F555000 
ARM GAS  /tmp/ccQpHQw3.s 			page 174


 9539              	.LASF440:
 9540 040a 4143435F 		.ascii	"ACC_Value_Raw\000"
 9540      56616C75 
 9540      655F5261 
 9540      7700
 9541              	.LASF111:
 9542 0418 436C6F63 		.ascii	"ClockType\000"
 9542      6B547970 
 9542      6500
 9543              	.LASF244:
 9544 0422 41646472 		.ascii	"Address\000"
 9544      65737300 
 9545              	.LASF91:
 9546 042a 48414C5F 		.ascii	"HAL_LockTypeDef\000"
 9546      4C6F636B 
 9546      54797065 
 9546      44656600 
 9547              	.LASF405:
 9548 043a 4143435F 		.ascii	"ACC_6D_OR_UP\000"
 9548      36445F4F 
 9548      525F5550 
 9548      00
 9549              	.LASF211:
 9550 0447 4368616E 		.ascii	"Channel\000"
 9550      6E656C00 
 9551              	.LASF143:
 9552 044f 49326333 		.ascii	"I2c3ClockSelection\000"
 9552      436C6F63 
 9552      6B53656C 
 9552      65637469 
 9552      6F6E00
 9553              	.LASF216:
 9554 0462 434F4D50 		.ascii	"COMPONENT_TIMEOUT\000"
 9554      4F4E454E 
 9554      545F5449 
 9554      4D454F55 
 9554      5400
 9555              	.LASF416:
 9556 0474 53657432 		.ascii	"Set2GAccelerometerFullScale\000"
 9556      47416363 
 9556      656C6572 
 9556      6F6D6574 
 9556      65724675 
 9557              	.LASF523:
 9558 0490 6F73785F 		.ascii	"osx_bv_license\000"
 9558      62765F6C 
 9558      6963656E 
 9558      736500
 9559              	.LASF202:
 9560 049f 48414C5F 		.ascii	"HAL_TIM_StateTypeDef\000"
 9560      54494D5F 
 9560      53746174 
 9560      65547970 
 9560      65446566 
 9561              	.LASF370:
 9562 04b4 63685F73 		.ascii	"ch_system_debug\000"
 9562      79737465 
ARM GAS  /tmp/ccQpHQw3.s 			page 175


 9562      6D5F6465 
 9562      62756700 
 9563              	.LASF237:
 9564 04c4 4D444D5F 		.ascii	"MDM_OsxLicenseType_t\000"
 9564      4F73784C 
 9564      6963656E 
 9564      73655479 
 9564      70655F74 
 9565              	.LASF234:
 9566 04d9 4F53585F 		.ascii	"OSX_AUDIO_BV\000"
 9566      41554449 
 9566      4F5F4256 
 9566      00
 9567              	.LASF28:
 9568 04e6 43504152 		.ascii	"CPAR\000"
 9568      00
 9569              	.LASF1:
 9570 04eb 7369676E 		.ascii	"signed char\000"
 9570      65642063 
 9570      68617200 
 9571              	.LASF337:
 9572 04f7 705F7072 		.ascii	"p_preempt\000"
 9572      65656D70 
 9572      7400
 9573              	.LASF21:
 9574 0501 75696E74 		.ascii	"uint8_t\000"
 9574      385F7400 
 9575              	.LASF474:
 9576 0509 66775665 		.ascii	"fwVersion\000"
 9576      7273696F 
 9576      6E00
 9577              	.LASF223:
 9578 0513 4D444D5F 		.ascii	"MDM_DATA_TYPE_LIC\000"
 9578      44415441 
 9578      5F545950 
 9578      455F4C49 
 9578      4300
 9579              	.LASF85:
 9580 0525 48414C5F 		.ascii	"HAL_OK\000"
 9580      4F4B00
 9581              	.LASF105:
 9582 052c 4C534953 		.ascii	"LSIState\000"
 9582      74617465 
 9582      00
 9583              	.LASF321:
 9584 0535 6576656E 		.ascii	"eventmask_t\000"
 9584      746D6173 
 9584      6B5F7400 
 9585              	.LASF380:
 9586 0541 636F6E74 		.ascii	"context\000"
 9586      65787400 
 9587              	.LASF283:
 9588 0549 4F53585F 		.ascii	"OSX_MCP_ARMSWING\000"
 9588      4D43505F 
 9588      41524D53 
 9588      57494E47 
 9588      00
ARM GAS  /tmp/ccQpHQw3.s 			page 176


 9589              	.LASF291:
 9590 055a 54415247 		.ascii	"TARGET_BLUECOIN\000"
 9590      45545F42 
 9590      4C554543 
 9590      4F494E00 
 9591              	.LASF84:
 9592 056a 54494D5F 		.ascii	"TIM_TypeDef\000"
 9592      54797065 
 9592      44656600 
 9593              	.LASF387:
 9594 0576 77747472 		.ascii	"wttrp\000"
 9594      7000
 9595              	.LASF437:
 9596 057c 63616C69 		.ascii	"calibIndex\000"
 9596      62496E64 
 9596      657800
 9597              	.LASF41:
 9598 0587 52455345 		.ascii	"RESERVED0\000"
 9598      52564544 
 9598      3000
 9599              	.LASF45:
 9600 0591 52455345 		.ascii	"RESERVED1\000"
 9600      52564544 
 9600      3100
 9601              	.LASF49:
 9602 059b 52455345 		.ascii	"RESERVED2\000"
 9602      52564544 
 9602      3200
 9603              	.LASF53:
 9604 05a5 52455345 		.ascii	"RESERVED3\000"
 9604      52564544 
 9604      3300
 9605              	.LASF57:
 9606 05af 52455345 		.ascii	"RESERVED4\000"
 9606      52564544 
 9606      3400
 9607              	.LASF501:
 9608 05b9 55706461 		.ascii	"UpdateMotionGR\000"
 9608      74654D6F 
 9608      74696F6E 
 9608      475200
 9609              	.LASF65:
 9610 05c8 52455345 		.ascii	"RESERVED6\000"
 9610      52564544 
 9610      3600
 9611              	.LASF67:
 9612 05d2 52455345 		.ascii	"RESERVED7\000"
 9612      52564544 
 9612      3700
 9613              	.LASF362:
 9614 05dc 76745F70 		.ascii	"vt_prev\000"
 9614      72657600 
 9615              	.LASF115:
 9616 05e4 41504232 		.ascii	"APB2CLKDivider\000"
 9616      434C4B44 
 9616      69766964 
 9616      657200
ARM GAS  /tmp/ccQpHQw3.s 			page 177


 9617              	.LASF467:
 9618 05f3 73436F6E 		.ascii	"sConfig\000"
 9618      66696700 
 9619              	.LASF508:
 9620 05fb 4E656365 		.ascii	"NecessityToSaveMetaDataManager\000"
 9620      73736974 
 9620      79546F53 
 9620      6176654D 
 9620      65746144 
 9621              	.LASF181:
 9622 061a 4368616E 		.ascii	"ChannelIndex\000"
 9622      6E656C49 
 9622      6E646578 
 9622      00
 9623              	.LASF419:
 9624 0627 48414C5F 		.ascii	"HAL_TIM_OC_DelayElapsedCallback\000"
 9624      54494D5F 
 9624      4F435F44 
 9624      656C6179 
 9624      456C6170 
 9625              	.LASF429:
 9626 0647 4F726965 		.ascii	"Orientation\000"
 9626      6E746174 
 9626      696F6E00 
 9627              	.LASF285:
 9628 0653 4F53585F 		.ascii	"OSX_MGR_NOGESTURE\000"
 9628      4D47525F 
 9628      4E4F4745 
 9628      53545552 
 9628      4500
 9629              	.LASF483:
 9630 0665 4572726F 		.ascii	"Error_Handler\000"
 9630      725F4861 
 9630      6E646C65 
 9630      7200
 9631              	.LASF355:
 9632 0673 725F6E65 		.ascii	"r_newer\000"
 9632      77657200 
 9633              	.LASF369:
 9634 067b 73797374 		.ascii	"system_debug_t\000"
 9634      656D5F64 
 9634      65627567 
 9634      5F7400
 9635              	.LASF23:
 9636 068a 75696E74 		.ascii	"uint16_t\000"
 9636      31365F74 
 9636      00
 9637              	.LASF306:
 9638 0693 626E7267 		.ascii	"bnrg_expansion_board\000"
 9638      5F657870 
 9638      616E7369 
 9638      6F6E5F62 
 9638      6F617264 
 9639              	.LASF399:
 9640 06a8 5F426F6F 		.ascii	"_Bool\000"
 9640      6C00
 9641              	.LASF490:
ARM GAS  /tmp/ccQpHQw3.s 			page 178


 9642 06ae 436F756E 		.ascii	"Counter\000"
 9642      74657200 
 9643              	.LASF103:
 9644 06b6 48534953 		.ascii	"HSIState\000"
 9644      74617465 
 9644      00
 9645              	.LASF491:
 9646 06bf 52654361 		.ascii	"ReCallCalibrationFromMemory\000"
 9646      6C6C4361 
 9646      6C696272 
 9646      6174696F 
 9646      6E46726F 
 9647              	.LASF203:
 9648 06db 48414C5F 		.ascii	"HAL_TIM_ACTIVE_CHANNEL_1\000"
 9648      54494D5F 
 9648      41435449 
 9648      56455F43 
 9648      48414E4E 
 9649              	.LASF204:
 9650 06f4 48414C5F 		.ascii	"HAL_TIM_ACTIVE_CHANNEL_2\000"
 9650      54494D5F 
 9650      41435449 
 9650      56455F43 
 9650      48414E4E 
 9651              	.LASF205:
 9652 070d 48414C5F 		.ascii	"HAL_TIM_ACTIVE_CHANNEL_3\000"
 9652      54494D5F 
 9652      41435449 
 9652      56455F43 
 9652      48414E4E 
 9653              	.LASF206:
 9654 0726 48414C5F 		.ascii	"HAL_TIM_ACTIVE_CHANNEL_4\000"
 9654      54494D5F 
 9654      41435449 
 9654      56455F43 
 9654      48414E4E 
 9655              	.LASF207:
 9656 073f 48414C5F 		.ascii	"HAL_TIM_ACTIVE_CHANNEL_5\000"
 9656      54494D5F 
 9656      41435449 
 9656      56455F43 
 9656      48414E4E 
 9657              	.LASF208:
 9658 0758 48414C5F 		.ascii	"HAL_TIM_ACTIVE_CHANNEL_6\000"
 9658      54494D5F 
 9658      41435449 
 9658      56455F43 
 9658      48414E4E 
 9659              	.LASF73:
 9660 0771 43434D52 		.ascii	"CCMR2\000"
 9660      3200
 9661              	.LASF81:
 9662 0777 43434D52 		.ascii	"CCMR3\000"
 9662      3300
 9663              	.LASF17:
 9664 077d 63686172 		.ascii	"char\000"
 9664      00
ARM GAS  /tmp/ccQpHQw3.s 			page 179


 9665              	.LASF452:
 9666 0782 53656E64 		.ascii	"SendAudioLevelData\000"
 9666      41756469 
 9666      6F4C6576 
 9666      656C4461 
 9666      746100
 9667              	.LASF195:
 9668 0795 4F434E49 		.ascii	"OCNIdleState\000"
 9668      646C6553 
 9668      74617465 
 9668      00
 9669              	.LASF31:
 9670 07a2 49464352 		.ascii	"IFCR\000"
 9670      00
 9671              	.LASF42:
 9672 07a7 41484231 		.ascii	"AHB1RSTR\000"
 9672      52535452 
 9672      00
 9673              	.LASF385:
 9674 07b0 65786974 		.ascii	"exitcode\000"
 9674      636F6465 
 9674      00
 9675              	.LASF329:
 9676 07b9 705F7072 		.ascii	"p_prio\000"
 9676      696F00
 9677              	.LASF7:
 9678 07c0 5F5F7569 		.ascii	"__uint16_t\000"
 9678      6E743136 
 9678      5F7400
 9679              	.LASF51:
 9680 07cb 41484232 		.ascii	"AHB2ENR\000"
 9680      454E5200 
 9681              	.LASF220:
 9682 07d3 41584953 		.ascii	"AXIS_Z\000"
 9682      5F5A00
 9683              	.LASF386:
 9684 07da 77746F62 		.ascii	"wtobjp\000"
 9684      6A7000
 9685              	.LASF228:
 9686 07e1 4F53585F 		.ascii	"OSX_MOTION_AR\000"
 9686      4D4F5449 
 9686      4F4E5F41 
 9686      5200
 9687              	.LASF61:
 9688 07ef 52455345 		.ascii	"RESERVED5\000"
 9688      52564544 
 9688      3500
 9689              	.LASF146:
 9690 07f9 53616931 		.ascii	"Sai1ClockSelection\000"
 9690      436C6F63 
 9690      6B53656C 
 9690      65637469 
 9690      6F6E00
 9691              	.LASF456:
 9692 080c 53656E64 		.ascii	"SendEnvironmentalData\000"
 9692      456E7669 
 9692      726F6E6D 
ARM GAS  /tmp/ccQpHQw3.s 			page 180


 9692      656E7461 
 9692      6C446174 
 9693              	.LASF441:
 9694 0822 4D6F7469 		.ascii	"MotionFX_Engine_Out\000"
 9694      6F6E4658 
 9694      5F456E67 
 9694      696E655F 
 9694      4F757400 
 9695              	.LASF379:
 9696 0836 73746B61 		.ascii	"stkalign_t\000"
 9696      6C69676E 
 9696      5F7400
 9697              	.LASF229:
 9698 0841 4F53585F 		.ascii	"OSX_MOTION_CP\000"
 9698      4D4F5449 
 9698      4F4E5F43 
 9698      5000
 9699              	.LASF521:
 9700 084f 6F73785F 		.ascii	"osx_mcp_license\000"
 9700      6D63705F 
 9700      6C696365 
 9700      6E736500 
 9701              	.LASF481:
 9702 085f 48414C5F 		.ascii	"HAL_Delay\000"
 9702      44656C61 
 9702      7900
 9703              	.LASF312:
 9704 0869 6F737841 		.ascii	"osxAudioBVIsInitalized\000"
 9704      7564696F 
 9704      42564973 
 9704      496E6974 
 9704      616C697A 
 9705              	.LASF400:
 9706 0880 4143435F 		.ascii	"ACC_NOT_USED\000"
 9706      4E4F545F 
 9706      55534544 
 9706      00
 9707              	.LASF95:
 9708 088d 504C4C4E 		.ascii	"PLLN\000"
 9708      00
 9709              	.LASF96:
 9710 0892 504C4C50 		.ascii	"PLLP\000"
 9710      00
 9711              	.LASF97:
 9712 0897 504C4C51 		.ascii	"PLLQ\000"
 9712      00
 9713              	.LASF98:
 9714 089c 504C4C52 		.ascii	"PLLR\000"
 9714      00
 9715              	.LASF436:
 9716 08a1 71756174 		.ascii	"quat_axes\000"
 9716      5F617865 
 9716      7300
 9717              	.LASF465:
 9718 08ab 496E6974 		.ascii	"InitTimers\000"
 9718      54696D65 
 9718      727300
ARM GAS  /tmp/ccQpHQw3.s 			page 181


 9719              	.LASF497:
 9720 08b6 53656E64 		.ascii	"SendAccGyroMag\000"
 9720      41636347 
 9720      79726F4D 
 9720      616700
 9721              	.LASF417:
 9722 08c5 53657434 		.ascii	"Set4GAccelerometerFullScale\000"
 9722      47416363 
 9722      656C6572 
 9722      6F6D6574 
 9722      65724675 
 9723              	.LASF410:
 9724 08e1 4143435F 		.ascii	"ACC_DOUBLE_TAP\000"
 9724      444F5542 
 9724      4C455F54 
 9724      415000
 9725              	.LASF46:
 9726 08f0 41504231 		.ascii	"APB1RSTR1\000"
 9726      52535452 
 9726      3100
 9727              	.LASF47:
 9728 08fa 41504231 		.ascii	"APB1RSTR2\000"
 9728      52535452 
 9728      3200
 9729              	.LASF260:
 9730 0904 6F73784D 		.ascii	"osxMFX_output\000"
 9730      46585F6F 
 9730      75747075 
 9730      7400
 9731              	.LASF224:
 9732 0912 4D444D5F 		.ascii	"MDM_DATA_TYPE_GMD\000"
 9732      44415441 
 9732      5F545950 
 9732      455F474D 
 9732      4400
 9733              	.LASF183:
 9734 0924 50726573 		.ascii	"Prescaler\000"
 9734      63616C65 
 9734      7200
 9735              	.LASF158:
 9736 092e 50657269 		.ascii	"PeriphInc\000"
 9736      7068496E 
 9736      6300
 9737              	.LASF192:
 9738 0938 4F434E50 		.ascii	"OCNPolarity\000"
 9738      6F6C6172 
 9738      69747900 
 9739              	.LASF150:
 9740 0944 526E6743 		.ascii	"RngClockSelection\000"
 9740      6C6F636B 
 9740      53656C65 
 9740      6374696F 
 9740      6E00
 9741              	.LASF68:
 9742 0956 42444352 		.ascii	"BDCR\000"
 9742      00
 9743              	.LASF277:
ARM GAS  /tmp/ccQpHQw3.s 			page 182


 9744 095b 4F53585F 		.ascii	"OSX_MCP_UNKNOWN\000"
 9744      4D43505F 
 9744      554E4B4E 
 9744      4F574E00 
 9745              	.LASF178:
 9746 096b 58666572 		.ascii	"XferAbortCallback\000"
 9746      41626F72 
 9746      7443616C 
 9746      6C626163 
 9746      6B00
 9747              	.LASF322:
 9748 097d 636E745F 		.ascii	"cnt_t\000"
 9748      7400
 9749              	.LASF148:
 9750 0983 55736243 		.ascii	"UsbClockSelection\000"
 9750      6C6F636B 
 9750      53656C65 
 9750      6374696F 
 9750      6E00
 9751              	.LASF413:
 9752 0995 496E6465 		.ascii	"Index\000"
 9752      7800
 9753              	.LASF364:
 9754 099b 76745F66 		.ascii	"vt_func\000"
 9754      756E6300 
 9755              	.LASF117:
 9756 09a3 504C4C53 		.ascii	"PLLSAI1Source\000"
 9756      41493153 
 9756      6F757263 
 9756      6500
 9757              	.LASF295:
 9758 09b1 426F6172 		.ascii	"BoardType\000"
 9758      64547970 
 9758      6500
 9759              	.LASF140:
 9760 09bb 4C707561 		.ascii	"Lpuart1ClockSelection\000"
 9760      72743143 
 9760      6C6F636B 
 9760      53656C65 
 9760      6374696F 
 9761              	.LASF108:
 9762 09d1 4D534943 		.ascii	"MSIClockRange\000"
 9762      6C6F636B 
 9762      52616E67 
 9762      6500
 9763              	.LASF139:
 9764 09df 55617274 		.ascii	"Uart5ClockSelection\000"
 9764      35436C6F 
 9764      636B5365 
 9764      6C656374 
 9764      696F6E00 
 9765              	.LASF155:
 9766 09f3 5243435F 		.ascii	"RCC_PeriphCLKInitTypeDef\000"
 9766      50657269 
 9766      7068434C 
 9766      4B496E69 
 9766      74547970 
ARM GAS  /tmp/ccQpHQw3.s 			page 183


 9767              	.LASF341:
 9768 0a0c 705F6570 		.ascii	"p_epending\000"
 9768      656E6469 
 9768      6E6700
 9769              	.LASF305:
 9770 0a17 4C656453 		.ascii	"LedStatus\000"
 9770      74617475 
 9770      7300
 9771              	.LASF389:
 9772 0a21 77746D74 		.ascii	"wtmtxp\000"
 9772      787000
 9773              	.LASF212:
 9774 0a28 68646D61 		.ascii	"hdma\000"
 9774      00
 9775              	.LASF199:
 9776 0a2d 48414C5F 		.ascii	"HAL_TIM_STATE_BUSY\000"
 9776      54494D5F 
 9776      53544154 
 9776      455F4255 
 9776      535900
 9777              	.LASF34:
 9778 0a40 43464752 		.ascii	"CFGR\000"
 9778      00
 9779              	.LASF268:
 9780 0a45 6F73784D 		.ascii	"osxMFX_calibFactor\000"
 9780      46585F63 
 9780      616C6962 
 9780      46616374 
 9780      6F7200
 9781              	.LASF461:
 9782 0a58 54656D70 		.ascii	"Temp2ToSend\000"
 9782      32546F53 
 9782      656E6400 
 9783              	.LASF415:
 9784 0a64 53756363 		.ascii	"Success\000"
 9784      65737300 
 9785              	.LASF240:
 9786 0a6c 6F73784C 		.ascii	"osxLibVersion\000"
 9786      69625665 
 9786      7273696F 
 9786      6E00
 9787              	.LASF343:
 9788 0a7a 705F7265 		.ascii	"p_realprio\000"
 9788      616C7072 
 9788      696F00
 9789              	.LASF496:
 9790 0a85 53656E64 		.ascii	"SendAudioLevel\000"
 9790      41756469 
 9790      6F4C6576 
 9790      656C00
 9791              	.LASF470:
 9792 0a94 73657276 		.ascii	"service_handle\000"
 9792      6963655F 
 9792      68616E64 
 9792      6C6500
 9793              	.LASF170:
 9794 0aa3 496E7374 		.ascii	"Instance\000"
ARM GAS  /tmp/ccQpHQw3.s 			page 184


 9794      616E6365 
 9794      00
 9795              	.LASF214:
 9796 0aac 434F4D50 		.ascii	"COMPONENT_OK\000"
 9796      4F4E454E 
 9796      545F4F4B 
 9796      00
 9797              	.LASF246:
 9798 0ab9 6F73784C 		.ascii	"osxLicenseInitialized\000"
 9798      6963656E 
 9798      7365496E 
 9798      69746961 
 9798      6C697A65 
 9799              	.LASF113:
 9800 0acf 41484243 		.ascii	"AHBCLKDivider\000"
 9800      4C4B4469 
 9800      76696465 
 9800      7200
 9801              	.LASF222:
 9802 0add 53656E73 		.ascii	"SensorAxes_t\000"
 9802      6F724178 
 9802      65735F74 
 9802      00
 9803              	.LASF217:
 9804 0aea 434F4D50 		.ascii	"COMPONENT_NOT_IMPLEMENTED\000"
 9804      4F4E454E 
 9804      545F4E4F 
 9804      545F494D 
 9804      504C454D 
 9805              	.LASF494:
 9806 0b04 4843495F 		.ascii	"HCI_ProcessEvent\000"
 9806      50726F63 
 9806      65737345 
 9806      76656E74 
 9806      00
 9807              	.LASF93:
 9808 0b15 504C4C53 		.ascii	"PLLSource\000"
 9808      6F757263 
 9808      6500
 9809              	.LASF66:
 9810 0b1f 43434950 		.ascii	"CCIPR\000"
 9810      5200
 9811              	.LASF14:
 9812 0b25 5F5F7569 		.ascii	"__uint64_t\000"
 9812      6E743634 
 9812      5F7400
 9813              	.LASF125:
 9814 0b30 504C4C53 		.ascii	"PLLSAI2Source\000"
 9814      41493253 
 9814      6F757263 
 9814      6500
 9815              	.LASF227:
 9816 0b3e 4F53585F 		.ascii	"OSX_MOTION_FX\000"
 9816      4D4F5449 
 9816      4F4E5F46 
 9816      5800
 9817              	.LASF12:
ARM GAS  /tmp/ccQpHQw3.s 			page 185


 9818 0b4c 6C6F6E67 		.ascii	"long unsigned int\000"
 9818      20756E73 
 9818      69676E65 
 9818      6420696E 
 9818      7400
 9819              	.LASF110:
 9820 0b5e 5243435F 		.ascii	"RCC_OscInitTypeDef\000"
 9820      4F736349 
 9820      6E697454 
 9820      79706544 
 9820      656600
 9821              	.LASF442:
 9822 0b71 416E676C 		.ascii	"Angle\000"
 9822      6500
 9823              	.LASF59:
 9824 0b77 41484232 		.ascii	"AHB2SMENR\000"
 9824      534D454E 
 9824      5200
 9825              	.LASF537:
 9826 0b81 50434D5F 		.ascii	"PCM_Buffer\000"
 9826      42756666 
 9826      657200
 9827              	.LASF11:
 9828 0b8c 5F5F7569 		.ascii	"__uint32_t\000"
 9828      6E743332 
 9828      5F7400
 9829              	.LASF71:
 9830 0b97 44494552 		.ascii	"DIER\000"
 9830      00
 9831              	.LASF248:
 9832 0b9c 45787472 		.ascii	"ExtraData\000"
 9832      61446174 
 9832      6100
 9833              	.LASF505:
 9834 0ba6 53797374 		.ascii	"SystemCoreClock\000"
 9834      656D436F 
 9834      7265436C 
 9834      6F636B00 
 9835              	.LASF391:
 9836 0bb6 63685F73 		.ascii	"ch_semaphore\000"
 9836      656D6170 
 9836      686F7265 
 9836      00
 9837              	.LASF326:
 9838 0bc3 63685F74 		.ascii	"ch_thread\000"
 9838      68726561 
 9838      6400
 9839              	.LASF259:
 9840 0bcd 68656164 		.ascii	"heading_6X\000"
 9840      696E675F 
 9840      365800
 9841              	.LASF123:
 9842 0bd8 504C4C53 		.ascii	"PLLSAI1ClockOut\000"
 9842      41493143 
 9842      6C6F636B 
 9842      4F757400 
 9843              	.LASF163:
ARM GAS  /tmp/ccQpHQw3.s 			page 186


 9844 0be8 5072696F 		.ascii	"Priority\000"
 9844      72697479 
 9844      00
 9845              	.LASF109:
 9846 0bf1 48534934 		.ascii	"HSI48State\000"
 9846      38537461 
 9846      746500
 9847              	.LASF366:
 9848 0bfc 76697274 		.ascii	"virtual_timers_list_t\000"
 9848      75616C5F 
 9848      74696D65 
 9848      72735F6C 
 9848      6973745F 
 9849              	.LASF520:
 9850 0c12 6F73785F 		.ascii	"osx_mar_license\000"
 9850      6D61725F 
 9850      6C696365 
 9850      6E736500 
 9851              	.LASF197:
 9852 0c22 48414C5F 		.ascii	"HAL_TIM_STATE_RESET\000"
 9852      54494D5F 
 9852      53544154 
 9852      455F5245 
 9852      53455400 
 9853              	.LASF407:
 9854 0c36 4143435F 		.ascii	"ACC_TILT\000"
 9854      54494C54 
 9854      00
 9855              	.LASF230:
 9856 0c3f 4F53585F 		.ascii	"OSX_MOTION_GR\000"
 9856      4D4F5449 
 9856      4F4E5F47 
 9856      5200
 9857              	.LASF359:
 9858 0c4d 76697274 		.ascii	"virtual_timer_t\000"
 9858      75616C5F 
 9858      74696D65 
 9858      725F7400 
 9859              	.LASF350:
 9860 0c5d 72656164 		.ascii	"ready_list_t\000"
 9860      795F6C69 
 9860      73745F74 
 9860      00
 9861              	.LASF404:
 9862 0c6a 4143435F 		.ascii	"ACC_6D_OR_RIGTH\000"
 9862      36445F4F 
 9862      525F5249 
 9862      47544800 
 9863              	.LASF290:
 9864 0c7a 54415247 		.ascii	"TARGET_NUCLEO\000"
 9864      45545F4E 
 9864      55434C45 
 9864      4F00
 9865              	.LASF135:
 9866 0c88 55736172 		.ascii	"Usart1ClockSelection\000"
 9866      7431436C 
 9866      6F636B53 
ARM GAS  /tmp/ccQpHQw3.s 			page 187


 9866      656C6563 
 9866      74696F6E 
 9867              	.LASF371:
 9868 0c9d 70616E69 		.ascii	"panic_msg\000"
 9868      635F6D73 
 9868      6700
 9869              	.LASF221:
 9870 0ca7 53656E73 		.ascii	"SensorAxesRaw_t\000"
 9870      6F724178 
 9870      65735261 
 9870      775F7400 
 9871              	.LASF318:
 9872 0cb7 74736C69 		.ascii	"tslices_t\000"
 9872      6365735F 
 9872      7400
 9873              	.LASF347:
 9874 0cc1 63685F74 		.ascii	"ch_threads_list\000"
 9874      68726561 
 9874      64735F6C 
 9874      69737400 
 9875              	.LASF270:
 9876 0cd1 4F53585F 		.ascii	"OSX_MAR_STATIONARY\000"
 9876      4D41525F 
 9876      53544154 
 9876      494F4E41 
 9876      525900
 9877              	.LASF232:
 9878 0ce4 4F53585F 		.ascii	"OSX_ACOUSTIC_SL\000"
 9878      41434F55 
 9878      53544943 
 9878      5F534C00 
 9879              	.LASF433:
 9880 0cf4 4759525F 		.ascii	"GYR_Value\000"
 9880      56616C75 
 9880      6500
 9881              	.LASF421:
 9882 0cfe 6874696D 		.ascii	"htim\000"
 9882      00
 9883              	.LASF403:
 9884 0d03 4143435F 		.ascii	"ACC_6D_OR_BOTTOM\000"
 9884      36445F4F 
 9884      525F424F 
 9884      54544F4D 
 9884      00
 9885              	.LASF153:
 9886 0d14 44667364 		.ascii	"Dfsdm1ClockSelection\000"
 9886      6D31436C 
 9886      6F636B53 
 9886      656C6563 
 9886      74696F6E 
 9887              	.LASF35:
 9888 0d29 504C4C43 		.ascii	"PLLCFGR\000"
 9888      46475200 
 9889              	.LASF534:
 9890 0d31 75684343 		.ascii	"uhCCR4_Val\000"
 9890      52345F56 
 9890      616C00
ARM GAS  /tmp/ccQpHQw3.s 			page 188


 9891              	.LASF272:
 9892 0d3c 4F53585F 		.ascii	"OSX_MAR_FASTWALKING\000"
 9892      4D41525F 
 9892      46415354 
 9892      57414C4B 
 9892      494E4700 
 9893              	.LASF457:
 9894 0d50 53746174 		.ascii	"Status\000"
 9894      757300
 9895              	.LASF161:
 9896 0d57 4D656D44 		.ascii	"MemDataAlignment\000"
 9896      61746141 
 9896      6C69676E 
 9896      6D656E74 
 9896      00
 9897              	.LASF488:
 9898 0d68 53617665 		.ascii	"SaveCalibrationToMemory\000"
 9898      43616C69 
 9898      62726174 
 9898      696F6E54 
 9898      6F4D656D 
 9899              	.LASF309:
 9900 0d80 6F73784D 		.ascii	"osxMotionARIsInitalized\000"
 9900      6F74696F 
 9900      6E415249 
 9900      73496E69 
 9900      74616C69 
 9901              	.LASF541:
 9902 0d98 2F752F65 		.ascii	"/u/elawton2/p442-submissions/sensortile/reference/b"
 9902      6C617774 
 9902      6F6E322F 
 9902      70343432 
 9902      2D737562 
 9903 0dcb 6C75656D 		.ascii	"luemicrosystem2/BlueMicrosystem2_V2.2.0/Projects/Mu"
 9903      6963726F 
 9903      73797374 
 9903      656D322F 
 9903      426C7565 
 9904 0dfe 6C74692F 		.ascii	"lti/Applications/BlueMicrosystem2/bluechibi\000"
 9904      4170706C 
 9904      69636174 
 9904      696F6E73 
 9904      2F426C75 
 9905              	.LASF13:
 9906 0e2a 6C6F6E67 		.ascii	"long long int\000"
 9906      206C6F6E 
 9906      6720696E 
 9906      7400
 9907              	.LASF235:
 9908 0e38 4F53585F 		.ascii	"OSX_MOTION_ID\000"
 9908      4D4F5449 
 9908      4F4E5F49 
 9908      4400
 9909              	.LASF293:
 9910 0e46 54415247 		.ascii	"TARGETS_NUMBER\000"
 9910      4554535F 
 9910      4E554D42 
ARM GAS  /tmp/ccQpHQw3.s 			page 189


 9910      455200
 9911              	.LASF395:
 9912 0e55 6D5F7175 		.ascii	"m_queue\000"
 9912      65756500 
 9913              	.LASF308:
 9914 0e5d 6F73784D 		.ascii	"osxMotionFXIsInitalized\000"
 9914      6F74696F 
 9914      6E465849 
 9914      73496E69 
 9914      74616C69 
 9915              	.LASF160:
 9916 0e75 50657269 		.ascii	"PeriphDataAlignment\000"
 9916      70684461 
 9916      7461416C 
 9916      69676E6D 
 9916      656E7400 
 9917              	.LASF361:
 9918 0e89 76745F6E 		.ascii	"vt_next\000"
 9918      65787400 
 9919              	.LASF315:
 9920 0e91 746D6F64 		.ascii	"tmode_t\000"
 9920      655F7400 
 9921              	.LASF459:
 9922 0e99 50726573 		.ascii	"PressToSend\000"
 9922      73546F53 
 9922      656E6400 
 9923              	.LASF18:
 9924 0ea5 646F7562 		.ascii	"double\000"
 9924      6C6500
 9925              	.LASF209:
 9926 0eac 48414C5F 		.ascii	"HAL_TIM_ACTIVE_CHANNEL_CLEARED\000"
 9926      54494D5F 
 9926      41435449 
 9926      56455F43 
 9926      48414E4E 
 9927              	.LASF48:
 9928 0ecb 41504232 		.ascii	"APB2RSTR\000"
 9928      52535452 
 9928      00
 9929              	.LASF530:
 9930 0ed4 54696D43 		.ascii	"TimCCHandle\000"
 9930      4348616E 
 9930      646C6500 
 9931              	.LASF131:
 9932 0ee0 5243435F 		.ascii	"RCC_PLLSAI2InitTypeDef\000"
 9932      504C4C53 
 9932      41493249 
 9932      6E697454 
 9932      79706544 
 9933              	.LASF276:
 9934 0ef7 6F73785F 		.ascii	"osx_MAR_output_t\000"
 9934      4D41525F 
 9934      6F757470 
 9934      75745F74 
 9934      00
 9935              	.LASF506:
 9936 0f08 6B6E6F77 		.ascii	"known_OsxLic\000"
ARM GAS  /tmp/ccQpHQw3.s 			page 190


 9936      6E5F4F73 
 9936      784C6963 
 9936      00
 9937              	.LASF453:
 9938 0f15 44424E4F 		.ascii	"DBNOISE_Value_Ch\000"
 9938      4953455F 
 9938      56616C75 
 9938      655F4368 
 9938      00
 9939              	.LASF540:
 9940 0f26 62746C65 		.ascii	"btle.c\000"
 9940      2E6300
 9941              	.LASF254:
 9942 0f2d 68656164 		.ascii	"heading_9X\000"
 9942      696E675F 
 9942      395800
 9943              	.LASF458:
 9944 0f38 53656E73 		.ascii	"SensorValue\000"
 9944      6F725661 
 9944      6C756500 
 9945              	.LASF133:
 9946 0f44 504C4C53 		.ascii	"PLLSAI1\000"
 9946      41493100 
 9947              	.LASF464:
 9948 0f4c 696E7450 		.ascii	"intPart\000"
 9948      61727400 
 9949              	.LASF180:
 9950 0f54 446D6142 		.ascii	"DmaBaseAddress\000"
 9950      61736541 
 9950      64647265 
 9950      737300
 9951              	.LASF519:
 9952 0f63 6F73785F 		.ascii	"osx_mfx_license\000"
 9952      6D66785F 
 9952      6C696365 
 9952      6E736500 
 9953              	.LASF19:
 9954 0f73 666C6F61 		.ascii	"float\000"
 9954      7400
 9955              	.LASF107:
 9956 0f79 4D534943 		.ascii	"MSICalibrationValue\000"
 9956      616C6962 
 9956      72617469 
 9956      6F6E5661 
 9956      6C756500 
 9957              	.LASF338:
 9958 0f8d 705F7761 		.ascii	"p_waiting\000"
 9958      6974696E 
 9958      6700
 9959              	.LASF476:
 9960 0f97 53797374 		.ascii	"SystemClock_Config\000"
 9960      656D436C 
 9960      6F636B5F 
 9960      436F6E66 
 9960      696700
 9961              	.LASF196:
 9962 0faa 54494D5F 		.ascii	"TIM_OC_InitTypeDef\000"
ARM GAS  /tmp/ccQpHQw3.s 			page 191


 9962      4F435F49 
 9962      6E697454 
 9962      79706544 
 9962      656600
 9963              	.LASF455:
 9964 0fbd 4253505F 		.ascii	"BSP_AUDIO_IN_TransferComplete_CallBack\000"
 9964      41554449 
 9964      4F5F494E 
 9964      5F547261 
 9964      6E736665 
 9965              	.LASF335:
 9966 0fe4 705F666C 		.ascii	"p_flags\000"
 9966      61677300 
 9967              	.LASF377:
 9968 0fec 69646C65 		.ascii	"idle_thread_wa\000"
 9968      5F746872 
 9968      6561645F 
 9968      776100
 9969              	.LASF168:
 9970 0ffb 48414C5F 		.ascii	"HAL_DMA_STATE_TIMEOUT\000"
 9970      444D415F 
 9970      53544154 
 9970      455F5449 
 9970      4D454F55 
 9971              	.LASF0:
 9972 1011 756E7369 		.ascii	"unsigned int\000"
 9972      676E6564 
 9972      20696E74 
 9972      00
 9973              	.LASF101:
 9974 101e 48534553 		.ascii	"HSEState\000"
 9974      74617465 
 9974      00
 9975              	.LASF430:
 9976 1027 53746570 		.ascii	"StepCount\000"
 9976      436F756E 
 9976      7400
 9977              	.LASF314:
 9978 1031 7274636E 		.ascii	"rtcnt_t\000"
 9978      745F7400 
 9979              	.LASF344:
 9980 1039 705F6D70 		.ascii	"p_mpool\000"
 9980      6F6F6C00 
 9981              	.LASF193:
 9982 1041 4F434661 		.ascii	"OCFastMode\000"
 9982      73744D6F 
 9982      646500
 9983              	.LASF149:
 9984 104c 53646D6D 		.ascii	"Sdmmc1ClockSelection\000"
 9984      6331436C 
 9984      6F636B53 
 9984      656C6563 
 9984      74696F6E 
 9985              	.LASF450:
 9986 1061 41756469 		.ascii	"AudioProcess\000"
 9986      6F50726F 
 9986      63657373 
ARM GAS  /tmp/ccQpHQw3.s 			page 192


 9986      00
 9987              	.LASF402:
 9988 106e 4143435F 		.ascii	"ACC_6D_OR_LEFT\000"
 9988      36445F4F 
 9988      525F4C45 
 9988      465400
 9989              	.LASF336:
 9990 107d 705F7265 		.ascii	"p_refs\000"
 9990      667300
 9991              	.LASF218:
 9992 1084 41584953 		.ascii	"AXIS_X\000"
 9992      5F5800
 9993              	.LASF219:
 9994 108b 41584953 		.ascii	"AXIS_Y\000"
 9994      5F5900
 9995              	.LASF92:
 9996 1092 504C4C53 		.ascii	"PLLState\000"
 9996      74617465 
 9996      00
 9997              	.LASF72:
 9998 109b 43434D52 		.ascii	"CCMR1\000"
 9998      3100
 9999              	.LASF264:
 10000 10a1 6D616747 		.ascii	"magGainX\000"
 10000      61696E58 
 10000      00
 10001              	.LASF265:
 10002 10aa 6D616747 		.ascii	"magGainY\000"
 10002      61696E59 
 10002      00
 10003              	.LASF266:
 10004 10b3 6D616747 		.ascii	"magGainZ\000"
 10004      61696E5A 
 10004      00
 10005              	.LASF447:
 10006 10bc 43617272 		.ascii	"CarryPositionCodeStored\000"
 10006      79506F73 
 10006      6974696F 
 10006      6E436F64 
 10006      6553746F 
 10007              	.LASF451:
 10008 10d4 4E756D62 		.ascii	"NumberMic\000"
 10008      65724D69 
 10008      6300
 10009              	.LASF174:
 10010 10de 50617265 		.ascii	"Parent\000"
 10010      6E7400
 10011              	.LASF29:
 10012 10e5 434D4152 		.ascii	"CMAR\000"
 10012      00
 10013              	.LASF165:
 10014 10ea 48414C5F 		.ascii	"HAL_DMA_STATE_RESET\000"
 10014      444D415F 
 10014      53544154 
 10014      455F5245 
 10014      53455400 
 10015              	.LASF516:
ARM GAS  /tmp/ccQpHQw3.s 			page 193


 10016 10fe 41637469 		.ascii	"ActivityCode\000"
 10016      76697479 
 10016      436F6465 
 10016      00
 10017              	.LASF477:
 10018 110b 5243435F 		.ascii	"RCC_ClkInitStruct\000"
 10018      436C6B49 
 10018      6E697453 
 10018      74727563 
 10018      7400
 10019              	.LASF134:
 10020 111d 504C4C53 		.ascii	"PLLSAI2\000"
 10020      41493200 
 10021              	.LASF418:
 10022 1125 75684361 		.ascii	"uhCapture\000"
 10022      70747572 
 10022      6500
 10023              	.LASF382:
 10024 112f 6F666673 		.ascii	"offset\000"
 10024      657400
 10025              	.LASF171:
 10026 1136 496E6974 		.ascii	"Init\000"
 10026      00
 10027              	.LASF408:
 10028 113b 4143435F 		.ascii	"ACC_FREE_FALL\000"
 10028      46524545 
 10028      5F46414C 
 10028      4C00
 10029              	.LASF189:
 10030 1149 4F434D6F 		.ascii	"OCMode\000"
 10030      646500
 10031              	.LASF426:
 10032 1150 52654361 		.ascii	"ReCalibration\000"
 10032      6C696272 
 10032      6174696F 
 10032      6E00
 10033              	.LASF4:
 10034 115e 756E7369 		.ascii	"unsigned char\000"
 10034      676E6564 
 10034      20636861 
 10034      7200
 10035              	.LASF159:
 10036 116c 4D656D49 		.ascii	"MemInc\000"
 10036      6E6300
 10037              	.LASF527:
 10038 1173 436F6E6E 		.ascii	"ConnectionBleStatus\000"
 10038      65637469 
 10038      6F6E426C 
 10038      65537461 
 10038      74757300 
 10039              	.LASF258:
 10040 1187 6C696E65 		.ascii	"linear_acceleration_6X\000"
 10040      61725F61 
 10040      6363656C 
 10040      65726174 
 10040      696F6E5F 
 10041              	.LASF472:
ARM GAS  /tmp/ccQpHQw3.s 			page 194


 10042 119e 61707065 		.ascii	"appearance_char_handle\000"
 10042      6172616E 
 10042      63655F63 
 10042      6861725F 
 10042      68616E64 
 10043              	.LASF83:
 10044 11b5 43435236 		.ascii	"CCR6\000"
 10044      00
 10045              	.LASF544:
 10046 11ba 6661696C 		.ascii	"fail\000"
 10046      00
 10047              	.LASF513:
 10048 11bf 48574164 		.ascii	"HWAdvanceFeaturesStatus\000"
 10048      76616E63 
 10048      65466561 
 10048      74757265 
 10048      73537461 
 10049              	.LASF177:
 10050 11d7 58666572 		.ascii	"XferErrorCallback\000"
 10050      4572726F 
 10050      7243616C 
 10050      6C626163 
 10050      6B00
 10051              	.LASF44:
 10052 11e9 41484233 		.ascii	"AHB3RSTR\000"
 10052      52535452 
 10052      00
 10053              	.LASF324:
 10054 11f2 74687265 		.ascii	"thread_t\000"
 10054      61645F74 
 10054      00
 10055              	.LASF20:
 10056 11fb 6C6F6E67 		.ascii	"long double\000"
 10056      20646F75 
 10056      626C6500 
 10057              	.LASF345:
 10058 1207 74687265 		.ascii	"thread_reference_t\000"
 10058      61645F72 
 10058      65666572 
 10058      656E6365 
 10058      5F7400
 10059              	.LASF517:
 10060 121a 43617272 		.ascii	"CarryPositionCode\000"
 10060      79506F73 
 10060      6974696F 
 10060      6E436F64 
 10060      6500
 10061              	.LASF299:
 10062 122c 48616E64 		.ascii	"HandleHumSensor\000"
 10062      6C654875 
 10062      6D53656E 
 10062      736F7200 
 10063              	.LASF164:
 10064 123c 444D415F 		.ascii	"DMA_InitTypeDef\000"
 10064      496E6974 
 10064      54797065 
 10064      44656600 
ARM GAS  /tmp/ccQpHQw3.s 			page 195


 10065              	.LASF130:
 10066 124c 504C4C53 		.ascii	"PLLSAI2ClockOut\000"
 10066      41493243 
 10066      6C6F636B 
 10066      4F757400 
 10067              	.LASF381:
 10068 125c 706F7274 		.ascii	"port_intctx\000"
 10068      5F696E74 
 10068      63747800 
 10069              	.LASF531:
 10070 1268 54696D45 		.ascii	"TimEnvHandle\000"
 10070      6E764861 
 10070      6E646C65 
 10070      00
 10071              	.LASF162:
 10072 1275 4D6F6465 		.ascii	"Mode\000"
 10072      00
 10073              	.LASF425:
 10074 127a 42757474 		.ascii	"ButtonCallback\000"
 10074      6F6E4361 
 10074      6C6C6261 
 10074      636B00
 10075              	.LASF175:
 10076 1289 58666572 		.ascii	"XferCpltCallback\000"
 10076      43706C74 
 10076      43616C6C 
 10076      6261636B 
 10076      00
 10077              	.LASF363:
 10078 129a 76745F64 		.ascii	"vt_delta\000"
 10078      656C7461 
 10078      00
 10079              	.LASF87:
 10080 12a3 48414C5F 		.ascii	"HAL_BUSY\000"
 10080      42555359 
 10080      00
 10081              	.LASF210:
 10082 12ac 48414C5F 		.ascii	"HAL_TIM_ActiveChannel\000"
 10082      54494D5F 
 10082      41637469 
 10082      76654368 
 10082      616E6E65 
 10083              	.LASF412:
 10084 12c2 41636345 		.ascii	"AccEventType\000"
 10084      76656E74 
 10084      54797065 
 10084      00
 10085              	.LASF30:
 10086 12cf 444D415F 		.ascii	"DMA_Channel_TypeDef\000"
 10086      4368616E 
 10086      6E656C5F 
 10086      54797065 
 10086      44656600 
 10087              	.LASF360:
 10088 12e3 63685F76 		.ascii	"ch_virtual_timer\000"
 10088      69727475 
 10088      616C5F74 
ARM GAS  /tmp/ccQpHQw3.s 			page 196


 10088      696D6572 
 10088      00
 10089              	.LASF427:
 10090 12f4 4D454D53 		.ascii	"MEMSCallback\000"
 10090      43616C6C 
 10090      6261636B 
 10090      00
 10091              	.LASF393:
 10092 1301 735F636E 		.ascii	"s_cnt\000"
 10092      7400
 10093              	.LASF278:
 10094 1307 4F53585F 		.ascii	"OSX_MCP_ONDESK\000"
 10094      4D43505F 
 10094      4F4E4445 
 10094      534B00
 10095              	.LASF307:
 10096 1316 48616E64 		.ascii	"HandleGGComponent\000"
 10096      6C654747 
 10096      436F6D70 
 10096      6F6E656E 
 10096      7400
 10097              	.LASF434:
 10098 1328 4D41475F 		.ascii	"MAG_Value\000"
 10098      56616C75 
 10098      6500
 10099              	.LASF532:
 10100 1332 54696D41 		.ascii	"TimAudioDataHandle\000"
 10100      7564696F 
 10100      44617461 
 10100      48616E64 
 10100      6C6500
 10101              	.LASF15:
 10102 1345 6C6F6E67 		.ascii	"long long unsigned int\000"
 10102      206C6F6E 
 10102      6720756E 
 10102      7369676E 
 10102      65642069 
 10103              	.LASF226:
 10104 135c 4F53585F 		.ascii	"OSX_END\000"
 10104      454E4400 
 10105              	.LASF215:
 10106 1364 434F4D50 		.ascii	"COMPONENT_ERROR\000"
 10106      4F4E454E 
 10106      545F4552 
 10106      524F5200 
 10107              	.LASF325:
 10108 1374 5F5F444D 		.ascii	"__DMA_HandleTypeDef\000"
 10108      415F4861 
 10108      6E646C65 
 10108      54797065 
 10108      44656600 
 10109              	.LASF484:
 10110 1388 48414C5F 		.ascii	"HAL_GPIO_EXTI_Callback\000"
 10110      4750494F 
 10110      5F455854 
 10110      495F4361 
 10110      6C6C6261 
ARM GAS  /tmp/ccQpHQw3.s 			page 197


 10111              	.LASF332:
 10112 139f 705F6F6C 		.ascii	"p_older\000"
 10112      64657200 
 10113              	.LASF147:
 10114 13a7 53616932 		.ascii	"Sai2ClockSelection\000"
 10114      436C6F63 
 10114      6B53656C 
 10114      65637469 
 10114      6F6E00
 10115              	.LASF462:
 10116 13ba 54656D70 		.ascii	"Temp1ToSend\000"
 10116      31546F53 
 10116      656E6400 
 10117              	.LASF142:
 10118 13c6 49326332 		.ascii	"I2c2ClockSelection\000"
 10118      436C6F63 
 10118      6B53656C 
 10118      65637469 
 10118      6F6E00
 10119              	.LASF320:
 10120 13d9 6D73675F 		.ascii	"msg_t\000"
 10120      7400
 10121              	.LASF518:
 10122 13df 47657374 		.ascii	"GestureRecognitionCode\000"
 10122      75726552 
 10122      65636F67 
 10122      6E697469 
 10122      6F6E436F 
 10123              	.LASF349:
 10124 13f6 63685F74 		.ascii	"ch_threads_queue\000"
 10124      68726561 
 10124      64735F71 
 10124      75657565 
 10124      00
 10125              	.LASF243:
 10126 1407 4C696354 		.ascii	"LicType\000"
 10126      79706500 
 10127              	.LASF86:
 10128 140f 48414C5F 		.ascii	"HAL_ERROR\000"
 10128      4552524F 
 10128      5200
 10129              	.LASF184:
 10130 1419 436F756E 		.ascii	"CounterMode\000"
 10130      7465724D 
 10130      6F646500 
 10131              	.LASF173:
 10132 1425 53746174 		.ascii	"State\000"
 10132      6500
 10133              	.LASF493:
 10134 142b 4D454D53 		.ascii	"MEMSInterrupt\000"
 10134      496E7465 
 10134      72727570 
 10134      7400
 10135              	.LASF313:
 10136 1439 54617267 		.ascii	"TargetFeatures_t\000"
 10136      65744665 
 10136      61747572 
ARM GAS  /tmp/ccQpHQw3.s 			page 198


 10136      65735F74 
 10136      00
 10137              	.LASF99:
 10138 144a 5243435F 		.ascii	"RCC_PLLInitTypeDef\000"
 10138      504C4C49 
 10138      6E697454 
 10138      79706544 
 10138      656600
 10139              	.LASF200:
 10140 145d 48414C5F 		.ascii	"HAL_TIM_STATE_TIMEOUT\000"
 10140      54494D5F 
 10140      53544154 
 10140      455F5449 
 10140      4D454F55 
 10141              	.LASF522:
 10142 1473 6F73785F 		.ascii	"osx_mgr_license\000"
 10142      6D67725F 
 10142      6C696365 
 10142      6E736500 
 10143              	.LASF89:
 10144 1483 48414C5F 		.ascii	"HAL_UNLOCKED\000"
 10144      554E4C4F 
 10144      434B4544 
 10144      00
 10145              	.LASF182:
 10146 1490 444D415F 		.ascii	"DMA_HandleTypeDef\000"
 10146      48616E64 
 10146      6C655479 
 10146      70654465 
 10146      6600
 10147              	.LASF357:
 10148 14a2 725F6375 		.ascii	"r_current\000"
 10148      7272656E 
 10148      7400
 10149              	.LASF431:
 10150 14ac 53656E64 		.ascii	"SendMotionData\000"
 10150      4D6F7469 
 10150      6F6E4461 
 10150      746100
 10151              	.LASF256:
 10152 14bb 71756174 		.ascii	"quaternion_6X\000"
 10152      65726E69 
 10152      6F6E5F36 
 10152      5800
 10153              	.LASF157:
 10154 14c9 44697265 		.ascii	"Direction\000"
 10154      6374696F 
 10154      6E00
 10155              	.LASF253:
 10156 14d3 6C696E65 		.ascii	"linear_acceleration_9X\000"
 10156      61725F61 
 10156      6363656C 
 10156      65726174 
 10156      696F6E5F 
 10157              	.LASF132:
 10158 14ea 50657269 		.ascii	"PeriphClockSelection\000"
 10158      7068436C 
ARM GAS  /tmp/ccQpHQw3.s 			page 199


 10158      6F636B53 
 10158      656C6563 
 10158      74696F6E 
 10159              	.LASF422:
 10160 14ff 486F774D 		.ascii	"HowManyButtonPress\000"
 10160      616E7942 
 10160      7574746F 
 10160      6E507265 
 10160      737300
 10161              	.LASF231:
 10162 1512 4F53585F 		.ascii	"OSX_MOTION_PM\000"
 10162      4D4F5449 
 10162      4F4E5F50 
 10162      4D00
 10163              	.LASF152:
 10164 1520 5377706D 		.ascii	"Swpmi1ClockSelection\000"
 10164      6931436C 
 10164      6F636B53 
 10164      656C6563 
 10164      74696F6E 
 10165              	.LASF242:
 10166 1535 4C69634E 		.ascii	"LicName\000"
 10166      616D6500 
 10167              	.LASF376:
 10168 153d 6D61696E 		.ascii	"mainthread\000"
 10168      74687265 
 10168      616400
 10169              	.LASF70:
 10170 1548 534D4352 		.ascii	"SMCR\000"
 10170      00
 10171              	.LASF525:
 10172 154d 73656E73 		.ascii	"sensitivity_Mul\000"
 10172      69746976 
 10172      6974795F 
 10172      4D756C00 
 10173              	.LASF5:
 10174 155d 5F5F696E 		.ascii	"__int16_t\000"
 10174      7431365F 
 10174      7400
 10175              	.LASF424:
 10176 1567 7469636B 		.ascii	"tickstop\000"
 10176      73746F70 
 10176      00
 10177              	.LASF352:
 10178 1570 725F7175 		.ascii	"r_queue\000"
 10178      65756500 
 10179              	.LASF542:
 10180 1578 5F5F5746 		.ascii	"__WFI\000"
 10180      4900
 10181              	.LASF247:
 10182 157e 6F73784C 		.ascii	"osxLicense\000"
 10182      6963656E 
 10182      736500
 10183              	.LASF420:
 10184 1589 48414C5F 		.ascii	"HAL_TIM_PeriodElapsedCallback\000"
 10184      54494D5F 
 10184      50657269 
ARM GAS  /tmp/ccQpHQw3.s 			page 200


 10184      6F64456C 
 10184      61707365 
 10185              	.LASF449:
 10186 15a7 47657374 		.ascii	"GestureRecognitionCodeStored\000"
 10186      75726552 
 10186      65636F67 
 10186      6E697469 
 10186      6F6E436F 
 10187              	.LASF303:
 10188 15c4 48616E64 		.ascii	"HandleMagSensor\000"
 10188      6C654D61 
 10188      6753656E 
 10188      736F7200 
 10189              	.LASF296:
 10190 15d4 4E756D54 		.ascii	"NumTempSensors\000"
 10190      656D7053 
 10190      656E736F 
 10190      727300
 10191              	.LASF409:
 10192 15e3 4143435F 		.ascii	"ACC_SINGLE_TAP\000"
 10192      53494E47 
 10192      4C455F54 
 10192      415000
 10193              	.LASF539:
 10194 15f2 474E5520 		.ascii	"GNU C 4.8.4 20140526 (release) [ARM/embedded-4_8-br"
 10194      4320342E 
 10194      382E3420 
 10194      32303134 
 10194      30353236 
 10195 1625 616E6368 		.ascii	"anch revision 211358] -mcpu=cortex-m4 -mno-thumb-in"
 10195      20726576 
 10195      6973696F 
 10195      6E203231 
 10195      31333538 
 10196 1658 74657277 		.ascii	"terwork -mthumb -ggdb -O0 -std=c99 -fomit-frame-poi"
 10196      6F726B20 
 10196      2D6D7468 
 10196      756D6220 
 10196      2D676764 
 10197 168b 6E746572 		.ascii	"nter -falign-functions=16\000"
 10197      202D6661 
 10197      6C69676E 
 10197      2D66756E 
 10197      6374696F 
 10198              	.LASF281:
 10199 16a5 4F53585F 		.ascii	"OSX_MCP_SHIRTPOCKET\000"
 10199      4D43505F 
 10199      53484952 
 10199      54504F43 
 10199      4B455400 
 10200              	.LASF104:
 10201 16b9 48534943 		.ascii	"HSICalibrationValue\000"
 10201      616C6962 
 10201      72617469 
 10201      6F6E5661 
 10201      6C756500 
 10202              	.LASF480:
ARM GAS  /tmp/ccQpHQw3.s 			page 201


 10203 16cd 746D7072 		.ascii	"tmpreg\000"
 10203      656700
 10204              	.LASF118:
 10205 16d4 504C4C53 		.ascii	"PLLSAI1M\000"
 10205      4149314D 
 10205      00
 10206              	.LASF119:
 10207 16dd 504C4C53 		.ascii	"PLLSAI1N\000"
 10207      4149314E 
 10207      00
 10208              	.LASF120:
 10209 16e6 504C4C53 		.ascii	"PLLSAI1P\000"
 10209      41493150 
 10209      00
 10210              	.LASF121:
 10211 16ef 504C4C53 		.ascii	"PLLSAI1Q\000"
 10211      41493151 
 10211      00
 10212              	.LASF122:
 10213 16f8 504C4C53 		.ascii	"PLLSAI1R\000"
 10213      41493152 
 10213      00
 10214              	.LASF374:
 10215 1701 726C6973 		.ascii	"rlist\000"
 10215      7400
 10216              	.LASF60:
 10217 1707 41484233 		.ascii	"AHB3SMENR\000"
 10217      534D454E 
 10217      5200
 10218              	.LASF489:
 10219 1711 52657365 		.ascii	"ResetCalibrationInMemory\000"
 10219      7443616C 
 10219      69627261 
 10219      74696F6E 
 10219      496E4D65 
 10220              	.LASF167:
 10221 172a 48414C5F 		.ascii	"HAL_DMA_STATE_BUSY\000"
 10221      444D415F 
 10221      53544154 
 10221      455F4255 
 10221      535900
 10222              	.LASF198:
 10223 173d 48414C5F 		.ascii	"HAL_TIM_STATE_READY\000"
 10223      54494D5F 
 10223      53544154 
 10223      455F5245 
 10223      41445900 
 10224              	.LASF187:
 10225 1751 52657065 		.ascii	"RepetitionCounter\000"
 10225      74697469 
 10225      6F6E436F 
 10225      756E7465 
 10225      7200
 10226              	.LASF50:
 10227 1763 41484231 		.ascii	"AHB1ENR\000"
 10227      454E5200 
 10228              	.LASF475:
ARM GAS  /tmp/ccQpHQw3.s 			page 202


 10229 176b 496E6974 		.ascii	"Init_BlueNRG_Custom_Services\000"
 10229      5F426C75 
 10229      654E5247 
 10229      5F437573 
 10229      746F6D5F 
 10230              	.LASF273:
 10231 1788 4F53585F 		.ascii	"OSX_MAR_JOGGING\000"
 10231      4D41525F 
 10231      4A4F4747 
 10231      494E4700 
 10232              	.LASF300:
 10233 1798 48574164 		.ascii	"HWAdvanceFeatures\000"
 10233      76616E63 
 10233      65466561 
 10233      74757265 
 10233      7300
 10234              	.LASF439:
 10235 17aa 436F756E 		.ascii	"CounterEC\000"
 10235      74657245 
 10235      4300
 10236              	.LASF485:
 10237 17b4 4750494F 		.ascii	"GPIO_Pin\000"
 10237      5F50696E 
 10237      00
 10238              	.LASF368:
 10239 17bd 76745F73 		.ascii	"vt_systime\000"
 10239      79737469 
 10239      6D6500
 10240              	.LASF52:
 10241 17c8 41484233 		.ascii	"AHB3ENR\000"
 10241      454E5200 
 10242              	.LASF156:
 10243 17d0 52657175 		.ascii	"Request\000"
 10243      65737400 
 10244              	.LASF263:
 10245 17d8 6D61674F 		.ascii	"magOffZ\000"
 10245      66665A00 
 10246              	.LASF356:
 10247 17e0 725F6F6C 		.ascii	"r_older\000"
 10247      64657200 
 10248              	.LASF383:
 10249 17e8 746D5F63 		.ascii	"tm_calibration_t\000"
 10249      616C6962 
 10249      72617469 
 10249      6F6E5F74 
 10249      00
 10250              	.LASF445:
 10251 17f9 41637469 		.ascii	"ActivityCodeStored\000"
 10251      76697479 
 10251      436F6465 
 10251      53746F72 
 10251      656400
 10252              	.LASF43:
 10253 180c 41484232 		.ascii	"AHB2RSTR\000"
 10253      52535452 
 10253      00
 10254              	.LASF469:
ARM GAS  /tmp/ccQpHQw3.s 			page 203


 10255 1815 426F6172 		.ascii	"BoardName\000"
 10255      644E616D 
 10255      6500
 10256              	.LASF311:
 10257 181f 6F73784D 		.ascii	"osxMotionGRIsInitalized\000"
 10257      6F74696F 
 10257      6E475249 
 10257      73496E69 
 10257      74616C69 
 10258              	.LASF444:
 10259 1837 436F6D70 		.ascii	"ComputeMotionAR\000"
 10259      7574654D 
 10259      6F74696F 
 10259      6E415200 
 10260              	.LASF126:
 10261 1847 504C4C53 		.ascii	"PLLSAI2M\000"
 10261      4149324D 
 10261      00
 10262              	.LASF127:
 10263 1850 504C4C53 		.ascii	"PLLSAI2N\000"
 10263      4149324E 
 10263      00
 10264              	.LASF185:
 10265 1859 50657269 		.ascii	"Period\000"
 10265      6F6400
 10266              	.LASF392:
 10267 1860 735F7175 		.ascii	"s_queue\000"
 10267      65756500 
 10268              	.LASF129:
 10269 1868 504C4C53 		.ascii	"PLLSAI2R\000"
 10269      41493252 
 10269      00
 10270              	.LASF509:
 10271 1871 53656E64 		.ascii	"SendBlueVoice\000"
 10271      426C7565 
 10271      566F6963 
 10271      6500
 10272              	.LASF478:
 10273 187f 5243435F 		.ascii	"RCC_OscInitStruct\000"
 10273      4F736349 
 10273      6E697453 
 10273      74727563 
 10273      7400
 10274              	.LASF141:
 10275 1891 49326331 		.ascii	"I2c1ClockSelection\000"
 10275      436C6F63 
 10275      6B53656C 
 10275      65637469 
 10275      6F6E00
 10276              	.LASF269:
 10277 18a4 4F53585F 		.ascii	"OSX_MAR_NOACTIVITY\000"
 10277      4D41525F 
 10277      4E4F4143 
 10277      54495649 
 10277      545900
 10278              	.LASF302:
 10279 18b7 48616E64 		.ascii	"HandleGyroSensor\000"
ARM GAS  /tmp/ccQpHQw3.s 			page 204


 10279      6C654779 
 10279      726F5365 
 10279      6E736F72 
 10279      00
 10280              	.LASF69:
 10281 18c8 5243435F 		.ascii	"RCC_TypeDef\000"
 10281      54797065 
 10281      44656600 
 10282              	.LASF6:
 10283 18d4 73686F72 		.ascii	"short int\000"
 10283      7420696E 
 10283      7400
 10284              	.LASF26:
 10285 18de 75696E74 		.ascii	"uint64_t\000"
 10285      36345F74 
 10285      00
 10286              	.LASF251:
 10287 18e7 71756174 		.ascii	"quaternion_9X\000"
 10287      65726E69 
 10287      6F6E5F39 
 10287      5800
 10288              	.LASF448:
 10289 18f5 436F6D70 		.ascii	"ComputeMotionGR\000"
 10289      7574654D 
 10289      6F74696F 
 10289      6E475200 
 10290              	.LASF492:
 10291 1905 42757474 		.ascii	"ButtonPressed\000"
 10291      6F6E5072 
 10291      65737365 
 10291      6400
 10292              	.LASF394:
 10293 1913 63685F6D 		.ascii	"ch_mutex\000"
 10293      75746578 
 10293      00
 10294              	.LASF22:
 10295 191c 696E7431 		.ascii	"int16_t\000"
 10295      365F7400 
 10296              	.LASF438:
 10297 1924 436F756E 		.ascii	"CounterFX\000"
 10297      74657246 
 10297      5800
 10298              	.LASF495:
 10299 192e 53656E64 		.ascii	"SendEnv\000"
 10299      456E7600 
 10300              	.LASF353:
 10301 1936 725F7072 		.ascii	"r_prio\000"
 10301      696F00
 10302              	.LASF373:
 10303 193d 63685F73 		.ascii	"ch_system\000"
 10303      79737465 
 10303      6D00
 10304              	.LASF284:
 10305 1947 6F73785F 		.ascii	"osx_MCP_output_t\000"
 10305      4D43505F 
 10305      6F757470 
 10305      75745F74 
ARM GAS  /tmp/ccQpHQw3.s 			page 205


 10305      00
 10306              	.LASF106:
 10307 1958 4D534953 		.ascii	"MSIState\000"
 10307      74617465 
 10307      00
 10308              	.LASF40:
 10309 1961 43494352 		.ascii	"CICR\000"
 10309      00
 10310              	.LASF62:
 10311 1966 41504231 		.ascii	"APB1SMENR1\000"
 10311      534D454E 
 10311      523100
 10312              	.LASF63:
 10313 1971 41504231 		.ascii	"APB1SMENR2\000"
 10313      534D454E 
 10313      523200
 10314              	.LASF512:
 10315 197c 42797465 		.ascii	"BytesToWrite\000"
 10315      73546F57 
 10315      72697465 
 10315      00
 10316              	.LASF151:
 10317 1989 41646343 		.ascii	"AdcClockSelection\000"
 10317      6C6F636B 
 10317      53656C65 
 10317      6374696F 
 10317      6E00
 10318              	.LASF446:
 10319 199b 436F6D70 		.ascii	"ComputeMotionCP\000"
 10319      7574654D 
 10319      6F74696F 
 10319      6E435000 
 10320              	.LASF190:
 10321 19ab 50756C73 		.ascii	"Pulse\000"
 10321      6500
 10322              	.LASF504:
 10323 19b1 49544D5F 		.ascii	"ITM_RxBuffer\000"
 10323      52784275 
 10323      66666572 
 10323      00
 10324              	.LASF375:
 10325 19be 76746C69 		.ascii	"vtlist\000"
 10325      737400
 10326              	.LASF236:
 10327 19c5 4F53585F 		.ascii	"OSX_LICENSE_NUM\000"
 10327      4C494345 
 10327      4E53455F 
 10327      4E554D00 
 10328              	.LASF454:
 10329 19d5 4253505F 		.ascii	"BSP_AUDIO_IN_HalfTransfer_CallBack\000"
 10329      41554449 
 10329      4F5F494E 
 10329      5F48616C 
 10329      66547261 
 10330              	.LASF257:
 10331 19f8 67726176 		.ascii	"gravity_6X\000"
 10331      6974795F 
ARM GAS  /tmp/ccQpHQw3.s 			page 206


 10331      365800
 10332              	.LASF463:
 10333 1a03 64656350 		.ascii	"decPart\000"
 10333      61727400 
 10334              	.LASF213:
 10335 1a0b 54494D5F 		.ascii	"TIM_HandleTypeDef\000"
 10335      48616E64 
 10335      6C655479 
 10335      70654465 
 10335      6600
 10336              	.LASF176:
 10337 1a1d 58666572 		.ascii	"XferHalfCpltCallback\000"
 10337      48616C66 
 10337      43706C74 
 10337      43616C6C 
 10337      6261636B 
 10338              	.LASF443:
 10339 1a32 51756174 		.ascii	"QuaternionNumber\000"
 10339      65726E69 
 10339      6F6E4E75 
 10339      6D626572 
 10339      00
 10340              	.LASF398:
 10341 1a43 6D757465 		.ascii	"mutex_t\000"
 10341      785F7400 
 10342              	.LASF317:
 10343 1a4b 74726566 		.ascii	"trefs_t\000"
 10343      735F7400 
 10344              	.LASF346:
 10345 1a53 74687265 		.ascii	"threads_list_t\000"
 10345      6164735F 
 10345      6C697374 
 10345      5F7400
 10346              	.LASF261:
 10347 1a62 6D61674F 		.ascii	"magOffX\000"
 10347      66665800 
 10348              	.LASF262:
 10349 1a6a 6D61674F 		.ascii	"magOffY\000"
 10349      66665900 
 10350              	.LASF297:
 10351 1a72 48616E64 		.ascii	"HandleTempSensors\000"
 10351      6C655465 
 10351      6D705365 
 10351      6E736F72 
 10351      7300
 10352              	.LASF74:
 10353 1a84 43434552 		.ascii	"CCER\000"
 10353      00
 10354              	.LASF79:
 10355 1a89 42445452 		.ascii	"BDTR\000"
 10355      00
 10356              	.LASF538:
 10357 1a8e 745F636F 		.ascii	"t_coin\000"
 10357      696E00
 10358              	.LASF271:
 10359 1a95 4F53585F 		.ascii	"OSX_MAR_WALKING\000"
 10359      4D41525F 
ARM GAS  /tmp/ccQpHQw3.s 			page 207


 10359      57414C4B 
 10359      494E4700 
 10360              	.LASF423:
 10361 1aa5 7469636B 		.ascii	"tickstart\000"
 10361      73746172 
 10361      7400
 10362              	.LASF25:
 10363 1aaf 75696E74 		.ascii	"uint32_t\000"
 10363      33325F74 
 10363      00
 10364              	.LASF286:
 10365 1ab8 4F53585F 		.ascii	"OSX_MGR_PICKUP\000"
 10365      4D47525F 
 10365      5049434B 
 10365      555000
 10366              	.LASF144:
 10367 1ac7 4C707469 		.ascii	"Lptim1ClockSelection\000"
 10367      6D31436C 
 10367      6F636B53 
 10367      656C6563 
 10367      74696F6E 
 10368              	.LASF233:
 10369 1adc 4F53585F 		.ascii	"OSX_ACOUSTIC_BF\000"
 10369      41434F55 
 10369      53544943 
 10369      5F424600 
 10370              	.LASF58:
 10371 1aec 41484231 		.ascii	"AHB1SMENR\000"
 10371      534D454E 
 10371      5200
 10372              	.LASF498:
 10373 1af6 51756174 		.ascii	"Quaternion\000"
 10373      65726E69 
 10373      6F6E00
 10374              	.LASF38:
 10375 1b01 43494552 		.ascii	"CIER\000"
 10375      00
 10376              	.LASF298:
 10377 1b06 48616E64 		.ascii	"HandlePressSensor\000"
 10377      6C655072 
 10377      65737353 
 10377      656E736F 
 10377      7200
 10378              	.LASF275:
 10379 1b18 4F53585F 		.ascii	"OSX_MAR_DRIVING\000"
 10379      4D41525F 
 10379      44524956 
 10379      494E4700 
 10380              	.LASF287:
 10381 1b28 4F53585F 		.ascii	"OSX_MGR_GLANCE\000"
 10381      4D47525F 
 10381      474C414E 
 10381      434500
 10382              	.LASF90:
 10383 1b37 48414C5F 		.ascii	"HAL_LOCKED\000"
 10383      4C4F434B 
 10383      454400
ARM GAS  /tmp/ccQpHQw3.s 			page 208


 10384              	.LASF384:
 10385 1b42 7264796D 		.ascii	"rdymsg\000"
 10385      736700
 10386              	.LASF88:
 10387 1b49 48414C5F 		.ascii	"HAL_TIMEOUT\000"
 10387      54494D45 
 10387      4F555400 
 10388              	.LASF36:
 10389 1b55 504C4C53 		.ascii	"PLLSAI1CFGR\000"
 10389      41493143 
 10389      46475200 
 10390              	.LASF8:
 10391 1b61 73686F72 		.ascii	"short unsigned int\000"
 10391      7420756E 
 10391      7369676E 
 10391      65642069 
 10391      6E7400
 10392              	.LASF114:
 10393 1b74 41504231 		.ascii	"APB1CLKDivider\000"
 10393      434C4B44 
 10393      69766964 
 10393      657200
 10394              	.LASF288:
 10395 1b83 4F53585F 		.ascii	"OSX_MGR_WAKEUP\000"
 10395      4D47525F 
 10395      57414B45 
 10395      555000
 10396              	.LASF372:
 10397 1b92 63685F73 		.ascii	"ch_system_t\000"
 10397      79737465 
 10397      6D5F7400 
 10398              	.LASF543:
 10399 1b9e 62746C65 		.ascii	"btle_main\000"
 10399      5F6D6169 
 10399      6E00
 10400              	.LASF166:
 10401 1ba8 48414C5F 		.ascii	"HAL_DMA_STATE_READY\000"
 10401      444D415F 
 10401      53544154 
 10401      455F5245 
 10401      41445900 
 10402              	.LASF128:
 10403 1bbc 504C4C53 		.ascii	"PLLSAI2P\000"
 10403      41493250 
 10403      00
 10404              	.LASF64:
 10405 1bc5 41504232 		.ascii	"APB2SMENR\000"
 10405      534D454E 
 10405      5200
 10406              	.LASF100:
 10407 1bcf 4F736369 		.ascii	"OscillatorType\000"
 10407      6C6C6174 
 10407      6F725479 
 10407      706500
 10408              	.LASF292:
 10409 1bde 54415247 		.ascii	"TARGET_SENSORTILE\000"
 10409      45545F53 
ARM GAS  /tmp/ccQpHQw3.s 			page 209


 10409      454E534F 
 10409      5254494C 
 10409      4500
 10410              	.LASF39:
 10411 1bf0 43494652 		.ascii	"CIFR\000"
 10411      00
 10412              	.LASF9:
 10413 1bf5 5F5F696E 		.ascii	"__int32_t\000"
 10413      7433325F 
 10413      7400
 10414              	.LASF535:
 10415 1bff 524D535F 		.ascii	"RMS_Ch\000"
 10415      436800
 10416              	.LASF56:
 10417 1c06 41504232 		.ascii	"APB2ENR\000"
 10417      454E5200 
 10418              	.LASF136:
 10419 1c0e 55736172 		.ascii	"Usart2ClockSelection\000"
 10419      7432436C 
 10419      6F636B53 
 10419      656C6563 
 10419      74696F6E 
 10420              	.LASF245:
 10421 1c23 4D444D5F 		.ascii	"MDM_TableLicElement_t\000"
 10421      5461626C 
 10421      654C6963 
 10421      456C656D 
 10421      656E745F 
 10422              	.LASF225:
 10423 1c39 4D444D5F 		.ascii	"MDM_DATA_TYPE_END\000"
 10423      44415441 
 10423      5F545950 
 10423      455F454E 
 10423      4400
 10424              	.LASF487:
 10425 1c4b 74656D70 		.ascii	"temp\000"
 10425      00
 10426              	.LASF351:
 10427 1c50 63685F72 		.ascii	"ch_ready_list\000"
 10427      65616479 
 10427      5F6C6973 
 10427      7400
 10428              	.LASF255:
 10429 1c5e 726F7461 		.ascii	"rotation_6X\000"
 10429      74696F6E 
 10429      5F365800 
 10430              	.LASF169:
 10431 1c6a 48414C5F 		.ascii	"HAL_DMA_StateTypeDef\000"
 10431      444D415F 
 10431      53746174 
 10431      65547970 
 10431      65446566 
 10432              	.LASF252:
 10433 1c7f 67726176 		.ascii	"gravity_9X\000"
 10433      6974795F 
 10433      395800
 10434              	.LASF529:
ARM GAS  /tmp/ccQpHQw3.s 			page 210


 10435 1c8a 46697273 		.ascii	"FirstConnectionConfig\000"
 10435      74436F6E 
 10435      6E656374 
 10435      696F6E43 
 10435      6F6E6669 
 10436              	.LASF239:
 10437 1ca0 6F737854 		.ascii	"osxType\000"
 10437      79706500 
 10438              	.LASF471:
 10439 1ca8 6465765F 		.ascii	"dev_name_char_handle\000"
 10439      6E616D65 
 10439      5F636861 
 10439      725F6861 
 10439      6E646C65 
 10440              	.LASF333:
 10441 1cbd 705F6E61 		.ascii	"p_name\000"
 10441      6D6500
 10442              	.LASF397:
 10443 1cc4 6D5F6E65 		.ascii	"m_next\000"
 10443      787400
 10444              	.LASF515:
 10445 1ccb 636F6E6E 		.ascii	"connected\000"
 10445      65637465 
 10445      6400
 10446              	.LASF473:
 10447 1cd5 68775665 		.ascii	"hwVersion\000"
 10447      7273696F 
 10447      6E00
 10448              	.LASF191:
 10449 1cdf 4F43506F 		.ascii	"OCPolarity\000"
 10449      6C617269 
 10449      747900
 10450              	.LASF280:
 10451 1cea 4F53585F 		.ascii	"OSX_MCP_NEARHEAD\000"
 10451      4D43505F 
 10451      4E454152 
 10451      48454144 
 10451      00
 10452              	.LASF340:
 10453 1cfb 705F6D73 		.ascii	"p_msg\000"
 10453      6700
 10454              	.LASF186:
 10455 1d01 436C6F63 		.ascii	"ClockDivision\000"
 10455      6B446976 
 10455      6973696F 
 10455      6E00
 10456              	.LASF528:
 10457 1d0f 466F7263 		.ascii	"ForceReCalibration\000"
 10457      65526543 
 10457      616C6962 
 10457      72617469 
 10457      6F6E00
 10458              	.LASF536:
 10459 1d22 44424E4F 		.ascii	"DBNOISE_Value_Old_Ch\000"
 10459      4953455F 
 10459      56616C75 
 10459      655F4F6C 
ARM GAS  /tmp/ccQpHQw3.s 			page 211


 10459      645F4368 
 10460              	.LASF334:
 10461 1d37 705F7374 		.ascii	"p_state\000"
 10461      61746500 
 10462              		.ident	"GCC: (GNU Tools for ARM Embedded Processors) 4.8.4 20140526 (release) [ARM/embedded-4_8-br
ARM GAS  /tmp/ccQpHQw3.s 			page 212


DEFINED SYMBOLS
                            *ABS*:00000000 btle.c
                            *COM*:00000004 sensitivity
                            *COM*:00000004 sensitivity_Mul
                            *COM*:00000018 magOffset
     /tmp/ccQpHQw3.s:26     .bss:00000000 ConnectionBleStatus
     /tmp/ccQpHQw3.s:23     .bss:00000000 $d
     /tmp/ccQpHQw3.s:32     .bss:00000004 ForceReCalibration
     /tmp/ccQpHQw3.s:38     .bss:00000008 FirstConnectionConfig
                            *COM*:00000100 BufferToWrite
                            *COM*:00000004 BytesToWrite
                            *COM*:0000003c TimCCHandle
                            *COM*:0000003c TimEnvHandle
                            *COM*:0000003c TimAudioDataHandle
                            *COM*:00000006 bdaddr
     /tmp/ccQpHQw3.s:51     .data:00000000 uhCCR4_Val
     /tmp/ccQpHQw3.s:48     .data:00000000 $d
     /tmp/ccQpHQw3.s:57     .data:00000004 known_OsxLic
     /tmp/ccQpHQw3.s:90     .bss:0000000c ButtonPressed
     /tmp/ccQpHQw3.s:93     .bss:00000010 MEMSInterrupt
     /tmp/ccQpHQw3.s:96     .bss:00000014 HCI_ProcessEvent
     /tmp/ccQpHQw3.s:99     .bss:00000018 SendEnv
     /tmp/ccQpHQw3.s:102    .bss:0000001c SendAudioLevel
     /tmp/ccQpHQw3.s:105    .bss:00000020 SendAccGyroMag
     /tmp/ccQpHQw3.s:108    .bss:00000024 Quaternion
     /tmp/ccQpHQw3.s:111    .bss:00000028 UpdateMotionAR
     /tmp/ccQpHQw3.s:114    .bss:0000002c UpdateMotionCP
     /tmp/ccQpHQw3.s:117    .bss:00000030 UpdateMotionGR
     /tmp/ccQpHQw3.s:120    .bss:00000034 num_byte_sent
     /tmp/ccQpHQw3.s:122    .bss:00000036 isCal
     /tmp/ccQpHQw3.s:128    .bss:00000038 t_coin
     /tmp/ccQpHQw3.s:132    .text:00000000 $t
     /tmp/ccQpHQw3.s:138    .text:00000000 btle_main
     /tmp/ccQpHQw3.s:204    .text:00000060 $d
     /tmp/ccQpHQw3.s:212    .text:00000080 $t
     /tmp/ccQpHQw3.s:3495   .text:00001690 Init_BlueNRG_Stack
     /tmp/ccQpHQw3.s:3708   .text:000017f0 Init_BlueNRG_Custom_Services
     /tmp/ccQpHQw3.s:735    .text:000003f0 Set2GAccelerometerFullScale
     /tmp/ccQpHQw3.s:3285   .text:00001540 InitTimers
     /tmp/ccQpHQw3.s:4291   .text:00001b20 ReCallCalibrationFromMemory
     /tmp/ccQpHQw3.s:377    .text:00000190 $d
     /tmp/ccQpHQw3.s:391    .text:000001c0 $t
     /tmp/ccQpHQw3.s:1326   .text:00000790 MEMSCallback
     /tmp/ccQpHQw3.s:1066   .text:00000600 ButtonCallback
     /tmp/ccQpHQw3.s:1210   .text:000006e0 ReCalibration
     /tmp/ccQpHQw3.s:2669   .text:00001060 SendEnvironmentalData
     /tmp/ccQpHQw3.s:2395   .text:00000ec0 SendAudioLevelData
     /tmp/ccQpHQw3.s:1519   .text:000008f0 SendMotionData
     /tmp/ccQpHQw3.s:1585   .text:00000940 ComputeQuaternions
     /tmp/ccQpHQw3.s:2030   .text:00000c80 ComputeMotionAR
     /tmp/ccQpHQw3.s:2120   .text:00000d10 ComputeMotionCP
     /tmp/ccQpHQw3.s:2210   .text:00000da0 ComputeMotionGR
     /tmp/ccQpHQw3.s:710    .text:000003a8 $d
     /tmp/ccQpHQw3.s:729    .text:000003e8 $t
     /tmp/ccQpHQw3.s:772    .text:00000424 $d
     /tmp/ccQpHQw3.s:779    .text:00000434 $t
     /tmp/ccQpHQw3.s:785    .text:00000440 Set4GAccelerometerFullScale
ARM GAS  /tmp/ccQpHQw3.s 			page 213


     /tmp/ccQpHQw3.s:822    .text:00000474 $d
     /tmp/ccQpHQw3.s:829    .text:00000484 $t
     /tmp/ccQpHQw3.s:835    .text:00000490 HAL_TIM_OC_DelayElapsedCallback
     /tmp/ccQpHQw3.s:987    .text:00000584 $d
     /tmp/ccQpHQw3.s:998    .text:000005a4 $t
     /tmp/ccQpHQw3.s:1004   .text:000005b0 HAL_TIM_PeriodElapsedCallback
     /tmp/ccQpHQw3.s:1048   .text:000005e4 $d
     /tmp/ccQpHQw3.s:1057   .rodata:00000000 $d
     /tmp/ccQpHQw3.s:1061   .text:000005f8 $t
     /tmp/ccQpHQw3.s:1188   .text:000006b8 $d
     /tmp/ccQpHQw3.s:4394   .bss:0000003c tickstart.19044
     /tmp/ccQpHQw3.s:4397   .bss:00000040 HowManyButtonPress.19043
     /tmp/ccQpHQw3.s:1205   .text:000006dc $t
     /tmp/ccQpHQw3.s:4197   .text:00001a90 ResetCalibrationInMemory
     /tmp/ccQpHQw3.s:1310   .text:00000770 $d
     /tmp/ccQpHQw3.s:1321   .text:00000790 $t
     /tmp/ccQpHQw3.s:1509   .text:000008e4 $d
     /tmp/ccQpHQw3.s:1514   .text:000008ec $t
     /tmp/ccQpHQw3.s:1566   .text:00000934 $d
     /tmp/ccQpHQw3.s:1580   .text:00000938 $t
     /tmp/ccQpHQw3.s:4039   .text:00001990 SaveCalibrationToMemory
     /tmp/ccQpHQw3.s:1922   .text:00000bb0 $d
     /tmp/ccQpHQw3.s:4400   .bss:00000044 CounterEC.19069
     /tmp/ccQpHQw3.s:4403   .bss:00000048 CounterFX.19068
     /tmp/ccQpHQw3.s:4406   .bss:0000004c calibIndex.19067
     /tmp/ccQpHQw3.s:4409   .bss:00000050 quat_axes.19066
     /tmp/ccQpHQw3.s:1938   .text:00000be8 $t
     /tmp/ccQpHQw3.s:2014   .text:00000c74 $d
     /tmp/ccQpHQw3.s:2025   .text:00000c80 $t
     /tmp/ccQpHQw3.s:2100   .text:00000cf0 $d
     /tmp/ccQpHQw3.s:4411   .bss:00000074 ActivityCodeStored.19081
     /tmp/ccQpHQw3.s:2115   .text:00000d0c $t
     /tmp/ccQpHQw3.s:2190   .text:00000d80 $d
     /tmp/ccQpHQw3.s:4413   .bss:00000075 CarryPositionCodeStored.19086
     /tmp/ccQpHQw3.s:2205   .text:00000d9c $t
     /tmp/ccQpHQw3.s:2280   .text:00000e10 $d
     /tmp/ccQpHQw3.s:4415   .bss:00000076 GestureRecognitionCodeStored.19091
     /tmp/ccQpHQw3.s:2291   .text:00000e2c $t
     /tmp/ccQpHQw3.s:2297   .text:00000e30 AudioProcess
     /tmp/ccQpHQw3.s:2381   .text:00000eb0 $d
     /tmp/ccQpHQw3.s:2390   .text:00000ebc $t
     /tmp/ccQpHQw3.s:2508   .text:00000f98 $d
     /tmp/ccQpHQw3.s:2518   .text:00000fb4 $t
     /tmp/ccQpHQw3.s:2524   .text:00000fc0 BSP_AUDIO_IN_HalfTransfer_CallBack
     /tmp/ccQpHQw3.s:2572   .text:00001004 $d
     /tmp/ccQpHQw3.s:2576   .text:00001008 $t
     /tmp/ccQpHQw3.s:2582   .text:00001010 BSP_AUDIO_IN_TransferComplete_CallBack
     /tmp/ccQpHQw3.s:2630   .text:00001054 $d
     /tmp/ccQpHQw3.s:2664   .text:00001058 $t
     /tmp/ccQpHQw3.s:2765   .text:000010f4 $d
     /tmp/ccQpHQw3.s:2774   .text:00001110 $t
     /tmp/ccQpHQw3.s:3089   .text:0000139c $d
     /tmp/ccQpHQw3.s:3100   .text:000013c4 $t
     /tmp/ccQpHQw3.s:3269   .text:00001518 $d
     /tmp/ccQpHQw3.s:3280   .text:00001538 $t
     /tmp/ccQpHQw3.s:3963   .text:00001940 Error_Handler
     /tmp/ccQpHQw3.s:3466   .text:00001664 $d
ARM GAS  /tmp/ccQpHQw3.s 			page 214


     /tmp/ccQpHQw3.s:3490   .text:00001688 $t
     /tmp/ccQpHQw3.s:3693   .text:000017d4 $d
     /tmp/ccQpHQw3.s:3703   .text:000017f0 $t
     /tmp/ccQpHQw3.s:3735   .text:00001810 SystemClock_Config
     /tmp/ccQpHQw3.s:3901   .text:00001908 $d
     /tmp/ccQpHQw3.s:3905   .text:0000190c $t
     /tmp/ccQpHQw3.s:3911   .text:00001910 HAL_Delay
     /tmp/ccQpHQw3.s:3982   .text:00001950 HAL_GPIO_EXTI_Callback
     /tmp/ccQpHQw3.s:4024   .text:00001980 $d
     /tmp/ccQpHQw3.s:4034   .text:00001988 $t
     /tmp/ccQpHQw3.s:4172   .text:00001a5c $d
     /tmp/ccQpHQw3.s:4192   .text:00001a88 $t
     /tmp/ccQpHQw3.s:4278   .text:00001b04 $d
     /tmp/ccQpHQw3.s:4286   .text:00001b18 $t
     /tmp/ccQpHQw3.s:4386   .text:00001ba4 $d
                     .debug_frame:00000010 $d

UNDEFINED SYMBOLS
__aeabi_fmul
InitTargetPlatform
InitMetaDataManager
memcpy
MotionFX_License_init
MotionAR_License_init
MotionCP_License_init
MotionGR_License_init
AudioBV_License_init
InitHWFeatures
BSP_ACCELERO_Get_Sensitivity
HAL_GetTick
LedOnTargetPlatform
MDM_LicTable
osx_mfx_license
osx_mar_license
osx_mcp_license
osx_mgr_license
osx_bv_license
TargetBoardFeatures
connected
LedOffTargetPlatform
MotionFX_manager_init
MotionFX_manager_start_9X
MotionAR_manager_init
MotionCP_manager_init
MotionGR_manager_init
AudioBV_Manager_init
EraseMetaDataManager
SaveMetaDataManager
setConnectable
HCI_Process
set_connectable
NecessityToSaveMetaDataManager
SendBlueVoice
BSP_ACCELERO_Set_FS_Value
HAL_TIM_ReadCapturedValue
sprintf
Term_Update
ARM GAS  /tmp/ccQpHQw3.s 			page 215


Config_Notify
BSP_ACCELERO_Get_Free_Fall_Detection_Status_Ext
AccEvent_Notify
BSP_ACCELERO_Get_Double_Tap_Detection_Status_Ext
BSP_ACCELERO_Get_Single_Tap_Detection_Status_Ext
BSP_ACCELERO_Get_Wake_Up_Detection_Status_Ext
BSP_ACCELERO_Get_Tilt_Detection_Status_Ext
BSP_ACCELERO_Get_6D_Orientation_Status_Ext
GetHWOrientation6D
BSP_ACCELERO_Get_Pedometer_Status_Ext
GetStepHWPedometer
HWAdvanceFeaturesStatus
BSP_ACCELERO_Get_Axes
BSP_MAGNETO_Get_Axes
BSP_GYRO_Get_Axes
AccGyroMag_Update
__aeabi_i2f
__aeabi_f2iz
__aeabi_f2d
__aeabi_d2uiz
__aeabi_fcmplt
BSP_ACCELERO_Get_AxesRaw
MotionFX_manager_run
MotionFX_manager_getDataOUT
trunc
ECompass_Update
Quat_Update
MotionAR_manager_run
ActivityRec_Update
ActivityCode
MotionCP_manager_run
CarryPosRec_Update
CarryPositionCode
MotionGR_manager_run
GestureRec_Update
GestureRecognitionCode
__aeabi_fadd
RMS_Ch
PCM_Buffer
__aeabi_fdiv
__aeabi_f2uiz
__aeabi_ui2f
log10f
AudioLevel_Update
DBNOISE_Value_Old_Ch
AudioProcess_BV
__aeabi_fsub
GG_Update
BSP_PRESSURE_IsInitialized
BSP_PRESSURE_Get_Press
BSP_HUMIDITY_IsInitialized
BSP_HUMIDITY_Get_Hum
BSP_TEMPERATURE_IsInitialized
BSP_TEMPERATURE_Get_Temp
Environmental_Update
HAL_TIM_Base_Init
HAL_TIM_OC_Init
ARM GAS  /tmp/ccQpHQw3.s 			page 216


HAL_TIM_OC_ConfigChannel
SystemCoreClock
BNRG_SPI_Init
HCI_Init
BlueNRG_RST
getBlueNRGVersion
aci_gatt_init
aci_gap_init_IDB05A1
aci_gap_init_IDB04A1
hci_le_set_random_address
aci_gatt_update_char_value
aci_gap_set_auth_requirement
aci_hal_set_tx_power_level
Add_ConsoleW2ST_Service
memset
HAL_PWR_EnableBkUpAccess
HAL_RCC_OscConfig
HAL_RCCEx_DisableLSECSS
HAL_RCCEx_EnableMSIPLLMode
HAL_RCCEx_PeriphCLKConfig
HAL_RCC_ClockConfig
HCI_Isr
