ARM GAS  /tmp/ccuMxB7n.s 			page 1


   1              		.syntax unified
   2              		.cpu cortex-m4
   3              		.fpu softvfp
   4              		.eabi_attribute 20, 1
   5              		.eabi_attribute 21, 1
   6              		.eabi_attribute 23, 3
   7              		.eabi_attribute 24, 1
   8              		.eabi_attribute 25, 1
   9              		.eabi_attribute 26, 1
  10              		.eabi_attribute 30, 6
  11              		.eabi_attribute 34, 1
  12              		.eabi_attribute 18, 4
  13              		.thumb
  14              		.file	"crt1.c"
  15              		.text
  16              	.Ltext0:
  17              		.cfi_sections	.debug_frame
  18              		.section	.rodata
  19              		.align	2
  20              		.type	ram_areas, %object
  21              		.size	ram_areas, 128
  22              	ram_areas:
  23 0000 00000000 		.word	__ram0_init_text__
  24 0004 00000000 		.word	__ram0_init__
  25 0008 00000000 		.word	__ram0_clear__
  26 000c 00000000 		.word	__ram0_noinit__
  27 0010 00000000 		.word	__ram1_init_text__
  28 0014 00000000 		.word	__ram1_init__
  29 0018 00000000 		.word	__ram1_clear__
  30 001c 00000000 		.word	__ram1_noinit__
  31 0020 00000000 		.word	__ram2_init_text__
  32 0024 00000000 		.word	__ram2_init__
  33 0028 00000000 		.word	__ram2_clear__
  34 002c 00000000 		.word	__ram2_noinit__
  35 0030 00000000 		.word	__ram3_init_text__
  36 0034 00000000 		.word	__ram3_init__
  37 0038 00000000 		.word	__ram3_clear__
  38 003c 00000000 		.word	__ram3_noinit__
  39 0040 00000000 		.word	__ram4_init_text__
  40 0044 00000000 		.word	__ram4_init__
  41 0048 00000000 		.word	__ram4_clear__
  42 004c 00000000 		.word	__ram4_noinit__
  43 0050 00000000 		.word	__ram5_init_text__
  44 0054 00000000 		.word	__ram5_init__
  45 0058 00000000 		.word	__ram5_clear__
  46 005c 00000000 		.word	__ram5_noinit__
  47 0060 00000000 		.word	__ram6_init_text__
  48 0064 00000000 		.word	__ram6_init__
  49 0068 00000000 		.word	__ram6_clear__
  50 006c 00000000 		.word	__ram6_noinit__
  51 0070 00000000 		.word	__ram7_init_text__
  52 0074 00000000 		.word	__ram7_init__
  53 0078 00000000 		.word	__ram7_clear__
  54 007c 00000000 		.word	__ram7_noinit__
  55              		.text
  56              		.align	2
  57              		.p2align 4,,15
ARM GAS  /tmp/ccuMxB7n.s 			page 2


  58              		.weak	__core_init
  59              		.thumb
  60              		.thumb_func
  61              		.type	__core_init, %function
  62              	__core_init:
  63              	.LFB125:
  64              		.file 1 "../../../../../../ChibiOS/os/common/ports/ARMCMx/compilers/GCC/crt1.c"
  65              		.loc 1 136 0
  66              		.cfi_startproc
  67              		@ args = 0, pretend = 0, frame = 0
  68              		@ frame_needed = 0, uses_anonymous_args = 0
  69              		@ link register save eliminated.
  70              		.loc 1 142 0
  71 0000 7047     		bx	lr
  72              		.cfi_endproc
  73              	.LFE125:
  74              		.size	__core_init, .-__core_init
  75 0002 00BF     		.align	2
  76 0004 AFF30080 		.p2align 4,,15
  76      AFF30080 
  76      AFF30080 
  77              		.weak	__early_init
  78              		.thumb
  79              		.thumb_func
  80              		.type	__early_init, %function
  81              	__early_init:
  82              	.LFB126:
  83              		.loc 1 155 0
  84              		.cfi_startproc
  85              		@ args = 0, pretend = 0, frame = 0
  86              		@ frame_needed = 0, uses_anonymous_args = 0
  87              		@ link register save eliminated.
  88              		.loc 1 155 0
  89 0010 7047     		bx	lr
  90              		.cfi_endproc
  91              	.LFE126:
  92              		.size	__early_init, .-__early_init
  93 0012 00BF     		.align	2
  94 0014 AFF30080 		.p2align 4,,15
  94      AFF30080 
  94      AFF30080 
  95              		.weak	__late_init
  96              		.thumb
  97              		.thumb_func
  98              		.type	__late_init, %function
  99              	__late_init:
 100              	.LFB127:
 101              		.loc 1 169 0
 102              		.cfi_startproc
 103              		@ args = 0, pretend = 0, frame = 0
 104              		@ frame_needed = 0, uses_anonymous_args = 0
 105              		@ link register save eliminated.
 106              		.loc 1 169 0
 107 0020 7047     		bx	lr
 108              		.cfi_endproc
 109              	.LFE127:
 110              		.size	__late_init, .-__late_init
ARM GAS  /tmp/ccuMxB7n.s 			page 3


 111 0022 00BF     		.align	2
 112 0024 AFF30080 		.p2align 4,,15
 112      AFF30080 
 112      AFF30080 
 113              		.weak	__default_exit
 114              		.thumb
 115              		.thumb_func
 116              		.type	__default_exit, %function
 117              	__default_exit:
 118              	.LFB128:
 119              		.loc 1 182 0
 120              		.cfi_startproc
 121              		@ args = 0, pretend = 0, frame = 0
 122              		@ frame_needed = 0, uses_anonymous_args = 0
 123              		@ link register save eliminated.
 124              	.L5:
 125              		.loc 1 186 0 discriminator 1
 126 0030 FEE7     		b	.L5
 127              		.cfi_endproc
 128              	.LFE128:
 129              		.size	__default_exit, .-__default_exit
 130 0032 00BF     		.align	2
 131 0034 AFF30080 		.p2align 4,,15
 131      AFF30080 
 131      AFF30080 
 132              		.global	__init_ram_areas
 133              		.thumb
 134              		.thumb_func
 135              		.type	__init_ram_areas, %function
 136              	__init_ram_areas:
 137              	.LFB129:
 138              		.loc 1 192 0
 139              		.cfi_startproc
 140              		@ args = 0, pretend = 0, frame = 16
 141              		@ frame_needed = 0, uses_anonymous_args = 0
 142              		@ link register save eliminated.
 143 0040 84B0     		sub	sp, sp, #16
 144              		.cfi_def_cfa_offset 16
 145              		.loc 1 194 0
 146 0042 164B     		ldr	r3, .L12
 147 0044 0393     		str	r3, [sp, #12]
 148              	.L11:
 149              	.LBB2:
 150              		.loc 1 197 0
 151 0046 039B     		ldr	r3, [sp, #12]
 152 0048 1B68     		ldr	r3, [r3]
 153 004a 0293     		str	r3, [sp, #8]
 154              		.loc 1 198 0
 155 004c 039B     		ldr	r3, [sp, #12]
 156 004e 5B68     		ldr	r3, [r3, #4]
 157 0050 0193     		str	r3, [sp, #4]
 158              		.loc 1 201 0
 159 0052 09E0     		b	.L7
 160              	.L8:
 161              		.loc 1 202 0
 162 0054 029B     		ldr	r3, [sp, #8]
 163 0056 1A68     		ldr	r2, [r3]
ARM GAS  /tmp/ccuMxB7n.s 			page 4


 164 0058 019B     		ldr	r3, [sp, #4]
 165 005a 1A60     		str	r2, [r3]
 166              		.loc 1 203 0
 167 005c 019B     		ldr	r3, [sp, #4]
 168 005e 0433     		adds	r3, r3, #4
 169 0060 0193     		str	r3, [sp, #4]
 170              		.loc 1 204 0
 171 0062 029B     		ldr	r3, [sp, #8]
 172 0064 0433     		adds	r3, r3, #4
 173 0066 0293     		str	r3, [sp, #8]
 174              	.L7:
 175              		.loc 1 201 0 discriminator 1
 176 0068 039B     		ldr	r3, [sp, #12]
 177 006a 9A68     		ldr	r2, [r3, #8]
 178 006c 019B     		ldr	r3, [sp, #4]
 179 006e 9A42     		cmp	r2, r3
 180 0070 F0D8     		bhi	.L8
 181              		.loc 1 208 0
 182 0072 05E0     		b	.L9
 183              	.L10:
 184              		.loc 1 209 0
 185 0074 019B     		ldr	r3, [sp, #4]
 186 0076 0022     		movs	r2, #0
 187 0078 1A60     		str	r2, [r3]
 188              		.loc 1 210 0
 189 007a 019B     		ldr	r3, [sp, #4]
 190 007c 0433     		adds	r3, r3, #4
 191 007e 0193     		str	r3, [sp, #4]
 192              	.L9:
 193              		.loc 1 208 0 discriminator 1
 194 0080 039B     		ldr	r3, [sp, #12]
 195 0082 DA68     		ldr	r2, [r3, #12]
 196 0084 019B     		ldr	r3, [sp, #4]
 197 0086 9A42     		cmp	r2, r3
 198 0088 F4D8     		bhi	.L10
 199              		.loc 1 212 0
 200 008a 039B     		ldr	r3, [sp, #12]
 201 008c 1033     		adds	r3, r3, #16
 202 008e 0393     		str	r3, [sp, #12]
 203              	.LBE2:
 204              		.loc 1 214 0
 205 0090 039A     		ldr	r2, [sp, #12]
 206 0092 034B     		ldr	r3, .L12+4
 207 0094 9A42     		cmp	r2, r3
 208 0096 D6D3     		bcc	.L11
 209              		.loc 1 216 0
 210 0098 04B0     		add	sp, sp, #16
 211              		@ sp needed
 212 009a 7047     		bx	lr
 213              	.L13:
 214              		.align	2
 215              	.L12:
 216 009c 00000000 		.word	ram_areas
 217 00a0 80000000 		.word	ram_areas+128
 218              		.cfi_endproc
 219              	.LFE129:
 220              		.size	__init_ram_areas, .-__init_ram_areas
ARM GAS  /tmp/ccuMxB7n.s 			page 5


 221              	.Letext0:
 222              		.file 2 "/nfs/nfs5/home/research/hardware/arm2/gcc-arm-embedded/gcc-arm-none-eabi-4_8-2014q2/arm-n
 223              		.file 3 "/nfs/nfs5/home/research/hardware/arm2/gcc-arm-embedded/gcc-arm-none-eabi-4_8-2014q2/arm-n
 224              		.file 4 "../../../../../../ChibiOS/os/ext/CMSIS/include/core_cm4.h"