ARM GAS  /tmp/ccFHtHQ5.s 			page 1


   1              		.syntax unified
   2              		.cpu cortex-m4
   3              		.fpu softvfp
   4              		.eabi_attribute 20, 1
   5              		.eabi_attribute 21, 1
   6              		.eabi_attribute 23, 3
   7              		.eabi_attribute 24, 1
   8              		.eabi_attribute 25, 1
   9              		.eabi_attribute 26, 1
  10              		.eabi_attribute 30, 6
  11              		.eabi_attribute 34, 1
  12              		.eabi_attribute 18, 4
  13              		.thumb
  14              		.file	"gp_timer.c"
  15              		.text
  16              	.Ltext0:
  17              		.cfi_sections	.debug_frame
  18              		.align	2
  19              		.p2align 4,,15
  20              		.global	Timer_Set
  21              		.thumb
  22              		.thumb_func
  23              		.type	Timer_Set, %function
  24              	Timer_Set:
  25              	.LFB125:
  26              		.file 1 "../../../../../Middlewares/ST/STM32_BlueNRG/SimpleBlueNRG_HCI/utils/gp_timer.c"
  27              		.loc 1 52 0
  28              		.cfi_startproc
  29              		@ args = 0, pretend = 0, frame = 8
  30              		@ frame_needed = 0, uses_anonymous_args = 0
  31 0000 00B5     		push	{lr}
  32              		.cfi_def_cfa_offset 4
  33              		.cfi_offset 14, -4
  34 0002 83B0     		sub	sp, sp, #12
  35              		.cfi_def_cfa_offset 16
  36 0004 0190     		str	r0, [sp, #4]
  37 0006 0091     		str	r1, [sp]
  38              		.loc 1 53 0
  39 0008 019B     		ldr	r3, [sp, #4]
  40 000a 009A     		ldr	r2, [sp]
  41 000c 5A60     		str	r2, [r3, #4]
  42              		.loc 1 54 0
  43 000e FFF7FEFF 		bl	HAL_GetTick
  44 0012 0246     		mov	r2, r0
  45 0014 019B     		ldr	r3, [sp, #4]
  46 0016 1A60     		str	r2, [r3]
  47              		.loc 1 55 0
  48 0018 03B0     		add	sp, sp, #12
  49              		@ sp needed
  50 001a 5DF804FB 		ldr	pc, [sp], #4
  51              		.cfi_endproc
  52              	.LFE125:
  53              		.size	Timer_Set, .-Timer_Set
  54 001e 00BF     		.align	2
  55              		.p2align 4,,15
  56              		.global	Timer_Reset
  57              		.thumb
ARM GAS  /tmp/ccFHtHQ5.s 			page 2


  58              		.thumb_func
  59              		.type	Timer_Reset, %function
  60              	Timer_Reset:
  61              	.LFB126:
  62              		.loc 1 72 0
  63              		.cfi_startproc
  64              		@ args = 0, pretend = 0, frame = 8
  65              		@ frame_needed = 0, uses_anonymous_args = 0
  66              		@ link register save eliminated.
  67 0020 82B0     		sub	sp, sp, #8
  68              		.cfi_def_cfa_offset 8
  69 0022 0190     		str	r0, [sp, #4]
  70              		.loc 1 73 0
  71 0024 019B     		ldr	r3, [sp, #4]
  72 0026 1A68     		ldr	r2, [r3]
  73 0028 019B     		ldr	r3, [sp, #4]
  74 002a 5B68     		ldr	r3, [r3, #4]
  75 002c 1A44     		add	r2, r2, r3
  76 002e 019B     		ldr	r3, [sp, #4]
  77 0030 1A60     		str	r2, [r3]
  78              		.loc 1 74 0
  79 0032 02B0     		add	sp, sp, #8
  80              		@ sp needed
  81 0034 7047     		bx	lr
  82              		.cfi_endproc
  83              	.LFE126:
  84              		.size	Timer_Reset, .-Timer_Reset
  85 0036 00BF     		.align	2
  86 0038 AFF30080 		.p2align 4,,15
  86      AFF30080 
  87              		.global	Timer_Restart
  88              		.thumb
  89              		.thumb_func
  90              		.type	Timer_Restart, %function
  91              	Timer_Restart:
  92              	.LFB127:
  93              		.loc 1 92 0
  94              		.cfi_startproc
  95              		@ args = 0, pretend = 0, frame = 8
  96              		@ frame_needed = 0, uses_anonymous_args = 0
  97 0040 00B5     		push	{lr}
  98              		.cfi_def_cfa_offset 4
  99              		.cfi_offset 14, -4
 100 0042 83B0     		sub	sp, sp, #12
 101              		.cfi_def_cfa_offset 16
 102 0044 0190     		str	r0, [sp, #4]
 103              		.loc 1 93 0
 104 0046 FFF7FEFF 		bl	HAL_GetTick
 105 004a 0246     		mov	r2, r0
 106 004c 019B     		ldr	r3, [sp, #4]
 107 004e 1A60     		str	r2, [r3]
 108              		.loc 1 94 0
 109 0050 03B0     		add	sp, sp, #12
 110              		@ sp needed
 111 0052 5DF804FB 		ldr	pc, [sp], #4
 112              		.cfi_endproc
 113              	.LFE127:
ARM GAS  /tmp/ccFHtHQ5.s 			page 3


 114              		.size	Timer_Restart, .-Timer_Restart
 115 0056 00BF     		.align	2
 116 0058 AFF30080 		.p2align 4,,15
 116      AFF30080 
 117              		.global	Timer_Expired
 118              		.thumb
 119              		.thumb_func
 120              		.type	Timer_Expired, %function
 121              	Timer_Expired:
 122              	.LFB128:
 123              		.loc 1 109 0
 124              		.cfi_startproc
 125              		@ args = 0, pretend = 0, frame = 16
 126              		@ frame_needed = 0, uses_anonymous_args = 0
 127 0060 00B5     		push	{lr}
 128              		.cfi_def_cfa_offset 4
 129              		.cfi_offset 14, -4
 130 0062 85B0     		sub	sp, sp, #20
 131              		.cfi_def_cfa_offset 24
 132 0064 0190     		str	r0, [sp, #4]
 133              		.loc 1 112 0
 134 0066 FFF7FEFF 		bl	HAL_GetTick
 135 006a 0246     		mov	r2, r0
 136 006c 019B     		ldr	r3, [sp, #4]
 137 006e 1B68     		ldr	r3, [r3]
 138 0070 D31A     		subs	r3, r2, r3
 139 0072 0133     		adds	r3, r3, #1
 140 0074 0393     		str	r3, [sp, #12]
 141              		.loc 1 113 0
 142 0076 019B     		ldr	r3, [sp, #4]
 143 0078 5A68     		ldr	r2, [r3, #4]
 144 007a 039B     		ldr	r3, [sp, #12]
 145 007c 9A42     		cmp	r2, r3
 146 007e 2CBF     		ite	cs
 147 0080 0023     		movcs	r3, #0
 148 0082 0123     		movcc	r3, #1
 149 0084 DBB2     		uxtb	r3, r3
 150              		.loc 1 115 0
 151 0086 1846     		mov	r0, r3
 152 0088 05B0     		add	sp, sp, #20
 153              		@ sp needed
 154 008a 5DF804FB 		ldr	pc, [sp], #4
 155              		.cfi_endproc
 156              	.LFE128:
 157              		.size	Timer_Expired, .-Timer_Expired
 158 008e 00BF     		.align	2
 159              		.p2align 4,,15
 160              		.global	Timer_Remaining
 161              		.thumb
 162              		.thumb_func
 163              		.type	Timer_Remaining, %function
 164              	Timer_Remaining:
 165              	.LFB129:
 166              		.loc 1 129 0
 167              		.cfi_startproc
 168              		@ args = 0, pretend = 0, frame = 8
 169              		@ frame_needed = 0, uses_anonymous_args = 0
ARM GAS  /tmp/ccFHtHQ5.s 			page 4


 170 0090 10B5     		push	{r4, lr}
 171              		.cfi_def_cfa_offset 8
 172              		.cfi_offset 4, -8
 173              		.cfi_offset 14, -4
 174 0092 82B0     		sub	sp, sp, #8
 175              		.cfi_def_cfa_offset 16
 176 0094 0190     		str	r0, [sp, #4]
 177              		.loc 1 130 0
 178 0096 019B     		ldr	r3, [sp, #4]
 179 0098 1A68     		ldr	r2, [r3]
 180 009a 019B     		ldr	r3, [sp, #4]
 181 009c 5B68     		ldr	r3, [r3, #4]
 182 009e D418     		adds	r4, r2, r3
 183 00a0 FFF7FEFF 		bl	HAL_GetTick
 184 00a4 0346     		mov	r3, r0
 185 00a6 E31A     		subs	r3, r4, r3
 186              		.loc 1 131 0
 187 00a8 1846     		mov	r0, r3
 188 00aa 02B0     		add	sp, sp, #8
 189              		@ sp needed
 190 00ac 10BD     		pop	{r4, pc}
 191              		.cfi_endproc
 192              	.LFE129:
 193              		.size	Timer_Remaining, .-Timer_Remaining
 194              	.Letext0:
 195              		.file 2 "/nfs/nfs5/home/research/hardware/arm2/gcc-arm-embedded/gcc-arm-none-eabi-4_8-2014q2/arm-n
 196              		.file 3 "/nfs/nfs5/home/research/hardware/arm2/gcc-arm-embedded/gcc-arm-none-eabi-4_8-2014q2/arm-n
 197              		.file 4 "../../../../../Middlewares/ST/STM32_BlueNRG/SimpleBlueNRG_HCI/includes/ble_clock.h"
 198              		.file 5 "../../../../../Middlewares/ST/STM32_BlueNRG/SimpleBlueNRG_HCI/includes/gp_timer.h"
 199              		.file 6 "../../../../../../ChibiOS/os/ext/CMSIS/include/core_cm4.h"