ARM GAS  /tmp/ccDGRO0L.s 			page 1


   1              		.syntax unified
   2              		.cpu cortex-m4
   3              		.fpu softvfp
   4              		.eabi_attribute 20, 1
   5              		.eabi_attribute 21, 1
   6              		.eabi_attribute 23, 3
   7              		.eabi_attribute 24, 1
   8              		.eabi_attribute 25, 1
   9              		.eabi_attribute 26, 1
  10              		.eabi_attribute 30, 6
  11              		.eabi_attribute 34, 1
  12              		.eabi_attribute 18, 4
  13              		.thumb
  14              		.file	"hci.c"
  15              		.text
  16              	.Ltext0:
  17              		.cfi_sections	.debug_frame
  18              		.comm	hciReadPktPool,8,4
  19              		.comm	hciReadPktRxQueue,8,4
  20              		.bss
  21              		.align	2
  22              	hciReadPacketBuffer:
  23 0000 00000000 		.space	700
  23      00000000 
  23      00000000 
  23      00000000 
  23      00000000 
  24              	hci_timer_id:
  25 02bc 00       		.space	1
  26              	hci_timeout:
  27 02bd 00       		.space	1
  28 02be 0000     		.text
  29              		.align	2
  30              		.p2align 4,,15
  31              		.global	hci_timeout_callback
  32              		.thumb
  33              		.thumb_func
  34              		.type	hci_timeout_callback, %function
  35              	hci_timeout_callback:
  36              	.LFB269:
  37              		.file 1 "../../../../../Middlewares/ST/STM32_BlueNRG/SimpleBlueNRG_HCI/hci/hci.c"
  38              		.loc 1 56 0
  39              		.cfi_startproc
  40              		@ args = 0, pretend = 0, frame = 0
  41              		@ frame_needed = 0, uses_anonymous_args = 0
  42              		@ link register save eliminated.
  43              		.loc 1 57 0
  44 0000 024B     		ldr	r3, .L3
  45 0002 0122     		movs	r2, #1
  46 0004 1A70     		strb	r2, [r3]
  47              		.loc 1 58 0
  48 0006 00BF     		nop
  49              		.loc 1 59 0
  50 0008 7047     		bx	lr
  51              	.L4:
  52 000a 00BF     		.align	2
  53              	.L3:
ARM GAS  /tmp/ccDGRO0L.s 			page 2


  54 000c BD020000 		.word	hci_timeout
  55              		.cfi_endproc
  56              	.LFE269:
  57              		.size	hci_timeout_callback, .-hci_timeout_callback
  58              		.align	2
  59              		.p2align 4,,15
  60              		.global	HCI_Init
  61              		.thumb
  62              		.thumb_func
  63              		.type	HCI_Init, %function
  64              	HCI_Init:
  65              	.LFB270:
  66              		.loc 1 62 0
  67              		.cfi_startproc
  68              		@ args = 0, pretend = 0, frame = 8
  69              		@ frame_needed = 0, uses_anonymous_args = 0
  70 0010 00B5     		push	{lr}
  71              		.cfi_def_cfa_offset 4
  72              		.cfi_offset 14, -4
  73 0012 83B0     		sub	sp, sp, #12
  74              		.cfi_def_cfa_offset 16
  75              		.loc 1 66 0
  76 0014 1048     		ldr	r0, .L8
  77 0016 FFF7FEFF 		bl	list_init_head
  78              		.loc 1 67 0
  79 001a 1048     		ldr	r0, .L8+4
  80 001c FFF7FEFF 		bl	list_init_head
  81              		.loc 1 70 0
  82 0020 0023     		movs	r3, #0
  83 0022 8DF80730 		strb	r3, [sp, #7]
  84 0026 0FE0     		b	.L6
  85              	.L7:
  86              		.loc 1 72 0 discriminator 2
  87 0028 9DF80730 		ldrb	r3, [sp, #7]	@ zero_extendqisi2
  88 002c 8C22     		movs	r2, #140
  89 002e 02FB03F2 		mul	r2, r2, r3
  90 0032 0B4B     		ldr	r3, .L8+8
  91 0034 1344     		add	r3, r3, r2
  92 0036 0848     		ldr	r0, .L8
  93 0038 1946     		mov	r1, r3
  94 003a FFF7FEFF 		bl	list_insert_tail
  95              		.loc 1 70 0 discriminator 2
  96 003e 9DF80730 		ldrb	r3, [sp, #7]	@ zero_extendqisi2
  97 0042 0133     		adds	r3, r3, #1
  98 0044 8DF80730 		strb	r3, [sp, #7]
  99              	.L6:
 100              		.loc 1 70 0 is_stmt 0 discriminator 1
 101 0048 9DF80730 		ldrb	r3, [sp, #7]	@ zero_extendqisi2
 102 004c 042B     		cmp	r3, #4
 103 004e EBD9     		bls	.L7
 104              		.loc 1 74 0 is_stmt 1
 105 0050 03B0     		add	sp, sp, #12
 106              		@ sp needed
 107 0052 5DF804FB 		ldr	pc, [sp], #4
 108              	.L9:
 109 0056 00BF     		.align	2
 110              	.L8:
ARM GAS  /tmp/ccDGRO0L.s 			page 3


 111 0058 00000000 		.word	hciReadPktPool
 112 005c 00000000 		.word	hciReadPktRxQueue
 113 0060 00000000 		.word	hciReadPacketBuffer
 114              		.cfi_endproc
 115              	.LFE270:
 116              		.size	HCI_Init, .-HCI_Init
 117              		.align	2
 118 0064 AFF30080 		.p2align 4,,15
 118      AFF30080 
 118      AFF30080 
 119              		.global	HCI_verify
 120              		.thumb
 121              		.thumb_func
 122              		.type	HCI_verify, %function
 123              	HCI_verify:
 124              	.LFB271:
 125              		.loc 1 86 0
 126              		.cfi_startproc
 127              		@ args = 0, pretend = 0, frame = 16
 128              		@ frame_needed = 0, uses_anonymous_args = 0
 129              		@ link register save eliminated.
 130 0070 84B0     		sub	sp, sp, #16
 131              		.cfi_def_cfa_offset 16
 132 0072 0190     		str	r0, [sp, #4]
 133              		.loc 1 87 0
 134 0074 019B     		ldr	r3, [sp, #4]
 135 0076 0833     		adds	r3, r3, #8
 136 0078 0393     		str	r3, [sp, #12]
 137              		.loc 1 89 0
 138 007a 039B     		ldr	r3, [sp, #12]
 139 007c 1B78     		ldrb	r3, [r3]	@ zero_extendqisi2
 140 007e 042B     		cmp	r3, #4
 141 0080 01D0     		beq	.L11
 142              		.loc 1 90 0
 143 0082 0123     		movs	r3, #1
 144 0084 0CE0     		b	.L12
 145              	.L11:
 146              		.loc 1 92 0
 147 0086 039B     		ldr	r3, [sp, #12]
 148 0088 0233     		adds	r3, r3, #2
 149 008a 1B78     		ldrb	r3, [r3]	@ zero_extendqisi2
 150 008c 1A46     		mov	r2, r3
 151 008e 019B     		ldr	r3, [sp, #4]
 152 0090 93F88830 		ldrb	r3, [r3, #136]	@ zero_extendqisi2
 153 0094 033B     		subs	r3, r3, #3
 154 0096 9A42     		cmp	r2, r3
 155 0098 01D0     		beq	.L13
 156              		.loc 1 93 0
 157 009a 0223     		movs	r3, #2
 158 009c 00E0     		b	.L12
 159              	.L13:
 160              		.loc 1 95 0
 161 009e 0023     		movs	r3, #0
 162              	.L12:
 163              		.loc 1 96 0
 164 00a0 1846     		mov	r0, r3
 165 00a2 04B0     		add	sp, sp, #16
ARM GAS  /tmp/ccDGRO0L.s 			page 4


 166              		@ sp needed
 167 00a4 7047     		bx	lr
 168              		.cfi_endproc
 169              	.LFE271:
 170              		.size	HCI_verify, .-HCI_verify
 171 00a6 00BF     		.align	2
 172 00a8 AFF30080 		.p2align 4,,15
 172      AFF30080 
 173              		.global	HCI_Process
 174              		.thumb
 175              		.thumb_func
 176              		.type	HCI_Process, %function
 177              	HCI_Process:
 178              	.LFB272:
 179              		.loc 1 99 0
 180              		.cfi_startproc
 181              		@ args = 0, pretend = 0, frame = 8
 182              		@ frame_needed = 0, uses_anonymous_args = 0
 183 00b0 00B5     		push	{lr}
 184              		.cfi_def_cfa_offset 4
 185              		.cfi_offset 14, -4
 186 00b2 83B0     		sub	sp, sp, #12
 187              		.cfi_def_cfa_offset 16
 188              		.loc 1 100 0
 189 00b4 0023     		movs	r3, #0
 190 00b6 0093     		str	r3, [sp]
 191              		.loc 1 102 0
 192 00b8 FFF7FEFF 		bl	Disable_SPI_IRQ
 193              		.loc 1 103 0
 194 00bc 1548     		ldr	r0, .L17
 195 00be FFF7FEFF 		bl	list_is_empty
 196 00c2 0346     		mov	r3, r0
 197 00c4 8DF80730 		strb	r3, [sp, #7]
 198              		.loc 1 105 0
 199 00c8 18E0     		b	.L15
 200              	.L16:
 201              		.loc 1 107 0
 202 00ca 6B46     		mov	r3, sp
 203 00cc 1148     		ldr	r0, .L17
 204 00ce 1946     		mov	r1, r3
 205 00d0 FFF7FEFF 		bl	list_remove_head
 206              		.loc 1 108 0
 207 00d4 FFF7FEFF 		bl	Enable_SPI_IRQ
 208              		.loc 1 109 0
 209 00d8 009B     		ldr	r3, [sp]
 210 00da 0833     		adds	r3, r3, #8
 211 00dc 1846     		mov	r0, r3
 212 00de FFF7FEFF 		bl	HCI_Event_CB
 213              		.loc 1 110 0
 214 00e2 FFF7FEFF 		bl	Disable_SPI_IRQ
 215              		.loc 1 111 0
 216 00e6 009B     		ldr	r3, [sp]
 217 00e8 0B48     		ldr	r0, .L17+4
 218 00ea 1946     		mov	r1, r3
 219 00ec FFF7FEFF 		bl	list_insert_tail
 220              		.loc 1 112 0
 221 00f0 0848     		ldr	r0, .L17
ARM GAS  /tmp/ccDGRO0L.s 			page 5


 222 00f2 FFF7FEFF 		bl	list_is_empty
 223 00f6 0346     		mov	r3, r0
 224 00f8 8DF80730 		strb	r3, [sp, #7]
 225              	.L15:
 226              		.loc 1 105 0 discriminator 1
 227 00fc 9DF80730 		ldrb	r3, [sp, #7]	@ zero_extendqisi2
 228 0100 002B     		cmp	r3, #0
 229 0102 E2D0     		beq	.L16
 230              		.loc 1 116 0
 231 0104 FFF7FEFF 		bl	HCI_Isr
 232              		.loc 1 117 0
 233 0108 FFF7FEFF 		bl	Enable_SPI_IRQ
 234              		.loc 1 118 0
 235 010c 03B0     		add	sp, sp, #12
 236              		@ sp needed
 237 010e 5DF804FB 		ldr	pc, [sp], #4
 238              	.L18:
 239 0112 00BF     		.align	2
 240              	.L17:
 241 0114 00000000 		.word	hciReadPktRxQueue
 242 0118 00000000 		.word	hciReadPktPool
 243              		.cfi_endproc
 244              	.LFE272:
 245              		.size	HCI_Process, .-HCI_Process
 246              		.align	2
 247 011c AFF30080 		.p2align 4,,15
 248              		.global	HCI_Queue_Empty
 249              		.thumb
 250              		.thumb_func
 251              		.type	HCI_Queue_Empty, %function
 252              	HCI_Queue_Empty:
 253              	.LFB273:
 254              		.loc 1 121 0
 255              		.cfi_startproc
 256              		@ args = 0, pretend = 0, frame = 0
 257              		@ frame_needed = 0, uses_anonymous_args = 0
 258 0120 08B5     		push	{r3, lr}
 259              		.cfi_def_cfa_offset 8
 260              		.cfi_offset 3, -8
 261              		.cfi_offset 14, -4
 262              		.loc 1 122 0
 263 0122 0348     		ldr	r0, .L21
 264 0124 FFF7FEFF 		bl	list_is_empty
 265 0128 0346     		mov	r3, r0
 266              		.loc 1 123 0
 267 012a 1846     		mov	r0, r3
 268 012c 08BD     		pop	{r3, pc}
 269              	.L22:
 270 012e 00BF     		.align	2
 271              	.L21:
 272 0130 00000000 		.word	hciReadPktRxQueue
 273              		.cfi_endproc
 274              	.LFE273:
 275              		.size	HCI_Queue_Empty, .-HCI_Queue_Empty
 276              		.align	2
 277 0134 AFF30080 		.p2align 4,,15
 277      AFF30080 
ARM GAS  /tmp/ccDGRO0L.s 			page 6


 277      AFF30080 
 278              		.global	HCI_Isr
 279              		.thumb
 280              		.thumb_func
 281              		.type	HCI_Isr, %function
 282              	HCI_Isr:
 283              	.LFB274:
 284              		.loc 1 126 0
 285              		.cfi_startproc
 286              		@ args = 0, pretend = 0, frame = 8
 287              		@ frame_needed = 0, uses_anonymous_args = 0
 288 0140 00B5     		push	{lr}
 289              		.cfi_def_cfa_offset 4
 290              		.cfi_offset 14, -4
 291 0142 83B0     		sub	sp, sp, #12
 292              		.cfi_def_cfa_offset 16
 293              		.loc 1 127 0
 294 0144 0023     		movs	r3, #0
 295 0146 0093     		str	r3, [sp]
 296              		.loc 1 130 0
 297 0148 FFF7FEFF 		bl	Clear_SPI_EXTI_Flag
 298              		.loc 1 131 0
 299 014c 3BE0     		b	.L24
 300              	.L32:
 301              		.loc 1 132 0
 302 014e 2248     		ldr	r0, .L33
 303 0150 FFF7FEFF 		bl	list_is_empty
 304 0154 0346     		mov	r3, r0
 305 0156 002B     		cmp	r3, #0
 306 0158 30D1     		bne	.L25
 307              		.loc 1 135 0
 308 015a 6B46     		mov	r3, sp
 309 015c 1E48     		ldr	r0, .L33
 310 015e 1946     		mov	r1, r3
 311 0160 FFF7FEFF 		bl	list_remove_head
 312              		.loc 1 137 0
 313 0164 009B     		ldr	r3, [sp]
 314 0166 0833     		adds	r3, r3, #8
 315 0168 1C48     		ldr	r0, .L33+4
 316 016a 1946     		mov	r1, r3
 317 016c 8022     		movs	r2, #128
 318 016e FFF7FEFF 		bl	BlueNRG_SPI_Read_All
 319 0172 0346     		mov	r3, r0
 320 0174 8DF80730 		strb	r3, [sp, #7]
 321              		.loc 1 138 0
 322 0178 9DF80730 		ldrb	r3, [sp, #7]	@ zero_extendqisi2
 323 017c 002B     		cmp	r3, #0
 324 017e 17D0     		beq	.L26
 325              		.loc 1 139 0
 326 0180 009B     		ldr	r3, [sp]
 327 0182 9DF80720 		ldrb	r2, [sp, #7]
 328 0186 83F88820 		strb	r2, [r3, #136]
 329              		.loc 1 140 0
 330 018a 009B     		ldr	r3, [sp]
 331 018c 1846     		mov	r0, r3
 332 018e FFF7FEFF 		bl	HCI_verify
 333 0192 0346     		mov	r3, r0
ARM GAS  /tmp/ccDGRO0L.s 			page 7


 334 0194 002B     		cmp	r3, #0
 335 0196 05D1     		bne	.L27
 336              		.loc 1 141 0
 337 0198 009B     		ldr	r3, [sp]
 338 019a 1148     		ldr	r0, .L33+8
 339 019c 1946     		mov	r1, r3
 340 019e FFF7FEFF 		bl	list_insert_tail
 341 01a2 0EE0     		b	.L30
 342              	.L27:
 343              		.loc 1 143 0
 344 01a4 009B     		ldr	r3, [sp]
 345 01a6 0C48     		ldr	r0, .L33
 346 01a8 1946     		mov	r1, r3
 347 01aa FFF7FEFF 		bl	list_insert_head
 348 01ae 08E0     		b	.L30
 349              	.L26:
 350              		.loc 1 147 0
 351 01b0 009B     		ldr	r3, [sp]
 352 01b2 0948     		ldr	r0, .L33
 353 01b4 1946     		mov	r1, r3
 354 01b6 FFF7FEFF 		bl	list_insert_head
 355 01ba 02E0     		b	.L30
 356              	.L25:
 357              		.loc 1 153 0
 358 01bc FFF7FEFF 		bl	Clear_SPI_EXTI_Flag
 359 01c0 06E0     		b	.L23
 360              	.L30:
 361              		.loc 1 157 0
 362 01c2 FFF7FEFF 		bl	Clear_SPI_EXTI_Flag
 363              	.L24:
 364              		.loc 1 131 0 discriminator 1
 365 01c6 FFF7FEFF 		bl	BlueNRG_DataPresent
 366 01ca 0346     		mov	r3, r0
 367 01cc 002B     		cmp	r3, #0
 368 01ce BED1     		bne	.L32
 369              	.L23:
 370              		.loc 1 159 0
 371 01d0 03B0     		add	sp, sp, #12
 372              		@ sp needed
 373 01d2 5DF804FB 		ldr	pc, [sp], #4
 374              	.L34:
 375 01d6 00BF     		.align	2
 376              	.L33:
 377 01d8 00000000 		.word	hciReadPktPool
 378 01dc 00000000 		.word	SpiHandle
 379 01e0 00000000 		.word	hciReadPktRxQueue
 380              		.cfi_endproc
 381              	.LFE274:
 382              		.size	HCI_Isr, .-HCI_Isr
 383              		.align	2
 384 01e4 AFF30080 		.p2align 4,,15
 384      AFF30080 
 384      AFF30080 
 385              		.global	hci_write
 386              		.thumb
 387              		.thumb_func
 388              		.type	hci_write, %function
ARM GAS  /tmp/ccDGRO0L.s 			page 8


 389              	hci_write:
 390              	.LFB275:
 391              		.loc 1 161 0
 392              		.cfi_startproc
 393              		@ args = 0, pretend = 0, frame = 16
 394              		@ frame_needed = 0, uses_anonymous_args = 0
 395 01f0 00B5     		push	{lr}
 396              		.cfi_def_cfa_offset 4
 397              		.cfi_offset 14, -4
 398 01f2 85B0     		sub	sp, sp, #20
 399              		.cfi_def_cfa_offset 24
 400 01f4 0390     		str	r0, [sp, #12]
 401 01f6 0291     		str	r1, [sp, #8]
 402 01f8 8DF80720 		strb	r2, [sp, #7]
 403 01fc 8DF80630 		strb	r3, [sp, #6]
 404              		.loc 1 171 0
 405 0200 9DF80720 		ldrb	r2, [sp, #7]	@ zero_extendqisi2
 406 0204 9DF80630 		ldrb	r3, [sp, #6]	@ zero_extendqisi2
 407 0208 0398     		ldr	r0, [sp, #12]
 408 020a 0299     		ldr	r1, [sp, #8]
 409 020c FFF7FEFF 		bl	Hal_Write_Serial
 410              		.loc 1 172 0
 411 0210 05B0     		add	sp, sp, #20
 412              		@ sp needed
 413 0212 5DF804FB 		ldr	pc, [sp], #4
 414              		.cfi_endproc
 415              	.LFE275:
 416              		.size	hci_write, .-hci_write
 417 0216 00BF     		.align	2
 418 0218 AFF30080 		.p2align 4,,15
 418      AFF30080 
 419              		.global	hci_send_cmd
 420              		.thumb
 421              		.thumb_func
 422              		.type	hci_send_cmd, %function
 423              	hci_send_cmd:
 424              	.LFB276:
 425              		.loc 1 175 0
 426              		.cfi_startproc
 427              		@ args = 0, pretend = 0, frame = 24
 428              		@ frame_needed = 0, uses_anonymous_args = 0
 429 0220 00B5     		push	{lr}
 430              		.cfi_def_cfa_offset 4
 431              		.cfi_offset 14, -4
 432 0222 87B0     		sub	sp, sp, #28
 433              		.cfi_def_cfa_offset 32
 434 0224 0193     		str	r3, [sp, #4]
 435 0226 0346     		mov	r3, r0	@ movhi
 436 0228 ADF80E30 		strh	r3, [sp, #14]	@ movhi
 437 022c 0B46     		mov	r3, r1	@ movhi
 438 022e ADF80C30 		strh	r3, [sp, #12]	@ movhi
 439 0232 1346     		mov	r3, r2
 440 0234 8DF80B30 		strb	r3, [sp, #11]
 441              		.loc 1 178 0
 442 0238 BDF80C30 		ldrh	r3, [sp, #12]
 443 023c C3F30903 		ubfx	r3, r3, #0, #10
 444 0240 9AB2     		uxth	r2, r3
ARM GAS  /tmp/ccDGRO0L.s 			page 9


 445 0242 BDF80E30 		ldrh	r3, [sp, #14]
 446 0246 9B02     		lsls	r3, r3, #10
 447 0248 9BB2     		uxth	r3, r3
 448 024a 1343     		orrs	r3, r3, r2
 449 024c 9BB2     		uxth	r3, r3
 450 024e 9BB2     		uxth	r3, r3
 451 0250 ADF81430 		strh	r3, [sp, #20]	@ movhi
 452              		.loc 1 179 0
 453 0254 9DF80B30 		ldrb	r3, [sp, #11]
 454 0258 8DF81630 		strb	r3, [sp, #22]
 455              		.loc 1 182 0
 456 025c 0123     		movs	r3, #1
 457 025e 8DF81030 		strb	r3, [sp, #16]
 458              		.loc 1 183 0
 459 0262 04AB     		add	r3, sp, #16
 460 0264 5A1C     		adds	r2, r3, #1
 461 0266 05AB     		add	r3, sp, #20
 462 0268 1046     		mov	r0, r2
 463 026a 1946     		mov	r1, r3
 464 026c 0322     		movs	r2, #3
 465 026e FFF7FEFF 		bl	Osal_MemCpy
 466              		.loc 1 185 0
 467 0272 04AA     		add	r2, sp, #16
 468 0274 9DF80B30 		ldrb	r3, [sp, #11]	@ zero_extendqisi2
 469 0278 1046     		mov	r0, r2
 470 027a 0199     		ldr	r1, [sp, #4]
 471 027c 0422     		movs	r2, #4
 472 027e FFF7FEFF 		bl	hci_write
 473              		.loc 1 186 0
 474 0282 07B0     		add	sp, sp, #28
 475              		@ sp needed
 476 0284 5DF804FB 		ldr	pc, [sp], #4
 477              		.cfi_endproc
 478              	.LFE276:
 479              		.size	hci_send_cmd, .-hci_send_cmd
 480              		.align	2
 481 0288 AFF30080 		.p2align 4,,15
 481      AFF30080 
 482              		.thumb
 483              		.thumb_func
 484              		.type	move_list, %function
 485              	move_list:
 486              	.LFB277:
 487              		.loc 1 189 0
 488              		.cfi_startproc
 489              		@ args = 0, pretend = 0, frame = 16
 490              		@ frame_needed = 0, uses_anonymous_args = 0
 491 0290 00B5     		push	{lr}
 492              		.cfi_def_cfa_offset 4
 493              		.cfi_offset 14, -4
 494 0292 85B0     		sub	sp, sp, #20
 495              		.cfi_def_cfa_offset 24
 496 0294 0190     		str	r0, [sp, #4]
 497 0296 0091     		str	r1, [sp]
 498              		.loc 1 192 0
 499 0298 09E0     		b	.L38
 500              	.L39:
ARM GAS  /tmp/ccDGRO0L.s 			page 10


 501              		.loc 1 193 0
 502 029a 03AB     		add	r3, sp, #12
 503 029c 0098     		ldr	r0, [sp]
 504 029e 1946     		mov	r1, r3
 505 02a0 FFF7FEFF 		bl	list_remove_tail
 506              		.loc 1 194 0
 507 02a4 039B     		ldr	r3, [sp, #12]
 508 02a6 0198     		ldr	r0, [sp, #4]
 509 02a8 1946     		mov	r1, r3
 510 02aa FFF7FEFF 		bl	list_insert_head
 511              	.L38:
 512              		.loc 1 192 0 discriminator 1
 513 02ae 0098     		ldr	r0, [sp]
 514 02b0 FFF7FEFF 		bl	list_is_empty
 515 02b4 0346     		mov	r3, r0
 516 02b6 002B     		cmp	r3, #0
 517 02b8 EFD0     		beq	.L39
 518              		.loc 1 196 0
 519 02ba 05B0     		add	sp, sp, #20
 520              		@ sp needed
 521 02bc 5DF804FB 		ldr	pc, [sp], #4
 522              		.cfi_endproc
 523              	.LFE277:
 524              		.size	move_list, .-move_list
 525              		.align	2
 526              		.p2align 4,,15
 527              		.thumb
 528              		.thumb_func
 529              		.type	free_event_list, %function
 530              	free_event_list:
 531              	.LFB278:
 532              		.loc 1 200 0
 533              		.cfi_startproc
 534              		@ args = 0, pretend = 0, frame = 8
 535              		@ frame_needed = 0, uses_anonymous_args = 0
 536 02c0 00B5     		push	{lr}
 537              		.cfi_def_cfa_offset 4
 538              		.cfi_offset 14, -4
 539 02c2 83B0     		sub	sp, sp, #12
 540              		.cfi_def_cfa_offset 16
 541              		.loc 1 203 0
 542 02c4 FFF7FEFF 		bl	Disable_SPI_IRQ
 543              		.loc 1 205 0
 544 02c8 0BE0     		b	.L41
 545              	.L42:
 546              		.loc 1 206 0
 547 02ca 01AB     		add	r3, sp, #4
 548 02cc 0A48     		ldr	r0, .L43
 549 02ce 1946     		mov	r1, r3
 550 02d0 FFF7FEFF 		bl	list_remove_head
 551              		.loc 1 207 0
 552 02d4 019B     		ldr	r3, [sp, #4]
 553 02d6 0948     		ldr	r0, .L43+4
 554 02d8 1946     		mov	r1, r3
 555 02da FFF7FEFF 		bl	list_insert_tail
 556              		.loc 1 210 0
 557 02de FFF7FEFF 		bl	HCI_Isr
ARM GAS  /tmp/ccDGRO0L.s 			page 11


 558              	.L41:
 559              		.loc 1 205 0 discriminator 1
 560 02e2 0648     		ldr	r0, .L43+4
 561 02e4 FFF7FEFF 		bl	list_get_size
 562 02e8 0346     		mov	r3, r0
 563 02ea 012B     		cmp	r3, #1
 564 02ec EDDD     		ble	.L42
 565              		.loc 1 213 0
 566 02ee FFF7FEFF 		bl	Enable_SPI_IRQ
 567              		.loc 1 214 0
 568 02f2 03B0     		add	sp, sp, #12
 569              		@ sp needed
 570 02f4 5DF804FB 		ldr	pc, [sp], #4
 571              	.L44:
 572              		.align	2
 573              	.L43:
 574 02f8 00000000 		.word	hciReadPktRxQueue
 575 02fc 00000000 		.word	hciReadPktPool
 576              		.cfi_endproc
 577              	.LFE278:
 578              		.size	free_event_list, .-free_event_list
 579              		.align	2
 580              		.p2align 4,,15
 581              		.global	hci_send_req
 582              		.thumb
 583              		.thumb_func
 584              		.type	hci_send_req, %function
 585              	hci_send_req:
 586              	.LFB279:
 587              		.loc 1 217 0
 588              		.cfi_startproc
 589              		@ args = 0, pretend = 0, frame = 64
 590              		@ frame_needed = 0, uses_anonymous_args = 0
 591 0300 00B5     		push	{lr}
 592              		.cfi_def_cfa_offset 4
 593              		.cfi_offset 14, -4
 594 0302 91B0     		sub	sp, sp, #68
 595              		.cfi_def_cfa_offset 72
 596 0304 0190     		str	r0, [sp, #4]
 597 0306 0B46     		mov	r3, r1
 598 0308 8DF80330 		strb	r3, [sp, #3]
 599              		.loc 1 219 0
 600 030c 019B     		ldr	r3, [sp, #4]
 601 030e 5B88     		ldrh	r3, [r3, #2]
 602 0310 9BB2     		uxth	r3, r3
 603 0312 C3F30903 		ubfx	r3, r3, #0, #10
 604 0316 9AB2     		uxth	r2, r3
 605 0318 019B     		ldr	r3, [sp, #4]
 606 031a 1B88     		ldrh	r3, [r3]
 607 031c 9B02     		lsls	r3, r3, #10
 608 031e 9BB2     		uxth	r3, r3
 609 0320 1343     		orrs	r3, r3, r2
 610 0322 9BB2     		uxth	r3, r3
 611 0324 ADF83A30 		strh	r3, [sp, #58]	@ movhi
 612              		.loc 1 222 0
 613 0328 6423     		movs	r3, #100
 614 032a 0F93     		str	r3, [sp, #60]
ARM GAS  /tmp/ccDGRO0L.s 			page 12


 615              		.loc 1 224 0
 616 032c 0023     		movs	r3, #0
 617 032e 0493     		str	r3, [sp, #16]
 618              		.loc 1 227 0
 619 0330 02AB     		add	r3, sp, #8
 620 0332 1846     		mov	r0, r3
 621 0334 FFF7FEFF 		bl	list_init_head
 622              		.loc 1 229 0
 623 0338 FFF7C2FF 		bl	free_event_list
 624              		.loc 1 231 0
 625 033c 019B     		ldr	r3, [sp, #4]
 626 033e 1888     		ldrh	r0, [r3]
 627 0340 019B     		ldr	r3, [sp, #4]
 628 0342 5988     		ldrh	r1, [r3, #2]
 629 0344 019B     		ldr	r3, [sp, #4]
 630 0346 DB68     		ldr	r3, [r3, #12]
 631 0348 DAB2     		uxtb	r2, r3
 632 034a 019B     		ldr	r3, [sp, #4]
 633 034c 9B68     		ldr	r3, [r3, #8]
 634 034e FFF7FEFF 		bl	hci_send_cmd
 635              		.loc 1 233 0
 636 0352 9DF80330 		ldrb	r3, [sp, #3]	@ zero_extendqisi2
 637 0356 002B     		cmp	r3, #0
 638 0358 01D0     		beq	.L46
 639              		.loc 1 234 0
 640 035a 0023     		movs	r3, #0
 641 035c EEE0     		b	.L70
 642              	.L46:
 643              		.loc 1 238 0
 644 035e 0F9B     		ldr	r3, [sp, #60]
 645 0360 002B     		cmp	r3, #0
 646 0362 01D1     		bne	.L48
 647              		.loc 1 239 0
 648 0364 0123     		movs	r3, #1
 649 0366 0F93     		str	r3, [sp, #60]
 650              	.L48:
 651              		.loc 1 241 0
 652 0368 0F9B     		ldr	r3, [sp, #60]
 653 036a 05AA     		add	r2, sp, #20
 654 036c 1046     		mov	r0, r2
 655 036e 1946     		mov	r1, r3
 656 0370 FFF7FEFF 		bl	Timer_Set
 657              	.L53:
 658              	.LBB2:
 659              		.loc 1 265 0
 660 0374 05AB     		add	r3, sp, #20
 661 0376 1846     		mov	r0, r3
 662 0378 FFF7FEFF 		bl	Timer_Expired
 663 037c 0346     		mov	r3, r0
 664 037e 002B     		cmp	r3, #0
 665 0380 00D0     		beq	.L49
 666              		.loc 1 266 0
 667 0382 BCE0     		b	.L50
 668              	.L49:
 669              		.loc 1 268 0
 670 0384 FFF7FEFF 		bl	HCI_Queue_Empty
 671 0388 0346     		mov	r3, r0
ARM GAS  /tmp/ccDGRO0L.s 			page 13


 672 038a 002B     		cmp	r3, #0
 673 038c 10D1     		bne	.L51
 674              		.loc 1 269 0
 675 038e 00BF     		nop
 676              		.loc 1 275 0
 677 0390 FFF7FEFF 		bl	Disable_SPI_IRQ
 678              		.loc 1 276 0
 679 0394 04AB     		add	r3, sp, #16
 680 0396 6B48     		ldr	r0, .L73
 681 0398 1946     		mov	r1, r3
 682 039a FFF7FEFF 		bl	list_remove_head
 683              		.loc 1 278 0
 684 039e 049B     		ldr	r3, [sp, #16]
 685 03a0 0833     		adds	r3, r3, #8
 686 03a2 0D93     		str	r3, [sp, #52]
 687              		.loc 1 280 0
 688 03a4 0D9B     		ldr	r3, [sp, #52]
 689 03a6 1B78     		ldrb	r3, [r3]	@ zero_extendqisi2
 690 03a8 042B     		cmp	r3, #4
 691 03aa 40F08680 		bne	.L54
 692 03ae 00E0     		b	.L71
 693              	.L51:
 694              		.loc 1 271 0
 695 03b0 E0E7     		b	.L53
 696              	.L71:
 697              		.loc 1 282 0
 698 03b2 0D9B     		ldr	r3, [sp, #52]
 699 03b4 0133     		adds	r3, r3, #1
 700 03b6 0C93     		str	r3, [sp, #48]
 701              		.loc 1 284 0
 702 03b8 049B     		ldr	r3, [sp, #16]
 703 03ba 0B33     		adds	r3, r3, #11
 704 03bc 0B93     		str	r3, [sp, #44]
 705              		.loc 1 285 0
 706 03be 049B     		ldr	r3, [sp, #16]
 707 03c0 93F88830 		ldrb	r3, [r3, #136]	@ zero_extendqisi2
 708 03c4 033B     		subs	r3, r3, #3
 709 03c6 0A93     		str	r3, [sp, #40]
 710              		.loc 1 287 0
 711 03c8 0C9B     		ldr	r3, [sp, #48]
 712 03ca 1B78     		ldrb	r3, [r3]	@ zero_extendqisi2
 713 03cc 0F2B     		cmp	r3, #15
 714 03ce 0AD0     		beq	.L56
 715 03d0 0F2B     		cmp	r3, #15
 716 03d2 02DC     		bgt	.L57
 717 03d4 0E2B     		cmp	r3, #14
 718 03d6 2CD0     		beq	.L58
 719              		.loc 1 334 0
 720 03d8 6FE0     		b	.L54
 721              	.L57:
 722              		.loc 1 287 0
 723 03da 102B     		cmp	r3, #16
 724 03dc 00F08E80 		beq	.L72
 725 03e0 3E2B     		cmp	r3, #62
 726 03e2 49D0     		beq	.L60
 727              		.loc 1 334 0
 728 03e4 69E0     		b	.L54
ARM GAS  /tmp/ccDGRO0L.s 			page 14


 729              	.L56:
 730              		.loc 1 290 0
 731 03e6 0B9B     		ldr	r3, [sp, #44]
 732 03e8 0993     		str	r3, [sp, #36]
 733              		.loc 1 292 0
 734 03ea 099B     		ldr	r3, [sp, #36]
 735 03ec 5B88     		ldrh	r3, [r3, #2]	@ unaligned
 736 03ee 9BB2     		uxth	r3, r3
 737 03f0 BDF83A20 		ldrh	r2, [sp, #58]
 738 03f4 9A42     		cmp	r2, r3
 739 03f6 00D0     		beq	.L61
 740              		.loc 1 293 0
 741 03f8 81E0     		b	.L50
 742              	.L61:
 743              		.loc 1 295 0
 744 03fa 019B     		ldr	r3, [sp, #4]
 745 03fc 5B68     		ldr	r3, [r3, #4]
 746 03fe 0F2B     		cmp	r3, #15
 747 0400 05D0     		beq	.L62
 748              		.loc 1 296 0
 749 0402 099B     		ldr	r3, [sp, #36]
 750 0404 1B78     		ldrb	r3, [r3]	@ zero_extendqisi2
 751 0406 002B     		cmp	r3, #0
 752 0408 00D0     		beq	.L63
 753              		.loc 1 297 0
 754 040a 78E0     		b	.L50
 755              	.L63:
 756              		.loc 1 299 0
 757 040c 55E0     		b	.L54
 758              	.L62:
 759              		.loc 1 302 0
 760 040e 019B     		ldr	r3, [sp, #4]
 761 0410 5A69     		ldr	r2, [r3, #20]
 762 0412 0A9B     		ldr	r3, [sp, #40]
 763 0414 9A42     		cmp	r2, r3
 764 0416 A8BF     		it	ge
 765 0418 1A46     		movge	r2, r3
 766 041a 019B     		ldr	r3, [sp, #4]
 767 041c 5A61     		str	r2, [r3, #20]
 768              		.loc 1 303 0
 769 041e 019B     		ldr	r3, [sp, #4]
 770 0420 1A69     		ldr	r2, [r3, #16]
 771 0422 019B     		ldr	r3, [sp, #4]
 772 0424 5B69     		ldr	r3, [r3, #20]
 773 0426 1046     		mov	r0, r2
 774 0428 0B99     		ldr	r1, [sp, #44]
 775 042a 1A46     		mov	r2, r3
 776 042c FFF7FEFF 		bl	Osal_MemCpy
 777              		.loc 1 304 0
 778 0430 77E0     		b	.L64
 779              	.L58:
 780              		.loc 1 307 0
 781 0432 0B9B     		ldr	r3, [sp, #44]
 782 0434 0893     		str	r3, [sp, #32]
 783              		.loc 1 309 0
 784 0436 089B     		ldr	r3, [sp, #32]
 785 0438 B3F80130 		ldrh	r3, [r3, #1]	@ unaligned
ARM GAS  /tmp/ccDGRO0L.s 			page 15


 786 043c 9BB2     		uxth	r3, r3
 787 043e BDF83A20 		ldrh	r2, [sp, #58]
 788 0442 9A42     		cmp	r2, r3
 789 0444 00D0     		beq	.L65
 790              		.loc 1 310 0
 791 0446 5AE0     		b	.L50
 792              	.L65:
 793              		.loc 1 312 0
 794 0448 0B9B     		ldr	r3, [sp, #44]
 795 044a 0333     		adds	r3, r3, #3
 796 044c 0B93     		str	r3, [sp, #44]
 797              		.loc 1 313 0
 798 044e 0A9B     		ldr	r3, [sp, #40]
 799 0450 033B     		subs	r3, r3, #3
 800 0452 0A93     		str	r3, [sp, #40]
 801              		.loc 1 315 0
 802 0454 019B     		ldr	r3, [sp, #4]
 803 0456 5A69     		ldr	r2, [r3, #20]
 804 0458 0A9B     		ldr	r3, [sp, #40]
 805 045a 9A42     		cmp	r2, r3
 806 045c A8BF     		it	ge
 807 045e 1A46     		movge	r2, r3
 808 0460 019B     		ldr	r3, [sp, #4]
 809 0462 5A61     		str	r2, [r3, #20]
 810              		.loc 1 316 0
 811 0464 019B     		ldr	r3, [sp, #4]
 812 0466 1A69     		ldr	r2, [r3, #16]
 813 0468 019B     		ldr	r3, [sp, #4]
 814 046a 5B69     		ldr	r3, [r3, #20]
 815 046c 1046     		mov	r0, r2
 816 046e 0B99     		ldr	r1, [sp, #44]
 817 0470 1A46     		mov	r2, r3
 818 0472 FFF7FEFF 		bl	Osal_MemCpy
 819              		.loc 1 317 0
 820 0476 54E0     		b	.L64
 821              	.L60:
 822              		.loc 1 320 0
 823 0478 0B9B     		ldr	r3, [sp, #44]
 824 047a 0793     		str	r3, [sp, #28]
 825              		.loc 1 322 0
 826 047c 079B     		ldr	r3, [sp, #28]
 827 047e 1B78     		ldrb	r3, [r3]	@ zero_extendqisi2
 828 0480 1A46     		mov	r2, r3
 829 0482 019B     		ldr	r3, [sp, #4]
 830 0484 5B68     		ldr	r3, [r3, #4]
 831 0486 9A42     		cmp	r2, r3
 832 0488 00D0     		beq	.L66
 833              		.loc 1 323 0
 834 048a 16E0     		b	.L54
 835              	.L66:
 836              		.loc 1 325 0
 837 048c 0A9B     		ldr	r3, [sp, #40]
 838 048e 013B     		subs	r3, r3, #1
 839 0490 0A93     		str	r3, [sp, #40]
 840              		.loc 1 326 0
 841 0492 019B     		ldr	r3, [sp, #4]
 842 0494 5A69     		ldr	r2, [r3, #20]
ARM GAS  /tmp/ccDGRO0L.s 			page 16


 843 0496 0A9B     		ldr	r3, [sp, #40]
 844 0498 9A42     		cmp	r2, r3
 845 049a A8BF     		it	ge
 846 049c 1A46     		movge	r2, r3
 847 049e 019B     		ldr	r3, [sp, #4]
 848 04a0 5A61     		str	r2, [r3, #20]
 849              		.loc 1 327 0
 850 04a2 019B     		ldr	r3, [sp, #4]
 851 04a4 1969     		ldr	r1, [r3, #16]
 852 04a6 079B     		ldr	r3, [sp, #28]
 853 04a8 5A1C     		adds	r2, r3, #1
 854 04aa 019B     		ldr	r3, [sp, #4]
 855 04ac 5B69     		ldr	r3, [r3, #20]
 856 04ae 0846     		mov	r0, r1
 857 04b0 1146     		mov	r1, r2
 858 04b2 1A46     		mov	r2, r3
 859 04b4 FFF7FEFF 		bl	Osal_MemCpy
 860              		.loc 1 328 0
 861 04b8 33E0     		b	.L64
 862              	.L54:
 863              		.loc 1 342 0
 864 04ba 2348     		ldr	r0, .L73+4
 865 04bc FFF7FEFF 		bl	list_is_empty
 866 04c0 0346     		mov	r3, r0
 867 04c2 002B     		cmp	r3, #0
 868 04c4 0DD0     		beq	.L67
 869              		.loc 1 342 0 is_stmt 0 discriminator 1
 870 04c6 1F48     		ldr	r0, .L73
 871 04c8 FFF7FEFF 		bl	list_is_empty
 872 04cc 0346     		mov	r3, r0
 873 04ce 002B     		cmp	r3, #0
 874 04d0 07D0     		beq	.L67
 875              		.loc 1 343 0 is_stmt 1
 876 04d2 049B     		ldr	r3, [sp, #16]
 877 04d4 1C48     		ldr	r0, .L73+4
 878 04d6 1946     		mov	r1, r3
 879 04d8 FFF7FEFF 		bl	list_insert_tail
 880              		.loc 1 344 0
 881 04dc 0023     		movs	r3, #0
 882 04de 0493     		str	r3, [sp, #16]
 883 04e0 07E0     		b	.L68
 884              	.L67:
 885              		.loc 1 351 0
 886 04e2 049B     		ldr	r3, [sp, #16]
 887 04e4 02AA     		add	r2, sp, #8
 888 04e6 1046     		mov	r0, r2
 889 04e8 1946     		mov	r1, r3
 890 04ea FFF7FEFF 		bl	list_insert_tail
 891              		.loc 1 352 0
 892 04ee 0023     		movs	r3, #0
 893 04f0 0493     		str	r3, [sp, #16]
 894              	.L68:
 895              		.loc 1 355 0
 896 04f2 FFF7FEFF 		bl	HCI_Isr
 897              		.loc 1 357 0
 898 04f6 FFF7FEFF 		bl	Enable_SPI_IRQ
 899              	.LBE2:
ARM GAS  /tmp/ccDGRO0L.s 			page 17


 900              		.loc 1 359 0
 901 04fa 3BE7     		b	.L53
 902              	.L72:
 903              	.LBB3:
 904              		.loc 1 331 0
 905 04fc 00BF     		nop
 906              	.L50:
 907              	.LBE3:
 908              		.loc 1 362 0
 909 04fe 049B     		ldr	r3, [sp, #16]
 910 0500 002B     		cmp	r3, #0
 911 0502 04D0     		beq	.L69
 912              		.loc 1 363 0
 913 0504 049B     		ldr	r3, [sp, #16]
 914 0506 1048     		ldr	r0, .L73+4
 915 0508 1946     		mov	r1, r3
 916 050a FFF7FEFF 		bl	list_insert_head
 917              	.L69:
 918              		.loc 1 365 0
 919 050e 02AB     		add	r3, sp, #8
 920 0510 0C48     		ldr	r0, .L73
 921 0512 1946     		mov	r1, r3
 922 0514 FFF7BCFE 		bl	move_list
 923              		.loc 1 366 0
 924 0518 FFF7FEFF 		bl	Enable_SPI_IRQ
 925              		.loc 1 367 0
 926 051c 4FF0FF33 		mov	r3, #-1
 927 0520 0CE0     		b	.L70
 928              	.L64:
 929              		.loc 1 371 0
 930 0522 049B     		ldr	r3, [sp, #16]
 931 0524 0848     		ldr	r0, .L73+4
 932 0526 1946     		mov	r1, r3
 933 0528 FFF7FEFF 		bl	list_insert_head
 934              		.loc 1 372 0
 935 052c 02AB     		add	r3, sp, #8
 936 052e 0548     		ldr	r0, .L73
 937 0530 1946     		mov	r1, r3
 938 0532 FFF7ADFE 		bl	move_list
 939              		.loc 1 374 0
 940 0536 FFF7FEFF 		bl	Enable_SPI_IRQ
 941              		.loc 1 375 0
 942 053a 0023     		movs	r3, #0
 943              	.L70:
 944              		.loc 1 376 0
 945 053c 1846     		mov	r0, r3
 946 053e 11B0     		add	sp, sp, #68
 947              		@ sp needed
 948 0540 5DF804FB 		ldr	pc, [sp], #4
 949              	.L74:
 950              		.align	2
 951              	.L73:
 952 0544 00000000 		.word	hciReadPktRxQueue
 953 0548 00000000 		.word	hciReadPktPool
 954              		.cfi_endproc
 955              	.LFE279:
 956              		.size	hci_send_req, .-hci_send_req
ARM GAS  /tmp/ccDGRO0L.s 			page 18


 957              		.align	2
 958 054c AFF30080 		.p2align 4,,15
 959              		.global	hci_reset
 960              		.thumb
 961              		.thumb_func
 962              		.type	hci_reset, %function
 963              	hci_reset:
 964              	.LFB280:
 965              		.loc 1 379 0
 966              		.cfi_startproc
 967              		@ args = 0, pretend = 0, frame = 32
 968              		@ frame_needed = 0, uses_anonymous_args = 0
 969 0550 00B5     		push	{lr}
 970              		.cfi_def_cfa_offset 4
 971              		.cfi_offset 14, -4
 972 0552 89B0     		sub	sp, sp, #36
 973              		.cfi_def_cfa_offset 40
 974              		.loc 1 383 0
 975 0554 02AB     		add	r3, sp, #8
 976 0556 1846     		mov	r0, r3
 977 0558 0021     		movs	r1, #0
 978 055a 1822     		movs	r2, #24
 979 055c FFF7FEFF 		bl	Osal_MemSet
 980              		.loc 1 384 0
 981 0560 0323     		movs	r3, #3
 982 0562 ADF80830 		strh	r3, [sp, #8]	@ movhi
 983              		.loc 1 385 0
 984 0566 0323     		movs	r3, #3
 985 0568 ADF80A30 		strh	r3, [sp, #10]	@ movhi
 986              		.loc 1 386 0
 987 056c 0DF10703 		add	r3, sp, #7
 988 0570 0693     		str	r3, [sp, #24]
 989              		.loc 1 387 0
 990 0572 0123     		movs	r3, #1
 991 0574 0793     		str	r3, [sp, #28]
 992              		.loc 1 389 0
 993 0576 02AB     		add	r3, sp, #8
 994 0578 1846     		mov	r0, r3
 995 057a 0021     		movs	r1, #0
 996 057c FFF7FEFF 		bl	hci_send_req
 997 0580 0346     		mov	r3, r0
 998 0582 002B     		cmp	r3, #0
 999 0584 01DA     		bge	.L76
 1000              		.loc 1 390 0
 1001 0586 FF23     		movs	r3, #255
 1002 0588 01E0     		b	.L78
 1003              	.L76:
 1004              		.loc 1 392 0
 1005 058a 9DF80730 		ldrb	r3, [sp, #7]	@ zero_extendqisi2
 1006              	.L78:
 1007              		.loc 1 393 0
 1008 058e 1846     		mov	r0, r3
 1009 0590 09B0     		add	sp, sp, #36
 1010              		@ sp needed
 1011 0592 5DF804FB 		ldr	pc, [sp], #4
 1012              		.cfi_endproc
 1013              	.LFE280:
ARM GAS  /tmp/ccDGRO0L.s 			page 19


 1014              		.size	hci_reset, .-hci_reset
 1015 0596 00BF     		.align	2
 1016 0598 AFF30080 		.p2align 4,,15
 1016      AFF30080 
 1017              		.global	hci_disconnect
 1018              		.thumb
 1019              		.thumb_func
 1020              		.type	hci_disconnect, %function
 1021              	hci_disconnect:
 1022              	.LFB281:
 1023              		.loc 1 396 0
 1024              		.cfi_startproc
 1025              		@ args = 0, pretend = 0, frame = 40
 1026              		@ frame_needed = 0, uses_anonymous_args = 0
 1027 05a0 00B5     		push	{lr}
 1028              		.cfi_def_cfa_offset 4
 1029              		.cfi_offset 14, -4
 1030 05a2 8BB0     		sub	sp, sp, #44
 1031              		.cfi_def_cfa_offset 48
 1032 05a4 0246     		mov	r2, r0
 1033 05a6 0B46     		mov	r3, r1
 1034 05a8 ADF80620 		strh	r2, [sp, #6]	@ movhi
 1035 05ac 8DF80530 		strb	r3, [sp, #5]
 1036              		.loc 1 401 0
 1037 05b0 BDF80630 		ldrh	r3, [sp, #6]	@ movhi
 1038 05b4 ADF80C30 		strh	r3, [sp, #12]	@ movhi
 1039              		.loc 1 402 0
 1040 05b8 9DF80530 		ldrb	r3, [sp, #5]
 1041 05bc 8DF80E30 		strb	r3, [sp, #14]
 1042              		.loc 1 404 0
 1043 05c0 04AB     		add	r3, sp, #16
 1044 05c2 1846     		mov	r0, r3
 1045 05c4 0021     		movs	r1, #0
 1046 05c6 1822     		movs	r2, #24
 1047 05c8 FFF7FEFF 		bl	Osal_MemSet
 1048              		.loc 1 405 0
 1049 05cc 0123     		movs	r3, #1
 1050 05ce ADF81030 		strh	r3, [sp, #16]	@ movhi
 1051              		.loc 1 406 0
 1052 05d2 0623     		movs	r3, #6
 1053 05d4 ADF81230 		strh	r3, [sp, #18]	@ movhi
 1054              		.loc 1 407 0
 1055 05d8 03AB     		add	r3, sp, #12
 1056 05da 0693     		str	r3, [sp, #24]
 1057              		.loc 1 408 0
 1058 05dc 0323     		movs	r3, #3
 1059 05de 0793     		str	r3, [sp, #28]
 1060              		.loc 1 409 0
 1061 05e0 0F23     		movs	r3, #15
 1062 05e2 0593     		str	r3, [sp, #20]
 1063              		.loc 1 410 0
 1064 05e4 0DF10B03 		add	r3, sp, #11
 1065 05e8 0893     		str	r3, [sp, #32]
 1066              		.loc 1 411 0
 1067 05ea 0123     		movs	r3, #1
 1068 05ec 0993     		str	r3, [sp, #36]
 1069              		.loc 1 413 0
ARM GAS  /tmp/ccDGRO0L.s 			page 20


 1070 05ee 04AB     		add	r3, sp, #16
 1071 05f0 1846     		mov	r0, r3
 1072 05f2 0021     		movs	r1, #0
 1073 05f4 FFF7FEFF 		bl	hci_send_req
 1074 05f8 0346     		mov	r3, r0
 1075 05fa 002B     		cmp	r3, #0
 1076 05fc 01DA     		bge	.L80
 1077              		.loc 1 414 0
 1078 05fe FF23     		movs	r3, #255
 1079 0600 01E0     		b	.L82
 1080              	.L80:
 1081              		.loc 1 416 0
 1082 0602 9DF80B30 		ldrb	r3, [sp, #11]	@ zero_extendqisi2
 1083              	.L82:
 1084              		.loc 1 417 0
 1085 0606 1846     		mov	r0, r3
 1086 0608 0BB0     		add	sp, sp, #44
 1087              		@ sp needed
 1088 060a 5DF804FB 		ldr	pc, [sp], #4
 1089              		.cfi_endproc
 1090              	.LFE281:
 1091              		.size	hci_disconnect, .-hci_disconnect
 1092 060e 00BF     		.align	2
 1093              		.p2align 4,,15
 1094              		.global	hci_le_read_local_version
 1095              		.thumb
 1096              		.thumb_func
 1097              		.type	hci_le_read_local_version, %function
 1098              	hci_le_read_local_version:
 1099              	.LFB282:
 1100              		.loc 1 421 0
 1101              		.cfi_startproc
 1102              		@ args = 4, pretend = 0, frame = 56
 1103              		@ frame_needed = 0, uses_anonymous_args = 0
 1104 0610 00B5     		push	{lr}
 1105              		.cfi_def_cfa_offset 4
 1106              		.cfi_offset 14, -4
 1107 0612 8FB0     		sub	sp, sp, #60
 1108              		.cfi_def_cfa_offset 64
 1109 0614 0390     		str	r0, [sp, #12]
 1110 0616 0291     		str	r1, [sp, #8]
 1111 0618 0192     		str	r2, [sp, #4]
 1112 061a 0093     		str	r3, [sp]
 1113              		.loc 1 425 0
 1114 061c 05AB     		add	r3, sp, #20
 1115 061e 1846     		mov	r0, r3
 1116 0620 0021     		movs	r1, #0
 1117 0622 0922     		movs	r2, #9
 1118 0624 FFF7FEFF 		bl	Osal_MemSet
 1119              		.loc 1 427 0
 1120 0628 08AB     		add	r3, sp, #32
 1121 062a 1846     		mov	r0, r3
 1122 062c 0021     		movs	r1, #0
 1123 062e 1822     		movs	r2, #24
 1124 0630 FFF7FEFF 		bl	Osal_MemSet
 1125              		.loc 1 428 0
 1126 0634 0423     		movs	r3, #4
ARM GAS  /tmp/ccDGRO0L.s 			page 21


 1127 0636 ADF82030 		strh	r3, [sp, #32]	@ movhi
 1128              		.loc 1 429 0
 1129 063a 0123     		movs	r3, #1
 1130 063c ADF82230 		strh	r3, [sp, #34]	@ movhi
 1131              		.loc 1 430 0
 1132 0640 0023     		movs	r3, #0
 1133 0642 0A93     		str	r3, [sp, #40]
 1134              		.loc 1 431 0
 1135 0644 0023     		movs	r3, #0
 1136 0646 0B93     		str	r3, [sp, #44]
 1137              		.loc 1 432 0
 1138 0648 05AB     		add	r3, sp, #20
 1139 064a 0C93     		str	r3, [sp, #48]
 1140              		.loc 1 433 0
 1141 064c 0923     		movs	r3, #9
 1142 064e 0D93     		str	r3, [sp, #52]
 1143              		.loc 1 435 0
 1144 0650 08AB     		add	r3, sp, #32
 1145 0652 1846     		mov	r0, r3
 1146 0654 0021     		movs	r1, #0
 1147 0656 FFF7FEFF 		bl	hci_send_req
 1148 065a 0346     		mov	r3, r0
 1149 065c 002B     		cmp	r3, #0
 1150 065e 01DA     		bge	.L84
 1151              		.loc 1 436 0
 1152 0660 FF23     		movs	r3, #255
 1153 0662 1DE0     		b	.L87
 1154              	.L84:
 1155              		.loc 1 438 0
 1156 0664 9DF81430 		ldrb	r3, [sp, #20]	@ zero_extendqisi2
 1157 0668 002B     		cmp	r3, #0
 1158 066a 02D0     		beq	.L86
 1159              		.loc 1 439 0
 1160 066c 9DF81430 		ldrb	r3, [sp, #20]	@ zero_extendqisi2
 1161 0670 16E0     		b	.L87
 1162              	.L86:
 1163              		.loc 1 443 0
 1164 0672 9DF81520 		ldrb	r2, [sp, #21]	@ zero_extendqisi2
 1165 0676 039B     		ldr	r3, [sp, #12]
 1166 0678 1A70     		strb	r2, [r3]
 1167              		.loc 1 444 0
 1168 067a BDF81620 		ldrh	r2, [sp, #22]
 1169 067e 029B     		ldr	r3, [sp, #8]
 1170 0680 1A80     		strh	r2, [r3]	@ movhi
 1171              		.loc 1 445 0
 1172 0682 9DF81820 		ldrb	r2, [sp, #24]	@ zero_extendqisi2
 1173 0686 019B     		ldr	r3, [sp, #4]
 1174 0688 1A70     		strb	r2, [r3]
 1175              		.loc 1 446 0
 1176 068a BDF81930 		ldrh	r3, [sp, #25]	@ unaligned
 1177 068e 9AB2     		uxth	r2, r3
 1178 0690 009B     		ldr	r3, [sp]
 1179 0692 1A80     		strh	r2, [r3]	@ movhi
 1180              		.loc 1 447 0
 1181 0694 BDF81B30 		ldrh	r3, [sp, #27]	@ unaligned
 1182 0698 9AB2     		uxth	r2, r3
 1183 069a 109B     		ldr	r3, [sp, #64]
ARM GAS  /tmp/ccDGRO0L.s 			page 22


 1184 069c 1A80     		strh	r2, [r3]	@ movhi
 1185              		.loc 1 449 0
 1186 069e 0023     		movs	r3, #0
 1187              	.L87:
 1188              		.loc 1 450 0
 1189 06a0 1846     		mov	r0, r3
 1190 06a2 0FB0     		add	sp, sp, #60
 1191              		@ sp needed
 1192 06a4 5DF804FB 		ldr	pc, [sp], #4
 1193              		.cfi_endproc
 1194              	.LFE282:
 1195              		.size	hci_le_read_local_version, .-hci_le_read_local_version
 1196              		.align	2
 1197 06a8 AFF30080 		.p2align 4,,15
 1197      AFF30080 
 1198              		.global	hci_le_read_buffer_size
 1199              		.thumb
 1200              		.thumb_func
 1201              		.type	hci_le_read_buffer_size, %function
 1202              	hci_le_read_buffer_size:
 1203              	.LFB283:
 1204              		.loc 1 453 0
 1205              		.cfi_startproc
 1206              		@ args = 0, pretend = 0, frame = 40
 1207              		@ frame_needed = 0, uses_anonymous_args = 0
 1208 06b0 00B5     		push	{lr}
 1209              		.cfi_def_cfa_offset 4
 1210              		.cfi_offset 14, -4
 1211 06b2 8BB0     		sub	sp, sp, #44
 1212              		.cfi_def_cfa_offset 48
 1213 06b4 0190     		str	r0, [sp, #4]
 1214 06b6 0091     		str	r1, [sp]
 1215              		.loc 1 457 0
 1216 06b8 03AB     		add	r3, sp, #12
 1217 06ba 1846     		mov	r0, r3
 1218 06bc 0021     		movs	r1, #0
 1219 06be 0422     		movs	r2, #4
 1220 06c0 FFF7FEFF 		bl	Osal_MemSet
 1221              		.loc 1 459 0
 1222 06c4 04AB     		add	r3, sp, #16
 1223 06c6 1846     		mov	r0, r3
 1224 06c8 0021     		movs	r1, #0
 1225 06ca 1822     		movs	r2, #24
 1226 06cc FFF7FEFF 		bl	Osal_MemSet
 1227              		.loc 1 460 0
 1228 06d0 0823     		movs	r3, #8
 1229 06d2 ADF81030 		strh	r3, [sp, #16]	@ movhi
 1230              		.loc 1 461 0
 1231 06d6 0223     		movs	r3, #2
 1232 06d8 ADF81230 		strh	r3, [sp, #18]	@ movhi
 1233              		.loc 1 462 0
 1234 06dc 0023     		movs	r3, #0
 1235 06de 0693     		str	r3, [sp, #24]
 1236              		.loc 1 463 0
 1237 06e0 0023     		movs	r3, #0
 1238 06e2 0793     		str	r3, [sp, #28]
 1239              		.loc 1 464 0
ARM GAS  /tmp/ccDGRO0L.s 			page 23


 1240 06e4 03AB     		add	r3, sp, #12
 1241 06e6 0893     		str	r3, [sp, #32]
 1242              		.loc 1 465 0
 1243 06e8 0423     		movs	r3, #4
 1244 06ea 0993     		str	r3, [sp, #36]
 1245              		.loc 1 467 0
 1246 06ec 04AB     		add	r3, sp, #16
 1247 06ee 1846     		mov	r0, r3
 1248 06f0 0021     		movs	r1, #0
 1249 06f2 FFF7FEFF 		bl	hci_send_req
 1250 06f6 0346     		mov	r3, r0
 1251 06f8 002B     		cmp	r3, #0
 1252 06fa 01DA     		bge	.L89
 1253              		.loc 1 468 0
 1254 06fc FF23     		movs	r3, #255
 1255 06fe 10E0     		b	.L92
 1256              	.L89:
 1257              		.loc 1 470 0
 1258 0700 9DF80C30 		ldrb	r3, [sp, #12]	@ zero_extendqisi2
 1259 0704 002B     		cmp	r3, #0
 1260 0706 02D0     		beq	.L91
 1261              		.loc 1 471 0
 1262 0708 9DF80C30 		ldrb	r3, [sp, #12]	@ zero_extendqisi2
 1263 070c 09E0     		b	.L92
 1264              	.L91:
 1265              		.loc 1 474 0
 1266 070e BDF80D30 		ldrh	r3, [sp, #13]	@ unaligned
 1267 0712 9AB2     		uxth	r2, r3
 1268 0714 019B     		ldr	r3, [sp, #4]
 1269 0716 1A80     		strh	r2, [r3]	@ movhi
 1270              		.loc 1 475 0
 1271 0718 9DF80F20 		ldrb	r2, [sp, #15]	@ zero_extendqisi2
 1272 071c 009B     		ldr	r3, [sp]
 1273 071e 1A70     		strb	r2, [r3]
 1274              		.loc 1 477 0
 1275 0720 0023     		movs	r3, #0
 1276              	.L92:
 1277              		.loc 1 478 0
 1278 0722 1846     		mov	r0, r3
 1279 0724 0BB0     		add	sp, sp, #44
 1280              		@ sp needed
 1281 0726 5DF804FB 		ldr	pc, [sp], #4
 1282              		.cfi_endproc
 1283              	.LFE283:
 1284              		.size	hci_le_read_buffer_size, .-hci_le_read_buffer_size
 1285 072a 00BF     		.align	2
 1286 072c AFF30080 		.p2align 4,,15
 1287              		.global	hci_le_set_advertising_parameters
 1288              		.thumb
 1289              		.thumb_func
 1290              		.type	hci_le_set_advertising_parameters, %function
 1291              	hci_le_set_advertising_parameters:
 1292              	.LFB284:
 1293              		.loc 1 483 0
 1294              		.cfi_startproc
 1295              		@ args = 16, pretend = 0, frame = 56
 1296              		@ frame_needed = 0, uses_anonymous_args = 0
ARM GAS  /tmp/ccDGRO0L.s 			page 24


 1297 0730 00B5     		push	{lr}
 1298              		.cfi_def_cfa_offset 4
 1299              		.cfi_offset 14, -4
 1300 0732 8FB0     		sub	sp, sp, #60
 1301              		.cfi_def_cfa_offset 64
 1302 0734 ADF80600 		strh	r0, [sp, #6]	@ movhi
 1303 0738 ADF80410 		strh	r1, [sp, #4]	@ movhi
 1304 073c 8DF80320 		strb	r2, [sp, #3]
 1305 0740 8DF80230 		strb	r3, [sp, #2]
 1306              		.loc 1 488 0
 1307 0744 04AB     		add	r3, sp, #16
 1308 0746 1846     		mov	r0, r3
 1309 0748 0021     		movs	r1, #0
 1310 074a 0F22     		movs	r2, #15
 1311 074c FFF7FEFF 		bl	Osal_MemSet
 1312              		.loc 1 489 0
 1313 0750 BDF80630 		ldrh	r3, [sp, #6]	@ movhi
 1314 0754 ADF81030 		strh	r3, [sp, #16]	@ movhi
 1315              		.loc 1 490 0
 1316 0758 BDF80430 		ldrh	r3, [sp, #4]	@ movhi
 1317 075c ADF81230 		strh	r3, [sp, #18]	@ movhi
 1318              		.loc 1 491 0
 1319 0760 9DF80330 		ldrb	r3, [sp, #3]
 1320 0764 8DF81430 		strb	r3, [sp, #20]
 1321              		.loc 1 492 0
 1322 0768 9DF80230 		ldrb	r3, [sp, #2]
 1323 076c 8DF81530 		strb	r3, [sp, #21]
 1324              		.loc 1 493 0
 1325 0770 9DF84030 		ldrb	r3, [sp, #64]
 1326 0774 8DF81630 		strb	r3, [sp, #22]
 1327              		.loc 1 494 0
 1328 0778 119B     		ldr	r3, [sp, #68]
 1329 077a 002B     		cmp	r3, #0
 1330 077c 06D0     		beq	.L94
 1331              		.loc 1 495 0
 1332 077e 04AB     		add	r3, sp, #16
 1333 0780 0733     		adds	r3, r3, #7
 1334 0782 1846     		mov	r0, r3
 1335 0784 1199     		ldr	r1, [sp, #68]
 1336 0786 0622     		movs	r2, #6
 1337 0788 FFF7FEFF 		bl	Osal_MemCpy
 1338              	.L94:
 1339              		.loc 1 496 0
 1340 078c 9DF84830 		ldrb	r3, [sp, #72]
 1341 0790 8DF81D30 		strb	r3, [sp, #29]
 1342              		.loc 1 497 0
 1343 0794 9DF84C30 		ldrb	r3, [sp, #76]
 1344 0798 8DF81E30 		strb	r3, [sp, #30]
 1345              		.loc 1 499 0
 1346 079c 08AB     		add	r3, sp, #32
 1347 079e 1846     		mov	r0, r3
 1348 07a0 0021     		movs	r1, #0
 1349 07a2 1822     		movs	r2, #24
 1350 07a4 FFF7FEFF 		bl	Osal_MemSet
 1351              		.loc 1 500 0
 1352 07a8 0823     		movs	r3, #8
 1353 07aa ADF82030 		strh	r3, [sp, #32]	@ movhi
ARM GAS  /tmp/ccDGRO0L.s 			page 25


 1354              		.loc 1 501 0
 1355 07ae 0623     		movs	r3, #6
 1356 07b0 ADF82230 		strh	r3, [sp, #34]	@ movhi
 1357              		.loc 1 502 0
 1358 07b4 04AB     		add	r3, sp, #16
 1359 07b6 0A93     		str	r3, [sp, #40]
 1360              		.loc 1 503 0
 1361 07b8 0F23     		movs	r3, #15
 1362 07ba 0B93     		str	r3, [sp, #44]
 1363              		.loc 1 504 0
 1364 07bc 0DF10F03 		add	r3, sp, #15
 1365 07c0 0C93     		str	r3, [sp, #48]
 1366              		.loc 1 505 0
 1367 07c2 0123     		movs	r3, #1
 1368 07c4 0D93     		str	r3, [sp, #52]
 1369              		.loc 1 507 0
 1370 07c6 08AB     		add	r3, sp, #32
 1371 07c8 1846     		mov	r0, r3
 1372 07ca 0021     		movs	r1, #0
 1373 07cc FFF7FEFF 		bl	hci_send_req
 1374 07d0 0346     		mov	r3, r0
 1375 07d2 002B     		cmp	r3, #0
 1376 07d4 01DA     		bge	.L95
 1377              		.loc 1 508 0
 1378 07d6 FF23     		movs	r3, #255
 1379 07d8 01E0     		b	.L97
 1380              	.L95:
 1381              		.loc 1 510 0
 1382 07da 9DF80F30 		ldrb	r3, [sp, #15]	@ zero_extendqisi2
 1383              	.L97:
 1384              		.loc 1 511 0
 1385 07de 1846     		mov	r0, r3
 1386 07e0 0FB0     		add	sp, sp, #60
 1387              		@ sp needed
 1388 07e2 5DF804FB 		ldr	pc, [sp], #4
 1389              		.cfi_endproc
 1390              	.LFE284:
 1391              		.size	hci_le_set_advertising_parameters, .-hci_le_set_advertising_parameters
 1392 07e6 00BF     		.align	2
 1393 07e8 AFF30080 		.p2align 4,,15
 1393      AFF30080 
 1394              		.global	hci_le_set_advertising_data
 1395              		.thumb
 1396              		.thumb_func
 1397              		.type	hci_le_set_advertising_data, %function
 1398              	hci_le_set_advertising_data:
 1399              	.LFB285:
 1400              		.loc 1 514 0
 1401              		.cfi_startproc
 1402              		@ args = 0, pretend = 0, frame = 72
 1403              		@ frame_needed = 0, uses_anonymous_args = 0
 1404 07f0 00B5     		push	{lr}
 1405              		.cfi_def_cfa_offset 4
 1406              		.cfi_offset 14, -4
 1407 07f2 93B0     		sub	sp, sp, #76
 1408              		.cfi_def_cfa_offset 80
 1409 07f4 0346     		mov	r3, r0
ARM GAS  /tmp/ccDGRO0L.s 			page 26


 1410 07f6 0091     		str	r1, [sp]
 1411 07f8 8DF80730 		strb	r3, [sp, #7]
 1412              		.loc 1 519 0
 1413 07fc 04AB     		add	r3, sp, #16
 1414 07fe 1846     		mov	r0, r3
 1415 0800 0021     		movs	r1, #0
 1416 0802 2022     		movs	r2, #32
 1417 0804 FFF7FEFF 		bl	Osal_MemSet
 1418              		.loc 1 520 0
 1419 0808 9DF80730 		ldrb	r3, [sp, #7]
 1420 080c 8DF81030 		strb	r3, [sp, #16]
 1421              		.loc 1 521 0
 1422 0810 9DF80730 		ldrb	r3, [sp, #7]	@ zero_extendqisi2
 1423 0814 1F2B     		cmp	r3, #31
 1424 0816 02D8     		bhi	.L99
 1425              		.loc 1 521 0 is_stmt 0 discriminator 1
 1426 0818 9DF80730 		ldrb	r3, [sp, #7]	@ zero_extendqisi2
 1427 081c 00E0     		b	.L100
 1428              	.L99:
 1429              		.loc 1 521 0 discriminator 2
 1430 081e 1F23     		movs	r3, #31
 1431              	.L100:
 1432              		.loc 1 521 0 discriminator 3
 1433 0820 04AA     		add	r2, sp, #16
 1434 0822 0132     		adds	r2, r2, #1
 1435 0824 1046     		mov	r0, r2
 1436 0826 0099     		ldr	r1, [sp]
 1437 0828 1A46     		mov	r2, r3
 1438 082a FFF7FEFF 		bl	Osal_MemCpy
 1439              		.loc 1 523 0 is_stmt 1 discriminator 3
 1440 082e 0CAB     		add	r3, sp, #48
 1441 0830 1846     		mov	r0, r3
 1442 0832 0021     		movs	r1, #0
 1443 0834 1822     		movs	r2, #24
 1444 0836 FFF7FEFF 		bl	Osal_MemSet
 1445              		.loc 1 524 0 discriminator 3
 1446 083a 0823     		movs	r3, #8
 1447 083c ADF83030 		strh	r3, [sp, #48]	@ movhi
 1448              		.loc 1 525 0 discriminator 3
 1449 0840 0823     		movs	r3, #8
 1450 0842 ADF83230 		strh	r3, [sp, #50]	@ movhi
 1451              		.loc 1 526 0 discriminator 3
 1452 0846 04AB     		add	r3, sp, #16
 1453 0848 0E93     		str	r3, [sp, #56]
 1454              		.loc 1 527 0 discriminator 3
 1455 084a 2023     		movs	r3, #32
 1456 084c 0F93     		str	r3, [sp, #60]
 1457              		.loc 1 528 0 discriminator 3
 1458 084e 0DF10F03 		add	r3, sp, #15
 1459 0852 1093     		str	r3, [sp, #64]
 1460              		.loc 1 529 0 discriminator 3
 1461 0854 0123     		movs	r3, #1
 1462 0856 1193     		str	r3, [sp, #68]
 1463              		.loc 1 531 0 discriminator 3
 1464 0858 0CAB     		add	r3, sp, #48
 1465 085a 1846     		mov	r0, r3
 1466 085c 0021     		movs	r1, #0
ARM GAS  /tmp/ccDGRO0L.s 			page 27


 1467 085e FFF7FEFF 		bl	hci_send_req
 1468 0862 0346     		mov	r3, r0
 1469 0864 002B     		cmp	r3, #0
 1470 0866 01DA     		bge	.L101
 1471              		.loc 1 532 0
 1472 0868 FF23     		movs	r3, #255
 1473 086a 01E0     		b	.L103
 1474              	.L101:
 1475              		.loc 1 534 0
 1476 086c 9DF80F30 		ldrb	r3, [sp, #15]	@ zero_extendqisi2
 1477              	.L103:
 1478              		.loc 1 535 0
 1479 0870 1846     		mov	r0, r3
 1480 0872 13B0     		add	sp, sp, #76
 1481              		@ sp needed
 1482 0874 5DF804FB 		ldr	pc, [sp], #4
 1483              		.cfi_endproc
 1484              	.LFE285:
 1485              		.size	hci_le_set_advertising_data, .-hci_le_set_advertising_data
 1486              		.align	2
 1487 0878 AFF30080 		.p2align 4,,15
 1487      AFF30080 
 1488              		.global	hci_le_set_advertise_enable
 1489              		.thumb
 1490              		.thumb_func
 1491              		.type	hci_le_set_advertise_enable, %function
 1492              	hci_le_set_advertise_enable:
 1493              	.LFB286:
 1494              		.loc 1 538 0
 1495              		.cfi_startproc
 1496              		@ args = 0, pretend = 0, frame = 40
 1497              		@ frame_needed = 0, uses_anonymous_args = 0
 1498 0880 00B5     		push	{lr}
 1499              		.cfi_def_cfa_offset 4
 1500              		.cfi_offset 14, -4
 1501 0882 8BB0     		sub	sp, sp, #44
 1502              		.cfi_def_cfa_offset 48
 1503 0884 0346     		mov	r3, r0
 1504 0886 8DF80730 		strb	r3, [sp, #7]
 1505              		.loc 1 543 0
 1506 088a 03AB     		add	r3, sp, #12
 1507 088c 1846     		mov	r0, r3
 1508 088e 0021     		movs	r1, #0
 1509 0890 0122     		movs	r2, #1
 1510 0892 FFF7FEFF 		bl	Osal_MemSet
 1511              		.loc 1 544 0
 1512 0896 9DF80730 		ldrb	r3, [sp, #7]	@ zero_extendqisi2
 1513 089a 002B     		cmp	r3, #0
 1514 089c 0CBF     		ite	eq
 1515 089e 0023     		moveq	r3, #0
 1516 08a0 0123     		movne	r3, #1
 1517 08a2 DBB2     		uxtb	r3, r3
 1518 08a4 8DF80C30 		strb	r3, [sp, #12]
 1519              		.loc 1 546 0
 1520 08a8 04AB     		add	r3, sp, #16
 1521 08aa 1846     		mov	r0, r3
 1522 08ac 0021     		movs	r1, #0
ARM GAS  /tmp/ccDGRO0L.s 			page 28


 1523 08ae 1822     		movs	r2, #24
 1524 08b0 FFF7FEFF 		bl	Osal_MemSet
 1525              		.loc 1 547 0
 1526 08b4 0823     		movs	r3, #8
 1527 08b6 ADF81030 		strh	r3, [sp, #16]	@ movhi
 1528              		.loc 1 548 0
 1529 08ba 0A23     		movs	r3, #10
 1530 08bc ADF81230 		strh	r3, [sp, #18]	@ movhi
 1531              		.loc 1 549 0
 1532 08c0 03AB     		add	r3, sp, #12
 1533 08c2 0693     		str	r3, [sp, #24]
 1534              		.loc 1 550 0
 1535 08c4 0123     		movs	r3, #1
 1536 08c6 0793     		str	r3, [sp, #28]
 1537              		.loc 1 551 0
 1538 08c8 0DF10B03 		add	r3, sp, #11
 1539 08cc 0893     		str	r3, [sp, #32]
 1540              		.loc 1 552 0
 1541 08ce 0123     		movs	r3, #1
 1542 08d0 0993     		str	r3, [sp, #36]
 1543              		.loc 1 554 0
 1544 08d2 04AB     		add	r3, sp, #16
 1545 08d4 1846     		mov	r0, r3
 1546 08d6 0021     		movs	r1, #0
 1547 08d8 FFF7FEFF 		bl	hci_send_req
 1548 08dc 0346     		mov	r3, r0
 1549 08de 002B     		cmp	r3, #0
 1550 08e0 01DA     		bge	.L105
 1551              		.loc 1 555 0
 1552 08e2 FF23     		movs	r3, #255
 1553 08e4 01E0     		b	.L107
 1554              	.L105:
 1555              		.loc 1 557 0
 1556 08e6 9DF80B30 		ldrb	r3, [sp, #11]	@ zero_extendqisi2
 1557              	.L107:
 1558              		.loc 1 558 0
 1559 08ea 1846     		mov	r0, r3
 1560 08ec 0BB0     		add	sp, sp, #44
 1561              		@ sp needed
 1562 08ee 5DF804FB 		ldr	pc, [sp], #4
 1563              		.cfi_endproc
 1564              	.LFE286:
 1565              		.size	hci_le_set_advertise_enable, .-hci_le_set_advertise_enable
 1566 08f2 00BF     		.align	2
 1567 08f4 AFF30080 		.p2align 4,,15
 1567      AFF30080 
 1567      AFF30080 
 1568              		.global	hci_le_set_scan_parameters
 1569              		.thumb
 1570              		.thumb_func
 1571              		.type	hci_le_set_scan_parameters, %function
 1572              	hci_le_set_scan_parameters:
 1573              	.LFB287:
 1574              		.loc 1 563 0
 1575              		.cfi_startproc
 1576              		@ args = 4, pretend = 0, frame = 48
 1577              		@ frame_needed = 0, uses_anonymous_args = 0
ARM GAS  /tmp/ccDGRO0L.s 			page 29


 1578 0900 00B5     		push	{lr}
 1579              		.cfi_def_cfa_offset 4
 1580              		.cfi_offset 14, -4
 1581 0902 8DB0     		sub	sp, sp, #52
 1582              		.cfi_def_cfa_offset 56
 1583 0904 8DF80700 		strb	r0, [sp, #7]
 1584 0908 ADF80410 		strh	r1, [sp, #4]	@ movhi
 1585 090c ADF80220 		strh	r2, [sp, #2]	@ movhi
 1586 0910 8DF80630 		strb	r3, [sp, #6]
 1587              		.loc 1 568 0
 1588 0914 04AB     		add	r3, sp, #16
 1589 0916 1846     		mov	r0, r3
 1590 0918 0021     		movs	r1, #0
 1591 091a 0722     		movs	r2, #7
 1592 091c FFF7FEFF 		bl	Osal_MemSet
 1593              		.loc 1 569 0
 1594 0920 9DF80730 		ldrb	r3, [sp, #7]
 1595 0924 8DF81030 		strb	r3, [sp, #16]
 1596              		.loc 1 570 0
 1597 0928 BDF80430 		ldrh	r3, [sp, #4]	@ movhi
 1598 092c ADF81130 		strh	r3, [sp, #17]	@ unaligned
 1599              		.loc 1 571 0
 1600 0930 BDF80230 		ldrh	r3, [sp, #2]	@ movhi
 1601 0934 ADF81330 		strh	r3, [sp, #19]	@ unaligned
 1602              		.loc 1 572 0
 1603 0938 9DF80630 		ldrb	r3, [sp, #6]
 1604 093c 8DF81530 		strb	r3, [sp, #21]
 1605              		.loc 1 573 0
 1606 0940 9DF83830 		ldrb	r3, [sp, #56]
 1607 0944 8DF81630 		strb	r3, [sp, #22]
 1608              		.loc 1 575 0
 1609 0948 06AB     		add	r3, sp, #24
 1610 094a 1846     		mov	r0, r3
 1611 094c 0021     		movs	r1, #0
 1612 094e 1822     		movs	r2, #24
 1613 0950 FFF7FEFF 		bl	Osal_MemSet
 1614              		.loc 1 576 0
 1615 0954 0823     		movs	r3, #8
 1616 0956 ADF81830 		strh	r3, [sp, #24]	@ movhi
 1617              		.loc 1 577 0
 1618 095a 0B23     		movs	r3, #11
 1619 095c ADF81A30 		strh	r3, [sp, #26]	@ movhi
 1620              		.loc 1 578 0
 1621 0960 04AB     		add	r3, sp, #16
 1622 0962 0893     		str	r3, [sp, #32]
 1623              		.loc 1 579 0
 1624 0964 0723     		movs	r3, #7
 1625 0966 0993     		str	r3, [sp, #36]
 1626              		.loc 1 580 0
 1627 0968 0DF10F03 		add	r3, sp, #15
 1628 096c 0A93     		str	r3, [sp, #40]
 1629              		.loc 1 581 0
 1630 096e 0123     		movs	r3, #1
 1631 0970 0B93     		str	r3, [sp, #44]
 1632              		.loc 1 583 0
 1633 0972 06AB     		add	r3, sp, #24
 1634 0974 1846     		mov	r0, r3
ARM GAS  /tmp/ccDGRO0L.s 			page 30


 1635 0976 0021     		movs	r1, #0
 1636 0978 FFF7FEFF 		bl	hci_send_req
 1637 097c 0346     		mov	r3, r0
 1638 097e 002B     		cmp	r3, #0
 1639 0980 01DA     		bge	.L109
 1640              		.loc 1 584 0
 1641 0982 FF23     		movs	r3, #255
 1642 0984 01E0     		b	.L111
 1643              	.L109:
 1644              		.loc 1 586 0
 1645 0986 9DF80F30 		ldrb	r3, [sp, #15]	@ zero_extendqisi2
 1646              	.L111:
 1647              		.loc 1 587 0
 1648 098a 1846     		mov	r0, r3
 1649 098c 0DB0     		add	sp, sp, #52
 1650              		@ sp needed
 1651 098e 5DF804FB 		ldr	pc, [sp], #4
 1652              		.cfi_endproc
 1653              	.LFE287:
 1654              		.size	hci_le_set_scan_parameters, .-hci_le_set_scan_parameters
 1655 0992 00BF     		.align	2
 1656 0994 AFF30080 		.p2align 4,,15
 1656      AFF30080 
 1656      AFF30080 
 1657              		.global	hci_le_set_scan_enable
 1658              		.thumb
 1659              		.thumb_func
 1660              		.type	hci_le_set_scan_enable, %function
 1661              	hci_le_set_scan_enable:
 1662              	.LFB288:
 1663              		.loc 1 590 0
 1664              		.cfi_startproc
 1665              		@ args = 0, pretend = 0, frame = 40
 1666              		@ frame_needed = 0, uses_anonymous_args = 0
 1667 09a0 00B5     		push	{lr}
 1668              		.cfi_def_cfa_offset 4
 1669              		.cfi_offset 14, -4
 1670 09a2 8BB0     		sub	sp, sp, #44
 1671              		.cfi_def_cfa_offset 48
 1672 09a4 0246     		mov	r2, r0
 1673 09a6 0B46     		mov	r3, r1
 1674 09a8 8DF80720 		strb	r2, [sp, #7]
 1675 09ac 8DF80630 		strb	r3, [sp, #6]
 1676              		.loc 1 595 0
 1677 09b0 03AB     		add	r3, sp, #12
 1678 09b2 1846     		mov	r0, r3
 1679 09b4 0021     		movs	r1, #0
 1680 09b6 0222     		movs	r2, #2
 1681 09b8 FFF7FEFF 		bl	Osal_MemSet
 1682              		.loc 1 596 0
 1683 09bc 9DF80730 		ldrb	r3, [sp, #7]	@ zero_extendqisi2
 1684 09c0 002B     		cmp	r3, #0
 1685 09c2 0CBF     		ite	eq
 1686 09c4 0023     		moveq	r3, #0
 1687 09c6 0123     		movne	r3, #1
 1688 09c8 DBB2     		uxtb	r3, r3
 1689 09ca 8DF80C30 		strb	r3, [sp, #12]
ARM GAS  /tmp/ccDGRO0L.s 			page 31


 1690              		.loc 1 597 0
 1691 09ce 9DF80630 		ldrb	r3, [sp, #6]
 1692 09d2 8DF80D30 		strb	r3, [sp, #13]
 1693              		.loc 1 599 0
 1694 09d6 04AB     		add	r3, sp, #16
 1695 09d8 1846     		mov	r0, r3
 1696 09da 0021     		movs	r1, #0
 1697 09dc 1822     		movs	r2, #24
 1698 09de FFF7FEFF 		bl	Osal_MemSet
 1699              		.loc 1 600 0
 1700 09e2 0823     		movs	r3, #8
 1701 09e4 ADF81030 		strh	r3, [sp, #16]	@ movhi
 1702              		.loc 1 601 0
 1703 09e8 0C23     		movs	r3, #12
 1704 09ea ADF81230 		strh	r3, [sp, #18]	@ movhi
 1705              		.loc 1 602 0
 1706 09ee 03AB     		add	r3, sp, #12
 1707 09f0 0693     		str	r3, [sp, #24]
 1708              		.loc 1 603 0
 1709 09f2 0223     		movs	r3, #2
 1710 09f4 0793     		str	r3, [sp, #28]
 1711              		.loc 1 604 0
 1712 09f6 0DF10B03 		add	r3, sp, #11
 1713 09fa 0893     		str	r3, [sp, #32]
 1714              		.loc 1 605 0
 1715 09fc 0123     		movs	r3, #1
 1716 09fe 0993     		str	r3, [sp, #36]
 1717              		.loc 1 607 0
 1718 0a00 04AB     		add	r3, sp, #16
 1719 0a02 1846     		mov	r0, r3
 1720 0a04 0021     		movs	r1, #0
 1721 0a06 FFF7FEFF 		bl	hci_send_req
 1722 0a0a 0346     		mov	r3, r0
 1723 0a0c 002B     		cmp	r3, #0
 1724 0a0e 01DA     		bge	.L113
 1725              		.loc 1 608 0
 1726 0a10 FF23     		movs	r3, #255
 1727 0a12 01E0     		b	.L115
 1728              	.L113:
 1729              		.loc 1 610 0
 1730 0a14 9DF80B30 		ldrb	r3, [sp, #11]	@ zero_extendqisi2
 1731              	.L115:
 1732              		.loc 1 611 0
 1733 0a18 1846     		mov	r0, r3
 1734 0a1a 0BB0     		add	sp, sp, #44
 1735              		@ sp needed
 1736 0a1c 5DF804FB 		ldr	pc, [sp], #4
 1737              		.cfi_endproc
 1738              	.LFE288:
 1739              		.size	hci_le_set_scan_enable, .-hci_le_set_scan_enable
 1740              		.align	2
 1741              		.p2align 4,,15
 1742              		.global	hci_le_rand
 1743              		.thumb
 1744              		.thumb_func
 1745              		.type	hci_le_rand, %function
 1746              	hci_le_rand:
ARM GAS  /tmp/ccDGRO0L.s 			page 32


 1747              	.LFB289:
 1748              		.loc 1 614 0
 1749              		.cfi_startproc
 1750              		@ args = 0, pretend = 0, frame = 48
 1751              		@ frame_needed = 0, uses_anonymous_args = 0
 1752 0a20 00B5     		push	{lr}
 1753              		.cfi_def_cfa_offset 4
 1754              		.cfi_offset 14, -4
 1755 0a22 8DB0     		sub	sp, sp, #52
 1756              		.cfi_def_cfa_offset 56
 1757 0a24 0190     		str	r0, [sp, #4]
 1758              		.loc 1 618 0
 1759 0a26 03AB     		add	r3, sp, #12
 1760 0a28 1846     		mov	r0, r3
 1761 0a2a 0021     		movs	r1, #0
 1762 0a2c 0922     		movs	r2, #9
 1763 0a2e FFF7FEFF 		bl	Osal_MemSet
 1764              		.loc 1 620 0
 1765 0a32 06AB     		add	r3, sp, #24
 1766 0a34 1846     		mov	r0, r3
 1767 0a36 0021     		movs	r1, #0
 1768 0a38 1822     		movs	r2, #24
 1769 0a3a FFF7FEFF 		bl	Osal_MemSet
 1770              		.loc 1 621 0
 1771 0a3e 0823     		movs	r3, #8
 1772 0a40 ADF81830 		strh	r3, [sp, #24]	@ movhi
 1773              		.loc 1 622 0
 1774 0a44 1823     		movs	r3, #24
 1775 0a46 ADF81A30 		strh	r3, [sp, #26]	@ movhi
 1776              		.loc 1 623 0
 1777 0a4a 0023     		movs	r3, #0
 1778 0a4c 0893     		str	r3, [sp, #32]
 1779              		.loc 1 624 0
 1780 0a4e 0023     		movs	r3, #0
 1781 0a50 0993     		str	r3, [sp, #36]
 1782              		.loc 1 625 0
 1783 0a52 03AB     		add	r3, sp, #12
 1784 0a54 0A93     		str	r3, [sp, #40]
 1785              		.loc 1 626 0
 1786 0a56 0923     		movs	r3, #9
 1787 0a58 0B93     		str	r3, [sp, #44]
 1788              		.loc 1 628 0
 1789 0a5a 06AB     		add	r3, sp, #24
 1790 0a5c 1846     		mov	r0, r3
 1791 0a5e 0021     		movs	r1, #0
 1792 0a60 FFF7FEFF 		bl	hci_send_req
 1793 0a64 0346     		mov	r3, r0
 1794 0a66 002B     		cmp	r3, #0
 1795 0a68 01DA     		bge	.L117
 1796              		.loc 1 629 0
 1797 0a6a FF23     		movs	r3, #255
 1798 0a6c 0EE0     		b	.L120
 1799              	.L117:
 1800              		.loc 1 631 0
 1801 0a6e 9DF80C30 		ldrb	r3, [sp, #12]	@ zero_extendqisi2
 1802 0a72 002B     		cmp	r3, #0
 1803 0a74 02D0     		beq	.L119
ARM GAS  /tmp/ccDGRO0L.s 			page 33


 1804              		.loc 1 632 0
 1805 0a76 9DF80C30 		ldrb	r3, [sp, #12]	@ zero_extendqisi2
 1806 0a7a 07E0     		b	.L120
 1807              	.L119:
 1808              		.loc 1 635 0
 1809 0a7c 03AB     		add	r3, sp, #12
 1810 0a7e 0133     		adds	r3, r3, #1
 1811 0a80 0198     		ldr	r0, [sp, #4]
 1812 0a82 1946     		mov	r1, r3
 1813 0a84 0822     		movs	r2, #8
 1814 0a86 FFF7FEFF 		bl	Osal_MemCpy
 1815              		.loc 1 637 0
 1816 0a8a 0023     		movs	r3, #0
 1817              	.L120:
 1818              		.loc 1 638 0
 1819 0a8c 1846     		mov	r0, r3
 1820 0a8e 0DB0     		add	sp, sp, #52
 1821              		@ sp needed
 1822 0a90 5DF804FB 		ldr	pc, [sp], #4
 1823              		.cfi_endproc
 1824              	.LFE289:
 1825              		.size	hci_le_rand, .-hci_le_rand
 1826              		.align	2
 1827 0a94 AFF30080 		.p2align 4,,15
 1827      AFF30080 
 1827      AFF30080 
 1828              		.global	hci_le_set_scan_resp_data
 1829              		.thumb
 1830              		.thumb_func
 1831              		.type	hci_le_set_scan_resp_data, %function
 1832              	hci_le_set_scan_resp_data:
 1833              	.LFB290:
 1834              		.loc 1 641 0
 1835              		.cfi_startproc
 1836              		@ args = 0, pretend = 0, frame = 72
 1837              		@ frame_needed = 0, uses_anonymous_args = 0
 1838 0aa0 00B5     		push	{lr}
 1839              		.cfi_def_cfa_offset 4
 1840              		.cfi_offset 14, -4
 1841 0aa2 93B0     		sub	sp, sp, #76
 1842              		.cfi_def_cfa_offset 80
 1843 0aa4 0346     		mov	r3, r0
 1844 0aa6 0091     		str	r1, [sp]
 1845 0aa8 8DF80730 		strb	r3, [sp, #7]
 1846              		.loc 1 646 0
 1847 0aac 04AB     		add	r3, sp, #16
 1848 0aae 1846     		mov	r0, r3
 1849 0ab0 0021     		movs	r1, #0
 1850 0ab2 2022     		movs	r2, #32
 1851 0ab4 FFF7FEFF 		bl	Osal_MemSet
 1852              		.loc 1 647 0
 1853 0ab8 9DF80730 		ldrb	r3, [sp, #7]
 1854 0abc 8DF81030 		strb	r3, [sp, #16]
 1855              		.loc 1 648 0
 1856 0ac0 9DF80730 		ldrb	r3, [sp, #7]	@ zero_extendqisi2
 1857 0ac4 1F2B     		cmp	r3, #31
 1858 0ac6 02D8     		bhi	.L122
ARM GAS  /tmp/ccDGRO0L.s 			page 34


 1859              		.loc 1 648 0 is_stmt 0 discriminator 1
 1860 0ac8 9DF80730 		ldrb	r3, [sp, #7]	@ zero_extendqisi2
 1861 0acc 00E0     		b	.L123
 1862              	.L122:
 1863              		.loc 1 648 0 discriminator 2
 1864 0ace 1F23     		movs	r3, #31
 1865              	.L123:
 1866              		.loc 1 648 0 discriminator 3
 1867 0ad0 04AA     		add	r2, sp, #16
 1868 0ad2 0132     		adds	r2, r2, #1
 1869 0ad4 1046     		mov	r0, r2
 1870 0ad6 0099     		ldr	r1, [sp]
 1871 0ad8 1A46     		mov	r2, r3
 1872 0ada FFF7FEFF 		bl	Osal_MemCpy
 1873              		.loc 1 650 0 is_stmt 1 discriminator 3
 1874 0ade 0CAB     		add	r3, sp, #48
 1875 0ae0 1846     		mov	r0, r3
 1876 0ae2 0021     		movs	r1, #0
 1877 0ae4 1822     		movs	r2, #24
 1878 0ae6 FFF7FEFF 		bl	Osal_MemSet
 1879              		.loc 1 651 0 discriminator 3
 1880 0aea 0823     		movs	r3, #8
 1881 0aec ADF83030 		strh	r3, [sp, #48]	@ movhi
 1882              		.loc 1 652 0 discriminator 3
 1883 0af0 0923     		movs	r3, #9
 1884 0af2 ADF83230 		strh	r3, [sp, #50]	@ movhi
 1885              		.loc 1 653 0 discriminator 3
 1886 0af6 04AB     		add	r3, sp, #16
 1887 0af8 0E93     		str	r3, [sp, #56]
 1888              		.loc 1 654 0 discriminator 3
 1889 0afa 2023     		movs	r3, #32
 1890 0afc 0F93     		str	r3, [sp, #60]
 1891              		.loc 1 655 0 discriminator 3
 1892 0afe 0DF10F03 		add	r3, sp, #15
 1893 0b02 1093     		str	r3, [sp, #64]
 1894              		.loc 1 656 0 discriminator 3
 1895 0b04 0123     		movs	r3, #1
 1896 0b06 1193     		str	r3, [sp, #68]
 1897              		.loc 1 658 0 discriminator 3
 1898 0b08 0CAB     		add	r3, sp, #48
 1899 0b0a 1846     		mov	r0, r3
 1900 0b0c 0021     		movs	r1, #0
 1901 0b0e FFF7FEFF 		bl	hci_send_req
 1902 0b12 0346     		mov	r3, r0
 1903 0b14 002B     		cmp	r3, #0
 1904 0b16 01DA     		bge	.L124
 1905              		.loc 1 659 0
 1906 0b18 FF23     		movs	r3, #255
 1907 0b1a 01E0     		b	.L126
 1908              	.L124:
 1909              		.loc 1 661 0
 1910 0b1c 9DF80F30 		ldrb	r3, [sp, #15]	@ zero_extendqisi2
 1911              	.L126:
 1912              		.loc 1 662 0
 1913 0b20 1846     		mov	r0, r3
 1914 0b22 13B0     		add	sp, sp, #76
 1915              		@ sp needed
ARM GAS  /tmp/ccDGRO0L.s 			page 35


 1916 0b24 5DF804FB 		ldr	pc, [sp], #4
 1917              		.cfi_endproc
 1918              	.LFE290:
 1919              		.size	hci_le_set_scan_resp_data, .-hci_le_set_scan_resp_data
 1920              		.align	2
 1921 0b28 AFF30080 		.p2align 4,,15
 1921      AFF30080 
 1922              		.global	hci_le_read_advertising_channel_tx_power
 1923              		.thumb
 1924              		.thumb_func
 1925              		.type	hci_le_read_advertising_channel_tx_power, %function
 1926              	hci_le_read_advertising_channel_tx_power:
 1927              	.LFB291:
 1928              		.loc 1 665 0
 1929              		.cfi_startproc
 1930              		@ args = 0, pretend = 0, frame = 40
 1931              		@ frame_needed = 0, uses_anonymous_args = 0
 1932 0b30 00B5     		push	{lr}
 1933              		.cfi_def_cfa_offset 4
 1934              		.cfi_offset 14, -4
 1935 0b32 8BB0     		sub	sp, sp, #44
 1936              		.cfi_def_cfa_offset 48
 1937 0b34 0190     		str	r0, [sp, #4]
 1938              		.loc 1 669 0
 1939 0b36 03AB     		add	r3, sp, #12
 1940 0b38 1846     		mov	r0, r3
 1941 0b3a 0021     		movs	r1, #0
 1942 0b3c 0222     		movs	r2, #2
 1943 0b3e FFF7FEFF 		bl	Osal_MemSet
 1944              		.loc 1 671 0
 1945 0b42 04AB     		add	r3, sp, #16
 1946 0b44 1846     		mov	r0, r3
 1947 0b46 0021     		movs	r1, #0
 1948 0b48 1822     		movs	r2, #24
 1949 0b4a FFF7FEFF 		bl	Osal_MemSet
 1950              		.loc 1 672 0
 1951 0b4e 0823     		movs	r3, #8
 1952 0b50 ADF81030 		strh	r3, [sp, #16]	@ movhi
 1953              		.loc 1 673 0
 1954 0b54 0723     		movs	r3, #7
 1955 0b56 ADF81230 		strh	r3, [sp, #18]	@ movhi
 1956              		.loc 1 674 0
 1957 0b5a 0023     		movs	r3, #0
 1958 0b5c 0693     		str	r3, [sp, #24]
 1959              		.loc 1 675 0
 1960 0b5e 0023     		movs	r3, #0
 1961 0b60 0793     		str	r3, [sp, #28]
 1962              		.loc 1 676 0
 1963 0b62 03AB     		add	r3, sp, #12
 1964 0b64 0893     		str	r3, [sp, #32]
 1965              		.loc 1 677 0
 1966 0b66 0923     		movs	r3, #9
 1967 0b68 0993     		str	r3, [sp, #36]
 1968              		.loc 1 679 0
 1969 0b6a 04AB     		add	r3, sp, #16
 1970 0b6c 1846     		mov	r0, r3
 1971 0b6e 0021     		movs	r1, #0
ARM GAS  /tmp/ccDGRO0L.s 			page 36


 1972 0b70 FFF7FEFF 		bl	hci_send_req
 1973 0b74 0346     		mov	r3, r0
 1974 0b76 002B     		cmp	r3, #0
 1975 0b78 01DA     		bge	.L128
 1976              		.loc 1 680 0
 1977 0b7a FF23     		movs	r3, #255
 1978 0b7c 0BE0     		b	.L131
 1979              	.L128:
 1980              		.loc 1 682 0
 1981 0b7e 9DF80C30 		ldrb	r3, [sp, #12]	@ zero_extendqisi2
 1982 0b82 002B     		cmp	r3, #0
 1983 0b84 02D0     		beq	.L130
 1984              		.loc 1 683 0
 1985 0b86 9DF80C30 		ldrb	r3, [sp, #12]	@ zero_extendqisi2
 1986 0b8a 04E0     		b	.L131
 1987              	.L130:
 1988              		.loc 1 686 0
 1989 0b8c 9DF80D20 		ldrb	r2, [sp, #13]	@ zero_extendqisi2
 1990 0b90 019B     		ldr	r3, [sp, #4]
 1991 0b92 1A70     		strb	r2, [r3]
 1992              		.loc 1 688 0
 1993 0b94 0023     		movs	r3, #0
 1994              	.L131:
 1995              		.loc 1 689 0
 1996 0b96 1846     		mov	r0, r3
 1997 0b98 0BB0     		add	sp, sp, #44
 1998              		@ sp needed
 1999 0b9a 5DF804FB 		ldr	pc, [sp], #4
 2000              		.cfi_endproc
 2001              	.LFE291:
 2002              		.size	hci_le_read_advertising_channel_tx_power, .-hci_le_read_advertising_channel_tx_power
 2003 0b9e 00BF     		.align	2
 2004              		.p2align 4,,15
 2005              		.global	hci_le_set_random_address
 2006              		.thumb
 2007              		.thumb_func
 2008              		.type	hci_le_set_random_address, %function
 2009              	hci_le_set_random_address:
 2010              	.LFB292:
 2011              		.loc 1 692 0
 2012              		.cfi_startproc
 2013              		@ args = 0, pretend = 0, frame = 48
 2014              		@ frame_needed = 0, uses_anonymous_args = 0
 2015 0ba0 00B5     		push	{lr}
 2016              		.cfi_def_cfa_offset 4
 2017              		.cfi_offset 14, -4
 2018 0ba2 8DB0     		sub	sp, sp, #52
 2019              		.cfi_def_cfa_offset 56
 2020 0ba4 0190     		str	r0, [sp, #4]
 2021              		.loc 1 697 0
 2022 0ba6 04AB     		add	r3, sp, #16
 2023 0ba8 1846     		mov	r0, r3
 2024 0baa 0021     		movs	r1, #0
 2025 0bac 0622     		movs	r2, #6
 2026 0bae FFF7FEFF 		bl	Osal_MemSet
 2027              		.loc 1 698 0
 2028 0bb2 04AB     		add	r3, sp, #16
ARM GAS  /tmp/ccDGRO0L.s 			page 37


 2029 0bb4 1846     		mov	r0, r3
 2030 0bb6 0199     		ldr	r1, [sp, #4]
 2031 0bb8 0622     		movs	r2, #6
 2032 0bba FFF7FEFF 		bl	Osal_MemCpy
 2033              		.loc 1 700 0
 2034 0bbe 06AB     		add	r3, sp, #24
 2035 0bc0 1846     		mov	r0, r3
 2036 0bc2 0021     		movs	r1, #0
 2037 0bc4 1822     		movs	r2, #24
 2038 0bc6 FFF7FEFF 		bl	Osal_MemSet
 2039              		.loc 1 701 0
 2040 0bca 0823     		movs	r3, #8
 2041 0bcc ADF81830 		strh	r3, [sp, #24]	@ movhi
 2042              		.loc 1 702 0
 2043 0bd0 0523     		movs	r3, #5
 2044 0bd2 ADF81A30 		strh	r3, [sp, #26]	@ movhi
 2045              		.loc 1 703 0
 2046 0bd6 04AB     		add	r3, sp, #16
 2047 0bd8 0893     		str	r3, [sp, #32]
 2048              		.loc 1 704 0
 2049 0bda 0623     		movs	r3, #6
 2050 0bdc 0993     		str	r3, [sp, #36]
 2051              		.loc 1 705 0
 2052 0bde 0DF10F03 		add	r3, sp, #15
 2053 0be2 0A93     		str	r3, [sp, #40]
 2054              		.loc 1 706 0
 2055 0be4 0123     		movs	r3, #1
 2056 0be6 0B93     		str	r3, [sp, #44]
 2057              		.loc 1 708 0
 2058 0be8 06AB     		add	r3, sp, #24
 2059 0bea 1846     		mov	r0, r3
 2060 0bec 0021     		movs	r1, #0
 2061 0bee FFF7FEFF 		bl	hci_send_req
 2062 0bf2 0346     		mov	r3, r0
 2063 0bf4 002B     		cmp	r3, #0
 2064 0bf6 01DA     		bge	.L133
 2065              		.loc 1 709 0
 2066 0bf8 FF23     		movs	r3, #255
 2067 0bfa 01E0     		b	.L135
 2068              	.L133:
 2069              		.loc 1 711 0
 2070 0bfc 9DF80F30 		ldrb	r3, [sp, #15]	@ zero_extendqisi2
 2071              	.L135:
 2072              		.loc 1 712 0
 2073 0c00 1846     		mov	r0, r3
 2074 0c02 0DB0     		add	sp, sp, #52
 2075              		@ sp needed
 2076 0c04 5DF804FB 		ldr	pc, [sp], #4
 2077              		.cfi_endproc
 2078              	.LFE292:
 2079              		.size	hci_le_set_random_address, .-hci_le_set_random_address
 2080              		.align	2
 2081 0c08 AFF30080 		.p2align 4,,15
 2081      AFF30080 
 2082              		.global	hci_read_bd_addr
 2083              		.thumb
 2084              		.thumb_func
ARM GAS  /tmp/ccDGRO0L.s 			page 38


 2085              		.type	hci_read_bd_addr, %function
 2086              	hci_read_bd_addr:
 2087              	.LFB293:
 2088              		.loc 1 715 0
 2089              		.cfi_startproc
 2090              		@ args = 0, pretend = 0, frame = 40
 2091              		@ frame_needed = 0, uses_anonymous_args = 0
 2092 0c10 00B5     		push	{lr}
 2093              		.cfi_def_cfa_offset 4
 2094              		.cfi_offset 14, -4
 2095 0c12 8BB0     		sub	sp, sp, #44
 2096              		.cfi_def_cfa_offset 48
 2097 0c14 0190     		str	r0, [sp, #4]
 2098              		.loc 1 719 0
 2099 0c16 02AB     		add	r3, sp, #8
 2100 0c18 1846     		mov	r0, r3
 2101 0c1a 0021     		movs	r1, #0
 2102 0c1c 0722     		movs	r2, #7
 2103 0c1e FFF7FEFF 		bl	Osal_MemSet
 2104              		.loc 1 721 0
 2105 0c22 04AB     		add	r3, sp, #16
 2106 0c24 1846     		mov	r0, r3
 2107 0c26 0021     		movs	r1, #0
 2108 0c28 1822     		movs	r2, #24
 2109 0c2a FFF7FEFF 		bl	Osal_MemSet
 2110              		.loc 1 722 0
 2111 0c2e 0423     		movs	r3, #4
 2112 0c30 ADF81030 		strh	r3, [sp, #16]	@ movhi
 2113              		.loc 1 723 0
 2114 0c34 0923     		movs	r3, #9
 2115 0c36 ADF81230 		strh	r3, [sp, #18]	@ movhi
 2116              		.loc 1 724 0
 2117 0c3a 0023     		movs	r3, #0
 2118 0c3c 0693     		str	r3, [sp, #24]
 2119              		.loc 1 725 0
 2120 0c3e 0023     		movs	r3, #0
 2121 0c40 0793     		str	r3, [sp, #28]
 2122              		.loc 1 726 0
 2123 0c42 02AB     		add	r3, sp, #8
 2124 0c44 0893     		str	r3, [sp, #32]
 2125              		.loc 1 727 0
 2126 0c46 0723     		movs	r3, #7
 2127 0c48 0993     		str	r3, [sp, #36]
 2128              		.loc 1 729 0
 2129 0c4a 04AB     		add	r3, sp, #16
 2130 0c4c 1846     		mov	r0, r3
 2131 0c4e 0021     		movs	r1, #0
 2132 0c50 FFF7FEFF 		bl	hci_send_req
 2133 0c54 0346     		mov	r3, r0
 2134 0c56 002B     		cmp	r3, #0
 2135 0c58 01DA     		bge	.L137
 2136              		.loc 1 730 0
 2137 0c5a FF23     		movs	r3, #255
 2138 0c5c 0EE0     		b	.L140
 2139              	.L137:
 2140              		.loc 1 732 0
 2141 0c5e 9DF80830 		ldrb	r3, [sp, #8]	@ zero_extendqisi2
ARM GAS  /tmp/ccDGRO0L.s 			page 39


 2142 0c62 002B     		cmp	r3, #0
 2143 0c64 02D0     		beq	.L139
 2144              		.loc 1 733 0
 2145 0c66 9DF80830 		ldrb	r3, [sp, #8]	@ zero_extendqisi2
 2146 0c6a 07E0     		b	.L140
 2147              	.L139:
 2148              		.loc 1 735 0
 2149 0c6c 02AB     		add	r3, sp, #8
 2150 0c6e 0133     		adds	r3, r3, #1
 2151 0c70 0198     		ldr	r0, [sp, #4]
 2152 0c72 1946     		mov	r1, r3
 2153 0c74 0622     		movs	r2, #6
 2154 0c76 FFF7FEFF 		bl	Osal_MemCpy
 2155              		.loc 1 737 0
 2156 0c7a 0023     		movs	r3, #0
 2157              	.L140:
 2158              		.loc 1 738 0
 2159 0c7c 1846     		mov	r0, r3
 2160 0c7e 0BB0     		add	sp, sp, #44
 2161              		@ sp needed
 2162 0c80 5DF804FB 		ldr	pc, [sp], #4
 2163              		.cfi_endproc
 2164              	.LFE293:
 2165              		.size	hci_read_bd_addr, .-hci_read_bd_addr
 2166              		.align	2
 2167 0c84 AFF30080 		.p2align 4,,15
 2167      AFF30080 
 2167      AFF30080 
 2168              		.global	hci_le_create_connection
 2169              		.thumb
 2170              		.thumb_func
 2171              		.type	hci_le_create_connection, %function
 2172              	hci_le_create_connection:
 2173              	.LFB294:
 2174              		.loc 1 743 0
 2175              		.cfi_startproc
 2176              		@ args = 32, pretend = 0, frame = 64
 2177              		@ frame_needed = 0, uses_anonymous_args = 0
 2178 0c90 00B5     		push	{lr}
 2179              		.cfi_def_cfa_offset 4
 2180              		.cfi_offset 14, -4
 2181 0c92 91B0     		sub	sp, sp, #68
 2182              		.cfi_def_cfa_offset 72
 2183 0c94 ADF80600 		strh	r0, [sp, #6]	@ movhi
 2184 0c98 ADF80410 		strh	r1, [sp, #4]	@ movhi
 2185 0c9c 8DF80320 		strb	r2, [sp, #3]
 2186 0ca0 8DF80230 		strb	r3, [sp, #2]
 2187              		.loc 1 748 0
 2188 0ca4 03AB     		add	r3, sp, #12
 2189 0ca6 1846     		mov	r0, r3
 2190 0ca8 0021     		movs	r1, #0
 2191 0caa 1922     		movs	r2, #25
 2192 0cac FFF7FEFF 		bl	Osal_MemSet
 2193              		.loc 1 749 0
 2194 0cb0 BDF80630 		ldrh	r3, [sp, #6]	@ movhi
 2195 0cb4 ADF80C30 		strh	r3, [sp, #12]	@ movhi
 2196              		.loc 1 750 0
ARM GAS  /tmp/ccDGRO0L.s 			page 40


 2197 0cb8 BDF80430 		ldrh	r3, [sp, #4]	@ movhi
 2198 0cbc ADF80E30 		strh	r3, [sp, #14]	@ movhi
 2199              		.loc 1 751 0
 2200 0cc0 9DF80330 		ldrb	r3, [sp, #3]
 2201 0cc4 8DF81030 		strb	r3, [sp, #16]
 2202              		.loc 1 752 0
 2203 0cc8 9DF80230 		ldrb	r3, [sp, #2]
 2204 0ccc 8DF81130 		strb	r3, [sp, #17]
 2205              		.loc 1 753 0
 2206 0cd0 03AB     		add	r3, sp, #12
 2207 0cd2 0633     		adds	r3, r3, #6
 2208 0cd4 1846     		mov	r0, r3
 2209 0cd6 1299     		ldr	r1, [sp, #72]
 2210 0cd8 0622     		movs	r2, #6
 2211 0cda FFF7FEFF 		bl	Osal_MemCpy
 2212              		.loc 1 754 0
 2213 0cde 9DF84C30 		ldrb	r3, [sp, #76]
 2214 0ce2 8DF81830 		strb	r3, [sp, #24]
 2215              		.loc 1 755 0
 2216 0ce6 BDF85030 		ldrh	r3, [sp, #80]	@ movhi
 2217 0cea ADF81930 		strh	r3, [sp, #25]	@ unaligned
 2218              		.loc 1 756 0
 2219 0cee BDF85430 		ldrh	r3, [sp, #84]	@ movhi
 2220 0cf2 ADF81B30 		strh	r3, [sp, #27]	@ unaligned
 2221              		.loc 1 757 0
 2222 0cf6 BDF85830 		ldrh	r3, [sp, #88]	@ movhi
 2223 0cfa ADF81D30 		strh	r3, [sp, #29]	@ unaligned
 2224              		.loc 1 758 0
 2225 0cfe BDF85C30 		ldrh	r3, [sp, #92]	@ movhi
 2226 0d02 ADF81F30 		strh	r3, [sp, #31]	@ unaligned
 2227              		.loc 1 759 0
 2228 0d06 BDF86030 		ldrh	r3, [sp, #96]	@ movhi
 2229 0d0a ADF82130 		strh	r3, [sp, #33]	@ unaligned
 2230              		.loc 1 760 0
 2231 0d0e BDF86430 		ldrh	r3, [sp, #100]	@ movhi
 2232 0d12 ADF82330 		strh	r3, [sp, #35]	@ unaligned
 2233              		.loc 1 762 0
 2234 0d16 0AAB     		add	r3, sp, #40
 2235 0d18 1846     		mov	r0, r3
 2236 0d1a 0021     		movs	r1, #0
 2237 0d1c 1822     		movs	r2, #24
 2238 0d1e FFF7FEFF 		bl	Osal_MemSet
 2239              		.loc 1 763 0
 2240 0d22 0823     		movs	r3, #8
 2241 0d24 ADF82830 		strh	r3, [sp, #40]	@ movhi
 2242              		.loc 1 764 0
 2243 0d28 0D23     		movs	r3, #13
 2244 0d2a ADF82A30 		strh	r3, [sp, #42]	@ movhi
 2245              		.loc 1 765 0
 2246 0d2e 03AB     		add	r3, sp, #12
 2247 0d30 0C93     		str	r3, [sp, #48]
 2248              		.loc 1 766 0
 2249 0d32 1923     		movs	r3, #25
 2250 0d34 0D93     		str	r3, [sp, #52]
 2251              		.loc 1 767 0
 2252 0d36 0F23     		movs	r3, #15
 2253 0d38 0B93     		str	r3, [sp, #44]
ARM GAS  /tmp/ccDGRO0L.s 			page 41


 2254              		.loc 1 768 0
 2255 0d3a 0DF10B03 		add	r3, sp, #11
 2256 0d3e 0E93     		str	r3, [sp, #56]
 2257              		.loc 1 769 0
 2258 0d40 0123     		movs	r3, #1
 2259 0d42 0F93     		str	r3, [sp, #60]
 2260              		.loc 1 771 0
 2261 0d44 0AAB     		add	r3, sp, #40
 2262 0d46 1846     		mov	r0, r3
 2263 0d48 0021     		movs	r1, #0
 2264 0d4a FFF7FEFF 		bl	hci_send_req
 2265 0d4e 0346     		mov	r3, r0
 2266 0d50 002B     		cmp	r3, #0
 2267 0d52 01DA     		bge	.L142
 2268              		.loc 1 772 0
 2269 0d54 FF23     		movs	r3, #255
 2270 0d56 01E0     		b	.L144
 2271              	.L142:
 2272              		.loc 1 774 0
 2273 0d58 9DF80B30 		ldrb	r3, [sp, #11]	@ zero_extendqisi2
 2274              	.L144:
 2275              		.loc 1 775 0
 2276 0d5c 1846     		mov	r0, r3
 2277 0d5e 11B0     		add	sp, sp, #68
 2278              		@ sp needed
 2279 0d60 5DF804FB 		ldr	pc, [sp], #4
 2280              		.cfi_endproc
 2281              	.LFE294:
 2282              		.size	hci_le_create_connection, .-hci_le_create_connection
 2283              		.align	2
 2284 0d64 AFF30080 		.p2align 4,,15
 2284      AFF30080 
 2284      AFF30080 
 2285              		.global	hci_le_create_connection_cancel
 2286              		.thumb
 2287              		.thumb_func
 2288              		.type	hci_le_create_connection_cancel, %function
 2289              	hci_le_create_connection_cancel:
 2290              	.LFB295:
 2291              		.loc 1 778 0
 2292              		.cfi_startproc
 2293              		@ args = 0, pretend = 0, frame = 32
 2294              		@ frame_needed = 0, uses_anonymous_args = 0
 2295 0d70 00B5     		push	{lr}
 2296              		.cfi_def_cfa_offset 4
 2297              		.cfi_offset 14, -4
 2298 0d72 89B0     		sub	sp, sp, #36
 2299              		.cfi_def_cfa_offset 40
 2300              		.loc 1 782 0
 2301 0d74 02AB     		add	r3, sp, #8
 2302 0d76 1846     		mov	r0, r3
 2303 0d78 0021     		movs	r1, #0
 2304 0d7a 1822     		movs	r2, #24
 2305 0d7c FFF7FEFF 		bl	Osal_MemSet
 2306              		.loc 1 783 0
 2307 0d80 0823     		movs	r3, #8
 2308 0d82 ADF80830 		strh	r3, [sp, #8]	@ movhi
ARM GAS  /tmp/ccDGRO0L.s 			page 42


 2309              		.loc 1 784 0
 2310 0d86 0E23     		movs	r3, #14
 2311 0d88 ADF80A30 		strh	r3, [sp, #10]	@ movhi
 2312              		.loc 1 785 0
 2313 0d8c 0DF10703 		add	r3, sp, #7
 2314 0d90 0693     		str	r3, [sp, #24]
 2315              		.loc 1 786 0
 2316 0d92 0123     		movs	r3, #1
 2317 0d94 0793     		str	r3, [sp, #28]
 2318              		.loc 1 788 0
 2319 0d96 02AB     		add	r3, sp, #8
 2320 0d98 1846     		mov	r0, r3
 2321 0d9a 0021     		movs	r1, #0
 2322 0d9c FFF7FEFF 		bl	hci_send_req
 2323 0da0 0346     		mov	r3, r0
 2324 0da2 002B     		cmp	r3, #0
 2325 0da4 01DA     		bge	.L146
 2326              		.loc 1 789 0
 2327 0da6 FF23     		movs	r3, #255
 2328 0da8 01E0     		b	.L148
 2329              	.L146:
 2330              		.loc 1 791 0
 2331 0daa 9DF80730 		ldrb	r3, [sp, #7]	@ zero_extendqisi2
 2332              	.L148:
 2333              		.loc 1 792 0
 2334 0dae 1846     		mov	r0, r3
 2335 0db0 09B0     		add	sp, sp, #36
 2336              		@ sp needed
 2337 0db2 5DF804FB 		ldr	pc, [sp], #4
 2338              		.cfi_endproc
 2339              	.LFE295:
 2340              		.size	hci_le_create_connection_cancel, .-hci_le_create_connection_cancel
 2341 0db6 00BF     		.align	2
 2342 0db8 AFF30080 		.p2align 4,,15
 2342      AFF30080 
 2343              		.global	hci_le_encrypt
 2344              		.thumb
 2345              		.thumb_func
 2346              		.type	hci_le_encrypt, %function
 2347              	hci_le_encrypt:
 2348              	.LFB296:
 2349              		.loc 1 795 0
 2350              		.cfi_startproc
 2351              		@ args = 0, pretend = 0, frame = 96
 2352              		@ frame_needed = 0, uses_anonymous_args = 0
 2353 0dc0 00B5     		push	{lr}
 2354              		.cfi_def_cfa_offset 4
 2355              		.cfi_offset 14, -4
 2356 0dc2 99B0     		sub	sp, sp, #100
 2357              		.cfi_def_cfa_offset 104
 2358 0dc4 0390     		str	r0, [sp, #12]
 2359 0dc6 0291     		str	r1, [sp, #8]
 2360 0dc8 0192     		str	r2, [sp, #4]
 2361              		.loc 1 800 0
 2362 0dca 05AB     		add	r3, sp, #20
 2363 0dcc 1846     		mov	r0, r3
 2364 0dce 0021     		movs	r1, #0
ARM GAS  /tmp/ccDGRO0L.s 			page 43


 2365 0dd0 1122     		movs	r2, #17
 2366 0dd2 FFF7FEFF 		bl	Osal_MemSet
 2367              		.loc 1 802 0
 2368 0dd6 0AAB     		add	r3, sp, #40
 2369 0dd8 1846     		mov	r0, r3
 2370 0dda 0399     		ldr	r1, [sp, #12]
 2371 0ddc 1022     		movs	r2, #16
 2372 0dde FFF7FEFF 		bl	Osal_MemCpy
 2373              		.loc 1 803 0
 2374 0de2 0AAB     		add	r3, sp, #40
 2375 0de4 1033     		adds	r3, r3, #16
 2376 0de6 1846     		mov	r0, r3
 2377 0de8 0299     		ldr	r1, [sp, #8]
 2378 0dea 1022     		movs	r2, #16
 2379 0dec FFF7FEFF 		bl	Osal_MemCpy
 2380              		.loc 1 805 0
 2381 0df0 12AB     		add	r3, sp, #72
 2382 0df2 1846     		mov	r0, r3
 2383 0df4 0021     		movs	r1, #0
 2384 0df6 1822     		movs	r2, #24
 2385 0df8 FFF7FEFF 		bl	Osal_MemSet
 2386              		.loc 1 806 0
 2387 0dfc 0823     		movs	r3, #8
 2388 0dfe ADF84830 		strh	r3, [sp, #72]	@ movhi
 2389              		.loc 1 807 0
 2390 0e02 1723     		movs	r3, #23
 2391 0e04 ADF84A30 		strh	r3, [sp, #74]	@ movhi
 2392              		.loc 1 808 0
 2393 0e08 0AAB     		add	r3, sp, #40
 2394 0e0a 1493     		str	r3, [sp, #80]
 2395              		.loc 1 809 0
 2396 0e0c 2023     		movs	r3, #32
 2397 0e0e 1593     		str	r3, [sp, #84]
 2398              		.loc 1 810 0
 2399 0e10 05AB     		add	r3, sp, #20
 2400 0e12 1693     		str	r3, [sp, #88]
 2401              		.loc 1 811 0
 2402 0e14 1123     		movs	r3, #17
 2403 0e16 1793     		str	r3, [sp, #92]
 2404              		.loc 1 813 0
 2405 0e18 12AB     		add	r3, sp, #72
 2406 0e1a 1846     		mov	r0, r3
 2407 0e1c 0021     		movs	r1, #0
 2408 0e1e FFF7FEFF 		bl	hci_send_req
 2409 0e22 0346     		mov	r3, r0
 2410 0e24 002B     		cmp	r3, #0
 2411 0e26 01DA     		bge	.L150
 2412              		.loc 1 814 0
 2413 0e28 FF23     		movs	r3, #255
 2414 0e2a 0EE0     		b	.L153
 2415              	.L150:
 2416              		.loc 1 817 0
 2417 0e2c 9DF81430 		ldrb	r3, [sp, #20]	@ zero_extendqisi2
 2418 0e30 002B     		cmp	r3, #0
 2419 0e32 02D0     		beq	.L152
 2420              		.loc 1 818 0
 2421 0e34 9DF81430 		ldrb	r3, [sp, #20]	@ zero_extendqisi2
ARM GAS  /tmp/ccDGRO0L.s 			page 44


 2422 0e38 07E0     		b	.L153
 2423              	.L152:
 2424              		.loc 1 821 0
 2425 0e3a 05AB     		add	r3, sp, #20
 2426 0e3c 0133     		adds	r3, r3, #1
 2427 0e3e 0198     		ldr	r0, [sp, #4]
 2428 0e40 1946     		mov	r1, r3
 2429 0e42 1022     		movs	r2, #16
 2430 0e44 FFF7FEFF 		bl	Osal_MemCpy
 2431              		.loc 1 823 0
 2432 0e48 0023     		movs	r3, #0
 2433              	.L153:
 2434              		.loc 1 824 0
 2435 0e4a 1846     		mov	r0, r3
 2436 0e4c 19B0     		add	sp, sp, #100
 2437              		@ sp needed
 2438 0e4e 5DF804FB 		ldr	pc, [sp], #4
 2439              		.cfi_endproc
 2440              	.LFE296:
 2441              		.size	hci_le_encrypt, .-hci_le_encrypt
 2442 0e52 00BF     		.align	2
 2443 0e54 AFF30080 		.p2align 4,,15
 2443      AFF30080 
 2443      AFF30080 
 2444              		.global	hci_le_ltk_request_reply
 2445              		.thumb
 2446              		.thumb_func
 2447              		.type	hci_le_ltk_request_reply, %function
 2448              	hci_le_ltk_request_reply:
 2449              	.LFB297:
 2450              		.loc 1 827 0
 2451              		.cfi_startproc
 2452              		@ args = 0, pretend = 0, frame = 56
 2453              		@ frame_needed = 0, uses_anonymous_args = 0
 2454 0e60 00B5     		push	{lr}
 2455              		.cfi_def_cfa_offset 4
 2456              		.cfi_offset 14, -4
 2457 0e62 8FB0     		sub	sp, sp, #60
 2458              		.cfi_def_cfa_offset 64
 2459 0e64 0190     		str	r0, [sp, #4]
 2460              		.loc 1 832 0
 2461 0e66 02AB     		add	r3, sp, #8
 2462 0e68 1846     		mov	r0, r3
 2463 0e6a 0021     		movs	r1, #0
 2464 0e6c 0322     		movs	r2, #3
 2465 0e6e FFF7FEFF 		bl	Osal_MemSet
 2466              		.loc 1 834 0
 2467 0e72 0123     		movs	r3, #1
 2468 0e74 ADF80C30 		strh	r3, [sp, #12]	@ movhi
 2469              		.loc 1 835 0
 2470 0e78 03AB     		add	r3, sp, #12
 2471 0e7a 0233     		adds	r3, r3, #2
 2472 0e7c 1846     		mov	r0, r3
 2473 0e7e 0199     		ldr	r1, [sp, #4]
 2474 0e80 1022     		movs	r2, #16
 2475 0e82 FFF7FEFF 		bl	Osal_MemCpy
 2476              		.loc 1 837 0
ARM GAS  /tmp/ccDGRO0L.s 			page 45


 2477 0e86 08AB     		add	r3, sp, #32
 2478 0e88 1846     		mov	r0, r3
 2479 0e8a 0021     		movs	r1, #0
 2480 0e8c 1822     		movs	r2, #24
 2481 0e8e FFF7FEFF 		bl	Osal_MemSet
 2482              		.loc 1 838 0
 2483 0e92 0823     		movs	r3, #8
 2484 0e94 ADF82030 		strh	r3, [sp, #32]	@ movhi
 2485              		.loc 1 839 0
 2486 0e98 1A23     		movs	r3, #26
 2487 0e9a ADF82230 		strh	r3, [sp, #34]	@ movhi
 2488              		.loc 1 840 0
 2489 0e9e 03AB     		add	r3, sp, #12
 2490 0ea0 0A93     		str	r3, [sp, #40]
 2491              		.loc 1 841 0
 2492 0ea2 1223     		movs	r3, #18
 2493 0ea4 0B93     		str	r3, [sp, #44]
 2494              		.loc 1 842 0
 2495 0ea6 02AB     		add	r3, sp, #8
 2496 0ea8 0C93     		str	r3, [sp, #48]
 2497              		.loc 1 843 0
 2498 0eaa 0323     		movs	r3, #3
 2499 0eac 0D93     		str	r3, [sp, #52]
 2500              		.loc 1 845 0
 2501 0eae 08AB     		add	r3, sp, #32
 2502 0eb0 1846     		mov	r0, r3
 2503 0eb2 0021     		movs	r1, #0
 2504 0eb4 FFF7FEFF 		bl	hci_send_req
 2505 0eb8 0346     		mov	r3, r0
 2506 0eba 002B     		cmp	r3, #0
 2507 0ebc 01DA     		bge	.L155
 2508              		.loc 1 846 0
 2509 0ebe FF23     		movs	r3, #255
 2510 0ec0 01E0     		b	.L157
 2511              	.L155:
 2512              		.loc 1 848 0
 2513 0ec2 9DF80830 		ldrb	r3, [sp, #8]	@ zero_extendqisi2
 2514              	.L157:
 2515              		.loc 1 849 0
 2516 0ec6 1846     		mov	r0, r3
 2517 0ec8 0FB0     		add	sp, sp, #60
 2518              		@ sp needed
 2519 0eca 5DF804FB 		ldr	pc, [sp], #4
 2520              		.cfi_endproc
 2521              	.LFE297:
 2522              		.size	hci_le_ltk_request_reply, .-hci_le_ltk_request_reply
 2523 0ece 00BF     		.align	2
 2524              		.p2align 4,,15
 2525              		.global	hci_le_ltk_request_neg_reply
 2526              		.thumb
 2527              		.thumb_func
 2528              		.type	hci_le_ltk_request_neg_reply, %function
 2529              	hci_le_ltk_request_neg_reply:
 2530              	.LFB298:
 2531              		.loc 1 852 0
 2532              		.cfi_startproc
 2533              		@ args = 0, pretend = 0, frame = 32
ARM GAS  /tmp/ccDGRO0L.s 			page 46


 2534              		@ frame_needed = 0, uses_anonymous_args = 0
 2535 0ed0 00B5     		push	{lr}
 2536              		.cfi_def_cfa_offset 4
 2537              		.cfi_offset 14, -4
 2538 0ed2 89B0     		sub	sp, sp, #36
 2539              		.cfi_def_cfa_offset 40
 2540              		.loc 1 857 0
 2541 0ed4 6B46     		mov	r3, sp
 2542 0ed6 1846     		mov	r0, r3
 2543 0ed8 0021     		movs	r1, #0
 2544 0eda 0322     		movs	r2, #3
 2545 0edc FFF7FEFF 		bl	Osal_MemSet
 2546              		.loc 1 859 0
 2547 0ee0 0123     		movs	r3, #1
 2548 0ee2 ADF80430 		strh	r3, [sp, #4]	@ movhi
 2549              		.loc 1 861 0
 2550 0ee6 02AB     		add	r3, sp, #8
 2551 0ee8 1846     		mov	r0, r3
 2552 0eea 0021     		movs	r1, #0
 2553 0eec 1822     		movs	r2, #24
 2554 0eee FFF7FEFF 		bl	Osal_MemSet
 2555              		.loc 1 862 0
 2556 0ef2 0823     		movs	r3, #8
 2557 0ef4 ADF80830 		strh	r3, [sp, #8]	@ movhi
 2558              		.loc 1 863 0
 2559 0ef8 1B23     		movs	r3, #27
 2560 0efa ADF80A30 		strh	r3, [sp, #10]	@ movhi
 2561              		.loc 1 864 0
 2562 0efe 01AB     		add	r3, sp, #4
 2563 0f00 0493     		str	r3, [sp, #16]
 2564              		.loc 1 865 0
 2565 0f02 0223     		movs	r3, #2
 2566 0f04 0593     		str	r3, [sp, #20]
 2567              		.loc 1 866 0
 2568 0f06 6B46     		mov	r3, sp
 2569 0f08 0693     		str	r3, [sp, #24]
 2570              		.loc 1 867 0
 2571 0f0a 0323     		movs	r3, #3
 2572 0f0c 0793     		str	r3, [sp, #28]
 2573              		.loc 1 869 0
 2574 0f0e 02AB     		add	r3, sp, #8
 2575 0f10 1846     		mov	r0, r3
 2576 0f12 0021     		movs	r1, #0
 2577 0f14 FFF7FEFF 		bl	hci_send_req
 2578 0f18 0346     		mov	r3, r0
 2579 0f1a 002B     		cmp	r3, #0
 2580 0f1c 01DA     		bge	.L159
 2581              		.loc 1 870 0
 2582 0f1e FF23     		movs	r3, #255
 2583 0f20 01E0     		b	.L161
 2584              	.L159:
 2585              		.loc 1 872 0
 2586 0f22 9DF80030 		ldrb	r3, [sp]	@ zero_extendqisi2
 2587              	.L161:
 2588              		.loc 1 873 0
 2589 0f26 1846     		mov	r0, r3
 2590 0f28 09B0     		add	sp, sp, #36
ARM GAS  /tmp/ccDGRO0L.s 			page 47


 2591              		@ sp needed
 2592 0f2a 5DF804FB 		ldr	pc, [sp], #4
 2593              		.cfi_endproc
 2594              	.LFE298:
 2595              		.size	hci_le_ltk_request_neg_reply, .-hci_le_ltk_request_neg_reply
 2596 0f2e 00BF     		.align	2
 2597              		.p2align 4,,15
 2598              		.global	hci_le_read_white_list_size
 2599              		.thumb
 2600              		.thumb_func
 2601              		.type	hci_le_read_white_list_size, %function
 2602              	hci_le_read_white_list_size:
 2603              	.LFB299:
 2604              		.loc 1 876 0
 2605              		.cfi_startproc
 2606              		@ args = 0, pretend = 0, frame = 40
 2607              		@ frame_needed = 0, uses_anonymous_args = 0
 2608 0f30 00B5     		push	{lr}
 2609              		.cfi_def_cfa_offset 4
 2610              		.cfi_offset 14, -4
 2611 0f32 8BB0     		sub	sp, sp, #44
 2612              		.cfi_def_cfa_offset 48
 2613 0f34 0190     		str	r0, [sp, #4]
 2614              		.loc 1 880 0
 2615 0f36 03AB     		add	r3, sp, #12
 2616 0f38 1846     		mov	r0, r3
 2617 0f3a 0021     		movs	r1, #0
 2618 0f3c 0222     		movs	r2, #2
 2619 0f3e FFF7FEFF 		bl	Osal_MemSet
 2620              		.loc 1 882 0
 2621 0f42 04AB     		add	r3, sp, #16
 2622 0f44 1846     		mov	r0, r3
 2623 0f46 0021     		movs	r1, #0
 2624 0f48 1822     		movs	r2, #24
 2625 0f4a FFF7FEFF 		bl	Osal_MemSet
 2626              		.loc 1 883 0
 2627 0f4e 0823     		movs	r3, #8
 2628 0f50 ADF81030 		strh	r3, [sp, #16]	@ movhi
 2629              		.loc 1 884 0
 2630 0f54 0F23     		movs	r3, #15
 2631 0f56 ADF81230 		strh	r3, [sp, #18]	@ movhi
 2632              		.loc 1 885 0
 2633 0f5a 03AB     		add	r3, sp, #12
 2634 0f5c 0893     		str	r3, [sp, #32]
 2635              		.loc 1 886 0
 2636 0f5e 0223     		movs	r3, #2
 2637 0f60 0993     		str	r3, [sp, #36]
 2638              		.loc 1 888 0
 2639 0f62 04AB     		add	r3, sp, #16
 2640 0f64 1846     		mov	r0, r3
 2641 0f66 0021     		movs	r1, #0
 2642 0f68 FFF7FEFF 		bl	hci_send_req
 2643 0f6c 0346     		mov	r3, r0
 2644 0f6e 002B     		cmp	r3, #0
 2645 0f70 01DA     		bge	.L163
 2646              		.loc 1 889 0
 2647 0f72 FF23     		movs	r3, #255
ARM GAS  /tmp/ccDGRO0L.s 			page 48


 2648 0f74 0BE0     		b	.L166
 2649              	.L163:
 2650              		.loc 1 892 0
 2651 0f76 9DF80C30 		ldrb	r3, [sp, #12]	@ zero_extendqisi2
 2652 0f7a 002B     		cmp	r3, #0
 2653 0f7c 02D0     		beq	.L165
 2654              		.loc 1 893 0
 2655 0f7e 9DF80C30 		ldrb	r3, [sp, #12]	@ zero_extendqisi2
 2656 0f82 04E0     		b	.L166
 2657              	.L165:
 2658              		.loc 1 896 0
 2659 0f84 9DF80D20 		ldrb	r2, [sp, #13]	@ zero_extendqisi2
 2660 0f88 019B     		ldr	r3, [sp, #4]
 2661 0f8a 1A70     		strb	r2, [r3]
 2662              		.loc 1 898 0
 2663 0f8c 0023     		movs	r3, #0
 2664              	.L166:
 2665              		.loc 1 899 0
 2666 0f8e 1846     		mov	r0, r3
 2667 0f90 0BB0     		add	sp, sp, #44
 2668              		@ sp needed
 2669 0f92 5DF804FB 		ldr	pc, [sp], #4
 2670              		.cfi_endproc
 2671              	.LFE299:
 2672              		.size	hci_le_read_white_list_size, .-hci_le_read_white_list_size
 2673 0f96 00BF     		.align	2
 2674 0f98 AFF30080 		.p2align 4,,15
 2674      AFF30080 
 2675              		.global	hci_le_clear_white_list
 2676              		.thumb
 2677              		.thumb_func
 2678              		.type	hci_le_clear_white_list, %function
 2679              	hci_le_clear_white_list:
 2680              	.LFB300:
 2681              		.loc 1 902 0
 2682              		.cfi_startproc
 2683              		@ args = 0, pretend = 0, frame = 32
 2684              		@ frame_needed = 0, uses_anonymous_args = 0
 2685 0fa0 00B5     		push	{lr}
 2686              		.cfi_def_cfa_offset 4
 2687              		.cfi_offset 14, -4
 2688 0fa2 89B0     		sub	sp, sp, #36
 2689              		.cfi_def_cfa_offset 40
 2690              		.loc 1 906 0
 2691 0fa4 02AB     		add	r3, sp, #8
 2692 0fa6 1846     		mov	r0, r3
 2693 0fa8 0021     		movs	r1, #0
 2694 0faa 1822     		movs	r2, #24
 2695 0fac FFF7FEFF 		bl	Osal_MemSet
 2696              		.loc 1 907 0
 2697 0fb0 0823     		movs	r3, #8
 2698 0fb2 ADF80830 		strh	r3, [sp, #8]	@ movhi
 2699              		.loc 1 908 0
 2700 0fb6 1023     		movs	r3, #16
 2701 0fb8 ADF80A30 		strh	r3, [sp, #10]	@ movhi
 2702              		.loc 1 909 0
 2703 0fbc 0DF10703 		add	r3, sp, #7
ARM GAS  /tmp/ccDGRO0L.s 			page 49


 2704 0fc0 0693     		str	r3, [sp, #24]
 2705              		.loc 1 910 0
 2706 0fc2 0123     		movs	r3, #1
 2707 0fc4 0793     		str	r3, [sp, #28]
 2708              		.loc 1 912 0
 2709 0fc6 02AB     		add	r3, sp, #8
 2710 0fc8 1846     		mov	r0, r3
 2711 0fca 0021     		movs	r1, #0
 2712 0fcc FFF7FEFF 		bl	hci_send_req
 2713 0fd0 0346     		mov	r3, r0
 2714 0fd2 002B     		cmp	r3, #0
 2715 0fd4 01DA     		bge	.L168
 2716              		.loc 1 913 0
 2717 0fd6 FF23     		movs	r3, #255
 2718 0fd8 01E0     		b	.L170
 2719              	.L168:
 2720              		.loc 1 916 0
 2721 0fda 9DF80730 		ldrb	r3, [sp, #7]	@ zero_extendqisi2
 2722              	.L170:
 2723              		.loc 1 917 0
 2724 0fde 1846     		mov	r0, r3
 2725 0fe0 09B0     		add	sp, sp, #36
 2726              		@ sp needed
 2727 0fe2 5DF804FB 		ldr	pc, [sp], #4
 2728              		.cfi_endproc
 2729              	.LFE300:
 2730              		.size	hci_le_clear_white_list, .-hci_le_clear_white_list
 2731 0fe6 00BF     		.align	2
 2732 0fe8 AFF30080 		.p2align 4,,15
 2732      AFF30080 
 2733              		.global	hci_le_add_device_to_white_list
 2734              		.thumb
 2735              		.thumb_func
 2736              		.type	hci_le_add_device_to_white_list, %function
 2737              	hci_le_add_device_to_white_list:
 2738              	.LFB301:
 2739              		.loc 1 920 0
 2740              		.cfi_startproc
 2741              		@ args = 0, pretend = 0, frame = 48
 2742              		@ frame_needed = 0, uses_anonymous_args = 0
 2743 0ff0 00B5     		push	{lr}
 2744              		.cfi_def_cfa_offset 4
 2745              		.cfi_offset 14, -4
 2746 0ff2 8DB0     		sub	sp, sp, #52
 2747              		.cfi_def_cfa_offset 56
 2748 0ff4 0346     		mov	r3, r0
 2749 0ff6 0091     		str	r1, [sp]
 2750 0ff8 8DF80730 		strb	r3, [sp, #7]
 2751              		.loc 1 925 0
 2752 0ffc 9DF80730 		ldrb	r3, [sp, #7]
 2753 1000 8DF81030 		strb	r3, [sp, #16]
 2754              		.loc 1 926 0
 2755 1004 04AB     		add	r3, sp, #16
 2756 1006 0133     		adds	r3, r3, #1
 2757 1008 1846     		mov	r0, r3
 2758 100a 0099     		ldr	r1, [sp]
 2759 100c 0622     		movs	r2, #6
ARM GAS  /tmp/ccDGRO0L.s 			page 50


 2760 100e FFF7FEFF 		bl	Osal_MemCpy
 2761              		.loc 1 928 0
 2762 1012 06AB     		add	r3, sp, #24
 2763 1014 1846     		mov	r0, r3
 2764 1016 0021     		movs	r1, #0
 2765 1018 1822     		movs	r2, #24
 2766 101a FFF7FEFF 		bl	Osal_MemSet
 2767              		.loc 1 929 0
 2768 101e 0823     		movs	r3, #8
 2769 1020 ADF81830 		strh	r3, [sp, #24]	@ movhi
 2770              		.loc 1 930 0
 2771 1024 1123     		movs	r3, #17
 2772 1026 ADF81A30 		strh	r3, [sp, #26]	@ movhi
 2773              		.loc 1 931 0
 2774 102a 04AB     		add	r3, sp, #16
 2775 102c 0893     		str	r3, [sp, #32]
 2776              		.loc 1 932 0
 2777 102e 0723     		movs	r3, #7
 2778 1030 0993     		str	r3, [sp, #36]
 2779              		.loc 1 933 0
 2780 1032 0DF10F03 		add	r3, sp, #15
 2781 1036 0A93     		str	r3, [sp, #40]
 2782              		.loc 1 934 0
 2783 1038 0123     		movs	r3, #1
 2784 103a 0B93     		str	r3, [sp, #44]
 2785              		.loc 1 936 0
 2786 103c 06AB     		add	r3, sp, #24
 2787 103e 1846     		mov	r0, r3
 2788 1040 0021     		movs	r1, #0
 2789 1042 FFF7FEFF 		bl	hci_send_req
 2790 1046 0346     		mov	r3, r0
 2791 1048 002B     		cmp	r3, #0
 2792 104a 01DA     		bge	.L172
 2793              		.loc 1 937 0
 2794 104c FF23     		movs	r3, #255
 2795 104e 01E0     		b	.L174
 2796              	.L172:
 2797              		.loc 1 940 0
 2798 1050 9DF80F30 		ldrb	r3, [sp, #15]	@ zero_extendqisi2
 2799              	.L174:
 2800              		.loc 1 941 0
 2801 1054 1846     		mov	r0, r3
 2802 1056 0DB0     		add	sp, sp, #52
 2803              		@ sp needed
 2804 1058 5DF804FB 		ldr	pc, [sp], #4
 2805              		.cfi_endproc
 2806              	.LFE301:
 2807              		.size	hci_le_add_device_to_white_list, .-hci_le_add_device_to_white_list
 2808              		.align	2
 2809 105c AFF30080 		.p2align 4,,15
 2810              		.global	hci_le_remove_device_from_white_list
 2811              		.thumb
 2812              		.thumb_func
 2813              		.type	hci_le_remove_device_from_white_list, %function
 2814              	hci_le_remove_device_from_white_list:
 2815              	.LFB302:
 2816              		.loc 1 944 0
ARM GAS  /tmp/ccDGRO0L.s 			page 51


 2817              		.cfi_startproc
 2818              		@ args = 0, pretend = 0, frame = 48
 2819              		@ frame_needed = 0, uses_anonymous_args = 0
 2820 1060 00B5     		push	{lr}
 2821              		.cfi_def_cfa_offset 4
 2822              		.cfi_offset 14, -4
 2823 1062 8DB0     		sub	sp, sp, #52
 2824              		.cfi_def_cfa_offset 56
 2825 1064 0346     		mov	r3, r0
 2826 1066 0091     		str	r1, [sp]
 2827 1068 8DF80730 		strb	r3, [sp, #7]
 2828              		.loc 1 949 0
 2829 106c 9DF80730 		ldrb	r3, [sp, #7]
 2830 1070 8DF81030 		strb	r3, [sp, #16]
 2831              		.loc 1 950 0
 2832 1074 04AB     		add	r3, sp, #16
 2833 1076 0133     		adds	r3, r3, #1
 2834 1078 1846     		mov	r0, r3
 2835 107a 0099     		ldr	r1, [sp]
 2836 107c 0622     		movs	r2, #6
 2837 107e FFF7FEFF 		bl	Osal_MemCpy
 2838              		.loc 1 952 0
 2839 1082 06AB     		add	r3, sp, #24
 2840 1084 1846     		mov	r0, r3
 2841 1086 0021     		movs	r1, #0
 2842 1088 1822     		movs	r2, #24
 2843 108a FFF7FEFF 		bl	Osal_MemSet
 2844              		.loc 1 953 0
 2845 108e 0823     		movs	r3, #8
 2846 1090 ADF81830 		strh	r3, [sp, #24]	@ movhi
 2847              		.loc 1 954 0
 2848 1094 1223     		movs	r3, #18
 2849 1096 ADF81A30 		strh	r3, [sp, #26]	@ movhi
 2850              		.loc 1 955 0
 2851 109a 04AB     		add	r3, sp, #16
 2852 109c 0893     		str	r3, [sp, #32]
 2853              		.loc 1 956 0
 2854 109e 0723     		movs	r3, #7
 2855 10a0 0993     		str	r3, [sp, #36]
 2856              		.loc 1 957 0
 2857 10a2 0DF10F03 		add	r3, sp, #15
 2858 10a6 0A93     		str	r3, [sp, #40]
 2859              		.loc 1 958 0
 2860 10a8 0123     		movs	r3, #1
 2861 10aa 0B93     		str	r3, [sp, #44]
 2862              		.loc 1 960 0
 2863 10ac 06AB     		add	r3, sp, #24
 2864 10ae 1846     		mov	r0, r3
 2865 10b0 0021     		movs	r1, #0
 2866 10b2 FFF7FEFF 		bl	hci_send_req
 2867 10b6 0346     		mov	r3, r0
 2868 10b8 002B     		cmp	r3, #0
 2869 10ba 01DA     		bge	.L176
 2870              		.loc 1 961 0
 2871 10bc FF23     		movs	r3, #255
 2872 10be 01E0     		b	.L178
 2873              	.L176:
ARM GAS  /tmp/ccDGRO0L.s 			page 52


 2874              		.loc 1 964 0
 2875 10c0 9DF80F30 		ldrb	r3, [sp, #15]	@ zero_extendqisi2
 2876              	.L178:
 2877              		.loc 1 965 0
 2878 10c4 1846     		mov	r0, r3
 2879 10c6 0DB0     		add	sp, sp, #52
 2880              		@ sp needed
 2881 10c8 5DF804FB 		ldr	pc, [sp], #4
 2882              		.cfi_endproc
 2883              	.LFE302:
 2884              		.size	hci_le_remove_device_from_white_list, .-hci_le_remove_device_from_white_list
 2885              		.align	2
 2886 10cc AFF30080 		.p2align 4,,15
 2887              		.global	hci_read_transmit_power_level
 2888              		.thumb
 2889              		.thumb_func
 2890              		.type	hci_read_transmit_power_level, %function
 2891              	hci_read_transmit_power_level:
 2892              	.LFB303:
 2893              		.loc 1 968 0
 2894              		.cfi_startproc
 2895              		@ args = 0, pretend = 0, frame = 48
 2896              		@ frame_needed = 0, uses_anonymous_args = 0
 2897 10d0 00B5     		push	{lr}
 2898              		.cfi_def_cfa_offset 4
 2899              		.cfi_offset 14, -4
 2900 10d2 8DB0     		sub	sp, sp, #52
 2901              		.cfi_def_cfa_offset 56
 2902 10d4 0390     		str	r0, [sp, #12]
 2903 10d6 0B46     		mov	r3, r1
 2904 10d8 0192     		str	r2, [sp, #4]
 2905 10da 8DF80B30 		strb	r3, [sp, #11]
 2906              		.loc 1 973 0
 2907 10de 04AB     		add	r3, sp, #16
 2908 10e0 1846     		mov	r0, r3
 2909 10e2 0021     		movs	r1, #0
 2910 10e4 0422     		movs	r2, #4
 2911 10e6 FFF7FEFF 		bl	Osal_MemSet
 2912              		.loc 1 975 0
 2913 10ea 039B     		ldr	r3, [sp, #12]
 2914 10ec 1B88     		ldrh	r3, [r3]
 2915 10ee ADF81430 		strh	r3, [sp, #20]	@ movhi
 2916              		.loc 1 976 0
 2917 10f2 9DF80B30 		ldrb	r3, [sp, #11]
 2918 10f6 8DF81630 		strb	r3, [sp, #22]
 2919              		.loc 1 978 0
 2920 10fa 06AB     		add	r3, sp, #24
 2921 10fc 1846     		mov	r0, r3
 2922 10fe 0021     		movs	r1, #0
 2923 1100 1822     		movs	r2, #24
 2924 1102 FFF7FEFF 		bl	Osal_MemSet
 2925              		.loc 1 979 0
 2926 1106 0323     		movs	r3, #3
 2927 1108 ADF81830 		strh	r3, [sp, #24]	@ movhi
 2928              		.loc 1 980 0
 2929 110c 2D23     		movs	r3, #45
 2930 110e ADF81A30 		strh	r3, [sp, #26]	@ movhi
ARM GAS  /tmp/ccDGRO0L.s 			page 53


 2931              		.loc 1 981 0
 2932 1112 05AB     		add	r3, sp, #20
 2933 1114 0893     		str	r3, [sp, #32]
 2934              		.loc 1 982 0
 2935 1116 0323     		movs	r3, #3
 2936 1118 0993     		str	r3, [sp, #36]
 2937              		.loc 1 983 0
 2938 111a 04AB     		add	r3, sp, #16
 2939 111c 0A93     		str	r3, [sp, #40]
 2940              		.loc 1 984 0
 2941 111e 0423     		movs	r3, #4
 2942 1120 0B93     		str	r3, [sp, #44]
 2943              		.loc 1 986 0
 2944 1122 06AB     		add	r3, sp, #24
 2945 1124 1846     		mov	r0, r3
 2946 1126 0021     		movs	r1, #0
 2947 1128 FFF7FEFF 		bl	hci_send_req
 2948 112c 0346     		mov	r3, r0
 2949 112e 002B     		cmp	r3, #0
 2950 1130 01DA     		bge	.L180
 2951              		.loc 1 987 0
 2952 1132 FF23     		movs	r3, #255
 2953 1134 10E0     		b	.L183
 2954              	.L180:
 2955              		.loc 1 990 0
 2956 1136 9DF81030 		ldrb	r3, [sp, #16]	@ zero_extendqisi2
 2957 113a 002B     		cmp	r3, #0
 2958 113c 02D0     		beq	.L182
 2959              		.loc 1 991 0
 2960 113e 9DF81030 		ldrb	r3, [sp, #16]	@ zero_extendqisi2
 2961 1142 09E0     		b	.L183
 2962              	.L182:
 2963              		.loc 1 994 0
 2964 1144 BDF81130 		ldrh	r3, [sp, #17]	@ unaligned
 2965 1148 9AB2     		uxth	r2, r3
 2966 114a 039B     		ldr	r3, [sp, #12]
 2967 114c 1A80     		strh	r2, [r3]	@ movhi
 2968              		.loc 1 995 0
 2969 114e 9DF81320 		ldrb	r2, [sp, #19]	@ zero_extendqisi2
 2970 1152 019B     		ldr	r3, [sp, #4]
 2971 1154 1A70     		strb	r2, [r3]
 2972              		.loc 1 997 0
 2973 1156 0023     		movs	r3, #0
 2974              	.L183:
 2975              		.loc 1 998 0
 2976 1158 1846     		mov	r0, r3
 2977 115a 0DB0     		add	sp, sp, #52
 2978              		@ sp needed
 2979 115c 5DF804FB 		ldr	pc, [sp], #4
 2980              		.cfi_endproc
 2981              	.LFE303:
 2982              		.size	hci_read_transmit_power_level, .-hci_read_transmit_power_level
 2983              		.align	2
 2984              		.p2align 4,,15
 2985              		.global	hci_read_rssi
 2986              		.thumb
 2987              		.thumb_func
ARM GAS  /tmp/ccDGRO0L.s 			page 54


 2988              		.type	hci_read_rssi, %function
 2989              	hci_read_rssi:
 2990              	.LFB304:
 2991              		.loc 1 1001 0
 2992              		.cfi_startproc
 2993              		@ args = 0, pretend = 0, frame = 40
 2994              		@ frame_needed = 0, uses_anonymous_args = 0
 2995 1160 00B5     		push	{lr}
 2996              		.cfi_def_cfa_offset 4
 2997              		.cfi_offset 14, -4
 2998 1162 8BB0     		sub	sp, sp, #44
 2999              		.cfi_def_cfa_offset 48
 3000 1164 0190     		str	r0, [sp, #4]
 3001 1166 0091     		str	r1, [sp]
 3002              		.loc 1 1006 0
 3003 1168 02AB     		add	r3, sp, #8
 3004 116a 1846     		mov	r0, r3
 3005 116c 0021     		movs	r1, #0
 3006 116e 0422     		movs	r2, #4
 3007 1170 FFF7FEFF 		bl	Osal_MemSet
 3008              		.loc 1 1008 0
 3009 1174 019B     		ldr	r3, [sp, #4]
 3010 1176 1B88     		ldrh	r3, [r3]
 3011 1178 ADF80C30 		strh	r3, [sp, #12]	@ movhi
 3012              		.loc 1 1010 0
 3013 117c 04AB     		add	r3, sp, #16
 3014 117e 1846     		mov	r0, r3
 3015 1180 0021     		movs	r1, #0
 3016 1182 1822     		movs	r2, #24
 3017 1184 FFF7FEFF 		bl	Osal_MemSet
 3018              		.loc 1 1011 0
 3019 1188 0523     		movs	r3, #5
 3020 118a ADF81030 		strh	r3, [sp, #16]	@ movhi
 3021              		.loc 1 1012 0
 3022 118e 0523     		movs	r3, #5
 3023 1190 ADF81230 		strh	r3, [sp, #18]	@ movhi
 3024              		.loc 1 1013 0
 3025 1194 03AB     		add	r3, sp, #12
 3026 1196 0693     		str	r3, [sp, #24]
 3027              		.loc 1 1014 0
 3028 1198 0223     		movs	r3, #2
 3029 119a 0793     		str	r3, [sp, #28]
 3030              		.loc 1 1015 0
 3031 119c 02AB     		add	r3, sp, #8
 3032 119e 0893     		str	r3, [sp, #32]
 3033              		.loc 1 1016 0
 3034 11a0 0423     		movs	r3, #4
 3035 11a2 0993     		str	r3, [sp, #36]
 3036              		.loc 1 1018 0
 3037 11a4 04AB     		add	r3, sp, #16
 3038 11a6 1846     		mov	r0, r3
 3039 11a8 0021     		movs	r1, #0
 3040 11aa FFF7FEFF 		bl	hci_send_req
 3041 11ae 0346     		mov	r3, r0
 3042 11b0 002B     		cmp	r3, #0
 3043 11b2 01DA     		bge	.L185
 3044              		.loc 1 1019 0
ARM GAS  /tmp/ccDGRO0L.s 			page 55


 3045 11b4 FF23     		movs	r3, #255
 3046 11b6 10E0     		b	.L188
 3047              	.L185:
 3048              		.loc 1 1022 0
 3049 11b8 9DF80830 		ldrb	r3, [sp, #8]	@ zero_extendqisi2
 3050 11bc 002B     		cmp	r3, #0
 3051 11be 02D0     		beq	.L187
 3052              		.loc 1 1023 0
 3053 11c0 9DF80830 		ldrb	r3, [sp, #8]	@ zero_extendqisi2
 3054 11c4 09E0     		b	.L188
 3055              	.L187:
 3056              		.loc 1 1026 0
 3057 11c6 BDF80930 		ldrh	r3, [sp, #9]	@ unaligned
 3058 11ca 9AB2     		uxth	r2, r3
 3059 11cc 019B     		ldr	r3, [sp, #4]
 3060 11ce 1A80     		strh	r2, [r3]	@ movhi
 3061              		.loc 1 1027 0
 3062 11d0 9DF80B20 		ldrb	r2, [sp, #11]	@ zero_extendqisi2
 3063 11d4 009B     		ldr	r3, [sp]
 3064 11d6 1A70     		strb	r2, [r3]
 3065              		.loc 1 1029 0
 3066 11d8 0023     		movs	r3, #0
 3067              	.L188:
 3068              		.loc 1 1030 0
 3069 11da 1846     		mov	r0, r3
 3070 11dc 0BB0     		add	sp, sp, #44
 3071              		@ sp needed
 3072 11de 5DF804FB 		ldr	pc, [sp], #4
 3073              		.cfi_endproc
 3074              	.LFE304:
 3075              		.size	hci_read_rssi, .-hci_read_rssi
 3076 11e2 00BF     		.align	2
 3077 11e4 AFF30080 		.p2align 4,,15
 3077      AFF30080 
 3077      AFF30080 
 3078              		.global	hci_le_read_local_supported_features
 3079              		.thumb
 3080              		.thumb_func
 3081              		.type	hci_le_read_local_supported_features, %function
 3082              	hci_le_read_local_supported_features:
 3083              	.LFB305:
 3084              		.loc 1 1033 0
 3085              		.cfi_startproc
 3086              		@ args = 0, pretend = 0, frame = 48
 3087              		@ frame_needed = 0, uses_anonymous_args = 0
 3088 11f0 00B5     		push	{lr}
 3089              		.cfi_def_cfa_offset 4
 3090              		.cfi_offset 14, -4
 3091 11f2 8DB0     		sub	sp, sp, #52
 3092              		.cfi_def_cfa_offset 56
 3093 11f4 0190     		str	r0, [sp, #4]
 3094              		.loc 1 1037 0
 3095 11f6 03AB     		add	r3, sp, #12
 3096 11f8 1846     		mov	r0, r3
 3097 11fa 0021     		movs	r1, #0
 3098 11fc 0922     		movs	r2, #9
 3099 11fe FFF7FEFF 		bl	Osal_MemSet
ARM GAS  /tmp/ccDGRO0L.s 			page 56


 3100              		.loc 1 1039 0
 3101 1202 06AB     		add	r3, sp, #24
 3102 1204 1846     		mov	r0, r3
 3103 1206 0021     		movs	r1, #0
 3104 1208 1822     		movs	r2, #24
 3105 120a FFF7FEFF 		bl	Osal_MemSet
 3106              		.loc 1 1040 0
 3107 120e 0823     		movs	r3, #8
 3108 1210 ADF81830 		strh	r3, [sp, #24]	@ movhi
 3109              		.loc 1 1041 0
 3110 1214 0323     		movs	r3, #3
 3111 1216 ADF81A30 		strh	r3, [sp, #26]	@ movhi
 3112              		.loc 1 1042 0
 3113 121a 03AB     		add	r3, sp, #12
 3114 121c 0A93     		str	r3, [sp, #40]
 3115              		.loc 1 1043 0
 3116 121e 0923     		movs	r3, #9
 3117 1220 0B93     		str	r3, [sp, #44]
 3118              		.loc 1 1045 0
 3119 1222 06AB     		add	r3, sp, #24
 3120 1224 1846     		mov	r0, r3
 3121 1226 0021     		movs	r1, #0
 3122 1228 FFF7FEFF 		bl	hci_send_req
 3123 122c 0346     		mov	r3, r0
 3124 122e 002B     		cmp	r3, #0
 3125 1230 01DA     		bge	.L190
 3126              		.loc 1 1046 0
 3127 1232 FF23     		movs	r3, #255
 3128 1234 0EE0     		b	.L193
 3129              	.L190:
 3130              		.loc 1 1049 0
 3131 1236 9DF80C30 		ldrb	r3, [sp, #12]	@ zero_extendqisi2
 3132 123a 002B     		cmp	r3, #0
 3133 123c 02D0     		beq	.L192
 3134              		.loc 1 1050 0
 3135 123e 9DF80C30 		ldrb	r3, [sp, #12]	@ zero_extendqisi2
 3136 1242 07E0     		b	.L193
 3137              	.L192:
 3138              		.loc 1 1053 0
 3139 1244 03AB     		add	r3, sp, #12
 3140 1246 0133     		adds	r3, r3, #1
 3141 1248 0198     		ldr	r0, [sp, #4]
 3142 124a 1946     		mov	r1, r3
 3143 124c 0822     		movs	r2, #8
 3144 124e FFF7FEFF 		bl	Osal_MemCpy
 3145              		.loc 1 1055 0
 3146 1252 0023     		movs	r3, #0
 3147              	.L193:
 3148              		.loc 1 1056 0
 3149 1254 1846     		mov	r0, r3
 3150 1256 0DB0     		add	sp, sp, #52
 3151              		@ sp needed
 3152 1258 5DF804FB 		ldr	pc, [sp], #4
 3153              		.cfi_endproc
 3154              	.LFE305:
 3155              		.size	hci_le_read_local_supported_features, .-hci_le_read_local_supported_features
 3156              		.align	2
ARM GAS  /tmp/ccDGRO0L.s 			page 57


 3157 125c AFF30080 		.p2align 4,,15
 3158              		.global	hci_le_read_channel_map
 3159              		.thumb
 3160              		.thumb_func
 3161              		.type	hci_le_read_channel_map, %function
 3162              	hci_le_read_channel_map:
 3163              	.LFB306:
 3164              		.loc 1 1059 0
 3165              		.cfi_startproc
 3166              		@ args = 0, pretend = 0, frame = 48
 3167              		@ frame_needed = 0, uses_anonymous_args = 0
 3168 1260 00B5     		push	{lr}
 3169              		.cfi_def_cfa_offset 4
 3170              		.cfi_offset 14, -4
 3171 1262 8DB0     		sub	sp, sp, #52
 3172              		.cfi_def_cfa_offset 56
 3173 1264 0346     		mov	r3, r0
 3174 1266 0091     		str	r1, [sp]
 3175 1268 ADF80630 		strh	r3, [sp, #6]	@ movhi
 3176              		.loc 1 1064 0
 3177 126c 03AB     		add	r3, sp, #12
 3178 126e 1846     		mov	r0, r3
 3179 1270 0021     		movs	r1, #0
 3180 1272 0822     		movs	r2, #8
 3181 1274 FFF7FEFF 		bl	Osal_MemSet
 3182              		.loc 1 1066 0
 3183 1278 BDF80630 		ldrh	r3, [sp, #6]	@ movhi
 3184 127c ADF81430 		strh	r3, [sp, #20]	@ movhi
 3185              		.loc 1 1068 0
 3186 1280 06AB     		add	r3, sp, #24
 3187 1282 1846     		mov	r0, r3
 3188 1284 0021     		movs	r1, #0
 3189 1286 1822     		movs	r2, #24
 3190 1288 FFF7FEFF 		bl	Osal_MemSet
 3191              		.loc 1 1069 0
 3192 128c 0823     		movs	r3, #8
 3193 128e ADF81830 		strh	r3, [sp, #24]	@ movhi
 3194              		.loc 1 1070 0
 3195 1292 1523     		movs	r3, #21
 3196 1294 ADF81A30 		strh	r3, [sp, #26]	@ movhi
 3197              		.loc 1 1071 0
 3198 1298 05AB     		add	r3, sp, #20
 3199 129a 0893     		str	r3, [sp, #32]
 3200              		.loc 1 1072 0
 3201 129c 0223     		movs	r3, #2
 3202 129e 0993     		str	r3, [sp, #36]
 3203              		.loc 1 1073 0
 3204 12a0 03AB     		add	r3, sp, #12
 3205 12a2 0A93     		str	r3, [sp, #40]
 3206              		.loc 1 1074 0
 3207 12a4 0823     		movs	r3, #8
 3208 12a6 0B93     		str	r3, [sp, #44]
 3209              		.loc 1 1076 0
 3210 12a8 06AB     		add	r3, sp, #24
 3211 12aa 1846     		mov	r0, r3
 3212 12ac 0021     		movs	r1, #0
 3213 12ae FFF7FEFF 		bl	hci_send_req
ARM GAS  /tmp/ccDGRO0L.s 			page 58


 3214 12b2 0346     		mov	r3, r0
 3215 12b4 002B     		cmp	r3, #0
 3216 12b6 01DA     		bge	.L195
 3217              		.loc 1 1077 0
 3218 12b8 FF23     		movs	r3, #255
 3219 12ba 0EE0     		b	.L198
 3220              	.L195:
 3221              		.loc 1 1080 0
 3222 12bc 9DF80C30 		ldrb	r3, [sp, #12]	@ zero_extendqisi2
 3223 12c0 002B     		cmp	r3, #0
 3224 12c2 02D0     		beq	.L197
 3225              		.loc 1 1081 0
 3226 12c4 9DF80C30 		ldrb	r3, [sp, #12]	@ zero_extendqisi2
 3227 12c8 07E0     		b	.L198
 3228              	.L197:
 3229              		.loc 1 1084 0
 3230 12ca 03AB     		add	r3, sp, #12
 3231 12cc 0333     		adds	r3, r3, #3
 3232 12ce 0098     		ldr	r0, [sp]
 3233 12d0 1946     		mov	r1, r3
 3234 12d2 0522     		movs	r2, #5
 3235 12d4 FFF7FEFF 		bl	Osal_MemCpy
 3236              		.loc 1 1086 0
 3237 12d8 0023     		movs	r3, #0
 3238              	.L198:
 3239              		.loc 1 1087 0
 3240 12da 1846     		mov	r0, r3
 3241 12dc 0DB0     		add	sp, sp, #52
 3242              		@ sp needed
 3243 12de 5DF804FB 		ldr	pc, [sp], #4
 3244              		.cfi_endproc
 3245              	.LFE306:
 3246              		.size	hci_le_read_channel_map, .-hci_le_read_channel_map
 3247 12e2 00BF     		.align	2
 3248 12e4 AFF30080 		.p2align 4,,15
 3248      AFF30080 
 3248      AFF30080 
 3249              		.global	hci_le_read_supported_states
 3250              		.thumb
 3251              		.thumb_func
 3252              		.type	hci_le_read_supported_states, %function
 3253              	hci_le_read_supported_states:
 3254              	.LFB307:
 3255              		.loc 1 1090 0
 3256              		.cfi_startproc
 3257              		@ args = 0, pretend = 0, frame = 48
 3258              		@ frame_needed = 0, uses_anonymous_args = 0
 3259 12f0 00B5     		push	{lr}
 3260              		.cfi_def_cfa_offset 4
 3261              		.cfi_offset 14, -4
 3262 12f2 8DB0     		sub	sp, sp, #52
 3263              		.cfi_def_cfa_offset 56
 3264 12f4 0190     		str	r0, [sp, #4]
 3265              		.loc 1 1094 0
 3266 12f6 03AB     		add	r3, sp, #12
 3267 12f8 1846     		mov	r0, r3
 3268 12fa 0021     		movs	r1, #0
ARM GAS  /tmp/ccDGRO0L.s 			page 59


 3269 12fc 0922     		movs	r2, #9
 3270 12fe FFF7FEFF 		bl	Osal_MemSet
 3271              		.loc 1 1096 0
 3272 1302 06AB     		add	r3, sp, #24
 3273 1304 1846     		mov	r0, r3
 3274 1306 0021     		movs	r1, #0
 3275 1308 1822     		movs	r2, #24
 3276 130a FFF7FEFF 		bl	Osal_MemSet
 3277              		.loc 1 1097 0
 3278 130e 0823     		movs	r3, #8
 3279 1310 ADF81830 		strh	r3, [sp, #24]	@ movhi
 3280              		.loc 1 1098 0
 3281 1314 1C23     		movs	r3, #28
 3282 1316 ADF81A30 		strh	r3, [sp, #26]	@ movhi
 3283              		.loc 1 1099 0
 3284 131a 03AB     		add	r3, sp, #12
 3285 131c 0A93     		str	r3, [sp, #40]
 3286              		.loc 1 1100 0
 3287 131e 0923     		movs	r3, #9
 3288 1320 0B93     		str	r3, [sp, #44]
 3289              		.loc 1 1102 0
 3290 1322 06AB     		add	r3, sp, #24
 3291 1324 1846     		mov	r0, r3
 3292 1326 0021     		movs	r1, #0
 3293 1328 FFF7FEFF 		bl	hci_send_req
 3294 132c 0346     		mov	r3, r0
 3295 132e 002B     		cmp	r3, #0
 3296 1330 01DA     		bge	.L200
 3297              		.loc 1 1103 0
 3298 1332 FF23     		movs	r3, #255
 3299 1334 0EE0     		b	.L203
 3300              	.L200:
 3301              		.loc 1 1106 0
 3302 1336 9DF80C30 		ldrb	r3, [sp, #12]	@ zero_extendqisi2
 3303 133a 002B     		cmp	r3, #0
 3304 133c 02D0     		beq	.L202
 3305              		.loc 1 1107 0
 3306 133e 9DF80C30 		ldrb	r3, [sp, #12]	@ zero_extendqisi2
 3307 1342 07E0     		b	.L203
 3308              	.L202:
 3309              		.loc 1 1110 0
 3310 1344 03AB     		add	r3, sp, #12
 3311 1346 0133     		adds	r3, r3, #1
 3312 1348 0198     		ldr	r0, [sp, #4]
 3313 134a 1946     		mov	r1, r3
 3314 134c 0822     		movs	r2, #8
 3315 134e FFF7FEFF 		bl	Osal_MemCpy
 3316              		.loc 1 1112 0
 3317 1352 0023     		movs	r3, #0
 3318              	.L203:
 3319              		.loc 1 1113 0
 3320 1354 1846     		mov	r0, r3
 3321 1356 0DB0     		add	sp, sp, #52
 3322              		@ sp needed
 3323 1358 5DF804FB 		ldr	pc, [sp], #4
 3324              		.cfi_endproc
 3325              	.LFE307:
ARM GAS  /tmp/ccDGRO0L.s 			page 60


 3326              		.size	hci_le_read_supported_states, .-hci_le_read_supported_states
 3327              		.align	2
 3328 135c AFF30080 		.p2align 4,,15
 3329              		.global	hci_le_receiver_test
 3330              		.thumb
 3331              		.thumb_func
 3332              		.type	hci_le_receiver_test, %function
 3333              	hci_le_receiver_test:
 3334              	.LFB308:
 3335              		.loc 1 1116 0
 3336              		.cfi_startproc
 3337              		@ args = 0, pretend = 0, frame = 40
 3338              		@ frame_needed = 0, uses_anonymous_args = 0
 3339 1360 00B5     		push	{lr}
 3340              		.cfi_def_cfa_offset 4
 3341              		.cfi_offset 14, -4
 3342 1362 8BB0     		sub	sp, sp, #44
 3343              		.cfi_def_cfa_offset 48
 3344 1364 0346     		mov	r3, r0
 3345 1366 8DF80730 		strb	r3, [sp, #7]
 3346              		.loc 1 1121 0
 3347 136a 9DF80730 		ldrb	r3, [sp, #7]
 3348 136e 8DF80C30 		strb	r3, [sp, #12]
 3349              		.loc 1 1123 0
 3350 1372 04AB     		add	r3, sp, #16
 3351 1374 1846     		mov	r0, r3
 3352 1376 0021     		movs	r1, #0
 3353 1378 1822     		movs	r2, #24
 3354 137a FFF7FEFF 		bl	Osal_MemSet
 3355              		.loc 1 1124 0
 3356 137e 0823     		movs	r3, #8
 3357 1380 ADF81030 		strh	r3, [sp, #16]	@ movhi
 3358              		.loc 1 1125 0
 3359 1384 1D23     		movs	r3, #29
 3360 1386 ADF81230 		strh	r3, [sp, #18]	@ movhi
 3361              		.loc 1 1126 0
 3362 138a 03AB     		add	r3, sp, #12
 3363 138c 0693     		str	r3, [sp, #24]
 3364              		.loc 1 1127 0
 3365 138e 0123     		movs	r3, #1
 3366 1390 0793     		str	r3, [sp, #28]
 3367              		.loc 1 1128 0
 3368 1392 0DF10B03 		add	r3, sp, #11
 3369 1396 0893     		str	r3, [sp, #32]
 3370              		.loc 1 1129 0
 3371 1398 0123     		movs	r3, #1
 3372 139a 0993     		str	r3, [sp, #36]
 3373              		.loc 1 1131 0
 3374 139c 04AB     		add	r3, sp, #16
 3375 139e 1846     		mov	r0, r3
 3376 13a0 0021     		movs	r1, #0
 3377 13a2 FFF7FEFF 		bl	hci_send_req
 3378 13a6 0346     		mov	r3, r0
 3379 13a8 002B     		cmp	r3, #0
 3380 13aa 01DA     		bge	.L205
 3381              		.loc 1 1132 0
 3382 13ac FF23     		movs	r3, #255
ARM GAS  /tmp/ccDGRO0L.s 			page 61


 3383 13ae 01E0     		b	.L207
 3384              	.L205:
 3385              		.loc 1 1135 0
 3386 13b0 9DF80B30 		ldrb	r3, [sp, #11]	@ zero_extendqisi2
 3387              	.L207:
 3388              		.loc 1 1136 0
 3389 13b4 1846     		mov	r0, r3
 3390 13b6 0BB0     		add	sp, sp, #44
 3391              		@ sp needed
 3392 13b8 5DF804FB 		ldr	pc, [sp], #4
 3393              		.cfi_endproc
 3394              	.LFE308:
 3395              		.size	hci_le_receiver_test, .-hci_le_receiver_test
 3396              		.align	2
 3397 13bc AFF30080 		.p2align 4,,15
 3398              		.global	hci_le_transmitter_test
 3399              		.thumb
 3400              		.thumb_func
 3401              		.type	hci_le_transmitter_test, %function
 3402              	hci_le_transmitter_test:
 3403              	.LFB309:
 3404              		.loc 1 1139 0
 3405              		.cfi_startproc
 3406              		@ args = 0, pretend = 0, frame = 40
 3407              		@ frame_needed = 0, uses_anonymous_args = 0
 3408 13c0 00B5     		push	{lr}
 3409              		.cfi_def_cfa_offset 4
 3410              		.cfi_offset 14, -4
 3411 13c2 8BB0     		sub	sp, sp, #44
 3412              		.cfi_def_cfa_offset 48
 3413 13c4 1346     		mov	r3, r2
 3414 13c6 0246     		mov	r2, r0
 3415 13c8 8DF80720 		strb	r2, [sp, #7]
 3416 13cc 0A46     		mov	r2, r1
 3417 13ce 8DF80620 		strb	r2, [sp, #6]
 3418 13d2 8DF80530 		strb	r3, [sp, #5]
 3419              		.loc 1 1144 0
 3420 13d6 9DF80730 		ldrb	r3, [sp, #7]
 3421 13da 8DF80C30 		strb	r3, [sp, #12]
 3422              		.loc 1 1145 0
 3423 13de 9DF80630 		ldrb	r3, [sp, #6]
 3424 13e2 8DF80D30 		strb	r3, [sp, #13]
 3425              		.loc 1 1146 0
 3426 13e6 9DF80530 		ldrb	r3, [sp, #5]
 3427 13ea 8DF80E30 		strb	r3, [sp, #14]
 3428              		.loc 1 1148 0
 3429 13ee 04AB     		add	r3, sp, #16
 3430 13f0 1846     		mov	r0, r3
 3431 13f2 0021     		movs	r1, #0
 3432 13f4 1822     		movs	r2, #24
 3433 13f6 FFF7FEFF 		bl	Osal_MemSet
 3434              		.loc 1 1149 0
 3435 13fa 0823     		movs	r3, #8
 3436 13fc ADF81030 		strh	r3, [sp, #16]	@ movhi
 3437              		.loc 1 1150 0
 3438 1400 1E23     		movs	r3, #30
 3439 1402 ADF81230 		strh	r3, [sp, #18]	@ movhi
ARM GAS  /tmp/ccDGRO0L.s 			page 62


 3440              		.loc 1 1151 0
 3441 1406 03AB     		add	r3, sp, #12
 3442 1408 0693     		str	r3, [sp, #24]
 3443              		.loc 1 1152 0
 3444 140a 0323     		movs	r3, #3
 3445 140c 0793     		str	r3, [sp, #28]
 3446              		.loc 1 1153 0
 3447 140e 0DF10B03 		add	r3, sp, #11
 3448 1412 0893     		str	r3, [sp, #32]
 3449              		.loc 1 1154 0
 3450 1414 0123     		movs	r3, #1
 3451 1416 0993     		str	r3, [sp, #36]
 3452              		.loc 1 1156 0
 3453 1418 04AB     		add	r3, sp, #16
 3454 141a 1846     		mov	r0, r3
 3455 141c 0021     		movs	r1, #0
 3456 141e FFF7FEFF 		bl	hci_send_req
 3457 1422 0346     		mov	r3, r0
 3458 1424 002B     		cmp	r3, #0
 3459 1426 01DA     		bge	.L209
 3460              		.loc 1 1157 0
 3461 1428 FF23     		movs	r3, #255
 3462 142a 01E0     		b	.L211
 3463              	.L209:
 3464              		.loc 1 1160 0
 3465 142c 9DF80B30 		ldrb	r3, [sp, #11]	@ zero_extendqisi2
 3466              	.L211:
 3467              		.loc 1 1161 0
 3468 1430 1846     		mov	r0, r3
 3469 1432 0BB0     		add	sp, sp, #44
 3470              		@ sp needed
 3471 1434 5DF804FB 		ldr	pc, [sp], #4
 3472              		.cfi_endproc
 3473              	.LFE309:
 3474              		.size	hci_le_transmitter_test, .-hci_le_transmitter_test
 3475              		.align	2
 3476 1438 AFF30080 		.p2align 4,,15
 3476      AFF30080 
 3477              		.global	hci_le_test_end
 3478              		.thumb
 3479              		.thumb_func
 3480              		.type	hci_le_test_end, %function
 3481              	hci_le_test_end:
 3482              	.LFB310:
 3483              		.loc 1 1164 0
 3484              		.cfi_startproc
 3485              		@ args = 0, pretend = 0, frame = 40
 3486              		@ frame_needed = 0, uses_anonymous_args = 0
 3487 1440 00B5     		push	{lr}
 3488              		.cfi_def_cfa_offset 4
 3489              		.cfi_offset 14, -4
 3490 1442 8BB0     		sub	sp, sp, #44
 3491              		.cfi_def_cfa_offset 48
 3492 1444 0190     		str	r0, [sp, #4]
 3493              		.loc 1 1168 0
 3494 1446 03AB     		add	r3, sp, #12
 3495 1448 1846     		mov	r0, r3
ARM GAS  /tmp/ccDGRO0L.s 			page 63


 3496 144a 0021     		movs	r1, #0
 3497 144c 0322     		movs	r2, #3
 3498 144e FFF7FEFF 		bl	Osal_MemSet
 3499              		.loc 1 1170 0
 3500 1452 04AB     		add	r3, sp, #16
 3501 1454 1846     		mov	r0, r3
 3502 1456 0021     		movs	r1, #0
 3503 1458 1822     		movs	r2, #24
 3504 145a FFF7FEFF 		bl	Osal_MemSet
 3505              		.loc 1 1171 0
 3506 145e 0823     		movs	r3, #8
 3507 1460 ADF81030 		strh	r3, [sp, #16]	@ movhi
 3508              		.loc 1 1172 0
 3509 1464 1F23     		movs	r3, #31
 3510 1466 ADF81230 		strh	r3, [sp, #18]	@ movhi
 3511              		.loc 1 1173 0
 3512 146a 03AB     		add	r3, sp, #12
 3513 146c 0893     		str	r3, [sp, #32]
 3514              		.loc 1 1174 0
 3515 146e 0323     		movs	r3, #3
 3516 1470 0993     		str	r3, [sp, #36]
 3517              		.loc 1 1176 0
 3518 1472 04AB     		add	r3, sp, #16
 3519 1474 1846     		mov	r0, r3
 3520 1476 0021     		movs	r1, #0
 3521 1478 FFF7FEFF 		bl	hci_send_req
 3522 147c 0346     		mov	r3, r0
 3523 147e 002B     		cmp	r3, #0
 3524 1480 01DA     		bge	.L213
 3525              		.loc 1 1177 0
 3526 1482 FF23     		movs	r3, #255
 3527 1484 0CE0     		b	.L216
 3528              	.L213:
 3529              		.loc 1 1180 0
 3530 1486 9DF80C30 		ldrb	r3, [sp, #12]	@ zero_extendqisi2
 3531 148a 002B     		cmp	r3, #0
 3532 148c 02D0     		beq	.L215
 3533              		.loc 1 1181 0
 3534 148e 9DF80C30 		ldrb	r3, [sp, #12]	@ zero_extendqisi2
 3535 1492 05E0     		b	.L216
 3536              	.L215:
 3537              		.loc 1 1184 0
 3538 1494 BDF80D30 		ldrh	r3, [sp, #13]	@ unaligned
 3539 1498 9AB2     		uxth	r2, r3
 3540 149a 019B     		ldr	r3, [sp, #4]
 3541 149c 1A80     		strh	r2, [r3]	@ movhi
 3542              		.loc 1 1186 0
 3543 149e 0023     		movs	r3, #0
 3544              	.L216:
 3545              		.loc 1 1187 0
 3546 14a0 1846     		mov	r0, r3
 3547 14a2 0BB0     		add	sp, sp, #44
 3548              		@ sp needed
 3549 14a4 5DF804FB 		ldr	pc, [sp], #4
 3550              		.cfi_endproc
 3551              	.LFE310:
 3552              		.size	hci_le_test_end, .-hci_le_test_end
ARM GAS  /tmp/ccDGRO0L.s 			page 64


 3553              	.Letext0:
 3554              		.file 2 "/nfs/nfs5/home/research/hardware/arm2/gcc-arm-embedded/gcc-arm-none-eabi-4_8-2014q2/arm-n
 3555              		.file 3 "/nfs/nfs5/home/research/hardware/arm2/gcc-arm-embedded/gcc-arm-none-eabi-4_8-2014q2/arm-n
 3556              		.file 4 "../../../../../Middlewares/ST/STM32_BlueNRG/SimpleBlueNRG_HCI/includes/hal_types.h"
 3557              		.file 5 "/nfs/nfs5/home/research/hardware/arm2/gcc-arm-embedded/gcc-arm-none-eabi-4_8-2014q2/lib/g
 3558              		.file 6 "../../../../../../ChibiOS/os/rt/ports/ARMCMx/compilers/GCC/chtypes.h"
 3559              		.file 7 "../../../../../../ChibiOS/os/rt/include/chsystypes.h"
 3560              		.file 8 "../../../../../../ChibiOS/os/rt/include/chschd.h"
 3561              		.file 9 "../../../../../../ChibiOS/os/ext/CMSIS/ST/STM32L4xx/stm32l476xx.h"
 3562              		.file 10 "../../../../../Drivers/STM32L4xx_HAL_Driver/Inc/stm32l4xx_hal_def.h"
 3563              		.file 11 "../../../../../Drivers/STM32L4xx_HAL_Driver/Inc/stm32l4xx_hal_dma.h"
 3564              		.file 12 "../../../../../Drivers/STM32L4xx_HAL_Driver/Inc/stm32l4xx_hal_spi.h"
 3565              		.file 13 "../../../../../../ChibiOS/os/rt/ports/ARMCMx/chcore.h"
 3566              		.file 14 "../../../../../../ChibiOS/os/rt/ports/ARMCMx/chcore_v7m.h"
 3567              		.file 15 "../../../../../../ChibiOS/os/rt/include/chtm.h"
 3568              		.file 16 "../../../../../../ChibiOS/os/rt/include/chsem.h"
 3569              		.file 17 "../../../../../../ChibiOS/os/rt/include/chmtx.h"
 3570              		.file 18 "../../../../../Middlewares/ST/STM32_BlueNRG/SimpleBlueNRG_HCI/includes/link_layer.h"
 3571              		.file 19 "../../../../../Middlewares/ST/STM32_BlueNRG/SimpleBlueNRG_HCI/includes/ble_list.h"
 3572              		.file 20 "../../../../../Middlewares/ST/STM32_BlueNRG/SimpleBlueNRG_HCI/includes/hci.h"
 3573              		.file 21 "../../../../../Middlewares/ST/STM32_BlueNRG/SimpleBlueNRG_HCI/includes/hci_const.h"
 3574              		.file 22 "../../../../../Middlewares/ST/STM32_BlueNRG/SimpleBlueNRG_HCI/includes/ble_clock.h"
 3575              		.file 23 "../../../../../Middlewares/ST/STM32_BlueNRG/SimpleBlueNRG_HCI/includes/gp_timer.h"
 3576              		.file 24 "../../../../../../ChibiOS/os/ext/CMSIS/include/core_cm4.h"