ARM GAS  /tmp/ccDGRO0L.s 			page 1


   1              		.syntax unified
   2              		.cpu cortex-m4
   3              		.fpu softvfp
   4              		.eabi_attribute 20, 1
   5              		.eabi_attribute 21, 1
   6              		.eabi_attribute 23, 3
   7              		.eabi_attribute 24, 1
   8              		.eabi_attribute 25, 1
   9              		.eabi_attribute 26, 1
  10              		.eabi_attribute 30, 6
  11              		.eabi_attribute 34, 1
  12              		.eabi_attribute 18, 4
  13              		.thumb
  14              		.file	"hci.c"
  15              		.text
  16              	.Ltext0:
  17              		.cfi_sections	.debug_frame
  18              		.comm	hciReadPktPool,8,4
  19              		.comm	hciReadPktRxQueue,8,4
  20              		.bss
  21              		.align	2
  22              	hciReadPacketBuffer:
  23 0000 00000000 		.space	700
  23      00000000 
  23      00000000 
  23      00000000 
  23      00000000 
  24              	hci_timer_id:
  25 02bc 00       		.space	1
  26              	hci_timeout:
  27 02bd 00       		.space	1
  28 02be 0000     		.text
  29              		.align	2
  30              		.p2align 4,,15
  31              		.global	hci_timeout_callback
  32              		.thumb
  33              		.thumb_func
  34              		.type	hci_timeout_callback, %function
  35              	hci_timeout_callback:
  36              	.LFB269:
  37              		.file 1 "../../../../../Middlewares/ST/STM32_BlueNRG/SimpleBlueNRG_HCI/hci/hci.c"
  38              		.loc 1 56 0
  39              		.cfi_startproc
  40              		@ args = 0, pretend = 0, frame = 0
  41              		@ frame_needed = 0, uses_anonymous_args = 0
  42              		@ link register save eliminated.
  43              		.loc 1 57 0
  44 0000 024B     		ldr	r3, .L3
  45 0002 0122     		movs	r2, #1
  46 0004 1A70     		strb	r2, [r3]
  47              		.loc 1 58 0
  48 0006 00BF     		nop
  49              		.loc 1 59 0
  50 0008 7047     		bx	lr
  51              	.L4:
  52 000a 00BF     		.align	2
  53              	.L3:
ARM GAS  /tmp/ccDGRO0L.s 			page 2


  54 000c BD020000 		.word	hci_timeout
  55              		.cfi_endproc
  56              	.LFE269:
  57              		.size	hci_timeout_callback, .-hci_timeout_callback
  58              		.align	2
  59              		.p2align 4,,15
  60              		.global	HCI_Init
  61              		.thumb
  62              		.thumb_func
  63              		.type	HCI_Init, %function
  64              	HCI_Init:
  65              	.LFB270:
  66              		.loc 1 62 0
  67              		.cfi_startproc
  68              		@ args = 0, pretend = 0, frame = 8
  69              		@ frame_needed = 0, uses_anonymous_args = 0
  70 0010 00B5     		push	{lr}
  71              		.cfi_def_cfa_offset 4
  72              		.cfi_offset 14, -4
  73 0012 83B0     		sub	sp, sp, #12
  74              		.cfi_def_cfa_offset 16
  75              		.loc 1 66 0
  76 0014 1048     		ldr	r0, .L8
  77 0016 FFF7FEFF 		bl	list_init_head
  78              		.loc 1 67 0
  79 001a 1048     		ldr	r0, .L8+4
  80 001c FFF7FEFF 		bl	list_init_head
  81              		.loc 1 70 0
  82 0020 0023     		movs	r3, #0
  83 0022 8DF80730 		strb	r3, [sp, #7]
  84 0026 0FE0     		b	.L6
  85              	.L7:
  86              		.loc 1 72 0 discriminator 2
  87 0028 9DF80730 		ldrb	r3, [sp, #7]	@ zero_extendqisi2
  88 002c 8C22     		movs	r2, #140
  89 002e 02FB03F2 		mul	r2, r2, r3
  90 0032 0B4B     		ldr	r3, .L8+8
  91 0034 1344     		add	r3, r3, r2
  92 0036 0848     		ldr	r0, .L8
  93 0038 1946     		mov	r1, r3
  94 003a FFF7FEFF 		bl	list_insert_tail
  95              		.loc 1 70 0 discriminator 2
  96 003e 9DF80730 		ldrb	r3, [sp, #7]	@ zero_extendqisi2
  97 0042 0133     		adds	r3, r3, #1
  98 0044 8DF80730 		strb	r3, [sp, #7]
  99              	.L6:
 100              		.loc 1 70 0 is_stmt 0 discriminator 1
 101 0048 9DF80730 		ldrb	r3, [sp, #7]	@ zero_extendqisi2
 102 004c 042B     		cmp	r3, #4
 103 004e EBD9     		bls	.L7
 104              		.loc 1 74 0 is_stmt 1
 105 0050 03B0     		add	sp, sp, #12
 106              		@ sp needed
 107 0052 5DF804FB 		ldr	pc, [sp], #4
 108              	.L9:
 109 0056 00BF     		.align	2
 110              	.L8:
ARM GAS  /tmp/ccDGRO0L.s 			page 3


 111 0058 00000000 		.word	hciReadPktPool
 112 005c 00000000 		.word	hciReadPktRxQueue
 113 0060 00000000 		.word	hciReadPacketBuffer
 114              		.cfi_endproc
 115              	.LFE270:
 116              		.size	HCI_Init, .-HCI_Init
 117              		.align	2
 118 0064 AFF30080 		.p2align 4,,15
 118      AFF30080 
 118      AFF30080 
 119              		.global	HCI_verify
 120              		.thumb
 121              		.thumb_func
 122              		.type	HCI_verify, %function
 123              	HCI_verify:
 124              	.LFB271:
 125              		.loc 1 86 0
 126              		.cfi_startproc
 127              		@ args = 0, pretend = 0, frame = 16
 128              		@ frame_needed = 0, uses_anonymous_args = 0
 129              		@ link register save eliminated.
 130 0070 84B0     		sub	sp, sp, #16
 131              		.cfi_def_cfa_offset 16
 132 0072 0190     		str	r0, [sp, #4]
 133              		.loc 1 87 0
 134 0074 019B     		ldr	r3, [sp, #4]
 135 0076 0833     		adds	r3, r3, #8
 136 0078 0393     		str	r3, [sp, #12]
 137              		.loc 1 89 0
 138 007a 039B     		ldr	r3, [sp, #12]
 139 007c 1B78     		ldrb	r3, [r3]	@ zero_extendqisi2
 140 007e 042B     		cmp	r3, #4
 141 0080 01D0     		beq	.L11
 142              		.loc 1 90 0
 143 0082 0123     		movs	r3, #1
 144 0084 0CE0     		b	.L12
 145              	.L11:
 146              		.loc 1 92 0
 147 0086 039B     		ldr	r3, [sp, #12]
 148 0088 0233     		adds	r3, r3, #2
 149 008a 1B78     		ldrb	r3, [r3]	@ zero_extendqisi2
 150 008c 1A46     		mov	r2, r3
 151 008e 019B     		ldr	r3, [sp, #4]
 152 0090 93F88830 		ldrb	r3, [r3, #136]	@ zero_extendqisi2
 153 0094 033B     		subs	r3, r3, #3
 154 0096 9A42     		cmp	r2, r3
 155 0098 01D0     		beq	.L13
 156              		.loc 1 93 0
 157 009a 0223     		movs	r3, #2
 158 009c 00E0     		b	.L12
 159              	.L13:
 160              		.loc 1 95 0
 161 009e 0023     		movs	r3, #0
 162              	.L12:
 163              		.loc 1 96 0
 164 00a0 1846     		mov	r0, r3
 165 00a2 04B0     		add	sp, sp, #16
ARM GAS  /tmp/ccDGRO0L.s 			page 4


 166              		@ sp needed
 167 00a4 7047     		bx	lr
 168              		.cfi_endproc
 169              	.LFE271:
 170              		.size	HCI_verify, .-HCI_verify
 171 00a6 00BF     		.align	2
 172 00a8 AFF30080 		.p2align 4,,15
 172      AFF30080 
 173              		.global	HCI_Process
 174              		.thumb
 175              		.thumb_func
 176              		.type	HCI_Process, %function
 177              	HCI_Process:
 178              	.LFB272:
 179              		.loc 1 99 0
 180              		.cfi_startproc
 181              		@ args = 0, pretend = 0, frame = 8
 182              		@ frame_needed = 0, uses_anonymous_args = 0
 183 00b0 00B5     		push	{lr}
 184              		.cfi_def_cfa_offset 4
 185              		.cfi_offset 14, -4
 186 00b2 83B0     		sub	sp, sp, #12
 187              		.cfi_def_cfa_offset 16
 188              		.loc 1 100 0
 189 00b4 0023     		movs	r3, #0
 190 00b6 0093     		str	r3, [sp]
 191              		.loc 1 102 0
 192 00b8 FFF7FEFF 		bl	Disable_SPI_IRQ
 193              		.loc 1 103 0
 194 00bc 1548     		ldr	r0, .L17
 195 00be FFF7FEFF 		bl	list_is_empty
 196 00c2 0346     		mov	r3, r0
 197 00c4 8DF80730 		strb	r3, [sp, #7]
 198              		.loc 1 105 0
 199 00c8 18E0     		b	.L15
 200              	.L16:
 201              		.loc 1 107 0
 202 00ca 6B46     		mov	r3, sp
 203 00cc 1148     		ldr	r0, .L17
 204 00ce 1946     		mov	r1, r3
 205 00d0 FFF7FEFF 		bl	list_remove_head
 206              		.loc 1 108 0
 207 00d4 FFF7FEFF 		bl	Enable_SPI_IRQ
 208              		.loc 1 109 0
 209 00d8 009B     		ldr	r3, [sp]
 210 00da 0833     		adds	r3, r3, #8
 211 00dc 1846     		mov	r0, r3
 212 00de FFF7FEFF 		bl	HCI_Event_CB
 213              		.loc 1 110 0
 214 00e2 FFF7FEFF 		bl	Disable_SPI_IRQ
 215              		.loc 1 111 0
 216 00e6 009B     		ldr	r3, [sp]
 217 00e8 0B48     		ldr	r0, .L17+4
 218 00ea 1946     		mov	r1, r3
 219 00ec FFF7FEFF 		bl	list_insert_tail
 220              		.loc 1 112 0
 221 00f0 0848     		ldr	r0, .L17
ARM GAS  /tmp/ccDGRO0L.s 			page 5


 222 00f2 FFF7FEFF 		bl	list_is_empty
 223 00f6 0346     		mov	r3, r0
 224 00f8 8DF80730 		strb	r3, [sp, #7]
 225              	.L15:
 226              		.loc 1 105 0 discriminator 1
 227 00fc 9DF80730 		ldrb	r3, [sp, #7]	@ zero_extendqisi2
 228 0100 002B     		cmp	r3, #0
 229 0102 E2D0     		beq	.L16
 230              		.loc 1 116 0
 231 0104 FFF7FEFF 		bl	HCI_Isr
 232              		.loc 1 117 0
 233 0108 FFF7FEFF 		bl	Enable_SPI_IRQ
 234              		.loc 1 118 0
 235 010c 03B0     		add	sp, sp, #12
 236              		@ sp needed
 237 010e 5DF804FB 		ldr	pc, [sp], #4
 238              	.L18:
 239 0112 00BF     		.align	2
 240              	.L17:
 241 0114 00000000 		.word	hciReadPktRxQueue
 242 0118 00000000 		.word	hciReadPktPool
 243              		.cfi_endproc
 244              	.LFE272:
 245              		.size	HCI_Process, .-HCI_Process
 246              		.align	2
 247 011c AFF30080 		.p2align 4,,15
 248              		.global	HCI_Queue_Empty
 249              		.thumb
 250              		.thumb_func
 251              		.type	HCI_Queue_Empty, %function
 252              	HCI_Queue_Empty:
 253              	.LFB273:
 254              		.loc 1 121 0
 255              		.cfi_startproc
 256              		@ args = 0, pretend = 0, frame = 0
 257              		@ frame_needed = 0, uses_anonymous_args = 0
 258 0120 08B5     		push	{r3, lr}
 259              		.cfi_def_cfa_offset 8
 260              		.cfi_offset 3, -8
 261              		.cfi_offset 14, -4
 262              		.loc 1 122 0
 263 0122 0348     		ldr	r0, .L21
 264 0124 FFF7FEFF 		bl	list_is_empty
 265 0128 0346     		mov	r3, r0
 266              		.loc 1 123 0
 267 012a 1846     		mov	r0, r3
 268 012c 08BD     		pop	{r3, pc}
 269              	.L22:
 270 012e 00BF     		.align	2
 271              	.L21:
 272 0130 00000000 		.word	hciReadPktRxQueue
 273              		.cfi_endproc
 274              	.LFE273:
 275              		.size	HCI_Queue_Empty, .-HCI_Queue_Empty
 276              		.align	2
 277 0134 AFF30080 		.p2align 4,,15
 277      AFF30080 
ARM GAS  /tmp/ccDGRO0L.s 			page 6


 277      AFF30080 
 278              		.global	HCI_Isr
 279              		.thumb
 280              		.thumb_func
 281              		.type	HCI_Isr, %function
 282              	HCI_Isr:
 283              	.LFB274:
 284              		.loc 1 126 0
 285              		.cfi_startproc
 286              		@ args = 0, pretend = 0, frame = 8
 287              		@ frame_needed = 0, uses_anonymous_args = 0
 288 0140 00B5     		push	{lr}
 289              		.cfi_def_cfa_offset 4
 290              		.cfi_offset 14, -4
 291 0142 83B0     		sub	sp, sp, #12
 292              		.cfi_def_cfa_offset 16
 293              		.loc 1 127 0
 294 0144 0023     		movs	r3, #0
 295 0146 0093     		str	r3, [sp]
 296              		.loc 1 130 0
 297 0148 FFF7FEFF 		bl	Clear_SPI_EXTI_Flag
 298              		.loc 1 131 0
 299 014c 3BE0     		b	.L24
 300              	.L32:
 301              		.loc 1 132 0
 302 014e 2248     		ldr	r0, .L33
 303 0150 FFF7FEFF 		bl	list_is_empty
 304 0154 0346     		mov	r3, r0
 305 0156 002B     		cmp	r3, #0
 306 0158 30D1     		bne	.L25
 307              		.loc 1 135 0
 308 015a 6B46     		mov	r3, sp
 309 015c 1E48     		ldr	r0, .L33
 310 015e 1946     		mov	r1, r3
 311 0160 FFF7FEFF 		bl	list_remove_head
 312              		.loc 1 137 0
 313 0164 009B     		ldr	r3, [sp]
 314 0166 0833     		adds	r3, r3, #8
 315 0168 1C48     		ldr	r0, .L33+4
 316 016a 1946     		mov	r1, r3
 317 016c 8022     		movs	r2, #128
 318 016e FFF7FEFF 		bl	BlueNRG_SPI_Read_All
 319 0172 0346     		mov	r3, r0
 320 0174 8DF80730 		strb	r3, [sp, #7]
 321              		.loc 1 138 0
 322 0178 9DF80730 		ldrb	r3, [sp, #7]	@ zero_extendqisi2
 323 017c 002B     		cmp	r3, #0
 324 017e 17D0     		beq	.L26
 325              		.loc 1 139 0
 326 0180 009B     		ldr	r3, [sp]
 327 0182 9DF80720 		ldrb	r2, [sp, #7]
 328 0186 83F88820 		strb	r2, [r3, #136]
 329              		.loc 1 140 0
 330 018a 009B     		ldr	r3, [sp]
 331 018c 1846     		mov	r0, r3
 332 018e FFF7FEFF 		bl	HCI_verify
 333 0192 0346     		mov	r3, r0
ARM GAS  /tmp/ccDGRO0L.s 			page 7


 334 0194 002B     		cmp	r3, #0
 335 0196 05D1     		bne	.L27
 336              		.loc 1 141 0
 337 0198 009B     		ldr	r3, [sp]
 338 019a 1148     		ldr	r0, .L33+8
 339 019c 1946     		mov	r1, r3
 340 019e FFF7FEFF 		bl	list_insert_tail
 341 01a2 0EE0     		b	.L30
 342              	.L27:
 343              		.loc 1 143 0
 344 01a4 009B     		ldr	r3, [sp]
 345 01a6 0C48     		ldr	r0, .L33
 346 01a8 1946     		mov	r1, r3
 347 01aa FFF7FEFF 		bl	list_insert_head
 348 01ae 08E0     		b	.L30
 349              	.L26:
 350              		.loc 1 147 0
 351 01b0 009B     		ldr	r3, [sp]
 352 01b2 0948     		ldr	r0, .L33
 353 01b4 1946     		mov	r1, r3
 354 01b6 FFF7FEFF 		bl	list_insert_head
 355 01ba 02E0     		b	.L30
 356              	.L25:
 357              		.loc 1 153 0
 358 01bc FFF7FEFF 		bl	Clear_SPI_EXTI_Flag
 359 01c0 06E0     		b	.L23
 360              	.L30:
 361              		.loc 1 157 0
 362 01c2 FFF7FEFF 		bl	Clear_SPI_EXTI_Flag
 363              	.L24:
 364              		.loc 1 131 0 discriminator 1
 365 01c6 FFF7FEFF 		bl	BlueNRG_DataPresent
 366 01ca 0346     		mov	r3, r0
 367 01cc 002B     		cmp	r3, #0
 368 01ce BED1     		bne	.L32
 369              	.L23:
 370              		.loc 1 159 0
 371 01d0 03B0     		add	sp, sp, #12
 372              		@ sp needed
 373 01d2 5DF804FB 		ldr	pc, [sp], #4
 374              	.L34:
 375 01d6 00BF     		.align	2
 376              	.L33:
 377 01d8 00000000 		.word	hciReadPktPool
 378 01dc 00000000 		.word	SpiHandle
 379 01e0 00000000 		.word	hciReadPktRxQueue
 380              		.cfi_endproc
 381              	.LFE274:
 382              		.size	HCI_Isr, .-HCI_Isr
 383              		.align	2
 384 01e4 AFF30080 		.p2align 4,,15
 384      AFF30080 
 384      AFF30080 
 385              		.global	hci_write
 386              		.thumb
 387              		.thumb_func
 388              		.type	hci_write, %function
ARM GAS  /tmp/ccDGRO0L.s 			page 8


 389              	hci_write:
 390              	.LFB275:
 391              		.loc 1 161 0
 392              		.cfi_startproc
 393              		@ args = 0, pretend = 0, frame = 16
 394              		@ frame_needed = 0, uses_anonymous_args = 0
 395 01f0 00B5     		push	{lr}
 396              		.cfi_def_cfa_offset 4
 397              		.cfi_offset 14, -4
 398 01f2 85B0     		sub	sp, sp, #20
 399              		.cfi_def_cfa_offset 24
 400 01f4 0390     		str	r0, [sp, #12]
 401 01f6 0291     		str	r1, [sp, #8]
 402 01f8 8DF80720 		strb	r2, [sp, #7]
 403 01fc 8DF80630 		strb	r3, [sp, #6]
 404              		.loc 1 171 0
 405 0200 9DF80720 		ldrb	r2, [sp, #7]	@ zero_extendqisi2
 406 0204 9DF80630 		ldrb	r3, [sp, #6]	@ zero_extendqisi2
 407 0208 0398     		ldr	r0, [sp, #12]
 408 020a 0299     		ldr	r1, [sp, #8]
 409 020c FFF7FEFF 		bl	Hal_Write_Serial
 410              		.loc 1 172 0
 411 0210 05B0     		add	sp, sp, #20
 412              		@ sp needed
 413 0212 5DF804FB 		ldr	pc, [sp], #4
 414              		.cfi_endproc
 415              	.LFE275:
 416              		.size	hci_write, .-hci_write
 417 0216 00BF     		.align	2
 418 0218 AFF30080 		.p2align 4,,15
 418      AFF30080 
 419              		.global	hci_send_cmd
 420              		.thumb
 421              		.thumb_func
 422              		.type	hci_send_cmd, %function
 423              	hci_send_cmd:
 424              	.LFB276:
 425              		.loc 1 175 0
 426              		.cfi_startproc
 427              		@ args = 0, pretend = 0, frame = 24
 428              		@ frame_needed = 0, uses_anonymous_args = 0
 429 0220 00B5     		push	{lr}
 430              		.cfi_def_cfa_offset 4
 431              		.cfi_offset 14, -4
 432 0222 87B0     		sub	sp, sp, #28
 433              		.cfi_def_cfa_offset 32
 434 0224 0193     		str	r3, [sp, #4]
 435 0226 0346     		mov	r3, r0	@ movhi
 436 0228 ADF80E30 		strh	r3, [sp, #14]	@ movhi
 437 022c 0B46     		mov	r3, r1	@ movhi
 438 022e ADF80C30 		strh	r3, [sp, #12]	@ movhi
 439 0232 1346     		mov	r3, r2
 440 0234 8DF80B30 		strb	r3, [sp, #11]
 441              		.loc 1 178 0
 442 0238 BDF80C30 		ldrh	r3, [sp, #12]
 443 023c C3F30903 		ubfx	r3, r3, #0, #10
 444 0240 9AB2     		uxth	r2, r3
ARM GAS  /tmp/ccDGRO0L.s 			page 9


 445 0242 BDF80E30 		ldrh	r3, [sp, #14]
 446 0246 9B02     		lsls	r3, r3, #10
 447 0248 9BB2     		uxth	r3, r3
 448 024a 1343     		orrs	r3, r3, r2
 449 024c 9BB2     		uxth	r3, r3
 450 024e 9BB2     		uxth	r3, r3
 451 0250 ADF81430 		strh	r3, [sp, #20]	@ movhi
 452              		.loc 1 179 0
 453 0254 9DF80B30 		ldrb	r3, [sp, #11]
 454 0258 8DF81630 		strb	r3, [sp, #22]
 455              		.loc 1 182 0
 456 025c 0123     		movs	r3, #1
 457 025e 8DF81030 		strb	r3, [sp, #16]
 458              		.loc 1 183 0
 459 0262 04AB     		add	r3, sp, #16
 460 0264 5A1C     		adds	r2, r3, #1
 461 0266 05AB     		add	r3, sp, #20
 462 0268 1046     		mov	r0, r2
 463 026a 1946     		mov	r1, r3
 464 026c 0322     		movs	r2, #3
 465 026e FFF7FEFF 		bl	Osal_MemCpy
 466              		.loc 1 185 0
 467 0272 04AA     		add	r2, sp, #16
 468 0274 9DF80B30 		ldrb	r3, [sp, #11]	@ zero_extendqisi2
 469 0278 1046     		mov	r0, r2
 470 027a 0199     		ldr	r1, [sp, #4]
 471 027c 0422     		movs	r2, #4
 472 027e FFF7FEFF 		bl	hci_write
 473              		.loc 1 186 0
 474 0282 07B0     		add	sp, sp, #28
 475              		@ sp needed
 476 0284 5DF804FB 		ldr	pc, [sp], #4
 477              		.cfi_endproc
 478              	.LFE276:
 479              		.size	hci_send_cmd, .-hci_send_cmd
 480              		.align	2
 481 0288 AFF30080 		.p2align 4,,15
 481      AFF30080 
 482              		.thumb
 483              		.thumb_func
 484              		.type	move_list, %function
 485              	move_list:
 486              	.LFB277:
 487              		.loc 1 189 0
 488              		.cfi_startproc
 489              		@ args = 0, pretend = 0, frame = 16
 490              		@ frame_needed = 0, uses_anonymous_args = 0
 491 0290 00B5     		push	{lr}
 492              		.cfi_def_cfa_offset 4
 493              		.cfi_offset 14, -4
 494 0292 85B0     		sub	sp, sp, #20
 495              		.cfi_def_cfa_offset 24
 496 0294 0190     		str	r0, [sp, #4]
 497 0296 0091     		str	r1, [sp]
 498              		.loc 1 192 0
 499 0298 09E0     		b	.L38
 500              	.L39:
ARM GAS  /tmp/ccDGRO0L.s 			page 10


 501              		.loc 1 193 0
 502 029a 03AB     		add	r3, sp, #12
 503 029c 0098     		ldr	r0, [sp]
 504 029e 1946     		mov	r1, r3
 505 02a0 FFF7FEFF 		bl	list_remove_tail
 506              		.loc 1 194 0
 507 02a4 039B     		ldr	r3, [sp, #12]
 508 02a6 0198     		ldr	r0, [sp, #4]
 509 02a8 1946     		mov	r1, r3
 510 02aa FFF7FEFF 		bl	list_insert_head
 511              	.L38:
 512              		.loc 1 192 0 discriminator 1
 513 02ae 0098     		ldr	r0, [sp]
 514 02b0 FFF7FEFF 		bl	list_is_empty
 515 02b4 0346     		mov	r3, r0
 516 02b6 002B     		cmp	r3, #0
 517 02b8 EFD0     		beq	.L39
 518              		.loc 1 196 0
 519 02ba 05B0     		add	sp, sp, #20
 520              		@ sp needed
 521 02bc 5DF804FB 		ldr	pc, [sp], #4
 522              		.cfi_endproc
 523              	.LFE277:
 524              		.size	move_list, .-move_list
 525              		.align	2
 526              		.p2align 4,,15
 527              		.thumb
 528              		.thumb_func
 529              		.type	free_event_list, %function
 530              	free_event_list:
 531              	.LFB278:
 532              		.loc 1 200 0
 533              		.cfi_startproc
 534              		@ args = 0, pretend = 0, frame = 8
 535              		@ frame_needed = 0, uses_anonymous_args = 0
 536 02c0 00B5     		push	{lr}
 537              		.cfi_def_cfa_offset 4
 538              		.cfi_offset 14, -4
 539 02c2 83B0     		sub	sp, sp, #12
 540              		.cfi_def_cfa_offset 16
 541              		.loc 1 203 0
 542 02c4 FFF7FEFF 		bl	Disable_SPI_IRQ
 543              		.loc 1 205 0
 544 02c8 0BE0     		b	.L41
 545              	.L42:
 546              		.loc 1 206 0
 547 02ca 01AB     		add	r3, sp, #4
 548 02cc 0A48     		ldr	r0, .L43
 549 02ce 1946     		mov	r1, r3
 550 02d0 FFF7FEFF 		bl	list_remove_head
 551              		.loc 1 207 0
 552 02d4 019B     		ldr	r3, [sp, #4]
 553 02d6 0948     		ldr	r0, .L43+4
 554 02d8 1946     		mov	r1, r3
 555 02da FFF7FEFF 		bl	list_insert_tail
 556              		.loc 1 210 0
 557 02de FFF7FEFF 		bl	HCI_Isr
ARM GAS  /tmp/ccDGRO0L.s 			page 11


 558              	.L41:
 559              		.loc 1 205 0 discriminator 1
 560 02e2 0648     		ldr	r0, .L43+4
 561 02e4 FFF7FEFF 		bl	list_get_size
 562 02e8 0346     		mov	r3, r0
 563 02ea 012B     		cmp	r3, #1
 564 02ec EDDD     		ble	.L42
 565              		.loc 1 213 0
 566 02ee FFF7FEFF 		bl	Enable_SPI_IRQ
 567              		.loc 1 214 0
 568 02f2 03B0     		add	sp, sp, #12
 569              		@ sp needed
 570 02f4 5DF804FB 		ldr	pc, [sp], #4
 571              	.L44:
 572              		.align	2
 573              	.L43:
 574 02f8 00000000 		.word	hciReadPktRxQueue
 575 02fc 00000000 		.word	hciReadPktPool
 576              		.cfi_endproc
 577              	.LFE278:
 578              		.size	free_event_list, .-free_event_list
 579              		.align	2
 580              		.p2align 4,,15
 581              		.global	hci_send_req
 582              		.thumb
 583              		.thumb_func
 584              		.type	hci_send_req, %function
 585              	hci_send_req:
 586              	.LFB279:
 587              		.loc 1 217 0
 588              		.cfi_startproc
 589              		@ args = 0, pretend = 0, frame = 64
 590              		@ frame_needed = 0, uses_anonymous_args = 0
 591 0300 00B5     		push	{lr}
 592              		.cfi_def_cfa_offset 4
 593              		.cfi_offset 14, -4
 594 0302 91B0     		sub	sp, sp, #68
 595              		.cfi_def_cfa_offset 72
 596 0304 0190     		str	r0, [sp, #4]
 597 0306 0B46     		mov	r3, r1
 598 0308 8DF80330 		strb	r3, [sp, #3]
 599              		.loc 1 219 0
 600 030c 019B     		ldr	r3, [sp, #4]
 601 030e 5B88     		ldrh	r3, [r3, #2]
 602 0310 9BB2     		uxth	r3, r3
 603 0312 C3F30903 		ubfx	r3, r3, #0, #10
 604 0316 9AB2     		uxth	r2, r3
 605 0318 019B     		ldr	r3, [sp, #4]
 606 031a 1B88     		ldrh	r3, [r3]
 607 031c 9B02     		lsls	r3, r3, #10
 608 031e 9BB2     		uxth	r3, r3
 609 0320 1343     		orrs	r3, r3, r2
 610 0322 9BB2     		uxth	r3, r3
 611 0324 ADF83A30 		strh	r3, [sp, #58]	@ movhi
 612              		.loc 1 222 0
 613 0328 6423     		movs	r3, #100
 614 032a 0F93     		str	r3, [sp, #60]
ARM GAS  /tmp/ccDGRO0L.s 			page 12


 615              		.loc 1 224 0
 616 032c 0023     		movs	r3, #0
 617 032e 0493     		str	r3, [sp, #16]
 618              		.loc 1 227 0
 619 0330 02AB     		add	r3, sp, #8
 620 0332 1846     		mov	r0, r3
 621 0334 FFF7FEFF 		bl	list_init_head
 622              		.loc 1 229 0
 623 0338 FFF7C2FF 		bl	free_event_list
 624              		.loc 1 231 0
 625 033c 019B     		ldr	r3, [sp, #4]
 626 033e 1888     		ldrh	r0, [r3]
 627 0340 019B     		ldr	r3, [sp, #4]
 628 0342 5988     		ldrh	r1, [r3, #2]
 629 0344 019B     		ldr	r3, [sp, #4]
 630 0346 DB68     		ldr	r3, [r3, #12]
 631 0348 DAB2     		uxtb	r2, r3
 632 034a 019B     		ldr	r3, [sp, #4]
 633 034c 9B68     		ldr	r3, [r3, #8]
 634 034e FFF7FEFF 		bl	hci_send_cmd
 635              		.loc 1 233 0
 636 0352 9DF80330 		ldrb	r3, [sp, #3]	@ zero_extendqisi2
 637 0356 002B     		cmp	r3, #0
 638 0358 01D0     		beq	.L46
 639              		.loc 1 234 0
 640 035a 0023     		movs	r3, #0
 641 035c EEE0     		b	.L70
 642              	.L46:
 643              		.loc 1 238 0
 644 035e 0F9B     		ldr	r3, [sp, #60]
 645 0360 002B     		cmp	r3, #0
 646 0362 01D1     		bne	.L48
 647              		.loc 1 239 0
 648 0364 0123     		movs	r3, #1
 649 0366 0F93     		str	r3, [sp, #60]
 650              	.L48:
 651              		.loc 1 241 0
 652 0368 0F9B     		ldr	r3, [sp, #60]
 653 036a 05AA     		add	r2, sp, #20
 654 036c 1046     		mov	r0, r2
 655 036e 1946     		mov	r1, r3
 656 0370 FFF7FEFF 		bl	Timer_Set
 657              	.L53:
 658              	.LBB2:
 659              		.loc 1 265 0
 660 0374 05AB     		add	r3, sp, #20
 661 0376 1846     		mov	r0, r3
 662 0378 FFF7FEFF 		bl	Timer_Expired
 663 037c 0346     		mov	r3, r0
 664 037e 002B     		cmp	r3, #0
 665 0380 00D0     		beq	.L49
 666              		.loc 1 266 0
 667 0382 BCE0     		b	.L50
 668              	.L49:
 669              		.loc 1 268 0
 670 0384 FFF7FEFF 		bl	HCI_Queue_Empty
 671 0388 0346     		mov	r3, r0
ARM GAS  /tmp/ccDGRO0L.s 			page 13


 672 038a 002B     		cmp	r3, #0
 673 038c 10D1     		bne	.L51
 674              		.loc 1 269 0
 675 038e 00BF     		nop
 676              		.loc 1 275 0
 677 0390 FFF7FEFF 		bl	Disable_SPI_IRQ
 678              		.loc 1 276 0
 679 0394 04AB     		add	r3, sp, #16
 680 0396 6B48     		ldr	r0, .L73
 681 0398 1946     		mov	r1, r3
 682 039a FFF7FEFF 		bl	list_remove_head
 683              		.loc 1 278 0
 684 039e 049B     		ldr	r3, [sp, #16]
 685 03a0 0833     		adds	r3, r3, #8
 686 03a2 0D93     		str	r3, [sp, #52]
 687              		.loc 1 280 0
 688 03a4 0D9B     		ldr	r3, [sp, #52]
 689 03a6 1B78     		ldrb	r3, [r3]	@ zero_extendqisi2
 690 03a8 042B     		cmp	r3, #4
 691 03aa 40F08680 		bne	.L54
 692 03ae 00E0     		b	.L71
 693              	.L51:
 694              		.loc 1 271 0
 695 03b0 E0E7     		b	.L53
 696              	.L71:
 697              		.loc 1 282 0
 698 03b2 0D9B     		ldr	r3, [sp, #52]
 699 03b4 0133     		adds	r3, r3, #1
 700 03b6 0C93     		str	r3, [sp, #48]
 701              		.loc 1 284 0
 702 03b8 049B     		ldr	r3, [sp, #16]
 703 03ba 0B33     		adds	r3, r3, #11
 704 03bc 0B93     		str	r3, [sp, #44]
 705              		.loc 1 285 0
 706 03be 049B     		ldr	r3, [sp, #16]
 707 03c0 93F88830 		ldrb	r3, [r3, #136]	@ zero_extendqisi2
 708 03c4 033B     		subs	r3, r3, #3
 709 03c6 0A93     		str	r3, [sp, #40]
 710              		.loc 1 287 0
 711 03c8 0C9B     		ldr	r3, [sp, #48]
 712 03ca 1B78     		ldrb	r3, [r3]	@ zero_extendqisi2
 713 03cc 0F2B     		cmp	r3, #15
 714 03ce 0AD0     		beq	.L56
 715 03d0 0F2B     		cmp	r3, #15
 716 03d2 02DC     		bgt	.L57
 717 03d4 0E2B     		cmp	r3, #14
 718 03d6 2CD0     		beq	.L58
 719              		.loc 1 334 0
 720 03d8 6FE0     		b	.L54
 721              	.L57:
 722              		.loc 1 287 0
 723 03da 102B     		cmp	r3, #16
 724 03dc 00F08E80 		beq	.L72
 725 03e0 3E2B     		cmp	r3, #62
 726 03e2 49D0     		beq	.L60
 727              		.loc 1 334 0
 728 03e4 69E0     		b	.L54
ARM GAS  /tmp/ccDGRO0L.s 			page 14


 729              	.L56:
 730              		.loc 1 290 0
 731 03e6 0B9B     		ldr	r3, [sp, #44]
 732 03e8 0993     		str	r3, [sp, #36]
 733              		.loc 1 292 0
 734 03ea 099B     		ldr	r3, [sp, #36]
 735 03ec 5B88     		ldrh	r3, [r3, #2]	@ unaligned
 736 03ee 9BB2     		uxth	r3, r3
 737 03f0 BDF83A20 		ldrh	r2, [sp, #58]
 738 03f4 9A42     		cmp	r2, r3
 739 03f6 00D0     		beq	.L61
 740              		.loc 1 293 0
 741 03f8 81E0     		b	.L50
 742              	.L61:
 743              		.loc 1 295 0
 744 03fa 019B     		ldr	r3, [sp, #4]
 745 03fc 5B68     		ldr	r3, [r3, #4]
 746 03fe 0F2B     		cmp	r3, #15
 747 0400 05D0     		beq	.L62
 748              		.loc 1 296 0
 749 0402 099B     		ldr	r3, [sp, #36]
 750 0404 1B78     		ldrb	r3, [r3]	@ zero_extendqisi2
 751 0406 002B     		cmp	r3, #0
 752 0408 00D0     		beq	.L63
 753              		.loc 1 297 0
 754 040a 78E0     		b	.L50
 755              	.L63:
 756              		.loc 1 299 0
 757 040c 55E0     		b	.L54
 758              	.L62:
 759              		.loc 1 302 0
 760 040e 019B     		ldr	r3, [sp, #4]
 761 0410 5A69     		ldr	r2, [r3, #20]
 762 0412 0A9B     		ldr	r3, [sp, #40]
 763 0414 9A42     		cmp	r2, r3
 764 0416 A8BF     		it	ge
 765 0418 1A46     		movge	r2, r3
 766 041a 019B     		ldr	r3, [sp, #4]
 767 041c 5A61     		str	r2, [r3, #20]
 768              		.loc 1 303 0
 769 041e 019B     		ldr	r3, [sp, #4]
 770 0420 1A69     		ldr	r2, [r3, #16]
 771 0422 019B     		ldr	r3, [sp, #4]
 772 0424 5B69     		ldr	r3, [r3, #20]
 773 0426 1046     		mov	r0, r2
 774 0428 0B99     		ldr	r1, [sp, #44]
 775 042a 1A46     		mov	r2, r3
 776 042c FFF7FEFF 		bl	Osal_MemCpy
 777              		.loc 1 304 0
 778 0430 77E0     		b	.L64
 779              	.L58:
 780              		.loc 1 307 0
 781 0432 0B9B     		ldr	r3, [sp, #44]
 782 0434 0893     		str	r3, [sp, #32]
 783              		.loc 1 309 0
 784 0436 089B     		ldr	r3, [sp, #32]
 785 0438 B3F80130 		ldrh	r3, [r3, #1]	@ unaligned
ARM GAS  /tmp/ccDGRO0L.s 			page 15


 786 043c 9BB2     		uxth	r3, r3
 787 043e BDF83A20 		ldrh	r2, [sp, #58]
 788 0442 9A42     		cmp	r2, r3
 789 0444 00D0     		beq	.L65
 790              		.loc 1 310 0
 791 0446 5AE0     		b	.L50
 792              	.L65:
 793              		.loc 1 312 0
 794 0448 0B9B     		ldr	r3, [sp, #44]
 795 044a 0333     		adds	r3, r3, #3
 796 044c 0B93     		str	r3, [sp, #44]
 797              		.loc 1 313 0
 798 044e 0A9B     		ldr	r3, [sp, #40]
 799 0450 033B     		subs	r3, r3, #3
 800 0452 0A93     		str	r3, [sp, #40]
 801              		.loc 1 315 0
 802 0454 019B     		ldr	r3, [sp, #4]
 803 0456 5A69     		ldr	r2, [r3, #20]
 804 0458 0A9B     		ldr	r3, [sp, #40]
 805 045a 9A42     		cmp	r2, r3
 806 045c A8BF     		it	ge
 807 045e 1A46     		movge	r2, r3
 808 0460 019B     		ldr	r3, [sp, #4]
 809 0462 5A61     		str	r2, [r3, #20]
 810              		.loc 1 316 0
 811 0464 019B     		ldr	r3, [sp, #4]
 812 0466 1A69     		ldr	r2, [r3, #16]
 813 0468 019B     		ldr	r3, [sp, #4]
 814 046a 5B69     		ldr	r3, [r3, #20]
 815 046c 1046     		mov	r0, r2
 816 046e 0B99     		ldr	r1, [sp, #44]
 817 0470 1A46     		mov	r2, r3
 818 0472 FFF7FEFF 		bl	Osal_MemCpy
 819              		.loc 1 317 0
 820 0476 54E0     		b	.L64
 821              	.L60:
 822              		.loc 1 320 0
 823 0478 0B9B     		ldr	r3, [sp, #44]
 824 047a 0793     		str	r3, [sp, #28]
 825              		.loc 1 322 0
 826 047c 079B     		ldr	r3, [sp, #28]
 827 047e 1B78     		ldrb	r3, [r3]	@ zero_extendqisi2
 828 0480 1A46     		mov	r2, r3
 829 0482 019B     		ldr	r3, [sp, #4]
 830 0484 5B68     		ldr	r3, [r3, #4]
 831 0486 9A42     		cmp	r2, r3
 832 0488 00D0     		beq	.L66
 833              		.loc 1 323 0
 834 048a 16E0     		b	.L54
 835              	.L66:
 836              		.loc 1 325 0
 837 048c 0A9B     		ldr	r3, [sp, #40]
 838 048e 013B     		subs	r3, r3, #1
 839 0490 0A93     		str	r3, [sp, #40]
 840              		.loc 1 326 0
 841 0492 019B     		ldr	r3, [sp, #4]
 842 0494 5A69     		ldr	r2, [r3, #20]
ARM GAS  /tmp/ccDGRO0L.s 			page 16


 843 0496 0A9B     		ldr	r3, [sp, #40]
 844 0498 9A42     		cmp	r2, r3
 845 049a A8BF     		it	ge
 846 049c 1A46     		movge	r2, r3
 847 049e 019B     		ldr	r3, [sp, #4]
 848 04a0 5A61     		str	r2, [r3, #20]
 849              		.loc 1 327 0
 850 04a2 019B     		ldr	r3, [sp, #4]
 851 04a4 1969     		ldr	r1, [r3, #16]
 852 04a6 079B     		ldr	r3, [sp, #28]
 853 04a8 5A1C     		adds	r2, r3, #1
 854 04aa 019B     		ldr	r3, [sp, #4]
 855 04ac 5B69     		ldr	r3, [r3, #20]
 856 04ae 0846     		mov	r0, r1
 857 04b0 1146     		mov	r1, r2
 858 04b2 1A46     		mov	r2, r3
 859 04b4 FFF7FEFF 		bl	Osal_MemCpy
 860              		.loc 1 328 0
 861 04b8 33E0     		b	.L64
 862              	.L54:
 863              		.loc 1 342 0
 864 04ba 2348     		ldr	r0, .L73+4
 865 04bc FFF7FEFF 		bl	list_is_empty
 866 04c0 0346     		mov	r3, r0
 867 04c2 002B     		cmp	r3, #0
 868 04c4 0DD0     		beq	.L67
 869              		.loc 1 342 0 is_stmt 0 discriminator 1
 870 04c6 1F48     		ldr	r0, .L73
 871 04c8 FFF7FEFF 		bl	list_is_empty
 872 04cc 0346     		mov	r3, r0
 873 04ce 002B     		cmp	r3, #0
 874 04d0 07D0     		beq	.L67
 875              		.loc 1 343 0 is_stmt 1
 876 04d2 049B     		ldr	r3, [sp, #16]
 877 04d4 1C48     		ldr	r0, .L73+4
 878 04d6 1946     		mov	r1, r3
 879 04d8 FFF7FEFF 		bl	list_insert_tail
 880              		.loc 1 344 0
 881 04dc 0023     		movs	r3, #0
 882 04de 0493     		str	r3, [sp, #16]
 883 04e0 07E0     		b	.L68
 884              	.L67:
 885              		.loc 1 351 0
 886 04e2 049B     		ldr	r3, [sp, #16]
 887 04e4 02AA     		add	r2, sp, #8
 888 04e6 1046     		mov	r0, r2
 889 04e8 1946     		mov	r1, r3
 890 04ea FFF7FEFF 		bl	list_insert_tail
 891              		.loc 1 352 0
 892 04ee 0023     		movs	r3, #0
 893 04f0 0493     		str	r3, [sp, #16]
 894              	.L68:
 895              		.loc 1 355 0
 896 04f2 FFF7FEFF 		bl	HCI_Isr
 897              		.loc 1 357 0
 898 04f6 FFF7FEFF 		bl	Enable_SPI_IRQ
 899              	.LBE2:
ARM GAS  /tmp/ccDGRO0L.s 			page 17


 900              		.loc 1 359 0
 901 04fa 3BE7     		b	.L53
 902              	.L72:
 903              	.LBB3:
 904              		.loc 1 331 0
 905 04fc 00BF     		nop
 906              	.L50:
 907              	.LBE3:
 908              		.loc 1 362 0
 909 04fe 049B     		ldr	r3, [sp, #16]
 910 0500 002B     		cmp	r3, #0
 911 0502 04D0     		beq	.L69
 912              		.loc 1 363 0
 913 0504 049B     		ldr	r3, [sp, #16]
 914 0506 1048     		ldr	r0, .L73+4
 915 0508 1946     		mov	r1, r3
 916 050a FFF7FEFF 		bl	list_insert_head
 917              	.L69:
 918              		.loc 1 365 0
 919 050e 02AB     		add	r3, sp, #8
 920 0510 0C48     		ldr	r0, .L73
 921 0512 1946     		mov	r1, r3
 922 0514 FFF7BCFE 		bl	move_list
 923              		.loc 1 366 0
 924 0518 FFF7FEFF 		bl	Enable_SPI_IRQ
 925              		.loc 1 367 0
 926 051c 4FF0FF33 		mov	r3, #-1
 927 0520 0CE0     		b	.L70
 928              	.L64:
 929              		.loc 1 371 0
 930 0522 049B     		ldr	r3, [sp, #16]
 931 0524 0848     		ldr	r0, .L73+4
 932 0526 1946     		mov	r1, r3
 933 0528 FFF7FEFF 		bl	list_insert_head
 934              		.loc 1 372 0
 935 052c 02AB     		add	r3, sp, #8
 936 052e 0548     		ldr	r0, .L73
 937 0530 1946     		mov	r1, r3
 938 0532 FFF7ADFE 		bl	move_list
 939              		.loc 1 374 0
 940 0536 FFF7FEFF 		bl	Enable_SPI_IRQ
 941              		.loc 1 375 0
 942 053a 0023     		movs	r3, #0
 943              	.L70:
 944              		.loc 1 376 0
 945 053c 1846     		mov	r0, r3
 946 053e 11B0     		add	sp, sp, #68
 947              		@ sp needed
 948 0540 5DF804FB 		ldr	pc, [sp], #4
 949              	.L74:
 950              		.align	2
 951              	.L73:
 952 0544 00000000 		.word	hciReadPktRxQueue
 953 0548 00000000 		.word	hciReadPktPool
 954              		.cfi_endproc
 955              	.LFE279:
 956              		.size	hci_send_req, .-hci_send_req
ARM GAS  /tmp/ccDGRO0L.s 			page 18


 957              		.align	2
 958 054c AFF30080 		.p2align 4,,15
 959              		.global	hci_reset
 960              		.thumb
 961              		.thumb_func
 962              		.type	hci_reset, %function
 963              	hci_reset:
 964              	.LFB280:
 965              		.loc 1 379 0
 966              		.cfi_startproc
 967              		@ args = 0, pretend = 0, frame = 32
 968              		@ frame_needed = 0, uses_anonymous_args = 0
 969 0550 00B5     		push	{lr}
 970              		.cfi_def_cfa_offset 4
 971              		.cfi_offset 14, -4
 972 0552 89B0     		sub	sp, sp, #36
 973              		.cfi_def_cfa_offset 40
 974              		.loc 1 383 0
 975 0554 02AB     		add	r3, sp, #8
 976 0556 1846     		mov	r0, r3
 977 0558 0021     		movs	r1, #0
 978 055a 1822     		movs	r2, #24
 979 055c FFF7FEFF 		bl	Osal_MemSet
 980              		.loc 1 384 0
 981 0560 0323     		movs	r3, #3
 982 0562 ADF80830 		strh	r3, [sp, #8]	@ movhi
 983              		.loc 1 385 0
 984 0566 0323     		movs	r3, #3
 985 0568 ADF80A30 		strh	r3, [sp, #10]	@ movhi
 986              		.loc 1 386 0
 987 056c 0DF10703 		add	r3, sp, #7
 988 0570 0693     		str	r3, [sp, #24]
 989              		.loc 1 387 0
 990 0572 0123     		movs	r3, #1
 991 0574 0793     		str	r3, [sp, #28]
 992              		.loc 1 389 0
 993 0576 02AB     		add	r3, sp, #8
 994 0578 1846     		mov	r0, r3
 995 057a 0021     		movs	r1, #0
 996 057c FFF7FEFF 		bl	hci_send_req
 997 0580 0346     		mov	r3, r0
 998 0582 002B     		cmp	r3, #0
 999 0584 01DA     		bge	.L76
 1000              		.loc 1 390 0
 1001 0586 FF23     		movs	r3, #255
 1002 0588 01E0     		b	.L78
 1003              	.L76:
 1004              		.loc 1 392 0
 1005 058a 9DF80730 		ldrb	r3, [sp, #7]	@ zero_extendqisi2
 1006              	.L78:
 1007              		.loc 1 393 0
 1008 058e 1846     		mov	r0, r3
 1009 0590 09B0     		add	sp, sp, #36
 1010              		@ sp needed
 1011 0592 5DF804FB 		ldr	pc, [sp], #4
 1012              		.cfi_endproc
 1013              	.LFE280:
ARM GAS  /tmp/ccDGRO0L.s 			page 19


 1014              		.size	hci_reset, .-hci_reset
 1015 0596 00BF     		.align	2
 1016 0598 AFF30080 		.p2align 4,,15
 1016      AFF30080 
 1017              		.global	hci_disconnect
 1018              		.thumb
 1019              		.thumb_func
 1020              		.type	hci_disconnect, %function
 1021              	hci_disconnect:
 1022              	.LFB281:
 1023              		.loc 1 396 0
 1024              		.cfi_startproc
 1025              		@ args = 0, pretend = 0, frame = 40
 1026              		@ frame_needed = 0, uses_anonymous_args = 0
 1027 05a0 00B5     		push	{lr}
 1028              		.cfi_def_cfa_offset 4
 1029              		.cfi_offset 14, -4
 1030 05a2 8BB0     		sub	sp, sp, #44
 1031              		.cfi_def_cfa_offset 48
 1032 05a4 0246     		mov	r2, r0
 1033 05a6 0B46     		mov	r3, r1
 1034 05a8 ADF80620 		strh	r2, [sp, #6]	@ movhi
 1035 05ac 8DF80530 		strb	r3, [sp, #5]
 1036              		.loc 1 401 0
 1037 05b0 BDF80630 		ldrh	r3, [sp, #6]	@ movhi
 1038 05b4 ADF80C30 		strh	r3, [sp, #12]	@ movhi
 1039              		.loc 1 402 0
 1040 05b8 9DF80530 		ldrb	r3, [sp, #5]
 1041 05bc 8DF80E30 		strb	r3, [sp, #14]
 1042              		.loc 1 404 0
 1043 05c0 04AB     		add	r3, sp, #16
 1044 05c2 1846     		mov	r0, r3
 1045 05c4 0021     		movs	r1, #0
 1046 05c6 1822     		movs	r2, #24
 1047 05c8 FFF7FEFF 		bl	Osal_MemSet
 1048              		.loc 1 405 0
 1049 05cc 0123     		movs	r3, #1
 1050 05ce ADF81030 		strh	r3, [sp, #16]	@ movhi
 1051              		.loc 1 406 0
 1052 05d2 0623     		movs	r3, #6
 1053 05d4 ADF81230 		strh	r3, [sp, #18]	@ movhi
 1054              		.loc 1 407 0
 1055 05d8 03AB     		add	r3, sp, #12
 1056 05da 0693     		str	r3, [sp, #24]
 1057              		.loc 1 408 0
 1058 05dc 0323     		movs	r3, #3
 1059 05de 0793     		str	r3, [sp, #28]
 1060              		.loc 1 409 0
 1061 05e0 0F23     		movs	r3, #15
 1062 05e2 0593     		str	r3, [sp, #20]
 1063              		.loc 1 410 0
 1064 05e4 0DF10B03 		add	r3, sp, #11
 1065 05e8 0893     		str	r3, [sp, #32]
 1066              		.loc 1 411 0
 1067 05ea 0123     		movs	r3, #1
 1068 05ec 0993     		str	r3, [sp, #36]
 1069              		.loc 1 413 0
ARM GAS  /tmp/ccDGRO0L.s 			page 20


 1070 05ee 04AB     		add	r3, sp, #16
 1071 05f0 1846     		mov	r0, r3
 1072 05f2 0021     		movs	r1, #0
 1073 05f4 FFF7FEFF 		bl	hci_send_req
 1074 05f8 0346     		mov	r3, r0
 1075 05fa 002B     		cmp	r3, #0
 1076 05fc 01DA     		bge	.L80
 1077              		.loc 1 414 0
 1078 05fe FF23     		movs	r3, #255
 1079 0600 01E0     		b	.L82
 1080              	.L80:
 1081              		.loc 1 416 0
 1082 0602 9DF80B30 		ldrb	r3, [sp, #11]	@ zero_extendqisi2
 1083              	.L82:
 1084              		.loc 1 417 0
 1085 0606 1846     		mov	r0, r3
 1086 0608 0BB0     		add	sp, sp, #44
 1087              		@ sp needed
 1088 060a 5DF804FB 		ldr	pc, [sp], #4
 1089              		.cfi_endproc
 1090              	.LFE281:
 1091              		.size	hci_disconnect, .-hci_disconnect
 1092 060e 00BF     		.align	2
 1093              		.p2align 4,,15
 1094              		.global	hci_le_read_local_version
 1095              		.thumb
 1096              		.thumb_func
 1097              		.type	hci_le_read_local_version, %function
 1098              	hci_le_read_local_version:
 1099              	.LFB282:
 1100              		.loc 1 421 0
 1101              		.cfi_startproc
 1102              		@ args = 4, pretend = 0, frame = 56
 1103              		@ frame_needed = 0, uses_anonymous_args = 0
 1104 0610 00B5     		push	{lr}
 1105              		.cfi_def_cfa_offset 4
 1106              		.cfi_offset 14, -4
 1107 0612 8FB0     		sub	sp, sp, #60
 1108              		.cfi_def_cfa_offset 64
 1109 0614 0390     		str	r0, [sp, #12]
 1110 0616 0291     		str	r1, [sp, #8]
 1111 0618 0192     		str	r2, [sp, #4]
 1112 061a 0093     		str	r3, [sp]
 1113              		.loc 1 425 0
 1114 061c 05AB     		add	r3, sp, #20
 1115 061e 1846     		mov	r0, r3
 1116 0620 0021     		movs	r1, #0
 1117 0622 0922     		movs	r2, #9
 1118 0624 FFF7FEFF 		bl	Osal_MemSet
 1119              		.loc 1 427 0
 1120 0628 08AB     		add	r3, sp, #32
 1121 062a 1846     		mov	r0, r3
 1122 062c 0021     		movs	r1, #0
 1123 062e 1822     		movs	r2, #24
 1124 0630 FFF7FEFF 		bl	Osal_MemSet
 1125              		.loc 1 428 0
 1126 0634 0423     		movs	r3, #4
ARM GAS  /tmp/ccDGRO0L.s 			page 21


 1127 0636 ADF82030 		strh	r3, [sp, #32]	@ movhi
 1128              		.loc 1 429 0
 1129 063a 0123     		movs	r3, #1
 1130 063c ADF82230 		strh	r3, [sp, #34]	@ movhi
 1131              		.loc 1 430 0
 1132 0640 0023     		movs	r3, #0
 1133 0642 0A93     		str	r3, [sp, #40]
 1134              		.loc 1 431 0
 1135 0644 0023     		movs	r3, #0
 1136 0646 0B93     		str	r3, [sp, #44]
 1137              		.loc 1 432 0
 1138 0648 05AB     		add	r3, sp, #20
 1139 064a 0C93     		str	r3, [sp, #48]
 1140              		.loc 1 433 0
 1141 064c 0923     		movs	r3, #9
 1142 064e 0D93     		str	r3, [sp, #52]
 1143              		.loc 1 435 0
 1144 0650 08AB     		add	r3, sp, #32
 1145 0652 1846     		mov	r0, r3
 1146 0654 0021     		movs	r1, #0
 1147 0656 FFF7FEFF 		bl	hci_send_req
 1148 065a 0346     		mov	r3, r0
 1149 065c 002B     		cmp	r3, #0
 1150 065e 01DA     		bge	.L84
 1151              		.loc 1 436 0
 1152 0660 FF23     		movs	r3, #255
 1153 0662 1DE0     		b	.L87
 1154              	.L84:
 1155              		.loc 1 438 0
 1156 0664 9DF81430 		ldrb	r3, [sp, #20]	@ zero_extendqisi2
 1157 0668 002B     		cmp	r3, #0
 1158 066a 02D0     		beq	.L86
 1159              		.loc 1 439 0
 1160 066c 9DF81430 		ldrb	r3, [sp, #20]	@ zero_extendqisi2
 1161 0670 16E0     		b	.L87
 1162              	.L86:
 1163              		.loc 1 443 0
 1164 0672 9DF81520 		ldrb	r2, [sp, #21]	@ zero_extendqisi2
 1165 0676 039B     		ldr	r3, [sp, #12]
 1166 0678 1A70     		strb	r2, [r3]
 1167              		.loc 1 444 0
 1168 067a BDF81620 		ldrh	r2, [sp, #22]
 1169 067e 029B     		ldr	r3, [sp, #8]
 1170 0680 1A80     		strh	r2, [r3]	@ movhi
 1171              		.loc 1 445 0
 1172 0682 9DF81820 		ldrb	r2, [sp, #24]	@ zero_extendqisi2
 1173 0686 019B     		ldr	r3, [sp, #4]
 1174 0688 1A70     		strb	r2, [r3]
 1175              		.loc 1 446 0
 1176 068a BDF81930 		ldrh	r3, [sp, #25]	@ unaligned
 1177 068e 9AB2     		uxth	r2, r3
 1178 0690 009B     		ldr	r3, [sp]
 1179 0692 1A80     		strh	r2, [r3]	@ movhi
 1180              		.loc 1 447 0
 1181 0694 BDF81B30 		ldrh	r3, [sp, #27]	@ unaligned
 1182 0698 9AB2     		uxth	r2, r3
 1183 069a 109B     		ldr	r3, [sp, #64]
ARM GAS  /tmp/ccDGRO0L.s 			page 22


 1184 069c 1A80     		strh	r2, [r3]	@ movhi
 1185              		.loc 1 449 0
 1186 069e 0023     		movs	r3, #0
 1187              	.L87:
 1188              		.loc 1 450 0
 1189 06a0 1846     		mov	r0, r3
 1190 06a2 0FB0     		add	sp, sp, #60
 1191              		@ sp needed
 1192 06a4 5DF804FB 		ldr	pc, [sp], #4
 1193              		.cfi_endproc
 1194              	.LFE282:
 1195              		.size	hci_le_read_local_version, .-hci_le_read_local_version
 1196              		.align	2
 1197 06a8 AFF30080 		.p2align 4,,15
 1197      AFF30080 
 1198              		.global	hci_le_read_buffer_size
 1199              		.thumb
 1200              		.thumb_func
 1201              		.type	hci_le_read_buffer_size, %function
 1202              	hci_le_read_buffer_size:
 1203              	.LFB283:
 1204              		.loc 1 453 0
 1205              		.cfi_startproc
 1206              		@ args = 0, pretend = 0, frame = 40
 1207              		@ frame_needed = 0, uses_anonymous_args = 0
 1208 06b0 00B5     		push	{lr}
 1209              		.cfi_def_cfa_offset 4
 1210              		.cfi_offset 14, -4
 1211 06b2 8BB0     		sub	sp, sp, #44
 1212              		.cfi_def_cfa_offset 48
 1213 06b4 0190     		str	r0, [sp, #4]
 1214 06b6 0091     		str	r1, [sp]
 1215              		.loc 1 457 0
 1216 06b8 03AB     		add	r3, sp, #12
 1217 06ba 1846     		mov	r0, r3
 1218 06bc 0021     		movs	r1, #0
 1219 06be 0422     		movs	r2, #4
 1220 06c0 FFF7FEFF 		bl	Osal_MemSet
 1221              		.loc 1 459 0
 1222 06c4 04AB     		add	r3, sp, #16
 1223 06c6 1846     		mov	r0, r3
 1224 06c8 0021     		movs	r1, #0
 1225 06ca 1822     		movs	r2, #24
 1226 06cc FFF7FEFF 		bl	Osal_MemSet
 1227              		.loc 1 460 0
 1228 06d0 0823     		movs	r3, #8
 1229 06d2 ADF81030 		strh	r3, [sp, #16]	@ movhi
 1230              		.loc 1 461 0
 1231 06d6 0223     		movs	r3, #2
 1232 06d8 ADF81230 		strh	r3, [sp, #18]	@ movhi
 1233              		.loc 1 462 0
 1234 06dc 0023     		movs	r3, #0
 1235 06de 0693     		str	r3, [sp, #24]
 1236              		.loc 1 463 0
 1237 06e0 0023     		movs	r3, #0
 1238 06e2 0793     		str	r3, [sp, #28]
 1239              		.loc 1 464 0
ARM GAS  /tmp/ccDGRO0L.s 			page 23


 1240 06e4 03AB     		add	r3, sp, #12
 1241 06e6 0893     		str	r3, [sp, #32]
 1242              		.loc 1 465 0
 1243 06e8 0423     		movs	r3, #4
 1244 06ea 0993     		str	r3, [sp, #36]
 1245              		.loc 1 467 0
 1246 06ec 04AB     		add	r3, sp, #16
 1247 06ee 1846     		mov	r0, r3
 1248 06f0 0021     		movs	r1, #0
 1249 06f2 FFF7FEFF 		bl	hci_send_req
 1250 06f6 0346     		mov	r3, r0
 1251 06f8 002B     		cmp	r3, #0
 1252 06fa 01DA     		bge	.L89
 1253              		.loc 1 468 0
 1254 06fc FF23     		movs	r3, #255
 1255 06fe 10E0     		b	.L92
 1256              	.L89:
 1257              		.loc 1 470 0
 1258 0700 9DF80C30 		ldrb	r3, [sp, #12]	@ zero_extendqisi2
 1259 0704 002B     		cmp	r3, #0
 1260 0706 02D0     		beq	.L91
 1261              		.loc 1 471 0
 1262 0708 9DF80C30 		ldrb	r3, [sp, #12]	@ zero_extendqisi2
 1263 070c 09E0     		b	.L92
 1264              	.L91:
 1265              		.loc 1 474 0
 1266 070e BDF80D30 		ldrh	r3, [sp, #13]	@ unaligned
 1267 0712 9AB2     		uxth	r2, r3
 1268 0714 019B     		ldr	r3, [sp, #4]
 1269 0716 1A80     		strh	r2, [r3]	@ movhi
 1270              		.loc 1 475 0
 1271 0718 9DF80F20 		ldrb	r2, [sp, #15]	@ zero_extendqisi2
 1272 071c 009B     		ldr	r3, [sp]
 1273 071e 1A70     		strb	r2, [r3]
 1274              		.loc 1 477 0
 1275 0720 0023     		movs	r3, #0
 1276              	.L92:
 1277              		.loc 1 478 0
 1278 0722 1846     		mov	r0, r3
 1279 0724 0BB0     		add	sp, sp, #44
 1280              		@ sp needed
 1281 0726 5DF804FB 		ldr	pc, [sp], #4
 1282              		.cfi_endproc
 1283              	.LFE283:
 1284              		.size	hci_le_read_buffer_size, .-hci_le_read_buffer_size
 1285 072a 00BF     		.align	2
 1286 072c AFF30080 		.p2align 4,,15
 1287              		.global	hci_le_set_advertising_parameters
 1288              		.thumb
 1289              		.thumb_func
 1290              		.type	hci_le_set_advertising_parameters, %function
 1291              	hci_le_set_advertising_parameters:
 1292              	.LFB284:
 1293              		.loc 1 483 0
 1294              		.cfi_startproc
 1295              		@ args = 16, pretend = 0, frame = 56
 1296              		@ frame_needed = 0, uses_anonymous_args = 0
ARM GAS  /tmp/ccDGRO0L.s 			page 24


 1297 0730 00B5     		push	{lr}
 1298              		.cfi_def_cfa_offset 4
 1299              		.cfi_offset 14, -4
 1300 0732 8FB0     		sub	sp, sp, #60
 1301              		.cfi_def_cfa_offset 64
 1302 0734 ADF80600 		strh	r0, [sp, #6]	@ movhi
 1303 0738 ADF80410 		strh	r1, [sp, #4]	@ movhi
 1304 073c 8DF80320 		strb	r2, [sp, #3]
 1305 0740 8DF80230 		strb	r3, [sp, #2]
 1306              		.loc 1 488 0
 1307 0744 04AB     		add	r3, sp, #16
 1308 0746 1846     		mov	r0, r3
 1309 0748 0021     		movs	r1, #0
 1310 074a 0F22     		movs	r2, #15
 1311 074c FFF7FEFF 		bl	Osal_MemSet
 1312              		.loc 1 489 0
 1313 0750 BDF80630 		ldrh	r3, [sp, #6]	@ movhi
 1314 0754 ADF81030 		strh	r3, [sp, #16]	@ movhi
 1315              		.loc 1 490 0
 1316 0758 BDF80430 		ldrh	r3, [sp, #4]	@ movhi
 1317 075c ADF81230 		strh	r3, [sp, #18]	@ movhi
 1318              		.loc 1 491 0
 1319 0760 9DF80330 		ldrb	r3, [sp, #3]
 1320 0764 8DF81430 		strb	r3, [sp, #20]
 1321              		.loc 1 492 0
 1322 0768 9DF80230 		ldrb	r3, [sp, #2]
 1323 076c 8DF81530 		strb	r3, [sp, #21]
 1324              		.loc 1 493 0
 1325 0770 9DF84030 		ldrb	r3, [sp, #64]
 1326 0774 8DF81630 		strb	r3, [sp, #22]
 1327              		.loc 1 494 0
 1328 0778 119B     		ldr	r3, [sp, #68]
 1329 077a 002B     		cmp	r3, #0
 1330 077c 06D0     		beq	.L94
 1331              		.loc 1 495 0
 1332 077e 04AB     		add	r3, sp, #16
 1333 0780 0733     		adds	r3, r3, #7
 1334 0782 1846     		mov	r0, r3
 1335 0784 1199     		ldr	r1, [sp, #68]
 1336 0786 0622     		movs	r2, #6
 1337 0788 FFF7FEFF 		bl	Osal_MemCpy
 1338              	.L94:
 1339              		.loc 1 496 0
 1340 078c 9DF84830 		ldrb	r3, [sp, #72]
 1341 0790 8DF81D30 		strb	r3, [sp, #29]
 1342              		.loc 1 497 0
 1343 0794 9DF84C30 		ldrb	r3, [sp, #76]
 1344 0798 8DF81E30 		strb	r3, [sp, #30]
 1345              		.loc 1 499 0
 1346 079c 08AB     		add	r3, sp, #32
 1347 079e 1846     		mov	r0, r3
 1348 07a0 0021     		movs	r1, #0
 1349 07a2 1822     		movs	r2, #24
 1350 07a4 FFF7FEFF 		bl	Osal_MemSet
 1351              		.loc 1 500 0
 1352 07a8 0823     		movs	r3, #8
 1353 07aa ADF82030 		strh	r3, [sp, #32]	@ movhi
ARM GAS  /tmp/ccDGRO0L.s 			page 25


 1354              		.loc 1 501 0
 1355 07ae 0623     		movs	r3, #6
 1356 07b0 ADF82230 		strh	r3, [sp, #34]	@ movhi
 1357              		.loc 1 502 0
 1358 07b4 04AB     		add	r3, sp, #16
 1359 07b6 0A93     		str	r3, [sp, #40]
 1360              		.loc 1 503 0
 1361 07b8 0F23     		movs	r3, #15
 1362 07ba 0B93     		str	r3, [sp, #44]
 1363              		.loc 1 504 0
 1364 07bc 0DF10F03 		add	r3, sp, #15
 1365 07c0 0C93     		str	r3, [sp, #48]
 1366              		.loc 1 505 0
 1367 07c2 0123     		movs	r3, #1
 1368 07c4 0D93     		str	r3, [sp, #52]
 1369              		.loc 1 507 0
 1370 07c6 08AB     		add	r3, sp, #32
 1371 07c8 1846     		mov	r0, r3
 1372 07ca 0021     		movs	r1, #0
 1373 07cc FFF7FEFF 		bl	hci_send_req
 1374 07d0 0346     		mov	r3, r0
 1375 07d2 002B     		cmp	r3, #0
 1376 07d4 01DA     		bge	.L95
 1377              		.loc 1 508 0
 1378 07d6 FF23     		movs	r3, #255
 1379 07d8 01E0     		b	.L97
 1380              	.L95:
 1381              		.loc 1 510 0
 1382 07da 9DF80F30 		ldrb	r3, [sp, #15]	@ zero_extendqisi2
 1383              	.L97:
 1384              		.loc 1 511 0
 1385 07de 1846     		mov	r0, r3
 1386 07e0 0FB0     		add	sp, sp, #60
 1387              		@ sp needed
 1388 07e2 5DF804FB 		ldr	pc, [sp], #4
 1389              		.cfi_endproc
 1390              	.LFE284:
 1391              		.size	hci_le_set_advertising_parameters, .-hci_le_set_advertising_parameters
 1392 07e6 00BF     		.align	2
 1393 07e8 AFF30080 		.p2align 4,,15
 1393      AFF30080 
 1394              		.global	hci_le_set_advertising_data
 1395              		.thumb
 1396              		.thumb_func
 1397              		.type	hci_le_set_advertising_data, %function
 1398              	hci_le_set_advertising_data:
 1399              	.LFB285:
 1400              		.loc 1 514 0
 1401              		.cfi_startproc
 1402              		@ args = 0, pretend = 0, frame = 72
 1403              		@ frame_needed = 0, uses_anonymous_args = 0
 1404 07f0 00B5     		push	{lr}
 1405              		.cfi_def_cfa_offset 4
 1406              		.cfi_offset 14, -4
 1407 07f2 93B0     		sub	sp, sp, #76
 1408              		.cfi_def_cfa_offset 80
 1409 07f4 0346     		mov	r3, r0
ARM GAS  /tmp/ccDGRO0L.s 			page 26


 1410 07f6 0091     		str	r1, [sp]
 1411 07f8 8DF80730 		strb	r3, [sp, #7]
 1412              		.loc 1 519 0
 1413 07fc 04AB     		add	r3, sp, #16
 1414 07fe 1846     		mov	r0, r3
 1415 0800 0021     		movs	r1, #0
 1416 0802 2022     		movs	r2, #32
 1417 0804 FFF7FEFF 		bl	Osal_MemSet
 1418              		.loc 1 520 0
 1419 0808 9DF80730 		ldrb	r3, [sp, #7]
 1420 080c 8DF81030 		strb	r3, [sp, #16]
 1421              		.loc 1 521 0
 1422 0810 9DF80730 		ldrb	r3, [sp, #7]	@ zero_extendqisi2
 1423 0814 1F2B     		cmp	r3, #31
 1424 0816 02D8     		bhi	.L99
 1425              		.loc 1 521 0 is_stmt 0 discriminator 1
 1426 0818 9DF80730 		ldrb	r3, [sp, #7]	@ zero_extendqisi2
 1427 081c 00E0     		b	.L100
 1428              	.L99:
 1429              		.loc 1 521 0 discriminator 2
 1430 081e 1F23     		movs	r3, #31
 1431              	.L100:
 1432              		.loc 1 521 0 discriminator 3
 1433 0820 04AA     		add	r2, sp, #16
 1434 0822 0132     		adds	r2, r2, #1
 1435 0824 1046     		mov	r0, r2
 1436 0826 0099     		ldr	r1, [sp]
 1437 0828 1A46     		mov	r2, r3
 1438 082a FFF7FEFF 		bl	Osal_MemCpy
 1439              		.loc 1 523 0 is_stmt 1 discriminator 3
 1440 082e 0CAB     		add	r3, sp, #48
 1441 0830 1846     		mov	r0, r3
 1442 0832 0021     		movs	r1, #0
 1443 0834 1822     		movs	r2, #24
 1444 0836 FFF7FEFF 		bl	Osal_MemSet
 1445              		.loc 1 524 0 discriminator 3
 1446 083a 0823     		movs	r3, #8
 1447 083c ADF83030 		strh	r3, [sp, #48]	@ movhi
 1448              		.loc 1 525 0 discriminator 3
 1449 0840 0823     		movs	r3, #8
 1450 0842 ADF83230 		strh	r3, [sp, #50]	@ movhi
 1451              		.loc 1 526 0 discriminator 3
 1452 0846 04AB     		add	r3, sp, #16
 1453 0848 0E93     		str	r3, [sp, #56]
 1454              		.loc 1 527 0 discriminator 3
 1455 084a 2023     		movs	r3, #32
 1456 084c 0F93     		str	r3, [sp, #60]
 1457              		.loc 1 528 0 discriminator 3
 1458 084e 0DF10F03 		add	r3, sp, #15
 1459 0852 1093     		str	r3, [sp, #64]
 1460              		.loc 1 529 0 discriminator 3
 1461 0854 0123     		movs	r3, #1
 1462 0856 1193     		str	r3, [sp, #68]
 1463              		.loc 1 531 0 discriminator 3
 1464 0858 0CAB     		add	r3, sp, #48
 1465 085a 1846     		mov	r0, r3
 1466 085c 0021     		movs	r1, #0
ARM GAS  /tmp/ccDGRO0L.s 			page 27


 1467 085e FFF7FEFF 		bl	hci_send_req
 1468 0862 0346     		mov	r3, r0
 1469 0864 002B     		cmp	r3, #0
 1470 0866 01DA     		bge	.L101
 1471              		.loc 1 532 0
 1472 0868 FF23     		movs	r3, #255
 1473 086a 01E0     		b	.L103
 1474              	.L101:
 1475              		.loc 1 534 0
 1476 086c 9DF80F30 		ldrb	r3, [sp, #15]	@ zero_extendqisi2
 1477              	.L103:
 1478              		.loc 1 535 0
 1479 0870 1846     		mov	r0, r3
 1480 0872 13B0     		add	sp, sp, #76
 1481              		@ sp needed
 1482 0874 5DF804FB 		ldr	pc, [sp], #4
 1483              		.cfi_endproc
 1484              	.LFE285:
 1485              		.size	hci_le_set_advertising_data, .-hci_le_set_advertising_data
 1486              		.align	2
 1487 0878 AFF30080 		.p2align 4,,15
 1487      AFF30080 
 1488              		.global	hci_le_set_advertise_enable
 1489              		.thumb
 1490              		.thumb_func
 1491              		.type	hci_le_set_advertise_enable, %function
 1492              	hci_le_set_advertise_enable:
 1493              	.LFB286:
 1494              		.loc 1 538 0
 1495              		.cfi_startproc
 1496              		@ args = 0, pretend = 0, frame = 40
 1497              		@ frame_needed = 0, uses_anonymous_args = 0
 1498 0880 00B5     		push	{lr}
 1499              		.cfi_def_cfa_offset 4
 1500              		.cfi_offset 14, -4
 1501 0882 8BB0     		sub	sp, sp, #44
 1502              		.cfi_def_cfa_offset 48
 1503 0884 0346     		mov	r3, r0
 1504 0886 8DF80730 		strb	r3, [sp, #7]
 1505              		.loc 1 543 0
 1506 088a 03AB     		add	r3, sp, #12
 1507 088c 1846     		mov	r0, r3
 1508 088e 0021     		movs	r1, #0
 1509 0890 0122     		movs	r2, #1
 1510 0892 FFF7FEFF 		bl	Osal_MemSet
 1511              		.loc 1 544 0
 1512 0896 9DF80730 		ldrb	r3, [sp, #7]	@ zero_extendqisi2
 1513 089a 002B     		cmp	r3, #0
 1514 089c 0CBF     		ite	eq
 1515 089e 0023     		moveq	r3, #0
 1516 08a0 0123     		movne	r3, #1
 1517 08a2 DBB2     		uxtb	r3, r3
 1518 08a4 8DF80C30 		strb	r3, [sp, #12]
 1519              		.loc 1 546 0
 1520 08a8 04AB     		add	r3, sp, #16
 1521 08aa 1846     		mov	r0, r3
 1522 08ac 0021     		movs	r1, #0
ARM GAS  /tmp/ccDGRO0L.s 			page 28


 1523 08ae 1822     		movs	r2, #24
 1524 08b0 FFF7FEFF 		bl	Osal_MemSet
 1525              		.loc 1 547 0
 1526 08b4 0823     		movs	r3, #8
 1527 08b6 ADF81030 		strh	r3, [sp, #16]	@ movhi
 1528              		.loc 1 548 0
 1529 08ba 0A23     		movs	r3, #10
 1530 08bc ADF81230 		strh	r3, [sp, #18]	@ movhi
 1531              		.loc 1 549 0
 1532 08c0 03AB     		add	r3, sp, #12
 1533 08c2 0693     		str	r3, [sp, #24]
 1534              		.loc 1 550 0
 1535 08c4 0123     		movs	r3, #1
 1536 08c6 0793     		str	r3, [sp, #28]
 1537              		.loc 1 551 0
 1538 08c8 0DF10B03 		add	r3, sp, #11
 1539 08cc 0893     		str	r3, [sp, #32]
 1540              		.loc 1 552 0
 1541 08ce 0123     		movs	r3, #1
 1542 08d0 0993     		str	r3, [sp, #36]
 1543              		.loc 1 554 0
 1544 08d2 04AB     		add	r3, sp, #16
 1545 08d4 1846     		mov	r0, r3
 1546 08d6 0021     		movs	r1, #0
 1547 08d8 FFF7FEFF 		bl	hci_send_req
 1548 08dc 0346     		mov	r3, r0
 1549 08de 002B     		cmp	r3, #0
 1550 08e0 01DA     		bge	.L105
 1551              		.loc 1 555 0
 1552 08e2 FF23     		movs	r3, #255
 1553 08e4 01E0     		b	.L107
 1554              	.L105:
 1555              		.loc 1 557 0
 1556 08e6 9DF80B30 		ldrb	r3, [sp, #11]	@ zero_extendqisi2
 1557              	.L107:
 1558              		.loc 1 558 0
 1559 08ea 1846     		mov	r0, r3
 1560 08ec 0BB0     		add	sp, sp, #44
 1561              		@ sp needed
 1562 08ee 5DF804FB 		ldr	pc, [sp], #4
 1563              		.cfi_endproc
 1564              	.LFE286:
 1565              		.size	hci_le_set_advertise_enable, .-hci_le_set_advertise_enable
 1566 08f2 00BF     		.align	2
 1567 08f4 AFF30080 		.p2align 4,,15
 1567      AFF30080 
 1567      AFF30080 
 1568              		.global	hci_le_set_scan_parameters
 1569              		.thumb
 1570              		.thumb_func
 1571              		.type	hci_le_set_scan_parameters, %function
 1572              	hci_le_set_scan_parameters:
 1573              	.LFB287:
 1574              		.loc 1 563 0
 1575              		.cfi_startproc
 1576              		@ args = 4, pretend = 0, frame = 48
 1577              		@ frame_needed = 0, uses_anonymous_args = 0
ARM GAS  /tmp/ccDGRO0L.s 			page 29


 1578 0900 00B5     		push	{lr}
 1579              		.cfi_def_cfa_offset 4
 1580              		.cfi_offset 14, -4
 1581 0902 8DB0     		sub	sp, sp, #52
 1582              		.cfi_def_cfa_offset 56
 1583 0904 8DF80700 		strb	r0, [sp, #7]
 1584 0908 ADF80410 		strh	r1, [sp, #4]	@ movhi
 1585 090c ADF80220 		strh	r2, [sp, #2]	@ movhi
 1586 0910 8DF80630 		strb	r3, [sp, #6]
 1587              		.loc 1 568 0
 1588 0914 04AB     		add	r3, sp, #16
 1589 0916 1846     		mov	r0, r3
 1590 0918 0021     		movs	r1, #0
 1591 091a 0722     		movs	r2, #7
 1592 091c FFF7FEFF 		bl	Osal_MemSet
 1593              		.loc 1 569 0
 1594 0920 9DF80730 		ldrb	r3, [sp, #7]
 1595 0924 8DF81030 		strb	r3, [sp, #16]
 1596              		.loc 1 570 0
 1597 0928 BDF80430 		ldrh	r3, [sp, #4]	@ movhi
 1598 092c ADF81130 		strh	r3, [sp, #17]	@ unaligned
 1599              		.loc 1 571 0
 1600 0930 BDF80230 		ldrh	r3, [sp, #2]	@ movhi
 1601 0934 ADF81330 		strh	r3, [sp, #19]	@ unaligned
 1602              		.loc 1 572 0
 1603 0938 9DF80630 		ldrb	r3, [sp, #6]
 1604 093c 8DF81530 		strb	r3, [sp, #21]
 1605              		.loc 1 573 0
 1606 0940 9DF83830 		ldrb	r3, [sp, #56]
 1607 0944 8DF81630 		strb	r3, [sp, #22]
 1608              		.loc 1 575 0
 1609 0948 06AB     		add	r3, sp, #24
 1610 094a 1846     		mov	r0, r3
 1611 094c 0021     		movs	r1, #0
 1612 094e 1822     		movs	r2, #24
 1613 0950 FFF7FEFF 		bl	Osal_MemSet
 1614              		.loc 1 576 0
 1615 0954 0823     		movs	r3, #8
 1616 0956 ADF81830 		strh	r3, [sp, #24]	@ movhi
 1617              		.loc 1 577 0
 1618 095a 0B23     		movs	r3, #11
 1619 095c ADF81A30 		strh	r3, [sp, #26]	@ movhi
 1620              		.loc 1 578 0
 1621 0960 04AB     		add	r3, sp, #16
 1622 0962 0893     		str	r3, [sp, #32]
 1623              		.loc 1 579 0
 1624 0964 0723     		movs	r3, #7
 1625 0966 0993     		str	r3, [sp, #36]
 1626              		.loc 1 580 0
 1627 0968 0DF10F03 		add	r3, sp, #15
 1628 096c 0A93     		str	r3, [sp, #40]
 1629              		.loc 1 581 0
 1630 096e 0123     		movs	r3, #1
 1631 0970 0B93     		str	r3, [sp, #44]
 1632              		.loc 1 583 0
 1633 0972 06AB     		add	r3, sp, #24
 1634 0974 1846     		mov	r0, r3
ARM GAS  /tmp/ccDGRO0L.s 			page 30


 1635 0976 0021     		movs	r1, #0
 1636 0978 FFF7FEFF 		bl	hci_send_req
 1637 097c 0346     		mov	r3, r0
 1638 097e 002B     		cmp	r3, #0
 1639 0980 01DA     		bge	.L109
 1640              		.loc 1 584 0
 1641 0982 FF23     		movs	r3, #255
 1642 0984 01E0     		b	.L111
 1643              	.L109:
 1644              		.loc 1 586 0
 1645 0986 9DF80F30 		ldrb	r3, [sp, #15]	@ zero_extendqisi2
 1646              	.L111:
 1647              		.loc 1 587 0
 1648 098a 1846     		mov	r0, r3
 1649 098c 0DB0     		add	sp, sp, #52
 1650              		@ sp needed
 1651 098e 5DF804FB 		ldr	pc, [sp], #4
 1652              		.cfi_endproc
 1653              	.LFE287:
 1654              		.size	hci_le_set_scan_parameters, .-hci_le_set_scan_parameters
 1655 0992 00BF     		.align	2
 1656 0994 AFF30080 		.p2align 4,,15
 1656      AFF30080 
 1656      AFF30080 
 1657              		.global	hci_le_set_scan_enable
 1658              		.thumb
 1659              		.thumb_func
 1660              		.type	hci_le_set_scan_enable, %function
 1661              	hci_le_set_scan_enable:
 1662              	.LFB288:
 1663              		.loc 1 590 0
 1664              		.cfi_startproc
 1665              		@ args = 0, pretend = 0, frame = 40
 1666              		@ frame_needed = 0, uses_anonymous_args = 0
 1667 09a0 00B5     		push	{lr}
 1668              		.cfi_def_cfa_offset 4
 1669              		.cfi_offset 14, -4
 1670 09a2 8BB0     		sub	sp, sp, #44
 1671              		.cfi_def_cfa_offset 48
 1672 09a4 0246     		mov	r2, r0
 1673 09a6 0B46     		mov	r3, r1
 1674 09a8 8DF80720 		strb	r2, [sp, #7]
 1675 09ac 8DF80630 		strb	r3, [sp, #6]
 1676              		.loc 1 595 0
 1677 09b0 03AB     		add	r3, sp, #12
 1678 09b2 1846     		mov	r0, r3
 1679 09b4 0021     		movs	r1, #0
 1680 09b6 0222     		movs	r2, #2
 1681 09b8 FFF7FEFF 		bl	Osal_MemSet
 1682              		.loc 1 596 0
 1683 09bc 9DF80730 		ldrb	r3, [sp, #7]	@ zero_extendqisi2
 1684 09c0 002B     		cmp	r3, #0
 1685 09c2 0CBF     		ite	eq
 1686 09c4 0023     		moveq	r3, #0
 1687 09c6 0123     		movne	r3, #1
 1688 09c8 DBB2     		uxtb	r3, r3
 1689 09ca 8DF80C30 		strb	r3, [sp, #12]
ARM GAS  /tmp/ccDGRO0L.s 			page 31


 1690              		.loc 1 597 0
 1691 09ce 9DF80630 		ldrb	r3, [sp, #6]
 1692 09d2 8DF80D30 		strb	r3, [sp, #13]
 1693              		.loc 1 599 0
 1694 09d6 04AB     		add	r3, sp, #16
 1695 09d8 1846     		mov	r0, r3
 1696 09da 0021     		movs	r1, #0
 1697 09dc 1822     		movs	r2, #24
 1698 09de FFF7FEFF 		bl	Osal_MemSet
 1699              		.loc 1 600 0
 1700 09e2 0823     		movs	r3, #8
 1701 09e4 ADF81030 		strh	r3, [sp, #16]	@ movhi
 1702              		.loc 1 601 0
 1703 09e8 0C23     		movs	r3, #12
 1704 09ea ADF81230 		strh	r3, [sp, #18]	@ movhi
 1705              		.loc 1 602 0
 1706 09ee 03AB     		add	r3, sp, #12
 1707 09f0 0693     		str	r3, [sp, #24]
 1708              		.loc 1 603 0
 1709 09f2 0223     		movs	r3, #2
 1710 09f4 0793     		str	r3, [sp, #28]
 1711              		.loc 1 604 0
 1712 09f6 0DF10B03 		add	r3, sp, #11
 1713 09fa 0893     		str	r3, [sp, #32]
 1714              		.loc 1 605 0
 1715 09fc 0123     		movs	r3, #1
 1716 09fe 0993     		str	r3, [sp, #36]
 1717              		.loc 1 607 0
 1718 0a00 04AB     		add	r3, sp, #16
 1719 0a02 1846     		mov	r0, r3
 1720 0a04 0021     		movs	r1, #0
 1721 0a06 FFF7FEFF 		bl	hci_send_req
 1722 0a0a 0346     		mov	r3, r0
 1723 0a0c 002B     		cmp	r3, #0
 1724 0a0e 01DA     		bge	.L113
 1725              		.loc 1 608 0
 1726 0a10 FF23     		movs	r3, #255
 1727 0a12 01E0     		b	.L115
 1728              	.L113:
 1729              		.loc 1 610 0
 1730 0a14 9DF80B30 		ldrb	r3, [sp, #11]	@ zero_extendqisi2
 1731              	.L115:
 1732              		.loc 1 611 0
 1733 0a18 1846     		mov	r0, r3
 1734 0a1a 0BB0     		add	sp, sp, #44
 1735              		@ sp needed
 1736 0a1c 5DF804FB 		ldr	pc, [sp], #4
 1737              		.cfi_endproc
 1738              	.LFE288:
 1739              		.size	hci_le_set_scan_enable, .-hci_le_set_scan_enable
 1740              		.align	2
 1741              		.p2align 4,,15
 1742              		.global	hci_le_rand
 1743              		.thumb
 1744              		.thumb_func
 1745              		.type	hci_le_rand, %function
 1746              	hci_le_rand:
ARM GAS  /tmp/ccDGRO0L.s 			page 32


 1747              	.LFB289:
 1748              		.loc 1 614 0
 1749              		.cfi_startproc
 1750              		@ args = 0, pretend = 0, frame = 48
 1751              		@ frame_needed = 0, uses_anonymous_args = 0
 1752 0a20 00B5     		push	{lr}
 1753              		.cfi_def_cfa_offset 4
 1754              		.cfi_offset 14, -4
 1755 0a22 8DB0     		sub	sp, sp, #52
 1756              		.cfi_def_cfa_offset 56
 1757 0a24 0190     		str	r0, [sp, #4]
 1758              		.loc 1 618 0
 1759 0a26 03AB     		add	r3, sp, #12
 1760 0a28 1846     		mov	r0, r3
 1761 0a2a 0021     		movs	r1, #0
 1762 0a2c 0922     		movs	r2, #9
 1763 0a2e FFF7FEFF 		bl	Osal_MemSet
 1764              		.loc 1 620 0
 1765 0a32 06AB     		add	r3, sp, #24
 1766 0a34 1846     		mov	r0, r3
 1767 0a36 0021     		movs	r1, #0
 1768 0a38 1822     		movs	r2, #24
 1769 0a3a FFF7FEFF 		bl	Osal_MemSet
 1770              		.loc 1 621 0
 1771 0a3e 0823     		movs	r3, #8
 1772 0a40 ADF81830 		strh	r3, [sp, #24]	@ movhi
 1773              		.loc 1 622 0
 1774 0a44 1823     		movs	r3, #24
 1775 0a46 ADF81A30 		strh	r3, [sp, #26]	@ movhi
 1776              		.loc 1 623 0
 1777 0a4a 0023     		movs	r3, #0
 1778 0a4c 0893     		str	r3, [sp, #32]
 1779              		.loc 1 624 0
 1780 0a4e 0023     		movs	r3, #0
 1781 0a50 0993     		str	r3, [sp, #36]
 1782              		.loc 1 625 0
 1783 0a52 03AB     		add	r3, sp, #12
 1784 0a54 0A93     		str	r3, [sp, #40]
 1785              		.loc 1 626 0
 1786 0a56 0923     		movs	r3, #9
 1787 0a58 0B93     		str	r3, [sp, #44]
 1788              		.loc 1 628 0
 1789 0a5a 06AB     		add	r3, sp, #24
 1790 0a5c 1846     		mov	r0, r3
 1791 0a5e 0021     		movs	r1, #0
 1792 0a60 FFF7FEFF 		bl	hci_send_req
 1793 0a64 0346     		mov	r3, r0
 1794 0a66 002B     		cmp	r3, #0
 1795 0a68 01DA     		bge	.L117
 1796              		.loc 1 629 0
 1797 0a6a FF23     		movs	r3, #255
 1798 0a6c 0EE0     		b	.L120
 1799              	.L117:
 1800              		.loc 1 631 0
 1801 0a6e 9DF80C30 		ldrb	r3, [sp, #12]	@ zero_extendqisi2
 1802 0a72 002B     		cmp	r3, #0
 1803 0a74 02D0     		beq	.L119
ARM GAS  /tmp/ccDGRO0L.s 			page 33


 1804              		.loc 1 632 0
 1805 0a76 9DF80C30 		ldrb	r3, [sp, #12]	@ zero_extendqisi2
 1806 0a7a 07E0     		b	.L120
 1807              	.L119:
 1808              		.loc 1 635 0
 1809 0a7c 03AB     		add	r3, sp, #12
 1810 0a7e 0133     		adds	r3, r3, #1
 1811 0a80 0198     		ldr	r0, [sp, #4]
 1812 0a82 1946     		mov	r1, r3
 1813 0a84 0822     		movs	r2, #8
 1814 0a86 FFF7FEFF 		bl	Osal_MemCpy
 1815              		.loc 1 637 0
 1816 0a8a 0023     		movs	r3, #0
 1817              	.L120:
 1818              		.loc 1 638 0
 1819 0a8c 1846     		mov	r0, r3
 1820 0a8e 0DB0     		add	sp, sp, #52
 1821              		@ sp needed
 1822 0a90 5DF804FB 		ldr	pc, [sp], #4
 1823              		.cfi_endproc
 1824              	.LFE289:
 1825              		.size	hci_le_rand, .-hci_le_rand
 1826              		.align	2
 1827 0a94 AFF30080 		.p2align 4,,15
 1827      AFF30080 
 1827      AFF30080 
 1828              		.global	hci_le_set_scan_resp_data
 1829              		.thumb
 1830              		.thumb_func
 1831              		.type	hci_le_set_scan_resp_data, %function
 1832              	hci_le_set_scan_resp_data:
 1833              	.LFB290:
 1834              		.loc 1 641 0
 1835              		.cfi_startproc
 1836              		@ args = 0, pretend = 0, frame = 72
 1837              		@ frame_needed = 0, uses_anonymous_args = 0
 1838 0aa0 00B5     		push	{lr}
 1839              		.cfi_def_cfa_offset 4
 1840              		.cfi_offset 14, -4
 1841 0aa2 93B0     		sub	sp, sp, #76
 1842              		.cfi_def_cfa_offset 80
 1843 0aa4 0346     		mov	r3, r0
 1844 0aa6 0091     		str	r1, [sp]
 1845 0aa8 8DF80730 		strb	r3, [sp, #7]
 1846              		.loc 1 646 0
 1847 0aac 04AB     		add	r3, sp, #16
 1848 0aae 1846     		mov	r0, r3
 1849 0ab0 0021     		movs	r1, #0
 1850 0ab2 2022     		movs	r2, #32
 1851 0ab4 FFF7FEFF 		bl	Osal_MemSet
 1852              		.loc 1 647 0
 1853 0ab8 9DF80730 		ldrb	r3, [sp, #7]
 1854 0abc 8DF81030 		strb	r3, [sp, #16]
 1855              		.loc 1 648 0
 1856 0ac0 9DF80730 		ldrb	r3, [sp, #7]	@ zero_extendqisi2
 1857 0ac4 1F2B     		cmp	r3, #31
 1858 0ac6 02D8     		bhi	.L122
ARM GAS  /tmp/ccDGRO0L.s 			page 34


 1859              		.loc 1 648 0 is_stmt 0 discriminator 1
 1860 0ac8 9DF80730 		ldrb	r3, [sp, #7]	@ zero_extendqisi2
 1861 0acc 00E0     		b	.L123
 1862              	.L122:
 1863              		.loc 1 648 0 discriminator 2
 1864 0ace 1F23     		movs	r3, #31
 1865              	.L123:
 1866              		.loc 1 648 0 discriminator 3
 1867 0ad0 04AA     		add	r2, sp, #16
 1868 0ad2 0132     		adds	r2, r2, #1
 1869 0ad4 1046     		mov	r0, r2
 1870 0ad6 0099     		ldr	r1, [sp]
 1871 0ad8 1A46     		mov	r2, r3
 1872 0ada FFF7FEFF 		bl	Osal_MemCpy
 1873              		.loc 1 650 0 is_stmt 1 discriminator 3
 1874 0ade 0CAB     		add	r3, sp, #48
 1875 0ae0 1846     		mov	r0, r3
 1876 0ae2 0021     		movs	r1, #0
 1877 0ae4 1822     		movs	r2, #24
 1878 0ae6 FFF7FEFF 		bl	Osal_MemSet
 1879              		.loc 1 651 0 discriminator 3
 1880 0aea 0823     		movs	r3, #8
 1881 0aec ADF83030 		strh	r3, [sp, #48]	@ movhi
 1882              		.loc 1 652 0 discriminator 3
 1883 0af0 0923     		movs	r3, #9
 1884 0af2 ADF83230 		strh	r3, [sp, #50]	@ movhi
 1885              		.loc 1 653 0 discriminator 3
 1886 0af6 04AB     		add	r3, sp, #16
 1887 0af8 0E93     		str	r3, [sp, #56]
 1888              		.loc 1 654 0 discriminator 3
 1889 0afa 2023     		movs	r3, #32
 1890 0afc 0F93     		str	r3, [sp, #60]
 1891              		.loc 1 655 0 discriminator 3
 1892 0afe 0DF10F03 		add	r3, sp, #15
 1893 0b02 1093     		str	r3, [sp, #64]
 1894              		.loc 1 656 0 discriminator 3
 1895 0b04 0123     		movs	r3, #1
 1896 0b06 1193     		str	r3, [sp, #68]
 1897              		.loc 1 658 0 discriminator 3
 1898 0b08 0CAB     		add	r3, sp, #48
 1899 0b0a 1846     		mov	r0, r3
 1900 0b0c 0021     		movs	r1, #0
 1901 0b0e FFF7FEFF 		bl	hci_send_req
 1902 0b12 0346     		mov	r3, r0
 1903 0b14 002B     		cmp	r3, #0
 1904 0b16 01DA     		bge	.L124
 1905              		.loc 1 659 0
 1906 0b18 FF23     		movs	r3, #255
 1907 0b1a 01E0     		b	.L126
 1908              	.L124:
 1909              		.loc 1 661 0
 1910 0b1c 9DF80F30 		ldrb	r3, [sp, #15]	@ zero_extendqisi2
 1911              	.L126:
 1912              		.loc 1 662 0
 1913 0b20 1846     		mov	r0, r3
 1914 0b22 13B0     		add	sp, sp, #76
 1915              		@ sp needed
ARM GAS  /tmp/ccDGRO0L.s 			page 35


 1916 0b24 5DF804FB 		ldr	pc, [sp], #4
 1917              		.cfi_endproc
 1918              	.LFE290:
 1919              		.size	hci_le_set_scan_resp_data, .-hci_le_set_scan_resp_data
 1920              		.align	2
 1921 0b28 AFF30080 		.p2align 4,,15
 1921      AFF30080 
 1922              		.global	hci_le_read_advertising_channel_tx_power
 1923              		.thumb
 1924              		.thumb_func
 1925              		.type	hci_le_read_advertising_channel_tx_power, %function
 1926              	hci_le_read_advertising_channel_tx_power:
 1927              	.LFB291:
 1928              		.loc 1 665 0
 1929              		.cfi_startproc
 1930              		@ args = 0, pretend = 0, frame = 40
 1931              		@ frame_needed = 0, uses_anonymous_args = 0
 1932 0b30 00B5     		push	{lr}
 1933              		.cfi_def_cfa_offset 4
 1934              		.cfi_offset 14, -4
 1935 0b32 8BB0     		sub	sp, sp, #44
 1936              		.cfi_def_cfa_offset 48
 1937 0b34 0190     		str	r0, [sp, #4]
 1938              		.loc 1 669 0
 1939 0b36 03AB     		add	r3, sp, #12
 1940 0b38 1846     		mov	r0, r3
 1941 0b3a 0021     		movs	r1, #0
 1942 0b3c 0222     		movs	r2, #2
 1943 0b3e FFF7FEFF 		bl	Osal_MemSet
 1944              		.loc 1 671 0
 1945 0b42 04AB     		add	r3, sp, #16
 1946 0b44 1846     		mov	r0, r3
 1947 0b46 0021     		movs	r1, #0
 1948 0b48 1822     		movs	r2, #24
 1949 0b4a FFF7FEFF 		bl	Osal_MemSet
 1950              		.loc 1 672 0
 1951 0b4e 0823     		movs	r3, #8
 1952 0b50 ADF81030 		strh	r3, [sp, #16]	@ movhi
 1953              		.loc 1 673 0
 1954 0b54 0723     		movs	r3, #7
 1955 0b56 ADF81230 		strh	r3, [sp, #18]	@ movhi
 1956              		.loc 1 674 0
 1957 0b5a 0023     		movs	r3, #0
 1958 0b5c 0693     		str	r3, [sp, #24]
 1959              		.loc 1 675 0
 1960 0b5e 0023     		movs	r3, #0
 1961 0b60 0793     		str	r3, [sp, #28]
 1962              		.loc 1 676 0
 1963 0b62 03AB     		add	r3, sp, #12
 1964 0b64 0893     		str	r3, [sp, #32]
 1965              		.loc 1 677 0
 1966 0b66 0923     		movs	r3, #9
 1967 0b68 0993     		str	r3, [sp, #36]
 1968              		.loc 1 679 0
 1969 0b6a 04AB     		add	r3, sp, #16
 1970 0b6c 1846     		mov	r0, r3
 1971 0b6e 0021     		movs	r1, #0
ARM GAS  /tmp/ccDGRO0L.s 			page 36


 1972 0b70 FFF7FEFF 		bl	hci_send_req
 1973 0b74 0346     		mov	r3, r0
 1974 0b76 002B     		cmp	r3, #0
 1975 0b78 01DA     		bge	.L128
 1976              		.loc 1 680 0
 1977 0b7a FF23     		movs	r3, #255
 1978 0b7c 0BE0     		b	.L131
 1979              	.L128:
 1980              		.loc 1 682 0
 1981 0b7e 9DF80C30 		ldrb	r3, [sp, #12]	@ zero_extendqisi2
 1982 0b82 002B     		cmp	r3, #0
 1983 0b84 02D0     		beq	.L130
 1984              		.loc 1 683 0
 1985 0b86 9DF80C30 		ldrb	r3, [sp, #12]	@ zero_extendqisi2
 1986 0b8a 04E0     		b	.L131
 1987              	.L130:
 1988              		.loc 1 686 0
 1989 0b8c 9DF80D20 		ldrb	r2, [sp, #13]	@ zero_extendqisi2
 1990 0b90 019B     		ldr	r3, [sp, #4]
 1991 0b92 1A70     		strb	r2, [r3]
 1992              		.loc 1 688 0
 1993 0b94 0023     		movs	r3, #0
 1994              	.L131:
 1995              		.loc 1 689 0
 1996 0b96 1846     		mov	r0, r3
 1997 0b98 0BB0     		add	sp, sp, #44
 1998              		@ sp needed
 1999 0b9a 5DF804FB 		ldr	pc, [sp], #4
 2000              		.cfi_endproc
 2001              	.LFE291:
 2002              		.size	hci_le_read_advertising_channel_tx_power, .-hci_le_read_advertising_channel_tx_power
 2003 0b9e 00BF     		.align	2
 2004              		.p2align 4,,15
 2005              		.global	hci_le_set_random_address
 2006              		.thumb
 2007              		.thumb_func
 2008              		.type	hci_le_set_random_address, %function
 2009              	hci_le_set_random_address:
 2010              	.LFB292:
 2011              		.loc 1 692 0
 2012              		.cfi_startproc
 2013              		@ args = 0, pretend = 0, frame = 48
 2014              		@ frame_needed = 0, uses_anonymous_args = 0
 2015 0ba0 00B5     		push	{lr}
 2016              		.cfi_def_cfa_offset 4
 2017              		.cfi_offset 14, -4
 2018 0ba2 8DB0     		sub	sp, sp, #52
 2019              		.cfi_def_cfa_offset 56
 2020 0ba4 0190     		str	r0, [sp, #4]
 2021              		.loc 1 697 0
 2022 0ba6 04AB     		add	r3, sp, #16
 2023 0ba8 1846     		mov	r0, r3
 2024 0baa 0021     		movs	r1, #0
 2025 0bac 0622     		movs	r2, #6
 2026 0bae FFF7FEFF 		bl	Osal_MemSet
 2027              		.loc 1 698 0
 2028 0bb2 04AB     		add	r3, sp, #16
ARM GAS  /tmp/ccDGRO0L.s 			page 37


 2029 0bb4 1846     		mov	r0, r3
 2030 0bb6 0199     		ldr	r1, [sp, #4]
 2031 0bb8 0622     		movs	r2, #6
 2032 0bba FFF7FEFF 		bl	Osal_MemCpy
 2033              		.loc 1 700 0
 2034 0bbe 06AB     		add	r3, sp, #24
 2035 0bc0 1846     		mov	r0, r3
 2036 0bc2 0021     		movs	r1, #0
 2037 0bc4 1822     		movs	r2, #24
 2038 0bc6 FFF7FEFF 		bl	Osal_MemSet
 2039              		.loc 1 701 0
 2040 0bca 0823     		movs	r3, #8
 2041 0bcc ADF81830 		strh	r3, [sp, #24]	@ movhi
 2042              		.loc 1 702 0
 2043 0bd0 0523     		movs	r3, #5
 2044 0bd2 ADF81A30 		strh	r3, [sp, #26]	@ movhi
 2045              		.loc 1 703 0
 2046 0bd6 04AB     		add	r3, sp, #16
 2047 0bd8 0893     		str	r3, [sp, #32]
 2048              		.loc 1 704 0
 2049 0bda 0623     		movs	r3, #6
 2050 0bdc 0993     		str	r3, [sp, #36]
 2051              		.loc 1 705 0
 2052 0bde 0DF10F03 		add	r3, sp, #15
 2053 0be2 0A93     		str	r3, [sp, #40]
 2054              		.loc 1 706 0
 2055 0be4 0123     		movs	r3, #1
 2056 0be6 0B93     		str	r3, [sp, #44]
 2057              		.loc 1 708 0
 2058 0be8 06AB     		add	r3, sp, #24
 2059 0bea 1846     		mov	r0, r3
 2060 0bec 0021     		movs	r1, #0
 2061 0bee FFF7FEFF 		bl	hci_send_req
 2062 0bf2 0346     		mov	r3, r0
 2063 0bf4 002B     		cmp	r3, #0
 2064 0bf6 01DA     		bge	.L133
 2065              		.loc 1 709 0
 2066 0bf8 FF23     		movs	r3, #255
 2067 0bfa 01E0     		b	.L135
 2068              	.L133:
 2069              		.loc 1 711 0
 2070 0bfc 9DF80F30 		ldrb	r3, [sp, #15]	@ zero_extendqisi2
 2071              	.L135:
 2072              		.loc 1 712 0
 2073 0c00 1846     		mov	r0, r3
 2074 0c02 0DB0     		add	sp, sp, #52
 2075              		@ sp needed
 2076 0c04 5DF804FB 		ldr	pc, [sp], #4
 2077              		.cfi_endproc
 2078              	.LFE292:
 2079              		.size	hci_le_set_random_address, .-hci_le_set_random_address
 2080              		.align	2
 2081 0c08 AFF30080 		.p2align 4,,15
 2081      AFF30080 
 2082              		.global	hci_read_bd_addr
 2083              		.thumb
 2084              		.thumb_func
ARM GAS  /tmp/ccDGRO0L.s 			page 38


 2085              		.type	hci_read_bd_addr, %function
 2086              	hci_read_bd_addr:
 2087              	.LFB293:
 2088              		.loc 1 715 0
 2089              		.cfi_startproc
 2090              		@ args = 0, pretend = 0, frame = 40
 2091              		@ frame_needed = 0, uses_anonymous_args = 0
 2092 0c10 00B5     		push	{lr}
 2093              		.cfi_def_cfa_offset 4
 2094              		.cfi_offset 14, -4
 2095 0c12 8BB0     		sub	sp, sp, #44
 2096              		.cfi_def_cfa_offset 48
 2097 0c14 0190     		str	r0, [sp, #4]
 2098              		.loc 1 719 0
 2099 0c16 02AB     		add	r3, sp, #8
 2100 0c18 1846     		mov	r0, r3
 2101 0c1a 0021     		movs	r1, #0
 2102 0c1c 0722     		movs	r2, #7
 2103 0c1e FFF7FEFF 		bl	Osal_MemSet
 2104              		.loc 1 721 0
 2105 0c22 04AB     		add	r3, sp, #16
 2106 0c24 1846     		mov	r0, r3
 2107 0c26 0021     		movs	r1, #0
 2108 0c28 1822     		movs	r2, #24
 2109 0c2a FFF7FEFF 		bl	Osal_MemSet
 2110              		.loc 1 722 0
 2111 0c2e 0423     		movs	r3, #4
 2112 0c30 ADF81030 		strh	r3, [sp, #16]	@ movhi
 2113              		.loc 1 723 0
 2114 0c34 0923     		movs	r3, #9
 2115 0c36 ADF81230 		strh	r3, [sp, #18]	@ movhi
 2116              		.loc 1 724 0
 2117 0c3a 0023     		movs	r3, #0
 2118 0c3c 0693     		str	r3, [sp, #24]
 2119              		.loc 1 725 0
 2120 0c3e 0023     		movs	r3, #0
 2121 0c40 0793     		str	r3, [sp, #28]
 2122              		.loc 1 726 0
 2123 0c42 02AB     		add	r3, sp, #8
 2124 0c44 0893     		str	r3, [sp, #32]
 2125              		.loc 1 727 0
 2126 0c46 0723     		movs	r3, #7
 2127 0c48 0993     		str	r3, [sp, #36]
 2128              		.loc 1 729 0
 2129 0c4a 04AB     		add	r3, sp, #16
 2130 0c4c 1846     		mov	r0, r3
 2131 0c4e 0021     		movs	r1, #0
 2132 0c50 FFF7FEFF 		bl	hci_send_req
 2133 0c54 0346     		mov	r3, r0
 2134 0c56 002B     		cmp	r3, #0
 2135 0c58 01DA     		bge	.L137
 2136              		.loc 1 730 0
 2137 0c5a FF23     		movs	r3, #255
 2138 0c5c 0EE0     		b	.L140
 2139              	.L137:
 2140              		.loc 1 732 0
 2141 0c5e 9DF80830 		ldrb	r3, [sp, #8]	@ zero_extendqisi2
ARM GAS  /tmp/ccDGRO0L.s 			page 39


 2142 0c62 002B     		cmp	r3, #0
 2143 0c64 02D0     		beq	.L139
 2144              		.loc 1 733 0
 2145 0c66 9DF80830 		ldrb	r3, [sp, #8]	@ zero_extendqisi2
 2146 0c6a 07E0     		b	.L140
 2147              	.L139:
 2148              		.loc 1 735 0
 2149 0c6c 02AB     		add	r3, sp, #8
 2150 0c6e 0133     		adds	r3, r3, #1
 2151 0c70 0198     		ldr	r0, [sp, #4]
 2152 0c72 1946     		mov	r1, r3
 2153 0c74 0622     		movs	r2, #6
 2154 0c76 FFF7FEFF 		bl	Osal_MemCpy
 2155              		.loc 1 737 0
 2156 0c7a 0023     		movs	r3, #0
 2157              	.L140:
 2158              		.loc 1 738 0
 2159 0c7c 1846     		mov	r0, r3
 2160 0c7e 0BB0     		add	sp, sp, #44
 2161              		@ sp needed
 2162 0c80 5DF804FB 		ldr	pc, [sp], #4
 2163              		.cfi_endproc
 2164              	.LFE293:
 2165              		.size	hci_read_bd_addr, .-hci_read_bd_addr
 2166              		.align	2
 2167 0c84 AFF30080 		.p2align 4,,15
 2167      AFF30080 
 2167      AFF30080 
 2168              		.global	hci_le_create_connection
 2169              		.thumb
 2170              		.thumb_func
 2171              		.type	hci_le_create_connection, %function
 2172              	hci_le_create_connection:
 2173              	.LFB294:
 2174              		.loc 1 743 0
 2175              		.cfi_startproc
 2176              		@ args = 32, pretend = 0, frame = 64
 2177              		@ frame_needed = 0, uses_anonymous_args = 0
 2178 0c90 00B5     		push	{lr}
 2179              		.cfi_def_cfa_offset 4
 2180              		.cfi_offset 14, -4
 2181 0c92 91B0     		sub	sp, sp, #68
 2182              		.cfi_def_cfa_offset 72
 2183 0c94 ADF80600 		strh	r0, [sp, #6]	@ movhi
 2184 0c98 ADF80410 		strh	r1, [sp, #4]	@ movhi
 2185 0c9c 8DF80320 		strb	r2, [sp, #3]
 2186 0ca0 8DF80230 		strb	r3, [sp, #2]
 2187              		.loc 1 748 0
 2188 0ca4 03AB     		add	r3, sp, #12
 2189 0ca6 1846     		mov	r0, r3
 2190 0ca8 0021     		movs	r1, #0
 2191 0caa 1922     		movs	r2, #25
 2192 0cac FFF7FEFF 		bl	Osal_MemSet
 2193              		.loc 1 749 0
 2194 0cb0 BDF80630 		ldrh	r3, [sp, #6]	@ movhi
 2195 0cb4 ADF80C30 		strh	r3, [sp, #12]	@ movhi
 2196              		.loc 1 750 0
ARM GAS  /tmp/ccDGRO0L.s 			page 40


 2197 0cb8 BDF80430 		ldrh	r3, [sp, #4]	@ movhi
 2198 0cbc ADF80E30 		strh	r3, [sp, #14]	@ movhi
 2199              		.loc 1 751 0
 2200 0cc0 9DF80330 		ldrb	r3, [sp, #3]
 2201 0cc4 8DF81030 		strb	r3, [sp, #16]
 2202              		.loc 1 752 0
 2203 0cc8 9DF80230 		ldrb	r3, [sp, #2]
 2204 0ccc 8DF81130 		strb	r3, [sp, #17]
 2205              		.loc 1 753 0
 2206 0cd0 03AB     		add	r3, sp, #12
 2207 0cd2 0633     		adds	r3, r3, #6
 2208 0cd4 1846     		mov	r0, r3
 2209 0cd6 1299     		ldr	r1, [sp, #72]
 2210 0cd8 0622     		movs	r2, #6
 2211 0cda FFF7FEFF 		bl	Osal_MemCpy
 2212              		.loc 1 754 0
 2213 0cde 9DF84C30 		ldrb	r3, [sp, #76]
 2214 0ce2 8DF81830 		strb	r3, [sp, #24]
 2215              		.loc 1 755 0
 2216 0ce6 BDF85030 		ldrh	r3, [sp, #80]	@ movhi
 2217 0cea ADF81930 		strh	r3, [sp, #25]	@ unaligned
 2218              		.loc 1 756 0
 2219 0cee BDF85430 		ldrh	r3, [sp, #84]	@ movhi
 2220 0cf2 ADF81B30 		strh	r3, [sp, #27]	@ unaligned
 2221              		.loc 1 757 0
 2222 0cf6 BDF85830 		ldrh	r3, [sp, #88]	@ movhi
 2223 0cfa ADF81D30 		strh	r3, [sp, #29]	@ unaligned
 2224              		.loc 1 758 0
 2225 0cfe BDF85C30 		ldrh	r3, [sp, #92]	@ movhi
 2226 0d02 ADF81F30 		strh	r3, [sp, #31]	@ unaligned
 2227              		.loc 1 759 0
 2228 0d06 BDF86030 		ldrh	r3, [sp, #96]	@ movhi
 2229 0d0a ADF82130 		strh	r3, [sp, #33]	@ unaligned
 2230              		.loc 1 760 0
 2231 0d0e BDF86430 		ldrh	r3, [sp, #100]	@ movhi
 2232 0d12 ADF82330 		strh	r3, [sp, #35]	@ unaligned
 2233              		.loc 1 762 0
 2234 0d16 0AAB     		add	r3, sp, #40
 2235 0d18 1846     		mov	r0, r3
 2236 0d1a 0021     		movs	r1, #0
 2237 0d1c 1822     		movs	r2, #24
 2238 0d1e FFF7FEFF 		bl	Osal_MemSet
 2239              		.loc 1 763 0
 2240 0d22 0823     		movs	r3, #8
 2241 0d24 ADF82830 		strh	r3, [sp, #40]	@ movhi
 2242              		.loc 1 764 0
 2243 0d28 0D23     		movs	r3, #13
 2244 0d2a ADF82A30 		strh	r3, [sp, #42]	@ movhi
 2245              		.loc 1 765 0
 2246 0d2e 03AB     		add	r3, sp, #12
 2247 0d30 0C93     		str	r3, [sp, #48]
 2248              		.loc 1 766 0
 2249 0d32 1923     		movs	r3, #25
 2250 0d34 0D93     		str	r3, [sp, #52]
 2251              		.loc 1 767 0
 2252 0d36 0F23     		movs	r3, #15
 2253 0d38 0B93     		str	r3, [sp, #44]
ARM GAS  /tmp/ccDGRO0L.s 			page 41


 2254              		.loc 1 768 0
 2255 0d3a 0DF10B03 		add	r3, sp, #11
 2256 0d3e 0E93     		str	r3, [sp, #56]
 2257              		.loc 1 769 0
 2258 0d40 0123     		movs	r3, #1
 2259 0d42 0F93     		str	r3, [sp, #60]
 2260              		.loc 1 771 0
 2261 0d44 0AAB     		add	r3, sp, #40
 2262 0d46 1846     		mov	r0, r3
 2263 0d48 0021     		movs	r1, #0
 2264 0d4a FFF7FEFF 		bl	hci_send_req
 2265 0d4e 0346     		mov	r3, r0
 2266 0d50 002B     		cmp	r3, #0
 2267 0d52 01DA     		bge	.L142
 2268              		.loc 1 772 0
 2269 0d54 FF23     		movs	r3, #255
 2270 0d56 01E0     		b	.L144
 2271              	.L142:
 2272              		.loc 1 774 0
 2273 0d58 9DF80B30 		ldrb	r3, [sp, #11]	@ zero_extendqisi2
 2274              	.L144:
 2275              		.loc 1 775 0
 2276 0d5c 1846     		mov	r0, r3
 2277 0d5e 11B0     		add	sp, sp, #68
 2278              		@ sp needed
 2279 0d60 5DF804FB 		ldr	pc, [sp], #4
 2280              		.cfi_endproc
 2281              	.LFE294:
 2282              		.size	hci_le_create_connection, .-hci_le_create_connection
 2283              		.align	2
 2284 0d64 AFF30080 		.p2align 4,,15
 2284      AFF30080 
 2284      AFF30080 
 2285              		.global	hci_le_create_connection_cancel
 2286              		.thumb
 2287              		.thumb_func
 2288              		.type	hci_le_create_connection_cancel, %function
 2289              	hci_le_create_connection_cancel:
 2290              	.LFB295:
 2291              		.loc 1 778 0
 2292              		.cfi_startproc
 2293              		@ args = 0, pretend = 0, frame = 32
 2294              		@ frame_needed = 0, uses_anonymous_args = 0
 2295 0d70 00B5     		push	{lr}
 2296              		.cfi_def_cfa_offset 4
 2297              		.cfi_offset 14, -4
 2298 0d72 89B0     		sub	sp, sp, #36
 2299              		.cfi_def_cfa_offset 40
 2300              		.loc 1 782 0
 2301 0d74 02AB     		add	r3, sp, #8
 2302 0d76 1846     		mov	r0, r3
 2303 0d78 0021     		movs	r1, #0
 2304 0d7a 1822     		movs	r2, #24
 2305 0d7c FFF7FEFF 		bl	Osal_MemSet
 2306              		.loc 1 783 0
 2307 0d80 0823     		movs	r3, #8
 2308 0d82 ADF80830 		strh	r3, [sp, #8]	@ movhi
ARM GAS  /tmp/ccDGRO0L.s 			page 42


 2309              		.loc 1 784 0
 2310 0d86 0E23     		movs	r3, #14
 2311 0d88 ADF80A30 		strh	r3, [sp, #10]	@ movhi
 2312              		.loc 1 785 0
 2313 0d8c 0DF10703 		add	r3, sp, #7
 2314 0d90 0693     		str	r3, [sp, #24]
 2315              		.loc 1 786 0
 2316 0d92 0123     		movs	r3, #1
 2317 0d94 0793     		str	r3, [sp, #28]
 2318              		.loc 1 788 0
 2319 0d96 02AB     		add	r3, sp, #8
 2320 0d98 1846     		mov	r0, r3
 2321 0d9a 0021     		movs	r1, #0
 2322 0d9c FFF7FEFF 		bl	hci_send_req
 2323 0da0 0346     		mov	r3, r0
 2324 0da2 002B     		cmp	r3, #0
 2325 0da4 01DA     		bge	.L146
 2326              		.loc 1 789 0
 2327 0da6 FF23     		movs	r3, #255
 2328 0da8 01E0     		b	.L148
 2329              	.L146:
 2330              		.loc 1 791 0
 2331 0daa 9DF80730 		ldrb	r3, [sp, #7]	@ zero_extendqisi2
 2332              	.L148:
 2333              		.loc 1 792 0
 2334 0dae 1846     		mov	r0, r3
 2335 0db0 09B0     		add	sp, sp, #36
 2336              		@ sp needed
 2337 0db2 5DF804FB 		ldr	pc, [sp], #4
 2338              		.cfi_endproc
 2339              	.LFE295:
 2340              		.size	hci_le_create_connection_cancel, .-hci_le_create_connection_cancel
 2341 0db6 00BF     		.align	2
 2342 0db8 AFF30080 		.p2align 4,,15
 2342      AFF30080 
 2343              		.global	hci_le_encrypt
 2344              		.thumb
 2345              		.thumb_func
 2346              		.type	hci_le_encrypt, %function
 2347              	hci_le_encrypt:
 2348              	.LFB296:
 2349              		.loc 1 795 0
 2350              		.cfi_startproc
 2351              		@ args = 0, pretend = 0, frame = 96
 2352              		@ frame_needed = 0, uses_anonymous_args = 0
 2353 0dc0 00B5     		push	{lr}
 2354              		.cfi_def_cfa_offset 4
 2355              		.cfi_offset 14, -4
 2356 0dc2 99B0     		sub	sp, sp, #100
 2357              		.cfi_def_cfa_offset 104
 2358 0dc4 0390     		str	r0, [sp, #12]
 2359 0dc6 0291     		str	r1, [sp, #8]
 2360 0dc8 0192     		str	r2, [sp, #4]
 2361              		.loc 1 800 0
 2362 0dca 05AB     		add	r3, sp, #20
 2363 0dcc 1846     		mov	r0, r3
 2364 0dce 0021     		movs	r1, #0
ARM GAS  /tmp/ccDGRO0L.s 			page 43


 2365 0dd0 1122     		movs	r2, #17
 2366 0dd2 FFF7FEFF 		bl	Osal_MemSet
 2367              		.loc 1 802 0
 2368 0dd6 0AAB     		add	r3, sp, #40
 2369 0dd8 1846     		mov	r0, r3
 2370 0dda 0399     		ldr	r1, [sp, #12]
 2371 0ddc 1022     		movs	r2, #16
 2372 0dde FFF7FEFF 		bl	Osal_MemCpy
 2373              		.loc 1 803 0
 2374 0de2 0AAB     		add	r3, sp, #40
 2375 0de4 1033     		adds	r3, r3, #16
 2376 0de6 1846     		mov	r0, r3
 2377 0de8 0299     		ldr	r1, [sp, #8]
 2378 0dea 1022     		movs	r2, #16
 2379 0dec FFF7FEFF 		bl	Osal_MemCpy
 2380              		.loc 1 805 0
 2381 0df0 12AB     		add	r3, sp, #72
 2382 0df2 1846     		mov	r0, r3
 2383 0df4 0021     		movs	r1, #0
 2384 0df6 1822     		movs	r2, #24
 2385 0df8 FFF7FEFF 		bl	Osal_MemSet
 2386              		.loc 1 806 0
 2387 0dfc 0823     		movs	r3, #8
 2388 0dfe ADF84830 		strh	r3, [sp, #72]	@ movhi
 2389              		.loc 1 807 0
 2390 0e02 1723     		movs	r3, #23
 2391 0e04 ADF84A30 		strh	r3, [sp, #74]	@ movhi
 2392              		.loc 1 808 0
 2393 0e08 0AAB     		add	r3, sp, #40
 2394 0e0a 1493     		str	r3, [sp, #80]
 2395              		.loc 1 809 0
 2396 0e0c 2023     		movs	r3, #32
 2397 0e0e 1593     		str	r3, [sp, #84]
 2398              		.loc 1 810 0
 2399 0e10 05AB     		add	r3, sp, #20
 2400 0e12 1693     		str	r3, [sp, #88]
 2401              		.loc 1 811 0
 2402 0e14 1123     		movs	r3, #17
 2403 0e16 1793     		str	r3, [sp, #92]
 2404              		.loc 1 813 0
 2405 0e18 12AB     		add	r3, sp, #72
 2406 0e1a 1846     		mov	r0, r3
 2407 0e1c 0021     		movs	r1, #0
 2408 0e1e FFF7FEFF 		bl	hci_send_req
 2409 0e22 0346     		mov	r3, r0
 2410 0e24 002B     		cmp	r3, #0
 2411 0e26 01DA     		bge	.L150
 2412              		.loc 1 814 0
 2413 0e28 FF23     		movs	r3, #255
 2414 0e2a 0EE0     		b	.L153
 2415              	.L150:
 2416              		.loc 1 817 0
 2417 0e2c 9DF81430 		ldrb	r3, [sp, #20]	@ zero_extendqisi2
 2418 0e30 002B     		cmp	r3, #0
 2419 0e32 02D0     		beq	.L152
 2420              		.loc 1 818 0
 2421 0e34 9DF81430 		ldrb	r3, [sp, #20]	@ zero_extendqisi2
ARM GAS  /tmp/ccDGRO0L.s 			page 44


 2422 0e38 07E0     		b	.L153
 2423              	.L152:
 2424              		.loc 1 821 0
 2425 0e3a 05AB     		add	r3, sp, #20
 2426 0e3c 0133     		adds	r3, r3, #1
 2427 0e3e 0198     		ldr	r0, [sp, #4]
 2428 0e40 1946     		mov	r1, r3
 2429 0e42 1022     		movs	r2, #16
 2430 0e44 FFF7FEFF 		bl	Osal_MemCpy
 2431              		.loc 1 823 0
 2432 0e48 0023     		movs	r3, #0
 2433              	.L153:
 2434              		.loc 1 824 0
 2435 0e4a 1846     		mov	r0, r3
 2436 0e4c 19B0     		add	sp, sp, #100
 2437              		@ sp needed
 2438 0e4e 5DF804FB 		ldr	pc, [sp], #4
 2439              		.cfi_endproc
 2440              	.LFE296:
 2441              		.size	hci_le_encrypt, .-hci_le_encrypt
 2442 0e52 00BF     		.align	2
 2443 0e54 AFF30080 		.p2align 4,,15
 2443      AFF30080 
 2443      AFF30080 
 2444              		.global	hci_le_ltk_request_reply
 2445              		.thumb
 2446              		.thumb_func
 2447              		.type	hci_le_ltk_request_reply, %function
 2448              	hci_le_ltk_request_reply:
 2449              	.LFB297:
 2450              		.loc 1 827 0
 2451              		.cfi_startproc
 2452              		@ args = 0, pretend = 0, frame = 56
 2453              		@ frame_needed = 0, uses_anonymous_args = 0
 2454 0e60 00B5     		push	{lr}
 2455              		.cfi_def_cfa_offset 4
 2456              		.cfi_offset 14, -4
 2457 0e62 8FB0     		sub	sp, sp, #60
 2458              		.cfi_def_cfa_offset 64
 2459 0e64 0190     		str	r0, [sp, #4]
 2460              		.loc 1 832 0
 2461 0e66 02AB     		add	r3, sp, #8
 2462 0e68 1846     		mov	r0, r3
 2463 0e6a 0021     		movs	r1, #0
 2464 0e6c 0322     		movs	r2, #3
 2465 0e6e FFF7FEFF 		bl	Osal_MemSet
 2466              		.loc 1 834 0
 2467 0e72 0123     		movs	r3, #1
 2468 0e74 ADF80C30 		strh	r3, [sp, #12]	@ movhi
 2469              		.loc 1 835 0
 2470 0e78 03AB     		add	r3, sp, #12
 2471 0e7a 0233     		adds	r3, r3, #2
 2472 0e7c 1846     		mov	r0, r3
 2473 0e7e 0199     		ldr	r1, [sp, #4]
 2474 0e80 1022     		movs	r2, #16
 2475 0e82 FFF7FEFF 		bl	Osal_MemCpy
 2476              		.loc 1 837 0
ARM GAS  /tmp/ccDGRO0L.s 			page 45


 2477 0e86 08AB     		add	r3, sp, #32
 2478 0e88 1846     		mov	r0, r3
 2479 0e8a 0021     		movs	r1, #0
 2480 0e8c 1822     		movs	r2, #24
 2481 0e8e FFF7FEFF 		bl	Osal_MemSet
 2482              		.loc 1 838 0
 2483 0e92 0823     		movs	r3, #8
 2484 0e94 ADF82030 		strh	r3, [sp, #32]	@ movhi
 2485              		.loc 1 839 0
 2486 0e98 1A23     		movs	r3, #26
 2487 0e9a ADF82230 		strh	r3, [sp, #34]	@ movhi
 2488              		.loc 1 840 0
 2489 0e9e 03AB     		add	r3, sp, #12
 2490 0ea0 0A93     		str	r3, [sp, #40]
 2491              		.loc 1 841 0
 2492 0ea2 1223     		movs	r3, #18
 2493 0ea4 0B93     		str	r3, [sp, #44]
 2494              		.loc 1 842 0
 2495 0ea6 02AB     		add	r3, sp, #8
 2496 0ea8 0C93     		str	r3, [sp, #48]
 2497              		.loc 1 843 0
 2498 0eaa 0323     		movs	r3, #3
 2499 0eac 0D93     		str	r3, [sp, #52]
 2500              		.loc 1 845 0
 2501 0eae 08AB     		add	r3, sp, #32
 2502 0eb0 1846     		mov	r0, r3
 2503 0eb2 0021     		movs	r1, #0
 2504 0eb4 FFF7FEFF 		bl	hci_send_req
 2505 0eb8 0346     		mov	r3, r0
 2506 0eba 002B     		cmp	r3, #0
 2507 0ebc 01DA     		bge	.L155
 2508              		.loc 1 846 0
 2509 0ebe FF23     		movs	r3, #255
 2510 0ec0 01E0     		b	.L157
 2511              	.L155:
 2512              		.loc 1 848 0
 2513 0ec2 9DF80830 		ldrb	r3, [sp, #8]	@ zero_extendqisi2
 2514              	.L157:
 2515              		.loc 1 849 0
 2516 0ec6 1846     		mov	r0, r3
 2517 0ec8 0FB0     		add	sp, sp, #60
 2518              		@ sp needed
 2519 0eca 5DF804FB 		ldr	pc, [sp], #4
 2520              		.cfi_endproc
 2521              	.LFE297:
 2522              		.size	hci_le_ltk_request_reply, .-hci_le_ltk_request_reply
 2523 0ece 00BF     		.align	2
 2524              		.p2align 4,,15
 2525              		.global	hci_le_ltk_request_neg_reply
 2526              		.thumb
 2527              		.thumb_func
 2528              		.type	hci_le_ltk_request_neg_reply, %function
 2529              	hci_le_ltk_request_neg_reply:
 2530              	.LFB298:
 2531              		.loc 1 852 0
 2532              		.cfi_startproc
 2533              		@ args = 0, pretend = 0, frame = 32
ARM GAS  /tmp/ccDGRO0L.s 			page 46


 2534              		@ frame_needed = 0, uses_anonymous_args = 0
 2535 0ed0 00B5     		push	{lr}
 2536              		.cfi_def_cfa_offset 4
 2537              		.cfi_offset 14, -4
 2538 0ed2 89B0     		sub	sp, sp, #36
 2539              		.cfi_def_cfa_offset 40
 2540              		.loc 1 857 0
 2541 0ed4 6B46     		mov	r3, sp
 2542 0ed6 1846     		mov	r0, r3
 2543 0ed8 0021     		movs	r1, #0
 2544 0eda 0322     		movs	r2, #3
 2545 0edc FFF7FEFF 		bl	Osal_MemSet
 2546              		.loc 1 859 0
 2547 0ee0 0123     		movs	r3, #1
 2548 0ee2 ADF80430 		strh	r3, [sp, #4]	@ movhi
 2549              		.loc 1 861 0
 2550 0ee6 02AB     		add	r3, sp, #8
 2551 0ee8 1846     		mov	r0, r3
 2552 0eea 0021     		movs	r1, #0
 2553 0eec 1822     		movs	r2, #24
 2554 0eee FFF7FEFF 		bl	Osal_MemSet
 2555              		.loc 1 862 0
 2556 0ef2 0823     		movs	r3, #8
 2557 0ef4 ADF80830 		strh	r3, [sp, #8]	@ movhi
 2558              		.loc 1 863 0
 2559 0ef8 1B23     		movs	r3, #27
 2560 0efa ADF80A30 		strh	r3, [sp, #10]	@ movhi
 2561              		.loc 1 864 0
 2562 0efe 01AB     		add	r3, sp, #4
 2563 0f00 0493     		str	r3, [sp, #16]
 2564              		.loc 1 865 0
 2565 0f02 0223     		movs	r3, #2
 2566 0f04 0593     		str	r3, [sp, #20]
 2567              		.loc 1 866 0
 2568 0f06 6B46     		mov	r3, sp
 2569 0f08 0693     		str	r3, [sp, #24]
 2570              		.loc 1 867 0
 2571 0f0a 0323     		movs	r3, #3
 2572 0f0c 0793     		str	r3, [sp, #28]
 2573              		.loc 1 869 0
 2574 0f0e 02AB     		add	r3, sp, #8
 2575 0f10 1846     		mov	r0, r3
 2576 0f12 0021     		movs	r1, #0
 2577 0f14 FFF7FEFF 		bl	hci_send_req
 2578 0f18 0346     		mov	r3, r0
 2579 0f1a 002B     		cmp	r3, #0
 2580 0f1c 01DA     		bge	.L159
 2581              		.loc 1 870 0
 2582 0f1e FF23     		movs	r3, #255
 2583 0f20 01E0     		b	.L161
 2584              	.L159:
 2585              		.loc 1 872 0
 2586 0f22 9DF80030 		ldrb	r3, [sp]	@ zero_extendqisi2
 2587              	.L161:
 2588              		.loc 1 873 0
 2589 0f26 1846     		mov	r0, r3
 2590 0f28 09B0     		add	sp, sp, #36
ARM GAS  /tmp/ccDGRO0L.s 			page 47


 2591              		@ sp needed
 2592 0f2a 5DF804FB 		ldr	pc, [sp], #4
 2593              		.cfi_endproc
 2594              	.LFE298:
 2595              		.size	hci_le_ltk_request_neg_reply, .-hci_le_ltk_request_neg_reply
 2596 0f2e 00BF     		.align	2
 2597              		.p2align 4,,15
 2598              		.global	hci_le_read_white_list_size
 2599              		.thumb
 2600              		.thumb_func
 2601              		.type	hci_le_read_white_list_size, %function
 2602              	hci_le_read_white_list_size:
 2603              	.LFB299:
 2604              		.loc 1 876 0
 2605              		.cfi_startproc
 2606              		@ args = 0, pretend = 0, frame = 40
 2607              		@ frame_needed = 0, uses_anonymous_args = 0
 2608 0f30 00B5     		push	{lr}
 2609              		.cfi_def_cfa_offset 4
 2610              		.cfi_offset 14, -4
 2611 0f32 8BB0     		sub	sp, sp, #44
 2612              		.cfi_def_cfa_offset 48
 2613 0f34 0190     		str	r0, [sp, #4]
 2614              		.loc 1 880 0
 2615 0f36 03AB     		add	r3, sp, #12
 2616 0f38 1846     		mov	r0, r3
 2617 0f3a 0021     		movs	r1, #0
 2618 0f3c 0222     		movs	r2, #2
 2619 0f3e FFF7FEFF 		bl	Osal_MemSet
 2620              		.loc 1 882 0
 2621 0f42 04AB     		add	r3, sp, #16
 2622 0f44 1846     		mov	r0, r3
 2623 0f46 0021     		movs	r1, #0
 2624 0f48 1822     		movs	r2, #24
 2625 0f4a FFF7FEFF 		bl	Osal_MemSet
 2626              		.loc 1 883 0
 2627 0f4e 0823     		movs	r3, #8
 2628 0f50 ADF81030 		strh	r3, [sp, #16]	@ movhi
 2629              		.loc 1 884 0
 2630 0f54 0F23     		movs	r3, #15
 2631 0f56 ADF81230 		strh	r3, [sp, #18]	@ movhi
 2632              		.loc 1 885 0
 2633 0f5a 03AB     		add	r3, sp, #12
 2634 0f5c 0893     		str	r3, [sp, #32]
 2635              		.loc 1 886 0
 2636 0f5e 0223     		movs	r3, #2
 2637 0f60 0993     		str	r3, [sp, #36]
 2638              		.loc 1 888 0
 2639 0f62 04AB     		add	r3, sp, #16
 2640 0f64 1846     		mov	r0, r3
 2641 0f66 0021     		movs	r1, #0
 2642 0f68 FFF7FEFF 		bl	hci_send_req
 2643 0f6c 0346     		mov	r3, r0
 2644 0f6e 002B     		cmp	r3, #0
 2645 0f70 01DA     		bge	.L163
 2646              		.loc 1 889 0
 2647 0f72 FF23     		movs	r3, #255
ARM GAS  /tmp/ccDGRO0L.s 			page 48


 2648 0f74 0BE0     		b	.L166
 2649              	.L163:
 2650              		.loc 1 892 0
 2651 0f76 9DF80C30 		ldrb	r3, [sp, #12]	@ zero_extendqisi2
 2652 0f7a 002B     		cmp	r3, #0
 2653 0f7c 02D0     		beq	.L165
 2654              		.loc 1 893 0
 2655 0f7e 9DF80C30 		ldrb	r3, [sp, #12]	@ zero_extendqisi2
 2656 0f82 04E0     		b	.L166
 2657              	.L165:
 2658              		.loc 1 896 0
 2659 0f84 9DF80D20 		ldrb	r2, [sp, #13]	@ zero_extendqisi2
 2660 0f88 019B     		ldr	r3, [sp, #4]
 2661 0f8a 1A70     		strb	r2, [r3]
 2662              		.loc 1 898 0
 2663 0f8c 0023     		movs	r3, #0
 2664              	.L166:
 2665              		.loc 1 899 0
 2666 0f8e 1846     		mov	r0, r3
 2667 0f90 0BB0     		add	sp, sp, #44
 2668              		@ sp needed
 2669 0f92 5DF804FB 		ldr	pc, [sp], #4
 2670              		.cfi_endproc
 2671              	.LFE299:
 2672              		.size	hci_le_read_white_list_size, .-hci_le_read_white_list_size
 2673 0f96 00BF     		.align	2
 2674 0f98 AFF30080 		.p2align 4,,15
 2674      AFF30080 
 2675              		.global	hci_le_clear_white_list
 2676              		.thumb
 2677              		.thumb_func
 2678              		.type	hci_le_clear_white_list, %function
 2679              	hci_le_clear_white_list:
 2680              	.LFB300:
 2681              		.loc 1 902 0
 2682              		.cfi_startproc
 2683              		@ args = 0, pretend = 0, frame = 32
 2684              		@ frame_needed = 0, uses_anonymous_args = 0
 2685 0fa0 00B5     		push	{lr}
 2686              		.cfi_def_cfa_offset 4
 2687              		.cfi_offset 14, -4
 2688 0fa2 89B0     		sub	sp, sp, #36
 2689              		.cfi_def_cfa_offset 40
 2690              		.loc 1 906 0
 2691 0fa4 02AB     		add	r3, sp, #8
 2692 0fa6 1846     		mov	r0, r3
 2693 0fa8 0021     		movs	r1, #0
 2694 0faa 1822     		movs	r2, #24
 2695 0fac FFF7FEFF 		bl	Osal_MemSet
 2696              		.loc 1 907 0
 2697 0fb0 0823     		movs	r3, #8
 2698 0fb2 ADF80830 		strh	r3, [sp, #8]	@ movhi
 2699              		.loc 1 908 0
 2700 0fb6 1023     		movs	r3, #16
 2701 0fb8 ADF80A30 		strh	r3, [sp, #10]	@ movhi
 2702              		.loc 1 909 0
 2703 0fbc 0DF10703 		add	r3, sp, #7
ARM GAS  /tmp/ccDGRO0L.s 			page 49


 2704 0fc0 0693     		str	r3, [sp, #24]
 2705              		.loc 1 910 0
 2706 0fc2 0123     		movs	r3, #1
 2707 0fc4 0793     		str	r3, [sp, #28]
 2708              		.loc 1 912 0
 2709 0fc6 02AB     		add	r3, sp, #8
 2710 0fc8 1846     		mov	r0, r3
 2711 0fca 0021     		movs	r1, #0
 2712 0fcc FFF7FEFF 		bl	hci_send_req
 2713 0fd0 0346     		mov	r3, r0
 2714 0fd2 002B     		cmp	r3, #0
 2715 0fd4 01DA     		bge	.L168
 2716              		.loc 1 913 0
 2717 0fd6 FF23     		movs	r3, #255
 2718 0fd8 01E0     		b	.L170
 2719              	.L168:
 2720              		.loc 1 916 0
 2721 0fda 9DF80730 		ldrb	r3, [sp, #7]	@ zero_extendqisi2
 2722              	.L170:
 2723              		.loc 1 917 0
 2724 0fde 1846     		mov	r0, r3
 2725 0fe0 09B0     		add	sp, sp, #36
 2726              		@ sp needed
 2727 0fe2 5DF804FB 		ldr	pc, [sp], #4
 2728              		.cfi_endproc
 2729              	.LFE300:
 2730              		.size	hci_le_clear_white_list, .-hci_le_clear_white_list
 2731 0fe6 00BF     		.align	2
 2732 0fe8 AFF30080 		.p2align 4,,15
 2732      AFF30080 
 2733              		.global	hci_le_add_device_to_white_list
 2734              		.thumb
 2735              		.thumb_func
 2736              		.type	hci_le_add_device_to_white_list, %function
 2737              	hci_le_add_device_to_white_list:
 2738              	.LFB301:
 2739              		.loc 1 920 0
 2740              		.cfi_startproc
 2741              		@ args = 0, pretend = 0, frame = 48
 2742              		@ frame_needed = 0, uses_anonymous_args = 0
 2743 0ff0 00B5     		push	{lr}
 2744              		.cfi_def_cfa_offset 4
 2745              		.cfi_offset 14, -4
 2746 0ff2 8DB0     		sub	sp, sp, #52
 2747              		.cfi_def_cfa_offset 56
 2748 0ff4 0346     		mov	r3, r0
 2749 0ff6 0091     		str	r1, [sp]
 2750 0ff8 8DF80730 		strb	r3, [sp, #7]
 2751              		.loc 1 925 0
 2752 0ffc 9DF80730 		ldrb	r3, [sp, #7]
 2753 1000 8DF81030 		strb	r3, [sp, #16]
 2754              		.loc 1 926 0
 2755 1004 04AB     		add	r3, sp, #16
 2756 1006 0133     		adds	r3, r3, #1
 2757 1008 1846     		mov	r0, r3
 2758 100a 0099     		ldr	r1, [sp]
 2759 100c 0622     		movs	r2, #6
ARM GAS  /tmp/ccDGRO0L.s 			page 50


 2760 100e FFF7FEFF 		bl	Osal_MemCpy
 2761              		.loc 1 928 0
 2762 1012 06AB     		add	r3, sp, #24
 2763 1014 1846     		mov	r0, r3
 2764 1016 0021     		movs	r1, #0
 2765 1018 1822     		movs	r2, #24
 2766 101a FFF7FEFF 		bl	Osal_MemSet
 2767              		.loc 1 929 0
 2768 101e 0823     		movs	r3, #8
 2769 1020 ADF81830 		strh	r3, [sp, #24]	@ movhi
 2770              		.loc 1 930 0
 2771 1024 1123     		movs	r3, #17
 2772 1026 ADF81A30 		strh	r3, [sp, #26]	@ movhi
 2773              		.loc 1 931 0
 2774 102a 04AB     		add	r3, sp, #16
 2775 102c 0893     		str	r3, [sp, #32]
 2776              		.loc 1 932 0
 2777 102e 0723     		movs	r3, #7
 2778 1030 0993     		str	r3, [sp, #36]
 2779              		.loc 1 933 0
 2780 1032 0DF10F03 		add	r3, sp, #15
 2781 1036 0A93     		str	r3, [sp, #40]
 2782              		.loc 1 934 0
 2783 1038 0123     		movs	r3, #1
 2784 103a 0B93     		str	r3, [sp, #44]
 2785              		.loc 1 936 0
 2786 103c 06AB     		add	r3, sp, #24
 2787 103e 1846     		mov	r0, r3
 2788 1040 0021     		movs	r1, #0
 2789 1042 FFF7FEFF 		bl	hci_send_req
 2790 1046 0346     		mov	r3, r0
 2791 1048 002B     		cmp	r3, #0
 2792 104a 01DA     		bge	.L172
 2793              		.loc 1 937 0
 2794 104c FF23     		movs	r3, #255
 2795 104e 01E0     		b	.L174
 2796              	.L172:
 2797              		.loc 1 940 0
 2798 1050 9DF80F30 		ldrb	r3, [sp, #15]	@ zero_extendqisi2
 2799              	.L174:
 2800              		.loc 1 941 0
 2801 1054 1846     		mov	r0, r3
 2802 1056 0DB0     		add	sp, sp, #52
 2803              		@ sp needed
 2804 1058 5DF804FB 		ldr	pc, [sp], #4
 2805              		.cfi_endproc
 2806              	.LFE301:
 2807              		.size	hci_le_add_device_to_white_list, .-hci_le_add_device_to_white_list
 2808              		.align	2
 2809 105c AFF30080 		.p2align 4,,15
 2810              		.global	hci_le_remove_device_from_white_list
 2811              		.thumb
 2812              		.thumb_func
 2813              		.type	hci_le_remove_device_from_white_list, %function
 2814              	hci_le_remove_device_from_white_list:
 2815              	.LFB302:
 2816              		.loc 1 944 0
ARM GAS  /tmp/ccDGRO0L.s 			page 51


 2817              		.cfi_startproc
 2818              		@ args = 0, pretend = 0, frame = 48
 2819              		@ frame_needed = 0, uses_anonymous_args = 0
 2820 1060 00B5     		push	{lr}
 2821              		.cfi_def_cfa_offset 4
 2822              		.cfi_offset 14, -4
 2823 1062 8DB0     		sub	sp, sp, #52
 2824              		.cfi_def_cfa_offset 56
 2825 1064 0346     		mov	r3, r0
 2826 1066 0091     		str	r1, [sp]
 2827 1068 8DF80730 		strb	r3, [sp, #7]
 2828              		.loc 1 949 0
 2829 106c 9DF80730 		ldrb	r3, [sp, #7]
 2830 1070 8DF81030 		strb	r3, [sp, #16]
 2831              		.loc 1 950 0
 2832 1074 04AB     		add	r3, sp, #16
 2833 1076 0133     		adds	r3, r3, #1
 2834 1078 1846     		mov	r0, r3
 2835 107a 0099     		ldr	r1, [sp]
 2836 107c 0622     		movs	r2, #6
 2837 107e FFF7FEFF 		bl	Osal_MemCpy
 2838              		.loc 1 952 0
 2839 1082 06AB     		add	r3, sp, #24
 2840 1084 1846     		mov	r0, r3
 2841 1086 0021     		movs	r1, #0
 2842 1088 1822     		movs	r2, #24
 2843 108a FFF7FEFF 		bl	Osal_MemSet
 2844              		.loc 1 953 0
 2845 108e 0823     		movs	r3, #8
 2846 1090 ADF81830 		strh	r3, [sp, #24]	@ movhi
 2847              		.loc 1 954 0
 2848 1094 1223     		movs	r3, #18
 2849 1096 ADF81A30 		strh	r3, [sp, #26]	@ movhi
 2850              		.loc 1 955 0
 2851 109a 04AB     		add	r3, sp, #16
 2852 109c 0893     		str	r3, [sp, #32]
 2853              		.loc 1 956 0
 2854 109e 0723     		movs	r3, #7
 2855 10a0 0993     		str	r3, [sp, #36]
 2856              		.loc 1 957 0
 2857 10a2 0DF10F03 		add	r3, sp, #15
 2858 10a6 0A93     		str	r3, [sp, #40]
 2859              		.loc 1 958 0
 2860 10a8 0123     		movs	r3, #1
 2861 10aa 0B93     		str	r3, [sp, #44]
 2862              		.loc 1 960 0
 2863 10ac 06AB     		add	r3, sp, #24
 2864 10ae 1846     		mov	r0, r3
 2865 10b0 0021     		movs	r1, #0
 2866 10b2 FFF7FEFF 		bl	hci_send_req
 2867 10b6 0346     		mov	r3, r0
 2868 10b8 002B     		cmp	r3, #0
 2869 10ba 01DA     		bge	.L176
 2870              		.loc 1 961 0
 2871 10bc FF23     		movs	r3, #255
 2872 10be 01E0     		b	.L178
 2873              	.L176:
ARM GAS  /tmp/ccDGRO0L.s 			page 52


 2874              		.loc 1 964 0
 2875 10c0 9DF80F30 		ldrb	r3, [sp, #15]	@ zero_extendqisi2
 2876              	.L178:
 2877              		.loc 1 965 0
 2878 10c4 1846     		mov	r0, r3
 2879 10c6 0DB0     		add	sp, sp, #52
 2880              		@ sp needed
 2881 10c8 5DF804FB 		ldr	pc, [sp], #4
 2882              		.cfi_endproc
 2883              	.LFE302:
 2884              		.size	hci_le_remove_device_from_white_list, .-hci_le_remove_device_from_white_list
 2885              		.align	2
 2886 10cc AFF30080 		.p2align 4,,15
 2887              		.global	hci_read_transmit_power_level
 2888              		.thumb
 2889              		.thumb_func
 2890              		.type	hci_read_transmit_power_level, %function
 2891              	hci_read_transmit_power_level:
 2892              	.LFB303:
 2893              		.loc 1 968 0
 2894              		.cfi_startproc
 2895              		@ args = 0, pretend = 0, frame = 48
 2896              		@ frame_needed = 0, uses_anonymous_args = 0
 2897 10d0 00B5     		push	{lr}
 2898              		.cfi_def_cfa_offset 4
 2899              		.cfi_offset 14, -4
 2900 10d2 8DB0     		sub	sp, sp, #52
 2901              		.cfi_def_cfa_offset 56
 2902 10d4 0390     		str	r0, [sp, #12]
 2903 10d6 0B46     		mov	r3, r1
 2904 10d8 0192     		str	r2, [sp, #4]
 2905 10da 8DF80B30 		strb	r3, [sp, #11]
 2906              		.loc 1 973 0
 2907 10de 04AB     		add	r3, sp, #16
 2908 10e0 1846     		mov	r0, r3
 2909 10e2 0021     		movs	r1, #0
 2910 10e4 0422     		movs	r2, #4
 2911 10e6 FFF7FEFF 		bl	Osal_MemSet
 2912              		.loc 1 975 0
 2913 10ea 039B     		ldr	r3, [sp, #12]
 2914 10ec 1B88     		ldrh	r3, [r3]
 2915 10ee ADF81430 		strh	r3, [sp, #20]	@ movhi
 2916              		.loc 1 976 0
 2917 10f2 9DF80B30 		ldrb	r3, [sp, #11]
 2918 10f6 8DF81630 		strb	r3, [sp, #22]
 2919              		.loc 1 978 0
 2920 10fa 06AB     		add	r3, sp, #24
 2921 10fc 1846     		mov	r0, r3
 2922 10fe 0021     		movs	r1, #0
 2923 1100 1822     		movs	r2, #24
 2924 1102 FFF7FEFF 		bl	Osal_MemSet
 2925              		.loc 1 979 0
 2926 1106 0323     		movs	r3, #3
 2927 1108 ADF81830 		strh	r3, [sp, #24]	@ movhi
 2928              		.loc 1 980 0
 2929 110c 2D23     		movs	r3, #45
 2930 110e ADF81A30 		strh	r3, [sp, #26]	@ movhi
ARM GAS  /tmp/ccDGRO0L.s 			page 53


 2931              		.loc 1 981 0
 2932 1112 05AB     		add	r3, sp, #20
 2933 1114 0893     		str	r3, [sp, #32]
 2934              		.loc 1 982 0
 2935 1116 0323     		movs	r3, #3
 2936 1118 0993     		str	r3, [sp, #36]
 2937              		.loc 1 983 0
 2938 111a 04AB     		add	r3, sp, #16
 2939 111c 0A93     		str	r3, [sp, #40]
 2940              		.loc 1 984 0
 2941 111e 0423     		movs	r3, #4
 2942 1120 0B93     		str	r3, [sp, #44]
 2943              		.loc 1 986 0
 2944 1122 06AB     		add	r3, sp, #24
 2945 1124 1846     		mov	r0, r3
 2946 1126 0021     		movs	r1, #0
 2947 1128 FFF7FEFF 		bl	hci_send_req
 2948 112c 0346     		mov	r3, r0
 2949 112e 002B     		cmp	r3, #0
 2950 1130 01DA     		bge	.L180
 2951              		.loc 1 987 0
 2952 1132 FF23     		movs	r3, #255
 2953 1134 10E0     		b	.L183
 2954              	.L180:
 2955              		.loc 1 990 0
 2956 1136 9DF81030 		ldrb	r3, [sp, #16]	@ zero_extendqisi2
 2957 113a 002B     		cmp	r3, #0
 2958 113c 02D0     		beq	.L182
 2959              		.loc 1 991 0
 2960 113e 9DF81030 		ldrb	r3, [sp, #16]	@ zero_extendqisi2
 2961 1142 09E0     		b	.L183
 2962              	.L182:
 2963              		.loc 1 994 0
 2964 1144 BDF81130 		ldrh	r3, [sp, #17]	@ unaligned
 2965 1148 9AB2     		uxth	r2, r3
 2966 114a 039B     		ldr	r3, [sp, #12]
 2967 114c 1A80     		strh	r2, [r3]	@ movhi
 2968              		.loc 1 995 0
 2969 114e 9DF81320 		ldrb	r2, [sp, #19]	@ zero_extendqisi2
 2970 1152 019B     		ldr	r3, [sp, #4]
 2971 1154 1A70     		strb	r2, [r3]
 2972              		.loc 1 997 0
 2973 1156 0023     		movs	r3, #0
 2974              	.L183:
 2975              		.loc 1 998 0
 2976 1158 1846     		mov	r0, r3
 2977 115a 0DB0     		add	sp, sp, #52
 2978              		@ sp needed
 2979 115c 5DF804FB 		ldr	pc, [sp], #4
 2980              		.cfi_endproc
 2981              	.LFE303:
 2982              		.size	hci_read_transmit_power_level, .-hci_read_transmit_power_level
 2983              		.align	2
 2984              		.p2align 4,,15
 2985              		.global	hci_read_rssi
 2986              		.thumb
 2987              		.thumb_func
ARM GAS  /tmp/ccDGRO0L.s 			page 54


 2988              		.type	hci_read_rssi, %function
 2989              	hci_read_rssi:
 2990              	.LFB304:
 2991              		.loc 1 1001 0
 2992              		.cfi_startproc
 2993              		@ args = 0, pretend = 0, frame = 40
 2994              		@ frame_needed = 0, uses_anonymous_args = 0
 2995 1160 00B5     		push	{lr}
 2996              		.cfi_def_cfa_offset 4
 2997              		.cfi_offset 14, -4
 2998 1162 8BB0     		sub	sp, sp, #44
 2999              		.cfi_def_cfa_offset 48
 3000 1164 0190     		str	r0, [sp, #4]
 3001 1166 0091     		str	r1, [sp]
 3002              		.loc 1 1006 0
 3003 1168 02AB     		add	r3, sp, #8
 3004 116a 1846     		mov	r0, r3
 3005 116c 0021     		movs	r1, #0
 3006 116e 0422     		movs	r2, #4
 3007 1170 FFF7FEFF 		bl	Osal_MemSet
 3008              		.loc 1 1008 0
 3009 1174 019B     		ldr	r3, [sp, #4]
 3010 1176 1B88     		ldrh	r3, [r3]
 3011 1178 ADF80C30 		strh	r3, [sp, #12]	@ movhi
 3012              		.loc 1 1010 0
 3013 117c 04AB     		add	r3, sp, #16
 3014 117e 1846     		mov	r0, r3
 3015 1180 0021     		movs	r1, #0
 3016 1182 1822     		movs	r2, #24
 3017 1184 FFF7FEFF 		bl	Osal_MemSet
 3018              		.loc 1 1011 0
 3019 1188 0523     		movs	r3, #5
 3020 118a ADF81030 		strh	r3, [sp, #16]	@ movhi
 3021              		.loc 1 1012 0
 3022 118e 0523     		movs	r3, #5
 3023 1190 ADF81230 		strh	r3, [sp, #18]	@ movhi
 3024              		.loc 1 1013 0
 3025 1194 03AB     		add	r3, sp, #12
 3026 1196 0693     		str	r3, [sp, #24]
 3027              		.loc 1 1014 0
 3028 1198 0223     		movs	r3, #2
 3029 119a 0793     		str	r3, [sp, #28]
 3030              		.loc 1 1015 0
 3031 119c 02AB     		add	r3, sp, #8
 3032 119e 0893     		str	r3, [sp, #32]
 3033              		.loc 1 1016 0
 3034 11a0 0423     		movs	r3, #4
 3035 11a2 0993     		str	r3, [sp, #36]
 3036              		.loc 1 1018 0
 3037 11a4 04AB     		add	r3, sp, #16
 3038 11a6 1846     		mov	r0, r3
 3039 11a8 0021     		movs	r1, #0
 3040 11aa FFF7FEFF 		bl	hci_send_req
 3041 11ae 0346     		mov	r3, r0
 3042 11b0 002B     		cmp	r3, #0
 3043 11b2 01DA     		bge	.L185
 3044              		.loc 1 1019 0
ARM GAS  /tmp/ccDGRO0L.s 			page 55


 3045 11b4 FF23     		movs	r3, #255
 3046 11b6 10E0     		b	.L188
 3047              	.L185:
 3048              		.loc 1 1022 0
 3049 11b8 9DF80830 		ldrb	r3, [sp, #8]	@ zero_extendqisi2
 3050 11bc 002B     		cmp	r3, #0
 3051 11be 02D0     		beq	.L187
 3052              		.loc 1 1023 0
 3053 11c0 9DF80830 		ldrb	r3, [sp, #8]	@ zero_extendqisi2
 3054 11c4 09E0     		b	.L188
 3055              	.L187:
 3056              		.loc 1 1026 0
 3057 11c6 BDF80930 		ldrh	r3, [sp, #9]	@ unaligned
 3058 11ca 9AB2     		uxth	r2, r3
 3059 11cc 019B     		ldr	r3, [sp, #4]
 3060 11ce 1A80     		strh	r2, [r3]	@ movhi
 3061              		.loc 1 1027 0
 3062 11d0 9DF80B20 		ldrb	r2, [sp, #11]	@ zero_extendqisi2
 3063 11d4 009B     		ldr	r3, [sp]
 3064 11d6 1A70     		strb	r2, [r3]
 3065              		.loc 1 1029 0
 3066 11d8 0023     		movs	r3, #0
 3067              	.L188:
 3068              		.loc 1 1030 0
 3069 11da 1846     		mov	r0, r3
 3070 11dc 0BB0     		add	sp, sp, #44
 3071              		@ sp needed
 3072 11de 5DF804FB 		ldr	pc, [sp], #4
 3073              		.cfi_endproc
 3074              	.LFE304:
 3075              		.size	hci_read_rssi, .-hci_read_rssi
 3076 11e2 00BF     		.align	2
 3077 11e4 AFF30080 		.p2align 4,,15
 3077      AFF30080 
 3077      AFF30080 
 3078              		.global	hci_le_read_local_supported_features
 3079              		.thumb
 3080              		.thumb_func
 3081              		.type	hci_le_read_local_supported_features, %function
 3082              	hci_le_read_local_supported_features:
 3083              	.LFB305:
 3084              		.loc 1 1033 0
 3085              		.cfi_startproc
 3086              		@ args = 0, pretend = 0, frame = 48
 3087              		@ frame_needed = 0, uses_anonymous_args = 0
 3088 11f0 00B5     		push	{lr}
 3089              		.cfi_def_cfa_offset 4
 3090              		.cfi_offset 14, -4
 3091 11f2 8DB0     		sub	sp, sp, #52
 3092              		.cfi_def_cfa_offset 56
 3093 11f4 0190     		str	r0, [sp, #4]
 3094              		.loc 1 1037 0
 3095 11f6 03AB     		add	r3, sp, #12
 3096 11f8 1846     		mov	r0, r3
 3097 11fa 0021     		movs	r1, #0
 3098 11fc 0922     		movs	r2, #9
 3099 11fe FFF7FEFF 		bl	Osal_MemSet
ARM GAS  /tmp/ccDGRO0L.s 			page 56


 3100              		.loc 1 1039 0
 3101 1202 06AB     		add	r3, sp, #24
 3102 1204 1846     		mov	r0, r3
 3103 1206 0021     		movs	r1, #0
 3104 1208 1822     		movs	r2, #24
 3105 120a FFF7FEFF 		bl	Osal_MemSet
 3106              		.loc 1 1040 0
 3107 120e 0823     		movs	r3, #8
 3108 1210 ADF81830 		strh	r3, [sp, #24]	@ movhi
 3109              		.loc 1 1041 0
 3110 1214 0323     		movs	r3, #3
 3111 1216 ADF81A30 		strh	r3, [sp, #26]	@ movhi
 3112              		.loc 1 1042 0
 3113 121a 03AB     		add	r3, sp, #12
 3114 121c 0A93     		str	r3, [sp, #40]
 3115              		.loc 1 1043 0
 3116 121e 0923     		movs	r3, #9
 3117 1220 0B93     		str	r3, [sp, #44]
 3118              		.loc 1 1045 0
 3119 1222 06AB     		add	r3, sp, #24
 3120 1224 1846     		mov	r0, r3
 3121 1226 0021     		movs	r1, #0
 3122 1228 FFF7FEFF 		bl	hci_send_req
 3123 122c 0346     		mov	r3, r0
 3124 122e 002B     		cmp	r3, #0
 3125 1230 01DA     		bge	.L190
 3126              		.loc 1 1046 0
 3127 1232 FF23     		movs	r3, #255
 3128 1234 0EE0     		b	.L193
 3129              	.L190:
 3130              		.loc 1 1049 0
 3131 1236 9DF80C30 		ldrb	r3, [sp, #12]	@ zero_extendqisi2
 3132 123a 002B     		cmp	r3, #0
 3133 123c 02D0     		beq	.L192
 3134              		.loc 1 1050 0
 3135 123e 9DF80C30 		ldrb	r3, [sp, #12]	@ zero_extendqisi2
 3136 1242 07E0     		b	.L193
 3137              	.L192:
 3138              		.loc 1 1053 0
 3139 1244 03AB     		add	r3, sp, #12
 3140 1246 0133     		adds	r3, r3, #1
 3141 1248 0198     		ldr	r0, [sp, #4]
 3142 124a 1946     		mov	r1, r3
 3143 124c 0822     		movs	r2, #8
 3144 124e FFF7FEFF 		bl	Osal_MemCpy
 3145              		.loc 1 1055 0
 3146 1252 0023     		movs	r3, #0
 3147              	.L193:
 3148              		.loc 1 1056 0
 3149 1254 1846     		mov	r0, r3
 3150 1256 0DB0     		add	sp, sp, #52
 3151              		@ sp needed
 3152 1258 5DF804FB 		ldr	pc, [sp], #4
 3153              		.cfi_endproc
 3154              	.LFE305:
 3155              		.size	hci_le_read_local_supported_features, .-hci_le_read_local_supported_features
 3156              		.align	2
ARM GAS  /tmp/ccDGRO0L.s 			page 57


 3157 125c AFF30080 		.p2align 4,,15
 3158              		.global	hci_le_read_channel_map
 3159              		.thumb
 3160              		.thumb_func
 3161              		.type	hci_le_read_channel_map, %function
 3162              	hci_le_read_channel_map:
 3163              	.LFB306:
 3164              		.loc 1 1059 0
 3165              		.cfi_startproc
 3166              		@ args = 0, pretend = 0, frame = 48
 3167              		@ frame_needed = 0, uses_anonymous_args = 0
 3168 1260 00B5     		push	{lr}
 3169              		.cfi_def_cfa_offset 4
 3170              		.cfi_offset 14, -4
 3171 1262 8DB0     		sub	sp, sp, #52
 3172              		.cfi_def_cfa_offset 56
 3173 1264 0346     		mov	r3, r0
 3174 1266 0091     		str	r1, [sp]
 3175 1268 ADF80630 		strh	r3, [sp, #6]	@ movhi
 3176              		.loc 1 1064 0
 3177 126c 03AB     		add	r3, sp, #12
 3178 126e 1846     		mov	r0, r3
 3179 1270 0021     		movs	r1, #0
 3180 1272 0822     		movs	r2, #8
 3181 1274 FFF7FEFF 		bl	Osal_MemSet
 3182              		.loc 1 1066 0
 3183 1278 BDF80630 		ldrh	r3, [sp, #6]	@ movhi
 3184 127c ADF81430 		strh	r3, [sp, #20]	@ movhi
 3185              		.loc 1 1068 0
 3186 1280 06AB     		add	r3, sp, #24
 3187 1282 1846     		mov	r0, r3
 3188 1284 0021     		movs	r1, #0
 3189 1286 1822     		movs	r2, #24
 3190 1288 FFF7FEFF 		bl	Osal_MemSet
 3191              		.loc 1 1069 0
 3192 128c 0823     		movs	r3, #8
 3193 128e ADF81830 		strh	r3, [sp, #24]	@ movhi
 3194              		.loc 1 1070 0
 3195 1292 1523     		movs	r3, #21
 3196 1294 ADF81A30 		strh	r3, [sp, #26]	@ movhi
 3197              		.loc 1 1071 0
 3198 1298 05AB     		add	r3, sp, #20
 3199 129a 0893     		str	r3, [sp, #32]
 3200              		.loc 1 1072 0
 3201 129c 0223     		movs	r3, #2
 3202 129e 0993     		str	r3, [sp, #36]
 3203              		.loc 1 1073 0
 3204 12a0 03AB     		add	r3, sp, #12
 3205 12a2 0A93     		str	r3, [sp, #40]
 3206              		.loc 1 1074 0
 3207 12a4 0823     		movs	r3, #8
 3208 12a6 0B93     		str	r3, [sp, #44]
 3209              		.loc 1 1076 0
 3210 12a8 06AB     		add	r3, sp, #24
 3211 12aa 1846     		mov	r0, r3
 3212 12ac 0021     		movs	r1, #0
 3213 12ae FFF7FEFF 		bl	hci_send_req
ARM GAS  /tmp/ccDGRO0L.s 			page 58


 3214 12b2 0346     		mov	r3, r0
 3215 12b4 002B     		cmp	r3, #0
 3216 12b6 01DA     		bge	.L195
 3217              		.loc 1 1077 0
 3218 12b8 FF23     		movs	r3, #255
 3219 12ba 0EE0     		b	.L198
 3220              	.L195:
 3221              		.loc 1 1080 0
 3222 12bc 9DF80C30 		ldrb	r3, [sp, #12]	@ zero_extendqisi2
 3223 12c0 002B     		cmp	r3, #0
 3224 12c2 02D0     		beq	.L197
 3225              		.loc 1 1081 0
 3226 12c4 9DF80C30 		ldrb	r3, [sp, #12]	@ zero_extendqisi2
 3227 12c8 07E0     		b	.L198
 3228              	.L197:
 3229              		.loc 1 1084 0
 3230 12ca 03AB     		add	r3, sp, #12
 3231 12cc 0333     		adds	r3, r3, #3
 3232 12ce 0098     		ldr	r0, [sp]
 3233 12d0 1946     		mov	r1, r3
 3234 12d2 0522     		movs	r2, #5
 3235 12d4 FFF7FEFF 		bl	Osal_MemCpy
 3236              		.loc 1 1086 0
 3237 12d8 0023     		movs	r3, #0
 3238              	.L198:
 3239              		.loc 1 1087 0
 3240 12da 1846     		mov	r0, r3
 3241 12dc 0DB0     		add	sp, sp, #52
 3242              		@ sp needed
 3243 12de 5DF804FB 		ldr	pc, [sp], #4
 3244              		.cfi_endproc
 3245              	.LFE306:
 3246              		.size	hci_le_read_channel_map, .-hci_le_read_channel_map
 3247 12e2 00BF     		.align	2
 3248 12e4 AFF30080 		.p2align 4,,15
 3248      AFF30080 
 3248      AFF30080 
 3249              		.global	hci_le_read_supported_states
 3250              		.thumb
 3251              		.thumb_func
 3252              		.type	hci_le_read_supported_states, %function
 3253              	hci_le_read_supported_states:
 3254              	.LFB307:
 3255              		.loc 1 1090 0
 3256              		.cfi_startproc
 3257              		@ args = 0, pretend = 0, frame = 48
 3258              		@ frame_needed = 0, uses_anonymous_args = 0
 3259 12f0 00B5     		push	{lr}
 3260              		.cfi_def_cfa_offset 4
 3261              		.cfi_offset 14, -4
 3262 12f2 8DB0     		sub	sp, sp, #52
 3263              		.cfi_def_cfa_offset 56
 3264 12f4 0190     		str	r0, [sp, #4]
 3265              		.loc 1 1094 0
 3266 12f6 03AB     		add	r3, sp, #12
 3267 12f8 1846     		mov	r0, r3
 3268 12fa 0021     		movs	r1, #0
ARM GAS  /tmp/ccDGRO0L.s 			page 59


 3269 12fc 0922     		movs	r2, #9
 3270 12fe FFF7FEFF 		bl	Osal_MemSet
 3271              		.loc 1 1096 0
 3272 1302 06AB     		add	r3, sp, #24
 3273 1304 1846     		mov	r0, r3
 3274 1306 0021     		movs	r1, #0
 3275 1308 1822     		movs	r2, #24
 3276 130a FFF7FEFF 		bl	Osal_MemSet
 3277              		.loc 1 1097 0
 3278 130e 0823     		movs	r3, #8
 3279 1310 ADF81830 		strh	r3, [sp, #24]	@ movhi
 3280              		.loc 1 1098 0
 3281 1314 1C23     		movs	r3, #28
 3282 1316 ADF81A30 		strh	r3, [sp, #26]	@ movhi
 3283              		.loc 1 1099 0
 3284 131a 03AB     		add	r3, sp, #12
 3285 131c 0A93     		str	r3, [sp, #40]
 3286              		.loc 1 1100 0
 3287 131e 0923     		movs	r3, #9
 3288 1320 0B93     		str	r3, [sp, #44]
 3289              		.loc 1 1102 0
 3290 1322 06AB     		add	r3, sp, #24
 3291 1324 1846     		mov	r0, r3
 3292 1326 0021     		movs	r1, #0
 3293 1328 FFF7FEFF 		bl	hci_send_req
 3294 132c 0346     		mov	r3, r0
 3295 132e 002B     		cmp	r3, #0
 3296 1330 01DA     		bge	.L200
 3297              		.loc 1 1103 0
 3298 1332 FF23     		movs	r3, #255
 3299 1334 0EE0     		b	.L203
 3300              	.L200:
 3301              		.loc 1 1106 0
 3302 1336 9DF80C30 		ldrb	r3, [sp, #12]	@ zero_extendqisi2
 3303 133a 002B     		cmp	r3, #0
 3304 133c 02D0     		beq	.L202
 3305              		.loc 1 1107 0
 3306 133e 9DF80C30 		ldrb	r3, [sp, #12]	@ zero_extendqisi2
 3307 1342 07E0     		b	.L203
 3308              	.L202:
 3309              		.loc 1 1110 0
 3310 1344 03AB     		add	r3, sp, #12
 3311 1346 0133     		adds	r3, r3, #1
 3312 1348 0198     		ldr	r0, [sp, #4]
 3313 134a 1946     		mov	r1, r3
 3314 134c 0822     		movs	r2, #8
 3315 134e FFF7FEFF 		bl	Osal_MemCpy
 3316              		.loc 1 1112 0
 3317 1352 0023     		movs	r3, #0
 3318              	.L203:
 3319              		.loc 1 1113 0
 3320 1354 1846     		mov	r0, r3
 3321 1356 0DB0     		add	sp, sp, #52
 3322              		@ sp needed
 3323 1358 5DF804FB 		ldr	pc, [sp], #4
 3324              		.cfi_endproc
 3325              	.LFE307:
ARM GAS  /tmp/ccDGRO0L.s 			page 60


 3326              		.size	hci_le_read_supported_states, .-hci_le_read_supported_states
 3327              		.align	2
 3328 135c AFF30080 		.p2align 4,,15
 3329              		.global	hci_le_receiver_test
 3330              		.thumb
 3331              		.thumb_func
 3332              		.type	hci_le_receiver_test, %function
 3333              	hci_le_receiver_test:
 3334              	.LFB308:
 3335              		.loc 1 1116 0
 3336              		.cfi_startproc
 3337              		@ args = 0, pretend = 0, frame = 40
 3338              		@ frame_needed = 0, uses_anonymous_args = 0
 3339 1360 00B5     		push	{lr}
 3340              		.cfi_def_cfa_offset 4
 3341              		.cfi_offset 14, -4
 3342 1362 8BB0     		sub	sp, sp, #44
 3343              		.cfi_def_cfa_offset 48
 3344 1364 0346     		mov	r3, r0
 3345 1366 8DF80730 		strb	r3, [sp, #7]
 3346              		.loc 1 1121 0
 3347 136a 9DF80730 		ldrb	r3, [sp, #7]
 3348 136e 8DF80C30 		strb	r3, [sp, #12]
 3349              		.loc 1 1123 0
 3350 1372 04AB     		add	r3, sp, #16
 3351 1374 1846     		mov	r0, r3
 3352 1376 0021     		movs	r1, #0
 3353 1378 1822     		movs	r2, #24
 3354 137a FFF7FEFF 		bl	Osal_MemSet
 3355              		.loc 1 1124 0
 3356 137e 0823     		movs	r3, #8
 3357 1380 ADF81030 		strh	r3, [sp, #16]	@ movhi
 3358              		.loc 1 1125 0
 3359 1384 1D23     		movs	r3, #29
 3360 1386 ADF81230 		strh	r3, [sp, #18]	@ movhi
 3361              		.loc 1 1126 0
 3362 138a 03AB     		add	r3, sp, #12
 3363 138c 0693     		str	r3, [sp, #24]
 3364              		.loc 1 1127 0
 3365 138e 0123     		movs	r3, #1
 3366 1390 0793     		str	r3, [sp, #28]
 3367              		.loc 1 1128 0
 3368 1392 0DF10B03 		add	r3, sp, #11
 3369 1396 0893     		str	r3, [sp, #32]
 3370              		.loc 1 1129 0
 3371 1398 0123     		movs	r3, #1
 3372 139a 0993     		str	r3, [sp, #36]
 3373              		.loc 1 1131 0
 3374 139c 04AB     		add	r3, sp, #16
 3375 139e 1846     		mov	r0, r3
 3376 13a0 0021     		movs	r1, #0
 3377 13a2 FFF7FEFF 		bl	hci_send_req
 3378 13a6 0346     		mov	r3, r0
 3379 13a8 002B     		cmp	r3, #0
 3380 13aa 01DA     		bge	.L205
 3381              		.loc 1 1132 0
 3382 13ac FF23     		movs	r3, #255
ARM GAS  /tmp/ccDGRO0L.s 			page 61


 3383 13ae 01E0     		b	.L207
 3384              	.L205:
 3385              		.loc 1 1135 0
 3386 13b0 9DF80B30 		ldrb	r3, [sp, #11]	@ zero_extendqisi2
 3387              	.L207:
 3388              		.loc 1 1136 0
 3389 13b4 1846     		mov	r0, r3
 3390 13b6 0BB0     		add	sp, sp, #44
 3391              		@ sp needed
 3392 13b8 5DF804FB 		ldr	pc, [sp], #4
 3393              		.cfi_endproc
 3394              	.LFE308:
 3395              		.size	hci_le_receiver_test, .-hci_le_receiver_test
 3396              		.align	2
 3397 13bc AFF30080 		.p2align 4,,15
 3398              		.global	hci_le_transmitter_test
 3399              		.thumb
 3400              		.thumb_func
 3401              		.type	hci_le_transmitter_test, %function
 3402              	hci_le_transmitter_test:
 3403              	.LFB309:
 3404              		.loc 1 1139 0
 3405              		.cfi_startproc
 3406              		@ args = 0, pretend = 0, frame = 40
 3407              		@ frame_needed = 0, uses_anonymous_args = 0
 3408 13c0 00B5     		push	{lr}
 3409              		.cfi_def_cfa_offset 4
 3410              		.cfi_offset 14, -4
 3411 13c2 8BB0     		sub	sp, sp, #44
 3412              		.cfi_def_cfa_offset 48
 3413 13c4 1346     		mov	r3, r2
 3414 13c6 0246     		mov	r2, r0
 3415 13c8 8DF80720 		strb	r2, [sp, #7]
 3416 13cc 0A46     		mov	r2, r1
 3417 13ce 8DF80620 		strb	r2, [sp, #6]
 3418 13d2 8DF80530 		strb	r3, [sp, #5]
 3419              		.loc 1 1144 0
 3420 13d6 9DF80730 		ldrb	r3, [sp, #7]
 3421 13da 8DF80C30 		strb	r3, [sp, #12]
 3422              		.loc 1 1145 0
 3423 13de 9DF80630 		ldrb	r3, [sp, #6]
 3424 13e2 8DF80D30 		strb	r3, [sp, #13]
 3425              		.loc 1 1146 0
 3426 13e6 9DF80530 		ldrb	r3, [sp, #5]
 3427 13ea 8DF80E30 		strb	r3, [sp, #14]
 3428              		.loc 1 1148 0
 3429 13ee 04AB     		add	r3, sp, #16
 3430 13f0 1846     		mov	r0, r3
 3431 13f2 0021     		movs	r1, #0
 3432 13f4 1822     		movs	r2, #24
 3433 13f6 FFF7FEFF 		bl	Osal_MemSet
 3434              		.loc 1 1149 0
 3435 13fa 0823     		movs	r3, #8
 3436 13fc ADF81030 		strh	r3, [sp, #16]	@ movhi
 3437              		.loc 1 1150 0
 3438 1400 1E23     		movs	r3, #30
 3439 1402 ADF81230 		strh	r3, [sp, #18]	@ movhi
ARM GAS  /tmp/ccDGRO0L.s 			page 62


 3440              		.loc 1 1151 0
 3441 1406 03AB     		add	r3, sp, #12
 3442 1408 0693     		str	r3, [sp, #24]
 3443              		.loc 1 1152 0
 3444 140a 0323     		movs	r3, #3
 3445 140c 0793     		str	r3, [sp, #28]
 3446              		.loc 1 1153 0
 3447 140e 0DF10B03 		add	r3, sp, #11
 3448 1412 0893     		str	r3, [sp, #32]
 3449              		.loc 1 1154 0
 3450 1414 0123     		movs	r3, #1
 3451 1416 0993     		str	r3, [sp, #36]
 3452              		.loc 1 1156 0
 3453 1418 04AB     		add	r3, sp, #16
 3454 141a 1846     		mov	r0, r3
 3455 141c 0021     		movs	r1, #0
 3456 141e FFF7FEFF 		bl	hci_send_req
 3457 1422 0346     		mov	r3, r0
 3458 1424 002B     		cmp	r3, #0
 3459 1426 01DA     		bge	.L209
 3460              		.loc 1 1157 0
 3461 1428 FF23     		movs	r3, #255
 3462 142a 01E0     		b	.L211
 3463              	.L209:
 3464              		.loc 1 1160 0
 3465 142c 9DF80B30 		ldrb	r3, [sp, #11]	@ zero_extendqisi2
 3466              	.L211:
 3467              		.loc 1 1161 0
 3468 1430 1846     		mov	r0, r3
 3469 1432 0BB0     		add	sp, sp, #44
 3470              		@ sp needed
 3471 1434 5DF804FB 		ldr	pc, [sp], #4
 3472              		.cfi_endproc
 3473              	.LFE309:
 3474              		.size	hci_le_transmitter_test, .-hci_le_transmitter_test
 3475              		.align	2
 3476 1438 AFF30080 		.p2align 4,,15
 3476      AFF30080 
 3477              		.global	hci_le_test_end
 3478              		.thumb
 3479              		.thumb_func
 3480              		.type	hci_le_test_end, %function
 3481              	hci_le_test_end:
 3482              	.LFB310:
 3483              		.loc 1 1164 0
 3484              		.cfi_startproc
 3485              		@ args = 0, pretend = 0, frame = 40
 3486              		@ frame_needed = 0, uses_anonymous_args = 0
 3487 1440 00B5     		push	{lr}
 3488              		.cfi_def_cfa_offset 4
 3489              		.cfi_offset 14, -4
 3490 1442 8BB0     		sub	sp, sp, #44
 3491              		.cfi_def_cfa_offset 48
 3492 1444 0190     		str	r0, [sp, #4]
 3493              		.loc 1 1168 0
 3494 1446 03AB     		add	r3, sp, #12
 3495 1448 1846     		mov	r0, r3
ARM GAS  /tmp/ccDGRO0L.s 			page 63


 3496 144a 0021     		movs	r1, #0
 3497 144c 0322     		movs	r2, #3
 3498 144e FFF7FEFF 		bl	Osal_MemSet
 3499              		.loc 1 1170 0
 3500 1452 04AB     		add	r3, sp, #16
 3501 1454 1846     		mov	r0, r3
 3502 1456 0021     		movs	r1, #0
 3503 1458 1822     		movs	r2, #24
 3504 145a FFF7FEFF 		bl	Osal_MemSet
 3505              		.loc 1 1171 0
 3506 145e 0823     		movs	r3, #8
 3507 1460 ADF81030 		strh	r3, [sp, #16]	@ movhi
 3508              		.loc 1 1172 0
 3509 1464 1F23     		movs	r3, #31
 3510 1466 ADF81230 		strh	r3, [sp, #18]	@ movhi
 3511              		.loc 1 1173 0
 3512 146a 03AB     		add	r3, sp, #12
 3513 146c 0893     		str	r3, [sp, #32]
 3514              		.loc 1 1174 0
 3515 146e 0323     		movs	r3, #3
 3516 1470 0993     		str	r3, [sp, #36]
 3517              		.loc 1 1176 0
 3518 1472 04AB     		add	r3, sp, #16
 3519 1474 1846     		mov	r0, r3
 3520 1476 0021     		movs	r1, #0
 3521 1478 FFF7FEFF 		bl	hci_send_req
 3522 147c 0346     		mov	r3, r0
 3523 147e 002B     		cmp	r3, #0
 3524 1480 01DA     		bge	.L213
 3525              		.loc 1 1177 0
 3526 1482 FF23     		movs	r3, #255
 3527 1484 0CE0     		b	.L216
 3528              	.L213:
 3529              		.loc 1 1180 0
 3530 1486 9DF80C30 		ldrb	r3, [sp, #12]	@ zero_extendqisi2
 3531 148a 002B     		cmp	r3, #0
 3532 148c 02D0     		beq	.L215
 3533              		.loc 1 1181 0
 3534 148e 9DF80C30 		ldrb	r3, [sp, #12]	@ zero_extendqisi2
 3535 1492 05E0     		b	.L216
 3536              	.L215:
 3537              		.loc 1 1184 0
 3538 1494 BDF80D30 		ldrh	r3, [sp, #13]	@ unaligned
 3539 1498 9AB2     		uxth	r2, r3
 3540 149a 019B     		ldr	r3, [sp, #4]
 3541 149c 1A80     		strh	r2, [r3]	@ movhi
 3542              		.loc 1 1186 0
 3543 149e 0023     		movs	r3, #0
 3544              	.L216:
 3545              		.loc 1 1187 0
 3546 14a0 1846     		mov	r0, r3
 3547 14a2 0BB0     		add	sp, sp, #44
 3548              		@ sp needed
 3549 14a4 5DF804FB 		ldr	pc, [sp], #4
 3550              		.cfi_endproc
 3551              	.LFE310:
 3552              		.size	hci_le_test_end, .-hci_le_test_end
ARM GAS  /tmp/ccDGRO0L.s 			page 64


 3553              	.Letext0:
 3554              		.file 2 "/nfs/nfs5/home/research/hardware/arm2/gcc-arm-embedded/gcc-arm-none-eabi-4_8-2014q2/arm-n
 3555              		.file 3 "/nfs/nfs5/home/research/hardware/arm2/gcc-arm-embedded/gcc-arm-none-eabi-4_8-2014q2/arm-n
 3556              		.file 4 "../../../../../Middlewares/ST/STM32_BlueNRG/SimpleBlueNRG_HCI/includes/hal_types.h"
 3557              		.file 5 "/nfs/nfs5/home/research/hardware/arm2/gcc-arm-embedded/gcc-arm-none-eabi-4_8-2014q2/lib/g
 3558              		.file 6 "../../../../../../ChibiOS/os/rt/ports/ARMCMx/compilers/GCC/chtypes.h"
 3559              		.file 7 "../../../../../../ChibiOS/os/rt/include/chsystypes.h"
 3560              		.file 8 "../../../../../../ChibiOS/os/rt/include/chschd.h"
 3561              		.file 9 "../../../../../../ChibiOS/os/ext/CMSIS/ST/STM32L4xx/stm32l476xx.h"
 3562              		.file 10 "../../../../../Drivers/STM32L4xx_HAL_Driver/Inc/stm32l4xx_hal_def.h"
 3563              		.file 11 "../../../../../Drivers/STM32L4xx_HAL_Driver/Inc/stm32l4xx_hal_dma.h"
 3564              		.file 12 "../../../../../Drivers/STM32L4xx_HAL_Driver/Inc/stm32l4xx_hal_spi.h"
 3565              		.file 13 "../../../../../../ChibiOS/os/rt/ports/ARMCMx/chcore.h"
 3566              		.file 14 "../../../../../../ChibiOS/os/rt/ports/ARMCMx/chcore_v7m.h"
 3567              		.file 15 "../../../../../../ChibiOS/os/rt/include/chtm.h"
 3568              		.file 16 "../../../../../../ChibiOS/os/rt/include/chsem.h"
 3569              		.file 17 "../../../../../../ChibiOS/os/rt/include/chmtx.h"
 3570              		.file 18 "../../../../../Middlewares/ST/STM32_BlueNRG/SimpleBlueNRG_HCI/includes/link_layer.h"
 3571              		.file 19 "../../../../../Middlewares/ST/STM32_BlueNRG/SimpleBlueNRG_HCI/includes/ble_list.h"
 3572              		.file 20 "../../../../../Middlewares/ST/STM32_BlueNRG/SimpleBlueNRG_HCI/includes/hci.h"
 3573              		.file 21 "../../../../../Middlewares/ST/STM32_BlueNRG/SimpleBlueNRG_HCI/includes/hci_const.h"
 3574              		.file 22 "../../../../../Middlewares/ST/STM32_BlueNRG/SimpleBlueNRG_HCI/includes/ble_clock.h"
 3575              		.file 23 "../../../../../Middlewares/ST/STM32_BlueNRG/SimpleBlueNRG_HCI/includes/gp_timer.h"
 3576              		.file 24 "../../../../../../ChibiOS/os/ext/CMSIS/include/core_cm4.h"
 3577 14a8 AFF30080 		.section	.debug_info,"",%progbits
 3577      AFF30080 
 3578              	.Ldebug_info0:
 3579 0000 55250000 		.4byte	0x2555
 3580 0004 0400     		.2byte	0x4
 3581 0006 00000000 		.4byte	.Ldebug_abbrev0
 3582 000a 04       		.byte	0x4
 3583 000b 01       		.uleb128 0x1
 3584 000c 33110000 		.4byte	.LASF415
 3585 0010 01       		.byte	0x1
 3586 0011 780D0000 		.4byte	.LASF416
 3587 0015 820F0000 		.4byte	.LASF417
 3588 0019 00000000 		.4byte	.Ltext0
 3589 001d A8140000 		.4byte	.Letext0-.Ltext0
 3590 0021 00000000 		.4byte	.Ldebug_line0
 3591 0025 02       		.uleb128 0x2
 3592 0026 B2010000 		.4byte	.LASF0
 3593 002a 02       		.byte	0x2
 3594 002b 1B       		.byte	0x1b
 3595 002c 30000000 		.4byte	0x30
 3596 0030 03       		.uleb128 0x3
 3597 0031 01       		.byte	0x1
 3598 0032 06       		.byte	0x6
 3599 0033 0F160000 		.4byte	.LASF2
 3600 0037 02       		.uleb128 0x2
 3601 0038 1A110000 		.4byte	.LASF1
 3602 003c 02       		.byte	0x2
 3603 003d 1C       		.byte	0x1c
 3604 003e 42000000 		.4byte	0x42
 3605 0042 03       		.uleb128 0x3
 3606 0043 01       		.byte	0x1
 3607 0044 08       		.byte	0x8
 3608 0045 0B140000 		.4byte	.LASF3
ARM GAS  /tmp/ccDGRO0L.s 			page 65


 3609 0049 03       		.uleb128 0x3
 3610 004a 02       		.byte	0x2
 3611 004b 05       		.byte	0x5
 3612 004c E3090000 		.4byte	.LASF4
 3613 0050 02       		.uleb128 0x2
 3614 0051 D6050000 		.4byte	.LASF5
 3615 0055 02       		.byte	0x2
 3616 0056 26       		.byte	0x26
 3617 0057 5B000000 		.4byte	0x5b
 3618 005b 03       		.uleb128 0x3
 3619 005c 02       		.byte	0x2
 3620 005d 07       		.byte	0x7
 3621 005e 2C160000 		.4byte	.LASF6
 3622 0062 02       		.uleb128 0x2
 3623 0063 AF080000 		.4byte	.LASF7
 3624 0067 02       		.byte	0x2
 3625 0068 37       		.byte	0x37
 3626 0069 6D000000 		.4byte	0x6d
 3627 006d 03       		.uleb128 0x3
 3628 006e 04       		.byte	0x4
 3629 006f 05       		.byte	0x5
 3630 0070 1C0F0000 		.4byte	.LASF8
 3631 0074 02       		.uleb128 0x2
 3632 0075 19140000 		.4byte	.LASF9
 3633 0079 02       		.byte	0x2
 3634 007a 38       		.byte	0x38
 3635 007b 7F000000 		.4byte	0x7f
 3636 007f 03       		.uleb128 0x3
 3637 0080 04       		.byte	0x4
 3638 0081 07       		.byte	0x7
 3639 0082 2A130000 		.4byte	.LASF10
 3640 0086 03       		.uleb128 0x3
 3641 0087 08       		.byte	0x8
 3642 0088 05       		.byte	0x5
 3643 0089 20070000 		.4byte	.LASF11
 3644 008d 02       		.uleb128 0x2
 3645 008e 60070000 		.4byte	.LASF12
 3646 0092 02       		.byte	0x2
 3647 0093 4E       		.byte	0x4e
 3648 0094 98000000 		.4byte	0x98
 3649 0098 03       		.uleb128 0x3
 3650 0099 08       		.byte	0x8
 3651 009a 07       		.byte	0x7
 3652 009b 3D050000 		.4byte	.LASF13
 3653 009f 04       		.uleb128 0x4
 3654 00a0 04       		.byte	0x4
 3655 00a1 05       		.byte	0x5
 3656 00a2 696E7400 		.ascii	"int\000"
 3657 00a6 03       		.uleb128 0x3
 3658 00a7 04       		.byte	0x4
 3659 00a8 07       		.byte	0x7
 3660 00a9 5A120000 		.4byte	.LASF14
 3661 00ad 02       		.uleb128 0x2
 3662 00ae B7040000 		.4byte	.LASF15
 3663 00b2 03       		.byte	0x3
 3664 00b3 29       		.byte	0x29
 3665 00b4 25000000 		.4byte	0x25
ARM GAS  /tmp/ccDGRO0L.s 			page 66


 3666 00b8 02       		.uleb128 0x2
 3667 00b9 4F090000 		.4byte	.LASF16
 3668 00bd 03       		.byte	0x3
 3669 00be 2A       		.byte	0x2a
 3670 00bf 37000000 		.4byte	0x37
 3671 00c3 02       		.uleb128 0x2
 3672 00c4 EA0D0000 		.4byte	.LASF17
 3673 00c8 03       		.byte	0x3
 3674 00c9 36       		.byte	0x36
 3675 00ca 50000000 		.4byte	0x50
 3676 00ce 02       		.uleb128 0x2
 3677 00cf 6D130000 		.4byte	.LASF18
 3678 00d3 03       		.byte	0x3
 3679 00d4 41       		.byte	0x41
 3680 00d5 62000000 		.4byte	0x62
 3681 00d9 02       		.uleb128 0x2
 3682 00da AE040000 		.4byte	.LASF19
 3683 00de 03       		.byte	0x3
 3684 00df 42       		.byte	0x42
 3685 00e0 74000000 		.4byte	0x74
 3686 00e4 02       		.uleb128 0x2
 3687 00e5 83100000 		.4byte	.LASF20
 3688 00e9 03       		.byte	0x3
 3689 00ea 4E       		.byte	0x4e
 3690 00eb 8D000000 		.4byte	0x8d
 3691 00ef 02       		.uleb128 0x2
 3692 00f0 5E050000 		.4byte	.LASF21
 3693 00f4 04       		.byte	0x4
 3694 00f5 2D       		.byte	0x2d
 3695 00f6 B8000000 		.4byte	0xb8
 3696 00fa 02       		.uleb128 0x2
 3697 00fb B4060000 		.4byte	.LASF22
 3698 00ff 05       		.byte	0x5
 3699 0100 D4       		.byte	0xd4
 3700 0101 A6000000 		.4byte	0xa6
 3701 0105 02       		.uleb128 0x2
 3702 0106 3F0E0000 		.4byte	.LASF23
 3703 010a 06       		.byte	0x6
 3704 010b 39       		.byte	0x39
 3705 010c D9000000 		.4byte	0xd9
 3706 0110 02       		.uleb128 0x2
 3707 0111 5A0D0000 		.4byte	.LASF24
 3708 0115 06       		.byte	0x6
 3709 0116 3C       		.byte	0x3c
 3710 0117 B8000000 		.4byte	0xb8
 3711 011b 02       		.uleb128 0x2
 3712 011c D0080000 		.4byte	.LASF25
 3713 0120 06       		.byte	0x6
 3714 0121 3D       		.byte	0x3d
 3715 0122 B8000000 		.4byte	0xb8
 3716 0126 02       		.uleb128 0x2
 3717 0127 22130000 		.4byte	.LASF26
 3718 012b 06       		.byte	0x6
 3719 012c 3E       		.byte	0x3e
 3720 012d B8000000 		.4byte	0xb8
 3721 0131 02       		.uleb128 0x2
 3722 0132 870C0000 		.4byte	.LASF27
ARM GAS  /tmp/ccDGRO0L.s 			page 67


 3723 0136 06       		.byte	0x6
 3724 0137 3F       		.byte	0x3f
 3725 0138 B8000000 		.4byte	0xb8
 3726 013c 02       		.uleb128 0x2
 3727 013d 22050000 		.4byte	.LASF28
 3728 0141 06       		.byte	0x6
 3729 0142 40       		.byte	0x40
 3730 0143 D9000000 		.4byte	0xd9
 3731 0147 02       		.uleb128 0x2
 3732 0148 E30A0000 		.4byte	.LASF29
 3733 014c 06       		.byte	0x6
 3734 014d 41       		.byte	0x41
 3735 014e CE000000 		.4byte	0xce
 3736 0152 02       		.uleb128 0x2
 3737 0153 DA040000 		.4byte	.LASF30
 3738 0157 06       		.byte	0x6
 3739 0158 43       		.byte	0x43
 3740 0159 D9000000 		.4byte	0xd9
 3741 015d 02       		.uleb128 0x2
 3742 015e DD0A0000 		.4byte	.LASF31
 3743 0162 06       		.byte	0x6
 3744 0163 45       		.byte	0x45
 3745 0164 CE000000 		.4byte	0xce
 3746 0168 02       		.uleb128 0x2
 3747 0169 2B010000 		.4byte	.LASF32
 3748 016d 07       		.byte	0x7
 3749 016e 33       		.byte	0x33
 3750 016f D9000000 		.4byte	0xd9
 3751 0173 02       		.uleb128 0x2
 3752 0174 89060000 		.4byte	.LASF33
 3753 0178 07       		.byte	0x7
 3754 0179 3F       		.byte	0x3f
 3755 017a 7E010000 		.4byte	0x17e
 3756 017e 05       		.uleb128 0x5
 3757 017f D9090000 		.4byte	.LASF54
 3758 0183 44       		.byte	0x44
 3759 0184 08       		.byte	0x8
 3760 0185 C2       		.byte	0xc2
 3761 0186 77020000 		.4byte	0x277
 3762 018a 06       		.uleb128 0x6
 3763 018b 7C100000 		.4byte	.LASF34
 3764 018f 08       		.byte	0x8
 3765 0190 C3       		.byte	0xc3
 3766 0191 82020000 		.4byte	0x282
 3767 0195 00       		.byte	0
 3768 0196 06       		.uleb128 0x6
 3769 0197 12130000 		.4byte	.LASF35
 3770 019b 08       		.byte	0x8
 3771 019c C5       		.byte	0xc5
 3772 019d 82020000 		.4byte	0x282
 3773 01a1 04       		.byte	0x4
 3774 01a2 06       		.uleb128 0x6
 3775 01a3 B9000000 		.4byte	.LASF36
 3776 01a7 08       		.byte	0x8
 3777 01a8 C7       		.byte	0xc7
 3778 01a9 3C010000 		.4byte	0x13c
 3779 01ad 08       		.byte	0x8
ARM GAS  /tmp/ccDGRO0L.s 			page 68


 3780 01ae 06       		.uleb128 0x6
 3781 01af 8C100000 		.4byte	.LASF37
 3782 01b3 08       		.byte	0x8
 3783 01b4 C8       		.byte	0xc8
 3784 01b5 55090000 		.4byte	0x955
 3785 01b9 0C       		.byte	0xc
 3786 01ba 06       		.uleb128 0x6
 3787 01bb 05180000 		.4byte	.LASF38
 3788 01bf 08       		.byte	0x8
 3789 01c0 CA       		.byte	0xca
 3790 01c1 82020000 		.4byte	0x282
 3791 01c5 10       		.byte	0x10
 3792 01c6 06       		.uleb128 0x6
 3793 01c7 0A090000 		.4byte	.LASF39
 3794 01cb 08       		.byte	0x8
 3795 01cc CB       		.byte	0xcb
 3796 01cd 82020000 		.4byte	0x282
 3797 01d1 14       		.byte	0x14
 3798 01d2 06       		.uleb128 0x6
 3799 01d3 EF070000 		.4byte	.LASF40
 3800 01d7 08       		.byte	0x8
 3801 01d8 D2       		.byte	0xd2
 3802 01d9 B0050000 		.4byte	0x5b0
 3803 01dd 18       		.byte	0x18
 3804 01de 06       		.uleb128 0x6
 3805 01df D1090000 		.4byte	.LASF41
 3806 01e3 08       		.byte	0x8
 3807 01e4 DD       		.byte	0xdd
 3808 01e5 1B010000 		.4byte	0x11b
 3809 01e9 1C       		.byte	0x1c
 3810 01ea 06       		.uleb128 0x6
 3811 01eb 2D0B0000 		.4byte	.LASF42
 3812 01ef 08       		.byte	0x8
 3813 01f0 E1       		.byte	0xe1
 3814 01f1 10010000 		.4byte	0x110
 3815 01f5 1D       		.byte	0x1d
 3816 01f6 06       		.uleb128 0x6
 3817 01f7 62140000 		.4byte	.LASF43
 3818 01fb 08       		.byte	0x8
 3819 01fc E6       		.byte	0xe6
 3820 01fd 26010000 		.4byte	0x126
 3821 0201 1E       		.byte	0x1e
 3822 0202 06       		.uleb128 0x6
 3823 0203 DC140000 		.4byte	.LASF44
 3824 0207 08       		.byte	0x8
 3825 0208 EC       		.byte	0xec
 3826 0209 31010000 		.4byte	0x131
 3827 020d 1F       		.byte	0x1f
 3828 020e 07       		.uleb128 0x7
 3829 020f 705F7500 		.ascii	"p_u\000"
 3830 0213 08       		.byte	0x8
 3831 0214 3101     		.2byte	0x131
 3832 0216 0F0A0000 		.4byte	0xa0f
 3833 021a 20       		.byte	0x20
 3834 021b 08       		.uleb128 0x8
 3835 021c 15020000 		.4byte	.LASF45
 3836 0220 08       		.byte	0x8
ARM GAS  /tmp/ccDGRO0L.s 			page 69


 3837 0221 3601     		.2byte	0x136
 3838 0223 88020000 		.4byte	0x288
 3839 0227 24       		.byte	0x24
 3840 0228 08       		.uleb128 0x8
 3841 0229 82010000 		.4byte	.LASF46
 3842 022d 08       		.byte	0x8
 3843 022e 3C01     		.2byte	0x13c
 3844 0230 AC020000 		.4byte	0x2ac
 3845 0234 28       		.byte	0x28
 3846 0235 08       		.uleb128 0x8
 3847 0236 200D0000 		.4byte	.LASF47
 3848 023a 08       		.byte	0x8
 3849 023b 4001     		.2byte	0x140
 3850 023d 47010000 		.4byte	0x147
 3851 0241 30       		.byte	0x30
 3852 0242 08       		.uleb128 0x8
 3853 0243 35150000 		.4byte	.LASF48
 3854 0247 08       		.byte	0x8
 3855 0248 4601     		.2byte	0x146
 3856 024a 52010000 		.4byte	0x152
 3857 024e 34       		.byte	0x34
 3858 024f 08       		.uleb128 0x8
 3859 0250 BB090000 		.4byte	.LASF49
 3860 0254 08       		.byte	0x8
 3861 0255 4D01     		.2byte	0x14d
 3862 0257 CE0A0000 		.4byte	0xace
 3863 025b 38       		.byte	0x38
 3864 025c 08       		.uleb128 0x8
 3865 025d 830E0000 		.4byte	.LASF50
 3866 0261 08       		.byte	0x8
 3867 0262 5101     		.2byte	0x151
 3868 0264 3C010000 		.4byte	0x13c
 3869 0268 3C       		.byte	0x3c
 3870 0269 08       		.uleb128 0x8
 3871 026a 7A150000 		.4byte	.LASF51
 3872 026e 08       		.byte	0x8
 3873 026f 5801     		.2byte	0x158
 3874 0271 5F030000 		.4byte	0x35f
 3875 0275 40       		.byte	0x40
 3876 0276 00       		.byte	0
 3877 0277 02       		.uleb128 0x2
 3878 0278 7F000000 		.4byte	.LASF52
 3879 027c 07       		.byte	0x7
 3880 027d 44       		.byte	0x44
 3881 027e 82020000 		.4byte	0x282
 3882 0282 09       		.uleb128 0x9
 3883 0283 04       		.byte	0x4
 3884 0284 73010000 		.4byte	0x173
 3885 0288 02       		.uleb128 0x2
 3886 0289 BB010000 		.4byte	.LASF53
 3887 028d 07       		.byte	0x7
 3888 028e 49       		.byte	0x49
 3889 028f 93020000 		.4byte	0x293
 3890 0293 05       		.uleb128 0x5
 3891 0294 60080000 		.4byte	.LASF55
 3892 0298 04       		.byte	0x4
 3893 0299 08       		.byte	0x8
ARM GAS  /tmp/ccDGRO0L.s 			page 70


 3894 029a B0       		.byte	0xb0
 3895 029b AC020000 		.4byte	0x2ac
 3896 029f 06       		.uleb128 0x6
 3897 02a0 7C100000 		.4byte	.LASF34
 3898 02a4 08       		.byte	0x8
 3899 02a5 B1       		.byte	0xb1
 3900 02a6 82020000 		.4byte	0x282
 3901 02aa 00       		.byte	0
 3902 02ab 00       		.byte	0
 3903 02ac 02       		.uleb128 0x2
 3904 02ad 00000000 		.4byte	.LASF56
 3905 02b1 07       		.byte	0x7
 3906 02b2 50       		.byte	0x50
 3907 02b3 B7020000 		.4byte	0x2b7
 3908 02b7 05       		.uleb128 0x5
 3909 02b8 970A0000 		.4byte	.LASF57
 3910 02bc 08       		.byte	0x8
 3911 02bd 08       		.byte	0x8
 3912 02be B7       		.byte	0xb7
 3913 02bf DC020000 		.4byte	0x2dc
 3914 02c3 06       		.uleb128 0x6
 3915 02c4 7C100000 		.4byte	.LASF34
 3916 02c8 08       		.byte	0x8
 3917 02c9 B8       		.byte	0xb8
 3918 02ca 82020000 		.4byte	0x282
 3919 02ce 00       		.byte	0
 3920 02cf 06       		.uleb128 0x6
 3921 02d0 12130000 		.4byte	.LASF35
 3922 02d4 08       		.byte	0x8
 3923 02d5 B9       		.byte	0xb9
 3924 02d6 82020000 		.4byte	0x282
 3925 02da 04       		.byte	0x4
 3926 02db 00       		.byte	0
 3927 02dc 02       		.uleb128 0x2
 3928 02dd 54130000 		.4byte	.LASF58
 3929 02e1 07       		.byte	0x7
 3930 02e2 57       		.byte	0x57
 3931 02e3 E7020000 		.4byte	0x2e7
 3932 02e7 0A       		.uleb128 0xa
 3933 02e8 62040000 		.4byte	.LASF59
 3934 02ec 1C       		.byte	0x1c
 3935 02ed 08       		.byte	0x8
 3936 02ee 9001     		.2byte	0x190
 3937 02f0 43030000 		.4byte	0x343
 3938 02f4 08       		.uleb128 0x8
 3939 02f5 DC170000 		.4byte	.LASF60
 3940 02f9 08       		.byte	0x8
 3941 02fa 9101     		.2byte	0x191
 3942 02fc AC020000 		.4byte	0x2ac
 3943 0300 00       		.byte	0
 3944 0301 08       		.uleb128 0x8
 3945 0302 E6040000 		.4byte	.LASF61
 3946 0306 08       		.byte	0x8
 3947 0307 9201     		.2byte	0x192
 3948 0309 3C010000 		.4byte	0x13c
 3949 030d 08       		.byte	0x8
 3950 030e 08       		.uleb128 0x8
ARM GAS  /tmp/ccDGRO0L.s 			page 71


 3951 030f 3F160000 		.4byte	.LASF62
 3952 0313 08       		.byte	0x8
 3953 0314 9401     		.2byte	0x194
 3954 0316 55090000 		.4byte	0x955
 3955 031a 0C       		.byte	0xc
 3956 031b 08       		.uleb128 0x8
 3957 031c B9080000 		.4byte	.LASF63
 3958 0320 08       		.byte	0x8
 3959 0321 9701     		.2byte	0x197
 3960 0323 82020000 		.4byte	0x282
 3961 0327 10       		.byte	0x10
 3962 0328 08       		.uleb128 0x8
 3963 0329 910C0000 		.4byte	.LASF64
 3964 032d 08       		.byte	0x8
 3965 032e 9801     		.2byte	0x198
 3966 0330 82020000 		.4byte	0x282
 3967 0334 14       		.byte	0x14
 3968 0335 08       		.uleb128 0x8
 3969 0336 DF0E0000 		.4byte	.LASF65
 3970 033a 08       		.byte	0x8
 3971 033b 9B01     		.2byte	0x19b
 3972 033d 82020000 		.4byte	0x282
 3973 0341 18       		.byte	0x18
 3974 0342 00       		.byte	0
 3975 0343 02       		.uleb128 0x2
 3976 0344 F9030000 		.4byte	.LASF66
 3977 0348 07       		.byte	0x7
 3978 0349 5C       		.byte	0x5c
 3979 034a 4E030000 		.4byte	0x34e
 3980 034e 09       		.uleb128 0x9
 3981 034f 04       		.byte	0x4
 3982 0350 54030000 		.4byte	0x354
 3983 0354 0B       		.uleb128 0xb
 3984 0355 5F030000 		.4byte	0x35f
 3985 0359 0C       		.uleb128 0xc
 3986 035a 5F030000 		.4byte	0x35f
 3987 035e 00       		.byte	0
 3988 035f 0D       		.uleb128 0xd
 3989 0360 04       		.byte	0x4
 3990 0361 02       		.uleb128 0x2
 3991 0362 720B0000 		.4byte	.LASF67
 3992 0366 07       		.byte	0x7
 3993 0367 61       		.byte	0x61
 3994 0368 6C030000 		.4byte	0x36c
 3995 036c 0A       		.uleb128 0xa
 3996 036d C5050000 		.4byte	.LASF68
 3997 0371 14       		.byte	0x14
 3998 0372 08       		.byte	0x8
 3999 0373 6B01     		.2byte	0x16b
 4000 0375 BB030000 		.4byte	0x3bb
 4001 0379 08       		.uleb128 0x8
 4002 037a 40150000 		.4byte	.LASF69
 4003 037e 08       		.byte	0x8
 4004 037f 6C01     		.2byte	0x16c
 4005 0381 D40A0000 		.4byte	0xad4
 4006 0385 00       		.byte	0
 4007 0386 08       		.uleb128 0x8
ARM GAS  /tmp/ccDGRO0L.s 			page 72


 4008 0387 ED160000 		.4byte	.LASF70
 4009 038b 08       		.byte	0x8
 4010 038c 6D01     		.2byte	0x16d
 4011 038e D40A0000 		.4byte	0xad4
 4012 0392 04       		.byte	0x4
 4013 0393 08       		.uleb128 0x8
 4014 0394 62060000 		.4byte	.LASF71
 4015 0398 08       		.byte	0x8
 4016 0399 6E01     		.2byte	0x16e
 4017 039b 68010000 		.4byte	0x168
 4018 039f 08       		.byte	0x8
 4019 03a0 08       		.uleb128 0x8
 4020 03a1 83160000 		.4byte	.LASF72
 4021 03a5 08       		.byte	0x8
 4022 03a6 6F01     		.2byte	0x16f
 4023 03a8 43030000 		.4byte	0x343
 4024 03ac 0C       		.byte	0xc
 4025 03ad 08       		.uleb128 0x8
 4026 03ae ED040000 		.4byte	.LASF73
 4027 03b2 08       		.byte	0x8
 4028 03b3 7101     		.2byte	0x171
 4029 03b5 5F030000 		.4byte	0x35f
 4030 03b9 10       		.byte	0x10
 4031 03ba 00       		.byte	0
 4032 03bb 02       		.uleb128 0x2
 4033 03bc 4C140000 		.4byte	.LASF74
 4034 03c0 07       		.byte	0x7
 4035 03c1 66       		.byte	0x66
 4036 03c2 C6030000 		.4byte	0x3c6
 4037 03c6 0A       		.uleb128 0xa
 4038 03c7 4B060000 		.4byte	.LASF75
 4039 03cb 10       		.byte	0x10
 4040 03cc 08       		.byte	0x8
 4041 03cd 7B01     		.2byte	0x17b
 4042 03cf 08040000 		.4byte	0x408
 4043 03d3 08       		.uleb128 0x8
 4044 03d4 40150000 		.4byte	.LASF69
 4045 03d8 08       		.byte	0x8
 4046 03d9 7C01     		.2byte	0x17c
 4047 03db D40A0000 		.4byte	0xad4
 4048 03df 00       		.byte	0
 4049 03e0 08       		.uleb128 0x8
 4050 03e1 ED160000 		.4byte	.LASF70
 4051 03e5 08       		.byte	0x8
 4052 03e6 7E01     		.2byte	0x17e
 4053 03e8 D40A0000 		.4byte	0xad4
 4054 03ec 04       		.byte	0x4
 4055 03ed 08       		.uleb128 0x8
 4056 03ee 62060000 		.4byte	.LASF71
 4057 03f2 08       		.byte	0x8
 4058 03f3 8001     		.2byte	0x180
 4059 03f5 68010000 		.4byte	0x168
 4060 03f9 08       		.byte	0x8
 4061 03fa 08       		.uleb128 0x8
 4062 03fb 77010000 		.4byte	.LASF76
 4063 03ff 08       		.byte	0x8
 4064 0400 8201     		.2byte	0x182
ARM GAS  /tmp/ccDGRO0L.s 			page 73


 4065 0402 DA0A0000 		.4byte	0xada
 4066 0406 0C       		.byte	0xc
 4067 0407 00       		.byte	0
 4068 0408 02       		.uleb128 0x2
 4069 0409 380A0000 		.4byte	.LASF77
 4070 040d 07       		.byte	0x7
 4071 040e 6B       		.byte	0x6b
 4072 040f 13040000 		.4byte	0x413
 4073 0413 0A       		.uleb128 0xa
 4074 0414 0A040000 		.4byte	.LASF78
 4075 0418 04       		.byte	0x4
 4076 0419 08       		.byte	0x8
 4077 041a A201     		.2byte	0x1a2
 4078 041c 2E040000 		.4byte	0x42e
 4079 0420 08       		.uleb128 0x8
 4080 0421 E60C0000 		.4byte	.LASF79
 4081 0425 08       		.byte	0x8
 4082 0426 AA01     		.2byte	0x1aa
 4083 0428 DF0A0000 		.4byte	0xadf
 4084 042c 00       		.byte	0
 4085 042d 00       		.byte	0
 4086 042e 02       		.uleb128 0x2
 4087 042f 82150000 		.4byte	.LASF80
 4088 0433 07       		.byte	0x7
 4089 0434 70       		.byte	0x70
 4090 0435 39040000 		.4byte	0x439
 4091 0439 0E       		.uleb128 0xe
 4092 043a 14100000 		.4byte	.LASF81
 4093 043e 5001     		.2byte	0x150
 4094 0440 08       		.byte	0x8
 4095 0441 C201     		.2byte	0x1c2
 4096 0443 95040000 		.4byte	0x495
 4097 0447 08       		.uleb128 0x8
 4098 0448 A7100000 		.4byte	.LASF82
 4099 044c 08       		.byte	0x8
 4100 044d C601     		.2byte	0x1c6
 4101 044f DC020000 		.4byte	0x2dc
 4102 0453 00       		.byte	0
 4103 0454 08       		.uleb128 0x8
 4104 0455 6C020000 		.4byte	.LASF83
 4105 0459 08       		.byte	0x8
 4106 045a CA01     		.2byte	0x1ca
 4107 045c BB030000 		.4byte	0x3bb
 4108 0460 1C       		.byte	0x1c
 4109 0461 07       		.uleb128 0x7
 4110 0462 64626700 		.ascii	"dbg\000"
 4111 0466 08       		.byte	0x8
 4112 0467 CE01     		.2byte	0x1ce
 4113 0469 08040000 		.4byte	0x408
 4114 046d 2C       		.byte	0x2c
 4115 046e 08       		.uleb128 0x8
 4116 046f 6D0D0000 		.4byte	.LASF84
 4117 0473 08       		.byte	0x8
 4118 0474 D201     		.2byte	0x1d2
 4119 0476 73010000 		.4byte	0x173
 4120 047a 30       		.byte	0x30
 4121 047b 07       		.uleb128 0x7
ARM GAS  /tmp/ccDGRO0L.s 			page 74


 4122 047c 746D00   		.ascii	"tm\000"
 4123 047f 08       		.byte	0x8
 4124 0480 D701     		.2byte	0x1d7
 4125 0482 040A0000 		.4byte	0xa04
 4126 0486 74       		.byte	0x74
 4127 0487 08       		.uleb128 0x8
 4128 0488 C4020000 		.4byte	.LASF85
 4129 048c 08       		.byte	0x8
 4130 048d E301     		.2byte	0x1e3
 4131 048f E40A0000 		.4byte	0xae4
 4132 0493 78       		.byte	0x78
 4133 0494 00       		.byte	0
 4134 0495 03       		.uleb128 0x3
 4135 0496 04       		.byte	0x4
 4136 0497 07       		.byte	0x7
 4137 0498 19130000 		.4byte	.LASF86
 4138 049c 0F       		.uleb128 0xf
 4139 049d D9000000 		.4byte	0xd9
 4140 04a1 0F       		.uleb128 0xf
 4141 04a2 B8000000 		.4byte	0xb8
 4142 04a6 10       		.uleb128 0x10
 4143 04a7 10       		.byte	0x10
 4144 04a8 09       		.byte	0x9
 4145 04a9 A701     		.2byte	0x1a7
 4146 04ab E4040000 		.4byte	0x4e4
 4147 04af 07       		.uleb128 0x7
 4148 04b0 43435200 		.ascii	"CCR\000"
 4149 04b4 09       		.byte	0x9
 4150 04b5 A901     		.2byte	0x1a9
 4151 04b7 9C040000 		.4byte	0x49c
 4152 04bb 00       		.byte	0
 4153 04bc 08       		.uleb128 0x8
 4154 04bd 2A040000 		.4byte	.LASF87
 4155 04c1 09       		.byte	0x9
 4156 04c2 AA01     		.2byte	0x1aa
 4157 04c4 9C040000 		.4byte	0x49c
 4158 04c8 04       		.byte	0x4
 4159 04c9 08       		.uleb128 0x8
 4160 04ca 6B060000 		.4byte	.LASF88
 4161 04ce 09       		.byte	0x9
 4162 04cf AB01     		.2byte	0x1ab
 4163 04d1 9C040000 		.4byte	0x49c
 4164 04d5 08       		.byte	0x8
 4165 04d6 08       		.uleb128 0x8
 4166 04d7 41020000 		.4byte	.LASF89
 4167 04db 09       		.byte	0x9
 4168 04dc AC01     		.2byte	0x1ac
 4169 04de 9C040000 		.4byte	0x49c
 4170 04e2 0C       		.byte	0xc
 4171 04e3 00       		.byte	0
 4172 04e4 11       		.uleb128 0x11
 4173 04e5 85020000 		.4byte	.LASF90
 4174 04e9 09       		.byte	0x9
 4175 04ea AD01     		.2byte	0x1ad
 4176 04ec A6040000 		.4byte	0x4a6
 4177 04f0 10       		.uleb128 0x10
 4178 04f1 08       		.byte	0x8
ARM GAS  /tmp/ccDGRO0L.s 			page 75


 4179 04f2 09       		.byte	0x9
 4180 04f3 AF01     		.2byte	0x1af
 4181 04f5 14050000 		.4byte	0x514
 4182 04f9 07       		.uleb128 0x7
 4183 04fa 49535200 		.ascii	"ISR\000"
 4184 04fe 09       		.byte	0x9
 4185 04ff B101     		.2byte	0x1b1
 4186 0501 9C040000 		.4byte	0x49c
 4187 0505 00       		.byte	0
 4188 0506 08       		.uleb128 0x8
 4189 0507 57160000 		.4byte	.LASF91
 4190 050b 09       		.byte	0x9
 4191 050c B201     		.2byte	0x1b2
 4192 050e 9C040000 		.4byte	0x49c
 4193 0512 04       		.byte	0x4
 4194 0513 00       		.byte	0
 4195 0514 11       		.uleb128 0x11
 4196 0515 AC0B0000 		.4byte	.LASF92
 4197 0519 09       		.byte	0x9
 4198 051a B301     		.2byte	0x1b3
 4199 051c F0040000 		.4byte	0x4f0
 4200 0520 10       		.uleb128 0x10
 4201 0521 24       		.byte	0x24
 4202 0522 09       		.byte	0x9
 4203 0523 5E03     		.2byte	0x35e
 4204 0525 9D050000 		.4byte	0x59d
 4205 0529 07       		.uleb128 0x7
 4206 052a 43523100 		.ascii	"CR1\000"
 4207 052e 09       		.byte	0x9
 4208 052f 6003     		.2byte	0x360
 4209 0531 9C040000 		.4byte	0x49c
 4210 0535 00       		.byte	0
 4211 0536 07       		.uleb128 0x7
 4212 0537 43523200 		.ascii	"CR2\000"
 4213 053b 09       		.byte	0x9
 4214 053c 6103     		.2byte	0x361
 4215 053e 9C040000 		.4byte	0x49c
 4216 0542 04       		.byte	0x4
 4217 0543 07       		.uleb128 0x7
 4218 0544 535200   		.ascii	"SR\000"
 4219 0547 09       		.byte	0x9
 4220 0548 6203     		.2byte	0x362
 4221 054a 9C040000 		.4byte	0x49c
 4222 054e 08       		.byte	0x8
 4223 054f 07       		.uleb128 0x7
 4224 0550 445200   		.ascii	"DR\000"
 4225 0553 09       		.byte	0x9
 4226 0554 6303     		.2byte	0x363
 4227 0556 9C040000 		.4byte	0x49c
 4228 055a 0C       		.byte	0xc
 4229 055b 08       		.uleb128 0x8
 4230 055c D2130000 		.4byte	.LASF93
 4231 0560 09       		.byte	0x9
 4232 0561 6403     		.2byte	0x364
 4233 0563 9C040000 		.4byte	0x49c
 4234 0567 10       		.byte	0x10
 4235 0568 08       		.uleb128 0x8
ARM GAS  /tmp/ccDGRO0L.s 			page 76


 4236 0569 33020000 		.4byte	.LASF94
 4237 056d 09       		.byte	0x9
 4238 056e 6503     		.2byte	0x365
 4239 0570 9C040000 		.4byte	0x49c
 4240 0574 14       		.byte	0x14
 4241 0575 08       		.uleb128 0x8
 4242 0576 98070000 		.4byte	.LASF95
 4243 057a 09       		.byte	0x9
 4244 057b 6603     		.2byte	0x366
 4245 057d 9C040000 		.4byte	0x49c
 4246 0581 18       		.byte	0x18
 4247 0582 08       		.uleb128 0x8
 4248 0583 8E0E0000 		.4byte	.LASF96
 4249 0587 09       		.byte	0x9
 4250 0588 6703     		.2byte	0x367
 4251 058a D9000000 		.4byte	0xd9
 4252 058e 1C       		.byte	0x1c
 4253 058f 08       		.uleb128 0x8
 4254 0590 980E0000 		.4byte	.LASF97
 4255 0594 09       		.byte	0x9
 4256 0595 6803     		.2byte	0x368
 4257 0597 D9000000 		.4byte	0xd9
 4258 059b 20       		.byte	0x20
 4259 059c 00       		.byte	0
 4260 059d 11       		.uleb128 0x11
 4261 059e C0000000 		.4byte	.LASF98
 4262 05a2 09       		.byte	0x9
 4263 05a3 6903     		.2byte	0x369
 4264 05a5 20050000 		.4byte	0x520
 4265 05a9 03       		.uleb128 0x3
 4266 05aa 01       		.byte	0x1
 4267 05ab 08       		.byte	0x8
 4268 05ac 92000000 		.4byte	.LASF99
 4269 05b0 09       		.uleb128 0x9
 4270 05b1 04       		.byte	0x4
 4271 05b2 B6050000 		.4byte	0x5b6
 4272 05b6 12       		.uleb128 0x12
 4273 05b7 A9050000 		.4byte	0x5a9
 4274 05bb 13       		.uleb128 0x13
 4275 05bc 01       		.byte	0x1
 4276 05bd 0A       		.byte	0xa
 4277 05be 45       		.byte	0x45
 4278 05bf D0050000 		.4byte	0x5d0
 4279 05c3 14       		.uleb128 0x14
 4280 05c4 79070000 		.4byte	.LASF100
 4281 05c8 00       		.sleb128 0
 4282 05c9 14       		.uleb128 0x14
 4283 05ca E0000000 		.4byte	.LASF101
 4284 05ce 01       		.sleb128 1
 4285 05cf 00       		.byte	0
 4286 05d0 02       		.uleb128 0x2
 4287 05d1 67120000 		.4byte	.LASF102
 4288 05d5 0A       		.byte	0xa
 4289 05d6 48       		.byte	0x48
 4290 05d7 BB050000 		.4byte	0x5bb
 4291 05db 15       		.uleb128 0x15
 4292 05dc 20       		.byte	0x20
ARM GAS  /tmp/ccDGRO0L.s 			page 77


 4293 05dd 0B       		.byte	0xb
 4294 05de 42       		.byte	0x42
 4295 05df 44060000 		.4byte	0x644
 4296 05e3 06       		.uleb128 0x6
 4297 05e4 02040000 		.4byte	.LASF103
 4298 05e8 0B       		.byte	0xb
 4299 05e9 44       		.byte	0x44
 4300 05ea D9000000 		.4byte	0xd9
 4301 05ee 00       		.byte	0
 4302 05ef 06       		.uleb128 0x6
 4303 05f0 D8130000 		.4byte	.LASF104
 4304 05f4 0B       		.byte	0xb
 4305 05f5 47       		.byte	0x47
 4306 05f6 D9000000 		.4byte	0xd9
 4307 05fa 04       		.byte	0x4
 4308 05fb 06       		.uleb128 0x6
 4309 05fc FB170000 		.4byte	.LASF105
 4310 0600 0B       		.byte	0xb
 4311 0601 4B       		.byte	0x4b
 4312 0602 D9000000 		.4byte	0xd9
 4313 0606 08       		.byte	0x8
 4314 0607 06       		.uleb128 0x6
 4315 0608 AB010000 		.4byte	.LASF106
 4316 060c 0B       		.byte	0xb
 4317 060d 4E       		.byte	0x4e
 4318 060e D9000000 		.4byte	0xd9
 4319 0612 0C       		.byte	0xc
 4320 0613 06       		.uleb128 0x6
 4321 0614 D5060000 		.4byte	.LASF107
 4322 0618 0B       		.byte	0xb
 4323 0619 51       		.byte	0x51
 4324 061a D9000000 		.4byte	0xd9
 4325 061e 10       		.byte	0x10
 4326 061f 06       		.uleb128 0x6
 4327 0620 1E100000 		.4byte	.LASF108
 4328 0624 0B       		.byte	0xb
 4329 0625 54       		.byte	0x54
 4330 0626 D9000000 		.4byte	0xd9
 4331 062a 14       		.byte	0x14
 4332 062b 06       		.uleb128 0x6
 4333 062c 0F0F0000 		.4byte	.LASF109
 4334 0630 0B       		.byte	0xb
 4335 0631 57       		.byte	0x57
 4336 0632 D9000000 		.4byte	0xd9
 4337 0636 18       		.byte	0x18
 4338 0637 06       		.uleb128 0x6
 4339 0638 7C020000 		.4byte	.LASF110
 4340 063c 0B       		.byte	0xb
 4341 063d 5C       		.byte	0x5c
 4342 063e D9000000 		.4byte	0xd9
 4343 0642 1C       		.byte	0x1c
 4344 0643 00       		.byte	0
 4345 0644 02       		.uleb128 0x2
 4346 0645 FF0E0000 		.4byte	.LASF111
 4347 0649 0B       		.byte	0xb
 4348 064a 5E       		.byte	0x5e
 4349 064b DB050000 		.4byte	0x5db
ARM GAS  /tmp/ccDGRO0L.s 			page 78


 4350 064f 13       		.uleb128 0x13
 4351 0650 01       		.byte	0x1
 4352 0651 0B       		.byte	0xb
 4353 0652 64       		.byte	0x64
 4354 0653 70060000 		.4byte	0x670
 4355 0657 14       		.uleb128 0x14
 4356 0658 6F030000 		.4byte	.LASF112
 4357 065c 00       		.sleb128 0
 4358 065d 14       		.uleb128 0x14
 4359 065e 16170000 		.4byte	.LASF113
 4360 0662 01       		.sleb128 1
 4361 0663 14       		.uleb128 0x14
 4362 0664 90130000 		.4byte	.LASF114
 4363 0668 02       		.sleb128 2
 4364 0669 14       		.uleb128 0x14
 4365 066a 87040000 		.4byte	.LASF115
 4366 066e 03       		.sleb128 3
 4367 066f 00       		.byte	0
 4368 0670 02       		.uleb128 0x2
 4369 0671 00020000 		.4byte	.LASF116
 4370 0675 0B       		.byte	0xb
 4371 0676 69       		.byte	0x69
 4372 0677 4F060000 		.4byte	0x64f
 4373 067b 05       		.uleb128 0x5
 4374 067c 4C080000 		.4byte	.LASF117
 4375 0680 48       		.byte	0x48
 4376 0681 0B       		.byte	0xb
 4377 0682 85       		.byte	0x85
 4378 0683 18070000 		.4byte	0x718
 4379 0687 06       		.uleb128 0x6
 4380 0688 73100000 		.4byte	.LASF118
 4381 068c 0B       		.byte	0xb
 4382 068d 87       		.byte	0x87
 4383 068e 18070000 		.4byte	0x718
 4384 0692 00       		.byte	0
 4385 0693 06       		.uleb128 0x6
 4386 0694 AF060000 		.4byte	.LASF119
 4387 0698 0B       		.byte	0xb
 4388 0699 89       		.byte	0x89
 4389 069a 44060000 		.4byte	0x644
 4390 069e 04       		.byte	0x4
 4391 069f 06       		.uleb128 0x6
 4392 06a0 EB000000 		.4byte	.LASF120
 4393 06a4 0B       		.byte	0xb
 4394 06a5 8B       		.byte	0x8b
 4395 06a6 D0050000 		.4byte	0x5d0
 4396 06aa 24       		.byte	0x24
 4397 06ab 06       		.uleb128 0x6
 4398 06ac 03030000 		.4byte	.LASF121
 4399 06b0 0B       		.byte	0xb
 4400 06b1 8D       		.byte	0x8d
 4401 06b2 1E070000 		.4byte	0x71e
 4402 06b6 25       		.byte	0x25
 4403 06b7 06       		.uleb128 0x6
 4404 06b8 2A060000 		.4byte	.LASF122
 4405 06bc 0B       		.byte	0xb
 4406 06bd 8F       		.byte	0x8f
ARM GAS  /tmp/ccDGRO0L.s 			page 79


 4407 06be 5F030000 		.4byte	0x35f
 4408 06c2 28       		.byte	0x28
 4409 06c3 06       		.uleb128 0x6
 4410 06c4 46020000 		.4byte	.LASF123
 4411 06c8 0B       		.byte	0xb
 4412 06c9 91       		.byte	0x91
 4413 06ca 34070000 		.4byte	0x734
 4414 06ce 2C       		.byte	0x2c
 4415 06cf 06       		.uleb128 0x6
 4416 06d0 42100000 		.4byte	.LASF124
 4417 06d4 0B       		.byte	0xb
 4418 06d5 93       		.byte	0x93
 4419 06d6 34070000 		.4byte	0x734
 4420 06da 30       		.byte	0x30
 4421 06db 06       		.uleb128 0x6
 4422 06dc 2E070000 		.4byte	.LASF125
 4423 06e0 0B       		.byte	0xb
 4424 06e1 95       		.byte	0x95
 4425 06e2 34070000 		.4byte	0x734
 4426 06e6 34       		.byte	0x34
 4427 06e7 06       		.uleb128 0x6
 4428 06e8 820B0000 		.4byte	.LASF126
 4429 06ec 0B       		.byte	0xb
 4430 06ed 97       		.byte	0x97
 4431 06ee 34070000 		.4byte	0x734
 4432 06f2 38       		.byte	0x38
 4433 06f3 06       		.uleb128 0x6
 4434 06f4 070D0000 		.4byte	.LASF127
 4435 06f8 0B       		.byte	0xb
 4436 06f9 99       		.byte	0x99
 4437 06fa 9C040000 		.4byte	0x49c
 4438 06fe 3C       		.byte	0x3c
 4439 06ff 06       		.uleb128 0x6
 4440 0700 0D180000 		.4byte	.LASF128
 4441 0704 0B       		.byte	0xb
 4442 0705 9B       		.byte	0x9b
 4443 0706 3A070000 		.4byte	0x73a
 4444 070a 40       		.byte	0x40
 4445 070b 06       		.uleb128 0x6
 4446 070c 83030000 		.4byte	.LASF129
 4447 0710 0B       		.byte	0xb
 4448 0711 9D       		.byte	0x9d
 4449 0712 D9000000 		.4byte	0xd9
 4450 0716 44       		.byte	0x44
 4451 0717 00       		.byte	0
 4452 0718 09       		.uleb128 0x9
 4453 0719 04       		.byte	0x4
 4454 071a E4040000 		.4byte	0x4e4
 4455 071e 0F       		.uleb128 0xf
 4456 071f 70060000 		.4byte	0x670
 4457 0723 0B       		.uleb128 0xb
 4458 0724 2E070000 		.4byte	0x72e
 4459 0728 0C       		.uleb128 0xc
 4460 0729 2E070000 		.4byte	0x72e
 4461 072d 00       		.byte	0
 4462 072e 09       		.uleb128 0x9
 4463 072f 04       		.byte	0x4
ARM GAS  /tmp/ccDGRO0L.s 			page 80


 4464 0730 7B060000 		.4byte	0x67b
 4465 0734 09       		.uleb128 0x9
 4466 0735 04       		.byte	0x4
 4467 0736 23070000 		.4byte	0x723
 4468 073a 09       		.uleb128 0x9
 4469 073b 04       		.byte	0x4
 4470 073c 14050000 		.4byte	0x514
 4471 0740 02       		.uleb128 0x2
 4472 0741 86070000 		.4byte	.LASF130
 4473 0745 0B       		.byte	0xb
 4474 0746 9E       		.byte	0x9e
 4475 0747 7B060000 		.4byte	0x67b
 4476 074b 09       		.uleb128 0x9
 4477 074c 04       		.byte	0x4
 4478 074d 40070000 		.4byte	0x740
 4479 0751 09       		.uleb128 0x9
 4480 0752 04       		.byte	0x4
 4481 0753 B8000000 		.4byte	0xb8
 4482 0757 15       		.uleb128 0x15
 4483 0758 34       		.byte	0x34
 4484 0759 0C       		.byte	0xc
 4485 075a 41       		.byte	0x41
 4486 075b FC070000 		.4byte	0x7fc
 4487 075f 06       		.uleb128 0x6
 4488 0760 0F0F0000 		.4byte	.LASF109
 4489 0764 0C       		.byte	0xc
 4490 0765 43       		.byte	0x43
 4491 0766 D9000000 		.4byte	0xd9
 4492 076a 00       		.byte	0
 4493 076b 06       		.uleb128 0x6
 4494 076c D8130000 		.4byte	.LASF104
 4495 0770 0C       		.byte	0xc
 4496 0771 46       		.byte	0x46
 4497 0772 D9000000 		.4byte	0xd9
 4498 0776 04       		.byte	0x4
 4499 0777 06       		.uleb128 0x6
 4500 0778 BB060000 		.4byte	.LASF131
 4501 077c 0C       		.byte	0xc
 4502 077d 49       		.byte	0x49
 4503 077e D9000000 		.4byte	0xd9
 4504 0782 08       		.byte	0x8
 4505 0783 06       		.uleb128 0x6
 4506 0784 5E090000 		.4byte	.LASF132
 4507 0788 0C       		.byte	0xc
 4508 0789 4C       		.byte	0x4c
 4509 078a D9000000 		.4byte	0xd9
 4510 078e 0C       		.byte	0xc
 4511 078f 06       		.uleb128 0x6
 4512 0790 87130000 		.4byte	.LASF133
 4513 0794 0C       		.byte	0xc
 4514 0795 4F       		.byte	0x4f
 4515 0796 D9000000 		.4byte	0xd9
 4516 079a 10       		.byte	0x10
 4517 079b 16       		.uleb128 0x16
 4518 079c 4E535300 		.ascii	"NSS\000"
 4519 07a0 0C       		.byte	0xc
 4520 07a1 52       		.byte	0x52
ARM GAS  /tmp/ccDGRO0L.s 			page 81


 4521 07a2 D9000000 		.4byte	0xd9
 4522 07a6 14       		.byte	0x14
 4523 07a7 06       		.uleb128 0x6
 4524 07a8 BE070000 		.4byte	.LASF134
 4525 07ac 0C       		.byte	0xc
 4526 07ad 56       		.byte	0x56
 4527 07ae D9000000 		.4byte	0xd9
 4528 07b2 18       		.byte	0x18
 4529 07b3 06       		.uleb128 0x6
 4530 07b4 BB0A0000 		.4byte	.LASF135
 4531 07b8 0C       		.byte	0xc
 4532 07b9 5C       		.byte	0x5c
 4533 07ba D9000000 		.4byte	0xd9
 4534 07be 1C       		.byte	0x1c
 4535 07bf 06       		.uleb128 0x6
 4536 07c0 4C010000 		.4byte	.LASF136
 4537 07c4 0C       		.byte	0xc
 4538 07c5 5F       		.byte	0x5f
 4539 07c6 D9000000 		.4byte	0xd9
 4540 07ca 20       		.byte	0x20
 4541 07cb 06       		.uleb128 0x6
 4542 07cc 02070000 		.4byte	.LASF137
 4543 07d0 0C       		.byte	0xc
 4544 07d1 62       		.byte	0x62
 4545 07d2 D9000000 		.4byte	0xd9
 4546 07d6 24       		.byte	0x24
 4547 07d7 06       		.uleb128 0x6
 4548 07d8 BF030000 		.4byte	.LASF138
 4549 07dc 0C       		.byte	0xc
 4550 07dd 65       		.byte	0x65
 4551 07de D9000000 		.4byte	0xd9
 4552 07e2 28       		.byte	0x28
 4553 07e3 06       		.uleb128 0x6
 4554 07e4 06060000 		.4byte	.LASF139
 4555 07e8 0C       		.byte	0xc
 4556 07e9 68       		.byte	0x68
 4557 07ea D9000000 		.4byte	0xd9
 4558 07ee 2C       		.byte	0x2c
 4559 07ef 06       		.uleb128 0x6
 4560 07f0 5A0C0000 		.4byte	.LASF140
 4561 07f4 0C       		.byte	0xc
 4562 07f5 6C       		.byte	0x6c
 4563 07f6 D9000000 		.4byte	0xd9
 4564 07fa 30       		.byte	0x30
 4565 07fb 00       		.byte	0
 4566 07fc 02       		.uleb128 0x2
 4567 07fd BE120000 		.4byte	.LASF141
 4568 0801 0C       		.byte	0xc
 4569 0802 72       		.byte	0x72
 4570 0803 57070000 		.4byte	0x757
 4571 0807 13       		.uleb128 0x13
 4572 0808 01       		.byte	0x1
 4573 0809 0C       		.byte	0xc
 4574 080a 78       		.byte	0x78
 4575 080b 3A080000 		.4byte	0x83a
 4576 080f 14       		.uleb128 0x14
 4577 0810 E90A0000 		.4byte	.LASF142
ARM GAS  /tmp/ccDGRO0L.s 			page 82


 4578 0814 00       		.sleb128 0
 4579 0815 14       		.uleb128 0x14
 4580 0816 CC000000 		.4byte	.LASF143
 4581 081a 01       		.sleb128 1
 4582 081b 14       		.uleb128 0x14
 4583 081c B0150000 		.4byte	.LASF144
 4584 0820 02       		.sleb128 2
 4585 0821 14       		.uleb128 0x14
 4586 0822 2D030000 		.4byte	.LASF145
 4587 0826 03       		.sleb128 3
 4588 0827 14       		.uleb128 0x14
 4589 0828 1E000000 		.4byte	.LASF146
 4590 082c 04       		.sleb128 4
 4591 082d 14       		.uleb128 0x14
 4592 082e E9060000 		.4byte	.LASF147
 4593 0832 05       		.sleb128 5
 4594 0833 14       		.uleb128 0x14
 4595 0834 500B0000 		.4byte	.LASF148
 4596 0838 06       		.sleb128 6
 4597 0839 00       		.byte	0
 4598 083a 02       		.uleb128 0x2
 4599 083b 92100000 		.4byte	.LASF149
 4600 083f 0C       		.byte	0xc
 4601 0840 80       		.byte	0x80
 4602 0841 07080000 		.4byte	0x807
 4603 0845 05       		.uleb128 0x5
 4604 0846 050B0000 		.4byte	.LASF150
 4605 084a 64       		.byte	0x64
 4606 084b 0C       		.byte	0xc
 4607 084c 85       		.byte	0x85
 4608 084d 12090000 		.4byte	0x912
 4609 0851 06       		.uleb128 0x6
 4610 0852 73100000 		.4byte	.LASF118
 4611 0856 0C       		.byte	0xc
 4612 0857 87       		.byte	0x87
 4613 0858 12090000 		.4byte	0x912
 4614 085c 00       		.byte	0
 4615 085d 06       		.uleb128 0x6
 4616 085e AF060000 		.4byte	.LASF119
 4617 0862 0C       		.byte	0xc
 4618 0863 89       		.byte	0x89
 4619 0864 FC070000 		.4byte	0x7fc
 4620 0868 04       		.byte	0x4
 4621 0869 06       		.uleb128 0x6
 4622 086a 620D0000 		.4byte	.LASF151
 4623 086e 0C       		.byte	0xc
 4624 086f 8B       		.byte	0x8b
 4625 0870 51070000 		.4byte	0x751
 4626 0874 38       		.byte	0x38
 4627 0875 06       		.uleb128 0x6
 4628 0876 44090000 		.4byte	.LASF152
 4629 087a 0C       		.byte	0xc
 4630 087b 8D       		.byte	0x8d
 4631 087c C3000000 		.4byte	0xc3
 4632 0880 3C       		.byte	0x3c
 4633 0881 06       		.uleb128 0x6
 4634 0882 61130000 		.4byte	.LASF153
ARM GAS  /tmp/ccDGRO0L.s 			page 83


 4635 0886 0C       		.byte	0xc
 4636 0887 8F       		.byte	0x8f
 4637 0888 C3000000 		.4byte	0xc3
 4638 088c 3E       		.byte	0x3e
 4639 088d 06       		.uleb128 0x6
 4640 088e 6A050000 		.4byte	.LASF154
 4641 0892 0C       		.byte	0xc
 4642 0893 91       		.byte	0x91
 4643 0894 51070000 		.4byte	0x751
 4644 0898 40       		.byte	0x40
 4645 0899 06       		.uleb128 0x6
 4646 089a 250F0000 		.4byte	.LASF155
 4647 089e 0C       		.byte	0xc
 4648 089f 93       		.byte	0x93
 4649 08a0 C3000000 		.4byte	0xc3
 4650 08a4 44       		.byte	0x44
 4651 08a5 06       		.uleb128 0x6
 4652 08a6 70040000 		.4byte	.LASF156
 4653 08aa 0C       		.byte	0xc
 4654 08ab 95       		.byte	0x95
 4655 08ac C3000000 		.4byte	0xc3
 4656 08b0 46       		.byte	0x46
 4657 08b1 06       		.uleb128 0x6
 4658 08b2 A5120000 		.4byte	.LASF157
 4659 08b6 0C       		.byte	0xc
 4660 08b7 97       		.byte	0x97
 4661 08b8 D9000000 		.4byte	0xd9
 4662 08bc 48       		.byte	0x48
 4663 08bd 06       		.uleb128 0x6
 4664 08be ED010000 		.4byte	.LASF158
 4665 08c2 0C       		.byte	0xc
 4666 08c3 99       		.byte	0x99
 4667 08c4 29090000 		.4byte	0x929
 4668 08c8 4C       		.byte	0x4c
 4669 08c9 06       		.uleb128 0x6
 4670 08ca E0070000 		.4byte	.LASF159
 4671 08ce 0C       		.byte	0xc
 4672 08cf 9B       		.byte	0x9b
 4673 08d0 29090000 		.4byte	0x929
 4674 08d4 50       		.byte	0x50
 4675 08d5 06       		.uleb128 0x6
 4676 08d6 500E0000 		.4byte	.LASF160
 4677 08da 0C       		.byte	0xc
 4678 08db 9D       		.byte	0x9d
 4679 08dc 4B070000 		.4byte	0x74b
 4680 08e0 54       		.byte	0x54
 4681 08e1 06       		.uleb128 0x6
 4682 08e2 190B0000 		.4byte	.LASF161
 4683 08e6 0C       		.byte	0xc
 4684 08e7 9F       		.byte	0x9f
 4685 08e8 4B070000 		.4byte	0x74b
 4686 08ec 58       		.byte	0x58
 4687 08ed 06       		.uleb128 0x6
 4688 08ee EB000000 		.4byte	.LASF120
 4689 08f2 0C       		.byte	0xc
 4690 08f3 A1       		.byte	0xa1
 4691 08f4 D0050000 		.4byte	0x5d0
ARM GAS  /tmp/ccDGRO0L.s 			page 84


 4692 08f8 5C       		.byte	0x5c
 4693 08f9 06       		.uleb128 0x6
 4694 08fa 03030000 		.4byte	.LASF121
 4695 08fe 0C       		.byte	0xc
 4696 08ff A3       		.byte	0xa3
 4697 0900 2F090000 		.4byte	0x92f
 4698 0904 5D       		.byte	0x5d
 4699 0905 06       		.uleb128 0x6
 4700 0906 070D0000 		.4byte	.LASF127
 4701 090a 0C       		.byte	0xc
 4702 090b A5       		.byte	0xa5
 4703 090c 9C040000 		.4byte	0x49c
 4704 0910 60       		.byte	0x60
 4705 0911 00       		.byte	0
 4706 0912 09       		.uleb128 0x9
 4707 0913 04       		.byte	0x4
 4708 0914 9D050000 		.4byte	0x59d
 4709 0918 0B       		.uleb128 0xb
 4710 0919 23090000 		.4byte	0x923
 4711 091d 0C       		.uleb128 0xc
 4712 091e 23090000 		.4byte	0x923
 4713 0922 00       		.byte	0
 4714 0923 09       		.uleb128 0x9
 4715 0924 04       		.byte	0x4
 4716 0925 45080000 		.4byte	0x845
 4717 0929 09       		.uleb128 0x9
 4718 092a 04       		.byte	0x4
 4719 092b 18090000 		.4byte	0x918
 4720 092f 0F       		.uleb128 0xf
 4721 0930 3A080000 		.4byte	0x83a
 4722 0934 02       		.uleb128 0x2
 4723 0935 2E080000 		.4byte	.LASF162
 4724 0939 0C       		.byte	0xc
 4725 093a A7       		.byte	0xa7
 4726 093b 45080000 		.4byte	0x845
 4727 093f 02       		.uleb128 0x2
 4728 0940 97000000 		.4byte	.LASF163
 4729 0944 0D       		.byte	0xd
 4730 0945 65       		.byte	0x65
 4731 0946 5F030000 		.4byte	0x35f
 4732 094a 02       		.uleb128 0x2
 4733 094b 45160000 		.4byte	.LASF164
 4734 094f 0D       		.byte	0xd
 4735 0950 6D       		.byte	0x6d
 4736 0951 E4000000 		.4byte	0xe4
 4737 0955 05       		.uleb128 0x5
 4738 0956 FD0A0000 		.4byte	.LASF165
 4739 095a 04       		.byte	0x4
 4740 095b 0D       		.byte	0xd
 4741 095c 89       		.byte	0x89
 4742 095d 6E090000 		.4byte	0x96e
 4743 0961 16       		.uleb128 0x16
 4744 0962 72313300 		.ascii	"r13\000"
 4745 0966 0D       		.byte	0xd
 4746 0967 8A       		.byte	0x8a
 4747 0968 E9090000 		.4byte	0x9e9
 4748 096c 00       		.byte	0
ARM GAS  /tmp/ccDGRO0L.s 			page 85


 4749 096d 00       		.byte	0
 4750 096e 05       		.uleb128 0x5
 4751 096f 300F0000 		.4byte	.LASF166
 4752 0973 24       		.byte	0x24
 4753 0974 0E       		.byte	0xe
 4754 0975 FD       		.byte	0xfd
 4755 0976 E9090000 		.4byte	0x9e9
 4756 097a 07       		.uleb128 0x7
 4757 097b 723400   		.ascii	"r4\000"
 4758 097e 0E       		.byte	0xe
 4759 097f 1001     		.2byte	0x110
 4760 0981 3F090000 		.4byte	0x93f
 4761 0985 00       		.byte	0
 4762 0986 07       		.uleb128 0x7
 4763 0987 723500   		.ascii	"r5\000"
 4764 098a 0E       		.byte	0xe
 4765 098b 1101     		.2byte	0x111
 4766 098d 3F090000 		.4byte	0x93f
 4767 0991 04       		.byte	0x4
 4768 0992 07       		.uleb128 0x7
 4769 0993 723600   		.ascii	"r6\000"
 4770 0996 0E       		.byte	0xe
 4771 0997 1201     		.2byte	0x112
 4772 0999 3F090000 		.4byte	0x93f
 4773 099d 08       		.byte	0x8
 4774 099e 07       		.uleb128 0x7
 4775 099f 723700   		.ascii	"r7\000"
 4776 09a2 0E       		.byte	0xe
 4777 09a3 1301     		.2byte	0x113
 4778 09a5 3F090000 		.4byte	0x93f
 4779 09a9 0C       		.byte	0xc
 4780 09aa 07       		.uleb128 0x7
 4781 09ab 723800   		.ascii	"r8\000"
 4782 09ae 0E       		.byte	0xe
 4783 09af 1401     		.2byte	0x114
 4784 09b1 3F090000 		.4byte	0x93f
 4785 09b5 10       		.byte	0x10
 4786 09b6 07       		.uleb128 0x7
 4787 09b7 723900   		.ascii	"r9\000"
 4788 09ba 0E       		.byte	0xe
 4789 09bb 1501     		.2byte	0x115
 4790 09bd 3F090000 		.4byte	0x93f
 4791 09c1 14       		.byte	0x14
 4792 09c2 07       		.uleb128 0x7
 4793 09c3 72313000 		.ascii	"r10\000"
 4794 09c7 0E       		.byte	0xe
 4795 09c8 1601     		.2byte	0x116
 4796 09ca 3F090000 		.4byte	0x93f
 4797 09ce 18       		.byte	0x18
 4798 09cf 07       		.uleb128 0x7
 4799 09d0 72313100 		.ascii	"r11\000"
 4800 09d4 0E       		.byte	0xe
 4801 09d5 1701     		.2byte	0x117
 4802 09d7 3F090000 		.4byte	0x93f
 4803 09db 1C       		.byte	0x1c
 4804 09dc 07       		.uleb128 0x7
 4805 09dd 6C7200   		.ascii	"lr\000"
ARM GAS  /tmp/ccDGRO0L.s 			page 86


 4806 09e0 0E       		.byte	0xe
 4807 09e1 1801     		.2byte	0x118
 4808 09e3 3F090000 		.4byte	0x93f
 4809 09e7 20       		.byte	0x20
 4810 09e8 00       		.byte	0
 4811 09e9 09       		.uleb128 0x9
 4812 09ea 04       		.byte	0x4
 4813 09eb 6E090000 		.4byte	0x96e
 4814 09ef 15       		.uleb128 0x15
 4815 09f0 04       		.byte	0x4
 4816 09f1 0F       		.byte	0xf
 4817 09f2 38       		.byte	0x38
 4818 09f3 040A0000 		.4byte	0xa04
 4819 09f7 06       		.uleb128 0x6
 4820 09f8 75050000 		.4byte	.LASF167
 4821 09fc 0F       		.byte	0xf
 4822 09fd 3C       		.byte	0x3c
 4823 09fe 05010000 		.4byte	0x105
 4824 0a02 00       		.byte	0
 4825 0a03 00       		.byte	0
 4826 0a04 02       		.uleb128 0x2
 4827 0a05 9D040000 		.4byte	.LASF168
 4828 0a09 0F       		.byte	0xf
 4829 0a0a 3D       		.byte	0x3d
 4830 0a0b EF090000 		.4byte	0x9ef
 4831 0a0f 17       		.uleb128 0x17
 4832 0a10 04       		.byte	0x4
 4833 0a11 08       		.byte	0x8
 4834 0a12 FA       		.byte	0xfa
 4835 0a13 6C0A0000 		.4byte	0xa6c
 4836 0a17 18       		.uleb128 0x18
 4837 0a18 14010000 		.4byte	.LASF169
 4838 0a1c 08       		.byte	0x8
 4839 0a1d 0101     		.2byte	0x101
 4840 0a1f 47010000 		.4byte	0x147
 4841 0a23 18       		.uleb128 0x18
 4842 0a24 E4170000 		.4byte	.LASF170
 4843 0a28 08       		.byte	0x8
 4844 0a29 0801     		.2byte	0x108
 4845 0a2b 47010000 		.4byte	0x147
 4846 0a2f 18       		.uleb128 0x18
 4847 0a30 65020000 		.4byte	.LASF171
 4848 0a34 08       		.byte	0x8
 4849 0a35 0F01     		.2byte	0x10f
 4850 0a37 5F030000 		.4byte	0x35f
 4851 0a3b 18       		.uleb128 0x18
 4852 0a3c 99170000 		.4byte	.LASF172
 4853 0a40 08       		.byte	0x8
 4854 0a41 1601     		.2byte	0x116
 4855 0a43 6C0A0000 		.4byte	0xa6c
 4856 0a47 18       		.uleb128 0x18
 4857 0a48 A3130000 		.4byte	.LASF173
 4858 0a4c 08       		.byte	0x8
 4859 0a4d 1E01     		.2byte	0x11e
 4860 0a4f 970A0000 		.4byte	0xa97
 4861 0a53 18       		.uleb128 0x18
 4862 0a54 44000000 		.4byte	.LASF174
ARM GAS  /tmp/ccDGRO0L.s 			page 87


 4863 0a58 08       		.byte	0x8
 4864 0a59 2701     		.2byte	0x127
 4865 0a5b CE0A0000 		.4byte	0xace
 4866 0a5f 18       		.uleb128 0x18
 4867 0a60 09030000 		.4byte	.LASF175
 4868 0a64 08       		.byte	0x8
 4869 0a65 2F01     		.2byte	0x12f
 4870 0a67 52010000 		.4byte	0x152
 4871 0a6b 00       		.byte	0
 4872 0a6c 09       		.uleb128 0x9
 4873 0a6d 04       		.byte	0x4
 4874 0a6e 77020000 		.4byte	0x277
 4875 0a72 05       		.uleb128 0x5
 4876 0a73 0C050000 		.4byte	.LASF176
 4877 0a77 0C       		.byte	0xc
 4878 0a78 10       		.byte	0x10
 4879 0a79 34       		.byte	0x34
 4880 0a7a 970A0000 		.4byte	0xa97
 4881 0a7e 06       		.uleb128 0x6
 4882 0a7f 6F010000 		.4byte	.LASF177
 4883 0a83 10       		.byte	0x10
 4884 0a84 35       		.byte	0x35
 4885 0a85 AC020000 		.4byte	0x2ac
 4886 0a89 00       		.byte	0
 4887 0a8a 06       		.uleb128 0x6
 4888 0a8b 30040000 		.4byte	.LASF178
 4889 0a8f 10       		.byte	0x10
 4890 0a90 37       		.byte	0x37
 4891 0a91 5D010000 		.4byte	0x15d
 4892 0a95 08       		.byte	0x8
 4893 0a96 00       		.byte	0
 4894 0a97 09       		.uleb128 0x9
 4895 0a98 04       		.byte	0x4
 4896 0a99 720A0000 		.4byte	0xa72
 4897 0a9d 05       		.uleb128 0x5
 4898 0a9e 57070000 		.4byte	.LASF179
 4899 0aa2 10       		.byte	0x10
 4900 0aa3 11       		.byte	0x11
 4901 0aa4 39       		.byte	0x39
 4902 0aa5 CE0A0000 		.4byte	0xace
 4903 0aa9 06       		.uleb128 0x6
 4904 0aaa 140F0000 		.4byte	.LASF180
 4905 0aae 11       		.byte	0x11
 4906 0aaf 3A       		.byte	0x3a
 4907 0ab0 AC020000 		.4byte	0x2ac
 4908 0ab4 00       		.byte	0
 4909 0ab5 06       		.uleb128 0x6
 4910 0ab6 57100000 		.4byte	.LASF181
 4911 0aba 11       		.byte	0x11
 4912 0abb 3C       		.byte	0x3c
 4913 0abc 82020000 		.4byte	0x282
 4914 0ac0 08       		.byte	0x8
 4915 0ac1 06       		.uleb128 0x6
 4916 0ac2 EC150000 		.4byte	.LASF182
 4917 0ac6 11       		.byte	0x11
 4918 0ac7 3E       		.byte	0x3e
 4919 0ac8 FF0A0000 		.4byte	0xaff
ARM GAS  /tmp/ccDGRO0L.s 			page 88


 4920 0acc 0C       		.byte	0xc
 4921 0acd 00       		.byte	0
 4922 0ace 09       		.uleb128 0x9
 4923 0acf 04       		.byte	0x4
 4924 0ad0 9D0A0000 		.4byte	0xa9d
 4925 0ad4 09       		.uleb128 0x9
 4926 0ad5 04       		.byte	0x4
 4927 0ad6 61030000 		.4byte	0x361
 4928 0ada 0F       		.uleb128 0xf
 4929 0adb 68010000 		.4byte	0x168
 4930 0adf 0F       		.uleb128 0xf
 4931 0ae0 B0050000 		.4byte	0x5b0
 4932 0ae4 19       		.uleb128 0x19
 4933 0ae5 4A090000 		.4byte	0x94a
 4934 0ae9 F40A0000 		.4byte	0xaf4
 4935 0aed 1A       		.uleb128 0x1a
 4936 0aee 95040000 		.4byte	0x495
 4937 0af2 1A       		.byte	0x1a
 4938 0af3 00       		.byte	0
 4939 0af4 02       		.uleb128 0x2
 4940 0af5 E2130000 		.4byte	.LASF183
 4941 0af9 11       		.byte	0x11
 4942 0afa 34       		.byte	0x34
 4943 0afb 9D0A0000 		.4byte	0xa9d
 4944 0aff 09       		.uleb128 0x9
 4945 0b00 04       		.byte	0x4
 4946 0b01 F40A0000 		.4byte	0xaf4
 4947 0b05 09       		.uleb128 0x9
 4948 0b06 04       		.byte	0x4
 4949 0b07 0B0B0000 		.4byte	0xb0b
 4950 0b0b 12       		.uleb128 0x12
 4951 0b0c B8000000 		.4byte	0xb8
 4952 0b10 03       		.uleb128 0x3
 4953 0b11 01       		.byte	0x1
 4954 0b12 02       		.byte	0x2
 4955 0b13 1A070000 		.4byte	.LASF184
 4956 0b17 19       		.uleb128 0x19
 4957 0b18 B8000000 		.4byte	0xb8
 4958 0b1c 270B0000 		.4byte	0xb27
 4959 0b20 1A       		.uleb128 0x1a
 4960 0b21 95040000 		.4byte	0x495
 4961 0b25 0F       		.byte	0xf
 4962 0b26 00       		.byte	0
 4963 0b27 19       		.uleb128 0x19
 4964 0b28 B8000000 		.4byte	0xb8
 4965 0b2c 370B0000 		.4byte	0xb37
 4966 0b30 1A       		.uleb128 0x1a
 4967 0b31 95040000 		.4byte	0x495
 4968 0b35 07       		.byte	0x7
 4969 0b36 00       		.byte	0
 4970 0b37 02       		.uleb128 0x2
 4971 0b38 A20E0000 		.4byte	.LASF185
 4972 0b3c 12       		.byte	0x12
 4973 0b3d 3A       		.byte	0x3a
 4974 0b3e 420B0000 		.4byte	0xb42
 4975 0b42 19       		.uleb128 0x19
 4976 0b43 B8000000 		.4byte	0xb8
ARM GAS  /tmp/ccDGRO0L.s 			page 89


 4977 0b47 520B0000 		.4byte	0xb52
 4978 0b4b 1A       		.uleb128 0x1a
 4979 0b4c 95040000 		.4byte	0x495
 4980 0b50 05       		.byte	0x5
 4981 0b51 00       		.byte	0
 4982 0b52 05       		.uleb128 0x5
 4983 0b53 0F110000 		.4byte	.LASF186
 4984 0b57 08       		.byte	0x8
 4985 0b58 13       		.byte	0x13
 4986 0b59 12       		.byte	0x12
 4987 0b5a 770B0000 		.4byte	0xb77
 4988 0b5e 06       		.uleb128 0x6
 4989 0b5f A6010000 		.4byte	.LASF187
 4990 0b63 13       		.byte	0x13
 4991 0b64 13       		.byte	0x13
 4992 0b65 770B0000 		.4byte	0xb77
 4993 0b69 00       		.byte	0
 4994 0b6a 06       		.uleb128 0x6
 4995 0b6b 21030000 		.4byte	.LASF188
 4996 0b6f 13       		.byte	0x13
 4997 0b70 14       		.byte	0x14
 4998 0b71 770B0000 		.4byte	0xb77
 4999 0b75 04       		.byte	0x4
 5000 0b76 00       		.byte	0
 5001 0b77 09       		.uleb128 0x9
 5002 0b78 04       		.byte	0x4
 5003 0b79 520B0000 		.4byte	0xb52
 5004 0b7d 02       		.uleb128 0x2
 5005 0b7e B4070000 		.4byte	.LASF189
 5006 0b82 13       		.byte	0x13
 5007 0b83 15       		.byte	0x15
 5008 0b84 520B0000 		.4byte	0xb52
 5009 0b88 02       		.uleb128 0x2
 5010 0b89 54050000 		.4byte	.LASF190
 5011 0b8d 13       		.byte	0x13
 5012 0b8e 15       		.byte	0x15
 5013 0b8f 770B0000 		.4byte	0xb77
 5014 0b93 05       		.uleb128 0x5
 5015 0b94 0D0E0000 		.4byte	.LASF191
 5016 0b98 8C       		.byte	0x8c
 5017 0b99 14       		.byte	0x14
 5018 0b9a 29       		.byte	0x29
 5019 0b9b C40B0000 		.4byte	0xbc4
 5020 0b9f 06       		.uleb128 0x6
 5021 0ba0 2F100000 		.4byte	.LASF192
 5022 0ba4 14       		.byte	0x14
 5023 0ba5 2B       		.byte	0x2b
 5024 0ba6 7D0B0000 		.4byte	0xb7d
 5025 0baa 00       		.byte	0
 5026 0bab 06       		.uleb128 0x6
 5027 0bac D80B0000 		.4byte	.LASF193
 5028 0bb0 14       		.byte	0x14
 5029 0bb1 2C       		.byte	0x2c
 5030 0bb2 C40B0000 		.4byte	0xbc4
 5031 0bb6 08       		.byte	0x8
 5032 0bb7 06       		.uleb128 0x6
 5033 0bb8 470E0000 		.4byte	.LASF194
ARM GAS  /tmp/ccDGRO0L.s 			page 90


 5034 0bbc 14       		.byte	0x14
 5035 0bbd 2D       		.byte	0x2d
 5036 0bbe B8000000 		.4byte	0xb8
 5037 0bc2 88       		.byte	0x88
 5038 0bc3 00       		.byte	0
 5039 0bc4 19       		.uleb128 0x19
 5040 0bc5 B8000000 		.4byte	0xb8
 5041 0bc9 D40B0000 		.4byte	0xbd4
 5042 0bcd 1A       		.uleb128 0x1a
 5043 0bce 95040000 		.4byte	0x495
 5044 0bd2 7F       		.byte	0x7f
 5045 0bd3 00       		.byte	0
 5046 0bd4 02       		.uleb128 0x2
 5047 0bd5 740E0000 		.4byte	.LASF195
 5048 0bd9 14       		.byte	0x14
 5049 0bda 2E       		.byte	0x2e
 5050 0bdb 930B0000 		.4byte	0xb93
 5051 0bdf 05       		.uleb128 0x5
 5052 0be0 4B0D0000 		.4byte	.LASF196
 5053 0be4 01       		.byte	0x1
 5054 0be5 15       		.byte	0x15
 5055 0be6 23       		.byte	0x23
 5056 0be7 040C0000 		.4byte	0xc04
 5057 0beb 06       		.uleb128 0x6
 5058 0bec FA130000 		.4byte	.LASF197
 5059 0bf0 15       		.byte	0x15
 5060 0bf1 24       		.byte	0x24
 5061 0bf2 B8000000 		.4byte	0xb8
 5062 0bf6 00       		.byte	0
 5063 0bf7 06       		.uleb128 0x6
 5064 0bf8 D9080000 		.4byte	.LASF198
 5065 0bfc 15       		.byte	0x15
 5066 0bfd 25       		.byte	0x25
 5067 0bfe 040C0000 		.4byte	0xc04
 5068 0c02 01       		.byte	0x1
 5069 0c03 00       		.byte	0
 5070 0c04 19       		.uleb128 0x19
 5071 0c05 B8000000 		.4byte	0xb8
 5072 0c09 130C0000 		.4byte	0xc13
 5073 0c0d 1B       		.uleb128 0x1b
 5074 0c0e 95040000 		.4byte	0x495
 5075 0c12 00       		.byte	0
 5076 0c13 02       		.uleb128 0x2
 5077 0c14 6B070000 		.4byte	.LASF199
 5078 0c18 15       		.byte	0x15
 5079 0c19 26       		.byte	0x26
 5080 0c1a DF0B0000 		.4byte	0xbdf
 5081 0c1e 05       		.uleb128 0x5
 5082 0c1f 050A0000 		.4byte	.LASF200
 5083 0c23 03       		.byte	0x3
 5084 0c24 15       		.byte	0x15
 5085 0c25 29       		.byte	0x29
 5086 0c26 430C0000 		.4byte	0xc43
 5087 0c2a 06       		.uleb128 0x6
 5088 0c2b DE080000 		.4byte	.LASF201
 5089 0c2f 15       		.byte	0x15
 5090 0c30 2A       		.byte	0x2a
ARM GAS  /tmp/ccDGRO0L.s 			page 91


 5091 0c31 C3000000 		.4byte	0xc3
 5092 0c35 00       		.byte	0
 5093 0c36 06       		.uleb128 0x6
 5094 0c37 41120000 		.4byte	.LASF202
 5095 0c3b 15       		.byte	0x15
 5096 0c3c 2B       		.byte	0x2b
 5097 0c3d B8000000 		.4byte	0xb8
 5098 0c41 02       		.byte	0x2
 5099 0c42 00       		.byte	0
 5100 0c43 02       		.uleb128 0x2
 5101 0c44 0F150000 		.4byte	.LASF203
 5102 0c48 15       		.byte	0x15
 5103 0c49 2C       		.byte	0x2c
 5104 0c4a 1E0C0000 		.4byte	0xc1e
 5105 0c4e 05       		.uleb128 0x5
 5106 0c4f EA130000 		.4byte	.LASF204
 5107 0c53 02       		.byte	0x2
 5108 0c54 15       		.byte	0x15
 5109 0c55 2F       		.byte	0x2f
 5110 0c56 7F0C0000 		.4byte	0xc7f
 5111 0c5a 16       		.uleb128 0x16
 5112 0c5b 65767400 		.ascii	"evt\000"
 5113 0c5f 15       		.byte	0x15
 5114 0c60 30       		.byte	0x30
 5115 0c61 B8000000 		.4byte	0xb8
 5116 0c65 00       		.byte	0
 5117 0c66 06       		.uleb128 0x6
 5118 0c67 41120000 		.4byte	.LASF202
 5119 0c6b 15       		.byte	0x15
 5120 0c6c 31       		.byte	0x31
 5121 0c6d B8000000 		.4byte	0xb8
 5122 0c71 01       		.byte	0x1
 5123 0c72 06       		.uleb128 0x6
 5124 0c73 D9080000 		.4byte	.LASF198
 5125 0c77 15       		.byte	0x15
 5126 0c78 32       		.byte	0x32
 5127 0c79 040C0000 		.4byte	0xc04
 5128 0c7d 02       		.byte	0x2
 5129 0c7e 00       		.byte	0
 5130 0c7f 02       		.uleb128 0x2
 5131 0c80 24110000 		.4byte	.LASF205
 5132 0c84 15       		.byte	0x15
 5133 0c85 33       		.byte	0x33
 5134 0c86 4E0C0000 		.4byte	0xc4e
 5135 0c8a 05       		.uleb128 0x5
 5136 0c8b 1F080000 		.4byte	.LASF206
 5137 0c8f 03       		.byte	0x3
 5138 0c90 15       		.byte	0x15
 5139 0c91 40       		.byte	0x40
 5140 0c92 AF0C0000 		.4byte	0xcaf
 5141 0c96 06       		.uleb128 0x6
 5142 0c97 50160000 		.4byte	.LASF207
 5143 0c9b 15       		.byte	0x15
 5144 0c9c 41       		.byte	0x41
 5145 0c9d C3000000 		.4byte	0xc3
 5146 0ca1 00       		.byte	0
 5147 0ca2 06       		.uleb128 0x6
ARM GAS  /tmp/ccDGRO0L.s 			page 92


 5148 0ca3 7C050000 		.4byte	.LASF208
 5149 0ca7 15       		.byte	0x15
 5150 0ca8 42       		.byte	0x42
 5151 0ca9 B8000000 		.4byte	0xb8
 5152 0cad 02       		.byte	0x2
 5153 0cae 00       		.byte	0
 5154 0caf 02       		.uleb128 0x2
 5155 0cb0 61030000 		.4byte	.LASF209
 5156 0cb4 15       		.byte	0x15
 5157 0cb5 43       		.byte	0x43
 5158 0cb6 8A0C0000 		.4byte	0xc8a
 5159 0cba 05       		.uleb128 0x5
 5160 0cbb 43030000 		.4byte	.LASF210
 5161 0cbf 03       		.byte	0x3
 5162 0cc0 15       		.byte	0x15
 5163 0cc1 4D       		.byte	0x4d
 5164 0cc2 DF0C0000 		.4byte	0xcdf
 5165 0cc6 06       		.uleb128 0x6
 5166 0cc7 50160000 		.4byte	.LASF207
 5167 0ccb 15       		.byte	0x15
 5168 0ccc 4E       		.byte	0x4e
 5169 0ccd C3000000 		.4byte	0xc3
 5170 0cd1 00       		.byte	0
 5171 0cd2 06       		.uleb128 0x6
 5172 0cd3 FA130000 		.4byte	.LASF197
 5173 0cd7 15       		.byte	0x15
 5174 0cd8 4F       		.byte	0x4f
 5175 0cd9 B8000000 		.4byte	0xb8
 5176 0cdd 02       		.byte	0x2
 5177 0cde 00       		.byte	0
 5178 0cdf 02       		.uleb128 0x2
 5179 0ce0 B8100000 		.4byte	.LASF211
 5180 0ce4 15       		.byte	0x15
 5181 0ce5 50       		.byte	0x50
 5182 0ce6 BA0C0000 		.4byte	0xcba
 5183 0cea 05       		.uleb128 0x5
 5184 0ceb D3020000 		.4byte	.LASF212
 5185 0cef 04       		.byte	0x4
 5186 0cf0 15       		.byte	0x15
 5187 0cf1 52       		.byte	0x52
 5188 0cf2 1B0D0000 		.4byte	0xd1b
 5189 0cf6 06       		.uleb128 0x6
 5190 0cf7 57090000 		.4byte	.LASF213
 5191 0cfb 15       		.byte	0x15
 5192 0cfc 53       		.byte	0x53
 5193 0cfd B8000000 		.4byte	0xb8
 5194 0d01 00       		.byte	0
 5195 0d02 06       		.uleb128 0x6
 5196 0d03 50160000 		.4byte	.LASF207
 5197 0d07 15       		.byte	0x15
 5198 0d08 54       		.byte	0x54
 5199 0d09 C3000000 		.4byte	0xc3
 5200 0d0d 01       		.byte	0x1
 5201 0d0e 06       		.uleb128 0x6
 5202 0d0f 1F150000 		.4byte	.LASF214
 5203 0d13 15       		.byte	0x15
 5204 0d14 55       		.byte	0x55
ARM GAS  /tmp/ccDGRO0L.s 			page 93


 5205 0d15 AD000000 		.4byte	0xad
 5206 0d19 03       		.byte	0x3
 5207 0d1a 00       		.byte	0
 5208 0d1b 02       		.uleb128 0x2
 5209 0d1c 88120000 		.4byte	.LASF215
 5210 0d20 15       		.byte	0x15
 5211 0d21 56       		.byte	0x56
 5212 0d22 EA0C0000 		.4byte	0xcea
 5213 0d26 05       		.uleb128 0x5
 5214 0d27 40070000 		.4byte	.LASF216
 5215 0d2b 09       		.byte	0x9
 5216 0d2c 15       		.byte	0x15
 5217 0d2d 61       		.byte	0x61
 5218 0d2e 7B0D0000 		.4byte	0xd7b
 5219 0d32 06       		.uleb128 0x6
 5220 0d33 57090000 		.4byte	.LASF213
 5221 0d37 15       		.byte	0x15
 5222 0d38 62       		.byte	0x62
 5223 0d39 B8000000 		.4byte	0xb8
 5224 0d3d 00       		.byte	0
 5225 0d3e 06       		.uleb128 0x6
 5226 0d3f B80B0000 		.4byte	.LASF217
 5227 0d43 15       		.byte	0x15
 5228 0d44 63       		.byte	0x63
 5229 0d45 B8000000 		.4byte	0xb8
 5230 0d49 01       		.byte	0x1
 5231 0d4a 06       		.uleb128 0x6
 5232 0d4b 690C0000 		.4byte	.LASF218
 5233 0d4f 15       		.byte	0x15
 5234 0d50 64       		.byte	0x64
 5235 0d51 C3000000 		.4byte	0xc3
 5236 0d55 02       		.byte	0x2
 5237 0d56 06       		.uleb128 0x6
 5238 0d57 1B010000 		.4byte	.LASF219
 5239 0d5b 15       		.byte	0x15
 5240 0d5c 65       		.byte	0x65
 5241 0d5d B8000000 		.4byte	0xb8
 5242 0d61 04       		.byte	0x4
 5243 0d62 06       		.uleb128 0x6
 5244 0d63 EB100000 		.4byte	.LASF220
 5245 0d67 15       		.byte	0x15
 5246 0d68 66       		.byte	0x66
 5247 0d69 C3000000 		.4byte	0xc3
 5248 0d6d 05       		.byte	0x5
 5249 0d6e 06       		.uleb128 0x6
 5250 0d6f 3D0B0000 		.4byte	.LASF221
 5251 0d73 15       		.byte	0x15
 5252 0d74 67       		.byte	0x67
 5253 0d75 C3000000 		.4byte	0xc3
 5254 0d79 07       		.byte	0x7
 5255 0d7a 00       		.byte	0
 5256 0d7b 02       		.uleb128 0x2
 5257 0d7c E90E0000 		.4byte	.LASF222
 5258 0d80 15       		.byte	0x15
 5259 0d81 68       		.byte	0x68
 5260 0d82 260D0000 		.4byte	0xd26
 5261 0d86 05       		.uleb128 0x5
ARM GAS  /tmp/ccDGRO0L.s 			page 94


 5262 0d87 1B160000 		.4byte	.LASF223
 5263 0d8b 07       		.byte	0x7
 5264 0d8c 15       		.byte	0x15
 5265 0d8d 6F       		.byte	0x6f
 5266 0d8e AB0D0000 		.4byte	0xdab
 5267 0d92 06       		.uleb128 0x6
 5268 0d93 57090000 		.4byte	.LASF213
 5269 0d97 15       		.byte	0x15
 5270 0d98 70       		.byte	0x70
 5271 0d99 B8000000 		.4byte	0xb8
 5272 0d9d 00       		.byte	0
 5273 0d9e 06       		.uleb128 0x6
 5274 0d9f 63050000 		.4byte	.LASF224
 5275 0da3 15       		.byte	0x15
 5276 0da4 71       		.byte	0x71
 5277 0da5 370B0000 		.4byte	0xb37
 5278 0da9 01       		.byte	0x1
 5279 0daa 00       		.byte	0
 5280 0dab 02       		.uleb128 0x2
 5281 0dac 96010000 		.4byte	.LASF225
 5282 0db0 15       		.byte	0x15
 5283 0db1 72       		.byte	0x72
 5284 0db2 860D0000 		.4byte	0xd86
 5285 0db6 05       		.uleb128 0x5
 5286 0db7 4B180000 		.4byte	.LASF226
 5287 0dbb 02       		.byte	0x2
 5288 0dbc 15       		.byte	0x15
 5289 0dbd 79       		.byte	0x79
 5290 0dbe CF0D0000 		.4byte	0xdcf
 5291 0dc2 06       		.uleb128 0x6
 5292 0dc3 50160000 		.4byte	.LASF207
 5293 0dc7 15       		.byte	0x15
 5294 0dc8 7A       		.byte	0x7a
 5295 0dc9 C3000000 		.4byte	0xc3
 5296 0dcd 00       		.byte	0
 5297 0dce 00       		.byte	0
 5298 0dcf 02       		.uleb128 0x2
 5299 0dd0 200B0000 		.4byte	.LASF227
 5300 0dd4 15       		.byte	0x15
 5301 0dd5 7B       		.byte	0x7b
 5302 0dd6 B60D0000 		.4byte	0xdb6
 5303 0dda 05       		.uleb128 0x5
 5304 0ddb ED170000 		.4byte	.LASF228
 5305 0ddf 04       		.byte	0x4
 5306 0de0 15       		.byte	0x15
 5307 0de1 7D       		.byte	0x7d
 5308 0de2 0B0E0000 		.4byte	0xe0b
 5309 0de6 06       		.uleb128 0x6
 5310 0de7 57090000 		.4byte	.LASF213
 5311 0deb 15       		.byte	0x15
 5312 0dec 7E       		.byte	0x7e
 5313 0ded B8000000 		.4byte	0xb8
 5314 0df1 00       		.byte	0
 5315 0df2 06       		.uleb128 0x6
 5316 0df3 50160000 		.4byte	.LASF207
 5317 0df7 15       		.byte	0x15
 5318 0df8 7F       		.byte	0x7f
ARM GAS  /tmp/ccDGRO0L.s 			page 95


 5319 0df9 C3000000 		.4byte	0xc3
 5320 0dfd 01       		.byte	0x1
 5321 0dfe 06       		.uleb128 0x6
 5322 0dff C20C0000 		.4byte	.LASF229
 5323 0e03 15       		.byte	0x15
 5324 0e04 80       		.byte	0x80
 5325 0e05 AD000000 		.4byte	0xad
 5326 0e09 03       		.byte	0x3
 5327 0e0a 00       		.byte	0
 5328 0e0b 02       		.uleb128 0x2
 5329 0e0c 6D150000 		.4byte	.LASF230
 5330 0e10 15       		.byte	0x15
 5331 0e11 81       		.byte	0x81
 5332 0e12 DA0D0000 		.4byte	0xdda
 5333 0e16 05       		.uleb128 0x5
 5334 0e17 69140000 		.4byte	.LASF231
 5335 0e1b 04       		.byte	0x4
 5336 0e1c 15       		.byte	0x15
 5337 0e1d 8F       		.byte	0x8f
 5338 0e1e 470E0000 		.4byte	0xe47
 5339 0e22 06       		.uleb128 0x6
 5340 0e23 57090000 		.4byte	.LASF213
 5341 0e27 15       		.byte	0x15
 5342 0e28 90       		.byte	0x90
 5343 0e29 B8000000 		.4byte	0xb8
 5344 0e2d 00       		.byte	0
 5345 0e2e 06       		.uleb128 0x6
 5346 0e2f D5100000 		.4byte	.LASF232
 5347 0e33 15       		.byte	0x15
 5348 0e34 91       		.byte	0x91
 5349 0e35 C3000000 		.4byte	0xc3
 5350 0e39 01       		.byte	0x1
 5351 0e3a 06       		.uleb128 0x6
 5352 0e3b 220C0000 		.4byte	.LASF233
 5353 0e3f 15       		.byte	0x15
 5354 0e40 92       		.byte	0x92
 5355 0e41 B8000000 		.4byte	0xb8
 5356 0e45 03       		.byte	0x3
 5357 0e46 00       		.byte	0
 5358 0e47 02       		.uleb128 0x2
 5359 0e48 F8140000 		.4byte	.LASF234
 5360 0e4c 15       		.byte	0x15
 5361 0e4d 93       		.byte	0x93
 5362 0e4e 160E0000 		.4byte	0xe16
 5363 0e52 05       		.uleb128 0x5
 5364 0e53 260D0000 		.4byte	.LASF235
 5365 0e57 09       		.byte	0x9
 5366 0e58 15       		.byte	0x15
 5367 0e59 97       		.byte	0x97
 5368 0e5a 770E0000 		.4byte	0xe77
 5369 0e5e 06       		.uleb128 0x6
 5370 0e5f 57090000 		.4byte	.LASF213
 5371 0e63 15       		.byte	0x15
 5372 0e64 98       		.byte	0x98
 5373 0e65 B8000000 		.4byte	0xb8
 5374 0e69 00       		.byte	0
 5375 0e6a 06       		.uleb128 0x6
ARM GAS  /tmp/ccDGRO0L.s 			page 96


 5376 0e6b E6070000 		.4byte	.LASF236
 5377 0e6f 15       		.byte	0x15
 5378 0e70 99       		.byte	0x99
 5379 0e71 270B0000 		.4byte	0xb27
 5380 0e75 01       		.byte	0x1
 5381 0e76 00       		.byte	0
 5382 0e77 02       		.uleb128 0x2
 5383 0e78 F0000000 		.4byte	.LASF237
 5384 0e7c 15       		.byte	0x15
 5385 0e7d 9A       		.byte	0x9a
 5386 0e7e 520E0000 		.4byte	0xe52
 5387 0e82 05       		.uleb128 0x5
 5388 0e83 31060000 		.4byte	.LASF238
 5389 0e87 06       		.byte	0x6
 5390 0e88 15       		.byte	0x15
 5391 0e89 9E       		.byte	0x9e
 5392 0e8a 9B0E0000 		.4byte	0xe9b
 5393 0e8e 06       		.uleb128 0x6
 5394 0e8f 63050000 		.4byte	.LASF224
 5395 0e93 15       		.byte	0x15
 5396 0e94 9F       		.byte	0x9f
 5397 0e95 370B0000 		.4byte	0xb37
 5398 0e99 00       		.byte	0
 5399 0e9a 00       		.byte	0
 5400 0e9b 02       		.uleb128 0x2
 5401 0e9c F6070000 		.4byte	.LASF239
 5402 0ea0 15       		.byte	0x15
 5403 0ea1 A0       		.byte	0xa0
 5404 0ea2 820E0000 		.4byte	0xe82
 5405 0ea6 05       		.uleb128 0x5
 5406 0ea7 44170000 		.4byte	.LASF240
 5407 0eab 0F       		.byte	0xf
 5408 0eac 15       		.byte	0x15
 5409 0ead A4       		.byte	0xa4
 5410 0eae 130F0000 		.4byte	0xf13
 5411 0eb2 06       		.uleb128 0x6
 5412 0eb3 F3010000 		.4byte	.LASF241
 5413 0eb7 15       		.byte	0x15
 5414 0eb8 A5       		.byte	0xa5
 5415 0eb9 C3000000 		.4byte	0xc3
 5416 0ebd 00       		.byte	0
 5417 0ebe 06       		.uleb128 0x6
 5418 0ebf 7A130000 		.4byte	.LASF242
 5419 0ec3 15       		.byte	0x15
 5420 0ec4 A6       		.byte	0xa6
 5421 0ec5 C3000000 		.4byte	0xc3
 5422 0ec9 02       		.byte	0x2
 5423 0eca 06       		.uleb128 0x6
 5424 0ecb A7060000 		.4byte	.LASF243
 5425 0ecf 15       		.byte	0x15
 5426 0ed0 A7       		.byte	0xa7
 5427 0ed1 B8000000 		.4byte	0xb8
 5428 0ed5 04       		.byte	0x4
 5429 0ed6 06       		.uleb128 0x6
 5430 0ed7 6F000000 		.4byte	.LASF244
 5431 0edb 15       		.byte	0x15
 5432 0edc A8       		.byte	0xa8
ARM GAS  /tmp/ccDGRO0L.s 			page 97


 5433 0edd B8000000 		.4byte	0xb8
 5434 0ee1 05       		.byte	0x5
 5435 0ee2 06       		.uleb128 0x6
 5436 0ee3 C00D0000 		.4byte	.LASF245
 5437 0ee7 15       		.byte	0x15
 5438 0ee8 A9       		.byte	0xa9
 5439 0ee9 B8000000 		.4byte	0xb8
 5440 0eed 06       		.byte	0x6
 5441 0eee 06       		.uleb128 0x6
 5442 0eef 99020000 		.4byte	.LASF246
 5443 0ef3 15       		.byte	0x15
 5444 0ef4 AA       		.byte	0xaa
 5445 0ef5 370B0000 		.4byte	0xb37
 5446 0ef9 07       		.byte	0x7
 5447 0efa 06       		.uleb128 0x6
 5448 0efb CC060000 		.4byte	.LASF247
 5449 0eff 15       		.byte	0x15
 5450 0f00 AB       		.byte	0xab
 5451 0f01 B8000000 		.4byte	0xb8
 5452 0f05 0D       		.byte	0xd
 5453 0f06 06       		.uleb128 0x6
 5454 0f07 3B100000 		.4byte	.LASF248
 5455 0f0b 15       		.byte	0x15
 5456 0f0c AC       		.byte	0xac
 5457 0f0d B8000000 		.4byte	0xb8
 5458 0f11 0E       		.byte	0xe
 5459 0f12 00       		.byte	0
 5460 0f13 02       		.uleb128 0x2
 5461 0f14 54150000 		.4byte	.LASF249
 5462 0f18 15       		.byte	0x15
 5463 0f19 AD       		.byte	0xad
 5464 0f1a A60E0000 		.4byte	0xea6
 5465 0f1e 05       		.uleb128 0x5
 5466 0f1f 20120000 		.4byte	.LASF250
 5467 0f23 02       		.byte	0x2
 5468 0f24 15       		.byte	0x15
 5469 0f25 B1       		.byte	0xb1
 5470 0f26 430F0000 		.4byte	0xf43
 5471 0f2a 06       		.uleb128 0x6
 5472 0f2b 57090000 		.4byte	.LASF213
 5473 0f2f 15       		.byte	0x15
 5474 0f30 B2       		.byte	0xb2
 5475 0f31 B8000000 		.4byte	0xb8
 5476 0f35 00       		.byte	0
 5477 0f36 06       		.uleb128 0x6
 5478 0f37 1F150000 		.4byte	.LASF214
 5479 0f3b 15       		.byte	0x15
 5480 0f3c B3       		.byte	0xb3
 5481 0f3d AD000000 		.4byte	0xad
 5482 0f41 01       		.byte	0x1
 5483 0f42 00       		.byte	0
 5484 0f43 02       		.uleb128 0x2
 5485 0f44 BF0E0000 		.4byte	.LASF251
 5486 0f48 15       		.byte	0x15
 5487 0f49 B4       		.byte	0xb4
 5488 0f4a 1E0F0000 		.4byte	0xf1e
 5489 0f4e 05       		.uleb128 0x5
ARM GAS  /tmp/ccDGRO0L.s 			page 98


 5490 0f4f 9B080000 		.4byte	.LASF252
 5491 0f53 20       		.byte	0x20
 5492 0f54 15       		.byte	0x15
 5493 0f55 B8       		.byte	0xb8
 5494 0f56 730F0000 		.4byte	0xf73
 5495 0f5a 06       		.uleb128 0x6
 5496 0f5b 580F0000 		.4byte	.LASF253
 5497 0f5f 15       		.byte	0x15
 5498 0f60 B9       		.byte	0xb9
 5499 0f61 B8000000 		.4byte	0xb8
 5500 0f65 00       		.byte	0
 5501 0f66 06       		.uleb128 0x6
 5502 0f67 D9080000 		.4byte	.LASF198
 5503 0f6b 15       		.byte	0x15
 5504 0f6c BA       		.byte	0xba
 5505 0f6d 730F0000 		.4byte	0xf73
 5506 0f71 01       		.byte	0x1
 5507 0f72 00       		.byte	0
 5508 0f73 19       		.uleb128 0x19
 5509 0f74 B8000000 		.4byte	0xb8
 5510 0f78 830F0000 		.4byte	0xf83
 5511 0f7c 1A       		.uleb128 0x1a
 5512 0f7d 95040000 		.4byte	0x495
 5513 0f81 1E       		.byte	0x1e
 5514 0f82 00       		.byte	0
 5515 0f83 02       		.uleb128 0x2
 5516 0f84 17060000 		.4byte	.LASF254
 5517 0f88 15       		.byte	0x15
 5518 0f89 BB       		.byte	0xbb
 5519 0f8a 4E0F0000 		.4byte	0xf4e
 5520 0f8e 05       		.uleb128 0x5
 5521 0f8f 790A0000 		.4byte	.LASF255
 5522 0f93 20       		.byte	0x20
 5523 0f94 15       		.byte	0x15
 5524 0f95 BF       		.byte	0xbf
 5525 0f96 B30F0000 		.4byte	0xfb3
 5526 0f9a 06       		.uleb128 0x6
 5527 0f9b 580F0000 		.4byte	.LASF253
 5528 0f9f 15       		.byte	0x15
 5529 0fa0 C0       		.byte	0xc0
 5530 0fa1 B8000000 		.4byte	0xb8
 5531 0fa5 00       		.byte	0
 5532 0fa6 06       		.uleb128 0x6
 5533 0fa7 D9080000 		.4byte	.LASF198
 5534 0fab 15       		.byte	0x15
 5535 0fac C1       		.byte	0xc1
 5536 0fad 730F0000 		.4byte	0xf73
 5537 0fb1 01       		.byte	0x1
 5538 0fb2 00       		.byte	0
 5539 0fb3 02       		.uleb128 0x2
 5540 0fb4 A7020000 		.4byte	.LASF256
 5541 0fb8 15       		.byte	0x15
 5542 0fb9 C2       		.byte	0xc2
 5543 0fba 8E0F0000 		.4byte	0xf8e
 5544 0fbe 05       		.uleb128 0x5
 5545 0fbf CD030000 		.4byte	.LASF257
 5546 0fc3 01       		.byte	0x1
ARM GAS  /tmp/ccDGRO0L.s 			page 99


 5547 0fc4 15       		.byte	0x15
 5548 0fc5 C6       		.byte	0xc6
 5549 0fc6 D70F0000 		.4byte	0xfd7
 5550 0fca 06       		.uleb128 0x6
 5551 0fcb 10060000 		.4byte	.LASF258
 5552 0fcf 15       		.byte	0x15
 5553 0fd0 C7       		.byte	0xc7
 5554 0fd1 B8000000 		.4byte	0xb8
 5555 0fd5 00       		.byte	0
 5556 0fd6 00       		.byte	0
 5557 0fd7 02       		.uleb128 0x2
 5558 0fd8 CE120000 		.4byte	.LASF259
 5559 0fdc 15       		.byte	0x15
 5560 0fdd C8       		.byte	0xc8
 5561 0fde BE0F0000 		.4byte	0xfbe
 5562 0fe2 05       		.uleb128 0x5
 5563 0fe3 5C160000 		.4byte	.LASF260
 5564 0fe7 07       		.byte	0x7
 5565 0fe8 15       		.byte	0x15
 5566 0fe9 CC       		.byte	0xcc
 5567 0fea 2B100000 		.4byte	0x102b
 5568 0fee 06       		.uleb128 0x6
 5569 0fef FA130000 		.4byte	.LASF197
 5570 0ff3 15       		.byte	0x15
 5571 0ff4 CD       		.byte	0xcd
 5572 0ff5 B8000000 		.4byte	0xb8
 5573 0ff9 00       		.byte	0
 5574 0ffa 06       		.uleb128 0x6
 5575 0ffb 3B000000 		.4byte	.LASF261
 5576 0fff 15       		.byte	0x15
 5577 1000 CE       		.byte	0xce
 5578 1001 C3000000 		.4byte	0xc3
 5579 1005 01       		.byte	0x1
 5580 1006 06       		.uleb128 0x6
 5581 1007 CE0A0000 		.4byte	.LASF262
 5582 100b 15       		.byte	0x15
 5583 100c CF       		.byte	0xcf
 5584 100d C3000000 		.4byte	0xc3
 5585 1011 03       		.byte	0x3
 5586 1012 06       		.uleb128 0x6
 5587 1013 6F000000 		.4byte	.LASF244
 5588 1017 15       		.byte	0x15
 5589 1018 D0       		.byte	0xd0
 5590 1019 B8000000 		.4byte	0xb8
 5591 101d 05       		.byte	0x5
 5592 101e 06       		.uleb128 0x6
 5593 101f 3B100000 		.4byte	.LASF248
 5594 1023 15       		.byte	0x15
 5595 1024 D1       		.byte	0xd1
 5596 1025 B8000000 		.4byte	0xb8
 5597 1029 06       		.byte	0x6
 5598 102a 00       		.byte	0
 5599 102b 02       		.uleb128 0x2
 5600 102c B8130000 		.4byte	.LASF263
 5601 1030 15       		.byte	0x15
 5602 1031 D2       		.byte	0xd2
 5603 1032 E20F0000 		.4byte	0xfe2
ARM GAS  /tmp/ccDGRO0L.s 			page 100


 5604 1036 05       		.uleb128 0x5
 5605 1037 F00C0000 		.4byte	.LASF264
 5606 103b 02       		.byte	0x2
 5607 103c 15       		.byte	0x15
 5608 103d D6       		.byte	0xd6
 5609 103e 5B100000 		.4byte	0x105b
 5610 1042 06       		.uleb128 0x6
 5611 1043 10060000 		.4byte	.LASF258
 5612 1047 15       		.byte	0x15
 5613 1048 D7       		.byte	0xd7
 5614 1049 B8000000 		.4byte	0xb8
 5615 104d 00       		.byte	0
 5616 104e 06       		.uleb128 0x6
 5617 104f A5150000 		.4byte	.LASF265
 5618 1053 15       		.byte	0x15
 5619 1054 D8       		.byte	0xd8
 5620 1055 B8000000 		.4byte	0xb8
 5621 1059 01       		.byte	0x1
 5622 105a 00       		.byte	0
 5623 105b 02       		.uleb128 0x2
 5624 105c 80090000 		.4byte	.LASF266
 5625 1060 15       		.byte	0x15
 5626 1061 D9       		.byte	0xd9
 5627 1062 36100000 		.4byte	0x1036
 5628 1066 05       		.uleb128 0x5
 5629 1067 70060000 		.4byte	.LASF267
 5630 106b 19       		.byte	0x19
 5631 106c 15       		.byte	0x15
 5632 106d DD       		.byte	0xdd
 5633 106e 03110000 		.4byte	0x1103
 5634 1072 06       		.uleb128 0x6
 5635 1073 3B000000 		.4byte	.LASF261
 5636 1077 15       		.byte	0x15
 5637 1078 DE       		.byte	0xde
 5638 1079 C3000000 		.4byte	0xc3
 5639 107d 00       		.byte	0
 5640 107e 06       		.uleb128 0x6
 5641 107f CE0A0000 		.4byte	.LASF262
 5642 1083 15       		.byte	0x15
 5643 1084 DF       		.byte	0xdf
 5644 1085 C3000000 		.4byte	0xc3
 5645 1089 02       		.byte	0x2
 5646 108a 06       		.uleb128 0x6
 5647 108b 760C0000 		.4byte	.LASF268
 5648 108f 15       		.byte	0x15
 5649 1090 E0       		.byte	0xe0
 5650 1091 B8000000 		.4byte	0xb8
 5651 1095 04       		.byte	0x4
 5652 1096 06       		.uleb128 0x6
 5653 1097 E10B0000 		.4byte	.LASF269
 5654 109b 15       		.byte	0x15
 5655 109c E1       		.byte	0xe1
 5656 109d B8000000 		.4byte	0xb8
 5657 10a1 05       		.byte	0x5
 5658 10a2 06       		.uleb128 0x6
 5659 10a3 FF130000 		.4byte	.LASF270
 5660 10a7 15       		.byte	0x15
ARM GAS  /tmp/ccDGRO0L.s 			page 101


 5661 10a8 E2       		.byte	0xe2
 5662 10a9 370B0000 		.4byte	0xb37
 5663 10ad 06       		.byte	0x6
 5664 10ae 06       		.uleb128 0x6
 5665 10af 6F000000 		.4byte	.LASF244
 5666 10b3 15       		.byte	0x15
 5667 10b4 E3       		.byte	0xe3
 5668 10b5 B8000000 		.4byte	0xb8
 5669 10b9 0C       		.byte	0xc
 5670 10ba 06       		.uleb128 0x6
 5671 10bb F3010000 		.4byte	.LASF241
 5672 10bf 15       		.byte	0x15
 5673 10c0 E4       		.byte	0xe4
 5674 10c1 C3000000 		.4byte	0xc3
 5675 10c5 0D       		.byte	0xd
 5676 10c6 06       		.uleb128 0x6
 5677 10c7 7A130000 		.4byte	.LASF242
 5678 10cb 15       		.byte	0x15
 5679 10cc E5       		.byte	0xe5
 5680 10cd C3000000 		.4byte	0xc3
 5681 10d1 0F       		.byte	0xf
 5682 10d2 06       		.uleb128 0x6
 5683 10d3 350B0000 		.4byte	.LASF271
 5684 10d7 15       		.byte	0x15
 5685 10d8 E6       		.byte	0xe6
 5686 10d9 C3000000 		.4byte	0xc3
 5687 10dd 11       		.byte	0x11
 5688 10de 06       		.uleb128 0x6
 5689 10df 5F100000 		.4byte	.LASF272
 5690 10e3 15       		.byte	0x15
 5691 10e4 E7       		.byte	0xe7
 5692 10e5 C3000000 		.4byte	0xc3
 5693 10e9 13       		.byte	0x13
 5694 10ea 06       		.uleb128 0x6
 5695 10eb AA130000 		.4byte	.LASF273
 5696 10ef 15       		.byte	0x15
 5697 10f0 E8       		.byte	0xe8
 5698 10f1 C3000000 		.4byte	0xc3
 5699 10f5 15       		.byte	0x15
 5700 10f6 06       		.uleb128 0x6
 5701 10f7 640B0000 		.4byte	.LASF274
 5702 10fb 15       		.byte	0x15
 5703 10fc E9       		.byte	0xe9
 5704 10fd C3000000 		.4byte	0xc3
 5705 1101 17       		.byte	0x17
 5706 1102 00       		.byte	0
 5707 1103 02       		.uleb128 0x2
 5708 1104 7D080000 		.4byte	.LASF275
 5709 1108 15       		.byte	0x15
 5710 1109 EA       		.byte	0xea
 5711 110a 66100000 		.4byte	0x1066
 5712 110e 05       		.uleb128 0x5
 5713 110f F3150000 		.4byte	.LASF276
 5714 1113 02       		.byte	0x2
 5715 1114 15       		.byte	0x15
 5716 1115 F0       		.byte	0xf0
 5717 1116 33110000 		.4byte	0x1133
ARM GAS  /tmp/ccDGRO0L.s 			page 102


 5718 111a 06       		.uleb128 0x6
 5719 111b 57090000 		.4byte	.LASF213
 5720 111f 15       		.byte	0x15
 5721 1120 F1       		.byte	0xf1
 5722 1121 B8000000 		.4byte	0xb8
 5723 1125 00       		.byte	0
 5724 1126 06       		.uleb128 0x6
 5725 1127 550C0000 		.4byte	.LASF277
 5726 112b 15       		.byte	0x15
 5727 112c F2       		.byte	0xf2
 5728 112d B8000000 		.4byte	0xb8
 5729 1131 01       		.byte	0x1
 5730 1132 00       		.byte	0
 5731 1133 02       		.uleb128 0x2
 5732 1134 A00C0000 		.4byte	.LASF278
 5733 1138 15       		.byte	0x15
 5734 1139 F3       		.byte	0xf3
 5735 113a 0E110000 		.4byte	0x110e
 5736 113e 05       		.uleb128 0x5
 5737 113f CC150000 		.4byte	.LASF279
 5738 1143 07       		.byte	0x7
 5739 1144 15       		.byte	0x15
 5740 1145 F9       		.byte	0xf9
 5741 1146 63110000 		.4byte	0x1163
 5742 114a 06       		.uleb128 0x6
 5743 114b 48150000 		.4byte	.LASF280
 5744 114f 15       		.byte	0x15
 5745 1150 FA       		.byte	0xfa
 5746 1151 B8000000 		.4byte	0xb8
 5747 1155 00       		.byte	0
 5748 1156 06       		.uleb128 0x6
 5749 1157 63050000 		.4byte	.LASF224
 5750 115b 15       		.byte	0x15
 5751 115c FB       		.byte	0xfb
 5752 115d 370B0000 		.4byte	0xb37
 5753 1161 01       		.byte	0x1
 5754 1162 00       		.byte	0
 5755 1163 02       		.uleb128 0x2
 5756 1164 2D140000 		.4byte	.LASF281
 5757 1168 15       		.byte	0x15
 5758 1169 FC       		.byte	0xfc
 5759 116a 3E110000 		.4byte	0x113e
 5760 116e 0A       		.uleb128 0xa
 5761 116f 96090000 		.4byte	.LASF282
 5762 1173 07       		.byte	0x7
 5763 1174 15       		.byte	0x15
 5764 1175 0001     		.2byte	0x100
 5765 1177 96110000 		.4byte	0x1196
 5766 117b 08       		.uleb128 0x8
 5767 117c 48150000 		.4byte	.LASF280
 5768 1180 15       		.byte	0x15
 5769 1181 0101     		.2byte	0x101
 5770 1183 B8000000 		.4byte	0xb8
 5771 1187 00       		.byte	0
 5772 1188 08       		.uleb128 0x8
 5773 1189 63050000 		.4byte	.LASF224
 5774 118d 15       		.byte	0x15
ARM GAS  /tmp/ccDGRO0L.s 			page 103


 5775 118e 0201     		.2byte	0x102
 5776 1190 370B0000 		.4byte	0xb37
 5777 1194 01       		.byte	0x1
 5778 1195 00       		.byte	0
 5779 1196 11       		.uleb128 0x11
 5780 1197 4B000000 		.4byte	.LASF283
 5781 119b 15       		.byte	0x15
 5782 119c 0301     		.2byte	0x103
 5783 119e 6E110000 		.4byte	0x116e
 5784 11a2 19       		.uleb128 0x19
 5785 11a3 B8000000 		.4byte	0xb8
 5786 11a7 B2110000 		.4byte	0x11b2
 5787 11ab 1A       		.uleb128 0x1a
 5788 11ac 95040000 		.4byte	0x495
 5789 11b0 04       		.byte	0x4
 5790 11b1 00       		.byte	0
 5791 11b2 0A       		.uleb128 0xa
 5792 11b3 3C130000 		.4byte	.LASF284
 5793 11b7 02       		.byte	0x2
 5794 11b8 15       		.byte	0x15
 5795 11b9 1901     		.2byte	0x119
 5796 11bb CD110000 		.4byte	0x11cd
 5797 11bf 08       		.uleb128 0x8
 5798 11c0 50160000 		.4byte	.LASF207
 5799 11c4 15       		.byte	0x15
 5800 11c5 1A01     		.2byte	0x11a
 5801 11c7 C3000000 		.4byte	0xc3
 5802 11cb 00       		.byte	0
 5803 11cc 00       		.byte	0
 5804 11cd 11       		.uleb128 0x11
 5805 11ce 36040000 		.4byte	.LASF285
 5806 11d2 15       		.byte	0x15
 5807 11d3 1B01     		.2byte	0x11b
 5808 11d5 B2110000 		.4byte	0x11b2
 5809 11d9 0A       		.uleb128 0xa
 5810 11da E9120000 		.4byte	.LASF286
 5811 11de 08       		.byte	0x8
 5812 11df 15       		.byte	0x15
 5813 11e0 1E01     		.2byte	0x11e
 5814 11e2 0E120000 		.4byte	0x120e
 5815 11e6 08       		.uleb128 0x8
 5816 11e7 57090000 		.4byte	.LASF213
 5817 11eb 15       		.byte	0x15
 5818 11ec 1F01     		.2byte	0x11f
 5819 11ee B8000000 		.4byte	0xb8
 5820 11f2 00       		.byte	0
 5821 11f3 08       		.uleb128 0x8
 5822 11f4 50160000 		.4byte	.LASF207
 5823 11f8 15       		.byte	0x15
 5824 11f9 2001     		.2byte	0x120
 5825 11fb C3000000 		.4byte	0xc3
 5826 11ff 01       		.byte	0x1
 5827 1200 07       		.uleb128 0x7
 5828 1201 6D617000 		.ascii	"map\000"
 5829 1205 15       		.byte	0x15
 5830 1206 2101     		.2byte	0x121
 5831 1208 A2110000 		.4byte	0x11a2
ARM GAS  /tmp/ccDGRO0L.s 			page 104


 5832 120c 03       		.byte	0x3
 5833 120d 00       		.byte	0
 5834 120e 11       		.uleb128 0x11
 5835 120f 5F0F0000 		.4byte	.LASF287
 5836 1213 15       		.byte	0x15
 5837 1214 2201     		.2byte	0x122
 5838 1216 D9110000 		.4byte	0x11d9
 5839 121a 0A       		.uleb128 0xa
 5840 121b 71090000 		.4byte	.LASF288
 5841 121f 20       		.byte	0x20
 5842 1220 15       		.byte	0x15
 5843 1221 2C01     		.2byte	0x12c
 5844 1223 42120000 		.4byte	0x1242
 5845 1227 07       		.uleb128 0x7
 5846 1228 6B657900 		.ascii	"key\000"
 5847 122c 15       		.byte	0x15
 5848 122d 2D01     		.2byte	0x12d
 5849 122f 170B0000 		.4byte	0xb17
 5850 1233 00       		.byte	0
 5851 1234 08       		.uleb128 0x8
 5852 1235 3C0C0000 		.4byte	.LASF289
 5853 1239 15       		.byte	0x15
 5854 123a 2E01     		.2byte	0x12e
 5855 123c 170B0000 		.4byte	0xb17
 5856 1240 10       		.byte	0x10
 5857 1241 00       		.byte	0
 5858 1242 11       		.uleb128 0x11
 5859 1243 57020000 		.4byte	.LASF290
 5860 1247 15       		.byte	0x15
 5861 1248 2F01     		.2byte	0x12f
 5862 124a 1A120000 		.4byte	0x121a
 5863 124e 0A       		.uleb128 0xa
 5864 124f 12090000 		.4byte	.LASF291
 5865 1253 11       		.byte	0x11
 5866 1254 15       		.byte	0x15
 5867 1255 3201     		.2byte	0x132
 5868 1257 76120000 		.4byte	0x1276
 5869 125b 08       		.uleb128 0x8
 5870 125c 57090000 		.4byte	.LASF213
 5871 1260 15       		.byte	0x15
 5872 1261 3301     		.2byte	0x133
 5873 1263 B8000000 		.4byte	0xb8
 5874 1267 00       		.byte	0
 5875 1268 08       		.uleb128 0x8
 5876 1269 07110000 		.4byte	.LASF292
 5877 126d 15       		.byte	0x15
 5878 126e 3401     		.2byte	0x134
 5879 1270 170B0000 		.4byte	0xb17
 5880 1274 01       		.byte	0x1
 5881 1275 00       		.byte	0
 5882 1276 11       		.uleb128 0x11
 5883 1277 25020000 		.4byte	.LASF293
 5884 127b 15       		.byte	0x15
 5885 127c 3501     		.2byte	0x135
 5886 127e 4E120000 		.4byte	0x124e
 5887 1282 0A       		.uleb128 0xa
 5888 1283 40080000 		.4byte	.LASF294
ARM GAS  /tmp/ccDGRO0L.s 			page 105


 5889 1287 09       		.byte	0x9
 5890 1288 15       		.byte	0x15
 5891 1289 3901     		.2byte	0x139
 5892 128b AA120000 		.4byte	0x12aa
 5893 128f 08       		.uleb128 0x8
 5894 1290 57090000 		.4byte	.LASF213
 5895 1294 15       		.byte	0x15
 5896 1295 3A01     		.2byte	0x13a
 5897 1297 B8000000 		.4byte	0xb8
 5898 129b 00       		.byte	0
 5899 129c 08       		.uleb128 0x8
 5900 129d 26030000 		.4byte	.LASF295
 5901 12a1 15       		.byte	0x15
 5902 12a2 3B01     		.2byte	0x13b
 5903 12a4 270B0000 		.4byte	0xb27
 5904 12a8 01       		.byte	0x1
 5905 12a9 00       		.byte	0
 5906 12aa 11       		.uleb128 0x11
 5907 12ab 2A050000 		.4byte	.LASF296
 5908 12af 15       		.byte	0x15
 5909 12b0 3C01     		.2byte	0x13c
 5910 12b2 82120000 		.4byte	0x1282
 5911 12b6 0A       		.uleb128 0xa
 5912 12b7 01130000 		.4byte	.LASF297
 5913 12bb 12       		.byte	0x12
 5914 12bc 15       		.byte	0x15
 5915 12bd 4901     		.2byte	0x149
 5916 12bf DE120000 		.4byte	0x12de
 5917 12c3 08       		.uleb128 0x8
 5918 12c4 50160000 		.4byte	.LASF207
 5919 12c8 15       		.byte	0x15
 5920 12c9 4A01     		.2byte	0x14a
 5921 12cb C3000000 		.4byte	0xc3
 5922 12cf 00       		.byte	0
 5923 12d0 07       		.uleb128 0x7
 5924 12d1 6B657900 		.ascii	"key\000"
 5925 12d5 15       		.byte	0x15
 5926 12d6 4B01     		.2byte	0x14b
 5927 12d8 170B0000 		.4byte	0xb17
 5928 12dc 02       		.byte	0x2
 5929 12dd 00       		.byte	0
 5930 12de 11       		.uleb128 0x11
 5931 12df 1A040000 		.4byte	.LASF298
 5932 12e3 15       		.byte	0x15
 5933 12e4 4C01     		.2byte	0x14c
 5934 12e6 B6120000 		.4byte	0x12b6
 5935 12ea 0A       		.uleb128 0xa
 5936 12eb 77120000 		.4byte	.LASF299
 5937 12ef 03       		.byte	0x3
 5938 12f0 15       		.byte	0x15
 5939 12f1 4F01     		.2byte	0x14f
 5940 12f3 12130000 		.4byte	0x1312
 5941 12f7 08       		.uleb128 0x8
 5942 12f8 57090000 		.4byte	.LASF213
 5943 12fc 15       		.byte	0x15
 5944 12fd 5001     		.2byte	0x150
 5945 12ff B8000000 		.4byte	0xb8
ARM GAS  /tmp/ccDGRO0L.s 			page 106


 5946 1303 00       		.byte	0
 5947 1304 08       		.uleb128 0x8
 5948 1305 50160000 		.4byte	.LASF207
 5949 1309 15       		.byte	0x15
 5950 130a 5101     		.2byte	0x151
 5951 130c C3000000 		.4byte	0xc3
 5952 1310 01       		.byte	0x1
 5953 1311 00       		.byte	0
 5954 1312 11       		.uleb128 0x11
 5955 1313 AF030000 		.4byte	.LASF300
 5956 1317 15       		.byte	0x15
 5957 1318 5201     		.2byte	0x152
 5958 131a EA120000 		.4byte	0x12ea
 5959 131e 0A       		.uleb128 0xa
 5960 131f 9F170000 		.4byte	.LASF301
 5961 1323 02       		.byte	0x2
 5962 1324 15       		.byte	0x15
 5963 1325 5601     		.2byte	0x156
 5964 1327 39130000 		.4byte	0x1339
 5965 132b 08       		.uleb128 0x8
 5966 132c 50160000 		.4byte	.LASF207
 5967 1330 15       		.byte	0x15
 5968 1331 5701     		.2byte	0x157
 5969 1333 C3000000 		.4byte	0xc3
 5970 1337 00       		.byte	0
 5971 1338 00       		.byte	0
 5972 1339 11       		.uleb128 0x11
 5973 133a 46120000 		.4byte	.LASF302
 5974 133e 15       		.byte	0x15
 5975 133f 5801     		.2byte	0x158
 5976 1341 1E130000 		.4byte	0x131e
 5977 1345 0A       		.uleb128 0xa
 5978 1346 1C180000 		.4byte	.LASF303
 5979 134a 03       		.byte	0x3
 5980 134b 15       		.byte	0x15
 5981 134c 5B01     		.2byte	0x15b
 5982 134e 6D130000 		.4byte	0x136d
 5983 1352 08       		.uleb128 0x8
 5984 1353 57090000 		.4byte	.LASF213
 5985 1357 15       		.byte	0x15
 5986 1358 5C01     		.2byte	0x15c
 5987 135a B8000000 		.4byte	0xb8
 5988 135e 00       		.byte	0
 5989 135f 08       		.uleb128 0x8
 5990 1360 50160000 		.4byte	.LASF207
 5991 1364 15       		.byte	0x15
 5992 1365 5D01     		.2byte	0x15d
 5993 1367 C3000000 		.4byte	0xc3
 5994 136b 01       		.byte	0x1
 5995 136c 00       		.byte	0
 5996 136d 11       		.uleb128 0x11
 5997 136e C40B0000 		.4byte	.LASF304
 5998 1372 15       		.byte	0x15
 5999 1373 5E01     		.2byte	0x15e
 6000 1375 45130000 		.4byte	0x1345
 6001 1379 0A       		.uleb128 0xa
 6002 137a 81140000 		.4byte	.LASF305
ARM GAS  /tmp/ccDGRO0L.s 			page 107


 6003 137e 09       		.byte	0x9
 6004 137f 15       		.byte	0x15
 6005 1380 6201     		.2byte	0x162
 6006 1382 A1130000 		.4byte	0x13a1
 6007 1386 08       		.uleb128 0x8
 6008 1387 57090000 		.4byte	.LASF213
 6009 138b 15       		.byte	0x15
 6010 138c 6301     		.2byte	0x163
 6011 138e B8000000 		.4byte	0xb8
 6012 1392 00       		.byte	0
 6013 1393 08       		.uleb128 0x8
 6014 1394 70080000 		.4byte	.LASF306
 6015 1398 15       		.byte	0x15
 6016 1399 6401     		.2byte	0x164
 6017 139b 270B0000 		.4byte	0xb27
 6018 139f 01       		.byte	0x1
 6019 13a0 00       		.byte	0
 6020 13a1 11       		.uleb128 0x11
 6021 13a2 A4160000 		.4byte	.LASF307
 6022 13a6 15       		.byte	0x15
 6023 13a7 6501     		.2byte	0x165
 6024 13a9 79130000 		.4byte	0x1379
 6025 13ad 0A       		.uleb128 0xa
 6026 13ae 90030000 		.4byte	.LASF308
 6027 13b2 01       		.byte	0x1
 6028 13b3 15       		.byte	0x15
 6029 13b4 6901     		.2byte	0x169
 6030 13b6 C8130000 		.4byte	0x13c8
 6031 13ba 08       		.uleb128 0x8
 6032 13bb 110D0000 		.4byte	.LASF309
 6033 13bf 15       		.byte	0x15
 6034 13c0 6A01     		.2byte	0x16a
 6035 13c2 B8000000 		.4byte	0xb8
 6036 13c6 00       		.byte	0
 6037 13c7 00       		.byte	0
 6038 13c8 11       		.uleb128 0x11
 6039 13c9 160A0000 		.4byte	.LASF310
 6040 13cd 15       		.byte	0x15
 6041 13ce 6B01     		.2byte	0x16b
 6042 13d0 AD130000 		.4byte	0x13ad
 6043 13d4 0A       		.uleb128 0xa
 6044 13d5 81170000 		.4byte	.LASF311
 6045 13d9 03       		.byte	0x3
 6046 13da 15       		.byte	0x15
 6047 13db 6F01     		.2byte	0x16f
 6048 13dd 09140000 		.4byte	0x1409
 6049 13e1 08       		.uleb128 0x8
 6050 13e2 110D0000 		.4byte	.LASF309
 6051 13e6 15       		.byte	0x15
 6052 13e7 7001     		.2byte	0x170
 6053 13e9 B8000000 		.4byte	0xb8
 6054 13ed 00       		.byte	0
 6055 13ee 08       		.uleb128 0x8
 6056 13ef 580F0000 		.4byte	.LASF253
 6057 13f3 15       		.byte	0x15
 6058 13f4 7101     		.2byte	0x171
 6059 13f6 B8000000 		.4byte	0xb8
ARM GAS  /tmp/ccDGRO0L.s 			page 108


 6060 13fa 01       		.byte	0x1
 6061 13fb 08       		.uleb128 0x8
 6062 13fc C4060000 		.4byte	.LASF312
 6063 1400 15       		.byte	0x15
 6064 1401 7201     		.2byte	0x172
 6065 1403 B8000000 		.4byte	0xb8
 6066 1407 02       		.byte	0x2
 6067 1408 00       		.byte	0
 6068 1409 11       		.uleb128 0x11
 6069 140a 8E150000 		.4byte	.LASF313
 6070 140e 15       		.byte	0x15
 6071 140f 7301     		.2byte	0x173
 6072 1411 D4130000 		.4byte	0x13d4
 6073 1415 0A       		.uleb128 0xa
 6074 1416 0F080000 		.4byte	.LASF314
 6075 141a 03       		.byte	0x3
 6076 141b 15       		.byte	0x15
 6077 141c 7701     		.2byte	0x177
 6078 141e 3D140000 		.4byte	0x143d
 6079 1422 08       		.uleb128 0x8
 6080 1423 57090000 		.4byte	.LASF213
 6081 1427 15       		.byte	0x15
 6082 1428 7801     		.2byte	0x178
 6083 142a B8000000 		.4byte	0xb8
 6084 142e 00       		.byte	0
 6085 142f 08       		.uleb128 0x8
 6086 1430 92060000 		.4byte	.LASF315
 6087 1434 15       		.byte	0x15
 6088 1435 7901     		.2byte	0x179
 6089 1437 C3000000 		.4byte	0xc3
 6090 143b 01       		.byte	0x1
 6091 143c 00       		.byte	0
 6092 143d 11       		.uleb128 0x11
 6093 143e C1080000 		.4byte	.LASF316
 6094 1442 15       		.byte	0x15
 6095 1443 7A01     		.2byte	0x17a
 6096 1445 15140000 		.4byte	0x1415
 6097 1449 0A       		.uleb128 0xa
 6098 144a FA040000 		.4byte	.LASF317
 6099 144e 03       		.byte	0x3
 6100 144f 15       		.byte	0x15
 6101 1450 9F01     		.2byte	0x19f
 6102 1452 71140000 		.4byte	0x1471
 6103 1456 08       		.uleb128 0x8
 6104 1457 F80B0000 		.4byte	.LASF318
 6105 145b 15       		.byte	0x15
 6106 145c A001     		.2byte	0x1a0
 6107 145e B8000000 		.4byte	0xb8
 6108 1462 00       		.byte	0
 6109 1463 08       		.uleb128 0x8
 6110 1464 DE080000 		.4byte	.LASF201
 6111 1468 15       		.byte	0x15
 6112 1469 A101     		.2byte	0x1a1
 6113 146b C3000000 		.4byte	0xc3
 6114 146f 01       		.byte	0x1
 6115 1470 00       		.byte	0
 6116 1471 11       		.uleb128 0x11
ARM GAS  /tmp/ccDGRO0L.s 			page 109


 6117 1472 0F120000 		.4byte	.LASF319
 6118 1476 15       		.byte	0x15
 6119 1477 A201     		.2byte	0x1a2
 6120 1479 49140000 		.4byte	0x1449
 6121 147d 0A       		.uleb128 0xa
 6122 147e E9030000 		.4byte	.LASF320
 6123 1482 04       		.byte	0x4
 6124 1483 15       		.byte	0x15
 6125 1484 A601     		.2byte	0x1a6
 6126 1486 B2140000 		.4byte	0x14b2
 6127 148a 08       		.uleb128 0x8
 6128 148b 57090000 		.4byte	.LASF213
 6129 148f 15       		.byte	0x15
 6130 1490 A701     		.2byte	0x1a7
 6131 1492 B8000000 		.4byte	0xb8
 6132 1496 00       		.byte	0
 6133 1497 08       		.uleb128 0x8
 6134 1498 F80B0000 		.4byte	.LASF318
 6135 149c 15       		.byte	0x15
 6136 149d A801     		.2byte	0x1a8
 6137 149f B8000000 		.4byte	0xb8
 6138 14a3 01       		.byte	0x1
 6139 14a4 08       		.uleb128 0x8
 6140 14a5 DE080000 		.4byte	.LASF201
 6141 14a9 15       		.byte	0x15
 6142 14aa A901     		.2byte	0x1a9
 6143 14ac C3000000 		.4byte	0xc3
 6144 14b0 02       		.byte	0x2
 6145 14b1 00       		.byte	0
 6146 14b2 11       		.uleb128 0x11
 6147 14b3 A0000000 		.4byte	.LASF321
 6148 14b7 15       		.byte	0x15
 6149 14b8 AA01     		.2byte	0x1aa
 6150 14ba 7D140000 		.4byte	0x147d
 6151 14be 0A       		.uleb128 0xa
 6152 14bf 1D0E0000 		.4byte	.LASF322
 6153 14c3 01       		.byte	0x1
 6154 14c4 15       		.byte	0x15
 6155 14c5 CF01     		.2byte	0x1cf
 6156 14c7 E6140000 		.4byte	0x14e6
 6157 14cb 08       		.uleb128 0x8
 6158 14cc 8D010000 		.4byte	.LASF323
 6159 14d0 15       		.byte	0x15
 6160 14d1 D001     		.2byte	0x1d0
 6161 14d3 B8000000 		.4byte	0xb8
 6162 14d7 00       		.byte	0
 6163 14d8 08       		.uleb128 0x8
 6164 14d9 D9080000 		.4byte	.LASF198
 6165 14dd 15       		.byte	0x15
 6166 14de D101     		.2byte	0x1d1
 6167 14e0 040C0000 		.4byte	0xc04
 6168 14e4 01       		.byte	0x1
 6169 14e5 00       		.byte	0
 6170 14e6 11       		.uleb128 0x11
 6171 14e7 E6140000 		.4byte	.LASF324
 6172 14eb 15       		.byte	0x15
 6173 14ec D201     		.2byte	0x1d2
ARM GAS  /tmp/ccDGRO0L.s 			page 110


 6174 14ee BE140000 		.4byte	0x14be
 6175 14f2 0A       		.uleb128 0xa
 6176 14f3 C5090000 		.4byte	.LASF325
 6177 14f7 18       		.byte	0x18
 6178 14f8 15       		.byte	0x15
 6179 14f9 1402     		.2byte	0x214
 6180 14fb 5B150000 		.4byte	0x155b
 6181 14ff 07       		.uleb128 0x7
 6182 1500 6F676600 		.ascii	"ogf\000"
 6183 1504 15       		.byte	0x15
 6184 1505 1502     		.2byte	0x215
 6185 1507 C3000000 		.4byte	0xc3
 6186 150b 00       		.byte	0
 6187 150c 07       		.uleb128 0x7
 6188 150d 6F636600 		.ascii	"ocf\000"
 6189 1511 15       		.byte	0x15
 6190 1512 1602     		.2byte	0x216
 6191 1514 C3000000 		.4byte	0xc3
 6192 1518 02       		.byte	0x2
 6193 1519 08       		.uleb128 0x8
 6194 151a F4040000 		.4byte	.LASF326
 6195 151e 15       		.byte	0x15
 6196 151f 1702     		.2byte	0x217
 6197 1521 9F000000 		.4byte	0x9f
 6198 1525 04       		.byte	0x4
 6199 1526 08       		.uleb128 0x8
 6200 1527 6A090000 		.4byte	.LASF327
 6201 152b 15       		.byte	0x15
 6202 152c 1802     		.2byte	0x218
 6203 152e 5F030000 		.4byte	0x35f
 6204 1532 08       		.byte	0x8
 6205 1533 08       		.uleb128 0x8
 6206 1534 83050000 		.4byte	.LASF328
 6207 1538 15       		.byte	0x15
 6208 1539 1902     		.2byte	0x219
 6209 153b 9F000000 		.4byte	0x9f
 6210 153f 0C       		.byte	0xc
 6211 1540 08       		.uleb128 0x8
 6212 1541 3A020000 		.4byte	.LASF329
 6213 1545 15       		.byte	0x15
 6214 1546 1A02     		.2byte	0x21a
 6215 1548 5F030000 		.4byte	0x35f
 6216 154c 10       		.byte	0x10
 6217 154d 08       		.uleb128 0x8
 6218 154e 75130000 		.4byte	.LASF330
 6219 1552 15       		.byte	0x15
 6220 1553 1B02     		.2byte	0x21b
 6221 1555 9F000000 		.4byte	0x9f
 6222 1559 14       		.byte	0x14
 6223 155a 00       		.byte	0
 6224 155b 02       		.uleb128 0x2
 6225 155c E2010000 		.4byte	.LASF331
 6226 1560 16       		.byte	0x16
 6227 1561 1A       		.byte	0x1a
 6228 1562 D9000000 		.4byte	0xd9
 6229 1566 05       		.uleb128 0x5
 6230 1567 7B170000 		.4byte	.LASF332
ARM GAS  /tmp/ccDGRO0L.s 			page 111


 6231 156b 08       		.byte	0x8
 6232 156c 17       		.byte	0x17
 6233 156d 1F       		.byte	0x1f
 6234 156e 8B150000 		.4byte	0x158b
 6235 1572 06       		.uleb128 0x6
 6236 1573 77080000 		.4byte	.LASF333
 6237 1577 17       		.byte	0x17
 6238 1578 23       		.byte	0x23
 6239 1579 5B150000 		.4byte	0x155b
 6240 157d 00       		.byte	0
 6241 157e 06       		.uleb128 0x6
 6242 157f 3B000000 		.4byte	.LASF261
 6243 1583 17       		.byte	0x17
 6244 1584 24       		.byte	0x24
 6245 1585 5B150000 		.4byte	0x155b
 6246 1589 04       		.byte	0x4
 6247 158a 00       		.byte	0
 6248 158b 1C       		.uleb128 0x1c
 6249 158c 4D040000 		.4byte	.LASF418
 6250 1590 01       		.byte	0x1
 6251 1591 37       		.byte	0x37
 6252 1592 00000000 		.4byte	.LFB269
 6253 1596 10000000 		.4byte	.LFE269-.LFB269
 6254 159a 01       		.uleb128 0x1
 6255 159b 9C       		.byte	0x9c
 6256 159c 1D       		.uleb128 0x1d
 6257 159d 24140000 		.4byte	.LASF336
 6258 15a1 01       		.byte	0x1
 6259 15a2 3D       		.byte	0x3d
 6260 15a3 10000000 		.4byte	.LFB270
 6261 15a7 54000000 		.4byte	.LFE270-.LFB270
 6262 15ab 01       		.uleb128 0x1
 6263 15ac 9C       		.byte	0x9c
 6264 15ad C0150000 		.4byte	0x15c0
 6265 15b1 1E       		.uleb128 0x1e
 6266 15b2 1F020000 		.4byte	.LASF334
 6267 15b6 01       		.byte	0x1
 6268 15b7 3F       		.byte	0x3f
 6269 15b8 B8000000 		.4byte	0xb8
 6270 15bc 02       		.uleb128 0x2
 6271 15bd 91       		.byte	0x91
 6272 15be 77       		.sleb128 -9
 6273 15bf 00       		.byte	0
 6274 15c0 1F       		.uleb128 0x1f
 6275 15c1 B00A0000 		.4byte	.LASF355
 6276 15c5 01       		.byte	0x1
 6277 15c6 55       		.byte	0x55
 6278 15c7 9F000000 		.4byte	0x9f
 6279 15cb 70000000 		.4byte	.LFB271
 6280 15cf 36000000 		.4byte	.LFE271-.LFB271
 6281 15d3 01       		.uleb128 0x1
 6282 15d4 9C       		.byte	0x9c
 6283 15d5 F6150000 		.4byte	0x15f6
 6284 15d9 20       		.uleb128 0x20
 6285 15da B10E0000 		.4byte	.LASF338
 6286 15de 01       		.byte	0x1
 6287 15df 55       		.byte	0x55
ARM GAS  /tmp/ccDGRO0L.s 			page 112


 6288 15e0 F6150000 		.4byte	0x15f6
 6289 15e4 02       		.uleb128 0x2
 6290 15e5 91       		.byte	0x91
 6291 15e6 74       		.sleb128 -12
 6292 15e7 1E       		.uleb128 0x1e
 6293 15e8 C3150000 		.4byte	.LASF335
 6294 15ec 01       		.byte	0x1
 6295 15ed 57       		.byte	0x57
 6296 15ee 050B0000 		.4byte	0xb05
 6297 15f2 02       		.uleb128 0x2
 6298 15f3 91       		.byte	0x91
 6299 15f4 7C       		.sleb128 -4
 6300 15f5 00       		.byte	0
 6301 15f6 09       		.uleb128 0x9
 6302 15f7 04       		.byte	0x4
 6303 15f8 FC150000 		.4byte	0x15fc
 6304 15fc 12       		.uleb128 0x12
 6305 15fd D40B0000 		.4byte	0xbd4
 6306 1601 1D       		.uleb128 0x1d
 6307 1602 4D0A0000 		.4byte	.LASF337
 6308 1606 01       		.byte	0x1
 6309 1607 62       		.byte	0x62
 6310 1608 B0000000 		.4byte	.LFB272
 6311 160c 6C000000 		.4byte	.LFE272-.LFB272
 6312 1610 01       		.uleb128 0x1
 6313 1611 9C       		.byte	0x9c
 6314 1612 33160000 		.4byte	0x1633
 6315 1616 1E       		.uleb128 0x1e
 6316 1617 B10E0000 		.4byte	.LASF338
 6317 161b 01       		.byte	0x1
 6318 161c 64       		.byte	0x64
 6319 161d 33160000 		.4byte	0x1633
 6320 1621 02       		.uleb128 0x2
 6321 1622 91       		.byte	0x91
 6322 1623 70       		.sleb128 -16
 6323 1624 1E       		.uleb128 0x1e
 6324 1625 AD100000 		.4byte	.LASF339
 6325 1629 01       		.byte	0x1
 6326 162a 67       		.byte	0x67
 6327 162b B8000000 		.4byte	0xb8
 6328 162f 02       		.uleb128 0x2
 6329 1630 91       		.byte	0x91
 6330 1631 77       		.sleb128 -9
 6331 1632 00       		.byte	0
 6332 1633 09       		.uleb128 0x9
 6333 1634 04       		.byte	0x4
 6334 1635 D40B0000 		.4byte	0xbd4
 6335 1639 21       		.uleb128 0x21
 6336 163a 25150000 		.4byte	.LASF419
 6337 163e 01       		.byte	0x1
 6338 163f 78       		.byte	0x78
 6339 1640 EF000000 		.4byte	0xef
 6340 1644 20010000 		.4byte	.LFB273
 6341 1648 14000000 		.4byte	.LFE273-.LFB273
 6342 164c 01       		.uleb128 0x1
 6343 164d 9C       		.byte	0x9c
 6344 164e 1D       		.uleb128 0x1d
ARM GAS  /tmp/ccDGRO0L.s 			page 113


 6345 164f 35050000 		.4byte	.LASF340
 6346 1653 01       		.byte	0x1
 6347 1654 7D       		.byte	0x7d
 6348 1655 40010000 		.4byte	.LFB274
 6349 1659 A4000000 		.4byte	.LFE274-.LFB274
 6350 165d 01       		.uleb128 0x1
 6351 165e 9C       		.byte	0x9c
 6352 165f 80160000 		.4byte	0x1680
 6353 1663 1E       		.uleb128 0x1e
 6354 1664 B10E0000 		.4byte	.LASF338
 6355 1668 01       		.byte	0x1
 6356 1669 7F       		.byte	0x7f
 6357 166a 33160000 		.4byte	0x1633
 6358 166e 02       		.uleb128 0x2
 6359 166f 91       		.byte	0x91
 6360 1670 70       		.sleb128 -16
 6361 1671 1E       		.uleb128 0x1e
 6362 1672 470E0000 		.4byte	.LASF194
 6363 1676 01       		.byte	0x1
 6364 1677 80       		.byte	0x80
 6365 1678 B8000000 		.4byte	0xb8
 6366 167c 02       		.uleb128 0x2
 6367 167d 91       		.byte	0x91
 6368 167e 77       		.sleb128 -9
 6369 167f 00       		.byte	0
 6370 1680 1D       		.uleb128 0x1d
 6371 1681 C40A0000 		.4byte	.LASF341
 6372 1685 01       		.byte	0x1
 6373 1686 A1       		.byte	0xa1
 6374 1687 F0010000 		.4byte	.LFB275
 6375 168b 26000000 		.4byte	.LFE275-.LFB275
 6376 168f 01       		.uleb128 0x1
 6377 1690 9C       		.byte	0x9c
 6378 1691 CE160000 		.4byte	0x16ce
 6379 1695 20       		.uleb128 0x20
 6380 1696 F20B0000 		.4byte	.LASF342
 6381 169a 01       		.byte	0x1
 6382 169b A1       		.byte	0xa1
 6383 169c CE160000 		.4byte	0x16ce
 6384 16a0 02       		.uleb128 0x2
 6385 16a1 91       		.byte	0x91
 6386 16a2 74       		.sleb128 -12
 6387 16a3 20       		.uleb128 0x20
 6388 16a4 470A0000 		.4byte	.LASF343
 6389 16a8 01       		.byte	0x1
 6390 16a9 A1       		.byte	0xa1
 6391 16aa CE160000 		.4byte	0x16ce
 6392 16ae 02       		.uleb128 0x2
 6393 16af 91       		.byte	0x91
 6394 16b0 70       		.sleb128 -16
 6395 16b1 20       		.uleb128 0x20
 6396 16b2 F1020000 		.4byte	.LASF344
 6397 16b6 01       		.byte	0x1
 6398 16b7 A1       		.byte	0xa1
 6399 16b8 B8000000 		.4byte	0xb8
 6400 16bc 02       		.uleb128 0x2
 6401 16bd 91       		.byte	0x91
ARM GAS  /tmp/ccDGRO0L.s 			page 114


 6402 16be 6F       		.sleb128 -17
 6403 16bf 20       		.uleb128 0x20
 6404 16c0 FA020000 		.4byte	.LASF345
 6405 16c4 01       		.byte	0x1
 6406 16c5 A1       		.byte	0xa1
 6407 16c6 B8000000 		.4byte	0xb8
 6408 16ca 02       		.uleb128 0x2
 6409 16cb 91       		.byte	0x91
 6410 16cc 6E       		.sleb128 -18
 6411 16cd 00       		.byte	0
 6412 16ce 09       		.uleb128 0x9
 6413 16cf 04       		.byte	0x4
 6414 16d0 D4160000 		.4byte	0x16d4
 6415 16d4 22       		.uleb128 0x22
 6416 16d5 1D       		.uleb128 0x1d
 6417 16d6 E0160000 		.4byte	.LASF346
 6418 16da 01       		.byte	0x1
 6419 16db AE       		.byte	0xae
 6420 16dc 20020000 		.4byte	.LFB276
 6421 16e0 68000000 		.4byte	.LFE276-.LFB276
 6422 16e4 01       		.uleb128 0x1
 6423 16e5 9C       		.byte	0x9c
 6424 16e6 3E170000 		.4byte	0x173e
 6425 16ea 23       		.uleb128 0x23
 6426 16eb 6F676600 		.ascii	"ogf\000"
 6427 16ef 01       		.byte	0x1
 6428 16f0 AE       		.byte	0xae
 6429 16f1 C3000000 		.4byte	0xc3
 6430 16f5 02       		.uleb128 0x2
 6431 16f6 91       		.byte	0x91
 6432 16f7 6E       		.sleb128 -18
 6433 16f8 23       		.uleb128 0x23
 6434 16f9 6F636600 		.ascii	"ocf\000"
 6435 16fd 01       		.byte	0x1
 6436 16fe AE       		.byte	0xae
 6437 16ff C3000000 		.4byte	0xc3
 6438 1703 02       		.uleb128 0x2
 6439 1704 91       		.byte	0x91
 6440 1705 6C       		.sleb128 -20
 6441 1706 20       		.uleb128 0x20
 6442 1707 41120000 		.4byte	.LASF202
 6443 170b 01       		.byte	0x1
 6444 170c AE       		.byte	0xae
 6445 170d B8000000 		.4byte	0xb8
 6446 1711 02       		.uleb128 0x2
 6447 1712 91       		.byte	0x91
 6448 1713 6B       		.sleb128 -21
 6449 1714 20       		.uleb128 0x20
 6450 1715 630C0000 		.4byte	.LASF347
 6451 1719 01       		.byte	0x1
 6452 171a AE       		.byte	0xae
 6453 171b 5F030000 		.4byte	0x35f
 6454 171f 02       		.uleb128 0x2
 6455 1720 91       		.byte	0x91
 6456 1721 64       		.sleb128 -28
 6457 1722 24       		.uleb128 0x24
 6458 1723 686300   		.ascii	"hc\000"
ARM GAS  /tmp/ccDGRO0L.s 			page 115


 6459 1726 01       		.byte	0x1
 6460 1727 B0       		.byte	0xb0
 6461 1728 430C0000 		.4byte	0xc43
 6462 172c 02       		.uleb128 0x2
 6463 172d 91       		.byte	0x91
 6464 172e 74       		.sleb128 -12
 6465 172f 1E       		.uleb128 0x1e
 6466 1730 BB0C0000 		.4byte	.LASF348
 6467 1734 01       		.byte	0x1
 6468 1735 B5       		.byte	0xb5
 6469 1736 3E170000 		.4byte	0x173e
 6470 173a 02       		.uleb128 0x2
 6471 173b 91       		.byte	0x91
 6472 173c 70       		.sleb128 -16
 6473 173d 00       		.byte	0
 6474 173e 19       		.uleb128 0x19
 6475 173f B8000000 		.4byte	0xb8
 6476 1743 4E170000 		.4byte	0x174e
 6477 1747 1A       		.uleb128 0x1a
 6478 1748 95040000 		.4byte	0x495
 6479 174c 03       		.byte	0x3
 6480 174d 00       		.byte	0
 6481 174e 25       		.uleb128 0x25
 6482 174f AF000000 		.4byte	.LASF352
 6483 1753 01       		.byte	0x1
 6484 1754 BC       		.byte	0xbc
 6485 1755 90020000 		.4byte	.LFB277
 6486 1759 30000000 		.4byte	.LFE277-.LFB277
 6487 175d 01       		.uleb128 0x1
 6488 175e 9C       		.byte	0x9c
 6489 175f 8E170000 		.4byte	0x178e
 6490 1763 20       		.uleb128 0x20
 6491 1764 EF050000 		.4byte	.LASF349
 6492 1768 01       		.byte	0x1
 6493 1769 BC       		.byte	0xbc
 6494 176a 8E170000 		.4byte	0x178e
 6495 176e 02       		.uleb128 0x2
 6496 176f 91       		.byte	0x91
 6497 1770 6C       		.sleb128 -20
 6498 1771 20       		.uleb128 0x20
 6499 1772 11070000 		.4byte	.LASF350
 6500 1776 01       		.byte	0x1
 6501 1777 BC       		.byte	0xbc
 6502 1778 8E170000 		.4byte	0x178e
 6503 177c 02       		.uleb128 0x2
 6504 177d 91       		.byte	0x91
 6505 177e 68       		.sleb128 -24
 6506 177f 1E       		.uleb128 0x1e
 6507 1780 19050000 		.4byte	.LASF351
 6508 1784 01       		.byte	0x1
 6509 1785 BE       		.byte	0xbe
 6510 1786 880B0000 		.4byte	0xb88
 6511 178a 02       		.uleb128 0x2
 6512 178b 91       		.byte	0x91
 6513 178c 74       		.sleb128 -12
 6514 178d 00       		.byte	0
 6515 178e 09       		.uleb128 0x9
ARM GAS  /tmp/ccDGRO0L.s 			page 116


 6516 178f 04       		.byte	0x4
 6517 1790 7D0B0000 		.4byte	0xb7d
 6518 1794 25       		.uleb128 0x25
 6519 1795 D0070000 		.4byte	.LASF353
 6520 1799 01       		.byte	0x1
 6521 179a C7       		.byte	0xc7
 6522 179b C0020000 		.4byte	.LFB278
 6523 179f 40000000 		.4byte	.LFE278-.LFB278
 6524 17a3 01       		.uleb128 0x1
 6525 17a4 9C       		.byte	0x9c
 6526 17a5 B8170000 		.4byte	0x17b8
 6527 17a9 1E       		.uleb128 0x1e
 6528 17aa C70C0000 		.4byte	.LASF354
 6529 17ae 01       		.byte	0x1
 6530 17af C9       		.byte	0xc9
 6531 17b0 33160000 		.4byte	0x1633
 6532 17b4 02       		.uleb128 0x2
 6533 17b5 91       		.byte	0x91
 6534 17b6 74       		.sleb128 -12
 6535 17b7 00       		.byte	0
 6536 17b8 26       		.uleb128 0x26
 6537 17b9 F9050000 		.4byte	.LASF356
 6538 17bd 01       		.byte	0x1
 6539 17be D8       		.byte	0xd8
 6540 17bf 9F000000 		.4byte	0x9f
 6541 17c3 00030000 		.4byte	.LFB279
 6542 17c7 4C020000 		.4byte	.LFE279-.LFB279
 6543 17cb 01       		.uleb128 0x1
 6544 17cc 9C       		.byte	0x9c
 6545 17cd AE180000 		.4byte	0x18ae
 6546 17d1 23       		.uleb128 0x23
 6547 17d2 7200     		.ascii	"r\000"
 6548 17d4 01       		.byte	0x1
 6549 17d5 D8       		.byte	0xd8
 6550 17d6 AE180000 		.4byte	0x18ae
 6551 17da 03       		.uleb128 0x3
 6552 17db 91       		.byte	0x91
 6553 17dc BC7F     		.sleb128 -68
 6554 17de 20       		.uleb128 0x20
 6555 17df 95080000 		.4byte	.LASF357
 6556 17e3 01       		.byte	0x1
 6557 17e4 D8       		.byte	0xd8
 6558 17e5 EF000000 		.4byte	0xef
 6559 17e9 03       		.uleb128 0x3
 6560 17ea 91       		.byte	0x91
 6561 17eb BB7F     		.sleb128 -69
 6562 17ed 24       		.uleb128 0x24
 6563 17ee 70747200 		.ascii	"ptr\000"
 6564 17f2 01       		.byte	0x1
 6565 17f3 DA       		.byte	0xda
 6566 17f4 51070000 		.4byte	0x751
 6567 17f8 02       		.uleb128 0x2
 6568 17f9 91       		.byte	0x91
 6569 17fa 64       		.sleb128 -28
 6570 17fb 1E       		.uleb128 0x1e
 6571 17fc DE080000 		.4byte	.LASF201
 6572 1800 01       		.byte	0x1
ARM GAS  /tmp/ccDGRO0L.s 			page 117


 6573 1801 DB       		.byte	0xdb
 6574 1802 C3000000 		.4byte	0xc3
 6575 1806 02       		.uleb128 0x2
 6576 1807 91       		.byte	0x91
 6577 1808 72       		.sleb128 -14
 6578 1809 1E       		.uleb128 0x1e
 6579 180a 7C040000 		.4byte	.LASF358
 6580 180e 01       		.byte	0x1
 6581 180f DC       		.byte	0xdc
 6582 1810 B4180000 		.4byte	0x18b4
 6583 1814 02       		.uleb128 0x2
 6584 1815 91       		.byte	0x91
 6585 1816 68       		.sleb128 -24
 6586 1817 1E       		.uleb128 0x1e
 6587 1818 A80A0000 		.4byte	.LASF359
 6588 181c 01       		.byte	0x1
 6589 181d DD       		.byte	0xdd
 6590 181e BA180000 		.4byte	0x18ba
 6591 1822 02       		.uleb128 0x2
 6592 1823 91       		.byte	0x91
 6593 1824 6C       		.sleb128 -20
 6594 1825 24       		.uleb128 0x24
 6595 1826 746F00   		.ascii	"to\000"
 6596 1829 01       		.byte	0x1
 6597 182a DE       		.byte	0xde
 6598 182b 9F000000 		.4byte	0x9f
 6599 182f 02       		.uleb128 0x2
 6600 1830 91       		.byte	0x91
 6601 1831 74       		.sleb128 -12
 6602 1832 24       		.uleb128 0x24
 6603 1833 7400     		.ascii	"t\000"
 6604 1835 01       		.byte	0x1
 6605 1836 DF       		.byte	0xdf
 6606 1837 66150000 		.4byte	0x1566
 6607 183b 02       		.uleb128 0x2
 6608 183c 91       		.byte	0x91
 6609 183d 4C       		.sleb128 -52
 6610 183e 1E       		.uleb128 0x1e
 6611 183f B10E0000 		.4byte	.LASF338
 6612 1843 01       		.byte	0x1
 6613 1844 E0       		.byte	0xe0
 6614 1845 33160000 		.4byte	0x1633
 6615 1849 02       		.uleb128 0x2
 6616 184a 91       		.byte	0x91
 6617 184b 48       		.sleb128 -56
 6618 184c 1E       		.uleb128 0x1e
 6619 184d CF140000 		.4byte	.LASF360
 6620 1851 01       		.byte	0x1
 6621 1852 E1       		.byte	0xe1
 6622 1853 7D0B0000 		.4byte	0xb7d
 6623 1857 02       		.uleb128 0x2
 6624 1858 91       		.byte	0x91
 6625 1859 40       		.sleb128 -64
 6626 185a 27       		.uleb128 0x27
 6627 185b 990C0000 		.4byte	.LASF361
 6628 185f 01       		.byte	0x1
 6629 1860 6901     		.2byte	0x169
ARM GAS  /tmp/ccDGRO0L.s 			page 118


 6630 1862 FE040000 		.4byte	.L50
 6631 1866 27       		.uleb128 0x27
 6632 1867 1B0D0000 		.4byte	.LASF362
 6633 186b 01       		.byte	0x1
 6634 186c 7101     		.2byte	0x171
 6635 186e 22050000 		.4byte	.L64
 6636 1872 28       		.uleb128 0x28
 6637 1873 00000000 		.4byte	.Ldebug_ranges0+0
 6638 1877 24       		.uleb128 0x24
 6639 1878 636300   		.ascii	"cc\000"
 6640 187b 01       		.byte	0x1
 6641 187c F4       		.byte	0xf4
 6642 187d C0180000 		.4byte	0x18c0
 6643 1881 02       		.uleb128 0x2
 6644 1882 91       		.byte	0x91
 6645 1883 58       		.sleb128 -40
 6646 1884 24       		.uleb128 0x24
 6647 1885 637300   		.ascii	"cs\000"
 6648 1888 01       		.byte	0x1
 6649 1889 F5       		.byte	0xf5
 6650 188a C6180000 		.4byte	0x18c6
 6651 188e 02       		.uleb128 0x2
 6652 188f 91       		.byte	0x91
 6653 1890 5C       		.sleb128 -36
 6654 1891 24       		.uleb128 0x24
 6655 1892 6D6500   		.ascii	"me\000"
 6656 1895 01       		.byte	0x1
 6657 1896 F6       		.byte	0xf6
 6658 1897 CC180000 		.4byte	0x18cc
 6659 189b 02       		.uleb128 0x2
 6660 189c 91       		.byte	0x91
 6661 189d 54       		.sleb128 -44
 6662 189e 24       		.uleb128 0x24
 6663 189f 6C656E00 		.ascii	"len\000"
 6664 18a3 01       		.byte	0x1
 6665 18a4 F7       		.byte	0xf7
 6666 18a5 9F000000 		.4byte	0x9f
 6667 18a9 02       		.uleb128 0x2
 6668 18aa 91       		.byte	0x91
 6669 18ab 60       		.sleb128 -32
 6670 18ac 00       		.byte	0
 6671 18ad 00       		.byte	0
 6672 18ae 09       		.uleb128 0x9
 6673 18af 04       		.byte	0x4
 6674 18b0 F2140000 		.4byte	0x14f2
 6675 18b4 09       		.uleb128 0x9
 6676 18b5 04       		.byte	0x4
 6677 18b6 7F0C0000 		.4byte	0xc7f
 6678 18ba 09       		.uleb128 0x9
 6679 18bb 04       		.byte	0x4
 6680 18bc 130C0000 		.4byte	0xc13
 6681 18c0 09       		.uleb128 0x9
 6682 18c1 04       		.byte	0x4
 6683 18c2 71140000 		.4byte	0x1471
 6684 18c6 09       		.uleb128 0x9
 6685 18c7 04       		.byte	0x4
 6686 18c8 B2140000 		.4byte	0x14b2
ARM GAS  /tmp/ccDGRO0L.s 			page 119


 6687 18cc 09       		.uleb128 0x9
 6688 18cd 04       		.byte	0x4
 6689 18ce E6140000 		.4byte	0x14e6
 6690 18d2 29       		.uleb128 0x29
 6691 18d3 FD100000 		.4byte	.LASF363
 6692 18d7 01       		.byte	0x1
 6693 18d8 7A01     		.2byte	0x17a
 6694 18da 9F000000 		.4byte	0x9f
 6695 18de 50050000 		.4byte	.LFB280
 6696 18e2 46000000 		.4byte	.LFE280-.LFB280
 6697 18e6 01       		.uleb128 0x1
 6698 18e7 9C       		.byte	0x9c
 6699 18e8 0A190000 		.4byte	0x190a
 6700 18ec 2A       		.uleb128 0x2a
 6701 18ed 727100   		.ascii	"rq\000"
 6702 18f0 01       		.byte	0x1
 6703 18f1 7C01     		.2byte	0x17c
 6704 18f3 F2140000 		.4byte	0x14f2
 6705 18f7 02       		.uleb128 0x2
 6706 18f8 91       		.byte	0x91
 6707 18f9 60       		.sleb128 -32
 6708 18fa 2B       		.uleb128 0x2b
 6709 18fb 57090000 		.4byte	.LASF213
 6710 18ff 01       		.byte	0x1
 6711 1900 7D01     		.2byte	0x17d
 6712 1902 B8000000 		.4byte	0xb8
 6713 1906 02       		.uleb128 0x2
 6714 1907 91       		.byte	0x91
 6715 1908 5F       		.sleb128 -33
 6716 1909 00       		.byte	0
 6717 190a 29       		.uleb128 0x29
 6718 190b 300E0000 		.4byte	.LASF364
 6719 190f 01       		.byte	0x1
 6720 1910 8B01     		.2byte	0x18b
 6721 1912 9F000000 		.4byte	0x9f
 6722 1916 A0050000 		.4byte	.LFB281
 6723 191a 6E000000 		.4byte	.LFE281-.LFB281
 6724 191e 01       		.uleb128 0x1
 6725 191f 9C       		.byte	0x9c
 6726 1920 6E190000 		.4byte	0x196e
 6727 1924 2C       		.uleb128 0x2c
 6728 1925 50160000 		.4byte	.LASF207
 6729 1929 01       		.byte	0x1
 6730 192a 8B01     		.2byte	0x18b
 6731 192c C3000000 		.4byte	0xc3
 6732 1930 02       		.uleb128 0x2
 6733 1931 91       		.byte	0x91
 6734 1932 56       		.sleb128 -42
 6735 1933 2C       		.uleb128 0x2c
 6736 1934 7C050000 		.4byte	.LASF208
 6737 1938 01       		.byte	0x1
 6738 1939 8B01     		.2byte	0x18b
 6739 193b B8000000 		.4byte	0xb8
 6740 193f 02       		.uleb128 0x2
 6741 1940 91       		.byte	0x91
 6742 1941 55       		.sleb128 -43
 6743 1942 2A       		.uleb128 0x2a
ARM GAS  /tmp/ccDGRO0L.s 			page 120


 6744 1943 727100   		.ascii	"rq\000"
 6745 1946 01       		.byte	0x1
 6746 1947 8D01     		.2byte	0x18d
 6747 1949 F2140000 		.4byte	0x14f2
 6748 194d 02       		.uleb128 0x2
 6749 194e 91       		.byte	0x91
 6750 194f 60       		.sleb128 -32
 6751 1950 2A       		.uleb128 0x2a
 6752 1951 637000   		.ascii	"cp\000"
 6753 1954 01       		.byte	0x1
 6754 1955 8E01     		.2byte	0x18e
 6755 1957 AF0C0000 		.4byte	0xcaf
 6756 195b 02       		.uleb128 0x2
 6757 195c 91       		.byte	0x91
 6758 195d 5C       		.sleb128 -36
 6759 195e 2B       		.uleb128 0x2b
 6760 195f 57090000 		.4byte	.LASF213
 6761 1963 01       		.byte	0x1
 6762 1964 8F01     		.2byte	0x18f
 6763 1966 B8000000 		.4byte	0xb8
 6764 196a 02       		.uleb128 0x2
 6765 196b 91       		.byte	0x91
 6766 196c 5B       		.sleb128 -37
 6767 196d 00       		.byte	0
 6768 196e 29       		.uleb128 0x29
 6769 196f F30D0000 		.4byte	.LASF365
 6770 1973 01       		.byte	0x1
 6771 1974 A301     		.2byte	0x1a3
 6772 1976 9F000000 		.4byte	0x9f
 6773 197a 10060000 		.4byte	.LFB282
 6774 197e 98000000 		.4byte	.LFE282-.LFB282
 6775 1982 01       		.uleb128 0x1
 6776 1983 9C       		.byte	0x9c
 6777 1984 F1190000 		.4byte	0x19f1
 6778 1988 2C       		.uleb128 0x2c
 6779 1989 B80B0000 		.4byte	.LASF217
 6780 198d 01       		.byte	0x1
 6781 198e A301     		.2byte	0x1a3
 6782 1990 51070000 		.4byte	0x751
 6783 1994 02       		.uleb128 0x2
 6784 1995 91       		.byte	0x91
 6785 1996 4C       		.sleb128 -52
 6786 1997 2C       		.uleb128 0x2c
 6787 1998 690C0000 		.4byte	.LASF218
 6788 199c 01       		.byte	0x1
 6789 199d A301     		.2byte	0x1a3
 6790 199f F1190000 		.4byte	0x19f1
 6791 19a3 02       		.uleb128 0x2
 6792 19a4 91       		.byte	0x91
 6793 19a5 48       		.sleb128 -56
 6794 19a6 2C       		.uleb128 0x2c
 6795 19a7 1B010000 		.4byte	.LASF219
 6796 19ab 01       		.byte	0x1
 6797 19ac A301     		.2byte	0x1a3
 6798 19ae 51070000 		.4byte	0x751
 6799 19b2 02       		.uleb128 0x2
 6800 19b3 91       		.byte	0x91
ARM GAS  /tmp/ccDGRO0L.s 			page 121


 6801 19b4 44       		.sleb128 -60
 6802 19b5 2C       		.uleb128 0x2c
 6803 19b6 EB100000 		.4byte	.LASF220
 6804 19ba 01       		.byte	0x1
 6805 19bb A401     		.2byte	0x1a4
 6806 19bd F1190000 		.4byte	0x19f1
 6807 19c1 02       		.uleb128 0x2
 6808 19c2 91       		.byte	0x91
 6809 19c3 40       		.sleb128 -64
 6810 19c4 2C       		.uleb128 0x2c
 6811 19c5 3D0B0000 		.4byte	.LASF221
 6812 19c9 01       		.byte	0x1
 6813 19ca A401     		.2byte	0x1a4
 6814 19cc F1190000 		.4byte	0x19f1
 6815 19d0 02       		.uleb128 0x2
 6816 19d1 91       		.byte	0x91
 6817 19d2 00       		.sleb128 0
 6818 19d3 2A       		.uleb128 0x2a
 6819 19d4 727100   		.ascii	"rq\000"
 6820 19d7 01       		.byte	0x1
 6821 19d8 A601     		.2byte	0x1a6
 6822 19da F2140000 		.4byte	0x14f2
 6823 19de 02       		.uleb128 0x2
 6824 19df 91       		.byte	0x91
 6825 19e0 60       		.sleb128 -32
 6826 19e1 2B       		.uleb128 0x2b
 6827 19e2 F5160000 		.4byte	.LASF366
 6828 19e6 01       		.byte	0x1
 6829 19e7 A701     		.2byte	0x1a7
 6830 19e9 7B0D0000 		.4byte	0xd7b
 6831 19ed 02       		.uleb128 0x2
 6832 19ee 91       		.byte	0x91
 6833 19ef 54       		.sleb128 -44
 6834 19f0 00       		.byte	0
 6835 19f1 09       		.uleb128 0x9
 6836 19f2 04       		.byte	0x4
 6837 19f3 C3000000 		.4byte	0xc3
 6838 19f7 29       		.uleb128 0x29
 6839 19f8 9E140000 		.4byte	.LASF367
 6840 19fc 01       		.byte	0x1
 6841 19fd C401     		.2byte	0x1c4
 6842 19ff 9F000000 		.4byte	0x9f
 6843 1a03 B0060000 		.4byte	.LFB283
 6844 1a07 7A000000 		.4byte	.LFE283-.LFB283
 6845 1a0b 01       		.uleb128 0x1
 6846 1a0c 9C       		.byte	0x9c
 6847 1a0d 4D1A0000 		.4byte	0x1a4d
 6848 1a11 2C       		.uleb128 0x2c
 6849 1a12 D5100000 		.4byte	.LASF232
 6850 1a16 01       		.byte	0x1
 6851 1a17 C401     		.2byte	0x1c4
 6852 1a19 F1190000 		.4byte	0x19f1
 6853 1a1d 02       		.uleb128 0x2
 6854 1a1e 91       		.byte	0x91
 6855 1a1f 54       		.sleb128 -44
 6856 1a20 2C       		.uleb128 0x2c
 6857 1a21 220C0000 		.4byte	.LASF233
ARM GAS  /tmp/ccDGRO0L.s 			page 122


 6858 1a25 01       		.byte	0x1
 6859 1a26 C401     		.2byte	0x1c4
 6860 1a28 51070000 		.4byte	0x751
 6861 1a2c 02       		.uleb128 0x2
 6862 1a2d 91       		.byte	0x91
 6863 1a2e 50       		.sleb128 -48
 6864 1a2f 2A       		.uleb128 0x2a
 6865 1a30 727100   		.ascii	"rq\000"
 6866 1a33 01       		.byte	0x1
 6867 1a34 C601     		.2byte	0x1c6
 6868 1a36 F2140000 		.4byte	0x14f2
 6869 1a3a 02       		.uleb128 0x2
 6870 1a3b 91       		.byte	0x91
 6871 1a3c 60       		.sleb128 -32
 6872 1a3d 2B       		.uleb128 0x2b
 6873 1a3e F5160000 		.4byte	.LASF366
 6874 1a42 01       		.byte	0x1
 6875 1a43 C701     		.2byte	0x1c7
 6876 1a45 470E0000 		.4byte	0xe47
 6877 1a49 02       		.uleb128 0x2
 6878 1a4a 91       		.byte	0x91
 6879 1a4b 5C       		.sleb128 -36
 6880 1a4c 00       		.byte	0
 6881 1a4d 29       		.uleb128 0x29
 6882 1a4e A3050000 		.4byte	.LASF368
 6883 1a52 01       		.byte	0x1
 6884 1a53 E001     		.2byte	0x1e0
 6885 1a55 9F000000 		.4byte	0x9f
 6886 1a59 30070000 		.4byte	.LFB284
 6887 1a5d B6000000 		.4byte	.LFE284-.LFB284
 6888 1a61 01       		.uleb128 0x1
 6889 1a62 9C       		.byte	0x9c
 6890 1a63 0C1B0000 		.4byte	0x1b0c
 6891 1a67 2C       		.uleb128 0x2c
 6892 1a68 F3010000 		.4byte	.LASF241
 6893 1a6c 01       		.byte	0x1
 6894 1a6d E001     		.2byte	0x1e0
 6895 1a6f C3000000 		.4byte	0xc3
 6896 1a73 02       		.uleb128 0x2
 6897 1a74 91       		.byte	0x91
 6898 1a75 46       		.sleb128 -58
 6899 1a76 2C       		.uleb128 0x2c
 6900 1a77 7A130000 		.4byte	.LASF242
 6901 1a7b 01       		.byte	0x1
 6902 1a7c E001     		.2byte	0x1e0
 6903 1a7e C3000000 		.4byte	0xc3
 6904 1a82 02       		.uleb128 0x2
 6905 1a83 91       		.byte	0x91
 6906 1a84 44       		.sleb128 -60
 6907 1a85 2C       		.uleb128 0x2c
 6908 1a86 A7060000 		.4byte	.LASF243
 6909 1a8a 01       		.byte	0x1
 6910 1a8b E001     		.2byte	0x1e0
 6911 1a8d B8000000 		.4byte	0xb8
 6912 1a91 02       		.uleb128 0x2
 6913 1a92 91       		.byte	0x91
 6914 1a93 43       		.sleb128 -61
ARM GAS  /tmp/ccDGRO0L.s 			page 123


 6915 1a94 2C       		.uleb128 0x2c
 6916 1a95 6F000000 		.4byte	.LASF244
 6917 1a99 01       		.byte	0x1
 6918 1a9a E101     		.2byte	0x1e1
 6919 1a9c B8000000 		.4byte	0xb8
 6920 1aa0 02       		.uleb128 0x2
 6921 1aa1 91       		.byte	0x91
 6922 1aa2 42       		.sleb128 -62
 6923 1aa3 2C       		.uleb128 0x2c
 6924 1aa4 C00D0000 		.4byte	.LASF245
 6925 1aa8 01       		.byte	0x1
 6926 1aa9 E101     		.2byte	0x1e1
 6927 1aab B8000000 		.4byte	0xb8
 6928 1aaf 02       		.uleb128 0x2
 6929 1ab0 91       		.byte	0x91
 6930 1ab1 00       		.sleb128 0
 6931 1ab2 2C       		.uleb128 0x2c
 6932 1ab3 99020000 		.4byte	.LASF246
 6933 1ab7 01       		.byte	0x1
 6934 1ab8 E101     		.2byte	0x1e1
 6935 1aba 050B0000 		.4byte	0xb05
 6936 1abe 02       		.uleb128 0x2
 6937 1abf 91       		.byte	0x91
 6938 1ac0 04       		.sleb128 4
 6939 1ac1 2C       		.uleb128 0x2c
 6940 1ac2 CC060000 		.4byte	.LASF247
 6941 1ac6 01       		.byte	0x1
 6942 1ac7 E101     		.2byte	0x1e1
 6943 1ac9 B8000000 		.4byte	0xb8
 6944 1acd 02       		.uleb128 0x2
 6945 1ace 91       		.byte	0x91
 6946 1acf 08       		.sleb128 8
 6947 1ad0 2C       		.uleb128 0x2c
 6948 1ad1 3B100000 		.4byte	.LASF248
 6949 1ad5 01       		.byte	0x1
 6950 1ad6 E201     		.2byte	0x1e2
 6951 1ad8 B8000000 		.4byte	0xb8
 6952 1adc 02       		.uleb128 0x2
 6953 1add 91       		.byte	0x91
 6954 1ade 0C       		.sleb128 12
 6955 1adf 2A       		.uleb128 0x2a
 6956 1ae0 727100   		.ascii	"rq\000"
 6957 1ae3 01       		.byte	0x1
 6958 1ae4 E401     		.2byte	0x1e4
 6959 1ae6 F2140000 		.4byte	0x14f2
 6960 1aea 02       		.uleb128 0x2
 6961 1aeb 91       		.byte	0x91
 6962 1aec 60       		.sleb128 -32
 6963 1aed 2B       		.uleb128 0x2b
 6964 1aee E30D0000 		.4byte	.LASF369
 6965 1af2 01       		.byte	0x1
 6966 1af3 E501     		.2byte	0x1e5
 6967 1af5 130F0000 		.4byte	0xf13
 6968 1af9 02       		.uleb128 0x2
 6969 1afa 91       		.byte	0x91
 6970 1afb 50       		.sleb128 -48
 6971 1afc 2B       		.uleb128 0x2b
ARM GAS  /tmp/ccDGRO0L.s 			page 124


 6972 1afd 57090000 		.4byte	.LASF213
 6973 1b01 01       		.byte	0x1
 6974 1b02 E601     		.2byte	0x1e6
 6975 1b04 B8000000 		.4byte	0xb8
 6976 1b08 02       		.uleb128 0x2
 6977 1b09 91       		.byte	0x91
 6978 1b0a 4F       		.sleb128 -49
 6979 1b0b 00       		.byte	0
 6980 1b0c 29       		.uleb128 0x29
 6981 1b0d 53010000 		.4byte	.LASF370
 6982 1b11 01       		.byte	0x1
 6983 1b12 0102     		.2byte	0x201
 6984 1b14 9F000000 		.4byte	0x9f
 6985 1b18 F0070000 		.4byte	.LFB285
 6986 1b1c 88000000 		.4byte	.LFE285-.LFB285
 6987 1b20 01       		.uleb128 0x1
 6988 1b21 9C       		.byte	0x9c
 6989 1b22 741B0000 		.4byte	0x1b74
 6990 1b26 2C       		.uleb128 0x2c
 6991 1b27 580F0000 		.4byte	.LASF253
 6992 1b2b 01       		.byte	0x1
 6993 1b2c 0102     		.2byte	0x201
 6994 1b2e B8000000 		.4byte	0xb8
 6995 1b32 03       		.uleb128 0x3
 6996 1b33 91       		.byte	0x91
 6997 1b34 B77F     		.sleb128 -73
 6998 1b36 2C       		.uleb128 0x2c
 6999 1b37 D9080000 		.4byte	.LASF198
 7000 1b3b 01       		.byte	0x1
 7001 1b3c 0102     		.2byte	0x201
 7002 1b3e 050B0000 		.4byte	0xb05
 7003 1b42 03       		.uleb128 0x3
 7004 1b43 91       		.byte	0x91
 7005 1b44 B07F     		.sleb128 -80
 7006 1b46 2A       		.uleb128 0x2a
 7007 1b47 727100   		.ascii	"rq\000"
 7008 1b4a 01       		.byte	0x1
 7009 1b4b 0302     		.2byte	0x203
 7010 1b4d F2140000 		.4byte	0x14f2
 7011 1b51 02       		.uleb128 0x2
 7012 1b52 91       		.byte	0x91
 7013 1b53 60       		.sleb128 -32
 7014 1b54 2B       		.uleb128 0x2b
 7015 1b55 E30D0000 		.4byte	.LASF369
 7016 1b59 01       		.byte	0x1
 7017 1b5a 0402     		.2byte	0x204
 7018 1b5c 830F0000 		.4byte	0xf83
 7019 1b60 02       		.uleb128 0x2
 7020 1b61 91       		.byte	0x91
 7021 1b62 40       		.sleb128 -64
 7022 1b63 2B       		.uleb128 0x2b
 7023 1b64 57090000 		.4byte	.LASF213
 7024 1b68 01       		.byte	0x1
 7025 1b69 0502     		.2byte	0x205
 7026 1b6b B8000000 		.4byte	0xb8
 7027 1b6f 03       		.uleb128 0x3
 7028 1b70 91       		.byte	0x91
ARM GAS  /tmp/ccDGRO0L.s 			page 125


 7029 1b71 BF7F     		.sleb128 -65
 7030 1b73 00       		.byte	0
 7031 1b74 29       		.uleb128 0x29
 7032 1b75 FA160000 		.4byte	.LASF371
 7033 1b79 01       		.byte	0x1
 7034 1b7a 1902     		.2byte	0x219
 7035 1b7c 9F000000 		.4byte	0x9f
 7036 1b80 80080000 		.4byte	.LFB286
 7037 1b84 72000000 		.4byte	.LFE286-.LFB286
 7038 1b88 01       		.uleb128 0x1
 7039 1b89 9C       		.byte	0x9c
 7040 1b8a CA1B0000 		.4byte	0x1bca
 7041 1b8e 2C       		.uleb128 0x2c
 7042 1b8f 10060000 		.4byte	.LASF258
 7043 1b93 01       		.byte	0x1
 7044 1b94 1902     		.2byte	0x219
 7045 1b96 B8000000 		.4byte	0xb8
 7046 1b9a 02       		.uleb128 0x2
 7047 1b9b 91       		.byte	0x91
 7048 1b9c 57       		.sleb128 -41
 7049 1b9d 2A       		.uleb128 0x2a
 7050 1b9e 727100   		.ascii	"rq\000"
 7051 1ba1 01       		.byte	0x1
 7052 1ba2 1B02     		.2byte	0x21b
 7053 1ba4 F2140000 		.4byte	0x14f2
 7054 1ba8 02       		.uleb128 0x2
 7055 1ba9 91       		.byte	0x91
 7056 1baa 60       		.sleb128 -32
 7057 1bab 2B       		.uleb128 0x2b
 7058 1bac E30D0000 		.4byte	.LASF369
 7059 1bb0 01       		.byte	0x1
 7060 1bb1 1C02     		.2byte	0x21c
 7061 1bb3 D70F0000 		.4byte	0xfd7
 7062 1bb7 02       		.uleb128 0x2
 7063 1bb8 91       		.byte	0x91
 7064 1bb9 5C       		.sleb128 -36
 7065 1bba 2B       		.uleb128 0x2b
 7066 1bbb 57090000 		.4byte	.LASF213
 7067 1bbf 01       		.byte	0x1
 7068 1bc0 1D02     		.2byte	0x21d
 7069 1bc2 B8000000 		.4byte	0xb8
 7070 1bc6 02       		.uleb128 0x2
 7071 1bc7 91       		.byte	0x91
 7072 1bc8 5B       		.sleb128 -37
 7073 1bc9 00       		.byte	0
 7074 1bca 29       		.uleb128 0x29
 7075 1bcb 88050000 		.4byte	.LASF372
 7076 1bcf 01       		.byte	0x1
 7077 1bd0 3002     		.2byte	0x230
 7078 1bd2 9F000000 		.4byte	0x9f
 7079 1bd6 00090000 		.4byte	.LFB287
 7080 1bda 92000000 		.4byte	.LFE287-.LFB287
 7081 1bde 01       		.uleb128 0x1
 7082 1bdf 9C       		.byte	0x9c
 7083 1be0 5C1C0000 		.4byte	0x1c5c
 7084 1be4 2C       		.uleb128 0x2c
 7085 1be5 FA130000 		.4byte	.LASF197
ARM GAS  /tmp/ccDGRO0L.s 			page 126


 7086 1be9 01       		.byte	0x1
 7087 1bea 3002     		.2byte	0x230
 7088 1bec B8000000 		.4byte	0xb8
 7089 1bf0 02       		.uleb128 0x2
 7090 1bf1 91       		.byte	0x91
 7091 1bf2 4F       		.sleb128 -49
 7092 1bf3 2C       		.uleb128 0x2c
 7093 1bf4 3B000000 		.4byte	.LASF261
 7094 1bf8 01       		.byte	0x1
 7095 1bf9 3002     		.2byte	0x230
 7096 1bfb C3000000 		.4byte	0xc3
 7097 1bff 02       		.uleb128 0x2
 7098 1c00 91       		.byte	0x91
 7099 1c01 4C       		.sleb128 -52
 7100 1c02 2C       		.uleb128 0x2c
 7101 1c03 CE0A0000 		.4byte	.LASF262
 7102 1c07 01       		.byte	0x1
 7103 1c08 3102     		.2byte	0x231
 7104 1c0a C3000000 		.4byte	0xc3
 7105 1c0e 02       		.uleb128 0x2
 7106 1c0f 91       		.byte	0x91
 7107 1c10 4A       		.sleb128 -54
 7108 1c11 2C       		.uleb128 0x2c
 7109 1c12 6F000000 		.4byte	.LASF244
 7110 1c16 01       		.byte	0x1
 7111 1c17 3102     		.2byte	0x231
 7112 1c19 B8000000 		.4byte	0xb8
 7113 1c1d 02       		.uleb128 0x2
 7114 1c1e 91       		.byte	0x91
 7115 1c1f 4E       		.sleb128 -50
 7116 1c20 2C       		.uleb128 0x2c
 7117 1c21 3B100000 		.4byte	.LASF248
 7118 1c25 01       		.byte	0x1
 7119 1c26 3202     		.2byte	0x232
 7120 1c28 B8000000 		.4byte	0xb8
 7121 1c2c 02       		.uleb128 0x2
 7122 1c2d 91       		.byte	0x91
 7123 1c2e 00       		.sleb128 0
 7124 1c2f 2A       		.uleb128 0x2a
 7125 1c30 727100   		.ascii	"rq\000"
 7126 1c33 01       		.byte	0x1
 7127 1c34 3402     		.2byte	0x234
 7128 1c36 F2140000 		.4byte	0x14f2
 7129 1c3a 02       		.uleb128 0x2
 7130 1c3b 91       		.byte	0x91
 7131 1c3c 60       		.sleb128 -32
 7132 1c3d 2B       		.uleb128 0x2b
 7133 1c3e D50A0000 		.4byte	.LASF373
 7134 1c42 01       		.byte	0x1
 7135 1c43 3502     		.2byte	0x235
 7136 1c45 2B100000 		.4byte	0x102b
 7137 1c49 02       		.uleb128 0x2
 7138 1c4a 91       		.byte	0x91
 7139 1c4b 58       		.sleb128 -40
 7140 1c4c 2B       		.uleb128 0x2b
 7141 1c4d 57090000 		.4byte	.LASF213
 7142 1c51 01       		.byte	0x1
ARM GAS  /tmp/ccDGRO0L.s 			page 127


 7143 1c52 3602     		.2byte	0x236
 7144 1c54 B8000000 		.4byte	0xb8
 7145 1c58 02       		.uleb128 0x2
 7146 1c59 91       		.byte	0x91
 7147 1c5a 57       		.sleb128 -41
 7148 1c5b 00       		.byte	0
 7149 1c5c 29       		.uleb128 0x29
 7150 1c5d 35010000 		.4byte	.LASF374
 7151 1c61 01       		.byte	0x1
 7152 1c62 4D02     		.2byte	0x24d
 7153 1c64 9F000000 		.4byte	0x9f
 7154 1c68 A0090000 		.4byte	.LFB288
 7155 1c6c 80000000 		.4byte	.LFE288-.LFB288
 7156 1c70 01       		.uleb128 0x1
 7157 1c71 9C       		.byte	0x9c
 7158 1c72 C11C0000 		.4byte	0x1cc1
 7159 1c76 2C       		.uleb128 0x2c
 7160 1c77 10060000 		.4byte	.LASF258
 7161 1c7b 01       		.byte	0x1
 7162 1c7c 4D02     		.2byte	0x24d
 7163 1c7e B8000000 		.4byte	0xb8
 7164 1c82 02       		.uleb128 0x2
 7165 1c83 91       		.byte	0x91
 7166 1c84 57       		.sleb128 -41
 7167 1c85 2C       		.uleb128 0x2c
 7168 1c86 A5150000 		.4byte	.LASF265
 7169 1c8a 01       		.byte	0x1
 7170 1c8b 4D02     		.2byte	0x24d
 7171 1c8d B8000000 		.4byte	0xb8
 7172 1c91 02       		.uleb128 0x2
 7173 1c92 91       		.byte	0x91
 7174 1c93 56       		.sleb128 -42
 7175 1c94 2A       		.uleb128 0x2a
 7176 1c95 727100   		.ascii	"rq\000"
 7177 1c98 01       		.byte	0x1
 7178 1c99 4F02     		.2byte	0x24f
 7179 1c9b F2140000 		.4byte	0x14f2
 7180 1c9f 02       		.uleb128 0x2
 7181 1ca0 91       		.byte	0x91
 7182 1ca1 60       		.sleb128 -32
 7183 1ca2 2B       		.uleb128 0x2b
 7184 1ca3 D50A0000 		.4byte	.LASF373
 7185 1ca7 01       		.byte	0x1
 7186 1ca8 5002     		.2byte	0x250
 7187 1caa 5B100000 		.4byte	0x105b
 7188 1cae 02       		.uleb128 0x2
 7189 1caf 91       		.byte	0x91
 7190 1cb0 5C       		.sleb128 -36
 7191 1cb1 2B       		.uleb128 0x2b
 7192 1cb2 57090000 		.4byte	.LASF213
 7193 1cb6 01       		.byte	0x1
 7194 1cb7 5102     		.2byte	0x251
 7195 1cb9 B8000000 		.4byte	0xb8
 7196 1cbd 02       		.uleb128 0x2
 7197 1cbe 91       		.byte	0x91
 7198 1cbf 5B       		.sleb128 -37
 7199 1cc0 00       		.byte	0
ARM GAS  /tmp/ccDGRO0L.s 			page 128


 7200 1cc1 29       		.uleb128 0x29
 7201 1cc2 760F0000 		.4byte	.LASF375
 7202 1cc6 01       		.byte	0x1
 7203 1cc7 6502     		.2byte	0x265
 7204 1cc9 9F000000 		.4byte	0x9f
 7205 1ccd 200A0000 		.4byte	.LFB289
 7206 1cd1 74000000 		.4byte	.LFE289-.LFB289
 7207 1cd5 01       		.uleb128 0x1
 7208 1cd6 9C       		.byte	0x9c
 7209 1cd7 081D0000 		.4byte	0x1d08
 7210 1cdb 2C       		.uleb128 0x2c
 7211 1cdc 10000000 		.4byte	.LASF376
 7212 1ce0 01       		.byte	0x1
 7213 1ce1 6502     		.2byte	0x265
 7214 1ce3 51070000 		.4byte	0x751
 7215 1ce7 02       		.uleb128 0x2
 7216 1ce8 91       		.byte	0x91
 7217 1ce9 4C       		.sleb128 -52
 7218 1cea 2A       		.uleb128 0x2a
 7219 1ceb 727100   		.ascii	"rq\000"
 7220 1cee 01       		.byte	0x1
 7221 1cef 6702     		.2byte	0x267
 7222 1cf1 F2140000 		.4byte	0x14f2
 7223 1cf5 02       		.uleb128 0x2
 7224 1cf6 91       		.byte	0x91
 7225 1cf7 60       		.sleb128 -32
 7226 1cf8 2B       		.uleb128 0x2b
 7227 1cf9 F5160000 		.4byte	.LASF366
 7228 1cfd 01       		.byte	0x1
 7229 1cfe 6802     		.2byte	0x268
 7230 1d00 AA120000 		.4byte	0x12aa
 7231 1d04 02       		.uleb128 0x2
 7232 1d05 91       		.byte	0x91
 7233 1d06 54       		.sleb128 -44
 7234 1d07 00       		.byte	0
 7235 1d08 29       		.uleb128 0x29
 7236 1d09 2A170000 		.4byte	.LASF377
 7237 1d0d 01       		.byte	0x1
 7238 1d0e 8002     		.2byte	0x280
 7239 1d10 9F000000 		.4byte	0x9f
 7240 1d14 A00A0000 		.4byte	.LFB290
 7241 1d18 88000000 		.4byte	.LFE290-.LFB290
 7242 1d1c 01       		.uleb128 0x1
 7243 1d1d 9C       		.byte	0x9c
 7244 1d1e 701D0000 		.4byte	0x1d70
 7245 1d22 2C       		.uleb128 0x2c
 7246 1d23 580F0000 		.4byte	.LASF253
 7247 1d27 01       		.byte	0x1
 7248 1d28 8002     		.2byte	0x280
 7249 1d2a B8000000 		.4byte	0xb8
 7250 1d2e 03       		.uleb128 0x3
 7251 1d2f 91       		.byte	0x91
 7252 1d30 B77F     		.sleb128 -73
 7253 1d32 2C       		.uleb128 0x2c
 7254 1d33 D9080000 		.4byte	.LASF198
 7255 1d37 01       		.byte	0x1
 7256 1d38 8002     		.2byte	0x280
ARM GAS  /tmp/ccDGRO0L.s 			page 129


 7257 1d3a 050B0000 		.4byte	0xb05
 7258 1d3e 03       		.uleb128 0x3
 7259 1d3f 91       		.byte	0x91
 7260 1d40 B07F     		.sleb128 -80
 7261 1d42 2A       		.uleb128 0x2a
 7262 1d43 727100   		.ascii	"rq\000"
 7263 1d46 01       		.byte	0x1
 7264 1d47 8202     		.2byte	0x282
 7265 1d49 F2140000 		.4byte	0x14f2
 7266 1d4d 02       		.uleb128 0x2
 7267 1d4e 91       		.byte	0x91
 7268 1d4f 60       		.sleb128 -32
 7269 1d50 2B       		.uleb128 0x2b
 7270 1d51 CC0C0000 		.4byte	.LASF378
 7271 1d55 01       		.byte	0x1
 7272 1d56 8302     		.2byte	0x283
 7273 1d58 B30F0000 		.4byte	0xfb3
 7274 1d5c 02       		.uleb128 0x2
 7275 1d5d 91       		.byte	0x91
 7276 1d5e 40       		.sleb128 -64
 7277 1d5f 2B       		.uleb128 0x2b
 7278 1d60 57090000 		.4byte	.LASF213
 7279 1d64 01       		.byte	0x1
 7280 1d65 8402     		.2byte	0x284
 7281 1d67 B8000000 		.4byte	0xb8
 7282 1d6b 03       		.uleb128 0x3
 7283 1d6c 91       		.byte	0x91
 7284 1d6d BF7F     		.sleb128 -65
 7285 1d6f 00       		.byte	0
 7286 1d70 29       		.uleb128 0x29
 7287 1d71 E6110000 		.4byte	.LASF379
 7288 1d75 01       		.byte	0x1
 7289 1d76 9802     		.2byte	0x298
 7290 1d78 9F000000 		.4byte	0x9f
 7291 1d7c 300B0000 		.4byte	.LFB291
 7292 1d80 6E000000 		.4byte	.LFE291-.LFB291
 7293 1d84 01       		.uleb128 0x1
 7294 1d85 9C       		.byte	0x9c
 7295 1d86 B71D0000 		.4byte	0x1db7
 7296 1d8a 2C       		.uleb128 0x2c
 7297 1d8b 35090000 		.4byte	.LASF380
 7298 1d8f 01       		.byte	0x1
 7299 1d90 9802     		.2byte	0x298
 7300 1d92 B71D0000 		.4byte	0x1db7
 7301 1d96 02       		.uleb128 0x2
 7302 1d97 91       		.byte	0x91
 7303 1d98 54       		.sleb128 -44
 7304 1d99 2A       		.uleb128 0x2a
 7305 1d9a 727100   		.ascii	"rq\000"
 7306 1d9d 01       		.byte	0x1
 7307 1d9e 9A02     		.2byte	0x29a
 7308 1da0 F2140000 		.4byte	0x14f2
 7309 1da4 02       		.uleb128 0x2
 7310 1da5 91       		.byte	0x91
 7311 1da6 60       		.sleb128 -32
 7312 1da7 2B       		.uleb128 0x2b
 7313 1da8 F5160000 		.4byte	.LASF366
ARM GAS  /tmp/ccDGRO0L.s 			page 130


 7314 1dac 01       		.byte	0x1
 7315 1dad 9B02     		.2byte	0x29b
 7316 1daf 430F0000 		.4byte	0xf43
 7317 1db3 02       		.uleb128 0x2
 7318 1db4 91       		.byte	0x91
 7319 1db5 5C       		.sleb128 -36
 7320 1db6 00       		.byte	0
 7321 1db7 09       		.uleb128 0x9
 7322 1db8 04       		.byte	0x4
 7323 1db9 AD000000 		.4byte	0xad
 7324 1dbd 29       		.uleb128 0x29
 7325 1dbe 31180000 		.4byte	.LASF381
 7326 1dc2 01       		.byte	0x1
 7327 1dc3 B302     		.2byte	0x2b3
 7328 1dc5 9F000000 		.4byte	0x9f
 7329 1dc9 A00B0000 		.4byte	.LFB292
 7330 1dcd 68000000 		.4byte	.LFE292-.LFB292
 7331 1dd1 01       		.uleb128 0x1
 7332 1dd2 9C       		.byte	0x9c
 7333 1dd3 131E0000 		.4byte	0x1e13
 7334 1dd7 2C       		.uleb128 0x2c
 7335 1dd8 63050000 		.4byte	.LASF224
 7336 1ddc 01       		.byte	0x1
 7337 1ddd B302     		.2byte	0x2b3
 7338 1ddf 51070000 		.4byte	0x751
 7339 1de3 02       		.uleb128 0x2
 7340 1de4 91       		.byte	0x91
 7341 1de5 4C       		.sleb128 -52
 7342 1de6 2A       		.uleb128 0x2a
 7343 1de7 727100   		.ascii	"rq\000"
 7344 1dea 01       		.byte	0x1
 7345 1deb B502     		.2byte	0x2b5
 7346 1ded F2140000 		.4byte	0x14f2
 7347 1df1 02       		.uleb128 0x2
 7348 1df2 91       		.byte	0x91
 7349 1df3 60       		.sleb128 -32
 7350 1df4 2B       		.uleb128 0x2b
 7351 1df5 AD120000 		.4byte	.LASF382
 7352 1df9 01       		.byte	0x1
 7353 1dfa B602     		.2byte	0x2b6
 7354 1dfc 9B0E0000 		.4byte	0xe9b
 7355 1e00 02       		.uleb128 0x2
 7356 1e01 91       		.byte	0x91
 7357 1e02 58       		.sleb128 -40
 7358 1e03 2B       		.uleb128 0x2b
 7359 1e04 57090000 		.4byte	.LASF213
 7360 1e08 01       		.byte	0x1
 7361 1e09 B702     		.2byte	0x2b7
 7362 1e0b B8000000 		.4byte	0xb8
 7363 1e0f 02       		.uleb128 0x2
 7364 1e10 91       		.byte	0x91
 7365 1e11 57       		.sleb128 -41
 7366 1e12 00       		.byte	0
 7367 1e13 29       		.uleb128 0x29
 7368 1e14 10030000 		.4byte	.LASF383
 7369 1e18 01       		.byte	0x1
 7370 1e19 CA02     		.2byte	0x2ca
ARM GAS  /tmp/ccDGRO0L.s 			page 131


 7371 1e1b 9F000000 		.4byte	0x9f
 7372 1e1f 100C0000 		.4byte	.LFB293
 7373 1e23 74000000 		.4byte	.LFE293-.LFB293
 7374 1e27 01       		.uleb128 0x1
 7375 1e28 9C       		.byte	0x9c
 7376 1e29 5A1E0000 		.4byte	0x1e5a
 7377 1e2d 2C       		.uleb128 0x2c
 7378 1e2e 63050000 		.4byte	.LASF224
 7379 1e32 01       		.byte	0x1
 7380 1e33 CA02     		.2byte	0x2ca
 7381 1e35 51070000 		.4byte	0x751
 7382 1e39 02       		.uleb128 0x2
 7383 1e3a 91       		.byte	0x91
 7384 1e3b 54       		.sleb128 -44
 7385 1e3c 2A       		.uleb128 0x2a
 7386 1e3d 727100   		.ascii	"rq\000"
 7387 1e40 01       		.byte	0x1
 7388 1e41 CC02     		.2byte	0x2cc
 7389 1e43 F2140000 		.4byte	0x14f2
 7390 1e47 02       		.uleb128 0x2
 7391 1e48 91       		.byte	0x91
 7392 1e49 60       		.sleb128 -32
 7393 1e4a 2B       		.uleb128 0x2b
 7394 1e4b F5160000 		.4byte	.LASF366
 7395 1e4f 01       		.byte	0x1
 7396 1e50 CD02     		.2byte	0x2cd
 7397 1e52 AB0D0000 		.4byte	0xdab
 7398 1e56 02       		.uleb128 0x2
 7399 1e57 91       		.byte	0x91
 7400 1e58 58       		.sleb128 -40
 7401 1e59 00       		.byte	0
 7402 1e5a 29       		.uleb128 0x29
 7403 1e5b 8B160000 		.4byte	.LASF384
 7404 1e5f 01       		.byte	0x1
 7405 1e60 E402     		.2byte	0x2e4
 7406 1e62 9F000000 		.4byte	0x9f
 7407 1e66 900C0000 		.4byte	.LFB294
 7408 1e6a D4000000 		.4byte	.LFE294-.LFB294
 7409 1e6e 01       		.uleb128 0x1
 7410 1e6f 9C       		.byte	0x9c
 7411 1e70 591F0000 		.4byte	0x1f59
 7412 1e74 2C       		.uleb128 0x2c
 7413 1e75 3B000000 		.4byte	.LASF261
 7414 1e79 01       		.byte	0x1
 7415 1e7a E402     		.2byte	0x2e4
 7416 1e7c C3000000 		.4byte	0xc3
 7417 1e80 03       		.uleb128 0x3
 7418 1e81 91       		.byte	0x91
 7419 1e82 BE7F     		.sleb128 -66
 7420 1e84 2C       		.uleb128 0x2c
 7421 1e85 CE0A0000 		.4byte	.LASF262
 7422 1e89 01       		.byte	0x1
 7423 1e8a E402     		.2byte	0x2e4
 7424 1e8c C3000000 		.4byte	0xc3
 7425 1e90 03       		.uleb128 0x3
 7426 1e91 91       		.byte	0x91
 7427 1e92 BC7F     		.sleb128 -68
ARM GAS  /tmp/ccDGRO0L.s 			page 132


 7428 1e94 2C       		.uleb128 0x2c
 7429 1e95 760C0000 		.4byte	.LASF268
 7430 1e99 01       		.byte	0x1
 7431 1e9a E402     		.2byte	0x2e4
 7432 1e9c B8000000 		.4byte	0xb8
 7433 1ea0 03       		.uleb128 0x3
 7434 1ea1 91       		.byte	0x91
 7435 1ea2 BB7F     		.sleb128 -69
 7436 1ea4 2C       		.uleb128 0x2c
 7437 1ea5 E10B0000 		.4byte	.LASF269
 7438 1ea9 01       		.byte	0x1
 7439 1eaa E402     		.2byte	0x2e4
 7440 1eac B8000000 		.4byte	0xb8
 7441 1eb0 03       		.uleb128 0x3
 7442 1eb1 91       		.byte	0x91
 7443 1eb2 BA7F     		.sleb128 -70
 7444 1eb4 2C       		.uleb128 0x2c
 7445 1eb5 FF130000 		.4byte	.LASF270
 7446 1eb9 01       		.byte	0x1
 7447 1eba E502     		.2byte	0x2e5
 7448 1ebc 050B0000 		.4byte	0xb05
 7449 1ec0 02       		.uleb128 0x2
 7450 1ec1 91       		.byte	0x91
 7451 1ec2 00       		.sleb128 0
 7452 1ec3 2C       		.uleb128 0x2c
 7453 1ec4 6F000000 		.4byte	.LASF244
 7454 1ec8 01       		.byte	0x1
 7455 1ec9 E502     		.2byte	0x2e5
 7456 1ecb B8000000 		.4byte	0xb8
 7457 1ecf 02       		.uleb128 0x2
 7458 1ed0 91       		.byte	0x91
 7459 1ed1 04       		.sleb128 4
 7460 1ed2 2C       		.uleb128 0x2c
 7461 1ed3 F3010000 		.4byte	.LASF241
 7462 1ed7 01       		.byte	0x1
 7463 1ed8 E502     		.2byte	0x2e5
 7464 1eda C3000000 		.4byte	0xc3
 7465 1ede 02       		.uleb128 0x2
 7466 1edf 91       		.byte	0x91
 7467 1ee0 08       		.sleb128 8
 7468 1ee1 2C       		.uleb128 0x2c
 7469 1ee2 7A130000 		.4byte	.LASF242
 7470 1ee6 01       		.byte	0x1
 7471 1ee7 E502     		.2byte	0x2e5
 7472 1ee9 C3000000 		.4byte	0xc3
 7473 1eed 02       		.uleb128 0x2
 7474 1eee 91       		.byte	0x91
 7475 1eef 0C       		.sleb128 12
 7476 1ef0 2C       		.uleb128 0x2c
 7477 1ef1 350B0000 		.4byte	.LASF271
 7478 1ef5 01       		.byte	0x1
 7479 1ef6 E602     		.2byte	0x2e6
 7480 1ef8 C3000000 		.4byte	0xc3
 7481 1efc 02       		.uleb128 0x2
 7482 1efd 91       		.byte	0x91
 7483 1efe 10       		.sleb128 16
 7484 1eff 2C       		.uleb128 0x2c
ARM GAS  /tmp/ccDGRO0L.s 			page 133


 7485 1f00 5F100000 		.4byte	.LASF272
 7486 1f04 01       		.byte	0x1
 7487 1f05 E602     		.2byte	0x2e6
 7488 1f07 C3000000 		.4byte	0xc3
 7489 1f0b 02       		.uleb128 0x2
 7490 1f0c 91       		.byte	0x91
 7491 1f0d 14       		.sleb128 20
 7492 1f0e 2C       		.uleb128 0x2c
 7493 1f0f AA130000 		.4byte	.LASF273
 7494 1f13 01       		.byte	0x1
 7495 1f14 E602     		.2byte	0x2e6
 7496 1f16 C3000000 		.4byte	0xc3
 7497 1f1a 02       		.uleb128 0x2
 7498 1f1b 91       		.byte	0x91
 7499 1f1c 18       		.sleb128 24
 7500 1f1d 2C       		.uleb128 0x2c
 7501 1f1e 640B0000 		.4byte	.LASF274
 7502 1f22 01       		.byte	0x1
 7503 1f23 E602     		.2byte	0x2e6
 7504 1f25 C3000000 		.4byte	0xc3
 7505 1f29 02       		.uleb128 0x2
 7506 1f2a 91       		.byte	0x91
 7507 1f2b 1C       		.sleb128 28
 7508 1f2c 2A       		.uleb128 0x2a
 7509 1f2d 727100   		.ascii	"rq\000"
 7510 1f30 01       		.byte	0x1
 7511 1f31 E802     		.2byte	0x2e8
 7512 1f33 F2140000 		.4byte	0x14f2
 7513 1f37 02       		.uleb128 0x2
 7514 1f38 91       		.byte	0x91
 7515 1f39 60       		.sleb128 -32
 7516 1f3a 2B       		.uleb128 0x2b
 7517 1f3b D2170000 		.4byte	.LASF385
 7518 1f3f 01       		.byte	0x1
 7519 1f40 E902     		.2byte	0x2e9
 7520 1f42 03110000 		.4byte	0x1103
 7521 1f46 02       		.uleb128 0x2
 7522 1f47 91       		.byte	0x91
 7523 1f48 44       		.sleb128 -60
 7524 1f49 2B       		.uleb128 0x2b
 7525 1f4a 57090000 		.4byte	.LASF213
 7526 1f4e 01       		.byte	0x1
 7527 1f4f EA02     		.2byte	0x2ea
 7528 1f51 B8000000 		.4byte	0xb8
 7529 1f55 02       		.uleb128 0x2
 7530 1f56 91       		.byte	0x91
 7531 1f57 43       		.sleb128 -61
 7532 1f58 00       		.byte	0
 7533 1f59 29       		.uleb128 0x29
 7534 1f5a C0160000 		.4byte	.LASF386
 7535 1f5e 01       		.byte	0x1
 7536 1f5f 0903     		.2byte	0x309
 7537 1f61 9F000000 		.4byte	0x9f
 7538 1f65 700D0000 		.4byte	.LFB295
 7539 1f69 46000000 		.4byte	.LFE295-.LFB295
 7540 1f6d 01       		.uleb128 0x1
 7541 1f6e 9C       		.byte	0x9c
ARM GAS  /tmp/ccDGRO0L.s 			page 134


 7542 1f6f 911F0000 		.4byte	0x1f91
 7543 1f73 2A       		.uleb128 0x2a
 7544 1f74 727100   		.ascii	"rq\000"
 7545 1f77 01       		.byte	0x1
 7546 1f78 0B03     		.2byte	0x30b
 7547 1f7a F2140000 		.4byte	0x14f2
 7548 1f7e 02       		.uleb128 0x2
 7549 1f7f 91       		.byte	0x91
 7550 1f80 60       		.sleb128 -32
 7551 1f81 2B       		.uleb128 0x2b
 7552 1f82 57090000 		.4byte	.LASF213
 7553 1f86 01       		.byte	0x1
 7554 1f87 0C03     		.2byte	0x30c
 7555 1f89 B8000000 		.4byte	0xb8
 7556 1f8d 02       		.uleb128 0x2
 7557 1f8e 91       		.byte	0x91
 7558 1f8f 5F       		.sleb128 -33
 7559 1f90 00       		.byte	0
 7560 1f91 29       		.uleb128 0x29
 7561 1f92 460C0000 		.4byte	.LASF387
 7562 1f96 01       		.byte	0x1
 7563 1f97 1A03     		.2byte	0x31a
 7564 1f99 9F000000 		.4byte	0x9f
 7565 1f9d C00D0000 		.4byte	.LFB296
 7566 1fa1 92000000 		.4byte	.LFE296-.LFB296
 7567 1fa5 01       		.uleb128 0x1
 7568 1fa6 9C       		.byte	0x9c
 7569 1fa7 09200000 		.4byte	0x2009
 7570 1fab 2D       		.uleb128 0x2d
 7571 1fac 6B657900 		.ascii	"key\000"
 7572 1fb0 01       		.byte	0x1
 7573 1fb1 1A03     		.2byte	0x31a
 7574 1fb3 51070000 		.4byte	0x751
 7575 1fb7 03       		.uleb128 0x3
 7576 1fb8 91       		.byte	0x91
 7577 1fb9 A47F     		.sleb128 -92
 7578 1fbb 2C       		.uleb128 0x2c
 7579 1fbc E1050000 		.4byte	.LASF388
 7580 1fc0 01       		.byte	0x1
 7581 1fc1 1A03     		.2byte	0x31a
 7582 1fc3 51070000 		.4byte	0x751
 7583 1fc7 03       		.uleb128 0x3
 7584 1fc8 91       		.byte	0x91
 7585 1fc9 A07F     		.sleb128 -96
 7586 1fcb 2C       		.uleb128 0x2c
 7587 1fcc 2A0A0000 		.4byte	.LASF389
 7588 1fd0 01       		.byte	0x1
 7589 1fd1 1A03     		.2byte	0x31a
 7590 1fd3 51070000 		.4byte	0x751
 7591 1fd7 03       		.uleb128 0x3
 7592 1fd8 91       		.byte	0x91
 7593 1fd9 9C7F     		.sleb128 -100
 7594 1fdb 2A       		.uleb128 0x2a
 7595 1fdc 727100   		.ascii	"rq\000"
 7596 1fdf 01       		.byte	0x1
 7597 1fe0 1C03     		.2byte	0x31c
 7598 1fe2 F2140000 		.4byte	0x14f2
ARM GAS  /tmp/ccDGRO0L.s 			page 135


 7599 1fe6 02       		.uleb128 0x2
 7600 1fe7 91       		.byte	0x91
 7601 1fe8 60       		.sleb128 -32
 7602 1fe9 2B       		.uleb128 0x2b
 7603 1fea 34000000 		.4byte	.LASF390
 7604 1fee 01       		.byte	0x1
 7605 1fef 1D03     		.2byte	0x31d
 7606 1ff1 42120000 		.4byte	0x1242
 7607 1ff5 02       		.uleb128 0x2
 7608 1ff6 91       		.byte	0x91
 7609 1ff7 40       		.sleb128 -64
 7610 1ff8 2B       		.uleb128 0x2b
 7611 1ff9 F5160000 		.4byte	.LASF366
 7612 1ffd 01       		.byte	0x1
 7613 1ffe 1E03     		.2byte	0x31e
 7614 2000 76120000 		.4byte	0x1276
 7615 2004 03       		.uleb128 0x3
 7616 2005 91       		.byte	0x91
 7617 2006 AC7F     		.sleb128 -84
 7618 2008 00       		.byte	0
 7619 2009 29       		.uleb128 0x29
 7620 200a B6140000 		.4byte	.LASF391
 7621 200e 01       		.byte	0x1
 7622 200f 3A03     		.2byte	0x33a
 7623 2011 9F000000 		.4byte	0x9f
 7624 2015 600E0000 		.4byte	.LFB297
 7625 2019 6E000000 		.4byte	.LFE297-.LFB297
 7626 201d 01       		.uleb128 0x1
 7627 201e 9C       		.byte	0x9c
 7628 201f 5F200000 		.4byte	0x205f
 7629 2023 2D       		.uleb128 0x2d
 7630 2024 6B657900 		.ascii	"key\000"
 7631 2028 01       		.byte	0x1
 7632 2029 3A03     		.2byte	0x33a
 7633 202b 51070000 		.4byte	0x751
 7634 202f 02       		.uleb128 0x2
 7635 2030 91       		.byte	0x91
 7636 2031 44       		.sleb128 -60
 7637 2032 2A       		.uleb128 0x2a
 7638 2033 727100   		.ascii	"rq\000"
 7639 2036 01       		.byte	0x1
 7640 2037 3C03     		.2byte	0x33c
 7641 2039 F2140000 		.4byte	0x14f2
 7642 203d 02       		.uleb128 0x2
 7643 203e 91       		.byte	0x91
 7644 203f 60       		.sleb128 -32
 7645 2040 2B       		.uleb128 0x2b
 7646 2041 34000000 		.4byte	.LASF390
 7647 2045 01       		.byte	0x1
 7648 2046 3D03     		.2byte	0x33d
 7649 2048 DE120000 		.4byte	0x12de
 7650 204c 02       		.uleb128 0x2
 7651 204d 91       		.byte	0x91
 7652 204e 4C       		.sleb128 -52
 7653 204f 2B       		.uleb128 0x2b
 7654 2050 F5160000 		.4byte	.LASF366
 7655 2054 01       		.byte	0x1
ARM GAS  /tmp/ccDGRO0L.s 			page 136


 7656 2055 3E03     		.2byte	0x33e
 7657 2057 12130000 		.4byte	0x1312
 7658 205b 02       		.uleb128 0x2
 7659 205c 91       		.byte	0x91
 7660 205d 48       		.sleb128 -56
 7661 205e 00       		.byte	0
 7662 205f 29       		.uleb128 0x29
 7663 2060 5E170000 		.4byte	.LASF392
 7664 2064 01       		.byte	0x1
 7665 2065 5303     		.2byte	0x353
 7666 2067 9F000000 		.4byte	0x9f
 7667 206b D00E0000 		.4byte	.LFB298
 7668 206f 5E000000 		.4byte	.LFE298-.LFB298
 7669 2073 01       		.uleb128 0x1
 7670 2074 9C       		.byte	0x9c
 7671 2075 A6200000 		.4byte	0x20a6
 7672 2079 2A       		.uleb128 0x2a
 7673 207a 727100   		.ascii	"rq\000"
 7674 207d 01       		.byte	0x1
 7675 207e 5503     		.2byte	0x355
 7676 2080 F2140000 		.4byte	0x14f2
 7677 2084 02       		.uleb128 0x2
 7678 2085 91       		.byte	0x91
 7679 2086 60       		.sleb128 -32
 7680 2087 2B       		.uleb128 0x2b
 7681 2088 34000000 		.4byte	.LASF390
 7682 208c 01       		.byte	0x1
 7683 208d 5603     		.2byte	0x356
 7684 208f 39130000 		.4byte	0x1339
 7685 2093 02       		.uleb128 0x2
 7686 2094 91       		.byte	0x91
 7687 2095 5C       		.sleb128 -36
 7688 2096 2B       		.uleb128 0x2b
 7689 2097 F5160000 		.4byte	.LASF366
 7690 209b 01       		.byte	0x1
 7691 209c 5703     		.2byte	0x357
 7692 209e 6D130000 		.4byte	0x136d
 7693 20a2 02       		.uleb128 0x2
 7694 20a3 91       		.byte	0x91
 7695 20a4 58       		.sleb128 -40
 7696 20a5 00       		.byte	0
 7697 20a6 29       		.uleb128 0x29
 7698 20a7 BE040000 		.4byte	.LASF393
 7699 20ab 01       		.byte	0x1
 7700 20ac 6B03     		.2byte	0x36b
 7701 20ae 9F000000 		.4byte	0x9f
 7702 20b2 300F0000 		.4byte	.LFB299
 7703 20b6 66000000 		.4byte	.LFE299-.LFB299
 7704 20ba 01       		.uleb128 0x1
 7705 20bb 9C       		.byte	0x9c
 7706 20bc ED200000 		.4byte	0x20ed
 7707 20c0 2C       		.uleb128 0x2c
 7708 20c1 550C0000 		.4byte	.LASF277
 7709 20c5 01       		.byte	0x1
 7710 20c6 6B03     		.2byte	0x36b
 7711 20c8 51070000 		.4byte	0x751
 7712 20cc 02       		.uleb128 0x2
ARM GAS  /tmp/ccDGRO0L.s 			page 137


 7713 20cd 91       		.byte	0x91
 7714 20ce 54       		.sleb128 -44
 7715 20cf 2A       		.uleb128 0x2a
 7716 20d0 727100   		.ascii	"rq\000"
 7717 20d3 01       		.byte	0x1
 7718 20d4 6D03     		.2byte	0x36d
 7719 20d6 F2140000 		.4byte	0x14f2
 7720 20da 02       		.uleb128 0x2
 7721 20db 91       		.byte	0x91
 7722 20dc 60       		.sleb128 -32
 7723 20dd 2B       		.uleb128 0x2b
 7724 20de F5160000 		.4byte	.LASF366
 7725 20e2 01       		.byte	0x1
 7726 20e3 6E03     		.2byte	0x36e
 7727 20e5 33110000 		.4byte	0x1133
 7728 20e9 02       		.uleb128 0x2
 7729 20ea 91       		.byte	0x91
 7730 20eb 5C       		.sleb128 -36
 7731 20ec 00       		.byte	0
 7732 20ed 29       		.uleb128 0x29
 7733 20ee 940B0000 		.4byte	.LASF394
 7734 20f2 01       		.byte	0x1
 7735 20f3 8503     		.2byte	0x385
 7736 20f5 9F000000 		.4byte	0x9f
 7737 20f9 A00F0000 		.4byte	.LFB300
 7738 20fd 46000000 		.4byte	.LFE300-.LFB300
 7739 2101 01       		.uleb128 0x1
 7740 2102 9C       		.byte	0x9c
 7741 2103 25210000 		.4byte	0x2125
 7742 2107 2A       		.uleb128 0x2a
 7743 2108 727100   		.ascii	"rq\000"
 7744 210b 01       		.byte	0x1
 7745 210c 8703     		.2byte	0x387
 7746 210e F2140000 		.4byte	0x14f2
 7747 2112 02       		.uleb128 0x2
 7748 2113 91       		.byte	0x91
 7749 2114 60       		.sleb128 -32
 7750 2115 2B       		.uleb128 0x2b
 7751 2116 57090000 		.4byte	.LASF213
 7752 211a 01       		.byte	0x1
 7753 211b 8803     		.2byte	0x388
 7754 211d B8000000 		.4byte	0xb8
 7755 2121 02       		.uleb128 0x2
 7756 2122 91       		.byte	0x91
 7757 2123 5F       		.sleb128 -33
 7758 2124 00       		.byte	0
 7759 2125 29       		.uleb128 0x29
 7760 2126 590A0000 		.4byte	.LASF395
 7761 212a 01       		.byte	0x1
 7762 212b 9703     		.2byte	0x397
 7763 212d 9F000000 		.4byte	0x9f
 7764 2131 F00F0000 		.4byte	.LFB301
 7765 2135 6C000000 		.4byte	.LFE301-.LFB301
 7766 2139 01       		.uleb128 0x1
 7767 213a 9C       		.byte	0x9c
 7768 213b 8A210000 		.4byte	0x218a
 7769 213f 2C       		.uleb128 0x2c
ARM GAS  /tmp/ccDGRO0L.s 			page 138


 7770 2140 48150000 		.4byte	.LASF280
 7771 2144 01       		.byte	0x1
 7772 2145 9703     		.2byte	0x397
 7773 2147 B8000000 		.4byte	0xb8
 7774 214b 02       		.uleb128 0x2
 7775 214c 91       		.byte	0x91
 7776 214d 4F       		.sleb128 -49
 7777 214e 2C       		.uleb128 0x2c
 7778 214f 63050000 		.4byte	.LASF224
 7779 2153 01       		.byte	0x1
 7780 2154 9703     		.2byte	0x397
 7781 2156 51070000 		.4byte	0x751
 7782 215a 02       		.uleb128 0x2
 7783 215b 91       		.byte	0x91
 7784 215c 48       		.sleb128 -56
 7785 215d 2A       		.uleb128 0x2a
 7786 215e 727100   		.ascii	"rq\000"
 7787 2161 01       		.byte	0x1
 7788 2162 9903     		.2byte	0x399
 7789 2164 F2140000 		.4byte	0x14f2
 7790 2168 02       		.uleb128 0x2
 7791 2169 91       		.byte	0x91
 7792 216a 60       		.sleb128 -32
 7793 216b 2B       		.uleb128 0x2b
 7794 216c 34000000 		.4byte	.LASF390
 7795 2170 01       		.byte	0x1
 7796 2171 9A03     		.2byte	0x39a
 7797 2173 63110000 		.4byte	0x1163
 7798 2177 02       		.uleb128 0x2
 7799 2178 91       		.byte	0x91
 7800 2179 58       		.sleb128 -40
 7801 217a 2B       		.uleb128 0x2b
 7802 217b 57090000 		.4byte	.LASF213
 7803 217f 01       		.byte	0x1
 7804 2180 9B03     		.2byte	0x39b
 7805 2182 B8000000 		.4byte	0xb8
 7806 2186 02       		.uleb128 0x2
 7807 2187 91       		.byte	0x91
 7808 2188 57       		.sleb128 -41
 7809 2189 00       		.byte	0
 7810 218a 29       		.uleb128 0x29
 7811 218b FD0B0000 		.4byte	.LASF396
 7812 218f 01       		.byte	0x1
 7813 2190 AF03     		.2byte	0x3af
 7814 2192 9F000000 		.4byte	0x9f
 7815 2196 60100000 		.4byte	.LFB302
 7816 219a 6C000000 		.4byte	.LFE302-.LFB302
 7817 219e 01       		.uleb128 0x1
 7818 219f 9C       		.byte	0x9c
 7819 21a0 EF210000 		.4byte	0x21ef
 7820 21a4 2C       		.uleb128 0x2c
 7821 21a5 48150000 		.4byte	.LASF280
 7822 21a9 01       		.byte	0x1
 7823 21aa AF03     		.2byte	0x3af
 7824 21ac B8000000 		.4byte	0xb8
 7825 21b0 02       		.uleb128 0x2
 7826 21b1 91       		.byte	0x91
ARM GAS  /tmp/ccDGRO0L.s 			page 139


 7827 21b2 4F       		.sleb128 -49
 7828 21b3 2C       		.uleb128 0x2c
 7829 21b4 63050000 		.4byte	.LASF224
 7830 21b8 01       		.byte	0x1
 7831 21b9 AF03     		.2byte	0x3af
 7832 21bb 51070000 		.4byte	0x751
 7833 21bf 02       		.uleb128 0x2
 7834 21c0 91       		.byte	0x91
 7835 21c1 48       		.sleb128 -56
 7836 21c2 2A       		.uleb128 0x2a
 7837 21c3 727100   		.ascii	"rq\000"
 7838 21c6 01       		.byte	0x1
 7839 21c7 B103     		.2byte	0x3b1
 7840 21c9 F2140000 		.4byte	0x14f2
 7841 21cd 02       		.uleb128 0x2
 7842 21ce 91       		.byte	0x91
 7843 21cf 60       		.sleb128 -32
 7844 21d0 2B       		.uleb128 0x2b
 7845 21d1 34000000 		.4byte	.LASF390
 7846 21d5 01       		.byte	0x1
 7847 21d6 B203     		.2byte	0x3b2
 7848 21d8 96110000 		.4byte	0x1196
 7849 21dc 02       		.uleb128 0x2
 7850 21dd 91       		.byte	0x91
 7851 21de 58       		.sleb128 -40
 7852 21df 2B       		.uleb128 0x2b
 7853 21e0 57090000 		.4byte	.LASF213
 7854 21e4 01       		.byte	0x1
 7855 21e5 B303     		.2byte	0x3b3
 7856 21e7 B8000000 		.4byte	0xb8
 7857 21eb 02       		.uleb128 0x2
 7858 21ec 91       		.byte	0x91
 7859 21ed 57       		.sleb128 -41
 7860 21ee 00       		.byte	0
 7861 21ef 29       		.uleb128 0x29
 7862 21f0 B4170000 		.4byte	.LASF397
 7863 21f4 01       		.byte	0x1
 7864 21f5 C703     		.2byte	0x3c7
 7865 21f7 9F000000 		.4byte	0x9f
 7866 21fb D0100000 		.4byte	.LFB303
 7867 21ff 90000000 		.4byte	.LFE303-.LFB303
 7868 2203 01       		.uleb128 0x1
 7869 2204 9C       		.byte	0x9c
 7870 2205 63220000 		.4byte	0x2263
 7871 2209 2C       		.uleb128 0x2c
 7872 220a 77160000 		.4byte	.LASF398
 7873 220e 01       		.byte	0x1
 7874 220f C703     		.2byte	0x3c7
 7875 2211 F1190000 		.4byte	0x19f1
 7876 2215 02       		.uleb128 0x2
 7877 2216 91       		.byte	0x91
 7878 2217 54       		.sleb128 -44
 7879 2218 2C       		.uleb128 0x2c
 7880 2219 FA130000 		.4byte	.LASF197
 7881 221d 01       		.byte	0x1
 7882 221e C703     		.2byte	0x3c7
 7883 2220 B8000000 		.4byte	0xb8
ARM GAS  /tmp/ccDGRO0L.s 			page 140


 7884 2224 02       		.uleb128 0x2
 7885 2225 91       		.byte	0x91
 7886 2226 53       		.sleb128 -45
 7887 2227 2C       		.uleb128 0x2c
 7888 2228 73020000 		.4byte	.LASF399
 7889 222c 01       		.byte	0x1
 7890 222d C703     		.2byte	0x3c7
 7891 222f B71D0000 		.4byte	0x1db7
 7892 2233 02       		.uleb128 0x2
 7893 2234 91       		.byte	0x91
 7894 2235 4C       		.sleb128 -52
 7895 2236 2A       		.uleb128 0x2a
 7896 2237 727100   		.ascii	"rq\000"
 7897 223a 01       		.byte	0x1
 7898 223b C903     		.2byte	0x3c9
 7899 223d F2140000 		.4byte	0x14f2
 7900 2241 02       		.uleb128 0x2
 7901 2242 91       		.byte	0x91
 7902 2243 60       		.sleb128 -32
 7903 2244 2B       		.uleb128 0x2b
 7904 2245 34000000 		.4byte	.LASF390
 7905 2249 01       		.byte	0x1
 7906 224a CA03     		.2byte	0x3ca
 7907 224c DF0C0000 		.4byte	0xcdf
 7908 2250 02       		.uleb128 0x2
 7909 2251 91       		.byte	0x91
 7910 2252 5C       		.sleb128 -36
 7911 2253 2B       		.uleb128 0x2b
 7912 2254 F5160000 		.4byte	.LASF366
 7913 2258 01       		.byte	0x1
 7914 2259 CB03     		.2byte	0x3cb
 7915 225b 1B0D0000 		.4byte	0xd1b
 7916 225f 02       		.uleb128 0x2
 7917 2260 91       		.byte	0x91
 7918 2261 58       		.sleb128 -40
 7919 2262 00       		.byte	0
 7920 2263 29       		.uleb128 0x29
 7921 2264 DD100000 		.4byte	.LASF400
 7922 2268 01       		.byte	0x1
 7923 2269 E803     		.2byte	0x3e8
 7924 226b 9F000000 		.4byte	0x9f
 7925 226f 60110000 		.4byte	.LFB304
 7926 2273 82000000 		.4byte	.LFE304-.LFB304
 7927 2277 01       		.uleb128 0x1
 7928 2278 9C       		.byte	0x9c
 7929 2279 C8220000 		.4byte	0x22c8
 7930 227d 2C       		.uleb128 0x2c
 7931 227e 77160000 		.4byte	.LASF398
 7932 2282 01       		.byte	0x1
 7933 2283 E803     		.2byte	0x3e8
 7934 2285 F1190000 		.4byte	0x19f1
 7935 2289 02       		.uleb128 0x2
 7936 228a 91       		.byte	0x91
 7937 228b 54       		.sleb128 -44
 7938 228c 2C       		.uleb128 0x2c
 7939 228d C20C0000 		.4byte	.LASF229
 7940 2291 01       		.byte	0x1
ARM GAS  /tmp/ccDGRO0L.s 			page 141


 7941 2292 E803     		.2byte	0x3e8
 7942 2294 B71D0000 		.4byte	0x1db7
 7943 2298 02       		.uleb128 0x2
 7944 2299 91       		.byte	0x91
 7945 229a 50       		.sleb128 -48
 7946 229b 2A       		.uleb128 0x2a
 7947 229c 727100   		.ascii	"rq\000"
 7948 229f 01       		.byte	0x1
 7949 22a0 EA03     		.2byte	0x3ea
 7950 22a2 F2140000 		.4byte	0x14f2
 7951 22a6 02       		.uleb128 0x2
 7952 22a7 91       		.byte	0x91
 7953 22a8 60       		.sleb128 -32
 7954 22a9 2B       		.uleb128 0x2b
 7955 22aa 34000000 		.4byte	.LASF390
 7956 22ae 01       		.byte	0x1
 7957 22af EB03     		.2byte	0x3eb
 7958 22b1 CF0D0000 		.4byte	0xdcf
 7959 22b5 02       		.uleb128 0x2
 7960 22b6 91       		.byte	0x91
 7961 22b7 5C       		.sleb128 -36
 7962 22b8 2B       		.uleb128 0x2b
 7963 22b9 F5160000 		.4byte	.LASF366
 7964 22bd 01       		.byte	0x1
 7965 22be EC03     		.2byte	0x3ec
 7966 22c0 0B0E0000 		.4byte	0xe0b
 7967 22c4 02       		.uleb128 0x2
 7968 22c5 91       		.byte	0x91
 7969 22c6 58       		.sleb128 -40
 7970 22c7 00       		.byte	0
 7971 22c8 29       		.uleb128 0x29
 7972 22c9 E5080000 		.4byte	.LASF401
 7973 22cd 01       		.byte	0x1
 7974 22ce 0804     		.2byte	0x408
 7975 22d0 9F000000 		.4byte	0x9f
 7976 22d4 F0110000 		.4byte	.LFB305
 7977 22d8 6C000000 		.4byte	.LFE305-.LFB305
 7978 22dc 01       		.uleb128 0x1
 7979 22dd 9C       		.byte	0x9c
 7980 22de 0F230000 		.4byte	0x230f
 7981 22e2 2C       		.uleb128 0x2c
 7982 22e3 E6070000 		.4byte	.LASF236
 7983 22e7 01       		.byte	0x1
 7984 22e8 0804     		.2byte	0x408
 7985 22ea 51070000 		.4byte	0x751
 7986 22ee 02       		.uleb128 0x2
 7987 22ef 91       		.byte	0x91
 7988 22f0 4C       		.sleb128 -52
 7989 22f1 2A       		.uleb128 0x2a
 7990 22f2 727100   		.ascii	"rq\000"
 7991 22f5 01       		.byte	0x1
 7992 22f6 0A04     		.2byte	0x40a
 7993 22f8 F2140000 		.4byte	0x14f2
 7994 22fc 02       		.uleb128 0x2
 7995 22fd 91       		.byte	0x91
 7996 22fe 60       		.sleb128 -32
 7997 22ff 2B       		.uleb128 0x2b
ARM GAS  /tmp/ccDGRO0L.s 			page 142


 7998 2300 F5160000 		.4byte	.LASF366
 7999 2304 01       		.byte	0x1
 8000 2305 0B04     		.2byte	0x40b
 8001 2307 770E0000 		.4byte	0xe77
 8002 230b 02       		.uleb128 0x2
 8003 230c 91       		.byte	0x91
 8004 230d 54       		.sleb128 -44
 8005 230e 00       		.byte	0
 8006 230f 29       		.uleb128 0x29
 8007 2310 CA010000 		.4byte	.LASF402
 8008 2314 01       		.byte	0x1
 8009 2315 2204     		.2byte	0x422
 8010 2317 9F000000 		.4byte	0x9f
 8011 231b 60120000 		.4byte	.LFB306
 8012 231f 82000000 		.4byte	.LFE306-.LFB306
 8013 2323 01       		.uleb128 0x1
 8014 2324 9C       		.byte	0x9c
 8015 2325 74230000 		.4byte	0x2374
 8016 2329 2C       		.uleb128 0x2c
 8017 232a 77160000 		.4byte	.LASF398
 8018 232e 01       		.byte	0x1
 8019 232f 2204     		.2byte	0x422
 8020 2331 C3000000 		.4byte	0xc3
 8021 2335 02       		.uleb128 0x2
 8022 2336 91       		.byte	0x91
 8023 2337 4E       		.sleb128 -50
 8024 2338 2C       		.uleb128 0x2c
 8025 2339 AA0E0000 		.4byte	.LASF403
 8026 233d 01       		.byte	0x1
 8027 233e 2204     		.2byte	0x422
 8028 2340 51070000 		.4byte	0x751
 8029 2344 02       		.uleb128 0x2
 8030 2345 91       		.byte	0x91
 8031 2346 48       		.sleb128 -56
 8032 2347 2A       		.uleb128 0x2a
 8033 2348 727100   		.ascii	"rq\000"
 8034 234b 01       		.byte	0x1
 8035 234c 2404     		.2byte	0x424
 8036 234e F2140000 		.4byte	0x14f2
 8037 2352 02       		.uleb128 0x2
 8038 2353 91       		.byte	0x91
 8039 2354 60       		.sleb128 -32
 8040 2355 2B       		.uleb128 0x2b
 8041 2356 34000000 		.4byte	.LASF390
 8042 235a 01       		.byte	0x1
 8043 235b 2504     		.2byte	0x425
 8044 235d CD110000 		.4byte	0x11cd
 8045 2361 02       		.uleb128 0x2
 8046 2362 91       		.byte	0x91
 8047 2363 5C       		.sleb128 -36
 8048 2364 2B       		.uleb128 0x2b
 8049 2365 F5160000 		.4byte	.LASF366
 8050 2369 01       		.byte	0x1
 8051 236a 2604     		.2byte	0x426
 8052 236c 0E120000 		.4byte	0x120e
 8053 2370 02       		.uleb128 0x2
 8054 2371 91       		.byte	0x91
ARM GAS  /tmp/ccDGRO0L.s 			page 143


 8055 2372 54       		.sleb128 -44
 8056 2373 00       		.byte	0
 8057 2374 29       		.uleb128 0x29
 8058 2375 570E0000 		.4byte	.LASF404
 8059 2379 01       		.byte	0x1
 8060 237a 4104     		.2byte	0x441
 8061 237c 9F000000 		.4byte	0x9f
 8062 2380 F0120000 		.4byte	.LFB307
 8063 2384 6C000000 		.4byte	.LFE307-.LFB307
 8064 2388 01       		.uleb128 0x1
 8065 2389 9C       		.byte	0x9c
 8066 238a BB230000 		.4byte	0x23bb
 8067 238e 2C       		.uleb128 0x2c
 8068 238f 70080000 		.4byte	.LASF306
 8069 2393 01       		.byte	0x1
 8070 2394 4104     		.2byte	0x441
 8071 2396 51070000 		.4byte	0x751
 8072 239a 02       		.uleb128 0x2
 8073 239b 91       		.byte	0x91
 8074 239c 4C       		.sleb128 -52
 8075 239d 2A       		.uleb128 0x2a
 8076 239e 727100   		.ascii	"rq\000"
 8077 23a1 01       		.byte	0x1
 8078 23a2 4304     		.2byte	0x443
 8079 23a4 F2140000 		.4byte	0x14f2
 8080 23a8 02       		.uleb128 0x2
 8081 23a9 91       		.byte	0x91
 8082 23aa 60       		.sleb128 -32
 8083 23ab 2B       		.uleb128 0x2b
 8084 23ac F5160000 		.4byte	.LASF366
 8085 23b0 01       		.byte	0x1
 8086 23b1 4404     		.2byte	0x444
 8087 23b3 A1130000 		.4byte	0x13a1
 8088 23b7 02       		.uleb128 0x2
 8089 23b8 91       		.byte	0x91
 8090 23b9 54       		.sleb128 -44
 8091 23ba 00       		.byte	0
 8092 23bb 29       		.uleb128 0x29
 8093 23bc 9F070000 		.4byte	.LASF405
 8094 23c0 01       		.byte	0x1
 8095 23c1 5B04     		.2byte	0x45b
 8096 23c3 9F000000 		.4byte	0x9f
 8097 23c7 60130000 		.4byte	.LFB308
 8098 23cb 5C000000 		.4byte	.LFE308-.LFB308
 8099 23cf 01       		.uleb128 0x1
 8100 23d0 9C       		.byte	0x9c
 8101 23d1 11240000 		.4byte	0x2411
 8102 23d5 2C       		.uleb128 0x2c
 8103 23d6 110D0000 		.4byte	.LASF309
 8104 23da 01       		.byte	0x1
 8105 23db 5B04     		.2byte	0x45b
 8106 23dd B8000000 		.4byte	0xb8
 8107 23e1 02       		.uleb128 0x2
 8108 23e2 91       		.byte	0x91
 8109 23e3 57       		.sleb128 -41
 8110 23e4 2A       		.uleb128 0x2a
 8111 23e5 727100   		.ascii	"rq\000"
ARM GAS  /tmp/ccDGRO0L.s 			page 144


 8112 23e8 01       		.byte	0x1
 8113 23e9 5D04     		.2byte	0x45d
 8114 23eb F2140000 		.4byte	0x14f2
 8115 23ef 02       		.uleb128 0x2
 8116 23f0 91       		.byte	0x91
 8117 23f1 60       		.sleb128 -32
 8118 23f2 2B       		.uleb128 0x2b
 8119 23f3 34000000 		.4byte	.LASF390
 8120 23f7 01       		.byte	0x1
 8121 23f8 5E04     		.2byte	0x45e
 8122 23fa C8130000 		.4byte	0x13c8
 8123 23fe 02       		.uleb128 0x2
 8124 23ff 91       		.byte	0x91
 8125 2400 5C       		.sleb128 -36
 8126 2401 2B       		.uleb128 0x2b
 8127 2402 57090000 		.4byte	.LASF213
 8128 2406 01       		.byte	0x1
 8129 2407 5F04     		.2byte	0x45f
 8130 2409 B8000000 		.4byte	0xb8
 8131 240d 02       		.uleb128 0x2
 8132 240e 91       		.byte	0x91
 8133 240f 5B       		.sleb128 -37
 8134 2410 00       		.byte	0
 8135 2411 29       		.uleb128 0x29
 8136 2412 ED090000 		.4byte	.LASF406
 8137 2416 01       		.byte	0x1
 8138 2417 7204     		.2byte	0x472
 8139 2419 9F000000 		.4byte	0x9f
 8140 241d C0130000 		.4byte	.LFB309
 8141 2421 78000000 		.4byte	.LFE309-.LFB309
 8142 2425 01       		.uleb128 0x1
 8143 2426 9C       		.byte	0x9c
 8144 2427 85240000 		.4byte	0x2485
 8145 242b 2C       		.uleb128 0x2c
 8146 242c 110D0000 		.4byte	.LASF309
 8147 2430 01       		.byte	0x1
 8148 2431 7204     		.2byte	0x472
 8149 2433 B8000000 		.4byte	0xb8
 8150 2437 02       		.uleb128 0x2
 8151 2438 91       		.byte	0x91
 8152 2439 57       		.sleb128 -41
 8153 243a 2C       		.uleb128 0x2c
 8154 243b 580F0000 		.4byte	.LASF253
 8155 243f 01       		.byte	0x1
 8156 2440 7204     		.2byte	0x472
 8157 2442 B8000000 		.4byte	0xb8
 8158 2446 02       		.uleb128 0x2
 8159 2447 91       		.byte	0x91
 8160 2448 56       		.sleb128 -42
 8161 2449 2C       		.uleb128 0x2c
 8162 244a C4060000 		.4byte	.LASF312
 8163 244e 01       		.byte	0x1
 8164 244f 7204     		.2byte	0x472
 8165 2451 B8000000 		.4byte	0xb8
 8166 2455 02       		.uleb128 0x2
 8167 2456 91       		.byte	0x91
 8168 2457 55       		.sleb128 -43
ARM GAS  /tmp/ccDGRO0L.s 			page 145


 8169 2458 2A       		.uleb128 0x2a
 8170 2459 727100   		.ascii	"rq\000"
 8171 245c 01       		.byte	0x1
 8172 245d 7404     		.2byte	0x474
 8173 245f F2140000 		.4byte	0x14f2
 8174 2463 02       		.uleb128 0x2
 8175 2464 91       		.byte	0x91
 8176 2465 60       		.sleb128 -32
 8177 2466 2B       		.uleb128 0x2b
 8178 2467 34000000 		.4byte	.LASF390
 8179 246b 01       		.byte	0x1
 8180 246c 7504     		.2byte	0x475
 8181 246e 09140000 		.4byte	0x1409
 8182 2472 02       		.uleb128 0x2
 8183 2473 91       		.byte	0x91
 8184 2474 5C       		.sleb128 -36
 8185 2475 2B       		.uleb128 0x2b
 8186 2476 57090000 		.4byte	.LASF213
 8187 247a 01       		.byte	0x1
 8188 247b 7604     		.2byte	0x476
 8189 247d B8000000 		.4byte	0xb8
 8190 2481 02       		.uleb128 0x2
 8191 2482 91       		.byte	0x91
 8192 2483 5B       		.sleb128 -37
 8193 2484 00       		.byte	0
 8194 2485 29       		.uleb128 0x29
 8195 2486 D30D0000 		.4byte	.LASF407
 8196 248a 01       		.byte	0x1
 8197 248b 8B04     		.2byte	0x48b
 8198 248d 9F000000 		.4byte	0x9f
 8199 2491 40140000 		.4byte	.LFB310
 8200 2495 68000000 		.4byte	.LFE310-.LFB310
 8201 2499 01       		.uleb128 0x1
 8202 249a 9C       		.byte	0x9c
 8203 249b CC240000 		.4byte	0x24cc
 8204 249f 2C       		.uleb128 0x2c
 8205 24a0 92060000 		.4byte	.LASF315
 8206 24a4 01       		.byte	0x1
 8207 24a5 8B04     		.2byte	0x48b
 8208 24a7 F1190000 		.4byte	0x19f1
 8209 24ab 02       		.uleb128 0x2
 8210 24ac 91       		.byte	0x91
 8211 24ad 54       		.sleb128 -44
 8212 24ae 2A       		.uleb128 0x2a
 8213 24af 727100   		.ascii	"rq\000"
 8214 24b2 01       		.byte	0x1
 8215 24b3 8D04     		.2byte	0x48d
 8216 24b5 F2140000 		.4byte	0x14f2
 8217 24b9 02       		.uleb128 0x2
 8218 24ba 91       		.byte	0x91
 8219 24bb 60       		.sleb128 -32
 8220 24bc 2B       		.uleb128 0x2b
 8221 24bd F5160000 		.4byte	.LASF366
 8222 24c1 01       		.byte	0x1
 8223 24c2 8E04     		.2byte	0x48e
 8224 24c4 3D140000 		.4byte	0x143d
 8225 24c8 02       		.uleb128 0x2
ARM GAS  /tmp/ccDGRO0L.s 			page 146


 8226 24c9 91       		.byte	0x91
 8227 24ca 5C       		.sleb128 -36
 8228 24cb 00       		.byte	0
 8229 24cc 19       		.uleb128 0x19
 8230 24cd D40B0000 		.4byte	0xbd4
 8231 24d1 DC240000 		.4byte	0x24dc
 8232 24d5 1A       		.uleb128 0x1a
 8233 24d6 95040000 		.4byte	0x495
 8234 24da 04       		.byte	0x4
 8235 24db 00       		.byte	0
 8236 24dc 1E       		.uleb128 0x1e
 8237 24dd 21090000 		.4byte	.LASF408
 8238 24e1 01       		.byte	0x1
 8239 24e2 32       		.byte	0x32
 8240 24e3 CC240000 		.4byte	0x24cc
 8241 24e7 05       		.uleb128 0x5
 8242 24e8 03       		.byte	0x3
 8243 24e9 00000000 		.4byte	hciReadPacketBuffer
 8244 24ed 1E       		.uleb128 0x1e
 8245 24ee D90C0000 		.4byte	.LASF409
 8246 24f2 01       		.byte	0x1
 8247 24f3 34       		.byte	0x34
 8248 24f4 A1040000 		.4byte	0x4a1
 8249 24f8 05       		.uleb128 0x5
 8250 24f9 03       		.byte	0x3
 8251 24fa BC020000 		.4byte	hci_timer_id
 8252 24fe 1E       		.uleb128 0x1e
 8253 24ff 9B060000 		.4byte	.LASF410
 8254 2503 01       		.byte	0x1
 8255 2504 35       		.byte	0x35
 8256 2505 A1040000 		.4byte	0x4a1
 8257 2509 05       		.uleb128 0x5
 8258 250a 03       		.byte	0x3
 8259 250b BD020000 		.4byte	hci_timeout
 8260 250f 2E       		.uleb128 0x2e
 8261 2510 3C0F0000 		.4byte	.LASF411
 8262 2514 18       		.byte	0x18
 8263 2515 FA06     		.2byte	0x6fa
 8264 2517 1B250000 		.4byte	0x251b
 8265 251b 0F       		.uleb128 0xf
 8266 251c CE000000 		.4byte	0xce
 8267 2520 2F       		.uleb128 0x2f
 8268 2521 636800   		.ascii	"ch\000"
 8269 2524 08       		.byte	0x8
 8270 2525 0902     		.2byte	0x209
 8271 2527 2E040000 		.4byte	0x42e
 8272 252b 30       		.uleb128 0x30
 8273 252c 490F0000 		.4byte	.LASF412
 8274 2530 01       		.byte	0x1
 8275 2531 2F       		.byte	0x2f
 8276 2532 7D0B0000 		.4byte	0xb7d
 8277 2536 05       		.uleb128 0x5
 8278 2537 03       		.byte	0x3
 8279 2538 00000000 		.4byte	hciReadPktPool
 8280 253c 30       		.uleb128 0x30
 8281 253d 2A0C0000 		.4byte	.LASF413
 8282 2541 01       		.byte	0x1
ARM GAS  /tmp/ccDGRO0L.s 			page 147


 8283 2542 30       		.byte	0x30
 8284 2543 7D0B0000 		.4byte	0xb7d
 8285 2547 05       		.uleb128 0x5
 8286 2548 03       		.byte	0x3
 8287 2549 00000000 		.4byte	hciReadPktRxQueue
 8288 254d 31       		.uleb128 0x31
 8289 254e A5030000 		.4byte	.LASF414
 8290 2552 01       		.byte	0x1
 8291 2553 20       		.byte	0x20
 8292 2554 34090000 		.4byte	0x934
 8293 2558 00       		.byte	0
 8294              		.section	.debug_abbrev,"",%progbits
 8295              	.Ldebug_abbrev0:
 8296 0000 01       		.uleb128 0x1
 8297 0001 11       		.uleb128 0x11
 8298 0002 01       		.byte	0x1
 8299 0003 25       		.uleb128 0x25
 8300 0004 0E       		.uleb128 0xe
 8301 0005 13       		.uleb128 0x13
 8302 0006 0B       		.uleb128 0xb
 8303 0007 03       		.uleb128 0x3
 8304 0008 0E       		.uleb128 0xe
 8305 0009 1B       		.uleb128 0x1b
 8306 000a 0E       		.uleb128 0xe
 8307 000b 11       		.uleb128 0x11
 8308 000c 01       		.uleb128 0x1
 8309 000d 12       		.uleb128 0x12
 8310 000e 06       		.uleb128 0x6
 8311 000f 10       		.uleb128 0x10
 8312 0010 17       		.uleb128 0x17
 8313 0011 00       		.byte	0
 8314 0012 00       		.byte	0
 8315 0013 02       		.uleb128 0x2
 8316 0014 16       		.uleb128 0x16
 8317 0015 00       		.byte	0
 8318 0016 03       		.uleb128 0x3
 8319 0017 0E       		.uleb128 0xe
 8320 0018 3A       		.uleb128 0x3a
 8321 0019 0B       		.uleb128 0xb
 8322 001a 3B       		.uleb128 0x3b
 8323 001b 0B       		.uleb128 0xb
 8324 001c 49       		.uleb128 0x49
 8325 001d 13       		.uleb128 0x13
 8326 001e 00       		.byte	0
 8327 001f 00       		.byte	0
 8328 0020 03       		.uleb128 0x3
 8329 0021 24       		.uleb128 0x24
 8330 0022 00       		.byte	0
 8331 0023 0B       		.uleb128 0xb
 8332 0024 0B       		.uleb128 0xb
 8333 0025 3E       		.uleb128 0x3e
 8334 0026 0B       		.uleb128 0xb
 8335 0027 03       		.uleb128 0x3
 8336 0028 0E       		.uleb128 0xe
 8337 0029 00       		.byte	0
 8338 002a 00       		.byte	0
 8339 002b 04       		.uleb128 0x4
ARM GAS  /tmp/ccDGRO0L.s 			page 148


 8340 002c 24       		.uleb128 0x24
 8341 002d 00       		.byte	0
 8342 002e 0B       		.uleb128 0xb
 8343 002f 0B       		.uleb128 0xb
 8344 0030 3E       		.uleb128 0x3e
 8345 0031 0B       		.uleb128 0xb
 8346 0032 03       		.uleb128 0x3
 8347 0033 08       		.uleb128 0x8
 8348 0034 00       		.byte	0
 8349 0035 00       		.byte	0
 8350 0036 05       		.uleb128 0x5
 8351 0037 13       		.uleb128 0x13
 8352 0038 01       		.byte	0x1
 8353 0039 03       		.uleb128 0x3
 8354 003a 0E       		.uleb128 0xe
 8355 003b 0B       		.uleb128 0xb
 8356 003c 0B       		.uleb128 0xb
 8357 003d 3A       		.uleb128 0x3a
 8358 003e 0B       		.uleb128 0xb
 8359 003f 3B       		.uleb128 0x3b
 8360 0040 0B       		.uleb128 0xb
 8361 0041 01       		.uleb128 0x1
 8362 0042 13       		.uleb128 0x13
 8363 0043 00       		.byte	0
 8364 0044 00       		.byte	0
 8365 0045 06       		.uleb128 0x6
 8366 0046 0D       		.uleb128 0xd
 8367 0047 00       		.byte	0
 8368 0048 03       		.uleb128 0x3
 8369 0049 0E       		.uleb128 0xe
 8370 004a 3A       		.uleb128 0x3a
 8371 004b 0B       		.uleb128 0xb
 8372 004c 3B       		.uleb128 0x3b
 8373 004d 0B       		.uleb128 0xb
 8374 004e 49       		.uleb128 0x49
 8375 004f 13       		.uleb128 0x13
 8376 0050 38       		.uleb128 0x38
 8377 0051 0B       		.uleb128 0xb
 8378 0052 00       		.byte	0
 8379 0053 00       		.byte	0
 8380 0054 07       		.uleb128 0x7
 8381 0055 0D       		.uleb128 0xd
 8382 0056 00       		.byte	0
 8383 0057 03       		.uleb128 0x3
 8384 0058 08       		.uleb128 0x8
 8385 0059 3A       		.uleb128 0x3a
 8386 005a 0B       		.uleb128 0xb
 8387 005b 3B       		.uleb128 0x3b
 8388 005c 05       		.uleb128 0x5
 8389 005d 49       		.uleb128 0x49
 8390 005e 13       		.uleb128 0x13
 8391 005f 38       		.uleb128 0x38
 8392 0060 0B       		.uleb128 0xb
 8393 0061 00       		.byte	0
 8394 0062 00       		.byte	0
 8395 0063 08       		.uleb128 0x8
 8396 0064 0D       		.uleb128 0xd
ARM GAS  /tmp/ccDGRO0L.s 			page 149


 8397 0065 00       		.byte	0
 8398 0066 03       		.uleb128 0x3
 8399 0067 0E       		.uleb128 0xe
 8400 0068 3A       		.uleb128 0x3a
 8401 0069 0B       		.uleb128 0xb
 8402 006a 3B       		.uleb128 0x3b
 8403 006b 05       		.uleb128 0x5
 8404 006c 49       		.uleb128 0x49
 8405 006d 13       		.uleb128 0x13
 8406 006e 38       		.uleb128 0x38
 8407 006f 0B       		.uleb128 0xb
 8408 0070 00       		.byte	0
 8409 0071 00       		.byte	0
 8410 0072 09       		.uleb128 0x9
 8411 0073 0F       		.uleb128 0xf
 8412 0074 00       		.byte	0
 8413 0075 0B       		.uleb128 0xb
 8414 0076 0B       		.uleb128 0xb
 8415 0077 49       		.uleb128 0x49
 8416 0078 13       		.uleb128 0x13
 8417 0079 00       		.byte	0
 8418 007a 00       		.byte	0
 8419 007b 0A       		.uleb128 0xa
 8420 007c 13       		.uleb128 0x13
 8421 007d 01       		.byte	0x1
 8422 007e 03       		.uleb128 0x3
 8423 007f 0E       		.uleb128 0xe
 8424 0080 0B       		.uleb128 0xb
 8425 0081 0B       		.uleb128 0xb
 8426 0082 3A       		.uleb128 0x3a
 8427 0083 0B       		.uleb128 0xb
 8428 0084 3B       		.uleb128 0x3b
 8429 0085 05       		.uleb128 0x5
 8430 0086 01       		.uleb128 0x1
 8431 0087 13       		.uleb128 0x13
 8432 0088 00       		.byte	0
 8433 0089 00       		.byte	0
 8434 008a 0B       		.uleb128 0xb
 8435 008b 15       		.uleb128 0x15
 8436 008c 01       		.byte	0x1
 8437 008d 27       		.uleb128 0x27
 8438 008e 19       		.uleb128 0x19
 8439 008f 01       		.uleb128 0x1
 8440 0090 13       		.uleb128 0x13
 8441 0091 00       		.byte	0
 8442 0092 00       		.byte	0
 8443 0093 0C       		.uleb128 0xc
 8444 0094 05       		.uleb128 0x5
 8445 0095 00       		.byte	0
 8446 0096 49       		.uleb128 0x49
 8447 0097 13       		.uleb128 0x13
 8448 0098 00       		.byte	0
 8449 0099 00       		.byte	0
 8450 009a 0D       		.uleb128 0xd
 8451 009b 0F       		.uleb128 0xf
 8452 009c 00       		.byte	0
 8453 009d 0B       		.uleb128 0xb
ARM GAS  /tmp/ccDGRO0L.s 			page 150


 8454 009e 0B       		.uleb128 0xb
 8455 009f 00       		.byte	0
 8456 00a0 00       		.byte	0
 8457 00a1 0E       		.uleb128 0xe
 8458 00a2 13       		.uleb128 0x13
 8459 00a3 01       		.byte	0x1
 8460 00a4 03       		.uleb128 0x3
 8461 00a5 0E       		.uleb128 0xe
 8462 00a6 0B       		.uleb128 0xb
 8463 00a7 05       		.uleb128 0x5
 8464 00a8 3A       		.uleb128 0x3a
 8465 00a9 0B       		.uleb128 0xb
 8466 00aa 3B       		.uleb128 0x3b
 8467 00ab 05       		.uleb128 0x5
 8468 00ac 01       		.uleb128 0x1
 8469 00ad 13       		.uleb128 0x13
 8470 00ae 00       		.byte	0
 8471 00af 00       		.byte	0
 8472 00b0 0F       		.uleb128 0xf
 8473 00b1 35       		.uleb128 0x35
 8474 00b2 00       		.byte	0
 8475 00b3 49       		.uleb128 0x49
 8476 00b4 13       		.uleb128 0x13
 8477 00b5 00       		.byte	0
 8478 00b6 00       		.byte	0
 8479 00b7 10       		.uleb128 0x10
 8480 00b8 13       		.uleb128 0x13
 8481 00b9 01       		.byte	0x1
 8482 00ba 0B       		.uleb128 0xb
 8483 00bb 0B       		.uleb128 0xb
 8484 00bc 3A       		.uleb128 0x3a
 8485 00bd 0B       		.uleb128 0xb
 8486 00be 3B       		.uleb128 0x3b
 8487 00bf 05       		.uleb128 0x5
 8488 00c0 01       		.uleb128 0x1
 8489 00c1 13       		.uleb128 0x13
 8490 00c2 00       		.byte	0
 8491 00c3 00       		.byte	0
 8492 00c4 11       		.uleb128 0x11
 8493 00c5 16       		.uleb128 0x16
 8494 00c6 00       		.byte	0
 8495 00c7 03       		.uleb128 0x3
 8496 00c8 0E       		.uleb128 0xe
 8497 00c9 3A       		.uleb128 0x3a
 8498 00ca 0B       		.uleb128 0xb
 8499 00cb 3B       		.uleb128 0x3b
 8500 00cc 05       		.uleb128 0x5
 8501 00cd 49       		.uleb128 0x49
 8502 00ce 13       		.uleb128 0x13
 8503 00cf 00       		.byte	0
 8504 00d0 00       		.byte	0
 8505 00d1 12       		.uleb128 0x12
 8506 00d2 26       		.uleb128 0x26
 8507 00d3 00       		.byte	0
 8508 00d4 49       		.uleb128 0x49
 8509 00d5 13       		.uleb128 0x13
 8510 00d6 00       		.byte	0
ARM GAS  /tmp/ccDGRO0L.s 			page 151


 8511 00d7 00       		.byte	0
 8512 00d8 13       		.uleb128 0x13
 8513 00d9 04       		.uleb128 0x4
 8514 00da 01       		.byte	0x1
 8515 00db 0B       		.uleb128 0xb
 8516 00dc 0B       		.uleb128 0xb
 8517 00dd 3A       		.uleb128 0x3a
 8518 00de 0B       		.uleb128 0xb
 8519 00df 3B       		.uleb128 0x3b
 8520 00e0 0B       		.uleb128 0xb
 8521 00e1 01       		.uleb128 0x1
 8522 00e2 13       		.uleb128 0x13
 8523 00e3 00       		.byte	0
 8524 00e4 00       		.byte	0
 8525 00e5 14       		.uleb128 0x14
 8526 00e6 28       		.uleb128 0x28
 8527 00e7 00       		.byte	0
 8528 00e8 03       		.uleb128 0x3
 8529 00e9 0E       		.uleb128 0xe
 8530 00ea 1C       		.uleb128 0x1c
 8531 00eb 0D       		.uleb128 0xd
 8532 00ec 00       		.byte	0
 8533 00ed 00       		.byte	0
 8534 00ee 15       		.uleb128 0x15
 8535 00ef 13       		.uleb128 0x13
 8536 00f0 01       		.byte	0x1
 8537 00f1 0B       		.uleb128 0xb
 8538 00f2 0B       		.uleb128 0xb
 8539 00f3 3A       		.uleb128 0x3a
 8540 00f4 0B       		.uleb128 0xb
 8541 00f5 3B       		.uleb128 0x3b
 8542 00f6 0B       		.uleb128 0xb
 8543 00f7 01       		.uleb128 0x1
 8544 00f8 13       		.uleb128 0x13
 8545 00f9 00       		.byte	0
 8546 00fa 00       		.byte	0
 8547 00fb 16       		.uleb128 0x16
 8548 00fc 0D       		.uleb128 0xd
 8549 00fd 00       		.byte	0
 8550 00fe 03       		.uleb128 0x3
 8551 00ff 08       		.uleb128 0x8
 8552 0100 3A       		.uleb128 0x3a
 8553 0101 0B       		.uleb128 0xb
 8554 0102 3B       		.uleb128 0x3b
 8555 0103 0B       		.uleb128 0xb
 8556 0104 49       		.uleb128 0x49
 8557 0105 13       		.uleb128 0x13
 8558 0106 38       		.uleb128 0x38
 8559 0107 0B       		.uleb128 0xb
 8560 0108 00       		.byte	0
 8561 0109 00       		.byte	0
 8562 010a 17       		.uleb128 0x17
 8563 010b 17       		.uleb128 0x17
 8564 010c 01       		.byte	0x1
 8565 010d 0B       		.uleb128 0xb
 8566 010e 0B       		.uleb128 0xb
 8567 010f 3A       		.uleb128 0x3a
ARM GAS  /tmp/ccDGRO0L.s 			page 152


 8568 0110 0B       		.uleb128 0xb
 8569 0111 3B       		.uleb128 0x3b
 8570 0112 0B       		.uleb128 0xb
 8571 0113 01       		.uleb128 0x1
 8572 0114 13       		.uleb128 0x13
 8573 0115 00       		.byte	0
 8574 0116 00       		.byte	0
 8575 0117 18       		.uleb128 0x18
 8576 0118 0D       		.uleb128 0xd
 8577 0119 00       		.byte	0
 8578 011a 03       		.uleb128 0x3
 8579 011b 0E       		.uleb128 0xe
 8580 011c 3A       		.uleb128 0x3a
 8581 011d 0B       		.uleb128 0xb
 8582 011e 3B       		.uleb128 0x3b
 8583 011f 05       		.uleb128 0x5
 8584 0120 49       		.uleb128 0x49
 8585 0121 13       		.uleb128 0x13
 8586 0122 00       		.byte	0
 8587 0123 00       		.byte	0
 8588 0124 19       		.uleb128 0x19
 8589 0125 01       		.uleb128 0x1
 8590 0126 01       		.byte	0x1
 8591 0127 49       		.uleb128 0x49
 8592 0128 13       		.uleb128 0x13
 8593 0129 01       		.uleb128 0x1
 8594 012a 13       		.uleb128 0x13
 8595 012b 00       		.byte	0
 8596 012c 00       		.byte	0
 8597 012d 1A       		.uleb128 0x1a
 8598 012e 21       		.uleb128 0x21
 8599 012f 00       		.byte	0
 8600 0130 49       		.uleb128 0x49
 8601 0131 13       		.uleb128 0x13
 8602 0132 2F       		.uleb128 0x2f
 8603 0133 0B       		.uleb128 0xb
 8604 0134 00       		.byte	0
 8605 0135 00       		.byte	0
 8606 0136 1B       		.uleb128 0x1b
 8607 0137 21       		.uleb128 0x21
 8608 0138 00       		.byte	0
 8609 0139 49       		.uleb128 0x49
 8610 013a 13       		.uleb128 0x13
 8611 013b 00       		.byte	0
 8612 013c 00       		.byte	0
 8613 013d 1C       		.uleb128 0x1c
 8614 013e 2E       		.uleb128 0x2e
 8615 013f 00       		.byte	0
 8616 0140 3F       		.uleb128 0x3f
 8617 0141 19       		.uleb128 0x19
 8618 0142 03       		.uleb128 0x3
 8619 0143 0E       		.uleb128 0xe
 8620 0144 3A       		.uleb128 0x3a
 8621 0145 0B       		.uleb128 0xb
 8622 0146 3B       		.uleb128 0x3b
 8623 0147 0B       		.uleb128 0xb
 8624 0148 27       		.uleb128 0x27
ARM GAS  /tmp/ccDGRO0L.s 			page 153


 8625 0149 19       		.uleb128 0x19
 8626 014a 11       		.uleb128 0x11
 8627 014b 01       		.uleb128 0x1
 8628 014c 12       		.uleb128 0x12
 8629 014d 06       		.uleb128 0x6
 8630 014e 40       		.uleb128 0x40
 8631 014f 18       		.uleb128 0x18
 8632 0150 9742     		.uleb128 0x2117
 8633 0152 19       		.uleb128 0x19
 8634 0153 00       		.byte	0
 8635 0154 00       		.byte	0
 8636 0155 1D       		.uleb128 0x1d
 8637 0156 2E       		.uleb128 0x2e
 8638 0157 01       		.byte	0x1
 8639 0158 3F       		.uleb128 0x3f
 8640 0159 19       		.uleb128 0x19
 8641 015a 03       		.uleb128 0x3
 8642 015b 0E       		.uleb128 0xe
 8643 015c 3A       		.uleb128 0x3a
 8644 015d 0B       		.uleb128 0xb
 8645 015e 3B       		.uleb128 0x3b
 8646 015f 0B       		.uleb128 0xb
 8647 0160 27       		.uleb128 0x27
 8648 0161 19       		.uleb128 0x19
 8649 0162 11       		.uleb128 0x11
 8650 0163 01       		.uleb128 0x1
 8651 0164 12       		.uleb128 0x12
 8652 0165 06       		.uleb128 0x6
 8653 0166 40       		.uleb128 0x40
 8654 0167 18       		.uleb128 0x18
 8655 0168 9642     		.uleb128 0x2116
 8656 016a 19       		.uleb128 0x19
 8657 016b 01       		.uleb128 0x1
 8658 016c 13       		.uleb128 0x13
 8659 016d 00       		.byte	0
 8660 016e 00       		.byte	0
 8661 016f 1E       		.uleb128 0x1e
 8662 0170 34       		.uleb128 0x34
 8663 0171 00       		.byte	0
 8664 0172 03       		.uleb128 0x3
 8665 0173 0E       		.uleb128 0xe
 8666 0174 3A       		.uleb128 0x3a
 8667 0175 0B       		.uleb128 0xb
 8668 0176 3B       		.uleb128 0x3b
 8669 0177 0B       		.uleb128 0xb
 8670 0178 49       		.uleb128 0x49
 8671 0179 13       		.uleb128 0x13
 8672 017a 02       		.uleb128 0x2
 8673 017b 18       		.uleb128 0x18
 8674 017c 00       		.byte	0
 8675 017d 00       		.byte	0
 8676 017e 1F       		.uleb128 0x1f
 8677 017f 2E       		.uleb128 0x2e
 8678 0180 01       		.byte	0x1
 8679 0181 3F       		.uleb128 0x3f
 8680 0182 19       		.uleb128 0x19
 8681 0183 03       		.uleb128 0x3
ARM GAS  /tmp/ccDGRO0L.s 			page 154


 8682 0184 0E       		.uleb128 0xe
 8683 0185 3A       		.uleb128 0x3a
 8684 0186 0B       		.uleb128 0xb
 8685 0187 3B       		.uleb128 0x3b
 8686 0188 0B       		.uleb128 0xb
 8687 0189 27       		.uleb128 0x27
 8688 018a 19       		.uleb128 0x19
 8689 018b 49       		.uleb128 0x49
 8690 018c 13       		.uleb128 0x13
 8691 018d 11       		.uleb128 0x11
 8692 018e 01       		.uleb128 0x1
 8693 018f 12       		.uleb128 0x12
 8694 0190 06       		.uleb128 0x6
 8695 0191 40       		.uleb128 0x40
 8696 0192 18       		.uleb128 0x18
 8697 0193 9742     		.uleb128 0x2117
 8698 0195 19       		.uleb128 0x19
 8699 0196 01       		.uleb128 0x1
 8700 0197 13       		.uleb128 0x13
 8701 0198 00       		.byte	0
 8702 0199 00       		.byte	0
 8703 019a 20       		.uleb128 0x20
 8704 019b 05       		.uleb128 0x5
 8705 019c 00       		.byte	0
 8706 019d 03       		.uleb128 0x3
 8707 019e 0E       		.uleb128 0xe
 8708 019f 3A       		.uleb128 0x3a
 8709 01a0 0B       		.uleb128 0xb
 8710 01a1 3B       		.uleb128 0x3b
 8711 01a2 0B       		.uleb128 0xb
 8712 01a3 49       		.uleb128 0x49
 8713 01a4 13       		.uleb128 0x13
 8714 01a5 02       		.uleb128 0x2
 8715 01a6 18       		.uleb128 0x18
 8716 01a7 00       		.byte	0
 8717 01a8 00       		.byte	0
 8718 01a9 21       		.uleb128 0x21
 8719 01aa 2E       		.uleb128 0x2e
 8720 01ab 00       		.byte	0
 8721 01ac 3F       		.uleb128 0x3f
 8722 01ad 19       		.uleb128 0x19
 8723 01ae 03       		.uleb128 0x3
 8724 01af 0E       		.uleb128 0xe
 8725 01b0 3A       		.uleb128 0x3a
 8726 01b1 0B       		.uleb128 0xb
 8727 01b2 3B       		.uleb128 0x3b
 8728 01b3 0B       		.uleb128 0xb
 8729 01b4 27       		.uleb128 0x27
 8730 01b5 19       		.uleb128 0x19
 8731 01b6 49       		.uleb128 0x49
 8732 01b7 13       		.uleb128 0x13
 8733 01b8 11       		.uleb128 0x11
 8734 01b9 01       		.uleb128 0x1
 8735 01ba 12       		.uleb128 0x12
 8736 01bb 06       		.uleb128 0x6
 8737 01bc 40       		.uleb128 0x40
 8738 01bd 18       		.uleb128 0x18
ARM GAS  /tmp/ccDGRO0L.s 			page 155


 8739 01be 9642     		.uleb128 0x2116
 8740 01c0 19       		.uleb128 0x19
 8741 01c1 00       		.byte	0
 8742 01c2 00       		.byte	0
 8743 01c3 22       		.uleb128 0x22
 8744 01c4 26       		.uleb128 0x26
 8745 01c5 00       		.byte	0
 8746 01c6 00       		.byte	0
 8747 01c7 00       		.byte	0
 8748 01c8 23       		.uleb128 0x23
 8749 01c9 05       		.uleb128 0x5
 8750 01ca 00       		.byte	0
 8751 01cb 03       		.uleb128 0x3
 8752 01cc 08       		.uleb128 0x8
 8753 01cd 3A       		.uleb128 0x3a
 8754 01ce 0B       		.uleb128 0xb
 8755 01cf 3B       		.uleb128 0x3b
 8756 01d0 0B       		.uleb128 0xb
 8757 01d1 49       		.uleb128 0x49
 8758 01d2 13       		.uleb128 0x13
 8759 01d3 02       		.uleb128 0x2
 8760 01d4 18       		.uleb128 0x18
 8761 01d5 00       		.byte	0
 8762 01d6 00       		.byte	0
 8763 01d7 24       		.uleb128 0x24
 8764 01d8 34       		.uleb128 0x34
 8765 01d9 00       		.byte	0
 8766 01da 03       		.uleb128 0x3
 8767 01db 08       		.uleb128 0x8
 8768 01dc 3A       		.uleb128 0x3a
 8769 01dd 0B       		.uleb128 0xb
 8770 01de 3B       		.uleb128 0x3b
 8771 01df 0B       		.uleb128 0xb
 8772 01e0 49       		.uleb128 0x49
 8773 01e1 13       		.uleb128 0x13
 8774 01e2 02       		.uleb128 0x2
 8775 01e3 18       		.uleb128 0x18
 8776 01e4 00       		.byte	0
 8777 01e5 00       		.byte	0
 8778 01e6 25       		.uleb128 0x25
 8779 01e7 2E       		.uleb128 0x2e
 8780 01e8 01       		.byte	0x1
 8781 01e9 03       		.uleb128 0x3
 8782 01ea 0E       		.uleb128 0xe
 8783 01eb 3A       		.uleb128 0x3a
 8784 01ec 0B       		.uleb128 0xb
 8785 01ed 3B       		.uleb128 0x3b
 8786 01ee 0B       		.uleb128 0xb
 8787 01ef 27       		.uleb128 0x27
 8788 01f0 19       		.uleb128 0x19
 8789 01f1 11       		.uleb128 0x11
 8790 01f2 01       		.uleb128 0x1
 8791 01f3 12       		.uleb128 0x12
 8792 01f4 06       		.uleb128 0x6
 8793 01f5 40       		.uleb128 0x40
 8794 01f6 18       		.uleb128 0x18
 8795 01f7 9642     		.uleb128 0x2116
ARM GAS  /tmp/ccDGRO0L.s 			page 156


 8796 01f9 19       		.uleb128 0x19
 8797 01fa 01       		.uleb128 0x1
 8798 01fb 13       		.uleb128 0x13
 8799 01fc 00       		.byte	0
 8800 01fd 00       		.byte	0
 8801 01fe 26       		.uleb128 0x26
 8802 01ff 2E       		.uleb128 0x2e
 8803 0200 01       		.byte	0x1
 8804 0201 3F       		.uleb128 0x3f
 8805 0202 19       		.uleb128 0x19
 8806 0203 03       		.uleb128 0x3
 8807 0204 0E       		.uleb128 0xe
 8808 0205 3A       		.uleb128 0x3a
 8809 0206 0B       		.uleb128 0xb
 8810 0207 3B       		.uleb128 0x3b
 8811 0208 0B       		.uleb128 0xb
 8812 0209 27       		.uleb128 0x27
 8813 020a 19       		.uleb128 0x19
 8814 020b 49       		.uleb128 0x49
 8815 020c 13       		.uleb128 0x13
 8816 020d 11       		.uleb128 0x11
 8817 020e 01       		.uleb128 0x1
 8818 020f 12       		.uleb128 0x12
 8819 0210 06       		.uleb128 0x6
 8820 0211 40       		.uleb128 0x40
 8821 0212 18       		.uleb128 0x18
 8822 0213 9642     		.uleb128 0x2116
 8823 0215 19       		.uleb128 0x19
 8824 0216 01       		.uleb128 0x1
 8825 0217 13       		.uleb128 0x13
 8826 0218 00       		.byte	0
 8827 0219 00       		.byte	0
 8828 021a 27       		.uleb128 0x27
 8829 021b 0A       		.uleb128 0xa
 8830 021c 00       		.byte	0
 8831 021d 03       		.uleb128 0x3
 8832 021e 0E       		.uleb128 0xe
 8833 021f 3A       		.uleb128 0x3a
 8834 0220 0B       		.uleb128 0xb
 8835 0221 3B       		.uleb128 0x3b
 8836 0222 05       		.uleb128 0x5
 8837 0223 11       		.uleb128 0x11
 8838 0224 01       		.uleb128 0x1
 8839 0225 00       		.byte	0
 8840 0226 00       		.byte	0
 8841 0227 28       		.uleb128 0x28
 8842 0228 0B       		.uleb128 0xb
 8843 0229 01       		.byte	0x1
 8844 022a 55       		.uleb128 0x55
 8845 022b 17       		.uleb128 0x17
 8846 022c 00       		.byte	0
 8847 022d 00       		.byte	0
 8848 022e 29       		.uleb128 0x29
 8849 022f 2E       		.uleb128 0x2e
 8850 0230 01       		.byte	0x1
 8851 0231 3F       		.uleb128 0x3f
 8852 0232 19       		.uleb128 0x19
ARM GAS  /tmp/ccDGRO0L.s 			page 157


 8853 0233 03       		.uleb128 0x3
 8854 0234 0E       		.uleb128 0xe
 8855 0235 3A       		.uleb128 0x3a
 8856 0236 0B       		.uleb128 0xb
 8857 0237 3B       		.uleb128 0x3b
 8858 0238 05       		.uleb128 0x5
 8859 0239 27       		.uleb128 0x27
 8860 023a 19       		.uleb128 0x19
 8861 023b 49       		.uleb128 0x49
 8862 023c 13       		.uleb128 0x13
 8863 023d 11       		.uleb128 0x11
 8864 023e 01       		.uleb128 0x1
 8865 023f 12       		.uleb128 0x12
 8866 0240 06       		.uleb128 0x6
 8867 0241 40       		.uleb128 0x40
 8868 0242 18       		.uleb128 0x18
 8869 0243 9642     		.uleb128 0x2116
 8870 0245 19       		.uleb128 0x19
 8871 0246 01       		.uleb128 0x1
 8872 0247 13       		.uleb128 0x13
 8873 0248 00       		.byte	0
 8874 0249 00       		.byte	0
 8875 024a 2A       		.uleb128 0x2a
 8876 024b 34       		.uleb128 0x34
 8877 024c 00       		.byte	0
 8878 024d 03       		.uleb128 0x3
 8879 024e 08       		.uleb128 0x8
 8880 024f 3A       		.uleb128 0x3a
 8881 0250 0B       		.uleb128 0xb
 8882 0251 3B       		.uleb128 0x3b
 8883 0252 05       		.uleb128 0x5
 8884 0253 49       		.uleb128 0x49
 8885 0254 13       		.uleb128 0x13
 8886 0255 02       		.uleb128 0x2
 8887 0256 18       		.uleb128 0x18
 8888 0257 00       		.byte	0
 8889 0258 00       		.byte	0
 8890 0259 2B       		.uleb128 0x2b
 8891 025a 34       		.uleb128 0x34
 8892 025b 00       		.byte	0
 8893 025c 03       		.uleb128 0x3
 8894 025d 0E       		.uleb128 0xe
 8895 025e 3A       		.uleb128 0x3a
 8896 025f 0B       		.uleb128 0xb
 8897 0260 3B       		.uleb128 0x3b
 8898 0261 05       		.uleb128 0x5
 8899 0262 49       		.uleb128 0x49
 8900 0263 13       		.uleb128 0x13
 8901 0264 02       		.uleb128 0x2
 8902 0265 18       		.uleb128 0x18
 8903 0266 00       		.byte	0
 8904 0267 00       		.byte	0
 8905 0268 2C       		.uleb128 0x2c
 8906 0269 05       		.uleb128 0x5
 8907 026a 00       		.byte	0
 8908 026b 03       		.uleb128 0x3
 8909 026c 0E       		.uleb128 0xe
ARM GAS  /tmp/ccDGRO0L.s 			page 158


 8910 026d 3A       		.uleb128 0x3a
 8911 026e 0B       		.uleb128 0xb
 8912 026f 3B       		.uleb128 0x3b
 8913 0270 05       		.uleb128 0x5
 8914 0271 49       		.uleb128 0x49
 8915 0272 13       		.uleb128 0x13
 8916 0273 02       		.uleb128 0x2
 8917 0274 18       		.uleb128 0x18
 8918 0275 00       		.byte	0
 8919 0276 00       		.byte	0
 8920 0277 2D       		.uleb128 0x2d
 8921 0278 05       		.uleb128 0x5
 8922 0279 00       		.byte	0
 8923 027a 03       		.uleb128 0x3
 8924 027b 08       		.uleb128 0x8
 8925 027c 3A       		.uleb128 0x3a
 8926 027d 0B       		.uleb128 0xb
 8927 027e 3B       		.uleb128 0x3b
 8928 027f 05       		.uleb128 0x5
 8929 0280 49       		.uleb128 0x49
 8930 0281 13       		.uleb128 0x13
 8931 0282 02       		.uleb128 0x2
 8932 0283 18       		.uleb128 0x18
 8933 0284 00       		.byte	0
 8934 0285 00       		.byte	0
 8935 0286 2E       		.uleb128 0x2e
 8936 0287 34       		.uleb128 0x34
 8937 0288 00       		.byte	0
 8938 0289 03       		.uleb128 0x3
 8939 028a 0E       		.uleb128 0xe
 8940 028b 3A       		.uleb128 0x3a
 8941 028c 0B       		.uleb128 0xb
 8942 028d 3B       		.uleb128 0x3b
 8943 028e 05       		.uleb128 0x5
 8944 028f 49       		.uleb128 0x49
 8945 0290 13       		.uleb128 0x13
 8946 0291 3F       		.uleb128 0x3f
 8947 0292 19       		.uleb128 0x19
 8948 0293 3C       		.uleb128 0x3c
 8949 0294 19       		.uleb128 0x19
 8950 0295 00       		.byte	0
 8951 0296 00       		.byte	0
 8952 0297 2F       		.uleb128 0x2f
 8953 0298 34       		.uleb128 0x34
 8954 0299 00       		.byte	0
 8955 029a 03       		.uleb128 0x3
 8956 029b 08       		.uleb128 0x8
 8957 029c 3A       		.uleb128 0x3a
 8958 029d 0B       		.uleb128 0xb
 8959 029e 3B       		.uleb128 0x3b
 8960 029f 05       		.uleb128 0x5
 8961 02a0 49       		.uleb128 0x49
 8962 02a1 13       		.uleb128 0x13
 8963 02a2 3F       		.uleb128 0x3f
 8964 02a3 19       		.uleb128 0x19
 8965 02a4 3C       		.uleb128 0x3c
 8966 02a5 19       		.uleb128 0x19
ARM GAS  /tmp/ccDGRO0L.s 			page 159


 8967 02a6 00       		.byte	0
 8968 02a7 00       		.byte	0
 8969 02a8 30       		.uleb128 0x30
 8970 02a9 34       		.uleb128 0x34
 8971 02aa 00       		.byte	0
 8972 02ab 03       		.uleb128 0x3
 8973 02ac 0E       		.uleb128 0xe
 8974 02ad 3A       		.uleb128 0x3a
 8975 02ae 0B       		.uleb128 0xb
 8976 02af 3B       		.uleb128 0x3b
 8977 02b0 0B       		.uleb128 0xb
 8978 02b1 49       		.uleb128 0x49
 8979 02b2 13       		.uleb128 0x13
 8980 02b3 3F       		.uleb128 0x3f
 8981 02b4 19       		.uleb128 0x19
 8982 02b5 02       		.uleb128 0x2
 8983 02b6 18       		.uleb128 0x18
 8984 02b7 00       		.byte	0
 8985 02b8 00       		.byte	0
 8986 02b9 31       		.uleb128 0x31
 8987 02ba 34       		.uleb128 0x34
 8988 02bb 00       		.byte	0
 8989 02bc 03       		.uleb128 0x3
 8990 02bd 0E       		.uleb128 0xe
 8991 02be 3A       		.uleb128 0x3a
 8992 02bf 0B       		.uleb128 0xb
 8993 02c0 3B       		.uleb128 0x3b
 8994 02c1 0B       		.uleb128 0xb
 8995 02c2 49       		.uleb128 0x49
 8996 02c3 13       		.uleb128 0x13
 8997 02c4 3F       		.uleb128 0x3f
 8998 02c5 19       		.uleb128 0x19
 8999 02c6 3C       		.uleb128 0x3c
 9000 02c7 19       		.uleb128 0x19
 9001 02c8 00       		.byte	0
 9002 02c9 00       		.byte	0
 9003 02ca 00       		.byte	0
 9004              		.section	.debug_aranges,"",%progbits
 9005 0000 1C000000 		.4byte	0x1c
 9006 0004 0200     		.2byte	0x2
 9007 0006 00000000 		.4byte	.Ldebug_info0
 9008 000a 04       		.byte	0x4
 9009 000b 00       		.byte	0
 9010 000c 0000     		.2byte	0
 9011 000e 0000     		.2byte	0
 9012 0010 00000000 		.4byte	.Ltext0
 9013 0014 A8140000 		.4byte	.Letext0-.Ltext0
 9014 0018 00000000 		.4byte	0
 9015 001c 00000000 		.4byte	0
 9016              		.section	.debug_ranges,"",%progbits
 9017              	.Ldebug_ranges0:
 9018 0000 74030000 		.4byte	.LBB2-.Ltext0
 9019 0004 FA040000 		.4byte	.LBE2-.Ltext0
 9020 0008 FC040000 		.4byte	.LBB3-.Ltext0
 9021 000c FE040000 		.4byte	.LBE3-.Ltext0
 9022 0010 00000000 		.4byte	0
 9023 0014 00000000 		.4byte	0
ARM GAS  /tmp/ccDGRO0L.s 			page 160


 9024              		.section	.debug_line,"",%progbits
 9025              	.Ldebug_line0:
 9026 0000 A8070000 		.section	.debug_str,"MS",%progbits,1
 9026      02007304 
 9026      00000201 
 9026      FB0E0D00 
 9026      01010101 
 9027              	.LASF56:
 9028 0000 74687265 		.ascii	"threads_queue_t\000"
 9028      6164735F 
 9028      71756575 
 9028      655F7400 
 9029              	.LASF376:
 9030 0010 72616E64 		.ascii	"random_number\000"
 9030      6F6D5F6E 
 9030      756D6265 
 9030      7200
 9031              	.LASF146:
 9032 001e 48414C5F 		.ascii	"HAL_SPI_STATE_BUSY_RX\000"
 9032      5350495F 
 9032      53544154 
 9032      455F4255 
 9032      53595F52 
 9033              	.LASF390:
 9034 0034 70617261 		.ascii	"params\000"
 9034      6D7300
 9035              	.LASF261:
 9036 003b 696E7465 		.ascii	"interval\000"
 9036      7276616C 
 9036      00
 9037              	.LASF174:
 9038 0044 77746D74 		.ascii	"wtmtxp\000"
 9038      787000
 9039              	.LASF283:
 9040 004b 6C655F72 		.ascii	"le_remove_device_from_white_list_cp\000"
 9040      656D6F76 
 9040      655F6465 
 9040      76696365 
 9040      5F66726F 
 9041              	.LASF244:
 9042 006f 6F776E5F 		.ascii	"own_bdaddr_type\000"
 9042      62646164 
 9042      64725F74 
 9042      79706500 
 9043              	.LASF52:
 9044 007f 74687265 		.ascii	"thread_reference_t\000"
 9044      61645F72 
 9044      65666572 
 9044      656E6365 
 9044      5F7400
 9045              	.LASF99:
 9046 0092 63686172 		.ascii	"char\000"
 9046      00
 9047              	.LASF163:
 9048 0097 72656761 		.ascii	"regarm_t\000"
 9048      726D5F74 
 9048      00
ARM GAS  /tmp/ccDGRO0L.s 			page 161


 9049              	.LASF321:
 9050 00a0 6576745F 		.ascii	"evt_cmd_status\000"
 9050      636D645F 
 9050      73746174 
 9050      757300
 9051              	.LASF352:
 9052 00af 6D6F7665 		.ascii	"move_list\000"
 9052      5F6C6973 
 9052      7400
 9053              	.LASF36:
 9054 00b9 705F7072 		.ascii	"p_prio\000"
 9054      696F00
 9055              	.LASF98:
 9056 00c0 5350495F 		.ascii	"SPI_TypeDef\000"
 9056      54797065 
 9056      44656600 
 9057              	.LASF143:
 9058 00cc 48414C5F 		.ascii	"HAL_SPI_STATE_READY\000"
 9058      5350495F 
 9058      53544154 
 9058      455F5245 
 9058      41445900 
 9059              	.LASF101:
 9060 00e0 48414C5F 		.ascii	"HAL_LOCKED\000"
 9060      4C4F434B 
 9060      454400
 9061              	.LASF120:
 9062 00eb 4C6F636B 		.ascii	"Lock\000"
 9062      00
 9063              	.LASF237:
 9064 00f0 6C655F72 		.ascii	"le_read_local_supported_features_rp\000"
 9064      6561645F 
 9064      6C6F6361 
 9064      6C5F7375 
 9064      70706F72 
 9065              	.LASF169:
 9066 0114 7264796D 		.ascii	"rdymsg\000"
 9066      736700
 9067              	.LASF219:
 9068 011b 6C6D705F 		.ascii	"lmp_pal_version\000"
 9068      70616C5F 
 9068      76657273 
 9068      696F6E00 
 9069              	.LASF32:
 9070 012b 73797374 		.ascii	"systime_t\000"
 9070      696D655F 
 9070      7400
 9071              	.LASF374:
 9072 0135 6863695F 		.ascii	"hci_le_set_scan_enable\000"
 9072      6C655F73 
 9072      65745F73 
 9072      63616E5F 
 9072      656E6162 
 9073              	.LASF136:
 9074 014c 54494D6F 		.ascii	"TIMode\000"
 9074      646500
 9075              	.LASF370:
ARM GAS  /tmp/ccDGRO0L.s 			page 162


 9076 0153 6863695F 		.ascii	"hci_le_set_advertising_data\000"
 9076      6C655F73 
 9076      65745F61 
 9076      64766572 
 9076      74697369 
 9077              	.LASF177:
 9078 016f 735F7175 		.ascii	"s_queue\000"
 9078      65756500 
 9079              	.LASF76:
 9080 0177 76745F73 		.ascii	"vt_systime\000"
 9080      79737469 
 9080      6D6500
 9081              	.LASF46:
 9082 0182 705F6D73 		.ascii	"p_msgqueue\000"
 9082      67717565 
 9082      756500
 9083              	.LASF323:
 9084 018d 73756265 		.ascii	"subevent\000"
 9084      76656E74 
 9084      00
 9085              	.LASF225:
 9086 0196 72656164 		.ascii	"read_bd_addr_rp\000"
 9086      5F62645F 
 9086      61646472 
 9086      5F727000 
 9087              	.LASF187:
 9088 01a6 6E657874 		.ascii	"next\000"
 9088      00
 9089              	.LASF106:
 9090 01ab 4D656D49 		.ascii	"MemInc\000"
 9090      6E6300
 9091              	.LASF0:
 9092 01b2 5F5F696E 		.ascii	"__int8_t\000"
 9092      74385F74 
 9092      00
 9093              	.LASF53:
 9094 01bb 74687265 		.ascii	"threads_list_t\000"
 9094      6164735F 
 9094      6C697374 
 9094      5F7400
 9095              	.LASF402:
 9096 01ca 6863695F 		.ascii	"hci_le_read_channel_map\000"
 9096      6C655F72 
 9096      6561645F 
 9096      6368616E 
 9096      6E656C5F 
 9097              	.LASF331:
 9098 01e2 74436C6F 		.ascii	"tClockTime\000"
 9098      636B5469 
 9098      6D6500
 9099              	.LASF158:
 9100 01ed 52784953 		.ascii	"RxISR\000"
 9100      5200
 9101              	.LASF241:
 9102 01f3 6D696E5F 		.ascii	"min_interval\000"
 9102      696E7465 
 9102      7276616C 
ARM GAS  /tmp/ccDGRO0L.s 			page 163


 9102      00
 9103              	.LASF116:
 9104 0200 48414C5F 		.ascii	"HAL_DMA_StateTypeDef\000"
 9104      444D415F 
 9104      53746174 
 9104      65547970 
 9104      65446566 
 9105              	.LASF45:
 9106 0215 705F7761 		.ascii	"p_waiting\000"
 9106      6974696E 
 9106      6700
 9107              	.LASF334:
 9108 021f 696E6465 		.ascii	"index\000"
 9108      7800
 9109              	.LASF293:
 9110 0225 6C655F65 		.ascii	"le_encrypt_rp\000"
 9110      6E637279 
 9110      70745F72 
 9110      7000
 9111              	.LASF94:
 9112 0233 52584352 		.ascii	"RXCRCR\000"
 9112      435200
 9113              	.LASF329:
 9114 023a 72706172 		.ascii	"rparam\000"
 9114      616D00
 9115              	.LASF89:
 9116 0241 434D4152 		.ascii	"CMAR\000"
 9116      00
 9117              	.LASF123:
 9118 0246 58666572 		.ascii	"XferCpltCallback\000"
 9118      43706C74 
 9118      43616C6C 
 9118      6261636B 
 9118      00
 9119              	.LASF290:
 9120 0257 6C655F65 		.ascii	"le_encrypt_cp\000"
 9120      6E637279 
 9120      70745F63 
 9120      7000
 9121              	.LASF171:
 9122 0265 77746F62 		.ascii	"wtobjp\000"
 9122      6A7000
 9123              	.LASF83:
 9124 026c 76746C69 		.ascii	"vtlist\000"
 9124      737400
 9125              	.LASF399:
 9126 0273 74785F6C 		.ascii	"tx_level\000"
 9126      6576656C 
 9126      00
 9127              	.LASF110:
 9128 027c 5072696F 		.ascii	"Priority\000"
 9128      72697479 
 9128      00
 9129              	.LASF90:
 9130 0285 444D415F 		.ascii	"DMA_Channel_TypeDef\000"
 9130      4368616E 
 9130      6E656C5F 
ARM GAS  /tmp/ccDGRO0L.s 			page 164


 9130      54797065 
 9130      44656600 
 9131              	.LASF246:
 9132 0299 64697265 		.ascii	"direct_bdaddr\000"
 9132      63745F62 
 9132      64616464 
 9132      7200
 9133              	.LASF256:
 9134 02a7 6C655F73 		.ascii	"le_set_scan_response_data_cp\000"
 9134      65745F73 
 9134      63616E5F 
 9134      72657370 
 9134      6F6E7365 
 9135              	.LASF85:
 9136 02c4 69646C65 		.ascii	"idle_thread_wa\000"
 9136      5F746872 
 9136      6561645F 
 9136      776100
 9137              	.LASF212:
 9138 02d3 5F726561 		.ascii	"_read_transmit_power_level_rp\000"
 9138      645F7472 
 9138      616E736D 
 9138      69745F70 
 9138      6F776572 
 9139              	.LASF344:
 9140 02f1 6E5F6279 		.ascii	"n_bytes1\000"
 9140      74657331 
 9140      00
 9141              	.LASF345:
 9142 02fa 6E5F6279 		.ascii	"n_bytes2\000"
 9142      74657332 
 9142      00
 9143              	.LASF121:
 9144 0303 53746174 		.ascii	"State\000"
 9144      6500
 9145              	.LASF175:
 9146 0309 65776D61 		.ascii	"ewmask\000"
 9146      736B00
 9147              	.LASF383:
 9148 0310 6863695F 		.ascii	"hci_read_bd_addr\000"
 9148      72656164 
 9148      5F62645F 
 9148      61646472 
 9148      00
 9149              	.LASF188:
 9150 0321 70726576 		.ascii	"prev\000"
 9150      00
 9151              	.LASF295:
 9152 0326 72616E64 		.ascii	"random\000"
 9152      6F6D00
 9153              	.LASF145:
 9154 032d 48414C5F 		.ascii	"HAL_SPI_STATE_BUSY_TX\000"
 9154      5350495F 
 9154      53544154 
 9154      455F4255 
 9154      53595F54 
 9155              	.LASF210:
ARM GAS  /tmp/ccDGRO0L.s 			page 165


 9156 0343 5F726561 		.ascii	"_read_transmit_power_level_cp\000"
 9156      645F7472 
 9156      616E736D 
 9156      69745F70 
 9156      6F776572 
 9157              	.LASF209:
 9158 0361 64697363 		.ascii	"disconnect_cp\000"
 9158      6F6E6E65 
 9158      63745F63 
 9158      7000
 9159              	.LASF112:
 9160 036f 48414C5F 		.ascii	"HAL_DMA_STATE_RESET\000"
 9160      444D415F 
 9160      53544154 
 9160      455F5245 
 9160      53455400 
 9161              	.LASF129:
 9162 0383 4368616E 		.ascii	"ChannelIndex\000"
 9162      6E656C49 
 9162      6E646578 
 9162      00
 9163              	.LASF308:
 9164 0390 5F6C655F 		.ascii	"_le_receiver_test_cp\000"
 9164      72656365 
 9164      69766572 
 9164      5F746573 
 9164      745F6370 
 9165              	.LASF414:
 9166 03a5 53706948 		.ascii	"SpiHandle\000"
 9166      616E646C 
 9166      6500
 9167              	.LASF300:
 9168 03af 6C655F6C 		.ascii	"le_ltk_reply_rp\000"
 9168      746B5F72 
 9168      65706C79 
 9168      5F727000 
 9169              	.LASF138:
 9170 03bf 43524350 		.ascii	"CRCPolynomial\000"
 9170      6F6C796E 
 9170      6F6D6961 
 9170      6C00
 9171              	.LASF257:
 9172 03cd 5F6C655F 		.ascii	"_le_set_advertise_enable_cp\000"
 9172      7365745F 
 9172      61647665 
 9172      72746973 
 9172      655F656E 
 9173              	.LASF320:
 9174 03e9 5F657674 		.ascii	"_evt_cmd_status\000"
 9174      5F636D64 
 9174      5F737461 
 9174      74757300 
 9175              	.LASF66:
 9176 03f9 76746675 		.ascii	"vtfunc_t\000"
 9176      6E635F74 
 9176      00
 9177              	.LASF103:
ARM GAS  /tmp/ccDGRO0L.s 			page 166


 9178 0402 52657175 		.ascii	"Request\000"
 9178      65737400 
 9179              	.LASF78:
 9180 040a 63685F73 		.ascii	"ch_system_debug\000"
 9180      79737465 
 9180      6D5F6465 
 9180      62756700 
 9181              	.LASF298:
 9182 041a 6C655F6C 		.ascii	"le_ltk_reply_cp\000"
 9182      746B5F72 
 9182      65706C79 
 9182      5F637000 
 9183              	.LASF87:
 9184 042a 434E4454 		.ascii	"CNDTR\000"
 9184      5200
 9185              	.LASF178:
 9186 0430 735F636E 		.ascii	"s_cnt\000"
 9186      7400
 9187              	.LASF285:
 9188 0436 6C655F72 		.ascii	"le_read_channel_map_cp\000"
 9188      6561645F 
 9188      6368616E 
 9188      6E656C5F 
 9188      6D61705F 
 9189              	.LASF418:
 9190 044d 6863695F 		.ascii	"hci_timeout_callback\000"
 9190      74696D65 
 9190      6F75745F 
 9190      63616C6C 
 9190      6261636B 
 9191              	.LASF59:
 9192 0462 63685F72 		.ascii	"ch_ready_list\000"
 9192      65616479 
 9192      5F6C6973 
 9192      7400
 9193              	.LASF156:
 9194 0470 52785866 		.ascii	"RxXferCount\000"
 9194      6572436F 
 9194      756E7400 
 9195              	.LASF358:
 9196 047c 6576656E 		.ascii	"event_pckt\000"
 9196      745F7063 
 9196      6B7400
 9197              	.LASF115:
 9198 0487 48414C5F 		.ascii	"HAL_DMA_STATE_TIMEOUT\000"
 9198      444D415F 
 9198      53544154 
 9198      455F5449 
 9198      4D454F55 
 9199              	.LASF168:
 9200 049d 746D5F63 		.ascii	"tm_calibration_t\000"
 9200      616C6962 
 9200      72617469 
 9200      6F6E5F74 
 9200      00
 9201              	.LASF19:
 9202 04ae 75696E74 		.ascii	"uint32_t\000"
ARM GAS  /tmp/ccDGRO0L.s 			page 167


 9202      33325F74 
 9202      00
 9203              	.LASF15:
 9204 04b7 696E7438 		.ascii	"int8_t\000"
 9204      5F7400
 9205              	.LASF393:
 9206 04be 6863695F 		.ascii	"hci_le_read_white_list_size\000"
 9206      6C655F72 
 9206      6561645F 
 9206      77686974 
 9206      655F6C69 
 9207              	.LASF30:
 9208 04da 6576656E 		.ascii	"eventmask_t\000"
 9208      746D6173 
 9208      6B5F7400 
 9209              	.LASF61:
 9210 04e6 725F7072 		.ascii	"r_prio\000"
 9210      696F00
 9211              	.LASF73:
 9212 04ed 76745F70 		.ascii	"vt_par\000"
 9212      617200
 9213              	.LASF326:
 9214 04f4 6576656E 		.ascii	"event\000"
 9214      7400
 9215              	.LASF317:
 9216 04fa 5F657674 		.ascii	"_evt_cmd_complete\000"
 9216      5F636D64 
 9216      5F636F6D 
 9216      706C6574 
 9216      6500
 9217              	.LASF176:
 9218 050c 63685F73 		.ascii	"ch_semaphore\000"
 9218      656D6170 
 9218      686F7265 
 9218      00
 9219              	.LASF351:
 9220 0519 746D705F 		.ascii	"tmp_node\000"
 9220      6E6F6465 
 9220      00
 9221              	.LASF28:
 9222 0522 74707269 		.ascii	"tprio_t\000"
 9222      6F5F7400 
 9223              	.LASF296:
 9224 052a 6C655F72 		.ascii	"le_rand_rp\000"
 9224      616E645F 
 9224      727000
 9225              	.LASF340:
 9226 0535 4843495F 		.ascii	"HCI_Isr\000"
 9226      49737200 
 9227              	.LASF13:
 9228 053d 6C6F6E67 		.ascii	"long long unsigned int\000"
 9228      206C6F6E 
 9228      6720756E 
 9228      7369676E 
 9228      65642069 
 9229              	.LASF190:
 9230 0554 704C6973 		.ascii	"pListNode\000"
ARM GAS  /tmp/ccDGRO0L.s 			page 168


 9230      744E6F64 
 9230      6500
 9231              	.LASF21:
 9232 055e 424F4F4C 		.ascii	"BOOL\000"
 9232      00
 9233              	.LASF224:
 9234 0563 62646164 		.ascii	"bdaddr\000"
 9234      647200
 9235              	.LASF154:
 9236 056a 70527842 		.ascii	"pRxBuffPtr\000"
 9236      75666650 
 9236      747200
 9237              	.LASF167:
 9238 0575 6F666673 		.ascii	"offset\000"
 9238      657400
 9239              	.LASF208:
 9240 057c 72656173 		.ascii	"reason\000"
 9240      6F6E00
 9241              	.LASF328:
 9242 0583 636C656E 		.ascii	"clen\000"
 9242      00
 9243              	.LASF372:
 9244 0588 6863695F 		.ascii	"hci_le_set_scan_parameters\000"
 9244      6C655F73 
 9244      65745F73 
 9244      63616E5F 
 9244      70617261 
 9245              	.LASF368:
 9246 05a3 6863695F 		.ascii	"hci_le_set_advertising_parameters\000"
 9246      6C655F73 
 9246      65745F61 
 9246      64766572 
 9246      74697369 
 9247              	.LASF68:
 9248 05c5 63685F76 		.ascii	"ch_virtual_timer\000"
 9248      69727475 
 9248      616C5F74 
 9248      696D6572 
 9248      00
 9249              	.LASF5:
 9250 05d6 5F5F7569 		.ascii	"__uint16_t\000"
 9250      6E743136 
 9250      5F7400
 9251              	.LASF388:
 9252 05e1 706C6169 		.ascii	"plaintextData\000"
 9252      6E746578 
 9252      74446174 
 9252      6100
 9253              	.LASF349:
 9254 05ef 64657374 		.ascii	"dest_list\000"
 9254      5F6C6973 
 9254      7400
 9255              	.LASF356:
 9256 05f9 6863695F 		.ascii	"hci_send_req\000"
 9256      73656E64 
 9256      5F726571 
 9256      00
ARM GAS  /tmp/ccDGRO0L.s 			page 169


 9257              	.LASF139:
 9258 0606 4352434C 		.ascii	"CRCLength\000"
 9258      656E6774 
 9258      6800
 9259              	.LASF258:
 9260 0610 656E6162 		.ascii	"enable\000"
 9260      6C6500
 9261              	.LASF254:
 9262 0617 6C655F73 		.ascii	"le_set_adv_data_cp\000"
 9262      65745F61 
 9262      64765F64 
 9262      6174615F 
 9262      637000
 9263              	.LASF122:
 9264 062a 50617265 		.ascii	"Parent\000"
 9264      6E7400
 9265              	.LASF238:
 9266 0631 5F6C655F 		.ascii	"_le_set_random_address_cp\000"
 9266      7365745F 
 9266      72616E64 
 9266      6F6D5F61 
 9266      64647265 
 9267              	.LASF75:
 9268 064b 63685F76 		.ascii	"ch_virtual_timers_list\000"
 9268      69727475 
 9268      616C5F74 
 9268      696D6572 
 9268      735F6C69 
 9269              	.LASF71:
 9270 0662 76745F64 		.ascii	"vt_delta\000"
 9270      656C7461 
 9270      00
 9271              	.LASF88:
 9272 066b 43504152 		.ascii	"CPAR\000"
 9272      00
 9273              	.LASF267:
 9274 0670 5F6C655F 		.ascii	"_le_create_connection_cp\000"
 9274      63726561 
 9274      74655F63 
 9274      6F6E6E65 
 9274      6374696F 
 9275              	.LASF33:
 9276 0689 74687265 		.ascii	"thread_t\000"
 9276      61645F74 
 9276      00
 9277              	.LASF315:
 9278 0692 6E756D5F 		.ascii	"num_pkts\000"
 9278      706B7473 
 9278      00
 9279              	.LASF410:
 9280 069b 6863695F 		.ascii	"hci_timeout\000"
 9280      74696D65 
 9280      6F757400 
 9281              	.LASF243:
 9282 06a7 61647674 		.ascii	"advtype\000"
 9282      79706500 
 9283              	.LASF119:
ARM GAS  /tmp/ccDGRO0L.s 			page 170


 9284 06af 496E6974 		.ascii	"Init\000"
 9284      00
 9285              	.LASF22:
 9286 06b4 73697A65 		.ascii	"size_t\000"
 9286      5F7400
 9287              	.LASF131:
 9288 06bb 44617461 		.ascii	"DataSize\000"
 9288      53697A65 
 9288      00
 9289              	.LASF312:
 9290 06c4 7061796C 		.ascii	"payload\000"
 9290      6F616400 
 9291              	.LASF247:
 9292 06cc 6368616E 		.ascii	"chan_map\000"
 9292      5F6D6170 
 9292      00
 9293              	.LASF107:
 9294 06d5 50657269 		.ascii	"PeriphDataAlignment\000"
 9294      70684461 
 9294      7461416C 
 9294      69676E6D 
 9294      656E7400 
 9295              	.LASF147:
 9296 06e9 48414C5F 		.ascii	"HAL_SPI_STATE_BUSY_TX_RX\000"
 9296      5350495F 
 9296      53544154 
 9296      455F4255 
 9296      53595F54 
 9297              	.LASF137:
 9298 0702 43524343 		.ascii	"CRCCalculation\000"
 9298      616C6375 
 9298      6C617469 
 9298      6F6E00
 9299              	.LASF350:
 9300 0711 7372635F 		.ascii	"src_list\000"
 9300      6C697374 
 9300      00
 9301              	.LASF184:
 9302 071a 5F426F6F 		.ascii	"_Bool\000"
 9302      6C00
 9303              	.LASF11:
 9304 0720 6C6F6E67 		.ascii	"long long int\000"
 9304      206C6F6E 
 9304      6720696E 
 9304      7400
 9305              	.LASF125:
 9306 072e 58666572 		.ascii	"XferErrorCallback\000"
 9306      4572726F 
 9306      7243616C 
 9306      6C626163 
 9306      6B00
 9307              	.LASF216:
 9308 0740 5F726561 		.ascii	"_read_local_version_rp\000"
 9308      645F6C6F 
 9308      63616C5F 
 9308      76657273 
 9308      696F6E5F 
ARM GAS  /tmp/ccDGRO0L.s 			page 171


 9309              	.LASF179:
 9310 0757 63685F6D 		.ascii	"ch_mutex\000"
 9310      75746578 
 9310      00
 9311              	.LASF12:
 9312 0760 5F5F7569 		.ascii	"__uint64_t\000"
 9312      6E743634 
 9312      5F7400
 9313              	.LASF199:
 9314 076b 6863695F 		.ascii	"hci_uart_pckt\000"
 9314      75617274 
 9314      5F70636B 
 9314      7400
 9315              	.LASF100:
 9316 0779 48414C5F 		.ascii	"HAL_UNLOCKED\000"
 9316      554E4C4F 
 9316      434B4544 
 9316      00
 9317              	.LASF130:
 9318 0786 444D415F 		.ascii	"DMA_HandleTypeDef\000"
 9318      48616E64 
 9318      6C655479 
 9318      70654465 
 9318      6600
 9319              	.LASF95:
 9320 0798 54584352 		.ascii	"TXCRCR\000"
 9320      435200
 9321              	.LASF405:
 9322 079f 6863695F 		.ascii	"hci_le_receiver_test\000"
 9322      6C655F72 
 9322      65636569 
 9322      7665725F 
 9322      74657374 
 9323              	.LASF189:
 9324 07b4 744C6973 		.ascii	"tListNode\000"
 9324      744E6F64 
 9324      6500
 9325              	.LASF134:
 9326 07be 42617564 		.ascii	"BaudRatePrescaler\000"
 9326      52617465 
 9326      50726573 
 9326      63616C65 
 9326      7200
 9327              	.LASF353:
 9328 07d0 66726565 		.ascii	"free_event_list\000"
 9328      5F657665 
 9328      6E745F6C 
 9328      69737400 
 9329              	.LASF159:
 9330 07e0 54784953 		.ascii	"TxISR\000"
 9330      5200
 9331              	.LASF236:
 9332 07e6 66656174 		.ascii	"features\000"
 9332      75726573 
 9332      00
 9333              	.LASF40:
 9334 07ef 705F6E61 		.ascii	"p_name\000"
ARM GAS  /tmp/ccDGRO0L.s 			page 172


 9334      6D6500
 9335              	.LASF239:
 9336 07f6 6C655F73 		.ascii	"le_set_random_address_cp\000"
 9336      65745F72 
 9336      616E646F 
 9336      6D5F6164 
 9336      64726573 
 9337              	.LASF314:
 9338 080f 5F6C655F 		.ascii	"_le_test_end_rp\000"
 9338      74657374 
 9338      5F656E64 
 9338      5F727000 
 9339              	.LASF206:
 9340 081f 5F646973 		.ascii	"_disconnect_cp\000"
 9340      636F6E6E 
 9340      6563745F 
 9340      637000
 9341              	.LASF162:
 9342 082e 5350495F 		.ascii	"SPI_HandleTypeDef\000"
 9342      48616E64 
 9342      6C655479 
 9342      70654465 
 9342      6600
 9343              	.LASF294:
 9344 0840 5F6C655F 		.ascii	"_le_rand_rp\000"
 9344      72616E64 
 9344      5F727000 
 9345              	.LASF117:
 9346 084c 5F5F444D 		.ascii	"__DMA_HandleTypeDef\000"
 9346      415F4861 
 9346      6E646C65 
 9346      54797065 
 9346      44656600 
 9347              	.LASF55:
 9348 0860 63685F74 		.ascii	"ch_threads_list\000"
 9348      68726561 
 9348      64735F6C 
 9348      69737400 
 9349              	.LASF306:
 9350 0870 73746174 		.ascii	"states\000"
 9350      657300
 9351              	.LASF333:
 9352 0877 73746172 		.ascii	"start\000"
 9352      7400
 9353              	.LASF275:
 9354 087d 6C655F63 		.ascii	"le_create_connection_cp\000"
 9354      72656174 
 9354      655F636F 
 9354      6E6E6563 
 9354      74696F6E 
 9355              	.LASF357:
 9356 0895 6173796E 		.ascii	"async\000"
 9356      6300
 9357              	.LASF252:
 9358 089b 5F6C655F 		.ascii	"_le_set_adv_data_cp\000"
 9358      7365745F 
 9358      6164765F 
ARM GAS  /tmp/ccDGRO0L.s 			page 173


 9358      64617461 
 9358      5F637000 
 9359              	.LASF7:
 9360 08af 5F5F696E 		.ascii	"__int32_t\000"
 9360      7433325F 
 9360      7400
 9361              	.LASF63:
 9362 08b9 725F6E65 		.ascii	"r_newer\000"
 9362      77657200 
 9363              	.LASF316:
 9364 08c1 6C655F74 		.ascii	"le_test_end_rp\000"
 9364      6573745F 
 9364      656E645F 
 9364      727000
 9365              	.LASF25:
 9366 08d0 74737461 		.ascii	"tstate_t\000"
 9366      74655F74 
 9366      00
 9367              	.LASF198:
 9368 08d9 64617461 		.ascii	"data\000"
 9368      00
 9369              	.LASF201:
 9370 08de 6F70636F 		.ascii	"opcode\000"
 9370      646500
 9371              	.LASF401:
 9372 08e5 6863695F 		.ascii	"hci_le_read_local_supported_features\000"
 9372      6C655F72 
 9372      6561645F 
 9372      6C6F6361 
 9372      6C5F7375 
 9373              	.LASF39:
 9374 090a 705F6F6C 		.ascii	"p_older\000"
 9374      64657200 
 9375              	.LASF291:
 9376 0912 5F6C655F 		.ascii	"_le_encrypt_rp\000"
 9376      656E6372 
 9376      7970745F 
 9376      727000
 9377              	.LASF408:
 9378 0921 68636952 		.ascii	"hciReadPacketBuffer\000"
 9378      65616450 
 9378      61636B65 
 9378      74427566 
 9378      66657200 
 9379              	.LASF380:
 9380 0935 74785F70 		.ascii	"tx_power_level\000"
 9380      6F776572 
 9380      5F6C6576 
 9380      656C00
 9381              	.LASF152:
 9382 0944 54785866 		.ascii	"TxXferSize\000"
 9382      65725369 
 9382      7A6500
 9383              	.LASF16:
 9384 094f 75696E74 		.ascii	"uint8_t\000"
 9384      385F7400 
 9385              	.LASF213:
ARM GAS  /tmp/ccDGRO0L.s 			page 174


 9386 0957 73746174 		.ascii	"status\000"
 9386      757300
 9387              	.LASF132:
 9388 095e 434C4B50 		.ascii	"CLKPolarity\000"
 9388      6F6C6172 
 9388      69747900 
 9389              	.LASF327:
 9390 096a 63706172 		.ascii	"cparam\000"
 9390      616D00
 9391              	.LASF288:
 9392 0971 5F6C655F 		.ascii	"_le_encrypt_cp\000"
 9392      656E6372 
 9392      7970745F 
 9392      637000
 9393              	.LASF266:
 9394 0980 6C655F73 		.ascii	"le_set_scan_enable_cp\000"
 9394      65745F73 
 9394      63616E5F 
 9394      656E6162 
 9394      6C655F63 
 9395              	.LASF282:
 9396 0996 5F6C655F 		.ascii	"_le_remove_device_from_white_list_cp\000"
 9396      72656D6F 
 9396      76655F64 
 9396      65766963 
 9396      655F6672 
 9397              	.LASF49:
 9398 09bb 705F6D74 		.ascii	"p_mtxlist\000"
 9398      786C6973 
 9398      7400
 9399              	.LASF325:
 9400 09c5 6863695F 		.ascii	"hci_request\000"
 9400      72657175 
 9400      65737400 
 9401              	.LASF41:
 9402 09d1 705F7374 		.ascii	"p_state\000"
 9402      61746500 
 9403              	.LASF54:
 9404 09d9 63685F74 		.ascii	"ch_thread\000"
 9404      68726561 
 9404      6400
 9405              	.LASF4:
 9406 09e3 73686F72 		.ascii	"short int\000"
 9406      7420696E 
 9406      7400
 9407              	.LASF406:
 9408 09ed 6863695F 		.ascii	"hci_le_transmitter_test\000"
 9408      6C655F74 
 9408      72616E73 
 9408      6D697474 
 9408      65725F74 
 9409              	.LASF200:
 9410 0a05 5F686369 		.ascii	"_hci_command_hdr\000"
 9410      5F636F6D 
 9410      6D616E64 
 9410      5F686472 
 9410      00
ARM GAS  /tmp/ccDGRO0L.s 			page 175


 9411              	.LASF310:
 9412 0a16 6C655F72 		.ascii	"le_receiver_test_cp\000"
 9412      65636569 
 9412      7665725F 
 9412      74657374 
 9412      5F637000 
 9413              	.LASF389:
 9414 0a2a 656E6372 		.ascii	"encryptedData\000"
 9414      79707465 
 9414      64446174 
 9414      6100
 9415              	.LASF77:
 9416 0a38 73797374 		.ascii	"system_debug_t\000"
 9416      656D5F64 
 9416      65627567 
 9416      5F7400
 9417              	.LASF343:
 9418 0a47 64617461 		.ascii	"data2\000"
 9418      3200
 9419              	.LASF337:
 9420 0a4d 4843495F 		.ascii	"HCI_Process\000"
 9420      50726F63 
 9420      65737300 
 9421              	.LASF395:
 9422 0a59 6863695F 		.ascii	"hci_le_add_device_to_white_list\000"
 9422      6C655F61 
 9422      64645F64 
 9422      65766963 
 9422      655F746F 
 9423              	.LASF255:
 9424 0a79 5F6C655F 		.ascii	"_le_set_scan_response_data_cp\000"
 9424      7365745F 
 9424      7363616E 
 9424      5F726573 
 9424      706F6E73 
 9425              	.LASF57:
 9426 0a97 63685F74 		.ascii	"ch_threads_queue\000"
 9426      68726561 
 9426      64735F71 
 9426      75657565 
 9426      00
 9427              	.LASF359:
 9428 0aa8 6863695F 		.ascii	"hci_hdr\000"
 9428      68647200 
 9429              	.LASF355:
 9430 0ab0 4843495F 		.ascii	"HCI_verify\000"
 9430      76657269 
 9430      667900
 9431              	.LASF135:
 9432 0abb 46697273 		.ascii	"FirstBit\000"
 9432      74426974 
 9432      00
 9433              	.LASF341:
 9434 0ac4 6863695F 		.ascii	"hci_write\000"
 9434      77726974 
 9434      6500
 9435              	.LASF262:
ARM GAS  /tmp/ccDGRO0L.s 			page 176


 9436 0ace 77696E64 		.ascii	"window\000"
 9436      6F7700
 9437              	.LASF373:
 9438 0ad5 7363616E 		.ascii	"scan_cp\000"
 9438      5F637000 
 9439              	.LASF31:
 9440 0add 636E745F 		.ascii	"cnt_t\000"
 9440      7400
 9441              	.LASF29:
 9442 0ae3 6D73675F 		.ascii	"msg_t\000"
 9442      7400
 9443              	.LASF142:
 9444 0ae9 48414C5F 		.ascii	"HAL_SPI_STATE_RESET\000"
 9444      5350495F 
 9444      53544154 
 9444      455F5245 
 9444      53455400 
 9445              	.LASF165:
 9446 0afd 636F6E74 		.ascii	"context\000"
 9446      65787400 
 9447              	.LASF150:
 9448 0b05 5F5F5350 		.ascii	"__SPI_HandleTypeDef\000"
 9448      495F4861 
 9448      6E646C65 
 9448      54797065 
 9448      44656600 
 9449              	.LASF161:
 9450 0b19 68646D61 		.ascii	"hdmarx\000"
 9450      727800
 9451              	.LASF227:
 9452 0b20 72656164 		.ascii	"read_rssi_cp\000"
 9452      5F727373 
 9452      695F6370 
 9452      00
 9453              	.LASF42:
 9454 0b2d 705F666C 		.ascii	"p_flags\000"
 9454      61677300 
 9455              	.LASF271:
 9456 0b35 6C617465 		.ascii	"latency\000"
 9456      6E637900 
 9457              	.LASF221:
 9458 0b3d 6C6D705F 		.ascii	"lmp_pal_subversion\000"
 9458      70616C5F 
 9458      73756276 
 9458      65727369 
 9458      6F6E00
 9459              	.LASF148:
 9460 0b50 48414C5F 		.ascii	"HAL_SPI_STATE_ERROR\000"
 9460      5350495F 
 9460      53544154 
 9460      455F4552 
 9460      524F5200 
 9461              	.LASF274:
 9462 0b64 6D61785F 		.ascii	"max_ce_length\000"
 9462      63655F6C 
 9462      656E6774 
 9462      6800
ARM GAS  /tmp/ccDGRO0L.s 			page 177


 9463              	.LASF67:
 9464 0b72 76697274 		.ascii	"virtual_timer_t\000"
 9464      75616C5F 
 9464      74696D65 
 9464      725F7400 
 9465              	.LASF126:
 9466 0b82 58666572 		.ascii	"XferAbortCallback\000"
 9466      41626F72 
 9466      7443616C 
 9466      6C626163 
 9466      6B00
 9467              	.LASF394:
 9468 0b94 6863695F 		.ascii	"hci_le_clear_white_list\000"
 9468      6C655F63 
 9468      6C656172 
 9468      5F776869 
 9468      74655F6C 
 9469              	.LASF92:
 9470 0bac 444D415F 		.ascii	"DMA_TypeDef\000"
 9470      54797065 
 9470      44656600 
 9471              	.LASF217:
 9472 0bb8 6863695F 		.ascii	"hci_version\000"
 9472      76657273 
 9472      696F6E00 
 9473              	.LASF304:
 9474 0bc4 6C655F6C 		.ascii	"le_ltk_neg_reply_rp\000"
 9474      746B5F6E 
 9474      65675F72 
 9474      65706C79 
 9474      5F727000 
 9475              	.LASF193:
 9476 0bd8 64617461 		.ascii	"dataBuff\000"
 9476      42756666 
 9476      00
 9477              	.LASF269:
 9478 0be1 70656572 		.ascii	"peer_bdaddr_type\000"
 9478      5F626461 
 9478      6464725F 
 9478      74797065 
 9478      00
 9479              	.LASF342:
 9480 0bf2 64617461 		.ascii	"data1\000"
 9480      3100
 9481              	.LASF318:
 9482 0bf8 6E636D64 		.ascii	"ncmd\000"
 9482      00
 9483              	.LASF396:
 9484 0bfd 6863695F 		.ascii	"hci_le_remove_device_from_white_list\000"
 9484      6C655F72 
 9484      656D6F76 
 9484      655F6465 
 9484      76696365 
 9485              	.LASF233:
 9486 0c22 6D61785F 		.ascii	"max_pkt\000"
 9486      706B7400 
 9487              	.LASF413:
ARM GAS  /tmp/ccDGRO0L.s 			page 178


 9488 0c2a 68636952 		.ascii	"hciReadPktRxQueue\000"
 9488      65616450 
 9488      6B745278 
 9488      51756575 
 9488      6500
 9489              	.LASF289:
 9490 0c3c 706C6169 		.ascii	"plaintext\000"
 9490      6E746578 
 9490      7400
 9491              	.LASF387:
 9492 0c46 6863695F 		.ascii	"hci_le_encrypt\000"
 9492      6C655F65 
 9492      6E637279 
 9492      707400
 9493              	.LASF277:
 9494 0c55 73697A65 		.ascii	"size\000"
 9494      00
 9495              	.LASF140:
 9496 0c5a 4E535350 		.ascii	"NSSPMode\000"
 9496      4D6F6465 
 9496      00
 9497              	.LASF347:
 9498 0c63 70617261 		.ascii	"param\000"
 9498      6D00
 9499              	.LASF218:
 9500 0c69 6863695F 		.ascii	"hci_revision\000"
 9500      72657669 
 9500      73696F6E 
 9500      00
 9501              	.LASF268:
 9502 0c76 696E6974 		.ascii	"initiator_filter\000"
 9502      6961746F 
 9502      725F6669 
 9502      6C746572 
 9502      00
 9503              	.LASF27:
 9504 0c87 74736C69 		.ascii	"tslices_t\000"
 9504      6365735F 
 9504      7400
 9505              	.LASF64:
 9506 0c91 725F6F6C 		.ascii	"r_older\000"
 9506      64657200 
 9507              	.LASF361:
 9508 0c99 6661696C 		.ascii	"failed\000"
 9508      656400
 9509              	.LASF278:
 9510 0ca0 6C655F72 		.ascii	"le_read_white_list_size_rp\000"
 9510      6561645F 
 9510      77686974 
 9510      655F6C69 
 9510      73745F73 
 9511              	.LASF348:
 9512 0cbb 68656164 		.ascii	"header\000"
 9512      657200
 9513              	.LASF229:
 9514 0cc2 72737369 		.ascii	"rssi\000"
 9514      00
ARM GAS  /tmp/ccDGRO0L.s 			page 179


 9515              	.LASF354:
 9516 0cc7 70636B74 		.ascii	"pckt\000"
 9516      00
 9517              	.LASF378:
 9518 0ccc 7363616E 		.ascii	"scan_resp_cp\000"
 9518      5F726573 
 9518      705F6370 
 9518      00
 9519              	.LASF409:
 9520 0cd9 6863695F 		.ascii	"hci_timer_id\000"
 9520      74696D65 
 9520      725F6964 
 9520      00
 9521              	.LASF79:
 9522 0ce6 70616E69 		.ascii	"panic_msg\000"
 9522      635F6D73 
 9522      6700
 9523              	.LASF264:
 9524 0cf0 5F6C655F 		.ascii	"_le_set_scan_enable_cp\000"
 9524      7365745F 
 9524      7363616E 
 9524      5F656E61 
 9524      626C655F 
 9525              	.LASF127:
 9526 0d07 4572726F 		.ascii	"ErrorCode\000"
 9526      72436F64 
 9526      6500
 9527              	.LASF309:
 9528 0d11 66726571 		.ascii	"frequency\000"
 9528      75656E63 
 9528      7900
 9529              	.LASF362:
 9530 0d1b 646F6E65 		.ascii	"done\000"
 9530      00
 9531              	.LASF47:
 9532 0d20 705F6D73 		.ascii	"p_msg\000"
 9532      6700
 9533              	.LASF235:
 9534 0d26 5F6C655F 		.ascii	"_le_read_local_supported_features_rp\000"
 9534      72656164 
 9534      5F6C6F63 
 9534      616C5F73 
 9534      7570706F 
 9535              	.LASF196:
 9536 0d4b 5F686369 		.ascii	"_hci_uart_pckt\000"
 9536      5F756172 
 9536      745F7063 
 9536      6B7400
 9537              	.LASF24:
 9538 0d5a 746D6F64 		.ascii	"tmode_t\000"
 9538      655F7400 
 9539              	.LASF151:
 9540 0d62 70547842 		.ascii	"pTxBuffPtr\000"
 9540      75666650 
 9540      747200
 9541              	.LASF84:
 9542 0d6d 6D61696E 		.ascii	"mainthread\000"
ARM GAS  /tmp/ccDGRO0L.s 			page 180


 9542      74687265 
 9542      616400
 9543              	.LASF416:
 9544 0d78 2E2E2F2E 		.ascii	"../../../../../Middlewares/ST/STM32_BlueNRG/SimpleB"
 9544      2E2F2E2E 
 9544      2F2E2E2F 
 9544      2E2E2F4D 
 9544      6964646C 
 9545 0dab 6C75654E 		.ascii	"lueNRG_HCI/hci/hci.c\000"
 9545      52475F48 
 9545      43492F68 
 9545      63692F68 
 9545      63692E63 
 9546              	.LASF245:
 9547 0dc0 64697265 		.ascii	"direct_bdaddr_type\000"
 9547      63745F62 
 9547      64616464 
 9547      725F7479 
 9547      706500
 9548              	.LASF407:
 9549 0dd3 6863695F 		.ascii	"hci_le_test_end\000"
 9549      6C655F74 
 9549      6573745F 
 9549      656E6400 
 9550              	.LASF369:
 9551 0de3 6164765F 		.ascii	"adv_cp\000"
 9551      637000
 9552              	.LASF17:
 9553 0dea 75696E74 		.ascii	"uint16_t\000"
 9553      31365F74 
 9553      00
 9554              	.LASF365:
 9555 0df3 6863695F 		.ascii	"hci_le_read_local_version\000"
 9555      6C655F72 
 9555      6561645F 
 9555      6C6F6361 
 9555      6C5F7665 
 9556              	.LASF191:
 9557 0e0d 5F744863 		.ascii	"_tHciDataPacket\000"
 9557      69446174 
 9557      61506163 
 9557      6B657400 
 9558              	.LASF322:
 9559 0e1d 5F657674 		.ascii	"_evt_le_meta_event\000"
 9559      5F6C655F 
 9559      6D657461 
 9559      5F657665 
 9559      6E7400
 9560              	.LASF364:
 9561 0e30 6863695F 		.ascii	"hci_disconnect\000"
 9561      64697363 
 9561      6F6E6E65 
 9561      637400
 9562              	.LASF23:
 9563 0e3f 7274636E 		.ascii	"rtcnt_t\000"
 9563      745F7400 
 9564              	.LASF194:
ARM GAS  /tmp/ccDGRO0L.s 			page 181


 9565 0e47 64617461 		.ascii	"data_len\000"
 9565      5F6C656E 
 9565      00
 9566              	.LASF160:
 9567 0e50 68646D61 		.ascii	"hdmatx\000"
 9567      747800
 9568              	.LASF404:
 9569 0e57 6863695F 		.ascii	"hci_le_read_supported_states\000"
 9569      6C655F72 
 9569      6561645F 
 9569      73757070 
 9569      6F727465 
 9570              	.LASF195:
 9571 0e74 74486369 		.ascii	"tHciDataPacket\000"
 9571      44617461 
 9571      5061636B 
 9571      657400
 9572              	.LASF50:
 9573 0e83 705F7265 		.ascii	"p_realprio\000"
 9573      616C7072 
 9573      696F00
 9574              	.LASF96:
 9575 0e8e 52455345 		.ascii	"RESERVED1\000"
 9575      52564544 
 9575      3100
 9576              	.LASF97:
 9577 0e98 52455345 		.ascii	"RESERVED2\000"
 9577      52564544 
 9577      3200
 9578              	.LASF185:
 9579 0ea2 74424441 		.ascii	"tBDAddr\000"
 9579      64647200 
 9580              	.LASF403:
 9581 0eaa 63685F6D 		.ascii	"ch_map\000"
 9581      617000
 9582              	.LASF338:
 9583 0eb1 68636952 		.ascii	"hciReadPacket\000"
 9583      65616450 
 9583      61636B65 
 9583      7400
 9584              	.LASF251:
 9585 0ebf 6C655F72 		.ascii	"le_read_adv_channel_tx_power_rp\000"
 9585      6561645F 
 9585      6164765F 
 9585      6368616E 
 9585      6E656C5F 
 9586              	.LASF65:
 9587 0edf 725F6375 		.ascii	"r_current\000"
 9587      7272656E 
 9587      7400
 9588              	.LASF222:
 9589 0ee9 72656164 		.ascii	"read_local_version_rp\000"
 9589      5F6C6F63 
 9589      616C5F76 
 9589      65727369 
 9589      6F6E5F72 
 9590              	.LASF111:
ARM GAS  /tmp/ccDGRO0L.s 			page 182


 9591 0eff 444D415F 		.ascii	"DMA_InitTypeDef\000"
 9591      496E6974 
 9591      54797065 
 9591      44656600 
 9592              	.LASF109:
 9593 0f0f 4D6F6465 		.ascii	"Mode\000"
 9593      00
 9594              	.LASF180:
 9595 0f14 6D5F7175 		.ascii	"m_queue\000"
 9595      65756500 
 9596              	.LASF8:
 9597 0f1c 6C6F6E67 		.ascii	"long int\000"
 9597      20696E74 
 9597      00
 9598              	.LASF155:
 9599 0f25 52785866 		.ascii	"RxXferSize\000"
 9599      65725369 
 9599      7A6500
 9600              	.LASF166:
 9601 0f30 706F7274 		.ascii	"port_intctx\000"
 9601      5F696E74 
 9601      63747800 
 9602              	.LASF411:
 9603 0f3c 49544D5F 		.ascii	"ITM_RxBuffer\000"
 9603      52784275 
 9603      66666572 
 9603      00
 9604              	.LASF412:
 9605 0f49 68636952 		.ascii	"hciReadPktPool\000"
 9605      65616450 
 9605      6B74506F 
 9605      6F6C00
 9606              	.LASF253:
 9607 0f58 6C656E67 		.ascii	"length\000"
 9607      746800
 9608              	.LASF287:
 9609 0f5f 6C655F72 		.ascii	"le_read_channel_map_rp\000"
 9609      6561645F 
 9609      6368616E 
 9609      6E656C5F 
 9609      6D61705F 
 9610              	.LASF375:
 9611 0f76 6863695F 		.ascii	"hci_le_rand\000"
 9611      6C655F72 
 9611      616E6400 
 9612              	.LASF417:
 9613 0f82 2F752F65 		.ascii	"/u/elawton2/p442-submissions/sensortile/reference/b"
 9613      6C617774 
 9613      6F6E322F 
 9613      70343432 
 9613      2D737562 
 9614 0fb5 6C75656D 		.ascii	"luemicrosystem2/BlueMicrosystem2_V2.2.0/Projects/Mu"
 9614      6963726F 
 9614      73797374 
 9614      656D322F 
 9614      426C7565 
 9615 0fe8 6C74692F 		.ascii	"lti/Applications/BlueMicrosystem2/bluechibi\000"
ARM GAS  /tmp/ccDGRO0L.s 			page 183


 9615      4170706C 
 9615      69636174 
 9615      696F6E73 
 9615      2F426C75 
 9616              	.LASF81:
 9617 1014 63685F73 		.ascii	"ch_system\000"
 9617      79737465 
 9617      6D00
 9618              	.LASF108:
 9619 101e 4D656D44 		.ascii	"MemDataAlignment\000"
 9619      61746141 
 9619      6C69676E 
 9619      6D656E74 
 9619      00
 9620              	.LASF192:
 9621 102f 63757272 		.ascii	"currentNode\000"
 9621      656E744E 
 9621      6F646500 
 9622              	.LASF248:
 9623 103b 66696C74 		.ascii	"filter\000"
 9623      657200
 9624              	.LASF124:
 9625 1042 58666572 		.ascii	"XferHalfCpltCallback\000"
 9625      48616C66 
 9625      43706C74 
 9625      43616C6C 
 9625      6261636B 
 9626              	.LASF181:
 9627 1057 6D5F6F77 		.ascii	"m_owner\000"
 9627      6E657200 
 9628              	.LASF272:
 9629 105f 73757065 		.ascii	"supervision_timeout\000"
 9629      72766973 
 9629      696F6E5F 
 9629      74696D65 
 9629      6F757400 
 9630              	.LASF118:
 9631 1073 496E7374 		.ascii	"Instance\000"
 9631      616E6365 
 9631      00
 9632              	.LASF34:
 9633 107c 705F6E65 		.ascii	"p_next\000"
 9633      787400
 9634              	.LASF20:
 9635 1083 75696E74 		.ascii	"uint64_t\000"
 9635      36345F74 
 9635      00
 9636              	.LASF37:
 9637 108c 705F6374 		.ascii	"p_ctx\000"
 9637      7800
 9638              	.LASF149:
 9639 1092 48414C5F 		.ascii	"HAL_SPI_StateTypeDef\000"
 9639      5350495F 
 9639      53746174 
 9639      65547970 
 9639      65446566 
 9640              	.LASF82:
ARM GAS  /tmp/ccDGRO0L.s 			page 184


 9641 10a7 726C6973 		.ascii	"rlist\000"
 9641      7400
 9642              	.LASF339:
 9643 10ad 6C697374 		.ascii	"list_empty\000"
 9643      5F656D70 
 9643      747900
 9644              	.LASF211:
 9645 10b8 72656164 		.ascii	"read_transmit_power_level_cp\000"
 9645      5F747261 
 9645      6E736D69 
 9645      745F706F 
 9645      7765725F 
 9646              	.LASF232:
 9647 10d5 706B745F 		.ascii	"pkt_len\000"
 9647      6C656E00 
 9648              	.LASF400:
 9649 10dd 6863695F 		.ascii	"hci_read_rssi\000"
 9649      72656164 
 9649      5F727373 
 9649      6900
 9650              	.LASF220:
 9651 10eb 6D616E75 		.ascii	"manufacturer_name\000"
 9651      66616374 
 9651      75726572 
 9651      5F6E616D 
 9651      6500
 9652              	.LASF363:
 9653 10fd 6863695F 		.ascii	"hci_reset\000"
 9653      72657365 
 9653      7400
 9654              	.LASF292:
 9655 1107 656E6364 		.ascii	"encdata\000"
 9655      61746100 
 9656              	.LASF186:
 9657 110f 5F744C69 		.ascii	"_tListNode\000"
 9657      73744E6F 
 9657      646500
 9658              	.LASF1:
 9659 111a 5F5F7569 		.ascii	"__uint8_t\000"
 9659      6E74385F 
 9659      7400
 9660              	.LASF205:
 9661 1124 6863695F 		.ascii	"hci_event_pckt\000"
 9661      6576656E 
 9661      745F7063 
 9661      6B7400
 9662              	.LASF415:
 9663 1133 474E5520 		.ascii	"GNU C 4.8.4 20140526 (release) [ARM/embedded-4_8-br"
 9663      4320342E 
 9663      382E3420 
 9663      32303134 
 9663      30353236 
 9664 1166 616E6368 		.ascii	"anch revision 211358] -mcpu=cortex-m4 -mno-thumb-in"
 9664      20726576 
 9664      6973696F 
 9664      6E203231 
 9664      31333538 
ARM GAS  /tmp/ccDGRO0L.s 			page 185


 9665 1199 74657277 		.ascii	"terwork -mthumb -ggdb -O0 -std=c99 -fomit-frame-poi"
 9665      6F726B20 
 9665      2D6D7468 
 9665      756D6220 
 9665      2D676764 
 9666 11cc 6E746572 		.ascii	"nter -falign-functions=16\000"
 9666      202D6661 
 9666      6C69676E 
 9666      2D66756E 
 9666      6374696F 
 9667              	.LASF379:
 9668 11e6 6863695F 		.ascii	"hci_le_read_advertising_channel_tx_power\000"
 9668      6C655F72 
 9668      6561645F 
 9668      61647665 
 9668      72746973 
 9669              	.LASF319:
 9670 120f 6576745F 		.ascii	"evt_cmd_complete\000"
 9670      636D645F 
 9670      636F6D70 
 9670      6C657465 
 9670      00
 9671              	.LASF250:
 9672 1220 5F6C655F 		.ascii	"_le_read_adv_channel_tx_power_rp\000"
 9672      72656164 
 9672      5F616476 
 9672      5F636861 
 9672      6E6E656C 
 9673              	.LASF202:
 9674 1241 706C656E 		.ascii	"plen\000"
 9674      00
 9675              	.LASF302:
 9676 1246 6C655F6C 		.ascii	"le_ltk_neg_reply_cp\000"
 9676      746B5F6E 
 9676      65675F72 
 9676      65706C79 
 9676      5F637000 
 9677              	.LASF14:
 9678 125a 756E7369 		.ascii	"unsigned int\000"
 9678      676E6564 
 9678      20696E74 
 9678      00
 9679              	.LASF102:
 9680 1267 48414C5F 		.ascii	"HAL_LockTypeDef\000"
 9680      4C6F636B 
 9680      54797065 
 9680      44656600 
 9681              	.LASF299:
 9682 1277 5F6C655F 		.ascii	"_le_ltk_reply_rp\000"
 9682      6C746B5F 
 9682      7265706C 
 9682      795F7270 
 9682      00
 9683              	.LASF215:
 9684 1288 72656164 		.ascii	"read_transmit_power_level_rp\000"
 9684      5F747261 
 9684      6E736D69 
ARM GAS  /tmp/ccDGRO0L.s 			page 186


 9684      745F706F 
 9684      7765725F 
 9685              	.LASF157:
 9686 12a5 43524353 		.ascii	"CRCSize\000"
 9686      697A6500 
 9687              	.LASF382:
 9688 12ad 7365745F 		.ascii	"set_rand_addr_cp\000"
 9688      72616E64 
 9688      5F616464 
 9688      725F6370 
 9688      00
 9689              	.LASF141:
 9690 12be 5350495F 		.ascii	"SPI_InitTypeDef\000"
 9690      496E6974 
 9690      54797065 
 9690      44656600 
 9691              	.LASF259:
 9692 12ce 6C655F73 		.ascii	"le_set_advertise_enable_cp\000"
 9692      65745F61 
 9692      64766572 
 9692      74697365 
 9692      5F656E61 
 9693              	.LASF286:
 9694 12e9 5F6C655F 		.ascii	"_le_read_channel_map_rp\000"
 9694      72656164 
 9694      5F636861 
 9694      6E6E656C 
 9694      5F6D6170 
 9695              	.LASF297:
 9696 1301 5F6C655F 		.ascii	"_le_ltk_reply_cp\000"
 9696      6C746B5F 
 9696      7265706C 
 9696      795F6370 
 9696      00
 9697              	.LASF35:
 9698 1312 705F7072 		.ascii	"p_prev\000"
 9698      657600
 9699              	.LASF86:
 9700 1319 73697A65 		.ascii	"sizetype\000"
 9700      74797065 
 9700      00
 9701              	.LASF26:
 9702 1322 74726566 		.ascii	"trefs_t\000"
 9702      735F7400 
 9703              	.LASF10:
 9704 132a 6C6F6E67 		.ascii	"long unsigned int\000"
 9704      20756E73 
 9704      69676E65 
 9704      6420696E 
 9704      7400
 9705              	.LASF284:
 9706 133c 5F6C655F 		.ascii	"_le_read_channel_map_cp\000"
 9706      72656164 
 9706      5F636861 
 9706      6E6E656C 
 9706      5F6D6170 
 9707              	.LASF58:
ARM GAS  /tmp/ccDGRO0L.s 			page 187


 9708 1354 72656164 		.ascii	"ready_list_t\000"
 9708      795F6C69 
 9708      73745F74 
 9708      00
 9709              	.LASF153:
 9710 1361 54785866 		.ascii	"TxXferCount\000"
 9710      6572436F 
 9710      756E7400 
 9711              	.LASF18:
 9712 136d 696E7433 		.ascii	"int32_t\000"
 9712      325F7400 
 9713              	.LASF330:
 9714 1375 726C656E 		.ascii	"rlen\000"
 9714      00
 9715              	.LASF242:
 9716 137a 6D61785F 		.ascii	"max_interval\000"
 9716      696E7465 
 9716      7276616C 
 9716      00
 9717              	.LASF133:
 9718 1387 434C4B50 		.ascii	"CLKPhase\000"
 9718      68617365 
 9718      00
 9719              	.LASF114:
 9720 1390 48414C5F 		.ascii	"HAL_DMA_STATE_BUSY\000"
 9720      444D415F 
 9720      53544154 
 9720      455F4255 
 9720      535900
 9721              	.LASF173:
 9722 13a3 77747365 		.ascii	"wtsemp\000"
 9722      6D7000
 9723              	.LASF273:
 9724 13aa 6D696E5F 		.ascii	"min_ce_length\000"
 9724      63655F6C 
 9724      656E6774 
 9724      6800
 9725              	.LASF263:
 9726 13b8 6C655F73 		.ascii	"le_set_scan_parameters_cp\000"
 9726      65745F73 
 9726      63616E5F 
 9726      70617261 
 9726      6D657465 
 9727              	.LASF93:
 9728 13d2 43524350 		.ascii	"CRCPR\000"
 9728      5200
 9729              	.LASF104:
 9730 13d8 44697265 		.ascii	"Direction\000"
 9730      6374696F 
 9730      6E00
 9731              	.LASF183:
 9732 13e2 6D757465 		.ascii	"mutex_t\000"
 9732      785F7400 
 9733              	.LASF204:
 9734 13ea 5F686369 		.ascii	"_hci_event_pckt\000"
 9734      5F657665 
 9734      6E745F70 
ARM GAS  /tmp/ccDGRO0L.s 			page 188


 9734      636B7400 
 9735              	.LASF197:
 9736 13fa 74797065 		.ascii	"type\000"
 9736      00
 9737              	.LASF270:
 9738 13ff 70656572 		.ascii	"peer_bdaddr\000"
 9738      5F626461 
 9738      64647200 
 9739              	.LASF3:
 9740 140b 756E7369 		.ascii	"unsigned char\000"
 9740      676E6564 
 9740      20636861 
 9740      7200
 9741              	.LASF9:
 9742 1419 5F5F7569 		.ascii	"__uint32_t\000"
 9742      6E743332 
 9742      5F7400
 9743              	.LASF336:
 9744 1424 4843495F 		.ascii	"HCI_Init\000"
 9744      496E6974 
 9744      00
 9745              	.LASF281:
 9746 142d 6C655F61 		.ascii	"le_add_device_to_white_list_cp\000"
 9746      64645F64 
 9746      65766963 
 9746      655F746F 
 9746      5F776869 
 9747              	.LASF74:
 9748 144c 76697274 		.ascii	"virtual_timers_list_t\000"
 9748      75616C5F 
 9748      74696D65 
 9748      72735F6C 
 9748      6973745F 
 9749              	.LASF43:
 9750 1462 705F7265 		.ascii	"p_refs\000"
 9750      667300
 9751              	.LASF231:
 9752 1469 5F6C655F 		.ascii	"_le_read_buffer_size_rp\000"
 9752      72656164 
 9752      5F627566 
 9752      6665725F 
 9752      73697A65 
 9753              	.LASF305:
 9754 1481 5F6C655F 		.ascii	"_le_read_supported_states_rp\000"
 9754      72656164 
 9754      5F737570 
 9754      706F7274 
 9754      65645F73 
 9755              	.LASF367:
 9756 149e 6863695F 		.ascii	"hci_le_read_buffer_size\000"
 9756      6C655F72 
 9756      6561645F 
 9756      62756666 
 9756      65725F73 
 9757              	.LASF391:
 9758 14b6 6863695F 		.ascii	"hci_le_ltk_request_reply\000"
 9758      6C655F6C 
ARM GAS  /tmp/ccDGRO0L.s 			page 189


 9758      746B5F72 
 9758      65717565 
 9758      73745F72 
 9759              	.LASF360:
 9760 14cf 68636954 		.ascii	"hciTempQueue\000"
 9760      656D7051 
 9760      75657565 
 9760      00
 9761              	.LASF44:
 9762 14dc 705F7072 		.ascii	"p_preempt\000"
 9762      65656D70 
 9762      7400
 9763              	.LASF324:
 9764 14e6 6576745F 		.ascii	"evt_le_meta_event\000"
 9764      6C655F6D 
 9764      6574615F 
 9764      6576656E 
 9764      7400
 9765              	.LASF234:
 9766 14f8 6C655F72 		.ascii	"le_read_buffer_size_rp\000"
 9766      6561645F 
 9766      62756666 
 9766      65725F73 
 9766      697A655F 
 9767              	.LASF203:
 9768 150f 6863695F 		.ascii	"hci_command_hdr\000"
 9768      636F6D6D 
 9768      616E645F 
 9768      68647200 
 9769              	.LASF214:
 9770 151f 6C657665 		.ascii	"level\000"
 9770      6C00
 9771              	.LASF419:
 9772 1525 4843495F 		.ascii	"HCI_Queue_Empty\000"
 9772      51756575 
 9772      655F456D 
 9772      70747900 
 9773              	.LASF48:
 9774 1535 705F6570 		.ascii	"p_epending\000"
 9774      656E6469 
 9774      6E6700
 9775              	.LASF69:
 9776 1540 76745F6E 		.ascii	"vt_next\000"
 9776      65787400 
 9777              	.LASF280:
 9778 1548 62646164 		.ascii	"bdaddr_type\000"
 9778      64725F74 
 9778      79706500 
 9779              	.LASF249:
 9780 1554 6C655F73 		.ascii	"le_set_adv_parameters_cp\000"
 9780      65745F61 
 9780      64765F70 
 9780      6172616D 
 9780      65746572 
 9781              	.LASF230:
 9782 156d 72656164 		.ascii	"read_rssi_rp\000"
 9782      5F727373 
ARM GAS  /tmp/ccDGRO0L.s 			page 190


 9782      695F7270 
 9782      00
 9783              	.LASF51:
 9784 157a 705F6D70 		.ascii	"p_mpool\000"
 9784      6F6F6C00 
 9785              	.LASF80:
 9786 1582 63685F73 		.ascii	"ch_system_t\000"
 9786      79737465 
 9786      6D5F7400 
 9787              	.LASF313:
 9788 158e 6C655F74 		.ascii	"le_transmitter_test_cp\000"
 9788      72616E73 
 9788      6D697474 
 9788      65725F74 
 9788      6573745F 
 9789              	.LASF265:
 9790 15a5 66696C74 		.ascii	"filter_dup\000"
 9790      65725F64 
 9790      757000
 9791              	.LASF144:
 9792 15b0 48414C5F 		.ascii	"HAL_SPI_STATE_BUSY\000"
 9792      5350495F 
 9792      53544154 
 9792      455F4255 
 9792      535900
 9793              	.LASF335:
 9794 15c3 6863695F 		.ascii	"hci_pckt\000"
 9794      70636B74 
 9794      00
 9795              	.LASF279:
 9796 15cc 5F6C655F 		.ascii	"_le_add_device_to_white_list_cp\000"
 9796      6164645F 
 9796      64657669 
 9796      63655F74 
 9796      6F5F7768 
 9797              	.LASF182:
 9798 15ec 6D5F6E65 		.ascii	"m_next\000"
 9798      787400
 9799              	.LASF276:
 9800 15f3 5F6C655F 		.ascii	"_le_read_white_list_size_rp\000"
 9800      72656164 
 9800      5F776869 
 9800      74655F6C 
 9800      6973745F 
 9801              	.LASF2:
 9802 160f 7369676E 		.ascii	"signed char\000"
 9802      65642063 
 9802      68617200 
 9803              	.LASF223:
 9804 161b 5F726561 		.ascii	"_read_bd_addr_rp\000"
 9804      645F6264 
 9804      5F616464 
 9804      725F7270 
 9804      00
 9805              	.LASF6:
 9806 162c 73686F72 		.ascii	"short unsigned int\000"
 9806      7420756E 
ARM GAS  /tmp/ccDGRO0L.s 			page 191


 9806      7369676E 
 9806      65642069 
 9806      6E7400
 9807              	.LASF62:
 9808 163f 725F6374 		.ascii	"r_ctx\000"
 9808      7800
 9809              	.LASF164:
 9810 1645 73746B61 		.ascii	"stkalign_t\000"
 9810      6C69676E 
 9810      5F7400
 9811              	.LASF207:
 9812 1650 68616E64 		.ascii	"handle\000"
 9812      6C6500
 9813              	.LASF91:
 9814 1657 49464352 		.ascii	"IFCR\000"
 9814      00
 9815              	.LASF260:
 9816 165c 5F6C655F 		.ascii	"_le_set_scan_parameters_cp\000"
 9816      7365745F 
 9816      7363616E 
 9816      5F706172 
 9816      616D6574 
 9817              	.LASF398:
 9818 1677 636F6E6E 		.ascii	"conn_handle\000"
 9818      5F68616E 
 9818      646C6500 
 9819              	.LASF72:
 9820 1683 76745F66 		.ascii	"vt_func\000"
 9820      756E6300 
 9821              	.LASF384:
 9822 168b 6863695F 		.ascii	"hci_le_create_connection\000"
 9822      6C655F63 
 9822      72656174 
 9822      655F636F 
 9822      6E6E6563 
 9823              	.LASF307:
 9824 16a4 6C655F72 		.ascii	"le_read_supported_states_rp\000"
 9824      6561645F 
 9824      73757070 
 9824      6F727465 
 9824      645F7374 
 9825              	.LASF386:
 9826 16c0 6863695F 		.ascii	"hci_le_create_connection_cancel\000"
 9826      6C655F63 
 9826      72656174 
 9826      655F636F 
 9826      6E6E6563 
 9827              	.LASF346:
 9828 16e0 6863695F 		.ascii	"hci_send_cmd\000"
 9828      73656E64 
 9828      5F636D64 
 9828      00
 9829              	.LASF70:
 9830 16ed 76745F70 		.ascii	"vt_prev\000"
 9830      72657600 
 9831              	.LASF366:
 9832 16f5 72657370 		.ascii	"resp\000"
ARM GAS  /tmp/ccDGRO0L.s 			page 192


 9832      00
 9833              	.LASF371:
 9834 16fa 6863695F 		.ascii	"hci_le_set_advertise_enable\000"
 9834      6C655F73 
 9834      65745F61 
 9834      64766572 
 9834      74697365 
 9835              	.LASF113:
 9836 1716 48414C5F 		.ascii	"HAL_DMA_STATE_READY\000"
 9836      444D415F 
 9836      53544154 
 9836      455F5245 
 9836      41445900 
 9837              	.LASF377:
 9838 172a 6863695F 		.ascii	"hci_le_set_scan_resp_data\000"
 9838      6C655F73 
 9838      65745F73 
 9838      63616E5F 
 9838      72657370 
 9839              	.LASF240:
 9840 1744 5F6C655F 		.ascii	"_le_set_adv_parameters_cp\000"
 9840      7365745F 
 9840      6164765F 
 9840      70617261 
 9840      6D657465 
 9841              	.LASF392:
 9842 175e 6863695F 		.ascii	"hci_le_ltk_request_neg_reply\000"
 9842      6C655F6C 
 9842      746B5F72 
 9842      65717565 
 9842      73745F6E 
 9843              	.LASF332:
 9844 177b 74696D65 		.ascii	"timer\000"
 9844      7200
 9845              	.LASF311:
 9846 1781 5F6C655F 		.ascii	"_le_transmitter_test_cp\000"
 9846      7472616E 
 9846      736D6974 
 9846      7465725F 
 9846      74657374 
 9847              	.LASF172:
 9848 1799 77747472 		.ascii	"wttrp\000"
 9848      7000
 9849              	.LASF301:
 9850 179f 5F6C655F 		.ascii	"_le_ltk_neg_reply_cp\000"
 9850      6C746B5F 
 9850      6E65675F 
 9850      7265706C 
 9850      795F6370 
 9851              	.LASF397:
 9852 17b4 6863695F 		.ascii	"hci_read_transmit_power_level\000"
 9852      72656164 
 9852      5F747261 
 9852      6E736D69 
 9852      745F706F 
 9853              	.LASF385:
 9854 17d2 63726561 		.ascii	"create_cp\000"
ARM GAS  /tmp/ccDGRO0L.s 			page 193


 9854      74655F63 
 9854      7000
 9855              	.LASF60:
 9856 17dc 725F7175 		.ascii	"r_queue\000"
 9856      65756500 
 9857              	.LASF170:
 9858 17e4 65786974 		.ascii	"exitcode\000"
 9858      636F6465 
 9858      00
 9859              	.LASF228:
 9860 17ed 5F726561 		.ascii	"_read_rssi_rp\000"
 9860      645F7273 
 9860      73695F72 
 9860      7000
 9861              	.LASF105:
 9862 17fb 50657269 		.ascii	"PeriphInc\000"
 9862      7068496E 
 9862      6300
 9863              	.LASF38:
 9864 1805 705F6E65 		.ascii	"p_newer\000"
 9864      77657200 
 9865              	.LASF128:
 9866 180d 446D6142 		.ascii	"DmaBaseAddress\000"
 9866      61736541 
 9866      64647265 
 9866      737300
 9867              	.LASF303:
 9868 181c 5F6C655F 		.ascii	"_le_ltk_neg_reply_rp\000"
 9868      6C746B5F 
 9868      6E65675F 
 9868      7265706C 
 9868      795F7270 
 9869              	.LASF381:
 9870 1831 6863695F 		.ascii	"hci_le_set_random_address\000"
 9870      6C655F73 
 9870      65745F72 
 9870      616E646F 
 9870      6D5F6164 
 9871              	.LASF226:
 9872 184b 5F726561 		.ascii	"_read_rssi_cp\000"
 9872      645F7273 
 9872      73695F63 
 9872      7000
 9873              		.ident	"GCC: (GNU Tools for ARM Embedded Processors) 4.8.4 20140526 (release) [ARM/embedded-4_8-br
ARM GAS  /tmp/ccDGRO0L.s 			page 194


DEFINED SYMBOLS
                            *ABS*:00000000 hci.c
                            *COM*:00000008 hciReadPktPool
                            *COM*:00000008 hciReadPktRxQueue
     /tmp/ccDGRO0L.s:21     .bss:00000000 $d
     /tmp/ccDGRO0L.s:22     .bss:00000000 hciReadPacketBuffer
     /tmp/ccDGRO0L.s:24     .bss:000002bc hci_timer_id
     /tmp/ccDGRO0L.s:26     .bss:000002bd hci_timeout
     /tmp/ccDGRO0L.s:29     .text:00000000 $t
     /tmp/ccDGRO0L.s:35     .text:00000000 hci_timeout_callback
     /tmp/ccDGRO0L.s:54     .text:0000000c $d
     /tmp/ccDGRO0L.s:58     .text:00000010 $t
     /tmp/ccDGRO0L.s:64     .text:00000010 HCI_Init
     /tmp/ccDGRO0L.s:111    .text:00000058 $d
     /tmp/ccDGRO0L.s:117    .text:00000064 $t
     /tmp/ccDGRO0L.s:123    .text:00000070 HCI_verify
     /tmp/ccDGRO0L.s:177    .text:000000b0 HCI_Process
     /tmp/ccDGRO0L.s:282    .text:00000140 HCI_Isr
     /tmp/ccDGRO0L.s:241    .text:00000114 $d
     /tmp/ccDGRO0L.s:246    .text:0000011c $t
     /tmp/ccDGRO0L.s:252    .text:00000120 HCI_Queue_Empty
     /tmp/ccDGRO0L.s:272    .text:00000130 $d
     /tmp/ccDGRO0L.s:276    .text:00000134 $t
     /tmp/ccDGRO0L.s:377    .text:000001d8 $d
     /tmp/ccDGRO0L.s:383    .text:000001e4 $t
     /tmp/ccDGRO0L.s:389    .text:000001f0 hci_write
     /tmp/ccDGRO0L.s:423    .text:00000220 hci_send_cmd
     /tmp/ccDGRO0L.s:485    .text:00000290 move_list
     /tmp/ccDGRO0L.s:530    .text:000002c0 free_event_list
     /tmp/ccDGRO0L.s:574    .text:000002f8 $d
     /tmp/ccDGRO0L.s:579    .text:00000300 $t
     /tmp/ccDGRO0L.s:585    .text:00000300 hci_send_req
     /tmp/ccDGRO0L.s:952    .text:00000544 $d
     /tmp/ccDGRO0L.s:957    .text:0000054c $t
     /tmp/ccDGRO0L.s:963    .text:00000550 hci_reset
     /tmp/ccDGRO0L.s:1021   .text:000005a0 hci_disconnect
     /tmp/ccDGRO0L.s:1098   .text:00000610 hci_le_read_local_version
     /tmp/ccDGRO0L.s:1202   .text:000006b0 hci_le_read_buffer_size
     /tmp/ccDGRO0L.s:1291   .text:00000730 hci_le_set_advertising_parameters
     /tmp/ccDGRO0L.s:1398   .text:000007f0 hci_le_set_advertising_data
     /tmp/ccDGRO0L.s:1492   .text:00000880 hci_le_set_advertise_enable
     /tmp/ccDGRO0L.s:1572   .text:00000900 hci_le_set_scan_parameters
     /tmp/ccDGRO0L.s:1661   .text:000009a0 hci_le_set_scan_enable
     /tmp/ccDGRO0L.s:1746   .text:00000a20 hci_le_rand
     /tmp/ccDGRO0L.s:1832   .text:00000aa0 hci_le_set_scan_resp_data
     /tmp/ccDGRO0L.s:1926   .text:00000b30 hci_le_read_advertising_channel_tx_power
     /tmp/ccDGRO0L.s:2009   .text:00000ba0 hci_le_set_random_address
     /tmp/ccDGRO0L.s:2086   .text:00000c10 hci_read_bd_addr
     /tmp/ccDGRO0L.s:2172   .text:00000c90 hci_le_create_connection
     /tmp/ccDGRO0L.s:2289   .text:00000d70 hci_le_create_connection_cancel
     /tmp/ccDGRO0L.s:2347   .text:00000dc0 hci_le_encrypt
     /tmp/ccDGRO0L.s:2448   .text:00000e60 hci_le_ltk_request_reply
     /tmp/ccDGRO0L.s:2529   .text:00000ed0 hci_le_ltk_request_neg_reply
     /tmp/ccDGRO0L.s:2602   .text:00000f30 hci_le_read_white_list_size
     /tmp/ccDGRO0L.s:2679   .text:00000fa0 hci_le_clear_white_list
     /tmp/ccDGRO0L.s:2737   .text:00000ff0 hci_le_add_device_to_white_list
     /tmp/ccDGRO0L.s:2814   .text:00001060 hci_le_remove_device_from_white_list
ARM GAS  /tmp/ccDGRO0L.s 			page 195


     /tmp/ccDGRO0L.s:2891   .text:000010d0 hci_read_transmit_power_level
     /tmp/ccDGRO0L.s:2989   .text:00001160 hci_read_rssi
     /tmp/ccDGRO0L.s:3082   .text:000011f0 hci_le_read_local_supported_features
     /tmp/ccDGRO0L.s:3162   .text:00001260 hci_le_read_channel_map
     /tmp/ccDGRO0L.s:3253   .text:000012f0 hci_le_read_supported_states
     /tmp/ccDGRO0L.s:3333   .text:00001360 hci_le_receiver_test
     /tmp/ccDGRO0L.s:3402   .text:000013c0 hci_le_transmitter_test
     /tmp/ccDGRO0L.s:3481   .text:00001440 hci_le_test_end
                     .debug_frame:00000010 $d

UNDEFINED SYMBOLS
list_init_head
list_insert_tail
Disable_SPI_IRQ
list_is_empty
list_remove_head
Enable_SPI_IRQ
HCI_Event_CB
Clear_SPI_EXTI_Flag
BlueNRG_SPI_Read_All
list_insert_head
BlueNRG_DataPresent
SpiHandle
Hal_Write_Serial
Osal_MemCpy
list_remove_tail
list_get_size
Timer_Set
Timer_Expired
Osal_MemSet
