ARM GAS  /tmp/ccJWCNBb.s 			page 1


   1              		.syntax unified
   2              		.cpu cortex-m4
   3              		.fpu softvfp
   4              		.eabi_attribute 20, 1
   5              		.eabi_attribute 21, 1
   6              		.eabi_attribute 23, 3
   7              		.eabi_attribute 24, 1
   8              		.eabi_attribute 25, 1
   9              		.eabi_attribute 26, 1
  10              		.eabi_attribute 30, 6
  11              		.eabi_attribute 34, 1
  12              		.eabi_attribute 18, 4
  13              		.thumb
  14              		.file	"HTS221_Driver.c"
  15              		.text
  16              	.Ltext0:
  17              		.cfi_sections	.debug_frame
  18              		.align	2
  19              		.p2align 4,,15
  20              		.global	HTS221_ReadReg
  21              		.thumb
  22              		.thumb_func
  23              		.type	HTS221_ReadReg, %function
  24              	HTS221_ReadReg:
  25              	.LFB0:
  26              		.file 1 "../../../../../Drivers/BSP/Components/hts221/HTS221_Driver.c"
  27              		.loc 1 95 0
  28              		.cfi_startproc
  29              		@ args = 0, pretend = 0, frame = 16
  30              		@ frame_needed = 0, uses_anonymous_args = 0
  31 0000 00B5     		push	{lr}
  32              		.cfi_def_cfa_offset 4
  33              		.cfi_offset 14, -4
  34 0002 85B0     		sub	sp, sp, #20
  35              		.cfi_def_cfa_offset 24
  36 0004 0390     		str	r0, [sp, #12]
  37 0006 0193     		str	r3, [sp, #4]
  38 0008 0B46     		mov	r3, r1
  39 000a 8DF80B30 		strb	r3, [sp, #11]
  40 000e 1346     		mov	r3, r2	@ movhi
  41 0010 ADF80830 		strh	r3, [sp, #8]	@ movhi
  42              		.loc 1 97 0
  43 0014 9DF80B20 		ldrb	r2, [sp, #11]	@ zero_extendqisi2
  44 0018 BDF80830 		ldrh	r3, [sp, #8]
  45 001c 0398     		ldr	r0, [sp, #12]
  46 001e 1146     		mov	r1, r2
  47 0020 019A     		ldr	r2, [sp, #4]
  48 0022 FFF7FEFF 		bl	Sensor_IO_Read
  49 0026 0346     		mov	r3, r0
  50 0028 002B     		cmp	r3, #0
  51 002a 01D0     		beq	.L2
  52              		.loc 1 98 0
  53 002c 0123     		movs	r3, #1
  54 002e 00E0     		b	.L3
  55              	.L2:
  56              		.loc 1 100 0
  57 0030 0023     		movs	r3, #0
ARM GAS  /tmp/ccJWCNBb.s 			page 2


  58              	.L3:
  59              		.loc 1 101 0
  60 0032 1846     		mov	r0, r3
  61 0034 05B0     		add	sp, sp, #20
  62              		@ sp needed
  63 0036 5DF804FB 		ldr	pc, [sp], #4
  64              		.cfi_endproc
  65              	.LFE0:
  66              		.size	HTS221_ReadReg, .-HTS221_ReadReg
  67 003a 00BF     		.align	2
  68 003c AFF30080 		.p2align 4,,15
  69              		.global	HTS221_WriteReg
  70              		.thumb
  71              		.thumb_func
  72              		.type	HTS221_WriteReg, %function
  73              	HTS221_WriteReg:
  74              	.LFB1:
  75              		.loc 1 112 0
  76              		.cfi_startproc
  77              		@ args = 0, pretend = 0, frame = 16
  78              		@ frame_needed = 0, uses_anonymous_args = 0
  79 0040 00B5     		push	{lr}
  80              		.cfi_def_cfa_offset 4
  81              		.cfi_offset 14, -4
  82 0042 85B0     		sub	sp, sp, #20
  83              		.cfi_def_cfa_offset 24
  84 0044 0390     		str	r0, [sp, #12]
  85 0046 0193     		str	r3, [sp, #4]
  86 0048 0B46     		mov	r3, r1
  87 004a 8DF80B30 		strb	r3, [sp, #11]
  88 004e 1346     		mov	r3, r2	@ movhi
  89 0050 ADF80830 		strh	r3, [sp, #8]	@ movhi
  90              		.loc 1 114 0
  91 0054 9DF80B20 		ldrb	r2, [sp, #11]	@ zero_extendqisi2
  92 0058 BDF80830 		ldrh	r3, [sp, #8]
  93 005c 0398     		ldr	r0, [sp, #12]
  94 005e 1146     		mov	r1, r2
  95 0060 019A     		ldr	r2, [sp, #4]
  96 0062 FFF7FEFF 		bl	Sensor_IO_Write
  97 0066 0346     		mov	r3, r0
  98 0068 002B     		cmp	r3, #0
  99 006a 01D0     		beq	.L5
 100              		.loc 1 115 0
 101 006c 0123     		movs	r3, #1
 102 006e 00E0     		b	.L6
 103              	.L5:
 104              		.loc 1 117 0
 105 0070 0023     		movs	r3, #0
 106              	.L6:
 107              		.loc 1 118 0
 108 0072 1846     		mov	r0, r3
 109 0074 05B0     		add	sp, sp, #20
 110              		@ sp needed
 111 0076 5DF804FB 		ldr	pc, [sp], #4
 112              		.cfi_endproc
 113              	.LFE1:
 114              		.size	HTS221_WriteReg, .-HTS221_WriteReg
ARM GAS  /tmp/ccJWCNBb.s 			page 3


 115 007a 00BF     		.align	2
 116 007c AFF30080 		.p2align 4,,15
 117              		.global	HTS221_Get_DriverVersion
 118              		.thumb
 119              		.thumb_func
 120              		.type	HTS221_Get_DriverVersion, %function
 121              	HTS221_Get_DriverVersion:
 122              	.LFB2:
 123              		.loc 1 127 0
 124              		.cfi_startproc
 125              		@ args = 0, pretend = 0, frame = 8
 126              		@ frame_needed = 0, uses_anonymous_args = 0
 127              		@ link register save eliminated.
 128 0080 82B0     		sub	sp, sp, #8
 129              		.cfi_def_cfa_offset 8
 130 0082 0190     		str	r0, [sp, #4]
 131              		.loc 1 128 0
 132 0084 019B     		ldr	r3, [sp, #4]
 133 0086 0122     		movs	r2, #1
 134 0088 1A70     		strb	r2, [r3]
 135              		.loc 1 129 0
 136 008a 019B     		ldr	r3, [sp, #4]
 137 008c 0122     		movs	r2, #1
 138 008e 5A70     		strb	r2, [r3, #1]
 139              		.loc 1 130 0
 140 0090 019B     		ldr	r3, [sp, #4]
 141 0092 0022     		movs	r2, #0
 142 0094 9A70     		strb	r2, [r3, #2]
 143              		.loc 1 132 0
 144 0096 0023     		movs	r3, #0
 145              		.loc 1 133 0
 146 0098 1846     		mov	r0, r3
 147 009a 02B0     		add	sp, sp, #8
 148              		@ sp needed
 149 009c 7047     		bx	lr
 150              		.cfi_endproc
 151              	.LFE2:
 152              		.size	HTS221_Get_DriverVersion, .-HTS221_Get_DriverVersion
 153 009e 00BF     		.align	2
 154              		.p2align 4,,15
 155              		.global	HTS221_Get_DeviceID
 156              		.thumb
 157              		.thumb_func
 158              		.type	HTS221_Get_DeviceID, %function
 159              	HTS221_Get_DeviceID:
 160              	.LFB3:
 161              		.loc 1 142 0
 162              		.cfi_startproc
 163              		@ args = 0, pretend = 0, frame = 8
 164              		@ frame_needed = 0, uses_anonymous_args = 0
 165 00a0 00B5     		push	{lr}
 166              		.cfi_def_cfa_offset 4
 167              		.cfi_offset 14, -4
 168 00a2 83B0     		sub	sp, sp, #12
 169              		.cfi_def_cfa_offset 16
 170 00a4 0190     		str	r0, [sp, #4]
 171 00a6 0091     		str	r1, [sp]
ARM GAS  /tmp/ccJWCNBb.s 			page 4


 172              		.loc 1 143 0
 173 00a8 0198     		ldr	r0, [sp, #4]
 174 00aa 0F21     		movs	r1, #15
 175 00ac 0122     		movs	r2, #1
 176 00ae 009B     		ldr	r3, [sp]
 177 00b0 FFF7FEFF 		bl	HTS221_ReadReg
 178 00b4 0346     		mov	r3, r0
 179 00b6 002B     		cmp	r3, #0
 180 00b8 01D0     		beq	.L10
 181              		.loc 1 144 0
 182 00ba 0123     		movs	r3, #1
 183 00bc 00E0     		b	.L11
 184              	.L10:
 185              		.loc 1 146 0
 186 00be 0023     		movs	r3, #0
 187              	.L11:
 188              		.loc 1 147 0
 189 00c0 1846     		mov	r0, r3
 190 00c2 03B0     		add	sp, sp, #12
 191              		@ sp needed
 192 00c4 5DF804FB 		ldr	pc, [sp], #4
 193              		.cfi_endproc
 194              	.LFE3:
 195              		.size	HTS221_Get_DeviceID, .-HTS221_Get_DeviceID
 196              		.section	.rodata
 197              		.align	2
 198              	.LC0:
 199 0000 2E2E2F2E 		.ascii	"../../../../../Drivers/BSP/Components/hts221/HTS221"
 199      2E2F2E2E 
 199      2F2E2E2F 
 199      2E2E2F44 
 199      72697665 
 200 0033 5F447269 		.ascii	"_Driver.c\000"
 200      7665722E 
 200      6300
 201              		.text
 202              		.align	2
 203 00c8 AFF30080 		.p2align 4,,15
 203      AFF30080 
 204              		.global	HTS221_Set_InitConfig
 205              		.thumb
 206              		.thumb_func
 207              		.type	HTS221_Set_InitConfig, %function
 208              	HTS221_Set_InitConfig:
 209              	.LFB4:
 210              		.loc 1 157 0
 211              		.cfi_startproc
 212              		@ args = 0, pretend = 0, frame = 16
 213              		@ frame_needed = 0, uses_anonymous_args = 0
 214 00d0 00B5     		push	{lr}
 215              		.cfi_def_cfa_offset 4
 216              		.cfi_offset 14, -4
 217 00d2 85B0     		sub	sp, sp, #20
 218              		.cfi_def_cfa_offset 24
 219 00d4 0190     		str	r0, [sp, #4]
 220 00d6 0091     		str	r1, [sp]
 221              		.loc 1 160 0
ARM GAS  /tmp/ccJWCNBb.s 			page 5


 222 00d8 009B     		ldr	r3, [sp]
 223 00da 1B78     		ldrb	r3, [r3]	@ zero_extendqisi2
 224 00dc 002B     		cmp	r3, #0
 225 00de 1FD0     		beq	.L13
 226              		.loc 1 160 0 is_stmt 0 discriminator 1
 227 00e0 009B     		ldr	r3, [sp]
 228 00e2 1B78     		ldrb	r3, [r3]	@ zero_extendqisi2
 229 00e4 012B     		cmp	r3, #1
 230 00e6 1BD0     		beq	.L13
 231 00e8 009B     		ldr	r3, [sp]
 232 00ea 1B78     		ldrb	r3, [r3]	@ zero_extendqisi2
 233 00ec 022B     		cmp	r3, #2
 234 00ee 17D0     		beq	.L13
 235 00f0 009B     		ldr	r3, [sp]
 236 00f2 1B78     		ldrb	r3, [r3]	@ zero_extendqisi2
 237 00f4 032B     		cmp	r3, #3
 238 00f6 13D0     		beq	.L13
 239 00f8 009B     		ldr	r3, [sp]
 240 00fa 1B78     		ldrb	r3, [r3]	@ zero_extendqisi2
 241 00fc 042B     		cmp	r3, #4
 242 00fe 0FD0     		beq	.L13
 243 0100 009B     		ldr	r3, [sp]
 244 0102 1B78     		ldrb	r3, [r3]	@ zero_extendqisi2
 245 0104 052B     		cmp	r3, #5
 246 0106 0BD0     		beq	.L13
 247 0108 009B     		ldr	r3, [sp]
 248 010a 1B78     		ldrb	r3, [r3]	@ zero_extendqisi2
 249 010c 062B     		cmp	r3, #6
 250 010e 07D0     		beq	.L13
 251 0110 009B     		ldr	r3, [sp]
 252 0112 1B78     		ldrb	r3, [r3]	@ zero_extendqisi2
 253 0114 072B     		cmp	r3, #7
 254 0116 03D0     		beq	.L13
 255 0118 8A48     		ldr	r0, .L27
 256 011a A021     		movs	r1, #160
 257 011c FFF7FEFF 		bl	HTS221_assert_failed
 258              	.L13:
 259              		.loc 1 161 0 is_stmt 1
 260 0120 009B     		ldr	r3, [sp]
 261 0122 5B78     		ldrb	r3, [r3, #1]	@ zero_extendqisi2
 262 0124 002B     		cmp	r3, #0
 263 0126 1FD0     		beq	.L14
 264              		.loc 1 161 0 is_stmt 0 discriminator 1
 265 0128 009B     		ldr	r3, [sp]
 266 012a 5B78     		ldrb	r3, [r3, #1]	@ zero_extendqisi2
 267 012c 082B     		cmp	r3, #8
 268 012e 1BD0     		beq	.L14
 269 0130 009B     		ldr	r3, [sp]
 270 0132 5B78     		ldrb	r3, [r3, #1]	@ zero_extendqisi2
 271 0134 102B     		cmp	r3, #16
 272 0136 17D0     		beq	.L14
 273 0138 009B     		ldr	r3, [sp]
 274 013a 5B78     		ldrb	r3, [r3, #1]	@ zero_extendqisi2
 275 013c 182B     		cmp	r3, #24
 276 013e 13D0     		beq	.L14
 277 0140 009B     		ldr	r3, [sp]
 278 0142 5B78     		ldrb	r3, [r3, #1]	@ zero_extendqisi2
ARM GAS  /tmp/ccJWCNBb.s 			page 6


 279 0144 202B     		cmp	r3, #32
 280 0146 0FD0     		beq	.L14
 281 0148 009B     		ldr	r3, [sp]
 282 014a 5B78     		ldrb	r3, [r3, #1]	@ zero_extendqisi2
 283 014c 282B     		cmp	r3, #40
 284 014e 0BD0     		beq	.L14
 285 0150 009B     		ldr	r3, [sp]
 286 0152 5B78     		ldrb	r3, [r3, #1]	@ zero_extendqisi2
 287 0154 302B     		cmp	r3, #48
 288 0156 07D0     		beq	.L14
 289 0158 009B     		ldr	r3, [sp]
 290 015a 5B78     		ldrb	r3, [r3, #1]	@ zero_extendqisi2
 291 015c 382B     		cmp	r3, #56
 292 015e 03D0     		beq	.L14
 293 0160 7848     		ldr	r0, .L27
 294 0162 A121     		movs	r1, #161
 295 0164 FFF7FEFF 		bl	HTS221_assert_failed
 296              	.L14:
 297              		.loc 1 162 0 is_stmt 1
 298 0168 009B     		ldr	r3, [sp]
 299 016a 9B78     		ldrb	r3, [r3, #2]	@ zero_extendqisi2
 300 016c 002B     		cmp	r3, #0
 301 016e 0FD0     		beq	.L15
 302              		.loc 1 162 0 is_stmt 0 discriminator 1
 303 0170 009B     		ldr	r3, [sp]
 304 0172 9B78     		ldrb	r3, [r3, #2]	@ zero_extendqisi2
 305 0174 012B     		cmp	r3, #1
 306 0176 0BD0     		beq	.L15
 307 0178 009B     		ldr	r3, [sp]
 308 017a 9B78     		ldrb	r3, [r3, #2]	@ zero_extendqisi2
 309 017c 022B     		cmp	r3, #2
 310 017e 07D0     		beq	.L15
 311 0180 009B     		ldr	r3, [sp]
 312 0182 9B78     		ldrb	r3, [r3, #2]	@ zero_extendqisi2
 313 0184 032B     		cmp	r3, #3
 314 0186 03D0     		beq	.L15
 315 0188 6E48     		ldr	r0, .L27
 316 018a A221     		movs	r1, #162
 317 018c FFF7FEFF 		bl	HTS221_assert_failed
 318              	.L15:
 319              		.loc 1 163 0 is_stmt 1
 320 0190 009B     		ldr	r3, [sp]
 321 0192 DB78     		ldrb	r3, [r3, #3]	@ zero_extendqisi2
 322 0194 012B     		cmp	r3, #1
 323 0196 07D0     		beq	.L16
 324              		.loc 1 163 0 is_stmt 0 discriminator 1
 325 0198 009B     		ldr	r3, [sp]
 326 019a DB78     		ldrb	r3, [r3, #3]	@ zero_extendqisi2
 327 019c 002B     		cmp	r3, #0
 328 019e 03D0     		beq	.L16
 329 01a0 6848     		ldr	r0, .L27
 330 01a2 A321     		movs	r1, #163
 331 01a4 FFF7FEFF 		bl	HTS221_assert_failed
 332              	.L16:
 333              		.loc 1 164 0 is_stmt 1
 334 01a8 009B     		ldr	r3, [sp]
 335 01aa 1B79     		ldrb	r3, [r3, #4]	@ zero_extendqisi2
ARM GAS  /tmp/ccJWCNBb.s 			page 7


 336 01ac 012B     		cmp	r3, #1
 337 01ae 07D0     		beq	.L17
 338              		.loc 1 164 0 is_stmt 0 discriminator 1
 339 01b0 009B     		ldr	r3, [sp]
 340 01b2 1B79     		ldrb	r3, [r3, #4]	@ zero_extendqisi2
 341 01b4 002B     		cmp	r3, #0
 342 01b6 03D0     		beq	.L17
 343 01b8 6248     		ldr	r0, .L27
 344 01ba A421     		movs	r1, #164
 345 01bc FFF7FEFF 		bl	HTS221_assert_failed
 346              	.L17:
 347              		.loc 1 166 0 is_stmt 1
 348 01c0 009B     		ldr	r3, [sp]
 349 01c2 5B79     		ldrb	r3, [r3, #5]	@ zero_extendqisi2
 350 01c4 002B     		cmp	r3, #0
 351 01c6 07D0     		beq	.L18
 352              		.loc 1 166 0 is_stmt 0 discriminator 1
 353 01c8 009B     		ldr	r3, [sp]
 354 01ca 5B79     		ldrb	r3, [r3, #5]	@ zero_extendqisi2
 355 01cc 802B     		cmp	r3, #128
 356 01ce 03D0     		beq	.L18
 357 01d0 5C48     		ldr	r0, .L27
 358 01d2 A621     		movs	r1, #166
 359 01d4 FFF7FEFF 		bl	HTS221_assert_failed
 360              	.L18:
 361              		.loc 1 167 0 is_stmt 1
 362 01d8 009B     		ldr	r3, [sp]
 363 01da 9B79     		ldrb	r3, [r3, #6]	@ zero_extendqisi2
 364 01dc 002B     		cmp	r3, #0
 365 01de 07D0     		beq	.L19
 366              		.loc 1 167 0 is_stmt 0 discriminator 1
 367 01e0 009B     		ldr	r3, [sp]
 368 01e2 9B79     		ldrb	r3, [r3, #6]	@ zero_extendqisi2
 369 01e4 402B     		cmp	r3, #64
 370 01e6 03D0     		beq	.L19
 371 01e8 5648     		ldr	r0, .L27
 372 01ea A721     		movs	r1, #167
 373 01ec FFF7FEFF 		bl	HTS221_assert_failed
 374              	.L19:
 375              		.loc 1 168 0 is_stmt 1
 376 01f0 009B     		ldr	r3, [sp]
 377 01f2 DB79     		ldrb	r3, [r3, #7]	@ zero_extendqisi2
 378 01f4 012B     		cmp	r3, #1
 379 01f6 07D0     		beq	.L20
 380              		.loc 1 168 0 is_stmt 0 discriminator 1
 381 01f8 009B     		ldr	r3, [sp]
 382 01fa DB79     		ldrb	r3, [r3, #7]	@ zero_extendqisi2
 383 01fc 002B     		cmp	r3, #0
 384 01fe 03D0     		beq	.L20
 385 0200 5048     		ldr	r0, .L27
 386 0202 A821     		movs	r1, #168
 387 0204 FFF7FEFF 		bl	HTS221_assert_failed
 388              	.L20:
 389              		.loc 1 170 0 is_stmt 1
 390 0208 03AB     		add	r3, sp, #12
 391 020a 0198     		ldr	r0, [sp, #4]
 392 020c 1021     		movs	r1, #16
ARM GAS  /tmp/ccJWCNBb.s 			page 8


 393 020e 0122     		movs	r2, #1
 394 0210 FFF7FEFF 		bl	HTS221_ReadReg
 395 0214 0346     		mov	r3, r0
 396 0216 002B     		cmp	r3, #0
 397 0218 01D0     		beq	.L21
 398              		.loc 1 171 0
 399 021a 0123     		movs	r3, #1
 400 021c 8DE0     		b	.L26
 401              	.L21:
 402              		.loc 1 173 0
 403 021e 9DF80C30 		ldrb	r3, [sp, #12]	@ zero_extendqisi2
 404 0222 23F03F03 		bic	r3, r3, #63
 405 0226 DBB2     		uxtb	r3, r3
 406 0228 8DF80C30 		strb	r3, [sp, #12]
 407              		.loc 1 174 0
 408 022c 9DF80C20 		ldrb	r2, [sp, #12]	@ zero_extendqisi2
 409 0230 009B     		ldr	r3, [sp]
 410 0232 1B78     		ldrb	r3, [r3]	@ zero_extendqisi2
 411 0234 1343     		orrs	r3, r3, r2
 412 0236 DBB2     		uxtb	r3, r3
 413 0238 8DF80C30 		strb	r3, [sp, #12]
 414              		.loc 1 175 0
 415 023c 9DF80C20 		ldrb	r2, [sp, #12]	@ zero_extendqisi2
 416 0240 009B     		ldr	r3, [sp]
 417 0242 5B78     		ldrb	r3, [r3, #1]	@ zero_extendqisi2
 418 0244 1343     		orrs	r3, r3, r2
 419 0246 DBB2     		uxtb	r3, r3
 420 0248 8DF80C30 		strb	r3, [sp, #12]
 421              		.loc 1 177 0
 422 024c 03AB     		add	r3, sp, #12
 423 024e 0198     		ldr	r0, [sp, #4]
 424 0250 1021     		movs	r1, #16
 425 0252 0122     		movs	r2, #1
 426 0254 FFF7FEFF 		bl	HTS221_WriteReg
 427 0258 0346     		mov	r3, r0
 428 025a 002B     		cmp	r3, #0
 429 025c 01D0     		beq	.L23
 430              		.loc 1 178 0
 431 025e 0123     		movs	r3, #1
 432 0260 6BE0     		b	.L26
 433              	.L23:
 434              		.loc 1 180 0
 435 0262 03AB     		add	r3, sp, #12
 436 0264 0198     		ldr	r0, [sp, #4]
 437 0266 2021     		movs	r1, #32
 438 0268 0322     		movs	r2, #3
 439 026a FFF7FEFF 		bl	HTS221_ReadReg
 440 026e 0346     		mov	r3, r0
 441 0270 002B     		cmp	r3, #0
 442 0272 01D0     		beq	.L24
 443              		.loc 1 181 0
 444 0274 0123     		movs	r3, #1
 445 0276 60E0     		b	.L26
 446              	.L24:
 447              		.loc 1 183 0
 448 0278 9DF80C30 		ldrb	r3, [sp, #12]	@ zero_extendqisi2
 449 027c 23F00703 		bic	r3, r3, #7
ARM GAS  /tmp/ccJWCNBb.s 			page 9


 450 0280 DBB2     		uxtb	r3, r3
 451 0282 8DF80C30 		strb	r3, [sp, #12]
 452              		.loc 1 184 0
 453 0286 9DF80C20 		ldrb	r2, [sp, #12]	@ zero_extendqisi2
 454 028a 009B     		ldr	r3, [sp]
 455 028c 9B78     		ldrb	r3, [r3, #2]	@ zero_extendqisi2
 456 028e 1343     		orrs	r3, r3, r2
 457 0290 DBB2     		uxtb	r3, r3
 458 0292 8DF80C30 		strb	r3, [sp, #12]
 459              		.loc 1 185 0
 460 0296 9DF80C30 		ldrb	r3, [sp, #12]	@ zero_extendqisi2
 461 029a DAB2     		uxtb	r2, r3
 462 029c 009B     		ldr	r3, [sp]
 463 029e DB78     		ldrb	r3, [r3, #3]	@ zero_extendqisi2
 464 02a0 9B00     		lsls	r3, r3, #2
 465 02a2 DBB2     		uxtb	r3, r3
 466 02a4 1343     		orrs	r3, r3, r2
 467 02a6 DBB2     		uxtb	r3, r3
 468 02a8 DBB2     		uxtb	r3, r3
 469 02aa 8DF80C30 		strb	r3, [sp, #12]
 470              		.loc 1 187 0
 471 02ae 9DF80D30 		ldrb	r3, [sp, #13]	@ zero_extendqisi2
 472 02b2 23F00103 		bic	r3, r3, #1
 473 02b6 DBB2     		uxtb	r3, r3
 474 02b8 8DF80D30 		strb	r3, [sp, #13]
 475              		.loc 1 188 0
 476 02bc 9DF80D30 		ldrb	r3, [sp, #13]	@ zero_extendqisi2
 477 02c0 DAB2     		uxtb	r2, r3
 478 02c2 009B     		ldr	r3, [sp]
 479 02c4 1B79     		ldrb	r3, [r3, #4]	@ zero_extendqisi2
 480 02c6 5B00     		lsls	r3, r3, #1
 481 02c8 DBB2     		uxtb	r3, r3
 482 02ca 1343     		orrs	r3, r3, r2
 483 02cc DBB2     		uxtb	r3, r3
 484 02ce DBB2     		uxtb	r3, r3
 485 02d0 8DF80D30 		strb	r3, [sp, #13]
 486              		.loc 1 190 0
 487 02d4 9DF80E30 		ldrb	r3, [sp, #14]	@ zero_extendqisi2
 488 02d8 03F03B03 		and	r3, r3, #59
 489 02dc DBB2     		uxtb	r3, r3
 490 02de 8DF80E30 		strb	r3, [sp, #14]
 491              		.loc 1 191 0
 492 02e2 9DF80E30 		ldrb	r3, [sp, #14]	@ zero_extendqisi2
 493 02e6 DAB2     		uxtb	r2, r3
 494 02e8 009B     		ldr	r3, [sp]
 495 02ea 5B79     		ldrb	r3, [r3, #5]	@ zero_extendqisi2
 496 02ec DB01     		lsls	r3, r3, #7
 497 02ee DBB2     		uxtb	r3, r3
 498 02f0 1343     		orrs	r3, r3, r2
 499 02f2 DBB2     		uxtb	r3, r3
 500 02f4 DBB2     		uxtb	r3, r3
 501 02f6 8DF80E30 		strb	r3, [sp, #14]
 502              		.loc 1 192 0
 503 02fa 9DF80E20 		ldrb	r2, [sp, #14]	@ zero_extendqisi2
 504 02fe 009B     		ldr	r3, [sp]
 505 0300 9B79     		ldrb	r3, [r3, #6]	@ zero_extendqisi2
 506 0302 1343     		orrs	r3, r3, r2
ARM GAS  /tmp/ccJWCNBb.s 			page 10


 507 0304 DBB2     		uxtb	r3, r3
 508 0306 8DF80E30 		strb	r3, [sp, #14]
 509              		.loc 1 193 0
 510 030a 9DF80E30 		ldrb	r3, [sp, #14]	@ zero_extendqisi2
 511 030e DAB2     		uxtb	r2, r3
 512 0310 009B     		ldr	r3, [sp]
 513 0312 DB79     		ldrb	r3, [r3, #7]	@ zero_extendqisi2
 514 0314 9B00     		lsls	r3, r3, #2
 515 0316 DBB2     		uxtb	r3, r3
 516 0318 1343     		orrs	r3, r3, r2
 517 031a DBB2     		uxtb	r3, r3
 518 031c DBB2     		uxtb	r3, r3
 519 031e 8DF80E30 		strb	r3, [sp, #14]
 520              		.loc 1 195 0
 521 0322 03AB     		add	r3, sp, #12
 522 0324 0198     		ldr	r0, [sp, #4]
 523 0326 2021     		movs	r1, #32
 524 0328 0322     		movs	r2, #3
 525 032a FFF7FEFF 		bl	HTS221_WriteReg
 526 032e 0346     		mov	r3, r0
 527 0330 002B     		cmp	r3, #0
 528 0332 01D0     		beq	.L25
 529              		.loc 1 196 0
 530 0334 0123     		movs	r3, #1
 531 0336 00E0     		b	.L26
 532              	.L25:
 533              		.loc 1 198 0
 534 0338 0023     		movs	r3, #0
 535              	.L26:
 536              		.loc 1 199 0
 537 033a 1846     		mov	r0, r3
 538 033c 05B0     		add	sp, sp, #20
 539              		@ sp needed
 540 033e 5DF804FB 		ldr	pc, [sp], #4
 541              	.L28:
 542 0342 00BF     		.align	2
 543              	.L27:
 544 0344 00000000 		.word	.LC0
 545              		.cfi_endproc
 546              	.LFE4:
 547              		.size	HTS221_Set_InitConfig, .-HTS221_Set_InitConfig
 548              		.align	2
 549 0348 AFF30080 		.p2align 4,,15
 549      AFF30080 
 550              		.global	HTS221_Get_InitConfig
 551              		.thumb
 552              		.thumb_func
 553              		.type	HTS221_Get_InitConfig, %function
 554              	HTS221_Get_InitConfig:
 555              	.LFB5:
 556              		.loc 1 209 0
 557              		.cfi_startproc
 558              		@ args = 0, pretend = 0, frame = 16
 559              		@ frame_needed = 0, uses_anonymous_args = 0
 560 0350 00B5     		push	{lr}
 561              		.cfi_def_cfa_offset 4
 562              		.cfi_offset 14, -4
ARM GAS  /tmp/ccJWCNBb.s 			page 11


 563 0352 85B0     		sub	sp, sp, #20
 564              		.cfi_def_cfa_offset 24
 565 0354 0190     		str	r0, [sp, #4]
 566 0356 0091     		str	r1, [sp]
 567              		.loc 1 212 0
 568 0358 03AB     		add	r3, sp, #12
 569 035a 0198     		ldr	r0, [sp, #4]
 570 035c 1021     		movs	r1, #16
 571 035e 0122     		movs	r2, #1
 572 0360 FFF7FEFF 		bl	HTS221_ReadReg
 573 0364 0346     		mov	r3, r0
 574 0366 002B     		cmp	r3, #0
 575 0368 01D0     		beq	.L30
 576              		.loc 1 213 0
 577 036a 0123     		movs	r3, #1
 578 036c 46E0     		b	.L33
 579              	.L30:
 580              		.loc 1 215 0
 581 036e 9DF80C30 		ldrb	r3, [sp, #12]	@ zero_extendqisi2
 582 0372 03F00703 		and	r3, r3, #7
 583 0376 DAB2     		uxtb	r2, r3
 584 0378 009B     		ldr	r3, [sp]
 585 037a 1A70     		strb	r2, [r3]
 586              		.loc 1 216 0
 587 037c 9DF80C30 		ldrb	r3, [sp, #12]	@ zero_extendqisi2
 588 0380 03F03803 		and	r3, r3, #56
 589 0384 DAB2     		uxtb	r2, r3
 590 0386 009B     		ldr	r3, [sp]
 591 0388 5A70     		strb	r2, [r3, #1]
 592              		.loc 1 218 0
 593 038a 03AB     		add	r3, sp, #12
 594 038c 0198     		ldr	r0, [sp, #4]
 595 038e 2021     		movs	r1, #32
 596 0390 0322     		movs	r2, #3
 597 0392 FFF7FEFF 		bl	HTS221_ReadReg
 598 0396 0346     		mov	r3, r0
 599 0398 002B     		cmp	r3, #0
 600 039a 01D0     		beq	.L32
 601              		.loc 1 219 0
 602 039c 0123     		movs	r3, #1
 603 039e 2DE0     		b	.L33
 604              	.L32:
 605              		.loc 1 221 0
 606 03a0 9DF80C30 		ldrb	r3, [sp, #12]	@ zero_extendqisi2
 607 03a4 03F00303 		and	r3, r3, #3
 608 03a8 DAB2     		uxtb	r2, r3
 609 03aa 009B     		ldr	r3, [sp]
 610 03ac 9A70     		strb	r2, [r3, #2]
 611              		.loc 1 222 0
 612 03ae 9DF80C30 		ldrb	r3, [sp, #12]	@ zero_extendqisi2
 613 03b2 03F00403 		and	r3, r3, #4
 614 03b6 9B10     		asrs	r3, r3, #2
 615 03b8 DAB2     		uxtb	r2, r3
 616 03ba 009B     		ldr	r3, [sp]
 617 03bc DA70     		strb	r2, [r3, #3]
 618              		.loc 1 223 0
 619 03be 9DF80D30 		ldrb	r3, [sp, #13]	@ zero_extendqisi2
ARM GAS  /tmp/ccJWCNBb.s 			page 12


 620 03c2 03F00203 		and	r3, r3, #2
 621 03c6 5B10     		asrs	r3, r3, #1
 622 03c8 DAB2     		uxtb	r2, r3
 623 03ca 009B     		ldr	r3, [sp]
 624 03cc 1A71     		strb	r2, [r3, #4]
 625              		.loc 1 225 0
 626 03ce 9DF80E30 		ldrb	r3, [sp, #14]	@ zero_extendqisi2
 627 03d2 23F07F03 		bic	r3, r3, #127
 628 03d6 DAB2     		uxtb	r2, r3
 629 03d8 009B     		ldr	r3, [sp]
 630 03da 5A71     		strb	r2, [r3, #5]
 631              		.loc 1 226 0
 632 03dc 9DF80E30 		ldrb	r3, [sp, #14]	@ zero_extendqisi2
 633 03e0 03F04003 		and	r3, r3, #64
 634 03e4 DAB2     		uxtb	r2, r3
 635 03e6 009B     		ldr	r3, [sp]
 636 03e8 9A71     		strb	r2, [r3, #6]
 637              		.loc 1 227 0
 638 03ea 9DF80E30 		ldrb	r3, [sp, #14]	@ zero_extendqisi2
 639 03ee 03F00403 		and	r3, r3, #4
 640 03f2 9B10     		asrs	r3, r3, #2
 641 03f4 DAB2     		uxtb	r2, r3
 642 03f6 009B     		ldr	r3, [sp]
 643 03f8 DA71     		strb	r2, [r3, #7]
 644              		.loc 1 229 0
 645 03fa 0023     		movs	r3, #0
 646              	.L33:
 647              		.loc 1 230 0
 648 03fc 1846     		mov	r0, r3
 649 03fe 05B0     		add	sp, sp, #20
 650              		@ sp needed
 651 0400 5DF804FB 		ldr	pc, [sp], #4
 652              		.cfi_endproc
 653              	.LFE5:
 654              		.size	HTS221_Get_InitConfig, .-HTS221_Get_InitConfig
 655              		.align	2
 656 0404 AFF30080 		.p2align 4,,15
 656      AFF30080 
 656      AFF30080 
 657              		.global	HTS221_DeInit
 658              		.thumb
 659              		.thumb_func
 660              		.type	HTS221_DeInit, %function
 661              	HTS221_DeInit:
 662              	.LFB6:
 663              		.loc 1 239 0
 664              		.cfi_startproc
 665              		@ args = 0, pretend = 0, frame = 16
 666              		@ frame_needed = 0, uses_anonymous_args = 0
 667 0410 00B5     		push	{lr}
 668              		.cfi_def_cfa_offset 4
 669              		.cfi_offset 14, -4
 670 0412 85B0     		sub	sp, sp, #20
 671              		.cfi_def_cfa_offset 24
 672 0414 0190     		str	r0, [sp, #4]
 673              		.loc 1 242 0
 674 0416 03AB     		add	r3, sp, #12
ARM GAS  /tmp/ccJWCNBb.s 			page 13


 675 0418 0198     		ldr	r0, [sp, #4]
 676 041a 2021     		movs	r1, #32
 677 041c 0222     		movs	r2, #2
 678 041e FFF7FEFF 		bl	HTS221_ReadReg
 679 0422 0346     		mov	r3, r0
 680 0424 002B     		cmp	r3, #0
 681 0426 01D0     		beq	.L35
 682              		.loc 1 243 0
 683 0428 0123     		movs	r3, #1
 684 042a 24E0     		b	.L39
 685              	.L35:
 686              		.loc 1 246 0
 687 042c 9DF80C30 		ldrb	r3, [sp, #12]	@ zero_extendqisi2
 688 0430 63F07F03 		orn	r3, r3, #127
 689 0434 DBB2     		uxtb	r3, r3
 690 0436 8DF80C30 		strb	r3, [sp, #12]
 691              		.loc 1 249 0
 692 043a 9DF80D30 		ldrb	r3, [sp, #13]	@ zero_extendqisi2
 693 043e 63F07F03 		orn	r3, r3, #127
 694 0442 DBB2     		uxtb	r3, r3
 695 0444 8DF80D30 		strb	r3, [sp, #13]
 696              		.loc 1 251 0
 697 0448 03AB     		add	r3, sp, #12
 698 044a 0198     		ldr	r0, [sp, #4]
 699 044c 2021     		movs	r1, #32
 700 044e 0222     		movs	r2, #2
 701 0450 FFF7FEFF 		bl	HTS221_WriteReg
 702 0454 0346     		mov	r3, r0
 703 0456 002B     		cmp	r3, #0
 704 0458 01D0     		beq	.L37
 705              		.loc 1 252 0
 706 045a 0123     		movs	r3, #1
 707 045c 0BE0     		b	.L39
 708              	.L37:
 709              		.loc 1 255 0
 710 045e 03AB     		add	r3, sp, #12
 711 0460 0198     		ldr	r0, [sp, #4]
 712 0462 2821     		movs	r1, #40
 713 0464 0422     		movs	r2, #4
 714 0466 FFF7FEFF 		bl	HTS221_ReadReg
 715 046a 0346     		mov	r3, r0
 716 046c 002B     		cmp	r3, #0
 717 046e 01D0     		beq	.L38
 718              		.loc 1 256 0
 719 0470 0123     		movs	r3, #1
 720 0472 00E0     		b	.L39
 721              	.L38:
 722              		.loc 1 258 0
 723 0474 0023     		movs	r3, #0
 724              	.L39:
 725              		.loc 1 259 0
 726 0476 1846     		mov	r0, r3
 727 0478 05B0     		add	sp, sp, #20
 728              		@ sp needed
 729 047a 5DF804FB 		ldr	pc, [sp], #4
 730              		.cfi_endproc
 731              	.LFE6:
ARM GAS  /tmp/ccJWCNBb.s 			page 14


 732              		.size	HTS221_DeInit, .-HTS221_DeInit
 733 047e 00BF     		.align	2
 734              		.p2align 4,,15
 735              		.global	HTS221_Get_Measurement
 736              		.thumb
 737              		.thumb_func
 738              		.type	HTS221_Get_Measurement, %function
 739              	HTS221_Get_Measurement:
 740              	.LFB7:
 741              		.loc 1 269 0
 742              		.cfi_startproc
 743              		@ args = 0, pretend = 0, frame = 16
 744              		@ frame_needed = 0, uses_anonymous_args = 0
 745 0480 00B5     		push	{lr}
 746              		.cfi_def_cfa_offset 4
 747              		.cfi_offset 14, -4
 748 0482 85B0     		sub	sp, sp, #20
 749              		.cfi_def_cfa_offset 24
 750 0484 0390     		str	r0, [sp, #12]
 751 0486 0291     		str	r1, [sp, #8]
 752 0488 0192     		str	r2, [sp, #4]
 753              		.loc 1 270 0
 754 048a 0398     		ldr	r0, [sp, #12]
 755 048c 0199     		ldr	r1, [sp, #4]
 756 048e FFF7FEFF 		bl	HTS221_Get_Temperature
 757 0492 0346     		mov	r3, r0
 758 0494 012B     		cmp	r3, #1
 759 0496 01D1     		bne	.L41
 760              		.loc 1 270 0 is_stmt 0 discriminator 1
 761 0498 0123     		movs	r3, #1
 762 049a 09E0     		b	.L42
 763              	.L41:
 764              		.loc 1 271 0 is_stmt 1
 765 049c 0398     		ldr	r0, [sp, #12]
 766 049e 0299     		ldr	r1, [sp, #8]
 767 04a0 FFF7FEFF 		bl	HTS221_Get_Humidity
 768 04a4 0346     		mov	r3, r0
 769 04a6 012B     		cmp	r3, #1
 770 04a8 01D1     		bne	.L43
 771              		.loc 1 271 0 is_stmt 0 discriminator 1
 772 04aa 0123     		movs	r3, #1
 773 04ac 00E0     		b	.L42
 774              	.L43:
 775              		.loc 1 273 0 is_stmt 1
 776 04ae 0023     		movs	r3, #0
 777              	.L42:
 778              		.loc 1 274 0
 779 04b0 1846     		mov	r0, r3
 780 04b2 05B0     		add	sp, sp, #20
 781              		@ sp needed
 782 04b4 5DF804FB 		ldr	pc, [sp], #4
 783              		.cfi_endproc
 784              	.LFE7:
 785              		.size	HTS221_Get_Measurement, .-HTS221_Get_Measurement
 786              		.align	2
 787 04b8 AFF30080 		.p2align 4,,15
 787      AFF30080 
ARM GAS  /tmp/ccJWCNBb.s 			page 15


 788              		.global	HTS221_Get_RawMeasurement
 789              		.thumb
 790              		.thumb_func
 791              		.type	HTS221_Get_RawMeasurement, %function
 792              	HTS221_Get_RawMeasurement:
 793              	.LFB8:
 794              		.loc 1 284 0
 795              		.cfi_startproc
 796              		@ args = 0, pretend = 0, frame = 24
 797              		@ frame_needed = 0, uses_anonymous_args = 0
 798 04c0 00B5     		push	{lr}
 799              		.cfi_def_cfa_offset 4
 800              		.cfi_offset 14, -4
 801 04c2 87B0     		sub	sp, sp, #28
 802              		.cfi_def_cfa_offset 32
 803 04c4 0390     		str	r0, [sp, #12]
 804 04c6 0291     		str	r1, [sp, #8]
 805 04c8 0192     		str	r2, [sp, #4]
 806              		.loc 1 287 0
 807 04ca 05AB     		add	r3, sp, #20
 808 04cc 0398     		ldr	r0, [sp, #12]
 809 04ce 2821     		movs	r1, #40
 810 04d0 0422     		movs	r2, #4
 811 04d2 FFF7FEFF 		bl	HTS221_ReadReg
 812 04d6 0346     		mov	r3, r0
 813 04d8 002B     		cmp	r3, #0
 814 04da 01D0     		beq	.L45
 815              		.loc 1 288 0
 816 04dc 0123     		movs	r3, #1
 817 04de 14E0     		b	.L47
 818              	.L45:
 819              		.loc 1 290 0
 820 04e0 9DF81530 		ldrb	r3, [sp, #21]	@ zero_extendqisi2
 821 04e4 1B02     		lsls	r3, r3, #8
 822 04e6 9AB2     		uxth	r2, r3
 823 04e8 9DF81430 		ldrb	r3, [sp, #20]	@ zero_extendqisi2
 824 04ec 1343     		orrs	r3, r3, r2
 825 04ee 9AB2     		uxth	r2, r3
 826 04f0 029B     		ldr	r3, [sp, #8]
 827 04f2 1A80     		strh	r2, [r3]	@ movhi
 828              		.loc 1 291 0
 829 04f4 9DF81730 		ldrb	r3, [sp, #23]	@ zero_extendqisi2
 830 04f8 1B02     		lsls	r3, r3, #8
 831 04fa 9AB2     		uxth	r2, r3
 832 04fc 9DF81630 		ldrb	r3, [sp, #22]	@ zero_extendqisi2
 833 0500 1343     		orrs	r3, r3, r2
 834 0502 9AB2     		uxth	r2, r3
 835 0504 019B     		ldr	r3, [sp, #4]
 836 0506 1A80     		strh	r2, [r3]	@ movhi
 837              		.loc 1 293 0
 838 0508 0023     		movs	r3, #0
 839              	.L47:
 840              		.loc 1 294 0
 841 050a 1846     		mov	r0, r3
 842 050c 07B0     		add	sp, sp, #28
 843              		@ sp needed
 844 050e 5DF804FB 		ldr	pc, [sp], #4
ARM GAS  /tmp/ccJWCNBb.s 			page 16


 845              		.cfi_endproc
 846              	.LFE8:
 847              		.size	HTS221_Get_RawMeasurement, .-HTS221_Get_RawMeasurement
 848              		.global	__aeabi_i2f
 849              		.global	__aeabi_fmul
 850              		.global	__aeabi_fdiv
 851              		.global	__aeabi_fadd
 852              		.global	__aeabi_fcmpgt
 853              		.global	__aeabi_fcmplt
 854              		.global	__aeabi_f2uiz
 855 0512 00BF     		.align	2
 856 0514 AFF30080 		.p2align 4,,15
 856      AFF30080 
 856      AFF30080 
 857              		.global	HTS221_Get_Humidity
 858              		.thumb
 859              		.thumb_func
 860              		.type	HTS221_Get_Humidity, %function
 861              	HTS221_Get_Humidity:
 862              	.LFB9:
 863              		.loc 1 303 0
 864              		.cfi_startproc
 865              		@ args = 0, pretend = 0, frame = 32
 866              		@ frame_needed = 0, uses_anonymous_args = 0
 867 0520 10B5     		push	{r4, lr}
 868              		.cfi_def_cfa_offset 8
 869              		.cfi_offset 4, -8
 870              		.cfi_offset 14, -4
 871 0522 88B0     		sub	sp, sp, #32
 872              		.cfi_def_cfa_offset 40
 873 0524 0190     		str	r0, [sp, #4]
 874 0526 0091     		str	r1, [sp]
 875              		.loc 1 309 0
 876 0528 03AB     		add	r3, sp, #12
 877 052a 0198     		ldr	r0, [sp, #4]
 878 052c 3021     		movs	r1, #48
 879 052e 0222     		movs	r2, #2
 880 0530 FFF7FEFF 		bl	HTS221_ReadReg
 881 0534 0346     		mov	r3, r0
 882 0536 002B     		cmp	r3, #0
 883 0538 01D0     		beq	.L49
 884              		.loc 1 310 0
 885 053a 0123     		movs	r3, #1
 886 053c 9CE0     		b	.L60
 887              	.L49:
 888              		.loc 1 311 0
 889 053e 9DF80C30 		ldrb	r3, [sp, #12]	@ zero_extendqisi2
 890 0542 5B08     		lsrs	r3, r3, #1
 891 0544 DBB2     		uxtb	r3, r3
 892 0546 ADF81E30 		strh	r3, [sp, #30]	@ movhi
 893              		.loc 1 312 0
 894 054a 9DF80D30 		ldrb	r3, [sp, #13]	@ zero_extendqisi2
 895 054e 5B08     		lsrs	r3, r3, #1
 896 0550 DBB2     		uxtb	r3, r3
 897 0552 ADF81C30 		strh	r3, [sp, #28]	@ movhi
 898              		.loc 1 314 0
 899 0556 03AB     		add	r3, sp, #12
ARM GAS  /tmp/ccJWCNBb.s 			page 17


 900 0558 0198     		ldr	r0, [sp, #4]
 901 055a 3621     		movs	r1, #54
 902 055c 0222     		movs	r2, #2
 903 055e FFF7FEFF 		bl	HTS221_ReadReg
 904 0562 0346     		mov	r3, r0
 905 0564 002B     		cmp	r3, #0
 906 0566 01D0     		beq	.L51
 907              		.loc 1 315 0
 908 0568 0123     		movs	r3, #1
 909 056a 85E0     		b	.L60
 910              	.L51:
 911              		.loc 1 316 0
 912 056c 9DF80D30 		ldrb	r3, [sp, #13]	@ zero_extendqisi2
 913 0570 1B02     		lsls	r3, r3, #8
 914 0572 9AB2     		uxth	r2, r3
 915 0574 9DF80C30 		ldrb	r3, [sp, #12]	@ zero_extendqisi2
 916 0578 1343     		orrs	r3, r3, r2
 917 057a ADF81A30 		strh	r3, [sp, #26]	@ movhi
 918              		.loc 1 318 0
 919 057e 03AB     		add	r3, sp, #12
 920 0580 0198     		ldr	r0, [sp, #4]
 921 0582 3A21     		movs	r1, #58
 922 0584 0222     		movs	r2, #2
 923 0586 FFF7FEFF 		bl	HTS221_ReadReg
 924 058a 0346     		mov	r3, r0
 925 058c 002B     		cmp	r3, #0
 926 058e 01D0     		beq	.L52
 927              		.loc 1 319 0
 928 0590 0123     		movs	r3, #1
 929 0592 71E0     		b	.L60
 930              	.L52:
 931              		.loc 1 320 0
 932 0594 9DF80D30 		ldrb	r3, [sp, #13]	@ zero_extendqisi2
 933 0598 1B02     		lsls	r3, r3, #8
 934 059a 9AB2     		uxth	r2, r3
 935 059c 9DF80C30 		ldrb	r3, [sp, #12]	@ zero_extendqisi2
 936 05a0 1343     		orrs	r3, r3, r2
 937 05a2 ADF81830 		strh	r3, [sp, #24]	@ movhi
 938              		.loc 1 322 0
 939 05a6 03AB     		add	r3, sp, #12
 940 05a8 0198     		ldr	r0, [sp, #4]
 941 05aa 2821     		movs	r1, #40
 942 05ac 0222     		movs	r2, #2
 943 05ae FFF7FEFF 		bl	HTS221_ReadReg
 944 05b2 0346     		mov	r3, r0
 945 05b4 002B     		cmp	r3, #0
 946 05b6 01D0     		beq	.L53
 947              		.loc 1 323 0
 948 05b8 0123     		movs	r3, #1
 949 05ba 5DE0     		b	.L60
 950              	.L53:
 951              		.loc 1 324 0
 952 05bc 9DF80D30 		ldrb	r3, [sp, #13]	@ zero_extendqisi2
 953 05c0 1B02     		lsls	r3, r3, #8
 954 05c2 9AB2     		uxth	r2, r3
 955 05c4 9DF80C30 		ldrb	r3, [sp, #12]	@ zero_extendqisi2
 956 05c8 1343     		orrs	r3, r3, r2
ARM GAS  /tmp/ccJWCNBb.s 			page 18


 957 05ca ADF81630 		strh	r3, [sp, #22]	@ movhi
 958              		.loc 1 326 0
 959 05ce BDF91620 		ldrsh	r2, [sp, #22]
 960 05d2 BDF91A30 		ldrsh	r3, [sp, #26]
 961 05d6 D31A     		subs	r3, r2, r3
 962 05d8 1846     		mov	r0, r3
 963 05da FFF7FEFF 		bl	__aeabi_i2f
 964 05de 0446     		mov	r4, r0
 965 05e0 BDF91C20 		ldrsh	r2, [sp, #28]
 966 05e4 BDF91E30 		ldrsh	r3, [sp, #30]
 967 05e8 D31A     		subs	r3, r2, r3
 968 05ea 1846     		mov	r0, r3
 969 05ec FFF7FEFF 		bl	__aeabi_i2f
 970 05f0 0346     		mov	r3, r0
 971 05f2 2046     		mov	r0, r4
 972 05f4 1946     		mov	r1, r3
 973 05f6 FFF7FEFF 		bl	__aeabi_fmul
 974 05fa 0346     		mov	r3, r0
 975 05fc 1C46     		mov	r4, r3
 976 05fe BDF91820 		ldrsh	r2, [sp, #24]
 977 0602 BDF91A30 		ldrsh	r3, [sp, #26]
 978 0606 D31A     		subs	r3, r2, r3
 979 0608 1846     		mov	r0, r3
 980 060a FFF7FEFF 		bl	__aeabi_i2f
 981 060e 0346     		mov	r3, r0
 982 0610 2046     		mov	r0, r4
 983 0612 1946     		mov	r1, r3
 984 0614 FFF7FEFF 		bl	__aeabi_fdiv
 985 0618 0346     		mov	r3, r0
 986 061a 1C46     		mov	r4, r3
 987 061c BDF91E30 		ldrsh	r3, [sp, #30]
 988 0620 1846     		mov	r0, r3
 989 0622 FFF7FEFF 		bl	__aeabi_i2f
 990 0626 0346     		mov	r3, r0
 991 0628 2046     		mov	r0, r4
 992 062a 1946     		mov	r1, r3
 993 062c FFF7FEFF 		bl	__aeabi_fadd
 994 0630 0346     		mov	r3, r0
 995 0632 0493     		str	r3, [sp, #16]	@ float
 996              		.loc 1 327 0
 997 0634 0498     		ldr	r0, [sp, #16]	@ float
 998 0636 1249     		ldr	r1, .L65
 999 0638 FFF7FEFF 		bl	__aeabi_fmul
 1000 063c 0346     		mov	r3, r0
 1001 063e 0493     		str	r3, [sp, #16]	@ float
 1002              		.loc 1 329 0
 1003 0640 0498     		ldr	r0, [sp, #16]	@ float
 1004 0642 1049     		ldr	r1, .L65+4
 1005 0644 FFF7FEFF 		bl	__aeabi_fcmpgt
 1006 0648 0346     		mov	r3, r0
 1007 064a 002B     		cmp	r3, #0
 1008 064c 02D0     		beq	.L63
 1009              		.loc 1 329 0 is_stmt 0 discriminator 1
 1010 064e 4FF47A73 		mov	r3, #1000
 1011 0652 0EE0     		b	.L56
 1012              	.L63:
 1013              		.loc 1 329 0 discriminator 2
ARM GAS  /tmp/ccJWCNBb.s 			page 19


 1014 0654 0498     		ldr	r0, [sp, #16]	@ float
 1015 0656 4FF00001 		mov	r1, #0
 1016 065a FFF7FEFF 		bl	__aeabi_fcmplt
 1017 065e 0346     		mov	r3, r0
 1018 0660 002B     		cmp	r3, #0
 1019 0662 01D0     		beq	.L64
 1020              		.loc 1 329 0 discriminator 3
 1021 0664 0023     		movs	r3, #0
 1022 0666 04E0     		b	.L56
 1023              	.L64:
 1024              		.loc 1 329 0 discriminator 4
 1025 0668 0498     		ldr	r0, [sp, #16]	@ float
 1026 066a FFF7FEFF 		bl	__aeabi_f2uiz
 1027 066e 0346     		mov	r3, r0
 1028 0670 9BB2     		uxth	r3, r3
 1029              	.L56:
 1030              		.loc 1 329 0 discriminator 6
 1031 0672 009A     		ldr	r2, [sp]
 1032 0674 1380     		strh	r3, [r2]	@ movhi
 1033              		.loc 1 333 0 is_stmt 1 discriminator 6
 1034 0676 0023     		movs	r3, #0
 1035              	.L60:
 1036              		.loc 1 334 0
 1037 0678 1846     		mov	r0, r3
 1038 067a 08B0     		add	sp, sp, #32
 1039              		@ sp needed
 1040 067c 10BD     		pop	{r4, pc}
 1041              	.L66:
 1042 067e 00BF     		.align	2
 1043              	.L65:
 1044 0680 00002041 		.word	1092616192
 1045 0684 00007A44 		.word	1148846080
 1046              		.cfi_endproc
 1047              	.LFE9:
 1048              		.size	HTS221_Get_Humidity, .-HTS221_Get_Humidity
 1049              		.align	2
 1050 0688 AFF30080 		.p2align 4,,15
 1050      AFF30080 
 1051              		.global	HTS221_Get_HumidityRaw
 1052              		.thumb
 1053              		.thumb_func
 1054              		.type	HTS221_Get_HumidityRaw, %function
 1055              	HTS221_Get_HumidityRaw:
 1056              	.LFB10:
 1057              		.loc 1 343 0
 1058              		.cfi_startproc
 1059              		@ args = 0, pretend = 0, frame = 16
 1060              		@ frame_needed = 0, uses_anonymous_args = 0
 1061 0690 00B5     		push	{lr}
 1062              		.cfi_def_cfa_offset 4
 1063              		.cfi_offset 14, -4
 1064 0692 85B0     		sub	sp, sp, #20
 1065              		.cfi_def_cfa_offset 24
 1066 0694 0190     		str	r0, [sp, #4]
 1067 0696 0091     		str	r1, [sp]
 1068              		.loc 1 346 0
 1069 0698 03AB     		add	r3, sp, #12
ARM GAS  /tmp/ccJWCNBb.s 			page 20


 1070 069a 0198     		ldr	r0, [sp, #4]
 1071 069c 2821     		movs	r1, #40
 1072 069e 0222     		movs	r2, #2
 1073 06a0 FFF7FEFF 		bl	HTS221_ReadReg
 1074 06a4 0346     		mov	r3, r0
 1075 06a6 002B     		cmp	r3, #0
 1076 06a8 01D0     		beq	.L68
 1077              		.loc 1 347 0
 1078 06aa 0123     		movs	r3, #1
 1079 06ac 0AE0     		b	.L70
 1080              	.L68:
 1081              		.loc 1 349 0
 1082 06ae 9DF80D30 		ldrb	r3, [sp, #13]	@ zero_extendqisi2
 1083 06b2 1B02     		lsls	r3, r3, #8
 1084 06b4 9AB2     		uxth	r2, r3
 1085 06b6 9DF80C30 		ldrb	r3, [sp, #12]	@ zero_extendqisi2
 1086 06ba 1343     		orrs	r3, r3, r2
 1087 06bc 9AB2     		uxth	r2, r3
 1088 06be 009B     		ldr	r3, [sp]
 1089 06c0 1A80     		strh	r2, [r3]	@ movhi
 1090              		.loc 1 351 0
 1091 06c2 0023     		movs	r3, #0
 1092              	.L70:
 1093              		.loc 1 352 0
 1094 06c4 1846     		mov	r0, r3
 1095 06c6 05B0     		add	sp, sp, #20
 1096              		@ sp needed
 1097 06c8 5DF804FB 		ldr	pc, [sp], #4
 1098              		.cfi_endproc
 1099              	.LFE10:
 1100              		.size	HTS221_Get_HumidityRaw, .-HTS221_Get_HumidityRaw
 1101              		.global	__aeabi_f2iz
 1102              		.align	2
 1103 06cc AFF30080 		.p2align 4,,15
 1104              		.global	HTS221_Get_Temperature
 1105              		.thumb
 1106              		.thumb_func
 1107              		.type	HTS221_Get_Temperature, %function
 1108              	HTS221_Get_Temperature:
 1109              	.LFB11:
 1110              		.loc 1 361 0
 1111              		.cfi_startproc
 1112              		@ args = 0, pretend = 0, frame = 40
 1113              		@ frame_needed = 0, uses_anonymous_args = 0
 1114 06d0 10B5     		push	{r4, lr}
 1115              		.cfi_def_cfa_offset 8
 1116              		.cfi_offset 4, -8
 1117              		.cfi_offset 14, -4
 1118 06d2 8AB0     		sub	sp, sp, #40
 1119              		.cfi_def_cfa_offset 48
 1120 06d4 0190     		str	r0, [sp, #4]
 1121 06d6 0091     		str	r1, [sp]
 1122              		.loc 1 367 0
 1123 06d8 04AB     		add	r3, sp, #16
 1124 06da 0198     		ldr	r0, [sp, #4]
 1125 06dc 3221     		movs	r1, #50
 1126 06de 0222     		movs	r2, #2
ARM GAS  /tmp/ccJWCNBb.s 			page 21


 1127 06e0 FFF7FEFF 		bl	HTS221_ReadReg
 1128 06e4 0346     		mov	r3, r0
 1129 06e6 002B     		cmp	r3, #0
 1130 06e8 01D0     		beq	.L72
 1131              		.loc 1 368 0
 1132 06ea 0123     		movs	r3, #1
 1133 06ec 9DE0     		b	.L77
 1134              	.L72:
 1135              		.loc 1 369 0
 1136 06ee 0DF10F03 		add	r3, sp, #15
 1137 06f2 0198     		ldr	r0, [sp, #4]
 1138 06f4 3521     		movs	r1, #53
 1139 06f6 0122     		movs	r2, #1
 1140 06f8 FFF7FEFF 		bl	HTS221_ReadReg
 1141 06fc 0346     		mov	r3, r0
 1142 06fe 002B     		cmp	r3, #0
 1143 0700 01D0     		beq	.L74
 1144              		.loc 1 370 0
 1145 0702 0123     		movs	r3, #1
 1146 0704 91E0     		b	.L77
 1147              	.L74:
 1148              		.loc 1 372 0
 1149 0706 9DF80F30 		ldrb	r3, [sp, #15]	@ zero_extendqisi2
 1150 070a 03F00303 		and	r3, r3, #3
 1151 070e 1B02     		lsls	r3, r3, #8
 1152 0710 9AB2     		uxth	r2, r3
 1153 0712 9DF81030 		ldrb	r3, [sp, #16]	@ zero_extendqisi2
 1154 0716 1343     		orrs	r3, r3, r2
 1155 0718 ADF82630 		strh	r3, [sp, #38]	@ movhi
 1156              		.loc 1 373 0
 1157 071c 9DF80F30 		ldrb	r3, [sp, #15]	@ zero_extendqisi2
 1158 0720 03F00C03 		and	r3, r3, #12
 1159 0724 9B01     		lsls	r3, r3, #6
 1160 0726 9AB2     		uxth	r2, r3
 1161 0728 9DF81130 		ldrb	r3, [sp, #17]	@ zero_extendqisi2
 1162 072c 1343     		orrs	r3, r3, r2
 1163 072e ADF82430 		strh	r3, [sp, #36]	@ movhi
 1164              		.loc 1 374 0
 1165 0732 BDF92630 		ldrsh	r3, [sp, #38]
 1166 0736 DB10     		asrs	r3, r3, #3
 1167 0738 ADF82230 		strh	r3, [sp, #34]	@ movhi
 1168              		.loc 1 375 0
 1169 073c BDF92430 		ldrsh	r3, [sp, #36]
 1170 0740 DB10     		asrs	r3, r3, #3
 1171 0742 ADF82030 		strh	r3, [sp, #32]	@ movhi
 1172              		.loc 1 377 0
 1173 0746 04AB     		add	r3, sp, #16
 1174 0748 0198     		ldr	r0, [sp, #4]
 1175 074a 3C21     		movs	r1, #60
 1176 074c 0422     		movs	r2, #4
 1177 074e FFF7FEFF 		bl	HTS221_ReadReg
 1178 0752 0346     		mov	r3, r0
 1179 0754 002B     		cmp	r3, #0
 1180 0756 01D0     		beq	.L75
 1181              		.loc 1 378 0
 1182 0758 0123     		movs	r3, #1
 1183 075a 66E0     		b	.L77
ARM GAS  /tmp/ccJWCNBb.s 			page 22


 1184              	.L75:
 1185              		.loc 1 380 0
 1186 075c 9DF81130 		ldrb	r3, [sp, #17]	@ zero_extendqisi2
 1187 0760 1B02     		lsls	r3, r3, #8
 1188 0762 9AB2     		uxth	r2, r3
 1189 0764 9DF81030 		ldrb	r3, [sp, #16]	@ zero_extendqisi2
 1190 0768 1343     		orrs	r3, r3, r2
 1191 076a ADF81E30 		strh	r3, [sp, #30]	@ movhi
 1192              		.loc 1 381 0
 1193 076e 9DF81330 		ldrb	r3, [sp, #19]	@ zero_extendqisi2
 1194 0772 1B02     		lsls	r3, r3, #8
 1195 0774 9AB2     		uxth	r2, r3
 1196 0776 9DF81230 		ldrb	r3, [sp, #18]	@ zero_extendqisi2
 1197 077a 1343     		orrs	r3, r3, r2
 1198 077c ADF81C30 		strh	r3, [sp, #28]	@ movhi
 1199              		.loc 1 383 0
 1200 0780 04AB     		add	r3, sp, #16
 1201 0782 0198     		ldr	r0, [sp, #4]
 1202 0784 2A21     		movs	r1, #42
 1203 0786 0222     		movs	r2, #2
 1204 0788 FFF7FEFF 		bl	HTS221_ReadReg
 1205 078c 0346     		mov	r3, r0
 1206 078e 002B     		cmp	r3, #0
 1207 0790 01D0     		beq	.L76
 1208              		.loc 1 384 0
 1209 0792 0123     		movs	r3, #1
 1210 0794 49E0     		b	.L77
 1211              	.L76:
 1212              		.loc 1 386 0
 1213 0796 9DF81130 		ldrb	r3, [sp, #17]	@ zero_extendqisi2
 1214 079a 1B02     		lsls	r3, r3, #8
 1215 079c 9AB2     		uxth	r2, r3
 1216 079e 9DF81030 		ldrb	r3, [sp, #16]	@ zero_extendqisi2
 1217 07a2 1343     		orrs	r3, r3, r2
 1218 07a4 ADF81A30 		strh	r3, [sp, #26]	@ movhi
 1219              		.loc 1 388 0
 1220 07a8 BDF91A20 		ldrsh	r2, [sp, #26]
 1221 07ac BDF91E30 		ldrsh	r3, [sp, #30]
 1222 07b0 D31A     		subs	r3, r2, r3
 1223 07b2 1846     		mov	r0, r3
 1224 07b4 FFF7FEFF 		bl	__aeabi_i2f
 1225 07b8 0446     		mov	r4, r0
 1226 07ba BDF92020 		ldrsh	r2, [sp, #32]
 1227 07be BDF92230 		ldrsh	r3, [sp, #34]
 1228 07c2 D31A     		subs	r3, r2, r3
 1229 07c4 1846     		mov	r0, r3
 1230 07c6 FFF7FEFF 		bl	__aeabi_i2f
 1231 07ca 0346     		mov	r3, r0
 1232 07cc 2046     		mov	r0, r4
 1233 07ce 1946     		mov	r1, r3
 1234 07d0 FFF7FEFF 		bl	__aeabi_fmul
 1235 07d4 0346     		mov	r3, r0
 1236 07d6 1C46     		mov	r4, r3
 1237 07d8 BDF91C20 		ldrsh	r2, [sp, #28]
 1238 07dc BDF91E30 		ldrsh	r3, [sp, #30]
 1239 07e0 D31A     		subs	r3, r2, r3
 1240 07e2 1846     		mov	r0, r3
ARM GAS  /tmp/ccJWCNBb.s 			page 23


 1241 07e4 FFF7FEFF 		bl	__aeabi_i2f
 1242 07e8 0346     		mov	r3, r0
 1243 07ea 2046     		mov	r0, r4
 1244 07ec 1946     		mov	r1, r3
 1245 07ee FFF7FEFF 		bl	__aeabi_fdiv
 1246 07f2 0346     		mov	r3, r0
 1247 07f4 1C46     		mov	r4, r3
 1248 07f6 BDF92230 		ldrsh	r3, [sp, #34]
 1249 07fa 1846     		mov	r0, r3
 1250 07fc FFF7FEFF 		bl	__aeabi_i2f
 1251 0800 0346     		mov	r3, r0
 1252 0802 2046     		mov	r0, r4
 1253 0804 1946     		mov	r1, r3
 1254 0806 FFF7FEFF 		bl	__aeabi_fadd
 1255 080a 0346     		mov	r3, r0
 1256 080c 0593     		str	r3, [sp, #20]	@ float
 1257              		.loc 1 389 0
 1258 080e 0598     		ldr	r0, [sp, #20]	@ float
 1259 0810 0749     		ldr	r1, .L78
 1260 0812 FFF7FEFF 		bl	__aeabi_fmul
 1261 0816 0346     		mov	r3, r0
 1262 0818 0593     		str	r3, [sp, #20]	@ float
 1263              		.loc 1 391 0
 1264 081a 0598     		ldr	r0, [sp, #20]	@ float
 1265 081c FFF7FEFF 		bl	__aeabi_f2iz
 1266 0820 0346     		mov	r3, r0
 1267 0822 9AB2     		uxth	r2, r3
 1268 0824 009B     		ldr	r3, [sp]
 1269 0826 1A80     		strh	r2, [r3]	@ movhi
 1270              		.loc 1 393 0
 1271 0828 0023     		movs	r3, #0
 1272              	.L77:
 1273              		.loc 1 394 0
 1274 082a 1846     		mov	r0, r3
 1275 082c 0AB0     		add	sp, sp, #40
 1276              		@ sp needed
 1277 082e 10BD     		pop	{r4, pc}
 1278              	.L79:
 1279              		.align	2
 1280              	.L78:
 1281 0830 00002041 		.word	1092616192
 1282              		.cfi_endproc
 1283              	.LFE11:
 1284              		.size	HTS221_Get_Temperature, .-HTS221_Get_Temperature
 1285              		.align	2
 1286 0834 AFF30080 		.p2align 4,,15
 1286      AFF30080 
 1286      AFF30080 
 1287              		.global	HTS221_Get_TemperatureRaw
 1288              		.thumb
 1289              		.thumb_func
 1290              		.type	HTS221_Get_TemperatureRaw, %function
 1291              	HTS221_Get_TemperatureRaw:
 1292              	.LFB12:
 1293              		.loc 1 403 0
 1294              		.cfi_startproc
 1295              		@ args = 0, pretend = 0, frame = 16
ARM GAS  /tmp/ccJWCNBb.s 			page 24


 1296              		@ frame_needed = 0, uses_anonymous_args = 0
 1297 0840 00B5     		push	{lr}
 1298              		.cfi_def_cfa_offset 4
 1299              		.cfi_offset 14, -4
 1300 0842 85B0     		sub	sp, sp, #20
 1301              		.cfi_def_cfa_offset 24
 1302 0844 0190     		str	r0, [sp, #4]
 1303 0846 0091     		str	r1, [sp]
 1304              		.loc 1 406 0
 1305 0848 03AB     		add	r3, sp, #12
 1306 084a 0198     		ldr	r0, [sp, #4]
 1307 084c 2A21     		movs	r1, #42
 1308 084e 0222     		movs	r2, #2
 1309 0850 FFF7FEFF 		bl	HTS221_ReadReg
 1310 0854 0346     		mov	r3, r0
 1311 0856 002B     		cmp	r3, #0
 1312 0858 01D0     		beq	.L81
 1313              		.loc 1 407 0
 1314 085a 0123     		movs	r3, #1
 1315 085c 0AE0     		b	.L83
 1316              	.L81:
 1317              		.loc 1 409 0
 1318 085e 9DF80D30 		ldrb	r3, [sp, #13]	@ zero_extendqisi2
 1319 0862 1B02     		lsls	r3, r3, #8
 1320 0864 9AB2     		uxth	r2, r3
 1321 0866 9DF80C30 		ldrb	r3, [sp, #12]	@ zero_extendqisi2
 1322 086a 1343     		orrs	r3, r3, r2
 1323 086c 9AB2     		uxth	r2, r3
 1324 086e 009B     		ldr	r3, [sp]
 1325 0870 1A80     		strh	r2, [r3]	@ movhi
 1326              		.loc 1 411 0
 1327 0872 0023     		movs	r3, #0
 1328              	.L83:
 1329              		.loc 1 412 0
 1330 0874 1846     		mov	r0, r3
 1331 0876 05B0     		add	sp, sp, #20
 1332              		@ sp needed
 1333 0878 5DF804FB 		ldr	pc, [sp], #4
 1334              		.cfi_endproc
 1335              	.LFE12:
 1336              		.size	HTS221_Get_TemperatureRaw, .-HTS221_Get_TemperatureRaw
 1337              		.align	2
 1338 087c AFF30080 		.p2align 4,,15
 1339              		.global	HTS221_Get_DataStatus
 1340              		.thumb
 1341              		.thumb_func
 1342              		.type	HTS221_Get_DataStatus, %function
 1343              	HTS221_Get_DataStatus:
 1344              	.LFB13:
 1345              		.loc 1 423 0
 1346              		.cfi_startproc
 1347              		@ args = 0, pretend = 0, frame = 24
 1348              		@ frame_needed = 0, uses_anonymous_args = 0
 1349 0880 00B5     		push	{lr}
 1350              		.cfi_def_cfa_offset 4
 1351              		.cfi_offset 14, -4
 1352 0882 87B0     		sub	sp, sp, #28
ARM GAS  /tmp/ccJWCNBb.s 			page 25


 1353              		.cfi_def_cfa_offset 32
 1354 0884 0390     		str	r0, [sp, #12]
 1355 0886 0291     		str	r1, [sp, #8]
 1356 0888 0192     		str	r2, [sp, #4]
 1357              		.loc 1 426 0
 1358 088a 0DF11703 		add	r3, sp, #23
 1359 088e 0398     		ldr	r0, [sp, #12]
 1360 0890 2721     		movs	r1, #39
 1361 0892 0122     		movs	r2, #1
 1362 0894 FFF7FEFF 		bl	HTS221_ReadReg
 1363 0898 0346     		mov	r3, r0
 1364 089a 002B     		cmp	r3, #0
 1365 089c 01D0     		beq	.L85
 1366              		.loc 1 427 0
 1367 089e 0123     		movs	r3, #1
 1368 08a0 0FE0     		b	.L87
 1369              	.L85:
 1370              		.loc 1 429 0
 1371 08a2 9DF81730 		ldrb	r3, [sp, #23]	@ zero_extendqisi2
 1372 08a6 03F00203 		and	r3, r3, #2
 1373 08aa 5B10     		asrs	r3, r3, #1
 1374 08ac DAB2     		uxtb	r2, r3
 1375 08ae 029B     		ldr	r3, [sp, #8]
 1376 08b0 1A70     		strb	r2, [r3]
 1377              		.loc 1 430 0
 1378 08b2 9DF81730 		ldrb	r3, [sp, #23]	@ zero_extendqisi2
 1379 08b6 03F00103 		and	r3, r3, #1
 1380 08ba DAB2     		uxtb	r2, r3
 1381 08bc 019B     		ldr	r3, [sp, #4]
 1382 08be 1A70     		strb	r2, [r3]
 1383              		.loc 1 432 0
 1384 08c0 0023     		movs	r3, #0
 1385              	.L87:
 1386              		.loc 1 433 0
 1387 08c2 1846     		mov	r0, r3
 1388 08c4 07B0     		add	sp, sp, #28
 1389              		@ sp needed
 1390 08c6 5DF804FB 		ldr	pc, [sp], #4
 1391              		.cfi_endproc
 1392              	.LFE13:
 1393              		.size	HTS221_Get_DataStatus, .-HTS221_Get_DataStatus
 1394 08ca 00BF     		.align	2
 1395 08cc AFF30080 		.p2align 4,,15
 1396              		.global	HTS221_Activate
 1397              		.thumb
 1398              		.thumb_func
 1399              		.type	HTS221_Activate, %function
 1400              	HTS221_Activate:
 1401              	.LFB14:
 1402              		.loc 1 442 0
 1403              		.cfi_startproc
 1404              		@ args = 0, pretend = 0, frame = 16
 1405              		@ frame_needed = 0, uses_anonymous_args = 0
 1406 08d0 00B5     		push	{lr}
 1407              		.cfi_def_cfa_offset 4
 1408              		.cfi_offset 14, -4
 1409 08d2 85B0     		sub	sp, sp, #20
ARM GAS  /tmp/ccJWCNBb.s 			page 26


 1410              		.cfi_def_cfa_offset 24
 1411 08d4 0190     		str	r0, [sp, #4]
 1412              		.loc 1 445 0
 1413 08d6 0DF10F03 		add	r3, sp, #15
 1414 08da 0198     		ldr	r0, [sp, #4]
 1415 08dc 2021     		movs	r1, #32
 1416 08de 0122     		movs	r2, #1
 1417 08e0 FFF7FEFF 		bl	HTS221_ReadReg
 1418 08e4 0346     		mov	r3, r0
 1419 08e6 002B     		cmp	r3, #0
 1420 08e8 01D0     		beq	.L89
 1421              		.loc 1 446 0
 1422 08ea 0123     		movs	r3, #1
 1423 08ec 13E0     		b	.L92
 1424              	.L89:
 1425              		.loc 1 448 0
 1426 08ee 9DF80F30 		ldrb	r3, [sp, #15]	@ zero_extendqisi2
 1427 08f2 63F07F03 		orn	r3, r3, #127
 1428 08f6 DBB2     		uxtb	r3, r3
 1429 08f8 8DF80F30 		strb	r3, [sp, #15]
 1430              		.loc 1 450 0
 1431 08fc 0DF10F03 		add	r3, sp, #15
 1432 0900 0198     		ldr	r0, [sp, #4]
 1433 0902 2021     		movs	r1, #32
 1434 0904 0122     		movs	r2, #1
 1435 0906 FFF7FEFF 		bl	HTS221_WriteReg
 1436 090a 0346     		mov	r3, r0
 1437 090c 002B     		cmp	r3, #0
 1438 090e 01D0     		beq	.L91
 1439              		.loc 1 451 0
 1440 0910 0123     		movs	r3, #1
 1441 0912 00E0     		b	.L92
 1442              	.L91:
 1443              		.loc 1 453 0
 1444 0914 0023     		movs	r3, #0
 1445              	.L92:
 1446              		.loc 1 454 0
 1447 0916 1846     		mov	r0, r3
 1448 0918 05B0     		add	sp, sp, #20
 1449              		@ sp needed
 1450 091a 5DF804FB 		ldr	pc, [sp], #4
 1451              		.cfi_endproc
 1452              	.LFE14:
 1453              		.size	HTS221_Activate, .-HTS221_Activate
 1454 091e 00BF     		.align	2
 1455              		.p2align 4,,15
 1456              		.global	HTS221_DeActivate
 1457              		.thumb
 1458              		.thumb_func
 1459              		.type	HTS221_DeActivate, %function
 1460              	HTS221_DeActivate:
 1461              	.LFB15:
 1462              		.loc 1 462 0
 1463              		.cfi_startproc
 1464              		@ args = 0, pretend = 0, frame = 16
 1465              		@ frame_needed = 0, uses_anonymous_args = 0
 1466 0920 00B5     		push	{lr}
ARM GAS  /tmp/ccJWCNBb.s 			page 27


 1467              		.cfi_def_cfa_offset 4
 1468              		.cfi_offset 14, -4
 1469 0922 85B0     		sub	sp, sp, #20
 1470              		.cfi_def_cfa_offset 24
 1471 0924 0190     		str	r0, [sp, #4]
 1472              		.loc 1 465 0
 1473 0926 0DF10F03 		add	r3, sp, #15
 1474 092a 0198     		ldr	r0, [sp, #4]
 1475 092c 2021     		movs	r1, #32
 1476 092e 0122     		movs	r2, #1
 1477 0930 FFF7FEFF 		bl	HTS221_ReadReg
 1478 0934 0346     		mov	r3, r0
 1479 0936 002B     		cmp	r3, #0
 1480 0938 01D0     		beq	.L94
 1481              		.loc 1 466 0
 1482 093a 0123     		movs	r3, #1
 1483 093c 13E0     		b	.L97
 1484              	.L94:
 1485              		.loc 1 468 0
 1486 093e 9DF80F30 		ldrb	r3, [sp, #15]	@ zero_extendqisi2
 1487 0942 03F07F03 		and	r3, r3, #127
 1488 0946 DBB2     		uxtb	r3, r3
 1489 0948 8DF80F30 		strb	r3, [sp, #15]
 1490              		.loc 1 470 0
 1491 094c 0DF10F03 		add	r3, sp, #15
 1492 0950 0198     		ldr	r0, [sp, #4]
 1493 0952 2021     		movs	r1, #32
 1494 0954 0122     		movs	r2, #1
 1495 0956 FFF7FEFF 		bl	HTS221_WriteReg
 1496 095a 0346     		mov	r3, r0
 1497 095c 002B     		cmp	r3, #0
 1498 095e 01D0     		beq	.L96
 1499              		.loc 1 471 0
 1500 0960 0123     		movs	r3, #1
 1501 0962 00E0     		b	.L97
 1502              	.L96:
 1503              		.loc 1 473 0
 1504 0964 0023     		movs	r3, #0
 1505              	.L97:
 1506              		.loc 1 474 0
 1507 0966 1846     		mov	r0, r3
 1508 0968 05B0     		add	sp, sp, #20
 1509              		@ sp needed
 1510 096a 5DF804FB 		ldr	pc, [sp], #4
 1511              		.cfi_endproc
 1512              	.LFE15:
 1513              		.size	HTS221_DeActivate, .-HTS221_DeActivate
 1514 096e 00BF     		.align	2
 1515              		.p2align 4,,15
 1516              		.global	HTS221_IsMeasurementCompleted
 1517              		.thumb
 1518              		.thumb_func
 1519              		.type	HTS221_IsMeasurementCompleted, %function
 1520              	HTS221_IsMeasurementCompleted:
 1521              	.LFB16:
 1522              		.loc 1 485 0
 1523              		.cfi_startproc
ARM GAS  /tmp/ccJWCNBb.s 			page 28


 1524              		@ args = 0, pretend = 0, frame = 16
 1525              		@ frame_needed = 0, uses_anonymous_args = 0
 1526 0970 00B5     		push	{lr}
 1527              		.cfi_def_cfa_offset 4
 1528              		.cfi_offset 14, -4
 1529 0972 85B0     		sub	sp, sp, #20
 1530              		.cfi_def_cfa_offset 24
 1531 0974 0190     		str	r0, [sp, #4]
 1532 0976 0091     		str	r1, [sp]
 1533              		.loc 1 488 0
 1534 0978 0DF10F03 		add	r3, sp, #15
 1535 097c 0198     		ldr	r0, [sp, #4]
 1536 097e 2721     		movs	r1, #39
 1537 0980 0122     		movs	r2, #1
 1538 0982 FFF7FEFF 		bl	HTS221_ReadReg
 1539 0986 0346     		mov	r3, r0
 1540 0988 002B     		cmp	r3, #0
 1541 098a 01D0     		beq	.L99
 1542              		.loc 1 489 0
 1543 098c 0123     		movs	r3, #1
 1544 098e 0DE0     		b	.L103
 1545              	.L99:
 1546              		.loc 1 491 0
 1547 0990 9DF80F30 		ldrb	r3, [sp, #15]	@ zero_extendqisi2
 1548 0994 03F00303 		and	r3, r3, #3
 1549 0998 032B     		cmp	r3, #3
 1550 099a 03D1     		bne	.L101
 1551              		.loc 1 492 0
 1552 099c 009B     		ldr	r3, [sp]
 1553 099e 0122     		movs	r2, #1
 1554 09a0 1A70     		strb	r2, [r3]
 1555 09a2 02E0     		b	.L102
 1556              	.L101:
 1557              		.loc 1 494 0
 1558 09a4 009B     		ldr	r3, [sp]
 1559 09a6 0022     		movs	r2, #0
 1560 09a8 1A70     		strb	r2, [r3]
 1561              	.L102:
 1562              		.loc 1 496 0
 1563 09aa 0023     		movs	r3, #0
 1564              	.L103:
 1565              		.loc 1 497 0
 1566 09ac 1846     		mov	r0, r3
 1567 09ae 05B0     		add	sp, sp, #20
 1568              		@ sp needed
 1569 09b0 5DF804FB 		ldr	pc, [sp], #4
 1570              		.cfi_endproc
 1571              	.LFE16:
 1572              		.size	HTS221_IsMeasurementCompleted, .-HTS221_IsMeasurementCompleted
 1573              		.align	2
 1574 09b4 AFF30080 		.p2align 4,,15
 1574      AFF30080 
 1574      AFF30080 
 1575              		.global	HTS221_Set_AvgHT
 1576              		.thumb
 1577              		.thumb_func
 1578              		.type	HTS221_Set_AvgHT, %function
ARM GAS  /tmp/ccJWCNBb.s 			page 29


 1579              	HTS221_Set_AvgHT:
 1580              	.LFB17:
 1581              		.loc 1 508 0
 1582              		.cfi_startproc
 1583              		@ args = 0, pretend = 0, frame = 16
 1584              		@ frame_needed = 0, uses_anonymous_args = 0
 1585 09c0 00B5     		push	{lr}
 1586              		.cfi_def_cfa_offset 4
 1587              		.cfi_offset 14, -4
 1588 09c2 85B0     		sub	sp, sp, #20
 1589              		.cfi_def_cfa_offset 24
 1590 09c4 0190     		str	r0, [sp, #4]
 1591 09c6 1346     		mov	r3, r2
 1592 09c8 0A46     		mov	r2, r1
 1593 09ca 8DF80320 		strb	r2, [sp, #3]
 1594 09ce 8DF80230 		strb	r3, [sp, #2]
 1595              		.loc 1 511 0
 1596 09d2 9DF80330 		ldrb	r3, [sp, #3]	@ zero_extendqisi2
 1597 09d6 002B     		cmp	r3, #0
 1598 09d8 20D0     		beq	.L105
 1599              		.loc 1 511 0 is_stmt 0 discriminator 1
 1600 09da 9DF80330 		ldrb	r3, [sp, #3]	@ zero_extendqisi2
 1601 09de 012B     		cmp	r3, #1
 1602 09e0 1CD0     		beq	.L105
 1603 09e2 9DF80330 		ldrb	r3, [sp, #3]	@ zero_extendqisi2
 1604 09e6 022B     		cmp	r3, #2
 1605 09e8 18D0     		beq	.L105
 1606 09ea 9DF80330 		ldrb	r3, [sp, #3]	@ zero_extendqisi2
 1607 09ee 032B     		cmp	r3, #3
 1608 09f0 14D0     		beq	.L105
 1609 09f2 9DF80330 		ldrb	r3, [sp, #3]	@ zero_extendqisi2
 1610 09f6 042B     		cmp	r3, #4
 1611 09f8 10D0     		beq	.L105
 1612 09fa 9DF80330 		ldrb	r3, [sp, #3]	@ zero_extendqisi2
 1613 09fe 052B     		cmp	r3, #5
 1614 0a00 0CD0     		beq	.L105
 1615 0a02 9DF80330 		ldrb	r3, [sp, #3]	@ zero_extendqisi2
 1616 0a06 062B     		cmp	r3, #6
 1617 0a08 08D0     		beq	.L105
 1618 0a0a 9DF80330 		ldrb	r3, [sp, #3]	@ zero_extendqisi2
 1619 0a0e 072B     		cmp	r3, #7
 1620 0a10 04D0     		beq	.L105
 1621 0a12 2F48     		ldr	r0, .L111
 1622 0a14 40F2FF11 		movw	r1, #511
 1623 0a18 FFF7FEFF 		bl	HTS221_assert_failed
 1624              	.L105:
 1625              		.loc 1 512 0 is_stmt 1
 1626 0a1c 9DF80230 		ldrb	r3, [sp, #2]	@ zero_extendqisi2
 1627 0a20 002B     		cmp	r3, #0
 1628 0a22 20D0     		beq	.L106
 1629              		.loc 1 512 0 is_stmt 0 discriminator 1
 1630 0a24 9DF80230 		ldrb	r3, [sp, #2]	@ zero_extendqisi2
 1631 0a28 082B     		cmp	r3, #8
 1632 0a2a 1CD0     		beq	.L106
 1633 0a2c 9DF80230 		ldrb	r3, [sp, #2]	@ zero_extendqisi2
 1634 0a30 102B     		cmp	r3, #16
 1635 0a32 18D0     		beq	.L106
ARM GAS  /tmp/ccJWCNBb.s 			page 30


 1636 0a34 9DF80230 		ldrb	r3, [sp, #2]	@ zero_extendqisi2
 1637 0a38 182B     		cmp	r3, #24
 1638 0a3a 14D0     		beq	.L106
 1639 0a3c 9DF80230 		ldrb	r3, [sp, #2]	@ zero_extendqisi2
 1640 0a40 202B     		cmp	r3, #32
 1641 0a42 10D0     		beq	.L106
 1642 0a44 9DF80230 		ldrb	r3, [sp, #2]	@ zero_extendqisi2
 1643 0a48 282B     		cmp	r3, #40
 1644 0a4a 0CD0     		beq	.L106
 1645 0a4c 9DF80230 		ldrb	r3, [sp, #2]	@ zero_extendqisi2
 1646 0a50 302B     		cmp	r3, #48
 1647 0a52 08D0     		beq	.L106
 1648 0a54 9DF80230 		ldrb	r3, [sp, #2]	@ zero_extendqisi2
 1649 0a58 382B     		cmp	r3, #56
 1650 0a5a 04D0     		beq	.L106
 1651 0a5c 1C48     		ldr	r0, .L111
 1652 0a5e 4FF40071 		mov	r1, #512
 1653 0a62 FFF7FEFF 		bl	HTS221_assert_failed
 1654              	.L106:
 1655              		.loc 1 514 0 is_stmt 1
 1656 0a66 0DF10F03 		add	r3, sp, #15
 1657 0a6a 0198     		ldr	r0, [sp, #4]
 1658 0a6c 1021     		movs	r1, #16
 1659 0a6e 0122     		movs	r2, #1
 1660 0a70 FFF7FEFF 		bl	HTS221_ReadReg
 1661 0a74 0346     		mov	r3, r0
 1662 0a76 002B     		cmp	r3, #0
 1663 0a78 01D0     		beq	.L107
 1664              		.loc 1 515 0
 1665 0a7a 0123     		movs	r3, #1
 1666 0a7c 23E0     		b	.L110
 1667              	.L107:
 1668              		.loc 1 517 0
 1669 0a7e 9DF80F30 		ldrb	r3, [sp, #15]	@ zero_extendqisi2
 1670 0a82 23F03F03 		bic	r3, r3, #63
 1671 0a86 DBB2     		uxtb	r3, r3
 1672 0a88 8DF80F30 		strb	r3, [sp, #15]
 1673              		.loc 1 518 0
 1674 0a8c 9DF80F20 		ldrb	r2, [sp, #15]	@ zero_extendqisi2
 1675 0a90 9DF80330 		ldrb	r3, [sp, #3]
 1676 0a94 1343     		orrs	r3, r3, r2
 1677 0a96 DBB2     		uxtb	r3, r3
 1678 0a98 8DF80F30 		strb	r3, [sp, #15]
 1679              		.loc 1 519 0
 1680 0a9c 9DF80F20 		ldrb	r2, [sp, #15]	@ zero_extendqisi2
 1681 0aa0 9DF80230 		ldrb	r3, [sp, #2]
 1682 0aa4 1343     		orrs	r3, r3, r2
 1683 0aa6 DBB2     		uxtb	r3, r3
 1684 0aa8 8DF80F30 		strb	r3, [sp, #15]
 1685              		.loc 1 521 0
 1686 0aac 0DF10F03 		add	r3, sp, #15
 1687 0ab0 0198     		ldr	r0, [sp, #4]
 1688 0ab2 1021     		movs	r1, #16
 1689 0ab4 0122     		movs	r2, #1
 1690 0ab6 FFF7FEFF 		bl	HTS221_WriteReg
 1691 0aba 0346     		mov	r3, r0
 1692 0abc 002B     		cmp	r3, #0
ARM GAS  /tmp/ccJWCNBb.s 			page 31


 1693 0abe 01D0     		beq	.L109
 1694              		.loc 1 522 0
 1695 0ac0 0123     		movs	r3, #1
 1696 0ac2 00E0     		b	.L110
 1697              	.L109:
 1698              		.loc 1 524 0
 1699 0ac4 0023     		movs	r3, #0
 1700              	.L110:
 1701              		.loc 1 525 0
 1702 0ac6 1846     		mov	r0, r3
 1703 0ac8 05B0     		add	sp, sp, #20
 1704              		@ sp needed
 1705 0aca 5DF804FB 		ldr	pc, [sp], #4
 1706              	.L112:
 1707 0ace 00BF     		.align	2
 1708              	.L111:
 1709 0ad0 00000000 		.word	.LC0
 1710              		.cfi_endproc
 1711              	.LFE17:
 1712              		.size	HTS221_Set_AvgHT, .-HTS221_Set_AvgHT
 1713              		.align	2
 1714 0ad4 AFF30080 		.p2align 4,,15
 1714      AFF30080 
 1714      AFF30080 
 1715              		.global	HTS221_Set_AvgH
 1716              		.thumb
 1717              		.thumb_func
 1718              		.type	HTS221_Set_AvgH, %function
 1719              	HTS221_Set_AvgH:
 1720              	.LFB18:
 1721              		.loc 1 534 0
 1722              		.cfi_startproc
 1723              		@ args = 0, pretend = 0, frame = 16
 1724              		@ frame_needed = 0, uses_anonymous_args = 0
 1725 0ae0 00B5     		push	{lr}
 1726              		.cfi_def_cfa_offset 4
 1727              		.cfi_offset 14, -4
 1728 0ae2 85B0     		sub	sp, sp, #20
 1729              		.cfi_def_cfa_offset 24
 1730 0ae4 0190     		str	r0, [sp, #4]
 1731 0ae6 0B46     		mov	r3, r1
 1732 0ae8 8DF80330 		strb	r3, [sp, #3]
 1733              		.loc 1 537 0
 1734 0aec 9DF80330 		ldrb	r3, [sp, #3]	@ zero_extendqisi2
 1735 0af0 002B     		cmp	r3, #0
 1736 0af2 20D0     		beq	.L114
 1737              		.loc 1 537 0 is_stmt 0 discriminator 1
 1738 0af4 9DF80330 		ldrb	r3, [sp, #3]	@ zero_extendqisi2
 1739 0af8 012B     		cmp	r3, #1
 1740 0afa 1CD0     		beq	.L114
 1741 0afc 9DF80330 		ldrb	r3, [sp, #3]	@ zero_extendqisi2
 1742 0b00 022B     		cmp	r3, #2
 1743 0b02 18D0     		beq	.L114
 1744 0b04 9DF80330 		ldrb	r3, [sp, #3]	@ zero_extendqisi2
 1745 0b08 032B     		cmp	r3, #3
 1746 0b0a 14D0     		beq	.L114
 1747 0b0c 9DF80330 		ldrb	r3, [sp, #3]	@ zero_extendqisi2
ARM GAS  /tmp/ccJWCNBb.s 			page 32


 1748 0b10 042B     		cmp	r3, #4
 1749 0b12 10D0     		beq	.L114
 1750 0b14 9DF80330 		ldrb	r3, [sp, #3]	@ zero_extendqisi2
 1751 0b18 052B     		cmp	r3, #5
 1752 0b1a 0CD0     		beq	.L114
 1753 0b1c 9DF80330 		ldrb	r3, [sp, #3]	@ zero_extendqisi2
 1754 0b20 062B     		cmp	r3, #6
 1755 0b22 08D0     		beq	.L114
 1756 0b24 9DF80330 		ldrb	r3, [sp, #3]	@ zero_extendqisi2
 1757 0b28 072B     		cmp	r3, #7
 1758 0b2a 04D0     		beq	.L114
 1759 0b2c 1848     		ldr	r0, .L119
 1760 0b2e 40F21921 		movw	r1, #537
 1761 0b32 FFF7FEFF 		bl	HTS221_assert_failed
 1762              	.L114:
 1763              		.loc 1 539 0 is_stmt 1
 1764 0b36 0DF10F03 		add	r3, sp, #15
 1765 0b3a 0198     		ldr	r0, [sp, #4]
 1766 0b3c 1021     		movs	r1, #16
 1767 0b3e 0122     		movs	r2, #1
 1768 0b40 FFF7FEFF 		bl	HTS221_ReadReg
 1769 0b44 0346     		mov	r3, r0
 1770 0b46 002B     		cmp	r3, #0
 1771 0b48 01D0     		beq	.L115
 1772              		.loc 1 540 0
 1773 0b4a 0123     		movs	r3, #1
 1774 0b4c 1BE0     		b	.L118
 1775              	.L115:
 1776              		.loc 1 542 0
 1777 0b4e 9DF80F30 		ldrb	r3, [sp, #15]	@ zero_extendqisi2
 1778 0b52 23F00703 		bic	r3, r3, #7
 1779 0b56 DBB2     		uxtb	r3, r3
 1780 0b58 8DF80F30 		strb	r3, [sp, #15]
 1781              		.loc 1 543 0
 1782 0b5c 9DF80F20 		ldrb	r2, [sp, #15]	@ zero_extendqisi2
 1783 0b60 9DF80330 		ldrb	r3, [sp, #3]
 1784 0b64 1343     		orrs	r3, r3, r2
 1785 0b66 DBB2     		uxtb	r3, r3
 1786 0b68 8DF80F30 		strb	r3, [sp, #15]
 1787              		.loc 1 545 0
 1788 0b6c 0DF10F03 		add	r3, sp, #15
 1789 0b70 0198     		ldr	r0, [sp, #4]
 1790 0b72 1021     		movs	r1, #16
 1791 0b74 0122     		movs	r2, #1
 1792 0b76 FFF7FEFF 		bl	HTS221_WriteReg
 1793 0b7a 0346     		mov	r3, r0
 1794 0b7c 002B     		cmp	r3, #0
 1795 0b7e 01D0     		beq	.L117
 1796              		.loc 1 546 0
 1797 0b80 0123     		movs	r3, #1
 1798 0b82 00E0     		b	.L118
 1799              	.L117:
 1800              		.loc 1 548 0
 1801 0b84 0023     		movs	r3, #0
 1802              	.L118:
 1803              		.loc 1 549 0
 1804 0b86 1846     		mov	r0, r3
ARM GAS  /tmp/ccJWCNBb.s 			page 33


 1805 0b88 05B0     		add	sp, sp, #20
 1806              		@ sp needed
 1807 0b8a 5DF804FB 		ldr	pc, [sp], #4
 1808              	.L120:
 1809 0b8e 00BF     		.align	2
 1810              	.L119:
 1811 0b90 00000000 		.word	.LC0
 1812              		.cfi_endproc
 1813              	.LFE18:
 1814              		.size	HTS221_Set_AvgH, .-HTS221_Set_AvgH
 1815              		.align	2
 1816 0b94 AFF30080 		.p2align 4,,15
 1816      AFF30080 
 1816      AFF30080 
 1817              		.global	HTS221_Set_AvgT
 1818              		.thumb
 1819              		.thumb_func
 1820              		.type	HTS221_Set_AvgT, %function
 1821              	HTS221_Set_AvgT:
 1822              	.LFB19:
 1823              		.loc 1 558 0
 1824              		.cfi_startproc
 1825              		@ args = 0, pretend = 0, frame = 16
 1826              		@ frame_needed = 0, uses_anonymous_args = 0
 1827 0ba0 00B5     		push	{lr}
 1828              		.cfi_def_cfa_offset 4
 1829              		.cfi_offset 14, -4
 1830 0ba2 85B0     		sub	sp, sp, #20
 1831              		.cfi_def_cfa_offset 24
 1832 0ba4 0190     		str	r0, [sp, #4]
 1833 0ba6 0B46     		mov	r3, r1
 1834 0ba8 8DF80330 		strb	r3, [sp, #3]
 1835              		.loc 1 561 0
 1836 0bac 9DF80330 		ldrb	r3, [sp, #3]	@ zero_extendqisi2
 1837 0bb0 002B     		cmp	r3, #0
 1838 0bb2 20D0     		beq	.L122
 1839              		.loc 1 561 0 is_stmt 0 discriminator 1
 1840 0bb4 9DF80330 		ldrb	r3, [sp, #3]	@ zero_extendqisi2
 1841 0bb8 082B     		cmp	r3, #8
 1842 0bba 1CD0     		beq	.L122
 1843 0bbc 9DF80330 		ldrb	r3, [sp, #3]	@ zero_extendqisi2
 1844 0bc0 102B     		cmp	r3, #16
 1845 0bc2 18D0     		beq	.L122
 1846 0bc4 9DF80330 		ldrb	r3, [sp, #3]	@ zero_extendqisi2
 1847 0bc8 182B     		cmp	r3, #24
 1848 0bca 14D0     		beq	.L122
 1849 0bcc 9DF80330 		ldrb	r3, [sp, #3]	@ zero_extendqisi2
 1850 0bd0 202B     		cmp	r3, #32
 1851 0bd2 10D0     		beq	.L122
 1852 0bd4 9DF80330 		ldrb	r3, [sp, #3]	@ zero_extendqisi2
 1853 0bd8 282B     		cmp	r3, #40
 1854 0bda 0CD0     		beq	.L122
 1855 0bdc 9DF80330 		ldrb	r3, [sp, #3]	@ zero_extendqisi2
 1856 0be0 302B     		cmp	r3, #48
 1857 0be2 08D0     		beq	.L122
 1858 0be4 9DF80330 		ldrb	r3, [sp, #3]	@ zero_extendqisi2
 1859 0be8 382B     		cmp	r3, #56
ARM GAS  /tmp/ccJWCNBb.s 			page 34


 1860 0bea 04D0     		beq	.L122
 1861 0bec 1848     		ldr	r0, .L127
 1862 0bee 40F23121 		movw	r1, #561
 1863 0bf2 FFF7FEFF 		bl	HTS221_assert_failed
 1864              	.L122:
 1865              		.loc 1 563 0 is_stmt 1
 1866 0bf6 0DF10F03 		add	r3, sp, #15
 1867 0bfa 0198     		ldr	r0, [sp, #4]
 1868 0bfc 1021     		movs	r1, #16
 1869 0bfe 0122     		movs	r2, #1
 1870 0c00 FFF7FEFF 		bl	HTS221_ReadReg
 1871 0c04 0346     		mov	r3, r0
 1872 0c06 002B     		cmp	r3, #0
 1873 0c08 01D0     		beq	.L123
 1874              		.loc 1 564 0
 1875 0c0a 0123     		movs	r3, #1
 1876 0c0c 1BE0     		b	.L126
 1877              	.L123:
 1878              		.loc 1 566 0
 1879 0c0e 9DF80F30 		ldrb	r3, [sp, #15]	@ zero_extendqisi2
 1880 0c12 23F03803 		bic	r3, r3, #56
 1881 0c16 DBB2     		uxtb	r3, r3
 1882 0c18 8DF80F30 		strb	r3, [sp, #15]
 1883              		.loc 1 567 0
 1884 0c1c 9DF80F20 		ldrb	r2, [sp, #15]	@ zero_extendqisi2
 1885 0c20 9DF80330 		ldrb	r3, [sp, #3]
 1886 0c24 1343     		orrs	r3, r3, r2
 1887 0c26 DBB2     		uxtb	r3, r3
 1888 0c28 8DF80F30 		strb	r3, [sp, #15]
 1889              		.loc 1 569 0
 1890 0c2c 0DF10F03 		add	r3, sp, #15
 1891 0c30 0198     		ldr	r0, [sp, #4]
 1892 0c32 1021     		movs	r1, #16
 1893 0c34 0122     		movs	r2, #1
 1894 0c36 FFF7FEFF 		bl	HTS221_WriteReg
 1895 0c3a 0346     		mov	r3, r0
 1896 0c3c 002B     		cmp	r3, #0
 1897 0c3e 01D0     		beq	.L125
 1898              		.loc 1 570 0
 1899 0c40 0123     		movs	r3, #1
 1900 0c42 00E0     		b	.L126
 1901              	.L125:
 1902              		.loc 1 572 0
 1903 0c44 0023     		movs	r3, #0
 1904              	.L126:
 1905              		.loc 1 573 0
 1906 0c46 1846     		mov	r0, r3
 1907 0c48 05B0     		add	sp, sp, #20
 1908              		@ sp needed
 1909 0c4a 5DF804FB 		ldr	pc, [sp], #4
 1910              	.L128:
 1911 0c4e 00BF     		.align	2
 1912              	.L127:
 1913 0c50 00000000 		.word	.LC0
 1914              		.cfi_endproc
 1915              	.LFE19:
 1916              		.size	HTS221_Set_AvgT, .-HTS221_Set_AvgT
ARM GAS  /tmp/ccJWCNBb.s 			page 35


 1917              		.align	2
 1918 0c54 AFF30080 		.p2align 4,,15
 1918      AFF30080 
 1918      AFF30080 
 1919              		.global	HTS221_Get_AvgHT
 1920              		.thumb
 1921              		.thumb_func
 1922              		.type	HTS221_Get_AvgHT, %function
 1923              	HTS221_Get_AvgHT:
 1924              	.LFB20:
 1925              		.loc 1 583 0
 1926              		.cfi_startproc
 1927              		@ args = 0, pretend = 0, frame = 24
 1928              		@ frame_needed = 0, uses_anonymous_args = 0
 1929 0c60 00B5     		push	{lr}
 1930              		.cfi_def_cfa_offset 4
 1931              		.cfi_offset 14, -4
 1932 0c62 87B0     		sub	sp, sp, #28
 1933              		.cfi_def_cfa_offset 32
 1934 0c64 0390     		str	r0, [sp, #12]
 1935 0c66 0291     		str	r1, [sp, #8]
 1936 0c68 0192     		str	r2, [sp, #4]
 1937              		.loc 1 586 0
 1938 0c6a 0DF11703 		add	r3, sp, #23
 1939 0c6e 0398     		ldr	r0, [sp, #12]
 1940 0c70 1021     		movs	r1, #16
 1941 0c72 0122     		movs	r2, #1
 1942 0c74 FFF7FEFF 		bl	HTS221_ReadReg
 1943 0c78 0346     		mov	r3, r0
 1944 0c7a 002B     		cmp	r3, #0
 1945 0c7c 01D0     		beq	.L130
 1946              		.loc 1 587 0
 1947 0c7e 0123     		movs	r3, #1
 1948 0c80 0EE0     		b	.L132
 1949              	.L130:
 1950              		.loc 1 589 0
 1951 0c82 9DF81730 		ldrb	r3, [sp, #23]	@ zero_extendqisi2
 1952 0c86 03F00703 		and	r3, r3, #7
 1953 0c8a DAB2     		uxtb	r2, r3
 1954 0c8c 029B     		ldr	r3, [sp, #8]
 1955 0c8e 1A70     		strb	r2, [r3]
 1956              		.loc 1 590 0
 1957 0c90 9DF81730 		ldrb	r3, [sp, #23]	@ zero_extendqisi2
 1958 0c94 03F03803 		and	r3, r3, #56
 1959 0c98 DAB2     		uxtb	r2, r3
 1960 0c9a 019B     		ldr	r3, [sp, #4]
 1961 0c9c 1A70     		strb	r2, [r3]
 1962              		.loc 1 592 0
 1963 0c9e 0023     		movs	r3, #0
 1964              	.L132:
 1965              		.loc 1 593 0
 1966 0ca0 1846     		mov	r0, r3
 1967 0ca2 07B0     		add	sp, sp, #28
 1968              		@ sp needed
 1969 0ca4 5DF804FB 		ldr	pc, [sp], #4
 1970              		.cfi_endproc
 1971              	.LFE20:
ARM GAS  /tmp/ccJWCNBb.s 			page 36


 1972              		.size	HTS221_Get_AvgHT, .-HTS221_Get_AvgHT
 1973              		.align	2
 1974 0ca8 AFF30080 		.p2align 4,,15
 1974      AFF30080 
 1975              		.global	HTS221_Set_BduMode
 1976              		.thumb
 1977              		.thumb_func
 1978              		.type	HTS221_Set_BduMode, %function
 1979              	HTS221_Set_BduMode:
 1980              	.LFB21:
 1981              		.loc 1 604 0
 1982              		.cfi_startproc
 1983              		@ args = 0, pretend = 0, frame = 16
 1984              		@ frame_needed = 0, uses_anonymous_args = 0
 1985 0cb0 00B5     		push	{lr}
 1986              		.cfi_def_cfa_offset 4
 1987              		.cfi_offset 14, -4
 1988 0cb2 85B0     		sub	sp, sp, #20
 1989              		.cfi_def_cfa_offset 24
 1990 0cb4 0190     		str	r0, [sp, #4]
 1991 0cb6 0B46     		mov	r3, r1
 1992 0cb8 8DF80330 		strb	r3, [sp, #3]
 1993              		.loc 1 607 0
 1994 0cbc 9DF80330 		ldrb	r3, [sp, #3]	@ zero_extendqisi2
 1995 0cc0 012B     		cmp	r3, #1
 1996 0cc2 08D0     		beq	.L134
 1997              		.loc 1 607 0 is_stmt 0 discriminator 1
 1998 0cc4 9DF80330 		ldrb	r3, [sp, #3]	@ zero_extendqisi2
 1999 0cc8 002B     		cmp	r3, #0
 2000 0cca 04D0     		beq	.L134
 2001 0ccc 1A48     		ldr	r0, .L139
 2002 0cce 40F25F21 		movw	r1, #607
 2003 0cd2 FFF7FEFF 		bl	HTS221_assert_failed
 2004              	.L134:
 2005              		.loc 1 609 0 is_stmt 1
 2006 0cd6 0DF10F03 		add	r3, sp, #15
 2007 0cda 0198     		ldr	r0, [sp, #4]
 2008 0cdc 2021     		movs	r1, #32
 2009 0cde 0122     		movs	r2, #1
 2010 0ce0 FFF7FEFF 		bl	HTS221_ReadReg
 2011 0ce4 0346     		mov	r3, r0
 2012 0ce6 002B     		cmp	r3, #0
 2013 0ce8 01D0     		beq	.L135
 2014              		.loc 1 610 0
 2015 0cea 0123     		movs	r3, #1
 2016 0cec 1FE0     		b	.L138
 2017              	.L135:
 2018              		.loc 1 612 0
 2019 0cee 9DF80F30 		ldrb	r3, [sp, #15]	@ zero_extendqisi2
 2020 0cf2 23F00403 		bic	r3, r3, #4
 2021 0cf6 DBB2     		uxtb	r3, r3
 2022 0cf8 8DF80F30 		strb	r3, [sp, #15]
 2023              		.loc 1 613 0
 2024 0cfc 9DF80330 		ldrb	r3, [sp, #3]	@ zero_extendqisi2
 2025 0d00 9B00     		lsls	r3, r3, #2
 2026 0d02 DAB2     		uxtb	r2, r3
 2027 0d04 9DF80F30 		ldrb	r3, [sp, #15]	@ zero_extendqisi2
ARM GAS  /tmp/ccJWCNBb.s 			page 37


 2028 0d08 DBB2     		uxtb	r3, r3
 2029 0d0a 1343     		orrs	r3, r3, r2
 2030 0d0c DBB2     		uxtb	r3, r3
 2031 0d0e DBB2     		uxtb	r3, r3
 2032 0d10 8DF80F30 		strb	r3, [sp, #15]
 2033              		.loc 1 615 0
 2034 0d14 0DF10F03 		add	r3, sp, #15
 2035 0d18 0198     		ldr	r0, [sp, #4]
 2036 0d1a 2021     		movs	r1, #32
 2037 0d1c 0122     		movs	r2, #1
 2038 0d1e FFF7FEFF 		bl	HTS221_WriteReg
 2039 0d22 0346     		mov	r3, r0
 2040 0d24 002B     		cmp	r3, #0
 2041 0d26 01D0     		beq	.L137
 2042              		.loc 1 616 0
 2043 0d28 0123     		movs	r3, #1
 2044 0d2a 00E0     		b	.L138
 2045              	.L137:
 2046              		.loc 1 618 0
 2047 0d2c 0023     		movs	r3, #0
 2048              	.L138:
 2049              		.loc 1 619 0
 2050 0d2e 1846     		mov	r0, r3
 2051 0d30 05B0     		add	sp, sp, #20
 2052              		@ sp needed
 2053 0d32 5DF804FB 		ldr	pc, [sp], #4
 2054              	.L140:
 2055 0d36 00BF     		.align	2
 2056              	.L139:
 2057 0d38 00000000 		.word	.LC0
 2058              		.cfi_endproc
 2059              	.LFE21:
 2060              		.size	HTS221_Set_BduMode, .-HTS221_Set_BduMode
 2061              		.align	2
 2062 0d3c AFF30080 		.p2align 4,,15
 2063              		.global	HTS221_Get_BduMode
 2064              		.thumb
 2065              		.thumb_func
 2066              		.type	HTS221_Get_BduMode, %function
 2067              	HTS221_Get_BduMode:
 2068              	.LFB22:
 2069              		.loc 1 628 0
 2070              		.cfi_startproc
 2071              		@ args = 0, pretend = 0, frame = 16
 2072              		@ frame_needed = 0, uses_anonymous_args = 0
 2073 0d40 00B5     		push	{lr}
 2074              		.cfi_def_cfa_offset 4
 2075              		.cfi_offset 14, -4
 2076 0d42 85B0     		sub	sp, sp, #20
 2077              		.cfi_def_cfa_offset 24
 2078 0d44 0190     		str	r0, [sp, #4]
 2079 0d46 0091     		str	r1, [sp]
 2080              		.loc 1 631 0
 2081 0d48 0DF10F03 		add	r3, sp, #15
 2082 0d4c 0198     		ldr	r0, [sp, #4]
 2083 0d4e 2021     		movs	r1, #32
 2084 0d50 0122     		movs	r2, #1
ARM GAS  /tmp/ccJWCNBb.s 			page 38


 2085 0d52 FFF7FEFF 		bl	HTS221_ReadReg
 2086 0d56 0346     		mov	r3, r0
 2087 0d58 002B     		cmp	r3, #0
 2088 0d5a 01D0     		beq	.L142
 2089              		.loc 1 632 0
 2090 0d5c 0123     		movs	r3, #1
 2091 0d5e 08E0     		b	.L144
 2092              	.L142:
 2093              		.loc 1 634 0
 2094 0d60 9DF80F30 		ldrb	r3, [sp, #15]	@ zero_extendqisi2
 2095 0d64 03F00403 		and	r3, r3, #4
 2096 0d68 9B10     		asrs	r3, r3, #2
 2097 0d6a DAB2     		uxtb	r2, r3
 2098 0d6c 009B     		ldr	r3, [sp]
 2099 0d6e 1A70     		strb	r2, [r3]
 2100              		.loc 1 636 0
 2101 0d70 0023     		movs	r3, #0
 2102              	.L144:
 2103              		.loc 1 637 0
 2104 0d72 1846     		mov	r0, r3
 2105 0d74 05B0     		add	sp, sp, #20
 2106              		@ sp needed
 2107 0d76 5DF804FB 		ldr	pc, [sp], #4
 2108              		.cfi_endproc
 2109              	.LFE22:
 2110              		.size	HTS221_Get_BduMode, .-HTS221_Get_BduMode
 2111 0d7a 00BF     		.align	2
 2112 0d7c AFF30080 		.p2align 4,,15
 2113              		.global	HTS221_Set_PowerDownMode
 2114              		.thumb
 2115              		.thumb_func
 2116              		.type	HTS221_Set_PowerDownMode, %function
 2117              	HTS221_Set_PowerDownMode:
 2118              	.LFB23:
 2119              		.loc 1 648 0
 2120              		.cfi_startproc
 2121              		@ args = 0, pretend = 0, frame = 16
 2122              		@ frame_needed = 0, uses_anonymous_args = 0
 2123 0d80 00B5     		push	{lr}
 2124              		.cfi_def_cfa_offset 4
 2125              		.cfi_offset 14, -4
 2126 0d82 85B0     		sub	sp, sp, #20
 2127              		.cfi_def_cfa_offset 24
 2128 0d84 0190     		str	r0, [sp, #4]
 2129 0d86 0B46     		mov	r3, r1
 2130 0d88 8DF80330 		strb	r3, [sp, #3]
 2131              		.loc 1 651 0
 2132 0d8c 9DF80330 		ldrb	r3, [sp, #3]	@ zero_extendqisi2
 2133 0d90 002B     		cmp	r3, #0
 2134 0d92 08D0     		beq	.L146
 2135              		.loc 1 651 0 is_stmt 0 discriminator 1
 2136 0d94 9DF80330 		ldrb	r3, [sp, #3]	@ zero_extendqisi2
 2137 0d98 012B     		cmp	r3, #1
 2138 0d9a 04D0     		beq	.L146
 2139 0d9c 1A48     		ldr	r0, .L151
 2140 0d9e 40F28B21 		movw	r1, #651
 2141 0da2 FFF7FEFF 		bl	HTS221_assert_failed
ARM GAS  /tmp/ccJWCNBb.s 			page 39


 2142              	.L146:
 2143              		.loc 1 653 0 is_stmt 1
 2144 0da6 0DF10F03 		add	r3, sp, #15
 2145 0daa 0198     		ldr	r0, [sp, #4]
 2146 0dac 2021     		movs	r1, #32
 2147 0dae 0122     		movs	r2, #1
 2148 0db0 FFF7FEFF 		bl	HTS221_ReadReg
 2149 0db4 0346     		mov	r3, r0
 2150 0db6 002B     		cmp	r3, #0
 2151 0db8 01D0     		beq	.L147
 2152              		.loc 1 654 0
 2153 0dba 0123     		movs	r3, #1
 2154 0dbc 1FE0     		b	.L150
 2155              	.L147:
 2156              		.loc 1 656 0
 2157 0dbe 9DF80F30 		ldrb	r3, [sp, #15]	@ zero_extendqisi2
 2158 0dc2 03F07F03 		and	r3, r3, #127
 2159 0dc6 DBB2     		uxtb	r3, r3
 2160 0dc8 8DF80F30 		strb	r3, [sp, #15]
 2161              		.loc 1 657 0
 2162 0dcc 9DF80330 		ldrb	r3, [sp, #3]	@ zero_extendqisi2
 2163 0dd0 DB01     		lsls	r3, r3, #7
 2164 0dd2 DAB2     		uxtb	r2, r3
 2165 0dd4 9DF80F30 		ldrb	r3, [sp, #15]	@ zero_extendqisi2
 2166 0dd8 DBB2     		uxtb	r3, r3
 2167 0dda 1343     		orrs	r3, r3, r2
 2168 0ddc DBB2     		uxtb	r3, r3
 2169 0dde DBB2     		uxtb	r3, r3
 2170 0de0 8DF80F30 		strb	r3, [sp, #15]
 2171              		.loc 1 659 0
 2172 0de4 0DF10F03 		add	r3, sp, #15
 2173 0de8 0198     		ldr	r0, [sp, #4]
 2174 0dea 2021     		movs	r1, #32
 2175 0dec 0122     		movs	r2, #1
 2176 0dee FFF7FEFF 		bl	HTS221_WriteReg
 2177 0df2 0346     		mov	r3, r0
 2178 0df4 002B     		cmp	r3, #0
 2179 0df6 01D0     		beq	.L149
 2180              		.loc 1 660 0
 2181 0df8 0123     		movs	r3, #1
 2182 0dfa 00E0     		b	.L150
 2183              	.L149:
 2184              		.loc 1 662 0
 2185 0dfc 0023     		movs	r3, #0
 2186              	.L150:
 2187              		.loc 1 663 0
 2188 0dfe 1846     		mov	r0, r3
 2189 0e00 05B0     		add	sp, sp, #20
 2190              		@ sp needed
 2191 0e02 5DF804FB 		ldr	pc, [sp], #4
 2192              	.L152:
 2193 0e06 00BF     		.align	2
 2194              	.L151:
 2195 0e08 00000000 		.word	.LC0
 2196              		.cfi_endproc
 2197              	.LFE23:
 2198              		.size	HTS221_Set_PowerDownMode, .-HTS221_Set_PowerDownMode
ARM GAS  /tmp/ccJWCNBb.s 			page 40


 2199              		.align	2
 2200 0e0c AFF30080 		.p2align 4,,15
 2201              		.global	HTS221_Get_PowerDownMode
 2202              		.thumb
 2203              		.thumb_func
 2204              		.type	HTS221_Get_PowerDownMode, %function
 2205              	HTS221_Get_PowerDownMode:
 2206              	.LFB24:
 2207              		.loc 1 672 0
 2208              		.cfi_startproc
 2209              		@ args = 0, pretend = 0, frame = 16
 2210              		@ frame_needed = 0, uses_anonymous_args = 0
 2211 0e10 00B5     		push	{lr}
 2212              		.cfi_def_cfa_offset 4
 2213              		.cfi_offset 14, -4
 2214 0e12 85B0     		sub	sp, sp, #20
 2215              		.cfi_def_cfa_offset 24
 2216 0e14 0190     		str	r0, [sp, #4]
 2217 0e16 0091     		str	r1, [sp]
 2218              		.loc 1 675 0
 2219 0e18 0DF10F03 		add	r3, sp, #15
 2220 0e1c 0198     		ldr	r0, [sp, #4]
 2221 0e1e 2021     		movs	r1, #32
 2222 0e20 0122     		movs	r2, #1
 2223 0e22 FFF7FEFF 		bl	HTS221_ReadReg
 2224 0e26 0346     		mov	r3, r0
 2225 0e28 002B     		cmp	r3, #0
 2226 0e2a 01D0     		beq	.L154
 2227              		.loc 1 676 0
 2228 0e2c 0123     		movs	r3, #1
 2229 0e2e 06E0     		b	.L156
 2230              	.L154:
 2231              		.loc 1 678 0
 2232 0e30 9DF80F30 		ldrb	r3, [sp, #15]	@ zero_extendqisi2
 2233 0e34 DB09     		lsrs	r3, r3, #7
 2234 0e36 DAB2     		uxtb	r2, r3
 2235 0e38 009B     		ldr	r3, [sp]
 2236 0e3a 1A70     		strb	r2, [r3]
 2237              		.loc 1 680 0
 2238 0e3c 0023     		movs	r3, #0
 2239              	.L156:
 2240              		.loc 1 681 0
 2241 0e3e 1846     		mov	r0, r3
 2242 0e40 05B0     		add	sp, sp, #20
 2243              		@ sp needed
 2244 0e42 5DF804FB 		ldr	pc, [sp], #4
 2245              		.cfi_endproc
 2246              	.LFE24:
 2247              		.size	HTS221_Get_PowerDownMode, .-HTS221_Get_PowerDownMode
 2248 0e46 00BF     		.align	2
 2249 0e48 AFF30080 		.p2align 4,,15
 2249      AFF30080 
 2250              		.global	HTS221_Set_Odr
 2251              		.thumb
 2252              		.thumb_func
 2253              		.type	HTS221_Set_Odr, %function
 2254              	HTS221_Set_Odr:
ARM GAS  /tmp/ccJWCNBb.s 			page 41


 2255              	.LFB25:
 2256              		.loc 1 691 0
 2257              		.cfi_startproc
 2258              		@ args = 0, pretend = 0, frame = 16
 2259              		@ frame_needed = 0, uses_anonymous_args = 0
 2260 0e50 00B5     		push	{lr}
 2261              		.cfi_def_cfa_offset 4
 2262              		.cfi_offset 14, -4
 2263 0e52 85B0     		sub	sp, sp, #20
 2264              		.cfi_def_cfa_offset 24
 2265 0e54 0190     		str	r0, [sp, #4]
 2266 0e56 0B46     		mov	r3, r1
 2267 0e58 8DF80330 		strb	r3, [sp, #3]
 2268              		.loc 1 694 0
 2269 0e5c 9DF80330 		ldrb	r3, [sp, #3]	@ zero_extendqisi2
 2270 0e60 002B     		cmp	r3, #0
 2271 0e62 10D0     		beq	.L158
 2272              		.loc 1 694 0 is_stmt 0 discriminator 1
 2273 0e64 9DF80330 		ldrb	r3, [sp, #3]	@ zero_extendqisi2
 2274 0e68 012B     		cmp	r3, #1
 2275 0e6a 0CD0     		beq	.L158
 2276 0e6c 9DF80330 		ldrb	r3, [sp, #3]	@ zero_extendqisi2
 2277 0e70 022B     		cmp	r3, #2
 2278 0e72 08D0     		beq	.L158
 2279 0e74 9DF80330 		ldrb	r3, [sp, #3]	@ zero_extendqisi2
 2280 0e78 032B     		cmp	r3, #3
 2281 0e7a 04D0     		beq	.L158
 2282 0e7c 1848     		ldr	r0, .L163
 2283 0e7e 40F2B621 		movw	r1, #694
 2284 0e82 FFF7FEFF 		bl	HTS221_assert_failed
 2285              	.L158:
 2286              		.loc 1 696 0 is_stmt 1
 2287 0e86 0DF10F03 		add	r3, sp, #15
 2288 0e8a 0198     		ldr	r0, [sp, #4]
 2289 0e8c 2021     		movs	r1, #32
 2290 0e8e 0122     		movs	r2, #1
 2291 0e90 FFF7FEFF 		bl	HTS221_ReadReg
 2292 0e94 0346     		mov	r3, r0
 2293 0e96 002B     		cmp	r3, #0
 2294 0e98 01D0     		beq	.L159
 2295              		.loc 1 697 0
 2296 0e9a 0123     		movs	r3, #1
 2297 0e9c 1BE0     		b	.L162
 2298              	.L159:
 2299              		.loc 1 699 0
 2300 0e9e 9DF80F30 		ldrb	r3, [sp, #15]	@ zero_extendqisi2
 2301 0ea2 23F00303 		bic	r3, r3, #3
 2302 0ea6 DBB2     		uxtb	r3, r3
 2303 0ea8 8DF80F30 		strb	r3, [sp, #15]
 2304              		.loc 1 700 0
 2305 0eac 9DF80F20 		ldrb	r2, [sp, #15]	@ zero_extendqisi2
 2306 0eb0 9DF80330 		ldrb	r3, [sp, #3]
 2307 0eb4 1343     		orrs	r3, r3, r2
 2308 0eb6 DBB2     		uxtb	r3, r3
 2309 0eb8 8DF80F30 		strb	r3, [sp, #15]
 2310              		.loc 1 702 0
 2311 0ebc 0DF10F03 		add	r3, sp, #15
ARM GAS  /tmp/ccJWCNBb.s 			page 42


 2312 0ec0 0198     		ldr	r0, [sp, #4]
 2313 0ec2 2021     		movs	r1, #32
 2314 0ec4 0122     		movs	r2, #1
 2315 0ec6 FFF7FEFF 		bl	HTS221_WriteReg
 2316 0eca 0346     		mov	r3, r0
 2317 0ecc 002B     		cmp	r3, #0
 2318 0ece 01D0     		beq	.L161
 2319              		.loc 1 703 0
 2320 0ed0 0123     		movs	r3, #1
 2321 0ed2 00E0     		b	.L162
 2322              	.L161:
 2323              		.loc 1 705 0
 2324 0ed4 0023     		movs	r3, #0
 2325              	.L162:
 2326              		.loc 1 706 0
 2327 0ed6 1846     		mov	r0, r3
 2328 0ed8 05B0     		add	sp, sp, #20
 2329              		@ sp needed
 2330 0eda 5DF804FB 		ldr	pc, [sp], #4
 2331              	.L164:
 2332 0ede 00BF     		.align	2
 2333              	.L163:
 2334 0ee0 00000000 		.word	.LC0
 2335              		.cfi_endproc
 2336              	.LFE25:
 2337              		.size	HTS221_Set_Odr, .-HTS221_Set_Odr
 2338              		.align	2
 2339 0ee4 AFF30080 		.p2align 4,,15
 2339      AFF30080 
 2339      AFF30080 
 2340              		.global	HTS221_Get_Odr
 2341              		.thumb
 2342              		.thumb_func
 2343              		.type	HTS221_Get_Odr, %function
 2344              	HTS221_Get_Odr:
 2345              	.LFB26:
 2346              		.loc 1 715 0
 2347              		.cfi_startproc
 2348              		@ args = 0, pretend = 0, frame = 16
 2349              		@ frame_needed = 0, uses_anonymous_args = 0
 2350 0ef0 00B5     		push	{lr}
 2351              		.cfi_def_cfa_offset 4
 2352              		.cfi_offset 14, -4
 2353 0ef2 85B0     		sub	sp, sp, #20
 2354              		.cfi_def_cfa_offset 24
 2355 0ef4 0190     		str	r0, [sp, #4]
 2356 0ef6 0091     		str	r1, [sp]
 2357              		.loc 1 718 0
 2358 0ef8 0DF10F03 		add	r3, sp, #15
 2359 0efc 0198     		ldr	r0, [sp, #4]
 2360 0efe 2021     		movs	r1, #32
 2361 0f00 0122     		movs	r2, #1
 2362 0f02 FFF7FEFF 		bl	HTS221_ReadReg
 2363 0f06 0346     		mov	r3, r0
 2364 0f08 002B     		cmp	r3, #0
 2365 0f0a 01D0     		beq	.L166
 2366              		.loc 1 719 0
ARM GAS  /tmp/ccJWCNBb.s 			page 43


 2367 0f0c 0123     		movs	r3, #1
 2368 0f0e 0BE0     		b	.L168
 2369              	.L166:
 2370              		.loc 1 721 0
 2371 0f10 9DF80F30 		ldrb	r3, [sp, #15]	@ zero_extendqisi2
 2372 0f14 03F00303 		and	r3, r3, #3
 2373 0f18 DBB2     		uxtb	r3, r3
 2374 0f1a 8DF80F30 		strb	r3, [sp, #15]
 2375              		.loc 1 722 0
 2376 0f1e 9DF80F20 		ldrb	r2, [sp, #15]	@ zero_extendqisi2
 2377 0f22 009B     		ldr	r3, [sp]
 2378 0f24 1A70     		strb	r2, [r3]
 2379              		.loc 1 724 0
 2380 0f26 0023     		movs	r3, #0
 2381              	.L168:
 2382              		.loc 1 725 0
 2383 0f28 1846     		mov	r0, r3
 2384 0f2a 05B0     		add	sp, sp, #20
 2385              		@ sp needed
 2386 0f2c 5DF804FB 		ldr	pc, [sp], #4
 2387              		.cfi_endproc
 2388              	.LFE26:
 2389              		.size	HTS221_Get_Odr, .-HTS221_Get_Odr
 2390              		.align	2
 2391              		.p2align 4,,15
 2392              		.global	HTS221_MemoryBoot
 2393              		.thumb
 2394              		.thumb_func
 2395              		.type	HTS221_MemoryBoot, %function
 2396              	HTS221_MemoryBoot:
 2397              	.LFB27:
 2398              		.loc 1 733 0
 2399              		.cfi_startproc
 2400              		@ args = 0, pretend = 0, frame = 16
 2401              		@ frame_needed = 0, uses_anonymous_args = 0
 2402 0f30 00B5     		push	{lr}
 2403              		.cfi_def_cfa_offset 4
 2404              		.cfi_offset 14, -4
 2405 0f32 85B0     		sub	sp, sp, #20
 2406              		.cfi_def_cfa_offset 24
 2407 0f34 0190     		str	r0, [sp, #4]
 2408              		.loc 1 736 0
 2409 0f36 0DF10F03 		add	r3, sp, #15
 2410 0f3a 0198     		ldr	r0, [sp, #4]
 2411 0f3c 2121     		movs	r1, #33
 2412 0f3e 0122     		movs	r2, #1
 2413 0f40 FFF7FEFF 		bl	HTS221_ReadReg
 2414 0f44 0346     		mov	r3, r0
 2415 0f46 002B     		cmp	r3, #0
 2416 0f48 01D0     		beq	.L170
 2417              		.loc 1 737 0
 2418 0f4a 0123     		movs	r3, #1
 2419 0f4c 13E0     		b	.L173
 2420              	.L170:
 2421              		.loc 1 739 0
 2422 0f4e 9DF80F30 		ldrb	r3, [sp, #15]	@ zero_extendqisi2
 2423 0f52 63F07F03 		orn	r3, r3, #127
ARM GAS  /tmp/ccJWCNBb.s 			page 44


 2424 0f56 DBB2     		uxtb	r3, r3
 2425 0f58 8DF80F30 		strb	r3, [sp, #15]
 2426              		.loc 1 741 0
 2427 0f5c 0DF10F03 		add	r3, sp, #15
 2428 0f60 0198     		ldr	r0, [sp, #4]
 2429 0f62 2121     		movs	r1, #33
 2430 0f64 0122     		movs	r2, #1
 2431 0f66 FFF7FEFF 		bl	HTS221_WriteReg
 2432 0f6a 0346     		mov	r3, r0
 2433 0f6c 002B     		cmp	r3, #0
 2434 0f6e 01D0     		beq	.L172
 2435              		.loc 1 742 0
 2436 0f70 0123     		movs	r3, #1
 2437 0f72 00E0     		b	.L173
 2438              	.L172:
 2439              		.loc 1 744 0
 2440 0f74 0023     		movs	r3, #0
 2441              	.L173:
 2442              		.loc 1 745 0
 2443 0f76 1846     		mov	r0, r3
 2444 0f78 05B0     		add	sp, sp, #20
 2445              		@ sp needed
 2446 0f7a 5DF804FB 		ldr	pc, [sp], #4
 2447              		.cfi_endproc
 2448              	.LFE27:
 2449              		.size	HTS221_MemoryBoot, .-HTS221_MemoryBoot
 2450 0f7e 00BF     		.align	2
 2451              		.p2align 4,,15
 2452              		.global	HTS221_Set_HeaterState
 2453              		.thumb
 2454              		.thumb_func
 2455              		.type	HTS221_Set_HeaterState, %function
 2456              	HTS221_Set_HeaterState:
 2457              	.LFB28:
 2458              		.loc 1 755 0
 2459              		.cfi_startproc
 2460              		@ args = 0, pretend = 0, frame = 16
 2461              		@ frame_needed = 0, uses_anonymous_args = 0
 2462 0f80 00B5     		push	{lr}
 2463              		.cfi_def_cfa_offset 4
 2464              		.cfi_offset 14, -4
 2465 0f82 85B0     		sub	sp, sp, #20
 2466              		.cfi_def_cfa_offset 24
 2467 0f84 0190     		str	r0, [sp, #4]
 2468 0f86 0B46     		mov	r3, r1
 2469 0f88 8DF80330 		strb	r3, [sp, #3]
 2470              		.loc 1 758 0
 2471 0f8c 9DF80330 		ldrb	r3, [sp, #3]	@ zero_extendqisi2
 2472 0f90 012B     		cmp	r3, #1
 2473 0f92 08D0     		beq	.L175
 2474              		.loc 1 758 0 is_stmt 0 discriminator 1
 2475 0f94 9DF80330 		ldrb	r3, [sp, #3]	@ zero_extendqisi2
 2476 0f98 002B     		cmp	r3, #0
 2477 0f9a 04D0     		beq	.L175
 2478 0f9c 1A48     		ldr	r0, .L180
 2479 0f9e 40F2F621 		movw	r1, #758
 2480 0fa2 FFF7FEFF 		bl	HTS221_assert_failed
ARM GAS  /tmp/ccJWCNBb.s 			page 45


 2481              	.L175:
 2482              		.loc 1 760 0 is_stmt 1
 2483 0fa6 0DF10F03 		add	r3, sp, #15
 2484 0faa 0198     		ldr	r0, [sp, #4]
 2485 0fac 2121     		movs	r1, #33
 2486 0fae 0122     		movs	r2, #1
 2487 0fb0 FFF7FEFF 		bl	HTS221_ReadReg
 2488 0fb4 0346     		mov	r3, r0
 2489 0fb6 002B     		cmp	r3, #0
 2490 0fb8 01D0     		beq	.L176
 2491              		.loc 1 761 0
 2492 0fba 0123     		movs	r3, #1
 2493 0fbc 1FE0     		b	.L179
 2494              	.L176:
 2495              		.loc 1 763 0
 2496 0fbe 9DF80F30 		ldrb	r3, [sp, #15]	@ zero_extendqisi2
 2497 0fc2 23F00203 		bic	r3, r3, #2
 2498 0fc6 DBB2     		uxtb	r3, r3
 2499 0fc8 8DF80F30 		strb	r3, [sp, #15]
 2500              		.loc 1 764 0
 2501 0fcc 9DF80330 		ldrb	r3, [sp, #3]	@ zero_extendqisi2
 2502 0fd0 5B00     		lsls	r3, r3, #1
 2503 0fd2 DAB2     		uxtb	r2, r3
 2504 0fd4 9DF80F30 		ldrb	r3, [sp, #15]	@ zero_extendqisi2
 2505 0fd8 DBB2     		uxtb	r3, r3
 2506 0fda 1343     		orrs	r3, r3, r2
 2507 0fdc DBB2     		uxtb	r3, r3
 2508 0fde DBB2     		uxtb	r3, r3
 2509 0fe0 8DF80F30 		strb	r3, [sp, #15]
 2510              		.loc 1 766 0
 2511 0fe4 0DF10F03 		add	r3, sp, #15
 2512 0fe8 0198     		ldr	r0, [sp, #4]
 2513 0fea 2121     		movs	r1, #33
 2514 0fec 0122     		movs	r2, #1
 2515 0fee FFF7FEFF 		bl	HTS221_WriteReg
 2516 0ff2 0346     		mov	r3, r0
 2517 0ff4 002B     		cmp	r3, #0
 2518 0ff6 01D0     		beq	.L178
 2519              		.loc 1 767 0
 2520 0ff8 0123     		movs	r3, #1
 2521 0ffa 00E0     		b	.L179
 2522              	.L178:
 2523              		.loc 1 769 0
 2524 0ffc 0023     		movs	r3, #0
 2525              	.L179:
 2526              		.loc 1 770 0
 2527 0ffe 1846     		mov	r0, r3
 2528 1000 05B0     		add	sp, sp, #20
 2529              		@ sp needed
 2530 1002 5DF804FB 		ldr	pc, [sp], #4
 2531              	.L181:
 2532 1006 00BF     		.align	2
 2533              	.L180:
 2534 1008 00000000 		.word	.LC0
 2535              		.cfi_endproc
 2536              	.LFE28:
 2537              		.size	HTS221_Set_HeaterState, .-HTS221_Set_HeaterState
ARM GAS  /tmp/ccJWCNBb.s 			page 46


 2538              		.align	2
 2539 100c AFF30080 		.p2align 4,,15
 2540              		.global	HTS221_Get_HeaterState
 2541              		.thumb
 2542              		.thumb_func
 2543              		.type	HTS221_Get_HeaterState, %function
 2544              	HTS221_Get_HeaterState:
 2545              	.LFB29:
 2546              		.loc 1 779 0
 2547              		.cfi_startproc
 2548              		@ args = 0, pretend = 0, frame = 16
 2549              		@ frame_needed = 0, uses_anonymous_args = 0
 2550 1010 00B5     		push	{lr}
 2551              		.cfi_def_cfa_offset 4
 2552              		.cfi_offset 14, -4
 2553 1012 85B0     		sub	sp, sp, #20
 2554              		.cfi_def_cfa_offset 24
 2555 1014 0190     		str	r0, [sp, #4]
 2556 1016 0091     		str	r1, [sp]
 2557              		.loc 1 782 0
 2558 1018 0DF10F03 		add	r3, sp, #15
 2559 101c 0198     		ldr	r0, [sp, #4]
 2560 101e 2121     		movs	r1, #33
 2561 1020 0122     		movs	r2, #1
 2562 1022 FFF7FEFF 		bl	HTS221_ReadReg
 2563 1026 0346     		mov	r3, r0
 2564 1028 002B     		cmp	r3, #0
 2565 102a 01D0     		beq	.L183
 2566              		.loc 1 783 0
 2567 102c 0123     		movs	r3, #1
 2568 102e 08E0     		b	.L185
 2569              	.L183:
 2570              		.loc 1 785 0
 2571 1030 9DF80F30 		ldrb	r3, [sp, #15]	@ zero_extendqisi2
 2572 1034 03F00203 		and	r3, r3, #2
 2573 1038 5B10     		asrs	r3, r3, #1
 2574 103a DAB2     		uxtb	r2, r3
 2575 103c 009B     		ldr	r3, [sp]
 2576 103e 1A70     		strb	r2, [r3]
 2577              		.loc 1 787 0
 2578 1040 0023     		movs	r3, #0
 2579              	.L185:
 2580              		.loc 1 788 0
 2581 1042 1846     		mov	r0, r3
 2582 1044 05B0     		add	sp, sp, #20
 2583              		@ sp needed
 2584 1046 5DF804FB 		ldr	pc, [sp], #4
 2585              		.cfi_endproc
 2586              	.LFE29:
 2587              		.size	HTS221_Get_HeaterState, .-HTS221_Get_HeaterState
 2588 104a 00BF     		.align	2
 2589 104c AFF30080 		.p2align 4,,15
 2590              		.global	HTS221_StartOneShotMeasurement
 2591              		.thumb
 2592              		.thumb_func
 2593              		.type	HTS221_StartOneShotMeasurement, %function
 2594              	HTS221_StartOneShotMeasurement:
ARM GAS  /tmp/ccJWCNBb.s 			page 47


 2595              	.LFB30:
 2596              		.loc 1 797 0
 2597              		.cfi_startproc
 2598              		@ args = 0, pretend = 0, frame = 16
 2599              		@ frame_needed = 0, uses_anonymous_args = 0
 2600 1050 00B5     		push	{lr}
 2601              		.cfi_def_cfa_offset 4
 2602              		.cfi_offset 14, -4
 2603 1052 85B0     		sub	sp, sp, #20
 2604              		.cfi_def_cfa_offset 24
 2605 1054 0190     		str	r0, [sp, #4]
 2606              		.loc 1 800 0
 2607 1056 0DF10F03 		add	r3, sp, #15
 2608 105a 0198     		ldr	r0, [sp, #4]
 2609 105c 2121     		movs	r1, #33
 2610 105e 0122     		movs	r2, #1
 2611 1060 FFF7FEFF 		bl	HTS221_ReadReg
 2612 1064 0346     		mov	r3, r0
 2613 1066 002B     		cmp	r3, #0
 2614 1068 01D0     		beq	.L187
 2615              		.loc 1 801 0
 2616 106a 0123     		movs	r3, #1
 2617 106c 13E0     		b	.L190
 2618              	.L187:
 2619              		.loc 1 803 0
 2620 106e 9DF80F30 		ldrb	r3, [sp, #15]	@ zero_extendqisi2
 2621 1072 43F00103 		orr	r3, r3, #1
 2622 1076 DBB2     		uxtb	r3, r3
 2623 1078 8DF80F30 		strb	r3, [sp, #15]
 2624              		.loc 1 805 0
 2625 107c 0DF10F03 		add	r3, sp, #15
 2626 1080 0198     		ldr	r0, [sp, #4]
 2627 1082 2121     		movs	r1, #33
 2628 1084 0122     		movs	r2, #1
 2629 1086 FFF7FEFF 		bl	HTS221_WriteReg
 2630 108a 0346     		mov	r3, r0
 2631 108c 002B     		cmp	r3, #0
 2632 108e 01D0     		beq	.L189
 2633              		.loc 1 806 0
 2634 1090 0123     		movs	r3, #1
 2635 1092 00E0     		b	.L190
 2636              	.L189:
 2637              		.loc 1 808 0
 2638 1094 0023     		movs	r3, #0
 2639              	.L190:
 2640              		.loc 1 810 0
 2641 1096 1846     		mov	r0, r3
 2642 1098 05B0     		add	sp, sp, #20
 2643              		@ sp needed
 2644 109a 5DF804FB 		ldr	pc, [sp], #4
 2645              		.cfi_endproc
 2646              	.LFE30:
 2647              		.size	HTS221_StartOneShotMeasurement, .-HTS221_StartOneShotMeasurement
 2648 109e 00BF     		.align	2
 2649              		.p2align 4,,15
 2650              		.global	HTS221_Set_IrqActiveLevel
 2651              		.thumb
ARM GAS  /tmp/ccJWCNBb.s 			page 48


 2652              		.thumb_func
 2653              		.type	HTS221_Set_IrqActiveLevel, %function
 2654              	HTS221_Set_IrqActiveLevel:
 2655              	.LFB31:
 2656              		.loc 1 821 0
 2657              		.cfi_startproc
 2658              		@ args = 0, pretend = 0, frame = 16
 2659              		@ frame_needed = 0, uses_anonymous_args = 0
 2660 10a0 00B5     		push	{lr}
 2661              		.cfi_def_cfa_offset 4
 2662              		.cfi_offset 14, -4
 2663 10a2 85B0     		sub	sp, sp, #20
 2664              		.cfi_def_cfa_offset 24
 2665 10a4 0190     		str	r0, [sp, #4]
 2666 10a6 0B46     		mov	r3, r1
 2667 10a8 8DF80330 		strb	r3, [sp, #3]
 2668              		.loc 1 824 0
 2669 10ac 9DF80330 		ldrb	r3, [sp, #3]	@ zero_extendqisi2
 2670 10b0 002B     		cmp	r3, #0
 2671 10b2 08D0     		beq	.L192
 2672              		.loc 1 824 0 is_stmt 0 discriminator 1
 2673 10b4 9DF80330 		ldrb	r3, [sp, #3]	@ zero_extendqisi2
 2674 10b8 802B     		cmp	r3, #128
 2675 10ba 04D0     		beq	.L192
 2676 10bc 1848     		ldr	r0, .L197
 2677 10be 4FF44E71 		mov	r1, #824
 2678 10c2 FFF7FEFF 		bl	HTS221_assert_failed
 2679              	.L192:
 2680              		.loc 1 826 0 is_stmt 1
 2681 10c6 0DF10F03 		add	r3, sp, #15
 2682 10ca 0198     		ldr	r0, [sp, #4]
 2683 10cc 2221     		movs	r1, #34
 2684 10ce 0122     		movs	r2, #1
 2685 10d0 FFF7FEFF 		bl	HTS221_ReadReg
 2686 10d4 0346     		mov	r3, r0
 2687 10d6 002B     		cmp	r3, #0
 2688 10d8 01D0     		beq	.L193
 2689              		.loc 1 827 0
 2690 10da 0123     		movs	r3, #1
 2691 10dc 1BE0     		b	.L196
 2692              	.L193:
 2693              		.loc 1 829 0
 2694 10de 9DF80F30 		ldrb	r3, [sp, #15]	@ zero_extendqisi2
 2695 10e2 03F07F03 		and	r3, r3, #127
 2696 10e6 DBB2     		uxtb	r3, r3
 2697 10e8 8DF80F30 		strb	r3, [sp, #15]
 2698              		.loc 1 830 0
 2699 10ec 9DF80F20 		ldrb	r2, [sp, #15]	@ zero_extendqisi2
 2700 10f0 9DF80330 		ldrb	r3, [sp, #3]
 2701 10f4 1343     		orrs	r3, r3, r2
 2702 10f6 DBB2     		uxtb	r3, r3
 2703 10f8 8DF80F30 		strb	r3, [sp, #15]
 2704              		.loc 1 832 0
 2705 10fc 0DF10F03 		add	r3, sp, #15
 2706 1100 0198     		ldr	r0, [sp, #4]
 2707 1102 2221     		movs	r1, #34
 2708 1104 0122     		movs	r2, #1
ARM GAS  /tmp/ccJWCNBb.s 			page 49


 2709 1106 FFF7FEFF 		bl	HTS221_WriteReg
 2710 110a 0346     		mov	r3, r0
 2711 110c 002B     		cmp	r3, #0
 2712 110e 01D0     		beq	.L195
 2713              		.loc 1 833 0
 2714 1110 0123     		movs	r3, #1
 2715 1112 00E0     		b	.L196
 2716              	.L195:
 2717              		.loc 1 835 0
 2718 1114 0023     		movs	r3, #0
 2719              	.L196:
 2720              		.loc 1 836 0
 2721 1116 1846     		mov	r0, r3
 2722 1118 05B0     		add	sp, sp, #20
 2723              		@ sp needed
 2724 111a 5DF804FB 		ldr	pc, [sp], #4
 2725              	.L198:
 2726 111e 00BF     		.align	2
 2727              	.L197:
 2728 1120 00000000 		.word	.LC0
 2729              		.cfi_endproc
 2730              	.LFE31:
 2731              		.size	HTS221_Set_IrqActiveLevel, .-HTS221_Set_IrqActiveLevel
 2732              		.align	2
 2733 1124 AFF30080 		.p2align 4,,15
 2733      AFF30080 
 2733      AFF30080 
 2734              		.global	HTS221_Get_IrqActiveLevel
 2735              		.thumb
 2736              		.thumb_func
 2737              		.type	HTS221_Get_IrqActiveLevel, %function
 2738              	HTS221_Get_IrqActiveLevel:
 2739              	.LFB32:
 2740              		.loc 1 845 0
 2741              		.cfi_startproc
 2742              		@ args = 0, pretend = 0, frame = 16
 2743              		@ frame_needed = 0, uses_anonymous_args = 0
 2744 1130 00B5     		push	{lr}
 2745              		.cfi_def_cfa_offset 4
 2746              		.cfi_offset 14, -4
 2747 1132 85B0     		sub	sp, sp, #20
 2748              		.cfi_def_cfa_offset 24
 2749 1134 0190     		str	r0, [sp, #4]
 2750 1136 0091     		str	r1, [sp]
 2751              		.loc 1 848 0
 2752 1138 0DF10F03 		add	r3, sp, #15
 2753 113c 0198     		ldr	r0, [sp, #4]
 2754 113e 2221     		movs	r1, #34
 2755 1140 0122     		movs	r2, #1
 2756 1142 FFF7FEFF 		bl	HTS221_ReadReg
 2757 1146 0346     		mov	r3, r0
 2758 1148 002B     		cmp	r3, #0
 2759 114a 01D0     		beq	.L200
 2760              		.loc 1 849 0
 2761 114c 0123     		movs	r3, #1
 2762 114e 07E0     		b	.L202
 2763              	.L200:
ARM GAS  /tmp/ccJWCNBb.s 			page 50


 2764              		.loc 1 851 0
 2765 1150 9DF80F30 		ldrb	r3, [sp, #15]	@ zero_extendqisi2
 2766 1154 23F07F03 		bic	r3, r3, #127
 2767 1158 DAB2     		uxtb	r2, r3
 2768 115a 009B     		ldr	r3, [sp]
 2769 115c 1A70     		strb	r2, [r3]
 2770              		.loc 1 853 0
 2771 115e 0023     		movs	r3, #0
 2772              	.L202:
 2773              		.loc 1 854 0
 2774 1160 1846     		mov	r0, r3
 2775 1162 05B0     		add	sp, sp, #20
 2776              		@ sp needed
 2777 1164 5DF804FB 		ldr	pc, [sp], #4
 2778              		.cfi_endproc
 2779              	.LFE32:
 2780              		.size	HTS221_Get_IrqActiveLevel, .-HTS221_Get_IrqActiveLevel
 2781              		.align	2
 2782 1168 AFF30080 		.p2align 4,,15
 2782      AFF30080 
 2783              		.global	HTS221_Set_IrqOutputType
 2784              		.thumb
 2785              		.thumb_func
 2786              		.type	HTS221_Set_IrqOutputType, %function
 2787              	HTS221_Set_IrqOutputType:
 2788              	.LFB33:
 2789              		.loc 1 864 0
 2790              		.cfi_startproc
 2791              		@ args = 0, pretend = 0, frame = 16
 2792              		@ frame_needed = 0, uses_anonymous_args = 0
 2793 1170 00B5     		push	{lr}
 2794              		.cfi_def_cfa_offset 4
 2795              		.cfi_offset 14, -4
 2796 1172 85B0     		sub	sp, sp, #20
 2797              		.cfi_def_cfa_offset 24
 2798 1174 0190     		str	r0, [sp, #4]
 2799 1176 0B46     		mov	r3, r1
 2800 1178 8DF80330 		strb	r3, [sp, #3]
 2801              		.loc 1 867 0
 2802 117c 9DF80330 		ldrb	r3, [sp, #3]	@ zero_extendqisi2
 2803 1180 002B     		cmp	r3, #0
 2804 1182 08D0     		beq	.L204
 2805              		.loc 1 867 0 is_stmt 0 discriminator 1
 2806 1184 9DF80330 		ldrb	r3, [sp, #3]	@ zero_extendqisi2
 2807 1188 402B     		cmp	r3, #64
 2808 118a 04D0     		beq	.L204
 2809 118c 1848     		ldr	r0, .L209
 2810 118e 40F26331 		movw	r1, #867
 2811 1192 FFF7FEFF 		bl	HTS221_assert_failed
 2812              	.L204:
 2813              		.loc 1 869 0 is_stmt 1
 2814 1196 0DF10F03 		add	r3, sp, #15
 2815 119a 0198     		ldr	r0, [sp, #4]
 2816 119c 2221     		movs	r1, #34
 2817 119e 0122     		movs	r2, #1
 2818 11a0 FFF7FEFF 		bl	HTS221_ReadReg
 2819 11a4 0346     		mov	r3, r0
ARM GAS  /tmp/ccJWCNBb.s 			page 51


 2820 11a6 002B     		cmp	r3, #0
 2821 11a8 01D0     		beq	.L205
 2822              		.loc 1 870 0
 2823 11aa 0123     		movs	r3, #1
 2824 11ac 1BE0     		b	.L208
 2825              	.L205:
 2826              		.loc 1 872 0
 2827 11ae 9DF80F30 		ldrb	r3, [sp, #15]	@ zero_extendqisi2
 2828 11b2 23F04003 		bic	r3, r3, #64
 2829 11b6 DBB2     		uxtb	r3, r3
 2830 11b8 8DF80F30 		strb	r3, [sp, #15]
 2831              		.loc 1 873 0
 2832 11bc 9DF80F20 		ldrb	r2, [sp, #15]	@ zero_extendqisi2
 2833 11c0 9DF80330 		ldrb	r3, [sp, #3]
 2834 11c4 1343     		orrs	r3, r3, r2
 2835 11c6 DBB2     		uxtb	r3, r3
 2836 11c8 8DF80F30 		strb	r3, [sp, #15]
 2837              		.loc 1 875 0
 2838 11cc 0DF10F03 		add	r3, sp, #15
 2839 11d0 0198     		ldr	r0, [sp, #4]
 2840 11d2 2221     		movs	r1, #34
 2841 11d4 0122     		movs	r2, #1
 2842 11d6 FFF7FEFF 		bl	HTS221_WriteReg
 2843 11da 0346     		mov	r3, r0
 2844 11dc 002B     		cmp	r3, #0
 2845 11de 01D0     		beq	.L207
 2846              		.loc 1 876 0
 2847 11e0 0123     		movs	r3, #1
 2848 11e2 00E0     		b	.L208
 2849              	.L207:
 2850              		.loc 1 878 0
 2851 11e4 0023     		movs	r3, #0
 2852              	.L208:
 2853              		.loc 1 879 0
 2854 11e6 1846     		mov	r0, r3
 2855 11e8 05B0     		add	sp, sp, #20
 2856              		@ sp needed
 2857 11ea 5DF804FB 		ldr	pc, [sp], #4
 2858              	.L210:
 2859 11ee 00BF     		.align	2
 2860              	.L209:
 2861 11f0 00000000 		.word	.LC0
 2862              		.cfi_endproc
 2863              	.LFE33:
 2864              		.size	HTS221_Set_IrqOutputType, .-HTS221_Set_IrqOutputType
 2865              		.align	2
 2866 11f4 AFF30080 		.p2align 4,,15
 2866      AFF30080 
 2866      AFF30080 
 2867              		.global	HTS221_Get_IrqOutputType
 2868              		.thumb
 2869              		.thumb_func
 2870              		.type	HTS221_Get_IrqOutputType, %function
 2871              	HTS221_Get_IrqOutputType:
 2872              	.LFB34:
 2873              		.loc 1 888 0
 2874              		.cfi_startproc
ARM GAS  /tmp/ccJWCNBb.s 			page 52


 2875              		@ args = 0, pretend = 0, frame = 16
 2876              		@ frame_needed = 0, uses_anonymous_args = 0
 2877 1200 00B5     		push	{lr}
 2878              		.cfi_def_cfa_offset 4
 2879              		.cfi_offset 14, -4
 2880 1202 85B0     		sub	sp, sp, #20
 2881              		.cfi_def_cfa_offset 24
 2882 1204 0190     		str	r0, [sp, #4]
 2883 1206 0091     		str	r1, [sp]
 2884              		.loc 1 891 0
 2885 1208 0DF10F03 		add	r3, sp, #15
 2886 120c 0198     		ldr	r0, [sp, #4]
 2887 120e 2221     		movs	r1, #34
 2888 1210 0122     		movs	r2, #1
 2889 1212 FFF7FEFF 		bl	HTS221_ReadReg
 2890 1216 0346     		mov	r3, r0
 2891 1218 002B     		cmp	r3, #0
 2892 121a 01D0     		beq	.L212
 2893              		.loc 1 892 0
 2894 121c 0123     		movs	r3, #1
 2895 121e 07E0     		b	.L214
 2896              	.L212:
 2897              		.loc 1 894 0
 2898 1220 9DF80F30 		ldrb	r3, [sp, #15]	@ zero_extendqisi2
 2899 1224 03F04003 		and	r3, r3, #64
 2900 1228 DAB2     		uxtb	r2, r3
 2901 122a 009B     		ldr	r3, [sp]
 2902 122c 1A70     		strb	r2, [r3]
 2903              		.loc 1 896 0
 2904 122e 0023     		movs	r3, #0
 2905              	.L214:
 2906              		.loc 1 897 0
 2907 1230 1846     		mov	r0, r3
 2908 1232 05B0     		add	sp, sp, #20
 2909              		@ sp needed
 2910 1234 5DF804FB 		ldr	pc, [sp], #4
 2911              		.cfi_endproc
 2912              	.LFE34:
 2913              		.size	HTS221_Get_IrqOutputType, .-HTS221_Get_IrqOutputType
 2914              		.align	2
 2915 1238 AFF30080 		.p2align 4,,15
 2915      AFF30080 
 2916              		.global	HTS221_Set_IrqEnable
 2917              		.thumb
 2918              		.thumb_func
 2919              		.type	HTS221_Set_IrqEnable, %function
 2920              	HTS221_Set_IrqEnable:
 2921              	.LFB35:
 2922              		.loc 1 907 0
 2923              		.cfi_startproc
 2924              		@ args = 0, pretend = 0, frame = 16
 2925              		@ frame_needed = 0, uses_anonymous_args = 0
 2926 1240 00B5     		push	{lr}
 2927              		.cfi_def_cfa_offset 4
 2928              		.cfi_offset 14, -4
 2929 1242 85B0     		sub	sp, sp, #20
 2930              		.cfi_def_cfa_offset 24
ARM GAS  /tmp/ccJWCNBb.s 			page 53


 2931 1244 0190     		str	r0, [sp, #4]
 2932 1246 0B46     		mov	r3, r1
 2933 1248 8DF80330 		strb	r3, [sp, #3]
 2934              		.loc 1 910 0
 2935 124c 9DF80330 		ldrb	r3, [sp, #3]	@ zero_extendqisi2
 2936 1250 012B     		cmp	r3, #1
 2937 1252 08D0     		beq	.L216
 2938              		.loc 1 910 0 is_stmt 0 discriminator 1
 2939 1254 9DF80330 		ldrb	r3, [sp, #3]	@ zero_extendqisi2
 2940 1258 002B     		cmp	r3, #0
 2941 125a 04D0     		beq	.L216
 2942 125c 1A48     		ldr	r0, .L221
 2943 125e 40F28E31 		movw	r1, #910
 2944 1262 FFF7FEFF 		bl	HTS221_assert_failed
 2945              	.L216:
 2946              		.loc 1 912 0 is_stmt 1
 2947 1266 0DF10F03 		add	r3, sp, #15
 2948 126a 0198     		ldr	r0, [sp, #4]
 2949 126c 2221     		movs	r1, #34
 2950 126e 0122     		movs	r2, #1
 2951 1270 FFF7FEFF 		bl	HTS221_ReadReg
 2952 1274 0346     		mov	r3, r0
 2953 1276 002B     		cmp	r3, #0
 2954 1278 01D0     		beq	.L217
 2955              		.loc 1 913 0
 2956 127a 0123     		movs	r3, #1
 2957 127c 1FE0     		b	.L220
 2958              	.L217:
 2959              		.loc 1 915 0
 2960 127e 9DF80F30 		ldrb	r3, [sp, #15]	@ zero_extendqisi2
 2961 1282 23F00403 		bic	r3, r3, #4
 2962 1286 DBB2     		uxtb	r3, r3
 2963 1288 8DF80F30 		strb	r3, [sp, #15]
 2964              		.loc 1 916 0
 2965 128c 9DF80330 		ldrb	r3, [sp, #3]	@ zero_extendqisi2
 2966 1290 9B00     		lsls	r3, r3, #2
 2967 1292 DAB2     		uxtb	r2, r3
 2968 1294 9DF80F30 		ldrb	r3, [sp, #15]	@ zero_extendqisi2
 2969 1298 DBB2     		uxtb	r3, r3
 2970 129a 1343     		orrs	r3, r3, r2
 2971 129c DBB2     		uxtb	r3, r3
 2972 129e DBB2     		uxtb	r3, r3
 2973 12a0 8DF80F30 		strb	r3, [sp, #15]
 2974              		.loc 1 918 0
 2975 12a4 0DF10F03 		add	r3, sp, #15
 2976 12a8 0198     		ldr	r0, [sp, #4]
 2977 12aa 2221     		movs	r1, #34
 2978 12ac 0122     		movs	r2, #1
 2979 12ae FFF7FEFF 		bl	HTS221_WriteReg
 2980 12b2 0346     		mov	r3, r0
 2981 12b4 002B     		cmp	r3, #0
 2982 12b6 01D0     		beq	.L219
 2983              		.loc 1 919 0
 2984 12b8 0123     		movs	r3, #1
 2985 12ba 00E0     		b	.L220
 2986              	.L219:
 2987              		.loc 1 921 0
ARM GAS  /tmp/ccJWCNBb.s 			page 54


 2988 12bc 0023     		movs	r3, #0
 2989              	.L220:
 2990              		.loc 1 922 0
 2991 12be 1846     		mov	r0, r3
 2992 12c0 05B0     		add	sp, sp, #20
 2993              		@ sp needed
 2994 12c2 5DF804FB 		ldr	pc, [sp], #4
 2995              	.L222:
 2996 12c6 00BF     		.align	2
 2997              	.L221:
 2998 12c8 00000000 		.word	.LC0
 2999              		.cfi_endproc
 3000              	.LFE35:
 3001              		.size	HTS221_Set_IrqEnable, .-HTS221_Set_IrqEnable
 3002              		.align	2
 3003 12cc AFF30080 		.p2align 4,,15
 3004              		.global	HTS221_Get_IrqEnable
 3005              		.thumb
 3006              		.thumb_func
 3007              		.type	HTS221_Get_IrqEnable, %function
 3008              	HTS221_Get_IrqEnable:
 3009              	.LFB36:
 3010              		.loc 1 931 0
 3011              		.cfi_startproc
 3012              		@ args = 0, pretend = 0, frame = 16
 3013              		@ frame_needed = 0, uses_anonymous_args = 0
 3014 12d0 00B5     		push	{lr}
 3015              		.cfi_def_cfa_offset 4
 3016              		.cfi_offset 14, -4
 3017 12d2 85B0     		sub	sp, sp, #20
 3018              		.cfi_def_cfa_offset 24
 3019 12d4 0190     		str	r0, [sp, #4]
 3020 12d6 0091     		str	r1, [sp]
 3021              		.loc 1 934 0
 3022 12d8 0DF10F03 		add	r3, sp, #15
 3023 12dc 0198     		ldr	r0, [sp, #4]
 3024 12de 2221     		movs	r1, #34
 3025 12e0 0122     		movs	r2, #1
 3026 12e2 FFF7FEFF 		bl	HTS221_ReadReg
 3027 12e6 0346     		mov	r3, r0
 3028 12e8 002B     		cmp	r3, #0
 3029 12ea 01D0     		beq	.L224
 3030              		.loc 1 935 0
 3031 12ec 0123     		movs	r3, #1
 3032 12ee 08E0     		b	.L226
 3033              	.L224:
 3034              		.loc 1 937 0
 3035 12f0 9DF80F30 		ldrb	r3, [sp, #15]	@ zero_extendqisi2
 3036 12f4 03F00403 		and	r3, r3, #4
 3037 12f8 9B10     		asrs	r3, r3, #2
 3038 12fa DAB2     		uxtb	r2, r3
 3039 12fc 009B     		ldr	r3, [sp]
 3040 12fe 1A70     		strb	r2, [r3]
 3041              		.loc 1 939 0
 3042 1300 0023     		movs	r3, #0
 3043              	.L226:
 3044              		.loc 1 940 0
ARM GAS  /tmp/ccJWCNBb.s 			page 55


 3045 1302 1846     		mov	r0, r3
 3046 1304 05B0     		add	sp, sp, #20
 3047              		@ sp needed
 3048 1306 5DF804FB 		ldr	pc, [sp], #4
 3049              		.cfi_endproc
 3050              	.LFE36:
 3051              		.size	HTS221_Get_IrqEnable, .-HTS221_Get_IrqEnable
 3052              		.section	.rodata
 3053 003d 000000   		.align	2
 3054              	.LC1:
 3055 0040 57726F6E 		.ascii	"Wrong parameters value: file %s on line %d\015\012\000"
 3055      67207061 
 3055      72616D65 
 3055      74657273 
 3055      2076616C 
 3056 006d 000000   		.text
 3057 130a 00BF     		.align	2
 3058 130c AFF30080 		.p2align 4,,15
 3059              		.global	HTS221_assert_failed
 3060              		.thumb
 3061              		.thumb_func
 3062              		.type	HTS221_assert_failed, %function
 3063              	HTS221_assert_failed:
 3064              	.LFB37:
 3065              		.loc 1 952 0
 3066              		.cfi_startproc
 3067              		@ args = 0, pretend = 0, frame = 8
 3068              		@ frame_needed = 0, uses_anonymous_args = 0
 3069 1310 00B5     		push	{lr}
 3070              		.cfi_def_cfa_offset 4
 3071              		.cfi_offset 14, -4
 3072 1312 83B0     		sub	sp, sp, #12
 3073              		.cfi_def_cfa_offset 16
 3074 1314 0190     		str	r0, [sp, #4]
 3075 1316 0091     		str	r1, [sp]
 3076              		.loc 1 954 0
 3077 1318 009B     		ldr	r3, [sp]
 3078 131a 0348     		ldr	r0, .L229
 3079 131c 0199     		ldr	r1, [sp, #4]
 3080 131e 1A46     		mov	r2, r3
 3081 1320 FFF7FEFF 		bl	printf
 3082              	.L228:
 3083              		.loc 1 959 0 discriminator 1
 3084 1324 FEE7     		b	.L228
 3085              	.L230:
 3086 1326 00BF     		.align	2
 3087              	.L229:
 3088 1328 40000000 		.word	.LC1
 3089              		.cfi_endproc
 3090              	.LFE37:
 3091              		.size	HTS221_assert_failed, .-HTS221_assert_failed
 3092              	.Letext0:
 3093              		.file 2 "/nfs/nfs5/home/research/hardware/arm2/gcc-arm-embedded/gcc-arm-none-eabi-4_8-2014q2/arm-n
 3094              		.file 3 "/nfs/nfs5/home/research/hardware/arm2/gcc-arm-embedded/gcc-arm-none-eabi-4_8-2014q2/arm-n
 3095              		.file 4 "../../../../../Drivers/BSP/Components/hts221/HTS221_Driver.h"
 3096 132c AFF30080 		.section	.debug_info,"",%progbits
 3097              	.Ldebug_info0:
ARM GAS  /tmp/ccJWCNBb.s 			page 56


 3098 0000 930E0000 		.4byte	0xe93
 3099 0004 0400     		.2byte	0x4
 3100 0006 00000000 		.4byte	.Ldebug_abbrev0
 3101 000a 04       		.byte	0x4
 3102 000b 01       		.uleb128 0x1
 3103 000c 42000000 		.4byte	.LASF138
 3104 0010 01       		.byte	0x1
 3105 0011 25040000 		.4byte	.LASF139
 3106 0015 F7020000 		.4byte	.LASF140
 3107 0019 00000000 		.4byte	.Ltext0
 3108 001d 2C130000 		.4byte	.Letext0-.Ltext0
 3109 0021 00000000 		.4byte	.Ldebug_line0
 3110 0025 02       		.uleb128 0x2
 3111 0026 01       		.byte	0x1
 3112 0027 06       		.byte	0x6
 3113 0028 D9010000 		.4byte	.LASF0
 3114 002c 03       		.uleb128 0x3
 3115 002d 28010000 		.4byte	.LASF2
 3116 0031 02       		.byte	0x2
 3117 0032 1C       		.byte	0x1c
 3118 0033 37000000 		.4byte	0x37
 3119 0037 02       		.uleb128 0x2
 3120 0038 01       		.byte	0x1
 3121 0039 08       		.byte	0x8
 3122 003a 09070000 		.4byte	.LASF1
 3123 003e 03       		.uleb128 0x3
 3124 003f A2030000 		.4byte	.LASF3
 3125 0043 02       		.byte	0x2
 3126 0044 25       		.byte	0x25
 3127 0045 49000000 		.4byte	0x49
 3128 0049 02       		.uleb128 0x2
 3129 004a 02       		.byte	0x2
 3130 004b 05       		.byte	0x5
 3131 004c 20070000 		.4byte	.LASF4
 3132 0050 03       		.uleb128 0x3
 3133 0051 E6070000 		.4byte	.LASF5
 3134 0055 02       		.byte	0x2
 3135 0056 26       		.byte	0x26
 3136 0057 5B000000 		.4byte	0x5b
 3137 005b 02       		.uleb128 0x2
 3138 005c 02       		.byte	0x2
 3139 005d 07       		.byte	0x7
 3140 005e 8B040000 		.4byte	.LASF6
 3141 0062 02       		.uleb128 0x2
 3142 0063 04       		.byte	0x4
 3143 0064 05       		.byte	0x5
 3144 0065 20020000 		.4byte	.LASF7
 3145 0069 03       		.uleb128 0x3
 3146 006a D8020000 		.4byte	.LASF8
 3147 006e 02       		.byte	0x2
 3148 006f 38       		.byte	0x38
 3149 0070 74000000 		.4byte	0x74
 3150 0074 02       		.uleb128 0x2
 3151 0075 04       		.byte	0x4
 3152 0076 07       		.byte	0x7
 3153 0077 13040000 		.4byte	.LASF9
 3154 007b 02       		.uleb128 0x2
ARM GAS  /tmp/ccJWCNBb.s 			page 57


 3155 007c 08       		.byte	0x8
 3156 007d 05       		.byte	0x5
 3157 007e CB010000 		.4byte	.LASF10
 3158 0082 02       		.uleb128 0x2
 3159 0083 08       		.byte	0x8
 3160 0084 07       		.byte	0x7
 3161 0085 5F010000 		.4byte	.LASF11
 3162 0089 04       		.uleb128 0x4
 3163 008a 04       		.byte	0x4
 3164 008b 05       		.byte	0x5
 3165 008c 696E7400 		.ascii	"int\000"
 3166 0090 02       		.uleb128 0x2
 3167 0091 04       		.byte	0x4
 3168 0092 07       		.byte	0x7
 3169 0093 E1030000 		.4byte	.LASF12
 3170 0097 03       		.uleb128 0x3
 3171 0098 E7080000 		.4byte	.LASF13
 3172 009c 03       		.byte	0x3
 3173 009d 2A       		.byte	0x2a
 3174 009e 2C000000 		.4byte	0x2c
 3175 00a2 03       		.uleb128 0x3
 3176 00a3 C3010000 		.4byte	.LASF14
 3177 00a7 03       		.byte	0x3
 3178 00a8 35       		.byte	0x35
 3179 00a9 3E000000 		.4byte	0x3e
 3180 00ad 03       		.uleb128 0x3
 3181 00ae 6A020000 		.4byte	.LASF15
 3182 00b2 03       		.byte	0x3
 3183 00b3 36       		.byte	0x36
 3184 00b4 50000000 		.4byte	0x50
 3185 00b8 03       		.uleb128 0x3
 3186 00b9 AC070000 		.4byte	.LASF16
 3187 00bd 03       		.byte	0x3
 3188 00be 42       		.byte	0x42
 3189 00bf 69000000 		.4byte	0x69
 3190 00c3 05       		.uleb128 0x5
 3191 00c4 01       		.byte	0x1
 3192 00c5 04       		.byte	0x4
 3193 00c6 55       		.byte	0x55
 3194 00c7 D8000000 		.4byte	0xd8
 3195 00cb 06       		.uleb128 0x6
 3196 00cc 4D080000 		.4byte	.LASF17
 3197 00d0 00       		.sleb128 0
 3198 00d1 06       		.uleb128 0x6
 3199 00d2 B8040000 		.4byte	.LASF18
 3200 00d6 01       		.sleb128 1
 3201 00d7 00       		.byte	0
 3202 00d8 03       		.uleb128 0x3
 3203 00d9 AD020000 		.4byte	.LASF19
 3204 00dd 04       		.byte	0x4
 3205 00de 55       		.byte	0x55
 3206 00df C3000000 		.4byte	0xc3
 3207 00e3 05       		.uleb128 0x5
 3208 00e4 01       		.byte	0x1
 3209 00e5 04       		.byte	0x4
 3210 00e6 5A       		.byte	0x5a
 3211 00e7 F8000000 		.4byte	0xf8
ARM GAS  /tmp/ccJWCNBb.s 			page 58


 3212 00eb 06       		.uleb128 0x6
 3213 00ec 0A000000 		.4byte	.LASF20
 3214 00f0 00       		.sleb128 0
 3215 00f1 06       		.uleb128 0x6
 3216 00f2 86080000 		.4byte	.LASF21
 3217 00f6 01       		.sleb128 1
 3218 00f7 00       		.byte	0
 3219 00f8 03       		.uleb128 0x3
 3220 00f9 F4030000 		.4byte	.LASF22
 3221 00fd 04       		.byte	0x4
 3222 00fe 5A       		.byte	0x5a
 3223 00ff E3000000 		.4byte	0xe3
 3224 0103 05       		.uleb128 0x5
 3225 0104 01       		.byte	0x1
 3226 0105 04       		.byte	0x4
 3227 0106 60       		.byte	0x60
 3228 0107 18010000 		.4byte	0x118
 3229 010b 06       		.uleb128 0x6
 3230 010c A6050000 		.4byte	.LASF23
 3231 0110 00       		.sleb128 0
 3232 0111 06       		.uleb128 0x6
 3233 0112 81020000 		.4byte	.LASF24
 3234 0116 01       		.sleb128 1
 3235 0117 00       		.byte	0
 3236 0118 03       		.uleb128 0x3
 3237 0119 39060000 		.4byte	.LASF25
 3238 011d 04       		.byte	0x4
 3239 011e 60       		.byte	0x60
 3240 011f 03010000 		.4byte	0x103
 3241 0123 05       		.uleb128 0x5
 3242 0124 01       		.byte	0x1
 3243 0125 04       		.byte	0x4
 3244 0126 67       		.byte	0x67
 3245 0127 5C010000 		.4byte	0x15c
 3246 012b 06       		.uleb128 0x6
 3247 012c 0B080000 		.4byte	.LASF26
 3248 0130 00       		.sleb128 0
 3249 0131 06       		.uleb128 0x6
 3250 0132 19080000 		.4byte	.LASF27
 3251 0136 01       		.sleb128 1
 3252 0137 06       		.uleb128 0x6
 3253 0138 B4010000 		.4byte	.LASF28
 3254 013c 02       		.sleb128 2
 3255 013d 06       		.uleb128 0x6
 3256 013e 62040000 		.4byte	.LASF29
 3257 0142 03       		.sleb128 3
 3258 0143 06       		.uleb128 0x6
 3259 0144 F1070000 		.4byte	.LASF30
 3260 0148 04       		.sleb128 4
 3261 0149 06       		.uleb128 0x6
 3262 014a 19000000 		.4byte	.LASF31
 3263 014e 05       		.sleb128 5
 3264 014f 06       		.uleb128 0x6
 3265 0150 D1030000 		.4byte	.LASF32
 3266 0154 06       		.sleb128 6
 3267 0155 06       		.uleb128 0x6
 3268 0156 E5010000 		.4byte	.LASF33
ARM GAS  /tmp/ccJWCNBb.s 			page 59


 3269 015a 07       		.sleb128 7
 3270 015b 00       		.byte	0
 3271 015c 03       		.uleb128 0x3
 3272 015d C8060000 		.4byte	.LASF34
 3273 0161 04       		.byte	0x4
 3274 0162 70       		.byte	0x70
 3275 0163 23010000 		.4byte	0x123
 3276 0167 05       		.uleb128 0x5
 3277 0168 01       		.byte	0x1
 3278 0169 04       		.byte	0x4
 3279 016a 7A       		.byte	0x7a
 3280 016b A0010000 		.4byte	0x1a0
 3281 016f 06       		.uleb128 0x6
 3282 0170 D9080000 		.4byte	.LASF35
 3283 0174 00       		.sleb128 0
 3284 0175 06       		.uleb128 0x6
 3285 0176 D7060000 		.4byte	.LASF36
 3286 017a 08       		.sleb128 8
 3287 017b 06       		.uleb128 0x6
 3288 017c ED060000 		.4byte	.LASF37
 3289 0180 10       		.sleb128 16
 3290 0181 06       		.uleb128 0x6
 3291 0182 3E080000 		.4byte	.LASF38
 3292 0186 18       		.sleb128 24
 3293 0187 06       		.uleb128 0x6
 3294 0188 32010000 		.4byte	.LASF39
 3295 018c 20       		.sleb128 32
 3296 018d 06       		.uleb128 0x6
 3297 018e 37050000 		.4byte	.LASF40
 3298 0192 28       		.sleb128 40
 3299 0193 06       		.uleb128 0x6
 3300 0194 4D060000 		.4byte	.LASF41
 3301 0198 30       		.sleb128 48
 3302 0199 06       		.uleb128 0x6
 3303 019a 5D050000 		.4byte	.LASF42
 3304 019e 38       		.sleb128 56
 3305 019f 00       		.byte	0
 3306 01a0 03       		.uleb128 0x3
 3307 01a1 C5040000 		.4byte	.LASF43
 3308 01a5 04       		.byte	0x4
 3309 01a6 83       		.byte	0x83
 3310 01a7 67010000 		.4byte	0x167
 3311 01ab 05       		.uleb128 0x5
 3312 01ac 01       		.byte	0x1
 3313 01ad 04       		.byte	0x4
 3314 01ae 8D       		.byte	0x8d
 3315 01af CC010000 		.4byte	0x1cc
 3316 01b3 06       		.uleb128 0x6
 3317 01b4 E3020000 		.4byte	.LASF44
 3318 01b8 00       		.sleb128 0
 3319 01b9 06       		.uleb128 0x6
 3320 01ba FA040000 		.4byte	.LASF45
 3321 01be 01       		.sleb128 1
 3322 01bf 06       		.uleb128 0x6
 3323 01c0 04040000 		.4byte	.LASF46
 3324 01c4 02       		.sleb128 2
 3325 01c5 06       		.uleb128 0x6
ARM GAS  /tmp/ccJWCNBb.s 			page 60


 3326 01c6 C7080000 		.4byte	.LASF47
 3327 01ca 03       		.sleb128 3
 3328 01cb 00       		.byte	0
 3329 01cc 03       		.uleb128 0x3
 3330 01cd E5050000 		.4byte	.LASF48
 3331 01d1 04       		.byte	0x4
 3332 01d2 92       		.byte	0x92
 3333 01d3 AB010000 		.4byte	0x1ab
 3334 01d7 05       		.uleb128 0x5
 3335 01d8 01       		.byte	0x1
 3336 01d9 04       		.byte	0x4
 3337 01da 9B       		.byte	0x9b
 3338 01db ED010000 		.4byte	0x1ed
 3339 01df 06       		.uleb128 0x6
 3340 01e0 13060000 		.4byte	.LASF49
 3341 01e4 00       		.sleb128 0
 3342 01e5 06       		.uleb128 0x6
 3343 01e6 29020000 		.4byte	.LASF50
 3344 01ea C000     		.sleb128 64
 3345 01ec 00       		.byte	0
 3346 01ed 03       		.uleb128 0x3
 3347 01ee D4040000 		.4byte	.LASF51
 3348 01f2 04       		.byte	0x4
 3349 01f3 9E       		.byte	0x9e
 3350 01f4 D7010000 		.4byte	0x1d7
 3351 01f8 05       		.uleb128 0x5
 3352 01f9 01       		.byte	0x1
 3353 01fa 04       		.byte	0x4
 3354 01fb A5       		.byte	0xa5
 3355 01fc 0E020000 		.4byte	0x20e
 3356 0200 06       		.uleb128 0x6
 3357 0201 76010000 		.4byte	.LASF52
 3358 0205 00       		.sleb128 0
 3359 0206 06       		.uleb128 0x6
 3360 0207 3A020000 		.4byte	.LASF53
 3361 020b 8001     		.sleb128 128
 3362 020d 00       		.byte	0
 3363 020e 03       		.uleb128 0x3
 3364 020f 04010000 		.4byte	.LASF54
 3365 0213 04       		.byte	0x4
 3366 0214 A8       		.byte	0xa8
 3367 0215 F8010000 		.4byte	0x1f8
 3368 0219 07       		.uleb128 0x7
 3369 021a 03       		.byte	0x3
 3370 021b 04       		.byte	0x4
 3371 021c AE       		.byte	0xae
 3372 021d 46020000 		.4byte	0x246
 3373 0221 08       		.uleb128 0x8
 3374 0222 94080000 		.4byte	.LASF55
 3375 0226 04       		.byte	0x4
 3376 0227 B0       		.byte	0xb0
 3377 0228 97000000 		.4byte	0x97
 3378 022c 00       		.byte	0
 3379 022d 08       		.uleb128 0x8
 3380 022e 5E020000 		.4byte	.LASF56
 3381 0232 04       		.byte	0x4
 3382 0233 B1       		.byte	0xb1
ARM GAS  /tmp/ccJWCNBb.s 			page 61


 3383 0234 97000000 		.4byte	0x97
 3384 0238 01       		.byte	0x1
 3385 0239 08       		.uleb128 0x8
 3386 023a 64020000 		.4byte	.LASF57
 3387 023e 04       		.byte	0x4
 3388 023f B2       		.byte	0xb2
 3389 0240 97000000 		.4byte	0x97
 3390 0244 02       		.byte	0x2
 3391 0245 00       		.byte	0
 3392 0246 03       		.uleb128 0x3
 3393 0247 FE010000 		.4byte	.LASF58
 3394 024b 04       		.byte	0x4
 3395 024c B3       		.byte	0xb3
 3396 024d 19020000 		.4byte	0x219
 3397 0251 07       		.uleb128 0x7
 3398 0252 08       		.byte	0x8
 3399 0253 04       		.byte	0x4
 3400 0254 B9       		.byte	0xb9
 3401 0255 BA020000 		.4byte	0x2ba
 3402 0259 08       		.uleb128 0x8
 3403 025a A0050000 		.4byte	.LASF59
 3404 025e 04       		.byte	0x4
 3405 025f BB       		.byte	0xbb
 3406 0260 5C010000 		.4byte	0x15c
 3407 0264 00       		.byte	0
 3408 0265 08       		.uleb128 0x8
 3409 0266 F3050000 		.4byte	.LASF60
 3410 026a 04       		.byte	0x4
 3411 026b BC       		.byte	0xbc
 3412 026c A0010000 		.4byte	0x1a0
 3413 0270 01       		.byte	0x1
 3414 0271 09       		.uleb128 0x9
 3415 0272 6F647200 		.ascii	"odr\000"
 3416 0276 04       		.byte	0x4
 3417 0277 BD       		.byte	0xbd
 3418 0278 CC010000 		.4byte	0x1cc
 3419 027c 02       		.byte	0x2
 3420 027d 08       		.uleb128 0x8
 3421 027e A1070000 		.4byte	.LASF61
 3422 0282 04       		.byte	0x4
 3423 0283 BE       		.byte	0xbe
 3424 0284 F8000000 		.4byte	0xf8
 3425 0288 03       		.byte	0x3
 3426 0289 08       		.uleb128 0x8
 3427 028a FB060000 		.4byte	.LASF62
 3428 028e 04       		.byte	0x4
 3429 028f BF       		.byte	0xbf
 3430 0290 F8000000 		.4byte	0xf8
 3431 0294 04       		.byte	0x4
 3432 0295 08       		.uleb128 0x8
 3433 0296 16020000 		.4byte	.LASF63
 3434 029a 04       		.byte	0x4
 3435 029b C1       		.byte	0xc1
 3436 029c 0E020000 		.4byte	0x20e
 3437 02a0 05       		.byte	0x5
 3438 02a1 08       		.uleb128 0x8
 3439 02a2 2E080000 		.4byte	.LASF64
ARM GAS  /tmp/ccJWCNBb.s 			page 62


 3440 02a6 04       		.byte	0x4
 3441 02a7 C2       		.byte	0xc2
 3442 02a8 ED010000 		.4byte	0x1ed
 3443 02ac 06       		.byte	0x6
 3444 02ad 08       		.uleb128 0x8
 3445 02ae 00080000 		.4byte	.LASF65
 3446 02b2 04       		.byte	0x4
 3447 02b3 C3       		.byte	0xc3
 3448 02b4 F8000000 		.4byte	0xf8
 3449 02b8 07       		.byte	0x7
 3450 02b9 00       		.byte	0
 3451 02ba 03       		.uleb128 0x3
 3452 02bb 09090000 		.4byte	.LASF66
 3453 02bf 04       		.byte	0x4
 3454 02c0 C4       		.byte	0xc4
 3455 02c1 51020000 		.4byte	0x251
 3456 02c5 0A       		.uleb128 0xa
 3457 02c6 04       		.byte	0x4
 3458 02c7 02       		.uleb128 0x2
 3459 02c8 04       		.byte	0x4
 3460 02c9 07       		.byte	0x7
 3461 02ca 97050000 		.4byte	.LASF67
 3462 02ce 02       		.uleb128 0x2
 3463 02cf 01       		.byte	0x1
 3464 02d0 08       		.byte	0x8
 3465 02d1 E1070000 		.4byte	.LASF68
 3466 02d5 0B       		.uleb128 0xb
 3467 02d6 49010000 		.4byte	.LASF73
 3468 02da 01       		.byte	0x1
 3469 02db 5E       		.byte	0x5e
 3470 02dc D8000000 		.4byte	0xd8
 3471 02e0 00000000 		.4byte	.LFB0
 3472 02e4 3A000000 		.4byte	.LFE0-.LFB0
 3473 02e8 01       		.uleb128 0x1
 3474 02e9 9C       		.byte	0x9c
 3475 02ea 27030000 		.4byte	0x327
 3476 02ee 0C       		.uleb128 0xc
 3477 02ef 18090000 		.4byte	.LASF69
 3478 02f3 01       		.byte	0x1
 3479 02f4 5E       		.byte	0x5e
 3480 02f5 C5020000 		.4byte	0x2c5
 3481 02f9 02       		.uleb128 0x2
 3482 02fa 91       		.byte	0x91
 3483 02fb 74       		.sleb128 -12
 3484 02fc 0C       		.uleb128 0xc
 3485 02fd B0040000 		.4byte	.LASF70
 3486 0301 01       		.byte	0x1
 3487 0302 5E       		.byte	0x5e
 3488 0303 97000000 		.4byte	0x97
 3489 0307 02       		.uleb128 0x2
 3490 0308 91       		.byte	0x91
 3491 0309 73       		.sleb128 -13
 3492 030a 0C       		.uleb128 0xc
 3493 030b 73020000 		.4byte	.LASF71
 3494 030f 01       		.byte	0x1
 3495 0310 5E       		.byte	0x5e
 3496 0311 AD000000 		.4byte	0xad
ARM GAS  /tmp/ccJWCNBb.s 			page 63


 3497 0315 02       		.uleb128 0x2
 3498 0316 91       		.byte	0x91
 3499 0317 70       		.sleb128 -16
 3500 0318 0C       		.uleb128 0xc
 3501 0319 EF080000 		.4byte	.LASF72
 3502 031d 01       		.byte	0x1
 3503 031e 5E       		.byte	0x5e
 3504 031f 27030000 		.4byte	0x327
 3505 0323 02       		.uleb128 0x2
 3506 0324 91       		.byte	0x91
 3507 0325 6C       		.sleb128 -20
 3508 0326 00       		.byte	0
 3509 0327 0D       		.uleb128 0xd
 3510 0328 04       		.byte	0x4
 3511 0329 97000000 		.4byte	0x97
 3512 032d 0B       		.uleb128 0xb
 3513 032e AC030000 		.4byte	.LASF74
 3514 0332 01       		.byte	0x1
 3515 0333 6F       		.byte	0x6f
 3516 0334 D8000000 		.4byte	0xd8
 3517 0338 40000000 		.4byte	.LFB1
 3518 033c 3A000000 		.4byte	.LFE1-.LFB1
 3519 0340 01       		.uleb128 0x1
 3520 0341 9C       		.byte	0x9c
 3521 0342 7F030000 		.4byte	0x37f
 3522 0346 0C       		.uleb128 0xc
 3523 0347 18090000 		.4byte	.LASF69
 3524 034b 01       		.byte	0x1
 3525 034c 6F       		.byte	0x6f
 3526 034d C5020000 		.4byte	0x2c5
 3527 0351 02       		.uleb128 0x2
 3528 0352 91       		.byte	0x91
 3529 0353 74       		.sleb128 -12
 3530 0354 0C       		.uleb128 0xc
 3531 0355 B0040000 		.4byte	.LASF70
 3532 0359 01       		.byte	0x1
 3533 035a 6F       		.byte	0x6f
 3534 035b 97000000 		.4byte	0x97
 3535 035f 02       		.uleb128 0x2
 3536 0360 91       		.byte	0x91
 3537 0361 73       		.sleb128 -13
 3538 0362 0C       		.uleb128 0xc
 3539 0363 86010000 		.4byte	.LASF75
 3540 0367 01       		.byte	0x1
 3541 0368 6F       		.byte	0x6f
 3542 0369 AD000000 		.4byte	0xad
 3543 036d 02       		.uleb128 0x2
 3544 036e 91       		.byte	0x91
 3545 036f 70       		.sleb128 -16
 3546 0370 0C       		.uleb128 0xc
 3547 0371 EF080000 		.4byte	.LASF72
 3548 0375 01       		.byte	0x1
 3549 0376 6F       		.byte	0x6f
 3550 0377 27030000 		.4byte	0x327
 3551 037b 02       		.uleb128 0x2
 3552 037c 91       		.byte	0x91
 3553 037d 6C       		.sleb128 -20
ARM GAS  /tmp/ccJWCNBb.s 			page 64


 3554 037e 00       		.byte	0
 3555 037f 0E       		.uleb128 0xe
 3556 0380 1F090000 		.4byte	.LASF76
 3557 0384 01       		.byte	0x1
 3558 0385 7E       		.byte	0x7e
 3559 0386 D8000000 		.4byte	0xd8
 3560 038a 80000000 		.4byte	.LFB2
 3561 038e 1E000000 		.4byte	.LFE2-.LFB2
 3562 0392 01       		.uleb128 0x1
 3563 0393 9C       		.byte	0x9c
 3564 0394 A7030000 		.4byte	0x3a7
 3565 0398 0C       		.uleb128 0xc
 3566 0399 6D050000 		.4byte	.LASF77
 3567 039d 01       		.byte	0x1
 3568 039e 7E       		.byte	0x7e
 3569 039f A7030000 		.4byte	0x3a7
 3570 03a3 02       		.uleb128 0x2
 3571 03a4 91       		.byte	0x91
 3572 03a5 7C       		.sleb128 -4
 3573 03a6 00       		.byte	0
 3574 03a7 0D       		.uleb128 0xd
 3575 03a8 04       		.byte	0x4
 3576 03a9 46020000 		.4byte	0x246
 3577 03ad 0B       		.uleb128 0xb
 3578 03ae 09050000 		.4byte	.LASF78
 3579 03b2 01       		.byte	0x1
 3580 03b3 8D       		.byte	0x8d
 3581 03b4 D8000000 		.4byte	0xd8
 3582 03b8 A0000000 		.4byte	.LFB3
 3583 03bc 28000000 		.4byte	.LFE3-.LFB3
 3584 03c0 01       		.uleb128 0x1
 3585 03c1 9C       		.byte	0x9c
 3586 03c2 E3030000 		.4byte	0x3e3
 3587 03c6 0C       		.uleb128 0xc
 3588 03c7 18090000 		.4byte	.LASF69
 3589 03cb 01       		.byte	0x1
 3590 03cc 8D       		.byte	0x8d
 3591 03cd C5020000 		.4byte	0x2c5
 3592 03d1 02       		.uleb128 0x2
 3593 03d2 91       		.byte	0x91
 3594 03d3 74       		.sleb128 -12
 3595 03d4 0C       		.uleb128 0xc
 3596 03d5 17070000 		.4byte	.LASF79
 3597 03d9 01       		.byte	0x1
 3598 03da 8D       		.byte	0x8d
 3599 03db 27030000 		.4byte	0x327
 3600 03df 02       		.uleb128 0x2
 3601 03e0 91       		.byte	0x91
 3602 03e1 70       		.sleb128 -16
 3603 03e2 00       		.byte	0
 3604 03e3 0B       		.uleb128 0xb
 3605 03e4 BD020000 		.4byte	.LASF80
 3606 03e8 01       		.byte	0x1
 3607 03e9 9C       		.byte	0x9c
 3608 03ea D8000000 		.4byte	0xd8
 3609 03ee D0000000 		.4byte	.LFB4
 3610 03f2 78020000 		.4byte	.LFE4-.LFB4
ARM GAS  /tmp/ccJWCNBb.s 			page 65


 3611 03f6 01       		.uleb128 0x1
 3612 03f7 9C       		.byte	0x9c
 3613 03f8 27040000 		.4byte	0x427
 3614 03fc 0C       		.uleb128 0xc
 3615 03fd 18090000 		.4byte	.LASF69
 3616 0401 01       		.byte	0x1
 3617 0402 9C       		.byte	0x9c
 3618 0403 C5020000 		.4byte	0x2c5
 3619 0407 02       		.uleb128 0x2
 3620 0408 91       		.byte	0x91
 3621 0409 6C       		.sleb128 -20
 3622 040a 0C       		.uleb128 0xc
 3623 040b B3080000 		.4byte	.LASF81
 3624 040f 01       		.byte	0x1
 3625 0410 9C       		.byte	0x9c
 3626 0411 27040000 		.4byte	0x427
 3627 0415 02       		.uleb128 0x2
 3628 0416 91       		.byte	0x91
 3629 0417 68       		.sleb128 -24
 3630 0418 0F       		.uleb128 0xf
 3631 0419 27080000 		.4byte	.LASF83
 3632 041d 01       		.byte	0x1
 3633 041e 9E       		.byte	0x9e
 3634 041f 2D040000 		.4byte	0x42d
 3635 0423 02       		.uleb128 0x2
 3636 0424 91       		.byte	0x91
 3637 0425 74       		.sleb128 -12
 3638 0426 00       		.byte	0
 3639 0427 0D       		.uleb128 0xd
 3640 0428 04       		.byte	0x4
 3641 0429 BA020000 		.4byte	0x2ba
 3642 042d 10       		.uleb128 0x10
 3643 042e 97000000 		.4byte	0x97
 3644 0432 3D040000 		.4byte	0x43d
 3645 0436 11       		.uleb128 0x11
 3646 0437 C7020000 		.4byte	0x2c7
 3647 043b 02       		.byte	0x2
 3648 043c 00       		.byte	0
 3649 043d 0B       		.uleb128 0xb
 3650 043e 23060000 		.4byte	.LASF82
 3651 0442 01       		.byte	0x1
 3652 0443 D0       		.byte	0xd0
 3653 0444 D8000000 		.4byte	0xd8
 3654 0448 50030000 		.4byte	.LFB5
 3655 044c B4000000 		.4byte	.LFE5-.LFB5
 3656 0450 01       		.uleb128 0x1
 3657 0451 9C       		.byte	0x9c
 3658 0452 81040000 		.4byte	0x481
 3659 0456 0C       		.uleb128 0xc
 3660 0457 18090000 		.4byte	.LASF69
 3661 045b 01       		.byte	0x1
 3662 045c D0       		.byte	0xd0
 3663 045d C5020000 		.4byte	0x2c5
 3664 0461 02       		.uleb128 0x2
 3665 0462 91       		.byte	0x91
 3666 0463 6C       		.sleb128 -20
 3667 0464 0C       		.uleb128 0xc
ARM GAS  /tmp/ccJWCNBb.s 			page 66


 3668 0465 B3080000 		.4byte	.LASF81
 3669 0469 01       		.byte	0x1
 3670 046a D0       		.byte	0xd0
 3671 046b 27040000 		.4byte	0x427
 3672 046f 02       		.uleb128 0x2
 3673 0470 91       		.byte	0x91
 3674 0471 68       		.sleb128 -24
 3675 0472 0F       		.uleb128 0xf
 3676 0473 27080000 		.4byte	.LASF83
 3677 0477 01       		.byte	0x1
 3678 0478 D2       		.byte	0xd2
 3679 0479 2D040000 		.4byte	0x42d
 3680 047d 02       		.uleb128 0x2
 3681 047e 91       		.byte	0x91
 3682 047f 74       		.sleb128 -12
 3683 0480 00       		.byte	0
 3684 0481 0B       		.uleb128 0xb
 3685 0482 93070000 		.4byte	.LASF84
 3686 0486 01       		.byte	0x1
 3687 0487 EE       		.byte	0xee
 3688 0488 D8000000 		.4byte	0xd8
 3689 048c 10040000 		.4byte	.LFB6
 3690 0490 6E000000 		.4byte	.LFE6-.LFB6
 3691 0494 01       		.uleb128 0x1
 3692 0495 9C       		.byte	0x9c
 3693 0496 B7040000 		.4byte	0x4b7
 3694 049a 0C       		.uleb128 0xc
 3695 049b 18090000 		.4byte	.LASF69
 3696 049f 01       		.byte	0x1
 3697 04a0 EE       		.byte	0xee
 3698 04a1 C5020000 		.4byte	0x2c5
 3699 04a5 02       		.uleb128 0x2
 3700 04a6 91       		.byte	0x91
 3701 04a7 6C       		.sleb128 -20
 3702 04a8 0F       		.uleb128 0xf
 3703 04a9 27080000 		.4byte	.LASF83
 3704 04ad 01       		.byte	0x1
 3705 04ae F0       		.byte	0xf0
 3706 04af B7040000 		.4byte	0x4b7
 3707 04b3 02       		.uleb128 0x2
 3708 04b4 91       		.byte	0x91
 3709 04b5 74       		.sleb128 -12
 3710 04b6 00       		.byte	0
 3711 04b7 10       		.uleb128 0x10
 3712 04b8 97000000 		.4byte	0x97
 3713 04bc C7040000 		.4byte	0x4c7
 3714 04c0 11       		.uleb128 0x11
 3715 04c1 C7020000 		.4byte	0x2c7
 3716 04c5 03       		.byte	0x3
 3717 04c6 00       		.byte	0
 3718 04c7 12       		.uleb128 0x12
 3719 04c8 B5070000 		.4byte	.LASF85
 3720 04cc 01       		.byte	0x1
 3721 04cd 0C01     		.2byte	0x10c
 3722 04cf D8000000 		.4byte	0xd8
 3723 04d3 80040000 		.4byte	.LFB7
 3724 04d7 38000000 		.4byte	.LFE7-.LFB7
ARM GAS  /tmp/ccJWCNBb.s 			page 67


 3725 04db 01       		.uleb128 0x1
 3726 04dc 9C       		.byte	0x9c
 3727 04dd 0F050000 		.4byte	0x50f
 3728 04e1 13       		.uleb128 0x13
 3729 04e2 18090000 		.4byte	.LASF69
 3730 04e6 01       		.byte	0x1
 3731 04e7 0C01     		.2byte	0x10c
 3732 04e9 C5020000 		.4byte	0x2c5
 3733 04ed 02       		.uleb128 0x2
 3734 04ee 91       		.byte	0x91
 3735 04ef 74       		.sleb128 -12
 3736 04f0 13       		.uleb128 0x13
 3737 04f1 F5010000 		.4byte	.LASF86
 3738 04f5 01       		.byte	0x1
 3739 04f6 0C01     		.2byte	0x10c
 3740 04f8 0F050000 		.4byte	0x50f
 3741 04fc 02       		.uleb128 0x2
 3742 04fd 91       		.byte	0x91
 3743 04fe 70       		.sleb128 -16
 3744 04ff 13       		.uleb128 0x13
 3745 0500 A1020000 		.4byte	.LASF87
 3746 0504 01       		.byte	0x1
 3747 0505 0C01     		.2byte	0x10c
 3748 0507 15050000 		.4byte	0x515
 3749 050b 02       		.uleb128 0x2
 3750 050c 91       		.byte	0x91
 3751 050d 6C       		.sleb128 -20
 3752 050e 00       		.byte	0
 3753 050f 0D       		.uleb128 0xd
 3754 0510 04       		.byte	0x4
 3755 0511 AD000000 		.4byte	0xad
 3756 0515 0D       		.uleb128 0xd
 3757 0516 04       		.byte	0x4
 3758 0517 A2000000 		.4byte	0xa2
 3759 051b 12       		.uleb128 0x12
 3760 051c 7D050000 		.4byte	.LASF88
 3761 0520 01       		.byte	0x1
 3762 0521 1B01     		.2byte	0x11b
 3763 0523 D8000000 		.4byte	0xd8
 3764 0527 C0040000 		.4byte	.LFB8
 3765 052b 52000000 		.4byte	.LFE8-.LFB8
 3766 052f 01       		.uleb128 0x1
 3767 0530 9C       		.byte	0x9c
 3768 0531 72050000 		.4byte	0x572
 3769 0535 13       		.uleb128 0x13
 3770 0536 18090000 		.4byte	.LASF69
 3771 053a 01       		.byte	0x1
 3772 053b 1B01     		.2byte	0x11b
 3773 053d C5020000 		.4byte	0x2c5
 3774 0541 02       		.uleb128 0x2
 3775 0542 91       		.byte	0x91
 3776 0543 6C       		.sleb128 -20
 3777 0544 13       		.uleb128 0x13
 3778 0545 F5010000 		.4byte	.LASF86
 3779 0549 01       		.byte	0x1
 3780 054a 1B01     		.2byte	0x11b
 3781 054c 15050000 		.4byte	0x515
ARM GAS  /tmp/ccJWCNBb.s 			page 68


 3782 0550 02       		.uleb128 0x2
 3783 0551 91       		.byte	0x91
 3784 0552 68       		.sleb128 -24
 3785 0553 13       		.uleb128 0x13
 3786 0554 A1020000 		.4byte	.LASF87
 3787 0558 01       		.byte	0x1
 3788 0559 1B01     		.2byte	0x11b
 3789 055b 15050000 		.4byte	0x515
 3790 055f 02       		.uleb128 0x2
 3791 0560 91       		.byte	0x91
 3792 0561 64       		.sleb128 -28
 3793 0562 14       		.uleb128 0x14
 3794 0563 27080000 		.4byte	.LASF83
 3795 0567 01       		.byte	0x1
 3796 0568 1D01     		.2byte	0x11d
 3797 056a B7040000 		.4byte	0x4b7
 3798 056e 02       		.uleb128 0x2
 3799 056f 91       		.byte	0x91
 3800 0570 74       		.sleb128 -12
 3801 0571 00       		.byte	0
 3802 0572 12       		.uleb128 0x12
 3803 0573 68070000 		.4byte	.LASF89
 3804 0577 01       		.byte	0x1
 3805 0578 2E01     		.2byte	0x12e
 3806 057a D8000000 		.4byte	0xd8
 3807 057e 20050000 		.4byte	.LFB9
 3808 0582 68010000 		.4byte	.LFE9-.LFB9
 3809 0586 01       		.uleb128 0x1
 3810 0587 9C       		.byte	0x9c
 3811 0588 14060000 		.4byte	0x614
 3812 058c 13       		.uleb128 0x13
 3813 058d 18090000 		.4byte	.LASF69
 3814 0591 01       		.byte	0x1
 3815 0592 2E01     		.2byte	0x12e
 3816 0594 C5020000 		.4byte	0x2c5
 3817 0598 02       		.uleb128 0x2
 3818 0599 91       		.byte	0x91
 3819 059a 5C       		.sleb128 -36
 3820 059b 13       		.uleb128 0x13
 3821 059c CB030000 		.4byte	.LASF90
 3822 05a0 01       		.byte	0x1
 3823 05a1 2E01     		.2byte	0x12e
 3824 05a3 0F050000 		.4byte	0x50f
 3825 05a7 02       		.uleb128 0x2
 3826 05a8 91       		.byte	0x91
 3827 05a9 58       		.sleb128 -40
 3828 05aa 14       		.uleb128 0x14
 3829 05ab 00000000 		.4byte	.LASF91
 3830 05af 01       		.byte	0x1
 3831 05b0 3001     		.2byte	0x130
 3832 05b2 A2000000 		.4byte	0xa2
 3833 05b6 02       		.uleb128 0x2
 3834 05b7 91       		.byte	0x91
 3835 05b8 72       		.sleb128 -14
 3836 05b9 14       		.uleb128 0x14
 3837 05ba DB050000 		.4byte	.LASF92
 3838 05be 01       		.byte	0x1
ARM GAS  /tmp/ccJWCNBb.s 			page 69


 3839 05bf 3001     		.2byte	0x130
 3840 05c1 A2000000 		.4byte	0xa2
 3841 05c5 02       		.uleb128 0x2
 3842 05c6 91       		.byte	0x91
 3843 05c7 70       		.sleb128 -16
 3844 05c8 14       		.uleb128 0x14
 3845 05c9 E5060000 		.4byte	.LASF93
 3846 05cd 01       		.byte	0x1
 3847 05ce 3001     		.2byte	0x130
 3848 05d0 A2000000 		.4byte	0xa2
 3849 05d4 02       		.uleb128 0x2
 3850 05d5 91       		.byte	0x91
 3851 05d6 6E       		.sleb128 -18
 3852 05d7 14       		.uleb128 0x14
 3853 05d8 C1080000 		.4byte	.LASF94
 3854 05dc 01       		.byte	0x1
 3855 05dd 3101     		.2byte	0x131
 3856 05df A2000000 		.4byte	0xa2
 3857 05e3 02       		.uleb128 0x2
 3858 05e4 91       		.byte	0x91
 3859 05e5 76       		.sleb128 -10
 3860 05e6 14       		.uleb128 0x14
 3861 05e7 EE030000 		.4byte	.LASF95
 3862 05eb 01       		.byte	0x1
 3863 05ec 3101     		.2byte	0x131
 3864 05ee A2000000 		.4byte	0xa2
 3865 05f2 02       		.uleb128 0x2
 3866 05f3 91       		.byte	0x91
 3867 05f4 74       		.sleb128 -12
 3868 05f5 14       		.uleb128 0x14
 3869 05f6 27080000 		.4byte	.LASF83
 3870 05fa 01       		.byte	0x1
 3871 05fb 3201     		.2byte	0x132
 3872 05fd 14060000 		.4byte	0x614
 3873 0601 02       		.uleb128 0x2
 3874 0602 91       		.byte	0x91
 3875 0603 64       		.sleb128 -28
 3876 0604 14       		.uleb128 0x14
 3877 0605 95010000 		.4byte	.LASF96
 3878 0609 01       		.byte	0x1
 3879 060a 3301     		.2byte	0x133
 3880 060c 24060000 		.4byte	0x624
 3881 0610 02       		.uleb128 0x2
 3882 0611 91       		.byte	0x91
 3883 0612 68       		.sleb128 -24
 3884 0613 00       		.byte	0
 3885 0614 10       		.uleb128 0x10
 3886 0615 97000000 		.4byte	0x97
 3887 0619 24060000 		.4byte	0x624
 3888 061d 11       		.uleb128 0x11
 3889 061e C7020000 		.4byte	0x2c7
 3890 0622 01       		.byte	0x1
 3891 0623 00       		.byte	0
 3892 0624 02       		.uleb128 0x2
 3893 0625 04       		.byte	0x4
 3894 0626 04       		.byte	0x4
 3895 0627 A3060000 		.4byte	.LASF97
ARM GAS  /tmp/ccJWCNBb.s 			page 70


 3896 062b 12       		.uleb128 0x12
 3897 062c 38090000 		.4byte	.LASF98
 3898 0630 01       		.byte	0x1
 3899 0631 5601     		.2byte	0x156
 3900 0633 D8000000 		.4byte	0xd8
 3901 0637 90060000 		.4byte	.LFB10
 3902 063b 3C000000 		.4byte	.LFE10-.LFB10
 3903 063f 01       		.uleb128 0x1
 3904 0640 9C       		.byte	0x9c
 3905 0641 73060000 		.4byte	0x673
 3906 0645 13       		.uleb128 0x13
 3907 0646 18090000 		.4byte	.LASF69
 3908 064a 01       		.byte	0x1
 3909 064b 5601     		.2byte	0x156
 3910 064d C5020000 		.4byte	0x2c5
 3911 0651 02       		.uleb128 0x2
 3912 0652 91       		.byte	0x91
 3913 0653 6C       		.sleb128 -20
 3914 0654 13       		.uleb128 0x13
 3915 0655 CB030000 		.4byte	.LASF90
 3916 0659 01       		.byte	0x1
 3917 065a 5601     		.2byte	0x156
 3918 065c 15050000 		.4byte	0x515
 3919 0660 02       		.uleb128 0x2
 3920 0661 91       		.byte	0x91
 3921 0662 68       		.sleb128 -24
 3922 0663 14       		.uleb128 0x14
 3923 0664 27080000 		.4byte	.LASF83
 3924 0668 01       		.byte	0x1
 3925 0669 5801     		.2byte	0x158
 3926 066b 14060000 		.4byte	0x614
 3927 066f 02       		.uleb128 0x2
 3928 0670 91       		.byte	0x91
 3929 0671 74       		.sleb128 -12
 3930 0672 00       		.byte	0
 3931 0673 12       		.uleb128 0x12
 3932 0674 4F090000 		.4byte	.LASF99
 3933 0678 01       		.byte	0x1
 3934 0679 6801     		.2byte	0x168
 3935 067b D8000000 		.4byte	0xd8
 3936 067f D0060000 		.4byte	.LFB11
 3937 0683 64010000 		.4byte	.LFE11-.LFB11
 3938 0687 01       		.uleb128 0x1
 3939 0688 9C       		.byte	0x9c
 3940 0689 42070000 		.4byte	0x742
 3941 068d 13       		.uleb128 0x13
 3942 068e 18090000 		.4byte	.LASF69
 3943 0692 01       		.byte	0x1
 3944 0693 6801     		.2byte	0x168
 3945 0695 C5020000 		.4byte	0x2c5
 3946 0699 02       		.uleb128 0x2
 3947 069a 91       		.byte	0x91
 3948 069b 54       		.sleb128 -44
 3949 069c 13       		.uleb128 0x13
 3950 069d CB030000 		.4byte	.LASF90
 3951 06a1 01       		.byte	0x1
 3952 06a2 6801     		.2byte	0x168
ARM GAS  /tmp/ccJWCNBb.s 			page 71


 3953 06a4 15050000 		.4byte	0x515
 3954 06a8 02       		.uleb128 0x2
 3955 06a9 91       		.byte	0x91
 3956 06aa 50       		.sleb128 -48
 3957 06ab 14       		.uleb128 0x14
 3958 06ac 30050000 		.4byte	.LASF100
 3959 06b0 01       		.byte	0x1
 3960 06b1 6A01     		.2byte	0x16a
 3961 06b3 A2000000 		.4byte	0xa2
 3962 06b7 02       		.uleb128 0x2
 3963 06b8 91       		.byte	0x91
 3964 06b9 6E       		.sleb128 -18
 3965 06ba 14       		.uleb128 0x14
 3966 06bb 58010000 		.4byte	.LASF101
 3967 06bf 01       		.byte	0x1
 3968 06c0 6A01     		.2byte	0x16a
 3969 06c2 A2000000 		.4byte	0xa2
 3970 06c6 02       		.uleb128 0x2
 3971 06c7 91       		.byte	0x91
 3972 06c8 6C       		.sleb128 -20
 3973 06c9 14       		.uleb128 0x14
 3974 06ca 9A080000 		.4byte	.LASF102
 3975 06ce 01       		.byte	0x1
 3976 06cf 6A01     		.2byte	0x16a
 3977 06d1 A2000000 		.4byte	0xa2
 3978 06d5 02       		.uleb128 0x2
 3979 06d6 91       		.byte	0x91
 3980 06d7 6A       		.sleb128 -22
 3981 06d8 14       		.uleb128 0x14
 3982 06d9 BC030000 		.4byte	.LASF103
 3983 06dd 01       		.byte	0x1
 3984 06de 6A01     		.2byte	0x16a
 3985 06e0 A2000000 		.4byte	0xa2
 3986 06e4 02       		.uleb128 0x2
 3987 06e5 91       		.byte	0x91
 3988 06e6 76       		.sleb128 -10
 3989 06e7 14       		.uleb128 0x14
 3990 06e8 59070000 		.4byte	.LASF104
 3991 06ec 01       		.byte	0x1
 3992 06ed 6A01     		.2byte	0x16a
 3993 06ef A2000000 		.4byte	0xa2
 3994 06f3 02       		.uleb128 0x2
 3995 06f4 91       		.byte	0x91
 3996 06f5 74       		.sleb128 -12
 3997 06f6 14       		.uleb128 0x14
 3998 06f7 41010000 		.4byte	.LASF105
 3999 06fb 01       		.byte	0x1
 4000 06fc 6B01     		.2byte	0x16b
 4001 06fe A2000000 		.4byte	0xa2
 4002 0702 02       		.uleb128 0x2
 4003 0703 91       		.byte	0x91
 4004 0704 72       		.sleb128 -14
 4005 0705 14       		.uleb128 0x14
 4006 0706 75050000 		.4byte	.LASF106
 4007 070a 01       		.byte	0x1
 4008 070b 6B01     		.2byte	0x16b
 4009 070d A2000000 		.4byte	0xa2
ARM GAS  /tmp/ccJWCNBb.s 			page 72


 4010 0711 02       		.uleb128 0x2
 4011 0712 91       		.byte	0x91
 4012 0713 70       		.sleb128 -16
 4013 0714 14       		.uleb128 0x14
 4014 0715 27080000 		.4byte	.LASF83
 4015 0719 01       		.byte	0x1
 4016 071a 6C01     		.2byte	0x16c
 4017 071c B7040000 		.4byte	0x4b7
 4018 0720 02       		.uleb128 0x2
 4019 0721 91       		.byte	0x91
 4020 0722 60       		.sleb128 -32
 4021 0723 15       		.uleb128 0x15
 4022 0724 746D7000 		.ascii	"tmp\000"
 4023 0728 01       		.byte	0x1
 4024 0729 6C01     		.2byte	0x16c
 4025 072b 97000000 		.4byte	0x97
 4026 072f 02       		.uleb128 0x2
 4027 0730 91       		.byte	0x91
 4028 0731 5F       		.sleb128 -33
 4029 0732 14       		.uleb128 0x14
 4030 0733 95010000 		.4byte	.LASF96
 4031 0737 01       		.byte	0x1
 4032 0738 6D01     		.2byte	0x16d
 4033 073a 24060000 		.4byte	0x624
 4034 073e 02       		.uleb128 0x2
 4035 073f 91       		.byte	0x91
 4036 0740 64       		.sleb128 -28
 4037 0741 00       		.byte	0
 4038 0742 12       		.uleb128 0x12
 4039 0743 71040000 		.4byte	.LASF107
 4040 0747 01       		.byte	0x1
 4041 0748 9201     		.2byte	0x192
 4042 074a D8000000 		.4byte	0xd8
 4043 074e 40080000 		.4byte	.LFB12
 4044 0752 3C000000 		.4byte	.LFE12-.LFB12
 4045 0756 01       		.uleb128 0x1
 4046 0757 9C       		.byte	0x9c
 4047 0758 8A070000 		.4byte	0x78a
 4048 075c 13       		.uleb128 0x13
 4049 075d 18090000 		.4byte	.LASF69
 4050 0761 01       		.byte	0x1
 4051 0762 9201     		.2byte	0x192
 4052 0764 C5020000 		.4byte	0x2c5
 4053 0768 02       		.uleb128 0x2
 4054 0769 91       		.byte	0x91
 4055 076a 6C       		.sleb128 -20
 4056 076b 13       		.uleb128 0x13
 4057 076c CB030000 		.4byte	.LASF90
 4058 0770 01       		.byte	0x1
 4059 0771 9201     		.2byte	0x192
 4060 0773 15050000 		.4byte	0x515
 4061 0777 02       		.uleb128 0x2
 4062 0778 91       		.byte	0x91
 4063 0779 68       		.sleb128 -24
 4064 077a 14       		.uleb128 0x14
 4065 077b 27080000 		.4byte	.LASF83
 4066 077f 01       		.byte	0x1
ARM GAS  /tmp/ccJWCNBb.s 			page 73


 4067 0780 9401     		.2byte	0x194
 4068 0782 14060000 		.4byte	0x614
 4069 0786 02       		.uleb128 0x2
 4070 0787 91       		.byte	0x91
 4071 0788 74       		.sleb128 -12
 4072 0789 00       		.byte	0
 4073 078a 12       		.uleb128 0x12
 4074 078b 8D060000 		.4byte	.LASF108
 4075 078f 01       		.byte	0x1
 4076 0790 A601     		.2byte	0x1a6
 4077 0792 D8000000 		.4byte	0xd8
 4078 0796 80080000 		.4byte	.LFB13
 4079 079a 4A000000 		.4byte	.LFE13-.LFB13
 4080 079e 01       		.uleb128 0x1
 4081 079f 9C       		.byte	0x9c
 4082 07a0 E1070000 		.4byte	0x7e1
 4083 07a4 13       		.uleb128 0x13
 4084 07a5 18090000 		.4byte	.LASF69
 4085 07a9 01       		.byte	0x1
 4086 07aa A601     		.2byte	0x1a6
 4087 07ac C5020000 		.4byte	0x2c5
 4088 07b0 02       		.uleb128 0x2
 4089 07b1 91       		.byte	0x91
 4090 07b2 6C       		.sleb128 -20
 4091 07b3 13       		.uleb128 0x13
 4092 07b4 F5010000 		.4byte	.LASF86
 4093 07b8 01       		.byte	0x1
 4094 07b9 A601     		.2byte	0x1a6
 4095 07bb E1070000 		.4byte	0x7e1
 4096 07bf 02       		.uleb128 0x2
 4097 07c0 91       		.byte	0x91
 4098 07c1 68       		.sleb128 -24
 4099 07c2 13       		.uleb128 0x13
 4100 07c3 A1020000 		.4byte	.LASF87
 4101 07c7 01       		.byte	0x1
 4102 07c8 A601     		.2byte	0x1a6
 4103 07ca E1070000 		.4byte	0x7e1
 4104 07ce 02       		.uleb128 0x2
 4105 07cf 91       		.byte	0x91
 4106 07d0 64       		.sleb128 -28
 4107 07d1 15       		.uleb128 0x15
 4108 07d2 746D7000 		.ascii	"tmp\000"
 4109 07d6 01       		.byte	0x1
 4110 07d7 A801     		.2byte	0x1a8
 4111 07d9 97000000 		.4byte	0x97
 4112 07dd 02       		.uleb128 0x2
 4113 07de 91       		.byte	0x91
 4114 07df 77       		.sleb128 -9
 4115 07e0 00       		.byte	0
 4116 07e1 0D       		.uleb128 0xd
 4117 07e2 04       		.byte	0x4
 4118 07e3 18010000 		.4byte	0x118
 4119 07e7 12       		.uleb128 0x12
 4120 07e8 18010000 		.4byte	.LASF109
 4121 07ec 01       		.byte	0x1
 4122 07ed B901     		.2byte	0x1b9
 4123 07ef D8000000 		.4byte	0xd8
ARM GAS  /tmp/ccJWCNBb.s 			page 74


 4124 07f3 D0080000 		.4byte	.LFB14
 4125 07f7 4E000000 		.4byte	.LFE14-.LFB14
 4126 07fb 01       		.uleb128 0x1
 4127 07fc 9C       		.byte	0x9c
 4128 07fd 20080000 		.4byte	0x820
 4129 0801 13       		.uleb128 0x13
 4130 0802 18090000 		.4byte	.LASF69
 4131 0806 01       		.byte	0x1
 4132 0807 B901     		.2byte	0x1b9
 4133 0809 C5020000 		.4byte	0x2c5
 4134 080d 02       		.uleb128 0x2
 4135 080e 91       		.byte	0x91
 4136 080f 6C       		.sleb128 -20
 4137 0810 15       		.uleb128 0x15
 4138 0811 746D7000 		.ascii	"tmp\000"
 4139 0815 01       		.byte	0x1
 4140 0816 BB01     		.2byte	0x1bb
 4141 0818 97000000 		.4byte	0x97
 4142 081c 02       		.uleb128 0x2
 4143 081d 91       		.byte	0x91
 4144 081e 77       		.sleb128 -9
 4145 081f 00       		.byte	0
 4146 0820 12       		.uleb128 0x12
 4147 0821 9E040000 		.4byte	.LASF110
 4148 0825 01       		.byte	0x1
 4149 0826 CD01     		.2byte	0x1cd
 4150 0828 D8000000 		.4byte	0xd8
 4151 082c 20090000 		.4byte	.LFB15
 4152 0830 4E000000 		.4byte	.LFE15-.LFB15
 4153 0834 01       		.uleb128 0x1
 4154 0835 9C       		.byte	0x9c
 4155 0836 59080000 		.4byte	0x859
 4156 083a 13       		.uleb128 0x13
 4157 083b 18090000 		.4byte	.LASF69
 4158 083f 01       		.byte	0x1
 4159 0840 CD01     		.2byte	0x1cd
 4160 0842 C5020000 		.4byte	0x2c5
 4161 0846 02       		.uleb128 0x2
 4162 0847 91       		.byte	0x91
 4163 0848 6C       		.sleb128 -20
 4164 0849 15       		.uleb128 0x15
 4165 084a 746D7000 		.ascii	"tmp\000"
 4166 084e 01       		.byte	0x1
 4167 084f CF01     		.2byte	0x1cf
 4168 0851 97000000 		.4byte	0x97
 4169 0855 02       		.uleb128 0x2
 4170 0856 91       		.byte	0x91
 4171 0857 77       		.sleb128 -9
 4172 0858 00       		.byte	0
 4173 0859 12       		.uleb128 0x12
 4174 085a 6F060000 		.4byte	.LASF111
 4175 085e 01       		.byte	0x1
 4176 085f E401     		.2byte	0x1e4
 4177 0861 D8000000 		.4byte	0xd8
 4178 0865 70090000 		.4byte	.LFB16
 4179 0869 44000000 		.4byte	.LFE16-.LFB16
 4180 086d 01       		.uleb128 0x1
ARM GAS  /tmp/ccJWCNBb.s 			page 75


 4181 086e 9C       		.byte	0x9c
 4182 086f A1080000 		.4byte	0x8a1
 4183 0873 13       		.uleb128 0x13
 4184 0874 18090000 		.4byte	.LASF69
 4185 0878 01       		.byte	0x1
 4186 0879 E401     		.2byte	0x1e4
 4187 087b C5020000 		.4byte	0x2c5
 4188 087f 02       		.uleb128 0x2
 4189 0880 91       		.byte	0x91
 4190 0881 6C       		.sleb128 -20
 4191 0882 13       		.uleb128 0x13
 4192 0883 29000000 		.4byte	.LASF112
 4193 0887 01       		.byte	0x1
 4194 0888 E401     		.2byte	0x1e4
 4195 088a E1070000 		.4byte	0x7e1
 4196 088e 02       		.uleb128 0x2
 4197 088f 91       		.byte	0x91
 4198 0890 68       		.sleb128 -24
 4199 0891 15       		.uleb128 0x15
 4200 0892 746D7000 		.ascii	"tmp\000"
 4201 0896 01       		.byte	0x1
 4202 0897 E601     		.2byte	0x1e6
 4203 0899 97000000 		.4byte	0x97
 4204 089d 02       		.uleb128 0x2
 4205 089e 91       		.byte	0x91
 4206 089f 77       		.sleb128 -9
 4207 08a0 00       		.byte	0
 4208 08a1 12       		.uleb128 0x12
 4209 08a2 E9040000 		.4byte	.LASF113
 4210 08a6 01       		.byte	0x1
 4211 08a7 FB01     		.2byte	0x1fb
 4212 08a9 D8000000 		.4byte	0xd8
 4213 08ad C0090000 		.4byte	.LFB17
 4214 08b1 14010000 		.4byte	.LFE17-.LFB17
 4215 08b5 01       		.uleb128 0x1
 4216 08b6 9C       		.byte	0x9c
 4217 08b7 F8080000 		.4byte	0x8f8
 4218 08bb 13       		.uleb128 0x13
 4219 08bc 18090000 		.4byte	.LASF69
 4220 08c0 01       		.byte	0x1
 4221 08c1 FB01     		.2byte	0x1fb
 4222 08c3 C5020000 		.4byte	0x2c5
 4223 08c7 02       		.uleb128 0x2
 4224 08c8 91       		.byte	0x91
 4225 08c9 6C       		.sleb128 -20
 4226 08ca 13       		.uleb128 0x13
 4227 08cb 59020000 		.4byte	.LASF114
 4228 08cf 01       		.byte	0x1
 4229 08d0 FB01     		.2byte	0x1fb
 4230 08d2 5C010000 		.4byte	0x15c
 4231 08d6 02       		.uleb128 0x2
 4232 08d7 91       		.byte	0x91
 4233 08d8 6B       		.sleb128 -21
 4234 08d9 13       		.uleb128 0x13
 4235 08da 9C020000 		.4byte	.LASF115
 4236 08de 01       		.byte	0x1
 4237 08df FB01     		.2byte	0x1fb
ARM GAS  /tmp/ccJWCNBb.s 			page 76


 4238 08e1 A0010000 		.4byte	0x1a0
 4239 08e5 02       		.uleb128 0x2
 4240 08e6 91       		.byte	0x91
 4241 08e7 6A       		.sleb128 -22
 4242 08e8 15       		.uleb128 0x15
 4243 08e9 746D7000 		.ascii	"tmp\000"
 4244 08ed 01       		.byte	0x1
 4245 08ee FD01     		.2byte	0x1fd
 4246 08f0 97000000 		.4byte	0x97
 4247 08f4 02       		.uleb128 0x2
 4248 08f5 91       		.byte	0x91
 4249 08f6 77       		.sleb128 -9
 4250 08f7 00       		.byte	0
 4251 08f8 12       		.uleb128 0x12
 4252 08f9 49020000 		.4byte	.LASF116
 4253 08fd 01       		.byte	0x1
 4254 08fe 1502     		.2byte	0x215
 4255 0900 D8000000 		.4byte	0xd8
 4256 0904 E00A0000 		.4byte	.LFB18
 4257 0908 B4000000 		.4byte	.LFE18-.LFB18
 4258 090c 01       		.uleb128 0x1
 4259 090d 9C       		.byte	0x9c
 4260 090e 40090000 		.4byte	0x940
 4261 0912 13       		.uleb128 0x13
 4262 0913 18090000 		.4byte	.LASF69
 4263 0917 01       		.byte	0x1
 4264 0918 1502     		.2byte	0x215
 4265 091a C5020000 		.4byte	0x2c5
 4266 091e 02       		.uleb128 0x2
 4267 091f 91       		.byte	0x91
 4268 0920 6C       		.sleb128 -20
 4269 0921 13       		.uleb128 0x13
 4270 0922 59020000 		.4byte	.LASF114
 4271 0926 01       		.byte	0x1
 4272 0927 1502     		.2byte	0x215
 4273 0929 5C010000 		.4byte	0x15c
 4274 092d 02       		.uleb128 0x2
 4275 092e 91       		.byte	0x91
 4276 092f 6B       		.sleb128 -21
 4277 0930 15       		.uleb128 0x15
 4278 0931 746D7000 		.ascii	"tmp\000"
 4279 0935 01       		.byte	0x1
 4280 0936 1702     		.2byte	0x217
 4281 0938 97000000 		.4byte	0x97
 4282 093c 02       		.uleb128 0x2
 4283 093d 91       		.byte	0x91
 4284 093e 77       		.sleb128 -9
 4285 093f 00       		.byte	0
 4286 0940 12       		.uleb128 0x12
 4287 0941 8C020000 		.4byte	.LASF117
 4288 0945 01       		.byte	0x1
 4289 0946 2D02     		.2byte	0x22d
 4290 0948 D8000000 		.4byte	0xd8
 4291 094c A00B0000 		.4byte	.LFB19
 4292 0950 B4000000 		.4byte	.LFE19-.LFB19
 4293 0954 01       		.uleb128 0x1
 4294 0955 9C       		.byte	0x9c
ARM GAS  /tmp/ccJWCNBb.s 			page 77


 4295 0956 88090000 		.4byte	0x988
 4296 095a 13       		.uleb128 0x13
 4297 095b 18090000 		.4byte	.LASF69
 4298 095f 01       		.byte	0x1
 4299 0960 2D02     		.2byte	0x22d
 4300 0962 C5020000 		.4byte	0x2c5
 4301 0966 02       		.uleb128 0x2
 4302 0967 91       		.byte	0x91
 4303 0968 6C       		.sleb128 -20
 4304 0969 13       		.uleb128 0x13
 4305 096a 9C020000 		.4byte	.LASF115
 4306 096e 01       		.byte	0x1
 4307 096f 2D02     		.2byte	0x22d
 4308 0971 A0010000 		.4byte	0x1a0
 4309 0975 02       		.uleb128 0x2
 4310 0976 91       		.byte	0x91
 4311 0977 6B       		.sleb128 -21
 4312 0978 15       		.uleb128 0x15
 4313 0979 746D7000 		.ascii	"tmp\000"
 4314 097d 01       		.byte	0x1
 4315 097e 2F02     		.2byte	0x22f
 4316 0980 97000000 		.4byte	0x97
 4317 0984 02       		.uleb128 0x2
 4318 0985 91       		.byte	0x91
 4319 0986 77       		.sleb128 -9
 4320 0987 00       		.byte	0
 4321 0988 12       		.uleb128 0x12
 4322 0989 2F070000 		.4byte	.LASF118
 4323 098d 01       		.byte	0x1
 4324 098e 4602     		.2byte	0x246
 4325 0990 D8000000 		.4byte	0xd8
 4326 0994 600C0000 		.4byte	.LFB20
 4327 0998 48000000 		.4byte	.LFE20-.LFB20
 4328 099c 01       		.uleb128 0x1
 4329 099d 9C       		.byte	0x9c
 4330 099e DF090000 		.4byte	0x9df
 4331 09a2 13       		.uleb128 0x13
 4332 09a3 18090000 		.4byte	.LASF69
 4333 09a7 01       		.byte	0x1
 4334 09a8 4602     		.2byte	0x246
 4335 09aa C5020000 		.4byte	0x2c5
 4336 09ae 02       		.uleb128 0x2
 4337 09af 91       		.byte	0x91
 4338 09b0 6C       		.sleb128 -20
 4339 09b1 13       		.uleb128 0x13
 4340 09b2 59020000 		.4byte	.LASF114
 4341 09b6 01       		.byte	0x1
 4342 09b7 4602     		.2byte	0x246
 4343 09b9 DF090000 		.4byte	0x9df
 4344 09bd 02       		.uleb128 0x2
 4345 09be 91       		.byte	0x91
 4346 09bf 68       		.sleb128 -24
 4347 09c0 13       		.uleb128 0x13
 4348 09c1 9C020000 		.4byte	.LASF115
 4349 09c5 01       		.byte	0x1
 4350 09c6 4602     		.2byte	0x246
 4351 09c8 E5090000 		.4byte	0x9e5
ARM GAS  /tmp/ccJWCNBb.s 			page 78


 4352 09cc 02       		.uleb128 0x2
 4353 09cd 91       		.byte	0x91
 4354 09ce 64       		.sleb128 -28
 4355 09cf 15       		.uleb128 0x15
 4356 09d0 746D7000 		.ascii	"tmp\000"
 4357 09d4 01       		.byte	0x1
 4358 09d5 4802     		.2byte	0x248
 4359 09d7 97000000 		.4byte	0x97
 4360 09db 02       		.uleb128 0x2
 4361 09dc 91       		.byte	0x91
 4362 09dd 77       		.sleb128 -9
 4363 09de 00       		.byte	0
 4364 09df 0D       		.uleb128 0xd
 4365 09e0 04       		.byte	0x4
 4366 09e1 5C010000 		.4byte	0x15c
 4367 09e5 0D       		.uleb128 0xd
 4368 09e6 04       		.byte	0x4
 4369 09e7 A0010000 		.4byte	0x1a0
 4370 09eb 12       		.uleb128 0x12
 4371 09ec 1D050000 		.4byte	.LASF119
 4372 09f0 01       		.byte	0x1
 4373 09f1 5B02     		.2byte	0x25b
 4374 09f3 D8000000 		.4byte	0xd8
 4375 09f7 B00C0000 		.4byte	.LFB21
 4376 09fb 8C000000 		.4byte	.LFE21-.LFB21
 4377 09ff 01       		.uleb128 0x1
 4378 0a00 9C       		.byte	0x9c
 4379 0a01 330A0000 		.4byte	0xa33
 4380 0a05 13       		.uleb128 0x13
 4381 0a06 18090000 		.4byte	.LASF69
 4382 0a0a 01       		.byte	0x1
 4383 0a0b 5B02     		.2byte	0x25b
 4384 0a0d C5020000 		.4byte	0x2c5
 4385 0a11 02       		.uleb128 0x2
 4386 0a12 91       		.byte	0x91
 4387 0a13 6C       		.sleb128 -20
 4388 0a14 13       		.uleb128 0x13
 4389 0a15 BA080000 		.4byte	.LASF120
 4390 0a19 01       		.byte	0x1
 4391 0a1a 5B02     		.2byte	0x25b
 4392 0a1c F8000000 		.4byte	0xf8
 4393 0a20 02       		.uleb128 0x2
 4394 0a21 91       		.byte	0x91
 4395 0a22 6B       		.sleb128 -21
 4396 0a23 15       		.uleb128 0x15
 4397 0a24 746D7000 		.ascii	"tmp\000"
 4398 0a28 01       		.byte	0x1
 4399 0a29 5D02     		.2byte	0x25d
 4400 0a2b 97000000 		.4byte	0x97
 4401 0a2f 02       		.uleb128 0x2
 4402 0a30 91       		.byte	0x91
 4403 0a31 77       		.sleb128 -9
 4404 0a32 00       		.byte	0
 4405 0a33 12       		.uleb128 0x12
 4406 0a34 A0080000 		.4byte	.LASF121
 4407 0a38 01       		.byte	0x1
 4408 0a39 7302     		.2byte	0x273
ARM GAS  /tmp/ccJWCNBb.s 			page 79


 4409 0a3b D8000000 		.4byte	0xd8
 4410 0a3f 400D0000 		.4byte	.LFB22
 4411 0a43 3A000000 		.4byte	.LFE22-.LFB22
 4412 0a47 01       		.uleb128 0x1
 4413 0a48 9C       		.byte	0x9c
 4414 0a49 7B0A0000 		.4byte	0xa7b
 4415 0a4d 13       		.uleb128 0x13
 4416 0a4e 18090000 		.4byte	.LASF69
 4417 0a52 01       		.byte	0x1
 4418 0a53 7302     		.2byte	0x273
 4419 0a55 C5020000 		.4byte	0x2c5
 4420 0a59 02       		.uleb128 0x2
 4421 0a5a 91       		.byte	0x91
 4422 0a5b 6C       		.sleb128 -20
 4423 0a5c 13       		.uleb128 0x13
 4424 0a5d BA080000 		.4byte	.LASF120
 4425 0a61 01       		.byte	0x1
 4426 0a62 7302     		.2byte	0x273
 4427 0a64 7B0A0000 		.4byte	0xa7b
 4428 0a68 02       		.uleb128 0x2
 4429 0a69 91       		.byte	0x91
 4430 0a6a 68       		.sleb128 -24
 4431 0a6b 15       		.uleb128 0x15
 4432 0a6c 746D7000 		.ascii	"tmp\000"
 4433 0a70 01       		.byte	0x1
 4434 0a71 7502     		.2byte	0x275
 4435 0a73 97000000 		.4byte	0x97
 4436 0a77 02       		.uleb128 0x2
 4437 0a78 91       		.byte	0x91
 4438 0a79 77       		.sleb128 -9
 4439 0a7a 00       		.byte	0
 4440 0a7b 0D       		.uleb128 0xd
 4441 0a7c 04       		.byte	0x4
 4442 0a7d F8000000 		.4byte	0xf8
 4443 0a81 12       		.uleb128 0x12
 4444 0a82 9B010000 		.4byte	.LASF122
 4445 0a86 01       		.byte	0x1
 4446 0a87 8702     		.2byte	0x287
 4447 0a89 D8000000 		.4byte	0xd8
 4448 0a8d 800D0000 		.4byte	.LFB23
 4449 0a91 8C000000 		.4byte	.LFE23-.LFB23
 4450 0a95 01       		.uleb128 0x1
 4451 0a96 9C       		.byte	0x9c
 4452 0a97 C90A0000 		.4byte	0xac9
 4453 0a9b 13       		.uleb128 0x13
 4454 0a9c 18090000 		.4byte	.LASF69
 4455 0aa0 01       		.byte	0x1
 4456 0aa1 8702     		.2byte	0x287
 4457 0aa3 C5020000 		.4byte	0x2c5
 4458 0aa7 02       		.uleb128 0x2
 4459 0aa8 91       		.byte	0x91
 4460 0aa9 6C       		.sleb128 -20
 4461 0aaa 13       		.uleb128 0x13
 4462 0aab BA080000 		.4byte	.LASF120
 4463 0aaf 01       		.byte	0x1
 4464 0ab0 8702     		.2byte	0x287
 4465 0ab2 18010000 		.4byte	0x118
ARM GAS  /tmp/ccJWCNBb.s 			page 80


 4466 0ab6 02       		.uleb128 0x2
 4467 0ab7 91       		.byte	0x91
 4468 0ab8 6B       		.sleb128 -21
 4469 0ab9 15       		.uleb128 0x15
 4470 0aba 746D7000 		.ascii	"tmp\000"
 4471 0abe 01       		.byte	0x1
 4472 0abf 8902     		.2byte	0x289
 4473 0ac1 97000000 		.4byte	0x97
 4474 0ac5 02       		.uleb128 0x2
 4475 0ac6 91       		.byte	0x91
 4476 0ac7 77       		.sleb128 -9
 4477 0ac8 00       		.byte	0
 4478 0ac9 12       		.uleb128 0x12
 4479 0aca 40070000 		.4byte	.LASF123
 4480 0ace 01       		.byte	0x1
 4481 0acf 9F02     		.2byte	0x29f
 4482 0ad1 D8000000 		.4byte	0xd8
 4483 0ad5 100E0000 		.4byte	.LFB24
 4484 0ad9 36000000 		.4byte	.LFE24-.LFB24
 4485 0add 01       		.uleb128 0x1
 4486 0ade 9C       		.byte	0x9c
 4487 0adf 110B0000 		.4byte	0xb11
 4488 0ae3 13       		.uleb128 0x13
 4489 0ae4 18090000 		.4byte	.LASF69
 4490 0ae8 01       		.byte	0x1
 4491 0ae9 9F02     		.2byte	0x29f
 4492 0aeb C5020000 		.4byte	0x2c5
 4493 0aef 02       		.uleb128 0x2
 4494 0af0 91       		.byte	0x91
 4495 0af1 6C       		.sleb128 -20
 4496 0af2 13       		.uleb128 0x13
 4497 0af3 BA080000 		.4byte	.LASF120
 4498 0af7 01       		.byte	0x1
 4499 0af8 9F02     		.2byte	0x29f
 4500 0afa E1070000 		.4byte	0x7e1
 4501 0afe 02       		.uleb128 0x2
 4502 0aff 91       		.byte	0x91
 4503 0b00 68       		.sleb128 -24
 4504 0b01 15       		.uleb128 0x15
 4505 0b02 746D7000 		.ascii	"tmp\000"
 4506 0b06 01       		.byte	0x1
 4507 0b07 A102     		.2byte	0x2a1
 4508 0b09 97000000 		.4byte	0x97
 4509 0b0d 02       		.uleb128 0x2
 4510 0b0e 91       		.byte	0x91
 4511 0b0f 77       		.sleb128 -9
 4512 0b10 00       		.byte	0
 4513 0b11 12       		.uleb128 0x12
 4514 0b12 B3050000 		.4byte	.LASF124
 4515 0b16 01       		.byte	0x1
 4516 0b17 B202     		.2byte	0x2b2
 4517 0b19 D8000000 		.4byte	0xd8
 4518 0b1d 500E0000 		.4byte	.LFB25
 4519 0b21 94000000 		.4byte	.LFE25-.LFB25
 4520 0b25 01       		.uleb128 0x1
 4521 0b26 9C       		.byte	0x9c
 4522 0b27 590B0000 		.4byte	0xb59
ARM GAS  /tmp/ccJWCNBb.s 			page 81


 4523 0b2b 13       		.uleb128 0x13
 4524 0b2c 18090000 		.4byte	.LASF69
 4525 0b30 01       		.byte	0x1
 4526 0b31 B202     		.2byte	0x2b2
 4527 0b33 C5020000 		.4byte	0x2c5
 4528 0b37 02       		.uleb128 0x2
 4529 0b38 91       		.byte	0x91
 4530 0b39 6C       		.sleb128 -20
 4531 0b3a 16       		.uleb128 0x16
 4532 0b3b 6F647200 		.ascii	"odr\000"
 4533 0b3f 01       		.byte	0x1
 4534 0b40 B202     		.2byte	0x2b2
 4535 0b42 CC010000 		.4byte	0x1cc
 4536 0b46 02       		.uleb128 0x2
 4537 0b47 91       		.byte	0x91
 4538 0b48 6B       		.sleb128 -21
 4539 0b49 15       		.uleb128 0x15
 4540 0b4a 746D7000 		.ascii	"tmp\000"
 4541 0b4e 01       		.byte	0x1
 4542 0b4f B402     		.2byte	0x2b4
 4543 0b51 97000000 		.4byte	0x97
 4544 0b55 02       		.uleb128 0x2
 4545 0b56 91       		.byte	0x91
 4546 0b57 77       		.sleb128 -9
 4547 0b58 00       		.byte	0
 4548 0b59 12       		.uleb128 0x12
 4549 0b5a F5000000 		.4byte	.LASF125
 4550 0b5e 01       		.byte	0x1
 4551 0b5f CA02     		.2byte	0x2ca
 4552 0b61 D8000000 		.4byte	0xd8
 4553 0b65 F00E0000 		.4byte	.LFB26
 4554 0b69 40000000 		.4byte	.LFE26-.LFB26
 4555 0b6d 01       		.uleb128 0x1
 4556 0b6e 9C       		.byte	0x9c
 4557 0b6f A10B0000 		.4byte	0xba1
 4558 0b73 13       		.uleb128 0x13
 4559 0b74 18090000 		.4byte	.LASF69
 4560 0b78 01       		.byte	0x1
 4561 0b79 CA02     		.2byte	0x2ca
 4562 0b7b C5020000 		.4byte	0x2c5
 4563 0b7f 02       		.uleb128 0x2
 4564 0b80 91       		.byte	0x91
 4565 0b81 6C       		.sleb128 -20
 4566 0b82 16       		.uleb128 0x16
 4567 0b83 6F647200 		.ascii	"odr\000"
 4568 0b87 01       		.byte	0x1
 4569 0b88 CA02     		.2byte	0x2ca
 4570 0b8a A10B0000 		.4byte	0xba1
 4571 0b8e 02       		.uleb128 0x2
 4572 0b8f 91       		.byte	0x91
 4573 0b90 68       		.sleb128 -24
 4574 0b91 15       		.uleb128 0x15
 4575 0b92 746D7000 		.ascii	"tmp\000"
 4576 0b96 01       		.byte	0x1
 4577 0b97 CC02     		.2byte	0x2cc
 4578 0b99 97000000 		.4byte	0x97
 4579 0b9d 02       		.uleb128 0x2
ARM GAS  /tmp/ccJWCNBb.s 			page 82


 4580 0b9e 91       		.byte	0x91
 4581 0b9f 77       		.sleb128 -9
 4582 0ba0 00       		.byte	0
 4583 0ba1 0D       		.uleb128 0xd
 4584 0ba2 04       		.byte	0x4
 4585 0ba3 CC010000 		.4byte	0x1cc
 4586 0ba7 12       		.uleb128 0x12
 4587 0ba8 5D060000 		.4byte	.LASF126
 4588 0bac 01       		.byte	0x1
 4589 0bad DC02     		.2byte	0x2dc
 4590 0baf D8000000 		.4byte	0xd8
 4591 0bb3 300F0000 		.4byte	.LFB27
 4592 0bb7 4E000000 		.4byte	.LFE27-.LFB27
 4593 0bbb 01       		.uleb128 0x1
 4594 0bbc 9C       		.byte	0x9c
 4595 0bbd E00B0000 		.4byte	0xbe0
 4596 0bc1 13       		.uleb128 0x13
 4597 0bc2 18090000 		.4byte	.LASF69
 4598 0bc6 01       		.byte	0x1
 4599 0bc7 DC02     		.2byte	0x2dc
 4600 0bc9 C5020000 		.4byte	0x2c5
 4601 0bcd 02       		.uleb128 0x2
 4602 0bce 91       		.byte	0x91
 4603 0bcf 6C       		.sleb128 -20
 4604 0bd0 15       		.uleb128 0x15
 4605 0bd1 746D7000 		.ascii	"tmp\000"
 4606 0bd5 01       		.byte	0x1
 4607 0bd6 DE02     		.2byte	0x2de
 4608 0bd8 97000000 		.4byte	0x97
 4609 0bdc 02       		.uleb128 0x2
 4610 0bdd 91       		.byte	0x91
 4611 0bde 77       		.sleb128 -9
 4612 0bdf 00       		.byte	0
 4613 0be0 12       		.uleb128 0x12
 4614 0be1 46050000 		.4byte	.LASF127
 4615 0be5 01       		.byte	0x1
 4616 0be6 F202     		.2byte	0x2f2
 4617 0be8 D8000000 		.4byte	0xd8
 4618 0bec 800F0000 		.4byte	.LFB28
 4619 0bf0 8C000000 		.4byte	.LFE28-.LFB28
 4620 0bf4 01       		.uleb128 0x1
 4621 0bf5 9C       		.byte	0x9c
 4622 0bf6 280C0000 		.4byte	0xc28
 4623 0bfa 13       		.uleb128 0x13
 4624 0bfb 18090000 		.4byte	.LASF69
 4625 0bff 01       		.byte	0x1
 4626 0c00 F202     		.2byte	0x2f2
 4627 0c02 C5020000 		.4byte	0x2c5
 4628 0c06 02       		.uleb128 0x2
 4629 0c07 91       		.byte	0x91
 4630 0c08 6C       		.sleb128 -20
 4631 0c09 13       		.uleb128 0x13
 4632 0c0a BA080000 		.4byte	.LASF120
 4633 0c0e 01       		.byte	0x1
 4634 0c0f F202     		.2byte	0x2f2
 4635 0c11 F8000000 		.4byte	0xf8
 4636 0c15 02       		.uleb128 0x2
ARM GAS  /tmp/ccJWCNBb.s 			page 83


 4637 0c16 91       		.byte	0x91
 4638 0c17 6B       		.sleb128 -21
 4639 0c18 15       		.uleb128 0x15
 4640 0c19 746D7000 		.ascii	"tmp\000"
 4641 0c1d 01       		.byte	0x1
 4642 0c1e F402     		.2byte	0x2f4
 4643 0c20 97000000 		.4byte	0x97
 4644 0c24 02       		.uleb128 0x2
 4645 0c25 91       		.byte	0x91
 4646 0c26 77       		.sleb128 -9
 4647 0c27 00       		.byte	0
 4648 0c28 12       		.uleb128 0x12
 4649 0c29 7C070000 		.4byte	.LASF128
 4650 0c2d 01       		.byte	0x1
 4651 0c2e 0A03     		.2byte	0x30a
 4652 0c30 D8000000 		.4byte	0xd8
 4653 0c34 10100000 		.4byte	.LFB29
 4654 0c38 3A000000 		.4byte	.LFE29-.LFB29
 4655 0c3c 01       		.uleb128 0x1
 4656 0c3d 9C       		.byte	0x9c
 4657 0c3e 700C0000 		.4byte	0xc70
 4658 0c42 13       		.uleb128 0x13
 4659 0c43 18090000 		.4byte	.LASF69
 4660 0c47 01       		.byte	0x1
 4661 0c48 0A03     		.2byte	0x30a
 4662 0c4a C5020000 		.4byte	0x2c5
 4663 0c4e 02       		.uleb128 0x2
 4664 0c4f 91       		.byte	0x91
 4665 0c50 6C       		.sleb128 -20
 4666 0c51 13       		.uleb128 0x13
 4667 0c52 BA080000 		.4byte	.LASF120
 4668 0c56 01       		.byte	0x1
 4669 0c57 0A03     		.2byte	0x30a
 4670 0c59 7B0A0000 		.4byte	0xa7b
 4671 0c5d 02       		.uleb128 0x2
 4672 0c5e 91       		.byte	0x91
 4673 0c5f 68       		.sleb128 -24
 4674 0c60 15       		.uleb128 0x15
 4675 0c61 746D7000 		.ascii	"tmp\000"
 4676 0c65 01       		.byte	0x1
 4677 0c66 0C03     		.2byte	0x30c
 4678 0c68 97000000 		.4byte	0x97
 4679 0c6c 02       		.uleb128 0x2
 4680 0c6d 91       		.byte	0x91
 4681 0c6e 77       		.sleb128 -9
 4682 0c6f 00       		.byte	0
 4683 0c70 12       		.uleb128 0x12
 4684 0c71 A9060000 		.4byte	.LASF129
 4685 0c75 01       		.byte	0x1
 4686 0c76 1C03     		.2byte	0x31c
 4687 0c78 D8000000 		.4byte	0xd8
 4688 0c7c 50100000 		.4byte	.LFB30
 4689 0c80 4E000000 		.4byte	.LFE30-.LFB30
 4690 0c84 01       		.uleb128 0x1
 4691 0c85 9C       		.byte	0x9c
 4692 0c86 A90C0000 		.4byte	0xca9
 4693 0c8a 13       		.uleb128 0x13
ARM GAS  /tmp/ccJWCNBb.s 			page 84


 4694 0c8b 18090000 		.4byte	.LASF69
 4695 0c8f 01       		.byte	0x1
 4696 0c90 1C03     		.2byte	0x31c
 4697 0c92 C5020000 		.4byte	0x2c5
 4698 0c96 02       		.uleb128 0x2
 4699 0c97 91       		.byte	0x91
 4700 0c98 6C       		.sleb128 -20
 4701 0c99 15       		.uleb128 0x15
 4702 0c9a 746D7000 		.ascii	"tmp\000"
 4703 0c9e 01       		.byte	0x1
 4704 0c9f 1E03     		.2byte	0x31e
 4705 0ca1 97000000 		.4byte	0x97
 4706 0ca5 02       		.uleb128 0x2
 4707 0ca6 91       		.byte	0x91
 4708 0ca7 77       		.sleb128 -9
 4709 0ca8 00       		.byte	0
 4710 0ca9 12       		.uleb128 0x12
 4711 0caa F9050000 		.4byte	.LASF130
 4712 0cae 01       		.byte	0x1
 4713 0caf 3403     		.2byte	0x334
 4714 0cb1 D8000000 		.4byte	0xd8
 4715 0cb5 A0100000 		.4byte	.LFB31
 4716 0cb9 84000000 		.4byte	.LFE31-.LFB31
 4717 0cbd 01       		.uleb128 0x1
 4718 0cbe 9C       		.byte	0x9c
 4719 0cbf F10C0000 		.4byte	0xcf1
 4720 0cc3 13       		.uleb128 0x13
 4721 0cc4 18090000 		.4byte	.LASF69
 4722 0cc8 01       		.byte	0x1
 4723 0cc9 3403     		.2byte	0x334
 4724 0ccb C5020000 		.4byte	0x2c5
 4725 0ccf 02       		.uleb128 0x2
 4726 0cd0 91       		.byte	0x91
 4727 0cd1 6C       		.sleb128 -20
 4728 0cd2 13       		.uleb128 0x13
 4729 0cd3 CB030000 		.4byte	.LASF90
 4730 0cd7 01       		.byte	0x1
 4731 0cd8 3403     		.2byte	0x334
 4732 0cda 0E020000 		.4byte	0x20e
 4733 0cde 02       		.uleb128 0x2
 4734 0cdf 91       		.byte	0x91
 4735 0ce0 6B       		.sleb128 -21
 4736 0ce1 15       		.uleb128 0x15
 4737 0ce2 746D7000 		.ascii	"tmp\000"
 4738 0ce6 01       		.byte	0x1
 4739 0ce7 3603     		.2byte	0x336
 4740 0ce9 97000000 		.4byte	0x97
 4741 0ced 02       		.uleb128 0x2
 4742 0cee 91       		.byte	0x91
 4743 0cef 77       		.sleb128 -9
 4744 0cf0 00       		.byte	0
 4745 0cf1 12       		.uleb128 0x12
 4746 0cf2 6C080000 		.4byte	.LASF131
 4747 0cf6 01       		.byte	0x1
 4748 0cf7 4C03     		.2byte	0x34c
 4749 0cf9 D8000000 		.4byte	0xd8
 4750 0cfd 30110000 		.4byte	.LFB32
ARM GAS  /tmp/ccJWCNBb.s 			page 85


 4751 0d01 38000000 		.4byte	.LFE32-.LFB32
 4752 0d05 01       		.uleb128 0x1
 4753 0d06 9C       		.byte	0x9c
 4754 0d07 390D0000 		.4byte	0xd39
 4755 0d0b 13       		.uleb128 0x13
 4756 0d0c 18090000 		.4byte	.LASF69
 4757 0d10 01       		.byte	0x1
 4758 0d11 4C03     		.2byte	0x34c
 4759 0d13 C5020000 		.4byte	0x2c5
 4760 0d17 02       		.uleb128 0x2
 4761 0d18 91       		.byte	0x91
 4762 0d19 6C       		.sleb128 -20
 4763 0d1a 13       		.uleb128 0x13
 4764 0d1b CB030000 		.4byte	.LASF90
 4765 0d1f 01       		.byte	0x1
 4766 0d20 4C03     		.2byte	0x34c
 4767 0d22 390D0000 		.4byte	0xd39
 4768 0d26 02       		.uleb128 0x2
 4769 0d27 91       		.byte	0x91
 4770 0d28 68       		.sleb128 -24
 4771 0d29 15       		.uleb128 0x15
 4772 0d2a 746D7000 		.ascii	"tmp\000"
 4773 0d2e 01       		.byte	0x1
 4774 0d2f 4E03     		.2byte	0x34e
 4775 0d31 97000000 		.4byte	0x97
 4776 0d35 02       		.uleb128 0x2
 4777 0d36 91       		.byte	0x91
 4778 0d37 77       		.sleb128 -9
 4779 0d38 00       		.byte	0
 4780 0d39 0D       		.uleb128 0xd
 4781 0d3a 04       		.byte	0x4
 4782 0d3b 0E020000 		.4byte	0x20e
 4783 0d3f 12       		.uleb128 0x12
 4784 0d40 89030000 		.4byte	.LASF132
 4785 0d44 01       		.byte	0x1
 4786 0d45 5F03     		.2byte	0x35f
 4787 0d47 D8000000 		.4byte	0xd8
 4788 0d4b 70110000 		.4byte	.LFB33
 4789 0d4f 84000000 		.4byte	.LFE33-.LFB33
 4790 0d53 01       		.uleb128 0x1
 4791 0d54 9C       		.byte	0x9c
 4792 0d55 870D0000 		.4byte	0xd87
 4793 0d59 13       		.uleb128 0x13
 4794 0d5a 18090000 		.4byte	.LASF69
 4795 0d5e 01       		.byte	0x1
 4796 0d5f 5F03     		.2byte	0x35f
 4797 0d61 C5020000 		.4byte	0x2c5
 4798 0d65 02       		.uleb128 0x2
 4799 0d66 91       		.byte	0x91
 4800 0d67 6C       		.sleb128 -20
 4801 0d68 13       		.uleb128 0x13
 4802 0d69 CB030000 		.4byte	.LASF90
 4803 0d6d 01       		.byte	0x1
 4804 0d6e 5F03     		.2byte	0x35f
 4805 0d70 ED010000 		.4byte	0x1ed
 4806 0d74 02       		.uleb128 0x2
 4807 0d75 91       		.byte	0x91
ARM GAS  /tmp/ccJWCNBb.s 			page 86


 4808 0d76 6B       		.sleb128 -21
 4809 0d77 15       		.uleb128 0x15
 4810 0d78 746D7000 		.ascii	"tmp\000"
 4811 0d7c 01       		.byte	0x1
 4812 0d7d 6103     		.2byte	0x361
 4813 0d7f 97000000 		.4byte	0x97
 4814 0d83 02       		.uleb128 0x2
 4815 0d84 91       		.byte	0x91
 4816 0d85 77       		.sleb128 -9
 4817 0d86 00       		.byte	0
 4818 0d87 12       		.uleb128 0x12
 4819 0d88 C2050000 		.4byte	.LASF133
 4820 0d8c 01       		.byte	0x1
 4821 0d8d 7703     		.2byte	0x377
 4822 0d8f D8000000 		.4byte	0xd8
 4823 0d93 00120000 		.4byte	.LFB34
 4824 0d97 38000000 		.4byte	.LFE34-.LFB34
 4825 0d9b 01       		.uleb128 0x1
 4826 0d9c 9C       		.byte	0x9c
 4827 0d9d CF0D0000 		.4byte	0xdcf
 4828 0da1 13       		.uleb128 0x13
 4829 0da2 18090000 		.4byte	.LASF69
 4830 0da6 01       		.byte	0x1
 4831 0da7 7703     		.2byte	0x377
 4832 0da9 C5020000 		.4byte	0x2c5
 4833 0dad 02       		.uleb128 0x2
 4834 0dae 91       		.byte	0x91
 4835 0daf 6C       		.sleb128 -20
 4836 0db0 13       		.uleb128 0x13
 4837 0db1 CB030000 		.4byte	.LASF90
 4838 0db5 01       		.byte	0x1
 4839 0db6 7703     		.2byte	0x377
 4840 0db8 CF0D0000 		.4byte	0xdcf
 4841 0dbc 02       		.uleb128 0x2
 4842 0dbd 91       		.byte	0x91
 4843 0dbe 68       		.sleb128 -24
 4844 0dbf 15       		.uleb128 0x15
 4845 0dc0 746D7000 		.ascii	"tmp\000"
 4846 0dc4 01       		.byte	0x1
 4847 0dc5 7903     		.2byte	0x379
 4848 0dc7 97000000 		.4byte	0x97
 4849 0dcb 02       		.uleb128 0x2
 4850 0dcc 91       		.byte	0x91
 4851 0dcd 77       		.sleb128 -9
 4852 0dce 00       		.byte	0
 4853 0dcf 0D       		.uleb128 0xd
 4854 0dd0 04       		.byte	0x4
 4855 0dd1 ED010000 		.4byte	0x1ed
 4856 0dd5 12       		.uleb128 0x12
 4857 0dd6 F4080000 		.4byte	.LASF134
 4858 0dda 01       		.byte	0x1
 4859 0ddb 8A03     		.2byte	0x38a
 4860 0ddd D8000000 		.4byte	0xd8
 4861 0de1 40120000 		.4byte	.LFB35
 4862 0de5 8C000000 		.4byte	.LFE35-.LFB35
 4863 0de9 01       		.uleb128 0x1
 4864 0dea 9C       		.byte	0x9c
ARM GAS  /tmp/ccJWCNBb.s 			page 87


 4865 0deb 1D0E0000 		.4byte	0xe1d
 4866 0def 13       		.uleb128 0x13
 4867 0df0 18090000 		.4byte	.LASF69
 4868 0df4 01       		.byte	0x1
 4869 0df5 8A03     		.2byte	0x38a
 4870 0df7 C5020000 		.4byte	0x2c5
 4871 0dfb 02       		.uleb128 0x2
 4872 0dfc 91       		.byte	0x91
 4873 0dfd 6C       		.sleb128 -20
 4874 0dfe 13       		.uleb128 0x13
 4875 0dff BA080000 		.4byte	.LASF120
 4876 0e03 01       		.byte	0x1
 4877 0e04 8A03     		.2byte	0x38a
 4878 0e06 F8000000 		.4byte	0xf8
 4879 0e0a 02       		.uleb128 0x2
 4880 0e0b 91       		.byte	0x91
 4881 0e0c 6B       		.sleb128 -21
 4882 0e0d 15       		.uleb128 0x15
 4883 0e0e 746D7000 		.ascii	"tmp\000"
 4884 0e12 01       		.byte	0x1
 4885 0e13 8C03     		.2byte	0x38c
 4886 0e15 97000000 		.4byte	0x97
 4887 0e19 02       		.uleb128 0x2
 4888 0e1a 91       		.byte	0x91
 4889 0e1b 77       		.sleb128 -9
 4890 0e1c 00       		.byte	0
 4891 0e1d 12       		.uleb128 0x12
 4892 0e1e CC070000 		.4byte	.LASF135
 4893 0e22 01       		.byte	0x1
 4894 0e23 A203     		.2byte	0x3a2
 4895 0e25 D8000000 		.4byte	0xd8
 4896 0e29 D0120000 		.4byte	.LFB36
 4897 0e2d 3A000000 		.4byte	.LFE36-.LFB36
 4898 0e31 01       		.uleb128 0x1
 4899 0e32 9C       		.byte	0x9c
 4900 0e33 650E0000 		.4byte	0xe65
 4901 0e37 13       		.uleb128 0x13
 4902 0e38 18090000 		.4byte	.LASF69
 4903 0e3c 01       		.byte	0x1
 4904 0e3d A203     		.2byte	0x3a2
 4905 0e3f C5020000 		.4byte	0x2c5
 4906 0e43 02       		.uleb128 0x2
 4907 0e44 91       		.byte	0x91
 4908 0e45 6C       		.sleb128 -20
 4909 0e46 13       		.uleb128 0x13
 4910 0e47 BA080000 		.4byte	.LASF120
 4911 0e4b 01       		.byte	0x1
 4912 0e4c A203     		.2byte	0x3a2
 4913 0e4e 7B0A0000 		.4byte	0xa7b
 4914 0e52 02       		.uleb128 0x2
 4915 0e53 91       		.byte	0x91
 4916 0e54 68       		.sleb128 -24
 4917 0e55 15       		.uleb128 0x15
 4918 0e56 746D7000 		.ascii	"tmp\000"
 4919 0e5a 01       		.byte	0x1
 4920 0e5b A403     		.2byte	0x3a4
 4921 0e5d 97000000 		.4byte	0x97
ARM GAS  /tmp/ccJWCNBb.s 			page 88


 4922 0e61 02       		.uleb128 0x2
 4923 0e62 91       		.byte	0x91
 4924 0e63 77       		.sleb128 -9
 4925 0e64 00       		.byte	0
 4926 0e65 17       		.uleb128 0x17
 4927 0e66 57080000 		.4byte	.LASF141
 4928 0e6a 01       		.byte	0x1
 4929 0e6b B703     		.2byte	0x3b7
 4930 0e6d 10130000 		.4byte	.LFB37
 4931 0e71 1C000000 		.4byte	.LFE37-.LFB37
 4932 0e75 01       		.uleb128 0x1
 4933 0e76 9C       		.byte	0x9c
 4934 0e77 13       		.uleb128 0x13
 4935 0e78 2A070000 		.4byte	.LASF136
 4936 0e7c 01       		.byte	0x1
 4937 0e7d B703     		.2byte	0x3b7
 4938 0e7f 27030000 		.4byte	0x327
 4939 0e83 02       		.uleb128 0x2
 4940 0e84 91       		.byte	0x91
 4941 0e85 74       		.sleb128 -12
 4942 0e86 13       		.uleb128 0x13
 4943 0e87 D3020000 		.4byte	.LASF137
 4944 0e8b 01       		.byte	0x1
 4945 0e8c B703     		.2byte	0x3b7
 4946 0e8e B8000000 		.4byte	0xb8
 4947 0e92 02       		.uleb128 0x2
 4948 0e93 91       		.byte	0x91
 4949 0e94 70       		.sleb128 -16
 4950 0e95 00       		.byte	0
 4951 0e96 00       		.byte	0
 4952              		.section	.debug_abbrev,"",%progbits
 4953              	.Ldebug_abbrev0:
 4954 0000 01       		.uleb128 0x1
 4955 0001 11       		.uleb128 0x11
 4956 0002 01       		.byte	0x1
 4957 0003 25       		.uleb128 0x25
 4958 0004 0E       		.uleb128 0xe
 4959 0005 13       		.uleb128 0x13
 4960 0006 0B       		.uleb128 0xb
 4961 0007 03       		.uleb128 0x3
 4962 0008 0E       		.uleb128 0xe
 4963 0009 1B       		.uleb128 0x1b
 4964 000a 0E       		.uleb128 0xe
 4965 000b 11       		.uleb128 0x11
 4966 000c 01       		.uleb128 0x1
 4967 000d 12       		.uleb128 0x12
 4968 000e 06       		.uleb128 0x6
 4969 000f 10       		.uleb128 0x10
 4970 0010 17       		.uleb128 0x17
 4971 0011 00       		.byte	0
 4972 0012 00       		.byte	0
 4973 0013 02       		.uleb128 0x2
 4974 0014 24       		.uleb128 0x24
 4975 0015 00       		.byte	0
 4976 0016 0B       		.uleb128 0xb
 4977 0017 0B       		.uleb128 0xb
 4978 0018 3E       		.uleb128 0x3e
ARM GAS  /tmp/ccJWCNBb.s 			page 89


 4979 0019 0B       		.uleb128 0xb
 4980 001a 03       		.uleb128 0x3
 4981 001b 0E       		.uleb128 0xe
 4982 001c 00       		.byte	0
 4983 001d 00       		.byte	0
 4984 001e 03       		.uleb128 0x3
 4985 001f 16       		.uleb128 0x16
 4986 0020 00       		.byte	0
 4987 0021 03       		.uleb128 0x3
 4988 0022 0E       		.uleb128 0xe
 4989 0023 3A       		.uleb128 0x3a
 4990 0024 0B       		.uleb128 0xb
 4991 0025 3B       		.uleb128 0x3b
 4992 0026 0B       		.uleb128 0xb
 4993 0027 49       		.uleb128 0x49
 4994 0028 13       		.uleb128 0x13
 4995 0029 00       		.byte	0
 4996 002a 00       		.byte	0
 4997 002b 04       		.uleb128 0x4
 4998 002c 24       		.uleb128 0x24
 4999 002d 00       		.byte	0
 5000 002e 0B       		.uleb128 0xb
 5001 002f 0B       		.uleb128 0xb
 5002 0030 3E       		.uleb128 0x3e
 5003 0031 0B       		.uleb128 0xb
 5004 0032 03       		.uleb128 0x3
 5005 0033 08       		.uleb128 0x8
 5006 0034 00       		.byte	0
 5007 0035 00       		.byte	0
 5008 0036 05       		.uleb128 0x5
 5009 0037 04       		.uleb128 0x4
 5010 0038 01       		.byte	0x1
 5011 0039 0B       		.uleb128 0xb
 5012 003a 0B       		.uleb128 0xb
 5013 003b 3A       		.uleb128 0x3a
 5014 003c 0B       		.uleb128 0xb
 5015 003d 3B       		.uleb128 0x3b
 5016 003e 0B       		.uleb128 0xb
 5017 003f 01       		.uleb128 0x1
 5018 0040 13       		.uleb128 0x13
 5019 0041 00       		.byte	0
 5020 0042 00       		.byte	0
 5021 0043 06       		.uleb128 0x6
 5022 0044 28       		.uleb128 0x28
 5023 0045 00       		.byte	0
 5024 0046 03       		.uleb128 0x3
 5025 0047 0E       		.uleb128 0xe
 5026 0048 1C       		.uleb128 0x1c
 5027 0049 0D       		.uleb128 0xd
 5028 004a 00       		.byte	0
 5029 004b 00       		.byte	0
 5030 004c 07       		.uleb128 0x7
 5031 004d 13       		.uleb128 0x13
 5032 004e 01       		.byte	0x1
 5033 004f 0B       		.uleb128 0xb
 5034 0050 0B       		.uleb128 0xb
 5035 0051 3A       		.uleb128 0x3a
ARM GAS  /tmp/ccJWCNBb.s 			page 90


 5036 0052 0B       		.uleb128 0xb
 5037 0053 3B       		.uleb128 0x3b
 5038 0054 0B       		.uleb128 0xb
 5039 0055 01       		.uleb128 0x1
 5040 0056 13       		.uleb128 0x13
 5041 0057 00       		.byte	0
 5042 0058 00       		.byte	0
 5043 0059 08       		.uleb128 0x8
 5044 005a 0D       		.uleb128 0xd
 5045 005b 00       		.byte	0
 5046 005c 03       		.uleb128 0x3
 5047 005d 0E       		.uleb128 0xe
 5048 005e 3A       		.uleb128 0x3a
 5049 005f 0B       		.uleb128 0xb
 5050 0060 3B       		.uleb128 0x3b
 5051 0061 0B       		.uleb128 0xb
 5052 0062 49       		.uleb128 0x49
 5053 0063 13       		.uleb128 0x13
 5054 0064 38       		.uleb128 0x38
 5055 0065 0B       		.uleb128 0xb
 5056 0066 00       		.byte	0
 5057 0067 00       		.byte	0
 5058 0068 09       		.uleb128 0x9
 5059 0069 0D       		.uleb128 0xd
 5060 006a 00       		.byte	0
 5061 006b 03       		.uleb128 0x3
 5062 006c 08       		.uleb128 0x8
 5063 006d 3A       		.uleb128 0x3a
 5064 006e 0B       		.uleb128 0xb
 5065 006f 3B       		.uleb128 0x3b
 5066 0070 0B       		.uleb128 0xb
 5067 0071 49       		.uleb128 0x49
 5068 0072 13       		.uleb128 0x13
 5069 0073 38       		.uleb128 0x38
 5070 0074 0B       		.uleb128 0xb
 5071 0075 00       		.byte	0
 5072 0076 00       		.byte	0
 5073 0077 0A       		.uleb128 0xa
 5074 0078 0F       		.uleb128 0xf
 5075 0079 00       		.byte	0
 5076 007a 0B       		.uleb128 0xb
 5077 007b 0B       		.uleb128 0xb
 5078 007c 00       		.byte	0
 5079 007d 00       		.byte	0
 5080 007e 0B       		.uleb128 0xb
 5081 007f 2E       		.uleb128 0x2e
 5082 0080 01       		.byte	0x1
 5083 0081 3F       		.uleb128 0x3f
 5084 0082 19       		.uleb128 0x19
 5085 0083 03       		.uleb128 0x3
 5086 0084 0E       		.uleb128 0xe
 5087 0085 3A       		.uleb128 0x3a
 5088 0086 0B       		.uleb128 0xb
 5089 0087 3B       		.uleb128 0x3b
 5090 0088 0B       		.uleb128 0xb
 5091 0089 27       		.uleb128 0x27
 5092 008a 19       		.uleb128 0x19
ARM GAS  /tmp/ccJWCNBb.s 			page 91


 5093 008b 49       		.uleb128 0x49
 5094 008c 13       		.uleb128 0x13
 5095 008d 11       		.uleb128 0x11
 5096 008e 01       		.uleb128 0x1
 5097 008f 12       		.uleb128 0x12
 5098 0090 06       		.uleb128 0x6
 5099 0091 40       		.uleb128 0x40
 5100 0092 18       		.uleb128 0x18
 5101 0093 9642     		.uleb128 0x2116
 5102 0095 19       		.uleb128 0x19
 5103 0096 01       		.uleb128 0x1
 5104 0097 13       		.uleb128 0x13
 5105 0098 00       		.byte	0
 5106 0099 00       		.byte	0
 5107 009a 0C       		.uleb128 0xc
 5108 009b 05       		.uleb128 0x5
 5109 009c 00       		.byte	0
 5110 009d 03       		.uleb128 0x3
 5111 009e 0E       		.uleb128 0xe
 5112 009f 3A       		.uleb128 0x3a
 5113 00a0 0B       		.uleb128 0xb
 5114 00a1 3B       		.uleb128 0x3b
 5115 00a2 0B       		.uleb128 0xb
 5116 00a3 49       		.uleb128 0x49
 5117 00a4 13       		.uleb128 0x13
 5118 00a5 02       		.uleb128 0x2
 5119 00a6 18       		.uleb128 0x18
 5120 00a7 00       		.byte	0
 5121 00a8 00       		.byte	0
 5122 00a9 0D       		.uleb128 0xd
 5123 00aa 0F       		.uleb128 0xf
 5124 00ab 00       		.byte	0
 5125 00ac 0B       		.uleb128 0xb
 5126 00ad 0B       		.uleb128 0xb
 5127 00ae 49       		.uleb128 0x49
 5128 00af 13       		.uleb128 0x13
 5129 00b0 00       		.byte	0
 5130 00b1 00       		.byte	0
 5131 00b2 0E       		.uleb128 0xe
 5132 00b3 2E       		.uleb128 0x2e
 5133 00b4 01       		.byte	0x1
 5134 00b5 3F       		.uleb128 0x3f
 5135 00b6 19       		.uleb128 0x19
 5136 00b7 03       		.uleb128 0x3
 5137 00b8 0E       		.uleb128 0xe
 5138 00b9 3A       		.uleb128 0x3a
 5139 00ba 0B       		.uleb128 0xb
 5140 00bb 3B       		.uleb128 0x3b
 5141 00bc 0B       		.uleb128 0xb
 5142 00bd 27       		.uleb128 0x27
 5143 00be 19       		.uleb128 0x19
 5144 00bf 49       		.uleb128 0x49
 5145 00c0 13       		.uleb128 0x13
 5146 00c1 11       		.uleb128 0x11
 5147 00c2 01       		.uleb128 0x1
 5148 00c3 12       		.uleb128 0x12
 5149 00c4 06       		.uleb128 0x6
ARM GAS  /tmp/ccJWCNBb.s 			page 92


 5150 00c5 40       		.uleb128 0x40
 5151 00c6 18       		.uleb128 0x18
 5152 00c7 9742     		.uleb128 0x2117
 5153 00c9 19       		.uleb128 0x19
 5154 00ca 01       		.uleb128 0x1
 5155 00cb 13       		.uleb128 0x13
 5156 00cc 00       		.byte	0
 5157 00cd 00       		.byte	0
 5158 00ce 0F       		.uleb128 0xf
 5159 00cf 34       		.uleb128 0x34
 5160 00d0 00       		.byte	0
 5161 00d1 03       		.uleb128 0x3
 5162 00d2 0E       		.uleb128 0xe
 5163 00d3 3A       		.uleb128 0x3a
 5164 00d4 0B       		.uleb128 0xb
 5165 00d5 3B       		.uleb128 0x3b
 5166 00d6 0B       		.uleb128 0xb
 5167 00d7 49       		.uleb128 0x49
 5168 00d8 13       		.uleb128 0x13
 5169 00d9 02       		.uleb128 0x2
 5170 00da 18       		.uleb128 0x18
 5171 00db 00       		.byte	0
 5172 00dc 00       		.byte	0
 5173 00dd 10       		.uleb128 0x10
 5174 00de 01       		.uleb128 0x1
 5175 00df 01       		.byte	0x1
 5176 00e0 49       		.uleb128 0x49
 5177 00e1 13       		.uleb128 0x13
 5178 00e2 01       		.uleb128 0x1
 5179 00e3 13       		.uleb128 0x13
 5180 00e4 00       		.byte	0
 5181 00e5 00       		.byte	0
 5182 00e6 11       		.uleb128 0x11
 5183 00e7 21       		.uleb128 0x21
 5184 00e8 00       		.byte	0
 5185 00e9 49       		.uleb128 0x49
 5186 00ea 13       		.uleb128 0x13
 5187 00eb 2F       		.uleb128 0x2f
 5188 00ec 0B       		.uleb128 0xb
 5189 00ed 00       		.byte	0
 5190 00ee 00       		.byte	0
 5191 00ef 12       		.uleb128 0x12
 5192 00f0 2E       		.uleb128 0x2e
 5193 00f1 01       		.byte	0x1
 5194 00f2 3F       		.uleb128 0x3f
 5195 00f3 19       		.uleb128 0x19
 5196 00f4 03       		.uleb128 0x3
 5197 00f5 0E       		.uleb128 0xe
 5198 00f6 3A       		.uleb128 0x3a
 5199 00f7 0B       		.uleb128 0xb
 5200 00f8 3B       		.uleb128 0x3b
 5201 00f9 05       		.uleb128 0x5
 5202 00fa 27       		.uleb128 0x27
 5203 00fb 19       		.uleb128 0x19
 5204 00fc 49       		.uleb128 0x49
 5205 00fd 13       		.uleb128 0x13
 5206 00fe 11       		.uleb128 0x11
ARM GAS  /tmp/ccJWCNBb.s 			page 93


 5207 00ff 01       		.uleb128 0x1
 5208 0100 12       		.uleb128 0x12
 5209 0101 06       		.uleb128 0x6
 5210 0102 40       		.uleb128 0x40
 5211 0103 18       		.uleb128 0x18
 5212 0104 9642     		.uleb128 0x2116
 5213 0106 19       		.uleb128 0x19
 5214 0107 01       		.uleb128 0x1
 5215 0108 13       		.uleb128 0x13
 5216 0109 00       		.byte	0
 5217 010a 00       		.byte	0
 5218 010b 13       		.uleb128 0x13
 5219 010c 05       		.uleb128 0x5
 5220 010d 00       		.byte	0
 5221 010e 03       		.uleb128 0x3
 5222 010f 0E       		.uleb128 0xe
 5223 0110 3A       		.uleb128 0x3a
 5224 0111 0B       		.uleb128 0xb
 5225 0112 3B       		.uleb128 0x3b
 5226 0113 05       		.uleb128 0x5
 5227 0114 49       		.uleb128 0x49
 5228 0115 13       		.uleb128 0x13
 5229 0116 02       		.uleb128 0x2
 5230 0117 18       		.uleb128 0x18
 5231 0118 00       		.byte	0
 5232 0119 00       		.byte	0
 5233 011a 14       		.uleb128 0x14
 5234 011b 34       		.uleb128 0x34
 5235 011c 00       		.byte	0
 5236 011d 03       		.uleb128 0x3
 5237 011e 0E       		.uleb128 0xe
 5238 011f 3A       		.uleb128 0x3a
 5239 0120 0B       		.uleb128 0xb
 5240 0121 3B       		.uleb128 0x3b
 5241 0122 05       		.uleb128 0x5
 5242 0123 49       		.uleb128 0x49
 5243 0124 13       		.uleb128 0x13
 5244 0125 02       		.uleb128 0x2
 5245 0126 18       		.uleb128 0x18
 5246 0127 00       		.byte	0
 5247 0128 00       		.byte	0
 5248 0129 15       		.uleb128 0x15
 5249 012a 34       		.uleb128 0x34
 5250 012b 00       		.byte	0
 5251 012c 03       		.uleb128 0x3
 5252 012d 08       		.uleb128 0x8
 5253 012e 3A       		.uleb128 0x3a
 5254 012f 0B       		.uleb128 0xb
 5255 0130 3B       		.uleb128 0x3b
 5256 0131 05       		.uleb128 0x5
 5257 0132 49       		.uleb128 0x49
 5258 0133 13       		.uleb128 0x13
 5259 0134 02       		.uleb128 0x2
 5260 0135 18       		.uleb128 0x18
 5261 0136 00       		.byte	0
 5262 0137 00       		.byte	0
 5263 0138 16       		.uleb128 0x16
ARM GAS  /tmp/ccJWCNBb.s 			page 94


 5264 0139 05       		.uleb128 0x5
 5265 013a 00       		.byte	0
 5266 013b 03       		.uleb128 0x3
 5267 013c 08       		.uleb128 0x8
 5268 013d 3A       		.uleb128 0x3a
 5269 013e 0B       		.uleb128 0xb
 5270 013f 3B       		.uleb128 0x3b
 5271 0140 05       		.uleb128 0x5
 5272 0141 49       		.uleb128 0x49
 5273 0142 13       		.uleb128 0x13
 5274 0143 02       		.uleb128 0x2
 5275 0144 18       		.uleb128 0x18
 5276 0145 00       		.byte	0
 5277 0146 00       		.byte	0
 5278 0147 17       		.uleb128 0x17
 5279 0148 2E       		.uleb128 0x2e
 5280 0149 01       		.byte	0x1
 5281 014a 3F       		.uleb128 0x3f
 5282 014b 19       		.uleb128 0x19
 5283 014c 03       		.uleb128 0x3
 5284 014d 0E       		.uleb128 0xe
 5285 014e 3A       		.uleb128 0x3a
 5286 014f 0B       		.uleb128 0xb
 5287 0150 3B       		.uleb128 0x3b
 5288 0151 05       		.uleb128 0x5
 5289 0152 27       		.uleb128 0x27
 5290 0153 19       		.uleb128 0x19
 5291 0154 11       		.uleb128 0x11
 5292 0155 01       		.uleb128 0x1
 5293 0156 12       		.uleb128 0x12
 5294 0157 06       		.uleb128 0x6
 5295 0158 40       		.uleb128 0x40
 5296 0159 18       		.uleb128 0x18
 5297 015a 9642     		.uleb128 0x2116
 5298 015c 19       		.uleb128 0x19
 5299 015d 00       		.byte	0
 5300 015e 00       		.byte	0
 5301 015f 00       		.byte	0
 5302              		.section	.debug_aranges,"",%progbits
 5303 0000 1C000000 		.4byte	0x1c
 5304 0004 0200     		.2byte	0x2
 5305 0006 00000000 		.4byte	.Ldebug_info0
 5306 000a 04       		.byte	0x4
 5307 000b 00       		.byte	0
 5308 000c 0000     		.2byte	0
 5309 000e 0000     		.2byte	0
 5310 0010 00000000 		.4byte	.Ltext0
 5311 0014 2C130000 		.4byte	.Letext0-.Ltext0
 5312 0018 00000000 		.4byte	0
 5313 001c 00000000 		.4byte	0
 5314              		.section	.debug_line,"",%progbits
 5315              	.Ldebug_line0:
 5316 0000 D6030000 		.section	.debug_str,"MS",%progbits,1
 5316      02006201 
 5316      00000201 
 5316      FB0E0D00 
 5316      01010101 
ARM GAS  /tmp/ccJWCNBb.s 			page 95


 5317              	.LASF91:
 5318 0000 48305F54 		.ascii	"H0_T0_out\000"
 5318      305F6F75 
 5318      7400
 5319              	.LASF20:
 5320 000a 48545332 		.ascii	"HTS221_DISABLE\000"
 5320      32315F44 
 5320      49534142 
 5320      4C4500
 5321              	.LASF31:
 5322 0019 48545332 		.ascii	"HTS221_AVGH_128\000"
 5322      32315F41 
 5322      5647485F 
 5322      31323800 
 5323              	.LASF112:
 5324 0029 49735F4D 		.ascii	"Is_Measurement_Completed\000"
 5324      65617375 
 5324      72656D65 
 5324      6E745F43 
 5324      6F6D706C 
 5325              	.LASF138:
 5326 0042 474E5520 		.ascii	"GNU C 4.8.4 20140526 (release) [ARM/embedded-4_8-br"
 5326      4320342E 
 5326      382E3420 
 5326      32303134 
 5326      30353236 
 5327 0075 616E6368 		.ascii	"anch revision 211358] -mcpu=cortex-m4 -mno-thumb-in"
 5327      20726576 
 5327      6973696F 
 5327      6E203231 
 5327      31333538 
 5328 00a8 74657277 		.ascii	"terwork -mthumb -ggdb -O0 -std=c99 -fomit-frame-poi"
 5328      6F726B20 
 5328      2D6D7468 
 5328      756D6220 
 5328      2D676764 
 5329 00db 6E746572 		.ascii	"nter -falign-functions=16\000"
 5329      202D6661 
 5329      6C69676E 
 5329      2D66756E 
 5329      6374696F 
 5330              	.LASF125:
 5331 00f5 48545332 		.ascii	"HTS221_Get_Odr\000"
 5331      32315F47 
 5331      65745F4F 
 5331      647200
 5332              	.LASF54:
 5333 0104 48545332 		.ascii	"HTS221_DrdyLevel_et\000"
 5333      32315F44 
 5333      7264794C 
 5333      6576656C 
 5333      5F657400 
 5334              	.LASF109:
 5335 0118 48545332 		.ascii	"HTS221_Activate\000"
 5335      32315F41 
 5335      63746976 
 5335      61746500 
ARM GAS  /tmp/ccJWCNBb.s 			page 96


 5336              	.LASF2:
 5337 0128 5F5F7569 		.ascii	"__uint8_t\000"
 5337      6E74385F 
 5337      7400
 5338              	.LASF39:
 5339 0132 48545332 		.ascii	"HTS221_AVGT_32\000"
 5339      32315F41 
 5339      5647545F 
 5339      333200
 5340              	.LASF105:
 5341 0141 54305F64 		.ascii	"T0_degC\000"
 5341      65674300 
 5342              	.LASF73:
 5343 0149 48545332 		.ascii	"HTS221_ReadReg\000"
 5343      32315F52 
 5343      65616452 
 5343      656700
 5344              	.LASF101:
 5345 0158 54315F6F 		.ascii	"T1_out\000"
 5345      757400
 5346              	.LASF11:
 5347 015f 6C6F6E67 		.ascii	"long long unsigned int\000"
 5347      206C6F6E 
 5347      6720756E 
 5347      7369676E 
 5347      65642069 
 5348              	.LASF52:
 5349 0176 48545332 		.ascii	"HTS221_HIGH_LVL\000"
 5349      32315F48 
 5349      4947485F 
 5349      4C564C00 
 5350              	.LASF75:
 5351 0186 4E756D42 		.ascii	"NumByteToWrite\000"
 5351      79746554 
 5351      6F577269 
 5351      746500
 5352              	.LASF96:
 5353 0195 746D705F 		.ascii	"tmp_f\000"
 5353      6600
 5354              	.LASF122:
 5355 019b 48545332 		.ascii	"HTS221_Set_PowerDownMode\000"
 5355      32315F53 
 5355      65745F50 
 5355      6F776572 
 5355      446F776E 
 5356              	.LASF28:
 5357 01b4 48545332 		.ascii	"HTS221_AVGH_16\000"
 5357      32315F41 
 5357      5647485F 
 5357      313600
 5358              	.LASF14:
 5359 01c3 696E7431 		.ascii	"int16_t\000"
 5359      365F7400 
 5360              	.LASF10:
 5361 01cb 6C6F6E67 		.ascii	"long long int\000"
 5361      206C6F6E 
 5361      6720696E 
ARM GAS  /tmp/ccJWCNBb.s 			page 97


 5361      7400
 5362              	.LASF0:
 5363 01d9 7369676E 		.ascii	"signed char\000"
 5363      65642063 
 5363      68617200 
 5364              	.LASF33:
 5365 01e5 48545332 		.ascii	"HTS221_AVGH_512\000"
 5365      32315F41 
 5365      5647485F 
 5365      35313200 
 5366              	.LASF86:
 5367 01f5 68756D69 		.ascii	"humidity\000"
 5367      64697479 
 5367      00
 5368              	.LASF58:
 5369 01fe 48545332 		.ascii	"HTS221_DriverVersion_st\000"
 5369      32315F44 
 5369      72697665 
 5369      72566572 
 5369      73696F6E 
 5370              	.LASF63:
 5371 0216 6972715F 		.ascii	"irq_level\000"
 5371      6C657665 
 5371      6C00
 5372              	.LASF7:
 5373 0220 6C6F6E67 		.ascii	"long int\000"
 5373      20696E74 
 5373      00
 5374              	.LASF50:
 5375 0229 48545332 		.ascii	"HTS221_OPENDRAIN\000"
 5375      32315F4F 
 5375      50454E44 
 5375      5241494E 
 5375      00
 5376              	.LASF53:
 5377 023a 48545332 		.ascii	"HTS221_LOW_LVL\000"
 5377      32315F4C 
 5377      4F575F4C 
 5377      564C00
 5378              	.LASF116:
 5379 0249 48545332 		.ascii	"HTS221_Set_AvgH\000"
 5379      32315F53 
 5379      65745F41 
 5379      76674800 
 5380              	.LASF114:
 5381 0259 61766768 		.ascii	"avgh\000"
 5381      00
 5382              	.LASF56:
 5383 025e 4D696E6F 		.ascii	"Minor\000"
 5383      7200
 5384              	.LASF57:
 5385 0264 506F696E 		.ascii	"Point\000"
 5385      7400
 5386              	.LASF15:
 5387 026a 75696E74 		.ascii	"uint16_t\000"
 5387      31365F74 
 5387      00
ARM GAS  /tmp/ccJWCNBb.s 			page 98


 5388              	.LASF71:
 5389 0273 4E756D42 		.ascii	"NumByteToRead\000"
 5389      79746554 
 5389      6F526561 
 5389      6400
 5390              	.LASF24:
 5391 0281 48545332 		.ascii	"HTS221_SET\000"
 5391      32315F53 
 5391      455400
 5392              	.LASF117:
 5393 028c 48545332 		.ascii	"HTS221_Set_AvgT\000"
 5393      32315F53 
 5393      65745F41 
 5393      76675400 
 5394              	.LASF115:
 5395 029c 61766774 		.ascii	"avgt\000"
 5395      00
 5396              	.LASF87:
 5397 02a1 74656D70 		.ascii	"temperature\000"
 5397      65726174 
 5397      75726500 
 5398              	.LASF19:
 5399 02ad 48545332 		.ascii	"HTS221_Error_et\000"
 5399      32315F45 
 5399      72726F72 
 5399      5F657400 
 5400              	.LASF80:
 5401 02bd 48545332 		.ascii	"HTS221_Set_InitConfig\000"
 5401      32315F53 
 5401      65745F49 
 5401      6E697443 
 5401      6F6E6669 
 5402              	.LASF137:
 5403 02d3 6C696E65 		.ascii	"line\000"
 5403      00
 5404              	.LASF8:
 5405 02d8 5F5F7569 		.ascii	"__uint32_t\000"
 5405      6E743332 
 5405      5F7400
 5406              	.LASF44:
 5407 02e3 48545332 		.ascii	"HTS221_ODR_ONE_SHOT\000"
 5407      32315F4F 
 5407      44525F4F 
 5407      4E455F53 
 5407      484F5400 
 5408              	.LASF140:
 5409 02f7 2F752F65 		.ascii	"/u/elawton2/p442-submissions/sensortile/reference/b"
 5409      6C617774 
 5409      6F6E322F 
 5409      70343432 
 5409      2D737562 
 5410 032a 6C75656D 		.ascii	"luemicrosystem2/BlueMicrosystem2_V2.2.0/Projects/Mu"
 5410      6963726F 
 5410      73797374 
 5410      656D322F 
 5410      426C7565 
 5411 035d 6C74692F 		.ascii	"lti/Applications/BlueMicrosystem2/bluechibi\000"
ARM GAS  /tmp/ccJWCNBb.s 			page 99


 5411      4170706C 
 5411      69636174 
 5411      696F6E73 
 5411      2F426C75 
 5412              	.LASF132:
 5413 0389 48545332 		.ascii	"HTS221_Set_IrqOutputType\000"
 5413      32315F53 
 5413      65745F49 
 5413      72714F75 
 5413      74707574 
 5414              	.LASF3:
 5415 03a2 5F5F696E 		.ascii	"__int16_t\000"
 5415      7431365F 
 5415      7400
 5416              	.LASF74:
 5417 03ac 48545332 		.ascii	"HTS221_WriteReg\000"
 5417      32315F57 
 5417      72697465 
 5417      52656700 
 5418              	.LASF103:
 5419 03bc 54305F64 		.ascii	"T0_degC_x8_u16\000"
 5419      6567435F 
 5419      78385F75 
 5419      313600
 5420              	.LASF90:
 5421 03cb 76616C75 		.ascii	"value\000"
 5421      6500
 5422              	.LASF32:
 5423 03d1 48545332 		.ascii	"HTS221_AVGH_256\000"
 5423      32315F41 
 5423      5647485F 
 5423      32353600 
 5424              	.LASF12:
 5425 03e1 756E7369 		.ascii	"unsigned int\000"
 5425      676E6564 
 5425      20696E74 
 5425      00
 5426              	.LASF95:
 5427 03ee 48315F72 		.ascii	"H1_rh\000"
 5427      6800
 5428              	.LASF22:
 5429 03f4 48545332 		.ascii	"HTS221_State_et\000"
 5429      32315F53 
 5429      74617465 
 5429      5F657400 
 5430              	.LASF46:
 5431 0404 48545332 		.ascii	"HTS221_ODR_7HZ\000"
 5431      32315F4F 
 5431      44525F37 
 5431      485A00
 5432              	.LASF9:
 5433 0413 6C6F6E67 		.ascii	"long unsigned int\000"
 5433      20756E73 
 5433      69676E65 
 5433      6420696E 
 5433      7400
 5434              	.LASF139:
ARM GAS  /tmp/ccJWCNBb.s 			page 100


 5435 0425 2E2E2F2E 		.ascii	"../../../../../Drivers/BSP/Components/hts221/HTS221"
 5435      2E2F2E2E 
 5435      2F2E2E2F 
 5435      2E2E2F44 
 5435      72697665 
 5436 0458 5F447269 		.ascii	"_Driver.c\000"
 5436      7665722E 
 5436      6300
 5437              	.LASF29:
 5438 0462 48545332 		.ascii	"HTS221_AVGH_32\000"
 5438      32315F41 
 5438      5647485F 
 5438      333200
 5439              	.LASF107:
 5440 0471 48545332 		.ascii	"HTS221_Get_TemperatureRaw\000"
 5440      32315F47 
 5440      65745F54 
 5440      656D7065 
 5440      72617475 
 5441              	.LASF6:
 5442 048b 73686F72 		.ascii	"short unsigned int\000"
 5442      7420756E 
 5442      7369676E 
 5442      65642069 
 5442      6E7400
 5443              	.LASF110:
 5444 049e 48545332 		.ascii	"HTS221_DeActivate\000"
 5444      32315F44 
 5444      65416374 
 5444      69766174 
 5444      6500
 5445              	.LASF70:
 5446 04b0 52656741 		.ascii	"RegAddr\000"
 5446      64647200 
 5447              	.LASF18:
 5448 04b8 48545332 		.ascii	"HTS221_ERROR\000"
 5448      32315F45 
 5448      52524F52 
 5448      00
 5449              	.LASF43:
 5450 04c5 48545332 		.ascii	"HTS221_Avgt_et\000"
 5450      32315F41 
 5450      7667745F 
 5450      657400
 5451              	.LASF51:
 5452 04d4 48545332 		.ascii	"HTS221_OutputType_et\000"
 5452      32315F4F 
 5452      75747075 
 5452      74547970 
 5452      655F6574 
 5453              	.LASF113:
 5454 04e9 48545332 		.ascii	"HTS221_Set_AvgHT\000"
 5454      32315F53 
 5454      65745F41 
 5454      76674854 
 5454      00
 5455              	.LASF45:
ARM GAS  /tmp/ccJWCNBb.s 			page 101


 5456 04fa 48545332 		.ascii	"HTS221_ODR_1HZ\000"
 5456      32315F4F 
 5456      44525F31 
 5456      485A00
 5457              	.LASF78:
 5458 0509 48545332 		.ascii	"HTS221_Get_DeviceID\000"
 5458      32315F47 
 5458      65745F44 
 5458      65766963 
 5458      65494400 
 5459              	.LASF119:
 5460 051d 48545332 		.ascii	"HTS221_Set_BduMode\000"
 5460      32315F53 
 5460      65745F42 
 5460      64754D6F 
 5460      646500
 5461              	.LASF100:
 5462 0530 54305F6F 		.ascii	"T0_out\000"
 5462      757400
 5463              	.LASF40:
 5464 0537 48545332 		.ascii	"HTS221_AVGT_64\000"
 5464      32315F41 
 5464      5647545F 
 5464      363400
 5465              	.LASF127:
 5466 0546 48545332 		.ascii	"HTS221_Set_HeaterState\000"
 5466      32315F53 
 5466      65745F48 
 5466      65617465 
 5466      72537461 
 5467              	.LASF42:
 5468 055d 48545332 		.ascii	"HTS221_AVGT_256\000"
 5468      32315F41 
 5468      5647545F 
 5468      32353600 
 5469              	.LASF77:
 5470 056d 76657273 		.ascii	"version\000"
 5470      696F6E00 
 5471              	.LASF106:
 5472 0575 54315F64 		.ascii	"T1_degC\000"
 5472      65674300 
 5473              	.LASF88:
 5474 057d 48545332 		.ascii	"HTS221_Get_RawMeasurement\000"
 5474      32315F47 
 5474      65745F52 
 5474      61774D65 
 5474      61737572 
 5475              	.LASF67:
 5476 0597 73697A65 		.ascii	"sizetype\000"
 5476      74797065 
 5476      00
 5477              	.LASF59:
 5478 05a0 6176675F 		.ascii	"avg_h\000"
 5478      6800
 5479              	.LASF23:
 5480 05a6 48545332 		.ascii	"HTS221_RESET\000"
 5480      32315F52 
ARM GAS  /tmp/ccJWCNBb.s 			page 102


 5480      45534554 
 5480      00
 5481              	.LASF124:
 5482 05b3 48545332 		.ascii	"HTS221_Set_Odr\000"
 5482      32315F53 
 5482      65745F4F 
 5482      647200
 5483              	.LASF133:
 5484 05c2 48545332 		.ascii	"HTS221_Get_IrqOutputType\000"
 5484      32315F47 
 5484      65745F49 
 5484      72714F75 
 5484      74707574 
 5485              	.LASF92:
 5486 05db 48315F54 		.ascii	"H1_T0_out\000"
 5486      305F6F75 
 5486      7400
 5487              	.LASF48:
 5488 05e5 48545332 		.ascii	"HTS221_Odr_et\000"
 5488      32315F4F 
 5488      64725F65 
 5488      7400
 5489              	.LASF60:
 5490 05f3 6176675F 		.ascii	"avg_t\000"
 5490      7400
 5491              	.LASF130:
 5492 05f9 48545332 		.ascii	"HTS221_Set_IrqActiveLevel\000"
 5492      32315F53 
 5492      65745F49 
 5492      72714163 
 5492      74697665 
 5493              	.LASF49:
 5494 0613 48545332 		.ascii	"HTS221_PUSHPULL\000"
 5494      32315F50 
 5494      55534850 
 5494      554C4C00 
 5495              	.LASF82:
 5496 0623 48545332 		.ascii	"HTS221_Get_InitConfig\000"
 5496      32315F47 
 5496      65745F49 
 5496      6E697443 
 5496      6F6E6669 
 5497              	.LASF25:
 5498 0639 48545332 		.ascii	"HTS221_BitStatus_et\000"
 5498      32315F42 
 5498      69745374 
 5498      61747573 
 5498      5F657400 
 5499              	.LASF41:
 5500 064d 48545332 		.ascii	"HTS221_AVGT_128\000"
 5500      32315F41 
 5500      5647545F 
 5500      31323800 
 5501              	.LASF126:
 5502 065d 48545332 		.ascii	"HTS221_MemoryBoot\000"
 5502      32315F4D 
 5502      656D6F72 
ARM GAS  /tmp/ccJWCNBb.s 			page 103


 5502      79426F6F 
 5502      7400
 5503              	.LASF111:
 5504 066f 48545332 		.ascii	"HTS221_IsMeasurementCompleted\000"
 5504      32315F49 
 5504      734D6561 
 5504      73757265 
 5504      6D656E74 
 5505              	.LASF108:
 5506 068d 48545332 		.ascii	"HTS221_Get_DataStatus\000"
 5506      32315F47 
 5506      65745F44 
 5506      61746153 
 5506      74617475 
 5507              	.LASF97:
 5508 06a3 666C6F61 		.ascii	"float\000"
 5508      7400
 5509              	.LASF129:
 5510 06a9 48545332 		.ascii	"HTS221_StartOneShotMeasurement\000"
 5510      32315F53 
 5510      74617274 
 5510      4F6E6553 
 5510      686F744D 
 5511              	.LASF34:
 5512 06c8 48545332 		.ascii	"HTS221_Avgh_et\000"
 5512      32315F41 
 5512      7667685F 
 5512      657400
 5513              	.LASF36:
 5514 06d7 48545332 		.ascii	"HTS221_AVGT_4\000"
 5514      32315F41 
 5514      5647545F 
 5514      3400
 5515              	.LASF93:
 5516 06e5 485F545F 		.ascii	"H_T_out\000"
 5516      6F757400 
 5517              	.LASF37:
 5518 06ed 48545332 		.ascii	"HTS221_AVGT_8\000"
 5518      32315F41 
 5518      5647545F 
 5518      3800
 5519              	.LASF62:
 5520 06fb 68656174 		.ascii	"heater_status\000"
 5520      65725F73 
 5520      74617475 
 5520      7300
 5521              	.LASF1:
 5522 0709 756E7369 		.ascii	"unsigned char\000"
 5522      676E6564 
 5522      20636861 
 5522      7200
 5523              	.LASF79:
 5524 0717 64657669 		.ascii	"deviceid\000"
 5524      63656964 
 5524      00
 5525              	.LASF4:
 5526 0720 73686F72 		.ascii	"short int\000"
ARM GAS  /tmp/ccJWCNBb.s 			page 104


 5526      7420696E 
 5526      7400
 5527              	.LASF136:
 5528 072a 66696C65 		.ascii	"file\000"
 5528      00
 5529              	.LASF118:
 5530 072f 48545332 		.ascii	"HTS221_Get_AvgHT\000"
 5530      32315F47 
 5530      65745F41 
 5530      76674854 
 5530      00
 5531              	.LASF123:
 5532 0740 48545332 		.ascii	"HTS221_Get_PowerDownMode\000"
 5532      32315F47 
 5532      65745F50 
 5532      6F776572 
 5532      446F776E 
 5533              	.LASF104:
 5534 0759 54315F64 		.ascii	"T1_degC_x8_u16\000"
 5534      6567435F 
 5534      78385F75 
 5534      313600
 5535              	.LASF89:
 5536 0768 48545332 		.ascii	"HTS221_Get_Humidity\000"
 5536      32315F47 
 5536      65745F48 
 5536      756D6964 
 5536      69747900 
 5537              	.LASF128:
 5538 077c 48545332 		.ascii	"HTS221_Get_HeaterState\000"
 5538      32315F47 
 5538      65745F48 
 5538      65617465 
 5538      72537461 
 5539              	.LASF84:
 5540 0793 48545332 		.ascii	"HTS221_DeInit\000"
 5540      32315F44 
 5540      65496E69 
 5540      7400
 5541              	.LASF61:
 5542 07a1 6264755F 		.ascii	"bdu_status\000"
 5542      73746174 
 5542      757300
 5543              	.LASF16:
 5544 07ac 75696E74 		.ascii	"uint32_t\000"
 5544      33325F74 
 5544      00
 5545              	.LASF85:
 5546 07b5 48545332 		.ascii	"HTS221_Get_Measurement\000"
 5546      32315F47 
 5546      65745F4D 
 5546      65617375 
 5546      72656D65 
 5547              	.LASF135:
 5548 07cc 48545332 		.ascii	"HTS221_Get_IrqEnable\000"
 5548      32315F47 
 5548      65745F49 
ARM GAS  /tmp/ccJWCNBb.s 			page 105


 5548      7271456E 
 5548      61626C65 
 5549              	.LASF68:
 5550 07e1 63686172 		.ascii	"char\000"
 5550      00
 5551              	.LASF5:
 5552 07e6 5F5F7569 		.ascii	"__uint16_t\000"
 5552      6E743136 
 5552      5F7400
 5553              	.LASF30:
 5554 07f1 48545332 		.ascii	"HTS221_AVGH_64\000"
 5554      32315F41 
 5554      5647485F 
 5554      363400
 5555              	.LASF65:
 5556 0800 6972715F 		.ascii	"irq_enable\000"
 5556      656E6162 
 5556      6C6500
 5557              	.LASF26:
 5558 080b 48545332 		.ascii	"HTS221_AVGH_4\000"
 5558      32315F41 
 5558      5647485F 
 5558      3400
 5559              	.LASF27:
 5560 0819 48545332 		.ascii	"HTS221_AVGH_8\000"
 5560      32315F41 
 5560      5647485F 
 5560      3800
 5561              	.LASF83:
 5562 0827 62756666 		.ascii	"buffer\000"
 5562      657200
 5563              	.LASF64:
 5564 082e 6972715F 		.ascii	"irq_output_type\000"
 5564      6F757470 
 5564      75745F74 
 5564      79706500 
 5565              	.LASF38:
 5566 083e 48545332 		.ascii	"HTS221_AVGT_16\000"
 5566      32315F41 
 5566      5647545F 
 5566      313600
 5567              	.LASF17:
 5568 084d 48545332 		.ascii	"HTS221_OK\000"
 5568      32315F4F 
 5568      4B00
 5569              	.LASF141:
 5570 0857 48545332 		.ascii	"HTS221_assert_failed\000"
 5570      32315F61 
 5570      73736572 
 5570      745F6661 
 5570      696C6564 
 5571              	.LASF131:
 5572 086c 48545332 		.ascii	"HTS221_Get_IrqActiveLevel\000"
 5572      32315F47 
 5572      65745F49 
 5572      72714163 
 5572      74697665 
ARM GAS  /tmp/ccJWCNBb.s 			page 106


 5573              	.LASF21:
 5574 0886 48545332 		.ascii	"HTS221_ENABLE\000"
 5574      32315F45 
 5574      4E41424C 
 5574      4500
 5575              	.LASF55:
 5576 0894 4D616A6F 		.ascii	"Major\000"
 5576      7200
 5577              	.LASF102:
 5578 089a 545F6F75 		.ascii	"T_out\000"
 5578      7400
 5579              	.LASF121:
 5580 08a0 48545332 		.ascii	"HTS221_Get_BduMode\000"
 5580      32315F47 
 5580      65745F42 
 5580      64754D6F 
 5580      646500
 5581              	.LASF81:
 5582 08b3 7078496E 		.ascii	"pxInit\000"
 5582      697400
 5583              	.LASF120:
 5584 08ba 73746174 		.ascii	"status\000"
 5584      757300
 5585              	.LASF94:
 5586 08c1 48305F72 		.ascii	"H0_rh\000"
 5586      6800
 5587              	.LASF47:
 5588 08c7 48545332 		.ascii	"HTS221_ODR_12_5HZ\000"
 5588      32315F4F 
 5588      44525F31 
 5588      325F3548 
 5588      5A00
 5589              	.LASF35:
 5590 08d9 48545332 		.ascii	"HTS221_AVGT_2\000"
 5590      32315F41 
 5590      5647545F 
 5590      3200
 5591              	.LASF13:
 5592 08e7 75696E74 		.ascii	"uint8_t\000"
 5592      385F7400 
 5593              	.LASF72:
 5594 08ef 44617461 		.ascii	"Data\000"
 5594      00
 5595              	.LASF134:
 5596 08f4 48545332 		.ascii	"HTS221_Set_IrqEnable\000"
 5596      32315F53 
 5596      65745F49 
 5596      7271456E 
 5596      61626C65 
 5597              	.LASF66:
 5598 0909 48545332 		.ascii	"HTS221_Init_st\000"
 5598      32315F49 
 5598      6E69745F 
 5598      737400
 5599              	.LASF69:
 5600 0918 68616E64 		.ascii	"handle\000"
 5600      6C6500
ARM GAS  /tmp/ccJWCNBb.s 			page 107


 5601              	.LASF76:
 5602 091f 48545332 		.ascii	"HTS221_Get_DriverVersion\000"
 5602      32315F47 
 5602      65745F44 
 5602      72697665 
 5602      72566572 
 5603              	.LASF98:
 5604 0938 48545332 		.ascii	"HTS221_Get_HumidityRaw\000"
 5604      32315F47 
 5604      65745F48 
 5604      756D6964 
 5604      69747952 
 5605              	.LASF99:
 5606 094f 48545332 		.ascii	"HTS221_Get_Temperature\000"
 5606      32315F47 
 5606      65745F54 
 5606      656D7065 
 5606      72617475 
 5607              		.ident	"GCC: (GNU Tools for ARM Embedded Processors) 4.8.4 20140526 (release) [ARM/embedded-4_8-br
ARM GAS  /tmp/ccJWCNBb.s 			page 108


DEFINED SYMBOLS
                            *ABS*:00000000 HTS221_Driver.c
     /tmp/ccJWCNBb.s:18     .text:00000000 $t
     /tmp/ccJWCNBb.s:24     .text:00000000 HTS221_ReadReg
     /tmp/ccJWCNBb.s:73     .text:00000040 HTS221_WriteReg
     /tmp/ccJWCNBb.s:121    .text:00000080 HTS221_Get_DriverVersion
     /tmp/ccJWCNBb.s:159    .text:000000a0 HTS221_Get_DeviceID
     /tmp/ccJWCNBb.s:197    .rodata:00000000 $d
     /tmp/ccJWCNBb.s:208    .text:000000d0 HTS221_Set_InitConfig
     /tmp/ccJWCNBb.s:3063   .text:00001310 HTS221_assert_failed
     /tmp/ccJWCNBb.s:544    .text:00000344 $d
     /tmp/ccJWCNBb.s:548    .text:00000348 $t
     /tmp/ccJWCNBb.s:554    .text:00000350 HTS221_Get_InitConfig
     /tmp/ccJWCNBb.s:661    .text:00000410 HTS221_DeInit
     /tmp/ccJWCNBb.s:739    .text:00000480 HTS221_Get_Measurement
     /tmp/ccJWCNBb.s:1108   .text:000006d0 HTS221_Get_Temperature
     /tmp/ccJWCNBb.s:861    .text:00000520 HTS221_Get_Humidity
     /tmp/ccJWCNBb.s:792    .text:000004c0 HTS221_Get_RawMeasurement
     /tmp/ccJWCNBb.s:1044   .text:00000680 $d
     /tmp/ccJWCNBb.s:1049   .text:00000688 $t
     /tmp/ccJWCNBb.s:1055   .text:00000690 HTS221_Get_HumidityRaw
     /tmp/ccJWCNBb.s:1281   .text:00000830 $d
     /tmp/ccJWCNBb.s:1285   .text:00000834 $t
     /tmp/ccJWCNBb.s:1291   .text:00000840 HTS221_Get_TemperatureRaw
     /tmp/ccJWCNBb.s:1343   .text:00000880 HTS221_Get_DataStatus
     /tmp/ccJWCNBb.s:1400   .text:000008d0 HTS221_Activate
     /tmp/ccJWCNBb.s:1460   .text:00000920 HTS221_DeActivate
     /tmp/ccJWCNBb.s:1520   .text:00000970 HTS221_IsMeasurementCompleted
     /tmp/ccJWCNBb.s:1579   .text:000009c0 HTS221_Set_AvgHT
     /tmp/ccJWCNBb.s:1709   .text:00000ad0 $d
     /tmp/ccJWCNBb.s:1713   .text:00000ad4 $t
     /tmp/ccJWCNBb.s:1719   .text:00000ae0 HTS221_Set_AvgH
     /tmp/ccJWCNBb.s:1811   .text:00000b90 $d
     /tmp/ccJWCNBb.s:1815   .text:00000b94 $t
     /tmp/ccJWCNBb.s:1821   .text:00000ba0 HTS221_Set_AvgT
     /tmp/ccJWCNBb.s:1913   .text:00000c50 $d
     /tmp/ccJWCNBb.s:1917   .text:00000c54 $t
     /tmp/ccJWCNBb.s:1923   .text:00000c60 HTS221_Get_AvgHT
     /tmp/ccJWCNBb.s:1979   .text:00000cb0 HTS221_Set_BduMode
     /tmp/ccJWCNBb.s:2057   .text:00000d38 $d
     /tmp/ccJWCNBb.s:2061   .text:00000d3c $t
     /tmp/ccJWCNBb.s:2067   .text:00000d40 HTS221_Get_BduMode
     /tmp/ccJWCNBb.s:2117   .text:00000d80 HTS221_Set_PowerDownMode
     /tmp/ccJWCNBb.s:2195   .text:00000e08 $d
     /tmp/ccJWCNBb.s:2199   .text:00000e0c $t
     /tmp/ccJWCNBb.s:2205   .text:00000e10 HTS221_Get_PowerDownMode
     /tmp/ccJWCNBb.s:2254   .text:00000e50 HTS221_Set_Odr
     /tmp/ccJWCNBb.s:2334   .text:00000ee0 $d
     /tmp/ccJWCNBb.s:2338   .text:00000ee4 $t
     /tmp/ccJWCNBb.s:2344   .text:00000ef0 HTS221_Get_Odr
     /tmp/ccJWCNBb.s:2396   .text:00000f30 HTS221_MemoryBoot
     /tmp/ccJWCNBb.s:2456   .text:00000f80 HTS221_Set_HeaterState
     /tmp/ccJWCNBb.s:2534   .text:00001008 $d
     /tmp/ccJWCNBb.s:2538   .text:0000100c $t
     /tmp/ccJWCNBb.s:2544   .text:00001010 HTS221_Get_HeaterState
     /tmp/ccJWCNBb.s:2594   .text:00001050 HTS221_StartOneShotMeasurement
     /tmp/ccJWCNBb.s:2654   .text:000010a0 HTS221_Set_IrqActiveLevel
ARM GAS  /tmp/ccJWCNBb.s 			page 109


     /tmp/ccJWCNBb.s:2728   .text:00001120 $d
     /tmp/ccJWCNBb.s:2732   .text:00001124 $t
     /tmp/ccJWCNBb.s:2738   .text:00001130 HTS221_Get_IrqActiveLevel
     /tmp/ccJWCNBb.s:2787   .text:00001170 HTS221_Set_IrqOutputType
     /tmp/ccJWCNBb.s:2861   .text:000011f0 $d
     /tmp/ccJWCNBb.s:2865   .text:000011f4 $t
     /tmp/ccJWCNBb.s:2871   .text:00001200 HTS221_Get_IrqOutputType
     /tmp/ccJWCNBb.s:2920   .text:00001240 HTS221_Set_IrqEnable
     /tmp/ccJWCNBb.s:2998   .text:000012c8 $d
     /tmp/ccJWCNBb.s:3002   .text:000012cc $t
     /tmp/ccJWCNBb.s:3008   .text:000012d0 HTS221_Get_IrqEnable
     /tmp/ccJWCNBb.s:3088   .text:00001328 $d
                     .debug_frame:00000010 $d
     /tmp/ccJWCNBb.s:3096   .text:0000132c $t

UNDEFINED SYMBOLS
Sensor_IO_Read
Sensor_IO_Write
__aeabi_i2f
__aeabi_fmul
__aeabi_fdiv
__aeabi_fadd
__aeabi_fcmpgt
__aeabi_fcmplt
__aeabi_f2uiz
__aeabi_f2iz
printf
