ARM GAS  /tmp/cc13LZ9Z.s 			page 1


   1              		.syntax unified
   2              		.cpu cortex-m4
   3              		.fpu softvfp
   4              		.eabi_attribute 20, 1
   5              		.eabi_attribute 21, 1
   6              		.eabi_attribute 23, 3
   7              		.eabi_attribute 24, 1
   8              		.eabi_attribute 25, 1
   9              		.eabi_attribute 26, 1
  10              		.eabi_attribute 30, 6
  11              		.eabi_attribute 34, 1
  12              		.eabi_attribute 18, 4
  13              		.thumb
  14              		.file	"HTS221_Driver_HL.c"
  15              		.text
  16              	.Ltext0:
  17              		.cfi_sections	.debug_frame
  18              		.global	HTS221_H_Drv
  19              		.data
  20              		.align	2
  21              		.type	HTS221_H_Drv, %object
  22              		.size	HTS221_H_Drv, 52
  23              	HTS221_H_Drv:
  24 0000 00000000 		.word	HTS221_H_Init
  25 0004 00000000 		.word	HTS221_H_DeInit
  26 0008 00000000 		.word	HTS221_H_Sensor_Enable
  27 000c 00000000 		.word	HTS221_H_Sensor_Disable
  28 0010 00000000 		.word	HTS221_H_Get_WhoAmI
  29 0014 00000000 		.word	HTS221_H_Check_WhoAmI
  30 0018 00000000 		.word	HTS221_H_Get_Hum
  31 001c 00000000 		.word	HTS221_H_Get_ODR
  32 0020 00000000 		.word	HTS221_H_Set_ODR
  33 0024 00000000 		.word	HTS221_H_Set_ODR_Value
  34 0028 00000000 		.word	HTS221_H_Read_Reg
  35 002c 00000000 		.word	HTS221_H_Write_Reg
  36 0030 00000000 		.word	HTS221_H_Get_DRDY_Status
  37              		.global	HTS221_T_Drv
  38              		.align	2
  39              		.type	HTS221_T_Drv, %object
  40              		.size	HTS221_T_Drv, 52
  41              	HTS221_T_Drv:
  42 0034 00000000 		.word	HTS221_T_Init
  43 0038 00000000 		.word	HTS221_T_DeInit
  44 003c 00000000 		.word	HTS221_T_Sensor_Enable
  45 0040 00000000 		.word	HTS221_T_Sensor_Disable
  46 0044 00000000 		.word	HTS221_T_Get_WhoAmI
  47 0048 00000000 		.word	HTS221_T_Check_WhoAmI
  48 004c 00000000 		.word	HTS221_T_Get_Temp
  49 0050 00000000 		.word	HTS221_T_Get_ODR
  50 0054 00000000 		.word	HTS221_T_Set_ODR
  51 0058 00000000 		.word	HTS221_T_Set_ODR_Value
  52 005c 00000000 		.word	HTS221_T_Read_Reg
  53 0060 00000000 		.word	HTS221_T_Write_Reg
  54 0064 00000000 		.word	HTS221_T_Get_DRDY_Status
  55              		.comm	HTS221_Combo_Data,4,4
  56              		.text
  57              		.align	2
ARM GAS  /tmp/cc13LZ9Z.s 			page 2


  58              		.p2align 4,,15
  59              		.thumb
  60              		.thumb_func
  61              		.type	HTS221_H_Init, %function
  62              	HTS221_H_Init:
  63              	.LFB0:
  64              		.file 1 "../../../../../Drivers/BSP/Components/hts221/HTS221_Driver_HL.c"
  65              		.loc 1 178 0
  66              		.cfi_startproc
  67              		@ args = 0, pretend = 0, frame = 8
  68              		@ frame_needed = 0, uses_anonymous_args = 0
  69 0000 00B5     		push	{lr}
  70              		.cfi_def_cfa_offset 4
  71              		.cfi_offset 14, -4
  72 0002 83B0     		sub	sp, sp, #12
  73              		.cfi_def_cfa_offset 16
  74 0004 0190     		str	r0, [sp, #4]
  75              		.loc 1 182 0
  76 0006 019B     		ldr	r3, [sp, #4]
  77 0008 9B68     		ldr	r3, [r3, #8]
  78 000a 1B68     		ldr	r3, [r3]
  79 000c 1B68     		ldr	r3, [r3]
  80 000e 5B78     		ldrb	r3, [r3, #1]	@ zero_extendqisi2
  81 0010 002B     		cmp	r3, #0
  82 0012 07D1     		bne	.L2
  83              		.loc 1 184 0
  84 0014 0198     		ldr	r0, [sp, #4]
  85 0016 00F0A3FA 		bl	HTS221_Init
  86 001a 0346     		mov	r3, r0
  87 001c 012B     		cmp	r3, #1
  88 001e 01D1     		bne	.L2
  89              		.loc 1 186 0
  90 0020 0123     		movs	r3, #1
  91 0022 09E0     		b	.L3
  92              	.L2:
  93              		.loc 1 190 0
  94 0024 019B     		ldr	r3, [sp, #4]
  95 0026 9B68     		ldr	r3, [r3, #8]
  96 0028 1B68     		ldr	r3, [r3]
  97 002a 1B68     		ldr	r3, [r3]
  98 002c 0122     		movs	r2, #1
  99 002e 1A70     		strb	r2, [r3]
 100              		.loc 1 192 0
 101 0030 019B     		ldr	r3, [sp, #4]
 102 0032 0122     		movs	r2, #1
 103 0034 5A71     		strb	r2, [r3, #5]
 104              		.loc 1 194 0
 105 0036 0023     		movs	r3, #0
 106              	.L3:
 107              		.loc 1 195 0
 108 0038 1846     		mov	r0, r3
 109 003a 03B0     		add	sp, sp, #12
 110              		@ sp needed
 111 003c 5DF804FB 		ldr	pc, [sp], #4
 112              		.cfi_endproc
 113              	.LFE0:
 114              		.size	HTS221_H_Init, .-HTS221_H_Init
ARM GAS  /tmp/cc13LZ9Z.s 			page 3


 115              		.align	2
 116              		.p2align 4,,15
 117              		.thumb
 118              		.thumb_func
 119              		.type	HTS221_H_DeInit, %function
 120              	HTS221_H_DeInit:
 121              	.LFB1:
 122              		.loc 1 205 0
 123              		.cfi_startproc
 124              		@ args = 0, pretend = 0, frame = 8
 125              		@ frame_needed = 0, uses_anonymous_args = 0
 126 0040 00B5     		push	{lr}
 127              		.cfi_def_cfa_offset 4
 128              		.cfi_offset 14, -4
 129 0042 83B0     		sub	sp, sp, #12
 130              		.cfi_def_cfa_offset 16
 131 0044 0190     		str	r0, [sp, #4]
 132              		.loc 1 209 0
 133 0046 019B     		ldr	r3, [sp, #4]
 134 0048 9B68     		ldr	r3, [r3, #8]
 135 004a 1B68     		ldr	r3, [r3]
 136 004c 1B68     		ldr	r3, [r3]
 137 004e 5B78     		ldrb	r3, [r3, #1]	@ zero_extendqisi2
 138 0050 002B     		cmp	r3, #0
 139 0052 07D1     		bne	.L5
 140              		.loc 1 211 0
 141 0054 0198     		ldr	r0, [sp, #4]
 142 0056 00F03BF8 		bl	HTS221_H_Sensor_Disable
 143 005a 0346     		mov	r3, r0
 144 005c 012B     		cmp	r3, #1
 145 005e 01D1     		bne	.L5
 146              		.loc 1 213 0
 147 0060 0123     		movs	r3, #1
 148 0062 09E0     		b	.L6
 149              	.L5:
 150              		.loc 1 217 0
 151 0064 019B     		ldr	r3, [sp, #4]
 152 0066 9B68     		ldr	r3, [r3, #8]
 153 0068 1B68     		ldr	r3, [r3]
 154 006a 1B68     		ldr	r3, [r3]
 155 006c 0022     		movs	r2, #0
 156 006e 1A70     		strb	r2, [r3]
 157              		.loc 1 219 0
 158 0070 019B     		ldr	r3, [sp, #4]
 159 0072 0022     		movs	r2, #0
 160 0074 5A71     		strb	r2, [r3, #5]
 161              		.loc 1 221 0
 162 0076 0023     		movs	r3, #0
 163              	.L6:
 164              		.loc 1 222 0
 165 0078 1846     		mov	r0, r3
 166 007a 03B0     		add	sp, sp, #12
 167              		@ sp needed
 168 007c 5DF804FB 		ldr	pc, [sp], #4
 169              		.cfi_endproc
 170              	.LFE1:
 171              		.size	HTS221_H_DeInit, .-HTS221_H_DeInit
ARM GAS  /tmp/cc13LZ9Z.s 			page 4


 172              		.align	2
 173              		.p2align 4,,15
 174              		.thumb
 175              		.thumb_func
 176              		.type	HTS221_H_Sensor_Enable, %function
 177              	HTS221_H_Sensor_Enable:
 178              	.LFB2:
 179              		.loc 1 233 0
 180              		.cfi_startproc
 181              		@ args = 0, pretend = 0, frame = 8
 182              		@ frame_needed = 0, uses_anonymous_args = 0
 183 0080 00B5     		push	{lr}
 184              		.cfi_def_cfa_offset 4
 185              		.cfi_offset 14, -4
 186 0082 83B0     		sub	sp, sp, #12
 187              		.cfi_def_cfa_offset 16
 188 0084 0190     		str	r0, [sp, #4]
 189              		.loc 1 236 0
 190 0086 019B     		ldr	r3, [sp, #4]
 191 0088 9B79     		ldrb	r3, [r3, #6]	@ zero_extendqisi2
 192 008a 012B     		cmp	r3, #1
 193 008c 01D1     		bne	.L8
 194              		.loc 1 238 0
 195 008e 0023     		movs	r3, #0
 196 0090 18E0     		b	.L9
 197              	.L8:
 198              		.loc 1 243 0
 199 0092 019B     		ldr	r3, [sp, #4]
 200 0094 9B68     		ldr	r3, [r3, #8]
 201 0096 1B68     		ldr	r3, [r3]
 202 0098 1B68     		ldr	r3, [r3]
 203 009a DB78     		ldrb	r3, [r3, #3]	@ zero_extendqisi2
 204 009c 002B     		cmp	r3, #0
 205 009e 07D1     		bne	.L10
 206              		.loc 1 245 0
 207 00a0 0198     		ldr	r0, [sp, #4]
 208 00a2 00F08DFA 		bl	HTS221_Sensor_Enable
 209 00a6 0346     		mov	r3, r0
 210 00a8 012B     		cmp	r3, #1
 211 00aa 01D1     		bne	.L10
 212              		.loc 1 247 0
 213 00ac 0123     		movs	r3, #1
 214 00ae 09E0     		b	.L9
 215              	.L10:
 216              		.loc 1 251 0
 217 00b0 019B     		ldr	r3, [sp, #4]
 218 00b2 9B68     		ldr	r3, [r3, #8]
 219 00b4 1B68     		ldr	r3, [r3]
 220 00b6 1B68     		ldr	r3, [r3]
 221 00b8 0122     		movs	r2, #1
 222 00ba 9A70     		strb	r2, [r3, #2]
 223              		.loc 1 253 0
 224 00bc 019B     		ldr	r3, [sp, #4]
 225 00be 0122     		movs	r2, #1
 226 00c0 9A71     		strb	r2, [r3, #6]
 227              		.loc 1 255 0
 228 00c2 0023     		movs	r3, #0
ARM GAS  /tmp/cc13LZ9Z.s 			page 5


 229              	.L9:
 230              		.loc 1 256 0
 231 00c4 1846     		mov	r0, r3
 232 00c6 03B0     		add	sp, sp, #12
 233              		@ sp needed
 234 00c8 5DF804FB 		ldr	pc, [sp], #4
 235              		.cfi_endproc
 236              	.LFE2:
 237              		.size	HTS221_H_Sensor_Enable, .-HTS221_H_Sensor_Enable
 238              		.align	2
 239 00cc AFF30080 		.p2align 4,,15
 240              		.thumb
 241              		.thumb_func
 242              		.type	HTS221_H_Sensor_Disable, %function
 243              	HTS221_H_Sensor_Disable:
 244              	.LFB3:
 245              		.loc 1 266 0
 246              		.cfi_startproc
 247              		@ args = 0, pretend = 0, frame = 8
 248              		@ frame_needed = 0, uses_anonymous_args = 0
 249 00d0 00B5     		push	{lr}
 250              		.cfi_def_cfa_offset 4
 251              		.cfi_offset 14, -4
 252 00d2 83B0     		sub	sp, sp, #12
 253              		.cfi_def_cfa_offset 16
 254 00d4 0190     		str	r0, [sp, #4]
 255              		.loc 1 269 0
 256 00d6 019B     		ldr	r3, [sp, #4]
 257 00d8 9B79     		ldrb	r3, [r3, #6]	@ zero_extendqisi2
 258 00da 002B     		cmp	r3, #0
 259 00dc 01D1     		bne	.L12
 260              		.loc 1 271 0
 261 00de 0023     		movs	r3, #0
 262 00e0 18E0     		b	.L13
 263              	.L12:
 264              		.loc 1 276 0
 265 00e2 019B     		ldr	r3, [sp, #4]
 266 00e4 9B68     		ldr	r3, [r3, #8]
 267 00e6 1B68     		ldr	r3, [r3]
 268 00e8 1B68     		ldr	r3, [r3]
 269 00ea DB78     		ldrb	r3, [r3, #3]	@ zero_extendqisi2
 270 00ec 002B     		cmp	r3, #0
 271 00ee 07D1     		bne	.L14
 272              		.loc 1 278 0
 273 00f0 0198     		ldr	r0, [sp, #4]
 274 00f2 00F075FA 		bl	HTS221_Sensor_Disable
 275 00f6 0346     		mov	r3, r0
 276 00f8 012B     		cmp	r3, #1
 277 00fa 01D1     		bne	.L14
 278              		.loc 1 280 0
 279 00fc 0123     		movs	r3, #1
 280 00fe 09E0     		b	.L13
 281              	.L14:
 282              		.loc 1 284 0
 283 0100 019B     		ldr	r3, [sp, #4]
 284 0102 9B68     		ldr	r3, [r3, #8]
 285 0104 1B68     		ldr	r3, [r3]
ARM GAS  /tmp/cc13LZ9Z.s 			page 6


 286 0106 1B68     		ldr	r3, [r3]
 287 0108 0022     		movs	r2, #0
 288 010a 9A70     		strb	r2, [r3, #2]
 289              		.loc 1 286 0
 290 010c 019B     		ldr	r3, [sp, #4]
 291 010e 0022     		movs	r2, #0
 292 0110 9A71     		strb	r2, [r3, #6]
 293              		.loc 1 288 0
 294 0112 0023     		movs	r3, #0
 295              	.L13:
 296              		.loc 1 289 0
 297 0114 1846     		mov	r0, r3
 298 0116 03B0     		add	sp, sp, #12
 299              		@ sp needed
 300 0118 5DF804FB 		ldr	pc, [sp], #4
 301              		.cfi_endproc
 302              	.LFE3:
 303              		.size	HTS221_H_Sensor_Disable, .-HTS221_H_Sensor_Disable
 304              		.align	2
 305 011c AFF30080 		.p2align 4,,15
 306              		.thumb
 307              		.thumb_func
 308              		.type	HTS221_H_Get_WhoAmI, %function
 309              	HTS221_H_Get_WhoAmI:
 310              	.LFB4:
 311              		.loc 1 300 0
 312              		.cfi_startproc
 313              		@ args = 0, pretend = 0, frame = 8
 314              		@ frame_needed = 0, uses_anonymous_args = 0
 315 0120 00B5     		push	{lr}
 316              		.cfi_def_cfa_offset 4
 317              		.cfi_offset 14, -4
 318 0122 83B0     		sub	sp, sp, #12
 319              		.cfi_def_cfa_offset 16
 320 0124 0190     		str	r0, [sp, #4]
 321 0126 0091     		str	r1, [sp]
 322              		.loc 1 302 0
 323 0128 0198     		ldr	r0, [sp, #4]
 324 012a 0099     		ldr	r1, [sp]
 325 012c 00F068FA 		bl	HTS221_Get_WhoAmI
 326 0130 0346     		mov	r3, r0
 327              		.loc 1 303 0
 328 0132 1846     		mov	r0, r3
 329 0134 03B0     		add	sp, sp, #12
 330              		@ sp needed
 331 0136 5DF804FB 		ldr	pc, [sp], #4
 332              		.cfi_endproc
 333              	.LFE4:
 334              		.size	HTS221_H_Get_WhoAmI, .-HTS221_H_Get_WhoAmI
 335 013a 00BF     		.align	2
 336 013c AFF30080 		.p2align 4,,15
 337              		.thumb
 338              		.thumb_func
 339              		.type	HTS221_H_Check_WhoAmI, %function
 340              	HTS221_H_Check_WhoAmI:
 341              	.LFB5:
 342              		.loc 1 313 0
ARM GAS  /tmp/cc13LZ9Z.s 			page 7


 343              		.cfi_startproc
 344              		@ args = 0, pretend = 0, frame = 8
 345              		@ frame_needed = 0, uses_anonymous_args = 0
 346 0140 00B5     		push	{lr}
 347              		.cfi_def_cfa_offset 4
 348              		.cfi_offset 14, -4
 349 0142 83B0     		sub	sp, sp, #12
 350              		.cfi_def_cfa_offset 16
 351 0144 0190     		str	r0, [sp, #4]
 352              		.loc 1 315 0
 353 0146 0198     		ldr	r0, [sp, #4]
 354 0148 00F072FA 		bl	HTS221_Check_WhoAmI
 355 014c 0346     		mov	r3, r0
 356              		.loc 1 316 0
 357 014e 1846     		mov	r0, r3
 358 0150 03B0     		add	sp, sp, #12
 359              		@ sp needed
 360 0152 5DF804FB 		ldr	pc, [sp], #4
 361              		.cfi_endproc
 362              	.LFE5:
 363              		.size	HTS221_H_Check_WhoAmI, .-HTS221_H_Check_WhoAmI
 364 0156 00BF     		.align	2
 365 0158 AFF30080 		.p2align 4,,15
 365      AFF30080 
 366              		.thumb
 367              		.thumb_func
 368              		.type	HTS221_H_Get_Hum, %function
 369              	HTS221_H_Get_Hum:
 370              	.LFB6:
 371              		.loc 1 327 0
 372              		.cfi_startproc
 373              		@ args = 0, pretend = 0, frame = 8
 374              		@ frame_needed = 0, uses_anonymous_args = 0
 375 0160 00B5     		push	{lr}
 376              		.cfi_def_cfa_offset 4
 377              		.cfi_offset 14, -4
 378 0162 83B0     		sub	sp, sp, #12
 379              		.cfi_def_cfa_offset 16
 380 0164 0190     		str	r0, [sp, #4]
 381 0166 0091     		str	r1, [sp]
 382              		.loc 1 329 0
 383 0168 0198     		ldr	r0, [sp, #4]
 384 016a 0099     		ldr	r1, [sp]
 385 016c 00F080FA 		bl	HTS221_Get_Hum
 386 0170 0346     		mov	r3, r0
 387              		.loc 1 330 0
 388 0172 1846     		mov	r0, r3
 389 0174 03B0     		add	sp, sp, #12
 390              		@ sp needed
 391 0176 5DF804FB 		ldr	pc, [sp], #4
 392              		.cfi_endproc
 393              	.LFE6:
 394              		.size	HTS221_H_Get_Hum, .-HTS221_H_Get_Hum
 395 017a 00BF     		.align	2
 396 017c AFF30080 		.p2align 4,,15
 397              		.thumb
 398              		.thumb_func
ARM GAS  /tmp/cc13LZ9Z.s 			page 8


 399              		.type	HTS221_H_Get_ODR, %function
 400              	HTS221_H_Get_ODR:
 401              	.LFB7:
 402              		.loc 1 341 0
 403              		.cfi_startproc
 404              		@ args = 0, pretend = 0, frame = 8
 405              		@ frame_needed = 0, uses_anonymous_args = 0
 406 0180 00B5     		push	{lr}
 407              		.cfi_def_cfa_offset 4
 408              		.cfi_offset 14, -4
 409 0182 83B0     		sub	sp, sp, #12
 410              		.cfi_def_cfa_offset 16
 411 0184 0190     		str	r0, [sp, #4]
 412 0186 0091     		str	r1, [sp]
 413              		.loc 1 343 0
 414 0188 0198     		ldr	r0, [sp, #4]
 415 018a 0099     		ldr	r1, [sp]
 416 018c 00F0C0FA 		bl	HTS221_Get_ODR
 417 0190 0346     		mov	r3, r0
 418              		.loc 1 344 0
 419 0192 1846     		mov	r0, r3
 420 0194 03B0     		add	sp, sp, #12
 421              		@ sp needed
 422 0196 5DF804FB 		ldr	pc, [sp], #4
 423              		.cfi_endproc
 424              	.LFE7:
 425              		.size	HTS221_H_Get_ODR, .-HTS221_H_Get_ODR
 426 019a 00BF     		.align	2
 427 019c AFF30080 		.p2align 4,,15
 428              		.thumb
 429              		.thumb_func
 430              		.type	HTS221_H_Set_ODR, %function
 431              	HTS221_H_Set_ODR:
 432              	.LFB8:
 433              		.loc 1 355 0
 434              		.cfi_startproc
 435              		@ args = 0, pretend = 0, frame = 8
 436              		@ frame_needed = 0, uses_anonymous_args = 0
 437 01a0 00B5     		push	{lr}
 438              		.cfi_def_cfa_offset 4
 439              		.cfi_offset 14, -4
 440 01a2 83B0     		sub	sp, sp, #12
 441              		.cfi_def_cfa_offset 16
 442 01a4 0190     		str	r0, [sp, #4]
 443 01a6 0B46     		mov	r3, r1
 444 01a8 8DF80330 		strb	r3, [sp, #3]
 445              		.loc 1 357 0
 446 01ac 9DF80330 		ldrb	r3, [sp, #3]	@ zero_extendqisi2
 447 01b0 0198     		ldr	r0, [sp, #4]
 448 01b2 1946     		mov	r1, r3
 449 01b4 00F0ECFA 		bl	HTS221_Set_ODR
 450 01b8 0346     		mov	r3, r0
 451              		.loc 1 358 0
 452 01ba 1846     		mov	r0, r3
 453 01bc 03B0     		add	sp, sp, #12
 454              		@ sp needed
 455 01be 5DF804FB 		ldr	pc, [sp], #4
ARM GAS  /tmp/cc13LZ9Z.s 			page 9


 456              		.cfi_endproc
 457              	.LFE8:
 458              		.size	HTS221_H_Set_ODR, .-HTS221_H_Set_ODR
 459 01c2 00BF     		.align	2
 460 01c4 AFF30080 		.p2align 4,,15
 460      AFF30080 
 460      AFF30080 
 461              		.thumb
 462              		.thumb_func
 463              		.type	HTS221_H_Set_ODR_Value, %function
 464              	HTS221_H_Set_ODR_Value:
 465              	.LFB9:
 466              		.loc 1 369 0
 467              		.cfi_startproc
 468              		@ args = 0, pretend = 0, frame = 8
 469              		@ frame_needed = 0, uses_anonymous_args = 0
 470 01d0 00B5     		push	{lr}
 471              		.cfi_def_cfa_offset 4
 472              		.cfi_offset 14, -4
 473 01d2 83B0     		sub	sp, sp, #12
 474              		.cfi_def_cfa_offset 16
 475 01d4 0190     		str	r0, [sp, #4]
 476 01d6 0091     		str	r1, [sp]	@ float
 477              		.loc 1 371 0
 478 01d8 0198     		ldr	r0, [sp, #4]
 479 01da 0099     		ldr	r1, [sp]	@ float
 480 01dc 00F018FB 		bl	HTS221_Set_ODR_Value
 481 01e0 0346     		mov	r3, r0
 482              		.loc 1 372 0
 483 01e2 1846     		mov	r0, r3
 484 01e4 03B0     		add	sp, sp, #12
 485              		@ sp needed
 486 01e6 5DF804FB 		ldr	pc, [sp], #4
 487              		.cfi_endproc
 488              	.LFE9:
 489              		.size	HTS221_H_Set_ODR_Value, .-HTS221_H_Set_ODR_Value
 490 01ea 00BF     		.align	2
 491 01ec AFF30080 		.p2align 4,,15
 492              		.thumb
 493              		.thumb_func
 494              		.type	HTS221_H_Read_Reg, %function
 495              	HTS221_H_Read_Reg:
 496              	.LFB10:
 497              		.loc 1 384 0
 498              		.cfi_startproc
 499              		@ args = 0, pretend = 0, frame = 16
 500              		@ frame_needed = 0, uses_anonymous_args = 0
 501 01f0 00B5     		push	{lr}
 502              		.cfi_def_cfa_offset 4
 503              		.cfi_offset 14, -4
 504 01f2 85B0     		sub	sp, sp, #20
 505              		.cfi_def_cfa_offset 24
 506 01f4 0390     		str	r0, [sp, #12]
 507 01f6 0B46     		mov	r3, r1
 508 01f8 0192     		str	r2, [sp, #4]
 509 01fa 8DF80B30 		strb	r3, [sp, #11]
 510              		.loc 1 386 0
ARM GAS  /tmp/cc13LZ9Z.s 			page 10


 511 01fe 9DF80B30 		ldrb	r3, [sp, #11]	@ zero_extendqisi2
 512 0202 0398     		ldr	r0, [sp, #12]
 513 0204 1946     		mov	r1, r3
 514 0206 019A     		ldr	r2, [sp, #4]
 515 0208 00F032FB 		bl	HTS221_Read_Reg
 516 020c 0346     		mov	r3, r0
 517 020e 012B     		cmp	r3, #1
 518 0210 01D1     		bne	.L28
 519              		.loc 1 388 0
 520 0212 0123     		movs	r3, #1
 521 0214 00E0     		b	.L29
 522              	.L28:
 523              		.loc 1 391 0
 524 0216 0023     		movs	r3, #0
 525              	.L29:
 526              		.loc 1 392 0
 527 0218 1846     		mov	r0, r3
 528 021a 05B0     		add	sp, sp, #20
 529              		@ sp needed
 530 021c 5DF804FB 		ldr	pc, [sp], #4
 531              		.cfi_endproc
 532              	.LFE10:
 533              		.size	HTS221_H_Read_Reg, .-HTS221_H_Read_Reg
 534              		.align	2
 535              		.p2align 4,,15
 536              		.thumb
 537              		.thumb_func
 538              		.type	HTS221_H_Write_Reg, %function
 539              	HTS221_H_Write_Reg:
 540              	.LFB11:
 541              		.loc 1 404 0
 542              		.cfi_startproc
 543              		@ args = 0, pretend = 0, frame = 8
 544              		@ frame_needed = 0, uses_anonymous_args = 0
 545 0220 00B5     		push	{lr}
 546              		.cfi_def_cfa_offset 4
 547              		.cfi_offset 14, -4
 548 0222 83B0     		sub	sp, sp, #12
 549              		.cfi_def_cfa_offset 16
 550 0224 0190     		str	r0, [sp, #4]
 551 0226 1346     		mov	r3, r2
 552 0228 0A46     		mov	r2, r1
 553 022a 8DF80320 		strb	r2, [sp, #3]
 554 022e 8DF80230 		strb	r3, [sp, #2]
 555              		.loc 1 406 0
 556 0232 9DF80320 		ldrb	r2, [sp, #3]	@ zero_extendqisi2
 557 0236 9DF80230 		ldrb	r3, [sp, #2]	@ zero_extendqisi2
 558 023a 0198     		ldr	r0, [sp, #4]
 559 023c 1146     		mov	r1, r2
 560 023e 1A46     		mov	r2, r3
 561 0240 00F036FB 		bl	HTS221_Write_Reg
 562 0244 0346     		mov	r3, r0
 563 0246 012B     		cmp	r3, #1
 564 0248 01D1     		bne	.L31
 565              		.loc 1 408 0
 566 024a 0123     		movs	r3, #1
 567 024c 00E0     		b	.L32
ARM GAS  /tmp/cc13LZ9Z.s 			page 11


 568              	.L31:
 569              		.loc 1 411 0
 570 024e 0023     		movs	r3, #0
 571              	.L32:
 572              		.loc 1 412 0
 573 0250 1846     		mov	r0, r3
 574 0252 03B0     		add	sp, sp, #12
 575              		@ sp needed
 576 0254 5DF804FB 		ldr	pc, [sp], #4
 577              		.cfi_endproc
 578              	.LFE11:
 579              		.size	HTS221_H_Write_Reg, .-HTS221_H_Write_Reg
 580              		.align	2
 581 0258 AFF30080 		.p2align 4,,15
 581      AFF30080 
 582              		.thumb
 583              		.thumb_func
 584              		.type	HTS221_H_Get_DRDY_Status, %function
 585              	HTS221_H_Get_DRDY_Status:
 586              	.LFB12:
 587              		.loc 1 423 0
 588              		.cfi_startproc
 589              		@ args = 0, pretend = 0, frame = 16
 590              		@ frame_needed = 0, uses_anonymous_args = 0
 591 0260 00B5     		push	{lr}
 592              		.cfi_def_cfa_offset 4
 593              		.cfi_offset 14, -4
 594 0262 85B0     		sub	sp, sp, #20
 595              		.cfi_def_cfa_offset 24
 596 0264 0190     		str	r0, [sp, #4]
 597 0266 0091     		str	r1, [sp]
 598              		.loc 1 428 0
 599 0268 0DF10F02 		add	r2, sp, #15
 600 026c 0DF10E03 		add	r3, sp, #14
 601 0270 0198     		ldr	r0, [sp, #4]
 602 0272 1146     		mov	r1, r2
 603 0274 1A46     		mov	r2, r3
 604 0276 FFF7FEFF 		bl	HTS221_Get_DataStatus
 605 027a 0346     		mov	r3, r0
 606 027c 012B     		cmp	r3, #1
 607 027e 01D1     		bne	.L34
 608              		.loc 1 430 0
 609 0280 0123     		movs	r3, #1
 610 0282 10E0     		b	.L40
 611              	.L34:
 612              		.loc 1 433 0
 613 0284 9DF80F30 		ldrb	r3, [sp, #15]	@ zero_extendqisi2
 614 0288 002B     		cmp	r3, #0
 615 028a 05D0     		beq	.L37
 616 028c 012B     		cmp	r3, #1
 617 028e 07D1     		bne	.L41
 618              		.loc 1 436 0
 619 0290 009B     		ldr	r3, [sp]
 620 0292 0122     		movs	r2, #1
 621 0294 1A70     		strb	r2, [r3]
 622              		.loc 1 437 0
 623 0296 05E0     		b	.L39
ARM GAS  /tmp/cc13LZ9Z.s 			page 12


 624              	.L37:
 625              		.loc 1 439 0
 626 0298 009B     		ldr	r3, [sp]
 627 029a 0022     		movs	r2, #0
 628 029c 1A70     		strb	r2, [r3]
 629              		.loc 1 440 0
 630 029e 01E0     		b	.L39
 631              	.L41:
 632              		.loc 1 442 0
 633 02a0 0123     		movs	r3, #1
 634 02a2 00E0     		b	.L40
 635              	.L39:
 636              		.loc 1 445 0
 637 02a4 0023     		movs	r3, #0
 638              	.L40:
 639              		.loc 1 446 0
 640 02a6 1846     		mov	r0, r3
 641 02a8 05B0     		add	sp, sp, #20
 642              		@ sp needed
 643 02aa 5DF804FB 		ldr	pc, [sp], #4
 644              		.cfi_endproc
 645              	.LFE12:
 646              		.size	HTS221_H_Get_DRDY_Status, .-HTS221_H_Get_DRDY_Status
 647 02ae 00BF     		.align	2
 648              		.p2align 4,,15
 649              		.thumb
 650              		.thumb_func
 651              		.type	HTS221_T_Init, %function
 652              	HTS221_T_Init:
 653              	.LFB13:
 654              		.loc 1 456 0
 655              		.cfi_startproc
 656              		@ args = 0, pretend = 0, frame = 8
 657              		@ frame_needed = 0, uses_anonymous_args = 0
 658 02b0 00B5     		push	{lr}
 659              		.cfi_def_cfa_offset 4
 660              		.cfi_offset 14, -4
 661 02b2 83B0     		sub	sp, sp, #12
 662              		.cfi_def_cfa_offset 16
 663 02b4 0190     		str	r0, [sp, #4]
 664              		.loc 1 460 0
 665 02b6 019B     		ldr	r3, [sp, #4]
 666 02b8 9B68     		ldr	r3, [r3, #8]
 667 02ba 1B68     		ldr	r3, [r3]
 668 02bc 1B68     		ldr	r3, [r3]
 669 02be 1B78     		ldrb	r3, [r3]	@ zero_extendqisi2
 670 02c0 002B     		cmp	r3, #0
 671 02c2 07D1     		bne	.L43
 672              		.loc 1 462 0
 673 02c4 0198     		ldr	r0, [sp, #4]
 674 02c6 00F04BF9 		bl	HTS221_Init
 675 02ca 0346     		mov	r3, r0
 676 02cc 012B     		cmp	r3, #1
 677 02ce 01D1     		bne	.L43
 678              		.loc 1 464 0
 679 02d0 0123     		movs	r3, #1
 680 02d2 09E0     		b	.L44
ARM GAS  /tmp/cc13LZ9Z.s 			page 13


 681              	.L43:
 682              		.loc 1 468 0
 683 02d4 019B     		ldr	r3, [sp, #4]
 684 02d6 9B68     		ldr	r3, [r3, #8]
 685 02d8 1B68     		ldr	r3, [r3]
 686 02da 1B68     		ldr	r3, [r3]
 687 02dc 0122     		movs	r2, #1
 688 02de 5A70     		strb	r2, [r3, #1]
 689              		.loc 1 470 0
 690 02e0 019B     		ldr	r3, [sp, #4]
 691 02e2 0122     		movs	r2, #1
 692 02e4 5A71     		strb	r2, [r3, #5]
 693              		.loc 1 472 0
 694 02e6 0023     		movs	r3, #0
 695              	.L44:
 696              		.loc 1 473 0
 697 02e8 1846     		mov	r0, r3
 698 02ea 03B0     		add	sp, sp, #12
 699              		@ sp needed
 700 02ec 5DF804FB 		ldr	pc, [sp], #4
 701              		.cfi_endproc
 702              	.LFE13:
 703              		.size	HTS221_T_Init, .-HTS221_T_Init
 704              		.align	2
 705              		.p2align 4,,15
 706              		.thumb
 707              		.thumb_func
 708              		.type	HTS221_T_DeInit, %function
 709              	HTS221_T_DeInit:
 710              	.LFB14:
 711              		.loc 1 483 0
 712              		.cfi_startproc
 713              		@ args = 0, pretend = 0, frame = 8
 714              		@ frame_needed = 0, uses_anonymous_args = 0
 715 02f0 00B5     		push	{lr}
 716              		.cfi_def_cfa_offset 4
 717              		.cfi_offset 14, -4
 718 02f2 83B0     		sub	sp, sp, #12
 719              		.cfi_def_cfa_offset 16
 720 02f4 0190     		str	r0, [sp, #4]
 721              		.loc 1 487 0
 722 02f6 019B     		ldr	r3, [sp, #4]
 723 02f8 9B68     		ldr	r3, [r3, #8]
 724 02fa 1B68     		ldr	r3, [r3]
 725 02fc 1B68     		ldr	r3, [r3]
 726 02fe 1B78     		ldrb	r3, [r3]	@ zero_extendqisi2
 727 0300 002B     		cmp	r3, #0
 728 0302 07D1     		bne	.L46
 729              		.loc 1 489 0
 730 0304 0198     		ldr	r0, [sp, #4]
 731 0306 00F03BF8 		bl	HTS221_T_Sensor_Disable
 732 030a 0346     		mov	r3, r0
 733 030c 012B     		cmp	r3, #1
 734 030e 01D1     		bne	.L46
 735              		.loc 1 491 0
 736 0310 0123     		movs	r3, #1
 737 0312 09E0     		b	.L47
ARM GAS  /tmp/cc13LZ9Z.s 			page 14


 738              	.L46:
 739              		.loc 1 495 0
 740 0314 019B     		ldr	r3, [sp, #4]
 741 0316 9B68     		ldr	r3, [r3, #8]
 742 0318 1B68     		ldr	r3, [r3]
 743 031a 1B68     		ldr	r3, [r3]
 744 031c 0022     		movs	r2, #0
 745 031e 5A70     		strb	r2, [r3, #1]
 746              		.loc 1 497 0
 747 0320 019B     		ldr	r3, [sp, #4]
 748 0322 0022     		movs	r2, #0
 749 0324 5A71     		strb	r2, [r3, #5]
 750              		.loc 1 499 0
 751 0326 0023     		movs	r3, #0
 752              	.L47:
 753              		.loc 1 500 0
 754 0328 1846     		mov	r0, r3
 755 032a 03B0     		add	sp, sp, #12
 756              		@ sp needed
 757 032c 5DF804FB 		ldr	pc, [sp], #4
 758              		.cfi_endproc
 759              	.LFE14:
 760              		.size	HTS221_T_DeInit, .-HTS221_T_DeInit
 761              		.align	2
 762              		.p2align 4,,15
 763              		.thumb
 764              		.thumb_func
 765              		.type	HTS221_T_Sensor_Enable, %function
 766              	HTS221_T_Sensor_Enable:
 767              	.LFB15:
 768              		.loc 1 510 0
 769              		.cfi_startproc
 770              		@ args = 0, pretend = 0, frame = 8
 771              		@ frame_needed = 0, uses_anonymous_args = 0
 772 0330 00B5     		push	{lr}
 773              		.cfi_def_cfa_offset 4
 774              		.cfi_offset 14, -4
 775 0332 83B0     		sub	sp, sp, #12
 776              		.cfi_def_cfa_offset 16
 777 0334 0190     		str	r0, [sp, #4]
 778              		.loc 1 513 0
 779 0336 019B     		ldr	r3, [sp, #4]
 780 0338 9B79     		ldrb	r3, [r3, #6]	@ zero_extendqisi2
 781 033a 012B     		cmp	r3, #1
 782 033c 01D1     		bne	.L49
 783              		.loc 1 515 0
 784 033e 0023     		movs	r3, #0
 785 0340 18E0     		b	.L50
 786              	.L49:
 787              		.loc 1 520 0
 788 0342 019B     		ldr	r3, [sp, #4]
 789 0344 9B68     		ldr	r3, [r3, #8]
 790 0346 1B68     		ldr	r3, [r3]
 791 0348 1B68     		ldr	r3, [r3]
 792 034a 9B78     		ldrb	r3, [r3, #2]	@ zero_extendqisi2
 793 034c 002B     		cmp	r3, #0
 794 034e 07D1     		bne	.L51
ARM GAS  /tmp/cc13LZ9Z.s 			page 15


 795              		.loc 1 522 0
 796 0350 0198     		ldr	r0, [sp, #4]
 797 0352 00F035F9 		bl	HTS221_Sensor_Enable
 798 0356 0346     		mov	r3, r0
 799 0358 012B     		cmp	r3, #1
 800 035a 01D1     		bne	.L51
 801              		.loc 1 524 0
 802 035c 0123     		movs	r3, #1
 803 035e 09E0     		b	.L50
 804              	.L51:
 805              		.loc 1 528 0
 806 0360 019B     		ldr	r3, [sp, #4]
 807 0362 9B68     		ldr	r3, [r3, #8]
 808 0364 1B68     		ldr	r3, [r3]
 809 0366 1B68     		ldr	r3, [r3]
 810 0368 0122     		movs	r2, #1
 811 036a DA70     		strb	r2, [r3, #3]
 812              		.loc 1 530 0
 813 036c 019B     		ldr	r3, [sp, #4]
 814 036e 0122     		movs	r2, #1
 815 0370 9A71     		strb	r2, [r3, #6]
 816              		.loc 1 532 0
 817 0372 0023     		movs	r3, #0
 818              	.L50:
 819              		.loc 1 533 0
 820 0374 1846     		mov	r0, r3
 821 0376 03B0     		add	sp, sp, #12
 822              		@ sp needed
 823 0378 5DF804FB 		ldr	pc, [sp], #4
 824              		.cfi_endproc
 825              	.LFE15:
 826              		.size	HTS221_T_Sensor_Enable, .-HTS221_T_Sensor_Enable
 827              		.align	2
 828 037c AFF30080 		.p2align 4,,15
 829              		.thumb
 830              		.thumb_func
 831              		.type	HTS221_T_Sensor_Disable, %function
 832              	HTS221_T_Sensor_Disable:
 833              	.LFB16:
 834              		.loc 1 543 0
 835              		.cfi_startproc
 836              		@ args = 0, pretend = 0, frame = 8
 837              		@ frame_needed = 0, uses_anonymous_args = 0
 838 0380 00B5     		push	{lr}
 839              		.cfi_def_cfa_offset 4
 840              		.cfi_offset 14, -4
 841 0382 83B0     		sub	sp, sp, #12
 842              		.cfi_def_cfa_offset 16
 843 0384 0190     		str	r0, [sp, #4]
 844              		.loc 1 546 0
 845 0386 019B     		ldr	r3, [sp, #4]
 846 0388 9B79     		ldrb	r3, [r3, #6]	@ zero_extendqisi2
 847 038a 002B     		cmp	r3, #0
 848 038c 01D1     		bne	.L53
 849              		.loc 1 548 0
 850 038e 0023     		movs	r3, #0
 851 0390 18E0     		b	.L54
ARM GAS  /tmp/cc13LZ9Z.s 			page 16


 852              	.L53:
 853              		.loc 1 553 0
 854 0392 019B     		ldr	r3, [sp, #4]
 855 0394 9B68     		ldr	r3, [r3, #8]
 856 0396 1B68     		ldr	r3, [r3]
 857 0398 1B68     		ldr	r3, [r3]
 858 039a 9B78     		ldrb	r3, [r3, #2]	@ zero_extendqisi2
 859 039c 002B     		cmp	r3, #0
 860 039e 07D1     		bne	.L55
 861              		.loc 1 555 0
 862 03a0 0198     		ldr	r0, [sp, #4]
 863 03a2 00F01DF9 		bl	HTS221_Sensor_Disable
 864 03a6 0346     		mov	r3, r0
 865 03a8 012B     		cmp	r3, #1
 866 03aa 01D1     		bne	.L55
 867              		.loc 1 557 0
 868 03ac 0123     		movs	r3, #1
 869 03ae 09E0     		b	.L54
 870              	.L55:
 871              		.loc 1 561 0
 872 03b0 019B     		ldr	r3, [sp, #4]
 873 03b2 9B68     		ldr	r3, [r3, #8]
 874 03b4 1B68     		ldr	r3, [r3]
 875 03b6 1B68     		ldr	r3, [r3]
 876 03b8 0022     		movs	r2, #0
 877 03ba DA70     		strb	r2, [r3, #3]
 878              		.loc 1 563 0
 879 03bc 019B     		ldr	r3, [sp, #4]
 880 03be 0022     		movs	r2, #0
 881 03c0 9A71     		strb	r2, [r3, #6]
 882              		.loc 1 565 0
 883 03c2 0023     		movs	r3, #0
 884              	.L54:
 885              		.loc 1 566 0
 886 03c4 1846     		mov	r0, r3
 887 03c6 03B0     		add	sp, sp, #12
 888              		@ sp needed
 889 03c8 5DF804FB 		ldr	pc, [sp], #4
 890              		.cfi_endproc
 891              	.LFE16:
 892              		.size	HTS221_T_Sensor_Disable, .-HTS221_T_Sensor_Disable
 893              		.align	2
 894 03cc AFF30080 		.p2align 4,,15
 895              		.thumb
 896              		.thumb_func
 897              		.type	HTS221_T_Get_WhoAmI, %function
 898              	HTS221_T_Get_WhoAmI:
 899              	.LFB17:
 900              		.loc 1 576 0
 901              		.cfi_startproc
 902              		@ args = 0, pretend = 0, frame = 8
 903              		@ frame_needed = 0, uses_anonymous_args = 0
 904 03d0 00B5     		push	{lr}
 905              		.cfi_def_cfa_offset 4
 906              		.cfi_offset 14, -4
 907 03d2 83B0     		sub	sp, sp, #12
 908              		.cfi_def_cfa_offset 16
ARM GAS  /tmp/cc13LZ9Z.s 			page 17


 909 03d4 0190     		str	r0, [sp, #4]
 910 03d6 0091     		str	r1, [sp]
 911              		.loc 1 578 0
 912 03d8 0198     		ldr	r0, [sp, #4]
 913 03da 0099     		ldr	r1, [sp]
 914 03dc 00F010F9 		bl	HTS221_Get_WhoAmI
 915 03e0 0346     		mov	r3, r0
 916              		.loc 1 579 0
 917 03e2 1846     		mov	r0, r3
 918 03e4 03B0     		add	sp, sp, #12
 919              		@ sp needed
 920 03e6 5DF804FB 		ldr	pc, [sp], #4
 921              		.cfi_endproc
 922              	.LFE17:
 923              		.size	HTS221_T_Get_WhoAmI, .-HTS221_T_Get_WhoAmI
 924 03ea 00BF     		.align	2
 925 03ec AFF30080 		.p2align 4,,15
 926              		.thumb
 927              		.thumb_func
 928              		.type	HTS221_T_Check_WhoAmI, %function
 929              	HTS221_T_Check_WhoAmI:
 930              	.LFB18:
 931              		.loc 1 589 0
 932              		.cfi_startproc
 933              		@ args = 0, pretend = 0, frame = 8
 934              		@ frame_needed = 0, uses_anonymous_args = 0
 935 03f0 00B5     		push	{lr}
 936              		.cfi_def_cfa_offset 4
 937              		.cfi_offset 14, -4
 938 03f2 83B0     		sub	sp, sp, #12
 939              		.cfi_def_cfa_offset 16
 940 03f4 0190     		str	r0, [sp, #4]
 941              		.loc 1 591 0
 942 03f6 0198     		ldr	r0, [sp, #4]
 943 03f8 00F01AF9 		bl	HTS221_Check_WhoAmI
 944 03fc 0346     		mov	r3, r0
 945              		.loc 1 592 0
 946 03fe 1846     		mov	r0, r3
 947 0400 03B0     		add	sp, sp, #12
 948              		@ sp needed
 949 0402 5DF804FB 		ldr	pc, [sp], #4
 950              		.cfi_endproc
 951              	.LFE18:
 952              		.size	HTS221_T_Check_WhoAmI, .-HTS221_T_Check_WhoAmI
 953 0406 00BF     		.align	2
 954 0408 AFF30080 		.p2align 4,,15
 954      AFF30080 
 955              		.thumb
 956              		.thumb_func
 957              		.type	HTS221_T_Get_Temp, %function
 958              	HTS221_T_Get_Temp:
 959              	.LFB19:
 960              		.loc 1 603 0
 961              		.cfi_startproc
 962              		@ args = 0, pretend = 0, frame = 8
 963              		@ frame_needed = 0, uses_anonymous_args = 0
 964 0410 00B5     		push	{lr}
ARM GAS  /tmp/cc13LZ9Z.s 			page 18


 965              		.cfi_def_cfa_offset 4
 966              		.cfi_offset 14, -4
 967 0412 83B0     		sub	sp, sp, #12
 968              		.cfi_def_cfa_offset 16
 969 0414 0190     		str	r0, [sp, #4]
 970 0416 0091     		str	r1, [sp]
 971              		.loc 1 605 0
 972 0418 0198     		ldr	r0, [sp, #4]
 973 041a 0099     		ldr	r1, [sp]
 974 041c 00F050F9 		bl	HTS221_Get_Temp
 975 0420 0346     		mov	r3, r0
 976              		.loc 1 606 0
 977 0422 1846     		mov	r0, r3
 978 0424 03B0     		add	sp, sp, #12
 979              		@ sp needed
 980 0426 5DF804FB 		ldr	pc, [sp], #4
 981              		.cfi_endproc
 982              	.LFE19:
 983              		.size	HTS221_T_Get_Temp, .-HTS221_T_Get_Temp
 984 042a 00BF     		.align	2
 985 042c AFF30080 		.p2align 4,,15
 986              		.thumb
 987              		.thumb_func
 988              		.type	HTS221_T_Get_ODR, %function
 989              	HTS221_T_Get_ODR:
 990              	.LFB20:
 991              		.loc 1 617 0
 992              		.cfi_startproc
 993              		@ args = 0, pretend = 0, frame = 8
 994              		@ frame_needed = 0, uses_anonymous_args = 0
 995 0430 00B5     		push	{lr}
 996              		.cfi_def_cfa_offset 4
 997              		.cfi_offset 14, -4
 998 0432 83B0     		sub	sp, sp, #12
 999              		.cfi_def_cfa_offset 16
 1000 0434 0190     		str	r0, [sp, #4]
 1001 0436 0091     		str	r1, [sp]
 1002              		.loc 1 619 0
 1003 0438 0198     		ldr	r0, [sp, #4]
 1004 043a 0099     		ldr	r1, [sp]
 1005 043c 00F068F9 		bl	HTS221_Get_ODR
 1006 0440 0346     		mov	r3, r0
 1007              		.loc 1 620 0
 1008 0442 1846     		mov	r0, r3
 1009 0444 03B0     		add	sp, sp, #12
 1010              		@ sp needed
 1011 0446 5DF804FB 		ldr	pc, [sp], #4
 1012              		.cfi_endproc
 1013              	.LFE20:
 1014              		.size	HTS221_T_Get_ODR, .-HTS221_T_Get_ODR
 1015 044a 00BF     		.align	2
 1016 044c AFF30080 		.p2align 4,,15
 1017              		.thumb
 1018              		.thumb_func
 1019              		.type	HTS221_T_Set_ODR, %function
 1020              	HTS221_T_Set_ODR:
 1021              	.LFB21:
ARM GAS  /tmp/cc13LZ9Z.s 			page 19


 1022              		.loc 1 631 0
 1023              		.cfi_startproc
 1024              		@ args = 0, pretend = 0, frame = 8
 1025              		@ frame_needed = 0, uses_anonymous_args = 0
 1026 0450 00B5     		push	{lr}
 1027              		.cfi_def_cfa_offset 4
 1028              		.cfi_offset 14, -4
 1029 0452 83B0     		sub	sp, sp, #12
 1030              		.cfi_def_cfa_offset 16
 1031 0454 0190     		str	r0, [sp, #4]
 1032 0456 0B46     		mov	r3, r1
 1033 0458 8DF80330 		strb	r3, [sp, #3]
 1034              		.loc 1 633 0
 1035 045c 9DF80330 		ldrb	r3, [sp, #3]	@ zero_extendqisi2
 1036 0460 0198     		ldr	r0, [sp, #4]
 1037 0462 1946     		mov	r1, r3
 1038 0464 00F094F9 		bl	HTS221_Set_ODR
 1039 0468 0346     		mov	r3, r0
 1040              		.loc 1 634 0
 1041 046a 1846     		mov	r0, r3
 1042 046c 03B0     		add	sp, sp, #12
 1043              		@ sp needed
 1044 046e 5DF804FB 		ldr	pc, [sp], #4
 1045              		.cfi_endproc
 1046              	.LFE21:
 1047              		.size	HTS221_T_Set_ODR, .-HTS221_T_Set_ODR
 1048 0472 00BF     		.align	2
 1049 0474 AFF30080 		.p2align 4,,15
 1049      AFF30080 
 1049      AFF30080 
 1050              		.thumb
 1051              		.thumb_func
 1052              		.type	HTS221_T_Set_ODR_Value, %function
 1053              	HTS221_T_Set_ODR_Value:
 1054              	.LFB22:
 1055              		.loc 1 645 0
 1056              		.cfi_startproc
 1057              		@ args = 0, pretend = 0, frame = 8
 1058              		@ frame_needed = 0, uses_anonymous_args = 0
 1059 0480 00B5     		push	{lr}
 1060              		.cfi_def_cfa_offset 4
 1061              		.cfi_offset 14, -4
 1062 0482 83B0     		sub	sp, sp, #12
 1063              		.cfi_def_cfa_offset 16
 1064 0484 0190     		str	r0, [sp, #4]
 1065 0486 0091     		str	r1, [sp]	@ float
 1066              		.loc 1 647 0
 1067 0488 0198     		ldr	r0, [sp, #4]
 1068 048a 0099     		ldr	r1, [sp]	@ float
 1069 048c 00F0C0F9 		bl	HTS221_Set_ODR_Value
 1070 0490 0346     		mov	r3, r0
 1071              		.loc 1 648 0
 1072 0492 1846     		mov	r0, r3
 1073 0494 03B0     		add	sp, sp, #12
 1074              		@ sp needed
 1075 0496 5DF804FB 		ldr	pc, [sp], #4
 1076              		.cfi_endproc
ARM GAS  /tmp/cc13LZ9Z.s 			page 20


 1077              	.LFE22:
 1078              		.size	HTS221_T_Set_ODR_Value, .-HTS221_T_Set_ODR_Value
 1079 049a 00BF     		.align	2
 1080 049c AFF30080 		.p2align 4,,15
 1081              		.thumb
 1082              		.thumb_func
 1083              		.type	HTS221_T_Read_Reg, %function
 1084              	HTS221_T_Read_Reg:
 1085              	.LFB23:
 1086              		.loc 1 660 0
 1087              		.cfi_startproc
 1088              		@ args = 0, pretend = 0, frame = 16
 1089              		@ frame_needed = 0, uses_anonymous_args = 0
 1090 04a0 00B5     		push	{lr}
 1091              		.cfi_def_cfa_offset 4
 1092              		.cfi_offset 14, -4
 1093 04a2 85B0     		sub	sp, sp, #20
 1094              		.cfi_def_cfa_offset 24
 1095 04a4 0390     		str	r0, [sp, #12]
 1096 04a6 0B46     		mov	r3, r1
 1097 04a8 0192     		str	r2, [sp, #4]
 1098 04aa 8DF80B30 		strb	r3, [sp, #11]
 1099              		.loc 1 662 0
 1100 04ae 9DF80B30 		ldrb	r3, [sp, #11]	@ zero_extendqisi2
 1101 04b2 0398     		ldr	r0, [sp, #12]
 1102 04b4 1946     		mov	r1, r3
 1103 04b6 019A     		ldr	r2, [sp, #4]
 1104 04b8 00F0DAF9 		bl	HTS221_Read_Reg
 1105 04bc 0346     		mov	r3, r0
 1106 04be 012B     		cmp	r3, #1
 1107 04c0 01D1     		bne	.L69
 1108              		.loc 1 664 0
 1109 04c2 0123     		movs	r3, #1
 1110 04c4 00E0     		b	.L70
 1111              	.L69:
 1112              		.loc 1 667 0
 1113 04c6 0023     		movs	r3, #0
 1114              	.L70:
 1115              		.loc 1 668 0
 1116 04c8 1846     		mov	r0, r3
 1117 04ca 05B0     		add	sp, sp, #20
 1118              		@ sp needed
 1119 04cc 5DF804FB 		ldr	pc, [sp], #4
 1120              		.cfi_endproc
 1121              	.LFE23:
 1122              		.size	HTS221_T_Read_Reg, .-HTS221_T_Read_Reg
 1123              		.align	2
 1124              		.p2align 4,,15
 1125              		.thumb
 1126              		.thumb_func
 1127              		.type	HTS221_T_Write_Reg, %function
 1128              	HTS221_T_Write_Reg:
 1129              	.LFB24:
 1130              		.loc 1 680 0
 1131              		.cfi_startproc
 1132              		@ args = 0, pretend = 0, frame = 8
 1133              		@ frame_needed = 0, uses_anonymous_args = 0
ARM GAS  /tmp/cc13LZ9Z.s 			page 21


 1134 04d0 00B5     		push	{lr}
 1135              		.cfi_def_cfa_offset 4
 1136              		.cfi_offset 14, -4
 1137 04d2 83B0     		sub	sp, sp, #12
 1138              		.cfi_def_cfa_offset 16
 1139 04d4 0190     		str	r0, [sp, #4]
 1140 04d6 1346     		mov	r3, r2
 1141 04d8 0A46     		mov	r2, r1
 1142 04da 8DF80320 		strb	r2, [sp, #3]
 1143 04de 8DF80230 		strb	r3, [sp, #2]
 1144              		.loc 1 682 0
 1145 04e2 9DF80320 		ldrb	r2, [sp, #3]	@ zero_extendqisi2
 1146 04e6 9DF80230 		ldrb	r3, [sp, #2]	@ zero_extendqisi2
 1147 04ea 0198     		ldr	r0, [sp, #4]
 1148 04ec 1146     		mov	r1, r2
 1149 04ee 1A46     		mov	r2, r3
 1150 04f0 00F0DEF9 		bl	HTS221_Write_Reg
 1151 04f4 0346     		mov	r3, r0
 1152 04f6 012B     		cmp	r3, #1
 1153 04f8 01D1     		bne	.L72
 1154              		.loc 1 684 0
 1155 04fa 0123     		movs	r3, #1
 1156 04fc 00E0     		b	.L73
 1157              	.L72:
 1158              		.loc 1 687 0
 1159 04fe 0023     		movs	r3, #0
 1160              	.L73:
 1161              		.loc 1 688 0
 1162 0500 1846     		mov	r0, r3
 1163 0502 03B0     		add	sp, sp, #12
 1164              		@ sp needed
 1165 0504 5DF804FB 		ldr	pc, [sp], #4
 1166              		.cfi_endproc
 1167              	.LFE24:
 1168              		.size	HTS221_T_Write_Reg, .-HTS221_T_Write_Reg
 1169              		.align	2
 1170 0508 AFF30080 		.p2align 4,,15
 1170      AFF30080 
 1171              		.thumb
 1172              		.thumb_func
 1173              		.type	HTS221_T_Get_DRDY_Status, %function
 1174              	HTS221_T_Get_DRDY_Status:
 1175              	.LFB25:
 1176              		.loc 1 699 0
 1177              		.cfi_startproc
 1178              		@ args = 0, pretend = 0, frame = 16
 1179              		@ frame_needed = 0, uses_anonymous_args = 0
 1180 0510 00B5     		push	{lr}
 1181              		.cfi_def_cfa_offset 4
 1182              		.cfi_offset 14, -4
 1183 0512 85B0     		sub	sp, sp, #20
 1184              		.cfi_def_cfa_offset 24
 1185 0514 0190     		str	r0, [sp, #4]
 1186 0516 0091     		str	r1, [sp]
 1187              		.loc 1 704 0
 1188 0518 0DF10F02 		add	r2, sp, #15
 1189 051c 0DF10E03 		add	r3, sp, #14
ARM GAS  /tmp/cc13LZ9Z.s 			page 22


 1190 0520 0198     		ldr	r0, [sp, #4]
 1191 0522 1146     		mov	r1, r2
 1192 0524 1A46     		mov	r2, r3
 1193 0526 FFF7FEFF 		bl	HTS221_Get_DataStatus
 1194 052a 0346     		mov	r3, r0
 1195 052c 012B     		cmp	r3, #1
 1196 052e 01D1     		bne	.L75
 1197              		.loc 1 706 0
 1198 0530 0123     		movs	r3, #1
 1199 0532 10E0     		b	.L81
 1200              	.L75:
 1201              		.loc 1 709 0
 1202 0534 9DF80E30 		ldrb	r3, [sp, #14]	@ zero_extendqisi2
 1203 0538 002B     		cmp	r3, #0
 1204 053a 05D0     		beq	.L78
 1205 053c 012B     		cmp	r3, #1
 1206 053e 07D1     		bne	.L82
 1207              		.loc 1 712 0
 1208 0540 009B     		ldr	r3, [sp]
 1209 0542 0122     		movs	r2, #1
 1210 0544 1A70     		strb	r2, [r3]
 1211              		.loc 1 713 0
 1212 0546 05E0     		b	.L80
 1213              	.L78:
 1214              		.loc 1 715 0
 1215 0548 009B     		ldr	r3, [sp]
 1216 054a 0022     		movs	r2, #0
 1217 054c 1A70     		strb	r2, [r3]
 1218              		.loc 1 716 0
 1219 054e 01E0     		b	.L80
 1220              	.L82:
 1221              		.loc 1 718 0
 1222 0550 0123     		movs	r3, #1
 1223 0552 00E0     		b	.L81
 1224              	.L80:
 1225              		.loc 1 721 0
 1226 0554 0023     		movs	r3, #0
 1227              	.L81:
 1228              		.loc 1 722 0
 1229 0556 1846     		mov	r0, r3
 1230 0558 05B0     		add	sp, sp, #20
 1231              		@ sp needed
 1232 055a 5DF804FB 		ldr	pc, [sp], #4
 1233              		.cfi_endproc
 1234              	.LFE25:
 1235              		.size	HTS221_T_Get_DRDY_Status, .-HTS221_T_Get_DRDY_Status
 1236 055e 00BF     		.align	2
 1237              		.p2align 4,,15
 1238              		.thumb
 1239              		.thumb_func
 1240              		.type	HTS221_Init, %function
 1241              	HTS221_Init:
 1242              	.LFB26:
 1243              		.loc 1 739 0
 1244              		.cfi_startproc
 1245              		@ args = 0, pretend = 0, frame = 8
 1246              		@ frame_needed = 0, uses_anonymous_args = 0
ARM GAS  /tmp/cc13LZ9Z.s 			page 23


 1247 0560 00B5     		push	{lr}
 1248              		.cfi_def_cfa_offset 4
 1249              		.cfi_offset 14, -4
 1250 0562 83B0     		sub	sp, sp, #12
 1251              		.cfi_def_cfa_offset 16
 1252 0564 0190     		str	r0, [sp, #4]
 1253              		.loc 1 741 0
 1254 0566 0198     		ldr	r0, [sp, #4]
 1255 0568 00F062F8 		bl	HTS221_Check_WhoAmI
 1256 056c 0346     		mov	r3, r0
 1257 056e 012B     		cmp	r3, #1
 1258 0570 01D1     		bne	.L84
 1259              		.loc 1 743 0
 1260 0572 0123     		movs	r3, #1
 1261 0574 1AE0     		b	.L85
 1262              	.L84:
 1263              		.loc 1 747 0
 1264 0576 0198     		ldr	r0, [sp, #4]
 1265 0578 FFF7FEFF 		bl	HTS221_DeActivate
 1266 057c 0346     		mov	r3, r0
 1267 057e 012B     		cmp	r3, #1
 1268 0580 01D1     		bne	.L86
 1269              		.loc 1 749 0
 1270 0582 0123     		movs	r3, #1
 1271 0584 12E0     		b	.L85
 1272              	.L86:
 1273              		.loc 1 753 0
 1274 0586 0198     		ldr	r0, [sp, #4]
 1275 0588 0121     		movs	r1, #1
 1276 058a FFF7FEFF 		bl	HTS221_Set_BduMode
 1277 058e 0346     		mov	r3, r0
 1278 0590 012B     		cmp	r3, #1
 1279 0592 01D1     		bne	.L87
 1280              		.loc 1 755 0
 1281 0594 0123     		movs	r3, #1
 1282 0596 09E0     		b	.L85
 1283              	.L87:
 1284              		.loc 1 759 0
 1285 0598 0198     		ldr	r0, [sp, #4]
 1286 059a 0021     		movs	r1, #0
 1287 059c 00F0F8F8 		bl	HTS221_Set_ODR
 1288 05a0 0346     		mov	r3, r0
 1289 05a2 012B     		cmp	r3, #1
 1290 05a4 01D1     		bne	.L88
 1291              		.loc 1 761 0
 1292 05a6 0123     		movs	r3, #1
 1293 05a8 00E0     		b	.L85
 1294              	.L88:
 1295              		.loc 1 764 0
 1296 05aa 0023     		movs	r3, #0
 1297              	.L85:
 1298              		.loc 1 765 0
 1299 05ac 1846     		mov	r0, r3
 1300 05ae 03B0     		add	sp, sp, #12
 1301              		@ sp needed
 1302 05b0 5DF804FB 		ldr	pc, [sp], #4
 1303              		.cfi_endproc
ARM GAS  /tmp/cc13LZ9Z.s 			page 24


 1304              	.LFE26:
 1305              		.size	HTS221_Init, .-HTS221_Init
 1306              		.align	2
 1307 05b4 AFF30080 		.p2align 4,,15
 1307      AFF30080 
 1307      AFF30080 
 1308              		.thumb
 1309              		.thumb_func
 1310              		.type	HTS221_Sensor_Enable, %function
 1311              	HTS221_Sensor_Enable:
 1312              	.LFB27:
 1313              		.loc 1 774 0
 1314              		.cfi_startproc
 1315              		@ args = 0, pretend = 0, frame = 8
 1316              		@ frame_needed = 0, uses_anonymous_args = 0
 1317 05c0 00B5     		push	{lr}
 1318              		.cfi_def_cfa_offset 4
 1319              		.cfi_offset 14, -4
 1320 05c2 83B0     		sub	sp, sp, #12
 1321              		.cfi_def_cfa_offset 16
 1322 05c4 0190     		str	r0, [sp, #4]
 1323              		.loc 1 777 0
 1324 05c6 0198     		ldr	r0, [sp, #4]
 1325 05c8 FFF7FEFF 		bl	HTS221_Activate
 1326 05cc 0346     		mov	r3, r0
 1327 05ce 012B     		cmp	r3, #1
 1328 05d0 01D1     		bne	.L90
 1329              		.loc 1 779 0
 1330 05d2 0123     		movs	r3, #1
 1331 05d4 00E0     		b	.L91
 1332              	.L90:
 1333              		.loc 1 782 0
 1334 05d6 0023     		movs	r3, #0
 1335              	.L91:
 1336              		.loc 1 783 0
 1337 05d8 1846     		mov	r0, r3
 1338 05da 03B0     		add	sp, sp, #12
 1339              		@ sp needed
 1340 05dc 5DF804FB 		ldr	pc, [sp], #4
 1341              		.cfi_endproc
 1342              	.LFE27:
 1343              		.size	HTS221_Sensor_Enable, .-HTS221_Sensor_Enable
 1344              		.align	2
 1345              		.p2align 4,,15
 1346              		.thumb
 1347              		.thumb_func
 1348              		.type	HTS221_Sensor_Disable, %function
 1349              	HTS221_Sensor_Disable:
 1350              	.LFB28:
 1351              		.loc 1 792 0
 1352              		.cfi_startproc
 1353              		@ args = 0, pretend = 0, frame = 8
 1354              		@ frame_needed = 0, uses_anonymous_args = 0
 1355 05e0 00B5     		push	{lr}
 1356              		.cfi_def_cfa_offset 4
 1357              		.cfi_offset 14, -4
 1358 05e2 83B0     		sub	sp, sp, #12
ARM GAS  /tmp/cc13LZ9Z.s 			page 25


 1359              		.cfi_def_cfa_offset 16
 1360 05e4 0190     		str	r0, [sp, #4]
 1361              		.loc 1 795 0
 1362 05e6 0198     		ldr	r0, [sp, #4]
 1363 05e8 FFF7FEFF 		bl	HTS221_DeActivate
 1364 05ec 0346     		mov	r3, r0
 1365 05ee 012B     		cmp	r3, #1
 1366 05f0 01D1     		bne	.L93
 1367              		.loc 1 797 0
 1368 05f2 0123     		movs	r3, #1
 1369 05f4 00E0     		b	.L94
 1370              	.L93:
 1371              		.loc 1 800 0
 1372 05f6 0023     		movs	r3, #0
 1373              	.L94:
 1374              		.loc 1 801 0
 1375 05f8 1846     		mov	r0, r3
 1376 05fa 03B0     		add	sp, sp, #12
 1377              		@ sp needed
 1378 05fc 5DF804FB 		ldr	pc, [sp], #4
 1379              		.cfi_endproc
 1380              	.LFE28:
 1381              		.size	HTS221_Sensor_Disable, .-HTS221_Sensor_Disable
 1382              		.align	2
 1383              		.p2align 4,,15
 1384              		.thumb
 1385              		.thumb_func
 1386              		.type	HTS221_Get_WhoAmI, %function
 1387              	HTS221_Get_WhoAmI:
 1388              	.LFB29:
 1389              		.loc 1 811 0
 1390              		.cfi_startproc
 1391              		@ args = 0, pretend = 0, frame = 8
 1392              		@ frame_needed = 0, uses_anonymous_args = 0
 1393 0600 00B5     		push	{lr}
 1394              		.cfi_def_cfa_offset 4
 1395              		.cfi_offset 14, -4
 1396 0602 83B0     		sub	sp, sp, #12
 1397              		.cfi_def_cfa_offset 16
 1398 0604 0190     		str	r0, [sp, #4]
 1399 0606 0091     		str	r1, [sp]
 1400              		.loc 1 814 0
 1401 0608 0198     		ldr	r0, [sp, #4]
 1402 060a 0099     		ldr	r1, [sp]
 1403 060c FFF7FEFF 		bl	HTS221_Get_DeviceID
 1404 0610 0346     		mov	r3, r0
 1405 0612 012B     		cmp	r3, #1
 1406 0614 01D1     		bne	.L96
 1407              		.loc 1 816 0
 1408 0616 0123     		movs	r3, #1
 1409 0618 00E0     		b	.L97
 1410              	.L96:
 1411              		.loc 1 819 0
 1412 061a 0023     		movs	r3, #0
 1413              	.L97:
 1414              		.loc 1 820 0
 1415 061c 1846     		mov	r0, r3
ARM GAS  /tmp/cc13LZ9Z.s 			page 26


 1416 061e 03B0     		add	sp, sp, #12
 1417              		@ sp needed
 1418 0620 5DF804FB 		ldr	pc, [sp], #4
 1419              		.cfi_endproc
 1420              	.LFE29:
 1421              		.size	HTS221_Get_WhoAmI, .-HTS221_Get_WhoAmI
 1422              		.align	2
 1423 0624 AFF30080 		.p2align 4,,15
 1423      AFF30080 
 1423      AFF30080 
 1424              		.thumb
 1425              		.thumb_func
 1426              		.type	HTS221_Check_WhoAmI, %function
 1427              	HTS221_Check_WhoAmI:
 1428              	.LFB30:
 1429              		.loc 1 829 0
 1430              		.cfi_startproc
 1431              		@ args = 0, pretend = 0, frame = 16
 1432              		@ frame_needed = 0, uses_anonymous_args = 0
 1433 0630 00B5     		push	{lr}
 1434              		.cfi_def_cfa_offset 4
 1435              		.cfi_offset 14, -4
 1436 0632 85B0     		sub	sp, sp, #20
 1437              		.cfi_def_cfa_offset 24
 1438 0634 0190     		str	r0, [sp, #4]
 1439              		.loc 1 831 0
 1440 0636 0023     		movs	r3, #0
 1441 0638 8DF80F30 		strb	r3, [sp, #15]
 1442              		.loc 1 833 0
 1443 063c 0DF10F03 		add	r3, sp, #15
 1444 0640 0198     		ldr	r0, [sp, #4]
 1445 0642 1946     		mov	r1, r3
 1446 0644 FFF7DCFF 		bl	HTS221_Get_WhoAmI
 1447 0648 0346     		mov	r3, r0
 1448 064a 012B     		cmp	r3, #1
 1449 064c 01D1     		bne	.L99
 1450              		.loc 1 835 0
 1451 064e 0123     		movs	r3, #1
 1452 0650 08E0     		b	.L102
 1453              	.L99:
 1454              		.loc 1 837 0
 1455 0652 019B     		ldr	r3, [sp, #4]
 1456 0654 1A78     		ldrb	r2, [r3]	@ zero_extendqisi2
 1457 0656 9DF80F30 		ldrb	r3, [sp, #15]	@ zero_extendqisi2
 1458 065a 9A42     		cmp	r2, r3
 1459 065c 01D0     		beq	.L101
 1460              		.loc 1 839 0
 1461 065e 0123     		movs	r3, #1
 1462 0660 00E0     		b	.L102
 1463              	.L101:
 1464              		.loc 1 842 0
 1465 0662 0023     		movs	r3, #0
 1466              	.L102:
 1467              		.loc 1 843 0
 1468 0664 1846     		mov	r0, r3
 1469 0666 05B0     		add	sp, sp, #20
 1470              		@ sp needed
ARM GAS  /tmp/cc13LZ9Z.s 			page 27


 1471 0668 5DF804FB 		ldr	pc, [sp], #4
 1472              		.cfi_endproc
 1473              	.LFE30:
 1474              		.size	HTS221_Check_WhoAmI, .-HTS221_Check_WhoAmI
 1475              		.global	__aeabi_ui2f
 1476              		.global	__aeabi_fdiv
 1477              		.align	2
 1478 066c AFF30080 		.p2align 4,,15
 1479              		.thumb
 1480              		.thumb_func
 1481              		.type	HTS221_Get_Hum, %function
 1482              	HTS221_Get_Hum:
 1483              	.LFB31:
 1484              		.loc 1 853 0
 1485              		.cfi_startproc
 1486              		@ args = 0, pretend = 0, frame = 16
 1487              		@ frame_needed = 0, uses_anonymous_args = 0
 1488 0670 00B5     		push	{lr}
 1489              		.cfi_def_cfa_offset 4
 1490              		.cfi_offset 14, -4
 1491 0672 85B0     		sub	sp, sp, #20
 1492              		.cfi_def_cfa_offset 24
 1493 0674 0190     		str	r0, [sp, #4]
 1494 0676 0091     		str	r1, [sp]
 1495              		.loc 1 855 0
 1496 0678 0023     		movs	r3, #0
 1497 067a ADF80E30 		strh	r3, [sp, #14]	@ movhi
 1498              		.loc 1 858 0
 1499 067e 0DF10E03 		add	r3, sp, #14
 1500 0682 0198     		ldr	r0, [sp, #4]
 1501 0684 1946     		mov	r1, r3
 1502 0686 FFF7FEFF 		bl	HTS221_Get_Humidity
 1503 068a 0346     		mov	r3, r0
 1504 068c 012B     		cmp	r3, #1
 1505 068e 01D1     		bne	.L104
 1506              		.loc 1 860 0
 1507 0690 0123     		movs	r3, #1
 1508 0692 0EE0     		b	.L106
 1509              	.L104:
 1510              		.loc 1 863 0
 1511 0694 BDF80E30 		ldrh	r3, [sp, #14]
 1512 0698 1846     		mov	r0, r3
 1513 069a FFF7FEFF 		bl	__aeabi_ui2f
 1514 069e 0346     		mov	r3, r0
 1515 06a0 1846     		mov	r0, r3
 1516 06a2 0649     		ldr	r1, .L107
 1517 06a4 FFF7FEFF 		bl	__aeabi_fdiv
 1518 06a8 0346     		mov	r3, r0
 1519 06aa 1A46     		mov	r2, r3
 1520 06ac 009B     		ldr	r3, [sp]
 1521 06ae 1A60     		str	r2, [r3]	@ float
 1522              		.loc 1 865 0
 1523 06b0 0023     		movs	r3, #0
 1524              	.L106:
 1525              		.loc 1 866 0
 1526 06b2 1846     		mov	r0, r3
 1527 06b4 05B0     		add	sp, sp, #20
ARM GAS  /tmp/cc13LZ9Z.s 			page 28


 1528              		@ sp needed
 1529 06b6 5DF804FB 		ldr	pc, [sp], #4
 1530              	.L108:
 1531 06ba 00BF     		.align	2
 1532              	.L107:
 1533 06bc 00002041 		.word	1092616192
 1534              		.cfi_endproc
 1535              	.LFE31:
 1536              		.size	HTS221_Get_Hum, .-HTS221_Get_Hum
 1537              		.global	__aeabi_i2f
 1538              		.align	2
 1539              		.p2align 4,,15
 1540              		.thumb
 1541              		.thumb_func
 1542              		.type	HTS221_Get_Temp, %function
 1543              	HTS221_Get_Temp:
 1544              	.LFB32:
 1545              		.loc 1 876 0
 1546              		.cfi_startproc
 1547              		@ args = 0, pretend = 0, frame = 16
 1548              		@ frame_needed = 0, uses_anonymous_args = 0
 1549 06c0 00B5     		push	{lr}
 1550              		.cfi_def_cfa_offset 4
 1551              		.cfi_offset 14, -4
 1552 06c2 85B0     		sub	sp, sp, #20
 1553              		.cfi_def_cfa_offset 24
 1554 06c4 0190     		str	r0, [sp, #4]
 1555 06c6 0091     		str	r1, [sp]
 1556              		.loc 1 878 0
 1557 06c8 0023     		movs	r3, #0
 1558 06ca ADF80E30 		strh	r3, [sp, #14]	@ movhi
 1559              		.loc 1 881 0
 1560 06ce 0DF10E03 		add	r3, sp, #14
 1561 06d2 0198     		ldr	r0, [sp, #4]
 1562 06d4 1946     		mov	r1, r3
 1563 06d6 FFF7FEFF 		bl	HTS221_Get_Temperature
 1564 06da 0346     		mov	r3, r0
 1565 06dc 012B     		cmp	r3, #1
 1566 06de 01D1     		bne	.L110
 1567              		.loc 1 883 0
 1568 06e0 0123     		movs	r3, #1
 1569 06e2 0FE0     		b	.L112
 1570              	.L110:
 1571              		.loc 1 886 0
 1572 06e4 BDF80E30 		ldrh	r3, [sp, #14]
 1573 06e8 1BB2     		sxth	r3, r3
 1574 06ea 1846     		mov	r0, r3
 1575 06ec FFF7FEFF 		bl	__aeabi_i2f
 1576 06f0 0346     		mov	r3, r0
 1577 06f2 1846     		mov	r0, r3
 1578 06f4 0549     		ldr	r1, .L113
 1579 06f6 FFF7FEFF 		bl	__aeabi_fdiv
 1580 06fa 0346     		mov	r3, r0
 1581 06fc 1A46     		mov	r2, r3
 1582 06fe 009B     		ldr	r3, [sp]
 1583 0700 1A60     		str	r2, [r3]	@ float
 1584              		.loc 1 888 0
ARM GAS  /tmp/cc13LZ9Z.s 			page 29


 1585 0702 0023     		movs	r3, #0
 1586              	.L112:
 1587              		.loc 1 889 0
 1588 0704 1846     		mov	r0, r3
 1589 0706 05B0     		add	sp, sp, #20
 1590              		@ sp needed
 1591 0708 5DF804FB 		ldr	pc, [sp], #4
 1592              	.L114:
 1593              		.align	2
 1594              	.L113:
 1595 070c 00002041 		.word	1092616192
 1596              		.cfi_endproc
 1597              	.LFE32:
 1598              		.size	HTS221_Get_Temp, .-HTS221_Get_Temp
 1599              		.align	2
 1600              		.p2align 4,,15
 1601              		.thumb
 1602              		.thumb_func
 1603              		.type	HTS221_Get_ODR, %function
 1604              	HTS221_Get_ODR:
 1605              	.LFB33:
 1606              		.loc 1 899 0
 1607              		.cfi_startproc
 1608              		@ args = 0, pretend = 0, frame = 16
 1609              		@ frame_needed = 0, uses_anonymous_args = 0
 1610 0710 00B5     		push	{lr}
 1611              		.cfi_def_cfa_offset 4
 1612              		.cfi_offset 14, -4
 1613 0712 85B0     		sub	sp, sp, #20
 1614              		.cfi_def_cfa_offset 24
 1615 0714 0190     		str	r0, [sp, #4]
 1616 0716 0091     		str	r1, [sp]
 1617              		.loc 1 903 0
 1618 0718 0DF10F03 		add	r3, sp, #15
 1619 071c 0198     		ldr	r0, [sp, #4]
 1620 071e 1946     		mov	r1, r3
 1621 0720 FFF7FEFF 		bl	HTS221_Get_Odr
 1622 0724 0346     		mov	r3, r0
 1623 0726 012B     		cmp	r3, #1
 1624 0728 01D1     		bne	.L116
 1625              		.loc 1 905 0
 1626 072a 0123     		movs	r3, #1
 1627 072c 26E0     		b	.L125
 1628              	.L116:
 1629              		.loc 1 908 0
 1630 072e 9DF80F30 		ldrb	r3, [sp, #15]	@ zero_extendqisi2
 1631 0732 032B     		cmp	r3, #3
 1632 0734 1CD8     		bhi	.L118
 1633 0736 01A2     		adr	r2, .L120
 1634 0738 52F823F0 		ldr	pc, [r2, r3, lsl #2]
 1635              		.p2align 2
 1636              	.L120:
 1637 073c 4D070000 		.word	.L119+1
 1638 0740 57070000 		.word	.L121+1
 1639 0744 61070000 		.word	.L122+1
 1640 0748 69070000 		.word	.L123+1
 1641              		.p2align 1
ARM GAS  /tmp/cc13LZ9Z.s 			page 30


 1642              	.L119:
 1643              		.loc 1 911 0
 1644 074c 009B     		ldr	r3, [sp]
 1645 074e 4FF00002 		mov	r2, #0
 1646 0752 1A60     		str	r2, [r3]	@ float
 1647              		.loc 1 912 0
 1648 0754 11E0     		b	.L124
 1649              	.L121:
 1650              		.loc 1 914 0
 1651 0756 009B     		ldr	r3, [sp]
 1652 0758 4FF07E52 		mov	r2, #1065353216
 1653 075c 1A60     		str	r2, [r3]	@ float
 1654              		.loc 1 915 0
 1655 075e 0CE0     		b	.L124
 1656              	.L122:
 1657              		.loc 1 917 0
 1658 0760 009B     		ldr	r3, [sp]
 1659 0762 084A     		ldr	r2, .L126
 1660 0764 1A60     		str	r2, [r3]	@ float
 1661              		.loc 1 918 0
 1662 0766 08E0     		b	.L124
 1663              	.L123:
 1664              		.loc 1 920 0
 1665 0768 009B     		ldr	r3, [sp]
 1666 076a 074A     		ldr	r2, .L126+4
 1667 076c 1A60     		str	r2, [r3]	@ float
 1668              		.loc 1 921 0
 1669 076e 04E0     		b	.L124
 1670              	.L118:
 1671              		.loc 1 923 0
 1672 0770 009B     		ldr	r3, [sp]
 1673 0772 064A     		ldr	r2, .L126+8
 1674 0774 1A60     		str	r2, [r3]	@ float
 1675              		.loc 1 924 0
 1676 0776 0123     		movs	r3, #1
 1677 0778 00E0     		b	.L125
 1678              	.L124:
 1679              		.loc 1 927 0
 1680 077a 0023     		movs	r3, #0
 1681              	.L125:
 1682              		.loc 1 928 0
 1683 077c 1846     		mov	r0, r3
 1684 077e 05B0     		add	sp, sp, #20
 1685              		@ sp needed
 1686 0780 5DF804FB 		ldr	pc, [sp], #4
 1687              	.L127:
 1688              		.align	2
 1689              	.L126:
 1690 0784 0000E040 		.word	1088421888
 1691 0788 00004841 		.word	1095237632
 1692 078c 000080BF 		.word	-1082130432
 1693              		.cfi_endproc
 1694              	.LFE33:
 1695              		.size	HTS221_Get_ODR, .-HTS221_Get_ODR
 1696              		.align	2
 1697              		.p2align 4,,15
 1698              		.thumb
ARM GAS  /tmp/cc13LZ9Z.s 			page 31


 1699              		.thumb_func
 1700              		.type	HTS221_Set_ODR, %function
 1701              	HTS221_Set_ODR:
 1702              	.LFB34:
 1703              		.loc 1 938 0
 1704              		.cfi_startproc
 1705              		@ args = 0, pretend = 0, frame = 16
 1706              		@ frame_needed = 0, uses_anonymous_args = 0
 1707 0790 00B5     		push	{lr}
 1708              		.cfi_def_cfa_offset 4
 1709              		.cfi_offset 14, -4
 1710 0792 85B0     		sub	sp, sp, #20
 1711              		.cfi_def_cfa_offset 24
 1712 0794 0190     		str	r0, [sp, #4]
 1713 0796 0B46     		mov	r3, r1
 1714 0798 8DF80330 		strb	r3, [sp, #3]
 1715              		.loc 1 942 0
 1716 079c 9DF80330 		ldrb	r3, [sp, #3]	@ zero_extendqisi2
 1717 07a0 042B     		cmp	r3, #4
 1718 07a2 21D8     		bhi	.L129
 1719 07a4 01A2     		adr	r2, .L131
 1720 07a6 52F823F0 		ldr	pc, [r2, r3, lsl #2]
 1721 07aa 00BF     		.p2align 2
 1722              	.L131:
 1723 07ac C1070000 		.word	.L130+1
 1724 07b0 C9070000 		.word	.L132+1
 1725 07b4 D1070000 		.word	.L133+1
 1726 07b8 D9070000 		.word	.L134+1
 1727 07bc E1070000 		.word	.L135+1
 1728              		.p2align 1
 1729              	.L130:
 1730              		.loc 1 945 0
 1731 07c0 0123     		movs	r3, #1
 1732 07c2 8DF80F30 		strb	r3, [sp, #15]
 1733              		.loc 1 946 0
 1734 07c6 11E0     		b	.L136
 1735              	.L132:
 1736              		.loc 1 948 0
 1737 07c8 0323     		movs	r3, #3
 1738 07ca 8DF80F30 		strb	r3, [sp, #15]
 1739              		.loc 1 949 0
 1740 07ce 0DE0     		b	.L136
 1741              	.L133:
 1742              		.loc 1 951 0
 1743 07d0 0323     		movs	r3, #3
 1744 07d2 8DF80F30 		strb	r3, [sp, #15]
 1745              		.loc 1 952 0
 1746 07d6 09E0     		b	.L136
 1747              	.L134:
 1748              		.loc 1 954 0
 1749 07d8 0323     		movs	r3, #3
 1750 07da 8DF80F30 		strb	r3, [sp, #15]
 1751              		.loc 1 955 0
 1752 07de 05E0     		b	.L136
 1753              	.L135:
 1754              		.loc 1 957 0
 1755 07e0 0323     		movs	r3, #3
ARM GAS  /tmp/cc13LZ9Z.s 			page 32


 1756 07e2 8DF80F30 		strb	r3, [sp, #15]
 1757              		.loc 1 958 0
 1758 07e6 01E0     		b	.L136
 1759              	.L129:
 1760              		.loc 1 960 0
 1761 07e8 0123     		movs	r3, #1
 1762 07ea 0BE0     		b	.L137
 1763              	.L136:
 1764              		.loc 1 963 0
 1765 07ec 9DF80F30 		ldrb	r3, [sp, #15]	@ zero_extendqisi2
 1766 07f0 0198     		ldr	r0, [sp, #4]
 1767 07f2 1946     		mov	r1, r3
 1768 07f4 FFF7FEFF 		bl	HTS221_Set_Odr
 1769 07f8 0346     		mov	r3, r0
 1770 07fa 012B     		cmp	r3, #1
 1771 07fc 01D1     		bne	.L138
 1772              		.loc 1 965 0
 1773 07fe 0123     		movs	r3, #1
 1774 0800 00E0     		b	.L137
 1775              	.L138:
 1776              		.loc 1 968 0
 1777 0802 0023     		movs	r3, #0
 1778              	.L137:
 1779              		.loc 1 969 0
 1780 0804 1846     		mov	r0, r3
 1781 0806 05B0     		add	sp, sp, #20
 1782              		@ sp needed
 1783 0808 5DF804FB 		ldr	pc, [sp], #4
 1784              		.cfi_endproc
 1785              	.LFE34:
 1786              		.size	HTS221_Set_ODR, .-HTS221_Set_ODR
 1787              		.global	__aeabi_fcmple
 1788              		.align	2
 1789 080c AFF30080 		.p2align 4,,15
 1790              		.thumb
 1791              		.thumb_func
 1792              		.type	HTS221_Set_ODR_Value, %function
 1793              	HTS221_Set_ODR_Value:
 1794              	.LFB35:
 1795              		.loc 1 979 0
 1796              		.cfi_startproc
 1797              		@ args = 0, pretend = 0, frame = 16
 1798              		@ frame_needed = 0, uses_anonymous_args = 0
 1799 0810 00B5     		push	{lr}
 1800              		.cfi_def_cfa_offset 4
 1801              		.cfi_offset 14, -4
 1802 0812 85B0     		sub	sp, sp, #20
 1803              		.cfi_def_cfa_offset 24
 1804 0814 0190     		str	r0, [sp, #4]
 1805 0816 0091     		str	r1, [sp]	@ float
 1806              		.loc 1 983 0
 1807 0818 0098     		ldr	r0, [sp]	@ float
 1808 081a 4FF07E51 		mov	r1, #1065353216
 1809 081e FFF7FEFF 		bl	__aeabi_fcmple
 1810 0822 0346     		mov	r3, r0
 1811 0824 002B     		cmp	r3, #0
 1812 0826 01D0     		beq	.L150
ARM GAS  /tmp/cc13LZ9Z.s 			page 33


 1813              		.loc 1 983 0 is_stmt 0 discriminator 1
 1814 0828 0123     		movs	r3, #1
 1815 082a 09E0     		b	.L142
 1816              	.L150:
 1817              		.loc 1 983 0 discriminator 2
 1818 082c 0098     		ldr	r0, [sp]	@ float
 1819 082e 0D49     		ldr	r1, .L152
 1820 0830 FFF7FEFF 		bl	__aeabi_fcmple
 1821 0834 0346     		mov	r3, r0
 1822 0836 002B     		cmp	r3, #0
 1823 0838 01D0     		beq	.L151
 1824              		.loc 1 983 0 discriminator 3
 1825 083a 0223     		movs	r3, #2
 1826 083c 00E0     		b	.L142
 1827              	.L151:
 1828              		.loc 1 983 0 discriminator 4
 1829 083e 0323     		movs	r3, #3
 1830              	.L142:
 1831              		.loc 1 983 0 discriminator 6
 1832 0840 8DF80F30 		strb	r3, [sp, #15]
 1833              		.loc 1 987 0 is_stmt 1 discriminator 6
 1834 0844 9DF80F30 		ldrb	r3, [sp, #15]	@ zero_extendqisi2
 1835 0848 0198     		ldr	r0, [sp, #4]
 1836 084a 1946     		mov	r1, r3
 1837 084c FFF7FEFF 		bl	HTS221_Set_Odr
 1838 0850 0346     		mov	r3, r0
 1839 0852 012B     		cmp	r3, #1
 1840 0854 01D1     		bne	.L146
 1841              		.loc 1 989 0
 1842 0856 0123     		movs	r3, #1
 1843 0858 00E0     		b	.L147
 1844              	.L146:
 1845              		.loc 1 992 0
 1846 085a 0023     		movs	r3, #0
 1847              	.L147:
 1848              		.loc 1 993 0
 1849 085c 1846     		mov	r0, r3
 1850 085e 05B0     		add	sp, sp, #20
 1851              		@ sp needed
 1852 0860 5DF804FB 		ldr	pc, [sp], #4
 1853              	.L153:
 1854              		.align	2
 1855              	.L152:
 1856 0864 0000E040 		.word	1088421888
 1857              		.cfi_endproc
 1858              	.LFE35:
 1859              		.size	HTS221_Set_ODR_Value, .-HTS221_Set_ODR_Value
 1860              		.align	2
 1861 0868 AFF30080 		.p2align 4,,15
 1861      AFF30080 
 1862              		.thumb
 1863              		.thumb_func
 1864              		.type	HTS221_Read_Reg, %function
 1865              	HTS221_Read_Reg:
 1866              	.LFB36:
 1867              		.loc 1 1004 0
 1868              		.cfi_startproc
ARM GAS  /tmp/cc13LZ9Z.s 			page 34


 1869              		@ args = 0, pretend = 0, frame = 16
 1870              		@ frame_needed = 0, uses_anonymous_args = 0
 1871 0870 00B5     		push	{lr}
 1872              		.cfi_def_cfa_offset 4
 1873              		.cfi_offset 14, -4
 1874 0872 85B0     		sub	sp, sp, #20
 1875              		.cfi_def_cfa_offset 24
 1876 0874 0390     		str	r0, [sp, #12]
 1877 0876 0B46     		mov	r3, r1
 1878 0878 0192     		str	r2, [sp, #4]
 1879 087a 8DF80B30 		strb	r3, [sp, #11]
 1880              		.loc 1 1006 0
 1881 087e 9DF80B30 		ldrb	r3, [sp, #11]	@ zero_extendqisi2
 1882 0882 0398     		ldr	r0, [sp, #12]
 1883 0884 1946     		mov	r1, r3
 1884 0886 0122     		movs	r2, #1
 1885 0888 019B     		ldr	r3, [sp, #4]
 1886 088a FFF7FEFF 		bl	HTS221_ReadReg
 1887 088e 0346     		mov	r3, r0
 1888 0890 012B     		cmp	r3, #1
 1889 0892 01D1     		bne	.L155
 1890              		.loc 1 1008 0
 1891 0894 0123     		movs	r3, #1
 1892 0896 00E0     		b	.L156
 1893              	.L155:
 1894              		.loc 1 1011 0
 1895 0898 0023     		movs	r3, #0
 1896              	.L156:
 1897              		.loc 1 1012 0
 1898 089a 1846     		mov	r0, r3
 1899 089c 05B0     		add	sp, sp, #20
 1900              		@ sp needed
 1901 089e 5DF804FB 		ldr	pc, [sp], #4
 1902              		.cfi_endproc
 1903              	.LFE36:
 1904              		.size	HTS221_Read_Reg, .-HTS221_Read_Reg
 1905 08a2 00BF     		.align	2
 1906 08a4 AFF30080 		.p2align 4,,15
 1906      AFF30080 
 1906      AFF30080 
 1907              		.thumb
 1908              		.thumb_func
 1909              		.type	HTS221_Write_Reg, %function
 1910              	HTS221_Write_Reg:
 1911              	.LFB37:
 1912              		.loc 1 1023 0
 1913              		.cfi_startproc
 1914              		@ args = 0, pretend = 0, frame = 8
 1915              		@ frame_needed = 0, uses_anonymous_args = 0
 1916 08b0 00B5     		push	{lr}
 1917              		.cfi_def_cfa_offset 4
 1918              		.cfi_offset 14, -4
 1919 08b2 83B0     		sub	sp, sp, #12
 1920              		.cfi_def_cfa_offset 16
 1921 08b4 0190     		str	r0, [sp, #4]
 1922 08b6 1346     		mov	r3, r2
 1923 08b8 0A46     		mov	r2, r1
ARM GAS  /tmp/cc13LZ9Z.s 			page 35


 1924 08ba 8DF80320 		strb	r2, [sp, #3]
 1925 08be 8DF80230 		strb	r3, [sp, #2]
 1926              		.loc 1 1025 0
 1927 08c2 9DF80320 		ldrb	r2, [sp, #3]	@ zero_extendqisi2
 1928 08c6 0DF10203 		add	r3, sp, #2
 1929 08ca 0198     		ldr	r0, [sp, #4]
 1930 08cc 1146     		mov	r1, r2
 1931 08ce 0122     		movs	r2, #1
 1932 08d0 FFF7FEFF 		bl	HTS221_WriteReg
 1933 08d4 0346     		mov	r3, r0
 1934 08d6 012B     		cmp	r3, #1
 1935 08d8 01D1     		bne	.L158
 1936              		.loc 1 1027 0
 1937 08da 0123     		movs	r3, #1
 1938 08dc 00E0     		b	.L159
 1939              	.L158:
 1940              		.loc 1 1030 0
 1941 08de 0023     		movs	r3, #0
 1942              	.L159:
 1943              		.loc 1 1031 0
 1944 08e0 1846     		mov	r0, r3
 1945 08e2 03B0     		add	sp, sp, #12
 1946              		@ sp needed
 1947 08e4 5DF804FB 		ldr	pc, [sp], #4
 1948              		.cfi_endproc
 1949              	.LFE37:
 1950              		.size	HTS221_Write_Reg, .-HTS221_Write_Reg
 1951              	.Letext0:
 1952              		.file 2 "/nfs/nfs5/home/research/hardware/arm2/gcc-arm-embedded/gcc-arm-none-eabi-4_8-2014q2/arm-n
 1953              		.file 3 "/nfs/nfs5/home/research/hardware/arm2/gcc-arm-embedded/gcc-arm-none-eabi-4_8-2014q2/arm-n
 1954              		.file 4 "../../../../../Drivers/BSP/Components/Common/component.h"
 1955              		.file 5 "../../../../../Drivers/BSP/Components/Common/sensor.h"
 1956              		.file 6 "../../../../../Drivers/BSP/Components/Common/humidity.h"
 1957              		.file 7 "../../../../../Drivers/BSP/Components/Common/temperature.h"
 1958              		.file 8 "../../../../../Drivers/BSP/Components/hts221/HTS221_Driver.h"
 1959              		.file 9 "../../../../../Drivers/BSP/Components/hts221/HTS221_Driver_HL.h"