ARM GAS  /tmp/ccJWCNBb.s 			page 1


   1              		.syntax unified
   2              		.cpu cortex-m4
   3              		.fpu softvfp
   4              		.eabi_attribute 20, 1
   5              		.eabi_attribute 21, 1
   6              		.eabi_attribute 23, 3
   7              		.eabi_attribute 24, 1
   8              		.eabi_attribute 25, 1
   9              		.eabi_attribute 26, 1
  10              		.eabi_attribute 30, 6
  11              		.eabi_attribute 34, 1
  12              		.eabi_attribute 18, 4
  13              		.thumb
  14              		.file	"HTS221_Driver.c"
  15              		.text
  16              	.Ltext0:
  17              		.cfi_sections	.debug_frame
  18              		.align	2
  19              		.p2align 4,,15
  20              		.global	HTS221_ReadReg
  21              		.thumb
  22              		.thumb_func
  23              		.type	HTS221_ReadReg, %function
  24              	HTS221_ReadReg:
  25              	.LFB0:
  26              		.file 1 "../../../../../Drivers/BSP/Components/hts221/HTS221_Driver.c"
  27              		.loc 1 95 0
  28              		.cfi_startproc
  29              		@ args = 0, pretend = 0, frame = 16
  30              		@ frame_needed = 0, uses_anonymous_args = 0
  31 0000 00B5     		push	{lr}
  32              		.cfi_def_cfa_offset 4
  33              		.cfi_offset 14, -4
  34 0002 85B0     		sub	sp, sp, #20
  35              		.cfi_def_cfa_offset 24
  36 0004 0390     		str	r0, [sp, #12]
  37 0006 0193     		str	r3, [sp, #4]
  38 0008 0B46     		mov	r3, r1
  39 000a 8DF80B30 		strb	r3, [sp, #11]
  40 000e 1346     		mov	r3, r2	@ movhi
  41 0010 ADF80830 		strh	r3, [sp, #8]	@ movhi
  42              		.loc 1 97 0
  43 0014 9DF80B20 		ldrb	r2, [sp, #11]	@ zero_extendqisi2
  44 0018 BDF80830 		ldrh	r3, [sp, #8]
  45 001c 0398     		ldr	r0, [sp, #12]
  46 001e 1146     		mov	r1, r2
  47 0020 019A     		ldr	r2, [sp, #4]
  48 0022 FFF7FEFF 		bl	Sensor_IO_Read
  49 0026 0346     		mov	r3, r0
  50 0028 002B     		cmp	r3, #0
  51 002a 01D0     		beq	.L2
  52              		.loc 1 98 0
  53 002c 0123     		movs	r3, #1
  54 002e 00E0     		b	.L3
  55              	.L2:
  56              		.loc 1 100 0
  57 0030 0023     		movs	r3, #0
ARM GAS  /tmp/ccJWCNBb.s 			page 2


  58              	.L3:
  59              		.loc 1 101 0
  60 0032 1846     		mov	r0, r3
  61 0034 05B0     		add	sp, sp, #20
  62              		@ sp needed
  63 0036 5DF804FB 		ldr	pc, [sp], #4
  64              		.cfi_endproc
  65              	.LFE0:
  66              		.size	HTS221_ReadReg, .-HTS221_ReadReg
  67 003a 00BF     		.align	2
  68 003c AFF30080 		.p2align 4,,15
  69              		.global	HTS221_WriteReg
  70              		.thumb
  71              		.thumb_func
  72              		.type	HTS221_WriteReg, %function
  73              	HTS221_WriteReg:
  74              	.LFB1:
  75              		.loc 1 112 0
  76              		.cfi_startproc
  77              		@ args = 0, pretend = 0, frame = 16
  78              		@ frame_needed = 0, uses_anonymous_args = 0
  79 0040 00B5     		push	{lr}
  80              		.cfi_def_cfa_offset 4
  81              		.cfi_offset 14, -4
  82 0042 85B0     		sub	sp, sp, #20
  83              		.cfi_def_cfa_offset 24
  84 0044 0390     		str	r0, [sp, #12]
  85 0046 0193     		str	r3, [sp, #4]
  86 0048 0B46     		mov	r3, r1
  87 004a 8DF80B30 		strb	r3, [sp, #11]
  88 004e 1346     		mov	r3, r2	@ movhi
  89 0050 ADF80830 		strh	r3, [sp, #8]	@ movhi
  90              		.loc 1 114 0
  91 0054 9DF80B20 		ldrb	r2, [sp, #11]	@ zero_extendqisi2
  92 0058 BDF80830 		ldrh	r3, [sp, #8]
  93 005c 0398     		ldr	r0, [sp, #12]
  94 005e 1146     		mov	r1, r2
  95 0060 019A     		ldr	r2, [sp, #4]
  96 0062 FFF7FEFF 		bl	Sensor_IO_Write
  97 0066 0346     		mov	r3, r0
  98 0068 002B     		cmp	r3, #0
  99 006a 01D0     		beq	.L5
 100              		.loc 1 115 0
 101 006c 0123     		movs	r3, #1
 102 006e 00E0     		b	.L6
 103              	.L5:
 104              		.loc 1 117 0
 105 0070 0023     		movs	r3, #0
 106              	.L6:
 107              		.loc 1 118 0
 108 0072 1846     		mov	r0, r3
 109 0074 05B0     		add	sp, sp, #20
 110              		@ sp needed
 111 0076 5DF804FB 		ldr	pc, [sp], #4
 112              		.cfi_endproc
 113              	.LFE1:
 114              		.size	HTS221_WriteReg, .-HTS221_WriteReg
ARM GAS  /tmp/ccJWCNBb.s 			page 3


 115 007a 00BF     		.align	2
 116 007c AFF30080 		.p2align 4,,15
 117              		.global	HTS221_Get_DriverVersion
 118              		.thumb
 119              		.thumb_func
 120              		.type	HTS221_Get_DriverVersion, %function
 121              	HTS221_Get_DriverVersion:
 122              	.LFB2:
 123              		.loc 1 127 0
 124              		.cfi_startproc
 125              		@ args = 0, pretend = 0, frame = 8
 126              		@ frame_needed = 0, uses_anonymous_args = 0
 127              		@ link register save eliminated.
 128 0080 82B0     		sub	sp, sp, #8
 129              		.cfi_def_cfa_offset 8
 130 0082 0190     		str	r0, [sp, #4]
 131              		.loc 1 128 0
 132 0084 019B     		ldr	r3, [sp, #4]
 133 0086 0122     		movs	r2, #1
 134 0088 1A70     		strb	r2, [r3]
 135              		.loc 1 129 0
 136 008a 019B     		ldr	r3, [sp, #4]
 137 008c 0122     		movs	r2, #1
 138 008e 5A70     		strb	r2, [r3, #1]
 139              		.loc 1 130 0
 140 0090 019B     		ldr	r3, [sp, #4]
 141 0092 0022     		movs	r2, #0
 142 0094 9A70     		strb	r2, [r3, #2]
 143              		.loc 1 132 0
 144 0096 0023     		movs	r3, #0
 145              		.loc 1 133 0
 146 0098 1846     		mov	r0, r3
 147 009a 02B0     		add	sp, sp, #8
 148              		@ sp needed
 149 009c 7047     		bx	lr
 150              		.cfi_endproc
 151              	.LFE2:
 152              		.size	HTS221_Get_DriverVersion, .-HTS221_Get_DriverVersion
 153 009e 00BF     		.align	2
 154              		.p2align 4,,15
 155              		.global	HTS221_Get_DeviceID
 156              		.thumb
 157              		.thumb_func
 158              		.type	HTS221_Get_DeviceID, %function
 159              	HTS221_Get_DeviceID:
 160              	.LFB3:
 161              		.loc 1 142 0
 162              		.cfi_startproc
 163              		@ args = 0, pretend = 0, frame = 8
 164              		@ frame_needed = 0, uses_anonymous_args = 0
 165 00a0 00B5     		push	{lr}
 166              		.cfi_def_cfa_offset 4
 167              		.cfi_offset 14, -4
 168 00a2 83B0     		sub	sp, sp, #12
 169              		.cfi_def_cfa_offset 16
 170 00a4 0190     		str	r0, [sp, #4]
 171 00a6 0091     		str	r1, [sp]
ARM GAS  /tmp/ccJWCNBb.s 			page 4


 172              		.loc 1 143 0
 173 00a8 0198     		ldr	r0, [sp, #4]
 174 00aa 0F21     		movs	r1, #15
 175 00ac 0122     		movs	r2, #1
 176 00ae 009B     		ldr	r3, [sp]
 177 00b0 FFF7FEFF 		bl	HTS221_ReadReg
 178 00b4 0346     		mov	r3, r0
 179 00b6 002B     		cmp	r3, #0
 180 00b8 01D0     		beq	.L10
 181              		.loc 1 144 0
 182 00ba 0123     		movs	r3, #1
 183 00bc 00E0     		b	.L11
 184              	.L10:
 185              		.loc 1 146 0
 186 00be 0023     		movs	r3, #0
 187              	.L11:
 188              		.loc 1 147 0
 189 00c0 1846     		mov	r0, r3
 190 00c2 03B0     		add	sp, sp, #12
 191              		@ sp needed
 192 00c4 5DF804FB 		ldr	pc, [sp], #4
 193              		.cfi_endproc
 194              	.LFE3:
 195              		.size	HTS221_Get_DeviceID, .-HTS221_Get_DeviceID
 196              		.section	.rodata
 197              		.align	2
 198              	.LC0:
 199 0000 2E2E2F2E 		.ascii	"../../../../../Drivers/BSP/Components/hts221/HTS221"
 199      2E2F2E2E 
 199      2F2E2E2F 
 199      2E2E2F44 
 199      72697665 
 200 0033 5F447269 		.ascii	"_Driver.c\000"
 200      7665722E 
 200      6300
 201              		.text
 202              		.align	2
 203 00c8 AFF30080 		.p2align 4,,15
 203      AFF30080 
 204              		.global	HTS221_Set_InitConfig
 205              		.thumb
 206              		.thumb_func
 207              		.type	HTS221_Set_InitConfig, %function
 208              	HTS221_Set_InitConfig:
 209              	.LFB4:
 210              		.loc 1 157 0
 211              		.cfi_startproc
 212              		@ args = 0, pretend = 0, frame = 16
 213              		@ frame_needed = 0, uses_anonymous_args = 0
 214 00d0 00B5     		push	{lr}
 215              		.cfi_def_cfa_offset 4
 216              		.cfi_offset 14, -4
 217 00d2 85B0     		sub	sp, sp, #20
 218              		.cfi_def_cfa_offset 24
 219 00d4 0190     		str	r0, [sp, #4]
 220 00d6 0091     		str	r1, [sp]
 221              		.loc 1 160 0
ARM GAS  /tmp/ccJWCNBb.s 			page 5


 222 00d8 009B     		ldr	r3, [sp]
 223 00da 1B78     		ldrb	r3, [r3]	@ zero_extendqisi2
 224 00dc 002B     		cmp	r3, #0
 225 00de 1FD0     		beq	.L13
 226              		.loc 1 160 0 is_stmt 0 discriminator 1
 227 00e0 009B     		ldr	r3, [sp]
 228 00e2 1B78     		ldrb	r3, [r3]	@ zero_extendqisi2
 229 00e4 012B     		cmp	r3, #1
 230 00e6 1BD0     		beq	.L13
 231 00e8 009B     		ldr	r3, [sp]
 232 00ea 1B78     		ldrb	r3, [r3]	@ zero_extendqisi2
 233 00ec 022B     		cmp	r3, #2
 234 00ee 17D0     		beq	.L13
 235 00f0 009B     		ldr	r3, [sp]
 236 00f2 1B78     		ldrb	r3, [r3]	@ zero_extendqisi2
 237 00f4 032B     		cmp	r3, #3
 238 00f6 13D0     		beq	.L13
 239 00f8 009B     		ldr	r3, [sp]
 240 00fa 1B78     		ldrb	r3, [r3]	@ zero_extendqisi2
 241 00fc 042B     		cmp	r3, #4
 242 00fe 0FD0     		beq	.L13
 243 0100 009B     		ldr	r3, [sp]
 244 0102 1B78     		ldrb	r3, [r3]	@ zero_extendqisi2
 245 0104 052B     		cmp	r3, #5
 246 0106 0BD0     		beq	.L13
 247 0108 009B     		ldr	r3, [sp]
 248 010a 1B78     		ldrb	r3, [r3]	@ zero_extendqisi2
 249 010c 062B     		cmp	r3, #6
 250 010e 07D0     		beq	.L13
 251 0110 009B     		ldr	r3, [sp]
 252 0112 1B78     		ldrb	r3, [r3]	@ zero_extendqisi2
 253 0114 072B     		cmp	r3, #7
 254 0116 03D0     		beq	.L13
 255 0118 8A48     		ldr	r0, .L27
 256 011a A021     		movs	r1, #160
 257 011c FFF7FEFF 		bl	HTS221_assert_failed
 258              	.L13:
 259              		.loc 1 161 0 is_stmt 1
 260 0120 009B     		ldr	r3, [sp]
 261 0122 5B78     		ldrb	r3, [r3, #1]	@ zero_extendqisi2
 262 0124 002B     		cmp	r3, #0
 263 0126 1FD0     		beq	.L14
 264              		.loc 1 161 0 is_stmt 0 discriminator 1
 265 0128 009B     		ldr	r3, [sp]
 266 012a 5B78     		ldrb	r3, [r3, #1]	@ zero_extendqisi2
 267 012c 082B     		cmp	r3, #8
 268 012e 1BD0     		beq	.L14
 269 0130 009B     		ldr	r3, [sp]
 270 0132 5B78     		ldrb	r3, [r3, #1]	@ zero_extendqisi2
 271 0134 102B     		cmp	r3, #16
 272 0136 17D0     		beq	.L14
 273 0138 009B     		ldr	r3, [sp]
 274 013a 5B78     		ldrb	r3, [r3, #1]	@ zero_extendqisi2
 275 013c 182B     		cmp	r3, #24
 276 013e 13D0     		beq	.L14
 277 0140 009B     		ldr	r3, [sp]
 278 0142 5B78     		ldrb	r3, [r3, #1]	@ zero_extendqisi2
ARM GAS  /tmp/ccJWCNBb.s 			page 6


 279 0144 202B     		cmp	r3, #32
 280 0146 0FD0     		beq	.L14
 281 0148 009B     		ldr	r3, [sp]
 282 014a 5B78     		ldrb	r3, [r3, #1]	@ zero_extendqisi2
 283 014c 282B     		cmp	r3, #40
 284 014e 0BD0     		beq	.L14
 285 0150 009B     		ldr	r3, [sp]
 286 0152 5B78     		ldrb	r3, [r3, #1]	@ zero_extendqisi2
 287 0154 302B     		cmp	r3, #48
 288 0156 07D0     		beq	.L14
 289 0158 009B     		ldr	r3, [sp]
 290 015a 5B78     		ldrb	r3, [r3, #1]	@ zero_extendqisi2
 291 015c 382B     		cmp	r3, #56
 292 015e 03D0     		beq	.L14
 293 0160 7848     		ldr	r0, .L27
 294 0162 A121     		movs	r1, #161
 295 0164 FFF7FEFF 		bl	HTS221_assert_failed
 296              	.L14:
 297              		.loc 1 162 0 is_stmt 1
 298 0168 009B     		ldr	r3, [sp]
 299 016a 9B78     		ldrb	r3, [r3, #2]	@ zero_extendqisi2
 300 016c 002B     		cmp	r3, #0
 301 016e 0FD0     		beq	.L15
 302              		.loc 1 162 0 is_stmt 0 discriminator 1
 303 0170 009B     		ldr	r3, [sp]
 304 0172 9B78     		ldrb	r3, [r3, #2]	@ zero_extendqisi2
 305 0174 012B     		cmp	r3, #1
 306 0176 0BD0     		beq	.L15
 307 0178 009B     		ldr	r3, [sp]
 308 017a 9B78     		ldrb	r3, [r3, #2]	@ zero_extendqisi2
 309 017c 022B     		cmp	r3, #2
 310 017e 07D0     		beq	.L15
 311 0180 009B     		ldr	r3, [sp]
 312 0182 9B78     		ldrb	r3, [r3, #2]	@ zero_extendqisi2
 313 0184 032B     		cmp	r3, #3
 314 0186 03D0     		beq	.L15
 315 0188 6E48     		ldr	r0, .L27
 316 018a A221     		movs	r1, #162
 317 018c FFF7FEFF 		bl	HTS221_assert_failed
 318              	.L15:
 319              		.loc 1 163 0 is_stmt 1
 320 0190 009B     		ldr	r3, [sp]
 321 0192 DB78     		ldrb	r3, [r3, #3]	@ zero_extendqisi2
 322 0194 012B     		cmp	r3, #1
 323 0196 07D0     		beq	.L16
 324              		.loc 1 163 0 is_stmt 0 discriminator 1
 325 0198 009B     		ldr	r3, [sp]
 326 019a DB78     		ldrb	r3, [r3, #3]	@ zero_extendqisi2
 327 019c 002B     		cmp	r3, #0
 328 019e 03D0     		beq	.L16
 329 01a0 6848     		ldr	r0, .L27
 330 01a2 A321     		movs	r1, #163
 331 01a4 FFF7FEFF 		bl	HTS221_assert_failed
 332              	.L16:
 333              		.loc 1 164 0 is_stmt 1
 334 01a8 009B     		ldr	r3, [sp]
 335 01aa 1B79     		ldrb	r3, [r3, #4]	@ zero_extendqisi2
ARM GAS  /tmp/ccJWCNBb.s 			page 7


 336 01ac 012B     		cmp	r3, #1
 337 01ae 07D0     		beq	.L17
 338              		.loc 1 164 0 is_stmt 0 discriminator 1
 339 01b0 009B     		ldr	r3, [sp]
 340 01b2 1B79     		ldrb	r3, [r3, #4]	@ zero_extendqisi2
 341 01b4 002B     		cmp	r3, #0
 342 01b6 03D0     		beq	.L17
 343 01b8 6248     		ldr	r0, .L27
 344 01ba A421     		movs	r1, #164
 345 01bc FFF7FEFF 		bl	HTS221_assert_failed
 346              	.L17:
 347              		.loc 1 166 0 is_stmt 1
 348 01c0 009B     		ldr	r3, [sp]
 349 01c2 5B79     		ldrb	r3, [r3, #5]	@ zero_extendqisi2
 350 01c4 002B     		cmp	r3, #0
 351 01c6 07D0     		beq	.L18
 352              		.loc 1 166 0 is_stmt 0 discriminator 1
 353 01c8 009B     		ldr	r3, [sp]
 354 01ca 5B79     		ldrb	r3, [r3, #5]	@ zero_extendqisi2
 355 01cc 802B     		cmp	r3, #128
 356 01ce 03D0     		beq	.L18
 357 01d0 5C48     		ldr	r0, .L27
 358 01d2 A621     		movs	r1, #166
 359 01d4 FFF7FEFF 		bl	HTS221_assert_failed
 360              	.L18:
 361              		.loc 1 167 0 is_stmt 1
 362 01d8 009B     		ldr	r3, [sp]
 363 01da 9B79     		ldrb	r3, [r3, #6]	@ zero_extendqisi2
 364 01dc 002B     		cmp	r3, #0
 365 01de 07D0     		beq	.L19
 366              		.loc 1 167 0 is_stmt 0 discriminator 1
 367 01e0 009B     		ldr	r3, [sp]
 368 01e2 9B79     		ldrb	r3, [r3, #6]	@ zero_extendqisi2
 369 01e4 402B     		cmp	r3, #64
 370 01e6 03D0     		beq	.L19
 371 01e8 5648     		ldr	r0, .L27
 372 01ea A721     		movs	r1, #167
 373 01ec FFF7FEFF 		bl	HTS221_assert_failed
 374              	.L19:
 375              		.loc 1 168 0 is_stmt 1
 376 01f0 009B     		ldr	r3, [sp]
 377 01f2 DB79     		ldrb	r3, [r3, #7]	@ zero_extendqisi2
 378 01f4 012B     		cmp	r3, #1
 379 01f6 07D0     		beq	.L20
 380              		.loc 1 168 0 is_stmt 0 discriminator 1
 381 01f8 009B     		ldr	r3, [sp]
 382 01fa DB79     		ldrb	r3, [r3, #7]	@ zero_extendqisi2
 383 01fc 002B     		cmp	r3, #0
 384 01fe 03D0     		beq	.L20
 385 0200 5048     		ldr	r0, .L27
 386 0202 A821     		movs	r1, #168
 387 0204 FFF7FEFF 		bl	HTS221_assert_failed
 388              	.L20:
 389              		.loc 1 170 0 is_stmt 1
 390 0208 03AB     		add	r3, sp, #12
 391 020a 0198     		ldr	r0, [sp, #4]
 392 020c 1021     		movs	r1, #16
ARM GAS  /tmp/ccJWCNBb.s 			page 8


 393 020e 0122     		movs	r2, #1
 394 0210 FFF7FEFF 		bl	HTS221_ReadReg
 395 0214 0346     		mov	r3, r0
 396 0216 002B     		cmp	r3, #0
 397 0218 01D0     		beq	.L21
 398              		.loc 1 171 0
 399 021a 0123     		movs	r3, #1
 400 021c 8DE0     		b	.L26
 401              	.L21:
 402              		.loc 1 173 0
 403 021e 9DF80C30 		ldrb	r3, [sp, #12]	@ zero_extendqisi2
 404 0222 23F03F03 		bic	r3, r3, #63
 405 0226 DBB2     		uxtb	r3, r3
 406 0228 8DF80C30 		strb	r3, [sp, #12]
 407              		.loc 1 174 0
 408 022c 9DF80C20 		ldrb	r2, [sp, #12]	@ zero_extendqisi2
 409 0230 009B     		ldr	r3, [sp]
 410 0232 1B78     		ldrb	r3, [r3]	@ zero_extendqisi2
 411 0234 1343     		orrs	r3, r3, r2
 412 0236 DBB2     		uxtb	r3, r3
 413 0238 8DF80C30 		strb	r3, [sp, #12]
 414              		.loc 1 175 0
 415 023c 9DF80C20 		ldrb	r2, [sp, #12]	@ zero_extendqisi2
 416 0240 009B     		ldr	r3, [sp]
 417 0242 5B78     		ldrb	r3, [r3, #1]	@ zero_extendqisi2
 418 0244 1343     		orrs	r3, r3, r2
 419 0246 DBB2     		uxtb	r3, r3
 420 0248 8DF80C30 		strb	r3, [sp, #12]
 421              		.loc 1 177 0
 422 024c 03AB     		add	r3, sp, #12
 423 024e 0198     		ldr	r0, [sp, #4]
 424 0250 1021     		movs	r1, #16
 425 0252 0122     		movs	r2, #1
 426 0254 FFF7FEFF 		bl	HTS221_WriteReg
 427 0258 0346     		mov	r3, r0
 428 025a 002B     		cmp	r3, #0
 429 025c 01D0     		beq	.L23
 430              		.loc 1 178 0
 431 025e 0123     		movs	r3, #1
 432 0260 6BE0     		b	.L26
 433              	.L23:
 434              		.loc 1 180 0
 435 0262 03AB     		add	r3, sp, #12
 436 0264 0198     		ldr	r0, [sp, #4]
 437 0266 2021     		movs	r1, #32
 438 0268 0322     		movs	r2, #3
 439 026a FFF7FEFF 		bl	HTS221_ReadReg
 440 026e 0346     		mov	r3, r0
 441 0270 002B     		cmp	r3, #0
 442 0272 01D0     		beq	.L24
 443              		.loc 1 181 0
 444 0274 0123     		movs	r3, #1
 445 0276 60E0     		b	.L26
 446              	.L24:
 447              		.loc 1 183 0
 448 0278 9DF80C30 		ldrb	r3, [sp, #12]	@ zero_extendqisi2
 449 027c 23F00703 		bic	r3, r3, #7
ARM GAS  /tmp/ccJWCNBb.s 			page 9


 450 0280 DBB2     		uxtb	r3, r3
 451 0282 8DF80C30 		strb	r3, [sp, #12]
 452              		.loc 1 184 0
 453 0286 9DF80C20 		ldrb	r2, [sp, #12]	@ zero_extendqisi2
 454 028a 009B     		ldr	r3, [sp]
 455 028c 9B78     		ldrb	r3, [r3, #2]	@ zero_extendqisi2
 456 028e 1343     		orrs	r3, r3, r2
 457 0290 DBB2     		uxtb	r3, r3
 458 0292 8DF80C30 		strb	r3, [sp, #12]
 459              		.loc 1 185 0
 460 0296 9DF80C30 		ldrb	r3, [sp, #12]	@ zero_extendqisi2
 461 029a DAB2     		uxtb	r2, r3
 462 029c 009B     		ldr	r3, [sp]
 463 029e DB78     		ldrb	r3, [r3, #3]	@ zero_extendqisi2
 464 02a0 9B00     		lsls	r3, r3, #2
 465 02a2 DBB2     		uxtb	r3, r3
 466 02a4 1343     		orrs	r3, r3, r2
 467 02a6 DBB2     		uxtb	r3, r3
 468 02a8 DBB2     		uxtb	r3, r3
 469 02aa 8DF80C30 		strb	r3, [sp, #12]
 470              		.loc 1 187 0
 471 02ae 9DF80D30 		ldrb	r3, [sp, #13]	@ zero_extendqisi2
 472 02b2 23F00103 		bic	r3, r3, #1
 473 02b6 DBB2     		uxtb	r3, r3
 474 02b8 8DF80D30 		strb	r3, [sp, #13]
 475              		.loc 1 188 0
 476 02bc 9DF80D30 		ldrb	r3, [sp, #13]	@ zero_extendqisi2
 477 02c0 DAB2     		uxtb	r2, r3
 478 02c2 009B     		ldr	r3, [sp]
 479 02c4 1B79     		ldrb	r3, [r3, #4]	@ zero_extendqisi2
 480 02c6 5B00     		lsls	r3, r3, #1
 481 02c8 DBB2     		uxtb	r3, r3
 482 02ca 1343     		orrs	r3, r3, r2
 483 02cc DBB2     		uxtb	r3, r3
 484 02ce DBB2     		uxtb	r3, r3
 485 02d0 8DF80D30 		strb	r3, [sp, #13]
 486              		.loc 1 190 0
 487 02d4 9DF80E30 		ldrb	r3, [sp, #14]	@ zero_extendqisi2
 488 02d8 03F03B03 		and	r3, r3, #59
 489 02dc DBB2     		uxtb	r3, r3
 490 02de 8DF80E30 		strb	r3, [sp, #14]
 491              		.loc 1 191 0
 492 02e2 9DF80E30 		ldrb	r3, [sp, #14]	@ zero_extendqisi2
 493 02e6 DAB2     		uxtb	r2, r3
 494 02e8 009B     		ldr	r3, [sp]
 495 02ea 5B79     		ldrb	r3, [r3, #5]	@ zero_extendqisi2
 496 02ec DB01     		lsls	r3, r3, #7
 497 02ee DBB2     		uxtb	r3, r3
 498 02f0 1343     		orrs	r3, r3, r2
 499 02f2 DBB2     		uxtb	r3, r3
 500 02f4 DBB2     		uxtb	r3, r3
 501 02f6 8DF80E30 		strb	r3, [sp, #14]
 502              		.loc 1 192 0
 503 02fa 9DF80E20 		ldrb	r2, [sp, #14]	@ zero_extendqisi2
 504 02fe 009B     		ldr	r3, [sp]
 505 0300 9B79     		ldrb	r3, [r3, #6]	@ zero_extendqisi2
 506 0302 1343     		orrs	r3, r3, r2
ARM GAS  /tmp/ccJWCNBb.s 			page 10


 507 0304 DBB2     		uxtb	r3, r3
 508 0306 8DF80E30 		strb	r3, [sp, #14]
 509              		.loc 1 193 0
 510 030a 9DF80E30 		ldrb	r3, [sp, #14]	@ zero_extendqisi2
 511 030e DAB2     		uxtb	r2, r3
 512 0310 009B     		ldr	r3, [sp]
 513 0312 DB79     		ldrb	r3, [r3, #7]	@ zero_extendqisi2
 514 0314 9B00     		lsls	r3, r3, #2
 515 0316 DBB2     		uxtb	r3, r3
 516 0318 1343     		orrs	r3, r3, r2
 517 031a DBB2     		uxtb	r3, r3
 518 031c DBB2     		uxtb	r3, r3
 519 031e 8DF80E30 		strb	r3, [sp, #14]
 520              		.loc 1 195 0
 521 0322 03AB     		add	r3, sp, #12
 522 0324 0198     		ldr	r0, [sp, #4]
 523 0326 2021     		movs	r1, #32
 524 0328 0322     		movs	r2, #3
 525 032a FFF7FEFF 		bl	HTS221_WriteReg
 526 032e 0346     		mov	r3, r0
 527 0330 002B     		cmp	r3, #0
 528 0332 01D0     		beq	.L25
 529              		.loc 1 196 0
 530 0334 0123     		movs	r3, #1
 531 0336 00E0     		b	.L26
 532              	.L25:
 533              		.loc 1 198 0
 534 0338 0023     		movs	r3, #0
 535              	.L26:
 536              		.loc 1 199 0
 537 033a 1846     		mov	r0, r3
 538 033c 05B0     		add	sp, sp, #20
 539              		@ sp needed
 540 033e 5DF804FB 		ldr	pc, [sp], #4
 541              	.L28:
 542 0342 00BF     		.align	2
 543              	.L27:
 544 0344 00000000 		.word	.LC0
 545              		.cfi_endproc
 546              	.LFE4:
 547              		.size	HTS221_Set_InitConfig, .-HTS221_Set_InitConfig
 548              		.align	2
 549 0348 AFF30080 		.p2align 4,,15
 549      AFF30080 
 550              		.global	HTS221_Get_InitConfig
 551              		.thumb
 552              		.thumb_func
 553              		.type	HTS221_Get_InitConfig, %function
 554              	HTS221_Get_InitConfig:
 555              	.LFB5:
 556              		.loc 1 209 0
 557              		.cfi_startproc
 558              		@ args = 0, pretend = 0, frame = 16
 559              		@ frame_needed = 0, uses_anonymous_args = 0
 560 0350 00B5     		push	{lr}
 561              		.cfi_def_cfa_offset 4
 562              		.cfi_offset 14, -4
ARM GAS  /tmp/ccJWCNBb.s 			page 11


 563 0352 85B0     		sub	sp, sp, #20
 564              		.cfi_def_cfa_offset 24
 565 0354 0190     		str	r0, [sp, #4]
 566 0356 0091     		str	r1, [sp]
 567              		.loc 1 212 0
 568 0358 03AB     		add	r3, sp, #12
 569 035a 0198     		ldr	r0, [sp, #4]
 570 035c 1021     		movs	r1, #16
 571 035e 0122     		movs	r2, #1
 572 0360 FFF7FEFF 		bl	HTS221_ReadReg
 573 0364 0346     		mov	r3, r0
 574 0366 002B     		cmp	r3, #0
 575 0368 01D0     		beq	.L30
 576              		.loc 1 213 0
 577 036a 0123     		movs	r3, #1
 578 036c 46E0     		b	.L33
 579              	.L30:
 580              		.loc 1 215 0
 581 036e 9DF80C30 		ldrb	r3, [sp, #12]	@ zero_extendqisi2
 582 0372 03F00703 		and	r3, r3, #7
 583 0376 DAB2     		uxtb	r2, r3
 584 0378 009B     		ldr	r3, [sp]
 585 037a 1A70     		strb	r2, [r3]
 586              		.loc 1 216 0
 587 037c 9DF80C30 		ldrb	r3, [sp, #12]	@ zero_extendqisi2
 588 0380 03F03803 		and	r3, r3, #56
 589 0384 DAB2     		uxtb	r2, r3
 590 0386 009B     		ldr	r3, [sp]
 591 0388 5A70     		strb	r2, [r3, #1]
 592              		.loc 1 218 0
 593 038a 03AB     		add	r3, sp, #12
 594 038c 0198     		ldr	r0, [sp, #4]
 595 038e 2021     		movs	r1, #32
 596 0390 0322     		movs	r2, #3
 597 0392 FFF7FEFF 		bl	HTS221_ReadReg
 598 0396 0346     		mov	r3, r0
 599 0398 002B     		cmp	r3, #0
 600 039a 01D0     		beq	.L32
 601              		.loc 1 219 0
 602 039c 0123     		movs	r3, #1
 603 039e 2DE0     		b	.L33
 604              	.L32:
 605              		.loc 1 221 0
 606 03a0 9DF80C30 		ldrb	r3, [sp, #12]	@ zero_extendqisi2
 607 03a4 03F00303 		and	r3, r3, #3
 608 03a8 DAB2     		uxtb	r2, r3
 609 03aa 009B     		ldr	r3, [sp]
 610 03ac 9A70     		strb	r2, [r3, #2]
 611              		.loc 1 222 0
 612 03ae 9DF80C30 		ldrb	r3, [sp, #12]	@ zero_extendqisi2
 613 03b2 03F00403 		and	r3, r3, #4
 614 03b6 9B10     		asrs	r3, r3, #2
 615 03b8 DAB2     		uxtb	r2, r3
 616 03ba 009B     		ldr	r3, [sp]
 617 03bc DA70     		strb	r2, [r3, #3]
 618              		.loc 1 223 0
 619 03be 9DF80D30 		ldrb	r3, [sp, #13]	@ zero_extendqisi2
ARM GAS  /tmp/ccJWCNBb.s 			page 12


 620 03c2 03F00203 		and	r3, r3, #2
 621 03c6 5B10     		asrs	r3, r3, #1
 622 03c8 DAB2     		uxtb	r2, r3
 623 03ca 009B     		ldr	r3, [sp]
 624 03cc 1A71     		strb	r2, [r3, #4]
 625              		.loc 1 225 0
 626 03ce 9DF80E30 		ldrb	r3, [sp, #14]	@ zero_extendqisi2
 627 03d2 23F07F03 		bic	r3, r3, #127
 628 03d6 DAB2     		uxtb	r2, r3
 629 03d8 009B     		ldr	r3, [sp]
 630 03da 5A71     		strb	r2, [r3, #5]
 631              		.loc 1 226 0
 632 03dc 9DF80E30 		ldrb	r3, [sp, #14]	@ zero_extendqisi2
 633 03e0 03F04003 		and	r3, r3, #64
 634 03e4 DAB2     		uxtb	r2, r3
 635 03e6 009B     		ldr	r3, [sp]
 636 03e8 9A71     		strb	r2, [r3, #6]
 637              		.loc 1 227 0
 638 03ea 9DF80E30 		ldrb	r3, [sp, #14]	@ zero_extendqisi2
 639 03ee 03F00403 		and	r3, r3, #4
 640 03f2 9B10     		asrs	r3, r3, #2
 641 03f4 DAB2     		uxtb	r2, r3
 642 03f6 009B     		ldr	r3, [sp]
 643 03f8 DA71     		strb	r2, [r3, #7]
 644              		.loc 1 229 0
 645 03fa 0023     		movs	r3, #0
 646              	.L33:
 647              		.loc 1 230 0
 648 03fc 1846     		mov	r0, r3
 649 03fe 05B0     		add	sp, sp, #20
 650              		@ sp needed
 651 0400 5DF804FB 		ldr	pc, [sp], #4
 652              		.cfi_endproc
 653              	.LFE5:
 654              		.size	HTS221_Get_InitConfig, .-HTS221_Get_InitConfig
 655              		.align	2
 656 0404 AFF30080 		.p2align 4,,15
 656      AFF30080 
 656      AFF30080 
 657              		.global	HTS221_DeInit
 658              		.thumb
 659              		.thumb_func
 660              		.type	HTS221_DeInit, %function
 661              	HTS221_DeInit:
 662              	.LFB6:
 663              		.loc 1 239 0
 664              		.cfi_startproc
 665              		@ args = 0, pretend = 0, frame = 16
 666              		@ frame_needed = 0, uses_anonymous_args = 0
 667 0410 00B5     		push	{lr}
 668              		.cfi_def_cfa_offset 4
 669              		.cfi_offset 14, -4
 670 0412 85B0     		sub	sp, sp, #20
 671              		.cfi_def_cfa_offset 24
 672 0414 0190     		str	r0, [sp, #4]
 673              		.loc 1 242 0
 674 0416 03AB     		add	r3, sp, #12
ARM GAS  /tmp/ccJWCNBb.s 			page 13


 675 0418 0198     		ldr	r0, [sp, #4]
 676 041a 2021     		movs	r1, #32
 677 041c 0222     		movs	r2, #2
 678 041e FFF7FEFF 		bl	HTS221_ReadReg
 679 0422 0346     		mov	r3, r0
 680 0424 002B     		cmp	r3, #0
 681 0426 01D0     		beq	.L35
 682              		.loc 1 243 0
 683 0428 0123     		movs	r3, #1
 684 042a 24E0     		b	.L39
 685              	.L35:
 686              		.loc 1 246 0
 687 042c 9DF80C30 		ldrb	r3, [sp, #12]	@ zero_extendqisi2
 688 0430 63F07F03 		orn	r3, r3, #127
 689 0434 DBB2     		uxtb	r3, r3
 690 0436 8DF80C30 		strb	r3, [sp, #12]
 691              		.loc 1 249 0
 692 043a 9DF80D30 		ldrb	r3, [sp, #13]	@ zero_extendqisi2
 693 043e 63F07F03 		orn	r3, r3, #127
 694 0442 DBB2     		uxtb	r3, r3
 695 0444 8DF80D30 		strb	r3, [sp, #13]
 696              		.loc 1 251 0
 697 0448 03AB     		add	r3, sp, #12
 698 044a 0198     		ldr	r0, [sp, #4]
 699 044c 2021     		movs	r1, #32
 700 044e 0222     		movs	r2, #2
 701 0450 FFF7FEFF 		bl	HTS221_WriteReg
 702 0454 0346     		mov	r3, r0
 703 0456 002B     		cmp	r3, #0
 704 0458 01D0     		beq	.L37
 705              		.loc 1 252 0
 706 045a 0123     		movs	r3, #1
 707 045c 0BE0     		b	.L39
 708              	.L37:
 709              		.loc 1 255 0
 710 045e 03AB     		add	r3, sp, #12
 711 0460 0198     		ldr	r0, [sp, #4]
 712 0462 2821     		movs	r1, #40
 713 0464 0422     		movs	r2, #4
 714 0466 FFF7FEFF 		bl	HTS221_ReadReg
 715 046a 0346     		mov	r3, r0
 716 046c 002B     		cmp	r3, #0
 717 046e 01D0     		beq	.L38
 718              		.loc 1 256 0
 719 0470 0123     		movs	r3, #1
 720 0472 00E0     		b	.L39
 721              	.L38:
 722              		.loc 1 258 0
 723 0474 0023     		movs	r3, #0
 724              	.L39:
 725              		.loc 1 259 0
 726 0476 1846     		mov	r0, r3
 727 0478 05B0     		add	sp, sp, #20
 728              		@ sp needed
 729 047a 5DF804FB 		ldr	pc, [sp], #4
 730              		.cfi_endproc
 731              	.LFE6:
ARM GAS  /tmp/ccJWCNBb.s 			page 14


 732              		.size	HTS221_DeInit, .-HTS221_DeInit
 733 047e 00BF     		.align	2
 734              		.p2align 4,,15
 735              		.global	HTS221_Get_Measurement
 736              		.thumb
 737              		.thumb_func
 738              		.type	HTS221_Get_Measurement, %function
 739              	HTS221_Get_Measurement:
 740              	.LFB7:
 741              		.loc 1 269 0
 742              		.cfi_startproc
 743              		@ args = 0, pretend = 0, frame = 16
 744              		@ frame_needed = 0, uses_anonymous_args = 0
 745 0480 00B5     		push	{lr}
 746              		.cfi_def_cfa_offset 4
 747              		.cfi_offset 14, -4
 748 0482 85B0     		sub	sp, sp, #20
 749              		.cfi_def_cfa_offset 24
 750 0484 0390     		str	r0, [sp, #12]
 751 0486 0291     		str	r1, [sp, #8]
 752 0488 0192     		str	r2, [sp, #4]
 753              		.loc 1 270 0
 754 048a 0398     		ldr	r0, [sp, #12]
 755 048c 0199     		ldr	r1, [sp, #4]
 756 048e FFF7FEFF 		bl	HTS221_Get_Temperature
 757 0492 0346     		mov	r3, r0
 758 0494 012B     		cmp	r3, #1
 759 0496 01D1     		bne	.L41
 760              		.loc 1 270 0 is_stmt 0 discriminator 1
 761 0498 0123     		movs	r3, #1
 762 049a 09E0     		b	.L42
 763              	.L41:
 764              		.loc 1 271 0 is_stmt 1
 765 049c 0398     		ldr	r0, [sp, #12]
 766 049e 0299     		ldr	r1, [sp, #8]
 767 04a0 FFF7FEFF 		bl	HTS221_Get_Humidity
 768 04a4 0346     		mov	r3, r0
 769 04a6 012B     		cmp	r3, #1
 770 04a8 01D1     		bne	.L43
 771              		.loc 1 271 0 is_stmt 0 discriminator 1
 772 04aa 0123     		movs	r3, #1
 773 04ac 00E0     		b	.L42
 774              	.L43:
 775              		.loc 1 273 0 is_stmt 1
 776 04ae 0023     		movs	r3, #0
 777              	.L42:
 778              		.loc 1 274 0
 779 04b0 1846     		mov	r0, r3
 780 04b2 05B0     		add	sp, sp, #20
 781              		@ sp needed
 782 04b4 5DF804FB 		ldr	pc, [sp], #4
 783              		.cfi_endproc
 784              	.LFE7:
 785              		.size	HTS221_Get_Measurement, .-HTS221_Get_Measurement
 786              		.align	2
 787 04b8 AFF30080 		.p2align 4,,15
 787      AFF30080 
ARM GAS  /tmp/ccJWCNBb.s 			page 15


 788              		.global	HTS221_Get_RawMeasurement
 789              		.thumb
 790              		.thumb_func
 791              		.type	HTS221_Get_RawMeasurement, %function
 792              	HTS221_Get_RawMeasurement:
 793              	.LFB8:
 794              		.loc 1 284 0
 795              		.cfi_startproc
 796              		@ args = 0, pretend = 0, frame = 24
 797              		@ frame_needed = 0, uses_anonymous_args = 0
 798 04c0 00B5     		push	{lr}
 799              		.cfi_def_cfa_offset 4
 800              		.cfi_offset 14, -4
 801 04c2 87B0     		sub	sp, sp, #28
 802              		.cfi_def_cfa_offset 32
 803 04c4 0390     		str	r0, [sp, #12]
 804 04c6 0291     		str	r1, [sp, #8]
 805 04c8 0192     		str	r2, [sp, #4]
 806              		.loc 1 287 0
 807 04ca 05AB     		add	r3, sp, #20
 808 04cc 0398     		ldr	r0, [sp, #12]
 809 04ce 2821     		movs	r1, #40
 810 04d0 0422     		movs	r2, #4
 811 04d2 FFF7FEFF 		bl	HTS221_ReadReg
 812 04d6 0346     		mov	r3, r0
 813 04d8 002B     		cmp	r3, #0
 814 04da 01D0     		beq	.L45
 815              		.loc 1 288 0
 816 04dc 0123     		movs	r3, #1
 817 04de 14E0     		b	.L47
 818              	.L45:
 819              		.loc 1 290 0
 820 04e0 9DF81530 		ldrb	r3, [sp, #21]	@ zero_extendqisi2
 821 04e4 1B02     		lsls	r3, r3, #8
 822 04e6 9AB2     		uxth	r2, r3
 823 04e8 9DF81430 		ldrb	r3, [sp, #20]	@ zero_extendqisi2
 824 04ec 1343     		orrs	r3, r3, r2
 825 04ee 9AB2     		uxth	r2, r3
 826 04f0 029B     		ldr	r3, [sp, #8]
 827 04f2 1A80     		strh	r2, [r3]	@ movhi
 828              		.loc 1 291 0
 829 04f4 9DF81730 		ldrb	r3, [sp, #23]	@ zero_extendqisi2
 830 04f8 1B02     		lsls	r3, r3, #8
 831 04fa 9AB2     		uxth	r2, r3
 832 04fc 9DF81630 		ldrb	r3, [sp, #22]	@ zero_extendqisi2
 833 0500 1343     		orrs	r3, r3, r2
 834 0502 9AB2     		uxth	r2, r3
 835 0504 019B     		ldr	r3, [sp, #4]
 836 0506 1A80     		strh	r2, [r3]	@ movhi
 837              		.loc 1 293 0
 838 0508 0023     		movs	r3, #0
 839              	.L47:
 840              		.loc 1 294 0
 841 050a 1846     		mov	r0, r3
 842 050c 07B0     		add	sp, sp, #28
 843              		@ sp needed
 844 050e 5DF804FB 		ldr	pc, [sp], #4
ARM GAS  /tmp/ccJWCNBb.s 			page 16


 845              		.cfi_endproc
 846              	.LFE8:
 847              		.size	HTS221_Get_RawMeasurement, .-HTS221_Get_RawMeasurement
 848              		.global	__aeabi_i2f
 849              		.global	__aeabi_fmul
 850              		.global	__aeabi_fdiv
 851              		.global	__aeabi_fadd
 852              		.global	__aeabi_fcmpgt
 853              		.global	__aeabi_fcmplt
 854              		.global	__aeabi_f2uiz
 855 0512 00BF     		.align	2
 856 0514 AFF30080 		.p2align 4,,15
 856      AFF30080 
 856      AFF30080 
 857              		.global	HTS221_Get_Humidity
 858              		.thumb
 859              		.thumb_func
 860              		.type	HTS221_Get_Humidity, %function
 861              	HTS221_Get_Humidity:
 862              	.LFB9:
 863              		.loc 1 303 0
 864              		.cfi_startproc
 865              		@ args = 0, pretend = 0, frame = 32
 866              		@ frame_needed = 0, uses_anonymous_args = 0
 867 0520 10B5     		push	{r4, lr}
 868              		.cfi_def_cfa_offset 8
 869              		.cfi_offset 4, -8
 870              		.cfi_offset 14, -4
 871 0522 88B0     		sub	sp, sp, #32
 872              		.cfi_def_cfa_offset 40
 873 0524 0190     		str	r0, [sp, #4]
 874 0526 0091     		str	r1, [sp]
 875              		.loc 1 309 0
 876 0528 03AB     		add	r3, sp, #12
 877 052a 0198     		ldr	r0, [sp, #4]
 878 052c 3021     		movs	r1, #48
 879 052e 0222     		movs	r2, #2
 880 0530 FFF7FEFF 		bl	HTS221_ReadReg
 881 0534 0346     		mov	r3, r0
 882 0536 002B     		cmp	r3, #0
 883 0538 01D0     		beq	.L49
 884              		.loc 1 310 0
 885 053a 0123     		movs	r3, #1
 886 053c 9CE0     		b	.L60
 887              	.L49:
 888              		.loc 1 311 0
 889 053e 9DF80C30 		ldrb	r3, [sp, #12]	@ zero_extendqisi2
 890 0542 5B08     		lsrs	r3, r3, #1
 891 0544 DBB2     		uxtb	r3, r3
 892 0546 ADF81E30 		strh	r3, [sp, #30]	@ movhi
 893              		.loc 1 312 0
 894 054a 9DF80D30 		ldrb	r3, [sp, #13]	@ zero_extendqisi2
 895 054e 5B08     		lsrs	r3, r3, #1
 896 0550 DBB2     		uxtb	r3, r3
 897 0552 ADF81C30 		strh	r3, [sp, #28]	@ movhi
 898              		.loc 1 314 0
 899 0556 03AB     		add	r3, sp, #12
ARM GAS  /tmp/ccJWCNBb.s 			page 17


 900 0558 0198     		ldr	r0, [sp, #4]
 901 055a 3621     		movs	r1, #54
 902 055c 0222     		movs	r2, #2
 903 055e FFF7FEFF 		bl	HTS221_ReadReg
 904 0562 0346     		mov	r3, r0
 905 0564 002B     		cmp	r3, #0
 906 0566 01D0     		beq	.L51
 907              		.loc 1 315 0
 908 0568 0123     		movs	r3, #1
 909 056a 85E0     		b	.L60
 910              	.L51:
 911              		.loc 1 316 0
 912 056c 9DF80D30 		ldrb	r3, [sp, #13]	@ zero_extendqisi2
 913 0570 1B02     		lsls	r3, r3, #8
 914 0572 9AB2     		uxth	r2, r3
 915 0574 9DF80C30 		ldrb	r3, [sp, #12]	@ zero_extendqisi2
 916 0578 1343     		orrs	r3, r3, r2
 917 057a ADF81A30 		strh	r3, [sp, #26]	@ movhi
 918              		.loc 1 318 0
 919 057e 03AB     		add	r3, sp, #12
 920 0580 0198     		ldr	r0, [sp, #4]
 921 0582 3A21     		movs	r1, #58
 922 0584 0222     		movs	r2, #2
 923 0586 FFF7FEFF 		bl	HTS221_ReadReg
 924 058a 0346     		mov	r3, r0
 925 058c 002B     		cmp	r3, #0
 926 058e 01D0     		beq	.L52
 927              		.loc 1 319 0
 928 0590 0123     		movs	r3, #1
 929 0592 71E0     		b	.L60
 930              	.L52:
 931              		.loc 1 320 0
 932 0594 9DF80D30 		ldrb	r3, [sp, #13]	@ zero_extendqisi2
 933 0598 1B02     		lsls	r3, r3, #8
 934 059a 9AB2     		uxth	r2, r3
 935 059c 9DF80C30 		ldrb	r3, [sp, #12]	@ zero_extendqisi2
 936 05a0 1343     		orrs	r3, r3, r2
 937 05a2 ADF81830 		strh	r3, [sp, #24]	@ movhi
 938              		.loc 1 322 0
 939 05a6 03AB     		add	r3, sp, #12
 940 05a8 0198     		ldr	r0, [sp, #4]
 941 05aa 2821     		movs	r1, #40
 942 05ac 0222     		movs	r2, #2
 943 05ae FFF7FEFF 		bl	HTS221_ReadReg
 944 05b2 0346     		mov	r3, r0
 945 05b4 002B     		cmp	r3, #0
 946 05b6 01D0     		beq	.L53
 947              		.loc 1 323 0
 948 05b8 0123     		movs	r3, #1
 949 05ba 5DE0     		b	.L60
 950              	.L53:
 951              		.loc 1 324 0
 952 05bc 9DF80D30 		ldrb	r3, [sp, #13]	@ zero_extendqisi2
 953 05c0 1B02     		lsls	r3, r3, #8
 954 05c2 9AB2     		uxth	r2, r3
 955 05c4 9DF80C30 		ldrb	r3, [sp, #12]	@ zero_extendqisi2
 956 05c8 1343     		orrs	r3, r3, r2
ARM GAS  /tmp/ccJWCNBb.s 			page 18


 957 05ca ADF81630 		strh	r3, [sp, #22]	@ movhi
 958              		.loc 1 326 0
 959 05ce BDF91620 		ldrsh	r2, [sp, #22]
 960 05d2 BDF91A30 		ldrsh	r3, [sp, #26]
 961 05d6 D31A     		subs	r3, r2, r3
 962 05d8 1846     		mov	r0, r3
 963 05da FFF7FEFF 		bl	__aeabi_i2f
 964 05de 0446     		mov	r4, r0
 965 05e0 BDF91C20 		ldrsh	r2, [sp, #28]
 966 05e4 BDF91E30 		ldrsh	r3, [sp, #30]
 967 05e8 D31A     		subs	r3, r2, r3
 968 05ea 1846     		mov	r0, r3
 969 05ec FFF7FEFF 		bl	__aeabi_i2f
 970 05f0 0346     		mov	r3, r0
 971 05f2 2046     		mov	r0, r4
 972 05f4 1946     		mov	r1, r3
 973 05f6 FFF7FEFF 		bl	__aeabi_fmul
 974 05fa 0346     		mov	r3, r0
 975 05fc 1C46     		mov	r4, r3
 976 05fe BDF91820 		ldrsh	r2, [sp, #24]
 977 0602 BDF91A30 		ldrsh	r3, [sp, #26]
 978 0606 D31A     		subs	r3, r2, r3
 979 0608 1846     		mov	r0, r3
 980 060a FFF7FEFF 		bl	__aeabi_i2f
 981 060e 0346     		mov	r3, r0
 982 0610 2046     		mov	r0, r4
 983 0612 1946     		mov	r1, r3
 984 0614 FFF7FEFF 		bl	__aeabi_fdiv
 985 0618 0346     		mov	r3, r0
 986 061a 1C46     		mov	r4, r3
 987 061c BDF91E30 		ldrsh	r3, [sp, #30]
 988 0620 1846     		mov	r0, r3
 989 0622 FFF7FEFF 		bl	__aeabi_i2f
 990 0626 0346     		mov	r3, r0
 991 0628 2046     		mov	r0, r4
 992 062a 1946     		mov	r1, r3
 993 062c FFF7FEFF 		bl	__aeabi_fadd
 994 0630 0346     		mov	r3, r0
 995 0632 0493     		str	r3, [sp, #16]	@ float
 996              		.loc 1 327 0
 997 0634 0498     		ldr	r0, [sp, #16]	@ float
 998 0636 1249     		ldr	r1, .L65
 999 0638 FFF7FEFF 		bl	__aeabi_fmul
 1000 063c 0346     		mov	r3, r0
 1001 063e 0493     		str	r3, [sp, #16]	@ float
 1002              		.loc 1 329 0
 1003 0640 0498     		ldr	r0, [sp, #16]	@ float
 1004 0642 1049     		ldr	r1, .L65+4
 1005 0644 FFF7FEFF 		bl	__aeabi_fcmpgt
 1006 0648 0346     		mov	r3, r0
 1007 064a 002B     		cmp	r3, #0
 1008 064c 02D0     		beq	.L63
 1009              		.loc 1 329 0 is_stmt 0 discriminator 1
 1010 064e 4FF47A73 		mov	r3, #1000
 1011 0652 0EE0     		b	.L56
 1012              	.L63:
 1013              		.loc 1 329 0 discriminator 2
ARM GAS  /tmp/ccJWCNBb.s 			page 19


 1014 0654 0498     		ldr	r0, [sp, #16]	@ float
 1015 0656 4FF00001 		mov	r1, #0
 1016 065a FFF7FEFF 		bl	__aeabi_fcmplt
 1017 065e 0346     		mov	r3, r0
 1018 0660 002B     		cmp	r3, #0
 1019 0662 01D0     		beq	.L64
 1020              		.loc 1 329 0 discriminator 3
 1021 0664 0023     		movs	r3, #0
 1022 0666 04E0     		b	.L56
 1023              	.L64:
 1024              		.loc 1 329 0 discriminator 4
 1025 0668 0498     		ldr	r0, [sp, #16]	@ float
 1026 066a FFF7FEFF 		bl	__aeabi_f2uiz
 1027 066e 0346     		mov	r3, r0
 1028 0670 9BB2     		uxth	r3, r3
 1029              	.L56:
 1030              		.loc 1 329 0 discriminator 6
 1031 0672 009A     		ldr	r2, [sp]
 1032 0674 1380     		strh	r3, [r2]	@ movhi
 1033              		.loc 1 333 0 is_stmt 1 discriminator 6
 1034 0676 0023     		movs	r3, #0
 1035              	.L60:
 1036              		.loc 1 334 0
 1037 0678 1846     		mov	r0, r3
 1038 067a 08B0     		add	sp, sp, #32
 1039              		@ sp needed
 1040 067c 10BD     		pop	{r4, pc}
 1041              	.L66:
 1042 067e 00BF     		.align	2
 1043              	.L65:
 1044 0680 00002041 		.word	1092616192
 1045 0684 00007A44 		.word	1148846080
 1046              		.cfi_endproc
 1047              	.LFE9:
 1048              		.size	HTS221_Get_Humidity, .-HTS221_Get_Humidity
 1049              		.align	2
 1050 0688 AFF30080 		.p2align 4,,15
 1050      AFF30080 
 1051              		.global	HTS221_Get_HumidityRaw
 1052              		.thumb
 1053              		.thumb_func
 1054              		.type	HTS221_Get_HumidityRaw, %function
 1055              	HTS221_Get_HumidityRaw:
 1056              	.LFB10:
 1057              		.loc 1 343 0
 1058              		.cfi_startproc
 1059              		@ args = 0, pretend = 0, frame = 16
 1060              		@ frame_needed = 0, uses_anonymous_args = 0
 1061 0690 00B5     		push	{lr}
 1062              		.cfi_def_cfa_offset 4
 1063              		.cfi_offset 14, -4
 1064 0692 85B0     		sub	sp, sp, #20
 1065              		.cfi_def_cfa_offset 24
 1066 0694 0190     		str	r0, [sp, #4]
 1067 0696 0091     		str	r1, [sp]
 1068              		.loc 1 346 0
 1069 0698 03AB     		add	r3, sp, #12
ARM GAS  /tmp/ccJWCNBb.s 			page 20


 1070 069a 0198     		ldr	r0, [sp, #4]
 1071 069c 2821     		movs	r1, #40
 1072 069e 0222     		movs	r2, #2
 1073 06a0 FFF7FEFF 		bl	HTS221_ReadReg
 1074 06a4 0346     		mov	r3, r0
 1075 06a6 002B     		cmp	r3, #0
 1076 06a8 01D0     		beq	.L68
 1077              		.loc 1 347 0
 1078 06aa 0123     		movs	r3, #1
 1079 06ac 0AE0     		b	.L70
 1080              	.L68:
 1081              		.loc 1 349 0
 1082 06ae 9DF80D30 		ldrb	r3, [sp, #13]	@ zero_extendqisi2
 1083 06b2 1B02     		lsls	r3, r3, #8
 1084 06b4 9AB2     		uxth	r2, r3
 1085 06b6 9DF80C30 		ldrb	r3, [sp, #12]	@ zero_extendqisi2
 1086 06ba 1343     		orrs	r3, r3, r2
 1087 06bc 9AB2     		uxth	r2, r3
 1088 06be 009B     		ldr	r3, [sp]
 1089 06c0 1A80     		strh	r2, [r3]	@ movhi
 1090              		.loc 1 351 0
 1091 06c2 0023     		movs	r3, #0
 1092              	.L70:
 1093              		.loc 1 352 0
 1094 06c4 1846     		mov	r0, r3
 1095 06c6 05B0     		add	sp, sp, #20
 1096              		@ sp needed
 1097 06c8 5DF804FB 		ldr	pc, [sp], #4
 1098              		.cfi_endproc
 1099              	.LFE10:
 1100              		.size	HTS221_Get_HumidityRaw, .-HTS221_Get_HumidityRaw
 1101              		.global	__aeabi_f2iz
 1102              		.align	2
 1103 06cc AFF30080 		.p2align 4,,15
 1104              		.global	HTS221_Get_Temperature
 1105              		.thumb
 1106              		.thumb_func
 1107              		.type	HTS221_Get_Temperature, %function
 1108              	HTS221_Get_Temperature:
 1109              	.LFB11:
 1110              		.loc 1 361 0
 1111              		.cfi_startproc
 1112              		@ args = 0, pretend = 0, frame = 40
 1113              		@ frame_needed = 0, uses_anonymous_args = 0
 1114 06d0 10B5     		push	{r4, lr}
 1115              		.cfi_def_cfa_offset 8
 1116              		.cfi_offset 4, -8
 1117              		.cfi_offset 14, -4
 1118 06d2 8AB0     		sub	sp, sp, #40
 1119              		.cfi_def_cfa_offset 48
 1120 06d4 0190     		str	r0, [sp, #4]
 1121 06d6 0091     		str	r1, [sp]
 1122              		.loc 1 367 0
 1123 06d8 04AB     		add	r3, sp, #16
 1124 06da 0198     		ldr	r0, [sp, #4]
 1125 06dc 3221     		movs	r1, #50
 1126 06de 0222     		movs	r2, #2
ARM GAS  /tmp/ccJWCNBb.s 			page 21


 1127 06e0 FFF7FEFF 		bl	HTS221_ReadReg
 1128 06e4 0346     		mov	r3, r0
 1129 06e6 002B     		cmp	r3, #0
 1130 06e8 01D0     		beq	.L72
 1131              		.loc 1 368 0
 1132 06ea 0123     		movs	r3, #1
 1133 06ec 9DE0     		b	.L77
 1134              	.L72:
 1135              		.loc 1 369 0
 1136 06ee 0DF10F03 		add	r3, sp, #15
 1137 06f2 0198     		ldr	r0, [sp, #4]
 1138 06f4 3521     		movs	r1, #53
 1139 06f6 0122     		movs	r2, #1
 1140 06f8 FFF7FEFF 		bl	HTS221_ReadReg
 1141 06fc 0346     		mov	r3, r0
 1142 06fe 002B     		cmp	r3, #0
 1143 0700 01D0     		beq	.L74
 1144              		.loc 1 370 0
 1145 0702 0123     		movs	r3, #1
 1146 0704 91E0     		b	.L77
 1147              	.L74:
 1148              		.loc 1 372 0
 1149 0706 9DF80F30 		ldrb	r3, [sp, #15]	@ zero_extendqisi2
 1150 070a 03F00303 		and	r3, r3, #3
 1151 070e 1B02     		lsls	r3, r3, #8
 1152 0710 9AB2     		uxth	r2, r3
 1153 0712 9DF81030 		ldrb	r3, [sp, #16]	@ zero_extendqisi2
 1154 0716 1343     		orrs	r3, r3, r2
 1155 0718 ADF82630 		strh	r3, [sp, #38]	@ movhi
 1156              		.loc 1 373 0
 1157 071c 9DF80F30 		ldrb	r3, [sp, #15]	@ zero_extendqisi2
 1158 0720 03F00C03 		and	r3, r3, #12
 1159 0724 9B01     		lsls	r3, r3, #6
 1160 0726 9AB2     		uxth	r2, r3
 1161 0728 9DF81130 		ldrb	r3, [sp, #17]	@ zero_extendqisi2
 1162 072c 1343     		orrs	r3, r3, r2
 1163 072e ADF82430 		strh	r3, [sp, #36]	@ movhi
 1164              		.loc 1 374 0
 1165 0732 BDF92630 		ldrsh	r3, [sp, #38]
 1166 0736 DB10     		asrs	r3, r3, #3
 1167 0738 ADF82230 		strh	r3, [sp, #34]	@ movhi
 1168              		.loc 1 375 0
 1169 073c BDF92430 		ldrsh	r3, [sp, #36]
 1170 0740 DB10     		asrs	r3, r3, #3
 1171 0742 ADF82030 		strh	r3, [sp, #32]	@ movhi
 1172              		.loc 1 377 0
 1173 0746 04AB     		add	r3, sp, #16
 1174 0748 0198     		ldr	r0, [sp, #4]
 1175 074a 3C21     		movs	r1, #60
 1176 074c 0422     		movs	r2, #4
 1177 074e FFF7FEFF 		bl	HTS221_ReadReg
 1178 0752 0346     		mov	r3, r0
 1179 0754 002B     		cmp	r3, #0
 1180 0756 01D0     		beq	.L75
 1181              		.loc 1 378 0
 1182 0758 0123     		movs	r3, #1
 1183 075a 66E0     		b	.L77
ARM GAS  /tmp/ccJWCNBb.s 			page 22


 1184              	.L75:
 1185              		.loc 1 380 0
 1186 075c 9DF81130 		ldrb	r3, [sp, #17]	@ zero_extendqisi2
 1187 0760 1B02     		lsls	r3, r3, #8
 1188 0762 9AB2     		uxth	r2, r3
 1189 0764 9DF81030 		ldrb	r3, [sp, #16]	@ zero_extendqisi2
 1190 0768 1343     		orrs	r3, r3, r2
 1191 076a ADF81E30 		strh	r3, [sp, #30]	@ movhi
 1192              		.loc 1 381 0
 1193 076e 9DF81330 		ldrb	r3, [sp, #19]	@ zero_extendqisi2
 1194 0772 1B02     		lsls	r3, r3, #8
 1195 0774 9AB2     		uxth	r2, r3
 1196 0776 9DF81230 		ldrb	r3, [sp, #18]	@ zero_extendqisi2
 1197 077a 1343     		orrs	r3, r3, r2
 1198 077c ADF81C30 		strh	r3, [sp, #28]	@ movhi
 1199              		.loc 1 383 0
 1200 0780 04AB     		add	r3, sp, #16
 1201 0782 0198     		ldr	r0, [sp, #4]
 1202 0784 2A21     		movs	r1, #42
 1203 0786 0222     		movs	r2, #2
 1204 0788 FFF7FEFF 		bl	HTS221_ReadReg
 1205 078c 0346     		mov	r3, r0
 1206 078e 002B     		cmp	r3, #0
 1207 0790 01D0     		beq	.L76
 1208              		.loc 1 384 0
 1209 0792 0123     		movs	r3, #1
 1210 0794 49E0     		b	.L77
 1211              	.L76:
 1212              		.loc 1 386 0
 1213 0796 9DF81130 		ldrb	r3, [sp, #17]	@ zero_extendqisi2
 1214 079a 1B02     		lsls	r3, r3, #8
 1215 079c 9AB2     		uxth	r2, r3
 1216 079e 9DF81030 		ldrb	r3, [sp, #16]	@ zero_extendqisi2
 1217 07a2 1343     		orrs	r3, r3, r2
 1218 07a4 ADF81A30 		strh	r3, [sp, #26]	@ movhi
 1219              		.loc 1 388 0
 1220 07a8 BDF91A20 		ldrsh	r2, [sp, #26]
 1221 07ac BDF91E30 		ldrsh	r3, [sp, #30]
 1222 07b0 D31A     		subs	r3, r2, r3
 1223 07b2 1846     		mov	r0, r3
 1224 07b4 FFF7FEFF 		bl	__aeabi_i2f
 1225 07b8 0446     		mov	r4, r0
 1226 07ba BDF92020 		ldrsh	r2, [sp, #32]
 1227 07be BDF92230 		ldrsh	r3, [sp, #34]
 1228 07c2 D31A     		subs	r3, r2, r3
 1229 07c4 1846     		mov	r0, r3
 1230 07c6 FFF7FEFF 		bl	__aeabi_i2f
 1231 07ca 0346     		mov	r3, r0
 1232 07cc 2046     		mov	r0, r4
 1233 07ce 1946     		mov	r1, r3
 1234 07d0 FFF7FEFF 		bl	__aeabi_fmul
 1235 07d4 0346     		mov	r3, r0
 1236 07d6 1C46     		mov	r4, r3
 1237 07d8 BDF91C20 		ldrsh	r2, [sp, #28]
 1238 07dc BDF91E30 		ldrsh	r3, [sp, #30]
 1239 07e0 D31A     		subs	r3, r2, r3
 1240 07e2 1846     		mov	r0, r3
ARM GAS  /tmp/ccJWCNBb.s 			page 23


 1241 07e4 FFF7FEFF 		bl	__aeabi_i2f
 1242 07e8 0346     		mov	r3, r0
 1243 07ea 2046     		mov	r0, r4
 1244 07ec 1946     		mov	r1, r3
 1245 07ee FFF7FEFF 		bl	__aeabi_fdiv
 1246 07f2 0346     		mov	r3, r0
 1247 07f4 1C46     		mov	r4, r3
 1248 07f6 BDF92230 		ldrsh	r3, [sp, #34]
 1249 07fa 1846     		mov	r0, r3
 1250 07fc FFF7FEFF 		bl	__aeabi_i2f
 1251 0800 0346     		mov	r3, r0
 1252 0802 2046     		mov	r0, r4
 1253 0804 1946     		mov	r1, r3
 1254 0806 FFF7FEFF 		bl	__aeabi_fadd
 1255 080a 0346     		mov	r3, r0
 1256 080c 0593     		str	r3, [sp, #20]	@ float
 1257              		.loc 1 389 0
 1258 080e 0598     		ldr	r0, [sp, #20]	@ float
 1259 0810 0749     		ldr	r1, .L78
 1260 0812 FFF7FEFF 		bl	__aeabi_fmul
 1261 0816 0346     		mov	r3, r0
 1262 0818 0593     		str	r3, [sp, #20]	@ float
 1263              		.loc 1 391 0
 1264 081a 0598     		ldr	r0, [sp, #20]	@ float
 1265 081c FFF7FEFF 		bl	__aeabi_f2iz
 1266 0820 0346     		mov	r3, r0
 1267 0822 9AB2     		uxth	r2, r3
 1268 0824 009B     		ldr	r3, [sp]
 1269 0826 1A80     		strh	r2, [r3]	@ movhi
 1270              		.loc 1 393 0
 1271 0828 0023     		movs	r3, #0
 1272              	.L77:
 1273              		.loc 1 394 0
 1274 082a 1846     		mov	r0, r3
 1275 082c 0AB0     		add	sp, sp, #40
 1276              		@ sp needed
 1277 082e 10BD     		pop	{r4, pc}
 1278              	.L79:
 1279              		.align	2
 1280              	.L78:
 1281 0830 00002041 		.word	1092616192
 1282              		.cfi_endproc
 1283              	.LFE11:
 1284              		.size	HTS221_Get_Temperature, .-HTS221_Get_Temperature
 1285              		.align	2
 1286 0834 AFF30080 		.p2align 4,,15
 1286      AFF30080 
 1286      AFF30080 
 1287              		.global	HTS221_Get_TemperatureRaw
 1288              		.thumb
 1289              		.thumb_func
 1290              		.type	HTS221_Get_TemperatureRaw, %function
 1291              	HTS221_Get_TemperatureRaw:
 1292              	.LFB12:
 1293              		.loc 1 403 0
 1294              		.cfi_startproc
 1295              		@ args = 0, pretend = 0, frame = 16
ARM GAS  /tmp/ccJWCNBb.s 			page 24


 1296              		@ frame_needed = 0, uses_anonymous_args = 0
 1297 0840 00B5     		push	{lr}
 1298              		.cfi_def_cfa_offset 4
 1299              		.cfi_offset 14, -4
 1300 0842 85B0     		sub	sp, sp, #20
 1301              		.cfi_def_cfa_offset 24
 1302 0844 0190     		str	r0, [sp, #4]
 1303 0846 0091     		str	r1, [sp]
 1304              		.loc 1 406 0
 1305 0848 03AB     		add	r3, sp, #12
 1306 084a 0198     		ldr	r0, [sp, #4]
 1307 084c 2A21     		movs	r1, #42
 1308 084e 0222     		movs	r2, #2
 1309 0850 FFF7FEFF 		bl	HTS221_ReadReg
 1310 0854 0346     		mov	r3, r0
 1311 0856 002B     		cmp	r3, #0
 1312 0858 01D0     		beq	.L81
 1313              		.loc 1 407 0
 1314 085a 0123     		movs	r3, #1
 1315 085c 0AE0     		b	.L83
 1316              	.L81:
 1317              		.loc 1 409 0
 1318 085e 9DF80D30 		ldrb	r3, [sp, #13]	@ zero_extendqisi2
 1319 0862 1B02     		lsls	r3, r3, #8
 1320 0864 9AB2     		uxth	r2, r3
 1321 0866 9DF80C30 		ldrb	r3, [sp, #12]	@ zero_extendqisi2
 1322 086a 1343     		orrs	r3, r3, r2
 1323 086c 9AB2     		uxth	r2, r3
 1324 086e 009B     		ldr	r3, [sp]
 1325 0870 1A80     		strh	r2, [r3]	@ movhi
 1326              		.loc 1 411 0
 1327 0872 0023     		movs	r3, #0
 1328              	.L83:
 1329              		.loc 1 412 0
 1330 0874 1846     		mov	r0, r3
 1331 0876 05B0     		add	sp, sp, #20
 1332              		@ sp needed
 1333 0878 5DF804FB 		ldr	pc, [sp], #4
 1334              		.cfi_endproc
 1335              	.LFE12:
 1336              		.size	HTS221_Get_TemperatureRaw, .-HTS221_Get_TemperatureRaw
 1337              		.align	2
 1338 087c AFF30080 		.p2align 4,,15
 1339              		.global	HTS221_Get_DataStatus
 1340              		.thumb
 1341              		.thumb_func
 1342              		.type	HTS221_Get_DataStatus, %function
 1343              	HTS221_Get_DataStatus:
 1344              	.LFB13:
 1345              		.loc 1 423 0
 1346              		.cfi_startproc
 1347              		@ args = 0, pretend = 0, frame = 24
 1348              		@ frame_needed = 0, uses_anonymous_args = 0
 1349 0880 00B5     		push	{lr}
 1350              		.cfi_def_cfa_offset 4
 1351              		.cfi_offset 14, -4
 1352 0882 87B0     		sub	sp, sp, #28
ARM GAS  /tmp/ccJWCNBb.s 			page 25


 1353              		.cfi_def_cfa_offset 32
 1354 0884 0390     		str	r0, [sp, #12]
 1355 0886 0291     		str	r1, [sp, #8]
 1356 0888 0192     		str	r2, [sp, #4]
 1357              		.loc 1 426 0
 1358 088a 0DF11703 		add	r3, sp, #23
 1359 088e 0398     		ldr	r0, [sp, #12]
 1360 0890 2721     		movs	r1, #39
 1361 0892 0122     		movs	r2, #1
 1362 0894 FFF7FEFF 		bl	HTS221_ReadReg
 1363 0898 0346     		mov	r3, r0
 1364 089a 002B     		cmp	r3, #0
 1365 089c 01D0     		beq	.L85
 1366              		.loc 1 427 0
 1367 089e 0123     		movs	r3, #1
 1368 08a0 0FE0     		b	.L87
 1369              	.L85:
 1370              		.loc 1 429 0
 1371 08a2 9DF81730 		ldrb	r3, [sp, #23]	@ zero_extendqisi2
 1372 08a6 03F00203 		and	r3, r3, #2
 1373 08aa 5B10     		asrs	r3, r3, #1
 1374 08ac DAB2     		uxtb	r2, r3
 1375 08ae 029B     		ldr	r3, [sp, #8]
 1376 08b0 1A70     		strb	r2, [r3]
 1377              		.loc 1 430 0
 1378 08b2 9DF81730 		ldrb	r3, [sp, #23]	@ zero_extendqisi2
 1379 08b6 03F00103 		and	r3, r3, #1
 1380 08ba DAB2     		uxtb	r2, r3
 1381 08bc 019B     		ldr	r3, [sp, #4]
 1382 08be 1A70     		strb	r2, [r3]
 1383              		.loc 1 432 0
 1384 08c0 0023     		movs	r3, #0
 1385              	.L87:
 1386              		.loc 1 433 0
 1387 08c2 1846     		mov	r0, r3
 1388 08c4 07B0     		add	sp, sp, #28
 1389              		@ sp needed
 1390 08c6 5DF804FB 		ldr	pc, [sp], #4
 1391              		.cfi_endproc
 1392              	.LFE13:
 1393              		.size	HTS221_Get_DataStatus, .-HTS221_Get_DataStatus
 1394 08ca 00BF     		.align	2
 1395 08cc AFF30080 		.p2align 4,,15
 1396              		.global	HTS221_Activate
 1397              		.thumb
 1398              		.thumb_func
 1399              		.type	HTS221_Activate, %function
 1400              	HTS221_Activate:
 1401              	.LFB14:
 1402              		.loc 1 442 0
 1403              		.cfi_startproc
 1404              		@ args = 0, pretend = 0, frame = 16
 1405              		@ frame_needed = 0, uses_anonymous_args = 0
 1406 08d0 00B5     		push	{lr}
 1407              		.cfi_def_cfa_offset 4
 1408              		.cfi_offset 14, -4
 1409 08d2 85B0     		sub	sp, sp, #20
ARM GAS  /tmp/ccJWCNBb.s 			page 26


 1410              		.cfi_def_cfa_offset 24
 1411 08d4 0190     		str	r0, [sp, #4]
 1412              		.loc 1 445 0
 1413 08d6 0DF10F03 		add	r3, sp, #15
 1414 08da 0198     		ldr	r0, [sp, #4]
 1415 08dc 2021     		movs	r1, #32
 1416 08de 0122     		movs	r2, #1
 1417 08e0 FFF7FEFF 		bl	HTS221_ReadReg
 1418 08e4 0346     		mov	r3, r0
 1419 08e6 002B     		cmp	r3, #0
 1420 08e8 01D0     		beq	.L89
 1421              		.loc 1 446 0
 1422 08ea 0123     		movs	r3, #1
 1423 08ec 13E0     		b	.L92
 1424              	.L89:
 1425              		.loc 1 448 0
 1426 08ee 9DF80F30 		ldrb	r3, [sp, #15]	@ zero_extendqisi2
 1427 08f2 63F07F03 		orn	r3, r3, #127
 1428 08f6 DBB2     		uxtb	r3, r3
 1429 08f8 8DF80F30 		strb	r3, [sp, #15]
 1430              		.loc 1 450 0
 1431 08fc 0DF10F03 		add	r3, sp, #15
 1432 0900 0198     		ldr	r0, [sp, #4]
 1433 0902 2021     		movs	r1, #32
 1434 0904 0122     		movs	r2, #1
 1435 0906 FFF7FEFF 		bl	HTS221_WriteReg
 1436 090a 0346     		mov	r3, r0
 1437 090c 002B     		cmp	r3, #0
 1438 090e 01D0     		beq	.L91
 1439              		.loc 1 451 0
 1440 0910 0123     		movs	r3, #1
 1441 0912 00E0     		b	.L92
 1442              	.L91:
 1443              		.loc 1 453 0
 1444 0914 0023     		movs	r3, #0
 1445              	.L92:
 1446              		.loc 1 454 0
 1447 0916 1846     		mov	r0, r3
 1448 0918 05B0     		add	sp, sp, #20
 1449              		@ sp needed
 1450 091a 5DF804FB 		ldr	pc, [sp], #4
 1451              		.cfi_endproc
 1452              	.LFE14:
 1453              		.size	HTS221_Activate, .-HTS221_Activate
 1454 091e 00BF     		.align	2
 1455              		.p2align 4,,15
 1456              		.global	HTS221_DeActivate
 1457              		.thumb
 1458              		.thumb_func
 1459              		.type	HTS221_DeActivate, %function
 1460              	HTS221_DeActivate:
 1461              	.LFB15:
 1462              		.loc 1 462 0
 1463              		.cfi_startproc
 1464              		@ args = 0, pretend = 0, frame = 16
 1465              		@ frame_needed = 0, uses_anonymous_args = 0
 1466 0920 00B5     		push	{lr}
ARM GAS  /tmp/ccJWCNBb.s 			page 27


 1467              		.cfi_def_cfa_offset 4
 1468              		.cfi_offset 14, -4
 1469 0922 85B0     		sub	sp, sp, #20
 1470              		.cfi_def_cfa_offset 24
 1471 0924 0190     		str	r0, [sp, #4]
 1472              		.loc 1 465 0
 1473 0926 0DF10F03 		add	r3, sp, #15
 1474 092a 0198     		ldr	r0, [sp, #4]
 1475 092c 2021     		movs	r1, #32
 1476 092e 0122     		movs	r2, #1
 1477 0930 FFF7FEFF 		bl	HTS221_ReadReg
 1478 0934 0346     		mov	r3, r0
 1479 0936 002B     		cmp	r3, #0
 1480 0938 01D0     		beq	.L94
 1481              		.loc 1 466 0
 1482 093a 0123     		movs	r3, #1
 1483 093c 13E0     		b	.L97
 1484              	.L94:
 1485              		.loc 1 468 0
 1486 093e 9DF80F30 		ldrb	r3, [sp, #15]	@ zero_extendqisi2
 1487 0942 03F07F03 		and	r3, r3, #127
 1488 0946 DBB2     		uxtb	r3, r3
 1489 0948 8DF80F30 		strb	r3, [sp, #15]
 1490              		.loc 1 470 0
 1491 094c 0DF10F03 		add	r3, sp, #15
 1492 0950 0198     		ldr	r0, [sp, #4]
 1493 0952 2021     		movs	r1, #32
 1494 0954 0122     		movs	r2, #1
 1495 0956 FFF7FEFF 		bl	HTS221_WriteReg
 1496 095a 0346     		mov	r3, r0
 1497 095c 002B     		cmp	r3, #0
 1498 095e 01D0     		beq	.L96
 1499              		.loc 1 471 0
 1500 0960 0123     		movs	r3, #1
 1501 0962 00E0     		b	.L97
 1502              	.L96:
 1503              		.loc 1 473 0
 1504 0964 0023     		movs	r3, #0
 1505              	.L97:
 1506              		.loc 1 474 0
 1507 0966 1846     		mov	r0, r3
 1508 0968 05B0     		add	sp, sp, #20
 1509              		@ sp needed
 1510 096a 5DF804FB 		ldr	pc, [sp], #4
 1511              		.cfi_endproc
 1512              	.LFE15:
 1513              		.size	HTS221_DeActivate, .-HTS221_DeActivate
 1514 096e 00BF     		.align	2
 1515              		.p2align 4,,15
 1516              		.global	HTS221_IsMeasurementCompleted
 1517              		.thumb
 1518              		.thumb_func
 1519              		.type	HTS221_IsMeasurementCompleted, %function
 1520              	HTS221_IsMeasurementCompleted:
 1521              	.LFB16:
 1522              		.loc 1 485 0
 1523              		.cfi_startproc
ARM GAS  /tmp/ccJWCNBb.s 			page 28


 1524              		@ args = 0, pretend = 0, frame = 16
 1525              		@ frame_needed = 0, uses_anonymous_args = 0
 1526 0970 00B5     		push	{lr}
 1527              		.cfi_def_cfa_offset 4
 1528              		.cfi_offset 14, -4
 1529 0972 85B0     		sub	sp, sp, #20
 1530              		.cfi_def_cfa_offset 24
 1531 0974 0190     		str	r0, [sp, #4]
 1532 0976 0091     		str	r1, [sp]
 1533              		.loc 1 488 0
 1534 0978 0DF10F03 		add	r3, sp, #15
 1535 097c 0198     		ldr	r0, [sp, #4]
 1536 097e 2721     		movs	r1, #39
 1537 0980 0122     		movs	r2, #1
 1538 0982 FFF7FEFF 		bl	HTS221_ReadReg
 1539 0986 0346     		mov	r3, r0
 1540 0988 002B     		cmp	r3, #0
 1541 098a 01D0     		beq	.L99
 1542              		.loc 1 489 0
 1543 098c 0123     		movs	r3, #1
 1544 098e 0DE0     		b	.L103
 1545              	.L99:
 1546              		.loc 1 491 0
 1547 0990 9DF80F30 		ldrb	r3, [sp, #15]	@ zero_extendqisi2
 1548 0994 03F00303 		and	r3, r3, #3
 1549 0998 032B     		cmp	r3, #3
 1550 099a 03D1     		bne	.L101
 1551              		.loc 1 492 0
 1552 099c 009B     		ldr	r3, [sp]
 1553 099e 0122     		movs	r2, #1
 1554 09a0 1A70     		strb	r2, [r3]
 1555 09a2 02E0     		b	.L102
 1556              	.L101:
 1557              		.loc 1 494 0
 1558 09a4 009B     		ldr	r3, [sp]
 1559 09a6 0022     		movs	r2, #0
 1560 09a8 1A70     		strb	r2, [r3]
 1561              	.L102:
 1562              		.loc 1 496 0
 1563 09aa 0023     		movs	r3, #0
 1564              	.L103:
 1565              		.loc 1 497 0
 1566 09ac 1846     		mov	r0, r3
 1567 09ae 05B0     		add	sp, sp, #20
 1568              		@ sp needed
 1569 09b0 5DF804FB 		ldr	pc, [sp], #4
 1570              		.cfi_endproc
 1571              	.LFE16:
 1572              		.size	HTS221_IsMeasurementCompleted, .-HTS221_IsMeasurementCompleted
 1573              		.align	2
 1574 09b4 AFF30080 		.p2align 4,,15
 1574      AFF30080 
 1574      AFF30080 
 1575              		.global	HTS221_Set_AvgHT
 1576              		.thumb
 1577              		.thumb_func
 1578              		.type	HTS221_Set_AvgHT, %function
ARM GAS  /tmp/ccJWCNBb.s 			page 29


 1579              	HTS221_Set_AvgHT:
 1580              	.LFB17:
 1581              		.loc 1 508 0
 1582              		.cfi_startproc
 1583              		@ args = 0, pretend = 0, frame = 16
 1584              		@ frame_needed = 0, uses_anonymous_args = 0
 1585 09c0 00B5     		push	{lr}
 1586              		.cfi_def_cfa_offset 4
 1587              		.cfi_offset 14, -4
 1588 09c2 85B0     		sub	sp, sp, #20
 1589              		.cfi_def_cfa_offset 24
 1590 09c4 0190     		str	r0, [sp, #4]
 1591 09c6 1346     		mov	r3, r2
 1592 09c8 0A46     		mov	r2, r1
 1593 09ca 8DF80320 		strb	r2, [sp, #3]
 1594 09ce 8DF80230 		strb	r3, [sp, #2]
 1595              		.loc 1 511 0
 1596 09d2 9DF80330 		ldrb	r3, [sp, #3]	@ zero_extendqisi2
 1597 09d6 002B     		cmp	r3, #0
 1598 09d8 20D0     		beq	.L105
 1599              		.loc 1 511 0 is_stmt 0 discriminator 1
 1600 09da 9DF80330 		ldrb	r3, [sp, #3]	@ zero_extendqisi2
 1601 09de 012B     		cmp	r3, #1
 1602 09e0 1CD0     		beq	.L105
 1603 09e2 9DF80330 		ldrb	r3, [sp, #3]	@ zero_extendqisi2
 1604 09e6 022B     		cmp	r3, #2
 1605 09e8 18D0     		beq	.L105
 1606 09ea 9DF80330 		ldrb	r3, [sp, #3]	@ zero_extendqisi2
 1607 09ee 032B     		cmp	r3, #3
 1608 09f0 14D0     		beq	.L105
 1609 09f2 9DF80330 		ldrb	r3, [sp, #3]	@ zero_extendqisi2
 1610 09f6 042B     		cmp	r3, #4
 1611 09f8 10D0     		beq	.L105
 1612 09fa 9DF80330 		ldrb	r3, [sp, #3]	@ zero_extendqisi2
 1613 09fe 052B     		cmp	r3, #5
 1614 0a00 0CD0     		beq	.L105
 1615 0a02 9DF80330 		ldrb	r3, [sp, #3]	@ zero_extendqisi2
 1616 0a06 062B     		cmp	r3, #6
 1617 0a08 08D0     		beq	.L105
 1618 0a0a 9DF80330 		ldrb	r3, [sp, #3]	@ zero_extendqisi2
 1619 0a0e 072B     		cmp	r3, #7
 1620 0a10 04D0     		beq	.L105
 1621 0a12 2F48     		ldr	r0, .L111
 1622 0a14 40F2FF11 		movw	r1, #511
 1623 0a18 FFF7FEFF 		bl	HTS221_assert_failed
 1624              	.L105:
 1625              		.loc 1 512 0 is_stmt 1
 1626 0a1c 9DF80230 		ldrb	r3, [sp, #2]	@ zero_extendqisi2
 1627 0a20 002B     		cmp	r3, #0
 1628 0a22 20D0     		beq	.L106
 1629              		.loc 1 512 0 is_stmt 0 discriminator 1
 1630 0a24 9DF80230 		ldrb	r3, [sp, #2]	@ zero_extendqisi2
 1631 0a28 082B     		cmp	r3, #8
 1632 0a2a 1CD0     		beq	.L106
 1633 0a2c 9DF80230 		ldrb	r3, [sp, #2]	@ zero_extendqisi2
 1634 0a30 102B     		cmp	r3, #16
 1635 0a32 18D0     		beq	.L106
ARM GAS  /tmp/ccJWCNBb.s 			page 30


 1636 0a34 9DF80230 		ldrb	r3, [sp, #2]	@ zero_extendqisi2
 1637 0a38 182B     		cmp	r3, #24
 1638 0a3a 14D0     		beq	.L106
 1639 0a3c 9DF80230 		ldrb	r3, [sp, #2]	@ zero_extendqisi2
 1640 0a40 202B     		cmp	r3, #32
 1641 0a42 10D0     		beq	.L106
 1642 0a44 9DF80230 		ldrb	r3, [sp, #2]	@ zero_extendqisi2
 1643 0a48 282B     		cmp	r3, #40
 1644 0a4a 0CD0     		beq	.L106
 1645 0a4c 9DF80230 		ldrb	r3, [sp, #2]	@ zero_extendqisi2
 1646 0a50 302B     		cmp	r3, #48
 1647 0a52 08D0     		beq	.L106
 1648 0a54 9DF80230 		ldrb	r3, [sp, #2]	@ zero_extendqisi2
 1649 0a58 382B     		cmp	r3, #56
 1650 0a5a 04D0     		beq	.L106
 1651 0a5c 1C48     		ldr	r0, .L111
 1652 0a5e 4FF40071 		mov	r1, #512
 1653 0a62 FFF7FEFF 		bl	HTS221_assert_failed
 1654              	.L106:
 1655              		.loc 1 514 0 is_stmt 1
 1656 0a66 0DF10F03 		add	r3, sp, #15
 1657 0a6a 0198     		ldr	r0, [sp, #4]
 1658 0a6c 1021     		movs	r1, #16
 1659 0a6e 0122     		movs	r2, #1
 1660 0a70 FFF7FEFF 		bl	HTS221_ReadReg
 1661 0a74 0346     		mov	r3, r0
 1662 0a76 002B     		cmp	r3, #0
 1663 0a78 01D0     		beq	.L107
 1664              		.loc 1 515 0
 1665 0a7a 0123     		movs	r3, #1
 1666 0a7c 23E0     		b	.L110
 1667              	.L107:
 1668              		.loc 1 517 0
 1669 0a7e 9DF80F30 		ldrb	r3, [sp, #15]	@ zero_extendqisi2
 1670 0a82 23F03F03 		bic	r3, r3, #63
 1671 0a86 DBB2     		uxtb	r3, r3
 1672 0a88 8DF80F30 		strb	r3, [sp, #15]
 1673              		.loc 1 518 0
 1674 0a8c 9DF80F20 		ldrb	r2, [sp, #15]	@ zero_extendqisi2
 1675 0a90 9DF80330 		ldrb	r3, [sp, #3]
 1676 0a94 1343     		orrs	r3, r3, r2
 1677 0a96 DBB2     		uxtb	r3, r3
 1678 0a98 8DF80F30 		strb	r3, [sp, #15]
 1679              		.loc 1 519 0
 1680 0a9c 9DF80F20 		ldrb	r2, [sp, #15]	@ zero_extendqisi2
 1681 0aa0 9DF80230 		ldrb	r3, [sp, #2]
 1682 0aa4 1343     		orrs	r3, r3, r2
 1683 0aa6 DBB2     		uxtb	r3, r3
 1684 0aa8 8DF80F30 		strb	r3, [sp, #15]
 1685              		.loc 1 521 0
 1686 0aac 0DF10F03 		add	r3, sp, #15
 1687 0ab0 0198     		ldr	r0, [sp, #4]
 1688 0ab2 1021     		movs	r1, #16
 1689 0ab4 0122     		movs	r2, #1
 1690 0ab6 FFF7FEFF 		bl	HTS221_WriteReg
 1691 0aba 0346     		mov	r3, r0
 1692 0abc 002B     		cmp	r3, #0
ARM GAS  /tmp/ccJWCNBb.s 			page 31


 1693 0abe 01D0     		beq	.L109
 1694              		.loc 1 522 0
 1695 0ac0 0123     		movs	r3, #1
 1696 0ac2 00E0     		b	.L110
 1697              	.L109:
 1698              		.loc 1 524 0
 1699 0ac4 0023     		movs	r3, #0
 1700              	.L110:
 1701              		.loc 1 525 0
 1702 0ac6 1846     		mov	r0, r3
 1703 0ac8 05B0     		add	sp, sp, #20
 1704              		@ sp needed
 1705 0aca 5DF804FB 		ldr	pc, [sp], #4
 1706              	.L112:
 1707 0ace 00BF     		.align	2
 1708              	.L111:
 1709 0ad0 00000000 		.word	.LC0
 1710              		.cfi_endproc
 1711              	.LFE17:
 1712              		.size	HTS221_Set_AvgHT, .-HTS221_Set_AvgHT
 1713              		.align	2
 1714 0ad4 AFF30080 		.p2align 4,,15
 1714      AFF30080 
 1714      AFF30080 
 1715              		.global	HTS221_Set_AvgH
 1716              		.thumb
 1717              		.thumb_func
 1718              		.type	HTS221_Set_AvgH, %function
 1719              	HTS221_Set_AvgH:
 1720              	.LFB18:
 1721              		.loc 1 534 0
 1722              		.cfi_startproc
 1723              		@ args = 0, pretend = 0, frame = 16
 1724              		@ frame_needed = 0, uses_anonymous_args = 0
 1725 0ae0 00B5     		push	{lr}
 1726              		.cfi_def_cfa_offset 4
 1727              		.cfi_offset 14, -4
 1728 0ae2 85B0     		sub	sp, sp, #20
 1729              		.cfi_def_cfa_offset 24
 1730 0ae4 0190     		str	r0, [sp, #4]
 1731 0ae6 0B46     		mov	r3, r1
 1732 0ae8 8DF80330 		strb	r3, [sp, #3]
 1733              		.loc 1 537 0
 1734 0aec 9DF80330 		ldrb	r3, [sp, #3]	@ zero_extendqisi2
 1735 0af0 002B     		cmp	r3, #0
 1736 0af2 20D0     		beq	.L114
 1737              		.loc 1 537 0 is_stmt 0 discriminator 1
 1738 0af4 9DF80330 		ldrb	r3, [sp, #3]	@ zero_extendqisi2
 1739 0af8 012B     		cmp	r3, #1
 1740 0afa 1CD0     		beq	.L114
 1741 0afc 9DF80330 		ldrb	r3, [sp, #3]	@ zero_extendqisi2
 1742 0b00 022B     		cmp	r3, #2
 1743 0b02 18D0     		beq	.L114
 1744 0b04 9DF80330 		ldrb	r3, [sp, #3]	@ zero_extendqisi2
 1745 0b08 032B     		cmp	r3, #3
 1746 0b0a 14D0     		beq	.L114
 1747 0b0c 9DF80330 		ldrb	r3, [sp, #3]	@ zero_extendqisi2
ARM GAS  /tmp/ccJWCNBb.s 			page 32


 1748 0b10 042B     		cmp	r3, #4
 1749 0b12 10D0     		beq	.L114
 1750 0b14 9DF80330 		ldrb	r3, [sp, #3]	@ zero_extendqisi2
 1751 0b18 052B     		cmp	r3, #5
 1752 0b1a 0CD0     		beq	.L114
 1753 0b1c 9DF80330 		ldrb	r3, [sp, #3]	@ zero_extendqisi2
 1754 0b20 062B     		cmp	r3, #6
 1755 0b22 08D0     		beq	.L114
 1756 0b24 9DF80330 		ldrb	r3, [sp, #3]	@ zero_extendqisi2
 1757 0b28 072B     		cmp	r3, #7
 1758 0b2a 04D0     		beq	.L114
 1759 0b2c 1848     		ldr	r0, .L119
 1760 0b2e 40F21921 		movw	r1, #537
 1761 0b32 FFF7FEFF 		bl	HTS221_assert_failed
 1762              	.L114:
 1763              		.loc 1 539 0 is_stmt 1
 1764 0b36 0DF10F03 		add	r3, sp, #15
 1765 0b3a 0198     		ldr	r0, [sp, #4]
 1766 0b3c 1021     		movs	r1, #16
 1767 0b3e 0122     		movs	r2, #1
 1768 0b40 FFF7FEFF 		bl	HTS221_ReadReg
 1769 0b44 0346     		mov	r3, r0
 1770 0b46 002B     		cmp	r3, #0
 1771 0b48 01D0     		beq	.L115
 1772              		.loc 1 540 0
 1773 0b4a 0123     		movs	r3, #1
 1774 0b4c 1BE0     		b	.L118
 1775              	.L115:
 1776              		.loc 1 542 0
 1777 0b4e 9DF80F30 		ldrb	r3, [sp, #15]	@ zero_extendqisi2
 1778 0b52 23F00703 		bic	r3, r3, #7
 1779 0b56 DBB2     		uxtb	r3, r3
 1780 0b58 8DF80F30 		strb	r3, [sp, #15]
 1781              		.loc 1 543 0
 1782 0b5c 9DF80F20 		ldrb	r2, [sp, #15]	@ zero_extendqisi2
 1783 0b60 9DF80330 		ldrb	r3, [sp, #3]
 1784 0b64 1343     		orrs	r3, r3, r2
 1785 0b66 DBB2     		uxtb	r3, r3
 1786 0b68 8DF80F30 		strb	r3, [sp, #15]
 1787              		.loc 1 545 0
 1788 0b6c 0DF10F03 		add	r3, sp, #15
 1789 0b70 0198     		ldr	r0, [sp, #4]
 1790 0b72 1021     		movs	r1, #16
 1791 0b74 0122     		movs	r2, #1
 1792 0b76 FFF7FEFF 		bl	HTS221_WriteReg
 1793 0b7a 0346     		mov	r3, r0
 1794 0b7c 002B     		cmp	r3, #0
 1795 0b7e 01D0     		beq	.L117
 1796              		.loc 1 546 0
 1797 0b80 0123     		movs	r3, #1
 1798 0b82 00E0     		b	.L118
 1799              	.L117:
 1800              		.loc 1 548 0
 1801 0b84 0023     		movs	r3, #0
 1802              	.L118:
 1803              		.loc 1 549 0
 1804 0b86 1846     		mov	r0, r3
ARM GAS  /tmp/ccJWCNBb.s 			page 33


 1805 0b88 05B0     		add	sp, sp, #20
 1806              		@ sp needed
 1807 0b8a 5DF804FB 		ldr	pc, [sp], #4
 1808              	.L120:
 1809 0b8e 00BF     		.align	2
 1810              	.L119:
 1811 0b90 00000000 		.word	.LC0
 1812              		.cfi_endproc
 1813              	.LFE18:
 1814              		.size	HTS221_Set_AvgH, .-HTS221_Set_AvgH
 1815              		.align	2
 1816 0b94 AFF30080 		.p2align 4,,15
 1816      AFF30080 
 1816      AFF30080 
 1817              		.global	HTS221_Set_AvgT
 1818              		.thumb
 1819              		.thumb_func
 1820              		.type	HTS221_Set_AvgT, %function
 1821              	HTS221_Set_AvgT:
 1822              	.LFB19:
 1823              		.loc 1 558 0
 1824              		.cfi_startproc
 1825              		@ args = 0, pretend = 0, frame = 16
 1826              		@ frame_needed = 0, uses_anonymous_args = 0
 1827 0ba0 00B5     		push	{lr}
 1828              		.cfi_def_cfa_offset 4
 1829              		.cfi_offset 14, -4
 1830 0ba2 85B0     		sub	sp, sp, #20
 1831              		.cfi_def_cfa_offset 24
 1832 0ba4 0190     		str	r0, [sp, #4]
 1833 0ba6 0B46     		mov	r3, r1
 1834 0ba8 8DF80330 		strb	r3, [sp, #3]
 1835              		.loc 1 561 0
 1836 0bac 9DF80330 		ldrb	r3, [sp, #3]	@ zero_extendqisi2
 1837 0bb0 002B     		cmp	r3, #0
 1838 0bb2 20D0     		beq	.L122
 1839              		.loc 1 561 0 is_stmt 0 discriminator 1
 1840 0bb4 9DF80330 		ldrb	r3, [sp, #3]	@ zero_extendqisi2
 1841 0bb8 082B     		cmp	r3, #8
 1842 0bba 1CD0     		beq	.L122
 1843 0bbc 9DF80330 		ldrb	r3, [sp, #3]	@ zero_extendqisi2
 1844 0bc0 102B     		cmp	r3, #16
 1845 0bc2 18D0     		beq	.L122
 1846 0bc4 9DF80330 		ldrb	r3, [sp, #3]	@ zero_extendqisi2
 1847 0bc8 182B     		cmp	r3, #24
 1848 0bca 14D0     		beq	.L122
 1849 0bcc 9DF80330 		ldrb	r3, [sp, #3]	@ zero_extendqisi2
 1850 0bd0 202B     		cmp	r3, #32
 1851 0bd2 10D0     		beq	.L122
 1852 0bd4 9DF80330 		ldrb	r3, [sp, #3]	@ zero_extendqisi2
 1853 0bd8 282B     		cmp	r3, #40
 1854 0bda 0CD0     		beq	.L122
 1855 0bdc 9DF80330 		ldrb	r3, [sp, #3]	@ zero_extendqisi2
 1856 0be0 302B     		cmp	r3, #48
 1857 0be2 08D0     		beq	.L122
 1858 0be4 9DF80330 		ldrb	r3, [sp, #3]	@ zero_extendqisi2
 1859 0be8 382B     		cmp	r3, #56
ARM GAS  /tmp/ccJWCNBb.s 			page 34


 1860 0bea 04D0     		beq	.L122
 1861 0bec 1848     		ldr	r0, .L127
 1862 0bee 40F23121 		movw	r1, #561
 1863 0bf2 FFF7FEFF 		bl	HTS221_assert_failed
 1864              	.L122:
 1865              		.loc 1 563 0 is_stmt 1
 1866 0bf6 0DF10F03 		add	r3, sp, #15
 1867 0bfa 0198     		ldr	r0, [sp, #4]
 1868 0bfc 1021     		movs	r1, #16
 1869 0bfe 0122     		movs	r2, #1
 1870 0c00 FFF7FEFF 		bl	HTS221_ReadReg
 1871 0c04 0346     		mov	r3, r0
 1872 0c06 002B     		cmp	r3, #0
 1873 0c08 01D0     		beq	.L123
 1874              		.loc 1 564 0
 1875 0c0a 0123     		movs	r3, #1
 1876 0c0c 1BE0     		b	.L126
 1877              	.L123:
 1878              		.loc 1 566 0
 1879 0c0e 9DF80F30 		ldrb	r3, [sp, #15]	@ zero_extendqisi2
 1880 0c12 23F03803 		bic	r3, r3, #56
 1881 0c16 DBB2     		uxtb	r3, r3
 1882 0c18 8DF80F30 		strb	r3, [sp, #15]
 1883              		.loc 1 567 0
 1884 0c1c 9DF80F20 		ldrb	r2, [sp, #15]	@ zero_extendqisi2
 1885 0c20 9DF80330 		ldrb	r3, [sp, #3]
 1886 0c24 1343     		orrs	r3, r3, r2
 1887 0c26 DBB2     		uxtb	r3, r3
 1888 0c28 8DF80F30 		strb	r3, [sp, #15]
 1889              		.loc 1 569 0
 1890 0c2c 0DF10F03 		add	r3, sp, #15
 1891 0c30 0198     		ldr	r0, [sp, #4]
 1892 0c32 1021     		movs	r1, #16
 1893 0c34 0122     		movs	r2, #1
 1894 0c36 FFF7FEFF 		bl	HTS221_WriteReg
 1895 0c3a 0346     		mov	r3, r0
 1896 0c3c 002B     		cmp	r3, #0
 1897 0c3e 01D0     		beq	.L125
 1898              		.loc 1 570 0
 1899 0c40 0123     		movs	r3, #1
 1900 0c42 00E0     		b	.L126
 1901              	.L125:
 1902              		.loc 1 572 0
 1903 0c44 0023     		movs	r3, #0
 1904              	.L126:
 1905              		.loc 1 573 0
 1906 0c46 1846     		mov	r0, r3
 1907 0c48 05B0     		add	sp, sp, #20
 1908              		@ sp needed
 1909 0c4a 5DF804FB 		ldr	pc, [sp], #4
 1910              	.L128:
 1911 0c4e 00BF     		.align	2
 1912              	.L127:
 1913 0c50 00000000 		.word	.LC0
 1914              		.cfi_endproc
 1915              	.LFE19:
 1916              		.size	HTS221_Set_AvgT, .-HTS221_Set_AvgT
ARM GAS  /tmp/ccJWCNBb.s 			page 35


 1917              		.align	2
 1918 0c54 AFF30080 		.p2align 4,,15
 1918      AFF30080 
 1918      AFF30080 
 1919              		.global	HTS221_Get_AvgHT
 1920              		.thumb
 1921              		.thumb_func
 1922              		.type	HTS221_Get_AvgHT, %function
 1923              	HTS221_Get_AvgHT:
 1924              	.LFB20:
 1925              		.loc 1 583 0
 1926              		.cfi_startproc
 1927              		@ args = 0, pretend = 0, frame = 24
 1928              		@ frame_needed = 0, uses_anonymous_args = 0
 1929 0c60 00B5     		push	{lr}
 1930              		.cfi_def_cfa_offset 4
 1931              		.cfi_offset 14, -4
 1932 0c62 87B0     		sub	sp, sp, #28
 1933              		.cfi_def_cfa_offset 32
 1934 0c64 0390     		str	r0, [sp, #12]
 1935 0c66 0291     		str	r1, [sp, #8]
 1936 0c68 0192     		str	r2, [sp, #4]
 1937              		.loc 1 586 0
 1938 0c6a 0DF11703 		add	r3, sp, #23
 1939 0c6e 0398     		ldr	r0, [sp, #12]
 1940 0c70 1021     		movs	r1, #16
 1941 0c72 0122     		movs	r2, #1
 1942 0c74 FFF7FEFF 		bl	HTS221_ReadReg
 1943 0c78 0346     		mov	r3, r0
 1944 0c7a 002B     		cmp	r3, #0
 1945 0c7c 01D0     		beq	.L130
 1946              		.loc 1 587 0
 1947 0c7e 0123     		movs	r3, #1
 1948 0c80 0EE0     		b	.L132
 1949              	.L130:
 1950              		.loc 1 589 0
 1951 0c82 9DF81730 		ldrb	r3, [sp, #23]	@ zero_extendqisi2
 1952 0c86 03F00703 		and	r3, r3, #7
 1953 0c8a DAB2     		uxtb	r2, r3
 1954 0c8c 029B     		ldr	r3, [sp, #8]
 1955 0c8e 1A70     		strb	r2, [r3]
 1956              		.loc 1 590 0
 1957 0c90 9DF81730 		ldrb	r3, [sp, #23]	@ zero_extendqisi2
 1958 0c94 03F03803 		and	r3, r3, #56
 1959 0c98 DAB2     		uxtb	r2, r3
 1960 0c9a 019B     		ldr	r3, [sp, #4]
 1961 0c9c 1A70     		strb	r2, [r3]
 1962              		.loc 1 592 0
 1963 0c9e 0023     		movs	r3, #0
 1964              	.L132:
 1965              		.loc 1 593 0
 1966 0ca0 1846     		mov	r0, r3
 1967 0ca2 07B0     		add	sp, sp, #28
 1968              		@ sp needed
 1969 0ca4 5DF804FB 		ldr	pc, [sp], #4
 1970              		.cfi_endproc
 1971              	.LFE20:
ARM GAS  /tmp/ccJWCNBb.s 			page 36


 1972              		.size	HTS221_Get_AvgHT, .-HTS221_Get_AvgHT
 1973              		.align	2
 1974 0ca8 AFF30080 		.p2align 4,,15
 1974      AFF30080 
 1975              		.global	HTS221_Set_BduMode
 1976              		.thumb
 1977              		.thumb_func
 1978              		.type	HTS221_Set_BduMode, %function
 1979              	HTS221_Set_BduMode:
 1980              	.LFB21:
 1981              		.loc 1 604 0
 1982              		.cfi_startproc
 1983              		@ args = 0, pretend = 0, frame = 16
 1984              		@ frame_needed = 0, uses_anonymous_args = 0
 1985 0cb0 00B5     		push	{lr}
 1986              		.cfi_def_cfa_offset 4
 1987              		.cfi_offset 14, -4
 1988 0cb2 85B0     		sub	sp, sp, #20
 1989              		.cfi_def_cfa_offset 24
 1990 0cb4 0190     		str	r0, [sp, #4]
 1991 0cb6 0B46     		mov	r3, r1
 1992 0cb8 8DF80330 		strb	r3, [sp, #3]
 1993              		.loc 1 607 0
 1994 0cbc 9DF80330 		ldrb	r3, [sp, #3]	@ zero_extendqisi2
 1995 0cc0 012B     		cmp	r3, #1
 1996 0cc2 08D0     		beq	.L134
 1997              		.loc 1 607 0 is_stmt 0 discriminator 1
 1998 0cc4 9DF80330 		ldrb	r3, [sp, #3]	@ zero_extendqisi2
 1999 0cc8 002B     		cmp	r3, #0
 2000 0cca 04D0     		beq	.L134
 2001 0ccc 1A48     		ldr	r0, .L139
 2002 0cce 40F25F21 		movw	r1, #607
 2003 0cd2 FFF7FEFF 		bl	HTS221_assert_failed
 2004              	.L134:
 2005              		.loc 1 609 0 is_stmt 1
 2006 0cd6 0DF10F03 		add	r3, sp, #15
 2007 0cda 0198     		ldr	r0, [sp, #4]
 2008 0cdc 2021     		movs	r1, #32
 2009 0cde 0122     		movs	r2, #1
 2010 0ce0 FFF7FEFF 		bl	HTS221_ReadReg
 2011 0ce4 0346     		mov	r3, r0
 2012 0ce6 002B     		cmp	r3, #0
 2013 0ce8 01D0     		beq	.L135
 2014              		.loc 1 610 0
 2015 0cea 0123     		movs	r3, #1
 2016 0cec 1FE0     		b	.L138
 2017              	.L135:
 2018              		.loc 1 612 0
 2019 0cee 9DF80F30 		ldrb	r3, [sp, #15]	@ zero_extendqisi2
 2020 0cf2 23F00403 		bic	r3, r3, #4
 2021 0cf6 DBB2     		uxtb	r3, r3
 2022 0cf8 8DF80F30 		strb	r3, [sp, #15]
 2023              		.loc 1 613 0
 2024 0cfc 9DF80330 		ldrb	r3, [sp, #3]	@ zero_extendqisi2
 2025 0d00 9B00     		lsls	r3, r3, #2
 2026 0d02 DAB2     		uxtb	r2, r3
 2027 0d04 9DF80F30 		ldrb	r3, [sp, #15]	@ zero_extendqisi2
ARM GAS  /tmp/ccJWCNBb.s 			page 37


 2028 0d08 DBB2     		uxtb	r3, r3
 2029 0d0a 1343     		orrs	r3, r3, r2
 2030 0d0c DBB2     		uxtb	r3, r3
 2031 0d0e DBB2     		uxtb	r3, r3
 2032 0d10 8DF80F30 		strb	r3, [sp, #15]
 2033              		.loc 1 615 0
 2034 0d14 0DF10F03 		add	r3, sp, #15
 2035 0d18 0198     		ldr	r0, [sp, #4]
 2036 0d1a 2021     		movs	r1, #32
 2037 0d1c 0122     		movs	r2, #1
 2038 0d1e FFF7FEFF 		bl	HTS221_WriteReg
 2039 0d22 0346     		mov	r3, r0
 2040 0d24 002B     		cmp	r3, #0
 2041 0d26 01D0     		beq	.L137
 2042              		.loc 1 616 0
 2043 0d28 0123     		movs	r3, #1
 2044 0d2a 00E0     		b	.L138
 2045              	.L137:
 2046              		.loc 1 618 0
 2047 0d2c 0023     		movs	r3, #0
 2048              	.L138:
 2049              		.loc 1 619 0
 2050 0d2e 1846     		mov	r0, r3
 2051 0d30 05B0     		add	sp, sp, #20
 2052              		@ sp needed
 2053 0d32 5DF804FB 		ldr	pc, [sp], #4
 2054              	.L140:
 2055 0d36 00BF     		.align	2
 2056              	.L139:
 2057 0d38 00000000 		.word	.LC0
 2058              		.cfi_endproc
 2059              	.LFE21:
 2060              		.size	HTS221_Set_BduMode, .-HTS221_Set_BduMode
 2061              		.align	2
 2062 0d3c AFF30080 		.p2align 4,,15
 2063              		.global	HTS221_Get_BduMode
 2064              		.thumb
 2065              		.thumb_func
 2066              		.type	HTS221_Get_BduMode, %function
 2067              	HTS221_Get_BduMode:
 2068              	.LFB22:
 2069              		.loc 1 628 0
 2070              		.cfi_startproc
 2071              		@ args = 0, pretend = 0, frame = 16
 2072              		@ frame_needed = 0, uses_anonymous_args = 0
 2073 0d40 00B5     		push	{lr}
 2074              		.cfi_def_cfa_offset 4
 2075              		.cfi_offset 14, -4
 2076 0d42 85B0     		sub	sp, sp, #20
 2077              		.cfi_def_cfa_offset 24
 2078 0d44 0190     		str	r0, [sp, #4]
 2079 0d46 0091     		str	r1, [sp]
 2080              		.loc 1 631 0
 2081 0d48 0DF10F03 		add	r3, sp, #15
 2082 0d4c 0198     		ldr	r0, [sp, #4]
 2083 0d4e 2021     		movs	r1, #32
 2084 0d50 0122     		movs	r2, #1
ARM GAS  /tmp/ccJWCNBb.s 			page 38


 2085 0d52 FFF7FEFF 		bl	HTS221_ReadReg
 2086 0d56 0346     		mov	r3, r0
 2087 0d58 002B     		cmp	r3, #0
 2088 0d5a 01D0     		beq	.L142
 2089              		.loc 1 632 0
 2090 0d5c 0123     		movs	r3, #1
 2091 0d5e 08E0     		b	.L144
 2092              	.L142:
 2093              		.loc 1 634 0
 2094 0d60 9DF80F30 		ldrb	r3, [sp, #15]	@ zero_extendqisi2
 2095 0d64 03F00403 		and	r3, r3, #4
 2096 0d68 9B10     		asrs	r3, r3, #2
 2097 0d6a DAB2     		uxtb	r2, r3
 2098 0d6c 009B     		ldr	r3, [sp]
 2099 0d6e 1A70     		strb	r2, [r3]
 2100              		.loc 1 636 0
 2101 0d70 0023     		movs	r3, #0
 2102              	.L144:
 2103              		.loc 1 637 0
 2104 0d72 1846     		mov	r0, r3
 2105 0d74 05B0     		add	sp, sp, #20
 2106              		@ sp needed
 2107 0d76 5DF804FB 		ldr	pc, [sp], #4
 2108              		.cfi_endproc
 2109              	.LFE22:
 2110              		.size	HTS221_Get_BduMode, .-HTS221_Get_BduMode
 2111 0d7a 00BF     		.align	2
 2112 0d7c AFF30080 		.p2align 4,,15
 2113              		.global	HTS221_Set_PowerDownMode
 2114              		.thumb
 2115              		.thumb_func
 2116              		.type	HTS221_Set_PowerDownMode, %function
 2117              	HTS221_Set_PowerDownMode:
 2118              	.LFB23:
 2119              		.loc 1 648 0
 2120              		.cfi_startproc
 2121              		@ args = 0, pretend = 0, frame = 16
 2122              		@ frame_needed = 0, uses_anonymous_args = 0
 2123 0d80 00B5     		push	{lr}
 2124              		.cfi_def_cfa_offset 4
 2125              		.cfi_offset 14, -4
 2126 0d82 85B0     		sub	sp, sp, #20
 2127              		.cfi_def_cfa_offset 24
 2128 0d84 0190     		str	r0, [sp, #4]
 2129 0d86 0B46     		mov	r3, r1
 2130 0d88 8DF80330 		strb	r3, [sp, #3]
 2131              		.loc 1 651 0
 2132 0d8c 9DF80330 		ldrb	r3, [sp, #3]	@ zero_extendqisi2
 2133 0d90 002B     		cmp	r3, #0
 2134 0d92 08D0     		beq	.L146
 2135              		.loc 1 651 0 is_stmt 0 discriminator 1
 2136 0d94 9DF80330 		ldrb	r3, [sp, #3]	@ zero_extendqisi2
 2137 0d98 012B     		cmp	r3, #1
 2138 0d9a 04D0     		beq	.L146
 2139 0d9c 1A48     		ldr	r0, .L151
 2140 0d9e 40F28B21 		movw	r1, #651
 2141 0da2 FFF7FEFF 		bl	HTS221_assert_failed
ARM GAS  /tmp/ccJWCNBb.s 			page 39


 2142              	.L146:
 2143              		.loc 1 653 0 is_stmt 1
 2144 0da6 0DF10F03 		add	r3, sp, #15
 2145 0daa 0198     		ldr	r0, [sp, #4]
 2146 0dac 2021     		movs	r1, #32
 2147 0dae 0122     		movs	r2, #1
 2148 0db0 FFF7FEFF 		bl	HTS221_ReadReg
 2149 0db4 0346     		mov	r3, r0
 2150 0db6 002B     		cmp	r3, #0
 2151 0db8 01D0     		beq	.L147
 2152              		.loc 1 654 0
 2153 0dba 0123     		movs	r3, #1
 2154 0dbc 1FE0     		b	.L150
 2155              	.L147:
 2156              		.loc 1 656 0
 2157 0dbe 9DF80F30 		ldrb	r3, [sp, #15]	@ zero_extendqisi2
 2158 0dc2 03F07F03 		and	r3, r3, #127
 2159 0dc6 DBB2     		uxtb	r3, r3
 2160 0dc8 8DF80F30 		strb	r3, [sp, #15]
 2161              		.loc 1 657 0
 2162 0dcc 9DF80330 		ldrb	r3, [sp, #3]	@ zero_extendqisi2
 2163 0dd0 DB01     		lsls	r3, r3, #7
 2164 0dd2 DAB2     		uxtb	r2, r3
 2165 0dd4 9DF80F30 		ldrb	r3, [sp, #15]	@ zero_extendqisi2
 2166 0dd8 DBB2     		uxtb	r3, r3
 2167 0dda 1343     		orrs	r3, r3, r2
 2168 0ddc DBB2     		uxtb	r3, r3
 2169 0dde DBB2     		uxtb	r3, r3
 2170 0de0 8DF80F30 		strb	r3, [sp, #15]
 2171              		.loc 1 659 0
 2172 0de4 0DF10F03 		add	r3, sp, #15
 2173 0de8 0198     		ldr	r0, [sp, #4]
 2174 0dea 2021     		movs	r1, #32
 2175 0dec 0122     		movs	r2, #1
 2176 0dee FFF7FEFF 		bl	HTS221_WriteReg
 2177 0df2 0346     		mov	r3, r0
 2178 0df4 002B     		cmp	r3, #0
 2179 0df6 01D0     		beq	.L149
 2180              		.loc 1 660 0
 2181 0df8 0123     		movs	r3, #1
 2182 0dfa 00E0     		b	.L150
 2183              	.L149:
 2184              		.loc 1 662 0
 2185 0dfc 0023     		movs	r3, #0
 2186              	.L150:
 2187              		.loc 1 663 0
 2188 0dfe 1846     		mov	r0, r3
 2189 0e00 05B0     		add	sp, sp, #20
 2190              		@ sp needed
 2191 0e02 5DF804FB 		ldr	pc, [sp], #4
 2192              	.L152:
 2193 0e06 00BF     		.align	2
 2194              	.L151:
 2195 0e08 00000000 		.word	.LC0
 2196              		.cfi_endproc
 2197              	.LFE23:
 2198              		.size	HTS221_Set_PowerDownMode, .-HTS221_Set_PowerDownMode
ARM GAS  /tmp/ccJWCNBb.s 			page 40


 2199              		.align	2
 2200 0e0c AFF30080 		.p2align 4,,15
 2201              		.global	HTS221_Get_PowerDownMode
 2202              		.thumb
 2203              		.thumb_func
 2204              		.type	HTS221_Get_PowerDownMode, %function
 2205              	HTS221_Get_PowerDownMode:
 2206              	.LFB24:
 2207              		.loc 1 672 0
 2208              		.cfi_startproc
 2209              		@ args = 0, pretend = 0, frame = 16
 2210              		@ frame_needed = 0, uses_anonymous_args = 0
 2211 0e10 00B5     		push	{lr}
 2212              		.cfi_def_cfa_offset 4
 2213              		.cfi_offset 14, -4
 2214 0e12 85B0     		sub	sp, sp, #20
 2215              		.cfi_def_cfa_offset 24
 2216 0e14 0190     		str	r0, [sp, #4]
 2217 0e16 0091     		str	r1, [sp]
 2218              		.loc 1 675 0
 2219 0e18 0DF10F03 		add	r3, sp, #15
 2220 0e1c 0198     		ldr	r0, [sp, #4]
 2221 0e1e 2021     		movs	r1, #32
 2222 0e20 0122     		movs	r2, #1
 2223 0e22 FFF7FEFF 		bl	HTS221_ReadReg
 2224 0e26 0346     		mov	r3, r0
 2225 0e28 002B     		cmp	r3, #0
 2226 0e2a 01D0     		beq	.L154
 2227              		.loc 1 676 0
 2228 0e2c 0123     		movs	r3, #1
 2229 0e2e 06E0     		b	.L156
 2230              	.L154:
 2231              		.loc 1 678 0
 2232 0e30 9DF80F30 		ldrb	r3, [sp, #15]	@ zero_extendqisi2
 2233 0e34 DB09     		lsrs	r3, r3, #7
 2234 0e36 DAB2     		uxtb	r2, r3
 2235 0e38 009B     		ldr	r3, [sp]
 2236 0e3a 1A70     		strb	r2, [r3]
 2237              		.loc 1 680 0
 2238 0e3c 0023     		movs	r3, #0
 2239              	.L156:
 2240              		.loc 1 681 0
 2241 0e3e 1846     		mov	r0, r3
 2242 0e40 05B0     		add	sp, sp, #20
 2243              		@ sp needed
 2244 0e42 5DF804FB 		ldr	pc, [sp], #4
 2245              		.cfi_endproc
 2246              	.LFE24:
 2247              		.size	HTS221_Get_PowerDownMode, .-HTS221_Get_PowerDownMode
 2248 0e46 00BF     		.align	2
 2249 0e48 AFF30080 		.p2align 4,,15
 2249      AFF30080 
 2250              		.global	HTS221_Set_Odr
 2251              		.thumb
 2252              		.thumb_func
 2253              		.type	HTS221_Set_Odr, %function
 2254              	HTS221_Set_Odr:
ARM GAS  /tmp/ccJWCNBb.s 			page 41


 2255              	.LFB25:
 2256              		.loc 1 691 0
 2257              		.cfi_startproc
 2258              		@ args = 0, pretend = 0, frame = 16
 2259              		@ frame_needed = 0, uses_anonymous_args = 0
 2260 0e50 00B5     		push	{lr}
 2261              		.cfi_def_cfa_offset 4
 2262              		.cfi_offset 14, -4
 2263 0e52 85B0     		sub	sp, sp, #20
 2264              		.cfi_def_cfa_offset 24
 2265 0e54 0190     		str	r0, [sp, #4]
 2266 0e56 0B46     		mov	r3, r1
 2267 0e58 8DF80330 		strb	r3, [sp, #3]
 2268              		.loc 1 694 0
 2269 0e5c 9DF80330 		ldrb	r3, [sp, #3]	@ zero_extendqisi2
 2270 0e60 002B     		cmp	r3, #0
 2271 0e62 10D0     		beq	.L158
 2272              		.loc 1 694 0 is_stmt 0 discriminator 1
 2273 0e64 9DF80330 		ldrb	r3, [sp, #3]	@ zero_extendqisi2
 2274 0e68 012B     		cmp	r3, #1
 2275 0e6a 0CD0     		beq	.L158
 2276 0e6c 9DF80330 		ldrb	r3, [sp, #3]	@ zero_extendqisi2
 2277 0e70 022B     		cmp	r3, #2
 2278 0e72 08D0     		beq	.L158
 2279 0e74 9DF80330 		ldrb	r3, [sp, #3]	@ zero_extendqisi2
 2280 0e78 032B     		cmp	r3, #3
 2281 0e7a 04D0     		beq	.L158
 2282 0e7c 1848     		ldr	r0, .L163
 2283 0e7e 40F2B621 		movw	r1, #694
 2284 0e82 FFF7FEFF 		bl	HTS221_assert_failed
 2285              	.L158:
 2286              		.loc 1 696 0 is_stmt 1
 2287 0e86 0DF10F03 		add	r3, sp, #15
 2288 0e8a 0198     		ldr	r0, [sp, #4]
 2289 0e8c 2021     		movs	r1, #32
 2290 0e8e 0122     		movs	r2, #1
 2291 0e90 FFF7FEFF 		bl	HTS221_ReadReg
 2292 0e94 0346     		mov	r3, r0
 2293 0e96 002B     		cmp	r3, #0
 2294 0e98 01D0     		beq	.L159
 2295              		.loc 1 697 0
 2296 0e9a 0123     		movs	r3, #1
 2297 0e9c 1BE0     		b	.L162
 2298              	.L159:
 2299              		.loc 1 699 0
 2300 0e9e 9DF80F30 		ldrb	r3, [sp, #15]	@ zero_extendqisi2
 2301 0ea2 23F00303 		bic	r3, r3, #3
 2302 0ea6 DBB2     		uxtb	r3, r3
 2303 0ea8 8DF80F30 		strb	r3, [sp, #15]
 2304              		.loc 1 700 0
 2305 0eac 9DF80F20 		ldrb	r2, [sp, #15]	@ zero_extendqisi2
 2306 0eb0 9DF80330 		ldrb	r3, [sp, #3]
 2307 0eb4 1343     		orrs	r3, r3, r2
 2308 0eb6 DBB2     		uxtb	r3, r3
 2309 0eb8 8DF80F30 		strb	r3, [sp, #15]
 2310              		.loc 1 702 0
 2311 0ebc 0DF10F03 		add	r3, sp, #15
ARM GAS  /tmp/ccJWCNBb.s 			page 42


 2312 0ec0 0198     		ldr	r0, [sp, #4]
 2313 0ec2 2021     		movs	r1, #32
 2314 0ec4 0122     		movs	r2, #1
 2315 0ec6 FFF7FEFF 		bl	HTS221_WriteReg
 2316 0eca 0346     		mov	r3, r0
 2317 0ecc 002B     		cmp	r3, #0
 2318 0ece 01D0     		beq	.L161
 2319              		.loc 1 703 0
 2320 0ed0 0123     		movs	r3, #1
 2321 0ed2 00E0     		b	.L162
 2322              	.L161:
 2323              		.loc 1 705 0
 2324 0ed4 0023     		movs	r3, #0
 2325              	.L162:
 2326              		.loc 1 706 0
 2327 0ed6 1846     		mov	r0, r3
 2328 0ed8 05B0     		add	sp, sp, #20
 2329              		@ sp needed
 2330 0eda 5DF804FB 		ldr	pc, [sp], #4
 2331              	.L164:
 2332 0ede 00BF     		.align	2
 2333              	.L163:
 2334 0ee0 00000000 		.word	.LC0
 2335              		.cfi_endproc
 2336              	.LFE25:
 2337              		.size	HTS221_Set_Odr, .-HTS221_Set_Odr
 2338              		.align	2
 2339 0ee4 AFF30080 		.p2align 4,,15
 2339      AFF30080 
 2339      AFF30080 
 2340              		.global	HTS221_Get_Odr
 2341              		.thumb
 2342              		.thumb_func
 2343              		.type	HTS221_Get_Odr, %function
 2344              	HTS221_Get_Odr:
 2345              	.LFB26:
 2346              		.loc 1 715 0
 2347              		.cfi_startproc
 2348              		@ args = 0, pretend = 0, frame = 16
 2349              		@ frame_needed = 0, uses_anonymous_args = 0
 2350 0ef0 00B5     		push	{lr}
 2351              		.cfi_def_cfa_offset 4
 2352              		.cfi_offset 14, -4
 2353 0ef2 85B0     		sub	sp, sp, #20
 2354              		.cfi_def_cfa_offset 24
 2355 0ef4 0190     		str	r0, [sp, #4]
 2356 0ef6 0091     		str	r1, [sp]
 2357              		.loc 1 718 0
 2358 0ef8 0DF10F03 		add	r3, sp, #15
 2359 0efc 0198     		ldr	r0, [sp, #4]
 2360 0efe 2021     		movs	r1, #32
 2361 0f00 0122     		movs	r2, #1
 2362 0f02 FFF7FEFF 		bl	HTS221_ReadReg
 2363 0f06 0346     		mov	r3, r0
 2364 0f08 002B     		cmp	r3, #0
 2365 0f0a 01D0     		beq	.L166
 2366              		.loc 1 719 0
ARM GAS  /tmp/ccJWCNBb.s 			page 43


 2367 0f0c 0123     		movs	r3, #1
 2368 0f0e 0BE0     		b	.L168
 2369              	.L166:
 2370              		.loc 1 721 0
 2371 0f10 9DF80F30 		ldrb	r3, [sp, #15]	@ zero_extendqisi2
 2372 0f14 03F00303 		and	r3, r3, #3
 2373 0f18 DBB2     		uxtb	r3, r3
 2374 0f1a 8DF80F30 		strb	r3, [sp, #15]
 2375              		.loc 1 722 0
 2376 0f1e 9DF80F20 		ldrb	r2, [sp, #15]	@ zero_extendqisi2
 2377 0f22 009B     		ldr	r3, [sp]
 2378 0f24 1A70     		strb	r2, [r3]
 2379              		.loc 1 724 0
 2380 0f26 0023     		movs	r3, #0
 2381              	.L168:
 2382              		.loc 1 725 0
 2383 0f28 1846     		mov	r0, r3
 2384 0f2a 05B0     		add	sp, sp, #20
 2385              		@ sp needed
 2386 0f2c 5DF804FB 		ldr	pc, [sp], #4
 2387              		.cfi_endproc
 2388              	.LFE26:
 2389              		.size	HTS221_Get_Odr, .-HTS221_Get_Odr
 2390              		.align	2
 2391              		.p2align 4,,15
 2392              		.global	HTS221_MemoryBoot
 2393              		.thumb
 2394              		.thumb_func
 2395              		.type	HTS221_MemoryBoot, %function
 2396              	HTS221_MemoryBoot:
 2397              	.LFB27:
 2398              		.loc 1 733 0
 2399              		.cfi_startproc
 2400              		@ args = 0, pretend = 0, frame = 16
 2401              		@ frame_needed = 0, uses_anonymous_args = 0
 2402 0f30 00B5     		push	{lr}
 2403              		.cfi_def_cfa_offset 4
 2404              		.cfi_offset 14, -4
 2405 0f32 85B0     		sub	sp, sp, #20
 2406              		.cfi_def_cfa_offset 24
 2407 0f34 0190     		str	r0, [sp, #4]
 2408              		.loc 1 736 0
 2409 0f36 0DF10F03 		add	r3, sp, #15
 2410 0f3a 0198     		ldr	r0, [sp, #4]
 2411 0f3c 2121     		movs	r1, #33
 2412 0f3e 0122     		movs	r2, #1
 2413 0f40 FFF7FEFF 		bl	HTS221_ReadReg
 2414 0f44 0346     		mov	r3, r0
 2415 0f46 002B     		cmp	r3, #0
 2416 0f48 01D0     		beq	.L170
 2417              		.loc 1 737 0
 2418 0f4a 0123     		movs	r3, #1
 2419 0f4c 13E0     		b	.L173
 2420              	.L170:
 2421              		.loc 1 739 0
 2422 0f4e 9DF80F30 		ldrb	r3, [sp, #15]	@ zero_extendqisi2
 2423 0f52 63F07F03 		orn	r3, r3, #127
ARM GAS  /tmp/ccJWCNBb.s 			page 44


 2424 0f56 DBB2     		uxtb	r3, r3
 2425 0f58 8DF80F30 		strb	r3, [sp, #15]
 2426              		.loc 1 741 0
 2427 0f5c 0DF10F03 		add	r3, sp, #15
 2428 0f60 0198     		ldr	r0, [sp, #4]
 2429 0f62 2121     		movs	r1, #33
 2430 0f64 0122     		movs	r2, #1
 2431 0f66 FFF7FEFF 		bl	HTS221_WriteReg
 2432 0f6a 0346     		mov	r3, r0
 2433 0f6c 002B     		cmp	r3, #0
 2434 0f6e 01D0     		beq	.L172
 2435              		.loc 1 742 0
 2436 0f70 0123     		movs	r3, #1
 2437 0f72 00E0     		b	.L173
 2438              	.L172:
 2439              		.loc 1 744 0
 2440 0f74 0023     		movs	r3, #0
 2441              	.L173:
 2442              		.loc 1 745 0
 2443 0f76 1846     		mov	r0, r3
 2444 0f78 05B0     		add	sp, sp, #20
 2445              		@ sp needed
 2446 0f7a 5DF804FB 		ldr	pc, [sp], #4
 2447              		.cfi_endproc
 2448              	.LFE27:
 2449              		.size	HTS221_MemoryBoot, .-HTS221_MemoryBoot
 2450 0f7e 00BF     		.align	2
 2451              		.p2align 4,,15
 2452              		.global	HTS221_Set_HeaterState
 2453              		.thumb
 2454              		.thumb_func
 2455              		.type	HTS221_Set_HeaterState, %function
 2456              	HTS221_Set_HeaterState:
 2457              	.LFB28:
 2458              		.loc 1 755 0
 2459              		.cfi_startproc
 2460              		@ args = 0, pretend = 0, frame = 16
 2461              		@ frame_needed = 0, uses_anonymous_args = 0
 2462 0f80 00B5     		push	{lr}
 2463              		.cfi_def_cfa_offset 4
 2464              		.cfi_offset 14, -4
 2465 0f82 85B0     		sub	sp, sp, #20
 2466              		.cfi_def_cfa_offset 24
 2467 0f84 0190     		str	r0, [sp, #4]
 2468 0f86 0B46     		mov	r3, r1
 2469 0f88 8DF80330 		strb	r3, [sp, #3]
 2470              		.loc 1 758 0
 2471 0f8c 9DF80330 		ldrb	r3, [sp, #3]	@ zero_extendqisi2
 2472 0f90 012B     		cmp	r3, #1
 2473 0f92 08D0     		beq	.L175
 2474              		.loc 1 758 0 is_stmt 0 discriminator 1
 2475 0f94 9DF80330 		ldrb	r3, [sp, #3]	@ zero_extendqisi2
 2476 0f98 002B     		cmp	r3, #0
 2477 0f9a 04D0     		beq	.L175
 2478 0f9c 1A48     		ldr	r0, .L180
 2479 0f9e 40F2F621 		movw	r1, #758
 2480 0fa2 FFF7FEFF 		bl	HTS221_assert_failed
ARM GAS  /tmp/ccJWCNBb.s 			page 45


 2481              	.L175:
 2482              		.loc 1 760 0 is_stmt 1
 2483 0fa6 0DF10F03 		add	r3, sp, #15
 2484 0faa 0198     		ldr	r0, [sp, #4]
 2485 0fac 2121     		movs	r1, #33
 2486 0fae 0122     		movs	r2, #1
 2487 0fb0 FFF7FEFF 		bl	HTS221_ReadReg
 2488 0fb4 0346     		mov	r3, r0
 2489 0fb6 002B     		cmp	r3, #0
 2490 0fb8 01D0     		beq	.L176
 2491              		.loc 1 761 0
 2492 0fba 0123     		movs	r3, #1
 2493 0fbc 1FE0     		b	.L179
 2494              	.L176:
 2495              		.loc 1 763 0
 2496 0fbe 9DF80F30 		ldrb	r3, [sp, #15]	@ zero_extendqisi2
 2497 0fc2 23F00203 		bic	r3, r3, #2
 2498 0fc6 DBB2     		uxtb	r3, r3
 2499 0fc8 8DF80F30 		strb	r3, [sp, #15]
 2500              		.loc 1 764 0
 2501 0fcc 9DF80330 		ldrb	r3, [sp, #3]	@ zero_extendqisi2
 2502 0fd0 5B00     		lsls	r3, r3, #1
 2503 0fd2 DAB2     		uxtb	r2, r3
 2504 0fd4 9DF80F30 		ldrb	r3, [sp, #15]	@ zero_extendqisi2
 2505 0fd8 DBB2     		uxtb	r3, r3
 2506 0fda 1343     		orrs	r3, r3, r2
 2507 0fdc DBB2     		uxtb	r3, r3
 2508 0fde DBB2     		uxtb	r3, r3
 2509 0fe0 8DF80F30 		strb	r3, [sp, #15]
 2510              		.loc 1 766 0
 2511 0fe4 0DF10F03 		add	r3, sp, #15
 2512 0fe8 0198     		ldr	r0, [sp, #4]
 2513 0fea 2121     		movs	r1, #33
 2514 0fec 0122     		movs	r2, #1
 2515 0fee FFF7FEFF 		bl	HTS221_WriteReg
 2516 0ff2 0346     		mov	r3, r0
 2517 0ff4 002B     		cmp	r3, #0
 2518 0ff6 01D0     		beq	.L178
 2519              		.loc 1 767 0
 2520 0ff8 0123     		movs	r3, #1
 2521 0ffa 00E0     		b	.L179
 2522              	.L178:
 2523              		.loc 1 769 0
 2524 0ffc 0023     		movs	r3, #0
 2525              	.L179:
 2526              		.loc 1 770 0
 2527 0ffe 1846     		mov	r0, r3
 2528 1000 05B0     		add	sp, sp, #20
 2529              		@ sp needed
 2530 1002 5DF804FB 		ldr	pc, [sp], #4
 2531              	.L181:
 2532 1006 00BF     		.align	2
 2533              	.L180:
 2534 1008 00000000 		.word	.LC0
 2535              		.cfi_endproc
 2536              	.LFE28:
 2537              		.size	HTS221_Set_HeaterState, .-HTS221_Set_HeaterState
ARM GAS  /tmp/ccJWCNBb.s 			page 46


 2538              		.align	2
 2539 100c AFF30080 		.p2align 4,,15
 2540              		.global	HTS221_Get_HeaterState
 2541              		.thumb
 2542              		.thumb_func
 2543              		.type	HTS221_Get_HeaterState, %function
 2544              	HTS221_Get_HeaterState:
 2545              	.LFB29:
 2546              		.loc 1 779 0
 2547              		.cfi_startproc
 2548              		@ args = 0, pretend = 0, frame = 16
 2549              		@ frame_needed = 0, uses_anonymous_args = 0
 2550 1010 00B5     		push	{lr}
 2551              		.cfi_def_cfa_offset 4
 2552              		.cfi_offset 14, -4
 2553 1012 85B0     		sub	sp, sp, #20
 2554              		.cfi_def_cfa_offset 24
 2555 1014 0190     		str	r0, [sp, #4]
 2556 1016 0091     		str	r1, [sp]
 2557              		.loc 1 782 0
 2558 1018 0DF10F03 		add	r3, sp, #15
 2559 101c 0198     		ldr	r0, [sp, #4]
 2560 101e 2121     		movs	r1, #33
 2561 1020 0122     		movs	r2, #1
 2562 1022 FFF7FEFF 		bl	HTS221_ReadReg
 2563 1026 0346     		mov	r3, r0
 2564 1028 002B     		cmp	r3, #0
 2565 102a 01D0     		beq	.L183
 2566              		.loc 1 783 0
 2567 102c 0123     		movs	r3, #1
 2568 102e 08E0     		b	.L185
 2569              	.L183:
 2570              		.loc 1 785 0
 2571 1030 9DF80F30 		ldrb	r3, [sp, #15]	@ zero_extendqisi2
 2572 1034 03F00203 		and	r3, r3, #2
 2573 1038 5B10     		asrs	r3, r3, #1
 2574 103a DAB2     		uxtb	r2, r3
 2575 103c 009B     		ldr	r3, [sp]
 2576 103e 1A70     		strb	r2, [r3]
 2577              		.loc 1 787 0
 2578 1040 0023     		movs	r3, #0
 2579              	.L185:
 2580              		.loc 1 788 0
 2581 1042 1846     		mov	r0, r3
 2582 1044 05B0     		add	sp, sp, #20
 2583              		@ sp needed
 2584 1046 5DF804FB 		ldr	pc, [sp], #4
 2585              		.cfi_endproc
 2586              	.LFE29:
 2587              		.size	HTS221_Get_HeaterState, .-HTS221_Get_HeaterState
 2588 104a 00BF     		.align	2
 2589 104c AFF30080 		.p2align 4,,15
 2590              		.global	HTS221_StartOneShotMeasurement
 2591              		.thumb
 2592              		.thumb_func
 2593              		.type	HTS221_StartOneShotMeasurement, %function
 2594              	HTS221_StartOneShotMeasurement:
ARM GAS  /tmp/ccJWCNBb.s 			page 47


 2595              	.LFB30:
 2596              		.loc 1 797 0
 2597              		.cfi_startproc
 2598              		@ args = 0, pretend = 0, frame = 16
 2599              		@ frame_needed = 0, uses_anonymous_args = 0
 2600 1050 00B5     		push	{lr}
 2601              		.cfi_def_cfa_offset 4
 2602              		.cfi_offset 14, -4
 2603 1052 85B0     		sub	sp, sp, #20
 2604              		.cfi_def_cfa_offset 24
 2605 1054 0190     		str	r0, [sp, #4]
 2606              		.loc 1 800 0
 2607 1056 0DF10F03 		add	r3, sp, #15
 2608 105a 0198     		ldr	r0, [sp, #4]
 2609 105c 2121     		movs	r1, #33
 2610 105e 0122     		movs	r2, #1
 2611 1060 FFF7FEFF 		bl	HTS221_ReadReg
 2612 1064 0346     		mov	r3, r0
 2613 1066 002B     		cmp	r3, #0
 2614 1068 01D0     		beq	.L187
 2615              		.loc 1 801 0
 2616 106a 0123     		movs	r3, #1
 2617 106c 13E0     		b	.L190
 2618              	.L187:
 2619              		.loc 1 803 0
 2620 106e 9DF80F30 		ldrb	r3, [sp, #15]	@ zero_extendqisi2
 2621 1072 43F00103 		orr	r3, r3, #1
 2622 1076 DBB2     		uxtb	r3, r3
 2623 1078 8DF80F30 		strb	r3, [sp, #15]
 2624              		.loc 1 805 0
 2625 107c 0DF10F03 		add	r3, sp, #15
 2626 1080 0198     		ldr	r0, [sp, #4]
 2627 1082 2121     		movs	r1, #33
 2628 1084 0122     		movs	r2, #1
 2629 1086 FFF7FEFF 		bl	HTS221_WriteReg
 2630 108a 0346     		mov	r3, r0
 2631 108c 002B     		cmp	r3, #0
 2632 108e 01D0     		beq	.L189
 2633              		.loc 1 806 0
 2634 1090 0123     		movs	r3, #1
 2635 1092 00E0     		b	.L190
 2636              	.L189:
 2637              		.loc 1 808 0
 2638 1094 0023     		movs	r3, #0
 2639              	.L190:
 2640              		.loc 1 810 0
 2641 1096 1846     		mov	r0, r3
 2642 1098 05B0     		add	sp, sp, #20
 2643              		@ sp needed
 2644 109a 5DF804FB 		ldr	pc, [sp], #4
 2645              		.cfi_endproc
 2646              	.LFE30:
 2647              		.size	HTS221_StartOneShotMeasurement, .-HTS221_StartOneShotMeasurement
 2648 109e 00BF     		.align	2
 2649              		.p2align 4,,15
 2650              		.global	HTS221_Set_IrqActiveLevel
 2651              		.thumb
ARM GAS  /tmp/ccJWCNBb.s 			page 48


 2652              		.thumb_func
 2653              		.type	HTS221_Set_IrqActiveLevel, %function
 2654              	HTS221_Set_IrqActiveLevel:
 2655              	.LFB31:
 2656              		.loc 1 821 0
 2657              		.cfi_startproc
 2658              		@ args = 0, pretend = 0, frame = 16
 2659              		@ frame_needed = 0, uses_anonymous_args = 0
 2660 10a0 00B5     		push	{lr}
 2661              		.cfi_def_cfa_offset 4
 2662              		.cfi_offset 14, -4
 2663 10a2 85B0     		sub	sp, sp, #20
 2664              		.cfi_def_cfa_offset 24
 2665 10a4 0190     		str	r0, [sp, #4]
 2666 10a6 0B46     		mov	r3, r1
 2667 10a8 8DF80330 		strb	r3, [sp, #3]
 2668              		.loc 1 824 0
 2669 10ac 9DF80330 		ldrb	r3, [sp, #3]	@ zero_extendqisi2
 2670 10b0 002B     		cmp	r3, #0
 2671 10b2 08D0     		beq	.L192
 2672              		.loc 1 824 0 is_stmt 0 discriminator 1
 2673 10b4 9DF80330 		ldrb	r3, [sp, #3]	@ zero_extendqisi2
 2674 10b8 802B     		cmp	r3, #128
 2675 10ba 04D0     		beq	.L192
 2676 10bc 1848     		ldr	r0, .L197
 2677 10be 4FF44E71 		mov	r1, #824
 2678 10c2 FFF7FEFF 		bl	HTS221_assert_failed
 2679              	.L192:
 2680              		.loc 1 826 0 is_stmt 1
 2681 10c6 0DF10F03 		add	r3, sp, #15
 2682 10ca 0198     		ldr	r0, [sp, #4]
 2683 10cc 2221     		movs	r1, #34
 2684 10ce 0122     		movs	r2, #1
 2685 10d0 FFF7FEFF 		bl	HTS221_ReadReg
 2686 10d4 0346     		mov	r3, r0
 2687 10d6 002B     		cmp	r3, #0
 2688 10d8 01D0     		beq	.L193
 2689              		.loc 1 827 0
 2690 10da 0123     		movs	r3, #1
 2691 10dc 1BE0     		b	.L196
 2692              	.L193:
 2693              		.loc 1 829 0
 2694 10de 9DF80F30 		ldrb	r3, [sp, #15]	@ zero_extendqisi2
 2695 10e2 03F07F03 		and	r3, r3, #127
 2696 10e6 DBB2     		uxtb	r3, r3
 2697 10e8 8DF80F30 		strb	r3, [sp, #15]
 2698              		.loc 1 830 0
 2699 10ec 9DF80F20 		ldrb	r2, [sp, #15]	@ zero_extendqisi2
 2700 10f0 9DF80330 		ldrb	r3, [sp, #3]
 2701 10f4 1343     		orrs	r3, r3, r2
 2702 10f6 DBB2     		uxtb	r3, r3
 2703 10f8 8DF80F30 		strb	r3, [sp, #15]
 2704              		.loc 1 832 0
 2705 10fc 0DF10F03 		add	r3, sp, #15
 2706 1100 0198     		ldr	r0, [sp, #4]
 2707 1102 2221     		movs	r1, #34
 2708 1104 0122     		movs	r2, #1
ARM GAS  /tmp/ccJWCNBb.s 			page 49


 2709 1106 FFF7FEFF 		bl	HTS221_WriteReg
 2710 110a 0346     		mov	r3, r0
 2711 110c 002B     		cmp	r3, #0
 2712 110e 01D0     		beq	.L195
 2713              		.loc 1 833 0
 2714 1110 0123     		movs	r3, #1
 2715 1112 00E0     		b	.L196
 2716              	.L195:
 2717              		.loc 1 835 0
 2718 1114 0023     		movs	r3, #0
 2719              	.L196:
 2720              		.loc 1 836 0
 2721 1116 1846     		mov	r0, r3
 2722 1118 05B0     		add	sp, sp, #20
 2723              		@ sp needed
 2724 111a 5DF804FB 		ldr	pc, [sp], #4
 2725              	.L198:
 2726 111e 00BF     		.align	2
 2727              	.L197:
 2728 1120 00000000 		.word	.LC0
 2729              		.cfi_endproc
 2730              	.LFE31:
 2731              		.size	HTS221_Set_IrqActiveLevel, .-HTS221_Set_IrqActiveLevel
 2732              		.align	2
 2733 1124 AFF30080 		.p2align 4,,15
 2733      AFF30080 
 2733      AFF30080 
 2734              		.global	HTS221_Get_IrqActiveLevel
 2735              		.thumb
 2736              		.thumb_func
 2737              		.type	HTS221_Get_IrqActiveLevel, %function
 2738              	HTS221_Get_IrqActiveLevel:
 2739              	.LFB32:
 2740              		.loc 1 845 0
 2741              		.cfi_startproc
 2742              		@ args = 0, pretend = 0, frame = 16
 2743              		@ frame_needed = 0, uses_anonymous_args = 0
 2744 1130 00B5     		push	{lr}
 2745              		.cfi_def_cfa_offset 4
 2746              		.cfi_offset 14, -4
 2747 1132 85B0     		sub	sp, sp, #20
 2748              		.cfi_def_cfa_offset 24
 2749 1134 0190     		str	r0, [sp, #4]
 2750 1136 0091     		str	r1, [sp]
 2751              		.loc 1 848 0
 2752 1138 0DF10F03 		add	r3, sp, #15
 2753 113c 0198     		ldr	r0, [sp, #4]
 2754 113e 2221     		movs	r1, #34
 2755 1140 0122     		movs	r2, #1
 2756 1142 FFF7FEFF 		bl	HTS221_ReadReg
 2757 1146 0346     		mov	r3, r0
 2758 1148 002B     		cmp	r3, #0
 2759 114a 01D0     		beq	.L200
 2760              		.loc 1 849 0
 2761 114c 0123     		movs	r3, #1
 2762 114e 07E0     		b	.L202
 2763              	.L200:
ARM GAS  /tmp/ccJWCNBb.s 			page 50


 2764              		.loc 1 851 0
 2765 1150 9DF80F30 		ldrb	r3, [sp, #15]	@ zero_extendqisi2
 2766 1154 23F07F03 		bic	r3, r3, #127
 2767 1158 DAB2     		uxtb	r2, r3
 2768 115a 009B     		ldr	r3, [sp]
 2769 115c 1A70     		strb	r2, [r3]
 2770              		.loc 1 853 0
 2771 115e 0023     		movs	r3, #0
 2772              	.L202:
 2773              		.loc 1 854 0
 2774 1160 1846     		mov	r0, r3
 2775 1162 05B0     		add	sp, sp, #20
 2776              		@ sp needed
 2777 1164 5DF804FB 		ldr	pc, [sp], #4
 2778              		.cfi_endproc
 2779              	.LFE32:
 2780              		.size	HTS221_Get_IrqActiveLevel, .-HTS221_Get_IrqActiveLevel
 2781              		.align	2
 2782 1168 AFF30080 		.p2align 4,,15
 2782      AFF30080 
 2783              		.global	HTS221_Set_IrqOutputType
 2784              		.thumb
 2785              		.thumb_func
 2786              		.type	HTS221_Set_IrqOutputType, %function
 2787              	HTS221_Set_IrqOutputType:
 2788              	.LFB33:
 2789              		.loc 1 864 0
 2790              		.cfi_startproc
 2791              		@ args = 0, pretend = 0, frame = 16
 2792              		@ frame_needed = 0, uses_anonymous_args = 0
 2793 1170 00B5     		push	{lr}
 2794              		.cfi_def_cfa_offset 4
 2795              		.cfi_offset 14, -4
 2796 1172 85B0     		sub	sp, sp, #20
 2797              		.cfi_def_cfa_offset 24
 2798 1174 0190     		str	r0, [sp, #4]
 2799 1176 0B46     		mov	r3, r1
 2800 1178 8DF80330 		strb	r3, [sp, #3]
 2801              		.loc 1 867 0
 2802 117c 9DF80330 		ldrb	r3, [sp, #3]	@ zero_extendqisi2
 2803 1180 002B     		cmp	r3, #0
 2804 1182 08D0     		beq	.L204
 2805              		.loc 1 867 0 is_stmt 0 discriminator 1
 2806 1184 9DF80330 		ldrb	r3, [sp, #3]	@ zero_extendqisi2
 2807 1188 402B     		cmp	r3, #64
 2808 118a 04D0     		beq	.L204
 2809 118c 1848     		ldr	r0, .L209
 2810 118e 40F26331 		movw	r1, #867
 2811 1192 FFF7FEFF 		bl	HTS221_assert_failed
 2812              	.L204:
 2813              		.loc 1 869 0 is_stmt 1
 2814 1196 0DF10F03 		add	r3, sp, #15
 2815 119a 0198     		ldr	r0, [sp, #4]
 2816 119c 2221     		movs	r1, #34
 2817 119e 0122     		movs	r2, #1
 2818 11a0 FFF7FEFF 		bl	HTS221_ReadReg
 2819 11a4 0346     		mov	r3, r0
ARM GAS  /tmp/ccJWCNBb.s 			page 51


 2820 11a6 002B     		cmp	r3, #0
 2821 11a8 01D0     		beq	.L205
 2822              		.loc 1 870 0
 2823 11aa 0123     		movs	r3, #1
 2824 11ac 1BE0     		b	.L208
 2825              	.L205:
 2826              		.loc 1 872 0
 2827 11ae 9DF80F30 		ldrb	r3, [sp, #15]	@ zero_extendqisi2
 2828 11b2 23F04003 		bic	r3, r3, #64
 2829 11b6 DBB2     		uxtb	r3, r3
 2830 11b8 8DF80F30 		strb	r3, [sp, #15]
 2831              		.loc 1 873 0
 2832 11bc 9DF80F20 		ldrb	r2, [sp, #15]	@ zero_extendqisi2
 2833 11c0 9DF80330 		ldrb	r3, [sp, #3]
 2834 11c4 1343     		orrs	r3, r3, r2
 2835 11c6 DBB2     		uxtb	r3, r3
 2836 11c8 8DF80F30 		strb	r3, [sp, #15]
 2837              		.loc 1 875 0
 2838 11cc 0DF10F03 		add	r3, sp, #15
 2839 11d0 0198     		ldr	r0, [sp, #4]
 2840 11d2 2221     		movs	r1, #34
 2841 11d4 0122     		movs	r2, #1
 2842 11d6 FFF7FEFF 		bl	HTS221_WriteReg
 2843 11da 0346     		mov	r3, r0
 2844 11dc 002B     		cmp	r3, #0
 2845 11de 01D0     		beq	.L207
 2846              		.loc 1 876 0
 2847 11e0 0123     		movs	r3, #1
 2848 11e2 00E0     		b	.L208
 2849              	.L207:
 2850              		.loc 1 878 0
 2851 11e4 0023     		movs	r3, #0
 2852              	.L208:
 2853              		.loc 1 879 0
 2854 11e6 1846     		mov	r0, r3
 2855 11e8 05B0     		add	sp, sp, #20
 2856              		@ sp needed
 2857 11ea 5DF804FB 		ldr	pc, [sp], #4
 2858              	.L210:
 2859 11ee 00BF     		.align	2
 2860              	.L209:
 2861 11f0 00000000 		.word	.LC0
 2862              		.cfi_endproc
 2863              	.LFE33:
 2864              		.size	HTS221_Set_IrqOutputType, .-HTS221_Set_IrqOutputType
 2865              		.align	2
 2866 11f4 AFF30080 		.p2align 4,,15
 2866      AFF30080 
 2866      AFF30080 
 2867              		.global	HTS221_Get_IrqOutputType
 2868              		.thumb
 2869              		.thumb_func
 2870              		.type	HTS221_Get_IrqOutputType, %function
 2871              	HTS221_Get_IrqOutputType:
 2872              	.LFB34:
 2873              		.loc 1 888 0
 2874              		.cfi_startproc
ARM GAS  /tmp/ccJWCNBb.s 			page 52


 2875              		@ args = 0, pretend = 0, frame = 16
 2876              		@ frame_needed = 0, uses_anonymous_args = 0
 2877 1200 00B5     		push	{lr}
 2878              		.cfi_def_cfa_offset 4
 2879              		.cfi_offset 14, -4
 2880 1202 85B0     		sub	sp, sp, #20
 2881              		.cfi_def_cfa_offset 24
 2882 1204 0190     		str	r0, [sp, #4]
 2883 1206 0091     		str	r1, [sp]
 2884              		.loc 1 891 0
 2885 1208 0DF10F03 		add	r3, sp, #15
 2886 120c 0198     		ldr	r0, [sp, #4]
 2887 120e 2221     		movs	r1, #34
 2888 1210 0122     		movs	r2, #1
 2889 1212 FFF7FEFF 		bl	HTS221_ReadReg
 2890 1216 0346     		mov	r3, r0
 2891 1218 002B     		cmp	r3, #0
 2892 121a 01D0     		beq	.L212
 2893              		.loc 1 892 0
 2894 121c 0123     		movs	r3, #1
 2895 121e 07E0     		b	.L214
 2896              	.L212:
 2897              		.loc 1 894 0
 2898 1220 9DF80F30 		ldrb	r3, [sp, #15]	@ zero_extendqisi2
 2899 1224 03F04003 		and	r3, r3, #64
 2900 1228 DAB2     		uxtb	r2, r3
 2901 122a 009B     		ldr	r3, [sp]
 2902 122c 1A70     		strb	r2, [r3]
 2903              		.loc 1 896 0
 2904 122e 0023     		movs	r3, #0
 2905              	.L214:
 2906              		.loc 1 897 0
 2907 1230 1846     		mov	r0, r3
 2908 1232 05B0     		add	sp, sp, #20
 2909              		@ sp needed
 2910 1234 5DF804FB 		ldr	pc, [sp], #4
 2911              		.cfi_endproc
 2912              	.LFE34:
 2913              		.size	HTS221_Get_IrqOutputType, .-HTS221_Get_IrqOutputType
 2914              		.align	2
 2915 1238 AFF30080 		.p2align 4,,15
 2915      AFF30080 
 2916              		.global	HTS221_Set_IrqEnable
 2917              		.thumb
 2918              		.thumb_func
 2919              		.type	HTS221_Set_IrqEnable, %function
 2920              	HTS221_Set_IrqEnable:
 2921              	.LFB35:
 2922              		.loc 1 907 0
 2923              		.cfi_startproc
 2924              		@ args = 0, pretend = 0, frame = 16
 2925              		@ frame_needed = 0, uses_anonymous_args = 0
 2926 1240 00B5     		push	{lr}
 2927              		.cfi_def_cfa_offset 4
 2928              		.cfi_offset 14, -4
 2929 1242 85B0     		sub	sp, sp, #20
 2930              		.cfi_def_cfa_offset 24
ARM GAS  /tmp/ccJWCNBb.s 			page 53


 2931 1244 0190     		str	r0, [sp, #4]
 2932 1246 0B46     		mov	r3, r1
 2933 1248 8DF80330 		strb	r3, [sp, #3]
 2934              		.loc 1 910 0
 2935 124c 9DF80330 		ldrb	r3, [sp, #3]	@ zero_extendqisi2
 2936 1250 012B     		cmp	r3, #1
 2937 1252 08D0     		beq	.L216
 2938              		.loc 1 910 0 is_stmt 0 discriminator 1
 2939 1254 9DF80330 		ldrb	r3, [sp, #3]	@ zero_extendqisi2
 2940 1258 002B     		cmp	r3, #0
 2941 125a 04D0     		beq	.L216
 2942 125c 1A48     		ldr	r0, .L221
 2943 125e 40F28E31 		movw	r1, #910
 2944 1262 FFF7FEFF 		bl	HTS221_assert_failed
 2945              	.L216:
 2946              		.loc 1 912 0 is_stmt 1
 2947 1266 0DF10F03 		add	r3, sp, #15
 2948 126a 0198     		ldr	r0, [sp, #4]
 2949 126c 2221     		movs	r1, #34
 2950 126e 0122     		movs	r2, #1
 2951 1270 FFF7FEFF 		bl	HTS221_ReadReg
 2952 1274 0346     		mov	r3, r0
 2953 1276 002B     		cmp	r3, #0
 2954 1278 01D0     		beq	.L217
 2955              		.loc 1 913 0
 2956 127a 0123     		movs	r3, #1
 2957 127c 1FE0     		b	.L220
 2958              	.L217:
 2959              		.loc 1 915 0
 2960 127e 9DF80F30 		ldrb	r3, [sp, #15]	@ zero_extendqisi2
 2961 1282 23F00403 		bic	r3, r3, #4
 2962 1286 DBB2     		uxtb	r3, r3
 2963 1288 8DF80F30 		strb	r3, [sp, #15]
 2964              		.loc 1 916 0
 2965 128c 9DF80330 		ldrb	r3, [sp, #3]	@ zero_extendqisi2
 2966 1290 9B00     		lsls	r3, r3, #2
 2967 1292 DAB2     		uxtb	r2, r3
 2968 1294 9DF80F30 		ldrb	r3, [sp, #15]	@ zero_extendqisi2
 2969 1298 DBB2     		uxtb	r3, r3
 2970 129a 1343     		orrs	r3, r3, r2
 2971 129c DBB2     		uxtb	r3, r3
 2972 129e DBB2     		uxtb	r3, r3
 2973 12a0 8DF80F30 		strb	r3, [sp, #15]
 2974              		.loc 1 918 0
 2975 12a4 0DF10F03 		add	r3, sp, #15
 2976 12a8 0198     		ldr	r0, [sp, #4]
 2977 12aa 2221     		movs	r1, #34
 2978 12ac 0122     		movs	r2, #1
 2979 12ae FFF7FEFF 		bl	HTS221_WriteReg
 2980 12b2 0346     		mov	r3, r0
 2981 12b4 002B     		cmp	r3, #0
 2982 12b6 01D0     		beq	.L219
 2983              		.loc 1 919 0
 2984 12b8 0123     		movs	r3, #1
 2985 12ba 00E0     		b	.L220
 2986              	.L219:
 2987              		.loc 1 921 0
ARM GAS  /tmp/ccJWCNBb.s 			page 54


 2988 12bc 0023     		movs	r3, #0
 2989              	.L220:
 2990              		.loc 1 922 0
 2991 12be 1846     		mov	r0, r3
 2992 12c0 05B0     		add	sp, sp, #20
 2993              		@ sp needed
 2994 12c2 5DF804FB 		ldr	pc, [sp], #4
 2995              	.L222:
 2996 12c6 00BF     		.align	2
 2997              	.L221:
 2998 12c8 00000000 		.word	.LC0
 2999              		.cfi_endproc
 3000              	.LFE35:
 3001              		.size	HTS221_Set_IrqEnable, .-HTS221_Set_IrqEnable
 3002              		.align	2
 3003 12cc AFF30080 		.p2align 4,,15
 3004              		.global	HTS221_Get_IrqEnable
 3005              		.thumb
 3006              		.thumb_func
 3007              		.type	HTS221_Get_IrqEnable, %function
 3008              	HTS221_Get_IrqEnable:
 3009              	.LFB36:
 3010              		.loc 1 931 0
 3011              		.cfi_startproc
 3012              		@ args = 0, pretend = 0, frame = 16
 3013              		@ frame_needed = 0, uses_anonymous_args = 0
 3014 12d0 00B5     		push	{lr}
 3015              		.cfi_def_cfa_offset 4
 3016              		.cfi_offset 14, -4
 3017 12d2 85B0     		sub	sp, sp, #20
 3018              		.cfi_def_cfa_offset 24
 3019 12d4 0190     		str	r0, [sp, #4]
 3020 12d6 0091     		str	r1, [sp]
 3021              		.loc 1 934 0
 3022 12d8 0DF10F03 		add	r3, sp, #15
 3023 12dc 0198     		ldr	r0, [sp, #4]
 3024 12de 2221     		movs	r1, #34
 3025 12e0 0122     		movs	r2, #1
 3026 12e2 FFF7FEFF 		bl	HTS221_ReadReg
 3027 12e6 0346     		mov	r3, r0
 3028 12e8 002B     		cmp	r3, #0
 3029 12ea 01D0     		beq	.L224
 3030              		.loc 1 935 0
 3031 12ec 0123     		movs	r3, #1
 3032 12ee 08E0     		b	.L226
 3033              	.L224:
 3034              		.loc 1 937 0
 3035 12f0 9DF80F30 		ldrb	r3, [sp, #15]	@ zero_extendqisi2
 3036 12f4 03F00403 		and	r3, r3, #4
 3037 12f8 9B10     		asrs	r3, r3, #2
 3038 12fa DAB2     		uxtb	r2, r3
 3039 12fc 009B     		ldr	r3, [sp]
 3040 12fe 1A70     		strb	r2, [r3]
 3041              		.loc 1 939 0
 3042 1300 0023     		movs	r3, #0
 3043              	.L226:
 3044              		.loc 1 940 0
ARM GAS  /tmp/ccJWCNBb.s 			page 55


 3045 1302 1846     		mov	r0, r3
 3046 1304 05B0     		add	sp, sp, #20
 3047              		@ sp needed
 3048 1306 5DF804FB 		ldr	pc, [sp], #4
 3049              		.cfi_endproc
 3050              	.LFE36:
 3051              		.size	HTS221_Get_IrqEnable, .-HTS221_Get_IrqEnable
 3052              		.section	.rodata
 3053 003d 000000   		.align	2
 3054              	.LC1:
 3055 0040 57726F6E 		.ascii	"Wrong parameters value: file %s on line %d\015\012\000"
 3055      67207061 
 3055      72616D65 
 3055      74657273 
 3055      2076616C 
 3056 006d 000000   		.text
 3057 130a 00BF     		.align	2
 3058 130c AFF30080 		.p2align 4,,15
 3059              		.global	HTS221_assert_failed
 3060              		.thumb
 3061              		.thumb_func
 3062              		.type	HTS221_assert_failed, %function
 3063              	HTS221_assert_failed:
 3064              	.LFB37:
 3065              		.loc 1 952 0
 3066              		.cfi_startproc
 3067              		@ args = 0, pretend = 0, frame = 8
 3068              		@ frame_needed = 0, uses_anonymous_args = 0
 3069 1310 00B5     		push	{lr}
 3070              		.cfi_def_cfa_offset 4
 3071              		.cfi_offset 14, -4
 3072 1312 83B0     		sub	sp, sp, #12
 3073              		.cfi_def_cfa_offset 16
 3074 1314 0190     		str	r0, [sp, #4]
 3075 1316 0091     		str	r1, [sp]
 3076              		.loc 1 954 0
 3077 1318 009B     		ldr	r3, [sp]
 3078 131a 0348     		ldr	r0, .L229
 3079 131c 0199     		ldr	r1, [sp, #4]
 3080 131e 1A46     		mov	r2, r3
 3081 1320 FFF7FEFF 		bl	printf
 3082              	.L228:
 3083              		.loc 1 959 0 discriminator 1
 3084 1324 FEE7     		b	.L228
 3085              	.L230:
 3086 1326 00BF     		.align	2
 3087              	.L229:
 3088 1328 40000000 		.word	.LC1
 3089              		.cfi_endproc
 3090              	.LFE37:
 3091              		.size	HTS221_assert_failed, .-HTS221_assert_failed
 3092              	.Letext0:
 3093              		.file 2 "/nfs/nfs5/home/research/hardware/arm2/gcc-arm-embedded/gcc-arm-none-eabi-4_8-2014q2/arm-n
 3094              		.file 3 "/nfs/nfs5/home/research/hardware/arm2/gcc-arm-embedded/gcc-arm-none-eabi-4_8-2014q2/arm-n
 3095              		.file 4 "../../../../../Drivers/BSP/Components/hts221/HTS221_Driver.h"