ARM GAS  /tmp/ccy45MUB.s 			page 1


   1              		.syntax unified
   2              		.cpu cortex-m4
   3              		.fpu softvfp
   4              		.eabi_attribute 20, 1
   5              		.eabi_attribute 21, 1
   6              		.eabi_attribute 23, 3
   7              		.eabi_attribute 24, 1
   8              		.eabi_attribute 25, 1
   9              		.eabi_attribute 26, 1
  10              		.eabi_attribute 30, 6
  11              		.eabi_attribute 34, 1
  12              		.eabi_attribute 18, 4
  13              		.thumb
  14              		.file	"HWAdvanceFeatures.c"
  15              		.text
  16              	.Ltext0:
  17              		.cfi_sections	.debug_frame
  18              		.global	HWAdvanceFeaturesStatus
  19              		.bss
  20              		.align	2
  21              		.type	HWAdvanceFeaturesStatus, %object
  22              		.size	HWAdvanceFeaturesStatus, 4
  23              	HWAdvanceFeaturesStatus:
  24 0000 00000000 		.space	4
  25              		.align	2
  26              	DefaultAccODR:
  27 0004 00000000 		.space	4
  28              		.text
  29              		.align	2
  30              		.p2align 4,,15
  31              		.global	InitHWFeatures
  32              		.thumb
  33              		.thumb_func
  34              		.type	InitHWFeatures, %function
  35              	InitHWFeatures:
  36              	.LFB263:
  37              		.file 1 "../../../../../Projects/Multi/Applications/BlueMicrosystem2/Src/HWAdvanceFeatures.c"
  38              		.loc 1 59 0
  39              		.cfi_startproc
  40              		@ args = 0, pretend = 0, frame = 0
  41              		@ frame_needed = 0, uses_anonymous_args = 0
  42 0000 08B5     		push	{r3, lr}
  43              		.cfi_def_cfa_offset 8
  44              		.cfi_offset 3, -8
  45              		.cfi_offset 14, -4
  46              		.loc 1 61 0
  47 0002 034B     		ldr	r3, .L2
  48 0004 DB69     		ldr	r3, [r3, #28]
  49 0006 1846     		mov	r0, r3
  50 0008 0249     		ldr	r1, .L2+4
  51 000a FFF7FEFF 		bl	BSP_ACCELERO_Get_ODR
  52              		.loc 1 62 0
  53 000e 08BD     		pop	{r3, pc}
  54              	.L3:
  55              		.align	2
  56              	.L2:
  57 0010 00000000 		.word	TargetBoardFeatures
ARM GAS  /tmp/ccy45MUB.s 			page 2


  58 0014 04000000 		.word	DefaultAccODR
  59              		.cfi_endproc
  60              	.LFE263:
  61              		.size	InitHWFeatures, .-InitHWFeatures
  62              		.align	2
  63 0018 AFF30080 		.p2align 4,,15
  63      AFF30080 
  64              		.global	DisableHWFeatures
  65              		.thumb
  66              		.thumb_func
  67              		.type	DisableHWFeatures, %function
  68              	DisableHWFeatures:
  69              	.LFB264:
  70              		.loc 1 70 0
  71              		.cfi_startproc
  72              		@ args = 0, pretend = 0, frame = 0
  73              		@ frame_needed = 0, uses_anonymous_args = 0
  74 0020 08B5     		push	{r3, lr}
  75              		.cfi_def_cfa_offset 8
  76              		.cfi_offset 3, -8
  77              		.cfi_offset 14, -4
  78              		.loc 1 71 0
  79 0022 1C4B     		ldr	r3, .L12
  80 0024 1B68     		ldr	r3, [r3]
  81 0026 03F00103 		and	r3, r3, #1
  82 002a 002B     		cmp	r3, #0
  83 002c 01D0     		beq	.L5
  84              		.loc 1 72 0
  85 002e FFF7FEFF 		bl	DisableHWPedometer
  86              	.L5:
  87              		.loc 1 75 0
  88 0032 184B     		ldr	r3, .L12
  89 0034 1B68     		ldr	r3, [r3]
  90 0036 03F00203 		and	r3, r3, #2
  91 003a 002B     		cmp	r3, #0
  92 003c 01D0     		beq	.L6
  93              		.loc 1 76 0
  94 003e FFF7FEFF 		bl	DisableHWFreeFall
  95              	.L6:
  96              		.loc 1 79 0
  97 0042 144B     		ldr	r3, .L12
  98 0044 1B68     		ldr	r3, [r3]
  99 0046 03F00403 		and	r3, r3, #4
 100 004a 002B     		cmp	r3, #0
 101 004c 01D0     		beq	.L7
 102              		.loc 1 80 0
 103 004e FFF7FEFF 		bl	DisableHWDoubleTap
 104              	.L7:
 105              		.loc 1 83 0
 106 0052 104B     		ldr	r3, .L12
 107 0054 1B68     		ldr	r3, [r3]
 108 0056 03F00803 		and	r3, r3, #8
 109 005a 002B     		cmp	r3, #0
 110 005c 01D0     		beq	.L8
 111              		.loc 1 84 0
 112 005e FFF7FEFF 		bl	DisableHWSingleTap
 113              	.L8:
ARM GAS  /tmp/ccy45MUB.s 			page 3


 114              		.loc 1 87 0
 115 0062 0C4B     		ldr	r3, .L12
 116 0064 1B68     		ldr	r3, [r3]
 117 0066 03F01003 		and	r3, r3, #16
 118 006a 002B     		cmp	r3, #0
 119 006c 01D0     		beq	.L9
 120              		.loc 1 88 0
 121 006e FFF7FEFF 		bl	DisableHWWakeUp
 122              	.L9:
 123              		.loc 1 91 0
 124 0072 084B     		ldr	r3, .L12
 125 0074 1B68     		ldr	r3, [r3]
 126 0076 03F02003 		and	r3, r3, #32
 127 007a 002B     		cmp	r3, #0
 128 007c 01D0     		beq	.L10
 129              		.loc 1 92 0
 130 007e FFF7FEFF 		bl	DisableHWTilt
 131              	.L10:
 132              		.loc 1 95 0
 133 0082 044B     		ldr	r3, .L12
 134 0084 1B68     		ldr	r3, [r3]
 135 0086 03F04003 		and	r3, r3, #64
 136 008a 002B     		cmp	r3, #0
 137 008c 01D0     		beq	.L4
 138              		.loc 1 96 0
 139 008e FFF7FEFF 		bl	DisableHWOrientation6D
 140              	.L4:
 141              		.loc 1 98 0
 142 0092 08BD     		pop	{r3, pc}
 143              	.L13:
 144              		.align	2
 145              	.L12:
 146 0094 00000000 		.word	HWAdvanceFeaturesStatus
 147              		.cfi_endproc
 148              	.LFE264:
 149              		.size	DisableHWFeatures, .-DisableHWFeatures
 150              		.align	2
 151 0098 AFF30080 		.p2align 4,,15
 151      AFF30080 
 152              		.global	EnableHWOrientation6D
 153              		.thumb
 154              		.thumb_func
 155              		.type	EnableHWOrientation6D, %function
 156              	EnableHWOrientation6D:
 157              	.LFB265:
 158              		.loc 1 108 0
 159              		.cfi_startproc
 160              		@ args = 0, pretend = 0, frame = 0
 161              		@ frame_needed = 0, uses_anonymous_args = 0
 162 00a0 08B5     		push	{r3, lr}
 163              		.cfi_def_cfa_offset 8
 164              		.cfi_offset 3, -8
 165              		.cfi_offset 14, -4
 166              		.loc 1 109 0
 167 00a2 0A4B     		ldr	r3, .L16
 168 00a4 9B69     		ldr	r3, [r3, #24]
 169 00a6 002B     		cmp	r3, #0
ARM GAS  /tmp/ccy45MUB.s 			page 4


 170 00a8 0FD0     		beq	.L14
 171              		.loc 1 111 0
 172 00aa FFF7FEFF 		bl	DisableHWFeatures
 173              		.loc 1 114 0
 174 00ae 074B     		ldr	r3, .L16
 175 00b0 DB69     		ldr	r3, [r3, #28]
 176 00b2 1846     		mov	r0, r3
 177 00b4 FFF7FEFF 		bl	BSP_ACCELERO_Enable_6D_Orientation_Ext
 178 00b8 0346     		mov	r3, r0
 179 00ba 012B     		cmp	r3, #1
 180 00bc 05D0     		beq	.L14
 181              		.loc 1 118 0
 182 00be 044B     		ldr	r3, .L16+4
 183 00c0 1B68     		ldr	r3, [r3]
 184 00c2 43F04002 		orr	r2, r3, #64
 185 00c6 024B     		ldr	r3, .L16+4
 186 00c8 1A60     		str	r2, [r3]
 187              	.L14:
 188              		.loc 1 121 0
 189 00ca 08BD     		pop	{r3, pc}
 190              	.L17:
 191              		.align	2
 192              	.L16:
 193 00cc 00000000 		.word	TargetBoardFeatures
 194 00d0 00000000 		.word	HWAdvanceFeaturesStatus
 195              		.cfi_endproc
 196              	.LFE265:
 197              		.size	EnableHWOrientation6D, .-EnableHWOrientation6D
 198              		.align	2
 199 00d4 AFF30080 		.p2align 4,,15
 199      AFF30080 
 199      AFF30080 
 200              		.global	DisableHWOrientation6D
 201              		.thumb
 202              		.thumb_func
 203              		.type	DisableHWOrientation6D, %function
 204              	DisableHWOrientation6D:
 205              	.LFB266:
 206              		.loc 1 129 0
 207              		.cfi_startproc
 208              		@ args = 0, pretend = 0, frame = 0
 209              		@ frame_needed = 0, uses_anonymous_args = 0
 210 00e0 08B5     		push	{r3, lr}
 211              		.cfi_def_cfa_offset 8
 212              		.cfi_offset 3, -8
 213              		.cfi_offset 14, -4
 214              		.loc 1 130 0
 215 00e2 0D4B     		ldr	r3, .L21
 216 00e4 9B69     		ldr	r3, [r3, #24]
 217 00e6 002B     		cmp	r3, #0
 218 00e8 15D0     		beq	.L18
 219              		.loc 1 132 0
 220 00ea 0B4B     		ldr	r3, .L21
 221 00ec DB69     		ldr	r3, [r3, #28]
 222 00ee 1846     		mov	r0, r3
 223 00f0 FFF7FEFF 		bl	BSP_ACCELERO_Disable_6D_Orientation_Ext
 224 00f4 0346     		mov	r3, r0
ARM GAS  /tmp/ccy45MUB.s 			page 5


 225 00f6 012B     		cmp	r3, #1
 226 00f8 05D0     		beq	.L20
 227              		.loc 1 136 0
 228 00fa 084B     		ldr	r3, .L21+4
 229 00fc 1B68     		ldr	r3, [r3]
 230 00fe 23F04002 		bic	r2, r3, #64
 231 0102 064B     		ldr	r3, .L21+4
 232 0104 1A60     		str	r2, [r3]
 233              	.L20:
 234              		.loc 1 140 0
 235 0106 044B     		ldr	r3, .L21
 236 0108 DA69     		ldr	r2, [r3, #28]
 237 010a 054B     		ldr	r3, .L21+8
 238 010c 1B68     		ldr	r3, [r3]	@ float
 239 010e 1046     		mov	r0, r2
 240 0110 1946     		mov	r1, r3
 241 0112 FFF7FEFF 		bl	BSP_ACCELERO_Set_ODR_Value
 242              	.L18:
 243              		.loc 1 142 0
 244 0116 08BD     		pop	{r3, pc}
 245              	.L22:
 246              		.align	2
 247              	.L21:
 248 0118 00000000 		.word	TargetBoardFeatures
 249 011c 00000000 		.word	HWAdvanceFeaturesStatus
 250 0120 04000000 		.word	DefaultAccODR
 251              		.cfi_endproc
 252              	.LFE266:
 253              		.size	DisableHWOrientation6D, .-DisableHWOrientation6D
 254              		.align	2
 255 0124 AFF30080 		.p2align 4,,15
 255      AFF30080 
 255      AFF30080 
 256              		.global	GetHWOrientation6D
 257              		.thumb
 258              		.thumb_func
 259              		.type	GetHWOrientation6D, %function
 260              	GetHWOrientation6D:
 261              	.LFB267:
 262              		.loc 1 150 0
 263              		.cfi_startproc
 264              		@ args = 0, pretend = 0, frame = 8
 265              		@ frame_needed = 0, uses_anonymous_args = 0
 266 0130 00B5     		push	{lr}
 267              		.cfi_def_cfa_offset 4
 268              		.cfi_offset 14, -4
 269 0132 83B0     		sub	sp, sp, #12
 270              		.cfi_def_cfa_offset 16
 271              		.loc 1 151 0
 272 0134 0023     		movs	r3, #0
 273 0136 8DF80730 		strb	r3, [sp, #7]
 274              		.loc 1 153 0
 275 013a 794B     		ldr	r3, .L32
 276 013c 9B69     		ldr	r3, [r3, #24]
 277 013e 002B     		cmp	r3, #0
 278 0140 00F0E880 		beq	.L24
 279              	.LBB2:
ARM GAS  /tmp/ccy45MUB.s 			page 6


 280              		.loc 1 154 0
 281 0144 0023     		movs	r3, #0
 282 0146 8DF80630 		strb	r3, [sp, #6]
 283              		.loc 1 155 0
 284 014a 0023     		movs	r3, #0
 285 014c 8DF80530 		strb	r3, [sp, #5]
 286              		.loc 1 156 0
 287 0150 0023     		movs	r3, #0
 288 0152 8DF80430 		strb	r3, [sp, #4]
 289              		.loc 1 157 0
 290 0156 0023     		movs	r3, #0
 291 0158 8DF80330 		strb	r3, [sp, #3]
 292              		.loc 1 158 0
 293 015c 0023     		movs	r3, #0
 294 015e 8DF80230 		strb	r3, [sp, #2]
 295              		.loc 1 159 0
 296 0162 0023     		movs	r3, #0
 297 0164 8DF80130 		strb	r3, [sp, #1]
 298              		.loc 1 161 0
 299 0168 6D4B     		ldr	r3, .L32
 300 016a DA69     		ldr	r2, [r3, #28]
 301 016c 0DF10603 		add	r3, sp, #6
 302 0170 1046     		mov	r0, r2
 303 0172 1946     		mov	r1, r3
 304 0174 FFF7FEFF 		bl	BSP_ACCELERO_Get_6D_Orientation_XL_Ext
 305              		.loc 1 165 0
 306 0178 694B     		ldr	r3, .L32
 307 017a DA69     		ldr	r2, [r3, #28]
 308 017c 0DF10503 		add	r3, sp, #5
 309 0180 1046     		mov	r0, r2
 310 0182 1946     		mov	r1, r3
 311 0184 FFF7FEFF 		bl	BSP_ACCELERO_Get_6D_Orientation_XH_Ext
 312              		.loc 1 169 0
 313 0188 654B     		ldr	r3, .L32
 314 018a DA69     		ldr	r2, [r3, #28]
 315 018c 01AB     		add	r3, sp, #4
 316 018e 1046     		mov	r0, r2
 317 0190 1946     		mov	r1, r3
 318 0192 FFF7FEFF 		bl	BSP_ACCELERO_Get_6D_Orientation_YL_Ext
 319              		.loc 1 173 0
 320 0196 624B     		ldr	r3, .L32
 321 0198 DA69     		ldr	r2, [r3, #28]
 322 019a 0DF10303 		add	r3, sp, #3
 323 019e 1046     		mov	r0, r2
 324 01a0 1946     		mov	r1, r3
 325 01a2 FFF7FEFF 		bl	BSP_ACCELERO_Get_6D_Orientation_YH_Ext
 326              		.loc 1 177 0
 327 01a6 5E4B     		ldr	r3, .L32
 328 01a8 DA69     		ldr	r2, [r3, #28]
 329 01aa 0DF10203 		add	r3, sp, #2
 330 01ae 1046     		mov	r0, r2
 331 01b0 1946     		mov	r1, r3
 332 01b2 FFF7FEFF 		bl	BSP_ACCELERO_Get_6D_Orientation_ZL_Ext
 333              		.loc 1 181 0
 334 01b6 5A4B     		ldr	r3, .L32
 335 01b8 DA69     		ldr	r2, [r3, #28]
 336 01ba 0DF10103 		add	r3, sp, #1
ARM GAS  /tmp/ccy45MUB.s 			page 7


 337 01be 1046     		mov	r0, r2
 338 01c0 1946     		mov	r1, r3
 339 01c2 FFF7FEFF 		bl	BSP_ACCELERO_Get_6D_Orientation_ZH_Ext
 340              		.loc 1 185 0
 341 01c6 9DF80630 		ldrb	r3, [sp, #6]	@ zero_extendqisi2
 342 01ca 002B     		cmp	r3, #0
 343 01cc 17D1     		bne	.L25
 344              		.loc 1 185 0 is_stmt 0 discriminator 1
 345 01ce 9DF80430 		ldrb	r3, [sp, #4]	@ zero_extendqisi2
 346 01d2 002B     		cmp	r3, #0
 347 01d4 13D1     		bne	.L25
 348 01d6 9DF80230 		ldrb	r3, [sp, #2]	@ zero_extendqisi2
 349 01da 002B     		cmp	r3, #0
 350 01dc 0FD1     		bne	.L25
 351 01de 9DF80530 		ldrb	r3, [sp, #5]	@ zero_extendqisi2
 352 01e2 002B     		cmp	r3, #0
 353 01e4 0BD1     		bne	.L25
 354 01e6 9DF80330 		ldrb	r3, [sp, #3]	@ zero_extendqisi2
 355 01ea 012B     		cmp	r3, #1
 356 01ec 07D1     		bne	.L25
 357 01ee 9DF80130 		ldrb	r3, [sp, #1]	@ zero_extendqisi2
 358 01f2 002B     		cmp	r3, #0
 359 01f4 03D1     		bne	.L25
 360              		.loc 1 186 0 is_stmt 1
 361 01f6 0423     		movs	r3, #4
 362 01f8 8DF80730 		strb	r3, [sp, #7]
 363 01fc 8AE0     		b	.L24
 364              	.L25:
 365              		.loc 1 187 0
 366 01fe 9DF80630 		ldrb	r3, [sp, #6]	@ zero_extendqisi2
 367 0202 012B     		cmp	r3, #1
 368 0204 17D1     		bne	.L27
 369              		.loc 1 187 0 is_stmt 0 discriminator 1
 370 0206 9DF80430 		ldrb	r3, [sp, #4]	@ zero_extendqisi2
 371 020a 002B     		cmp	r3, #0
 372 020c 13D1     		bne	.L27
 373 020e 9DF80230 		ldrb	r3, [sp, #2]	@ zero_extendqisi2
 374 0212 002B     		cmp	r3, #0
 375 0214 0FD1     		bne	.L27
 376 0216 9DF80530 		ldrb	r3, [sp, #5]	@ zero_extendqisi2
 377 021a 002B     		cmp	r3, #0
 378 021c 0BD1     		bne	.L27
 379 021e 9DF80330 		ldrb	r3, [sp, #3]	@ zero_extendqisi2
 380 0222 002B     		cmp	r3, #0
 381 0224 07D1     		bne	.L27
 382 0226 9DF80130 		ldrb	r3, [sp, #1]	@ zero_extendqisi2
 383 022a 002B     		cmp	r3, #0
 384 022c 03D1     		bne	.L27
 385              		.loc 1 188 0 is_stmt 1
 386 022e 0123     		movs	r3, #1
 387 0230 8DF80730 		strb	r3, [sp, #7]
 388 0234 6EE0     		b	.L24
 389              	.L27:
 390              		.loc 1 189 0
 391 0236 9DF80630 		ldrb	r3, [sp, #6]	@ zero_extendqisi2
 392 023a 002B     		cmp	r3, #0
 393 023c 17D1     		bne	.L28
ARM GAS  /tmp/ccy45MUB.s 			page 8


 394              		.loc 1 189 0 is_stmt 0 discriminator 1
 395 023e 9DF80430 		ldrb	r3, [sp, #4]	@ zero_extendqisi2
 396 0242 002B     		cmp	r3, #0
 397 0244 13D1     		bne	.L28
 398 0246 9DF80230 		ldrb	r3, [sp, #2]	@ zero_extendqisi2
 399 024a 002B     		cmp	r3, #0
 400 024c 0FD1     		bne	.L28
 401 024e 9DF80530 		ldrb	r3, [sp, #5]	@ zero_extendqisi2
 402 0252 012B     		cmp	r3, #1
 403 0254 0BD1     		bne	.L28
 404 0256 9DF80330 		ldrb	r3, [sp, #3]	@ zero_extendqisi2
 405 025a 002B     		cmp	r3, #0
 406 025c 07D1     		bne	.L28
 407 025e 9DF80130 		ldrb	r3, [sp, #1]	@ zero_extendqisi2
 408 0262 002B     		cmp	r3, #0
 409 0264 03D1     		bne	.L28
 410              		.loc 1 190 0 is_stmt 1
 411 0266 0323     		movs	r3, #3
 412 0268 8DF80730 		strb	r3, [sp, #7]
 413 026c 52E0     		b	.L24
 414              	.L28:
 415              		.loc 1 191 0
 416 026e 9DF80630 		ldrb	r3, [sp, #6]	@ zero_extendqisi2
 417 0272 002B     		cmp	r3, #0
 418 0274 17D1     		bne	.L29
 419              		.loc 1 191 0 is_stmt 0 discriminator 1
 420 0276 9DF80430 		ldrb	r3, [sp, #4]	@ zero_extendqisi2
 421 027a 012B     		cmp	r3, #1
 422 027c 13D1     		bne	.L29
 423 027e 9DF80230 		ldrb	r3, [sp, #2]	@ zero_extendqisi2
 424 0282 002B     		cmp	r3, #0
 425 0284 0FD1     		bne	.L29
 426 0286 9DF80530 		ldrb	r3, [sp, #5]	@ zero_extendqisi2
 427 028a 002B     		cmp	r3, #0
 428 028c 0BD1     		bne	.L29
 429 028e 9DF80330 		ldrb	r3, [sp, #3]	@ zero_extendqisi2
 430 0292 002B     		cmp	r3, #0
 431 0294 07D1     		bne	.L29
 432 0296 9DF80130 		ldrb	r3, [sp, #1]	@ zero_extendqisi2
 433 029a 002B     		cmp	r3, #0
 434 029c 03D1     		bne	.L29
 435              		.loc 1 192 0 is_stmt 1
 436 029e 0223     		movs	r3, #2
 437 02a0 8DF80730 		strb	r3, [sp, #7]
 438 02a4 36E0     		b	.L24
 439              	.L29:
 440              		.loc 1 193 0
 441 02a6 9DF80630 		ldrb	r3, [sp, #6]	@ zero_extendqisi2
 442 02aa 002B     		cmp	r3, #0
 443 02ac 17D1     		bne	.L30
 444              		.loc 1 193 0 is_stmt 0 discriminator 1
 445 02ae 9DF80430 		ldrb	r3, [sp, #4]	@ zero_extendqisi2
 446 02b2 002B     		cmp	r3, #0
 447 02b4 13D1     		bne	.L30
 448 02b6 9DF80230 		ldrb	r3, [sp, #2]	@ zero_extendqisi2
 449 02ba 002B     		cmp	r3, #0
 450 02bc 0FD1     		bne	.L30
ARM GAS  /tmp/ccy45MUB.s 			page 9


 451 02be 9DF80530 		ldrb	r3, [sp, #5]	@ zero_extendqisi2
 452 02c2 002B     		cmp	r3, #0
 453 02c4 0BD1     		bne	.L30
 454 02c6 9DF80330 		ldrb	r3, [sp, #3]	@ zero_extendqisi2
 455 02ca 002B     		cmp	r3, #0
 456 02cc 07D1     		bne	.L30
 457 02ce 9DF80130 		ldrb	r3, [sp, #1]	@ zero_extendqisi2
 458 02d2 012B     		cmp	r3, #1
 459 02d4 03D1     		bne	.L30
 460              		.loc 1 194 0 is_stmt 1
 461 02d6 0523     		movs	r3, #5
 462 02d8 8DF80730 		strb	r3, [sp, #7]
 463 02dc 1AE0     		b	.L24
 464              	.L30:
 465              		.loc 1 195 0
 466 02de 9DF80630 		ldrb	r3, [sp, #6]	@ zero_extendqisi2
 467 02e2 002B     		cmp	r3, #0
 468 02e4 16D1     		bne	.L24
 469              		.loc 1 195 0 is_stmt 0 discriminator 1
 470 02e6 9DF80430 		ldrb	r3, [sp, #4]	@ zero_extendqisi2
 471 02ea 002B     		cmp	r3, #0
 472 02ec 12D1     		bne	.L24
 473 02ee 9DF80230 		ldrb	r3, [sp, #2]	@ zero_extendqisi2
 474 02f2 012B     		cmp	r3, #1
 475 02f4 0ED1     		bne	.L24
 476 02f6 9DF80530 		ldrb	r3, [sp, #5]	@ zero_extendqisi2
 477 02fa 002B     		cmp	r3, #0
 478 02fc 0AD1     		bne	.L24
 479 02fe 9DF80330 		ldrb	r3, [sp, #3]	@ zero_extendqisi2
 480 0302 002B     		cmp	r3, #0
 481 0304 06D1     		bne	.L24
 482 0306 9DF80130 		ldrb	r3, [sp, #1]	@ zero_extendqisi2
 483 030a 002B     		cmp	r3, #0
 484 030c 02D1     		bne	.L24
 485              		.loc 1 196 0 is_stmt 1
 486 030e 0623     		movs	r3, #6
 487 0310 8DF80730 		strb	r3, [sp, #7]
 488              	.L24:
 489              	.LBE2:
 490              		.loc 1 201 0
 491 0314 9DF80730 		ldrb	r3, [sp, #7]	@ zero_extendqisi2
 492              		.loc 1 202 0
 493 0318 1846     		mov	r0, r3
 494 031a 03B0     		add	sp, sp, #12
 495              		@ sp needed
 496 031c 5DF804FB 		ldr	pc, [sp], #4
 497              	.L33:
 498              		.align	2
 499              	.L32:
 500 0320 00000000 		.word	TargetBoardFeatures
 501              		.cfi_endproc
 502              	.LFE267:
 503              		.size	GetHWOrientation6D, .-GetHWOrientation6D
 504              		.align	2
 505 0324 AFF30080 		.p2align 4,,15
 505      AFF30080 
 505      AFF30080 
ARM GAS  /tmp/ccy45MUB.s 			page 10


 506              		.global	EnableHWTilt
 507              		.thumb
 508              		.thumb_func
 509              		.type	EnableHWTilt, %function
 510              	EnableHWTilt:
 511              	.LFB268:
 512              		.loc 1 209 0
 513              		.cfi_startproc
 514              		@ args = 0, pretend = 0, frame = 0
 515              		@ frame_needed = 0, uses_anonymous_args = 0
 516 0330 08B5     		push	{r3, lr}
 517              		.cfi_def_cfa_offset 8
 518              		.cfi_offset 3, -8
 519              		.cfi_offset 14, -4
 520              		.loc 1 210 0
 521 0332 0A4B     		ldr	r3, .L36
 522 0334 9B69     		ldr	r3, [r3, #24]
 523 0336 002B     		cmp	r3, #0
 524 0338 0FD0     		beq	.L34
 525              		.loc 1 212 0
 526 033a FFF7FEFF 		bl	DisableHWFeatures
 527              		.loc 1 215 0
 528 033e 074B     		ldr	r3, .L36
 529 0340 DB69     		ldr	r3, [r3, #28]
 530 0342 1846     		mov	r0, r3
 531 0344 FFF7FEFF 		bl	BSP_ACCELERO_Enable_Tilt_Detection_Ext
 532 0348 0346     		mov	r3, r0
 533 034a 012B     		cmp	r3, #1
 534 034c 05D0     		beq	.L34
 535              		.loc 1 219 0
 536 034e 044B     		ldr	r3, .L36+4
 537 0350 1B68     		ldr	r3, [r3]
 538 0352 43F02002 		orr	r2, r3, #32
 539 0356 024B     		ldr	r3, .L36+4
 540 0358 1A60     		str	r2, [r3]
 541              	.L34:
 542              		.loc 1 222 0
 543 035a 08BD     		pop	{r3, pc}
 544              	.L37:
 545              		.align	2
 546              	.L36:
 547 035c 00000000 		.word	TargetBoardFeatures
 548 0360 00000000 		.word	HWAdvanceFeaturesStatus
 549              		.cfi_endproc
 550              	.LFE268:
 551              		.size	EnableHWTilt, .-EnableHWTilt
 552              		.align	2
 553 0364 AFF30080 		.p2align 4,,15
 553      AFF30080 
 553      AFF30080 
 554              		.global	DisableHWTilt
 555              		.thumb
 556              		.thumb_func
 557              		.type	DisableHWTilt, %function
 558              	DisableHWTilt:
 559              	.LFB269:
 560              		.loc 1 230 0
ARM GAS  /tmp/ccy45MUB.s 			page 11


 561              		.cfi_startproc
 562              		@ args = 0, pretend = 0, frame = 0
 563              		@ frame_needed = 0, uses_anonymous_args = 0
 564 0370 08B5     		push	{r3, lr}
 565              		.cfi_def_cfa_offset 8
 566              		.cfi_offset 3, -8
 567              		.cfi_offset 14, -4
 568              		.loc 1 231 0
 569 0372 0D4B     		ldr	r3, .L41
 570 0374 9B69     		ldr	r3, [r3, #24]
 571 0376 002B     		cmp	r3, #0
 572 0378 15D0     		beq	.L38
 573              		.loc 1 233 0
 574 037a 0B4B     		ldr	r3, .L41
 575 037c DB69     		ldr	r3, [r3, #28]
 576 037e 1846     		mov	r0, r3
 577 0380 FFF7FEFF 		bl	BSP_ACCELERO_Disable_Tilt_Detection_Ext
 578 0384 0346     		mov	r3, r0
 579 0386 012B     		cmp	r3, #1
 580 0388 05D0     		beq	.L40
 581              		.loc 1 237 0
 582 038a 084B     		ldr	r3, .L41+4
 583 038c 1B68     		ldr	r3, [r3]
 584 038e 23F02002 		bic	r2, r3, #32
 585 0392 064B     		ldr	r3, .L41+4
 586 0394 1A60     		str	r2, [r3]
 587              	.L40:
 588              		.loc 1 241 0
 589 0396 044B     		ldr	r3, .L41
 590 0398 DA69     		ldr	r2, [r3, #28]
 591 039a 054B     		ldr	r3, .L41+8
 592 039c 1B68     		ldr	r3, [r3]	@ float
 593 039e 1046     		mov	r0, r2
 594 03a0 1946     		mov	r1, r3
 595 03a2 FFF7FEFF 		bl	BSP_ACCELERO_Set_ODR_Value
 596              	.L38:
 597              		.loc 1 243 0
 598 03a6 08BD     		pop	{r3, pc}
 599              	.L42:
 600              		.align	2
 601              	.L41:
 602 03a8 00000000 		.word	TargetBoardFeatures
 603 03ac 00000000 		.word	HWAdvanceFeaturesStatus
 604 03b0 04000000 		.word	DefaultAccODR
 605              		.cfi_endproc
 606              	.LFE269:
 607              		.size	DisableHWTilt, .-DisableHWTilt
 608              		.align	2
 609 03b4 AFF30080 		.p2align 4,,15
 609      AFF30080 
 609      AFF30080 
 610              		.global	EnableHWWakeUp
 611              		.thumb
 612              		.thumb_func
 613              		.type	EnableHWWakeUp, %function
 614              	EnableHWWakeUp:
 615              	.LFB270:
ARM GAS  /tmp/ccy45MUB.s 			page 12


 616              		.loc 1 252 0
 617              		.cfi_startproc
 618              		@ args = 0, pretend = 0, frame = 0
 619              		@ frame_needed = 0, uses_anonymous_args = 0
 620 03c0 08B5     		push	{r3, lr}
 621              		.cfi_def_cfa_offset 8
 622              		.cfi_offset 3, -8
 623              		.cfi_offset 14, -4
 624              		.loc 1 253 0
 625 03c2 0A4B     		ldr	r3, .L45
 626 03c4 9B69     		ldr	r3, [r3, #24]
 627 03c6 002B     		cmp	r3, #0
 628 03c8 0FD0     		beq	.L43
 629              		.loc 1 255 0
 630 03ca FFF7FEFF 		bl	DisableHWFeatures
 631              		.loc 1 258 0
 632 03ce 074B     		ldr	r3, .L45
 633 03d0 DB69     		ldr	r3, [r3, #28]
 634 03d2 1846     		mov	r0, r3
 635 03d4 FFF7FEFF 		bl	BSP_ACCELERO_Enable_Wake_Up_Detection_Ext
 636 03d8 0346     		mov	r3, r0
 637 03da 012B     		cmp	r3, #1
 638 03dc 05D0     		beq	.L43
 639              		.loc 1 262 0
 640 03de 044B     		ldr	r3, .L45+4
 641 03e0 1B68     		ldr	r3, [r3]
 642 03e2 43F01002 		orr	r2, r3, #16
 643 03e6 024B     		ldr	r3, .L45+4
 644 03e8 1A60     		str	r2, [r3]
 645              	.L43:
 646              		.loc 1 265 0
 647 03ea 08BD     		pop	{r3, pc}
 648              	.L46:
 649              		.align	2
 650              	.L45:
 651 03ec 00000000 		.word	TargetBoardFeatures
 652 03f0 00000000 		.word	HWAdvanceFeaturesStatus
 653              		.cfi_endproc
 654              	.LFE270:
 655              		.size	EnableHWWakeUp, .-EnableHWWakeUp
 656              		.align	2
 657 03f4 AFF30080 		.p2align 4,,15
 657      AFF30080 
 657      AFF30080 
 658              		.global	DisableHWWakeUp
 659              		.thumb
 660              		.thumb_func
 661              		.type	DisableHWWakeUp, %function
 662              	DisableHWWakeUp:
 663              	.LFB271:
 664              		.loc 1 273 0
 665              		.cfi_startproc
 666              		@ args = 0, pretend = 0, frame = 0
 667              		@ frame_needed = 0, uses_anonymous_args = 0
 668 0400 08B5     		push	{r3, lr}
 669              		.cfi_def_cfa_offset 8
 670              		.cfi_offset 3, -8
ARM GAS  /tmp/ccy45MUB.s 			page 13


 671              		.cfi_offset 14, -4
 672              		.loc 1 274 0
 673 0402 0D4B     		ldr	r3, .L50
 674 0404 9B69     		ldr	r3, [r3, #24]
 675 0406 002B     		cmp	r3, #0
 676 0408 15D0     		beq	.L47
 677              		.loc 1 276 0
 678 040a 0B4B     		ldr	r3, .L50
 679 040c DB69     		ldr	r3, [r3, #28]
 680 040e 1846     		mov	r0, r3
 681 0410 FFF7FEFF 		bl	BSP_ACCELERO_Disable_Wake_Up_Detection_Ext
 682 0414 0346     		mov	r3, r0
 683 0416 012B     		cmp	r3, #1
 684 0418 05D0     		beq	.L49
 685              		.loc 1 280 0
 686 041a 084B     		ldr	r3, .L50+4
 687 041c 1B68     		ldr	r3, [r3]
 688 041e 23F01002 		bic	r2, r3, #16
 689 0422 064B     		ldr	r3, .L50+4
 690 0424 1A60     		str	r2, [r3]
 691              	.L49:
 692              		.loc 1 284 0
 693 0426 044B     		ldr	r3, .L50
 694 0428 DA69     		ldr	r2, [r3, #28]
 695 042a 054B     		ldr	r3, .L50+8
 696 042c 1B68     		ldr	r3, [r3]	@ float
 697 042e 1046     		mov	r0, r2
 698 0430 1946     		mov	r1, r3
 699 0432 FFF7FEFF 		bl	BSP_ACCELERO_Set_ODR_Value
 700              	.L47:
 701              		.loc 1 286 0
 702 0436 08BD     		pop	{r3, pc}
 703              	.L51:
 704              		.align	2
 705              	.L50:
 706 0438 00000000 		.word	TargetBoardFeatures
 707 043c 00000000 		.word	HWAdvanceFeaturesStatus
 708 0440 04000000 		.word	DefaultAccODR
 709              		.cfi_endproc
 710              	.LFE271:
 711              		.size	DisableHWWakeUp, .-DisableHWWakeUp
 712              		.align	2
 713 0444 AFF30080 		.p2align 4,,15
 713      AFF30080 
 713      AFF30080 
 714              		.global	EnableHWFreeFall
 715              		.thumb
 716              		.thumb_func
 717              		.type	EnableHWFreeFall, %function
 718              	EnableHWFreeFall:
 719              	.LFB272:
 720              		.loc 1 294 0
 721              		.cfi_startproc
 722              		@ args = 0, pretend = 0, frame = 0
 723              		@ frame_needed = 0, uses_anonymous_args = 0
 724 0450 08B5     		push	{r3, lr}
 725              		.cfi_def_cfa_offset 8
ARM GAS  /tmp/ccy45MUB.s 			page 14


 726              		.cfi_offset 3, -8
 727              		.cfi_offset 14, -4
 728              		.loc 1 295 0
 729 0452 0D4B     		ldr	r3, .L55
 730 0454 9B69     		ldr	r3, [r3, #24]
 731 0456 002B     		cmp	r3, #0
 732 0458 15D0     		beq	.L52
 733              		.loc 1 297 0
 734 045a FFF7FEFF 		bl	DisableHWFeatures
 735              		.loc 1 300 0
 736 045e 0A4B     		ldr	r3, .L55
 737 0460 DB69     		ldr	r3, [r3, #28]
 738 0462 1846     		mov	r0, r3
 739 0464 FFF7FEFF 		bl	BSP_ACCELERO_Enable_Free_Fall_Detection_Ext
 740 0468 0346     		mov	r3, r0
 741 046a 012B     		cmp	r3, #1
 742 046c 05D0     		beq	.L54
 743              		.loc 1 304 0
 744 046e 074B     		ldr	r3, .L55+4
 745 0470 1B68     		ldr	r3, [r3]
 746 0472 43F00202 		orr	r2, r3, #2
 747 0476 054B     		ldr	r3, .L55+4
 748 0478 1A60     		str	r2, [r3]
 749              	.L54:
 750              		.loc 1 314 0
 751 047a 034B     		ldr	r3, .L55
 752 047c DB69     		ldr	r3, [r3, #28]
 753 047e 1846     		mov	r0, r3
 754 0480 0121     		movs	r1, #1
 755 0482 FFF7FEFF 		bl	BSP_ACCELERO_Set_Free_Fall_Threshold_Ext
 756              	.L52:
 757              		.loc 1 319 0
 758 0486 08BD     		pop	{r3, pc}
 759              	.L56:
 760              		.align	2
 761              	.L55:
 762 0488 00000000 		.word	TargetBoardFeatures
 763 048c 00000000 		.word	HWAdvanceFeaturesStatus
 764              		.cfi_endproc
 765              	.LFE272:
 766              		.size	EnableHWFreeFall, .-EnableHWFreeFall
 767              		.align	2
 768              		.p2align 4,,15
 769              		.global	DisableHWFreeFall
 770              		.thumb
 771              		.thumb_func
 772              		.type	DisableHWFreeFall, %function
 773              	DisableHWFreeFall:
 774              	.LFB273:
 775              		.loc 1 327 0
 776              		.cfi_startproc
 777              		@ args = 0, pretend = 0, frame = 0
 778              		@ frame_needed = 0, uses_anonymous_args = 0
 779 0490 08B5     		push	{r3, lr}
 780              		.cfi_def_cfa_offset 8
 781              		.cfi_offset 3, -8
 782              		.cfi_offset 14, -4
ARM GAS  /tmp/ccy45MUB.s 			page 15


 783              		.loc 1 328 0
 784 0492 0D4B     		ldr	r3, .L60
 785 0494 9B69     		ldr	r3, [r3, #24]
 786 0496 002B     		cmp	r3, #0
 787 0498 15D0     		beq	.L57
 788              		.loc 1 330 0
 789 049a 0B4B     		ldr	r3, .L60
 790 049c DB69     		ldr	r3, [r3, #28]
 791 049e 1846     		mov	r0, r3
 792 04a0 FFF7FEFF 		bl	BSP_ACCELERO_Disable_Free_Fall_Detection_Ext
 793 04a4 0346     		mov	r3, r0
 794 04a6 012B     		cmp	r3, #1
 795 04a8 05D0     		beq	.L59
 796              		.loc 1 334 0
 797 04aa 084B     		ldr	r3, .L60+4
 798 04ac 1B68     		ldr	r3, [r3]
 799 04ae 23F00202 		bic	r2, r3, #2
 800 04b2 064B     		ldr	r3, .L60+4
 801 04b4 1A60     		str	r2, [r3]
 802              	.L59:
 803              		.loc 1 338 0
 804 04b6 044B     		ldr	r3, .L60
 805 04b8 DA69     		ldr	r2, [r3, #28]
 806 04ba 054B     		ldr	r3, .L60+8
 807 04bc 1B68     		ldr	r3, [r3]	@ float
 808 04be 1046     		mov	r0, r2
 809 04c0 1946     		mov	r1, r3
 810 04c2 FFF7FEFF 		bl	BSP_ACCELERO_Set_ODR_Value
 811              	.L57:
 812              		.loc 1 340 0
 813 04c6 08BD     		pop	{r3, pc}
 814              	.L61:
 815              		.align	2
 816              	.L60:
 817 04c8 00000000 		.word	TargetBoardFeatures
 818 04cc 00000000 		.word	HWAdvanceFeaturesStatus
 819 04d0 04000000 		.word	DefaultAccODR
 820              		.cfi_endproc
 821              	.LFE273:
 822              		.size	DisableHWFreeFall, .-DisableHWFreeFall
 823              		.align	2
 824 04d4 AFF30080 		.p2align 4,,15
 824      AFF30080 
 824      AFF30080 
 825              		.global	EnableHWDoubleTap
 826              		.thumb
 827              		.thumb_func
 828              		.type	EnableHWDoubleTap, %function
 829              	EnableHWDoubleTap:
 830              	.LFB274:
 831              		.loc 1 348 0
 832              		.cfi_startproc
 833              		@ args = 0, pretend = 0, frame = 0
 834              		@ frame_needed = 0, uses_anonymous_args = 0
 835 04e0 08B5     		push	{r3, lr}
 836              		.cfi_def_cfa_offset 8
 837              		.cfi_offset 3, -8
ARM GAS  /tmp/ccy45MUB.s 			page 16


 838              		.cfi_offset 14, -4
 839              		.loc 1 349 0
 840 04e2 0D4B     		ldr	r3, .L65
 841 04e4 9B69     		ldr	r3, [r3, #24]
 842 04e6 002B     		cmp	r3, #0
 843 04e8 15D0     		beq	.L62
 844              		.loc 1 351 0
 845 04ea FFF7FEFF 		bl	DisableHWFeatures
 846              		.loc 1 354 0
 847 04ee 0A4B     		ldr	r3, .L65
 848 04f0 DB69     		ldr	r3, [r3, #28]
 849 04f2 1846     		mov	r0, r3
 850 04f4 FFF7FEFF 		bl	BSP_ACCELERO_Enable_Double_Tap_Detection_Ext
 851 04f8 0346     		mov	r3, r0
 852 04fa 012B     		cmp	r3, #1
 853 04fc 05D0     		beq	.L64
 854              		.loc 1 358 0
 855 04fe 074B     		ldr	r3, .L65+4
 856 0500 1B68     		ldr	r3, [r3]
 857 0502 43F00402 		orr	r2, r3, #4
 858 0506 054B     		ldr	r3, .L65+4
 859 0508 1A60     		str	r2, [r3]
 860              	.L64:
 861              		.loc 1 368 0
 862 050a 034B     		ldr	r3, .L65
 863 050c DB69     		ldr	r3, [r3, #28]
 864 050e 1846     		mov	r0, r3
 865 0510 1021     		movs	r1, #16
 866 0512 FFF7FEFF 		bl	BSP_ACCELERO_Set_Tap_Threshold_Ext
 867              	.L62:
 868              		.loc 1 373 0
 869 0516 08BD     		pop	{r3, pc}
 870              	.L66:
 871              		.align	2
 872              	.L65:
 873 0518 00000000 		.word	TargetBoardFeatures
 874 051c 00000000 		.word	HWAdvanceFeaturesStatus
 875              		.cfi_endproc
 876              	.LFE274:
 877              		.size	EnableHWDoubleTap, .-EnableHWDoubleTap
 878              		.align	2
 879              		.p2align 4,,15
 880              		.global	DisableHWDoubleTap
 881              		.thumb
 882              		.thumb_func
 883              		.type	DisableHWDoubleTap, %function
 884              	DisableHWDoubleTap:
 885              	.LFB275:
 886              		.loc 1 381 0
 887              		.cfi_startproc
 888              		@ args = 0, pretend = 0, frame = 0
 889              		@ frame_needed = 0, uses_anonymous_args = 0
 890 0520 08B5     		push	{r3, lr}
 891              		.cfi_def_cfa_offset 8
 892              		.cfi_offset 3, -8
 893              		.cfi_offset 14, -4
 894              		.loc 1 382 0
ARM GAS  /tmp/ccy45MUB.s 			page 17


 895 0522 0D4B     		ldr	r3, .L70
 896 0524 9B69     		ldr	r3, [r3, #24]
 897 0526 002B     		cmp	r3, #0
 898 0528 15D0     		beq	.L67
 899              		.loc 1 384 0
 900 052a 0B4B     		ldr	r3, .L70
 901 052c DB69     		ldr	r3, [r3, #28]
 902 052e 1846     		mov	r0, r3
 903 0530 FFF7FEFF 		bl	BSP_ACCELERO_Disable_Double_Tap_Detection_Ext
 904 0534 0346     		mov	r3, r0
 905 0536 012B     		cmp	r3, #1
 906 0538 05D0     		beq	.L69
 907              		.loc 1 388 0
 908 053a 084B     		ldr	r3, .L70+4
 909 053c 1B68     		ldr	r3, [r3]
 910 053e 23F00402 		bic	r2, r3, #4
 911 0542 064B     		ldr	r3, .L70+4
 912 0544 1A60     		str	r2, [r3]
 913              	.L69:
 914              		.loc 1 392 0
 915 0546 044B     		ldr	r3, .L70
 916 0548 DA69     		ldr	r2, [r3, #28]
 917 054a 054B     		ldr	r3, .L70+8
 918 054c 1B68     		ldr	r3, [r3]	@ float
 919 054e 1046     		mov	r0, r2
 920 0550 1946     		mov	r1, r3
 921 0552 FFF7FEFF 		bl	BSP_ACCELERO_Set_ODR_Value
 922              	.L67:
 923              		.loc 1 394 0
 924 0556 08BD     		pop	{r3, pc}
 925              	.L71:
 926              		.align	2
 927              	.L70:
 928 0558 00000000 		.word	TargetBoardFeatures
 929 055c 00000000 		.word	HWAdvanceFeaturesStatus
 930 0560 04000000 		.word	DefaultAccODR
 931              		.cfi_endproc
 932              	.LFE275:
 933              		.size	DisableHWDoubleTap, .-DisableHWDoubleTap
 934              		.align	2
 935 0564 AFF30080 		.p2align 4,,15
 935      AFF30080 
 935      AFF30080 
 936              		.global	EnableHWSingleTap
 937              		.thumb
 938              		.thumb_func
 939              		.type	EnableHWSingleTap, %function
 940              	EnableHWSingleTap:
 941              	.LFB276:
 942              		.loc 1 402 0
 943              		.cfi_startproc
 944              		@ args = 0, pretend = 0, frame = 0
 945              		@ frame_needed = 0, uses_anonymous_args = 0
 946 0570 08B5     		push	{r3, lr}
 947              		.cfi_def_cfa_offset 8
 948              		.cfi_offset 3, -8
 949              		.cfi_offset 14, -4
ARM GAS  /tmp/ccy45MUB.s 			page 18


 950              		.loc 1 403 0
 951 0572 0A4B     		ldr	r3, .L74
 952 0574 9B69     		ldr	r3, [r3, #24]
 953 0576 002B     		cmp	r3, #0
 954 0578 0FD0     		beq	.L72
 955              		.loc 1 405 0
 956 057a FFF7FEFF 		bl	DisableHWFeatures
 957              		.loc 1 408 0
 958 057e 074B     		ldr	r3, .L74
 959 0580 DB69     		ldr	r3, [r3, #28]
 960 0582 1846     		mov	r0, r3
 961 0584 FFF7FEFF 		bl	BSP_ACCELERO_Enable_Single_Tap_Detection_Ext
 962 0588 0346     		mov	r3, r0
 963 058a 012B     		cmp	r3, #1
 964 058c 05D0     		beq	.L72
 965              		.loc 1 412 0
 966 058e 044B     		ldr	r3, .L74+4
 967 0590 1B68     		ldr	r3, [r3]
 968 0592 43F00802 		orr	r2, r3, #8
 969 0596 024B     		ldr	r3, .L74+4
 970 0598 1A60     		str	r2, [r3]
 971              	.L72:
 972              		.loc 1 415 0
 973 059a 08BD     		pop	{r3, pc}
 974              	.L75:
 975              		.align	2
 976              	.L74:
 977 059c 00000000 		.word	TargetBoardFeatures
 978 05a0 00000000 		.word	HWAdvanceFeaturesStatus
 979              		.cfi_endproc
 980              	.LFE276:
 981              		.size	EnableHWSingleTap, .-EnableHWSingleTap
 982              		.align	2
 983 05a4 AFF30080 		.p2align 4,,15
 983      AFF30080 
 983      AFF30080 
 984              		.global	DisableHWSingleTap
 985              		.thumb
 986              		.thumb_func
 987              		.type	DisableHWSingleTap, %function
 988              	DisableHWSingleTap:
 989              	.LFB277:
 990              		.loc 1 423 0
 991              		.cfi_startproc
 992              		@ args = 0, pretend = 0, frame = 0
 993              		@ frame_needed = 0, uses_anonymous_args = 0
 994 05b0 08B5     		push	{r3, lr}
 995              		.cfi_def_cfa_offset 8
 996              		.cfi_offset 3, -8
 997              		.cfi_offset 14, -4
 998              		.loc 1 424 0
 999 05b2 0D4B     		ldr	r3, .L79
 1000 05b4 9B69     		ldr	r3, [r3, #24]
 1001 05b6 002B     		cmp	r3, #0
 1002 05b8 15D0     		beq	.L76
 1003              		.loc 1 426 0
 1004 05ba 0B4B     		ldr	r3, .L79
ARM GAS  /tmp/ccy45MUB.s 			page 19


 1005 05bc DB69     		ldr	r3, [r3, #28]
 1006 05be 1846     		mov	r0, r3
 1007 05c0 FFF7FEFF 		bl	BSP_ACCELERO_Disable_Single_Tap_Detection_Ext
 1008 05c4 0346     		mov	r3, r0
 1009 05c6 012B     		cmp	r3, #1
 1010 05c8 05D0     		beq	.L78
 1011              		.loc 1 430 0
 1012 05ca 084B     		ldr	r3, .L79+4
 1013 05cc 1B68     		ldr	r3, [r3]
 1014 05ce 23F00802 		bic	r2, r3, #8
 1015 05d2 064B     		ldr	r3, .L79+4
 1016 05d4 1A60     		str	r2, [r3]
 1017              	.L78:
 1018              		.loc 1 434 0
 1019 05d6 044B     		ldr	r3, .L79
 1020 05d8 DA69     		ldr	r2, [r3, #28]
 1021 05da 054B     		ldr	r3, .L79+8
 1022 05dc 1B68     		ldr	r3, [r3]	@ float
 1023 05de 1046     		mov	r0, r2
 1024 05e0 1946     		mov	r1, r3
 1025 05e2 FFF7FEFF 		bl	BSP_ACCELERO_Set_ODR_Value
 1026              	.L76:
 1027              		.loc 1 436 0
 1028 05e6 08BD     		pop	{r3, pc}
 1029              	.L80:
 1030              		.align	2
 1031              	.L79:
 1032 05e8 00000000 		.word	TargetBoardFeatures
 1033 05ec 00000000 		.word	HWAdvanceFeaturesStatus
 1034 05f0 04000000 		.word	DefaultAccODR
 1035              		.cfi_endproc
 1036              	.LFE277:
 1037              		.size	DisableHWSingleTap, .-DisableHWSingleTap
 1038              		.align	2
 1039 05f4 AFF30080 		.p2align 4,,15
 1039      AFF30080 
 1039      AFF30080 
 1040              		.global	EnableHWPedometer
 1041              		.thumb
 1042              		.thumb_func
 1043              		.type	EnableHWPedometer, %function
 1044              	EnableHWPedometer:
 1045              	.LFB278:
 1046              		.loc 1 444 0
 1047              		.cfi_startproc
 1048              		@ args = 0, pretend = 0, frame = 0
 1049              		@ frame_needed = 0, uses_anonymous_args = 0
 1050 0600 08B5     		push	{r3, lr}
 1051              		.cfi_def_cfa_offset 8
 1052              		.cfi_offset 3, -8
 1053              		.cfi_offset 14, -4
 1054              		.loc 1 445 0
 1055 0602 0A4B     		ldr	r3, .L83
 1056 0604 9B69     		ldr	r3, [r3, #24]
 1057 0606 002B     		cmp	r3, #0
 1058 0608 0FD0     		beq	.L81
 1059              		.loc 1 447 0
ARM GAS  /tmp/ccy45MUB.s 			page 20


 1060 060a FFF7FEFF 		bl	DisableHWFeatures
 1061              		.loc 1 449 0
 1062 060e 074B     		ldr	r3, .L83
 1063 0610 DB69     		ldr	r3, [r3, #28]
 1064 0612 1846     		mov	r0, r3
 1065 0614 FFF7FEFF 		bl	BSP_ACCELERO_Enable_Pedometer_Ext
 1066 0618 0346     		mov	r3, r0
 1067 061a 012B     		cmp	r3, #1
 1068 061c 05D0     		beq	.L81
 1069              		.loc 1 453 0
 1070 061e 044B     		ldr	r3, .L83+4
 1071 0620 1B68     		ldr	r3, [r3]
 1072 0622 43F00102 		orr	r2, r3, #1
 1073 0626 024B     		ldr	r3, .L83+4
 1074 0628 1A60     		str	r2, [r3]
 1075              	.L81:
 1076              		.loc 1 456 0
 1077 062a 08BD     		pop	{r3, pc}
 1078              	.L84:
 1079              		.align	2
 1080              	.L83:
 1081 062c 00000000 		.word	TargetBoardFeatures
 1082 0630 00000000 		.word	HWAdvanceFeaturesStatus
 1083              		.cfi_endproc
 1084              	.LFE278:
 1085              		.size	EnableHWPedometer, .-EnableHWPedometer
 1086              		.align	2
 1087 0634 AFF30080 		.p2align 4,,15
 1087      AFF30080 
 1087      AFF30080 
 1088              		.global	DisableHWPedometer
 1089              		.thumb
 1090              		.thumb_func
 1091              		.type	DisableHWPedometer, %function
 1092              	DisableHWPedometer:
 1093              	.LFB279:
 1094              		.loc 1 464 0
 1095              		.cfi_startproc
 1096              		@ args = 0, pretend = 0, frame = 0
 1097              		@ frame_needed = 0, uses_anonymous_args = 0
 1098 0640 08B5     		push	{r3, lr}
 1099              		.cfi_def_cfa_offset 8
 1100              		.cfi_offset 3, -8
 1101              		.cfi_offset 14, -4
 1102              		.loc 1 465 0
 1103 0642 0D4B     		ldr	r3, .L88
 1104 0644 9B69     		ldr	r3, [r3, #24]
 1105 0646 002B     		cmp	r3, #0
 1106 0648 15D0     		beq	.L85
 1107              		.loc 1 466 0
 1108 064a 0B4B     		ldr	r3, .L88
 1109 064c DB69     		ldr	r3, [r3, #28]
 1110 064e 1846     		mov	r0, r3
 1111 0650 FFF7FEFF 		bl	BSP_ACCELERO_Disable_Pedometer_Ext
 1112 0654 0346     		mov	r3, r0
 1113 0656 012B     		cmp	r3, #1
 1114 0658 05D0     		beq	.L87
ARM GAS  /tmp/ccy45MUB.s 			page 21


 1115              		.loc 1 470 0
 1116 065a 084B     		ldr	r3, .L88+4
 1117 065c 1B68     		ldr	r3, [r3]
 1118 065e 23F00102 		bic	r2, r3, #1
 1119 0662 064B     		ldr	r3, .L88+4
 1120 0664 1A60     		str	r2, [r3]
 1121              	.L87:
 1122              		.loc 1 474 0
 1123 0666 044B     		ldr	r3, .L88
 1124 0668 DA69     		ldr	r2, [r3, #28]
 1125 066a 054B     		ldr	r3, .L88+8
 1126 066c 1B68     		ldr	r3, [r3]	@ float
 1127 066e 1046     		mov	r0, r2
 1128 0670 1946     		mov	r1, r3
 1129 0672 FFF7FEFF 		bl	BSP_ACCELERO_Set_ODR_Value
 1130              	.L85:
 1131              		.loc 1 476 0
 1132 0676 08BD     		pop	{r3, pc}
 1133              	.L89:
 1134              		.align	2
 1135              	.L88:
 1136 0678 00000000 		.word	TargetBoardFeatures
 1137 067c 00000000 		.word	HWAdvanceFeaturesStatus
 1138 0680 04000000 		.word	DefaultAccODR
 1139              		.cfi_endproc
 1140              	.LFE279:
 1141              		.size	DisableHWPedometer, .-DisableHWPedometer
 1142              		.align	2
 1143 0684 AFF30080 		.p2align 4,,15
 1143      AFF30080 
 1143      AFF30080 
 1144              		.global	ResetHWPedometer
 1145              		.thumb
 1146              		.thumb_func
 1147              		.type	ResetHWPedometer, %function
 1148              	ResetHWPedometer:
 1149              	.LFB280:
 1150              		.loc 1 484 0
 1151              		.cfi_startproc
 1152              		@ args = 0, pretend = 0, frame = 0
 1153              		@ frame_needed = 0, uses_anonymous_args = 0
 1154 0690 08B5     		push	{r3, lr}
 1155              		.cfi_def_cfa_offset 8
 1156              		.cfi_offset 3, -8
 1157              		.cfi_offset 14, -4
 1158              		.loc 1 485 0
 1159 0692 054B     		ldr	r3, .L92
 1160 0694 9B69     		ldr	r3, [r3, #24]
 1161 0696 002B     		cmp	r3, #0
 1162 0698 04D0     		beq	.L90
 1163              		.loc 1 486 0
 1164 069a 034B     		ldr	r3, .L92
 1165 069c DB69     		ldr	r3, [r3, #28]
 1166 069e 1846     		mov	r0, r3
 1167 06a0 FFF7FEFF 		bl	BSP_ACCELERO_Reset_Step_Counter_Ext
 1168              	.L90:
 1169              		.loc 1 492 0
ARM GAS  /tmp/ccy45MUB.s 			page 22


 1170 06a4 08BD     		pop	{r3, pc}
 1171              	.L93:
 1172 06a6 00BF     		.align	2
 1173              	.L92:
 1174 06a8 00000000 		.word	TargetBoardFeatures
 1175              		.cfi_endproc
 1176              	.LFE280:
 1177              		.size	ResetHWPedometer, .-ResetHWPedometer
 1178              		.align	2
 1179 06ac AFF30080 		.p2align 4,,15
 1180              		.global	GetStepHWPedometer
 1181              		.thumb
 1182              		.thumb_func
 1183              		.type	GetStepHWPedometer, %function
 1184              	GetStepHWPedometer:
 1185              	.LFB281:
 1186              		.loc 1 500 0
 1187              		.cfi_startproc
 1188              		@ args = 0, pretend = 0, frame = 8
 1189              		@ frame_needed = 0, uses_anonymous_args = 0
 1190 06b0 00B5     		push	{lr}
 1191              		.cfi_def_cfa_offset 4
 1192              		.cfi_offset 14, -4
 1193 06b2 83B0     		sub	sp, sp, #12
 1194              		.cfi_def_cfa_offset 16
 1195              		.loc 1 501 0
 1196 06b4 0023     		movs	r3, #0
 1197 06b6 ADF80630 		strh	r3, [sp, #6]	@ movhi
 1198              		.loc 1 502 0
 1199 06ba 094B     		ldr	r3, .L97
 1200 06bc 9B69     		ldr	r3, [r3, #24]
 1201 06be 002B     		cmp	r3, #0
 1202 06c0 07D0     		beq	.L95
 1203              		.loc 1 503 0
 1204 06c2 074B     		ldr	r3, .L97
 1205 06c4 DA69     		ldr	r2, [r3, #28]
 1206 06c6 0DF10603 		add	r3, sp, #6
 1207 06ca 1046     		mov	r0, r2
 1208 06cc 1946     		mov	r1, r3
 1209 06ce FFF7FEFF 		bl	BSP_ACCELERO_Get_Step_Count_Ext
 1210              	.L95:
 1211              		.loc 1 509 0
 1212 06d2 BDF80630 		ldrh	r3, [sp, #6]
 1213              		.loc 1 510 0
 1214 06d6 1846     		mov	r0, r3
 1215 06d8 03B0     		add	sp, sp, #12
 1216              		@ sp needed
 1217 06da 5DF804FB 		ldr	pc, [sp], #4
 1218              	.L98:
 1219 06de 00BF     		.align	2
 1220              	.L97:
 1221 06e0 00000000 		.word	TargetBoardFeatures
 1222              		.cfi_endproc
 1223              	.LFE281:
 1224              		.size	GetStepHWPedometer, .-GetStepHWPedometer
 1225              	.Letext0:
 1226              		.file 2 "/nfs/nfs5/home/research/hardware/arm2/gcc-arm-embedded/gcc-arm-none-eabi-4_8-2014q2/lib/g
ARM GAS  /tmp/ccy45MUB.s 			page 23


 1227              		.file 3 "/nfs/nfs5/home/research/hardware/arm2/gcc-arm-embedded/gcc-arm-none-eabi-4_8-2014q2/arm-n
 1228              		.file 4 "/nfs/nfs5/home/research/hardware/arm2/gcc-arm-embedded/gcc-arm-none-eabi-4_8-2014q2/arm-n
 1229              		.file 5 "../../../../../Drivers/BSP/Components/Common/component.h"
 1230              		.file 6 "../../../../../Drivers/BSP/Components/lsm6dsm/LSM6DSM_ACC_GYRO_driver.h"
 1231              		.file 7 "../../../../../Projects/Multi/Applications/BlueMicrosystem2/Inc/TargetFeatures.h"
 1232              		.file 8 "../../../../../../ChibiOS/os/rt/ports/ARMCMx/compilers/GCC/chtypes.h"
 1233              		.file 9 "../../../../../../ChibiOS/os/rt/include/chsystypes.h"
 1234              		.file 10 "../../../../../../ChibiOS/os/rt/include/chschd.h"
 1235              		.file 11 "../../../../../../ChibiOS/os/rt/ports/ARMCMx/chcore.h"
 1236              		.file 12 "../../../../../../ChibiOS/os/rt/ports/ARMCMx/chcore_v7m.h"
 1237              		.file 13 "../../../../../../ChibiOS/os/rt/include/chtm.h"
 1238              		.file 14 "../../../../../../ChibiOS/os/rt/include/chsem.h"
 1239              		.file 15 "../../../../../../ChibiOS/os/rt/include/chmtx.h"
 1240              		.file 16 "../../../../../Projects/Multi/Applications/BlueMicrosystem2/Inc/HWAdvanceFeatures.h"
 1241              		.file 17 "../../../../../../ChibiOS/os/ext/CMSIS/include/core_cm4.h"