ARM GAS  /tmp/ccBklucm.s 			page 1


   1              		.syntax unified
   2              		.cpu cortex-m4
   3              		.fpu softvfp
   4              		.eabi_attribute 20, 1
   5              		.eabi_attribute 21, 1
   6              		.eabi_attribute 23, 3
   7              		.eabi_attribute 24, 1
   8              		.eabi_attribute 25, 1
   9              		.eabi_attribute 26, 1
  10              		.eabi_attribute 30, 6
  11              		.eabi_attribute 34, 1
  12              		.eabi_attribute 18, 4
  13              		.thumb
  14              		.file	"LPS22HB_Driver.c"
  15              		.text
  16              	.Ltext0:
  17              		.cfi_sections	.debug_frame
  18              		.align	2
  19              		.p2align 4,,15
  20              		.global	LPS22HB_ReadReg
  21              		.thumb
  22              		.thumb_func
  23              		.type	LPS22HB_ReadReg, %function
  24              	LPS22HB_ReadReg:
  25              	.LFB0:
  26              		.file 1 "../../../../../Drivers/BSP/Components/lps22hb/LPS22HB_Driver.c"
  27              		.loc 1 93 0
  28              		.cfi_startproc
  29              		@ args = 0, pretend = 0, frame = 16
  30              		@ frame_needed = 0, uses_anonymous_args = 0
  31 0000 00B5     		push	{lr}
  32              		.cfi_def_cfa_offset 4
  33              		.cfi_offset 14, -4
  34 0002 85B0     		sub	sp, sp, #20
  35              		.cfi_def_cfa_offset 24
  36 0004 0390     		str	r0, [sp, #12]
  37 0006 0193     		str	r3, [sp, #4]
  38 0008 0B46     		mov	r3, r1
  39 000a 8DF80B30 		strb	r3, [sp, #11]
  40 000e 1346     		mov	r3, r2	@ movhi
  41 0010 ADF80830 		strh	r3, [sp, #8]	@ movhi
  42              		.loc 1 94 0
  43 0014 9DF80B20 		ldrb	r2, [sp, #11]	@ zero_extendqisi2
  44 0018 BDF80830 		ldrh	r3, [sp, #8]
  45 001c 0398     		ldr	r0, [sp, #12]
  46 001e 1146     		mov	r1, r2
  47 0020 019A     		ldr	r2, [sp, #4]
  48 0022 FFF7FEFF 		bl	Sensor_IO_Read
  49 0026 0346     		mov	r3, r0
  50 0028 002B     		cmp	r3, #0
  51 002a 01D0     		beq	.L2
  52              		.loc 1 95 0
  53 002c 0123     		movs	r3, #1
  54 002e 00E0     		b	.L3
  55              	.L2:
  56              		.loc 1 97 0
  57 0030 0023     		movs	r3, #0
ARM GAS  /tmp/ccBklucm.s 			page 2


  58              	.L3:
  59              		.loc 1 98 0
  60 0032 1846     		mov	r0, r3
  61 0034 05B0     		add	sp, sp, #20
  62              		@ sp needed
  63 0036 5DF804FB 		ldr	pc, [sp], #4
  64              		.cfi_endproc
  65              	.LFE0:
  66              		.size	LPS22HB_ReadReg, .-LPS22HB_ReadReg
  67 003a 00BF     		.align	2
  68 003c AFF30080 		.p2align 4,,15
  69              		.global	LPS22HB_WriteReg
  70              		.thumb
  71              		.thumb_func
  72              		.type	LPS22HB_WriteReg, %function
  73              	LPS22HB_WriteReg:
  74              	.LFB1:
  75              		.loc 1 109 0
  76              		.cfi_startproc
  77              		@ args = 0, pretend = 0, frame = 16
  78              		@ frame_needed = 0, uses_anonymous_args = 0
  79 0040 00B5     		push	{lr}
  80              		.cfi_def_cfa_offset 4
  81              		.cfi_offset 14, -4
  82 0042 85B0     		sub	sp, sp, #20
  83              		.cfi_def_cfa_offset 24
  84 0044 0390     		str	r0, [sp, #12]
  85 0046 0193     		str	r3, [sp, #4]
  86 0048 0B46     		mov	r3, r1
  87 004a 8DF80B30 		strb	r3, [sp, #11]
  88 004e 1346     		mov	r3, r2	@ movhi
  89 0050 ADF80830 		strh	r3, [sp, #8]	@ movhi
  90              		.loc 1 110 0
  91 0054 9DF80B20 		ldrb	r2, [sp, #11]	@ zero_extendqisi2
  92 0058 BDF80830 		ldrh	r3, [sp, #8]
  93 005c 0398     		ldr	r0, [sp, #12]
  94 005e 1146     		mov	r1, r2
  95 0060 019A     		ldr	r2, [sp, #4]
  96 0062 FFF7FEFF 		bl	Sensor_IO_Write
  97 0066 0346     		mov	r3, r0
  98 0068 002B     		cmp	r3, #0
  99 006a 01D0     		beq	.L5
 100              		.loc 1 111 0
 101 006c 0123     		movs	r3, #1
 102 006e 00E0     		b	.L6
 103              	.L5:
 104              		.loc 1 113 0
 105 0070 0023     		movs	r3, #0
 106              	.L6:
 107              		.loc 1 114 0
 108 0072 1846     		mov	r0, r3
 109 0074 05B0     		add	sp, sp, #20
 110              		@ sp needed
 111 0076 5DF804FB 		ldr	pc, [sp], #4
 112              		.cfi_endproc
 113              	.LFE1:
 114              		.size	LPS22HB_WriteReg, .-LPS22HB_WriteReg
ARM GAS  /tmp/ccBklucm.s 			page 3


 115 007a 00BF     		.align	2
 116 007c AFF30080 		.p2align 4,,15
 117              		.global	LPS22HB_Get_DeviceID
 118              		.thumb
 119              		.thumb_func
 120              		.type	LPS22HB_Get_DeviceID, %function
 121              	LPS22HB_Get_DeviceID:
 122              	.LFB2:
 123              		.loc 1 123 0
 124              		.cfi_startproc
 125              		@ args = 0, pretend = 0, frame = 8
 126              		@ frame_needed = 0, uses_anonymous_args = 0
 127 0080 00B5     		push	{lr}
 128              		.cfi_def_cfa_offset 4
 129              		.cfi_offset 14, -4
 130 0082 83B0     		sub	sp, sp, #12
 131              		.cfi_def_cfa_offset 16
 132 0084 0190     		str	r0, [sp, #4]
 133 0086 0091     		str	r1, [sp]
 134              		.loc 1 124 0
 135 0088 0198     		ldr	r0, [sp, #4]
 136 008a 0F21     		movs	r1, #15
 137 008c 0122     		movs	r2, #1
 138 008e 009B     		ldr	r3, [sp]
 139 0090 FFF7FEFF 		bl	LPS22HB_ReadReg
 140 0094 0346     		mov	r3, r0
 141 0096 002B     		cmp	r3, #0
 142 0098 01D0     		beq	.L8
 143              		.loc 1 125 0
 144 009a 0123     		movs	r3, #1
 145 009c 00E0     		b	.L9
 146              	.L8:
 147              		.loc 1 127 0
 148 009e 0023     		movs	r3, #0
 149              	.L9:
 150              		.loc 1 128 0
 151 00a0 1846     		mov	r0, r3
 152 00a2 03B0     		add	sp, sp, #12
 153              		@ sp needed
 154 00a4 5DF804FB 		ldr	pc, [sp], #4
 155              		.cfi_endproc
 156              	.LFE2:
 157              		.size	LPS22HB_Get_DeviceID, .-LPS22HB_Get_DeviceID
 158              		.align	2
 159 00a8 AFF30080 		.p2align 4,,15
 159      AFF30080 
 160              		.global	LPS22HB_Get_DriverVersion
 161              		.thumb
 162              		.thumb_func
 163              		.type	LPS22HB_Get_DriverVersion, %function
 164              	LPS22HB_Get_DriverVersion:
 165              	.LFB3:
 166              		.loc 1 137 0
 167              		.cfi_startproc
 168              		@ args = 0, pretend = 0, frame = 8
 169              		@ frame_needed = 0, uses_anonymous_args = 0
 170              		@ link register save eliminated.
ARM GAS  /tmp/ccBklucm.s 			page 4


 171 00b0 82B0     		sub	sp, sp, #8
 172              		.cfi_def_cfa_offset 8
 173 00b2 0190     		str	r0, [sp, #4]
 174              		.loc 1 138 0
 175 00b4 019B     		ldr	r3, [sp, #4]
 176 00b6 0122     		movs	r2, #1
 177 00b8 1A70     		strb	r2, [r3]
 178              		.loc 1 139 0
 179 00ba 019B     		ldr	r3, [sp, #4]
 180 00bc 0022     		movs	r2, #0
 181 00be 5A70     		strb	r2, [r3, #1]
 182              		.loc 1 140 0
 183 00c0 019B     		ldr	r3, [sp, #4]
 184 00c2 0022     		movs	r2, #0
 185 00c4 9A70     		strb	r2, [r3, #2]
 186              		.loc 1 142 0
 187 00c6 0023     		movs	r3, #0
 188              		.loc 1 143 0
 189 00c8 1846     		mov	r0, r3
 190 00ca 02B0     		add	sp, sp, #8
 191              		@ sp needed
 192 00cc 7047     		bx	lr
 193              		.cfi_endproc
 194              	.LFE3:
 195              		.size	LPS22HB_Get_DriverVersion, .-LPS22HB_Get_DriverVersion
 196 00ce 00BF     		.align	2
 197              		.p2align 4,,15
 198              		.global	LPS22HB_Set_PowerMode
 199              		.thumb
 200              		.thumb_func
 201              		.type	LPS22HB_Set_PowerMode, %function
 202              	LPS22HB_Set_PowerMode:
 203              	.LFB4:
 204              		.loc 1 153 0
 205              		.cfi_startproc
 206              		@ args = 0, pretend = 0, frame = 16
 207              		@ frame_needed = 0, uses_anonymous_args = 0
 208 00d0 00B5     		push	{lr}
 209              		.cfi_def_cfa_offset 4
 210              		.cfi_offset 14, -4
 211 00d2 85B0     		sub	sp, sp, #20
 212              		.cfi_def_cfa_offset 24
 213 00d4 0190     		str	r0, [sp, #4]
 214 00d6 0B46     		mov	r3, r1
 215 00d8 8DF80330 		strb	r3, [sp, #3]
 216              		.loc 1 158 0
 217 00dc 0DF10F03 		add	r3, sp, #15
 218 00e0 0198     		ldr	r0, [sp, #4]
 219 00e2 1A21     		movs	r1, #26
 220 00e4 0122     		movs	r2, #1
 221 00e6 FFF7FEFF 		bl	LPS22HB_ReadReg
 222 00ea 0346     		mov	r3, r0
 223 00ec 002B     		cmp	r3, #0
 224 00ee 01D0     		beq	.L13
 225              		.loc 1 159 0
 226 00f0 0123     		movs	r3, #1
 227 00f2 1BE0     		b	.L16
ARM GAS  /tmp/ccBklucm.s 			page 5


 228              	.L13:
 229              		.loc 1 161 0
 230 00f4 9DF80F30 		ldrb	r3, [sp, #15]	@ zero_extendqisi2
 231 00f8 23F00103 		bic	r3, r3, #1
 232 00fc DBB2     		uxtb	r3, r3
 233 00fe 8DF80F30 		strb	r3, [sp, #15]
 234              		.loc 1 162 0
 235 0102 9DF80F20 		ldrb	r2, [sp, #15]	@ zero_extendqisi2
 236 0106 9DF80330 		ldrb	r3, [sp, #3]
 237 010a 1343     		orrs	r3, r3, r2
 238 010c DBB2     		uxtb	r3, r3
 239 010e 8DF80F30 		strb	r3, [sp, #15]
 240              		.loc 1 164 0
 241 0112 0DF10F03 		add	r3, sp, #15
 242 0116 0198     		ldr	r0, [sp, #4]
 243 0118 1A21     		movs	r1, #26
 244 011a 0122     		movs	r2, #1
 245 011c FFF7FEFF 		bl	LPS22HB_WriteReg
 246 0120 0346     		mov	r3, r0
 247 0122 002B     		cmp	r3, #0
 248 0124 01D0     		beq	.L15
 249              		.loc 1 165 0
 250 0126 0123     		movs	r3, #1
 251 0128 00E0     		b	.L16
 252              	.L15:
 253              		.loc 1 167 0
 254 012a 0023     		movs	r3, #0
 255              	.L16:
 256              		.loc 1 168 0
 257 012c 1846     		mov	r0, r3
 258 012e 05B0     		add	sp, sp, #20
 259              		@ sp needed
 260 0130 5DF804FB 		ldr	pc, [sp], #4
 261              		.cfi_endproc
 262              	.LFE4:
 263              		.size	LPS22HB_Set_PowerMode, .-LPS22HB_Set_PowerMode
 264              		.align	2
 265 0134 AFF30080 		.p2align 4,,15
 265      AFF30080 
 265      AFF30080 
 266              		.global	LPS22HB_Get_PowerMode
 267              		.thumb
 268              		.thumb_func
 269              		.type	LPS22HB_Get_PowerMode, %function
 270              	LPS22HB_Get_PowerMode:
 271              	.LFB5:
 272              		.loc 1 177 0
 273              		.cfi_startproc
 274              		@ args = 0, pretend = 0, frame = 16
 275              		@ frame_needed = 0, uses_anonymous_args = 0
 276 0140 00B5     		push	{lr}
 277              		.cfi_def_cfa_offset 4
 278              		.cfi_offset 14, -4
 279 0142 85B0     		sub	sp, sp, #20
 280              		.cfi_def_cfa_offset 24
 281 0144 0190     		str	r0, [sp, #4]
 282 0146 0091     		str	r1, [sp]
ARM GAS  /tmp/ccBklucm.s 			page 6


 283              		.loc 1 180 0
 284 0148 0DF10F03 		add	r3, sp, #15
 285 014c 0198     		ldr	r0, [sp, #4]
 286 014e 1A21     		movs	r1, #26
 287 0150 0122     		movs	r2, #1
 288 0152 FFF7FEFF 		bl	LPS22HB_ReadReg
 289 0156 0346     		mov	r3, r0
 290 0158 002B     		cmp	r3, #0
 291 015a 01D0     		beq	.L18
 292              		.loc 1 181 0
 293 015c 0123     		movs	r3, #1
 294 015e 07E0     		b	.L20
 295              	.L18:
 296              		.loc 1 183 0
 297 0160 9DF80F30 		ldrb	r3, [sp, #15]	@ zero_extendqisi2
 298 0164 03F00103 		and	r3, r3, #1
 299 0168 DAB2     		uxtb	r2, r3
 300 016a 009B     		ldr	r3, [sp]
 301 016c 1A70     		strb	r2, [r3]
 302              		.loc 1 185 0
 303 016e 0023     		movs	r3, #0
 304              	.L20:
 305              		.loc 1 186 0
 306 0170 1846     		mov	r0, r3
 307 0172 05B0     		add	sp, sp, #20
 308              		@ sp needed
 309 0174 5DF804FB 		ldr	pc, [sp], #4
 310              		.cfi_endproc
 311              	.LFE5:
 312              		.size	LPS22HB_Get_PowerMode, .-LPS22HB_Get_PowerMode
 313              		.align	2
 314 0178 AFF30080 		.p2align 4,,15
 314      AFF30080 
 315              		.global	LPS22HB_Set_Odr
 316              		.thumb
 317              		.thumb_func
 318              		.type	LPS22HB_Set_Odr, %function
 319              	LPS22HB_Set_Odr:
 320              	.LFB6:
 321              		.loc 1 196 0
 322              		.cfi_startproc
 323              		@ args = 0, pretend = 0, frame = 16
 324              		@ frame_needed = 0, uses_anonymous_args = 0
 325 0180 00B5     		push	{lr}
 326              		.cfi_def_cfa_offset 4
 327              		.cfi_offset 14, -4
 328 0182 85B0     		sub	sp, sp, #20
 329              		.cfi_def_cfa_offset 24
 330 0184 0190     		str	r0, [sp, #4]
 331 0186 0B46     		mov	r3, r1
 332 0188 8DF80330 		strb	r3, [sp, #3]
 333              		.loc 1 202 0
 334 018c 0DF10F03 		add	r3, sp, #15
 335 0190 0198     		ldr	r0, [sp, #4]
 336 0192 1021     		movs	r1, #16
 337 0194 0122     		movs	r2, #1
 338 0196 FFF7FEFF 		bl	LPS22HB_ReadReg
ARM GAS  /tmp/ccBklucm.s 			page 7


 339 019a 0346     		mov	r3, r0
 340 019c 002B     		cmp	r3, #0
 341 019e 01D0     		beq	.L22
 342              		.loc 1 203 0
 343 01a0 0123     		movs	r3, #1
 344 01a2 1BE0     		b	.L25
 345              	.L22:
 346              		.loc 1 205 0
 347 01a4 9DF80F30 		ldrb	r3, [sp, #15]	@ zero_extendqisi2
 348 01a8 23F07003 		bic	r3, r3, #112
 349 01ac DBB2     		uxtb	r3, r3
 350 01ae 8DF80F30 		strb	r3, [sp, #15]
 351              		.loc 1 206 0
 352 01b2 9DF80F20 		ldrb	r2, [sp, #15]	@ zero_extendqisi2
 353 01b6 9DF80330 		ldrb	r3, [sp, #3]
 354 01ba 1343     		orrs	r3, r3, r2
 355 01bc DBB2     		uxtb	r3, r3
 356 01be 8DF80F30 		strb	r3, [sp, #15]
 357              		.loc 1 208 0
 358 01c2 0DF10F03 		add	r3, sp, #15
 359 01c6 0198     		ldr	r0, [sp, #4]
 360 01c8 1021     		movs	r1, #16
 361 01ca 0122     		movs	r2, #1
 362 01cc FFF7FEFF 		bl	LPS22HB_WriteReg
 363 01d0 0346     		mov	r3, r0
 364 01d2 002B     		cmp	r3, #0
 365 01d4 01D0     		beq	.L24
 366              		.loc 1 209 0
 367 01d6 0123     		movs	r3, #1
 368 01d8 00E0     		b	.L25
 369              	.L24:
 370              		.loc 1 211 0
 371 01da 0023     		movs	r3, #0
 372              	.L25:
 373              		.loc 1 212 0
 374 01dc 1846     		mov	r0, r3
 375 01de 05B0     		add	sp, sp, #20
 376              		@ sp needed
 377 01e0 5DF804FB 		ldr	pc, [sp], #4
 378              		.cfi_endproc
 379              	.LFE6:
 380              		.size	LPS22HB_Set_Odr, .-LPS22HB_Set_Odr
 381              		.align	2
 382 01e4 AFF30080 		.p2align 4,,15
 382      AFF30080 
 382      AFF30080 
 383              		.global	LPS22HB_Get_Odr
 384              		.thumb
 385              		.thumb_func
 386              		.type	LPS22HB_Get_Odr, %function
 387              	LPS22HB_Get_Odr:
 388              	.LFB7:
 389              		.loc 1 221 0
 390              		.cfi_startproc
 391              		@ args = 0, pretend = 0, frame = 16
 392              		@ frame_needed = 0, uses_anonymous_args = 0
 393 01f0 00B5     		push	{lr}
ARM GAS  /tmp/ccBklucm.s 			page 8


 394              		.cfi_def_cfa_offset 4
 395              		.cfi_offset 14, -4
 396 01f2 85B0     		sub	sp, sp, #20
 397              		.cfi_def_cfa_offset 24
 398 01f4 0190     		str	r0, [sp, #4]
 399 01f6 0091     		str	r1, [sp]
 400              		.loc 1 224 0
 401 01f8 0DF10F03 		add	r3, sp, #15
 402 01fc 0198     		ldr	r0, [sp, #4]
 403 01fe 1021     		movs	r1, #16
 404 0200 0122     		movs	r2, #1
 405 0202 FFF7FEFF 		bl	LPS22HB_ReadReg
 406 0206 0346     		mov	r3, r0
 407 0208 002B     		cmp	r3, #0
 408 020a 01D0     		beq	.L27
 409              		.loc 1 225 0
 410 020c 0123     		movs	r3, #1
 411 020e 07E0     		b	.L29
 412              	.L27:
 413              		.loc 1 227 0
 414 0210 9DF80F30 		ldrb	r3, [sp, #15]	@ zero_extendqisi2
 415 0214 03F07003 		and	r3, r3, #112
 416 0218 DAB2     		uxtb	r2, r3
 417 021a 009B     		ldr	r3, [sp]
 418 021c 1A70     		strb	r2, [r3]
 419              		.loc 1 229 0
 420 021e 0023     		movs	r3, #0
 421              	.L29:
 422              		.loc 1 230 0
 423 0220 1846     		mov	r0, r3
 424 0222 05B0     		add	sp, sp, #20
 425              		@ sp needed
 426 0224 5DF804FB 		ldr	pc, [sp], #4
 427              		.cfi_endproc
 428              	.LFE7:
 429              		.size	LPS22HB_Get_Odr, .-LPS22HB_Get_Odr
 430              		.align	2
 431 0228 AFF30080 		.p2align 4,,15
 431      AFF30080 
 432              		.global	LPS22HB_Set_LowPassFilter
 433              		.thumb
 434              		.thumb_func
 435              		.type	LPS22HB_Set_LowPassFilter, %function
 436              	LPS22HB_Set_LowPassFilter:
 437              	.LFB8:
 438              		.loc 1 239 0
 439              		.cfi_startproc
 440              		@ args = 0, pretend = 0, frame = 16
 441              		@ frame_needed = 0, uses_anonymous_args = 0
 442 0230 00B5     		push	{lr}
 443              		.cfi_def_cfa_offset 4
 444              		.cfi_offset 14, -4
 445 0232 85B0     		sub	sp, sp, #20
 446              		.cfi_def_cfa_offset 24
 447 0234 0190     		str	r0, [sp, #4]
 448 0236 0B46     		mov	r3, r1
 449 0238 8DF80330 		strb	r3, [sp, #3]
ARM GAS  /tmp/ccBklucm.s 			page 9


 450              		.loc 1 244 0
 451 023c 0DF10F03 		add	r3, sp, #15
 452 0240 0198     		ldr	r0, [sp, #4]
 453 0242 1021     		movs	r1, #16
 454 0244 0122     		movs	r2, #1
 455 0246 FFF7FEFF 		bl	LPS22HB_ReadReg
 456 024a 0346     		mov	r3, r0
 457 024c 002B     		cmp	r3, #0
 458 024e 01D0     		beq	.L31
 459              		.loc 1 245 0
 460 0250 0123     		movs	r3, #1
 461 0252 1FE0     		b	.L34
 462              	.L31:
 463              		.loc 1 247 0
 464 0254 9DF80F30 		ldrb	r3, [sp, #15]	@ zero_extendqisi2
 465 0258 23F00803 		bic	r3, r3, #8
 466 025c DBB2     		uxtb	r3, r3
 467 025e 8DF80F30 		strb	r3, [sp, #15]
 468              		.loc 1 248 0
 469 0262 9DF80330 		ldrb	r3, [sp, #3]	@ zero_extendqisi2
 470 0266 DB00     		lsls	r3, r3, #3
 471 0268 DAB2     		uxtb	r2, r3
 472 026a 9DF80F30 		ldrb	r3, [sp, #15]	@ zero_extendqisi2
 473 026e DBB2     		uxtb	r3, r3
 474 0270 1343     		orrs	r3, r3, r2
 475 0272 DBB2     		uxtb	r3, r3
 476 0274 DBB2     		uxtb	r3, r3
 477 0276 8DF80F30 		strb	r3, [sp, #15]
 478              		.loc 1 251 0
 479 027a 0DF10F03 		add	r3, sp, #15
 480 027e 0198     		ldr	r0, [sp, #4]
 481 0280 1021     		movs	r1, #16
 482 0282 0122     		movs	r2, #1
 483 0284 FFF7FEFF 		bl	LPS22HB_WriteReg
 484 0288 0346     		mov	r3, r0
 485 028a 002B     		cmp	r3, #0
 486 028c 01D0     		beq	.L33
 487              		.loc 1 252 0
 488 028e 0123     		movs	r3, #1
 489 0290 00E0     		b	.L34
 490              	.L33:
 491              		.loc 1 255 0
 492 0292 0023     		movs	r3, #0
 493              	.L34:
 494              		.loc 1 256 0
 495 0294 1846     		mov	r0, r3
 496 0296 05B0     		add	sp, sp, #20
 497              		@ sp needed
 498 0298 5DF804FB 		ldr	pc, [sp], #4
 499              		.cfi_endproc
 500              	.LFE8:
 501              		.size	LPS22HB_Set_LowPassFilter, .-LPS22HB_Set_LowPassFilter
 502              		.align	2
 503 029c AFF30080 		.p2align 4,,15
 504              		.global	LPS22HB_Set_LowPassFilterCutoff
 505              		.thumb
 506              		.thumb_func
ARM GAS  /tmp/ccBklucm.s 			page 10


 507              		.type	LPS22HB_Set_LowPassFilterCutoff, %function
 508              	LPS22HB_Set_LowPassFilterCutoff:
 509              	.LFB9:
 510              		.loc 1 266 0
 511              		.cfi_startproc
 512              		@ args = 0, pretend = 0, frame = 16
 513              		@ frame_needed = 0, uses_anonymous_args = 0
 514 02a0 00B5     		push	{lr}
 515              		.cfi_def_cfa_offset 4
 516              		.cfi_offset 14, -4
 517 02a2 85B0     		sub	sp, sp, #20
 518              		.cfi_def_cfa_offset 24
 519 02a4 0190     		str	r0, [sp, #4]
 520 02a6 0B46     		mov	r3, r1
 521 02a8 8DF80330 		strb	r3, [sp, #3]
 522              		.loc 1 272 0
 523 02ac 0DF10F03 		add	r3, sp, #15
 524 02b0 0198     		ldr	r0, [sp, #4]
 525 02b2 1021     		movs	r1, #16
 526 02b4 0122     		movs	r2, #1
 527 02b6 FFF7FEFF 		bl	LPS22HB_ReadReg
 528 02ba 0346     		mov	r3, r0
 529 02bc 002B     		cmp	r3, #0
 530 02be 01D0     		beq	.L36
 531              		.loc 1 273 0
 532 02c0 0123     		movs	r3, #1
 533 02c2 1BE0     		b	.L39
 534              	.L36:
 535              		.loc 1 275 0
 536 02c4 9DF80F30 		ldrb	r3, [sp, #15]	@ zero_extendqisi2
 537 02c8 23F00403 		bic	r3, r3, #4
 538 02cc DBB2     		uxtb	r3, r3
 539 02ce 8DF80F30 		strb	r3, [sp, #15]
 540              		.loc 1 276 0
 541 02d2 9DF80F20 		ldrb	r2, [sp, #15]	@ zero_extendqisi2
 542 02d6 9DF80330 		ldrb	r3, [sp, #3]
 543 02da 1343     		orrs	r3, r3, r2
 544 02dc DBB2     		uxtb	r3, r3
 545 02de 8DF80F30 		strb	r3, [sp, #15]
 546              		.loc 1 280 0
 547 02e2 0DF10F03 		add	r3, sp, #15
 548 02e6 0198     		ldr	r0, [sp, #4]
 549 02e8 1021     		movs	r1, #16
 550 02ea 0122     		movs	r2, #1
 551 02ec FFF7FEFF 		bl	LPS22HB_WriteReg
 552 02f0 0346     		mov	r3, r0
 553 02f2 002B     		cmp	r3, #0
 554 02f4 01D0     		beq	.L38
 555              		.loc 1 281 0
 556 02f6 0123     		movs	r3, #1
 557 02f8 00E0     		b	.L39
 558              	.L38:
 559              		.loc 1 284 0
 560 02fa 0023     		movs	r3, #0
 561              	.L39:
 562              		.loc 1 286 0
 563 02fc 1846     		mov	r0, r3
ARM GAS  /tmp/ccBklucm.s 			page 11


 564 02fe 05B0     		add	sp, sp, #20
 565              		@ sp needed
 566 0300 5DF804FB 		ldr	pc, [sp], #4
 567              		.cfi_endproc
 568              	.LFE9:
 569              		.size	LPS22HB_Set_LowPassFilterCutoff, .-LPS22HB_Set_LowPassFilterCutoff
 570              		.align	2
 571 0304 AFF30080 		.p2align 4,,15
 571      AFF30080 
 571      AFF30080 
 572              		.global	LPS22HB_Set_Bdu
 573              		.thumb
 574              		.thumb_func
 575              		.type	LPS22HB_Set_Bdu, %function
 576              	LPS22HB_Set_Bdu:
 577              	.LFB10:
 578              		.loc 1 298 0
 579              		.cfi_startproc
 580              		@ args = 0, pretend = 0, frame = 16
 581              		@ frame_needed = 0, uses_anonymous_args = 0
 582 0310 00B5     		push	{lr}
 583              		.cfi_def_cfa_offset 4
 584              		.cfi_offset 14, -4
 585 0312 85B0     		sub	sp, sp, #20
 586              		.cfi_def_cfa_offset 24
 587 0314 0190     		str	r0, [sp, #4]
 588 0316 0B46     		mov	r3, r1
 589 0318 8DF80330 		strb	r3, [sp, #3]
 590              		.loc 1 304 0
 591 031c 0DF10F03 		add	r3, sp, #15
 592 0320 0198     		ldr	r0, [sp, #4]
 593 0322 1021     		movs	r1, #16
 594 0324 0122     		movs	r2, #1
 595 0326 FFF7FEFF 		bl	LPS22HB_ReadReg
 596 032a 0346     		mov	r3, r0
 597 032c 002B     		cmp	r3, #0
 598 032e 01D0     		beq	.L41
 599              		.loc 1 305 0
 600 0330 0123     		movs	r3, #1
 601 0332 1BE0     		b	.L44
 602              	.L41:
 603              		.loc 1 307 0
 604 0334 9DF80F30 		ldrb	r3, [sp, #15]	@ zero_extendqisi2
 605 0338 23F00203 		bic	r3, r3, #2
 606 033c DBB2     		uxtb	r3, r3
 607 033e 8DF80F30 		strb	r3, [sp, #15]
 608              		.loc 1 308 0
 609 0342 9DF80F20 		ldrb	r2, [sp, #15]	@ zero_extendqisi2
 610 0346 9DF80330 		ldrb	r3, [sp, #3]
 611 034a 1343     		orrs	r3, r3, r2
 612 034c DBB2     		uxtb	r3, r3
 613 034e 8DF80F30 		strb	r3, [sp, #15]
 614              		.loc 1 311 0
 615 0352 0DF10F03 		add	r3, sp, #15
 616 0356 0198     		ldr	r0, [sp, #4]
 617 0358 1021     		movs	r1, #16
 618 035a 0122     		movs	r2, #1
ARM GAS  /tmp/ccBklucm.s 			page 12


 619 035c FFF7FEFF 		bl	LPS22HB_WriteReg
 620 0360 0346     		mov	r3, r0
 621 0362 002B     		cmp	r3, #0
 622 0364 01D0     		beq	.L43
 623              		.loc 1 312 0
 624 0366 0023     		movs	r3, #0
 625 0368 00E0     		b	.L44
 626              	.L43:
 627              		.loc 1 314 0
 628 036a 0023     		movs	r3, #0
 629              	.L44:
 630              		.loc 1 315 0
 631 036c 1846     		mov	r0, r3
 632 036e 05B0     		add	sp, sp, #20
 633              		@ sp needed
 634 0370 5DF804FB 		ldr	pc, [sp], #4
 635              		.cfi_endproc
 636              	.LFE10:
 637              		.size	LPS22HB_Set_Bdu, .-LPS22HB_Set_Bdu
 638              		.align	2
 639 0374 AFF30080 		.p2align 4,,15
 639      AFF30080 
 639      AFF30080 
 640              		.global	LPS22HB_Get_Bdu
 641              		.thumb
 642              		.thumb_func
 643              		.type	LPS22HB_Get_Bdu, %function
 644              	LPS22HB_Get_Bdu:
 645              	.LFB11:
 646              		.loc 1 324 0
 647              		.cfi_startproc
 648              		@ args = 0, pretend = 0, frame = 16
 649              		@ frame_needed = 0, uses_anonymous_args = 0
 650 0380 00B5     		push	{lr}
 651              		.cfi_def_cfa_offset 4
 652              		.cfi_offset 14, -4
 653 0382 85B0     		sub	sp, sp, #20
 654              		.cfi_def_cfa_offset 24
 655 0384 0190     		str	r0, [sp, #4]
 656 0386 0091     		str	r1, [sp]
 657              		.loc 1 327 0
 658 0388 0DF10F03 		add	r3, sp, #15
 659 038c 0198     		ldr	r0, [sp, #4]
 660 038e 1021     		movs	r1, #16
 661 0390 0122     		movs	r2, #1
 662 0392 FFF7FEFF 		bl	LPS22HB_ReadReg
 663 0396 0346     		mov	r3, r0
 664 0398 002B     		cmp	r3, #0
 665 039a 01D0     		beq	.L46
 666              		.loc 1 328 0
 667 039c 0123     		movs	r3, #1
 668 039e 07E0     		b	.L48
 669              	.L46:
 670              		.loc 1 330 0
 671 03a0 9DF80F30 		ldrb	r3, [sp, #15]	@ zero_extendqisi2
 672 03a4 03F00203 		and	r3, r3, #2
 673 03a8 DAB2     		uxtb	r2, r3
ARM GAS  /tmp/ccBklucm.s 			page 13


 674 03aa 009B     		ldr	r3, [sp]
 675 03ac 1A70     		strb	r2, [r3]
 676              		.loc 1 332 0
 677 03ae 0023     		movs	r3, #0
 678              	.L48:
 679              		.loc 1 333 0
 680 03b0 1846     		mov	r0, r3
 681 03b2 05B0     		add	sp, sp, #20
 682              		@ sp needed
 683 03b4 5DF804FB 		ldr	pc, [sp], #4
 684              		.cfi_endproc
 685              	.LFE11:
 686              		.size	LPS22HB_Get_Bdu, .-LPS22HB_Get_Bdu
 687              		.align	2
 688 03b8 AFF30080 		.p2align 4,,15
 688      AFF30080 
 689              		.global	LPS22HB_Set_SpiInterface
 690              		.thumb
 691              		.thumb_func
 692              		.type	LPS22HB_Set_SpiInterface, %function
 693              	LPS22HB_Set_SpiInterface:
 694              	.LFB12:
 695              		.loc 1 342 0
 696              		.cfi_startproc
 697              		@ args = 0, pretend = 0, frame = 16
 698              		@ frame_needed = 0, uses_anonymous_args = 0
 699 03c0 00B5     		push	{lr}
 700              		.cfi_def_cfa_offset 4
 701              		.cfi_offset 14, -4
 702 03c2 85B0     		sub	sp, sp, #20
 703              		.cfi_def_cfa_offset 24
 704 03c4 0190     		str	r0, [sp, #4]
 705 03c6 0B46     		mov	r3, r1
 706 03c8 8DF80330 		strb	r3, [sp, #3]
 707              		.loc 1 348 0
 708 03cc 0DF10F03 		add	r3, sp, #15
 709 03d0 0198     		ldr	r0, [sp, #4]
 710 03d2 1021     		movs	r1, #16
 711 03d4 0122     		movs	r2, #1
 712 03d6 FFF7FEFF 		bl	LPS22HB_ReadReg
 713 03da 0346     		mov	r3, r0
 714 03dc 002B     		cmp	r3, #0
 715 03de 01D0     		beq	.L50
 716              		.loc 1 349 0
 717 03e0 0123     		movs	r3, #1
 718 03e2 1BE0     		b	.L53
 719              	.L50:
 720              		.loc 1 351 0
 721 03e4 9DF80F30 		ldrb	r3, [sp, #15]	@ zero_extendqisi2
 722 03e8 23F00103 		bic	r3, r3, #1
 723 03ec DBB2     		uxtb	r3, r3
 724 03ee 8DF80F30 		strb	r3, [sp, #15]
 725              		.loc 1 352 0
 726 03f2 9DF80F20 		ldrb	r2, [sp, #15]	@ zero_extendqisi2
 727 03f6 9DF80330 		ldrb	r3, [sp, #3]
 728 03fa 1343     		orrs	r3, r3, r2
 729 03fc DBB2     		uxtb	r3, r3
ARM GAS  /tmp/ccBklucm.s 			page 14


 730 03fe 8DF80F30 		strb	r3, [sp, #15]
 731              		.loc 1 354 0
 732 0402 0DF10F03 		add	r3, sp, #15
 733 0406 0198     		ldr	r0, [sp, #4]
 734 0408 1021     		movs	r1, #16
 735 040a 0122     		movs	r2, #1
 736 040c FFF7FEFF 		bl	LPS22HB_WriteReg
 737 0410 0346     		mov	r3, r0
 738 0412 002B     		cmp	r3, #0
 739 0414 01D0     		beq	.L52
 740              		.loc 1 355 0
 741 0416 0123     		movs	r3, #1
 742 0418 00E0     		b	.L53
 743              	.L52:
 744              		.loc 1 357 0
 745 041a 0023     		movs	r3, #0
 746              	.L53:
 747              		.loc 1 358 0
 748 041c 1846     		mov	r0, r3
 749 041e 05B0     		add	sp, sp, #20
 750              		@ sp needed
 751 0420 5DF804FB 		ldr	pc, [sp], #4
 752              		.cfi_endproc
 753              	.LFE12:
 754              		.size	LPS22HB_Set_SpiInterface, .-LPS22HB_Set_SpiInterface
 755              		.align	2
 756 0424 AFF30080 		.p2align 4,,15
 756      AFF30080 
 756      AFF30080 
 757              		.global	LPS22HB_Set_ClockTreeConfifuration
 758              		.thumb
 759              		.thumb_func
 760              		.type	LPS22HB_Set_ClockTreeConfifuration, %function
 761              	LPS22HB_Set_ClockTreeConfifuration:
 762              	.LFB13:
 763              		.loc 1 367 0
 764              		.cfi_startproc
 765              		@ args = 0, pretend = 0, frame = 16
 766              		@ frame_needed = 0, uses_anonymous_args = 0
 767 0430 00B5     		push	{lr}
 768              		.cfi_def_cfa_offset 4
 769              		.cfi_offset 14, -4
 770 0432 85B0     		sub	sp, sp, #20
 771              		.cfi_def_cfa_offset 24
 772 0434 0190     		str	r0, [sp, #4]
 773 0436 0B46     		mov	r3, r1
 774 0438 8DF80330 		strb	r3, [sp, #3]
 775              		.loc 1 373 0
 776 043c 0DF10F03 		add	r3, sp, #15
 777 0440 0198     		ldr	r0, [sp, #4]
 778 0442 4321     		movs	r1, #67
 779 0444 0122     		movs	r2, #1
 780 0446 FFF7FEFF 		bl	LPS22HB_ReadReg
 781 044a 0346     		mov	r3, r0
 782 044c 002B     		cmp	r3, #0
 783 044e 01D0     		beq	.L55
 784              		.loc 1 374 0
ARM GAS  /tmp/ccBklucm.s 			page 15


 785 0450 0123     		movs	r3, #1
 786 0452 1BE0     		b	.L58
 787              	.L55:
 788              		.loc 1 376 0
 789 0454 9DF80F30 		ldrb	r3, [sp, #15]	@ zero_extendqisi2
 790 0458 23F02003 		bic	r3, r3, #32
 791 045c DBB2     		uxtb	r3, r3
 792 045e 8DF80F30 		strb	r3, [sp, #15]
 793              		.loc 1 377 0
 794 0462 9DF80F20 		ldrb	r2, [sp, #15]	@ zero_extendqisi2
 795 0466 9DF80330 		ldrb	r3, [sp, #3]
 796 046a 1343     		orrs	r3, r3, r2
 797 046c DBB2     		uxtb	r3, r3
 798 046e 8DF80F30 		strb	r3, [sp, #15]
 799              		.loc 1 380 0
 800 0472 0DF10F03 		add	r3, sp, #15
 801 0476 0198     		ldr	r0, [sp, #4]
 802 0478 4321     		movs	r1, #67
 803 047a 0122     		movs	r2, #1
 804 047c FFF7FEFF 		bl	LPS22HB_WriteReg
 805 0480 0346     		mov	r3, r0
 806 0482 002B     		cmp	r3, #0
 807 0484 01D0     		beq	.L57
 808              		.loc 1 381 0
 809 0486 0123     		movs	r3, #1
 810 0488 00E0     		b	.L58
 811              	.L57:
 812              		.loc 1 383 0
 813 048a 0023     		movs	r3, #0
 814              	.L58:
 815              		.loc 1 384 0
 816 048c 1846     		mov	r0, r3
 817 048e 05B0     		add	sp, sp, #20
 818              		@ sp needed
 819 0490 5DF804FB 		ldr	pc, [sp], #4
 820              		.cfi_endproc
 821              	.LFE13:
 822              		.size	LPS22HB_Set_ClockTreeConfifuration, .-LPS22HB_Set_ClockTreeConfifuration
 823              		.align	2
 824 0494 AFF30080 		.p2align 4,,15
 824      AFF30080 
 824      AFF30080 
 825              		.global	LPS22HB_Get_SpiInterface
 826              		.thumb
 827              		.thumb_func
 828              		.type	LPS22HB_Get_SpiInterface, %function
 829              	LPS22HB_Get_SpiInterface:
 830              	.LFB14:
 831              		.loc 1 394 0
 832              		.cfi_startproc
 833              		@ args = 0, pretend = 0, frame = 16
 834              		@ frame_needed = 0, uses_anonymous_args = 0
 835 04a0 00B5     		push	{lr}
 836              		.cfi_def_cfa_offset 4
 837              		.cfi_offset 14, -4
 838 04a2 85B0     		sub	sp, sp, #20
 839              		.cfi_def_cfa_offset 24
ARM GAS  /tmp/ccBklucm.s 			page 16


 840 04a4 0190     		str	r0, [sp, #4]
 841 04a6 0091     		str	r1, [sp]
 842              		.loc 1 397 0
 843 04a8 0DF10F03 		add	r3, sp, #15
 844 04ac 0198     		ldr	r0, [sp, #4]
 845 04ae 1021     		movs	r1, #16
 846 04b0 0122     		movs	r2, #1
 847 04b2 FFF7FEFF 		bl	LPS22HB_ReadReg
 848 04b6 0346     		mov	r3, r0
 849 04b8 002B     		cmp	r3, #0
 850 04ba 01D0     		beq	.L60
 851              		.loc 1 398 0
 852 04bc 0123     		movs	r3, #1
 853 04be 07E0     		b	.L62
 854              	.L60:
 855              		.loc 1 400 0
 856 04c0 9DF80F30 		ldrb	r3, [sp, #15]	@ zero_extendqisi2
 857 04c4 03F00103 		and	r3, r3, #1
 858 04c8 DAB2     		uxtb	r2, r3
 859 04ca 009B     		ldr	r3, [sp]
 860 04cc 1A70     		strb	r2, [r3]
 861              		.loc 1 402 0
 862 04ce 0023     		movs	r3, #0
 863              	.L62:
 864              		.loc 1 403 0
 865 04d0 1846     		mov	r0, r3
 866 04d2 05B0     		add	sp, sp, #20
 867              		@ sp needed
 868 04d4 5DF804FB 		ldr	pc, [sp], #4
 869              		.cfi_endproc
 870              	.LFE14:
 871              		.size	LPS22HB_Get_SpiInterface, .-LPS22HB_Get_SpiInterface
 872              		.align	2
 873 04d8 AFF30080 		.p2align 4,,15
 873      AFF30080 
 874              		.global	LPS22HB_SwReset
 875              		.thumb
 876              		.thumb_func
 877              		.type	LPS22HB_SwReset, %function
 878              	LPS22HB_SwReset:
 879              	.LFB15:
 880              		.loc 1 411 0
 881              		.cfi_startproc
 882              		@ args = 0, pretend = 0, frame = 16
 883              		@ frame_needed = 0, uses_anonymous_args = 0
 884 04e0 00B5     		push	{lr}
 885              		.cfi_def_cfa_offset 4
 886              		.cfi_offset 14, -4
 887 04e2 85B0     		sub	sp, sp, #20
 888              		.cfi_def_cfa_offset 24
 889 04e4 0190     		str	r0, [sp, #4]
 890              		.loc 1 414 0
 891 04e6 0DF10F03 		add	r3, sp, #15
 892 04ea 0198     		ldr	r0, [sp, #4]
 893 04ec 1121     		movs	r1, #17
 894 04ee 0122     		movs	r2, #1
 895 04f0 FFF7FEFF 		bl	LPS22HB_ReadReg
ARM GAS  /tmp/ccBklucm.s 			page 17


 896 04f4 0346     		mov	r3, r0
 897 04f6 002B     		cmp	r3, #0
 898 04f8 01D0     		beq	.L64
 899              		.loc 1 415 0
 900 04fa 0123     		movs	r3, #1
 901 04fc 13E0     		b	.L67
 902              	.L64:
 903              		.loc 1 417 0
 904 04fe 9DF80F30 		ldrb	r3, [sp, #15]	@ zero_extendqisi2
 905 0502 43F00403 		orr	r3, r3, #4
 906 0506 DBB2     		uxtb	r3, r3
 907 0508 8DF80F30 		strb	r3, [sp, #15]
 908              		.loc 1 419 0
 909 050c 0DF10F03 		add	r3, sp, #15
 910 0510 0198     		ldr	r0, [sp, #4]
 911 0512 1121     		movs	r1, #17
 912 0514 0122     		movs	r2, #1
 913 0516 FFF7FEFF 		bl	LPS22HB_WriteReg
 914 051a 0346     		mov	r3, r0
 915 051c 002B     		cmp	r3, #0
 916 051e 01D0     		beq	.L66
 917              		.loc 1 420 0
 918 0520 0123     		movs	r3, #1
 919 0522 00E0     		b	.L67
 920              	.L66:
 921              		.loc 1 422 0
 922 0524 0023     		movs	r3, #0
 923              	.L67:
 924              		.loc 1 423 0
 925 0526 1846     		mov	r0, r3
 926 0528 05B0     		add	sp, sp, #20
 927              		@ sp needed
 928 052a 5DF804FB 		ldr	pc, [sp], #4
 929              		.cfi_endproc
 930              	.LFE15:
 931              		.size	LPS22HB_SwReset, .-LPS22HB_SwReset
 932 052e 00BF     		.align	2
 933              		.p2align 4,,15
 934              		.global	LPS22HB_MemoryBoot
 935              		.thumb
 936              		.thumb_func
 937              		.type	LPS22HB_MemoryBoot, %function
 938              	LPS22HB_MemoryBoot:
 939              	.LFB16:
 940              		.loc 1 432 0
 941              		.cfi_startproc
 942              		@ args = 0, pretend = 0, frame = 16
 943              		@ frame_needed = 0, uses_anonymous_args = 0
 944 0530 00B5     		push	{lr}
 945              		.cfi_def_cfa_offset 4
 946              		.cfi_offset 14, -4
 947 0532 85B0     		sub	sp, sp, #20
 948              		.cfi_def_cfa_offset 24
 949 0534 0190     		str	r0, [sp, #4]
 950              		.loc 1 435 0
 951 0536 0DF10F03 		add	r3, sp, #15
 952 053a 0198     		ldr	r0, [sp, #4]
ARM GAS  /tmp/ccBklucm.s 			page 18


 953 053c 1121     		movs	r1, #17
 954 053e 0122     		movs	r2, #1
 955 0540 FFF7FEFF 		bl	LPS22HB_ReadReg
 956 0544 0346     		mov	r3, r0
 957 0546 002B     		cmp	r3, #0
 958 0548 01D0     		beq	.L69
 959              		.loc 1 436 0
 960 054a 0123     		movs	r3, #1
 961 054c 13E0     		b	.L72
 962              	.L69:
 963              		.loc 1 438 0
 964 054e 9DF80F30 		ldrb	r3, [sp, #15]	@ zero_extendqisi2
 965 0552 63F07F03 		orn	r3, r3, #127
 966 0556 DBB2     		uxtb	r3, r3
 967 0558 8DF80F30 		strb	r3, [sp, #15]
 968              		.loc 1 440 0
 969 055c 0DF10F03 		add	r3, sp, #15
 970 0560 0198     		ldr	r0, [sp, #4]
 971 0562 1121     		movs	r1, #17
 972 0564 0122     		movs	r2, #1
 973 0566 FFF7FEFF 		bl	LPS22HB_WriteReg
 974 056a 0346     		mov	r3, r0
 975 056c 002B     		cmp	r3, #0
 976 056e 01D0     		beq	.L71
 977              		.loc 1 441 0
 978 0570 0123     		movs	r3, #1
 979 0572 00E0     		b	.L72
 980              	.L71:
 981              		.loc 1 443 0
 982 0574 0023     		movs	r3, #0
 983              	.L72:
 984              		.loc 1 444 0
 985 0576 1846     		mov	r0, r3
 986 0578 05B0     		add	sp, sp, #20
 987              		@ sp needed
 988 057a 5DF804FB 		ldr	pc, [sp], #4
 989              		.cfi_endproc
 990              	.LFE16:
 991              		.size	LPS22HB_MemoryBoot, .-LPS22HB_MemoryBoot
 992 057e 00BF     		.align	2
 993              		.p2align 4,,15
 994              		.global	LPS22HB_SwResetAndMemoryBoot
 995              		.thumb
 996              		.thumb_func
 997              		.type	LPS22HB_SwResetAndMemoryBoot, %function
 998              	LPS22HB_SwResetAndMemoryBoot:
 999              	.LFB17:
 1000              		.loc 1 454 0
 1001              		.cfi_startproc
 1002              		@ args = 0, pretend = 0, frame = 16
 1003              		@ frame_needed = 0, uses_anonymous_args = 0
 1004 0580 00B5     		push	{lr}
 1005              		.cfi_def_cfa_offset 4
 1006              		.cfi_offset 14, -4
 1007 0582 85B0     		sub	sp, sp, #20
 1008              		.cfi_def_cfa_offset 24
 1009 0584 0190     		str	r0, [sp, #4]
ARM GAS  /tmp/ccBklucm.s 			page 19


 1010              		.loc 1 457 0
 1011 0586 0DF10F03 		add	r3, sp, #15
 1012 058a 0198     		ldr	r0, [sp, #4]
 1013 058c 1121     		movs	r1, #17
 1014 058e 0122     		movs	r2, #1
 1015 0590 FFF7FEFF 		bl	LPS22HB_ReadReg
 1016 0594 0346     		mov	r3, r0
 1017 0596 002B     		cmp	r3, #0
 1018 0598 01D0     		beq	.L74
 1019              		.loc 1 458 0
 1020 059a 0123     		movs	r3, #1
 1021 059c 13E0     		b	.L77
 1022              	.L74:
 1023              		.loc 1 460 0
 1024 059e 9DF80F30 		ldrb	r3, [sp, #15]	@ zero_extendqisi2
 1025 05a2 63F07B03 		orn	r3, r3, #123
 1026 05a6 DBB2     		uxtb	r3, r3
 1027 05a8 8DF80F30 		strb	r3, [sp, #15]
 1028              		.loc 1 462 0
 1029 05ac 0DF10F03 		add	r3, sp, #15
 1030 05b0 0198     		ldr	r0, [sp, #4]
 1031 05b2 1121     		movs	r1, #17
 1032 05b4 0122     		movs	r2, #1
 1033 05b6 FFF7FEFF 		bl	LPS22HB_WriteReg
 1034 05ba 0346     		mov	r3, r0
 1035 05bc 002B     		cmp	r3, #0
 1036 05be 01D0     		beq	.L76
 1037              		.loc 1 463 0
 1038 05c0 0123     		movs	r3, #1
 1039 05c2 00E0     		b	.L77
 1040              	.L76:
 1041              		.loc 1 465 0
 1042 05c4 0023     		movs	r3, #0
 1043              	.L77:
 1044              		.loc 1 466 0
 1045 05c6 1846     		mov	r0, r3
 1046 05c8 05B0     		add	sp, sp, #20
 1047              		@ sp needed
 1048 05ca 5DF804FB 		ldr	pc, [sp], #4
 1049              		.cfi_endproc
 1050              	.LFE17:
 1051              		.size	LPS22HB_SwResetAndMemoryBoot, .-LPS22HB_SwResetAndMemoryBoot
 1052 05ce 00BF     		.align	2
 1053              		.p2align 4,,15
 1054              		.global	LPS22HB_Set_FifoModeUse
 1055              		.thumb
 1056              		.thumb_func
 1057              		.type	LPS22HB_Set_FifoModeUse, %function
 1058              	LPS22HB_Set_FifoModeUse:
 1059              	.LFB18:
 1060              		.loc 1 476 0
 1061              		.cfi_startproc
 1062              		@ args = 0, pretend = 0, frame = 16
 1063              		@ frame_needed = 0, uses_anonymous_args = 0
 1064 05d0 00B5     		push	{lr}
 1065              		.cfi_def_cfa_offset 4
 1066              		.cfi_offset 14, -4
ARM GAS  /tmp/ccBklucm.s 			page 20


 1067 05d2 85B0     		sub	sp, sp, #20
 1068              		.cfi_def_cfa_offset 24
 1069 05d4 0190     		str	r0, [sp, #4]
 1070 05d6 0B46     		mov	r3, r1
 1071 05d8 8DF80330 		strb	r3, [sp, #3]
 1072              		.loc 1 481 0
 1073 05dc 0DF10F03 		add	r3, sp, #15
 1074 05e0 0198     		ldr	r0, [sp, #4]
 1075 05e2 1121     		movs	r1, #17
 1076 05e4 0122     		movs	r2, #1
 1077 05e6 FFF7FEFF 		bl	LPS22HB_ReadReg
 1078 05ea 0346     		mov	r3, r0
 1079 05ec 002B     		cmp	r3, #0
 1080 05ee 01D0     		beq	.L79
 1081              		.loc 1 482 0
 1082 05f0 0123     		movs	r3, #1
 1083 05f2 1FE0     		b	.L82
 1084              	.L79:
 1085              		.loc 1 484 0
 1086 05f4 9DF80F30 		ldrb	r3, [sp, #15]	@ zero_extendqisi2
 1087 05f8 23F04003 		bic	r3, r3, #64
 1088 05fc DBB2     		uxtb	r3, r3
 1089 05fe 8DF80F30 		strb	r3, [sp, #15]
 1090              		.loc 1 485 0
 1091 0602 9DF80330 		ldrb	r3, [sp, #3]	@ zero_extendqisi2
 1092 0606 9B01     		lsls	r3, r3, #6
 1093 0608 DAB2     		uxtb	r2, r3
 1094 060a 9DF80F30 		ldrb	r3, [sp, #15]	@ zero_extendqisi2
 1095 060e DBB2     		uxtb	r3, r3
 1096 0610 1343     		orrs	r3, r3, r2
 1097 0612 DBB2     		uxtb	r3, r3
 1098 0614 DBB2     		uxtb	r3, r3
 1099 0616 8DF80F30 		strb	r3, [sp, #15]
 1100              		.loc 1 487 0
 1101 061a 0DF10F03 		add	r3, sp, #15
 1102 061e 0198     		ldr	r0, [sp, #4]
 1103 0620 1121     		movs	r1, #17
 1104 0622 0122     		movs	r2, #1
 1105 0624 FFF7FEFF 		bl	LPS22HB_WriteReg
 1106 0628 0346     		mov	r3, r0
 1107 062a 002B     		cmp	r3, #0
 1108 062c 01D0     		beq	.L81
 1109              		.loc 1 488 0
 1110 062e 0123     		movs	r3, #1
 1111 0630 00E0     		b	.L82
 1112              	.L81:
 1113              		.loc 1 490 0
 1114 0632 0023     		movs	r3, #0
 1115              	.L82:
 1116              		.loc 1 491 0
 1117 0634 1846     		mov	r0, r3
 1118 0636 05B0     		add	sp, sp, #20
 1119              		@ sp needed
 1120 0638 5DF804FB 		ldr	pc, [sp], #4
 1121              		.cfi_endproc
 1122              	.LFE18:
 1123              		.size	LPS22HB_Set_FifoModeUse, .-LPS22HB_Set_FifoModeUse
ARM GAS  /tmp/ccBklucm.s 			page 21


 1124              		.align	2
 1125 063c AFF30080 		.p2align 4,,15
 1126              		.global	LPS22HB_Set_FifoWatermarkLevelUse
 1127              		.thumb
 1128              		.thumb_func
 1129              		.type	LPS22HB_Set_FifoWatermarkLevelUse, %function
 1130              	LPS22HB_Set_FifoWatermarkLevelUse:
 1131              	.LFB19:
 1132              		.loc 1 499 0
 1133              		.cfi_startproc
 1134              		@ args = 0, pretend = 0, frame = 16
 1135              		@ frame_needed = 0, uses_anonymous_args = 0
 1136 0640 00B5     		push	{lr}
 1137              		.cfi_def_cfa_offset 4
 1138              		.cfi_offset 14, -4
 1139 0642 85B0     		sub	sp, sp, #20
 1140              		.cfi_def_cfa_offset 24
 1141 0644 0190     		str	r0, [sp, #4]
 1142 0646 0B46     		mov	r3, r1
 1143 0648 8DF80330 		strb	r3, [sp, #3]
 1144              		.loc 1 504 0
 1145 064c 0DF10F03 		add	r3, sp, #15
 1146 0650 0198     		ldr	r0, [sp, #4]
 1147 0652 1121     		movs	r1, #17
 1148 0654 0122     		movs	r2, #1
 1149 0656 FFF7FEFF 		bl	LPS22HB_ReadReg
 1150 065a 0346     		mov	r3, r0
 1151 065c 002B     		cmp	r3, #0
 1152 065e 01D0     		beq	.L84
 1153              		.loc 1 505 0
 1154 0660 0123     		movs	r3, #1
 1155 0662 1FE0     		b	.L87
 1156              	.L84:
 1157              		.loc 1 507 0
 1158 0664 9DF80F30 		ldrb	r3, [sp, #15]	@ zero_extendqisi2
 1159 0668 23F02003 		bic	r3, r3, #32
 1160 066c DBB2     		uxtb	r3, r3
 1161 066e 8DF80F30 		strb	r3, [sp, #15]
 1162              		.loc 1 508 0
 1163 0672 9DF80330 		ldrb	r3, [sp, #3]	@ zero_extendqisi2
 1164 0676 5B01     		lsls	r3, r3, #5
 1165 0678 DAB2     		uxtb	r2, r3
 1166 067a 9DF80F30 		ldrb	r3, [sp, #15]	@ zero_extendqisi2
 1167 067e DBB2     		uxtb	r3, r3
 1168 0680 1343     		orrs	r3, r3, r2
 1169 0682 DBB2     		uxtb	r3, r3
 1170 0684 DBB2     		uxtb	r3, r3
 1171 0686 8DF80F30 		strb	r3, [sp, #15]
 1172              		.loc 1 510 0
 1173 068a 0DF10F03 		add	r3, sp, #15
 1174 068e 0198     		ldr	r0, [sp, #4]
 1175 0690 1121     		movs	r1, #17
 1176 0692 0122     		movs	r2, #1
 1177 0694 FFF7FEFF 		bl	LPS22HB_WriteReg
 1178 0698 0346     		mov	r3, r0
 1179 069a 002B     		cmp	r3, #0
 1180 069c 01D0     		beq	.L86
ARM GAS  /tmp/ccBklucm.s 			page 22


 1181              		.loc 1 511 0
 1182 069e 0123     		movs	r3, #1
 1183 06a0 00E0     		b	.L87
 1184              	.L86:
 1185              		.loc 1 513 0
 1186 06a2 0023     		movs	r3, #0
 1187              	.L87:
 1188              		.loc 1 514 0
 1189 06a4 1846     		mov	r0, r3
 1190 06a6 05B0     		add	sp, sp, #20
 1191              		@ sp needed
 1192 06a8 5DF804FB 		ldr	pc, [sp], #4
 1193              		.cfi_endproc
 1194              	.LFE19:
 1195              		.size	LPS22HB_Set_FifoWatermarkLevelUse, .-LPS22HB_Set_FifoWatermarkLevelUse
 1196              		.align	2
 1197 06ac AFF30080 		.p2align 4,,15
 1198              		.global	LPS22HB_Set_AutomaticIncrementRegAddress
 1199              		.thumb
 1200              		.thumb_func
 1201              		.type	LPS22HB_Set_AutomaticIncrementRegAddress, %function
 1202              	LPS22HB_Set_AutomaticIncrementRegAddress:
 1203              	.LFB20:
 1204              		.loc 1 523 0
 1205              		.cfi_startproc
 1206              		@ args = 0, pretend = 0, frame = 16
 1207              		@ frame_needed = 0, uses_anonymous_args = 0
 1208 06b0 00B5     		push	{lr}
 1209              		.cfi_def_cfa_offset 4
 1210              		.cfi_offset 14, -4
 1211 06b2 85B0     		sub	sp, sp, #20
 1212              		.cfi_def_cfa_offset 24
 1213 06b4 0190     		str	r0, [sp, #4]
 1214 06b6 0B46     		mov	r3, r1
 1215 06b8 8DF80330 		strb	r3, [sp, #3]
 1216              		.loc 1 529 0
 1217 06bc 0DF10F03 		add	r3, sp, #15
 1218 06c0 0198     		ldr	r0, [sp, #4]
 1219 06c2 1121     		movs	r1, #17
 1220 06c4 0122     		movs	r2, #1
 1221 06c6 FFF7FEFF 		bl	LPS22HB_ReadReg
 1222 06ca 0346     		mov	r3, r0
 1223 06cc 002B     		cmp	r3, #0
 1224 06ce 01D0     		beq	.L89
 1225              		.loc 1 530 0
 1226 06d0 0123     		movs	r3, #1
 1227 06d2 1FE0     		b	.L92
 1228              	.L89:
 1229              		.loc 1 532 0
 1230 06d4 9DF80F30 		ldrb	r3, [sp, #15]	@ zero_extendqisi2
 1231 06d8 23F01003 		bic	r3, r3, #16
 1232 06dc DBB2     		uxtb	r3, r3
 1233 06de 8DF80F30 		strb	r3, [sp, #15]
 1234              		.loc 1 533 0
 1235 06e2 9DF80330 		ldrb	r3, [sp, #3]	@ zero_extendqisi2
 1236 06e6 1B01     		lsls	r3, r3, #4
 1237 06e8 DAB2     		uxtb	r2, r3
ARM GAS  /tmp/ccBklucm.s 			page 23


 1238 06ea 9DF80F30 		ldrb	r3, [sp, #15]	@ zero_extendqisi2
 1239 06ee DBB2     		uxtb	r3, r3
 1240 06f0 1343     		orrs	r3, r3, r2
 1241 06f2 DBB2     		uxtb	r3, r3
 1242 06f4 DBB2     		uxtb	r3, r3
 1243 06f6 8DF80F30 		strb	r3, [sp, #15]
 1244              		.loc 1 535 0
 1245 06fa 0DF10F03 		add	r3, sp, #15
 1246 06fe 0198     		ldr	r0, [sp, #4]
 1247 0700 1121     		movs	r1, #17
 1248 0702 0122     		movs	r2, #1
 1249 0704 FFF7FEFF 		bl	LPS22HB_WriteReg
 1250 0708 0346     		mov	r3, r0
 1251 070a 002B     		cmp	r3, #0
 1252 070c 01D0     		beq	.L91
 1253              		.loc 1 536 0
 1254 070e 0123     		movs	r3, #1
 1255 0710 00E0     		b	.L92
 1256              	.L91:
 1257              		.loc 1 538 0
 1258 0712 0023     		movs	r3, #0
 1259              	.L92:
 1260              		.loc 1 540 0
 1261 0714 1846     		mov	r0, r3
 1262 0716 05B0     		add	sp, sp, #20
 1263              		@ sp needed
 1264 0718 5DF804FB 		ldr	pc, [sp], #4
 1265              		.cfi_endproc
 1266              	.LFE20:
 1267              		.size	LPS22HB_Set_AutomaticIncrementRegAddress, .-LPS22HB_Set_AutomaticIncrementRegAddress
 1268              		.align	2
 1269 071c AFF30080 		.p2align 4,,15
 1270              		.global	LPS22HB_Set_I2C
 1271              		.thumb
 1272              		.thumb_func
 1273              		.type	LPS22HB_Set_I2C, %function
 1274              	LPS22HB_Set_I2C:
 1275              	.LFB21:
 1276              		.loc 1 549 0
 1277              		.cfi_startproc
 1278              		@ args = 0, pretend = 0, frame = 16
 1279              		@ frame_needed = 0, uses_anonymous_args = 0
 1280 0720 00B5     		push	{lr}
 1281              		.cfi_def_cfa_offset 4
 1282              		.cfi_offset 14, -4
 1283 0722 85B0     		sub	sp, sp, #20
 1284              		.cfi_def_cfa_offset 24
 1285 0724 0190     		str	r0, [sp, #4]
 1286 0726 0B46     		mov	r3, r1
 1287 0728 8DF80330 		strb	r3, [sp, #3]
 1288              		.loc 1 554 0
 1289 072c 0DF10F03 		add	r3, sp, #15
 1290 0730 0198     		ldr	r0, [sp, #4]
 1291 0732 1121     		movs	r1, #17
 1292 0734 0122     		movs	r2, #1
 1293 0736 FFF7FEFF 		bl	LPS22HB_ReadReg
 1294 073a 0346     		mov	r3, r0
ARM GAS  /tmp/ccBklucm.s 			page 24


 1295 073c 002B     		cmp	r3, #0
 1296 073e 01D0     		beq	.L94
 1297              		.loc 1 555 0
 1298 0740 0123     		movs	r3, #1
 1299 0742 21E0     		b	.L97
 1300              	.L94:
 1301              		.loc 1 558 0
 1302 0744 9DF80F30 		ldrb	r3, [sp, #15]	@ zero_extendqisi2
 1303 0748 23F00803 		bic	r3, r3, #8
 1304 074c DBB2     		uxtb	r3, r3
 1305 074e 8DF80F30 		strb	r3, [sp, #15]
 1306              		.loc 1 559 0
 1307 0752 9DF80330 		ldrb	r3, [sp, #3]
 1308 0756 DB43     		mvns	r3, r3
 1309 0758 DBB2     		uxtb	r3, r3
 1310 075a DB00     		lsls	r3, r3, #3
 1311 075c DAB2     		uxtb	r2, r3
 1312 075e 9DF80F30 		ldrb	r3, [sp, #15]	@ zero_extendqisi2
 1313 0762 DBB2     		uxtb	r3, r3
 1314 0764 1343     		orrs	r3, r3, r2
 1315 0766 DBB2     		uxtb	r3, r3
 1316 0768 DBB2     		uxtb	r3, r3
 1317 076a 8DF80F30 		strb	r3, [sp, #15]
 1318              		.loc 1 561 0
 1319 076e 0DF10F03 		add	r3, sp, #15
 1320 0772 0198     		ldr	r0, [sp, #4]
 1321 0774 1121     		movs	r1, #17
 1322 0776 0122     		movs	r2, #1
 1323 0778 FFF7FEFF 		bl	LPS22HB_WriteReg
 1324 077c 0346     		mov	r3, r0
 1325 077e 002B     		cmp	r3, #0
 1326 0780 01D0     		beq	.L96
 1327              		.loc 1 562 0
 1328 0782 0123     		movs	r3, #1
 1329 0784 00E0     		b	.L97
 1330              	.L96:
 1331              		.loc 1 564 0
 1332 0786 0023     		movs	r3, #0
 1333              	.L97:
 1334              		.loc 1 565 0
 1335 0788 1846     		mov	r0, r3
 1336 078a 05B0     		add	sp, sp, #20
 1337              		@ sp needed
 1338 078c 5DF804FB 		ldr	pc, [sp], #4
 1339              		.cfi_endproc
 1340              	.LFE21:
 1341              		.size	LPS22HB_Set_I2C, .-LPS22HB_Set_I2C
 1342              		.align	2
 1343              		.p2align 4,,15
 1344              		.global	LPS22HB_StartOneShotMeasurement
 1345              		.thumb
 1346              		.thumb_func
 1347              		.type	LPS22HB_StartOneShotMeasurement, %function
 1348              	LPS22HB_StartOneShotMeasurement:
 1349              	.LFB22:
 1350              		.loc 1 576 0
 1351              		.cfi_startproc
ARM GAS  /tmp/ccBklucm.s 			page 25


 1352              		@ args = 0, pretend = 0, frame = 16
 1353              		@ frame_needed = 0, uses_anonymous_args = 0
 1354 0790 00B5     		push	{lr}
 1355              		.cfi_def_cfa_offset 4
 1356              		.cfi_offset 14, -4
 1357 0792 85B0     		sub	sp, sp, #20
 1358              		.cfi_def_cfa_offset 24
 1359 0794 0190     		str	r0, [sp, #4]
 1360              		.loc 1 579 0
 1361 0796 0DF10F03 		add	r3, sp, #15
 1362 079a 0198     		ldr	r0, [sp, #4]
 1363 079c 1121     		movs	r1, #17
 1364 079e 0122     		movs	r2, #1
 1365 07a0 FFF7FEFF 		bl	LPS22HB_ReadReg
 1366 07a4 0346     		mov	r3, r0
 1367 07a6 002B     		cmp	r3, #0
 1368 07a8 01D0     		beq	.L99
 1369              		.loc 1 580 0
 1370 07aa 0123     		movs	r3, #1
 1371 07ac 13E0     		b	.L102
 1372              	.L99:
 1373              		.loc 1 584 0
 1374 07ae 9DF80F30 		ldrb	r3, [sp, #15]	@ zero_extendqisi2
 1375 07b2 43F00103 		orr	r3, r3, #1
 1376 07b6 DBB2     		uxtb	r3, r3
 1377 07b8 8DF80F30 		strb	r3, [sp, #15]
 1378              		.loc 1 586 0
 1379 07bc 0DF10F03 		add	r3, sp, #15
 1380 07c0 0198     		ldr	r0, [sp, #4]
 1381 07c2 1121     		movs	r1, #17
 1382 07c4 0122     		movs	r2, #1
 1383 07c6 FFF7FEFF 		bl	LPS22HB_WriteReg
 1384 07ca 0346     		mov	r3, r0
 1385 07cc 002B     		cmp	r3, #0
 1386 07ce 01D0     		beq	.L101
 1387              		.loc 1 587 0
 1388 07d0 0123     		movs	r3, #1
 1389 07d2 00E0     		b	.L102
 1390              	.L101:
 1391              		.loc 1 589 0
 1392 07d4 0023     		movs	r3, #0
 1393              	.L102:
 1394              		.loc 1 591 0
 1395 07d6 1846     		mov	r0, r3
 1396 07d8 05B0     		add	sp, sp, #20
 1397              		@ sp needed
 1398 07da 5DF804FB 		ldr	pc, [sp], #4
 1399              		.cfi_endproc
 1400              	.LFE22:
 1401              		.size	LPS22HB_StartOneShotMeasurement, .-LPS22HB_StartOneShotMeasurement
 1402 07de 00BF     		.align	2
 1403              		.p2align 4,,15
 1404              		.global	LPS22HB_Set_InterruptActiveLevel
 1405              		.thumb
 1406              		.thumb_func
 1407              		.type	LPS22HB_Set_InterruptActiveLevel, %function
 1408              	LPS22HB_Set_InterruptActiveLevel:
ARM GAS  /tmp/ccBklucm.s 			page 26


 1409              	.LFB23:
 1410              		.loc 1 600 0
 1411              		.cfi_startproc
 1412              		@ args = 0, pretend = 0, frame = 16
 1413              		@ frame_needed = 0, uses_anonymous_args = 0
 1414 07e0 00B5     		push	{lr}
 1415              		.cfi_def_cfa_offset 4
 1416              		.cfi_offset 14, -4
 1417 07e2 85B0     		sub	sp, sp, #20
 1418              		.cfi_def_cfa_offset 24
 1419 07e4 0190     		str	r0, [sp, #4]
 1420 07e6 0B46     		mov	r3, r1
 1421 07e8 8DF80330 		strb	r3, [sp, #3]
 1422              		.loc 1 605 0
 1423 07ec 0DF10F03 		add	r3, sp, #15
 1424 07f0 0198     		ldr	r0, [sp, #4]
 1425 07f2 1221     		movs	r1, #18
 1426 07f4 0122     		movs	r2, #1
 1427 07f6 FFF7FEFF 		bl	LPS22HB_ReadReg
 1428 07fa 0346     		mov	r3, r0
 1429 07fc 002B     		cmp	r3, #0
 1430 07fe 01D0     		beq	.L104
 1431              		.loc 1 606 0
 1432 0800 0123     		movs	r3, #1
 1433 0802 1BE0     		b	.L107
 1434              	.L104:
 1435              		.loc 1 608 0
 1436 0804 9DF80F30 		ldrb	r3, [sp, #15]	@ zero_extendqisi2
 1437 0808 03F07F03 		and	r3, r3, #127
 1438 080c DBB2     		uxtb	r3, r3
 1439 080e 8DF80F30 		strb	r3, [sp, #15]
 1440              		.loc 1 609 0
 1441 0812 9DF80F20 		ldrb	r2, [sp, #15]	@ zero_extendqisi2
 1442 0816 9DF80330 		ldrb	r3, [sp, #3]
 1443 081a 1343     		orrs	r3, r3, r2
 1444 081c DBB2     		uxtb	r3, r3
 1445 081e 8DF80F30 		strb	r3, [sp, #15]
 1446              		.loc 1 611 0
 1447 0822 0DF10F03 		add	r3, sp, #15
 1448 0826 0198     		ldr	r0, [sp, #4]
 1449 0828 1221     		movs	r1, #18
 1450 082a 0122     		movs	r2, #1
 1451 082c FFF7FEFF 		bl	LPS22HB_WriteReg
 1452 0830 0346     		mov	r3, r0
 1453 0832 002B     		cmp	r3, #0
 1454 0834 01D0     		beq	.L106
 1455              		.loc 1 612 0
 1456 0836 0123     		movs	r3, #1
 1457 0838 00E0     		b	.L107
 1458              	.L106:
 1459              		.loc 1 614 0
 1460 083a 0023     		movs	r3, #0
 1461              	.L107:
 1462              		.loc 1 615 0
 1463 083c 1846     		mov	r0, r3
 1464 083e 05B0     		add	sp, sp, #20
 1465              		@ sp needed
ARM GAS  /tmp/ccBklucm.s 			page 27


 1466 0840 5DF804FB 		ldr	pc, [sp], #4
 1467              		.cfi_endproc
 1468              	.LFE23:
 1469              		.size	LPS22HB_Set_InterruptActiveLevel, .-LPS22HB_Set_InterruptActiveLevel
 1470              		.align	2
 1471 0844 AFF30080 		.p2align 4,,15
 1471      AFF30080 
 1471      AFF30080 
 1472              		.global	LPS22HB_Set_InterruptOutputType
 1473              		.thumb
 1474              		.thumb_func
 1475              		.type	LPS22HB_Set_InterruptOutputType, %function
 1476              	LPS22HB_Set_InterruptOutputType:
 1477              	.LFB24:
 1478              		.loc 1 625 0
 1479              		.cfi_startproc
 1480              		@ args = 0, pretend = 0, frame = 16
 1481              		@ frame_needed = 0, uses_anonymous_args = 0
 1482 0850 00B5     		push	{lr}
 1483              		.cfi_def_cfa_offset 4
 1484              		.cfi_offset 14, -4
 1485 0852 85B0     		sub	sp, sp, #20
 1486              		.cfi_def_cfa_offset 24
 1487 0854 0190     		str	r0, [sp, #4]
 1488 0856 0B46     		mov	r3, r1
 1489 0858 8DF80330 		strb	r3, [sp, #3]
 1490              		.loc 1 630 0
 1491 085c 0DF10F03 		add	r3, sp, #15
 1492 0860 0198     		ldr	r0, [sp, #4]
 1493 0862 1221     		movs	r1, #18
 1494 0864 0122     		movs	r2, #1
 1495 0866 FFF7FEFF 		bl	LPS22HB_ReadReg
 1496 086a 0346     		mov	r3, r0
 1497 086c 002B     		cmp	r3, #0
 1498 086e 01D0     		beq	.L109
 1499              		.loc 1 631 0
 1500 0870 0123     		movs	r3, #1
 1501 0872 1BE0     		b	.L112
 1502              	.L109:
 1503              		.loc 1 633 0
 1504 0874 9DF80F30 		ldrb	r3, [sp, #15]	@ zero_extendqisi2
 1505 0878 23F04003 		bic	r3, r3, #64
 1506 087c DBB2     		uxtb	r3, r3
 1507 087e 8DF80F30 		strb	r3, [sp, #15]
 1508              		.loc 1 634 0
 1509 0882 9DF80F20 		ldrb	r2, [sp, #15]	@ zero_extendqisi2
 1510 0886 9DF80330 		ldrb	r3, [sp, #3]
 1511 088a 1343     		orrs	r3, r3, r2
 1512 088c DBB2     		uxtb	r3, r3
 1513 088e 8DF80F30 		strb	r3, [sp, #15]
 1514              		.loc 1 636 0
 1515 0892 0DF10F03 		add	r3, sp, #15
 1516 0896 0198     		ldr	r0, [sp, #4]
 1517 0898 1221     		movs	r1, #18
 1518 089a 0122     		movs	r2, #1
 1519 089c FFF7FEFF 		bl	LPS22HB_WriteReg
 1520 08a0 0346     		mov	r3, r0
ARM GAS  /tmp/ccBklucm.s 			page 28


 1521 08a2 002B     		cmp	r3, #0
 1522 08a4 01D0     		beq	.L111
 1523              		.loc 1 637 0
 1524 08a6 0123     		movs	r3, #1
 1525 08a8 00E0     		b	.L112
 1526              	.L111:
 1527              		.loc 1 639 0
 1528 08aa 0023     		movs	r3, #0
 1529              	.L112:
 1530              		.loc 1 640 0
 1531 08ac 1846     		mov	r0, r3
 1532 08ae 05B0     		add	sp, sp, #20
 1533              		@ sp needed
 1534 08b0 5DF804FB 		ldr	pc, [sp], #4
 1535              		.cfi_endproc
 1536              	.LFE24:
 1537              		.size	LPS22HB_Set_InterruptOutputType, .-LPS22HB_Set_InterruptOutputType
 1538              		.align	2
 1539 08b4 AFF30080 		.p2align 4,,15
 1539      AFF30080 
 1539      AFF30080 
 1540              		.global	LPS22HB_Set_InterruptControlConfig
 1541              		.thumb
 1542              		.thumb_func
 1543              		.type	LPS22HB_Set_InterruptControlConfig, %function
 1544              	LPS22HB_Set_InterruptControlConfig:
 1545              	.LFB25:
 1546              		.loc 1 649 0
 1547              		.cfi_startproc
 1548              		@ args = 0, pretend = 0, frame = 16
 1549              		@ frame_needed = 0, uses_anonymous_args = 0
 1550 08c0 00B5     		push	{lr}
 1551              		.cfi_def_cfa_offset 4
 1552              		.cfi_offset 14, -4
 1553 08c2 85B0     		sub	sp, sp, #20
 1554              		.cfi_def_cfa_offset 24
 1555 08c4 0190     		str	r0, [sp, #4]
 1556 08c6 0B46     		mov	r3, r1
 1557 08c8 8DF80330 		strb	r3, [sp, #3]
 1558              		.loc 1 654 0
 1559 08cc 0DF10F03 		add	r3, sp, #15
 1560 08d0 0198     		ldr	r0, [sp, #4]
 1561 08d2 1221     		movs	r1, #18
 1562 08d4 0122     		movs	r2, #1
 1563 08d6 FFF7FEFF 		bl	LPS22HB_ReadReg
 1564 08da 0346     		mov	r3, r0
 1565 08dc 002B     		cmp	r3, #0
 1566 08de 01D0     		beq	.L114
 1567              		.loc 1 655 0
 1568 08e0 0123     		movs	r3, #1
 1569 08e2 1BE0     		b	.L117
 1570              	.L114:
 1571              		.loc 1 657 0
 1572 08e4 9DF80F30 		ldrb	r3, [sp, #15]	@ zero_extendqisi2
 1573 08e8 23F00303 		bic	r3, r3, #3
 1574 08ec DBB2     		uxtb	r3, r3
 1575 08ee 8DF80F30 		strb	r3, [sp, #15]
ARM GAS  /tmp/ccBklucm.s 			page 29


 1576              		.loc 1 658 0
 1577 08f2 9DF80F20 		ldrb	r2, [sp, #15]	@ zero_extendqisi2
 1578 08f6 9DF80330 		ldrb	r3, [sp, #3]
 1579 08fa 1343     		orrs	r3, r3, r2
 1580 08fc DBB2     		uxtb	r3, r3
 1581 08fe 8DF80F30 		strb	r3, [sp, #15]
 1582              		.loc 1 660 0
 1583 0902 0DF10F03 		add	r3, sp, #15
 1584 0906 0198     		ldr	r0, [sp, #4]
 1585 0908 1221     		movs	r1, #18
 1586 090a 0122     		movs	r2, #1
 1587 090c FFF7FEFF 		bl	LPS22HB_WriteReg
 1588 0910 0346     		mov	r3, r0
 1589 0912 002B     		cmp	r3, #0
 1590 0914 01D0     		beq	.L116
 1591              		.loc 1 661 0
 1592 0916 0123     		movs	r3, #1
 1593 0918 00E0     		b	.L117
 1594              	.L116:
 1595              		.loc 1 663 0
 1596 091a 0023     		movs	r3, #0
 1597              	.L117:
 1598              		.loc 1 664 0
 1599 091c 1846     		mov	r0, r3
 1600 091e 05B0     		add	sp, sp, #20
 1601              		@ sp needed
 1602 0920 5DF804FB 		ldr	pc, [sp], #4
 1603              		.cfi_endproc
 1604              	.LFE25:
 1605              		.size	LPS22HB_Set_InterruptControlConfig, .-LPS22HB_Set_InterruptControlConfig
 1606              		.align	2
 1607 0924 AFF30080 		.p2align 4,,15
 1607      AFF30080 
 1607      AFF30080 
 1608              		.global	LPS22HB_Set_DRDYInterrupt
 1609              		.thumb
 1610              		.thumb_func
 1611              		.type	LPS22HB_Set_DRDYInterrupt, %function
 1612              	LPS22HB_Set_DRDYInterrupt:
 1613              	.LFB26:
 1614              		.loc 1 674 0
 1615              		.cfi_startproc
 1616              		@ args = 0, pretend = 0, frame = 16
 1617              		@ frame_needed = 0, uses_anonymous_args = 0
 1618 0930 00B5     		push	{lr}
 1619              		.cfi_def_cfa_offset 4
 1620              		.cfi_offset 14, -4
 1621 0932 85B0     		sub	sp, sp, #20
 1622              		.cfi_def_cfa_offset 24
 1623 0934 0190     		str	r0, [sp, #4]
 1624 0936 0B46     		mov	r3, r1
 1625 0938 8DF80330 		strb	r3, [sp, #3]
 1626              		.loc 1 680 0
 1627 093c 0DF10F03 		add	r3, sp, #15
 1628 0940 0198     		ldr	r0, [sp, #4]
 1629 0942 1221     		movs	r1, #18
 1630 0944 0122     		movs	r2, #1
ARM GAS  /tmp/ccBklucm.s 			page 30


 1631 0946 FFF7FEFF 		bl	LPS22HB_ReadReg
 1632 094a 0346     		mov	r3, r0
 1633 094c 002B     		cmp	r3, #0
 1634 094e 01D0     		beq	.L119
 1635              		.loc 1 681 0
 1636 0950 0123     		movs	r3, #1
 1637 0952 1FE0     		b	.L122
 1638              	.L119:
 1639              		.loc 1 683 0
 1640 0954 9DF80F30 		ldrb	r3, [sp, #15]	@ zero_extendqisi2
 1641 0958 23F00403 		bic	r3, r3, #4
 1642 095c DBB2     		uxtb	r3, r3
 1643 095e 8DF80F30 		strb	r3, [sp, #15]
 1644              		.loc 1 684 0
 1645 0962 9DF80330 		ldrb	r3, [sp, #3]	@ zero_extendqisi2
 1646 0966 9B00     		lsls	r3, r3, #2
 1647 0968 DAB2     		uxtb	r2, r3
 1648 096a 9DF80F30 		ldrb	r3, [sp, #15]	@ zero_extendqisi2
 1649 096e DBB2     		uxtb	r3, r3
 1650 0970 1343     		orrs	r3, r3, r2
 1651 0972 DBB2     		uxtb	r3, r3
 1652 0974 DBB2     		uxtb	r3, r3
 1653 0976 8DF80F30 		strb	r3, [sp, #15]
 1654              		.loc 1 686 0
 1655 097a 0DF10F03 		add	r3, sp, #15
 1656 097e 0198     		ldr	r0, [sp, #4]
 1657 0980 1221     		movs	r1, #18
 1658 0982 0122     		movs	r2, #1
 1659 0984 FFF7FEFF 		bl	LPS22HB_WriteReg
 1660 0988 0346     		mov	r3, r0
 1661 098a 002B     		cmp	r3, #0
 1662 098c 01D0     		beq	.L121
 1663              		.loc 1 687 0
 1664 098e 0123     		movs	r3, #1
 1665 0990 00E0     		b	.L122
 1666              	.L121:
 1667              		.loc 1 689 0
 1668 0992 0023     		movs	r3, #0
 1669              	.L122:
 1670              		.loc 1 690 0
 1671 0994 1846     		mov	r0, r3
 1672 0996 05B0     		add	sp, sp, #20
 1673              		@ sp needed
 1674 0998 5DF804FB 		ldr	pc, [sp], #4
 1675              		.cfi_endproc
 1676              	.LFE26:
 1677              		.size	LPS22HB_Set_DRDYInterrupt, .-LPS22HB_Set_DRDYInterrupt
 1678              		.align	2
 1679 099c AFF30080 		.p2align 4,,15
 1680              		.global	LPS22HB_Set_FIFO_OVR_Interrupt
 1681              		.thumb
 1682              		.thumb_func
 1683              		.type	LPS22HB_Set_FIFO_OVR_Interrupt, %function
 1684              	LPS22HB_Set_FIFO_OVR_Interrupt:
 1685              	.LFB27:
 1686              		.loc 1 699 0
 1687              		.cfi_startproc
ARM GAS  /tmp/ccBklucm.s 			page 31


 1688              		@ args = 0, pretend = 0, frame = 16
 1689              		@ frame_needed = 0, uses_anonymous_args = 0
 1690 09a0 00B5     		push	{lr}
 1691              		.cfi_def_cfa_offset 4
 1692              		.cfi_offset 14, -4
 1693 09a2 85B0     		sub	sp, sp, #20
 1694              		.cfi_def_cfa_offset 24
 1695 09a4 0190     		str	r0, [sp, #4]
 1696 09a6 0B46     		mov	r3, r1
 1697 09a8 8DF80330 		strb	r3, [sp, #3]
 1698              		.loc 1 705 0
 1699 09ac 0DF10F03 		add	r3, sp, #15
 1700 09b0 0198     		ldr	r0, [sp, #4]
 1701 09b2 1221     		movs	r1, #18
 1702 09b4 0122     		movs	r2, #1
 1703 09b6 FFF7FEFF 		bl	LPS22HB_ReadReg
 1704 09ba 0346     		mov	r3, r0
 1705 09bc 002B     		cmp	r3, #0
 1706 09be 01D0     		beq	.L124
 1707              		.loc 1 706 0
 1708 09c0 0123     		movs	r3, #1
 1709 09c2 1FE0     		b	.L127
 1710              	.L124:
 1711              		.loc 1 708 0
 1712 09c4 9DF80F30 		ldrb	r3, [sp, #15]	@ zero_extendqisi2
 1713 09c8 23F00803 		bic	r3, r3, #8
 1714 09cc DBB2     		uxtb	r3, r3
 1715 09ce 8DF80F30 		strb	r3, [sp, #15]
 1716              		.loc 1 709 0
 1717 09d2 9DF80330 		ldrb	r3, [sp, #3]	@ zero_extendqisi2
 1718 09d6 DB00     		lsls	r3, r3, #3
 1719 09d8 DAB2     		uxtb	r2, r3
 1720 09da 9DF80F30 		ldrb	r3, [sp, #15]	@ zero_extendqisi2
 1721 09de DBB2     		uxtb	r3, r3
 1722 09e0 1343     		orrs	r3, r3, r2
 1723 09e2 DBB2     		uxtb	r3, r3
 1724 09e4 DBB2     		uxtb	r3, r3
 1725 09e6 8DF80F30 		strb	r3, [sp, #15]
 1726              		.loc 1 711 0
 1727 09ea 0DF10F03 		add	r3, sp, #15
 1728 09ee 0198     		ldr	r0, [sp, #4]
 1729 09f0 1221     		movs	r1, #18
 1730 09f2 0122     		movs	r2, #1
 1731 09f4 FFF7FEFF 		bl	LPS22HB_WriteReg
 1732 09f8 0346     		mov	r3, r0
 1733 09fa 002B     		cmp	r3, #0
 1734 09fc 01D0     		beq	.L126
 1735              		.loc 1 712 0
 1736 09fe 0123     		movs	r3, #1
 1737 0a00 00E0     		b	.L127
 1738              	.L126:
 1739              		.loc 1 714 0
 1740 0a02 0023     		movs	r3, #0
 1741              	.L127:
 1742              		.loc 1 715 0
 1743 0a04 1846     		mov	r0, r3
 1744 0a06 05B0     		add	sp, sp, #20
ARM GAS  /tmp/ccBklucm.s 			page 32


 1745              		@ sp needed
 1746 0a08 5DF804FB 		ldr	pc, [sp], #4
 1747              		.cfi_endproc
 1748              	.LFE27:
 1749              		.size	LPS22HB_Set_FIFO_OVR_Interrupt, .-LPS22HB_Set_FIFO_OVR_Interrupt
 1750              		.align	2
 1751 0a0c AFF30080 		.p2align 4,,15
 1752              		.global	LPS22HB_Set_FIFO_FTH_Interrupt
 1753              		.thumb
 1754              		.thumb_func
 1755              		.type	LPS22HB_Set_FIFO_FTH_Interrupt, %function
 1756              	LPS22HB_Set_FIFO_FTH_Interrupt:
 1757              	.LFB28:
 1758              		.loc 1 724 0
 1759              		.cfi_startproc
 1760              		@ args = 0, pretend = 0, frame = 16
 1761              		@ frame_needed = 0, uses_anonymous_args = 0
 1762 0a10 00B5     		push	{lr}
 1763              		.cfi_def_cfa_offset 4
 1764              		.cfi_offset 14, -4
 1765 0a12 85B0     		sub	sp, sp, #20
 1766              		.cfi_def_cfa_offset 24
 1767 0a14 0190     		str	r0, [sp, #4]
 1768 0a16 0B46     		mov	r3, r1
 1769 0a18 8DF80330 		strb	r3, [sp, #3]
 1770              		.loc 1 729 0
 1771 0a1c 0DF10F03 		add	r3, sp, #15
 1772 0a20 0198     		ldr	r0, [sp, #4]
 1773 0a22 1221     		movs	r1, #18
 1774 0a24 0122     		movs	r2, #1
 1775 0a26 FFF7FEFF 		bl	LPS22HB_ReadReg
 1776 0a2a 0346     		mov	r3, r0
 1777 0a2c 002B     		cmp	r3, #0
 1778 0a2e 01D0     		beq	.L129
 1779              		.loc 1 730 0
 1780 0a30 0123     		movs	r3, #1
 1781 0a32 1FE0     		b	.L132
 1782              	.L129:
 1783              		.loc 1 732 0
 1784 0a34 9DF80F30 		ldrb	r3, [sp, #15]	@ zero_extendqisi2
 1785 0a38 23F01003 		bic	r3, r3, #16
 1786 0a3c DBB2     		uxtb	r3, r3
 1787 0a3e 8DF80F30 		strb	r3, [sp, #15]
 1788              		.loc 1 733 0
 1789 0a42 9DF80330 		ldrb	r3, [sp, #3]	@ zero_extendqisi2
 1790 0a46 1B01     		lsls	r3, r3, #4
 1791 0a48 DAB2     		uxtb	r2, r3
 1792 0a4a 9DF80F30 		ldrb	r3, [sp, #15]	@ zero_extendqisi2
 1793 0a4e DBB2     		uxtb	r3, r3
 1794 0a50 1343     		orrs	r3, r3, r2
 1795 0a52 DBB2     		uxtb	r3, r3
 1796 0a54 DBB2     		uxtb	r3, r3
 1797 0a56 8DF80F30 		strb	r3, [sp, #15]
 1798              		.loc 1 735 0
 1799 0a5a 0DF10F03 		add	r3, sp, #15
 1800 0a5e 0198     		ldr	r0, [sp, #4]
 1801 0a60 1221     		movs	r1, #18
ARM GAS  /tmp/ccBklucm.s 			page 33


 1802 0a62 0122     		movs	r2, #1
 1803 0a64 FFF7FEFF 		bl	LPS22HB_WriteReg
 1804 0a68 0346     		mov	r3, r0
 1805 0a6a 002B     		cmp	r3, #0
 1806 0a6c 01D0     		beq	.L131
 1807              		.loc 1 736 0
 1808 0a6e 0123     		movs	r3, #1
 1809 0a70 00E0     		b	.L132
 1810              	.L131:
 1811              		.loc 1 738 0
 1812 0a72 0023     		movs	r3, #0
 1813              	.L132:
 1814              		.loc 1 739 0
 1815 0a74 1846     		mov	r0, r3
 1816 0a76 05B0     		add	sp, sp, #20
 1817              		@ sp needed
 1818 0a78 5DF804FB 		ldr	pc, [sp], #4
 1819              		.cfi_endproc
 1820              	.LFE28:
 1821              		.size	LPS22HB_Set_FIFO_FTH_Interrupt, .-LPS22HB_Set_FIFO_FTH_Interrupt
 1822              		.align	2
 1823 0a7c AFF30080 		.p2align 4,,15
 1824              		.global	LPS22HB_Set_FIFO_FULL_Interrupt
 1825              		.thumb
 1826              		.thumb_func
 1827              		.type	LPS22HB_Set_FIFO_FULL_Interrupt, %function
 1828              	LPS22HB_Set_FIFO_FULL_Interrupt:
 1829              	.LFB29:
 1830              		.loc 1 748 0
 1831              		.cfi_startproc
 1832              		@ args = 0, pretend = 0, frame = 16
 1833              		@ frame_needed = 0, uses_anonymous_args = 0
 1834 0a80 00B5     		push	{lr}
 1835              		.cfi_def_cfa_offset 4
 1836              		.cfi_offset 14, -4
 1837 0a82 85B0     		sub	sp, sp, #20
 1838              		.cfi_def_cfa_offset 24
 1839 0a84 0190     		str	r0, [sp, #4]
 1840 0a86 0B46     		mov	r3, r1
 1841 0a88 8DF80330 		strb	r3, [sp, #3]
 1842              		.loc 1 753 0
 1843 0a8c 0DF10F03 		add	r3, sp, #15
 1844 0a90 0198     		ldr	r0, [sp, #4]
 1845 0a92 1221     		movs	r1, #18
 1846 0a94 0122     		movs	r2, #1
 1847 0a96 FFF7FEFF 		bl	LPS22HB_ReadReg
 1848 0a9a 0346     		mov	r3, r0
 1849 0a9c 002B     		cmp	r3, #0
 1850 0a9e 01D0     		beq	.L134
 1851              		.loc 1 754 0
 1852 0aa0 0123     		movs	r3, #1
 1853 0aa2 1FE0     		b	.L137
 1854              	.L134:
 1855              		.loc 1 756 0
 1856 0aa4 9DF80F30 		ldrb	r3, [sp, #15]	@ zero_extendqisi2
 1857 0aa8 23F02003 		bic	r3, r3, #32
 1858 0aac DBB2     		uxtb	r3, r3
ARM GAS  /tmp/ccBklucm.s 			page 34


 1859 0aae 8DF80F30 		strb	r3, [sp, #15]
 1860              		.loc 1 757 0
 1861 0ab2 9DF80330 		ldrb	r3, [sp, #3]	@ zero_extendqisi2
 1862 0ab6 5B01     		lsls	r3, r3, #5
 1863 0ab8 DAB2     		uxtb	r2, r3
 1864 0aba 9DF80F30 		ldrb	r3, [sp, #15]	@ zero_extendqisi2
 1865 0abe DBB2     		uxtb	r3, r3
 1866 0ac0 1343     		orrs	r3, r3, r2
 1867 0ac2 DBB2     		uxtb	r3, r3
 1868 0ac4 DBB2     		uxtb	r3, r3
 1869 0ac6 8DF80F30 		strb	r3, [sp, #15]
 1870              		.loc 1 759 0
 1871 0aca 0DF10F03 		add	r3, sp, #15
 1872 0ace 0198     		ldr	r0, [sp, #4]
 1873 0ad0 1221     		movs	r1, #18
 1874 0ad2 0122     		movs	r2, #1
 1875 0ad4 FFF7FEFF 		bl	LPS22HB_WriteReg
 1876 0ad8 0346     		mov	r3, r0
 1877 0ada 002B     		cmp	r3, #0
 1878 0adc 01D0     		beq	.L136
 1879              		.loc 1 760 0
 1880 0ade 0123     		movs	r3, #1
 1881 0ae0 00E0     		b	.L137
 1882              	.L136:
 1883              		.loc 1 762 0
 1884 0ae2 0023     		movs	r3, #0
 1885              	.L137:
 1886              		.loc 1 763 0
 1887 0ae4 1846     		mov	r0, r3
 1888 0ae6 05B0     		add	sp, sp, #20
 1889              		@ sp needed
 1890 0ae8 5DF804FB 		ldr	pc, [sp], #4
 1891              		.cfi_endproc
 1892              	.LFE29:
 1893              		.size	LPS22HB_Set_FIFO_FULL_Interrupt, .-LPS22HB_Set_FIFO_FULL_Interrupt
 1894              		.align	2
 1895 0aec AFF30080 		.p2align 4,,15
 1896              		.global	LPS22HB_Set_AutoRifP
 1897              		.thumb
 1898              		.thumb_func
 1899              		.type	LPS22HB_Set_AutoRifP, %function
 1900              	LPS22HB_Set_AutoRifP:
 1901              	.LFB30:
 1902              		.loc 1 776 0
 1903              		.cfi_startproc
 1904              		@ args = 0, pretend = 0, frame = 16
 1905              		@ frame_needed = 0, uses_anonymous_args = 0
 1906 0af0 00B5     		push	{lr}
 1907              		.cfi_def_cfa_offset 4
 1908              		.cfi_offset 14, -4
 1909 0af2 85B0     		sub	sp, sp, #20
 1910              		.cfi_def_cfa_offset 24
 1911 0af4 0190     		str	r0, [sp, #4]
 1912              		.loc 1 779 0
 1913 0af6 0DF10F03 		add	r3, sp, #15
 1914 0afa 0198     		ldr	r0, [sp, #4]
 1915 0afc 0B21     		movs	r1, #11
ARM GAS  /tmp/ccBklucm.s 			page 35


 1916 0afe 0122     		movs	r2, #1
 1917 0b00 FFF7FEFF 		bl	LPS22HB_ReadReg
 1918 0b04 0346     		mov	r3, r0
 1919 0b06 002B     		cmp	r3, #0
 1920 0b08 01D0     		beq	.L139
 1921              		.loc 1 780 0
 1922 0b0a 0123     		movs	r3, #1
 1923 0b0c 13E0     		b	.L142
 1924              	.L139:
 1925              		.loc 1 782 0
 1926 0b0e 9DF80F30 		ldrb	r3, [sp, #15]	@ zero_extendqisi2
 1927 0b12 63F07F03 		orn	r3, r3, #127
 1928 0b16 DBB2     		uxtb	r3, r3
 1929 0b18 8DF80F30 		strb	r3, [sp, #15]
 1930              		.loc 1 784 0
 1931 0b1c 0DF10F03 		add	r3, sp, #15
 1932 0b20 0198     		ldr	r0, [sp, #4]
 1933 0b22 0B21     		movs	r1, #11
 1934 0b24 0122     		movs	r2, #1
 1935 0b26 FFF7FEFF 		bl	LPS22HB_WriteReg
 1936 0b2a 0346     		mov	r3, r0
 1937 0b2c 002B     		cmp	r3, #0
 1938 0b2e 01D0     		beq	.L141
 1939              		.loc 1 785 0
 1940 0b30 0123     		movs	r3, #1
 1941 0b32 00E0     		b	.L142
 1942              	.L141:
 1943              		.loc 1 787 0
 1944 0b34 0023     		movs	r3, #0
 1945              	.L142:
 1946              		.loc 1 788 0
 1947 0b36 1846     		mov	r0, r3
 1948 0b38 05B0     		add	sp, sp, #20
 1949              		@ sp needed
 1950 0b3a 5DF804FB 		ldr	pc, [sp], #4
 1951              		.cfi_endproc
 1952              	.LFE30:
 1953              		.size	LPS22HB_Set_AutoRifP, .-LPS22HB_Set_AutoRifP
 1954 0b3e 00BF     		.align	2
 1955              		.p2align 4,,15
 1956              		.global	LPS22HB_ResetAutoRifP
 1957              		.thumb
 1958              		.thumb_func
 1959              		.type	LPS22HB_ResetAutoRifP, %function
 1960              	LPS22HB_ResetAutoRifP:
 1961              	.LFB31:
 1962              		.loc 1 797 0
 1963              		.cfi_startproc
 1964              		@ args = 0, pretend = 0, frame = 16
 1965              		@ frame_needed = 0, uses_anonymous_args = 0
 1966 0b40 00B5     		push	{lr}
 1967              		.cfi_def_cfa_offset 4
 1968              		.cfi_offset 14, -4
 1969 0b42 85B0     		sub	sp, sp, #20
 1970              		.cfi_def_cfa_offset 24
 1971 0b44 0190     		str	r0, [sp, #4]
 1972              		.loc 1 800 0
ARM GAS  /tmp/ccBklucm.s 			page 36


 1973 0b46 0DF10F03 		add	r3, sp, #15
 1974 0b4a 0198     		ldr	r0, [sp, #4]
 1975 0b4c 0B21     		movs	r1, #11
 1976 0b4e 0122     		movs	r2, #1
 1977 0b50 FFF7FEFF 		bl	LPS22HB_ReadReg
 1978 0b54 0346     		mov	r3, r0
 1979 0b56 002B     		cmp	r3, #0
 1980 0b58 01D0     		beq	.L144
 1981              		.loc 1 801 0
 1982 0b5a 0123     		movs	r3, #1
 1983 0b5c 13E0     		b	.L147
 1984              	.L144:
 1985              		.loc 1 804 0
 1986 0b5e 9DF80F30 		ldrb	r3, [sp, #15]	@ zero_extendqisi2
 1987 0b62 43F04003 		orr	r3, r3, #64
 1988 0b66 DBB2     		uxtb	r3, r3
 1989 0b68 8DF80F30 		strb	r3, [sp, #15]
 1990              		.loc 1 806 0
 1991 0b6c 0DF10F03 		add	r3, sp, #15
 1992 0b70 0198     		ldr	r0, [sp, #4]
 1993 0b72 0B21     		movs	r1, #11
 1994 0b74 0122     		movs	r2, #1
 1995 0b76 FFF7FEFF 		bl	LPS22HB_WriteReg
 1996 0b7a 0346     		mov	r3, r0
 1997 0b7c 002B     		cmp	r3, #0
 1998 0b7e 01D0     		beq	.L146
 1999              		.loc 1 807 0
 2000 0b80 0123     		movs	r3, #1
 2001 0b82 00E0     		b	.L147
 2002              	.L146:
 2003              		.loc 1 809 0
 2004 0b84 0023     		movs	r3, #0
 2005              	.L147:
 2006              		.loc 1 810 0
 2007 0b86 1846     		mov	r0, r3
 2008 0b88 05B0     		add	sp, sp, #20
 2009              		@ sp needed
 2010 0b8a 5DF804FB 		ldr	pc, [sp], #4
 2011              		.cfi_endproc
 2012              	.LFE31:
 2013              		.size	LPS22HB_ResetAutoRifP, .-LPS22HB_ResetAutoRifP
 2014 0b8e 00BF     		.align	2
 2015              		.p2align 4,,15
 2016              		.global	LPS22HB_Set_AutoZeroFunction
 2017              		.thumb
 2018              		.thumb_func
 2019              		.type	LPS22HB_Set_AutoZeroFunction, %function
 2020              	LPS22HB_Set_AutoZeroFunction:
 2021              	.LFB32:
 2022              		.loc 1 820 0
 2023              		.cfi_startproc
 2024              		@ args = 0, pretend = 0, frame = 16
 2025              		@ frame_needed = 0, uses_anonymous_args = 0
 2026 0b90 00B5     		push	{lr}
 2027              		.cfi_def_cfa_offset 4
 2028              		.cfi_offset 14, -4
 2029 0b92 85B0     		sub	sp, sp, #20
ARM GAS  /tmp/ccBklucm.s 			page 37


 2030              		.cfi_def_cfa_offset 24
 2031 0b94 0190     		str	r0, [sp, #4]
 2032              		.loc 1 823 0
 2033 0b96 0DF10F03 		add	r3, sp, #15
 2034 0b9a 0198     		ldr	r0, [sp, #4]
 2035 0b9c 0B21     		movs	r1, #11
 2036 0b9e 0122     		movs	r2, #1
 2037 0ba0 FFF7FEFF 		bl	LPS22HB_ReadReg
 2038 0ba4 0346     		mov	r3, r0
 2039 0ba6 002B     		cmp	r3, #0
 2040 0ba8 01D0     		beq	.L149
 2041              		.loc 1 824 0
 2042 0baa 0123     		movs	r3, #1
 2043 0bac 13E0     		b	.L152
 2044              	.L149:
 2045              		.loc 1 826 0
 2046 0bae 9DF80F30 		ldrb	r3, [sp, #15]	@ zero_extendqisi2
 2047 0bb2 43F02003 		orr	r3, r3, #32
 2048 0bb6 DBB2     		uxtb	r3, r3
 2049 0bb8 8DF80F30 		strb	r3, [sp, #15]
 2050              		.loc 1 828 0
 2051 0bbc 0DF10F03 		add	r3, sp, #15
 2052 0bc0 0198     		ldr	r0, [sp, #4]
 2053 0bc2 0B21     		movs	r1, #11
 2054 0bc4 0122     		movs	r2, #1
 2055 0bc6 FFF7FEFF 		bl	LPS22HB_WriteReg
 2056 0bca 0346     		mov	r3, r0
 2057 0bcc 002B     		cmp	r3, #0
 2058 0bce 01D0     		beq	.L151
 2059              		.loc 1 829 0
 2060 0bd0 0123     		movs	r3, #1
 2061 0bd2 00E0     		b	.L152
 2062              	.L151:
 2063              		.loc 1 831 0
 2064 0bd4 0023     		movs	r3, #0
 2065              	.L152:
 2066              		.loc 1 832 0
 2067 0bd6 1846     		mov	r0, r3
 2068 0bd8 05B0     		add	sp, sp, #20
 2069              		@ sp needed
 2070 0bda 5DF804FB 		ldr	pc, [sp], #4
 2071              		.cfi_endproc
 2072              	.LFE32:
 2073              		.size	LPS22HB_Set_AutoZeroFunction, .-LPS22HB_Set_AutoZeroFunction
 2074 0bde 00BF     		.align	2
 2075              		.p2align 4,,15
 2076              		.global	LPS22HB_ResetAutoZeroFunction
 2077              		.thumb
 2078              		.thumb_func
 2079              		.type	LPS22HB_ResetAutoZeroFunction, %function
 2080              	LPS22HB_ResetAutoZeroFunction:
 2081              	.LFB33:
 2082              		.loc 1 842 0
 2083              		.cfi_startproc
 2084              		@ args = 0, pretend = 0, frame = 16
 2085              		@ frame_needed = 0, uses_anonymous_args = 0
 2086 0be0 00B5     		push	{lr}
ARM GAS  /tmp/ccBklucm.s 			page 38


 2087              		.cfi_def_cfa_offset 4
 2088              		.cfi_offset 14, -4
 2089 0be2 85B0     		sub	sp, sp, #20
 2090              		.cfi_def_cfa_offset 24
 2091 0be4 0190     		str	r0, [sp, #4]
 2092              		.loc 1 845 0
 2093 0be6 0DF10F03 		add	r3, sp, #15
 2094 0bea 0198     		ldr	r0, [sp, #4]
 2095 0bec 0B21     		movs	r1, #11
 2096 0bee 0122     		movs	r2, #1
 2097 0bf0 FFF7FEFF 		bl	LPS22HB_ReadReg
 2098 0bf4 0346     		mov	r3, r0
 2099 0bf6 002B     		cmp	r3, #0
 2100 0bf8 01D0     		beq	.L154
 2101              		.loc 1 846 0
 2102 0bfa 0123     		movs	r3, #1
 2103 0bfc 13E0     		b	.L157
 2104              	.L154:
 2105              		.loc 1 850 0
 2106 0bfe 9DF80F30 		ldrb	r3, [sp, #15]	@ zero_extendqisi2
 2107 0c02 43F01003 		orr	r3, r3, #16
 2108 0c06 DBB2     		uxtb	r3, r3
 2109 0c08 8DF80F30 		strb	r3, [sp, #15]
 2110              		.loc 1 852 0
 2111 0c0c 0DF10F03 		add	r3, sp, #15
 2112 0c10 0198     		ldr	r0, [sp, #4]
 2113 0c12 0B21     		movs	r1, #11
 2114 0c14 0122     		movs	r2, #1
 2115 0c16 FFF7FEFF 		bl	LPS22HB_WriteReg
 2116 0c1a 0346     		mov	r3, r0
 2117 0c1c 002B     		cmp	r3, #0
 2118 0c1e 01D0     		beq	.L156
 2119              		.loc 1 853 0
 2120 0c20 0123     		movs	r3, #1
 2121 0c22 00E0     		b	.L157
 2122              	.L156:
 2123              		.loc 1 856 0
 2124 0c24 0023     		movs	r3, #0
 2125              	.L157:
 2126              		.loc 1 857 0
 2127 0c26 1846     		mov	r0, r3
 2128 0c28 05B0     		add	sp, sp, #20
 2129              		@ sp needed
 2130 0c2a 5DF804FB 		ldr	pc, [sp], #4
 2131              		.cfi_endproc
 2132              	.LFE33:
 2133              		.size	LPS22HB_ResetAutoZeroFunction, .-LPS22HB_ResetAutoZeroFunction
 2134 0c2e 00BF     		.align	2
 2135              		.p2align 4,,15
 2136              		.global	LPS22HB_Set_InterruptDifferentialGeneration
 2137              		.thumb
 2138              		.thumb_func
 2139              		.type	LPS22HB_Set_InterruptDifferentialGeneration, %function
 2140              	LPS22HB_Set_InterruptDifferentialGeneration:
 2141              	.LFB34:
 2142              		.loc 1 867 0
 2143              		.cfi_startproc
ARM GAS  /tmp/ccBklucm.s 			page 39


 2144              		@ args = 0, pretend = 0, frame = 16
 2145              		@ frame_needed = 0, uses_anonymous_args = 0
 2146 0c30 00B5     		push	{lr}
 2147              		.cfi_def_cfa_offset 4
 2148              		.cfi_offset 14, -4
 2149 0c32 85B0     		sub	sp, sp, #20
 2150              		.cfi_def_cfa_offset 24
 2151 0c34 0190     		str	r0, [sp, #4]
 2152 0c36 0B46     		mov	r3, r1
 2153 0c38 8DF80330 		strb	r3, [sp, #3]
 2154              		.loc 1 872 0
 2155 0c3c 0DF10F03 		add	r3, sp, #15
 2156 0c40 0198     		ldr	r0, [sp, #4]
 2157 0c42 0B21     		movs	r1, #11
 2158 0c44 0122     		movs	r2, #1
 2159 0c46 FFF7FEFF 		bl	LPS22HB_ReadReg
 2160 0c4a 0346     		mov	r3, r0
 2161 0c4c 002B     		cmp	r3, #0
 2162 0c4e 01D0     		beq	.L159
 2163              		.loc 1 873 0
 2164 0c50 0123     		movs	r3, #1
 2165 0c52 1FE0     		b	.L162
 2166              	.L159:
 2167              		.loc 1 875 0
 2168 0c54 9DF80F30 		ldrb	r3, [sp, #15]	@ zero_extendqisi2
 2169 0c58 23F00803 		bic	r3, r3, #8
 2170 0c5c DBB2     		uxtb	r3, r3
 2171 0c5e 8DF80F30 		strb	r3, [sp, #15]
 2172              		.loc 1 876 0
 2173 0c62 9DF80330 		ldrb	r3, [sp, #3]	@ zero_extendqisi2
 2174 0c66 DB00     		lsls	r3, r3, #3
 2175 0c68 DAB2     		uxtb	r2, r3
 2176 0c6a 9DF80F30 		ldrb	r3, [sp, #15]	@ zero_extendqisi2
 2177 0c6e DBB2     		uxtb	r3, r3
 2178 0c70 1343     		orrs	r3, r3, r2
 2179 0c72 DBB2     		uxtb	r3, r3
 2180 0c74 DBB2     		uxtb	r3, r3
 2181 0c76 8DF80F30 		strb	r3, [sp, #15]
 2182              		.loc 1 878 0
 2183 0c7a 0DF10F03 		add	r3, sp, #15
 2184 0c7e 0198     		ldr	r0, [sp, #4]
 2185 0c80 0B21     		movs	r1, #11
 2186 0c82 0122     		movs	r2, #1
 2187 0c84 FFF7FEFF 		bl	LPS22HB_WriteReg
 2188 0c88 0346     		mov	r3, r0
 2189 0c8a 002B     		cmp	r3, #0
 2190 0c8c 01D0     		beq	.L161
 2191              		.loc 1 879 0
 2192 0c8e 0123     		movs	r3, #1
 2193 0c90 00E0     		b	.L162
 2194              	.L161:
 2195              		.loc 1 881 0
 2196 0c92 0023     		movs	r3, #0
 2197              	.L162:
 2198              		.loc 1 882 0
 2199 0c94 1846     		mov	r0, r3
 2200 0c96 05B0     		add	sp, sp, #20
ARM GAS  /tmp/ccBklucm.s 			page 40


 2201              		@ sp needed
 2202 0c98 5DF804FB 		ldr	pc, [sp], #4
 2203              		.cfi_endproc
 2204              	.LFE34:
 2205              		.size	LPS22HB_Set_InterruptDifferentialGeneration, .-LPS22HB_Set_InterruptDifferentialGeneration
 2206              		.align	2
 2207 0c9c AFF30080 		.p2align 4,,15
 2208              		.global	LPS22HB_Get_InterruptDifferentialGeneration
 2209              		.thumb
 2210              		.thumb_func
 2211              		.type	LPS22HB_Get_InterruptDifferentialGeneration, %function
 2212              	LPS22HB_Get_InterruptDifferentialGeneration:
 2213              	.LFB35:
 2214              		.loc 1 892 0
 2215              		.cfi_startproc
 2216              		@ args = 0, pretend = 0, frame = 16
 2217              		@ frame_needed = 0, uses_anonymous_args = 0
 2218 0ca0 00B5     		push	{lr}
 2219              		.cfi_def_cfa_offset 4
 2220              		.cfi_offset 14, -4
 2221 0ca2 85B0     		sub	sp, sp, #20
 2222              		.cfi_def_cfa_offset 24
 2223 0ca4 0190     		str	r0, [sp, #4]
 2224 0ca6 0091     		str	r1, [sp]
 2225              		.loc 1 895 0
 2226 0ca8 0DF10F03 		add	r3, sp, #15
 2227 0cac 0198     		ldr	r0, [sp, #4]
 2228 0cae 0B21     		movs	r1, #11
 2229 0cb0 0122     		movs	r2, #1
 2230 0cb2 FFF7FEFF 		bl	LPS22HB_ReadReg
 2231 0cb6 0346     		mov	r3, r0
 2232 0cb8 002B     		cmp	r3, #0
 2233 0cba 01D0     		beq	.L164
 2234              		.loc 1 896 0
 2235 0cbc 0123     		movs	r3, #1
 2236 0cbe 08E0     		b	.L166
 2237              	.L164:
 2238              		.loc 1 898 0
 2239 0cc0 9DF80F30 		ldrb	r3, [sp, #15]	@ zero_extendqisi2
 2240 0cc4 03F00803 		and	r3, r3, #8
 2241 0cc8 DB10     		asrs	r3, r3, #3
 2242 0cca DAB2     		uxtb	r2, r3
 2243 0ccc 009B     		ldr	r3, [sp]
 2244 0cce 1A70     		strb	r2, [r3]
 2245              		.loc 1 900 0
 2246 0cd0 0023     		movs	r3, #0
 2247              	.L166:
 2248              		.loc 1 901 0
 2249 0cd2 1846     		mov	r0, r3
 2250 0cd4 05B0     		add	sp, sp, #20
 2251              		@ sp needed
 2252 0cd6 5DF804FB 		ldr	pc, [sp], #4
 2253              		.cfi_endproc
 2254              	.LFE35:
 2255              		.size	LPS22HB_Get_InterruptDifferentialGeneration, .-LPS22HB_Get_InterruptDifferentialGeneration
 2256 0cda 00BF     		.align	2
 2257 0cdc AFF30080 		.p2align 4,,15
ARM GAS  /tmp/ccBklucm.s 			page 41


 2258              		.global	LPS22HB_LatchInterruptRequest
 2259              		.thumb
 2260              		.thumb_func
 2261              		.type	LPS22HB_LatchInterruptRequest, %function
 2262              	LPS22HB_LatchInterruptRequest:
 2263              	.LFB36:
 2264              		.loc 1 910 0
 2265              		.cfi_startproc
 2266              		@ args = 0, pretend = 0, frame = 16
 2267              		@ frame_needed = 0, uses_anonymous_args = 0
 2268 0ce0 00B5     		push	{lr}
 2269              		.cfi_def_cfa_offset 4
 2270              		.cfi_offset 14, -4
 2271 0ce2 85B0     		sub	sp, sp, #20
 2272              		.cfi_def_cfa_offset 24
 2273 0ce4 0190     		str	r0, [sp, #4]
 2274 0ce6 0B46     		mov	r3, r1
 2275 0ce8 8DF80330 		strb	r3, [sp, #3]
 2276              		.loc 1 915 0
 2277 0cec 0DF10F03 		add	r3, sp, #15
 2278 0cf0 0198     		ldr	r0, [sp, #4]
 2279 0cf2 0B21     		movs	r1, #11
 2280 0cf4 0122     		movs	r2, #1
 2281 0cf6 FFF7FEFF 		bl	LPS22HB_ReadReg
 2282 0cfa 0346     		mov	r3, r0
 2283 0cfc 002B     		cmp	r3, #0
 2284 0cfe 01D0     		beq	.L168
 2285              		.loc 1 916 0
 2286 0d00 0123     		movs	r3, #1
 2287 0d02 1FE0     		b	.L171
 2288              	.L168:
 2289              		.loc 1 918 0
 2290 0d04 9DF80F30 		ldrb	r3, [sp, #15]	@ zero_extendqisi2
 2291 0d08 23F00403 		bic	r3, r3, #4
 2292 0d0c DBB2     		uxtb	r3, r3
 2293 0d0e 8DF80F30 		strb	r3, [sp, #15]
 2294              		.loc 1 919 0
 2295 0d12 9DF80330 		ldrb	r3, [sp, #3]	@ zero_extendqisi2
 2296 0d16 9B00     		lsls	r3, r3, #2
 2297 0d18 DAB2     		uxtb	r2, r3
 2298 0d1a 9DF80F30 		ldrb	r3, [sp, #15]	@ zero_extendqisi2
 2299 0d1e DBB2     		uxtb	r3, r3
 2300 0d20 1343     		orrs	r3, r3, r2
 2301 0d22 DBB2     		uxtb	r3, r3
 2302 0d24 DBB2     		uxtb	r3, r3
 2303 0d26 8DF80F30 		strb	r3, [sp, #15]
 2304              		.loc 1 921 0
 2305 0d2a 0DF10F03 		add	r3, sp, #15
 2306 0d2e 0198     		ldr	r0, [sp, #4]
 2307 0d30 0B21     		movs	r1, #11
 2308 0d32 0122     		movs	r2, #1
 2309 0d34 FFF7FEFF 		bl	LPS22HB_WriteReg
 2310 0d38 0346     		mov	r3, r0
 2311 0d3a 002B     		cmp	r3, #0
 2312 0d3c 01D0     		beq	.L170
 2313              		.loc 1 922 0
 2314 0d3e 0123     		movs	r3, #1
ARM GAS  /tmp/ccBklucm.s 			page 42


 2315 0d40 00E0     		b	.L171
 2316              	.L170:
 2317              		.loc 1 924 0
 2318 0d42 0023     		movs	r3, #0
 2319              	.L171:
 2320              		.loc 1 925 0
 2321 0d44 1846     		mov	r0, r3
 2322 0d46 05B0     		add	sp, sp, #20
 2323              		@ sp needed
 2324 0d48 5DF804FB 		ldr	pc, [sp], #4
 2325              		.cfi_endproc
 2326              	.LFE36:
 2327              		.size	LPS22HB_LatchInterruptRequest, .-LPS22HB_LatchInterruptRequest
 2328              		.align	2
 2329 0d4c AFF30080 		.p2align 4,,15
 2330              		.global	LPS22HB_Set_PLE
 2331              		.thumb
 2332              		.thumb_func
 2333              		.type	LPS22HB_Set_PLE, %function
 2334              	LPS22HB_Set_PLE:
 2335              	.LFB37:
 2336              		.loc 1 936 0
 2337              		.cfi_startproc
 2338              		@ args = 0, pretend = 0, frame = 16
 2339              		@ frame_needed = 0, uses_anonymous_args = 0
 2340 0d50 00B5     		push	{lr}
 2341              		.cfi_def_cfa_offset 4
 2342              		.cfi_offset 14, -4
 2343 0d52 85B0     		sub	sp, sp, #20
 2344              		.cfi_def_cfa_offset 24
 2345 0d54 0190     		str	r0, [sp, #4]
 2346 0d56 0B46     		mov	r3, r1
 2347 0d58 8DF80330 		strb	r3, [sp, #3]
 2348              		.loc 1 941 0
 2349 0d5c 0DF10F03 		add	r3, sp, #15
 2350 0d60 0198     		ldr	r0, [sp, #4]
 2351 0d62 0B21     		movs	r1, #11
 2352 0d64 0122     		movs	r2, #1
 2353 0d66 FFF7FEFF 		bl	LPS22HB_ReadReg
 2354 0d6a 0346     		mov	r3, r0
 2355 0d6c 002B     		cmp	r3, #0
 2356 0d6e 01D0     		beq	.L173
 2357              		.loc 1 942 0
 2358 0d70 0123     		movs	r3, #1
 2359 0d72 1FE0     		b	.L176
 2360              	.L173:
 2361              		.loc 1 944 0
 2362 0d74 9DF80F30 		ldrb	r3, [sp, #15]	@ zero_extendqisi2
 2363 0d78 23F00203 		bic	r3, r3, #2
 2364 0d7c DBB2     		uxtb	r3, r3
 2365 0d7e 8DF80F30 		strb	r3, [sp, #15]
 2366              		.loc 1 945 0
 2367 0d82 9DF80330 		ldrb	r3, [sp, #3]	@ zero_extendqisi2
 2368 0d86 5B00     		lsls	r3, r3, #1
 2369 0d88 DAB2     		uxtb	r2, r3
 2370 0d8a 9DF80F30 		ldrb	r3, [sp, #15]	@ zero_extendqisi2
 2371 0d8e DBB2     		uxtb	r3, r3
ARM GAS  /tmp/ccBklucm.s 			page 43


 2372 0d90 1343     		orrs	r3, r3, r2
 2373 0d92 DBB2     		uxtb	r3, r3
 2374 0d94 DBB2     		uxtb	r3, r3
 2375 0d96 8DF80F30 		strb	r3, [sp, #15]
 2376              		.loc 1 947 0
 2377 0d9a 0DF10F03 		add	r3, sp, #15
 2378 0d9e 0198     		ldr	r0, [sp, #4]
 2379 0da0 0B21     		movs	r1, #11
 2380 0da2 0122     		movs	r2, #1
 2381 0da4 FFF7FEFF 		bl	LPS22HB_WriteReg
 2382 0da8 0346     		mov	r3, r0
 2383 0daa 002B     		cmp	r3, #0
 2384 0dac 01D0     		beq	.L175
 2385              		.loc 1 948 0
 2386 0dae 0123     		movs	r3, #1
 2387 0db0 00E0     		b	.L176
 2388              	.L175:
 2389              		.loc 1 950 0
 2390 0db2 0023     		movs	r3, #0
 2391              	.L176:
 2392              		.loc 1 951 0
 2393 0db4 1846     		mov	r0, r3
 2394 0db6 05B0     		add	sp, sp, #20
 2395              		@ sp needed
 2396 0db8 5DF804FB 		ldr	pc, [sp], #4
 2397              		.cfi_endproc
 2398              	.LFE37:
 2399              		.size	LPS22HB_Set_PLE, .-LPS22HB_Set_PLE
 2400              		.align	2
 2401 0dbc AFF30080 		.p2align 4,,15
 2402              		.global	LPS22HB_Set_PHE
 2403              		.thumb
 2404              		.thumb_func
 2405              		.type	LPS22HB_Set_PHE, %function
 2406              	LPS22HB_Set_PHE:
 2407              	.LFB38:
 2408              		.loc 1 960 0
 2409              		.cfi_startproc
 2410              		@ args = 0, pretend = 0, frame = 16
 2411              		@ frame_needed = 0, uses_anonymous_args = 0
 2412 0dc0 00B5     		push	{lr}
 2413              		.cfi_def_cfa_offset 4
 2414              		.cfi_offset 14, -4
 2415 0dc2 85B0     		sub	sp, sp, #20
 2416              		.cfi_def_cfa_offset 24
 2417 0dc4 0190     		str	r0, [sp, #4]
 2418 0dc6 0B46     		mov	r3, r1
 2419 0dc8 8DF80330 		strb	r3, [sp, #3]
 2420              		.loc 1 965 0
 2421 0dcc 0DF10F03 		add	r3, sp, #15
 2422 0dd0 0198     		ldr	r0, [sp, #4]
 2423 0dd2 0B21     		movs	r1, #11
 2424 0dd4 0122     		movs	r2, #1
 2425 0dd6 FFF7FEFF 		bl	LPS22HB_ReadReg
 2426 0dda 0346     		mov	r3, r0
 2427 0ddc 002B     		cmp	r3, #0
 2428 0dde 01D0     		beq	.L178
ARM GAS  /tmp/ccBklucm.s 			page 44


 2429              		.loc 1 966 0
 2430 0de0 0123     		movs	r3, #1
 2431 0de2 1BE0     		b	.L181
 2432              	.L178:
 2433              		.loc 1 968 0
 2434 0de4 9DF80F30 		ldrb	r3, [sp, #15]	@ zero_extendqisi2
 2435 0de8 23F00103 		bic	r3, r3, #1
 2436 0dec DBB2     		uxtb	r3, r3
 2437 0dee 8DF80F30 		strb	r3, [sp, #15]
 2438              		.loc 1 969 0
 2439 0df2 9DF80F20 		ldrb	r2, [sp, #15]	@ zero_extendqisi2
 2440 0df6 9DF80330 		ldrb	r3, [sp, #3]
 2441 0dfa 1343     		orrs	r3, r3, r2
 2442 0dfc DBB2     		uxtb	r3, r3
 2443 0dfe 8DF80F30 		strb	r3, [sp, #15]
 2444              		.loc 1 971 0
 2445 0e02 0DF10F03 		add	r3, sp, #15
 2446 0e06 0198     		ldr	r0, [sp, #4]
 2447 0e08 0B21     		movs	r1, #11
 2448 0e0a 0122     		movs	r2, #1
 2449 0e0c FFF7FEFF 		bl	LPS22HB_WriteReg
 2450 0e10 0346     		mov	r3, r0
 2451 0e12 002B     		cmp	r3, #0
 2452 0e14 01D0     		beq	.L180
 2453              		.loc 1 972 0
 2454 0e16 0123     		movs	r3, #1
 2455 0e18 00E0     		b	.L181
 2456              	.L180:
 2457              		.loc 1 974 0
 2458 0e1a 0023     		movs	r3, #0
 2459              	.L181:
 2460              		.loc 1 975 0
 2461 0e1c 1846     		mov	r0, r3
 2462 0e1e 05B0     		add	sp, sp, #20
 2463              		@ sp needed
 2464 0e20 5DF804FB 		ldr	pc, [sp], #4
 2465              		.cfi_endproc
 2466              	.LFE38:
 2467              		.size	LPS22HB_Set_PHE, .-LPS22HB_Set_PHE
 2468              		.align	2
 2469 0e24 AFF30080 		.p2align 4,,15
 2469      AFF30080 
 2469      AFF30080 
 2470              		.global	LPS22HB_Get_InterruptDifferentialEventStatus
 2471              		.thumb
 2472              		.thumb_func
 2473              		.type	LPS22HB_Get_InterruptDifferentialEventStatus, %function
 2474              	LPS22HB_Get_InterruptDifferentialEventStatus:
 2475              	.LFB39:
 2476              		.loc 1 986 0
 2477              		.cfi_startproc
 2478              		@ args = 0, pretend = 0, frame = 16
 2479              		@ frame_needed = 0, uses_anonymous_args = 0
 2480 0e30 00B5     		push	{lr}
 2481              		.cfi_def_cfa_offset 4
 2482              		.cfi_offset 14, -4
 2483 0e32 85B0     		sub	sp, sp, #20
ARM GAS  /tmp/ccBklucm.s 			page 45


 2484              		.cfi_def_cfa_offset 24
 2485 0e34 0190     		str	r0, [sp, #4]
 2486 0e36 0091     		str	r1, [sp]
 2487              		.loc 1 989 0
 2488 0e38 0DF10F03 		add	r3, sp, #15
 2489 0e3c 0198     		ldr	r0, [sp, #4]
 2490 0e3e 2521     		movs	r1, #37
 2491 0e40 0122     		movs	r2, #1
 2492 0e42 FFF7FEFF 		bl	LPS22HB_ReadReg
 2493 0e46 0346     		mov	r3, r0
 2494 0e48 002B     		cmp	r3, #0
 2495 0e4a 01D0     		beq	.L183
 2496              		.loc 1 990 0
 2497 0e4c 0123     		movs	r3, #1
 2498 0e4e 1DE0     		b	.L185
 2499              	.L183:
 2500              		.loc 1 992 0
 2501 0e50 9DF80F30 		ldrb	r3, [sp, #15]	@ zero_extendqisi2
 2502 0e54 03F00103 		and	r3, r3, #1
 2503 0e58 DAB2     		uxtb	r2, r3
 2504 0e5a 009B     		ldr	r3, [sp]
 2505 0e5c 1A70     		strb	r2, [r3]
 2506              		.loc 1 993 0
 2507 0e5e 9DF80F30 		ldrb	r3, [sp, #15]	@ zero_extendqisi2
 2508 0e62 03F00203 		and	r3, r3, #2
 2509 0e66 5B10     		asrs	r3, r3, #1
 2510 0e68 DAB2     		uxtb	r2, r3
 2511 0e6a 009B     		ldr	r3, [sp]
 2512 0e6c 5A70     		strb	r2, [r3, #1]
 2513              		.loc 1 994 0
 2514 0e6e 9DF80F30 		ldrb	r3, [sp, #15]	@ zero_extendqisi2
 2515 0e72 03F00403 		and	r3, r3, #4
 2516 0e76 9B10     		asrs	r3, r3, #2
 2517 0e78 DAB2     		uxtb	r2, r3
 2518 0e7a 009B     		ldr	r3, [sp]
 2519 0e7c 9A70     		strb	r2, [r3, #2]
 2520              		.loc 1 995 0
 2521 0e7e 9DF80F30 		ldrb	r3, [sp, #15]	@ zero_extendqisi2
 2522 0e82 DB09     		lsrs	r3, r3, #7
 2523 0e84 DAB2     		uxtb	r2, r3
 2524 0e86 009B     		ldr	r3, [sp]
 2525 0e88 DA70     		strb	r2, [r3, #3]
 2526              		.loc 1 997 0
 2527 0e8a 0023     		movs	r3, #0
 2528              	.L185:
 2529              		.loc 1 998 0
 2530 0e8c 1846     		mov	r0, r3
 2531 0e8e 05B0     		add	sp, sp, #20
 2532              		@ sp needed
 2533 0e90 5DF804FB 		ldr	pc, [sp], #4
 2534              		.cfi_endproc
 2535              	.LFE39:
 2536              		.size	LPS22HB_Get_InterruptDifferentialEventStatus, .-LPS22HB_Get_InterruptDifferentialEventStatus
 2537              		.align	2
 2538 0e94 AFF30080 		.p2align 4,,15
 2538      AFF30080 
 2538      AFF30080 
ARM GAS  /tmp/ccBklucm.s 			page 46


 2539              		.global	LPS22HB_Get_DataStatus
 2540              		.thumb
 2541              		.thumb_func
 2542              		.type	LPS22HB_Get_DataStatus, %function
 2543              	LPS22HB_Get_DataStatus:
 2544              	.LFB40:
 2545              		.loc 1 1007 0
 2546              		.cfi_startproc
 2547              		@ args = 0, pretend = 0, frame = 16
 2548              		@ frame_needed = 0, uses_anonymous_args = 0
 2549 0ea0 00B5     		push	{lr}
 2550              		.cfi_def_cfa_offset 4
 2551              		.cfi_offset 14, -4
 2552 0ea2 85B0     		sub	sp, sp, #20
 2553              		.cfi_def_cfa_offset 24
 2554 0ea4 0190     		str	r0, [sp, #4]
 2555 0ea6 0091     		str	r1, [sp]
 2556              		.loc 1 1010 0
 2557 0ea8 0DF10F03 		add	r3, sp, #15
 2558 0eac 0198     		ldr	r0, [sp, #4]
 2559 0eae 2721     		movs	r1, #39
 2560 0eb0 0122     		movs	r2, #1
 2561 0eb2 FFF7FEFF 		bl	LPS22HB_ReadReg
 2562 0eb6 0346     		mov	r3, r0
 2563 0eb8 002B     		cmp	r3, #0
 2564 0eba 01D0     		beq	.L187
 2565              		.loc 1 1011 0
 2566 0ebc 0123     		movs	r3, #1
 2567 0ebe 1EE0     		b	.L189
 2568              	.L187:
 2569              		.loc 1 1013 0
 2570 0ec0 9DF80F30 		ldrb	r3, [sp, #15]	@ zero_extendqisi2
 2571 0ec4 03F00103 		and	r3, r3, #1
 2572 0ec8 DAB2     		uxtb	r2, r3
 2573 0eca 009B     		ldr	r3, [sp]
 2574 0ecc 5A70     		strb	r2, [r3, #1]
 2575              		.loc 1 1014 0
 2576 0ece 9DF80F30 		ldrb	r3, [sp, #15]	@ zero_extendqisi2
 2577 0ed2 03F00203 		and	r3, r3, #2
 2578 0ed6 DAB2     		uxtb	r2, r3
 2579 0ed8 009B     		ldr	r3, [sp]
 2580 0eda 1A70     		strb	r2, [r3]
 2581              		.loc 1 1015 0
 2582 0edc 9DF80F30 		ldrb	r3, [sp, #15]	@ zero_extendqisi2
 2583 0ee0 03F02003 		and	r3, r3, #32
 2584 0ee4 5B11     		asrs	r3, r3, #5
 2585 0ee6 DAB2     		uxtb	r2, r3
 2586 0ee8 009B     		ldr	r3, [sp]
 2587 0eea 9A70     		strb	r2, [r3, #2]
 2588              		.loc 1 1016 0
 2589 0eec 9DF80F30 		ldrb	r3, [sp, #15]	@ zero_extendqisi2
 2590 0ef0 03F01003 		and	r3, r3, #16
 2591 0ef4 1B11     		asrs	r3, r3, #4
 2592 0ef6 DAB2     		uxtb	r2, r3
 2593 0ef8 009B     		ldr	r3, [sp]
 2594 0efa DA70     		strb	r2, [r3, #3]
 2595              		.loc 1 1018 0
ARM GAS  /tmp/ccBklucm.s 			page 47


 2596 0efc 0023     		movs	r3, #0
 2597              	.L189:
 2598              		.loc 1 1019 0
 2599 0efe 1846     		mov	r0, r3
 2600 0f00 05B0     		add	sp, sp, #20
 2601              		@ sp needed
 2602 0f02 5DF804FB 		ldr	pc, [sp], #4
 2603              		.cfi_endproc
 2604              	.LFE40:
 2605              		.size	LPS22HB_Get_DataStatus, .-LPS22HB_Get_DataStatus
 2606 0f06 00BF     		.align	2
 2607 0f08 AFF30080 		.p2align 4,,15
 2607      AFF30080 
 2608              		.global	LPS22HB_Get_RawPressure
 2609              		.thumb
 2610              		.thumb_func
 2611              		.type	LPS22HB_Get_RawPressure, %function
 2612              	LPS22HB_Get_RawPressure:
 2613              	.LFB41:
 2614              		.loc 1 1032 0
 2615              		.cfi_startproc
 2616              		@ args = 0, pretend = 0, frame = 16
 2617              		@ frame_needed = 0, uses_anonymous_args = 0
 2618 0f10 00B5     		push	{lr}
 2619              		.cfi_def_cfa_offset 4
 2620              		.cfi_offset 14, -4
 2621 0f12 85B0     		sub	sp, sp, #20
 2622              		.cfi_def_cfa_offset 24
 2623 0f14 0190     		str	r0, [sp, #4]
 2624 0f16 0091     		str	r1, [sp]
 2625              		.loc 1 1034 0
 2626 0f18 0023     		movs	r3, #0
 2627 0f1a 0393     		str	r3, [sp, #12]
 2628              		.loc 1 1037 0
 2629 0f1c 02AB     		add	r3, sp, #8
 2630 0f1e 0198     		ldr	r0, [sp, #4]
 2631 0f20 2821     		movs	r1, #40
 2632 0f22 0322     		movs	r2, #3
 2633 0f24 FFF7FEFF 		bl	LPS22HB_ReadReg
 2634 0f28 0346     		mov	r3, r0
 2635 0f2a 002B     		cmp	r3, #0
 2636 0f2c 01D0     		beq	.L191
 2637              		.loc 1 1038 0
 2638 0f2e 0123     		movs	r3, #1
 2639 0f30 28E0     		b	.L196
 2640              	.L191:
 2641              		.loc 1 1041 0
 2642 0f32 0023     		movs	r3, #0
 2643 0f34 8DF80B30 		strb	r3, [sp, #11]
 2644 0f38 13E0     		b	.L193
 2645              	.L194:
 2646              		.loc 1 1042 0 discriminator 2
 2647 0f3a 9DF80B30 		ldrb	r3, [sp, #11]	@ zero_extendqisi2
 2648 0f3e 04AA     		add	r2, sp, #16
 2649 0f40 1344     		add	r3, r3, r2
 2650 0f42 13F8083C 		ldrb	r3, [r3, #-8]	@ zero_extendqisi2
 2651 0f46 1A46     		mov	r2, r3
ARM GAS  /tmp/ccBklucm.s 			page 48


 2652 0f48 9DF80B30 		ldrb	r3, [sp, #11]	@ zero_extendqisi2
 2653 0f4c DB00     		lsls	r3, r3, #3
 2654 0f4e 02FA03F3 		lsl	r3, r2, r3
 2655 0f52 039A     		ldr	r2, [sp, #12]
 2656 0f54 1343     		orrs	r3, r3, r2
 2657 0f56 0393     		str	r3, [sp, #12]
 2658              		.loc 1 1041 0 discriminator 2
 2659 0f58 9DF80B30 		ldrb	r3, [sp, #11]	@ zero_extendqisi2
 2660 0f5c 0133     		adds	r3, r3, #1
 2661 0f5e 8DF80B30 		strb	r3, [sp, #11]
 2662              	.L193:
 2663              		.loc 1 1041 0 is_stmt 0 discriminator 1
 2664 0f62 9DF80B30 		ldrb	r3, [sp, #11]	@ zero_extendqisi2
 2665 0f66 022B     		cmp	r3, #2
 2666 0f68 E7D9     		bls	.L194
 2667              		.loc 1 1045 0 is_stmt 1
 2668 0f6a 039B     		ldr	r3, [sp, #12]
 2669 0f6c 03F40003 		and	r3, r3, #8388608
 2670 0f70 002B     		cmp	r3, #0
 2671 0f72 03D0     		beq	.L195
 2672              		.loc 1 1046 0
 2673 0f74 039B     		ldr	r3, [sp, #12]
 2674 0f76 43F07F43 		orr	r3, r3, #-16777216
 2675 0f7a 0393     		str	r3, [sp, #12]
 2676              	.L195:
 2677              		.loc 1 1048 0
 2678 0f7c 039A     		ldr	r2, [sp, #12]
 2679 0f7e 009B     		ldr	r3, [sp]
 2680 0f80 1A60     		str	r2, [r3]
 2681              		.loc 1 1050 0
 2682 0f82 0023     		movs	r3, #0
 2683              	.L196:
 2684              		.loc 1 1051 0
 2685 0f84 1846     		mov	r0, r3
 2686 0f86 05B0     		add	sp, sp, #20
 2687              		@ sp needed
 2688 0f88 5DF804FB 		ldr	pc, [sp], #4
 2689              		.cfi_endproc
 2690              	.LFE41:
 2691              		.size	LPS22HB_Get_RawPressure, .-LPS22HB_Get_RawPressure
 2692              		.align	2
 2693 0f8c AFF30080 		.p2align 4,,15
 2694              		.global	LPS22HB_Get_Pressure
 2695              		.thumb
 2696              		.thumb_func
 2697              		.type	LPS22HB_Get_Pressure, %function
 2698              	LPS22HB_Get_Pressure:
 2699              	.LFB42:
 2700              		.loc 1 1062 0
 2701              		.cfi_startproc
 2702              		@ args = 0, pretend = 0, frame = 16
 2703              		@ frame_needed = 0, uses_anonymous_args = 0
 2704 0f90 00B5     		push	{lr}
 2705              		.cfi_def_cfa_offset 4
 2706              		.cfi_offset 14, -4
 2707 0f92 85B0     		sub	sp, sp, #20
 2708              		.cfi_def_cfa_offset 24
ARM GAS  /tmp/ccBklucm.s 			page 49


 2709 0f94 0190     		str	r0, [sp, #4]
 2710 0f96 0091     		str	r1, [sp]
 2711              		.loc 1 1065 0
 2712 0f98 03AB     		add	r3, sp, #12
 2713 0f9a 0198     		ldr	r0, [sp, #4]
 2714 0f9c 1946     		mov	r1, r3
 2715 0f9e FFF7FEFF 		bl	LPS22HB_Get_RawPressure
 2716 0fa2 0346     		mov	r3, r0
 2717 0fa4 002B     		cmp	r3, #0
 2718 0fa6 01D0     		beq	.L198
 2719              		.loc 1 1066 0
 2720 0fa8 0123     		movs	r3, #1
 2721 0faa 0CE0     		b	.L201
 2722              	.L198:
 2723              		.loc 1 1068 0
 2724 0fac 039B     		ldr	r3, [sp, #12]
 2725 0fae 6422     		movs	r2, #100
 2726 0fb0 02FB03F3 		mul	r3, r2, r3
 2727 0fb4 002B     		cmp	r3, #0
 2728 0fb6 01DA     		bge	.L200
 2729 0fb8 03F6FF73 		addw	r3, r3, #4095
 2730              	.L200:
 2731 0fbc 1B13     		asrs	r3, r3, #12
 2732 0fbe 1A46     		mov	r2, r3
 2733 0fc0 009B     		ldr	r3, [sp]
 2734 0fc2 1A60     		str	r2, [r3]
 2735              		.loc 1 1070 0
 2736 0fc4 0023     		movs	r3, #0
 2737              	.L201:
 2738              		.loc 1 1071 0
 2739 0fc6 1846     		mov	r0, r3
 2740 0fc8 05B0     		add	sp, sp, #20
 2741              		@ sp needed
 2742 0fca 5DF804FB 		ldr	pc, [sp], #4
 2743              		.cfi_endproc
 2744              	.LFE42:
 2745              		.size	LPS22HB_Get_Pressure, .-LPS22HB_Get_Pressure
 2746 0fce 00BF     		.align	2
 2747              		.p2align 4,,15
 2748              		.global	LPS22HB_Get_RawTemperature
 2749              		.thumb
 2750              		.thumb_func
 2751              		.type	LPS22HB_Get_RawTemperature, %function
 2752              	LPS22HB_Get_RawTemperature:
 2753              	.LFB43:
 2754              		.loc 1 1082 0
 2755              		.cfi_startproc
 2756              		@ args = 0, pretend = 0, frame = 16
 2757              		@ frame_needed = 0, uses_anonymous_args = 0
 2758 0fd0 00B5     		push	{lr}
 2759              		.cfi_def_cfa_offset 4
 2760              		.cfi_offset 14, -4
 2761 0fd2 85B0     		sub	sp, sp, #20
 2762              		.cfi_def_cfa_offset 24
 2763 0fd4 0190     		str	r0, [sp, #4]
 2764 0fd6 0091     		str	r1, [sp]
 2765              		.loc 1 1086 0
ARM GAS  /tmp/ccBklucm.s 			page 50


 2766 0fd8 03AB     		add	r3, sp, #12
 2767 0fda 0198     		ldr	r0, [sp, #4]
 2768 0fdc 2B21     		movs	r1, #43
 2769 0fde 0222     		movs	r2, #2
 2770 0fe0 FFF7FEFF 		bl	LPS22HB_ReadReg
 2771 0fe4 0346     		mov	r3, r0
 2772 0fe6 002B     		cmp	r3, #0
 2773 0fe8 01D0     		beq	.L203
 2774              		.loc 1 1087 0
 2775 0fea 0123     		movs	r3, #1
 2776 0fec 0DE0     		b	.L205
 2777              	.L203:
 2778              		.loc 1 1090 0
 2779 0fee 9DF80D30 		ldrb	r3, [sp, #13]	@ zero_extendqisi2
 2780 0ff2 1B02     		lsls	r3, r3, #8
 2781 0ff4 9AB2     		uxth	r2, r3
 2782 0ff6 9DF80C30 		ldrb	r3, [sp, #12]	@ zero_extendqisi2
 2783 0ffa 1344     		add	r3, r3, r2
 2784 0ffc ADF80E30 		strh	r3, [sp, #14]	@ movhi
 2785              		.loc 1 1092 0
 2786 1000 BDF80E20 		ldrh	r2, [sp, #14]
 2787 1004 009B     		ldr	r3, [sp]
 2788 1006 1A80     		strh	r2, [r3]	@ movhi
 2789              		.loc 1 1094 0
 2790 1008 0023     		movs	r3, #0
 2791              	.L205:
 2792              		.loc 1 1095 0
 2793 100a 1846     		mov	r0, r3
 2794 100c 05B0     		add	sp, sp, #20
 2795              		@ sp needed
 2796 100e 5DF804FB 		ldr	pc, [sp], #4
 2797              		.cfi_endproc
 2798              	.LFE43:
 2799              		.size	LPS22HB_Get_RawTemperature, .-LPS22HB_Get_RawTemperature
 2800 1012 00BF     		.align	2
 2801 1014 AFF30080 		.p2align 4,,15
 2801      AFF30080 
 2801      AFF30080 
 2802              		.global	LPS22HB_Get_Temperature
 2803              		.thumb
 2804              		.thumb_func
 2805              		.type	LPS22HB_Get_Temperature, %function
 2806              	LPS22HB_Get_Temperature:
 2807              	.LFB44:
 2808              		.loc 1 1107 0
 2809              		.cfi_startproc
 2810              		@ args = 0, pretend = 0, frame = 16
 2811              		@ frame_needed = 0, uses_anonymous_args = 0
 2812 1020 00B5     		push	{lr}
 2813              		.cfi_def_cfa_offset 4
 2814              		.cfi_offset 14, -4
 2815 1022 85B0     		sub	sp, sp, #20
 2816              		.cfi_def_cfa_offset 24
 2817 1024 0190     		str	r0, [sp, #4]
 2818 1026 0091     		str	r1, [sp]
 2819              		.loc 1 1110 0
 2820 1028 0DF10E03 		add	r3, sp, #14
ARM GAS  /tmp/ccBklucm.s 			page 51


 2821 102c 0198     		ldr	r0, [sp, #4]
 2822 102e 1946     		mov	r1, r3
 2823 1030 FFF7FEFF 		bl	LPS22HB_Get_RawTemperature
 2824 1034 0346     		mov	r3, r0
 2825 1036 002B     		cmp	r3, #0
 2826 1038 01D0     		beq	.L207
 2827              		.loc 1 1111 0
 2828 103a 0123     		movs	r3, #1
 2829 103c 10E0     		b	.L209
 2830              	.L207:
 2831              		.loc 1 1113 0
 2832 103e BDF80E30 		ldrh	r3, [sp, #14]
 2833 1042 1AB2     		sxth	r2, r3
 2834 1044 1346     		mov	r3, r2
 2835 1046 9B00     		lsls	r3, r3, #2
 2836 1048 1344     		add	r3, r3, r2
 2837 104a 5B00     		lsls	r3, r3, #1
 2838 104c 064A     		ldr	r2, .L210
 2839 104e 82FB0312 		smull	r1, r2, r2, r3
 2840 1052 5211     		asrs	r2, r2, #5
 2841 1054 DB17     		asrs	r3, r3, #31
 2842 1056 D31A     		subs	r3, r2, r3
 2843 1058 9AB2     		uxth	r2, r3
 2844 105a 009B     		ldr	r3, [sp]
 2845 105c 1A80     		strh	r2, [r3]	@ movhi
 2846              		.loc 1 1115 0
 2847 105e 0023     		movs	r3, #0
 2848              	.L209:
 2849              		.loc 1 1116 0
 2850 1060 1846     		mov	r0, r3
 2851 1062 05B0     		add	sp, sp, #20
 2852              		@ sp needed
 2853 1064 5DF804FB 		ldr	pc, [sp], #4
 2854              	.L211:
 2855              		.align	2
 2856              	.L210:
 2857 1068 1F85EB51 		.word	1374389535
 2858              		.cfi_endproc
 2859              	.LFE44:
 2860              		.size	LPS22HB_Get_Temperature, .-LPS22HB_Get_Temperature
 2861              		.align	2
 2862 106c AFF30080 		.p2align 4,,15
 2863              		.global	LPS22HB_Get_PressureThreshold
 2864              		.thumb
 2865              		.thumb_func
 2866              		.type	LPS22HB_Get_PressureThreshold, %function
 2867              	LPS22HB_Get_PressureThreshold:
 2868              	.LFB45:
 2869              		.loc 1 1126 0
 2870              		.cfi_startproc
 2871              		@ args = 0, pretend = 0, frame = 16
 2872              		@ frame_needed = 0, uses_anonymous_args = 0
 2873 1070 00B5     		push	{lr}
 2874              		.cfi_def_cfa_offset 4
 2875              		.cfi_offset 14, -4
 2876 1072 85B0     		sub	sp, sp, #20
 2877              		.cfi_def_cfa_offset 24
ARM GAS  /tmp/ccBklucm.s 			page 52


 2878 1074 0190     		str	r0, [sp, #4]
 2879 1076 0091     		str	r1, [sp]
 2880              		.loc 1 1129 0
 2881 1078 03AB     		add	r3, sp, #12
 2882 107a 0198     		ldr	r0, [sp, #4]
 2883 107c 0C21     		movs	r1, #12
 2884 107e 0222     		movs	r2, #2
 2885 1080 FFF7FEFF 		bl	LPS22HB_ReadReg
 2886 1084 0346     		mov	r3, r0
 2887 1086 002B     		cmp	r3, #0
 2888 1088 01D0     		beq	.L213
 2889              		.loc 1 1130 0
 2890 108a 0123     		movs	r3, #1
 2891 108c 0DE0     		b	.L216
 2892              	.L213:
 2893              		.loc 1 1132 0
 2894 108e 9DF80D30 		ldrb	r3, [sp, #13]	@ zero_extendqisi2
 2895 1092 1A02     		lsls	r2, r3, #8
 2896 1094 9DF80C30 		ldrb	r3, [sp, #12]	@ zero_extendqisi2
 2897 1098 1344     		add	r3, r3, r2
 2898 109a 002B     		cmp	r3, #0
 2899 109c 00DA     		bge	.L215
 2900 109e 0F33     		adds	r3, r3, #15
 2901              	.L215:
 2902 10a0 1B11     		asrs	r3, r3, #4
 2903 10a2 9AB2     		uxth	r2, r3
 2904 10a4 009B     		ldr	r3, [sp]
 2905 10a6 1A80     		strh	r2, [r3]	@ movhi
 2906              		.loc 1 1134 0
 2907 10a8 0023     		movs	r3, #0
 2908              	.L216:
 2909              		.loc 1 1135 0
 2910 10aa 1846     		mov	r0, r3
 2911 10ac 05B0     		add	sp, sp, #20
 2912              		@ sp needed
 2913 10ae 5DF804FB 		ldr	pc, [sp], #4
 2914              		.cfi_endproc
 2915              	.LFE45:
 2916              		.size	LPS22HB_Get_PressureThreshold, .-LPS22HB_Get_PressureThreshold
 2917 10b2 00BF     		.align	2
 2918 10b4 AFF30080 		.p2align 4,,15
 2918      AFF30080 
 2918      AFF30080 
 2919              		.global	LPS22HB_Set_PressureThreshold
 2920              		.thumb
 2921              		.thumb_func
 2922              		.type	LPS22HB_Set_PressureThreshold, %function
 2923              	LPS22HB_Set_PressureThreshold:
 2924              	.LFB46:
 2925              		.loc 1 1145 0
 2926              		.cfi_startproc
 2927              		@ args = 0, pretend = 0, frame = 16
 2928              		@ frame_needed = 0, uses_anonymous_args = 0
 2929 10c0 00B5     		push	{lr}
 2930              		.cfi_def_cfa_offset 4
 2931              		.cfi_offset 14, -4
 2932 10c2 85B0     		sub	sp, sp, #20
ARM GAS  /tmp/ccBklucm.s 			page 53


 2933              		.cfi_def_cfa_offset 24
 2934 10c4 0190     		str	r0, [sp, #4]
 2935 10c6 0B46     		mov	r3, r1
 2936 10c8 ADF80230 		strh	r3, [sp, #2]	@ movhi
 2937              		.loc 1 1148 0
 2938 10cc BDF80230 		ldrh	r3, [sp, #2]	@ movhi
 2939 10d0 DBB2     		uxtb	r3, r3
 2940 10d2 1B01     		lsls	r3, r3, #4
 2941 10d4 DBB2     		uxtb	r3, r3
 2942 10d6 8DF80C30 		strb	r3, [sp, #12]
 2943              		.loc 1 1149 0
 2944 10da BDF80230 		ldrh	r3, [sp, #2]
 2945 10de 1B01     		lsls	r3, r3, #4
 2946 10e0 9BB2     		uxth	r3, r3
 2947 10e2 1B0A     		lsrs	r3, r3, #8
 2948 10e4 9BB2     		uxth	r3, r3
 2949 10e6 DBB2     		uxtb	r3, r3
 2950 10e8 8DF80D30 		strb	r3, [sp, #13]
 2951              		.loc 1 1151 0
 2952 10ec 03AB     		add	r3, sp, #12
 2953 10ee 0198     		ldr	r0, [sp, #4]
 2954 10f0 0C21     		movs	r1, #12
 2955 10f2 0222     		movs	r2, #2
 2956 10f4 FFF7FEFF 		bl	LPS22HB_WriteReg
 2957 10f8 0346     		mov	r3, r0
 2958 10fa 002B     		cmp	r3, #0
 2959 10fc 01D0     		beq	.L218
 2960              		.loc 1 1152 0
 2961 10fe 0123     		movs	r3, #1
 2962 1100 00E0     		b	.L220
 2963              	.L218:
 2964              		.loc 1 1154 0
 2965 1102 0023     		movs	r3, #0
 2966              	.L220:
 2967              		.loc 1 1155 0
 2968 1104 1846     		mov	r0, r3
 2969 1106 05B0     		add	sp, sp, #20
 2970              		@ sp needed
 2971 1108 5DF804FB 		ldr	pc, [sp], #4
 2972              		.cfi_endproc
 2973              	.LFE46:
 2974              		.size	LPS22HB_Set_PressureThreshold, .-LPS22HB_Set_PressureThreshold
 2975              		.align	2
 2976 110c AFF30080 		.p2align 4,,15
 2977              		.global	LPS22HB_Set_FifoMode
 2978              		.thumb
 2979              		.thumb_func
 2980              		.type	LPS22HB_Set_FifoMode, %function
 2981              	LPS22HB_Set_FifoMode:
 2982              	.LFB47:
 2983              		.loc 1 1164 0
 2984              		.cfi_startproc
 2985              		@ args = 0, pretend = 0, frame = 16
 2986              		@ frame_needed = 0, uses_anonymous_args = 0
 2987 1110 00B5     		push	{lr}
 2988              		.cfi_def_cfa_offset 4
 2989              		.cfi_offset 14, -4
ARM GAS  /tmp/ccBklucm.s 			page 54


 2990 1112 85B0     		sub	sp, sp, #20
 2991              		.cfi_def_cfa_offset 24
 2992 1114 0190     		str	r0, [sp, #4]
 2993 1116 0B46     		mov	r3, r1
 2994 1118 8DF80330 		strb	r3, [sp, #3]
 2995              		.loc 1 1169 0
 2996 111c 0DF10F03 		add	r3, sp, #15
 2997 1120 0198     		ldr	r0, [sp, #4]
 2998 1122 1421     		movs	r1, #20
 2999 1124 0122     		movs	r2, #1
 3000 1126 FFF7FEFF 		bl	LPS22HB_ReadReg
 3001 112a 0346     		mov	r3, r0
 3002 112c 002B     		cmp	r3, #0
 3003 112e 01D0     		beq	.L222
 3004              		.loc 1 1170 0
 3005 1130 0123     		movs	r3, #1
 3006 1132 1BE0     		b	.L225
 3007              	.L222:
 3008              		.loc 1 1172 0
 3009 1134 9DF80F30 		ldrb	r3, [sp, #15]	@ zero_extendqisi2
 3010 1138 03F01F03 		and	r3, r3, #31
 3011 113c DBB2     		uxtb	r3, r3
 3012 113e 8DF80F30 		strb	r3, [sp, #15]
 3013              		.loc 1 1173 0
 3014 1142 9DF80F20 		ldrb	r2, [sp, #15]	@ zero_extendqisi2
 3015 1146 9DF80330 		ldrb	r3, [sp, #3]
 3016 114a 1343     		orrs	r3, r3, r2
 3017 114c DBB2     		uxtb	r3, r3
 3018 114e 8DF80F30 		strb	r3, [sp, #15]
 3019              		.loc 1 1175 0
 3020 1152 0DF10F03 		add	r3, sp, #15
 3021 1156 0198     		ldr	r0, [sp, #4]
 3022 1158 1421     		movs	r1, #20
 3023 115a 0122     		movs	r2, #1
 3024 115c FFF7FEFF 		bl	LPS22HB_WriteReg
 3025 1160 0346     		mov	r3, r0
 3026 1162 002B     		cmp	r3, #0
 3027 1164 01D0     		beq	.L224
 3028              		.loc 1 1176 0
 3029 1166 0123     		movs	r3, #1
 3030 1168 00E0     		b	.L225
 3031              	.L224:
 3032              		.loc 1 1178 0
 3033 116a 0023     		movs	r3, #0
 3034              	.L225:
 3035              		.loc 1 1179 0
 3036 116c 1846     		mov	r0, r3
 3037 116e 05B0     		add	sp, sp, #20
 3038              		@ sp needed
 3039 1170 5DF804FB 		ldr	pc, [sp], #4
 3040              		.cfi_endproc
 3041              	.LFE47:
 3042              		.size	LPS22HB_Set_FifoMode, .-LPS22HB_Set_FifoMode
 3043              		.align	2
 3044 1174 AFF30080 		.p2align 4,,15
 3044      AFF30080 
 3044      AFF30080 
ARM GAS  /tmp/ccBklucm.s 			page 55


 3045              		.global	LPS22HB_Get_FifoMode
 3046              		.thumb
 3047              		.thumb_func
 3048              		.type	LPS22HB_Get_FifoMode, %function
 3049              	LPS22HB_Get_FifoMode:
 3050              	.LFB48:
 3051              		.loc 1 1188 0
 3052              		.cfi_startproc
 3053              		@ args = 0, pretend = 0, frame = 16
 3054              		@ frame_needed = 0, uses_anonymous_args = 0
 3055 1180 00B5     		push	{lr}
 3056              		.cfi_def_cfa_offset 4
 3057              		.cfi_offset 14, -4
 3058 1182 85B0     		sub	sp, sp, #20
 3059              		.cfi_def_cfa_offset 24
 3060 1184 0190     		str	r0, [sp, #4]
 3061 1186 0091     		str	r1, [sp]
 3062              		.loc 1 1191 0
 3063 1188 0DF10F03 		add	r3, sp, #15
 3064 118c 0198     		ldr	r0, [sp, #4]
 3065 118e 1421     		movs	r1, #20
 3066 1190 0122     		movs	r2, #1
 3067 1192 FFF7FEFF 		bl	LPS22HB_ReadReg
 3068 1196 0346     		mov	r3, r0
 3069 1198 002B     		cmp	r3, #0
 3070 119a 01D0     		beq	.L227
 3071              		.loc 1 1192 0
 3072 119c 0123     		movs	r3, #1
 3073 119e 0BE0     		b	.L229
 3074              	.L227:
 3075              		.loc 1 1194 0
 3076 11a0 9DF80F30 		ldrb	r3, [sp, #15]	@ zero_extendqisi2
 3077 11a4 23F01F03 		bic	r3, r3, #31
 3078 11a8 DBB2     		uxtb	r3, r3
 3079 11aa 8DF80F30 		strb	r3, [sp, #15]
 3080              		.loc 1 1195 0
 3081 11ae 9DF80F20 		ldrb	r2, [sp, #15]	@ zero_extendqisi2
 3082 11b2 009B     		ldr	r3, [sp]
 3083 11b4 1A70     		strb	r2, [r3]
 3084              		.loc 1 1197 0
 3085 11b6 0023     		movs	r3, #0
 3086              	.L229:
 3087              		.loc 1 1198 0
 3088 11b8 1846     		mov	r0, r3
 3089 11ba 05B0     		add	sp, sp, #20
 3090              		@ sp needed
 3091 11bc 5DF804FB 		ldr	pc, [sp], #4
 3092              		.cfi_endproc
 3093              	.LFE48:
 3094              		.size	LPS22HB_Get_FifoMode, .-LPS22HB_Get_FifoMode
 3095              		.align	2
 3096              		.p2align 4,,15
 3097              		.global	LPS22HB_Set_FifoWatermarkLevel
 3098              		.thumb
 3099              		.thumb_func
 3100              		.type	LPS22HB_Set_FifoWatermarkLevel, %function
 3101              	LPS22HB_Set_FifoWatermarkLevel:
ARM GAS  /tmp/ccBklucm.s 			page 56


 3102              	.LFB49:
 3103              		.loc 1 1207 0
 3104              		.cfi_startproc
 3105              		@ args = 0, pretend = 0, frame = 16
 3106              		@ frame_needed = 0, uses_anonymous_args = 0
 3107 11c0 00B5     		push	{lr}
 3108              		.cfi_def_cfa_offset 4
 3109              		.cfi_offset 14, -4
 3110 11c2 85B0     		sub	sp, sp, #20
 3111              		.cfi_def_cfa_offset 24
 3112 11c4 0190     		str	r0, [sp, #4]
 3113 11c6 0B46     		mov	r3, r1
 3114 11c8 8DF80330 		strb	r3, [sp, #3]
 3115              		.loc 1 1212 0
 3116 11cc 0DF10F03 		add	r3, sp, #15
 3117 11d0 0198     		ldr	r0, [sp, #4]
 3118 11d2 1421     		movs	r1, #20
 3119 11d4 0122     		movs	r2, #1
 3120 11d6 FFF7FEFF 		bl	LPS22HB_ReadReg
 3121 11da 0346     		mov	r3, r0
 3122 11dc 002B     		cmp	r3, #0
 3123 11de 01D0     		beq	.L231
 3124              		.loc 1 1213 0
 3125 11e0 0123     		movs	r3, #1
 3126 11e2 1BE0     		b	.L234
 3127              	.L231:
 3128              		.loc 1 1215 0
 3129 11e4 9DF80F30 		ldrb	r3, [sp, #15]	@ zero_extendqisi2
 3130 11e8 23F01F03 		bic	r3, r3, #31
 3131 11ec DBB2     		uxtb	r3, r3
 3132 11ee 8DF80F30 		strb	r3, [sp, #15]
 3133              		.loc 1 1216 0
 3134 11f2 9DF80F20 		ldrb	r2, [sp, #15]	@ zero_extendqisi2
 3135 11f6 9DF80330 		ldrb	r3, [sp, #3]
 3136 11fa 1343     		orrs	r3, r3, r2
 3137 11fc DBB2     		uxtb	r3, r3
 3138 11fe 8DF80F30 		strb	r3, [sp, #15]
 3139              		.loc 1 1218 0
 3140 1202 0DF10F03 		add	r3, sp, #15
 3141 1206 0198     		ldr	r0, [sp, #4]
 3142 1208 1421     		movs	r1, #20
 3143 120a 0122     		movs	r2, #1
 3144 120c FFF7FEFF 		bl	LPS22HB_WriteReg
 3145 1210 0346     		mov	r3, r0
 3146 1212 002B     		cmp	r3, #0
 3147 1214 01D0     		beq	.L233
 3148              		.loc 1 1219 0
 3149 1216 0123     		movs	r3, #1
 3150 1218 00E0     		b	.L234
 3151              	.L233:
 3152              		.loc 1 1221 0
 3153 121a 0023     		movs	r3, #0
 3154              	.L234:
 3155              		.loc 1 1222 0
 3156 121c 1846     		mov	r0, r3
 3157 121e 05B0     		add	sp, sp, #20
 3158              		@ sp needed
ARM GAS  /tmp/ccBklucm.s 			page 57


 3159 1220 5DF804FB 		ldr	pc, [sp], #4
 3160              		.cfi_endproc
 3161              	.LFE49:
 3162              		.size	LPS22HB_Set_FifoWatermarkLevel, .-LPS22HB_Set_FifoWatermarkLevel
 3163              		.align	2
 3164 1224 AFF30080 		.p2align 4,,15
 3164      AFF30080 
 3164      AFF30080 
 3165              		.global	LPS22HB_Get_FifoWatermarkLevel
 3166              		.thumb
 3167              		.thumb_func
 3168              		.type	LPS22HB_Get_FifoWatermarkLevel, %function
 3169              	LPS22HB_Get_FifoWatermarkLevel:
 3170              	.LFB50:
 3171              		.loc 1 1231 0
 3172              		.cfi_startproc
 3173              		@ args = 0, pretend = 0, frame = 8
 3174              		@ frame_needed = 0, uses_anonymous_args = 0
 3175 1230 00B5     		push	{lr}
 3176              		.cfi_def_cfa_offset 4
 3177              		.cfi_offset 14, -4
 3178 1232 83B0     		sub	sp, sp, #12
 3179              		.cfi_def_cfa_offset 16
 3180 1234 0190     		str	r0, [sp, #4]
 3181 1236 0091     		str	r1, [sp]
 3182              		.loc 1 1232 0
 3183 1238 0198     		ldr	r0, [sp, #4]
 3184 123a 1421     		movs	r1, #20
 3185 123c 0122     		movs	r2, #1
 3186 123e 009B     		ldr	r3, [sp]
 3187 1240 FFF7FEFF 		bl	LPS22HB_ReadReg
 3188 1244 0346     		mov	r3, r0
 3189 1246 002B     		cmp	r3, #0
 3190 1248 01D0     		beq	.L236
 3191              		.loc 1 1233 0
 3192 124a 0123     		movs	r3, #1
 3193 124c 07E0     		b	.L237
 3194              	.L236:
 3195              		.loc 1 1235 0
 3196 124e 009B     		ldr	r3, [sp]
 3197 1250 1B78     		ldrb	r3, [r3]	@ zero_extendqisi2
 3198 1252 03F01F03 		and	r3, r3, #31
 3199 1256 DAB2     		uxtb	r2, r3
 3200 1258 009B     		ldr	r3, [sp]
 3201 125a 1A70     		strb	r2, [r3]
 3202              		.loc 1 1237 0
 3203 125c 0023     		movs	r3, #0
 3204              	.L237:
 3205              		.loc 1 1238 0
 3206 125e 1846     		mov	r0, r3
 3207 1260 03B0     		add	sp, sp, #12
 3208              		@ sp needed
 3209 1262 5DF804FB 		ldr	pc, [sp], #4
 3210              		.cfi_endproc
 3211              	.LFE50:
 3212              		.size	LPS22HB_Get_FifoWatermarkLevel, .-LPS22HB_Get_FifoWatermarkLevel
 3213 1266 00BF     		.align	2
ARM GAS  /tmp/ccBklucm.s 			page 58


 3214 1268 AFF30080 		.p2align 4,,15
 3214      AFF30080 
 3215              		.global	LPS22HB_Get_FifoStatus
 3216              		.thumb
 3217              		.thumb_func
 3218              		.type	LPS22HB_Get_FifoStatus, %function
 3219              	LPS22HB_Get_FifoStatus:
 3220              	.LFB51:
 3221              		.loc 1 1247 0
 3222              		.cfi_startproc
 3223              		@ args = 0, pretend = 0, frame = 16
 3224              		@ frame_needed = 0, uses_anonymous_args = 0
 3225 1270 00B5     		push	{lr}
 3226              		.cfi_def_cfa_offset 4
 3227              		.cfi_offset 14, -4
 3228 1272 85B0     		sub	sp, sp, #20
 3229              		.cfi_def_cfa_offset 24
 3230 1274 0190     		str	r0, [sp, #4]
 3231 1276 0091     		str	r1, [sp]
 3232              		.loc 1 1250 0
 3233 1278 0DF10F03 		add	r3, sp, #15
 3234 127c 0198     		ldr	r0, [sp, #4]
 3235 127e 2621     		movs	r1, #38
 3236 1280 0122     		movs	r2, #1
 3237 1282 FFF7FEFF 		bl	LPS22HB_ReadReg
 3238 1286 0346     		mov	r3, r0
 3239 1288 002B     		cmp	r3, #0
 3240 128a 01D0     		beq	.L239
 3241              		.loc 1 1251 0
 3242 128c 0123     		movs	r3, #1
 3243 128e 2BE0     		b	.L245
 3244              	.L239:
 3245              		.loc 1 1253 0
 3246 1290 9DF80F30 		ldrb	r3, [sp, #15]	@ zero_extendqisi2
 3247 1294 DB09     		lsrs	r3, r3, #7
 3248 1296 DAB2     		uxtb	r2, r3
 3249 1298 009B     		ldr	r3, [sp]
 3250 129a 1A71     		strb	r2, [r3, #4]
 3251              		.loc 1 1254 0
 3252 129c 9DF80F30 		ldrb	r3, [sp, #15]	@ zero_extendqisi2
 3253 12a0 03F04003 		and	r3, r3, #64
 3254 12a4 9B11     		asrs	r3, r3, #6
 3255 12a6 DAB2     		uxtb	r2, r3
 3256 12a8 009B     		ldr	r3, [sp]
 3257 12aa DA70     		strb	r2, [r3, #3]
 3258              		.loc 1 1255 0
 3259 12ac 9DF80F30 		ldrb	r3, [sp, #15]	@ zero_extendqisi2
 3260 12b0 03F03F03 		and	r3, r3, #63
 3261 12b4 DAB2     		uxtb	r2, r3
 3262 12b6 009B     		ldr	r3, [sp]
 3263 12b8 1A70     		strb	r2, [r3]
 3264              		.loc 1 1257 0
 3265 12ba 009B     		ldr	r3, [sp]
 3266 12bc 1B78     		ldrb	r3, [r3]	@ zero_extendqisi2
 3267 12be 002B     		cmp	r3, #0
 3268 12c0 03D1     		bne	.L241
 3269              		.loc 1 1258 0
ARM GAS  /tmp/ccBklucm.s 			page 59


 3270 12c2 009B     		ldr	r3, [sp]
 3271 12c4 0122     		movs	r2, #1
 3272 12c6 5A70     		strb	r2, [r3, #1]
 3273 12c8 02E0     		b	.L242
 3274              	.L241:
 3275              		.loc 1 1260 0
 3276 12ca 009B     		ldr	r3, [sp]
 3277 12cc 0022     		movs	r2, #0
 3278 12ce 5A70     		strb	r2, [r3, #1]
 3279              	.L242:
 3280              		.loc 1 1262 0
 3281 12d0 009B     		ldr	r3, [sp]
 3282 12d2 1B78     		ldrb	r3, [r3]	@ zero_extendqisi2
 3283 12d4 202B     		cmp	r3, #32
 3284 12d6 03D1     		bne	.L243
 3285              		.loc 1 1263 0
 3286 12d8 009B     		ldr	r3, [sp]
 3287 12da 0122     		movs	r2, #1
 3288 12dc 9A70     		strb	r2, [r3, #2]
 3289 12de 02E0     		b	.L244
 3290              	.L243:
 3291              		.loc 1 1265 0
 3292 12e0 009B     		ldr	r3, [sp]
 3293 12e2 0022     		movs	r2, #0
 3294 12e4 9A70     		strb	r2, [r3, #2]
 3295              	.L244:
 3296              		.loc 1 1268 0
 3297 12e6 0023     		movs	r3, #0
 3298              	.L245:
 3299              		.loc 1 1269 0
 3300 12e8 1846     		mov	r0, r3
 3301 12ea 05B0     		add	sp, sp, #20
 3302              		@ sp needed
 3303 12ec 5DF804FB 		ldr	pc, [sp], #4
 3304              		.cfi_endproc
 3305              	.LFE51:
 3306              		.size	LPS22HB_Get_FifoStatus, .-LPS22HB_Get_FifoStatus
 3307              		.align	2
 3308              		.p2align 4,,15
 3309              		.global	LPS22HB_Get_PressureOffsetValue
 3310              		.thumb
 3311              		.thumb_func
 3312              		.type	LPS22HB_Get_PressureOffsetValue, %function
 3313              	LPS22HB_Get_PressureOffsetValue:
 3314              	.LFB52:
 3315              		.loc 1 1278 0
 3316              		.cfi_startproc
 3317              		@ args = 0, pretend = 0, frame = 16
 3318              		@ frame_needed = 0, uses_anonymous_args = 0
 3319 12f0 00B5     		push	{lr}
 3320              		.cfi_def_cfa_offset 4
 3321              		.cfi_offset 14, -4
 3322 12f2 85B0     		sub	sp, sp, #20
 3323              		.cfi_def_cfa_offset 24
 3324 12f4 0190     		str	r0, [sp, #4]
 3325 12f6 0091     		str	r1, [sp]
 3326              		.loc 1 1282 0
ARM GAS  /tmp/ccBklucm.s 			page 60


 3327 12f8 03AB     		add	r3, sp, #12
 3328 12fa 0198     		ldr	r0, [sp, #4]
 3329 12fc 1821     		movs	r1, #24
 3330 12fe 0222     		movs	r2, #2
 3331 1300 FFF7FEFF 		bl	LPS22HB_ReadReg
 3332 1304 0346     		mov	r3, r0
 3333 1306 002B     		cmp	r3, #0
 3334 1308 01D0     		beq	.L247
 3335              		.loc 1 1283 0
 3336 130a 0123     		movs	r3, #1
 3337 130c 17E0     		b	.L250
 3338              	.L247:
 3339              		.loc 1 1285 0
 3340 130e 9DF80D30 		ldrb	r3, [sp, #13]	@ zero_extendqisi2
 3341 1312 1B02     		lsls	r3, r3, #8
 3342 1314 9AB2     		uxth	r2, r3
 3343 1316 9DF80C30 		ldrb	r3, [sp, #12]	@ zero_extendqisi2
 3344 131a 1344     		add	r3, r3, r2
 3345 131c 9BB2     		uxth	r3, r3
 3346 131e ADF80E30 		strh	r3, [sp, #14]	@ movhi
 3347              		.loc 1 1287 0
 3348 1322 BDF90E30 		ldrsh	r3, [sp, #14]
 3349 1326 6422     		movs	r2, #100
 3350 1328 02FB03F3 		mul	r3, r2, r3
 3351 132c 002B     		cmp	r3, #0
 3352 132e 01DA     		bge	.L249
 3353 1330 03F6FF73 		addw	r3, r3, #4095
 3354              	.L249:
 3355 1334 1B13     		asrs	r3, r3, #12
 3356 1336 9AB2     		uxth	r2, r3
 3357 1338 009B     		ldr	r3, [sp]
 3358 133a 1A80     		strh	r2, [r3]	@ movhi
 3359              		.loc 1 1289 0
 3360 133c 0023     		movs	r3, #0
 3361              	.L250:
 3362              		.loc 1 1290 0
 3363 133e 1846     		mov	r0, r3
 3364 1340 05B0     		add	sp, sp, #20
 3365              		@ sp needed
 3366 1342 5DF804FB 		ldr	pc, [sp], #4
 3367              		.cfi_endproc
 3368              	.LFE52:
 3369              		.size	LPS22HB_Get_PressureOffsetValue, .-LPS22HB_Get_PressureOffsetValue
 3370 1346 00BF     		.align	2
 3371 1348 AFF30080 		.p2align 4,,15
 3371      AFF30080 
 3372              		.global	LPS22HB_Get_ReferencePressure
 3373              		.thumb
 3374              		.thumb_func
 3375              		.type	LPS22HB_Get_ReferencePressure, %function
 3376              	LPS22HB_Get_ReferencePressure:
 3377              	.LFB53:
 3378              		.loc 1 1301 0
 3379              		.cfi_startproc
 3380              		@ args = 0, pretend = 0, frame = 24
 3381              		@ frame_needed = 0, uses_anonymous_args = 0
 3382 1350 00B5     		push	{lr}
ARM GAS  /tmp/ccBklucm.s 			page 61


 3383              		.cfi_def_cfa_offset 4
 3384              		.cfi_offset 14, -4
 3385 1352 87B0     		sub	sp, sp, #28
 3386              		.cfi_def_cfa_offset 32
 3387 1354 0190     		str	r0, [sp, #4]
 3388 1356 0091     		str	r1, [sp]
 3389              		.loc 1 1303 0
 3390 1358 0023     		movs	r3, #0
 3391 135a 0593     		str	r3, [sp, #20]
 3392              		.loc 1 1307 0
 3393 135c 02AB     		add	r3, sp, #8
 3394 135e 0198     		ldr	r0, [sp, #4]
 3395 1360 1521     		movs	r1, #21
 3396 1362 0322     		movs	r2, #3
 3397 1364 FFF7FEFF 		bl	LPS22HB_ReadReg
 3398 1368 0346     		mov	r3, r0
 3399 136a 002B     		cmp	r3, #0
 3400 136c 01D0     		beq	.L252
 3401              		.loc 1 1308 0
 3402 136e 0123     		movs	r3, #1
 3403 1370 33E0     		b	.L258
 3404              	.L252:
 3405              		.loc 1 1311 0
 3406 1372 0023     		movs	r3, #0
 3407 1374 8DF81330 		strb	r3, [sp, #19]
 3408 1378 13E0     		b	.L254
 3409              	.L255:
 3410              		.loc 1 1312 0 discriminator 2
 3411 137a 9DF81330 		ldrb	r3, [sp, #19]	@ zero_extendqisi2
 3412 137e 06AA     		add	r2, sp, #24
 3413 1380 1344     		add	r3, r3, r2
 3414 1382 13F8103C 		ldrb	r3, [r3, #-16]	@ zero_extendqisi2
 3415 1386 1A46     		mov	r2, r3
 3416 1388 9DF81330 		ldrb	r3, [sp, #19]	@ zero_extendqisi2
 3417 138c DB00     		lsls	r3, r3, #3
 3418 138e 02FA03F3 		lsl	r3, r2, r3
 3419 1392 059A     		ldr	r2, [sp, #20]
 3420 1394 1343     		orrs	r3, r3, r2
 3421 1396 0593     		str	r3, [sp, #20]
 3422              		.loc 1 1311 0 discriminator 2
 3423 1398 9DF81330 		ldrb	r3, [sp, #19]	@ zero_extendqisi2
 3424 139c 0133     		adds	r3, r3, #1
 3425 139e 8DF81330 		strb	r3, [sp, #19]
 3426              	.L254:
 3427              		.loc 1 1311 0 is_stmt 0 discriminator 1
 3428 13a2 9DF81330 		ldrb	r3, [sp, #19]	@ zero_extendqisi2
 3429 13a6 022B     		cmp	r3, #2
 3430 13a8 E7D9     		bls	.L255
 3431              		.loc 1 1315 0 is_stmt 1
 3432 13aa 059B     		ldr	r3, [sp, #20]
 3433 13ac 03F40003 		and	r3, r3, #8388608
 3434 13b0 002B     		cmp	r3, #0
 3435 13b2 03D0     		beq	.L256
 3436              		.loc 1 1316 0
 3437 13b4 059B     		ldr	r3, [sp, #20]
 3438 13b6 43F07F43 		orr	r3, r3, #-16777216
 3439 13ba 0593     		str	r3, [sp, #20]
ARM GAS  /tmp/ccBklucm.s 			page 62


 3440              	.L256:
 3441              		.loc 1 1318 0
 3442 13bc 059B     		ldr	r3, [sp, #20]
 3443 13be 0393     		str	r3, [sp, #12]
 3444              		.loc 1 1319 0
 3445 13c0 039B     		ldr	r3, [sp, #12]
 3446 13c2 6422     		movs	r2, #100
 3447 13c4 02FB03F3 		mul	r3, r2, r3
 3448 13c8 002B     		cmp	r3, #0
 3449 13ca 01DA     		bge	.L257
 3450 13cc 03F6FF73 		addw	r3, r3, #4095
 3451              	.L257:
 3452 13d0 1B13     		asrs	r3, r3, #12
 3453 13d2 1A46     		mov	r2, r3
 3454 13d4 009B     		ldr	r3, [sp]
 3455 13d6 1A60     		str	r2, [r3]
 3456              		.loc 1 1322 0
 3457 13d8 0023     		movs	r3, #0
 3458              	.L258:
 3459              		.loc 1 1323 0
 3460 13da 1846     		mov	r0, r3
 3461 13dc 07B0     		add	sp, sp, #28
 3462              		@ sp needed
 3463 13de 5DF804FB 		ldr	pc, [sp], #4
 3464              		.cfi_endproc
 3465              	.LFE53:
 3466              		.size	LPS22HB_Get_ReferencePressure, .-LPS22HB_Get_ReferencePressure
 3467 13e2 00BF     		.align	2
 3468 13e4 AFF30080 		.p2align 4,,15
 3468      AFF30080 
 3468      AFF30080 
 3469              		.global	LPS22HB_IsMeasurementCompleted
 3470              		.thumb
 3471              		.thumb_func
 3472              		.type	LPS22HB_IsMeasurementCompleted, %function
 3473              	LPS22HB_IsMeasurementCompleted:
 3474              	.LFB54:
 3475              		.loc 1 1333 0
 3476              		.cfi_startproc
 3477              		@ args = 0, pretend = 0, frame = 16
 3478              		@ frame_needed = 0, uses_anonymous_args = 0
 3479 13f0 00B5     		push	{lr}
 3480              		.cfi_def_cfa_offset 4
 3481              		.cfi_offset 14, -4
 3482 13f2 85B0     		sub	sp, sp, #20
 3483              		.cfi_def_cfa_offset 24
 3484 13f4 0190     		str	r0, [sp, #4]
 3485 13f6 0091     		str	r1, [sp]
 3486              		.loc 1 1337 0
 3487 13f8 0DF10F03 		add	r3, sp, #15
 3488 13fc 0198     		ldr	r0, [sp, #4]
 3489 13fe 2721     		movs	r1, #39
 3490 1400 0122     		movs	r2, #1
 3491 1402 FFF7FEFF 		bl	LPS22HB_ReadReg
 3492 1406 0346     		mov	r3, r0
 3493 1408 002B     		cmp	r3, #0
 3494 140a 01D0     		beq	.L260
ARM GAS  /tmp/ccBklucm.s 			page 63


 3495              		.loc 1 1338 0
 3496 140c 0123     		movs	r3, #1
 3497 140e 17E0     		b	.L262
 3498              	.L260:
 3499              		.loc 1 1340 0
 3500 1410 9DF80F30 		ldrb	r3, [sp, #15]	@ zero_extendqisi2
 3501 1414 03F00203 		and	r3, r3, #2
 3502 1418 5B10     		asrs	r3, r3, #1
 3503 141a DBB2     		uxtb	r3, r3
 3504 141c 8DF80830 		strb	r3, [sp, #8]
 3505              		.loc 1 1341 0
 3506 1420 9DF80F30 		ldrb	r3, [sp, #15]	@ zero_extendqisi2
 3507 1424 03F00103 		and	r3, r3, #1
 3508 1428 DBB2     		uxtb	r3, r3
 3509 142a 8DF80930 		strb	r3, [sp, #9]
 3510              		.loc 1 1343 0
 3511 142e 9DF80920 		ldrb	r2, [sp, #9]	@ zero_extendqisi2
 3512 1432 9DF80830 		ldrb	r3, [sp, #8]	@ zero_extendqisi2
 3513 1436 1340     		ands	r3, r3, r2
 3514 1438 DAB2     		uxtb	r2, r3
 3515 143a 009B     		ldr	r3, [sp]
 3516 143c 1A70     		strb	r2, [r3]
 3517              		.loc 1 1345 0
 3518 143e 0023     		movs	r3, #0
 3519              	.L262:
 3520              		.loc 1 1346 0
 3521 1440 1846     		mov	r0, r3
 3522 1442 05B0     		add	sp, sp, #20
 3523              		@ sp needed
 3524 1444 5DF804FB 		ldr	pc, [sp], #4
 3525              		.cfi_endproc
 3526              	.LFE54:
 3527              		.size	LPS22HB_IsMeasurementCompleted, .-LPS22HB_IsMeasurementCompleted
 3528              		.align	2
 3529 1448 AFF30080 		.p2align 4,,15
 3529      AFF30080 
 3530              		.global	LPS22HB_Get_Measurement
 3531              		.thumb
 3532              		.thumb_func
 3533              		.type	LPS22HB_Get_Measurement, %function
 3534              	LPS22HB_Get_Measurement:
 3535              	.LFB55:
 3536              		.loc 1 1355 0
 3537              		.cfi_startproc
 3538              		@ args = 0, pretend = 0, frame = 16
 3539              		@ frame_needed = 0, uses_anonymous_args = 0
 3540 1450 00B5     		push	{lr}
 3541              		.cfi_def_cfa_offset 4
 3542              		.cfi_offset 14, -4
 3543 1452 85B0     		sub	sp, sp, #20
 3544              		.cfi_def_cfa_offset 24
 3545 1454 0190     		str	r0, [sp, #4]
 3546 1456 0091     		str	r1, [sp]
 3547              		.loc 1 1359 0
 3548 1458 0DF10E03 		add	r3, sp, #14
 3549 145c 0198     		ldr	r0, [sp, #4]
 3550 145e 1946     		mov	r1, r3
ARM GAS  /tmp/ccBklucm.s 			page 64


 3551 1460 FFF7FEFF 		bl	LPS22HB_Get_Temperature
 3552 1464 0346     		mov	r3, r0
 3553 1466 002B     		cmp	r3, #0
 3554 1468 01D0     		beq	.L264
 3555              		.loc 1 1360 0
 3556 146a 0123     		movs	r3, #1
 3557 146c 11E0     		b	.L267
 3558              	.L264:
 3559              		.loc 1 1362 0
 3560 146e BDF80E20 		ldrh	r2, [sp, #14]
 3561 1472 009B     		ldr	r3, [sp]
 3562 1474 1A80     		strh	r2, [r3]	@ movhi
 3563              		.loc 1 1364 0
 3564 1476 02AB     		add	r3, sp, #8
 3565 1478 0198     		ldr	r0, [sp, #4]
 3566 147a 1946     		mov	r1, r3
 3567 147c FFF7FEFF 		bl	LPS22HB_Get_Pressure
 3568 1480 0346     		mov	r3, r0
 3569 1482 002B     		cmp	r3, #0
 3570 1484 01D0     		beq	.L266
 3571              		.loc 1 1365 0
 3572 1486 0123     		movs	r3, #1
 3573 1488 03E0     		b	.L267
 3574              	.L266:
 3575              		.loc 1 1367 0
 3576 148a 029A     		ldr	r2, [sp, #8]
 3577 148c 009B     		ldr	r3, [sp]
 3578 148e 5A60     		str	r2, [r3, #4]
 3579              		.loc 1 1369 0
 3580 1490 0023     		movs	r3, #0
 3581              	.L267:
 3582              		.loc 1 1371 0
 3583 1492 1846     		mov	r0, r3
 3584 1494 05B0     		add	sp, sp, #20
 3585              		@ sp needed
 3586 1496 5DF804FB 		ldr	pc, [sp], #4
 3587              		.cfi_endproc
 3588              	.LFE55:
 3589              		.size	LPS22HB_Get_Measurement, .-LPS22HB_Get_Measurement
 3590 149a 00BF     		.align	2
 3591 149c AFF30080 		.p2align 4,,15
 3592              		.global	LPS22HB_Init
 3593              		.thumb
 3594              		.thumb_func
 3595              		.type	LPS22HB_Init, %function
 3596              	LPS22HB_Init:
 3597              	.LFB56:
 3598              		.loc 1 1383 0
 3599              		.cfi_startproc
 3600              		@ args = 0, pretend = 0, frame = 16
 3601              		@ frame_needed = 0, uses_anonymous_args = 0
 3602 14a0 00B5     		push	{lr}
 3603              		.cfi_def_cfa_offset 4
 3604              		.cfi_offset 14, -4
 3605 14a2 85B0     		sub	sp, sp, #20
 3606              		.cfi_def_cfa_offset 24
 3607 14a4 0190     		str	r0, [sp, #4]
ARM GAS  /tmp/ccBklucm.s 			page 65


 3608              		.loc 1 1387 0
 3609 14a6 0198     		ldr	r0, [sp, #4]
 3610 14a8 FFF7FEFF 		bl	LPS22HB_SwResetAndMemoryBoot
 3611 14ac 0346     		mov	r3, r0
 3612 14ae 002B     		cmp	r3, #0
 3613 14b0 01D0     		beq	.L269
 3614              		.loc 1 1388 0
 3615 14b2 0123     		movs	r3, #1
 3616 14b4 1FE0     		b	.L272
 3617              	.L269:
 3618              		.loc 1 1390 0
 3619 14b6 0123     		movs	r3, #1
 3620 14b8 8DF80830 		strb	r3, [sp, #8]
 3621              		.loc 1 1391 0
 3622 14bc 3023     		movs	r3, #48
 3623 14be 8DF80930 		strb	r3, [sp, #9]
 3624              		.loc 1 1392 0
 3625 14c2 0023     		movs	r3, #0
 3626 14c4 8DF80B30 		strb	r3, [sp, #11]
 3627              		.loc 1 1393 0
 3628 14c8 0023     		movs	r3, #0
 3629 14ca 8DF80C30 		strb	r3, [sp, #12]
 3630              		.loc 1 1394 0
 3631 14ce 0223     		movs	r3, #2
 3632 14d0 8DF80A30 		strb	r3, [sp, #10]
 3633              		.loc 1 1395 0
 3634 14d4 0123     		movs	r3, #1
 3635 14d6 8DF80E30 		strb	r3, [sp, #14]
 3636              		.loc 1 1396 0
 3637 14da 0023     		movs	r3, #0
 3638 14dc 8DF80D30 		strb	r3, [sp, #13]
 3639              		.loc 1 1399 0
 3640 14e0 02AB     		add	r3, sp, #8
 3641 14e2 0198     		ldr	r0, [sp, #4]
 3642 14e4 1946     		mov	r1, r3
 3643 14e6 FFF7FEFF 		bl	LPS22HB_Set_GenericConfig
 3644 14ea 0346     		mov	r3, r0
 3645 14ec 002B     		cmp	r3, #0
 3646 14ee 01D0     		beq	.L271
 3647              		.loc 1 1400 0
 3648 14f0 0123     		movs	r3, #1
 3649 14f2 00E0     		b	.L272
 3650              	.L271:
 3651              		.loc 1 1402 0
 3652 14f4 0023     		movs	r3, #0
 3653              	.L272:
 3654              		.loc 1 1403 0
 3655 14f6 1846     		mov	r0, r3
 3656 14f8 05B0     		add	sp, sp, #20
 3657              		@ sp needed
 3658 14fa 5DF804FB 		ldr	pc, [sp], #4
 3659              		.cfi_endproc
 3660              	.LFE56:
 3661              		.size	LPS22HB_Init, .-LPS22HB_Init
 3662 14fe 00BF     		.align	2
 3663              		.p2align 4,,15
 3664              		.global	LPS22HB_DeInit
ARM GAS  /tmp/ccBklucm.s 			page 66


 3665              		.thumb
 3666              		.thumb_func
 3667              		.type	LPS22HB_DeInit, %function
 3668              	LPS22HB_DeInit:
 3669              	.LFB57:
 3670              		.loc 1 1412 0
 3671              		.cfi_startproc
 3672              		@ args = 0, pretend = 0, frame = 16
 3673              		@ frame_needed = 0, uses_anonymous_args = 0
 3674 1500 00B5     		push	{lr}
 3675              		.cfi_def_cfa_offset 4
 3676              		.cfi_offset 14, -4
 3677 1502 85B0     		sub	sp, sp, #20
 3678              		.cfi_def_cfa_offset 24
 3679 1504 0190     		str	r0, [sp, #4]
 3680              		.loc 1 1416 0
 3681 1506 0198     		ldr	r0, [sp, #4]
 3682 1508 FFF7FEFF 		bl	LPS22HB_SwResetAndMemoryBoot
 3683 150c 0346     		mov	r3, r0
 3684 150e 002B     		cmp	r3, #0
 3685 1510 01D0     		beq	.L274
 3686              		.loc 1 1417 0
 3687 1512 0123     		movs	r3, #1
 3688 1514 0AE0     		b	.L277
 3689              	.L274:
 3690              		.loc 1 1420 0
 3691 1516 02AB     		add	r3, sp, #8
 3692 1518 0198     		ldr	r0, [sp, #4]
 3693 151a 1946     		mov	r1, r3
 3694 151c FFF7FEFF 		bl	LPS22HB_Get_Measurement
 3695 1520 0346     		mov	r3, r0
 3696 1522 002B     		cmp	r3, #0
 3697 1524 01D0     		beq	.L276
 3698              		.loc 1 1421 0
 3699 1526 0123     		movs	r3, #1
 3700 1528 00E0     		b	.L277
 3701              	.L276:
 3702              		.loc 1 1423 0
 3703 152a 0023     		movs	r3, #0
 3704              	.L277:
 3705              		.loc 1 1424 0
 3706 152c 1846     		mov	r0, r3
 3707 152e 05B0     		add	sp, sp, #20
 3708              		@ sp needed
 3709 1530 5DF804FB 		ldr	pc, [sp], #4
 3710              		.cfi_endproc
 3711              	.LFE57:
 3712              		.size	LPS22HB_DeInit, .-LPS22HB_DeInit
 3713              		.align	2
 3714 1534 AFF30080 		.p2align 4,,15
 3714      AFF30080 
 3714      AFF30080 
 3715              		.global	LPS22HB_Set_GenericConfig
 3716              		.thumb
 3717              		.thumb_func
 3718              		.type	LPS22HB_Set_GenericConfig, %function
 3719              	LPS22HB_Set_GenericConfig:
ARM GAS  /tmp/ccBklucm.s 			page 67


 3720              	.LFB58:
 3721              		.loc 1 1434 0
 3722              		.cfi_startproc
 3723              		@ args = 0, pretend = 0, frame = 8
 3724              		@ frame_needed = 0, uses_anonymous_args = 0
 3725 1540 00B5     		push	{lr}
 3726              		.cfi_def_cfa_offset 4
 3727              		.cfi_offset 14, -4
 3728 1542 83B0     		sub	sp, sp, #12
 3729              		.cfi_def_cfa_offset 16
 3730 1544 0190     		str	r0, [sp, #4]
 3731 1546 0091     		str	r1, [sp]
 3732              		.loc 1 1437 0
 3733 1548 009B     		ldr	r3, [sp]
 3734 154a 1B78     		ldrb	r3, [r3]	@ zero_extendqisi2
 3735 154c 0198     		ldr	r0, [sp, #4]
 3736 154e 1946     		mov	r1, r3
 3737 1550 FFF7FEFF 		bl	LPS22HB_Set_PowerMode
 3738 1554 0346     		mov	r3, r0
 3739 1556 002B     		cmp	r3, #0
 3740 1558 01D0     		beq	.L279
 3741              		.loc 1 1438 0
 3742 155a 0123     		movs	r3, #1
 3743 155c 42E0     		b	.L280
 3744              	.L279:
 3745              		.loc 1 1441 0
 3746 155e 009B     		ldr	r3, [sp]
 3747 1560 5B78     		ldrb	r3, [r3, #1]	@ zero_extendqisi2
 3748 1562 0198     		ldr	r0, [sp, #4]
 3749 1564 1946     		mov	r1, r3
 3750 1566 FFF7FEFF 		bl	LPS22HB_Set_Odr
 3751 156a 0346     		mov	r3, r0
 3752 156c 002B     		cmp	r3, #0
 3753 156e 01D0     		beq	.L281
 3754              		.loc 1 1442 0
 3755 1570 0123     		movs	r3, #1
 3756 1572 37E0     		b	.L280
 3757              	.L281:
 3758              		.loc 1 1451 0
 3759 1574 009B     		ldr	r3, [sp]
 3760 1576 9B78     		ldrb	r3, [r3, #2]	@ zero_extendqisi2
 3761 1578 0198     		ldr	r0, [sp, #4]
 3762 157a 1946     		mov	r1, r3
 3763 157c FFF7FEFF 		bl	LPS22HB_Set_Bdu
 3764 1580 0346     		mov	r3, r0
 3765 1582 002B     		cmp	r3, #0
 3766 1584 01D0     		beq	.L282
 3767              		.loc 1 1452 0
 3768 1586 0123     		movs	r3, #1
 3769 1588 2CE0     		b	.L280
 3770              	.L282:
 3771              		.loc 1 1455 0
 3772 158a 009B     		ldr	r3, [sp]
 3773 158c DB78     		ldrb	r3, [r3, #3]	@ zero_extendqisi2
 3774 158e 0198     		ldr	r0, [sp, #4]
 3775 1590 1946     		mov	r1, r3
 3776 1592 FFF7FEFF 		bl	LPS22HB_Set_LowPassFilter
ARM GAS  /tmp/ccBklucm.s 			page 68


 3777 1596 0346     		mov	r3, r0
 3778 1598 002B     		cmp	r3, #0
 3779 159a 01D0     		beq	.L283
 3780              		.loc 1 1456 0
 3781 159c 0123     		movs	r3, #1
 3782 159e 21E0     		b	.L280
 3783              	.L283:
 3784              		.loc 1 1459 0
 3785 15a0 009B     		ldr	r3, [sp]
 3786 15a2 1B79     		ldrb	r3, [r3, #4]	@ zero_extendqisi2
 3787 15a4 0198     		ldr	r0, [sp, #4]
 3788 15a6 1946     		mov	r1, r3
 3789 15a8 FFF7FEFF 		bl	LPS22HB_Set_LowPassFilterCutoff
 3790 15ac 0346     		mov	r3, r0
 3791 15ae 002B     		cmp	r3, #0
 3792 15b0 01D0     		beq	.L284
 3793              		.loc 1 1460 0
 3794 15b2 0123     		movs	r3, #1
 3795 15b4 16E0     		b	.L280
 3796              	.L284:
 3797              		.loc 1 1465 0
 3798 15b6 009B     		ldr	r3, [sp]
 3799 15b8 5B79     		ldrb	r3, [r3, #5]	@ zero_extendqisi2
 3800 15ba 0198     		ldr	r0, [sp, #4]
 3801 15bc 1946     		mov	r1, r3
 3802 15be FFF7FEFF 		bl	LPS22HB_Set_SpiInterface
 3803 15c2 0346     		mov	r3, r0
 3804 15c4 002B     		cmp	r3, #0
 3805 15c6 01D0     		beq	.L285
 3806              		.loc 1 1466 0
 3807 15c8 0123     		movs	r3, #1
 3808 15ca 0BE0     		b	.L280
 3809              	.L285:
 3810              		.loc 1 1469 0
 3811 15cc 009B     		ldr	r3, [sp]
 3812 15ce 9B79     		ldrb	r3, [r3, #6]	@ zero_extendqisi2
 3813 15d0 0198     		ldr	r0, [sp, #4]
 3814 15d2 1946     		mov	r1, r3
 3815 15d4 FFF7FEFF 		bl	LPS22HB_Set_AutomaticIncrementRegAddress
 3816 15d8 0346     		mov	r3, r0
 3817 15da 002B     		cmp	r3, #0
 3818 15dc 01D0     		beq	.L286
 3819              		.loc 1 1470 0
 3820 15de 0123     		movs	r3, #1
 3821 15e0 00E0     		b	.L280
 3822              	.L286:
 3823              		.loc 1 1473 0
 3824 15e2 0023     		movs	r3, #0
 3825              	.L280:
 3826              		.loc 1 1474 0
 3827 15e4 1846     		mov	r0, r3
 3828 15e6 03B0     		add	sp, sp, #12
 3829              		@ sp needed
 3830 15e8 5DF804FB 		ldr	pc, [sp], #4
 3831              		.cfi_endproc
 3832              	.LFE58:
 3833              		.size	LPS22HB_Set_GenericConfig, .-LPS22HB_Set_GenericConfig
ARM GAS  /tmp/ccBklucm.s 			page 69


 3834              		.align	2
 3835 15ec AFF30080 		.p2align 4,,15
 3836              		.global	LPS22HB_Get_GenericConfig
 3837              		.thumb
 3838              		.thumb_func
 3839              		.type	LPS22HB_Get_GenericConfig, %function
 3840              	LPS22HB_Get_GenericConfig:
 3841              	.LFB59:
 3842              		.loc 1 1483 0
 3843              		.cfi_startproc
 3844              		@ args = 0, pretend = 0, frame = 16
 3845              		@ frame_needed = 0, uses_anonymous_args = 0
 3846 15f0 00B5     		push	{lr}
 3847              		.cfi_def_cfa_offset 4
 3848              		.cfi_offset 14, -4
 3849 15f2 85B0     		sub	sp, sp, #20
 3850              		.cfi_def_cfa_offset 24
 3851 15f4 0190     		str	r0, [sp, #4]
 3852 15f6 0091     		str	r1, [sp]
 3853              		.loc 1 1488 0
 3854 15f8 009B     		ldr	r3, [sp]
 3855 15fa 0198     		ldr	r0, [sp, #4]
 3856 15fc 1946     		mov	r1, r3
 3857 15fe FFF7FEFF 		bl	LPS22HB_Get_PowerMode
 3858 1602 0346     		mov	r3, r0
 3859 1604 002B     		cmp	r3, #0
 3860 1606 01D0     		beq	.L288
 3861              		.loc 1 1489 0
 3862 1608 0123     		movs	r3, #1
 3863 160a 44E0     		b	.L292
 3864              	.L288:
 3865              		.loc 1 1492 0
 3866 160c 0DF10F03 		add	r3, sp, #15
 3867 1610 0198     		ldr	r0, [sp, #4]
 3868 1612 1021     		movs	r1, #16
 3869 1614 0122     		movs	r2, #1
 3870 1616 FFF7FEFF 		bl	LPS22HB_ReadReg
 3871 161a 0346     		mov	r3, r0
 3872 161c 002B     		cmp	r3, #0
 3873 161e 01D0     		beq	.L290
 3874              		.loc 1 1493 0
 3875 1620 0123     		movs	r3, #1
 3876 1622 38E0     		b	.L292
 3877              	.L290:
 3878              		.loc 1 1495 0
 3879 1624 9DF80F30 		ldrb	r3, [sp, #15]	@ zero_extendqisi2
 3880 1628 03F07003 		and	r3, r3, #112
 3881 162c DAB2     		uxtb	r2, r3
 3882 162e 009B     		ldr	r3, [sp]
 3883 1630 5A70     		strb	r2, [r3, #1]
 3884              		.loc 1 1496 0
 3885 1632 9DF80F30 		ldrb	r3, [sp, #15]	@ zero_extendqisi2
 3886 1636 03F00203 		and	r3, r3, #2
 3887 163a DAB2     		uxtb	r2, r3
 3888 163c 009B     		ldr	r3, [sp]
 3889 163e 9A70     		strb	r2, [r3, #2]
 3890              		.loc 1 1497 0
ARM GAS  /tmp/ccBklucm.s 			page 70


 3891 1640 9DF80F30 		ldrb	r3, [sp, #15]	@ zero_extendqisi2
 3892 1644 03F00103 		and	r3, r3, #1
 3893 1648 DAB2     		uxtb	r2, r3
 3894 164a 009B     		ldr	r3, [sp]
 3895 164c 5A71     		strb	r2, [r3, #5]
 3896              		.loc 1 1498 0
 3897 164e 9DF80F30 		ldrb	r3, [sp, #15]	@ zero_extendqisi2
 3898 1652 03F00803 		and	r3, r3, #8
 3899 1656 DB10     		asrs	r3, r3, #3
 3900 1658 DAB2     		uxtb	r2, r3
 3901 165a 009B     		ldr	r3, [sp]
 3902 165c DA70     		strb	r2, [r3, #3]
 3903              		.loc 1 1499 0
 3904 165e 9DF80F30 		ldrb	r3, [sp, #15]	@ zero_extendqisi2
 3905 1662 03F00403 		and	r3, r3, #4
 3906 1666 DAB2     		uxtb	r2, r3
 3907 1668 009B     		ldr	r3, [sp]
 3908 166a 1A71     		strb	r2, [r3, #4]
 3909              		.loc 1 1502 0
 3910 166c 0DF10F03 		add	r3, sp, #15
 3911 1670 0198     		ldr	r0, [sp, #4]
 3912 1672 1121     		movs	r1, #17
 3913 1674 0122     		movs	r2, #1
 3914 1676 FFF7FEFF 		bl	LPS22HB_ReadReg
 3915 167a 0346     		mov	r3, r0
 3916 167c 002B     		cmp	r3, #0
 3917 167e 01D0     		beq	.L291
 3918              		.loc 1 1503 0
 3919 1680 0123     		movs	r3, #1
 3920 1682 08E0     		b	.L292
 3921              	.L291:
 3922              		.loc 1 1505 0
 3923 1684 9DF80F30 		ldrb	r3, [sp, #15]	@ zero_extendqisi2
 3924 1688 03F01003 		and	r3, r3, #16
 3925 168c 1B11     		asrs	r3, r3, #4
 3926 168e DAB2     		uxtb	r2, r3
 3927 1690 009B     		ldr	r3, [sp]
 3928 1692 9A71     		strb	r2, [r3, #6]
 3929              		.loc 1 1507 0
 3930 1694 0023     		movs	r3, #0
 3931              	.L292:
 3932              		.loc 1 1508 0
 3933 1696 1846     		mov	r0, r3
 3934 1698 05B0     		add	sp, sp, #20
 3935              		@ sp needed
 3936 169a 5DF804FB 		ldr	pc, [sp], #4
 3937              		.cfi_endproc
 3938              	.LFE59:
 3939              		.size	LPS22HB_Get_GenericConfig, .-LPS22HB_Get_GenericConfig
 3940 169e 00BF     		.align	2
 3941              		.p2align 4,,15
 3942              		.global	LPS22HB_Set_InterruptConfig
 3943              		.thumb
 3944              		.thumb_func
 3945              		.type	LPS22HB_Set_InterruptConfig, %function
 3946              	LPS22HB_Set_InterruptConfig:
 3947              	.LFB60:
ARM GAS  /tmp/ccBklucm.s 			page 71


 3948              		.loc 1 1518 0
 3949              		.cfi_startproc
 3950              		@ args = 0, pretend = 0, frame = 8
 3951              		@ frame_needed = 0, uses_anonymous_args = 0
 3952 16a0 00B5     		push	{lr}
 3953              		.cfi_def_cfa_offset 4
 3954              		.cfi_offset 14, -4
 3955 16a2 83B0     		sub	sp, sp, #12
 3956              		.cfi_def_cfa_offset 16
 3957 16a4 0190     		str	r0, [sp, #4]
 3958 16a6 0091     		str	r1, [sp]
 3959              		.loc 1 1520 0
 3960 16a8 009B     		ldr	r3, [sp]
 3961 16aa 1B78     		ldrb	r3, [r3]	@ zero_extendqisi2
 3962 16ac 0198     		ldr	r0, [sp, #4]
 3963 16ae 1946     		mov	r1, r3
 3964 16b0 FFF7FEFF 		bl	LPS22HB_Set_InterruptActiveLevel
 3965 16b4 0346     		mov	r3, r0
 3966 16b6 002B     		cmp	r3, #0
 3967 16b8 01D0     		beq	.L294
 3968              		.loc 1 1521 0
 3969 16ba 0123     		movs	r3, #1
 3970 16bc E7E0     		b	.L295
 3971              	.L294:
 3972              		.loc 1 1524 0
 3973 16be 009B     		ldr	r3, [sp]
 3974 16c0 5B78     		ldrb	r3, [r3, #1]	@ zero_extendqisi2
 3975 16c2 0198     		ldr	r0, [sp, #4]
 3976 16c4 1946     		mov	r1, r3
 3977 16c6 FFF7FEFF 		bl	LPS22HB_Set_InterruptOutputType
 3978 16ca 0346     		mov	r3, r0
 3979 16cc 002B     		cmp	r3, #0
 3980 16ce 01D0     		beq	.L296
 3981              		.loc 1 1525 0
 3982 16d0 0123     		movs	r3, #1
 3983 16d2 DCE0     		b	.L295
 3984              	.L296:
 3985              		.loc 1 1528 0
 3986 16d4 009B     		ldr	r3, [sp]
 3987 16d6 9B78     		ldrb	r3, [r3, #2]	@ zero_extendqisi2
 3988 16d8 0198     		ldr	r0, [sp, #4]
 3989 16da 1946     		mov	r1, r3
 3990 16dc FFF7FEFF 		bl	LPS22HB_Set_InterruptControlConfig
 3991 16e0 0346     		mov	r3, r0
 3992 16e2 002B     		cmp	r3, #0
 3993 16e4 01D0     		beq	.L297
 3994              		.loc 1 1529 0
 3995 16e6 0123     		movs	r3, #1
 3996 16e8 D1E0     		b	.L295
 3997              	.L297:
 3998              		.loc 1 1532 0
 3999 16ea 009B     		ldr	r3, [sp]
 4000 16ec DB78     		ldrb	r3, [r3, #3]	@ zero_extendqisi2
 4001 16ee 0198     		ldr	r0, [sp, #4]
 4002 16f0 1946     		mov	r1, r3
 4003 16f2 FFF7FEFF 		bl	LPS22HB_Set_DRDYInterrupt
 4004 16f6 0346     		mov	r3, r0
ARM GAS  /tmp/ccBklucm.s 			page 72


 4005 16f8 002B     		cmp	r3, #0
 4006 16fa 01D0     		beq	.L298
 4007              		.loc 1 1533 0
 4008 16fc 0123     		movs	r3, #1
 4009 16fe C6E0     		b	.L295
 4010              	.L298:
 4011              		.loc 1 1536 0
 4012 1700 009B     		ldr	r3, [sp]
 4013 1702 1B79     		ldrb	r3, [r3, #4]	@ zero_extendqisi2
 4014 1704 0198     		ldr	r0, [sp, #4]
 4015 1706 1946     		mov	r1, r3
 4016 1708 FFF7FEFF 		bl	LPS22HB_Set_FIFO_OVR_Interrupt
 4017 170c 0346     		mov	r3, r0
 4018 170e 002B     		cmp	r3, #0
 4019 1710 01D0     		beq	.L299
 4020              		.loc 1 1537 0
 4021 1712 0123     		movs	r3, #1
 4022 1714 BBE0     		b	.L295
 4023              	.L299:
 4024              		.loc 1 1540 0
 4025 1716 009B     		ldr	r3, [sp]
 4026 1718 5B79     		ldrb	r3, [r3, #5]	@ zero_extendqisi2
 4027 171a 0198     		ldr	r0, [sp, #4]
 4028 171c 1946     		mov	r1, r3
 4029 171e FFF7FEFF 		bl	LPS22HB_Set_FIFO_FTH_Interrupt
 4030 1722 0346     		mov	r3, r0
 4031 1724 002B     		cmp	r3, #0
 4032 1726 01D0     		beq	.L300
 4033              		.loc 1 1541 0
 4034 1728 0123     		movs	r3, #1
 4035 172a B0E0     		b	.L295
 4036              	.L300:
 4037              		.loc 1 1544 0
 4038 172c 009B     		ldr	r3, [sp]
 4039 172e 9B79     		ldrb	r3, [r3, #6]	@ zero_extendqisi2
 4040 1730 0198     		ldr	r0, [sp, #4]
 4041 1732 1946     		mov	r1, r3
 4042 1734 FFF7FEFF 		bl	LPS22HB_Set_FIFO_FULL_Interrupt
 4043 1738 0346     		mov	r3, r0
 4044 173a 002B     		cmp	r3, #0
 4045 173c 01D0     		beq	.L301
 4046              		.loc 1 1545 0
 4047 173e 0123     		movs	r3, #1
 4048 1740 A5E0     		b	.L295
 4049              	.L301:
 4050              		.loc 1 1548 0
 4051 1742 009B     		ldr	r3, [sp]
 4052 1744 DB79     		ldrb	r3, [r3, #7]	@ zero_extendqisi2
 4053 1746 0198     		ldr	r0, [sp, #4]
 4054 1748 1946     		mov	r1, r3
 4055 174a FFF7FEFF 		bl	LPS22HB_LatchInterruptRequest
 4056 174e 0346     		mov	r3, r0
 4057 1750 002B     		cmp	r3, #0
 4058 1752 01D0     		beq	.L302
 4059              		.loc 1 1549 0
 4060 1754 0123     		movs	r3, #1
 4061 1756 9AE0     		b	.L295
ARM GAS  /tmp/ccBklucm.s 			page 73


 4062              	.L302:
 4063              		.loc 1 1552 0
 4064 1758 009B     		ldr	r3, [sp]
 4065 175a 1B89     		ldrh	r3, [r3, #8]
 4066 175c 1BB2     		sxth	r3, r3
 4067 175e 0198     		ldr	r0, [sp, #4]
 4068 1760 1946     		mov	r1, r3
 4069 1762 FFF7FEFF 		bl	LPS22HB_Set_PressureThreshold
 4070 1766 0346     		mov	r3, r0
 4071 1768 002B     		cmp	r3, #0
 4072 176a 01D0     		beq	.L303
 4073              		.loc 1 1553 0
 4074 176c 0123     		movs	r3, #1
 4075 176e 8EE0     		b	.L295
 4076              	.L303:
 4077              		.loc 1 1556 0
 4078 1770 009B     		ldr	r3, [sp]
 4079 1772 9B7A     		ldrb	r3, [r3, #10]	@ zero_extendqisi2
 4080 1774 012B     		cmp	r3, #1
 4081 1776 07D1     		bne	.L304
 4082              		.loc 1 1558 0
 4083 1778 0198     		ldr	r0, [sp, #4]
 4084 177a FFF7FEFF 		bl	LPS22HB_Set_AutoRifP
 4085 177e 0346     		mov	r3, r0
 4086 1780 002B     		cmp	r3, #0
 4087 1782 09D0     		beq	.L305
 4088              		.loc 1 1559 0
 4089 1784 0123     		movs	r3, #1
 4090 1786 82E0     		b	.L295
 4091              	.L304:
 4092              		.loc 1 1563 0
 4093 1788 0198     		ldr	r0, [sp, #4]
 4094 178a FFF7FEFF 		bl	LPS22HB_ResetAutoRifP
 4095 178e 0346     		mov	r3, r0
 4096 1790 002B     		cmp	r3, #0
 4097 1792 01D0     		beq	.L305
 4098              		.loc 1 1564 0
 4099 1794 0123     		movs	r3, #1
 4100 1796 7AE0     		b	.L295
 4101              	.L305:
 4102              		.loc 1 1568 0
 4103 1798 009B     		ldr	r3, [sp]
 4104 179a DB7A     		ldrb	r3, [r3, #11]	@ zero_extendqisi2
 4105 179c 012B     		cmp	r3, #1
 4106 179e 07D1     		bne	.L306
 4107              		.loc 1 1570 0
 4108 17a0 0198     		ldr	r0, [sp, #4]
 4109 17a2 FFF7FEFF 		bl	LPS22HB_Set_AutoZeroFunction
 4110 17a6 0346     		mov	r3, r0
 4111 17a8 002B     		cmp	r3, #0
 4112 17aa 09D0     		beq	.L307
 4113              		.loc 1 1571 0
 4114 17ac 0123     		movs	r3, #1
 4115 17ae 6EE0     		b	.L295
 4116              	.L306:
 4117              		.loc 1 1575 0
 4118 17b0 0198     		ldr	r0, [sp, #4]
ARM GAS  /tmp/ccBklucm.s 			page 74


 4119 17b2 FFF7FEFF 		bl	LPS22HB_ResetAutoZeroFunction
 4120 17b6 0346     		mov	r3, r0
 4121 17b8 002B     		cmp	r3, #0
 4122 17ba 01D0     		beq	.L307
 4123              		.loc 1 1576 0
 4124 17bc 0123     		movs	r3, #1
 4125 17be 66E0     		b	.L295
 4126              	.L307:
 4127              		.loc 1 1580 0
 4128 17c0 009B     		ldr	r3, [sp]
 4129 17c2 9B78     		ldrb	r3, [r3, #2]	@ zero_extendqisi2
 4130 17c4 012B     		cmp	r3, #1
 4131 17c6 11D1     		bne	.L308
 4132              		.loc 1 1583 0
 4133 17c8 0198     		ldr	r0, [sp, #4]
 4134 17ca 0121     		movs	r1, #1
 4135 17cc FFF7FEFF 		bl	LPS22HB_Set_PHE
 4136 17d0 0346     		mov	r3, r0
 4137 17d2 002B     		cmp	r3, #0
 4138 17d4 01D0     		beq	.L309
 4139              		.loc 1 1584 0
 4140 17d6 0123     		movs	r3, #1
 4141 17d8 59E0     		b	.L295
 4142              	.L309:
 4143              		.loc 1 1585 0
 4144 17da 0198     		ldr	r0, [sp, #4]
 4145 17dc 0121     		movs	r1, #1
 4146 17de FFF7FEFF 		bl	LPS22HB_Set_InterruptDifferentialGeneration
 4147 17e2 0346     		mov	r3, r0
 4148 17e4 002B     		cmp	r3, #0
 4149 17e6 51D0     		beq	.L310
 4150              		.loc 1 1586 0
 4151 17e8 0123     		movs	r3, #1
 4152 17ea 50E0     		b	.L295
 4153              	.L308:
 4154              		.loc 1 1588 0
 4155 17ec 009B     		ldr	r3, [sp]
 4156 17ee 9B78     		ldrb	r3, [r3, #2]	@ zero_extendqisi2
 4157 17f0 022B     		cmp	r3, #2
 4158 17f2 11D1     		bne	.L311
 4159              		.loc 1 1591 0
 4160 17f4 0198     		ldr	r0, [sp, #4]
 4161 17f6 0121     		movs	r1, #1
 4162 17f8 FFF7FEFF 		bl	LPS22HB_Set_PLE
 4163 17fc 0346     		mov	r3, r0
 4164 17fe 002B     		cmp	r3, #0
 4165 1800 01D0     		beq	.L312
 4166              		.loc 1 1592 0
 4167 1802 0123     		movs	r3, #1
 4168 1804 43E0     		b	.L295
 4169              	.L312:
 4170              		.loc 1 1593 0
 4171 1806 0198     		ldr	r0, [sp, #4]
 4172 1808 0121     		movs	r1, #1
 4173 180a FFF7FEFF 		bl	LPS22HB_Set_InterruptDifferentialGeneration
 4174 180e 0346     		mov	r3, r0
 4175 1810 002B     		cmp	r3, #0
ARM GAS  /tmp/ccBklucm.s 			page 75


 4176 1812 3BD0     		beq	.L310
 4177              		.loc 1 1594 0
 4178 1814 0123     		movs	r3, #1
 4179 1816 3AE0     		b	.L295
 4180              	.L311:
 4181              		.loc 1 1596 0
 4182 1818 009B     		ldr	r3, [sp]
 4183 181a 9B78     		ldrb	r3, [r3, #2]	@ zero_extendqisi2
 4184 181c 032B     		cmp	r3, #3
 4185 181e 1AD1     		bne	.L313
 4186              		.loc 1 1599 0
 4187 1820 0198     		ldr	r0, [sp, #4]
 4188 1822 0121     		movs	r1, #1
 4189 1824 FFF7FEFF 		bl	LPS22HB_Set_PHE
 4190 1828 0346     		mov	r3, r0
 4191 182a 002B     		cmp	r3, #0
 4192 182c 01D0     		beq	.L314
 4193              		.loc 1 1600 0
 4194 182e 0123     		movs	r3, #1
 4195 1830 2DE0     		b	.L295
 4196              	.L314:
 4197              		.loc 1 1602 0
 4198 1832 0198     		ldr	r0, [sp, #4]
 4199 1834 0121     		movs	r1, #1
 4200 1836 FFF7FEFF 		bl	LPS22HB_Set_PLE
 4201 183a 0346     		mov	r3, r0
 4202 183c 002B     		cmp	r3, #0
 4203 183e 01D0     		beq	.L315
 4204              		.loc 1 1603 0
 4205 1840 0123     		movs	r3, #1
 4206 1842 24E0     		b	.L295
 4207              	.L315:
 4208              		.loc 1 1604 0
 4209 1844 0198     		ldr	r0, [sp, #4]
 4210 1846 0121     		movs	r1, #1
 4211 1848 FFF7FEFF 		bl	LPS22HB_Set_InterruptDifferentialGeneration
 4212 184c 0346     		mov	r3, r0
 4213 184e 002B     		cmp	r3, #0
 4214 1850 1CD0     		beq	.L310
 4215              		.loc 1 1605 0
 4216 1852 0123     		movs	r3, #1
 4217 1854 1BE0     		b	.L295
 4218              	.L313:
 4219              		.loc 1 1609 0
 4220 1856 0198     		ldr	r0, [sp, #4]
 4221 1858 0021     		movs	r1, #0
 4222 185a FFF7FEFF 		bl	LPS22HB_Set_InterruptDifferentialGeneration
 4223 185e 0346     		mov	r3, r0
 4224 1860 002B     		cmp	r3, #0
 4225 1862 01D0     		beq	.L316
 4226              		.loc 1 1610 0
 4227 1864 0123     		movs	r3, #1
 4228 1866 12E0     		b	.L295
 4229              	.L316:
 4230              		.loc 1 1612 0
 4231 1868 0198     		ldr	r0, [sp, #4]
 4232 186a 0021     		movs	r1, #0
ARM GAS  /tmp/ccBklucm.s 			page 76


 4233 186c FFF7FEFF 		bl	LPS22HB_Set_PHE
 4234 1870 0346     		mov	r3, r0
 4235 1872 002B     		cmp	r3, #0
 4236 1874 01D0     		beq	.L317
 4237              		.loc 1 1613 0
 4238 1876 0123     		movs	r3, #1
 4239 1878 09E0     		b	.L295
 4240              	.L317:
 4241              		.loc 1 1615 0
 4242 187a 0198     		ldr	r0, [sp, #4]
 4243 187c 0021     		movs	r1, #0
 4244 187e FFF7FEFF 		bl	LPS22HB_Set_PLE
 4245 1882 0346     		mov	r3, r0
 4246 1884 002B     		cmp	r3, #0
 4247 1886 01D0     		beq	.L310
 4248              		.loc 1 1616 0
 4249 1888 0123     		movs	r3, #1
 4250 188a 00E0     		b	.L295
 4251              	.L310:
 4252              		.loc 1 1619 0
 4253 188c 0023     		movs	r3, #0
 4254              	.L295:
 4255              		.loc 1 1620 0
 4256 188e 1846     		mov	r0, r3
 4257 1890 03B0     		add	sp, sp, #12
 4258              		@ sp needed
 4259 1892 5DF804FB 		ldr	pc, [sp], #4
 4260              		.cfi_endproc
 4261              	.LFE60:
 4262              		.size	LPS22HB_Set_InterruptConfig, .-LPS22HB_Set_InterruptConfig
 4263 1896 00BF     		.align	2
 4264 1898 AFF30080 		.p2align 4,,15
 4264      AFF30080 
 4265              		.global	LPS22HB_Get_InterruptConfig
 4266              		.thumb
 4267              		.thumb_func
 4268              		.type	LPS22HB_Get_InterruptConfig, %function
 4269              	LPS22HB_Get_InterruptConfig:
 4270              	.LFB61:
 4271              		.loc 1 1629 0
 4272              		.cfi_startproc
 4273              		@ args = 0, pretend = 0, frame = 16
 4274              		@ frame_needed = 0, uses_anonymous_args = 0
 4275 18a0 00B5     		push	{lr}
 4276              		.cfi_def_cfa_offset 4
 4277              		.cfi_offset 14, -4
 4278 18a2 85B0     		sub	sp, sp, #20
 4279              		.cfi_def_cfa_offset 24
 4280 18a4 0190     		str	r0, [sp, #4]
 4281 18a6 0091     		str	r1, [sp]
 4282              		.loc 1 1633 0
 4283 18a8 0DF10F03 		add	r3, sp, #15
 4284 18ac 0198     		ldr	r0, [sp, #4]
 4285 18ae 1221     		movs	r1, #18
 4286 18b0 0122     		movs	r2, #1
 4287 18b2 FFF7FEFF 		bl	LPS22HB_ReadReg
 4288 18b6 0346     		mov	r3, r0
ARM GAS  /tmp/ccBklucm.s 			page 77


 4289 18b8 002B     		cmp	r3, #0
 4290 18ba 01D0     		beq	.L319
 4291              		.loc 1 1634 0
 4292 18bc 0123     		movs	r3, #1
 4293 18be 5AE0     		b	.L323
 4294              	.L319:
 4295              		.loc 1 1636 0
 4296 18c0 9DF80F30 		ldrb	r3, [sp, #15]	@ zero_extendqisi2
 4297 18c4 23F07F03 		bic	r3, r3, #127
 4298 18c8 DAB2     		uxtb	r2, r3
 4299 18ca 009B     		ldr	r3, [sp]
 4300 18cc 1A70     		strb	r2, [r3]
 4301              		.loc 1 1637 0
 4302 18ce 9DF80F30 		ldrb	r3, [sp, #15]	@ zero_extendqisi2
 4303 18d2 03F04003 		and	r3, r3, #64
 4304 18d6 DAB2     		uxtb	r2, r3
 4305 18d8 009B     		ldr	r3, [sp]
 4306 18da 5A70     		strb	r2, [r3, #1]
 4307              		.loc 1 1638 0
 4308 18dc 9DF80F30 		ldrb	r3, [sp, #15]	@ zero_extendqisi2
 4309 18e0 03F00303 		and	r3, r3, #3
 4310 18e4 DAB2     		uxtb	r2, r3
 4311 18e6 009B     		ldr	r3, [sp]
 4312 18e8 9A70     		strb	r2, [r3, #2]
 4313              		.loc 1 1639 0
 4314 18ea 9DF80F30 		ldrb	r3, [sp, #15]	@ zero_extendqisi2
 4315 18ee 03F00403 		and	r3, r3, #4
 4316 18f2 9B10     		asrs	r3, r3, #2
 4317 18f4 DAB2     		uxtb	r2, r3
 4318 18f6 009B     		ldr	r3, [sp]
 4319 18f8 DA70     		strb	r2, [r3, #3]
 4320              		.loc 1 1640 0
 4321 18fa 9DF80F30 		ldrb	r3, [sp, #15]	@ zero_extendqisi2
 4322 18fe 03F00803 		and	r3, r3, #8
 4323 1902 DB10     		asrs	r3, r3, #3
 4324 1904 DAB2     		uxtb	r2, r3
 4325 1906 009B     		ldr	r3, [sp]
 4326 1908 1A71     		strb	r2, [r3, #4]
 4327              		.loc 1 1641 0
 4328 190a 9DF80F30 		ldrb	r3, [sp, #15]	@ zero_extendqisi2
 4329 190e 03F01003 		and	r3, r3, #16
 4330 1912 1B11     		asrs	r3, r3, #4
 4331 1914 DAB2     		uxtb	r2, r3
 4332 1916 009B     		ldr	r3, [sp]
 4333 1918 5A71     		strb	r2, [r3, #5]
 4334              		.loc 1 1642 0
 4335 191a 9DF80F30 		ldrb	r3, [sp, #15]	@ zero_extendqisi2
 4336 191e 03F02003 		and	r3, r3, #32
 4337 1922 5B11     		asrs	r3, r3, #5
 4338 1924 DAB2     		uxtb	r2, r3
 4339 1926 009B     		ldr	r3, [sp]
 4340 1928 9A71     		strb	r2, [r3, #6]
 4341              		.loc 1 1645 0
 4342 192a 0DF10F03 		add	r3, sp, #15
 4343 192e 0198     		ldr	r0, [sp, #4]
 4344 1930 0B21     		movs	r1, #11
 4345 1932 0122     		movs	r2, #1
ARM GAS  /tmp/ccBklucm.s 			page 78


 4346 1934 FFF7FEFF 		bl	LPS22HB_ReadReg
 4347 1938 0346     		mov	r3, r0
 4348 193a 002B     		cmp	r3, #0
 4349 193c 01D0     		beq	.L321
 4350              		.loc 1 1646 0
 4351 193e 0123     		movs	r3, #1
 4352 1940 19E0     		b	.L323
 4353              	.L321:
 4354              		.loc 1 1648 0
 4355 1942 9DF80F30 		ldrb	r3, [sp, #15]	@ zero_extendqisi2
 4356 1946 03F00403 		and	r3, r3, #4
 4357 194a 9B10     		asrs	r3, r3, #2
 4358 194c DAB2     		uxtb	r2, r3
 4359 194e 009B     		ldr	r3, [sp]
 4360 1950 DA71     		strb	r2, [r3, #7]
 4361              		.loc 1 1650 0
 4362 1952 009B     		ldr	r3, [sp]
 4363 1954 0833     		adds	r3, r3, #8
 4364 1956 0198     		ldr	r0, [sp, #4]
 4365 1958 1946     		mov	r1, r3
 4366 195a FFF7FEFF 		bl	LPS22HB_Get_PressureThreshold
 4367 195e 0346     		mov	r3, r0
 4368 1960 002B     		cmp	r3, #0
 4369 1962 01D0     		beq	.L322
 4370              		.loc 1 1651 0
 4371 1964 0123     		movs	r3, #1
 4372 1966 06E0     		b	.L323
 4373              	.L322:
 4374              		.loc 1 1654 0
 4375 1968 009B     		ldr	r3, [sp]
 4376 196a 0022     		movs	r2, #0
 4377 196c 9A72     		strb	r2, [r3, #10]
 4378              		.loc 1 1655 0
 4379 196e 009B     		ldr	r3, [sp]
 4380 1970 0022     		movs	r2, #0
 4381 1972 DA72     		strb	r2, [r3, #11]
 4382              		.loc 1 1657 0
 4383 1974 0023     		movs	r3, #0
 4384              	.L323:
 4385              		.loc 1 1658 0
 4386 1976 1846     		mov	r0, r3
 4387 1978 05B0     		add	sp, sp, #20
 4388              		@ sp needed
 4389 197a 5DF804FB 		ldr	pc, [sp], #4
 4390              		.cfi_endproc
 4391              	.LFE61:
 4392              		.size	LPS22HB_Get_InterruptConfig, .-LPS22HB_Get_InterruptConfig
 4393 197e 00BF     		.align	2
 4394              		.p2align 4,,15
 4395              		.global	LPS22HB_Set_FifoConfig
 4396              		.thumb
 4397              		.thumb_func
 4398              		.type	LPS22HB_Set_FifoConfig, %function
 4399              	LPS22HB_Set_FifoConfig:
 4400              	.LFB62:
 4401              		.loc 1 1667 0
 4402              		.cfi_startproc
ARM GAS  /tmp/ccBklucm.s 			page 79


 4403              		@ args = 0, pretend = 0, frame = 8
 4404              		@ frame_needed = 0, uses_anonymous_args = 0
 4405 1980 00B5     		push	{lr}
 4406              		.cfi_def_cfa_offset 4
 4407              		.cfi_offset 14, -4
 4408 1982 83B0     		sub	sp, sp, #12
 4409              		.cfi_def_cfa_offset 16
 4410 1984 0190     		str	r0, [sp, #4]
 4411 1986 0091     		str	r1, [sp]
 4412              		.loc 1 1669 0
 4413 1988 009B     		ldr	r3, [sp]
 4414 198a 1B78     		ldrb	r3, [r3]	@ zero_extendqisi2
 4415 198c 002B     		cmp	r3, #0
 4416 198e 1AD1     		bne	.L325
 4417              		.loc 1 1672 0
 4418 1990 0198     		ldr	r0, [sp, #4]
 4419 1992 0021     		movs	r1, #0
 4420 1994 FFF7FEFF 		bl	LPS22HB_Set_FifoModeUse
 4421 1998 0346     		mov	r3, r0
 4422 199a 002B     		cmp	r3, #0
 4423 199c 01D0     		beq	.L326
 4424              		.loc 1 1673 0
 4425 199e 0123     		movs	r3, #1
 4426 19a0 47E0     		b	.L327
 4427              	.L326:
 4428              		.loc 1 1675 0
 4429 19a2 0198     		ldr	r0, [sp, #4]
 4430 19a4 0021     		movs	r1, #0
 4431 19a6 FFF7FEFF 		bl	LPS22HB_Set_FifoWatermarkLevelUse
 4432 19aa 0346     		mov	r3, r0
 4433 19ac 002B     		cmp	r3, #0
 4434 19ae 01D0     		beq	.L328
 4435              		.loc 1 1676 0
 4436 19b0 0123     		movs	r3, #1
 4437 19b2 3EE0     		b	.L327
 4438              	.L328:
 4439              		.loc 1 1679 0
 4440 19b4 0198     		ldr	r0, [sp, #4]
 4441 19b6 0021     		movs	r1, #0
 4442 19b8 FFF7FEFF 		bl	LPS22HB_Set_FIFO_FTH_Interrupt
 4443 19bc 0346     		mov	r3, r0
 4444 19be 002B     		cmp	r3, #0
 4445 19c0 2BD0     		beq	.L329
 4446              		.loc 1 1680 0
 4447 19c2 0123     		movs	r3, #1
 4448 19c4 35E0     		b	.L327
 4449              	.L325:
 4450              		.loc 1 1685 0
 4451 19c6 0198     		ldr	r0, [sp, #4]
 4452 19c8 0121     		movs	r1, #1
 4453 19ca FFF7FEFF 		bl	LPS22HB_Set_FifoModeUse
 4454 19ce 0346     		mov	r3, r0
 4455 19d0 002B     		cmp	r3, #0
 4456 19d2 01D0     		beq	.L330
 4457              		.loc 1 1686 0
 4458 19d4 0123     		movs	r3, #1
 4459 19d6 2CE0     		b	.L327
ARM GAS  /tmp/ccBklucm.s 			page 80


 4460              	.L330:
 4461              		.loc 1 1688 0
 4462 19d8 009B     		ldr	r3, [sp]
 4463 19da 5B78     		ldrb	r3, [r3, #1]	@ zero_extendqisi2
 4464 19dc 002B     		cmp	r3, #0
 4465 19de 1CD0     		beq	.L329
 4466              		.loc 1 1691 0
 4467 19e0 0198     		ldr	r0, [sp, #4]
 4468 19e2 0121     		movs	r1, #1
 4469 19e4 FFF7FEFF 		bl	LPS22HB_Set_FifoWatermarkLevelUse
 4470 19e8 0346     		mov	r3, r0
 4471 19ea 002B     		cmp	r3, #0
 4472 19ec 01D0     		beq	.L331
 4473              		.loc 1 1692 0
 4474 19ee 0123     		movs	r3, #1
 4475 19f0 1FE0     		b	.L327
 4476              	.L331:
 4477              		.loc 1 1694 0
 4478 19f2 009B     		ldr	r3, [sp]
 4479 19f4 9B78     		ldrb	r3, [r3, #2]	@ zero_extendqisi2
 4480 19f6 0198     		ldr	r0, [sp, #4]
 4481 19f8 1946     		mov	r1, r3
 4482 19fa FFF7FEFF 		bl	LPS22HB_Set_FifoWatermarkLevel
 4483 19fe 0346     		mov	r3, r0
 4484 1a00 002B     		cmp	r3, #0
 4485 1a02 01D0     		beq	.L332
 4486              		.loc 1 1695 0
 4487 1a04 0123     		movs	r3, #1
 4488 1a06 14E0     		b	.L327
 4489              	.L332:
 4490              		.loc 1 1697 0
 4491 1a08 0198     		ldr	r0, [sp, #4]
 4492 1a0a 0121     		movs	r1, #1
 4493 1a0c FFF7FEFF 		bl	LPS22HB_Set_FIFO_FTH_Interrupt
 4494 1a10 0346     		mov	r3, r0
 4495 1a12 002B     		cmp	r3, #0
 4496 1a14 01D0     		beq	.L329
 4497              		.loc 1 1698 0
 4498 1a16 0123     		movs	r3, #1
 4499 1a18 0BE0     		b	.L327
 4500              	.L329:
 4501              		.loc 1 1702 0
 4502 1a1a 009B     		ldr	r3, [sp]
 4503 1a1c 1B78     		ldrb	r3, [r3]	@ zero_extendqisi2
 4504 1a1e 0198     		ldr	r0, [sp, #4]
 4505 1a20 1946     		mov	r1, r3
 4506 1a22 FFF7FEFF 		bl	LPS22HB_Set_FifoMode
 4507 1a26 0346     		mov	r3, r0
 4508 1a28 002B     		cmp	r3, #0
 4509 1a2a 01D0     		beq	.L333
 4510              		.loc 1 1703 0
 4511 1a2c 0123     		movs	r3, #1
 4512 1a2e 00E0     		b	.L327
 4513              	.L333:
 4514              		.loc 1 1705 0
 4515 1a30 0023     		movs	r3, #0
 4516              	.L327:
ARM GAS  /tmp/ccBklucm.s 			page 81


 4517              		.loc 1 1706 0
 4518 1a32 1846     		mov	r0, r3
 4519 1a34 03B0     		add	sp, sp, #12
 4520              		@ sp needed
 4521 1a36 5DF804FB 		ldr	pc, [sp], #4
 4522              		.cfi_endproc
 4523              	.LFE62:
 4524              		.size	LPS22HB_Set_FifoConfig, .-LPS22HB_Set_FifoConfig
 4525 1a3a 00BF     		.align	2
 4526 1a3c AFF30080 		.p2align 4,,15
 4527              		.global	LPS22HB_Get_FifoConfig
 4528              		.thumb
 4529              		.thumb_func
 4530              		.type	LPS22HB_Get_FifoConfig, %function
 4531              	LPS22HB_Get_FifoConfig:
 4532              	.LFB63:
 4533              		.loc 1 1715 0
 4534              		.cfi_startproc
 4535              		@ args = 0, pretend = 0, frame = 16
 4536              		@ frame_needed = 0, uses_anonymous_args = 0
 4537 1a40 00B5     		push	{lr}
 4538              		.cfi_def_cfa_offset 4
 4539              		.cfi_offset 14, -4
 4540 1a42 85B0     		sub	sp, sp, #20
 4541              		.cfi_def_cfa_offset 24
 4542 1a44 0190     		str	r0, [sp, #4]
 4543 1a46 0091     		str	r1, [sp]
 4544              		.loc 1 1718 0
 4545 1a48 0DF10F03 		add	r3, sp, #15
 4546 1a4c 0198     		ldr	r0, [sp, #4]
 4547 1a4e 1421     		movs	r1, #20
 4548 1a50 0122     		movs	r2, #1
 4549 1a52 FFF7FEFF 		bl	LPS22HB_ReadReg
 4550 1a56 0346     		mov	r3, r0
 4551 1a58 002B     		cmp	r3, #0
 4552 1a5a 01D0     		beq	.L335
 4553              		.loc 1 1719 0
 4554 1a5c 0123     		movs	r3, #1
 4555 1a5e 22E0     		b	.L338
 4556              	.L335:
 4557              		.loc 1 1722 0
 4558 1a60 9DF80F30 		ldrb	r3, [sp, #15]	@ zero_extendqisi2
 4559 1a64 23F01F03 		bic	r3, r3, #31
 4560 1a68 DAB2     		uxtb	r2, r3
 4561 1a6a 009B     		ldr	r3, [sp]
 4562 1a6c 1A70     		strb	r2, [r3]
 4563              		.loc 1 1725 0
 4564 1a6e 9DF80F30 		ldrb	r3, [sp, #15]	@ zero_extendqisi2
 4565 1a72 03F01F03 		and	r3, r3, #31
 4566 1a76 DAB2     		uxtb	r2, r3
 4567 1a78 009B     		ldr	r3, [sp]
 4568 1a7a 9A70     		strb	r2, [r3, #2]
 4569              		.loc 1 1727 0
 4570 1a7c 0DF10F03 		add	r3, sp, #15
 4571 1a80 0198     		ldr	r0, [sp, #4]
 4572 1a82 1121     		movs	r1, #17
 4573 1a84 0122     		movs	r2, #1
ARM GAS  /tmp/ccBklucm.s 			page 82


 4574 1a86 FFF7FEFF 		bl	LPS22HB_ReadReg
 4575 1a8a 0346     		mov	r3, r0
 4576 1a8c 002B     		cmp	r3, #0
 4577 1a8e 01D0     		beq	.L337
 4578              		.loc 1 1728 0
 4579 1a90 0123     		movs	r3, #1
 4580 1a92 08E0     		b	.L338
 4581              	.L337:
 4582              		.loc 1 1731 0
 4583 1a94 9DF80F30 		ldrb	r3, [sp, #15]	@ zero_extendqisi2
 4584 1a98 03F02003 		and	r3, r3, #32
 4585 1a9c 5B11     		asrs	r3, r3, #5
 4586 1a9e DAB2     		uxtb	r2, r3
 4587 1aa0 009B     		ldr	r3, [sp]
 4588 1aa2 5A70     		strb	r2, [r3, #1]
 4589              		.loc 1 1734 0
 4590 1aa4 0023     		movs	r3, #0
 4591              	.L338:
 4592              		.loc 1 1735 0
 4593 1aa6 1846     		mov	r0, r3
 4594 1aa8 05B0     		add	sp, sp, #20
 4595              		@ sp needed
 4596 1aaa 5DF804FB 		ldr	pc, [sp], #4
 4597              		.cfi_endproc
 4598              	.LFE63:
 4599              		.size	LPS22HB_Get_FifoConfig, .-LPS22HB_Get_FifoConfig
 4600              	.Letext0:
 4601              		.file 2 "/nfs/nfs5/home/research/hardware/arm2/gcc-arm-embedded/gcc-arm-none-eabi-4_8-2014q2/arm-n
 4602              		.file 3 "/nfs/nfs5/home/research/hardware/arm2/gcc-arm-embedded/gcc-arm-none-eabi-4_8-2014q2/arm-n
 4603              		.file 4 "../../../../../Drivers/BSP/Components/lps22hb/LPS22HB_Driver.h"