ARM GAS  /tmp/ccBklucm.s 			page 1


   1              		.syntax unified
   2              		.cpu cortex-m4
   3              		.fpu softvfp
   4              		.eabi_attribute 20, 1
   5              		.eabi_attribute 21, 1
   6              		.eabi_attribute 23, 3
   7              		.eabi_attribute 24, 1
   8              		.eabi_attribute 25, 1
   9              		.eabi_attribute 26, 1
  10              		.eabi_attribute 30, 6
  11              		.eabi_attribute 34, 1
  12              		.eabi_attribute 18, 4
  13              		.thumb
  14              		.file	"LPS22HB_Driver.c"
  15              		.text
  16              	.Ltext0:
  17              		.cfi_sections	.debug_frame
  18              		.align	2
  19              		.p2align 4,,15
  20              		.global	LPS22HB_ReadReg
  21              		.thumb
  22              		.thumb_func
  23              		.type	LPS22HB_ReadReg, %function
  24              	LPS22HB_ReadReg:
  25              	.LFB0:
  26              		.file 1 "../../../../../Drivers/BSP/Components/lps22hb/LPS22HB_Driver.c"
  27              		.loc 1 93 0
  28              		.cfi_startproc
  29              		@ args = 0, pretend = 0, frame = 16
  30              		@ frame_needed = 0, uses_anonymous_args = 0
  31 0000 00B5     		push	{lr}
  32              		.cfi_def_cfa_offset 4
  33              		.cfi_offset 14, -4
  34 0002 85B0     		sub	sp, sp, #20
  35              		.cfi_def_cfa_offset 24
  36 0004 0390     		str	r0, [sp, #12]
  37 0006 0193     		str	r3, [sp, #4]
  38 0008 0B46     		mov	r3, r1
  39 000a 8DF80B30 		strb	r3, [sp, #11]
  40 000e 1346     		mov	r3, r2	@ movhi
  41 0010 ADF80830 		strh	r3, [sp, #8]	@ movhi
  42              		.loc 1 94 0
  43 0014 9DF80B20 		ldrb	r2, [sp, #11]	@ zero_extendqisi2
  44 0018 BDF80830 		ldrh	r3, [sp, #8]
  45 001c 0398     		ldr	r0, [sp, #12]
  46 001e 1146     		mov	r1, r2
  47 0020 019A     		ldr	r2, [sp, #4]
  48 0022 FFF7FEFF 		bl	Sensor_IO_Read
  49 0026 0346     		mov	r3, r0
  50 0028 002B     		cmp	r3, #0
  51 002a 01D0     		beq	.L2
  52              		.loc 1 95 0
  53 002c 0123     		movs	r3, #1
  54 002e 00E0     		b	.L3
  55              	.L2:
  56              		.loc 1 97 0
  57 0030 0023     		movs	r3, #0
ARM GAS  /tmp/ccBklucm.s 			page 2


  58              	.L3:
  59              		.loc 1 98 0
  60 0032 1846     		mov	r0, r3
  61 0034 05B0     		add	sp, sp, #20
  62              		@ sp needed
  63 0036 5DF804FB 		ldr	pc, [sp], #4
  64              		.cfi_endproc
  65              	.LFE0:
  66              		.size	LPS22HB_ReadReg, .-LPS22HB_ReadReg
  67 003a 00BF     		.align	2
  68 003c AFF30080 		.p2align 4,,15
  69              		.global	LPS22HB_WriteReg
  70              		.thumb
  71              		.thumb_func
  72              		.type	LPS22HB_WriteReg, %function
  73              	LPS22HB_WriteReg:
  74              	.LFB1:
  75              		.loc 1 109 0
  76              		.cfi_startproc
  77              		@ args = 0, pretend = 0, frame = 16
  78              		@ frame_needed = 0, uses_anonymous_args = 0
  79 0040 00B5     		push	{lr}
  80              		.cfi_def_cfa_offset 4
  81              		.cfi_offset 14, -4
  82 0042 85B0     		sub	sp, sp, #20
  83              		.cfi_def_cfa_offset 24
  84 0044 0390     		str	r0, [sp, #12]
  85 0046 0193     		str	r3, [sp, #4]
  86 0048 0B46     		mov	r3, r1
  87 004a 8DF80B30 		strb	r3, [sp, #11]
  88 004e 1346     		mov	r3, r2	@ movhi
  89 0050 ADF80830 		strh	r3, [sp, #8]	@ movhi
  90              		.loc 1 110 0
  91 0054 9DF80B20 		ldrb	r2, [sp, #11]	@ zero_extendqisi2
  92 0058 BDF80830 		ldrh	r3, [sp, #8]
  93 005c 0398     		ldr	r0, [sp, #12]
  94 005e 1146     		mov	r1, r2
  95 0060 019A     		ldr	r2, [sp, #4]
  96 0062 FFF7FEFF 		bl	Sensor_IO_Write
  97 0066 0346     		mov	r3, r0
  98 0068 002B     		cmp	r3, #0
  99 006a 01D0     		beq	.L5
 100              		.loc 1 111 0
 101 006c 0123     		movs	r3, #1
 102 006e 00E0     		b	.L6
 103              	.L5:
 104              		.loc 1 113 0
 105 0070 0023     		movs	r3, #0
 106              	.L6:
 107              		.loc 1 114 0
 108 0072 1846     		mov	r0, r3
 109 0074 05B0     		add	sp, sp, #20
 110              		@ sp needed
 111 0076 5DF804FB 		ldr	pc, [sp], #4
 112              		.cfi_endproc
 113              	.LFE1:
 114              		.size	LPS22HB_WriteReg, .-LPS22HB_WriteReg
ARM GAS  /tmp/ccBklucm.s 			page 3


 115 007a 00BF     		.align	2
 116 007c AFF30080 		.p2align 4,,15
 117              		.global	LPS22HB_Get_DeviceID
 118              		.thumb
 119              		.thumb_func
 120              		.type	LPS22HB_Get_DeviceID, %function
 121              	LPS22HB_Get_DeviceID:
 122              	.LFB2:
 123              		.loc 1 123 0
 124              		.cfi_startproc
 125              		@ args = 0, pretend = 0, frame = 8
 126              		@ frame_needed = 0, uses_anonymous_args = 0
 127 0080 00B5     		push	{lr}
 128              		.cfi_def_cfa_offset 4
 129              		.cfi_offset 14, -4
 130 0082 83B0     		sub	sp, sp, #12
 131              		.cfi_def_cfa_offset 16
 132 0084 0190     		str	r0, [sp, #4]
 133 0086 0091     		str	r1, [sp]
 134              		.loc 1 124 0
 135 0088 0198     		ldr	r0, [sp, #4]
 136 008a 0F21     		movs	r1, #15
 137 008c 0122     		movs	r2, #1
 138 008e 009B     		ldr	r3, [sp]
 139 0090 FFF7FEFF 		bl	LPS22HB_ReadReg
 140 0094 0346     		mov	r3, r0
 141 0096 002B     		cmp	r3, #0
 142 0098 01D0     		beq	.L8
 143              		.loc 1 125 0
 144 009a 0123     		movs	r3, #1
 145 009c 00E0     		b	.L9
 146              	.L8:
 147              		.loc 1 127 0
 148 009e 0023     		movs	r3, #0
 149              	.L9:
 150              		.loc 1 128 0
 151 00a0 1846     		mov	r0, r3
 152 00a2 03B0     		add	sp, sp, #12
 153              		@ sp needed
 154 00a4 5DF804FB 		ldr	pc, [sp], #4
 155              		.cfi_endproc
 156              	.LFE2:
 157              		.size	LPS22HB_Get_DeviceID, .-LPS22HB_Get_DeviceID
 158              		.align	2
 159 00a8 AFF30080 		.p2align 4,,15
 159      AFF30080 
 160              		.global	LPS22HB_Get_DriverVersion
 161              		.thumb
 162              		.thumb_func
 163              		.type	LPS22HB_Get_DriverVersion, %function
 164              	LPS22HB_Get_DriverVersion:
 165              	.LFB3:
 166              		.loc 1 137 0
 167              		.cfi_startproc
 168              		@ args = 0, pretend = 0, frame = 8
 169              		@ frame_needed = 0, uses_anonymous_args = 0
 170              		@ link register save eliminated.
ARM GAS  /tmp/ccBklucm.s 			page 4


 171 00b0 82B0     		sub	sp, sp, #8
 172              		.cfi_def_cfa_offset 8
 173 00b2 0190     		str	r0, [sp, #4]
 174              		.loc 1 138 0
 175 00b4 019B     		ldr	r3, [sp, #4]
 176 00b6 0122     		movs	r2, #1
 177 00b8 1A70     		strb	r2, [r3]
 178              		.loc 1 139 0
 179 00ba 019B     		ldr	r3, [sp, #4]
 180 00bc 0022     		movs	r2, #0
 181 00be 5A70     		strb	r2, [r3, #1]
 182              		.loc 1 140 0
 183 00c0 019B     		ldr	r3, [sp, #4]
 184 00c2 0022     		movs	r2, #0
 185 00c4 9A70     		strb	r2, [r3, #2]
 186              		.loc 1 142 0
 187 00c6 0023     		movs	r3, #0
 188              		.loc 1 143 0
 189 00c8 1846     		mov	r0, r3
 190 00ca 02B0     		add	sp, sp, #8
 191              		@ sp needed
 192 00cc 7047     		bx	lr
 193              		.cfi_endproc
 194              	.LFE3:
 195              		.size	LPS22HB_Get_DriverVersion, .-LPS22HB_Get_DriverVersion
 196 00ce 00BF     		.align	2
 197              		.p2align 4,,15
 198              		.global	LPS22HB_Set_PowerMode
 199              		.thumb
 200              		.thumb_func
 201              		.type	LPS22HB_Set_PowerMode, %function
 202              	LPS22HB_Set_PowerMode:
 203              	.LFB4:
 204              		.loc 1 153 0
 205              		.cfi_startproc
 206              		@ args = 0, pretend = 0, frame = 16
 207              		@ frame_needed = 0, uses_anonymous_args = 0
 208 00d0 00B5     		push	{lr}
 209              		.cfi_def_cfa_offset 4
 210              		.cfi_offset 14, -4
 211 00d2 85B0     		sub	sp, sp, #20
 212              		.cfi_def_cfa_offset 24
 213 00d4 0190     		str	r0, [sp, #4]
 214 00d6 0B46     		mov	r3, r1
 215 00d8 8DF80330 		strb	r3, [sp, #3]
 216              		.loc 1 158 0
 217 00dc 0DF10F03 		add	r3, sp, #15
 218 00e0 0198     		ldr	r0, [sp, #4]
 219 00e2 1A21     		movs	r1, #26
 220 00e4 0122     		movs	r2, #1
 221 00e6 FFF7FEFF 		bl	LPS22HB_ReadReg
 222 00ea 0346     		mov	r3, r0
 223 00ec 002B     		cmp	r3, #0
 224 00ee 01D0     		beq	.L13
 225              		.loc 1 159 0
 226 00f0 0123     		movs	r3, #1
 227 00f2 1BE0     		b	.L16
ARM GAS  /tmp/ccBklucm.s 			page 5


 228              	.L13:
 229              		.loc 1 161 0
 230 00f4 9DF80F30 		ldrb	r3, [sp, #15]	@ zero_extendqisi2
 231 00f8 23F00103 		bic	r3, r3, #1
 232 00fc DBB2     		uxtb	r3, r3
 233 00fe 8DF80F30 		strb	r3, [sp, #15]
 234              		.loc 1 162 0
 235 0102 9DF80F20 		ldrb	r2, [sp, #15]	@ zero_extendqisi2
 236 0106 9DF80330 		ldrb	r3, [sp, #3]
 237 010a 1343     		orrs	r3, r3, r2
 238 010c DBB2     		uxtb	r3, r3
 239 010e 8DF80F30 		strb	r3, [sp, #15]
 240              		.loc 1 164 0
 241 0112 0DF10F03 		add	r3, sp, #15
 242 0116 0198     		ldr	r0, [sp, #4]
 243 0118 1A21     		movs	r1, #26
 244 011a 0122     		movs	r2, #1
 245 011c FFF7FEFF 		bl	LPS22HB_WriteReg
 246 0120 0346     		mov	r3, r0
 247 0122 002B     		cmp	r3, #0
 248 0124 01D0     		beq	.L15
 249              		.loc 1 165 0
 250 0126 0123     		movs	r3, #1
 251 0128 00E0     		b	.L16
 252              	.L15:
 253              		.loc 1 167 0
 254 012a 0023     		movs	r3, #0
 255              	.L16:
 256              		.loc 1 168 0
 257 012c 1846     		mov	r0, r3
 258 012e 05B0     		add	sp, sp, #20
 259              		@ sp needed
 260 0130 5DF804FB 		ldr	pc, [sp], #4
 261              		.cfi_endproc
 262              	.LFE4:
 263              		.size	LPS22HB_Set_PowerMode, .-LPS22HB_Set_PowerMode
 264              		.align	2
 265 0134 AFF30080 		.p2align 4,,15
 265      AFF30080 
 265      AFF30080 
 266              		.global	LPS22HB_Get_PowerMode
 267              		.thumb
 268              		.thumb_func
 269              		.type	LPS22HB_Get_PowerMode, %function
 270              	LPS22HB_Get_PowerMode:
 271              	.LFB5:
 272              		.loc 1 177 0
 273              		.cfi_startproc
 274              		@ args = 0, pretend = 0, frame = 16
 275              		@ frame_needed = 0, uses_anonymous_args = 0
 276 0140 00B5     		push	{lr}
 277              		.cfi_def_cfa_offset 4
 278              		.cfi_offset 14, -4
 279 0142 85B0     		sub	sp, sp, #20
 280              		.cfi_def_cfa_offset 24
 281 0144 0190     		str	r0, [sp, #4]
 282 0146 0091     		str	r1, [sp]
ARM GAS  /tmp/ccBklucm.s 			page 6


 283              		.loc 1 180 0
 284 0148 0DF10F03 		add	r3, sp, #15
 285 014c 0198     		ldr	r0, [sp, #4]
 286 014e 1A21     		movs	r1, #26
 287 0150 0122     		movs	r2, #1
 288 0152 FFF7FEFF 		bl	LPS22HB_ReadReg
 289 0156 0346     		mov	r3, r0
 290 0158 002B     		cmp	r3, #0
 291 015a 01D0     		beq	.L18
 292              		.loc 1 181 0
 293 015c 0123     		movs	r3, #1
 294 015e 07E0     		b	.L20
 295              	.L18:
 296              		.loc 1 183 0
 297 0160 9DF80F30 		ldrb	r3, [sp, #15]	@ zero_extendqisi2
 298 0164 03F00103 		and	r3, r3, #1
 299 0168 DAB2     		uxtb	r2, r3
 300 016a 009B     		ldr	r3, [sp]
 301 016c 1A70     		strb	r2, [r3]
 302              		.loc 1 185 0
 303 016e 0023     		movs	r3, #0
 304              	.L20:
 305              		.loc 1 186 0
 306 0170 1846     		mov	r0, r3
 307 0172 05B0     		add	sp, sp, #20
 308              		@ sp needed
 309 0174 5DF804FB 		ldr	pc, [sp], #4
 310              		.cfi_endproc
 311              	.LFE5:
 312              		.size	LPS22HB_Get_PowerMode, .-LPS22HB_Get_PowerMode
 313              		.align	2
 314 0178 AFF30080 		.p2align 4,,15
 314      AFF30080 
 315              		.global	LPS22HB_Set_Odr
 316              		.thumb
 317              		.thumb_func
 318              		.type	LPS22HB_Set_Odr, %function
 319              	LPS22HB_Set_Odr:
 320              	.LFB6:
 321              		.loc 1 196 0
 322              		.cfi_startproc
 323              		@ args = 0, pretend = 0, frame = 16
 324              		@ frame_needed = 0, uses_anonymous_args = 0
 325 0180 00B5     		push	{lr}
 326              		.cfi_def_cfa_offset 4
 327              		.cfi_offset 14, -4
 328 0182 85B0     		sub	sp, sp, #20
 329              		.cfi_def_cfa_offset 24
 330 0184 0190     		str	r0, [sp, #4]
 331 0186 0B46     		mov	r3, r1
 332 0188 8DF80330 		strb	r3, [sp, #3]
 333              		.loc 1 202 0
 334 018c 0DF10F03 		add	r3, sp, #15
 335 0190 0198     		ldr	r0, [sp, #4]
 336 0192 1021     		movs	r1, #16
 337 0194 0122     		movs	r2, #1
 338 0196 FFF7FEFF 		bl	LPS22HB_ReadReg
ARM GAS  /tmp/ccBklucm.s 			page 7


 339 019a 0346     		mov	r3, r0
 340 019c 002B     		cmp	r3, #0
 341 019e 01D0     		beq	.L22
 342              		.loc 1 203 0
 343 01a0 0123     		movs	r3, #1
 344 01a2 1BE0     		b	.L25
 345              	.L22:
 346              		.loc 1 205 0
 347 01a4 9DF80F30 		ldrb	r3, [sp, #15]	@ zero_extendqisi2
 348 01a8 23F07003 		bic	r3, r3, #112
 349 01ac DBB2     		uxtb	r3, r3
 350 01ae 8DF80F30 		strb	r3, [sp, #15]
 351              		.loc 1 206 0
 352 01b2 9DF80F20 		ldrb	r2, [sp, #15]	@ zero_extendqisi2
 353 01b6 9DF80330 		ldrb	r3, [sp, #3]
 354 01ba 1343     		orrs	r3, r3, r2
 355 01bc DBB2     		uxtb	r3, r3
 356 01be 8DF80F30 		strb	r3, [sp, #15]
 357              		.loc 1 208 0
 358 01c2 0DF10F03 		add	r3, sp, #15
 359 01c6 0198     		ldr	r0, [sp, #4]
 360 01c8 1021     		movs	r1, #16
 361 01ca 0122     		movs	r2, #1
 362 01cc FFF7FEFF 		bl	LPS22HB_WriteReg
 363 01d0 0346     		mov	r3, r0
 364 01d2 002B     		cmp	r3, #0
 365 01d4 01D0     		beq	.L24
 366              		.loc 1 209 0
 367 01d6 0123     		movs	r3, #1
 368 01d8 00E0     		b	.L25
 369              	.L24:
 370              		.loc 1 211 0
 371 01da 0023     		movs	r3, #0
 372              	.L25:
 373              		.loc 1 212 0
 374 01dc 1846     		mov	r0, r3
 375 01de 05B0     		add	sp, sp, #20
 376              		@ sp needed
 377 01e0 5DF804FB 		ldr	pc, [sp], #4
 378              		.cfi_endproc
 379              	.LFE6:
 380              		.size	LPS22HB_Set_Odr, .-LPS22HB_Set_Odr
 381              		.align	2
 382 01e4 AFF30080 		.p2align 4,,15
 382      AFF30080 
 382      AFF30080 
 383              		.global	LPS22HB_Get_Odr
 384              		.thumb
 385              		.thumb_func
 386              		.type	LPS22HB_Get_Odr, %function
 387              	LPS22HB_Get_Odr:
 388              	.LFB7:
 389              		.loc 1 221 0
 390              		.cfi_startproc
 391              		@ args = 0, pretend = 0, frame = 16
 392              		@ frame_needed = 0, uses_anonymous_args = 0
 393 01f0 00B5     		push	{lr}
ARM GAS  /tmp/ccBklucm.s 			page 8


 394              		.cfi_def_cfa_offset 4
 395              		.cfi_offset 14, -4
 396 01f2 85B0     		sub	sp, sp, #20
 397              		.cfi_def_cfa_offset 24
 398 01f4 0190     		str	r0, [sp, #4]
 399 01f6 0091     		str	r1, [sp]
 400              		.loc 1 224 0
 401 01f8 0DF10F03 		add	r3, sp, #15
 402 01fc 0198     		ldr	r0, [sp, #4]
 403 01fe 1021     		movs	r1, #16
 404 0200 0122     		movs	r2, #1
 405 0202 FFF7FEFF 		bl	LPS22HB_ReadReg
 406 0206 0346     		mov	r3, r0
 407 0208 002B     		cmp	r3, #0
 408 020a 01D0     		beq	.L27
 409              		.loc 1 225 0
 410 020c 0123     		movs	r3, #1
 411 020e 07E0     		b	.L29
 412              	.L27:
 413              		.loc 1 227 0
 414 0210 9DF80F30 		ldrb	r3, [sp, #15]	@ zero_extendqisi2
 415 0214 03F07003 		and	r3, r3, #112
 416 0218 DAB2     		uxtb	r2, r3
 417 021a 009B     		ldr	r3, [sp]
 418 021c 1A70     		strb	r2, [r3]
 419              		.loc 1 229 0
 420 021e 0023     		movs	r3, #0
 421              	.L29:
 422              		.loc 1 230 0
 423 0220 1846     		mov	r0, r3
 424 0222 05B0     		add	sp, sp, #20
 425              		@ sp needed
 426 0224 5DF804FB 		ldr	pc, [sp], #4
 427              		.cfi_endproc
 428              	.LFE7:
 429              		.size	LPS22HB_Get_Odr, .-LPS22HB_Get_Odr
 430              		.align	2
 431 0228 AFF30080 		.p2align 4,,15
 431      AFF30080 
 432              		.global	LPS22HB_Set_LowPassFilter
 433              		.thumb
 434              		.thumb_func
 435              		.type	LPS22HB_Set_LowPassFilter, %function
 436              	LPS22HB_Set_LowPassFilter:
 437              	.LFB8:
 438              		.loc 1 239 0
 439              		.cfi_startproc
 440              		@ args = 0, pretend = 0, frame = 16
 441              		@ frame_needed = 0, uses_anonymous_args = 0
 442 0230 00B5     		push	{lr}
 443              		.cfi_def_cfa_offset 4
 444              		.cfi_offset 14, -4
 445 0232 85B0     		sub	sp, sp, #20
 446              		.cfi_def_cfa_offset 24
 447 0234 0190     		str	r0, [sp, #4]
 448 0236 0B46     		mov	r3, r1
 449 0238 8DF80330 		strb	r3, [sp, #3]
ARM GAS  /tmp/ccBklucm.s 			page 9


 450              		.loc 1 244 0
 451 023c 0DF10F03 		add	r3, sp, #15
 452 0240 0198     		ldr	r0, [sp, #4]
 453 0242 1021     		movs	r1, #16
 454 0244 0122     		movs	r2, #1
 455 0246 FFF7FEFF 		bl	LPS22HB_ReadReg
 456 024a 0346     		mov	r3, r0
 457 024c 002B     		cmp	r3, #0
 458 024e 01D0     		beq	.L31
 459              		.loc 1 245 0
 460 0250 0123     		movs	r3, #1
 461 0252 1FE0     		b	.L34
 462              	.L31:
 463              		.loc 1 247 0
 464 0254 9DF80F30 		ldrb	r3, [sp, #15]	@ zero_extendqisi2
 465 0258 23F00803 		bic	r3, r3, #8
 466 025c DBB2     		uxtb	r3, r3
 467 025e 8DF80F30 		strb	r3, [sp, #15]
 468              		.loc 1 248 0
 469 0262 9DF80330 		ldrb	r3, [sp, #3]	@ zero_extendqisi2
 470 0266 DB00     		lsls	r3, r3, #3
 471 0268 DAB2     		uxtb	r2, r3
 472 026a 9DF80F30 		ldrb	r3, [sp, #15]	@ zero_extendqisi2
 473 026e DBB2     		uxtb	r3, r3
 474 0270 1343     		orrs	r3, r3, r2
 475 0272 DBB2     		uxtb	r3, r3
 476 0274 DBB2     		uxtb	r3, r3
 477 0276 8DF80F30 		strb	r3, [sp, #15]
 478              		.loc 1 251 0
 479 027a 0DF10F03 		add	r3, sp, #15
 480 027e 0198     		ldr	r0, [sp, #4]
 481 0280 1021     		movs	r1, #16
 482 0282 0122     		movs	r2, #1
 483 0284 FFF7FEFF 		bl	LPS22HB_WriteReg
 484 0288 0346     		mov	r3, r0
 485 028a 002B     		cmp	r3, #0
 486 028c 01D0     		beq	.L33
 487              		.loc 1 252 0
 488 028e 0123     		movs	r3, #1
 489 0290 00E0     		b	.L34
 490              	.L33:
 491              		.loc 1 255 0
 492 0292 0023     		movs	r3, #0
 493              	.L34:
 494              		.loc 1 256 0
 495 0294 1846     		mov	r0, r3
 496 0296 05B0     		add	sp, sp, #20
 497              		@ sp needed
 498 0298 5DF804FB 		ldr	pc, [sp], #4
 499              		.cfi_endproc
 500              	.LFE8:
 501              		.size	LPS22HB_Set_LowPassFilter, .-LPS22HB_Set_LowPassFilter
 502              		.align	2
 503 029c AFF30080 		.p2align 4,,15
 504              		.global	LPS22HB_Set_LowPassFilterCutoff
 505              		.thumb
 506              		.thumb_func
ARM GAS  /tmp/ccBklucm.s 			page 10


 507              		.type	LPS22HB_Set_LowPassFilterCutoff, %function
 508              	LPS22HB_Set_LowPassFilterCutoff:
 509              	.LFB9:
 510              		.loc 1 266 0
 511              		.cfi_startproc
 512              		@ args = 0, pretend = 0, frame = 16
 513              		@ frame_needed = 0, uses_anonymous_args = 0
 514 02a0 00B5     		push	{lr}
 515              		.cfi_def_cfa_offset 4
 516              		.cfi_offset 14, -4
 517 02a2 85B0     		sub	sp, sp, #20
 518              		.cfi_def_cfa_offset 24
 519 02a4 0190     		str	r0, [sp, #4]
 520 02a6 0B46     		mov	r3, r1
 521 02a8 8DF80330 		strb	r3, [sp, #3]
 522              		.loc 1 272 0
 523 02ac 0DF10F03 		add	r3, sp, #15
 524 02b0 0198     		ldr	r0, [sp, #4]
 525 02b2 1021     		movs	r1, #16
 526 02b4 0122     		movs	r2, #1
 527 02b6 FFF7FEFF 		bl	LPS22HB_ReadReg
 528 02ba 0346     		mov	r3, r0
 529 02bc 002B     		cmp	r3, #0
 530 02be 01D0     		beq	.L36
 531              		.loc 1 273 0
 532 02c0 0123     		movs	r3, #1
 533 02c2 1BE0     		b	.L39
 534              	.L36:
 535              		.loc 1 275 0
 536 02c4 9DF80F30 		ldrb	r3, [sp, #15]	@ zero_extendqisi2
 537 02c8 23F00403 		bic	r3, r3, #4
 538 02cc DBB2     		uxtb	r3, r3
 539 02ce 8DF80F30 		strb	r3, [sp, #15]
 540              		.loc 1 276 0
 541 02d2 9DF80F20 		ldrb	r2, [sp, #15]	@ zero_extendqisi2
 542 02d6 9DF80330 		ldrb	r3, [sp, #3]
 543 02da 1343     		orrs	r3, r3, r2
 544 02dc DBB2     		uxtb	r3, r3
 545 02de 8DF80F30 		strb	r3, [sp, #15]
 546              		.loc 1 280 0
 547 02e2 0DF10F03 		add	r3, sp, #15
 548 02e6 0198     		ldr	r0, [sp, #4]
 549 02e8 1021     		movs	r1, #16
 550 02ea 0122     		movs	r2, #1
 551 02ec FFF7FEFF 		bl	LPS22HB_WriteReg
 552 02f0 0346     		mov	r3, r0
 553 02f2 002B     		cmp	r3, #0
 554 02f4 01D0     		beq	.L38
 555              		.loc 1 281 0
 556 02f6 0123     		movs	r3, #1
 557 02f8 00E0     		b	.L39
 558              	.L38:
 559              		.loc 1 284 0
 560 02fa 0023     		movs	r3, #0
 561              	.L39:
 562              		.loc 1 286 0
 563 02fc 1846     		mov	r0, r3
ARM GAS  /tmp/ccBklucm.s 			page 11


 564 02fe 05B0     		add	sp, sp, #20
 565              		@ sp needed
 566 0300 5DF804FB 		ldr	pc, [sp], #4
 567              		.cfi_endproc
 568              	.LFE9:
 569              		.size	LPS22HB_Set_LowPassFilterCutoff, .-LPS22HB_Set_LowPassFilterCutoff
 570              		.align	2
 571 0304 AFF30080 		.p2align 4,,15
 571      AFF30080 
 571      AFF30080 
 572              		.global	LPS22HB_Set_Bdu
 573              		.thumb
 574              		.thumb_func
 575              		.type	LPS22HB_Set_Bdu, %function
 576              	LPS22HB_Set_Bdu:
 577              	.LFB10:
 578              		.loc 1 298 0
 579              		.cfi_startproc
 580              		@ args = 0, pretend = 0, frame = 16
 581              		@ frame_needed = 0, uses_anonymous_args = 0
 582 0310 00B5     		push	{lr}
 583              		.cfi_def_cfa_offset 4
 584              		.cfi_offset 14, -4
 585 0312 85B0     		sub	sp, sp, #20
 586              		.cfi_def_cfa_offset 24
 587 0314 0190     		str	r0, [sp, #4]
 588 0316 0B46     		mov	r3, r1
 589 0318 8DF80330 		strb	r3, [sp, #3]
 590              		.loc 1 304 0
 591 031c 0DF10F03 		add	r3, sp, #15
 592 0320 0198     		ldr	r0, [sp, #4]
 593 0322 1021     		movs	r1, #16
 594 0324 0122     		movs	r2, #1
 595 0326 FFF7FEFF 		bl	LPS22HB_ReadReg
 596 032a 0346     		mov	r3, r0
 597 032c 002B     		cmp	r3, #0
 598 032e 01D0     		beq	.L41
 599              		.loc 1 305 0
 600 0330 0123     		movs	r3, #1
 601 0332 1BE0     		b	.L44
 602              	.L41:
 603              		.loc 1 307 0
 604 0334 9DF80F30 		ldrb	r3, [sp, #15]	@ zero_extendqisi2
 605 0338 23F00203 		bic	r3, r3, #2
 606 033c DBB2     		uxtb	r3, r3
 607 033e 8DF80F30 		strb	r3, [sp, #15]
 608              		.loc 1 308 0
 609 0342 9DF80F20 		ldrb	r2, [sp, #15]	@ zero_extendqisi2
 610 0346 9DF80330 		ldrb	r3, [sp, #3]
 611 034a 1343     		orrs	r3, r3, r2
 612 034c DBB2     		uxtb	r3, r3
 613 034e 8DF80F30 		strb	r3, [sp, #15]
 614              		.loc 1 311 0
 615 0352 0DF10F03 		add	r3, sp, #15
 616 0356 0198     		ldr	r0, [sp, #4]
 617 0358 1021     		movs	r1, #16
 618 035a 0122     		movs	r2, #1
ARM GAS  /tmp/ccBklucm.s 			page 12


 619 035c FFF7FEFF 		bl	LPS22HB_WriteReg
 620 0360 0346     		mov	r3, r0
 621 0362 002B     		cmp	r3, #0
 622 0364 01D0     		beq	.L43
 623              		.loc 1 312 0
 624 0366 0023     		movs	r3, #0
 625 0368 00E0     		b	.L44
 626              	.L43:
 627              		.loc 1 314 0
 628 036a 0023     		movs	r3, #0
 629              	.L44:
 630              		.loc 1 315 0
 631 036c 1846     		mov	r0, r3
 632 036e 05B0     		add	sp, sp, #20
 633              		@ sp needed
 634 0370 5DF804FB 		ldr	pc, [sp], #4
 635              		.cfi_endproc
 636              	.LFE10:
 637              		.size	LPS22HB_Set_Bdu, .-LPS22HB_Set_Bdu
 638              		.align	2
 639 0374 AFF30080 		.p2align 4,,15
 639      AFF30080 
 639      AFF30080 
 640              		.global	LPS22HB_Get_Bdu
 641              		.thumb
 642              		.thumb_func
 643              		.type	LPS22HB_Get_Bdu, %function
 644              	LPS22HB_Get_Bdu:
 645              	.LFB11:
 646              		.loc 1 324 0
 647              		.cfi_startproc
 648              		@ args = 0, pretend = 0, frame = 16
 649              		@ frame_needed = 0, uses_anonymous_args = 0
 650 0380 00B5     		push	{lr}
 651              		.cfi_def_cfa_offset 4
 652              		.cfi_offset 14, -4
 653 0382 85B0     		sub	sp, sp, #20
 654              		.cfi_def_cfa_offset 24
 655 0384 0190     		str	r0, [sp, #4]
 656 0386 0091     		str	r1, [sp]
 657              		.loc 1 327 0
 658 0388 0DF10F03 		add	r3, sp, #15
 659 038c 0198     		ldr	r0, [sp, #4]
 660 038e 1021     		movs	r1, #16
 661 0390 0122     		movs	r2, #1
 662 0392 FFF7FEFF 		bl	LPS22HB_ReadReg
 663 0396 0346     		mov	r3, r0
 664 0398 002B     		cmp	r3, #0
 665 039a 01D0     		beq	.L46
 666              		.loc 1 328 0
 667 039c 0123     		movs	r3, #1
 668 039e 07E0     		b	.L48
 669              	.L46:
 670              		.loc 1 330 0
 671 03a0 9DF80F30 		ldrb	r3, [sp, #15]	@ zero_extendqisi2
 672 03a4 03F00203 		and	r3, r3, #2
 673 03a8 DAB2     		uxtb	r2, r3
ARM GAS  /tmp/ccBklucm.s 			page 13


 674 03aa 009B     		ldr	r3, [sp]
 675 03ac 1A70     		strb	r2, [r3]
 676              		.loc 1 332 0
 677 03ae 0023     		movs	r3, #0
 678              	.L48:
 679              		.loc 1 333 0
 680 03b0 1846     		mov	r0, r3
 681 03b2 05B0     		add	sp, sp, #20
 682              		@ sp needed
 683 03b4 5DF804FB 		ldr	pc, [sp], #4
 684              		.cfi_endproc
 685              	.LFE11:
 686              		.size	LPS22HB_Get_Bdu, .-LPS22HB_Get_Bdu
 687              		.align	2
 688 03b8 AFF30080 		.p2align 4,,15
 688      AFF30080 
 689              		.global	LPS22HB_Set_SpiInterface
 690              		.thumb
 691              		.thumb_func
 692              		.type	LPS22HB_Set_SpiInterface, %function
 693              	LPS22HB_Set_SpiInterface:
 694              	.LFB12:
 695              		.loc 1 342 0
 696              		.cfi_startproc
 697              		@ args = 0, pretend = 0, frame = 16
 698              		@ frame_needed = 0, uses_anonymous_args = 0
 699 03c0 00B5     		push	{lr}
 700              		.cfi_def_cfa_offset 4
 701              		.cfi_offset 14, -4
 702 03c2 85B0     		sub	sp, sp, #20
 703              		.cfi_def_cfa_offset 24
 704 03c4 0190     		str	r0, [sp, #4]
 705 03c6 0B46     		mov	r3, r1
 706 03c8 8DF80330 		strb	r3, [sp, #3]
 707              		.loc 1 348 0
 708 03cc 0DF10F03 		add	r3, sp, #15
 709 03d0 0198     		ldr	r0, [sp, #4]
 710 03d2 1021     		movs	r1, #16
 711 03d4 0122     		movs	r2, #1
 712 03d6 FFF7FEFF 		bl	LPS22HB_ReadReg
 713 03da 0346     		mov	r3, r0
 714 03dc 002B     		cmp	r3, #0
 715 03de 01D0     		beq	.L50
 716              		.loc 1 349 0
 717 03e0 0123     		movs	r3, #1
 718 03e2 1BE0     		b	.L53
 719              	.L50:
 720              		.loc 1 351 0
 721 03e4 9DF80F30 		ldrb	r3, [sp, #15]	@ zero_extendqisi2
 722 03e8 23F00103 		bic	r3, r3, #1
 723 03ec DBB2     		uxtb	r3, r3
 724 03ee 8DF80F30 		strb	r3, [sp, #15]
 725              		.loc 1 352 0
 726 03f2 9DF80F20 		ldrb	r2, [sp, #15]	@ zero_extendqisi2
 727 03f6 9DF80330 		ldrb	r3, [sp, #3]
 728 03fa 1343     		orrs	r3, r3, r2
 729 03fc DBB2     		uxtb	r3, r3
ARM GAS  /tmp/ccBklucm.s 			page 14


 730 03fe 8DF80F30 		strb	r3, [sp, #15]
 731              		.loc 1 354 0
 732 0402 0DF10F03 		add	r3, sp, #15
 733 0406 0198     		ldr	r0, [sp, #4]
 734 0408 1021     		movs	r1, #16
 735 040a 0122     		movs	r2, #1
 736 040c FFF7FEFF 		bl	LPS22HB_WriteReg
 737 0410 0346     		mov	r3, r0
 738 0412 002B     		cmp	r3, #0
 739 0414 01D0     		beq	.L52
 740              		.loc 1 355 0
 741 0416 0123     		movs	r3, #1
 742 0418 00E0     		b	.L53
 743              	.L52:
 744              		.loc 1 357 0
 745 041a 0023     		movs	r3, #0
 746              	.L53:
 747              		.loc 1 358 0
 748 041c 1846     		mov	r0, r3
 749 041e 05B0     		add	sp, sp, #20
 750              		@ sp needed
 751 0420 5DF804FB 		ldr	pc, [sp], #4
 752              		.cfi_endproc
 753              	.LFE12:
 754              		.size	LPS22HB_Set_SpiInterface, .-LPS22HB_Set_SpiInterface
 755              		.align	2
 756 0424 AFF30080 		.p2align 4,,15
 756      AFF30080 
 756      AFF30080 
 757              		.global	LPS22HB_Set_ClockTreeConfifuration
 758              		.thumb
 759              		.thumb_func
 760              		.type	LPS22HB_Set_ClockTreeConfifuration, %function
 761              	LPS22HB_Set_ClockTreeConfifuration:
 762              	.LFB13:
 763              		.loc 1 367 0
 764              		.cfi_startproc
 765              		@ args = 0, pretend = 0, frame = 16
 766              		@ frame_needed = 0, uses_anonymous_args = 0
 767 0430 00B5     		push	{lr}
 768              		.cfi_def_cfa_offset 4
 769              		.cfi_offset 14, -4
 770 0432 85B0     		sub	sp, sp, #20
 771              		.cfi_def_cfa_offset 24
 772 0434 0190     		str	r0, [sp, #4]
 773 0436 0B46     		mov	r3, r1
 774 0438 8DF80330 		strb	r3, [sp, #3]
 775              		.loc 1 373 0
 776 043c 0DF10F03 		add	r3, sp, #15
 777 0440 0198     		ldr	r0, [sp, #4]
 778 0442 4321     		movs	r1, #67
 779 0444 0122     		movs	r2, #1
 780 0446 FFF7FEFF 		bl	LPS22HB_ReadReg
 781 044a 0346     		mov	r3, r0
 782 044c 002B     		cmp	r3, #0
 783 044e 01D0     		beq	.L55
 784              		.loc 1 374 0
ARM GAS  /tmp/ccBklucm.s 			page 15


 785 0450 0123     		movs	r3, #1
 786 0452 1BE0     		b	.L58
 787              	.L55:
 788              		.loc 1 376 0
 789 0454 9DF80F30 		ldrb	r3, [sp, #15]	@ zero_extendqisi2
 790 0458 23F02003 		bic	r3, r3, #32
 791 045c DBB2     		uxtb	r3, r3
 792 045e 8DF80F30 		strb	r3, [sp, #15]
 793              		.loc 1 377 0
 794 0462 9DF80F20 		ldrb	r2, [sp, #15]	@ zero_extendqisi2
 795 0466 9DF80330 		ldrb	r3, [sp, #3]
 796 046a 1343     		orrs	r3, r3, r2
 797 046c DBB2     		uxtb	r3, r3
 798 046e 8DF80F30 		strb	r3, [sp, #15]
 799              		.loc 1 380 0
 800 0472 0DF10F03 		add	r3, sp, #15
 801 0476 0198     		ldr	r0, [sp, #4]
 802 0478 4321     		movs	r1, #67
 803 047a 0122     		movs	r2, #1
 804 047c FFF7FEFF 		bl	LPS22HB_WriteReg
 805 0480 0346     		mov	r3, r0
 806 0482 002B     		cmp	r3, #0
 807 0484 01D0     		beq	.L57
 808              		.loc 1 381 0
 809 0486 0123     		movs	r3, #1
 810 0488 00E0     		b	.L58
 811              	.L57:
 812              		.loc 1 383 0
 813 048a 0023     		movs	r3, #0
 814              	.L58:
 815              		.loc 1 384 0
 816 048c 1846     		mov	r0, r3
 817 048e 05B0     		add	sp, sp, #20
 818              		@ sp needed
 819 0490 5DF804FB 		ldr	pc, [sp], #4
 820              		.cfi_endproc
 821              	.LFE13:
 822              		.size	LPS22HB_Set_ClockTreeConfifuration, .-LPS22HB_Set_ClockTreeConfifuration
 823              		.align	2
 824 0494 AFF30080 		.p2align 4,,15
 824      AFF30080 
 824      AFF30080 
 825              		.global	LPS22HB_Get_SpiInterface
 826              		.thumb
 827              		.thumb_func
 828              		.type	LPS22HB_Get_SpiInterface, %function
 829              	LPS22HB_Get_SpiInterface:
 830              	.LFB14:
 831              		.loc 1 394 0
 832              		.cfi_startproc
 833              		@ args = 0, pretend = 0, frame = 16
 834              		@ frame_needed = 0, uses_anonymous_args = 0
 835 04a0 00B5     		push	{lr}
 836              		.cfi_def_cfa_offset 4
 837              		.cfi_offset 14, -4
 838 04a2 85B0     		sub	sp, sp, #20
 839              		.cfi_def_cfa_offset 24
ARM GAS  /tmp/ccBklucm.s 			page 16


 840 04a4 0190     		str	r0, [sp, #4]
 841 04a6 0091     		str	r1, [sp]
 842              		.loc 1 397 0
 843 04a8 0DF10F03 		add	r3, sp, #15
 844 04ac 0198     		ldr	r0, [sp, #4]
 845 04ae 1021     		movs	r1, #16
 846 04b0 0122     		movs	r2, #1
 847 04b2 FFF7FEFF 		bl	LPS22HB_ReadReg
 848 04b6 0346     		mov	r3, r0
 849 04b8 002B     		cmp	r3, #0
 850 04ba 01D0     		beq	.L60
 851              		.loc 1 398 0
 852 04bc 0123     		movs	r3, #1
 853 04be 07E0     		b	.L62
 854              	.L60:
 855              		.loc 1 400 0
 856 04c0 9DF80F30 		ldrb	r3, [sp, #15]	@ zero_extendqisi2
 857 04c4 03F00103 		and	r3, r3, #1
 858 04c8 DAB2     		uxtb	r2, r3
 859 04ca 009B     		ldr	r3, [sp]
 860 04cc 1A70     		strb	r2, [r3]
 861              		.loc 1 402 0
 862 04ce 0023     		movs	r3, #0
 863              	.L62:
 864              		.loc 1 403 0
 865 04d0 1846     		mov	r0, r3
 866 04d2 05B0     		add	sp, sp, #20
 867              		@ sp needed
 868 04d4 5DF804FB 		ldr	pc, [sp], #4
 869              		.cfi_endproc
 870              	.LFE14:
 871              		.size	LPS22HB_Get_SpiInterface, .-LPS22HB_Get_SpiInterface
 872              		.align	2
 873 04d8 AFF30080 		.p2align 4,,15
 873      AFF30080 
 874              		.global	LPS22HB_SwReset
 875              		.thumb
 876              		.thumb_func
 877              		.type	LPS22HB_SwReset, %function
 878              	LPS22HB_SwReset:
 879              	.LFB15:
 880              		.loc 1 411 0
 881              		.cfi_startproc
 882              		@ args = 0, pretend = 0, frame = 16
 883              		@ frame_needed = 0, uses_anonymous_args = 0
 884 04e0 00B5     		push	{lr}
 885              		.cfi_def_cfa_offset 4
 886              		.cfi_offset 14, -4
 887 04e2 85B0     		sub	sp, sp, #20
 888              		.cfi_def_cfa_offset 24
 889 04e4 0190     		str	r0, [sp, #4]
 890              		.loc 1 414 0
 891 04e6 0DF10F03 		add	r3, sp, #15
 892 04ea 0198     		ldr	r0, [sp, #4]
 893 04ec 1121     		movs	r1, #17
 894 04ee 0122     		movs	r2, #1
 895 04f0 FFF7FEFF 		bl	LPS22HB_ReadReg
ARM GAS  /tmp/ccBklucm.s 			page 17


 896 04f4 0346     		mov	r3, r0
 897 04f6 002B     		cmp	r3, #0
 898 04f8 01D0     		beq	.L64
 899              		.loc 1 415 0
 900 04fa 0123     		movs	r3, #1
 901 04fc 13E0     		b	.L67
 902              	.L64:
 903              		.loc 1 417 0
 904 04fe 9DF80F30 		ldrb	r3, [sp, #15]	@ zero_extendqisi2
 905 0502 43F00403 		orr	r3, r3, #4
 906 0506 DBB2     		uxtb	r3, r3
 907 0508 8DF80F30 		strb	r3, [sp, #15]
 908              		.loc 1 419 0
 909 050c 0DF10F03 		add	r3, sp, #15
 910 0510 0198     		ldr	r0, [sp, #4]
 911 0512 1121     		movs	r1, #17
 912 0514 0122     		movs	r2, #1
 913 0516 FFF7FEFF 		bl	LPS22HB_WriteReg
 914 051a 0346     		mov	r3, r0
 915 051c 002B     		cmp	r3, #0
 916 051e 01D0     		beq	.L66
 917              		.loc 1 420 0
 918 0520 0123     		movs	r3, #1
 919 0522 00E0     		b	.L67
 920              	.L66:
 921              		.loc 1 422 0
 922 0524 0023     		movs	r3, #0
 923              	.L67:
 924              		.loc 1 423 0
 925 0526 1846     		mov	r0, r3
 926 0528 05B0     		add	sp, sp, #20
 927              		@ sp needed
 928 052a 5DF804FB 		ldr	pc, [sp], #4
 929              		.cfi_endproc
 930              	.LFE15:
 931              		.size	LPS22HB_SwReset, .-LPS22HB_SwReset
 932 052e 00BF     		.align	2
 933              		.p2align 4,,15
 934              		.global	LPS22HB_MemoryBoot
 935              		.thumb
 936              		.thumb_func
 937              		.type	LPS22HB_MemoryBoot, %function
 938              	LPS22HB_MemoryBoot:
 939              	.LFB16:
 940              		.loc 1 432 0
 941              		.cfi_startproc
 942              		@ args = 0, pretend = 0, frame = 16
 943              		@ frame_needed = 0, uses_anonymous_args = 0
 944 0530 00B5     		push	{lr}
 945              		.cfi_def_cfa_offset 4
 946              		.cfi_offset 14, -4
 947 0532 85B0     		sub	sp, sp, #20
 948              		.cfi_def_cfa_offset 24
 949 0534 0190     		str	r0, [sp, #4]
 950              		.loc 1 435 0
 951 0536 0DF10F03 		add	r3, sp, #15
 952 053a 0198     		ldr	r0, [sp, #4]
ARM GAS  /tmp/ccBklucm.s 			page 18


 953 053c 1121     		movs	r1, #17
 954 053e 0122     		movs	r2, #1
 955 0540 FFF7FEFF 		bl	LPS22HB_ReadReg
 956 0544 0346     		mov	r3, r0
 957 0546 002B     		cmp	r3, #0
 958 0548 01D0     		beq	.L69
 959              		.loc 1 436 0
 960 054a 0123     		movs	r3, #1
 961 054c 13E0     		b	.L72
 962              	.L69:
 963              		.loc 1 438 0
 964 054e 9DF80F30 		ldrb	r3, [sp, #15]	@ zero_extendqisi2
 965 0552 63F07F03 		orn	r3, r3, #127
 966 0556 DBB2     		uxtb	r3, r3
 967 0558 8DF80F30 		strb	r3, [sp, #15]
 968              		.loc 1 440 0
 969 055c 0DF10F03 		add	r3, sp, #15
 970 0560 0198     		ldr	r0, [sp, #4]
 971 0562 1121     		movs	r1, #17
 972 0564 0122     		movs	r2, #1
 973 0566 FFF7FEFF 		bl	LPS22HB_WriteReg
 974 056a 0346     		mov	r3, r0
 975 056c 002B     		cmp	r3, #0
 976 056e 01D0     		beq	.L71
 977              		.loc 1 441 0
 978 0570 0123     		movs	r3, #1
 979 0572 00E0     		b	.L72
 980              	.L71:
 981              		.loc 1 443 0
 982 0574 0023     		movs	r3, #0
 983              	.L72:
 984              		.loc 1 444 0
 985 0576 1846     		mov	r0, r3
 986 0578 05B0     		add	sp, sp, #20
 987              		@ sp needed
 988 057a 5DF804FB 		ldr	pc, [sp], #4
 989              		.cfi_endproc
 990              	.LFE16:
 991              		.size	LPS22HB_MemoryBoot, .-LPS22HB_MemoryBoot
 992 057e 00BF     		.align	2
 993              		.p2align 4,,15
 994              		.global	LPS22HB_SwResetAndMemoryBoot
 995              		.thumb
 996              		.thumb_func
 997              		.type	LPS22HB_SwResetAndMemoryBoot, %function
 998              	LPS22HB_SwResetAndMemoryBoot:
 999              	.LFB17:
 1000              		.loc 1 454 0
 1001              		.cfi_startproc
 1002              		@ args = 0, pretend = 0, frame = 16
 1003              		@ frame_needed = 0, uses_anonymous_args = 0
 1004 0580 00B5     		push	{lr}
 1005              		.cfi_def_cfa_offset 4
 1006              		.cfi_offset 14, -4
 1007 0582 85B0     		sub	sp, sp, #20
 1008              		.cfi_def_cfa_offset 24
 1009 0584 0190     		str	r0, [sp, #4]
ARM GAS  /tmp/ccBklucm.s 			page 19


 1010              		.loc 1 457 0
 1011 0586 0DF10F03 		add	r3, sp, #15
 1012 058a 0198     		ldr	r0, [sp, #4]
 1013 058c 1121     		movs	r1, #17
 1014 058e 0122     		movs	r2, #1
 1015 0590 FFF7FEFF 		bl	LPS22HB_ReadReg
 1016 0594 0346     		mov	r3, r0
 1017 0596 002B     		cmp	r3, #0
 1018 0598 01D0     		beq	.L74
 1019              		.loc 1 458 0
 1020 059a 0123     		movs	r3, #1
 1021 059c 13E0     		b	.L77
 1022              	.L74:
 1023              		.loc 1 460 0
 1024 059e 9DF80F30 		ldrb	r3, [sp, #15]	@ zero_extendqisi2
 1025 05a2 63F07B03 		orn	r3, r3, #123
 1026 05a6 DBB2     		uxtb	r3, r3
 1027 05a8 8DF80F30 		strb	r3, [sp, #15]
 1028              		.loc 1 462 0
 1029 05ac 0DF10F03 		add	r3, sp, #15
 1030 05b0 0198     		ldr	r0, [sp, #4]
 1031 05b2 1121     		movs	r1, #17
 1032 05b4 0122     		movs	r2, #1
 1033 05b6 FFF7FEFF 		bl	LPS22HB_WriteReg
 1034 05ba 0346     		mov	r3, r0
 1035 05bc 002B     		cmp	r3, #0
 1036 05be 01D0     		beq	.L76
 1037              		.loc 1 463 0
 1038 05c0 0123     		movs	r3, #1
 1039 05c2 00E0     		b	.L77
 1040              	.L76:
 1041              		.loc 1 465 0
 1042 05c4 0023     		movs	r3, #0
 1043              	.L77:
 1044              		.loc 1 466 0
 1045 05c6 1846     		mov	r0, r3
 1046 05c8 05B0     		add	sp, sp, #20
 1047              		@ sp needed
 1048 05ca 5DF804FB 		ldr	pc, [sp], #4
 1049              		.cfi_endproc
 1050              	.LFE17:
 1051              		.size	LPS22HB_SwResetAndMemoryBoot, .-LPS22HB_SwResetAndMemoryBoot
 1052 05ce 00BF     		.align	2
 1053              		.p2align 4,,15
 1054              		.global	LPS22HB_Set_FifoModeUse
 1055              		.thumb
 1056              		.thumb_func
 1057              		.type	LPS22HB_Set_FifoModeUse, %function
 1058              	LPS22HB_Set_FifoModeUse:
 1059              	.LFB18:
 1060              		.loc 1 476 0
 1061              		.cfi_startproc
 1062              		@ args = 0, pretend = 0, frame = 16
 1063              		@ frame_needed = 0, uses_anonymous_args = 0
 1064 05d0 00B5     		push	{lr}
 1065              		.cfi_def_cfa_offset 4
 1066              		.cfi_offset 14, -4
ARM GAS  /tmp/ccBklucm.s 			page 20


 1067 05d2 85B0     		sub	sp, sp, #20
 1068              		.cfi_def_cfa_offset 24
 1069 05d4 0190     		str	r0, [sp, #4]
 1070 05d6 0B46     		mov	r3, r1
 1071 05d8 8DF80330 		strb	r3, [sp, #3]
 1072              		.loc 1 481 0
 1073 05dc 0DF10F03 		add	r3, sp, #15
 1074 05e0 0198     		ldr	r0, [sp, #4]
 1075 05e2 1121     		movs	r1, #17
 1076 05e4 0122     		movs	r2, #1
 1077 05e6 FFF7FEFF 		bl	LPS22HB_ReadReg
 1078 05ea 0346     		mov	r3, r0
 1079 05ec 002B     		cmp	r3, #0
 1080 05ee 01D0     		beq	.L79
 1081              		.loc 1 482 0
 1082 05f0 0123     		movs	r3, #1
 1083 05f2 1FE0     		b	.L82
 1084              	.L79:
 1085              		.loc 1 484 0
 1086 05f4 9DF80F30 		ldrb	r3, [sp, #15]	@ zero_extendqisi2
 1087 05f8 23F04003 		bic	r3, r3, #64
 1088 05fc DBB2     		uxtb	r3, r3
 1089 05fe 8DF80F30 		strb	r3, [sp, #15]
 1090              		.loc 1 485 0
 1091 0602 9DF80330 		ldrb	r3, [sp, #3]	@ zero_extendqisi2
 1092 0606 9B01     		lsls	r3, r3, #6
 1093 0608 DAB2     		uxtb	r2, r3
 1094 060a 9DF80F30 		ldrb	r3, [sp, #15]	@ zero_extendqisi2
 1095 060e DBB2     		uxtb	r3, r3
 1096 0610 1343     		orrs	r3, r3, r2
 1097 0612 DBB2     		uxtb	r3, r3
 1098 0614 DBB2     		uxtb	r3, r3
 1099 0616 8DF80F30 		strb	r3, [sp, #15]
 1100              		.loc 1 487 0
 1101 061a 0DF10F03 		add	r3, sp, #15
 1102 061e 0198     		ldr	r0, [sp, #4]
 1103 0620 1121     		movs	r1, #17
 1104 0622 0122     		movs	r2, #1
 1105 0624 FFF7FEFF 		bl	LPS22HB_WriteReg
 1106 0628 0346     		mov	r3, r0
 1107 062a 002B     		cmp	r3, #0
 1108 062c 01D0     		beq	.L81
 1109              		.loc 1 488 0
 1110 062e 0123     		movs	r3, #1
 1111 0630 00E0     		b	.L82
 1112              	.L81:
 1113              		.loc 1 490 0
 1114 0632 0023     		movs	r3, #0
 1115              	.L82:
 1116              		.loc 1 491 0
 1117 0634 1846     		mov	r0, r3
 1118 0636 05B0     		add	sp, sp, #20
 1119              		@ sp needed
 1120 0638 5DF804FB 		ldr	pc, [sp], #4
 1121              		.cfi_endproc
 1122              	.LFE18:
 1123              		.size	LPS22HB_Set_FifoModeUse, .-LPS22HB_Set_FifoModeUse
ARM GAS  /tmp/ccBklucm.s 			page 21


 1124              		.align	2
 1125 063c AFF30080 		.p2align 4,,15
 1126              		.global	LPS22HB_Set_FifoWatermarkLevelUse
 1127              		.thumb
 1128              		.thumb_func
 1129              		.type	LPS22HB_Set_FifoWatermarkLevelUse, %function
 1130              	LPS22HB_Set_FifoWatermarkLevelUse:
 1131              	.LFB19:
 1132              		.loc 1 499 0
 1133              		.cfi_startproc
 1134              		@ args = 0, pretend = 0, frame = 16
 1135              		@ frame_needed = 0, uses_anonymous_args = 0
 1136 0640 00B5     		push	{lr}
 1137              		.cfi_def_cfa_offset 4
 1138              		.cfi_offset 14, -4
 1139 0642 85B0     		sub	sp, sp, #20
 1140              		.cfi_def_cfa_offset 24
 1141 0644 0190     		str	r0, [sp, #4]
 1142 0646 0B46     		mov	r3, r1
 1143 0648 8DF80330 		strb	r3, [sp, #3]
 1144              		.loc 1 504 0
 1145 064c 0DF10F03 		add	r3, sp, #15
 1146 0650 0198     		ldr	r0, [sp, #4]
 1147 0652 1121     		movs	r1, #17
 1148 0654 0122     		movs	r2, #1
 1149 0656 FFF7FEFF 		bl	LPS22HB_ReadReg
 1150 065a 0346     		mov	r3, r0
 1151 065c 002B     		cmp	r3, #0
 1152 065e 01D0     		beq	.L84
 1153              		.loc 1 505 0
 1154 0660 0123     		movs	r3, #1
 1155 0662 1FE0     		b	.L87
 1156              	.L84:
 1157              		.loc 1 507 0
 1158 0664 9DF80F30 		ldrb	r3, [sp, #15]	@ zero_extendqisi2
 1159 0668 23F02003 		bic	r3, r3, #32
 1160 066c DBB2     		uxtb	r3, r3
 1161 066e 8DF80F30 		strb	r3, [sp, #15]
 1162              		.loc 1 508 0
 1163 0672 9DF80330 		ldrb	r3, [sp, #3]	@ zero_extendqisi2
 1164 0676 5B01     		lsls	r3, r3, #5
 1165 0678 DAB2     		uxtb	r2, r3
 1166 067a 9DF80F30 		ldrb	r3, [sp, #15]	@ zero_extendqisi2
 1167 067e DBB2     		uxtb	r3, r3
 1168 0680 1343     		orrs	r3, r3, r2
 1169 0682 DBB2     		uxtb	r3, r3
 1170 0684 DBB2     		uxtb	r3, r3
 1171 0686 8DF80F30 		strb	r3, [sp, #15]
 1172              		.loc 1 510 0
 1173 068a 0DF10F03 		add	r3, sp, #15
 1174 068e 0198     		ldr	r0, [sp, #4]
 1175 0690 1121     		movs	r1, #17
 1176 0692 0122     		movs	r2, #1
 1177 0694 FFF7FEFF 		bl	LPS22HB_WriteReg
 1178 0698 0346     		mov	r3, r0
 1179 069a 002B     		cmp	r3, #0
 1180 069c 01D0     		beq	.L86
ARM GAS  /tmp/ccBklucm.s 			page 22


 1181              		.loc 1 511 0
 1182 069e 0123     		movs	r3, #1
 1183 06a0 00E0     		b	.L87
 1184              	.L86:
 1185              		.loc 1 513 0
 1186 06a2 0023     		movs	r3, #0
 1187              	.L87:
 1188              		.loc 1 514 0
 1189 06a4 1846     		mov	r0, r3
 1190 06a6 05B0     		add	sp, sp, #20
 1191              		@ sp needed
 1192 06a8 5DF804FB 		ldr	pc, [sp], #4
 1193              		.cfi_endproc
 1194              	.LFE19:
 1195              		.size	LPS22HB_Set_FifoWatermarkLevelUse, .-LPS22HB_Set_FifoWatermarkLevelUse
 1196              		.align	2
 1197 06ac AFF30080 		.p2align 4,,15
 1198              		.global	LPS22HB_Set_AutomaticIncrementRegAddress
 1199              		.thumb
 1200              		.thumb_func
 1201              		.type	LPS22HB_Set_AutomaticIncrementRegAddress, %function
 1202              	LPS22HB_Set_AutomaticIncrementRegAddress:
 1203              	.LFB20:
 1204              		.loc 1 523 0
 1205              		.cfi_startproc
 1206              		@ args = 0, pretend = 0, frame = 16
 1207              		@ frame_needed = 0, uses_anonymous_args = 0
 1208 06b0 00B5     		push	{lr}
 1209              		.cfi_def_cfa_offset 4
 1210              		.cfi_offset 14, -4
 1211 06b2 85B0     		sub	sp, sp, #20
 1212              		.cfi_def_cfa_offset 24
 1213 06b4 0190     		str	r0, [sp, #4]
 1214 06b6 0B46     		mov	r3, r1
 1215 06b8 8DF80330 		strb	r3, [sp, #3]
 1216              		.loc 1 529 0
 1217 06bc 0DF10F03 		add	r3, sp, #15
 1218 06c0 0198     		ldr	r0, [sp, #4]
 1219 06c2 1121     		movs	r1, #17
 1220 06c4 0122     		movs	r2, #1
 1221 06c6 FFF7FEFF 		bl	LPS22HB_ReadReg
 1222 06ca 0346     		mov	r3, r0
 1223 06cc 002B     		cmp	r3, #0
 1224 06ce 01D0     		beq	.L89
 1225              		.loc 1 530 0
 1226 06d0 0123     		movs	r3, #1
 1227 06d2 1FE0     		b	.L92
 1228              	.L89:
 1229              		.loc 1 532 0
 1230 06d4 9DF80F30 		ldrb	r3, [sp, #15]	@ zero_extendqisi2
 1231 06d8 23F01003 		bic	r3, r3, #16
 1232 06dc DBB2     		uxtb	r3, r3
 1233 06de 8DF80F30 		strb	r3, [sp, #15]
 1234              		.loc 1 533 0
 1235 06e2 9DF80330 		ldrb	r3, [sp, #3]	@ zero_extendqisi2
 1236 06e6 1B01     		lsls	r3, r3, #4
 1237 06e8 DAB2     		uxtb	r2, r3
ARM GAS  /tmp/ccBklucm.s 			page 23


 1238 06ea 9DF80F30 		ldrb	r3, [sp, #15]	@ zero_extendqisi2
 1239 06ee DBB2     		uxtb	r3, r3
 1240 06f0 1343     		orrs	r3, r3, r2
 1241 06f2 DBB2     		uxtb	r3, r3
 1242 06f4 DBB2     		uxtb	r3, r3
 1243 06f6 8DF80F30 		strb	r3, [sp, #15]
 1244              		.loc 1 535 0
 1245 06fa 0DF10F03 		add	r3, sp, #15
 1246 06fe 0198     		ldr	r0, [sp, #4]
 1247 0700 1121     		movs	r1, #17
 1248 0702 0122     		movs	r2, #1
 1249 0704 FFF7FEFF 		bl	LPS22HB_WriteReg
 1250 0708 0346     		mov	r3, r0
 1251 070a 002B     		cmp	r3, #0
 1252 070c 01D0     		beq	.L91
 1253              		.loc 1 536 0
 1254 070e 0123     		movs	r3, #1
 1255 0710 00E0     		b	.L92
 1256              	.L91:
 1257              		.loc 1 538 0
 1258 0712 0023     		movs	r3, #0
 1259              	.L92:
 1260              		.loc 1 540 0
 1261 0714 1846     		mov	r0, r3
 1262 0716 05B0     		add	sp, sp, #20
 1263              		@ sp needed
 1264 0718 5DF804FB 		ldr	pc, [sp], #4
 1265              		.cfi_endproc
 1266              	.LFE20:
 1267              		.size	LPS22HB_Set_AutomaticIncrementRegAddress, .-LPS22HB_Set_AutomaticIncrementRegAddress
 1268              		.align	2
 1269 071c AFF30080 		.p2align 4,,15
 1270              		.global	LPS22HB_Set_I2C
 1271              		.thumb
 1272              		.thumb_func
 1273              		.type	LPS22HB_Set_I2C, %function
 1274              	LPS22HB_Set_I2C:
 1275              	.LFB21:
 1276              		.loc 1 549 0
 1277              		.cfi_startproc
 1278              		@ args = 0, pretend = 0, frame = 16
 1279              		@ frame_needed = 0, uses_anonymous_args = 0
 1280 0720 00B5     		push	{lr}
 1281              		.cfi_def_cfa_offset 4
 1282              		.cfi_offset 14, -4
 1283 0722 85B0     		sub	sp, sp, #20
 1284              		.cfi_def_cfa_offset 24
 1285 0724 0190     		str	r0, [sp, #4]
 1286 0726 0B46     		mov	r3, r1
 1287 0728 8DF80330 		strb	r3, [sp, #3]
 1288              		.loc 1 554 0
 1289 072c 0DF10F03 		add	r3, sp, #15
 1290 0730 0198     		ldr	r0, [sp, #4]
 1291 0732 1121     		movs	r1, #17
 1292 0734 0122     		movs	r2, #1
 1293 0736 FFF7FEFF 		bl	LPS22HB_ReadReg
 1294 073a 0346     		mov	r3, r0
ARM GAS  /tmp/ccBklucm.s 			page 24


 1295 073c 002B     		cmp	r3, #0
 1296 073e 01D0     		beq	.L94
 1297              		.loc 1 555 0
 1298 0740 0123     		movs	r3, #1
 1299 0742 21E0     		b	.L97
 1300              	.L94:
 1301              		.loc 1 558 0
 1302 0744 9DF80F30 		ldrb	r3, [sp, #15]	@ zero_extendqisi2
 1303 0748 23F00803 		bic	r3, r3, #8
 1304 074c DBB2     		uxtb	r3, r3
 1305 074e 8DF80F30 		strb	r3, [sp, #15]
 1306              		.loc 1 559 0
 1307 0752 9DF80330 		ldrb	r3, [sp, #3]
 1308 0756 DB43     		mvns	r3, r3
 1309 0758 DBB2     		uxtb	r3, r3
 1310 075a DB00     		lsls	r3, r3, #3
 1311 075c DAB2     		uxtb	r2, r3
 1312 075e 9DF80F30 		ldrb	r3, [sp, #15]	@ zero_extendqisi2
 1313 0762 DBB2     		uxtb	r3, r3
 1314 0764 1343     		orrs	r3, r3, r2
 1315 0766 DBB2     		uxtb	r3, r3
 1316 0768 DBB2     		uxtb	r3, r3
 1317 076a 8DF80F30 		strb	r3, [sp, #15]
 1318              		.loc 1 561 0
 1319 076e 0DF10F03 		add	r3, sp, #15
 1320 0772 0198     		ldr	r0, [sp, #4]
 1321 0774 1121     		movs	r1, #17
 1322 0776 0122     		movs	r2, #1
 1323 0778 FFF7FEFF 		bl	LPS22HB_WriteReg
 1324 077c 0346     		mov	r3, r0
 1325 077e 002B     		cmp	r3, #0
 1326 0780 01D0     		beq	.L96
 1327              		.loc 1 562 0
 1328 0782 0123     		movs	r3, #1
 1329 0784 00E0     		b	.L97
 1330              	.L96:
 1331              		.loc 1 564 0
 1332 0786 0023     		movs	r3, #0
 1333              	.L97:
 1334              		.loc 1 565 0
 1335 0788 1846     		mov	r0, r3
 1336 078a 05B0     		add	sp, sp, #20
 1337              		@ sp needed
 1338 078c 5DF804FB 		ldr	pc, [sp], #4
 1339              		.cfi_endproc
 1340              	.LFE21:
 1341              		.size	LPS22HB_Set_I2C, .-LPS22HB_Set_I2C
 1342              		.align	2
 1343              		.p2align 4,,15
 1344              		.global	LPS22HB_StartOneShotMeasurement
 1345              		.thumb
 1346              		.thumb_func
 1347              		.type	LPS22HB_StartOneShotMeasurement, %function
 1348              	LPS22HB_StartOneShotMeasurement:
 1349              	.LFB22:
 1350              		.loc 1 576 0
 1351              		.cfi_startproc
ARM GAS  /tmp/ccBklucm.s 			page 25


 1352              		@ args = 0, pretend = 0, frame = 16
 1353              		@ frame_needed = 0, uses_anonymous_args = 0
 1354 0790 00B5     		push	{lr}
 1355              		.cfi_def_cfa_offset 4
 1356              		.cfi_offset 14, -4
 1357 0792 85B0     		sub	sp, sp, #20
 1358              		.cfi_def_cfa_offset 24
 1359 0794 0190     		str	r0, [sp, #4]
 1360              		.loc 1 579 0
 1361 0796 0DF10F03 		add	r3, sp, #15
 1362 079a 0198     		ldr	r0, [sp, #4]
 1363 079c 1121     		movs	r1, #17
 1364 079e 0122     		movs	r2, #1
 1365 07a0 FFF7FEFF 		bl	LPS22HB_ReadReg
 1366 07a4 0346     		mov	r3, r0
 1367 07a6 002B     		cmp	r3, #0
 1368 07a8 01D0     		beq	.L99
 1369              		.loc 1 580 0
 1370 07aa 0123     		movs	r3, #1
 1371 07ac 13E0     		b	.L102
 1372              	.L99:
 1373              		.loc 1 584 0
 1374 07ae 9DF80F30 		ldrb	r3, [sp, #15]	@ zero_extendqisi2
 1375 07b2 43F00103 		orr	r3, r3, #1
 1376 07b6 DBB2     		uxtb	r3, r3
 1377 07b8 8DF80F30 		strb	r3, [sp, #15]
 1378              		.loc 1 586 0
 1379 07bc 0DF10F03 		add	r3, sp, #15
 1380 07c0 0198     		ldr	r0, [sp, #4]
 1381 07c2 1121     		movs	r1, #17
 1382 07c4 0122     		movs	r2, #1
 1383 07c6 FFF7FEFF 		bl	LPS22HB_WriteReg
 1384 07ca 0346     		mov	r3, r0
 1385 07cc 002B     		cmp	r3, #0
 1386 07ce 01D0     		beq	.L101
 1387              		.loc 1 587 0
 1388 07d0 0123     		movs	r3, #1
 1389 07d2 00E0     		b	.L102
 1390              	.L101:
 1391              		.loc 1 589 0
 1392 07d4 0023     		movs	r3, #0
 1393              	.L102:
 1394              		.loc 1 591 0
 1395 07d6 1846     		mov	r0, r3
 1396 07d8 05B0     		add	sp, sp, #20
 1397              		@ sp needed
 1398 07da 5DF804FB 		ldr	pc, [sp], #4
 1399              		.cfi_endproc
 1400              	.LFE22:
 1401              		.size	LPS22HB_StartOneShotMeasurement, .-LPS22HB_StartOneShotMeasurement
 1402 07de 00BF     		.align	2
 1403              		.p2align 4,,15
 1404              		.global	LPS22HB_Set_InterruptActiveLevel
 1405              		.thumb
 1406              		.thumb_func
 1407              		.type	LPS22HB_Set_InterruptActiveLevel, %function
 1408              	LPS22HB_Set_InterruptActiveLevel:
ARM GAS  /tmp/ccBklucm.s 			page 26


 1409              	.LFB23:
 1410              		.loc 1 600 0
 1411              		.cfi_startproc
 1412              		@ args = 0, pretend = 0, frame = 16
 1413              		@ frame_needed = 0, uses_anonymous_args = 0
 1414 07e0 00B5     		push	{lr}
 1415              		.cfi_def_cfa_offset 4
 1416              		.cfi_offset 14, -4
 1417 07e2 85B0     		sub	sp, sp, #20
 1418              		.cfi_def_cfa_offset 24
 1419 07e4 0190     		str	r0, [sp, #4]
 1420 07e6 0B46     		mov	r3, r1
 1421 07e8 8DF80330 		strb	r3, [sp, #3]
 1422              		.loc 1 605 0
 1423 07ec 0DF10F03 		add	r3, sp, #15
 1424 07f0 0198     		ldr	r0, [sp, #4]
 1425 07f2 1221     		movs	r1, #18
 1426 07f4 0122     		movs	r2, #1
 1427 07f6 FFF7FEFF 		bl	LPS22HB_ReadReg
 1428 07fa 0346     		mov	r3, r0
 1429 07fc 002B     		cmp	r3, #0
 1430 07fe 01D0     		beq	.L104
 1431              		.loc 1 606 0
 1432 0800 0123     		movs	r3, #1
 1433 0802 1BE0     		b	.L107
 1434              	.L104:
 1435              		.loc 1 608 0
 1436 0804 9DF80F30 		ldrb	r3, [sp, #15]	@ zero_extendqisi2
 1437 0808 03F07F03 		and	r3, r3, #127
 1438 080c DBB2     		uxtb	r3, r3
 1439 080e 8DF80F30 		strb	r3, [sp, #15]
 1440              		.loc 1 609 0
 1441 0812 9DF80F20 		ldrb	r2, [sp, #15]	@ zero_extendqisi2
 1442 0816 9DF80330 		ldrb	r3, [sp, #3]
 1443 081a 1343     		orrs	r3, r3, r2
 1444 081c DBB2     		uxtb	r3, r3
 1445 081e 8DF80F30 		strb	r3, [sp, #15]
 1446              		.loc 1 611 0
 1447 0822 0DF10F03 		add	r3, sp, #15
 1448 0826 0198     		ldr	r0, [sp, #4]
 1449 0828 1221     		movs	r1, #18
 1450 082a 0122     		movs	r2, #1
 1451 082c FFF7FEFF 		bl	LPS22HB_WriteReg
 1452 0830 0346     		mov	r3, r0
 1453 0832 002B     		cmp	r3, #0
 1454 0834 01D0     		beq	.L106
 1455              		.loc 1 612 0
 1456 0836 0123     		movs	r3, #1
 1457 0838 00E0     		b	.L107
 1458              	.L106:
 1459              		.loc 1 614 0
 1460 083a 0023     		movs	r3, #0
 1461              	.L107:
 1462              		.loc 1 615 0
 1463 083c 1846     		mov	r0, r3
 1464 083e 05B0     		add	sp, sp, #20
 1465              		@ sp needed
ARM GAS  /tmp/ccBklucm.s 			page 27


 1466 0840 5DF804FB 		ldr	pc, [sp], #4
 1467              		.cfi_endproc
 1468              	.LFE23:
 1469              		.size	LPS22HB_Set_InterruptActiveLevel, .-LPS22HB_Set_InterruptActiveLevel
 1470              		.align	2
 1471 0844 AFF30080 		.p2align 4,,15
 1471      AFF30080 
 1471      AFF30080 
 1472              		.global	LPS22HB_Set_InterruptOutputType
 1473              		.thumb
 1474              		.thumb_func
 1475              		.type	LPS22HB_Set_InterruptOutputType, %function
 1476              	LPS22HB_Set_InterruptOutputType:
 1477              	.LFB24:
 1478              		.loc 1 625 0
 1479              		.cfi_startproc
 1480              		@ args = 0, pretend = 0, frame = 16
 1481              		@ frame_needed = 0, uses_anonymous_args = 0
 1482 0850 00B5     		push	{lr}
 1483              		.cfi_def_cfa_offset 4
 1484              		.cfi_offset 14, -4
 1485 0852 85B0     		sub	sp, sp, #20
 1486              		.cfi_def_cfa_offset 24
 1487 0854 0190     		str	r0, [sp, #4]
 1488 0856 0B46     		mov	r3, r1
 1489 0858 8DF80330 		strb	r3, [sp, #3]
 1490              		.loc 1 630 0
 1491 085c 0DF10F03 		add	r3, sp, #15
 1492 0860 0198     		ldr	r0, [sp, #4]
 1493 0862 1221     		movs	r1, #18
 1494 0864 0122     		movs	r2, #1
 1495 0866 FFF7FEFF 		bl	LPS22HB_ReadReg
 1496 086a 0346     		mov	r3, r0
 1497 086c 002B     		cmp	r3, #0
 1498 086e 01D0     		beq	.L109
 1499              		.loc 1 631 0
 1500 0870 0123     		movs	r3, #1
 1501 0872 1BE0     		b	.L112
 1502              	.L109:
 1503              		.loc 1 633 0
 1504 0874 9DF80F30 		ldrb	r3, [sp, #15]	@ zero_extendqisi2
 1505 0878 23F04003 		bic	r3, r3, #64
 1506 087c DBB2     		uxtb	r3, r3
 1507 087e 8DF80F30 		strb	r3, [sp, #15]
 1508              		.loc 1 634 0
 1509 0882 9DF80F20 		ldrb	r2, [sp, #15]	@ zero_extendqisi2
 1510 0886 9DF80330 		ldrb	r3, [sp, #3]
 1511 088a 1343     		orrs	r3, r3, r2
 1512 088c DBB2     		uxtb	r3, r3
 1513 088e 8DF80F30 		strb	r3, [sp, #15]
 1514              		.loc 1 636 0
 1515 0892 0DF10F03 		add	r3, sp, #15
 1516 0896 0198     		ldr	r0, [sp, #4]
 1517 0898 1221     		movs	r1, #18
 1518 089a 0122     		movs	r2, #1
 1519 089c FFF7FEFF 		bl	LPS22HB_WriteReg
 1520 08a0 0346     		mov	r3, r0
ARM GAS  /tmp/ccBklucm.s 			page 28


 1521 08a2 002B     		cmp	r3, #0
 1522 08a4 01D0     		beq	.L111
 1523              		.loc 1 637 0
 1524 08a6 0123     		movs	r3, #1
 1525 08a8 00E0     		b	.L112
 1526              	.L111:
 1527              		.loc 1 639 0
 1528 08aa 0023     		movs	r3, #0
 1529              	.L112:
 1530              		.loc 1 640 0
 1531 08ac 1846     		mov	r0, r3
 1532 08ae 05B0     		add	sp, sp, #20
 1533              		@ sp needed
 1534 08b0 5DF804FB 		ldr	pc, [sp], #4
 1535              		.cfi_endproc
 1536              	.LFE24:
 1537              		.size	LPS22HB_Set_InterruptOutputType, .-LPS22HB_Set_InterruptOutputType
 1538              		.align	2
 1539 08b4 AFF30080 		.p2align 4,,15
 1539      AFF30080 
 1539      AFF30080 
 1540              		.global	LPS22HB_Set_InterruptControlConfig
 1541              		.thumb
 1542              		.thumb_func
 1543              		.type	LPS22HB_Set_InterruptControlConfig, %function
 1544              	LPS22HB_Set_InterruptControlConfig:
 1545              	.LFB25:
 1546              		.loc 1 649 0
 1547              		.cfi_startproc
 1548              		@ args = 0, pretend = 0, frame = 16
 1549              		@ frame_needed = 0, uses_anonymous_args = 0
 1550 08c0 00B5     		push	{lr}
 1551              		.cfi_def_cfa_offset 4
 1552              		.cfi_offset 14, -4
 1553 08c2 85B0     		sub	sp, sp, #20
 1554              		.cfi_def_cfa_offset 24
 1555 08c4 0190     		str	r0, [sp, #4]
 1556 08c6 0B46     		mov	r3, r1
 1557 08c8 8DF80330 		strb	r3, [sp, #3]
 1558              		.loc 1 654 0
 1559 08cc 0DF10F03 		add	r3, sp, #15
 1560 08d0 0198     		ldr	r0, [sp, #4]
 1561 08d2 1221     		movs	r1, #18
 1562 08d4 0122     		movs	r2, #1
 1563 08d6 FFF7FEFF 		bl	LPS22HB_ReadReg
 1564 08da 0346     		mov	r3, r0
 1565 08dc 002B     		cmp	r3, #0
 1566 08de 01D0     		beq	.L114
 1567              		.loc 1 655 0
 1568 08e0 0123     		movs	r3, #1
 1569 08e2 1BE0     		b	.L117
 1570              	.L114:
 1571              		.loc 1 657 0
 1572 08e4 9DF80F30 		ldrb	r3, [sp, #15]	@ zero_extendqisi2
 1573 08e8 23F00303 		bic	r3, r3, #3
 1574 08ec DBB2     		uxtb	r3, r3
 1575 08ee 8DF80F30 		strb	r3, [sp, #15]
ARM GAS  /tmp/ccBklucm.s 			page 29


 1576              		.loc 1 658 0
 1577 08f2 9DF80F20 		ldrb	r2, [sp, #15]	@ zero_extendqisi2
 1578 08f6 9DF80330 		ldrb	r3, [sp, #3]
 1579 08fa 1343     		orrs	r3, r3, r2
 1580 08fc DBB2     		uxtb	r3, r3
 1581 08fe 8DF80F30 		strb	r3, [sp, #15]
 1582              		.loc 1 660 0
 1583 0902 0DF10F03 		add	r3, sp, #15
 1584 0906 0198     		ldr	r0, [sp, #4]
 1585 0908 1221     		movs	r1, #18
 1586 090a 0122     		movs	r2, #1
 1587 090c FFF7FEFF 		bl	LPS22HB_WriteReg
 1588 0910 0346     		mov	r3, r0
 1589 0912 002B     		cmp	r3, #0
 1590 0914 01D0     		beq	.L116
 1591              		.loc 1 661 0
 1592 0916 0123     		movs	r3, #1
 1593 0918 00E0     		b	.L117
 1594              	.L116:
 1595              		.loc 1 663 0
 1596 091a 0023     		movs	r3, #0
 1597              	.L117:
 1598              		.loc 1 664 0
 1599 091c 1846     		mov	r0, r3
 1600 091e 05B0     		add	sp, sp, #20
 1601              		@ sp needed
 1602 0920 5DF804FB 		ldr	pc, [sp], #4
 1603              		.cfi_endproc
 1604              	.LFE25:
 1605              		.size	LPS22HB_Set_InterruptControlConfig, .-LPS22HB_Set_InterruptControlConfig
 1606              		.align	2
 1607 0924 AFF30080 		.p2align 4,,15
 1607      AFF30080 
 1607      AFF30080 
 1608              		.global	LPS22HB_Set_DRDYInterrupt
 1609              		.thumb
 1610              		.thumb_func
 1611              		.type	LPS22HB_Set_DRDYInterrupt, %function
 1612              	LPS22HB_Set_DRDYInterrupt:
 1613              	.LFB26:
 1614              		.loc 1 674 0
 1615              		.cfi_startproc
 1616              		@ args = 0, pretend = 0, frame = 16
 1617              		@ frame_needed = 0, uses_anonymous_args = 0
 1618 0930 00B5     		push	{lr}
 1619              		.cfi_def_cfa_offset 4
 1620              		.cfi_offset 14, -4
 1621 0932 85B0     		sub	sp, sp, #20
 1622              		.cfi_def_cfa_offset 24
 1623 0934 0190     		str	r0, [sp, #4]
 1624 0936 0B46     		mov	r3, r1
 1625 0938 8DF80330 		strb	r3, [sp, #3]
 1626              		.loc 1 680 0
 1627 093c 0DF10F03 		add	r3, sp, #15
 1628 0940 0198     		ldr	r0, [sp, #4]
 1629 0942 1221     		movs	r1, #18
 1630 0944 0122     		movs	r2, #1
ARM GAS  /tmp/ccBklucm.s 			page 30


 1631 0946 FFF7FEFF 		bl	LPS22HB_ReadReg
 1632 094a 0346     		mov	r3, r0
 1633 094c 002B     		cmp	r3, #0
 1634 094e 01D0     		beq	.L119
 1635              		.loc 1 681 0
 1636 0950 0123     		movs	r3, #1
 1637 0952 1FE0     		b	.L122
 1638              	.L119:
 1639              		.loc 1 683 0
 1640 0954 9DF80F30 		ldrb	r3, [sp, #15]	@ zero_extendqisi2
 1641 0958 23F00403 		bic	r3, r3, #4
 1642 095c DBB2     		uxtb	r3, r3
 1643 095e 8DF80F30 		strb	r3, [sp, #15]
 1644              		.loc 1 684 0
 1645 0962 9DF80330 		ldrb	r3, [sp, #3]	@ zero_extendqisi2
 1646 0966 9B00     		lsls	r3, r3, #2
 1647 0968 DAB2     		uxtb	r2, r3
 1648 096a 9DF80F30 		ldrb	r3, [sp, #15]	@ zero_extendqisi2
 1649 096e DBB2     		uxtb	r3, r3
 1650 0970 1343     		orrs	r3, r3, r2
 1651 0972 DBB2     		uxtb	r3, r3
 1652 0974 DBB2     		uxtb	r3, r3
 1653 0976 8DF80F30 		strb	r3, [sp, #15]
 1654              		.loc 1 686 0
 1655 097a 0DF10F03 		add	r3, sp, #15
 1656 097e 0198     		ldr	r0, [sp, #4]
 1657 0980 1221     		movs	r1, #18
 1658 0982 0122     		movs	r2, #1
 1659 0984 FFF7FEFF 		bl	LPS22HB_WriteReg
 1660 0988 0346     		mov	r3, r0
 1661 098a 002B     		cmp	r3, #0
 1662 098c 01D0     		beq	.L121
 1663              		.loc 1 687 0
 1664 098e 0123     		movs	r3, #1
 1665 0990 00E0     		b	.L122
 1666              	.L121:
 1667              		.loc 1 689 0
 1668 0992 0023     		movs	r3, #0
 1669              	.L122:
 1670              		.loc 1 690 0
 1671 0994 1846     		mov	r0, r3
 1672 0996 05B0     		add	sp, sp, #20
 1673              		@ sp needed
 1674 0998 5DF804FB 		ldr	pc, [sp], #4
 1675              		.cfi_endproc
 1676              	.LFE26:
 1677              		.size	LPS22HB_Set_DRDYInterrupt, .-LPS22HB_Set_DRDYInterrupt
 1678              		.align	2
 1679 099c AFF30080 		.p2align 4,,15
 1680              		.global	LPS22HB_Set_FIFO_OVR_Interrupt
 1681              		.thumb
 1682              		.thumb_func
 1683              		.type	LPS22HB_Set_FIFO_OVR_Interrupt, %function
 1684              	LPS22HB_Set_FIFO_OVR_Interrupt:
 1685              	.LFB27:
 1686              		.loc 1 699 0
 1687              		.cfi_startproc
ARM GAS  /tmp/ccBklucm.s 			page 31


 1688              		@ args = 0, pretend = 0, frame = 16
 1689              		@ frame_needed = 0, uses_anonymous_args = 0
 1690 09a0 00B5     		push	{lr}
 1691              		.cfi_def_cfa_offset 4
 1692              		.cfi_offset 14, -4
 1693 09a2 85B0     		sub	sp, sp, #20
 1694              		.cfi_def_cfa_offset 24
 1695 09a4 0190     		str	r0, [sp, #4]
 1696 09a6 0B46     		mov	r3, r1
 1697 09a8 8DF80330 		strb	r3, [sp, #3]
 1698              		.loc 1 705 0
 1699 09ac 0DF10F03 		add	r3, sp, #15
 1700 09b0 0198     		ldr	r0, [sp, #4]
 1701 09b2 1221     		movs	r1, #18
 1702 09b4 0122     		movs	r2, #1
 1703 09b6 FFF7FEFF 		bl	LPS22HB_ReadReg
 1704 09ba 0346     		mov	r3, r0
 1705 09bc 002B     		cmp	r3, #0
 1706 09be 01D0     		beq	.L124
 1707              		.loc 1 706 0
 1708 09c0 0123     		movs	r3, #1
 1709 09c2 1FE0     		b	.L127
 1710              	.L124:
 1711              		.loc 1 708 0
 1712 09c4 9DF80F30 		ldrb	r3, [sp, #15]	@ zero_extendqisi2
 1713 09c8 23F00803 		bic	r3, r3, #8
 1714 09cc DBB2     		uxtb	r3, r3
 1715 09ce 8DF80F30 		strb	r3, [sp, #15]
 1716              		.loc 1 709 0
 1717 09d2 9DF80330 		ldrb	r3, [sp, #3]	@ zero_extendqisi2
 1718 09d6 DB00     		lsls	r3, r3, #3
 1719 09d8 DAB2     		uxtb	r2, r3
 1720 09da 9DF80F30 		ldrb	r3, [sp, #15]	@ zero_extendqisi2
 1721 09de DBB2     		uxtb	r3, r3
 1722 09e0 1343     		orrs	r3, r3, r2
 1723 09e2 DBB2     		uxtb	r3, r3
 1724 09e4 DBB2     		uxtb	r3, r3
 1725 09e6 8DF80F30 		strb	r3, [sp, #15]
 1726              		.loc 1 711 0
 1727 09ea 0DF10F03 		add	r3, sp, #15
 1728 09ee 0198     		ldr	r0, [sp, #4]
 1729 09f0 1221     		movs	r1, #18
 1730 09f2 0122     		movs	r2, #1
 1731 09f4 FFF7FEFF 		bl	LPS22HB_WriteReg
 1732 09f8 0346     		mov	r3, r0
 1733 09fa 002B     		cmp	r3, #0
 1734 09fc 01D0     		beq	.L126
 1735              		.loc 1 712 0
 1736 09fe 0123     		movs	r3, #1
 1737 0a00 00E0     		b	.L127
 1738              	.L126:
 1739              		.loc 1 714 0
 1740 0a02 0023     		movs	r3, #0
 1741              	.L127:
 1742              		.loc 1 715 0
 1743 0a04 1846     		mov	r0, r3
 1744 0a06 05B0     		add	sp, sp, #20
ARM GAS  /tmp/ccBklucm.s 			page 32


 1745              		@ sp needed
 1746 0a08 5DF804FB 		ldr	pc, [sp], #4
 1747              		.cfi_endproc
 1748              	.LFE27:
 1749              		.size	LPS22HB_Set_FIFO_OVR_Interrupt, .-LPS22HB_Set_FIFO_OVR_Interrupt
 1750              		.align	2
 1751 0a0c AFF30080 		.p2align 4,,15
 1752              		.global	LPS22HB_Set_FIFO_FTH_Interrupt
 1753              		.thumb
 1754              		.thumb_func
 1755              		.type	LPS22HB_Set_FIFO_FTH_Interrupt, %function
 1756              	LPS22HB_Set_FIFO_FTH_Interrupt:
 1757              	.LFB28:
 1758              		.loc 1 724 0
 1759              		.cfi_startproc
 1760              		@ args = 0, pretend = 0, frame = 16
 1761              		@ frame_needed = 0, uses_anonymous_args = 0
 1762 0a10 00B5     		push	{lr}
 1763              		.cfi_def_cfa_offset 4
 1764              		.cfi_offset 14, -4
 1765 0a12 85B0     		sub	sp, sp, #20
 1766              		.cfi_def_cfa_offset 24
 1767 0a14 0190     		str	r0, [sp, #4]
 1768 0a16 0B46     		mov	r3, r1
 1769 0a18 8DF80330 		strb	r3, [sp, #3]
 1770              		.loc 1 729 0
 1771 0a1c 0DF10F03 		add	r3, sp, #15
 1772 0a20 0198     		ldr	r0, [sp, #4]
 1773 0a22 1221     		movs	r1, #18
 1774 0a24 0122     		movs	r2, #1
 1775 0a26 FFF7FEFF 		bl	LPS22HB_ReadReg
 1776 0a2a 0346     		mov	r3, r0
 1777 0a2c 002B     		cmp	r3, #0
 1778 0a2e 01D0     		beq	.L129
 1779              		.loc 1 730 0
 1780 0a30 0123     		movs	r3, #1
 1781 0a32 1FE0     		b	.L132
 1782              	.L129:
 1783              		.loc 1 732 0
 1784 0a34 9DF80F30 		ldrb	r3, [sp, #15]	@ zero_extendqisi2
 1785 0a38 23F01003 		bic	r3, r3, #16
 1786 0a3c DBB2     		uxtb	r3, r3
 1787 0a3e 8DF80F30 		strb	r3, [sp, #15]
 1788              		.loc 1 733 0
 1789 0a42 9DF80330 		ldrb	r3, [sp, #3]	@ zero_extendqisi2
 1790 0a46 1B01     		lsls	r3, r3, #4
 1791 0a48 DAB2     		uxtb	r2, r3
 1792 0a4a 9DF80F30 		ldrb	r3, [sp, #15]	@ zero_extendqisi2
 1793 0a4e DBB2     		uxtb	r3, r3
 1794 0a50 1343     		orrs	r3, r3, r2
 1795 0a52 DBB2     		uxtb	r3, r3
 1796 0a54 DBB2     		uxtb	r3, r3
 1797 0a56 8DF80F30 		strb	r3, [sp, #15]
 1798              		.loc 1 735 0
 1799 0a5a 0DF10F03 		add	r3, sp, #15
 1800 0a5e 0198     		ldr	r0, [sp, #4]
 1801 0a60 1221     		movs	r1, #18
ARM GAS  /tmp/ccBklucm.s 			page 33


 1802 0a62 0122     		movs	r2, #1
 1803 0a64 FFF7FEFF 		bl	LPS22HB_WriteReg
 1804 0a68 0346     		mov	r3, r0
 1805 0a6a 002B     		cmp	r3, #0
 1806 0a6c 01D0     		beq	.L131
 1807              		.loc 1 736 0
 1808 0a6e 0123     		movs	r3, #1
 1809 0a70 00E0     		b	.L132
 1810              	.L131:
 1811              		.loc 1 738 0
 1812 0a72 0023     		movs	r3, #0
 1813              	.L132:
 1814              		.loc 1 739 0
 1815 0a74 1846     		mov	r0, r3
 1816 0a76 05B0     		add	sp, sp, #20
 1817              		@ sp needed
 1818 0a78 5DF804FB 		ldr	pc, [sp], #4
 1819              		.cfi_endproc
 1820              	.LFE28:
 1821              		.size	LPS22HB_Set_FIFO_FTH_Interrupt, .-LPS22HB_Set_FIFO_FTH_Interrupt
 1822              		.align	2
 1823 0a7c AFF30080 		.p2align 4,,15
 1824              		.global	LPS22HB_Set_FIFO_FULL_Interrupt
 1825              		.thumb
 1826              		.thumb_func
 1827              		.type	LPS22HB_Set_FIFO_FULL_Interrupt, %function
 1828              	LPS22HB_Set_FIFO_FULL_Interrupt:
 1829              	.LFB29:
 1830              		.loc 1 748 0
 1831              		.cfi_startproc
 1832              		@ args = 0, pretend = 0, frame = 16
 1833              		@ frame_needed = 0, uses_anonymous_args = 0
 1834 0a80 00B5     		push	{lr}
 1835              		.cfi_def_cfa_offset 4
 1836              		.cfi_offset 14, -4
 1837 0a82 85B0     		sub	sp, sp, #20
 1838              		.cfi_def_cfa_offset 24
 1839 0a84 0190     		str	r0, [sp, #4]
 1840 0a86 0B46     		mov	r3, r1
 1841 0a88 8DF80330 		strb	r3, [sp, #3]
 1842              		.loc 1 753 0
 1843 0a8c 0DF10F03 		add	r3, sp, #15
 1844 0a90 0198     		ldr	r0, [sp, #4]
 1845 0a92 1221     		movs	r1, #18
 1846 0a94 0122     		movs	r2, #1
 1847 0a96 FFF7FEFF 		bl	LPS22HB_ReadReg
 1848 0a9a 0346     		mov	r3, r0
 1849 0a9c 002B     		cmp	r3, #0
 1850 0a9e 01D0     		beq	.L134
 1851              		.loc 1 754 0
 1852 0aa0 0123     		movs	r3, #1
 1853 0aa2 1FE0     		b	.L137
 1854              	.L134:
 1855              		.loc 1 756 0
 1856 0aa4 9DF80F30 		ldrb	r3, [sp, #15]	@ zero_extendqisi2
 1857 0aa8 23F02003 		bic	r3, r3, #32
 1858 0aac DBB2     		uxtb	r3, r3
ARM GAS  /tmp/ccBklucm.s 			page 34


 1859 0aae 8DF80F30 		strb	r3, [sp, #15]
 1860              		.loc 1 757 0
 1861 0ab2 9DF80330 		ldrb	r3, [sp, #3]	@ zero_extendqisi2
 1862 0ab6 5B01     		lsls	r3, r3, #5
 1863 0ab8 DAB2     		uxtb	r2, r3
 1864 0aba 9DF80F30 		ldrb	r3, [sp, #15]	@ zero_extendqisi2
 1865 0abe DBB2     		uxtb	r3, r3
 1866 0ac0 1343     		orrs	r3, r3, r2
 1867 0ac2 DBB2     		uxtb	r3, r3
 1868 0ac4 DBB2     		uxtb	r3, r3
 1869 0ac6 8DF80F30 		strb	r3, [sp, #15]
 1870              		.loc 1 759 0
 1871 0aca 0DF10F03 		add	r3, sp, #15
 1872 0ace 0198     		ldr	r0, [sp, #4]
 1873 0ad0 1221     		movs	r1, #18
 1874 0ad2 0122     		movs	r2, #1
 1875 0ad4 FFF7FEFF 		bl	LPS22HB_WriteReg
 1876 0ad8 0346     		mov	r3, r0
 1877 0ada 002B     		cmp	r3, #0
 1878 0adc 01D0     		beq	.L136
 1879              		.loc 1 760 0
 1880 0ade 0123     		movs	r3, #1
 1881 0ae0 00E0     		b	.L137
 1882              	.L136:
 1883              		.loc 1 762 0
 1884 0ae2 0023     		movs	r3, #0
 1885              	.L137:
 1886              		.loc 1 763 0
 1887 0ae4 1846     		mov	r0, r3
 1888 0ae6 05B0     		add	sp, sp, #20
 1889              		@ sp needed
 1890 0ae8 5DF804FB 		ldr	pc, [sp], #4
 1891              		.cfi_endproc
 1892              	.LFE29:
 1893              		.size	LPS22HB_Set_FIFO_FULL_Interrupt, .-LPS22HB_Set_FIFO_FULL_Interrupt
 1894              		.align	2
 1895 0aec AFF30080 		.p2align 4,,15
 1896              		.global	LPS22HB_Set_AutoRifP
 1897              		.thumb
 1898              		.thumb_func
 1899              		.type	LPS22HB_Set_AutoRifP, %function
 1900              	LPS22HB_Set_AutoRifP:
 1901              	.LFB30:
 1902              		.loc 1 776 0
 1903              		.cfi_startproc
 1904              		@ args = 0, pretend = 0, frame = 16
 1905              		@ frame_needed = 0, uses_anonymous_args = 0
 1906 0af0 00B5     		push	{lr}
 1907              		.cfi_def_cfa_offset 4
 1908              		.cfi_offset 14, -4
 1909 0af2 85B0     		sub	sp, sp, #20
 1910              		.cfi_def_cfa_offset 24
 1911 0af4 0190     		str	r0, [sp, #4]
 1912              		.loc 1 779 0
 1913 0af6 0DF10F03 		add	r3, sp, #15
 1914 0afa 0198     		ldr	r0, [sp, #4]
 1915 0afc 0B21     		movs	r1, #11
ARM GAS  /tmp/ccBklucm.s 			page 35


 1916 0afe 0122     		movs	r2, #1
 1917 0b00 FFF7FEFF 		bl	LPS22HB_ReadReg
 1918 0b04 0346     		mov	r3, r0
 1919 0b06 002B     		cmp	r3, #0
 1920 0b08 01D0     		beq	.L139
 1921              		.loc 1 780 0
 1922 0b0a 0123     		movs	r3, #1
 1923 0b0c 13E0     		b	.L142
 1924              	.L139:
 1925              		.loc 1 782 0
 1926 0b0e 9DF80F30 		ldrb	r3, [sp, #15]	@ zero_extendqisi2
 1927 0b12 63F07F03 		orn	r3, r3, #127
 1928 0b16 DBB2     		uxtb	r3, r3
 1929 0b18 8DF80F30 		strb	r3, [sp, #15]
 1930              		.loc 1 784 0
 1931 0b1c 0DF10F03 		add	r3, sp, #15
 1932 0b20 0198     		ldr	r0, [sp, #4]
 1933 0b22 0B21     		movs	r1, #11
 1934 0b24 0122     		movs	r2, #1
 1935 0b26 FFF7FEFF 		bl	LPS22HB_WriteReg
 1936 0b2a 0346     		mov	r3, r0
 1937 0b2c 002B     		cmp	r3, #0
 1938 0b2e 01D0     		beq	.L141
 1939              		.loc 1 785 0
 1940 0b30 0123     		movs	r3, #1
 1941 0b32 00E0     		b	.L142
 1942              	.L141:
 1943              		.loc 1 787 0
 1944 0b34 0023     		movs	r3, #0
 1945              	.L142:
 1946              		.loc 1 788 0
 1947 0b36 1846     		mov	r0, r3
 1948 0b38 05B0     		add	sp, sp, #20
 1949              		@ sp needed
 1950 0b3a 5DF804FB 		ldr	pc, [sp], #4
 1951              		.cfi_endproc
 1952              	.LFE30:
 1953              		.size	LPS22HB_Set_AutoRifP, .-LPS22HB_Set_AutoRifP
 1954 0b3e 00BF     		.align	2
 1955              		.p2align 4,,15
 1956              		.global	LPS22HB_ResetAutoRifP
 1957              		.thumb
 1958              		.thumb_func
 1959              		.type	LPS22HB_ResetAutoRifP, %function
 1960              	LPS22HB_ResetAutoRifP:
 1961              	.LFB31:
 1962              		.loc 1 797 0
 1963              		.cfi_startproc
 1964              		@ args = 0, pretend = 0, frame = 16
 1965              		@ frame_needed = 0, uses_anonymous_args = 0
 1966 0b40 00B5     		push	{lr}
 1967              		.cfi_def_cfa_offset 4
 1968              		.cfi_offset 14, -4
 1969 0b42 85B0     		sub	sp, sp, #20
 1970              		.cfi_def_cfa_offset 24
 1971 0b44 0190     		str	r0, [sp, #4]
 1972              		.loc 1 800 0
ARM GAS  /tmp/ccBklucm.s 			page 36


 1973 0b46 0DF10F03 		add	r3, sp, #15
 1974 0b4a 0198     		ldr	r0, [sp, #4]
 1975 0b4c 0B21     		movs	r1, #11
 1976 0b4e 0122     		movs	r2, #1
 1977 0b50 FFF7FEFF 		bl	LPS22HB_ReadReg
 1978 0b54 0346     		mov	r3, r0
 1979 0b56 002B     		cmp	r3, #0
 1980 0b58 01D0     		beq	.L144
 1981              		.loc 1 801 0
 1982 0b5a 0123     		movs	r3, #1
 1983 0b5c 13E0     		b	.L147
 1984              	.L144:
 1985              		.loc 1 804 0
 1986 0b5e 9DF80F30 		ldrb	r3, [sp, #15]	@ zero_extendqisi2
 1987 0b62 43F04003 		orr	r3, r3, #64
 1988 0b66 DBB2     		uxtb	r3, r3
 1989 0b68 8DF80F30 		strb	r3, [sp, #15]
 1990              		.loc 1 806 0
 1991 0b6c 0DF10F03 		add	r3, sp, #15
 1992 0b70 0198     		ldr	r0, [sp, #4]
 1993 0b72 0B21     		movs	r1, #11
 1994 0b74 0122     		movs	r2, #1
 1995 0b76 FFF7FEFF 		bl	LPS22HB_WriteReg
 1996 0b7a 0346     		mov	r3, r0
 1997 0b7c 002B     		cmp	r3, #0
 1998 0b7e 01D0     		beq	.L146
 1999              		.loc 1 807 0
 2000 0b80 0123     		movs	r3, #1
 2001 0b82 00E0     		b	.L147
 2002              	.L146:
 2003              		.loc 1 809 0
 2004 0b84 0023     		movs	r3, #0
 2005              	.L147:
 2006              		.loc 1 810 0
 2007 0b86 1846     		mov	r0, r3
 2008 0b88 05B0     		add	sp, sp, #20
 2009              		@ sp needed
 2010 0b8a 5DF804FB 		ldr	pc, [sp], #4
 2011              		.cfi_endproc
 2012              	.LFE31:
 2013              		.size	LPS22HB_ResetAutoRifP, .-LPS22HB_ResetAutoRifP
 2014 0b8e 00BF     		.align	2
 2015              		.p2align 4,,15
 2016              		.global	LPS22HB_Set_AutoZeroFunction
 2017              		.thumb
 2018              		.thumb_func
 2019              		.type	LPS22HB_Set_AutoZeroFunction, %function
 2020              	LPS22HB_Set_AutoZeroFunction:
 2021              	.LFB32:
 2022              		.loc 1 820 0
 2023              		.cfi_startproc
 2024              		@ args = 0, pretend = 0, frame = 16
 2025              		@ frame_needed = 0, uses_anonymous_args = 0
 2026 0b90 00B5     		push	{lr}
 2027              		.cfi_def_cfa_offset 4
 2028              		.cfi_offset 14, -4
 2029 0b92 85B0     		sub	sp, sp, #20
ARM GAS  /tmp/ccBklucm.s 			page 37


 2030              		.cfi_def_cfa_offset 24
 2031 0b94 0190     		str	r0, [sp, #4]
 2032              		.loc 1 823 0
 2033 0b96 0DF10F03 		add	r3, sp, #15
 2034 0b9a 0198     		ldr	r0, [sp, #4]
 2035 0b9c 0B21     		movs	r1, #11
 2036 0b9e 0122     		movs	r2, #1
 2037 0ba0 FFF7FEFF 		bl	LPS22HB_ReadReg
 2038 0ba4 0346     		mov	r3, r0
 2039 0ba6 002B     		cmp	r3, #0
 2040 0ba8 01D0     		beq	.L149
 2041              		.loc 1 824 0
 2042 0baa 0123     		movs	r3, #1
 2043 0bac 13E0     		b	.L152
 2044              	.L149:
 2045              		.loc 1 826 0
 2046 0bae 9DF80F30 		ldrb	r3, [sp, #15]	@ zero_extendqisi2
 2047 0bb2 43F02003 		orr	r3, r3, #32
 2048 0bb6 DBB2     		uxtb	r3, r3
 2049 0bb8 8DF80F30 		strb	r3, [sp, #15]
 2050              		.loc 1 828 0
 2051 0bbc 0DF10F03 		add	r3, sp, #15
 2052 0bc0 0198     		ldr	r0, [sp, #4]
 2053 0bc2 0B21     		movs	r1, #11
 2054 0bc4 0122     		movs	r2, #1
 2055 0bc6 FFF7FEFF 		bl	LPS22HB_WriteReg
 2056 0bca 0346     		mov	r3, r0
 2057 0bcc 002B     		cmp	r3, #0
 2058 0bce 01D0     		beq	.L151
 2059              		.loc 1 829 0
 2060 0bd0 0123     		movs	r3, #1
 2061 0bd2 00E0     		b	.L152
 2062              	.L151:
 2063              		.loc 1 831 0
 2064 0bd4 0023     		movs	r3, #0
 2065              	.L152:
 2066              		.loc 1 832 0
 2067 0bd6 1846     		mov	r0, r3
 2068 0bd8 05B0     		add	sp, sp, #20
 2069              		@ sp needed
 2070 0bda 5DF804FB 		ldr	pc, [sp], #4
 2071              		.cfi_endproc
 2072              	.LFE32:
 2073              		.size	LPS22HB_Set_AutoZeroFunction, .-LPS22HB_Set_AutoZeroFunction
 2074 0bde 00BF     		.align	2
 2075              		.p2align 4,,15
 2076              		.global	LPS22HB_ResetAutoZeroFunction
 2077              		.thumb
 2078              		.thumb_func
 2079              		.type	LPS22HB_ResetAutoZeroFunction, %function
 2080              	LPS22HB_ResetAutoZeroFunction:
 2081              	.LFB33:
 2082              		.loc 1 842 0
 2083              		.cfi_startproc
 2084              		@ args = 0, pretend = 0, frame = 16
 2085              		@ frame_needed = 0, uses_anonymous_args = 0
 2086 0be0 00B5     		push	{lr}
ARM GAS  /tmp/ccBklucm.s 			page 38


 2087              		.cfi_def_cfa_offset 4
 2088              		.cfi_offset 14, -4
 2089 0be2 85B0     		sub	sp, sp, #20
 2090              		.cfi_def_cfa_offset 24
 2091 0be4 0190     		str	r0, [sp, #4]
 2092              		.loc 1 845 0
 2093 0be6 0DF10F03 		add	r3, sp, #15
 2094 0bea 0198     		ldr	r0, [sp, #4]
 2095 0bec 0B21     		movs	r1, #11
 2096 0bee 0122     		movs	r2, #1
 2097 0bf0 FFF7FEFF 		bl	LPS22HB_ReadReg
 2098 0bf4 0346     		mov	r3, r0
 2099 0bf6 002B     		cmp	r3, #0
 2100 0bf8 01D0     		beq	.L154
 2101              		.loc 1 846 0
 2102 0bfa 0123     		movs	r3, #1
 2103 0bfc 13E0     		b	.L157
 2104              	.L154:
 2105              		.loc 1 850 0
 2106 0bfe 9DF80F30 		ldrb	r3, [sp, #15]	@ zero_extendqisi2
 2107 0c02 43F01003 		orr	r3, r3, #16
 2108 0c06 DBB2     		uxtb	r3, r3
 2109 0c08 8DF80F30 		strb	r3, [sp, #15]
 2110              		.loc 1 852 0
 2111 0c0c 0DF10F03 		add	r3, sp, #15
 2112 0c10 0198     		ldr	r0, [sp, #4]
 2113 0c12 0B21     		movs	r1, #11
 2114 0c14 0122     		movs	r2, #1
 2115 0c16 FFF7FEFF 		bl	LPS22HB_WriteReg
 2116 0c1a 0346     		mov	r3, r0
 2117 0c1c 002B     		cmp	r3, #0
 2118 0c1e 01D0     		beq	.L156
 2119              		.loc 1 853 0
 2120 0c20 0123     		movs	r3, #1
 2121 0c22 00E0     		b	.L157
 2122              	.L156:
 2123              		.loc 1 856 0
 2124 0c24 0023     		movs	r3, #0
 2125              	.L157:
 2126              		.loc 1 857 0
 2127 0c26 1846     		mov	r0, r3
 2128 0c28 05B0     		add	sp, sp, #20
 2129              		@ sp needed
 2130 0c2a 5DF804FB 		ldr	pc, [sp], #4
 2131              		.cfi_endproc
 2132              	.LFE33:
 2133              		.size	LPS22HB_ResetAutoZeroFunction, .-LPS22HB_ResetAutoZeroFunction
 2134 0c2e 00BF     		.align	2
 2135              		.p2align 4,,15
 2136              		.global	LPS22HB_Set_InterruptDifferentialGeneration
 2137              		.thumb
 2138              		.thumb_func
 2139              		.type	LPS22HB_Set_InterruptDifferentialGeneration, %function
 2140              	LPS22HB_Set_InterruptDifferentialGeneration:
 2141              	.LFB34:
 2142              		.loc 1 867 0
 2143              		.cfi_startproc
ARM GAS  /tmp/ccBklucm.s 			page 39


 2144              		@ args = 0, pretend = 0, frame = 16
 2145              		@ frame_needed = 0, uses_anonymous_args = 0
 2146 0c30 00B5     		push	{lr}
 2147              		.cfi_def_cfa_offset 4
 2148              		.cfi_offset 14, -4
 2149 0c32 85B0     		sub	sp, sp, #20
 2150              		.cfi_def_cfa_offset 24
 2151 0c34 0190     		str	r0, [sp, #4]
 2152 0c36 0B46     		mov	r3, r1
 2153 0c38 8DF80330 		strb	r3, [sp, #3]
 2154              		.loc 1 872 0
 2155 0c3c 0DF10F03 		add	r3, sp, #15
 2156 0c40 0198     		ldr	r0, [sp, #4]
 2157 0c42 0B21     		movs	r1, #11
 2158 0c44 0122     		movs	r2, #1
 2159 0c46 FFF7FEFF 		bl	LPS22HB_ReadReg
 2160 0c4a 0346     		mov	r3, r0
 2161 0c4c 002B     		cmp	r3, #0
 2162 0c4e 01D0     		beq	.L159
 2163              		.loc 1 873 0
 2164 0c50 0123     		movs	r3, #1
 2165 0c52 1FE0     		b	.L162
 2166              	.L159:
 2167              		.loc 1 875 0
 2168 0c54 9DF80F30 		ldrb	r3, [sp, #15]	@ zero_extendqisi2
 2169 0c58 23F00803 		bic	r3, r3, #8
 2170 0c5c DBB2     		uxtb	r3, r3
 2171 0c5e 8DF80F30 		strb	r3, [sp, #15]
 2172              		.loc 1 876 0
 2173 0c62 9DF80330 		ldrb	r3, [sp, #3]	@ zero_extendqisi2
 2174 0c66 DB00     		lsls	r3, r3, #3
 2175 0c68 DAB2     		uxtb	r2, r3
 2176 0c6a 9DF80F30 		ldrb	r3, [sp, #15]	@ zero_extendqisi2
 2177 0c6e DBB2     		uxtb	r3, r3
 2178 0c70 1343     		orrs	r3, r3, r2
 2179 0c72 DBB2     		uxtb	r3, r3
 2180 0c74 DBB2     		uxtb	r3, r3
 2181 0c76 8DF80F30 		strb	r3, [sp, #15]
 2182              		.loc 1 878 0
 2183 0c7a 0DF10F03 		add	r3, sp, #15
 2184 0c7e 0198     		ldr	r0, [sp, #4]
 2185 0c80 0B21     		movs	r1, #11
 2186 0c82 0122     		movs	r2, #1
 2187 0c84 FFF7FEFF 		bl	LPS22HB_WriteReg
 2188 0c88 0346     		mov	r3, r0
 2189 0c8a 002B     		cmp	r3, #0
 2190 0c8c 01D0     		beq	.L161
 2191              		.loc 1 879 0
 2192 0c8e 0123     		movs	r3, #1
 2193 0c90 00E0     		b	.L162
 2194              	.L161:
 2195              		.loc 1 881 0
 2196 0c92 0023     		movs	r3, #0
 2197              	.L162:
 2198              		.loc 1 882 0
 2199 0c94 1846     		mov	r0, r3
 2200 0c96 05B0     		add	sp, sp, #20
ARM GAS  /tmp/ccBklucm.s 			page 40


 2201              		@ sp needed
 2202 0c98 5DF804FB 		ldr	pc, [sp], #4
 2203              		.cfi_endproc
 2204              	.LFE34:
 2205              		.size	LPS22HB_Set_InterruptDifferentialGeneration, .-LPS22HB_Set_InterruptDifferentialGeneration
 2206              		.align	2
 2207 0c9c AFF30080 		.p2align 4,,15
 2208              		.global	LPS22HB_Get_InterruptDifferentialGeneration
 2209              		.thumb
 2210              		.thumb_func
 2211              		.type	LPS22HB_Get_InterruptDifferentialGeneration, %function
 2212              	LPS22HB_Get_InterruptDifferentialGeneration:
 2213              	.LFB35:
 2214              		.loc 1 892 0
 2215              		.cfi_startproc
 2216              		@ args = 0, pretend = 0, frame = 16
 2217              		@ frame_needed = 0, uses_anonymous_args = 0
 2218 0ca0 00B5     		push	{lr}
 2219              		.cfi_def_cfa_offset 4
 2220              		.cfi_offset 14, -4
 2221 0ca2 85B0     		sub	sp, sp, #20
 2222              		.cfi_def_cfa_offset 24
 2223 0ca4 0190     		str	r0, [sp, #4]
 2224 0ca6 0091     		str	r1, [sp]
 2225              		.loc 1 895 0
 2226 0ca8 0DF10F03 		add	r3, sp, #15
 2227 0cac 0198     		ldr	r0, [sp, #4]
 2228 0cae 0B21     		movs	r1, #11
 2229 0cb0 0122     		movs	r2, #1
 2230 0cb2 FFF7FEFF 		bl	LPS22HB_ReadReg
 2231 0cb6 0346     		mov	r3, r0
 2232 0cb8 002B     		cmp	r3, #0
 2233 0cba 01D0     		beq	.L164
 2234              		.loc 1 896 0
 2235 0cbc 0123     		movs	r3, #1
 2236 0cbe 08E0     		b	.L166
 2237              	.L164:
 2238              		.loc 1 898 0
 2239 0cc0 9DF80F30 		ldrb	r3, [sp, #15]	@ zero_extendqisi2
 2240 0cc4 03F00803 		and	r3, r3, #8
 2241 0cc8 DB10     		asrs	r3, r3, #3
 2242 0cca DAB2     		uxtb	r2, r3
 2243 0ccc 009B     		ldr	r3, [sp]
 2244 0cce 1A70     		strb	r2, [r3]
 2245              		.loc 1 900 0
 2246 0cd0 0023     		movs	r3, #0
 2247              	.L166:
 2248              		.loc 1 901 0
 2249 0cd2 1846     		mov	r0, r3
 2250 0cd4 05B0     		add	sp, sp, #20
 2251              		@ sp needed
 2252 0cd6 5DF804FB 		ldr	pc, [sp], #4
 2253              		.cfi_endproc
 2254              	.LFE35:
 2255              		.size	LPS22HB_Get_InterruptDifferentialGeneration, .-LPS22HB_Get_InterruptDifferentialGeneration
 2256 0cda 00BF     		.align	2
 2257 0cdc AFF30080 		.p2align 4,,15
ARM GAS  /tmp/ccBklucm.s 			page 41


 2258              		.global	LPS22HB_LatchInterruptRequest
 2259              		.thumb
 2260              		.thumb_func
 2261              		.type	LPS22HB_LatchInterruptRequest, %function
 2262              	LPS22HB_LatchInterruptRequest:
 2263              	.LFB36:
 2264              		.loc 1 910 0
 2265              		.cfi_startproc
 2266              		@ args = 0, pretend = 0, frame = 16
 2267              		@ frame_needed = 0, uses_anonymous_args = 0
 2268 0ce0 00B5     		push	{lr}
 2269              		.cfi_def_cfa_offset 4
 2270              		.cfi_offset 14, -4
 2271 0ce2 85B0     		sub	sp, sp, #20
 2272              		.cfi_def_cfa_offset 24
 2273 0ce4 0190     		str	r0, [sp, #4]
 2274 0ce6 0B46     		mov	r3, r1
 2275 0ce8 8DF80330 		strb	r3, [sp, #3]
 2276              		.loc 1 915 0
 2277 0cec 0DF10F03 		add	r3, sp, #15
 2278 0cf0 0198     		ldr	r0, [sp, #4]
 2279 0cf2 0B21     		movs	r1, #11
 2280 0cf4 0122     		movs	r2, #1
 2281 0cf6 FFF7FEFF 		bl	LPS22HB_ReadReg
 2282 0cfa 0346     		mov	r3, r0
 2283 0cfc 002B     		cmp	r3, #0
 2284 0cfe 01D0     		beq	.L168
 2285              		.loc 1 916 0
 2286 0d00 0123     		movs	r3, #1
 2287 0d02 1FE0     		b	.L171
 2288              	.L168:
 2289              		.loc 1 918 0
 2290 0d04 9DF80F30 		ldrb	r3, [sp, #15]	@ zero_extendqisi2
 2291 0d08 23F00403 		bic	r3, r3, #4
 2292 0d0c DBB2     		uxtb	r3, r3
 2293 0d0e 8DF80F30 		strb	r3, [sp, #15]
 2294              		.loc 1 919 0
 2295 0d12 9DF80330 		ldrb	r3, [sp, #3]	@ zero_extendqisi2
 2296 0d16 9B00     		lsls	r3, r3, #2
 2297 0d18 DAB2     		uxtb	r2, r3
 2298 0d1a 9DF80F30 		ldrb	r3, [sp, #15]	@ zero_extendqisi2
 2299 0d1e DBB2     		uxtb	r3, r3
 2300 0d20 1343     		orrs	r3, r3, r2
 2301 0d22 DBB2     		uxtb	r3, r3
 2302 0d24 DBB2     		uxtb	r3, r3
 2303 0d26 8DF80F30 		strb	r3, [sp, #15]
 2304              		.loc 1 921 0
 2305 0d2a 0DF10F03 		add	r3, sp, #15
 2306 0d2e 0198     		ldr	r0, [sp, #4]
 2307 0d30 0B21     		movs	r1, #11
 2308 0d32 0122     		movs	r2, #1
 2309 0d34 FFF7FEFF 		bl	LPS22HB_WriteReg
 2310 0d38 0346     		mov	r3, r0
 2311 0d3a 002B     		cmp	r3, #0
 2312 0d3c 01D0     		beq	.L170
 2313              		.loc 1 922 0
 2314 0d3e 0123     		movs	r3, #1
ARM GAS  /tmp/ccBklucm.s 			page 42


 2315 0d40 00E0     		b	.L171
 2316              	.L170:
 2317              		.loc 1 924 0
 2318 0d42 0023     		movs	r3, #0
 2319              	.L171:
 2320              		.loc 1 925 0
 2321 0d44 1846     		mov	r0, r3
 2322 0d46 05B0     		add	sp, sp, #20
 2323              		@ sp needed
 2324 0d48 5DF804FB 		ldr	pc, [sp], #4
 2325              		.cfi_endproc
 2326              	.LFE36:
 2327              		.size	LPS22HB_LatchInterruptRequest, .-LPS22HB_LatchInterruptRequest
 2328              		.align	2
 2329 0d4c AFF30080 		.p2align 4,,15
 2330              		.global	LPS22HB_Set_PLE
 2331              		.thumb
 2332              		.thumb_func
 2333              		.type	LPS22HB_Set_PLE, %function
 2334              	LPS22HB_Set_PLE:
 2335              	.LFB37:
 2336              		.loc 1 936 0
 2337              		.cfi_startproc
 2338              		@ args = 0, pretend = 0, frame = 16
 2339              		@ frame_needed = 0, uses_anonymous_args = 0
 2340 0d50 00B5     		push	{lr}
 2341              		.cfi_def_cfa_offset 4
 2342              		.cfi_offset 14, -4
 2343 0d52 85B0     		sub	sp, sp, #20
 2344              		.cfi_def_cfa_offset 24
 2345 0d54 0190     		str	r0, [sp, #4]
 2346 0d56 0B46     		mov	r3, r1
 2347 0d58 8DF80330 		strb	r3, [sp, #3]
 2348              		.loc 1 941 0
 2349 0d5c 0DF10F03 		add	r3, sp, #15
 2350 0d60 0198     		ldr	r0, [sp, #4]
 2351 0d62 0B21     		movs	r1, #11
 2352 0d64 0122     		movs	r2, #1
 2353 0d66 FFF7FEFF 		bl	LPS22HB_ReadReg
 2354 0d6a 0346     		mov	r3, r0
 2355 0d6c 002B     		cmp	r3, #0
 2356 0d6e 01D0     		beq	.L173
 2357              		.loc 1 942 0
 2358 0d70 0123     		movs	r3, #1
 2359 0d72 1FE0     		b	.L176
 2360              	.L173:
 2361              		.loc 1 944 0
 2362 0d74 9DF80F30 		ldrb	r3, [sp, #15]	@ zero_extendqisi2
 2363 0d78 23F00203 		bic	r3, r3, #2
 2364 0d7c DBB2     		uxtb	r3, r3
 2365 0d7e 8DF80F30 		strb	r3, [sp, #15]
 2366              		.loc 1 945 0
 2367 0d82 9DF80330 		ldrb	r3, [sp, #3]	@ zero_extendqisi2
 2368 0d86 5B00     		lsls	r3, r3, #1
 2369 0d88 DAB2     		uxtb	r2, r3
 2370 0d8a 9DF80F30 		ldrb	r3, [sp, #15]	@ zero_extendqisi2
 2371 0d8e DBB2     		uxtb	r3, r3
ARM GAS  /tmp/ccBklucm.s 			page 43


 2372 0d90 1343     		orrs	r3, r3, r2
 2373 0d92 DBB2     		uxtb	r3, r3
 2374 0d94 DBB2     		uxtb	r3, r3
 2375 0d96 8DF80F30 		strb	r3, [sp, #15]
 2376              		.loc 1 947 0
 2377 0d9a 0DF10F03 		add	r3, sp, #15
 2378 0d9e 0198     		ldr	r0, [sp, #4]
 2379 0da0 0B21     		movs	r1, #11
 2380 0da2 0122     		movs	r2, #1
 2381 0da4 FFF7FEFF 		bl	LPS22HB_WriteReg
 2382 0da8 0346     		mov	r3, r0
 2383 0daa 002B     		cmp	r3, #0
 2384 0dac 01D0     		beq	.L175
 2385              		.loc 1 948 0
 2386 0dae 0123     		movs	r3, #1
 2387 0db0 00E0     		b	.L176
 2388              	.L175:
 2389              		.loc 1 950 0
 2390 0db2 0023     		movs	r3, #0
 2391              	.L176:
 2392              		.loc 1 951 0
 2393 0db4 1846     		mov	r0, r3
 2394 0db6 05B0     		add	sp, sp, #20
 2395              		@ sp needed
 2396 0db8 5DF804FB 		ldr	pc, [sp], #4
 2397              		.cfi_endproc
 2398              	.LFE37:
 2399              		.size	LPS22HB_Set_PLE, .-LPS22HB_Set_PLE
 2400              		.align	2
 2401 0dbc AFF30080 		.p2align 4,,15
 2402              		.global	LPS22HB_Set_PHE
 2403              		.thumb
 2404              		.thumb_func
 2405              		.type	LPS22HB_Set_PHE, %function
 2406              	LPS22HB_Set_PHE:
 2407              	.LFB38:
 2408              		.loc 1 960 0
 2409              		.cfi_startproc
 2410              		@ args = 0, pretend = 0, frame = 16
 2411              		@ frame_needed = 0, uses_anonymous_args = 0
 2412 0dc0 00B5     		push	{lr}
 2413              		.cfi_def_cfa_offset 4
 2414              		.cfi_offset 14, -4
 2415 0dc2 85B0     		sub	sp, sp, #20
 2416              		.cfi_def_cfa_offset 24
 2417 0dc4 0190     		str	r0, [sp, #4]
 2418 0dc6 0B46     		mov	r3, r1
 2419 0dc8 8DF80330 		strb	r3, [sp, #3]
 2420              		.loc 1 965 0
 2421 0dcc 0DF10F03 		add	r3, sp, #15
 2422 0dd0 0198     		ldr	r0, [sp, #4]
 2423 0dd2 0B21     		movs	r1, #11
 2424 0dd4 0122     		movs	r2, #1
 2425 0dd6 FFF7FEFF 		bl	LPS22HB_ReadReg
 2426 0dda 0346     		mov	r3, r0
 2427 0ddc 002B     		cmp	r3, #0
 2428 0dde 01D0     		beq	.L178
ARM GAS  /tmp/ccBklucm.s 			page 44


 2429              		.loc 1 966 0
 2430 0de0 0123     		movs	r3, #1
 2431 0de2 1BE0     		b	.L181
 2432              	.L178:
 2433              		.loc 1 968 0
 2434 0de4 9DF80F30 		ldrb	r3, [sp, #15]	@ zero_extendqisi2
 2435 0de8 23F00103 		bic	r3, r3, #1
 2436 0dec DBB2     		uxtb	r3, r3
 2437 0dee 8DF80F30 		strb	r3, [sp, #15]
 2438              		.loc 1 969 0
 2439 0df2 9DF80F20 		ldrb	r2, [sp, #15]	@ zero_extendqisi2
 2440 0df6 9DF80330 		ldrb	r3, [sp, #3]
 2441 0dfa 1343     		orrs	r3, r3, r2
 2442 0dfc DBB2     		uxtb	r3, r3
 2443 0dfe 8DF80F30 		strb	r3, [sp, #15]
 2444              		.loc 1 971 0
 2445 0e02 0DF10F03 		add	r3, sp, #15
 2446 0e06 0198     		ldr	r0, [sp, #4]
 2447 0e08 0B21     		movs	r1, #11
 2448 0e0a 0122     		movs	r2, #1
 2449 0e0c FFF7FEFF 		bl	LPS22HB_WriteReg
 2450 0e10 0346     		mov	r3, r0
 2451 0e12 002B     		cmp	r3, #0
 2452 0e14 01D0     		beq	.L180
 2453              		.loc 1 972 0
 2454 0e16 0123     		movs	r3, #1
 2455 0e18 00E0     		b	.L181
 2456              	.L180:
 2457              		.loc 1 974 0
 2458 0e1a 0023     		movs	r3, #0
 2459              	.L181:
 2460              		.loc 1 975 0
 2461 0e1c 1846     		mov	r0, r3
 2462 0e1e 05B0     		add	sp, sp, #20
 2463              		@ sp needed
 2464 0e20 5DF804FB 		ldr	pc, [sp], #4
 2465              		.cfi_endproc
 2466              	.LFE38:
 2467              		.size	LPS22HB_Set_PHE, .-LPS22HB_Set_PHE
 2468              		.align	2
 2469 0e24 AFF30080 		.p2align 4,,15
 2469      AFF30080 
 2469      AFF30080 
 2470              		.global	LPS22HB_Get_InterruptDifferentialEventStatus
 2471              		.thumb
 2472              		.thumb_func
 2473              		.type	LPS22HB_Get_InterruptDifferentialEventStatus, %function
 2474              	LPS22HB_Get_InterruptDifferentialEventStatus:
 2475              	.LFB39:
 2476              		.loc 1 986 0
 2477              		.cfi_startproc
 2478              		@ args = 0, pretend = 0, frame = 16
 2479              		@ frame_needed = 0, uses_anonymous_args = 0
 2480 0e30 00B5     		push	{lr}
 2481              		.cfi_def_cfa_offset 4
 2482              		.cfi_offset 14, -4
 2483 0e32 85B0     		sub	sp, sp, #20
ARM GAS  /tmp/ccBklucm.s 			page 45


 2484              		.cfi_def_cfa_offset 24
 2485 0e34 0190     		str	r0, [sp, #4]
 2486 0e36 0091     		str	r1, [sp]
 2487              		.loc 1 989 0
 2488 0e38 0DF10F03 		add	r3, sp, #15
 2489 0e3c 0198     		ldr	r0, [sp, #4]
 2490 0e3e 2521     		movs	r1, #37
 2491 0e40 0122     		movs	r2, #1
 2492 0e42 FFF7FEFF 		bl	LPS22HB_ReadReg
 2493 0e46 0346     		mov	r3, r0
 2494 0e48 002B     		cmp	r3, #0
 2495 0e4a 01D0     		beq	.L183
 2496              		.loc 1 990 0
 2497 0e4c 0123     		movs	r3, #1
 2498 0e4e 1DE0     		b	.L185
 2499              	.L183:
 2500              		.loc 1 992 0
 2501 0e50 9DF80F30 		ldrb	r3, [sp, #15]	@ zero_extendqisi2
 2502 0e54 03F00103 		and	r3, r3, #1
 2503 0e58 DAB2     		uxtb	r2, r3
 2504 0e5a 009B     		ldr	r3, [sp]
 2505 0e5c 1A70     		strb	r2, [r3]
 2506              		.loc 1 993 0
 2507 0e5e 9DF80F30 		ldrb	r3, [sp, #15]	@ zero_extendqisi2
 2508 0e62 03F00203 		and	r3, r3, #2
 2509 0e66 5B10     		asrs	r3, r3, #1
 2510 0e68 DAB2     		uxtb	r2, r3
 2511 0e6a 009B     		ldr	r3, [sp]
 2512 0e6c 5A70     		strb	r2, [r3, #1]
 2513              		.loc 1 994 0
 2514 0e6e 9DF80F30 		ldrb	r3, [sp, #15]	@ zero_extendqisi2
 2515 0e72 03F00403 		and	r3, r3, #4
 2516 0e76 9B10     		asrs	r3, r3, #2
 2517 0e78 DAB2     		uxtb	r2, r3
 2518 0e7a 009B     		ldr	r3, [sp]
 2519 0e7c 9A70     		strb	r2, [r3, #2]
 2520              		.loc 1 995 0
 2521 0e7e 9DF80F30 		ldrb	r3, [sp, #15]	@ zero_extendqisi2
 2522 0e82 DB09     		lsrs	r3, r3, #7
 2523 0e84 DAB2     		uxtb	r2, r3
 2524 0e86 009B     		ldr	r3, [sp]
 2525 0e88 DA70     		strb	r2, [r3, #3]
 2526              		.loc 1 997 0
 2527 0e8a 0023     		movs	r3, #0
 2528              	.L185:
 2529              		.loc 1 998 0
 2530 0e8c 1846     		mov	r0, r3
 2531 0e8e 05B0     		add	sp, sp, #20
 2532              		@ sp needed
 2533 0e90 5DF804FB 		ldr	pc, [sp], #4
 2534              		.cfi_endproc
 2535              	.LFE39:
 2536              		.size	LPS22HB_Get_InterruptDifferentialEventStatus, .-LPS22HB_Get_InterruptDifferentialEventStatus
 2537              		.align	2
 2538 0e94 AFF30080 		.p2align 4,,15
 2538      AFF30080 
 2538      AFF30080 
ARM GAS  /tmp/ccBklucm.s 			page 46


 2539              		.global	LPS22HB_Get_DataStatus
 2540              		.thumb
 2541              		.thumb_func
 2542              		.type	LPS22HB_Get_DataStatus, %function
 2543              	LPS22HB_Get_DataStatus:
 2544              	.LFB40:
 2545              		.loc 1 1007 0
 2546              		.cfi_startproc
 2547              		@ args = 0, pretend = 0, frame = 16
 2548              		@ frame_needed = 0, uses_anonymous_args = 0
 2549 0ea0 00B5     		push	{lr}
 2550              		.cfi_def_cfa_offset 4
 2551              		.cfi_offset 14, -4
 2552 0ea2 85B0     		sub	sp, sp, #20
 2553              		.cfi_def_cfa_offset 24
 2554 0ea4 0190     		str	r0, [sp, #4]
 2555 0ea6 0091     		str	r1, [sp]
 2556              		.loc 1 1010 0
 2557 0ea8 0DF10F03 		add	r3, sp, #15
 2558 0eac 0198     		ldr	r0, [sp, #4]
 2559 0eae 2721     		movs	r1, #39
 2560 0eb0 0122     		movs	r2, #1
 2561 0eb2 FFF7FEFF 		bl	LPS22HB_ReadReg
 2562 0eb6 0346     		mov	r3, r0
 2563 0eb8 002B     		cmp	r3, #0
 2564 0eba 01D0     		beq	.L187
 2565              		.loc 1 1011 0
 2566 0ebc 0123     		movs	r3, #1
 2567 0ebe 1EE0     		b	.L189
 2568              	.L187:
 2569              		.loc 1 1013 0
 2570 0ec0 9DF80F30 		ldrb	r3, [sp, #15]	@ zero_extendqisi2
 2571 0ec4 03F00103 		and	r3, r3, #1
 2572 0ec8 DAB2     		uxtb	r2, r3
 2573 0eca 009B     		ldr	r3, [sp]
 2574 0ecc 5A70     		strb	r2, [r3, #1]
 2575              		.loc 1 1014 0
 2576 0ece 9DF80F30 		ldrb	r3, [sp, #15]	@ zero_extendqisi2
 2577 0ed2 03F00203 		and	r3, r3, #2
 2578 0ed6 DAB2     		uxtb	r2, r3
 2579 0ed8 009B     		ldr	r3, [sp]
 2580 0eda 1A70     		strb	r2, [r3]
 2581              		.loc 1 1015 0
 2582 0edc 9DF80F30 		ldrb	r3, [sp, #15]	@ zero_extendqisi2
 2583 0ee0 03F02003 		and	r3, r3, #32
 2584 0ee4 5B11     		asrs	r3, r3, #5
 2585 0ee6 DAB2     		uxtb	r2, r3
 2586 0ee8 009B     		ldr	r3, [sp]
 2587 0eea 9A70     		strb	r2, [r3, #2]
 2588              		.loc 1 1016 0
 2589 0eec 9DF80F30 		ldrb	r3, [sp, #15]	@ zero_extendqisi2
 2590 0ef0 03F01003 		and	r3, r3, #16
 2591 0ef4 1B11     		asrs	r3, r3, #4
 2592 0ef6 DAB2     		uxtb	r2, r3
 2593 0ef8 009B     		ldr	r3, [sp]
 2594 0efa DA70     		strb	r2, [r3, #3]
 2595              		.loc 1 1018 0
ARM GAS  /tmp/ccBklucm.s 			page 47


 2596 0efc 0023     		movs	r3, #0
 2597              	.L189:
 2598              		.loc 1 1019 0
 2599 0efe 1846     		mov	r0, r3
 2600 0f00 05B0     		add	sp, sp, #20
 2601              		@ sp needed
 2602 0f02 5DF804FB 		ldr	pc, [sp], #4
 2603              		.cfi_endproc
 2604              	.LFE40:
 2605              		.size	LPS22HB_Get_DataStatus, .-LPS22HB_Get_DataStatus
 2606 0f06 00BF     		.align	2
 2607 0f08 AFF30080 		.p2align 4,,15
 2607      AFF30080 
 2608              		.global	LPS22HB_Get_RawPressure
 2609              		.thumb
 2610              		.thumb_func
 2611              		.type	LPS22HB_Get_RawPressure, %function
 2612              	LPS22HB_Get_RawPressure:
 2613              	.LFB41:
 2614              		.loc 1 1032 0
 2615              		.cfi_startproc
 2616              		@ args = 0, pretend = 0, frame = 16
 2617              		@ frame_needed = 0, uses_anonymous_args = 0
 2618 0f10 00B5     		push	{lr}
 2619              		.cfi_def_cfa_offset 4
 2620              		.cfi_offset 14, -4
 2621 0f12 85B0     		sub	sp, sp, #20
 2622              		.cfi_def_cfa_offset 24
 2623 0f14 0190     		str	r0, [sp, #4]
 2624 0f16 0091     		str	r1, [sp]
 2625              		.loc 1 1034 0
 2626 0f18 0023     		movs	r3, #0
 2627 0f1a 0393     		str	r3, [sp, #12]
 2628              		.loc 1 1037 0
 2629 0f1c 02AB     		add	r3, sp, #8
 2630 0f1e 0198     		ldr	r0, [sp, #4]
 2631 0f20 2821     		movs	r1, #40
 2632 0f22 0322     		movs	r2, #3
 2633 0f24 FFF7FEFF 		bl	LPS22HB_ReadReg
 2634 0f28 0346     		mov	r3, r0
 2635 0f2a 002B     		cmp	r3, #0
 2636 0f2c 01D0     		beq	.L191
 2637              		.loc 1 1038 0
 2638 0f2e 0123     		movs	r3, #1
 2639 0f30 28E0     		b	.L196
 2640              	.L191:
 2641              		.loc 1 1041 0
 2642 0f32 0023     		movs	r3, #0
 2643 0f34 8DF80B30 		strb	r3, [sp, #11]
 2644 0f38 13E0     		b	.L193
 2645              	.L194:
 2646              		.loc 1 1042 0 discriminator 2
 2647 0f3a 9DF80B30 		ldrb	r3, [sp, #11]	@ zero_extendqisi2
 2648 0f3e 04AA     		add	r2, sp, #16
 2649 0f40 1344     		add	r3, r3, r2
 2650 0f42 13F8083C 		ldrb	r3, [r3, #-8]	@ zero_extendqisi2
 2651 0f46 1A46     		mov	r2, r3
ARM GAS  /tmp/ccBklucm.s 			page 48


 2652 0f48 9DF80B30 		ldrb	r3, [sp, #11]	@ zero_extendqisi2
 2653 0f4c DB00     		lsls	r3, r3, #3
 2654 0f4e 02FA03F3 		lsl	r3, r2, r3
 2655 0f52 039A     		ldr	r2, [sp, #12]
 2656 0f54 1343     		orrs	r3, r3, r2
 2657 0f56 0393     		str	r3, [sp, #12]
 2658              		.loc 1 1041 0 discriminator 2
 2659 0f58 9DF80B30 		ldrb	r3, [sp, #11]	@ zero_extendqisi2
 2660 0f5c 0133     		adds	r3, r3, #1
 2661 0f5e 8DF80B30 		strb	r3, [sp, #11]
 2662              	.L193:
 2663              		.loc 1 1041 0 is_stmt 0 discriminator 1
 2664 0f62 9DF80B30 		ldrb	r3, [sp, #11]	@ zero_extendqisi2
 2665 0f66 022B     		cmp	r3, #2
 2666 0f68 E7D9     		bls	.L194
 2667              		.loc 1 1045 0 is_stmt 1
 2668 0f6a 039B     		ldr	r3, [sp, #12]
 2669 0f6c 03F40003 		and	r3, r3, #8388608
 2670 0f70 002B     		cmp	r3, #0
 2671 0f72 03D0     		beq	.L195
 2672              		.loc 1 1046 0
 2673 0f74 039B     		ldr	r3, [sp, #12]
 2674 0f76 43F07F43 		orr	r3, r3, #-16777216
 2675 0f7a 0393     		str	r3, [sp, #12]
 2676              	.L195:
 2677              		.loc 1 1048 0
 2678 0f7c 039A     		ldr	r2, [sp, #12]
 2679 0f7e 009B     		ldr	r3, [sp]
 2680 0f80 1A60     		str	r2, [r3]
 2681              		.loc 1 1050 0
 2682 0f82 0023     		movs	r3, #0
 2683              	.L196:
 2684              		.loc 1 1051 0
 2685 0f84 1846     		mov	r0, r3
 2686 0f86 05B0     		add	sp, sp, #20
 2687              		@ sp needed
 2688 0f88 5DF804FB 		ldr	pc, [sp], #4
 2689              		.cfi_endproc
 2690              	.LFE41:
 2691              		.size	LPS22HB_Get_RawPressure, .-LPS22HB_Get_RawPressure
 2692              		.align	2
 2693 0f8c AFF30080 		.p2align 4,,15
 2694              		.global	LPS22HB_Get_Pressure
 2695              		.thumb
 2696              		.thumb_func
 2697              		.type	LPS22HB_Get_Pressure, %function
 2698              	LPS22HB_Get_Pressure:
 2699              	.LFB42:
 2700              		.loc 1 1062 0
 2701              		.cfi_startproc
 2702              		@ args = 0, pretend = 0, frame = 16
 2703              		@ frame_needed = 0, uses_anonymous_args = 0
 2704 0f90 00B5     		push	{lr}
 2705              		.cfi_def_cfa_offset 4
 2706              		.cfi_offset 14, -4
 2707 0f92 85B0     		sub	sp, sp, #20
 2708              		.cfi_def_cfa_offset 24
ARM GAS  /tmp/ccBklucm.s 			page 49


 2709 0f94 0190     		str	r0, [sp, #4]
 2710 0f96 0091     		str	r1, [sp]
 2711              		.loc 1 1065 0
 2712 0f98 03AB     		add	r3, sp, #12
 2713 0f9a 0198     		ldr	r0, [sp, #4]
 2714 0f9c 1946     		mov	r1, r3
 2715 0f9e FFF7FEFF 		bl	LPS22HB_Get_RawPressure
 2716 0fa2 0346     		mov	r3, r0
 2717 0fa4 002B     		cmp	r3, #0
 2718 0fa6 01D0     		beq	.L198
 2719              		.loc 1 1066 0
 2720 0fa8 0123     		movs	r3, #1
 2721 0faa 0CE0     		b	.L201
 2722              	.L198:
 2723              		.loc 1 1068 0
 2724 0fac 039B     		ldr	r3, [sp, #12]
 2725 0fae 6422     		movs	r2, #100
 2726 0fb0 02FB03F3 		mul	r3, r2, r3
 2727 0fb4 002B     		cmp	r3, #0
 2728 0fb6 01DA     		bge	.L200
 2729 0fb8 03F6FF73 		addw	r3, r3, #4095
 2730              	.L200:
 2731 0fbc 1B13     		asrs	r3, r3, #12
 2732 0fbe 1A46     		mov	r2, r3
 2733 0fc0 009B     		ldr	r3, [sp]
 2734 0fc2 1A60     		str	r2, [r3]
 2735              		.loc 1 1070 0
 2736 0fc4 0023     		movs	r3, #0
 2737              	.L201:
 2738              		.loc 1 1071 0
 2739 0fc6 1846     		mov	r0, r3
 2740 0fc8 05B0     		add	sp, sp, #20
 2741              		@ sp needed
 2742 0fca 5DF804FB 		ldr	pc, [sp], #4
 2743              		.cfi_endproc
 2744              	.LFE42:
 2745              		.size	LPS22HB_Get_Pressure, .-LPS22HB_Get_Pressure
 2746 0fce 00BF     		.align	2
 2747              		.p2align 4,,15
 2748              		.global	LPS22HB_Get_RawTemperature
 2749              		.thumb
 2750              		.thumb_func
 2751              		.type	LPS22HB_Get_RawTemperature, %function
 2752              	LPS22HB_Get_RawTemperature:
 2753              	.LFB43:
 2754              		.loc 1 1082 0
 2755              		.cfi_startproc
 2756              		@ args = 0, pretend = 0, frame = 16
 2757              		@ frame_needed = 0, uses_anonymous_args = 0
 2758 0fd0 00B5     		push	{lr}
 2759              		.cfi_def_cfa_offset 4
 2760              		.cfi_offset 14, -4
 2761 0fd2 85B0     		sub	sp, sp, #20
 2762              		.cfi_def_cfa_offset 24
 2763 0fd4 0190     		str	r0, [sp, #4]
 2764 0fd6 0091     		str	r1, [sp]
 2765              		.loc 1 1086 0
ARM GAS  /tmp/ccBklucm.s 			page 50


 2766 0fd8 03AB     		add	r3, sp, #12
 2767 0fda 0198     		ldr	r0, [sp, #4]
 2768 0fdc 2B21     		movs	r1, #43
 2769 0fde 0222     		movs	r2, #2
 2770 0fe0 FFF7FEFF 		bl	LPS22HB_ReadReg
 2771 0fe4 0346     		mov	r3, r0
 2772 0fe6 002B     		cmp	r3, #0
 2773 0fe8 01D0     		beq	.L203
 2774              		.loc 1 1087 0
 2775 0fea 0123     		movs	r3, #1
 2776 0fec 0DE0     		b	.L205
 2777              	.L203:
 2778              		.loc 1 1090 0
 2779 0fee 9DF80D30 		ldrb	r3, [sp, #13]	@ zero_extendqisi2
 2780 0ff2 1B02     		lsls	r3, r3, #8
 2781 0ff4 9AB2     		uxth	r2, r3
 2782 0ff6 9DF80C30 		ldrb	r3, [sp, #12]	@ zero_extendqisi2
 2783 0ffa 1344     		add	r3, r3, r2
 2784 0ffc ADF80E30 		strh	r3, [sp, #14]	@ movhi
 2785              		.loc 1 1092 0
 2786 1000 BDF80E20 		ldrh	r2, [sp, #14]
 2787 1004 009B     		ldr	r3, [sp]
 2788 1006 1A80     		strh	r2, [r3]	@ movhi
 2789              		.loc 1 1094 0
 2790 1008 0023     		movs	r3, #0
 2791              	.L205:
 2792              		.loc 1 1095 0
 2793 100a 1846     		mov	r0, r3
 2794 100c 05B0     		add	sp, sp, #20
 2795              		@ sp needed
 2796 100e 5DF804FB 		ldr	pc, [sp], #4
 2797              		.cfi_endproc
 2798              	.LFE43:
 2799              		.size	LPS22HB_Get_RawTemperature, .-LPS22HB_Get_RawTemperature
 2800 1012 00BF     		.align	2
 2801 1014 AFF30080 		.p2align 4,,15
 2801      AFF30080 
 2801      AFF30080 
 2802              		.global	LPS22HB_Get_Temperature
 2803              		.thumb
 2804              		.thumb_func
 2805              		.type	LPS22HB_Get_Temperature, %function
 2806              	LPS22HB_Get_Temperature:
 2807              	.LFB44:
 2808              		.loc 1 1107 0
 2809              		.cfi_startproc
 2810              		@ args = 0, pretend = 0, frame = 16
 2811              		@ frame_needed = 0, uses_anonymous_args = 0
 2812 1020 00B5     		push	{lr}
 2813              		.cfi_def_cfa_offset 4
 2814              		.cfi_offset 14, -4
 2815 1022 85B0     		sub	sp, sp, #20
 2816              		.cfi_def_cfa_offset 24
 2817 1024 0190     		str	r0, [sp, #4]
 2818 1026 0091     		str	r1, [sp]
 2819              		.loc 1 1110 0
 2820 1028 0DF10E03 		add	r3, sp, #14
ARM GAS  /tmp/ccBklucm.s 			page 51


 2821 102c 0198     		ldr	r0, [sp, #4]
 2822 102e 1946     		mov	r1, r3
 2823 1030 FFF7FEFF 		bl	LPS22HB_Get_RawTemperature
 2824 1034 0346     		mov	r3, r0
 2825 1036 002B     		cmp	r3, #0
 2826 1038 01D0     		beq	.L207
 2827              		.loc 1 1111 0
 2828 103a 0123     		movs	r3, #1
 2829 103c 10E0     		b	.L209
 2830              	.L207:
 2831              		.loc 1 1113 0
 2832 103e BDF80E30 		ldrh	r3, [sp, #14]
 2833 1042 1AB2     		sxth	r2, r3
 2834 1044 1346     		mov	r3, r2
 2835 1046 9B00     		lsls	r3, r3, #2
 2836 1048 1344     		add	r3, r3, r2
 2837 104a 5B00     		lsls	r3, r3, #1
 2838 104c 064A     		ldr	r2, .L210
 2839 104e 82FB0312 		smull	r1, r2, r2, r3
 2840 1052 5211     		asrs	r2, r2, #5
 2841 1054 DB17     		asrs	r3, r3, #31
 2842 1056 D31A     		subs	r3, r2, r3
 2843 1058 9AB2     		uxth	r2, r3
 2844 105a 009B     		ldr	r3, [sp]
 2845 105c 1A80     		strh	r2, [r3]	@ movhi
 2846              		.loc 1 1115 0
 2847 105e 0023     		movs	r3, #0
 2848              	.L209:
 2849              		.loc 1 1116 0
 2850 1060 1846     		mov	r0, r3
 2851 1062 05B0     		add	sp, sp, #20
 2852              		@ sp needed
 2853 1064 5DF804FB 		ldr	pc, [sp], #4
 2854              	.L211:
 2855              		.align	2
 2856              	.L210:
 2857 1068 1F85EB51 		.word	1374389535
 2858              		.cfi_endproc
 2859              	.LFE44:
 2860              		.size	LPS22HB_Get_Temperature, .-LPS22HB_Get_Temperature
 2861              		.align	2
 2862 106c AFF30080 		.p2align 4,,15
 2863              		.global	LPS22HB_Get_PressureThreshold
 2864              		.thumb
 2865              		.thumb_func
 2866              		.type	LPS22HB_Get_PressureThreshold, %function
 2867              	LPS22HB_Get_PressureThreshold:
 2868              	.LFB45:
 2869              		.loc 1 1126 0
 2870              		.cfi_startproc
 2871              		@ args = 0, pretend = 0, frame = 16
 2872              		@ frame_needed = 0, uses_anonymous_args = 0
 2873 1070 00B5     		push	{lr}
 2874              		.cfi_def_cfa_offset 4
 2875              		.cfi_offset 14, -4
 2876 1072 85B0     		sub	sp, sp, #20
 2877              		.cfi_def_cfa_offset 24
ARM GAS  /tmp/ccBklucm.s 			page 52


 2878 1074 0190     		str	r0, [sp, #4]
 2879 1076 0091     		str	r1, [sp]
 2880              		.loc 1 1129 0
 2881 1078 03AB     		add	r3, sp, #12
 2882 107a 0198     		ldr	r0, [sp, #4]
 2883 107c 0C21     		movs	r1, #12
 2884 107e 0222     		movs	r2, #2
 2885 1080 FFF7FEFF 		bl	LPS22HB_ReadReg
 2886 1084 0346     		mov	r3, r0
 2887 1086 002B     		cmp	r3, #0
 2888 1088 01D0     		beq	.L213
 2889              		.loc 1 1130 0
 2890 108a 0123     		movs	r3, #1
 2891 108c 0DE0     		b	.L216
 2892              	.L213:
 2893              		.loc 1 1132 0
 2894 108e 9DF80D30 		ldrb	r3, [sp, #13]	@ zero_extendqisi2
 2895 1092 1A02     		lsls	r2, r3, #8
 2896 1094 9DF80C30 		ldrb	r3, [sp, #12]	@ zero_extendqisi2
 2897 1098 1344     		add	r3, r3, r2
 2898 109a 002B     		cmp	r3, #0
 2899 109c 00DA     		bge	.L215
 2900 109e 0F33     		adds	r3, r3, #15
 2901              	.L215:
 2902 10a0 1B11     		asrs	r3, r3, #4
 2903 10a2 9AB2     		uxth	r2, r3
 2904 10a4 009B     		ldr	r3, [sp]
 2905 10a6 1A80     		strh	r2, [r3]	@ movhi
 2906              		.loc 1 1134 0
 2907 10a8 0023     		movs	r3, #0
 2908              	.L216:
 2909              		.loc 1 1135 0
 2910 10aa 1846     		mov	r0, r3
 2911 10ac 05B0     		add	sp, sp, #20
 2912              		@ sp needed
 2913 10ae 5DF804FB 		ldr	pc, [sp], #4
 2914              		.cfi_endproc
 2915              	.LFE45:
 2916              		.size	LPS22HB_Get_PressureThreshold, .-LPS22HB_Get_PressureThreshold
 2917 10b2 00BF     		.align	2
 2918 10b4 AFF30080 		.p2align 4,,15
 2918      AFF30080 
 2918      AFF30080 
 2919              		.global	LPS22HB_Set_PressureThreshold
 2920              		.thumb
 2921              		.thumb_func
 2922              		.type	LPS22HB_Set_PressureThreshold, %function
 2923              	LPS22HB_Set_PressureThreshold:
 2924              	.LFB46:
 2925              		.loc 1 1145 0
 2926              		.cfi_startproc
 2927              		@ args = 0, pretend = 0, frame = 16
 2928              		@ frame_needed = 0, uses_anonymous_args = 0
 2929 10c0 00B5     		push	{lr}
 2930              		.cfi_def_cfa_offset 4
 2931              		.cfi_offset 14, -4
 2932 10c2 85B0     		sub	sp, sp, #20
ARM GAS  /tmp/ccBklucm.s 			page 53


 2933              		.cfi_def_cfa_offset 24
 2934 10c4 0190     		str	r0, [sp, #4]
 2935 10c6 0B46     		mov	r3, r1
 2936 10c8 ADF80230 		strh	r3, [sp, #2]	@ movhi
 2937              		.loc 1 1148 0
 2938 10cc BDF80230 		ldrh	r3, [sp, #2]	@ movhi
 2939 10d0 DBB2     		uxtb	r3, r3
 2940 10d2 1B01     		lsls	r3, r3, #4
 2941 10d4 DBB2     		uxtb	r3, r3
 2942 10d6 8DF80C30 		strb	r3, [sp, #12]
 2943              		.loc 1 1149 0
 2944 10da BDF80230 		ldrh	r3, [sp, #2]
 2945 10de 1B01     		lsls	r3, r3, #4
 2946 10e0 9BB2     		uxth	r3, r3
 2947 10e2 1B0A     		lsrs	r3, r3, #8
 2948 10e4 9BB2     		uxth	r3, r3
 2949 10e6 DBB2     		uxtb	r3, r3
 2950 10e8 8DF80D30 		strb	r3, [sp, #13]
 2951              		.loc 1 1151 0
 2952 10ec 03AB     		add	r3, sp, #12
 2953 10ee 0198     		ldr	r0, [sp, #4]
 2954 10f0 0C21     		movs	r1, #12
 2955 10f2 0222     		movs	r2, #2
 2956 10f4 FFF7FEFF 		bl	LPS22HB_WriteReg
 2957 10f8 0346     		mov	r3, r0
 2958 10fa 002B     		cmp	r3, #0
 2959 10fc 01D0     		beq	.L218
 2960              		.loc 1 1152 0
 2961 10fe 0123     		movs	r3, #1
 2962 1100 00E0     		b	.L220
 2963              	.L218:
 2964              		.loc 1 1154 0
 2965 1102 0023     		movs	r3, #0
 2966              	.L220:
 2967              		.loc 1 1155 0
 2968 1104 1846     		mov	r0, r3
 2969 1106 05B0     		add	sp, sp, #20
 2970              		@ sp needed
 2971 1108 5DF804FB 		ldr	pc, [sp], #4
 2972              		.cfi_endproc
 2973              	.LFE46:
 2974              		.size	LPS22HB_Set_PressureThreshold, .-LPS22HB_Set_PressureThreshold
 2975              		.align	2
 2976 110c AFF30080 		.p2align 4,,15
 2977              		.global	LPS22HB_Set_FifoMode
 2978              		.thumb
 2979              		.thumb_func
 2980              		.type	LPS22HB_Set_FifoMode, %function
 2981              	LPS22HB_Set_FifoMode:
 2982              	.LFB47:
 2983              		.loc 1 1164 0
 2984              		.cfi_startproc
 2985              		@ args = 0, pretend = 0, frame = 16
 2986              		@ frame_needed = 0, uses_anonymous_args = 0
 2987 1110 00B5     		push	{lr}
 2988              		.cfi_def_cfa_offset 4
 2989              		.cfi_offset 14, -4
ARM GAS  /tmp/ccBklucm.s 			page 54


 2990 1112 85B0     		sub	sp, sp, #20
 2991              		.cfi_def_cfa_offset 24
 2992 1114 0190     		str	r0, [sp, #4]
 2993 1116 0B46     		mov	r3, r1
 2994 1118 8DF80330 		strb	r3, [sp, #3]
 2995              		.loc 1 1169 0
 2996 111c 0DF10F03 		add	r3, sp, #15
 2997 1120 0198     		ldr	r0, [sp, #4]
 2998 1122 1421     		movs	r1, #20
 2999 1124 0122     		movs	r2, #1
 3000 1126 FFF7FEFF 		bl	LPS22HB_ReadReg
 3001 112a 0346     		mov	r3, r0
 3002 112c 002B     		cmp	r3, #0
 3003 112e 01D0     		beq	.L222
 3004              		.loc 1 1170 0
 3005 1130 0123     		movs	r3, #1
 3006 1132 1BE0     		b	.L225
 3007              	.L222:
 3008              		.loc 1 1172 0
 3009 1134 9DF80F30 		ldrb	r3, [sp, #15]	@ zero_extendqisi2
 3010 1138 03F01F03 		and	r3, r3, #31
 3011 113c DBB2     		uxtb	r3, r3
 3012 113e 8DF80F30 		strb	r3, [sp, #15]
 3013              		.loc 1 1173 0
 3014 1142 9DF80F20 		ldrb	r2, [sp, #15]	@ zero_extendqisi2
 3015 1146 9DF80330 		ldrb	r3, [sp, #3]
 3016 114a 1343     		orrs	r3, r3, r2
 3017 114c DBB2     		uxtb	r3, r3
 3018 114e 8DF80F30 		strb	r3, [sp, #15]
 3019              		.loc 1 1175 0
 3020 1152 0DF10F03 		add	r3, sp, #15
 3021 1156 0198     		ldr	r0, [sp, #4]
 3022 1158 1421     		movs	r1, #20
 3023 115a 0122     		movs	r2, #1
 3024 115c FFF7FEFF 		bl	LPS22HB_WriteReg
 3025 1160 0346     		mov	r3, r0
 3026 1162 002B     		cmp	r3, #0
 3027 1164 01D0     		beq	.L224
 3028              		.loc 1 1176 0
 3029 1166 0123     		movs	r3, #1
 3030 1168 00E0     		b	.L225
 3031              	.L224:
 3032              		.loc 1 1178 0
 3033 116a 0023     		movs	r3, #0
 3034              	.L225:
 3035              		.loc 1 1179 0
 3036 116c 1846     		mov	r0, r3
 3037 116e 05B0     		add	sp, sp, #20
 3038              		@ sp needed
 3039 1170 5DF804FB 		ldr	pc, [sp], #4
 3040              		.cfi_endproc
 3041              	.LFE47:
 3042              		.size	LPS22HB_Set_FifoMode, .-LPS22HB_Set_FifoMode
 3043              		.align	2
 3044 1174 AFF30080 		.p2align 4,,15
 3044      AFF30080 
 3044      AFF30080 
ARM GAS  /tmp/ccBklucm.s 			page 55


 3045              		.global	LPS22HB_Get_FifoMode
 3046              		.thumb
 3047              		.thumb_func
 3048              		.type	LPS22HB_Get_FifoMode, %function
 3049              	LPS22HB_Get_FifoMode:
 3050              	.LFB48:
 3051              		.loc 1 1188 0
 3052              		.cfi_startproc
 3053              		@ args = 0, pretend = 0, frame = 16
 3054              		@ frame_needed = 0, uses_anonymous_args = 0
 3055 1180 00B5     		push	{lr}
 3056              		.cfi_def_cfa_offset 4
 3057              		.cfi_offset 14, -4
 3058 1182 85B0     		sub	sp, sp, #20
 3059              		.cfi_def_cfa_offset 24
 3060 1184 0190     		str	r0, [sp, #4]
 3061 1186 0091     		str	r1, [sp]
 3062              		.loc 1 1191 0
 3063 1188 0DF10F03 		add	r3, sp, #15
 3064 118c 0198     		ldr	r0, [sp, #4]
 3065 118e 1421     		movs	r1, #20
 3066 1190 0122     		movs	r2, #1
 3067 1192 FFF7FEFF 		bl	LPS22HB_ReadReg
 3068 1196 0346     		mov	r3, r0
 3069 1198 002B     		cmp	r3, #0
 3070 119a 01D0     		beq	.L227
 3071              		.loc 1 1192 0
 3072 119c 0123     		movs	r3, #1
 3073 119e 0BE0     		b	.L229
 3074              	.L227:
 3075              		.loc 1 1194 0
 3076 11a0 9DF80F30 		ldrb	r3, [sp, #15]	@ zero_extendqisi2
 3077 11a4 23F01F03 		bic	r3, r3, #31
 3078 11a8 DBB2     		uxtb	r3, r3
 3079 11aa 8DF80F30 		strb	r3, [sp, #15]
 3080              		.loc 1 1195 0
 3081 11ae 9DF80F20 		ldrb	r2, [sp, #15]	@ zero_extendqisi2
 3082 11b2 009B     		ldr	r3, [sp]
 3083 11b4 1A70     		strb	r2, [r3]
 3084              		.loc 1 1197 0
 3085 11b6 0023     		movs	r3, #0
 3086              	.L229:
 3087              		.loc 1 1198 0
 3088 11b8 1846     		mov	r0, r3
 3089 11ba 05B0     		add	sp, sp, #20
 3090              		@ sp needed
 3091 11bc 5DF804FB 		ldr	pc, [sp], #4
 3092              		.cfi_endproc
 3093              	.LFE48:
 3094              		.size	LPS22HB_Get_FifoMode, .-LPS22HB_Get_FifoMode
 3095              		.align	2
 3096              		.p2align 4,,15
 3097              		.global	LPS22HB_Set_FifoWatermarkLevel
 3098              		.thumb
 3099              		.thumb_func
 3100              		.type	LPS22HB_Set_FifoWatermarkLevel, %function
 3101              	LPS22HB_Set_FifoWatermarkLevel:
ARM GAS  /tmp/ccBklucm.s 			page 56


 3102              	.LFB49:
 3103              		.loc 1 1207 0
 3104              		.cfi_startproc
 3105              		@ args = 0, pretend = 0, frame = 16
 3106              		@ frame_needed = 0, uses_anonymous_args = 0
 3107 11c0 00B5     		push	{lr}
 3108              		.cfi_def_cfa_offset 4
 3109              		.cfi_offset 14, -4
 3110 11c2 85B0     		sub	sp, sp, #20
 3111              		.cfi_def_cfa_offset 24
 3112 11c4 0190     		str	r0, [sp, #4]
 3113 11c6 0B46     		mov	r3, r1
 3114 11c8 8DF80330 		strb	r3, [sp, #3]
 3115              		.loc 1 1212 0
 3116 11cc 0DF10F03 		add	r3, sp, #15
 3117 11d0 0198     		ldr	r0, [sp, #4]
 3118 11d2 1421     		movs	r1, #20
 3119 11d4 0122     		movs	r2, #1
 3120 11d6 FFF7FEFF 		bl	LPS22HB_ReadReg
 3121 11da 0346     		mov	r3, r0
 3122 11dc 002B     		cmp	r3, #0
 3123 11de 01D0     		beq	.L231
 3124              		.loc 1 1213 0
 3125 11e0 0123     		movs	r3, #1
 3126 11e2 1BE0     		b	.L234
 3127              	.L231:
 3128              		.loc 1 1215 0
 3129 11e4 9DF80F30 		ldrb	r3, [sp, #15]	@ zero_extendqisi2
 3130 11e8 23F01F03 		bic	r3, r3, #31
 3131 11ec DBB2     		uxtb	r3, r3
 3132 11ee 8DF80F30 		strb	r3, [sp, #15]
 3133              		.loc 1 1216 0
 3134 11f2 9DF80F20 		ldrb	r2, [sp, #15]	@ zero_extendqisi2
 3135 11f6 9DF80330 		ldrb	r3, [sp, #3]
 3136 11fa 1343     		orrs	r3, r3, r2
 3137 11fc DBB2     		uxtb	r3, r3
 3138 11fe 8DF80F30 		strb	r3, [sp, #15]
 3139              		.loc 1 1218 0
 3140 1202 0DF10F03 		add	r3, sp, #15
 3141 1206 0198     		ldr	r0, [sp, #4]
 3142 1208 1421     		movs	r1, #20
 3143 120a 0122     		movs	r2, #1
 3144 120c FFF7FEFF 		bl	LPS22HB_WriteReg
 3145 1210 0346     		mov	r3, r0
 3146 1212 002B     		cmp	r3, #0
 3147 1214 01D0     		beq	.L233
 3148              		.loc 1 1219 0
 3149 1216 0123     		movs	r3, #1
 3150 1218 00E0     		b	.L234
 3151              	.L233:
 3152              		.loc 1 1221 0
 3153 121a 0023     		movs	r3, #0
 3154              	.L234:
 3155              		.loc 1 1222 0
 3156 121c 1846     		mov	r0, r3
 3157 121e 05B0     		add	sp, sp, #20
 3158              		@ sp needed
ARM GAS  /tmp/ccBklucm.s 			page 57


 3159 1220 5DF804FB 		ldr	pc, [sp], #4
 3160              		.cfi_endproc
 3161              	.LFE49:
 3162              		.size	LPS22HB_Set_FifoWatermarkLevel, .-LPS22HB_Set_FifoWatermarkLevel
 3163              		.align	2
 3164 1224 AFF30080 		.p2align 4,,15
 3164      AFF30080 
 3164      AFF30080 
 3165              		.global	LPS22HB_Get_FifoWatermarkLevel
 3166              		.thumb
 3167              		.thumb_func
 3168              		.type	LPS22HB_Get_FifoWatermarkLevel, %function
 3169              	LPS22HB_Get_FifoWatermarkLevel:
 3170              	.LFB50:
 3171              		.loc 1 1231 0
 3172              		.cfi_startproc
 3173              		@ args = 0, pretend = 0, frame = 8
 3174              		@ frame_needed = 0, uses_anonymous_args = 0
 3175 1230 00B5     		push	{lr}
 3176              		.cfi_def_cfa_offset 4
 3177              		.cfi_offset 14, -4
 3178 1232 83B0     		sub	sp, sp, #12
 3179              		.cfi_def_cfa_offset 16
 3180 1234 0190     		str	r0, [sp, #4]
 3181 1236 0091     		str	r1, [sp]
 3182              		.loc 1 1232 0
 3183 1238 0198     		ldr	r0, [sp, #4]
 3184 123a 1421     		movs	r1, #20
 3185 123c 0122     		movs	r2, #1
 3186 123e 009B     		ldr	r3, [sp]
 3187 1240 FFF7FEFF 		bl	LPS22HB_ReadReg
 3188 1244 0346     		mov	r3, r0
 3189 1246 002B     		cmp	r3, #0
 3190 1248 01D0     		beq	.L236
 3191              		.loc 1 1233 0
 3192 124a 0123     		movs	r3, #1
 3193 124c 07E0     		b	.L237
 3194              	.L236:
 3195              		.loc 1 1235 0
 3196 124e 009B     		ldr	r3, [sp]
 3197 1250 1B78     		ldrb	r3, [r3]	@ zero_extendqisi2
 3198 1252 03F01F03 		and	r3, r3, #31
 3199 1256 DAB2     		uxtb	r2, r3
 3200 1258 009B     		ldr	r3, [sp]
 3201 125a 1A70     		strb	r2, [r3]
 3202              		.loc 1 1237 0
 3203 125c 0023     		movs	r3, #0
 3204              	.L237:
 3205              		.loc 1 1238 0
 3206 125e 1846     		mov	r0, r3
 3207 1260 03B0     		add	sp, sp, #12
 3208              		@ sp needed
 3209 1262 5DF804FB 		ldr	pc, [sp], #4
 3210              		.cfi_endproc
 3211              	.LFE50:
 3212              		.size	LPS22HB_Get_FifoWatermarkLevel, .-LPS22HB_Get_FifoWatermarkLevel
 3213 1266 00BF     		.align	2
ARM GAS  /tmp/ccBklucm.s 			page 58


 3214 1268 AFF30080 		.p2align 4,,15
 3214      AFF30080 
 3215              		.global	LPS22HB_Get_FifoStatus
 3216              		.thumb
 3217              		.thumb_func
 3218              		.type	LPS22HB_Get_FifoStatus, %function
 3219              	LPS22HB_Get_FifoStatus:
 3220              	.LFB51:
 3221              		.loc 1 1247 0
 3222              		.cfi_startproc
 3223              		@ args = 0, pretend = 0, frame = 16
 3224              		@ frame_needed = 0, uses_anonymous_args = 0
 3225 1270 00B5     		push	{lr}
 3226              		.cfi_def_cfa_offset 4
 3227              		.cfi_offset 14, -4
 3228 1272 85B0     		sub	sp, sp, #20
 3229              		.cfi_def_cfa_offset 24
 3230 1274 0190     		str	r0, [sp, #4]
 3231 1276 0091     		str	r1, [sp]
 3232              		.loc 1 1250 0
 3233 1278 0DF10F03 		add	r3, sp, #15
 3234 127c 0198     		ldr	r0, [sp, #4]
 3235 127e 2621     		movs	r1, #38
 3236 1280 0122     		movs	r2, #1
 3237 1282 FFF7FEFF 		bl	LPS22HB_ReadReg
 3238 1286 0346     		mov	r3, r0
 3239 1288 002B     		cmp	r3, #0
 3240 128a 01D0     		beq	.L239
 3241              		.loc 1 1251 0
 3242 128c 0123     		movs	r3, #1
 3243 128e 2BE0     		b	.L245
 3244              	.L239:
 3245              		.loc 1 1253 0
 3246 1290 9DF80F30 		ldrb	r3, [sp, #15]	@ zero_extendqisi2
 3247 1294 DB09     		lsrs	r3, r3, #7
 3248 1296 DAB2     		uxtb	r2, r3
 3249 1298 009B     		ldr	r3, [sp]
 3250 129a 1A71     		strb	r2, [r3, #4]
 3251              		.loc 1 1254 0
 3252 129c 9DF80F30 		ldrb	r3, [sp, #15]	@ zero_extendqisi2
 3253 12a0 03F04003 		and	r3, r3, #64
 3254 12a4 9B11     		asrs	r3, r3, #6
 3255 12a6 DAB2     		uxtb	r2, r3
 3256 12a8 009B     		ldr	r3, [sp]
 3257 12aa DA70     		strb	r2, [r3, #3]
 3258              		.loc 1 1255 0
 3259 12ac 9DF80F30 		ldrb	r3, [sp, #15]	@ zero_extendqisi2
 3260 12b0 03F03F03 		and	r3, r3, #63
 3261 12b4 DAB2     		uxtb	r2, r3
 3262 12b6 009B     		ldr	r3, [sp]
 3263 12b8 1A70     		strb	r2, [r3]
 3264              		.loc 1 1257 0
 3265 12ba 009B     		ldr	r3, [sp]
 3266 12bc 1B78     		ldrb	r3, [r3]	@ zero_extendqisi2
 3267 12be 002B     		cmp	r3, #0
 3268 12c0 03D1     		bne	.L241
 3269              		.loc 1 1258 0
ARM GAS  /tmp/ccBklucm.s 			page 59


 3270 12c2 009B     		ldr	r3, [sp]
 3271 12c4 0122     		movs	r2, #1
 3272 12c6 5A70     		strb	r2, [r3, #1]
 3273 12c8 02E0     		b	.L242
 3274              	.L241:
 3275              		.loc 1 1260 0
 3276 12ca 009B     		ldr	r3, [sp]
 3277 12cc 0022     		movs	r2, #0
 3278 12ce 5A70     		strb	r2, [r3, #1]
 3279              	.L242:
 3280              		.loc 1 1262 0
 3281 12d0 009B     		ldr	r3, [sp]
 3282 12d2 1B78     		ldrb	r3, [r3]	@ zero_extendqisi2
 3283 12d4 202B     		cmp	r3, #32
 3284 12d6 03D1     		bne	.L243
 3285              		.loc 1 1263 0
 3286 12d8 009B     		ldr	r3, [sp]
 3287 12da 0122     		movs	r2, #1
 3288 12dc 9A70     		strb	r2, [r3, #2]
 3289 12de 02E0     		b	.L244
 3290              	.L243:
 3291              		.loc 1 1265 0
 3292 12e0 009B     		ldr	r3, [sp]
 3293 12e2 0022     		movs	r2, #0
 3294 12e4 9A70     		strb	r2, [r3, #2]
 3295              	.L244:
 3296              		.loc 1 1268 0
 3297 12e6 0023     		movs	r3, #0
 3298              	.L245:
 3299              		.loc 1 1269 0
 3300 12e8 1846     		mov	r0, r3
 3301 12ea 05B0     		add	sp, sp, #20
 3302              		@ sp needed
 3303 12ec 5DF804FB 		ldr	pc, [sp], #4
 3304              		.cfi_endproc
 3305              	.LFE51:
 3306              		.size	LPS22HB_Get_FifoStatus, .-LPS22HB_Get_FifoStatus
 3307              		.align	2
 3308              		.p2align 4,,15
 3309              		.global	LPS22HB_Get_PressureOffsetValue
 3310              		.thumb
 3311              		.thumb_func
 3312              		.type	LPS22HB_Get_PressureOffsetValue, %function
 3313              	LPS22HB_Get_PressureOffsetValue:
 3314              	.LFB52:
 3315              		.loc 1 1278 0
 3316              		.cfi_startproc
 3317              		@ args = 0, pretend = 0, frame = 16
 3318              		@ frame_needed = 0, uses_anonymous_args = 0
 3319 12f0 00B5     		push	{lr}
 3320              		.cfi_def_cfa_offset 4
 3321              		.cfi_offset 14, -4
 3322 12f2 85B0     		sub	sp, sp, #20
 3323              		.cfi_def_cfa_offset 24
 3324 12f4 0190     		str	r0, [sp, #4]
 3325 12f6 0091     		str	r1, [sp]
 3326              		.loc 1 1282 0
ARM GAS  /tmp/ccBklucm.s 			page 60


 3327 12f8 03AB     		add	r3, sp, #12
 3328 12fa 0198     		ldr	r0, [sp, #4]
 3329 12fc 1821     		movs	r1, #24
 3330 12fe 0222     		movs	r2, #2
 3331 1300 FFF7FEFF 		bl	LPS22HB_ReadReg
 3332 1304 0346     		mov	r3, r0
 3333 1306 002B     		cmp	r3, #0
 3334 1308 01D0     		beq	.L247
 3335              		.loc 1 1283 0
 3336 130a 0123     		movs	r3, #1
 3337 130c 17E0     		b	.L250
 3338              	.L247:
 3339              		.loc 1 1285 0
 3340 130e 9DF80D30 		ldrb	r3, [sp, #13]	@ zero_extendqisi2
 3341 1312 1B02     		lsls	r3, r3, #8
 3342 1314 9AB2     		uxth	r2, r3
 3343 1316 9DF80C30 		ldrb	r3, [sp, #12]	@ zero_extendqisi2
 3344 131a 1344     		add	r3, r3, r2
 3345 131c 9BB2     		uxth	r3, r3
 3346 131e ADF80E30 		strh	r3, [sp, #14]	@ movhi
 3347              		.loc 1 1287 0
 3348 1322 BDF90E30 		ldrsh	r3, [sp, #14]
 3349 1326 6422     		movs	r2, #100
 3350 1328 02FB03F3 		mul	r3, r2, r3
 3351 132c 002B     		cmp	r3, #0
 3352 132e 01DA     		bge	.L249
 3353 1330 03F6FF73 		addw	r3, r3, #4095
 3354              	.L249:
 3355 1334 1B13     		asrs	r3, r3, #12
 3356 1336 9AB2     		uxth	r2, r3
 3357 1338 009B     		ldr	r3, [sp]
 3358 133a 1A80     		strh	r2, [r3]	@ movhi
 3359              		.loc 1 1289 0
 3360 133c 0023     		movs	r3, #0
 3361              	.L250:
 3362              		.loc 1 1290 0
 3363 133e 1846     		mov	r0, r3
 3364 1340 05B0     		add	sp, sp, #20
 3365              		@ sp needed
 3366 1342 5DF804FB 		ldr	pc, [sp], #4
 3367              		.cfi_endproc
 3368              	.LFE52:
 3369              		.size	LPS22HB_Get_PressureOffsetValue, .-LPS22HB_Get_PressureOffsetValue
 3370 1346 00BF     		.align	2
 3371 1348 AFF30080 		.p2align 4,,15
 3371      AFF30080 
 3372              		.global	LPS22HB_Get_ReferencePressure
 3373              		.thumb
 3374              		.thumb_func
 3375              		.type	LPS22HB_Get_ReferencePressure, %function
 3376              	LPS22HB_Get_ReferencePressure:
 3377              	.LFB53:
 3378              		.loc 1 1301 0
 3379              		.cfi_startproc
 3380              		@ args = 0, pretend = 0, frame = 24
 3381              		@ frame_needed = 0, uses_anonymous_args = 0
 3382 1350 00B5     		push	{lr}
ARM GAS  /tmp/ccBklucm.s 			page 61


 3383              		.cfi_def_cfa_offset 4
 3384              		.cfi_offset 14, -4
 3385 1352 87B0     		sub	sp, sp, #28
 3386              		.cfi_def_cfa_offset 32
 3387 1354 0190     		str	r0, [sp, #4]
 3388 1356 0091     		str	r1, [sp]
 3389              		.loc 1 1303 0
 3390 1358 0023     		movs	r3, #0
 3391 135a 0593     		str	r3, [sp, #20]
 3392              		.loc 1 1307 0
 3393 135c 02AB     		add	r3, sp, #8
 3394 135e 0198     		ldr	r0, [sp, #4]
 3395 1360 1521     		movs	r1, #21
 3396 1362 0322     		movs	r2, #3
 3397 1364 FFF7FEFF 		bl	LPS22HB_ReadReg
 3398 1368 0346     		mov	r3, r0
 3399 136a 002B     		cmp	r3, #0
 3400 136c 01D0     		beq	.L252
 3401              		.loc 1 1308 0
 3402 136e 0123     		movs	r3, #1
 3403 1370 33E0     		b	.L258
 3404              	.L252:
 3405              		.loc 1 1311 0
 3406 1372 0023     		movs	r3, #0
 3407 1374 8DF81330 		strb	r3, [sp, #19]
 3408 1378 13E0     		b	.L254
 3409              	.L255:
 3410              		.loc 1 1312 0 discriminator 2
 3411 137a 9DF81330 		ldrb	r3, [sp, #19]	@ zero_extendqisi2
 3412 137e 06AA     		add	r2, sp, #24
 3413 1380 1344     		add	r3, r3, r2
 3414 1382 13F8103C 		ldrb	r3, [r3, #-16]	@ zero_extendqisi2
 3415 1386 1A46     		mov	r2, r3
 3416 1388 9DF81330 		ldrb	r3, [sp, #19]	@ zero_extendqisi2
 3417 138c DB00     		lsls	r3, r3, #3
 3418 138e 02FA03F3 		lsl	r3, r2, r3
 3419 1392 059A     		ldr	r2, [sp, #20]
 3420 1394 1343     		orrs	r3, r3, r2
 3421 1396 0593     		str	r3, [sp, #20]
 3422              		.loc 1 1311 0 discriminator 2
 3423 1398 9DF81330 		ldrb	r3, [sp, #19]	@ zero_extendqisi2
 3424 139c 0133     		adds	r3, r3, #1
 3425 139e 8DF81330 		strb	r3, [sp, #19]
 3426              	.L254:
 3427              		.loc 1 1311 0 is_stmt 0 discriminator 1
 3428 13a2 9DF81330 		ldrb	r3, [sp, #19]	@ zero_extendqisi2
 3429 13a6 022B     		cmp	r3, #2
 3430 13a8 E7D9     		bls	.L255
 3431              		.loc 1 1315 0 is_stmt 1
 3432 13aa 059B     		ldr	r3, [sp, #20]
 3433 13ac 03F40003 		and	r3, r3, #8388608
 3434 13b0 002B     		cmp	r3, #0
 3435 13b2 03D0     		beq	.L256
 3436              		.loc 1 1316 0
 3437 13b4 059B     		ldr	r3, [sp, #20]
 3438 13b6 43F07F43 		orr	r3, r3, #-16777216
 3439 13ba 0593     		str	r3, [sp, #20]
ARM GAS  /tmp/ccBklucm.s 			page 62


 3440              	.L256:
 3441              		.loc 1 1318 0
 3442 13bc 059B     		ldr	r3, [sp, #20]
 3443 13be 0393     		str	r3, [sp, #12]
 3444              		.loc 1 1319 0
 3445 13c0 039B     		ldr	r3, [sp, #12]
 3446 13c2 6422     		movs	r2, #100
 3447 13c4 02FB03F3 		mul	r3, r2, r3
 3448 13c8 002B     		cmp	r3, #0
 3449 13ca 01DA     		bge	.L257
 3450 13cc 03F6FF73 		addw	r3, r3, #4095
 3451              	.L257:
 3452 13d0 1B13     		asrs	r3, r3, #12
 3453 13d2 1A46     		mov	r2, r3
 3454 13d4 009B     		ldr	r3, [sp]
 3455 13d6 1A60     		str	r2, [r3]
 3456              		.loc 1 1322 0
 3457 13d8 0023     		movs	r3, #0
 3458              	.L258:
 3459              		.loc 1 1323 0
 3460 13da 1846     		mov	r0, r3
 3461 13dc 07B0     		add	sp, sp, #28
 3462              		@ sp needed
 3463 13de 5DF804FB 		ldr	pc, [sp], #4
 3464              		.cfi_endproc
 3465              	.LFE53:
 3466              		.size	LPS22HB_Get_ReferencePressure, .-LPS22HB_Get_ReferencePressure
 3467 13e2 00BF     		.align	2
 3468 13e4 AFF30080 		.p2align 4,,15
 3468      AFF30080 
 3468      AFF30080 
 3469              		.global	LPS22HB_IsMeasurementCompleted
 3470              		.thumb
 3471              		.thumb_func
 3472              		.type	LPS22HB_IsMeasurementCompleted, %function
 3473              	LPS22HB_IsMeasurementCompleted:
 3474              	.LFB54:
 3475              		.loc 1 1333 0
 3476              		.cfi_startproc
 3477              		@ args = 0, pretend = 0, frame = 16
 3478              		@ frame_needed = 0, uses_anonymous_args = 0
 3479 13f0 00B5     		push	{lr}
 3480              		.cfi_def_cfa_offset 4
 3481              		.cfi_offset 14, -4
 3482 13f2 85B0     		sub	sp, sp, #20
 3483              		.cfi_def_cfa_offset 24
 3484 13f4 0190     		str	r0, [sp, #4]
 3485 13f6 0091     		str	r1, [sp]
 3486              		.loc 1 1337 0
 3487 13f8 0DF10F03 		add	r3, sp, #15
 3488 13fc 0198     		ldr	r0, [sp, #4]
 3489 13fe 2721     		movs	r1, #39
 3490 1400 0122     		movs	r2, #1
 3491 1402 FFF7FEFF 		bl	LPS22HB_ReadReg
 3492 1406 0346     		mov	r3, r0
 3493 1408 002B     		cmp	r3, #0
 3494 140a 01D0     		beq	.L260
ARM GAS  /tmp/ccBklucm.s 			page 63


 3495              		.loc 1 1338 0
 3496 140c 0123     		movs	r3, #1
 3497 140e 17E0     		b	.L262
 3498              	.L260:
 3499              		.loc 1 1340 0
 3500 1410 9DF80F30 		ldrb	r3, [sp, #15]	@ zero_extendqisi2
 3501 1414 03F00203 		and	r3, r3, #2
 3502 1418 5B10     		asrs	r3, r3, #1
 3503 141a DBB2     		uxtb	r3, r3
 3504 141c 8DF80830 		strb	r3, [sp, #8]
 3505              		.loc 1 1341 0
 3506 1420 9DF80F30 		ldrb	r3, [sp, #15]	@ zero_extendqisi2
 3507 1424 03F00103 		and	r3, r3, #1
 3508 1428 DBB2     		uxtb	r3, r3
 3509 142a 8DF80930 		strb	r3, [sp, #9]
 3510              		.loc 1 1343 0
 3511 142e 9DF80920 		ldrb	r2, [sp, #9]	@ zero_extendqisi2
 3512 1432 9DF80830 		ldrb	r3, [sp, #8]	@ zero_extendqisi2
 3513 1436 1340     		ands	r3, r3, r2
 3514 1438 DAB2     		uxtb	r2, r3
 3515 143a 009B     		ldr	r3, [sp]
 3516 143c 1A70     		strb	r2, [r3]
 3517              		.loc 1 1345 0
 3518 143e 0023     		movs	r3, #0
 3519              	.L262:
 3520              		.loc 1 1346 0
 3521 1440 1846     		mov	r0, r3
 3522 1442 05B0     		add	sp, sp, #20
 3523              		@ sp needed
 3524 1444 5DF804FB 		ldr	pc, [sp], #4
 3525              		.cfi_endproc
 3526              	.LFE54:
 3527              		.size	LPS22HB_IsMeasurementCompleted, .-LPS22HB_IsMeasurementCompleted
 3528              		.align	2
 3529 1448 AFF30080 		.p2align 4,,15
 3529      AFF30080 
 3530              		.global	LPS22HB_Get_Measurement
 3531              		.thumb
 3532              		.thumb_func
 3533              		.type	LPS22HB_Get_Measurement, %function
 3534              	LPS22HB_Get_Measurement:
 3535              	.LFB55:
 3536              		.loc 1 1355 0
 3537              		.cfi_startproc
 3538              		@ args = 0, pretend = 0, frame = 16
 3539              		@ frame_needed = 0, uses_anonymous_args = 0
 3540 1450 00B5     		push	{lr}
 3541              		.cfi_def_cfa_offset 4
 3542              		.cfi_offset 14, -4
 3543 1452 85B0     		sub	sp, sp, #20
 3544              		.cfi_def_cfa_offset 24
 3545 1454 0190     		str	r0, [sp, #4]
 3546 1456 0091     		str	r1, [sp]
 3547              		.loc 1 1359 0
 3548 1458 0DF10E03 		add	r3, sp, #14
 3549 145c 0198     		ldr	r0, [sp, #4]
 3550 145e 1946     		mov	r1, r3
ARM GAS  /tmp/ccBklucm.s 			page 64


 3551 1460 FFF7FEFF 		bl	LPS22HB_Get_Temperature
 3552 1464 0346     		mov	r3, r0
 3553 1466 002B     		cmp	r3, #0
 3554 1468 01D0     		beq	.L264
 3555              		.loc 1 1360 0
 3556 146a 0123     		movs	r3, #1
 3557 146c 11E0     		b	.L267
 3558              	.L264:
 3559              		.loc 1 1362 0
 3560 146e BDF80E20 		ldrh	r2, [sp, #14]
 3561 1472 009B     		ldr	r3, [sp]
 3562 1474 1A80     		strh	r2, [r3]	@ movhi
 3563              		.loc 1 1364 0
 3564 1476 02AB     		add	r3, sp, #8
 3565 1478 0198     		ldr	r0, [sp, #4]
 3566 147a 1946     		mov	r1, r3
 3567 147c FFF7FEFF 		bl	LPS22HB_Get_Pressure
 3568 1480 0346     		mov	r3, r0
 3569 1482 002B     		cmp	r3, #0
 3570 1484 01D0     		beq	.L266
 3571              		.loc 1 1365 0
 3572 1486 0123     		movs	r3, #1
 3573 1488 03E0     		b	.L267
 3574              	.L266:
 3575              		.loc 1 1367 0
 3576 148a 029A     		ldr	r2, [sp, #8]
 3577 148c 009B     		ldr	r3, [sp]
 3578 148e 5A60     		str	r2, [r3, #4]
 3579              		.loc 1 1369 0
 3580 1490 0023     		movs	r3, #0
 3581              	.L267:
 3582              		.loc 1 1371 0
 3583 1492 1846     		mov	r0, r3
 3584 1494 05B0     		add	sp, sp, #20
 3585              		@ sp needed
 3586 1496 5DF804FB 		ldr	pc, [sp], #4
 3587              		.cfi_endproc
 3588              	.LFE55:
 3589              		.size	LPS22HB_Get_Measurement, .-LPS22HB_Get_Measurement
 3590 149a 00BF     		.align	2
 3591 149c AFF30080 		.p2align 4,,15
 3592              		.global	LPS22HB_Init
 3593              		.thumb
 3594              		.thumb_func
 3595              		.type	LPS22HB_Init, %function
 3596              	LPS22HB_Init:
 3597              	.LFB56:
 3598              		.loc 1 1383 0
 3599              		.cfi_startproc
 3600              		@ args = 0, pretend = 0, frame = 16
 3601              		@ frame_needed = 0, uses_anonymous_args = 0
 3602 14a0 00B5     		push	{lr}
 3603              		.cfi_def_cfa_offset 4
 3604              		.cfi_offset 14, -4
 3605 14a2 85B0     		sub	sp, sp, #20
 3606              		.cfi_def_cfa_offset 24
 3607 14a4 0190     		str	r0, [sp, #4]
ARM GAS  /tmp/ccBklucm.s 			page 65


 3608              		.loc 1 1387 0
 3609 14a6 0198     		ldr	r0, [sp, #4]
 3610 14a8 FFF7FEFF 		bl	LPS22HB_SwResetAndMemoryBoot
 3611 14ac 0346     		mov	r3, r0
 3612 14ae 002B     		cmp	r3, #0
 3613 14b0 01D0     		beq	.L269
 3614              		.loc 1 1388 0
 3615 14b2 0123     		movs	r3, #1
 3616 14b4 1FE0     		b	.L272
 3617              	.L269:
 3618              		.loc 1 1390 0
 3619 14b6 0123     		movs	r3, #1
 3620 14b8 8DF80830 		strb	r3, [sp, #8]
 3621              		.loc 1 1391 0
 3622 14bc 3023     		movs	r3, #48
 3623 14be 8DF80930 		strb	r3, [sp, #9]
 3624              		.loc 1 1392 0
 3625 14c2 0023     		movs	r3, #0
 3626 14c4 8DF80B30 		strb	r3, [sp, #11]
 3627              		.loc 1 1393 0
 3628 14c8 0023     		movs	r3, #0
 3629 14ca 8DF80C30 		strb	r3, [sp, #12]
 3630              		.loc 1 1394 0
 3631 14ce 0223     		movs	r3, #2
 3632 14d0 8DF80A30 		strb	r3, [sp, #10]
 3633              		.loc 1 1395 0
 3634 14d4 0123     		movs	r3, #1
 3635 14d6 8DF80E30 		strb	r3, [sp, #14]
 3636              		.loc 1 1396 0
 3637 14da 0023     		movs	r3, #0
 3638 14dc 8DF80D30 		strb	r3, [sp, #13]
 3639              		.loc 1 1399 0
 3640 14e0 02AB     		add	r3, sp, #8
 3641 14e2 0198     		ldr	r0, [sp, #4]
 3642 14e4 1946     		mov	r1, r3
 3643 14e6 FFF7FEFF 		bl	LPS22HB_Set_GenericConfig
 3644 14ea 0346     		mov	r3, r0
 3645 14ec 002B     		cmp	r3, #0
 3646 14ee 01D0     		beq	.L271
 3647              		.loc 1 1400 0
 3648 14f0 0123     		movs	r3, #1
 3649 14f2 00E0     		b	.L272
 3650              	.L271:
 3651              		.loc 1 1402 0
 3652 14f4 0023     		movs	r3, #0
 3653              	.L272:
 3654              		.loc 1 1403 0
 3655 14f6 1846     		mov	r0, r3
 3656 14f8 05B0     		add	sp, sp, #20
 3657              		@ sp needed
 3658 14fa 5DF804FB 		ldr	pc, [sp], #4
 3659              		.cfi_endproc
 3660              	.LFE56:
 3661              		.size	LPS22HB_Init, .-LPS22HB_Init
 3662 14fe 00BF     		.align	2
 3663              		.p2align 4,,15
 3664              		.global	LPS22HB_DeInit
ARM GAS  /tmp/ccBklucm.s 			page 66


 3665              		.thumb
 3666              		.thumb_func
 3667              		.type	LPS22HB_DeInit, %function
 3668              	LPS22HB_DeInit:
 3669              	.LFB57:
 3670              		.loc 1 1412 0
 3671              		.cfi_startproc
 3672              		@ args = 0, pretend = 0, frame = 16
 3673              		@ frame_needed = 0, uses_anonymous_args = 0
 3674 1500 00B5     		push	{lr}
 3675              		.cfi_def_cfa_offset 4
 3676              		.cfi_offset 14, -4
 3677 1502 85B0     		sub	sp, sp, #20
 3678              		.cfi_def_cfa_offset 24
 3679 1504 0190     		str	r0, [sp, #4]
 3680              		.loc 1 1416 0
 3681 1506 0198     		ldr	r0, [sp, #4]
 3682 1508 FFF7FEFF 		bl	LPS22HB_SwResetAndMemoryBoot
 3683 150c 0346     		mov	r3, r0
 3684 150e 002B     		cmp	r3, #0
 3685 1510 01D0     		beq	.L274
 3686              		.loc 1 1417 0
 3687 1512 0123     		movs	r3, #1
 3688 1514 0AE0     		b	.L277
 3689              	.L274:
 3690              		.loc 1 1420 0
 3691 1516 02AB     		add	r3, sp, #8
 3692 1518 0198     		ldr	r0, [sp, #4]
 3693 151a 1946     		mov	r1, r3
 3694 151c FFF7FEFF 		bl	LPS22HB_Get_Measurement
 3695 1520 0346     		mov	r3, r0
 3696 1522 002B     		cmp	r3, #0
 3697 1524 01D0     		beq	.L276
 3698              		.loc 1 1421 0
 3699 1526 0123     		movs	r3, #1
 3700 1528 00E0     		b	.L277
 3701              	.L276:
 3702              		.loc 1 1423 0
 3703 152a 0023     		movs	r3, #0
 3704              	.L277:
 3705              		.loc 1 1424 0
 3706 152c 1846     		mov	r0, r3
 3707 152e 05B0     		add	sp, sp, #20
 3708              		@ sp needed
 3709 1530 5DF804FB 		ldr	pc, [sp], #4
 3710              		.cfi_endproc
 3711              	.LFE57:
 3712              		.size	LPS22HB_DeInit, .-LPS22HB_DeInit
 3713              		.align	2
 3714 1534 AFF30080 		.p2align 4,,15
 3714      AFF30080 
 3714      AFF30080 
 3715              		.global	LPS22HB_Set_GenericConfig
 3716              		.thumb
 3717              		.thumb_func
 3718              		.type	LPS22HB_Set_GenericConfig, %function
 3719              	LPS22HB_Set_GenericConfig:
ARM GAS  /tmp/ccBklucm.s 			page 67


 3720              	.LFB58:
 3721              		.loc 1 1434 0
 3722              		.cfi_startproc
 3723              		@ args = 0, pretend = 0, frame = 8
 3724              		@ frame_needed = 0, uses_anonymous_args = 0
 3725 1540 00B5     		push	{lr}
 3726              		.cfi_def_cfa_offset 4
 3727              		.cfi_offset 14, -4
 3728 1542 83B0     		sub	sp, sp, #12
 3729              		.cfi_def_cfa_offset 16
 3730 1544 0190     		str	r0, [sp, #4]
 3731 1546 0091     		str	r1, [sp]
 3732              		.loc 1 1437 0
 3733 1548 009B     		ldr	r3, [sp]
 3734 154a 1B78     		ldrb	r3, [r3]	@ zero_extendqisi2
 3735 154c 0198     		ldr	r0, [sp, #4]
 3736 154e 1946     		mov	r1, r3
 3737 1550 FFF7FEFF 		bl	LPS22HB_Set_PowerMode
 3738 1554 0346     		mov	r3, r0
 3739 1556 002B     		cmp	r3, #0
 3740 1558 01D0     		beq	.L279
 3741              		.loc 1 1438 0
 3742 155a 0123     		movs	r3, #1
 3743 155c 42E0     		b	.L280
 3744              	.L279:
 3745              		.loc 1 1441 0
 3746 155e 009B     		ldr	r3, [sp]
 3747 1560 5B78     		ldrb	r3, [r3, #1]	@ zero_extendqisi2
 3748 1562 0198     		ldr	r0, [sp, #4]
 3749 1564 1946     		mov	r1, r3
 3750 1566 FFF7FEFF 		bl	LPS22HB_Set_Odr
 3751 156a 0346     		mov	r3, r0
 3752 156c 002B     		cmp	r3, #0
 3753 156e 01D0     		beq	.L281
 3754              		.loc 1 1442 0
 3755 1570 0123     		movs	r3, #1
 3756 1572 37E0     		b	.L280
 3757              	.L281:
 3758              		.loc 1 1451 0
 3759 1574 009B     		ldr	r3, [sp]
 3760 1576 9B78     		ldrb	r3, [r3, #2]	@ zero_extendqisi2
 3761 1578 0198     		ldr	r0, [sp, #4]
 3762 157a 1946     		mov	r1, r3
 3763 157c FFF7FEFF 		bl	LPS22HB_Set_Bdu
 3764 1580 0346     		mov	r3, r0
 3765 1582 002B     		cmp	r3, #0
 3766 1584 01D0     		beq	.L282
 3767              		.loc 1 1452 0
 3768 1586 0123     		movs	r3, #1
 3769 1588 2CE0     		b	.L280
 3770              	.L282:
 3771              		.loc 1 1455 0
 3772 158a 009B     		ldr	r3, [sp]
 3773 158c DB78     		ldrb	r3, [r3, #3]	@ zero_extendqisi2
 3774 158e 0198     		ldr	r0, [sp, #4]
 3775 1590 1946     		mov	r1, r3
 3776 1592 FFF7FEFF 		bl	LPS22HB_Set_LowPassFilter
ARM GAS  /tmp/ccBklucm.s 			page 68


 3777 1596 0346     		mov	r3, r0
 3778 1598 002B     		cmp	r3, #0
 3779 159a 01D0     		beq	.L283
 3780              		.loc 1 1456 0
 3781 159c 0123     		movs	r3, #1
 3782 159e 21E0     		b	.L280
 3783              	.L283:
 3784              		.loc 1 1459 0
 3785 15a0 009B     		ldr	r3, [sp]
 3786 15a2 1B79     		ldrb	r3, [r3, #4]	@ zero_extendqisi2
 3787 15a4 0198     		ldr	r0, [sp, #4]
 3788 15a6 1946     		mov	r1, r3
 3789 15a8 FFF7FEFF 		bl	LPS22HB_Set_LowPassFilterCutoff
 3790 15ac 0346     		mov	r3, r0
 3791 15ae 002B     		cmp	r3, #0
 3792 15b0 01D0     		beq	.L284
 3793              		.loc 1 1460 0
 3794 15b2 0123     		movs	r3, #1
 3795 15b4 16E0     		b	.L280
 3796              	.L284:
 3797              		.loc 1 1465 0
 3798 15b6 009B     		ldr	r3, [sp]
 3799 15b8 5B79     		ldrb	r3, [r3, #5]	@ zero_extendqisi2
 3800 15ba 0198     		ldr	r0, [sp, #4]
 3801 15bc 1946     		mov	r1, r3
 3802 15be FFF7FEFF 		bl	LPS22HB_Set_SpiInterface
 3803 15c2 0346     		mov	r3, r0
 3804 15c4 002B     		cmp	r3, #0
 3805 15c6 01D0     		beq	.L285
 3806              		.loc 1 1466 0
 3807 15c8 0123     		movs	r3, #1
 3808 15ca 0BE0     		b	.L280
 3809              	.L285:
 3810              		.loc 1 1469 0
 3811 15cc 009B     		ldr	r3, [sp]
 3812 15ce 9B79     		ldrb	r3, [r3, #6]	@ zero_extendqisi2
 3813 15d0 0198     		ldr	r0, [sp, #4]
 3814 15d2 1946     		mov	r1, r3
 3815 15d4 FFF7FEFF 		bl	LPS22HB_Set_AutomaticIncrementRegAddress
 3816 15d8 0346     		mov	r3, r0
 3817 15da 002B     		cmp	r3, #0
 3818 15dc 01D0     		beq	.L286
 3819              		.loc 1 1470 0
 3820 15de 0123     		movs	r3, #1
 3821 15e0 00E0     		b	.L280
 3822              	.L286:
 3823              		.loc 1 1473 0
 3824 15e2 0023     		movs	r3, #0
 3825              	.L280:
 3826              		.loc 1 1474 0
 3827 15e4 1846     		mov	r0, r3
 3828 15e6 03B0     		add	sp, sp, #12
 3829              		@ sp needed
 3830 15e8 5DF804FB 		ldr	pc, [sp], #4
 3831              		.cfi_endproc
 3832              	.LFE58:
 3833              		.size	LPS22HB_Set_GenericConfig, .-LPS22HB_Set_GenericConfig
ARM GAS  /tmp/ccBklucm.s 			page 69


 3834              		.align	2
 3835 15ec AFF30080 		.p2align 4,,15
 3836              		.global	LPS22HB_Get_GenericConfig
 3837              		.thumb
 3838              		.thumb_func
 3839              		.type	LPS22HB_Get_GenericConfig, %function
 3840              	LPS22HB_Get_GenericConfig:
 3841              	.LFB59:
 3842              		.loc 1 1483 0
 3843              		.cfi_startproc
 3844              		@ args = 0, pretend = 0, frame = 16
 3845              		@ frame_needed = 0, uses_anonymous_args = 0
 3846 15f0 00B5     		push	{lr}
 3847              		.cfi_def_cfa_offset 4
 3848              		.cfi_offset 14, -4
 3849 15f2 85B0     		sub	sp, sp, #20
 3850              		.cfi_def_cfa_offset 24
 3851 15f4 0190     		str	r0, [sp, #4]
 3852 15f6 0091     		str	r1, [sp]
 3853              		.loc 1 1488 0
 3854 15f8 009B     		ldr	r3, [sp]
 3855 15fa 0198     		ldr	r0, [sp, #4]
 3856 15fc 1946     		mov	r1, r3
 3857 15fe FFF7FEFF 		bl	LPS22HB_Get_PowerMode
 3858 1602 0346     		mov	r3, r0
 3859 1604 002B     		cmp	r3, #0
 3860 1606 01D0     		beq	.L288
 3861              		.loc 1 1489 0
 3862 1608 0123     		movs	r3, #1
 3863 160a 44E0     		b	.L292
 3864              	.L288:
 3865              		.loc 1 1492 0
 3866 160c 0DF10F03 		add	r3, sp, #15
 3867 1610 0198     		ldr	r0, [sp, #4]
 3868 1612 1021     		movs	r1, #16
 3869 1614 0122     		movs	r2, #1
 3870 1616 FFF7FEFF 		bl	LPS22HB_ReadReg
 3871 161a 0346     		mov	r3, r0
 3872 161c 002B     		cmp	r3, #0
 3873 161e 01D0     		beq	.L290
 3874              		.loc 1 1493 0
 3875 1620 0123     		movs	r3, #1
 3876 1622 38E0     		b	.L292
 3877              	.L290:
 3878              		.loc 1 1495 0
 3879 1624 9DF80F30 		ldrb	r3, [sp, #15]	@ zero_extendqisi2
 3880 1628 03F07003 		and	r3, r3, #112
 3881 162c DAB2     		uxtb	r2, r3
 3882 162e 009B     		ldr	r3, [sp]
 3883 1630 5A70     		strb	r2, [r3, #1]
 3884              		.loc 1 1496 0
 3885 1632 9DF80F30 		ldrb	r3, [sp, #15]	@ zero_extendqisi2
 3886 1636 03F00203 		and	r3, r3, #2
 3887 163a DAB2     		uxtb	r2, r3
 3888 163c 009B     		ldr	r3, [sp]
 3889 163e 9A70     		strb	r2, [r3, #2]
 3890              		.loc 1 1497 0
ARM GAS  /tmp/ccBklucm.s 			page 70


 3891 1640 9DF80F30 		ldrb	r3, [sp, #15]	@ zero_extendqisi2
 3892 1644 03F00103 		and	r3, r3, #1
 3893 1648 DAB2     		uxtb	r2, r3
 3894 164a 009B     		ldr	r3, [sp]
 3895 164c 5A71     		strb	r2, [r3, #5]
 3896              		.loc 1 1498 0
 3897 164e 9DF80F30 		ldrb	r3, [sp, #15]	@ zero_extendqisi2
 3898 1652 03F00803 		and	r3, r3, #8
 3899 1656 DB10     		asrs	r3, r3, #3
 3900 1658 DAB2     		uxtb	r2, r3
 3901 165a 009B     		ldr	r3, [sp]
 3902 165c DA70     		strb	r2, [r3, #3]
 3903              		.loc 1 1499 0
 3904 165e 9DF80F30 		ldrb	r3, [sp, #15]	@ zero_extendqisi2
 3905 1662 03F00403 		and	r3, r3, #4
 3906 1666 DAB2     		uxtb	r2, r3
 3907 1668 009B     		ldr	r3, [sp]
 3908 166a 1A71     		strb	r2, [r3, #4]
 3909              		.loc 1 1502 0
 3910 166c 0DF10F03 		add	r3, sp, #15
 3911 1670 0198     		ldr	r0, [sp, #4]
 3912 1672 1121     		movs	r1, #17
 3913 1674 0122     		movs	r2, #1
 3914 1676 FFF7FEFF 		bl	LPS22HB_ReadReg
 3915 167a 0346     		mov	r3, r0
 3916 167c 002B     		cmp	r3, #0
 3917 167e 01D0     		beq	.L291
 3918              		.loc 1 1503 0
 3919 1680 0123     		movs	r3, #1
 3920 1682 08E0     		b	.L292
 3921              	.L291:
 3922              		.loc 1 1505 0
 3923 1684 9DF80F30 		ldrb	r3, [sp, #15]	@ zero_extendqisi2
 3924 1688 03F01003 		and	r3, r3, #16
 3925 168c 1B11     		asrs	r3, r3, #4
 3926 168e DAB2     		uxtb	r2, r3
 3927 1690 009B     		ldr	r3, [sp]
 3928 1692 9A71     		strb	r2, [r3, #6]
 3929              		.loc 1 1507 0
 3930 1694 0023     		movs	r3, #0
 3931              	.L292:
 3932              		.loc 1 1508 0
 3933 1696 1846     		mov	r0, r3
 3934 1698 05B0     		add	sp, sp, #20
 3935              		@ sp needed
 3936 169a 5DF804FB 		ldr	pc, [sp], #4
 3937              		.cfi_endproc
 3938              	.LFE59:
 3939              		.size	LPS22HB_Get_GenericConfig, .-LPS22HB_Get_GenericConfig
 3940 169e 00BF     		.align	2
 3941              		.p2align 4,,15
 3942              		.global	LPS22HB_Set_InterruptConfig
 3943              		.thumb
 3944              		.thumb_func
 3945              		.type	LPS22HB_Set_InterruptConfig, %function
 3946              	LPS22HB_Set_InterruptConfig:
 3947              	.LFB60:
ARM GAS  /tmp/ccBklucm.s 			page 71


 3948              		.loc 1 1518 0
 3949              		.cfi_startproc
 3950              		@ args = 0, pretend = 0, frame = 8
 3951              		@ frame_needed = 0, uses_anonymous_args = 0
 3952 16a0 00B5     		push	{lr}
 3953              		.cfi_def_cfa_offset 4
 3954              		.cfi_offset 14, -4
 3955 16a2 83B0     		sub	sp, sp, #12
 3956              		.cfi_def_cfa_offset 16
 3957 16a4 0190     		str	r0, [sp, #4]
 3958 16a6 0091     		str	r1, [sp]
 3959              		.loc 1 1520 0
 3960 16a8 009B     		ldr	r3, [sp]
 3961 16aa 1B78     		ldrb	r3, [r3]	@ zero_extendqisi2
 3962 16ac 0198     		ldr	r0, [sp, #4]
 3963 16ae 1946     		mov	r1, r3
 3964 16b0 FFF7FEFF 		bl	LPS22HB_Set_InterruptActiveLevel
 3965 16b4 0346     		mov	r3, r0
 3966 16b6 002B     		cmp	r3, #0
 3967 16b8 01D0     		beq	.L294
 3968              		.loc 1 1521 0
 3969 16ba 0123     		movs	r3, #1
 3970 16bc E7E0     		b	.L295
 3971              	.L294:
 3972              		.loc 1 1524 0
 3973 16be 009B     		ldr	r3, [sp]
 3974 16c0 5B78     		ldrb	r3, [r3, #1]	@ zero_extendqisi2
 3975 16c2 0198     		ldr	r0, [sp, #4]
 3976 16c4 1946     		mov	r1, r3
 3977 16c6 FFF7FEFF 		bl	LPS22HB_Set_InterruptOutputType
 3978 16ca 0346     		mov	r3, r0
 3979 16cc 002B     		cmp	r3, #0
 3980 16ce 01D0     		beq	.L296
 3981              		.loc 1 1525 0
 3982 16d0 0123     		movs	r3, #1
 3983 16d2 DCE0     		b	.L295
 3984              	.L296:
 3985              		.loc 1 1528 0
 3986 16d4 009B     		ldr	r3, [sp]
 3987 16d6 9B78     		ldrb	r3, [r3, #2]	@ zero_extendqisi2
 3988 16d8 0198     		ldr	r0, [sp, #4]
 3989 16da 1946     		mov	r1, r3
 3990 16dc FFF7FEFF 		bl	LPS22HB_Set_InterruptControlConfig
 3991 16e0 0346     		mov	r3, r0
 3992 16e2 002B     		cmp	r3, #0
 3993 16e4 01D0     		beq	.L297
 3994              		.loc 1 1529 0
 3995 16e6 0123     		movs	r3, #1
 3996 16e8 D1E0     		b	.L295
 3997              	.L297:
 3998              		.loc 1 1532 0
 3999 16ea 009B     		ldr	r3, [sp]
 4000 16ec DB78     		ldrb	r3, [r3, #3]	@ zero_extendqisi2
 4001 16ee 0198     		ldr	r0, [sp, #4]
 4002 16f0 1946     		mov	r1, r3
 4003 16f2 FFF7FEFF 		bl	LPS22HB_Set_DRDYInterrupt
 4004 16f6 0346     		mov	r3, r0
ARM GAS  /tmp/ccBklucm.s 			page 72


 4005 16f8 002B     		cmp	r3, #0
 4006 16fa 01D0     		beq	.L298
 4007              		.loc 1 1533 0
 4008 16fc 0123     		movs	r3, #1
 4009 16fe C6E0     		b	.L295
 4010              	.L298:
 4011              		.loc 1 1536 0
 4012 1700 009B     		ldr	r3, [sp]
 4013 1702 1B79     		ldrb	r3, [r3, #4]	@ zero_extendqisi2
 4014 1704 0198     		ldr	r0, [sp, #4]
 4015 1706 1946     		mov	r1, r3
 4016 1708 FFF7FEFF 		bl	LPS22HB_Set_FIFO_OVR_Interrupt
 4017 170c 0346     		mov	r3, r0
 4018 170e 002B     		cmp	r3, #0
 4019 1710 01D0     		beq	.L299
 4020              		.loc 1 1537 0
 4021 1712 0123     		movs	r3, #1
 4022 1714 BBE0     		b	.L295
 4023              	.L299:
 4024              		.loc 1 1540 0
 4025 1716 009B     		ldr	r3, [sp]
 4026 1718 5B79     		ldrb	r3, [r3, #5]	@ zero_extendqisi2
 4027 171a 0198     		ldr	r0, [sp, #4]
 4028 171c 1946     		mov	r1, r3
 4029 171e FFF7FEFF 		bl	LPS22HB_Set_FIFO_FTH_Interrupt
 4030 1722 0346     		mov	r3, r0
 4031 1724 002B     		cmp	r3, #0
 4032 1726 01D0     		beq	.L300
 4033              		.loc 1 1541 0
 4034 1728 0123     		movs	r3, #1
 4035 172a B0E0     		b	.L295
 4036              	.L300:
 4037              		.loc 1 1544 0
 4038 172c 009B     		ldr	r3, [sp]
 4039 172e 9B79     		ldrb	r3, [r3, #6]	@ zero_extendqisi2
 4040 1730 0198     		ldr	r0, [sp, #4]
 4041 1732 1946     		mov	r1, r3
 4042 1734 FFF7FEFF 		bl	LPS22HB_Set_FIFO_FULL_Interrupt
 4043 1738 0346     		mov	r3, r0
 4044 173a 002B     		cmp	r3, #0
 4045 173c 01D0     		beq	.L301
 4046              		.loc 1 1545 0
 4047 173e 0123     		movs	r3, #1
 4048 1740 A5E0     		b	.L295
 4049              	.L301:
 4050              		.loc 1 1548 0
 4051 1742 009B     		ldr	r3, [sp]
 4052 1744 DB79     		ldrb	r3, [r3, #7]	@ zero_extendqisi2
 4053 1746 0198     		ldr	r0, [sp, #4]
 4054 1748 1946     		mov	r1, r3
 4055 174a FFF7FEFF 		bl	LPS22HB_LatchInterruptRequest
 4056 174e 0346     		mov	r3, r0
 4057 1750 002B     		cmp	r3, #0
 4058 1752 01D0     		beq	.L302
 4059              		.loc 1 1549 0
 4060 1754 0123     		movs	r3, #1
 4061 1756 9AE0     		b	.L295
ARM GAS  /tmp/ccBklucm.s 			page 73


 4062              	.L302:
 4063              		.loc 1 1552 0
 4064 1758 009B     		ldr	r3, [sp]
 4065 175a 1B89     		ldrh	r3, [r3, #8]
 4066 175c 1BB2     		sxth	r3, r3
 4067 175e 0198     		ldr	r0, [sp, #4]
 4068 1760 1946     		mov	r1, r3
 4069 1762 FFF7FEFF 		bl	LPS22HB_Set_PressureThreshold
 4070 1766 0346     		mov	r3, r0
 4071 1768 002B     		cmp	r3, #0
 4072 176a 01D0     		beq	.L303
 4073              		.loc 1 1553 0
 4074 176c 0123     		movs	r3, #1
 4075 176e 8EE0     		b	.L295
 4076              	.L303:
 4077              		.loc 1 1556 0
 4078 1770 009B     		ldr	r3, [sp]
 4079 1772 9B7A     		ldrb	r3, [r3, #10]	@ zero_extendqisi2
 4080 1774 012B     		cmp	r3, #1
 4081 1776 07D1     		bne	.L304
 4082              		.loc 1 1558 0
 4083 1778 0198     		ldr	r0, [sp, #4]
 4084 177a FFF7FEFF 		bl	LPS22HB_Set_AutoRifP
 4085 177e 0346     		mov	r3, r0
 4086 1780 002B     		cmp	r3, #0
 4087 1782 09D0     		beq	.L305
 4088              		.loc 1 1559 0
 4089 1784 0123     		movs	r3, #1
 4090 1786 82E0     		b	.L295
 4091              	.L304:
 4092              		.loc 1 1563 0
 4093 1788 0198     		ldr	r0, [sp, #4]
 4094 178a FFF7FEFF 		bl	LPS22HB_ResetAutoRifP
 4095 178e 0346     		mov	r3, r0
 4096 1790 002B     		cmp	r3, #0
 4097 1792 01D0     		beq	.L305
 4098              		.loc 1 1564 0
 4099 1794 0123     		movs	r3, #1
 4100 1796 7AE0     		b	.L295
 4101              	.L305:
 4102              		.loc 1 1568 0
 4103 1798 009B     		ldr	r3, [sp]
 4104 179a DB7A     		ldrb	r3, [r3, #11]	@ zero_extendqisi2
 4105 179c 012B     		cmp	r3, #1
 4106 179e 07D1     		bne	.L306
 4107              		.loc 1 1570 0
 4108 17a0 0198     		ldr	r0, [sp, #4]
 4109 17a2 FFF7FEFF 		bl	LPS22HB_Set_AutoZeroFunction
 4110 17a6 0346     		mov	r3, r0
 4111 17a8 002B     		cmp	r3, #0
 4112 17aa 09D0     		beq	.L307
 4113              		.loc 1 1571 0
 4114 17ac 0123     		movs	r3, #1
 4115 17ae 6EE0     		b	.L295
 4116              	.L306:
 4117              		.loc 1 1575 0
 4118 17b0 0198     		ldr	r0, [sp, #4]
ARM GAS  /tmp/ccBklucm.s 			page 74


 4119 17b2 FFF7FEFF 		bl	LPS22HB_ResetAutoZeroFunction
 4120 17b6 0346     		mov	r3, r0
 4121 17b8 002B     		cmp	r3, #0
 4122 17ba 01D0     		beq	.L307
 4123              		.loc 1 1576 0
 4124 17bc 0123     		movs	r3, #1
 4125 17be 66E0     		b	.L295
 4126              	.L307:
 4127              		.loc 1 1580 0
 4128 17c0 009B     		ldr	r3, [sp]
 4129 17c2 9B78     		ldrb	r3, [r3, #2]	@ zero_extendqisi2
 4130 17c4 012B     		cmp	r3, #1
 4131 17c6 11D1     		bne	.L308
 4132              		.loc 1 1583 0
 4133 17c8 0198     		ldr	r0, [sp, #4]
 4134 17ca 0121     		movs	r1, #1
 4135 17cc FFF7FEFF 		bl	LPS22HB_Set_PHE
 4136 17d0 0346     		mov	r3, r0
 4137 17d2 002B     		cmp	r3, #0
 4138 17d4 01D0     		beq	.L309
 4139              		.loc 1 1584 0
 4140 17d6 0123     		movs	r3, #1
 4141 17d8 59E0     		b	.L295
 4142              	.L309:
 4143              		.loc 1 1585 0
 4144 17da 0198     		ldr	r0, [sp, #4]
 4145 17dc 0121     		movs	r1, #1
 4146 17de FFF7FEFF 		bl	LPS22HB_Set_InterruptDifferentialGeneration
 4147 17e2 0346     		mov	r3, r0
 4148 17e4 002B     		cmp	r3, #0
 4149 17e6 51D0     		beq	.L310
 4150              		.loc 1 1586 0
 4151 17e8 0123     		movs	r3, #1
 4152 17ea 50E0     		b	.L295
 4153              	.L308:
 4154              		.loc 1 1588 0
 4155 17ec 009B     		ldr	r3, [sp]
 4156 17ee 9B78     		ldrb	r3, [r3, #2]	@ zero_extendqisi2
 4157 17f0 022B     		cmp	r3, #2
 4158 17f2 11D1     		bne	.L311
 4159              		.loc 1 1591 0
 4160 17f4 0198     		ldr	r0, [sp, #4]
 4161 17f6 0121     		movs	r1, #1
 4162 17f8 FFF7FEFF 		bl	LPS22HB_Set_PLE
 4163 17fc 0346     		mov	r3, r0
 4164 17fe 002B     		cmp	r3, #0
 4165 1800 01D0     		beq	.L312
 4166              		.loc 1 1592 0
 4167 1802 0123     		movs	r3, #1
 4168 1804 43E0     		b	.L295
 4169              	.L312:
 4170              		.loc 1 1593 0
 4171 1806 0198     		ldr	r0, [sp, #4]
 4172 1808 0121     		movs	r1, #1
 4173 180a FFF7FEFF 		bl	LPS22HB_Set_InterruptDifferentialGeneration
 4174 180e 0346     		mov	r3, r0
 4175 1810 002B     		cmp	r3, #0
ARM GAS  /tmp/ccBklucm.s 			page 75


 4176 1812 3BD0     		beq	.L310
 4177              		.loc 1 1594 0
 4178 1814 0123     		movs	r3, #1
 4179 1816 3AE0     		b	.L295
 4180              	.L311:
 4181              		.loc 1 1596 0
 4182 1818 009B     		ldr	r3, [sp]
 4183 181a 9B78     		ldrb	r3, [r3, #2]	@ zero_extendqisi2
 4184 181c 032B     		cmp	r3, #3
 4185 181e 1AD1     		bne	.L313
 4186              		.loc 1 1599 0
 4187 1820 0198     		ldr	r0, [sp, #4]
 4188 1822 0121     		movs	r1, #1
 4189 1824 FFF7FEFF 		bl	LPS22HB_Set_PHE
 4190 1828 0346     		mov	r3, r0
 4191 182a 002B     		cmp	r3, #0
 4192 182c 01D0     		beq	.L314
 4193              		.loc 1 1600 0
 4194 182e 0123     		movs	r3, #1
 4195 1830 2DE0     		b	.L295
 4196              	.L314:
 4197              		.loc 1 1602 0
 4198 1832 0198     		ldr	r0, [sp, #4]
 4199 1834 0121     		movs	r1, #1
 4200 1836 FFF7FEFF 		bl	LPS22HB_Set_PLE
 4201 183a 0346     		mov	r3, r0
 4202 183c 002B     		cmp	r3, #0
 4203 183e 01D0     		beq	.L315
 4204              		.loc 1 1603 0
 4205 1840 0123     		movs	r3, #1
 4206 1842 24E0     		b	.L295
 4207              	.L315:
 4208              		.loc 1 1604 0
 4209 1844 0198     		ldr	r0, [sp, #4]
 4210 1846 0121     		movs	r1, #1
 4211 1848 FFF7FEFF 		bl	LPS22HB_Set_InterruptDifferentialGeneration
 4212 184c 0346     		mov	r3, r0
 4213 184e 002B     		cmp	r3, #0
 4214 1850 1CD0     		beq	.L310
 4215              		.loc 1 1605 0
 4216 1852 0123     		movs	r3, #1
 4217 1854 1BE0     		b	.L295
 4218              	.L313:
 4219              		.loc 1 1609 0
 4220 1856 0198     		ldr	r0, [sp, #4]
 4221 1858 0021     		movs	r1, #0
 4222 185a FFF7FEFF 		bl	LPS22HB_Set_InterruptDifferentialGeneration
 4223 185e 0346     		mov	r3, r0
 4224 1860 002B     		cmp	r3, #0
 4225 1862 01D0     		beq	.L316
 4226              		.loc 1 1610 0
 4227 1864 0123     		movs	r3, #1
 4228 1866 12E0     		b	.L295
 4229              	.L316:
 4230              		.loc 1 1612 0
 4231 1868 0198     		ldr	r0, [sp, #4]
 4232 186a 0021     		movs	r1, #0
ARM GAS  /tmp/ccBklucm.s 			page 76


 4233 186c FFF7FEFF 		bl	LPS22HB_Set_PHE
 4234 1870 0346     		mov	r3, r0
 4235 1872 002B     		cmp	r3, #0
 4236 1874 01D0     		beq	.L317
 4237              		.loc 1 1613 0
 4238 1876 0123     		movs	r3, #1
 4239 1878 09E0     		b	.L295
 4240              	.L317:
 4241              		.loc 1 1615 0
 4242 187a 0198     		ldr	r0, [sp, #4]
 4243 187c 0021     		movs	r1, #0
 4244 187e FFF7FEFF 		bl	LPS22HB_Set_PLE
 4245 1882 0346     		mov	r3, r0
 4246 1884 002B     		cmp	r3, #0
 4247 1886 01D0     		beq	.L310
 4248              		.loc 1 1616 0
 4249 1888 0123     		movs	r3, #1
 4250 188a 00E0     		b	.L295
 4251              	.L310:
 4252              		.loc 1 1619 0
 4253 188c 0023     		movs	r3, #0
 4254              	.L295:
 4255              		.loc 1 1620 0
 4256 188e 1846     		mov	r0, r3
 4257 1890 03B0     		add	sp, sp, #12
 4258              		@ sp needed
 4259 1892 5DF804FB 		ldr	pc, [sp], #4
 4260              		.cfi_endproc
 4261              	.LFE60:
 4262              		.size	LPS22HB_Set_InterruptConfig, .-LPS22HB_Set_InterruptConfig
 4263 1896 00BF     		.align	2
 4264 1898 AFF30080 		.p2align 4,,15
 4264      AFF30080 
 4265              		.global	LPS22HB_Get_InterruptConfig
 4266              		.thumb
 4267              		.thumb_func
 4268              		.type	LPS22HB_Get_InterruptConfig, %function
 4269              	LPS22HB_Get_InterruptConfig:
 4270              	.LFB61:
 4271              		.loc 1 1629 0
 4272              		.cfi_startproc
 4273              		@ args = 0, pretend = 0, frame = 16
 4274              		@ frame_needed = 0, uses_anonymous_args = 0
 4275 18a0 00B5     		push	{lr}
 4276              		.cfi_def_cfa_offset 4
 4277              		.cfi_offset 14, -4
 4278 18a2 85B0     		sub	sp, sp, #20
 4279              		.cfi_def_cfa_offset 24
 4280 18a4 0190     		str	r0, [sp, #4]
 4281 18a6 0091     		str	r1, [sp]
 4282              		.loc 1 1633 0
 4283 18a8 0DF10F03 		add	r3, sp, #15
 4284 18ac 0198     		ldr	r0, [sp, #4]
 4285 18ae 1221     		movs	r1, #18
 4286 18b0 0122     		movs	r2, #1
 4287 18b2 FFF7FEFF 		bl	LPS22HB_ReadReg
 4288 18b6 0346     		mov	r3, r0
ARM GAS  /tmp/ccBklucm.s 			page 77


 4289 18b8 002B     		cmp	r3, #0
 4290 18ba 01D0     		beq	.L319
 4291              		.loc 1 1634 0
 4292 18bc 0123     		movs	r3, #1
 4293 18be 5AE0     		b	.L323
 4294              	.L319:
 4295              		.loc 1 1636 0
 4296 18c0 9DF80F30 		ldrb	r3, [sp, #15]	@ zero_extendqisi2
 4297 18c4 23F07F03 		bic	r3, r3, #127
 4298 18c8 DAB2     		uxtb	r2, r3
 4299 18ca 009B     		ldr	r3, [sp]
 4300 18cc 1A70     		strb	r2, [r3]
 4301              		.loc 1 1637 0
 4302 18ce 9DF80F30 		ldrb	r3, [sp, #15]	@ zero_extendqisi2
 4303 18d2 03F04003 		and	r3, r3, #64
 4304 18d6 DAB2     		uxtb	r2, r3
 4305 18d8 009B     		ldr	r3, [sp]
 4306 18da 5A70     		strb	r2, [r3, #1]
 4307              		.loc 1 1638 0
 4308 18dc 9DF80F30 		ldrb	r3, [sp, #15]	@ zero_extendqisi2
 4309 18e0 03F00303 		and	r3, r3, #3
 4310 18e4 DAB2     		uxtb	r2, r3
 4311 18e6 009B     		ldr	r3, [sp]
 4312 18e8 9A70     		strb	r2, [r3, #2]
 4313              		.loc 1 1639 0
 4314 18ea 9DF80F30 		ldrb	r3, [sp, #15]	@ zero_extendqisi2
 4315 18ee 03F00403 		and	r3, r3, #4
 4316 18f2 9B10     		asrs	r3, r3, #2
 4317 18f4 DAB2     		uxtb	r2, r3
 4318 18f6 009B     		ldr	r3, [sp]
 4319 18f8 DA70     		strb	r2, [r3, #3]
 4320              		.loc 1 1640 0
 4321 18fa 9DF80F30 		ldrb	r3, [sp, #15]	@ zero_extendqisi2
 4322 18fe 03F00803 		and	r3, r3, #8
 4323 1902 DB10     		asrs	r3, r3, #3
 4324 1904 DAB2     		uxtb	r2, r3
 4325 1906 009B     		ldr	r3, [sp]
 4326 1908 1A71     		strb	r2, [r3, #4]
 4327              		.loc 1 1641 0
 4328 190a 9DF80F30 		ldrb	r3, [sp, #15]	@ zero_extendqisi2
 4329 190e 03F01003 		and	r3, r3, #16
 4330 1912 1B11     		asrs	r3, r3, #4
 4331 1914 DAB2     		uxtb	r2, r3
 4332 1916 009B     		ldr	r3, [sp]
 4333 1918 5A71     		strb	r2, [r3, #5]
 4334              		.loc 1 1642 0
 4335 191a 9DF80F30 		ldrb	r3, [sp, #15]	@ zero_extendqisi2
 4336 191e 03F02003 		and	r3, r3, #32
 4337 1922 5B11     		asrs	r3, r3, #5
 4338 1924 DAB2     		uxtb	r2, r3
 4339 1926 009B     		ldr	r3, [sp]
 4340 1928 9A71     		strb	r2, [r3, #6]
 4341              		.loc 1 1645 0
 4342 192a 0DF10F03 		add	r3, sp, #15
 4343 192e 0198     		ldr	r0, [sp, #4]
 4344 1930 0B21     		movs	r1, #11
 4345 1932 0122     		movs	r2, #1
ARM GAS  /tmp/ccBklucm.s 			page 78


 4346 1934 FFF7FEFF 		bl	LPS22HB_ReadReg
 4347 1938 0346     		mov	r3, r0
 4348 193a 002B     		cmp	r3, #0
 4349 193c 01D0     		beq	.L321
 4350              		.loc 1 1646 0
 4351 193e 0123     		movs	r3, #1
 4352 1940 19E0     		b	.L323
 4353              	.L321:
 4354              		.loc 1 1648 0
 4355 1942 9DF80F30 		ldrb	r3, [sp, #15]	@ zero_extendqisi2
 4356 1946 03F00403 		and	r3, r3, #4
 4357 194a 9B10     		asrs	r3, r3, #2
 4358 194c DAB2     		uxtb	r2, r3
 4359 194e 009B     		ldr	r3, [sp]
 4360 1950 DA71     		strb	r2, [r3, #7]
 4361              		.loc 1 1650 0
 4362 1952 009B     		ldr	r3, [sp]
 4363 1954 0833     		adds	r3, r3, #8
 4364 1956 0198     		ldr	r0, [sp, #4]
 4365 1958 1946     		mov	r1, r3
 4366 195a FFF7FEFF 		bl	LPS22HB_Get_PressureThreshold
 4367 195e 0346     		mov	r3, r0
 4368 1960 002B     		cmp	r3, #0
 4369 1962 01D0     		beq	.L322
 4370              		.loc 1 1651 0
 4371 1964 0123     		movs	r3, #1
 4372 1966 06E0     		b	.L323
 4373              	.L322:
 4374              		.loc 1 1654 0
 4375 1968 009B     		ldr	r3, [sp]
 4376 196a 0022     		movs	r2, #0
 4377 196c 9A72     		strb	r2, [r3, #10]
 4378              		.loc 1 1655 0
 4379 196e 009B     		ldr	r3, [sp]
 4380 1970 0022     		movs	r2, #0
 4381 1972 DA72     		strb	r2, [r3, #11]
 4382              		.loc 1 1657 0
 4383 1974 0023     		movs	r3, #0
 4384              	.L323:
 4385              		.loc 1 1658 0
 4386 1976 1846     		mov	r0, r3
 4387 1978 05B0     		add	sp, sp, #20
 4388              		@ sp needed
 4389 197a 5DF804FB 		ldr	pc, [sp], #4
 4390              		.cfi_endproc
 4391              	.LFE61:
 4392              		.size	LPS22HB_Get_InterruptConfig, .-LPS22HB_Get_InterruptConfig
 4393 197e 00BF     		.align	2
 4394              		.p2align 4,,15
 4395              		.global	LPS22HB_Set_FifoConfig
 4396              		.thumb
 4397              		.thumb_func
 4398              		.type	LPS22HB_Set_FifoConfig, %function
 4399              	LPS22HB_Set_FifoConfig:
 4400              	.LFB62:
 4401              		.loc 1 1667 0
 4402              		.cfi_startproc
ARM GAS  /tmp/ccBklucm.s 			page 79


 4403              		@ args = 0, pretend = 0, frame = 8
 4404              		@ frame_needed = 0, uses_anonymous_args = 0
 4405 1980 00B5     		push	{lr}
 4406              		.cfi_def_cfa_offset 4
 4407              		.cfi_offset 14, -4
 4408 1982 83B0     		sub	sp, sp, #12
 4409              		.cfi_def_cfa_offset 16
 4410 1984 0190     		str	r0, [sp, #4]
 4411 1986 0091     		str	r1, [sp]
 4412              		.loc 1 1669 0
 4413 1988 009B     		ldr	r3, [sp]
 4414 198a 1B78     		ldrb	r3, [r3]	@ zero_extendqisi2
 4415 198c 002B     		cmp	r3, #0
 4416 198e 1AD1     		bne	.L325
 4417              		.loc 1 1672 0
 4418 1990 0198     		ldr	r0, [sp, #4]
 4419 1992 0021     		movs	r1, #0
 4420 1994 FFF7FEFF 		bl	LPS22HB_Set_FifoModeUse
 4421 1998 0346     		mov	r3, r0
 4422 199a 002B     		cmp	r3, #0
 4423 199c 01D0     		beq	.L326
 4424              		.loc 1 1673 0
 4425 199e 0123     		movs	r3, #1
 4426 19a0 47E0     		b	.L327
 4427              	.L326:
 4428              		.loc 1 1675 0
 4429 19a2 0198     		ldr	r0, [sp, #4]
 4430 19a4 0021     		movs	r1, #0
 4431 19a6 FFF7FEFF 		bl	LPS22HB_Set_FifoWatermarkLevelUse
 4432 19aa 0346     		mov	r3, r0
 4433 19ac 002B     		cmp	r3, #0
 4434 19ae 01D0     		beq	.L328
 4435              		.loc 1 1676 0
 4436 19b0 0123     		movs	r3, #1
 4437 19b2 3EE0     		b	.L327
 4438              	.L328:
 4439              		.loc 1 1679 0
 4440 19b4 0198     		ldr	r0, [sp, #4]
 4441 19b6 0021     		movs	r1, #0
 4442 19b8 FFF7FEFF 		bl	LPS22HB_Set_FIFO_FTH_Interrupt
 4443 19bc 0346     		mov	r3, r0
 4444 19be 002B     		cmp	r3, #0
 4445 19c0 2BD0     		beq	.L329
 4446              		.loc 1 1680 0
 4447 19c2 0123     		movs	r3, #1
 4448 19c4 35E0     		b	.L327
 4449              	.L325:
 4450              		.loc 1 1685 0
 4451 19c6 0198     		ldr	r0, [sp, #4]
 4452 19c8 0121     		movs	r1, #1
 4453 19ca FFF7FEFF 		bl	LPS22HB_Set_FifoModeUse
 4454 19ce 0346     		mov	r3, r0
 4455 19d0 002B     		cmp	r3, #0
 4456 19d2 01D0     		beq	.L330
 4457              		.loc 1 1686 0
 4458 19d4 0123     		movs	r3, #1
 4459 19d6 2CE0     		b	.L327
ARM GAS  /tmp/ccBklucm.s 			page 80


 4460              	.L330:
 4461              		.loc 1 1688 0
 4462 19d8 009B     		ldr	r3, [sp]
 4463 19da 5B78     		ldrb	r3, [r3, #1]	@ zero_extendqisi2
 4464 19dc 002B     		cmp	r3, #0
 4465 19de 1CD0     		beq	.L329
 4466              		.loc 1 1691 0
 4467 19e0 0198     		ldr	r0, [sp, #4]
 4468 19e2 0121     		movs	r1, #1
 4469 19e4 FFF7FEFF 		bl	LPS22HB_Set_FifoWatermarkLevelUse
 4470 19e8 0346     		mov	r3, r0
 4471 19ea 002B     		cmp	r3, #0
 4472 19ec 01D0     		beq	.L331
 4473              		.loc 1 1692 0
 4474 19ee 0123     		movs	r3, #1
 4475 19f0 1FE0     		b	.L327
 4476              	.L331:
 4477              		.loc 1 1694 0
 4478 19f2 009B     		ldr	r3, [sp]
 4479 19f4 9B78     		ldrb	r3, [r3, #2]	@ zero_extendqisi2
 4480 19f6 0198     		ldr	r0, [sp, #4]
 4481 19f8 1946     		mov	r1, r3
 4482 19fa FFF7FEFF 		bl	LPS22HB_Set_FifoWatermarkLevel
 4483 19fe 0346     		mov	r3, r0
 4484 1a00 002B     		cmp	r3, #0
 4485 1a02 01D0     		beq	.L332
 4486              		.loc 1 1695 0
 4487 1a04 0123     		movs	r3, #1
 4488 1a06 14E0     		b	.L327
 4489              	.L332:
 4490              		.loc 1 1697 0
 4491 1a08 0198     		ldr	r0, [sp, #4]
 4492 1a0a 0121     		movs	r1, #1
 4493 1a0c FFF7FEFF 		bl	LPS22HB_Set_FIFO_FTH_Interrupt
 4494 1a10 0346     		mov	r3, r0
 4495 1a12 002B     		cmp	r3, #0
 4496 1a14 01D0     		beq	.L329
 4497              		.loc 1 1698 0
 4498 1a16 0123     		movs	r3, #1
 4499 1a18 0BE0     		b	.L327
 4500              	.L329:
 4501              		.loc 1 1702 0
 4502 1a1a 009B     		ldr	r3, [sp]
 4503 1a1c 1B78     		ldrb	r3, [r3]	@ zero_extendqisi2
 4504 1a1e 0198     		ldr	r0, [sp, #4]
 4505 1a20 1946     		mov	r1, r3
 4506 1a22 FFF7FEFF 		bl	LPS22HB_Set_FifoMode
 4507 1a26 0346     		mov	r3, r0
 4508 1a28 002B     		cmp	r3, #0
 4509 1a2a 01D0     		beq	.L333
 4510              		.loc 1 1703 0
 4511 1a2c 0123     		movs	r3, #1
 4512 1a2e 00E0     		b	.L327
 4513              	.L333:
 4514              		.loc 1 1705 0
 4515 1a30 0023     		movs	r3, #0
 4516              	.L327:
ARM GAS  /tmp/ccBklucm.s 			page 81


 4517              		.loc 1 1706 0
 4518 1a32 1846     		mov	r0, r3
 4519 1a34 03B0     		add	sp, sp, #12
 4520              		@ sp needed
 4521 1a36 5DF804FB 		ldr	pc, [sp], #4
 4522              		.cfi_endproc
 4523              	.LFE62:
 4524              		.size	LPS22HB_Set_FifoConfig, .-LPS22HB_Set_FifoConfig
 4525 1a3a 00BF     		.align	2
 4526 1a3c AFF30080 		.p2align 4,,15
 4527              		.global	LPS22HB_Get_FifoConfig
 4528              		.thumb
 4529              		.thumb_func
 4530              		.type	LPS22HB_Get_FifoConfig, %function
 4531              	LPS22HB_Get_FifoConfig:
 4532              	.LFB63:
 4533              		.loc 1 1715 0
 4534              		.cfi_startproc
 4535              		@ args = 0, pretend = 0, frame = 16
 4536              		@ frame_needed = 0, uses_anonymous_args = 0
 4537 1a40 00B5     		push	{lr}
 4538              		.cfi_def_cfa_offset 4
 4539              		.cfi_offset 14, -4
 4540 1a42 85B0     		sub	sp, sp, #20
 4541              		.cfi_def_cfa_offset 24
 4542 1a44 0190     		str	r0, [sp, #4]
 4543 1a46 0091     		str	r1, [sp]
 4544              		.loc 1 1718 0
 4545 1a48 0DF10F03 		add	r3, sp, #15
 4546 1a4c 0198     		ldr	r0, [sp, #4]
 4547 1a4e 1421     		movs	r1, #20
 4548 1a50 0122     		movs	r2, #1
 4549 1a52 FFF7FEFF 		bl	LPS22HB_ReadReg
 4550 1a56 0346     		mov	r3, r0
 4551 1a58 002B     		cmp	r3, #0
 4552 1a5a 01D0     		beq	.L335
 4553              		.loc 1 1719 0
 4554 1a5c 0123     		movs	r3, #1
 4555 1a5e 22E0     		b	.L338
 4556              	.L335:
 4557              		.loc 1 1722 0
 4558 1a60 9DF80F30 		ldrb	r3, [sp, #15]	@ zero_extendqisi2
 4559 1a64 23F01F03 		bic	r3, r3, #31
 4560 1a68 DAB2     		uxtb	r2, r3
 4561 1a6a 009B     		ldr	r3, [sp]
 4562 1a6c 1A70     		strb	r2, [r3]
 4563              		.loc 1 1725 0
 4564 1a6e 9DF80F30 		ldrb	r3, [sp, #15]	@ zero_extendqisi2
 4565 1a72 03F01F03 		and	r3, r3, #31
 4566 1a76 DAB2     		uxtb	r2, r3
 4567 1a78 009B     		ldr	r3, [sp]
 4568 1a7a 9A70     		strb	r2, [r3, #2]
 4569              		.loc 1 1727 0
 4570 1a7c 0DF10F03 		add	r3, sp, #15
 4571 1a80 0198     		ldr	r0, [sp, #4]
 4572 1a82 1121     		movs	r1, #17
 4573 1a84 0122     		movs	r2, #1
ARM GAS  /tmp/ccBklucm.s 			page 82


 4574 1a86 FFF7FEFF 		bl	LPS22HB_ReadReg
 4575 1a8a 0346     		mov	r3, r0
 4576 1a8c 002B     		cmp	r3, #0
 4577 1a8e 01D0     		beq	.L337
 4578              		.loc 1 1728 0
 4579 1a90 0123     		movs	r3, #1
 4580 1a92 08E0     		b	.L338
 4581              	.L337:
 4582              		.loc 1 1731 0
 4583 1a94 9DF80F30 		ldrb	r3, [sp, #15]	@ zero_extendqisi2
 4584 1a98 03F02003 		and	r3, r3, #32
 4585 1a9c 5B11     		asrs	r3, r3, #5
 4586 1a9e DAB2     		uxtb	r2, r3
 4587 1aa0 009B     		ldr	r3, [sp]
 4588 1aa2 5A70     		strb	r2, [r3, #1]
 4589              		.loc 1 1734 0
 4590 1aa4 0023     		movs	r3, #0
 4591              	.L338:
 4592              		.loc 1 1735 0
 4593 1aa6 1846     		mov	r0, r3
 4594 1aa8 05B0     		add	sp, sp, #20
 4595              		@ sp needed
 4596 1aaa 5DF804FB 		ldr	pc, [sp], #4
 4597              		.cfi_endproc
 4598              	.LFE63:
 4599              		.size	LPS22HB_Get_FifoConfig, .-LPS22HB_Get_FifoConfig
 4600              	.Letext0:
 4601              		.file 2 "/nfs/nfs5/home/research/hardware/arm2/gcc-arm-embedded/gcc-arm-none-eabi-4_8-2014q2/arm-n
 4602              		.file 3 "/nfs/nfs5/home/research/hardware/arm2/gcc-arm-embedded/gcc-arm-none-eabi-4_8-2014q2/arm-n
 4603              		.file 4 "../../../../../Drivers/BSP/Components/lps22hb/LPS22HB_Driver.h"
 4604 1aae 00BF     		.section	.debug_info,"",%progbits
 4605              	.Ldebug_info0:
 4606 0000 40170000 		.4byte	0x1740
 4607 0004 0400     		.2byte	0x4
 4608 0006 00000000 		.4byte	.Ldebug_abbrev0
 4609 000a 04       		.byte	0x4
 4610 000b 01       		.uleb128 0x1
 4611 000c 74000000 		.4byte	.LASF202
 4612 0010 01       		.byte	0x1
 4613 0011 5B0A0000 		.4byte	.LASF203
 4614 0015 B6040000 		.4byte	.LASF204
 4615 0019 00000000 		.4byte	.Ltext0
 4616 001d AE1A0000 		.4byte	.Letext0-.Ltext0
 4617 0021 00000000 		.4byte	.Ldebug_line0
 4618 0025 02       		.uleb128 0x2
 4619 0026 01       		.byte	0x1
 4620 0027 06       		.byte	0x6
 4621 0028 C7020000 		.4byte	.LASF0
 4622 002c 03       		.uleb128 0x3
 4623 002d 68010000 		.4byte	.LASF2
 4624 0031 02       		.byte	0x2
 4625 0032 1C       		.byte	0x1c
 4626 0033 37000000 		.4byte	0x37
 4627 0037 02       		.uleb128 0x2
 4628 0038 01       		.byte	0x1
 4629 0039 08       		.byte	0x8
 4630 003a C10A0000 		.4byte	.LASF1
ARM GAS  /tmp/ccBklucm.s 			page 83


 4631 003e 03       		.uleb128 0x3
 4632 003f 48050000 		.4byte	.LASF3
 4633 0043 02       		.byte	0x2
 4634 0044 25       		.byte	0x25
 4635 0045 49000000 		.4byte	0x49
 4636 0049 02       		.uleb128 0x2
 4637 004a 02       		.byte	0x2
 4638 004b 05       		.byte	0x5
 4639 004c 220B0000 		.4byte	.LASF4
 4640 0050 03       		.uleb128 0x3
 4641 0051 2A0D0000 		.4byte	.LASF5
 4642 0055 02       		.byte	0x2
 4643 0056 26       		.byte	0x26
 4644 0057 5B000000 		.4byte	0x5b
 4645 005b 02       		.uleb128 0x2
 4646 005c 02       		.byte	0x2
 4647 005d 07       		.byte	0x7
 4648 005e 81060000 		.4byte	.LASF6
 4649 0062 03       		.uleb128 0x3
 4650 0063 5F0D0000 		.4byte	.LASF7
 4651 0067 02       		.byte	0x2
 4652 0068 37       		.byte	0x37
 4653 0069 6D000000 		.4byte	0x6d
 4654 006d 02       		.uleb128 0x2
 4655 006e 04       		.byte	0x4
 4656 006f 05       		.byte	0x5
 4657 0070 A1030000 		.4byte	.LASF8
 4658 0074 03       		.uleb128 0x3
 4659 0075 9B040000 		.4byte	.LASF9
 4660 0079 02       		.byte	0x2
 4661 007a 38       		.byte	0x38
 4662 007b 7F000000 		.4byte	0x7f
 4663 007f 02       		.uleb128 0x2
 4664 0080 04       		.byte	0x4
 4665 0081 07       		.byte	0x7
 4666 0082 06060000 		.4byte	.LASF10
 4667 0086 02       		.uleb128 0x2
 4668 0087 08       		.byte	0x8
 4669 0088 05       		.byte	0x5
 4670 0089 B9020000 		.4byte	.LASF11
 4671 008d 02       		.uleb128 0x2
 4672 008e 08       		.byte	0x8
 4673 008f 07       		.byte	0x7
 4674 0090 DD010000 		.4byte	.LASF12
 4675 0094 04       		.uleb128 0x4
 4676 0095 04       		.byte	0x4
 4677 0096 05       		.byte	0x5
 4678 0097 696E7400 		.ascii	"int\000"
 4679 009b 02       		.uleb128 0x2
 4680 009c 04       		.byte	0x4
 4681 009d 07       		.byte	0x7
 4682 009e C2050000 		.4byte	.LASF13
 4683 00a2 03       		.uleb128 0x3
 4684 00a3 7E0E0000 		.4byte	.LASF14
 4685 00a7 03       		.byte	0x3
 4686 00a8 2A       		.byte	0x2a
 4687 00a9 2C000000 		.4byte	0x2c
ARM GAS  /tmp/ccBklucm.s 			page 84


 4688 00ad 03       		.uleb128 0x3
 4689 00ae B1020000 		.4byte	.LASF15
 4690 00b2 03       		.byte	0x3
 4691 00b3 35       		.byte	0x35
 4692 00b4 3E000000 		.4byte	0x3e
 4693 00b8 03       		.uleb128 0x3
 4694 00b9 E3030000 		.4byte	.LASF16
 4695 00bd 03       		.byte	0x3
 4696 00be 36       		.byte	0x36
 4697 00bf 50000000 		.4byte	0x50
 4698 00c3 03       		.uleb128 0x3
 4699 00c4 B90A0000 		.4byte	.LASF17
 4700 00c8 03       		.byte	0x3
 4701 00c9 41       		.byte	0x41
 4702 00ca 62000000 		.4byte	0x62
 4703 00ce 03       		.uleb128 0x3
 4704 00cf D10C0000 		.4byte	.LASF18
 4705 00d3 03       		.byte	0x3
 4706 00d4 42       		.byte	0x42
 4707 00d5 74000000 		.4byte	0x74
 4708 00d9 05       		.uleb128 0x5
 4709 00da 01       		.byte	0x1
 4710 00db 04       		.byte	0x4
 4711 00dc 57       		.byte	0x57
 4712 00dd EE000000 		.4byte	0xee
 4713 00e1 06       		.uleb128 0x6
 4714 00e2 31070000 		.4byte	.LASF19
 4715 00e6 00       		.sleb128 0
 4716 00e7 06       		.uleb128 0x6
 4717 00e8 69040000 		.4byte	.LASF20
 4718 00ec 01       		.sleb128 1
 4719 00ed 00       		.byte	0
 4720 00ee 03       		.uleb128 0x3
 4721 00ef 4A0A0000 		.4byte	.LASF21
 4722 00f3 04       		.byte	0x4
 4723 00f4 57       		.byte	0x57
 4724 00f5 D9000000 		.4byte	0xd9
 4725 00f9 05       		.uleb128 0x5
 4726 00fa 01       		.byte	0x1
 4727 00fb 04       		.byte	0x4
 4728 00fc 5C       		.byte	0x5c
 4729 00fd 0E010000 		.4byte	0x10e
 4730 0101 06       		.uleb128 0x6
 4731 0102 CD010000 		.4byte	.LASF22
 4732 0106 00       		.sleb128 0
 4733 0107 06       		.uleb128 0x6
 4734 0108 4B060000 		.4byte	.LASF23
 4735 010c 01       		.sleb128 1
 4736 010d 00       		.byte	0
 4737 010e 03       		.uleb128 0x3
 4738 010f 880C0000 		.4byte	.LASF24
 4739 0113 04       		.byte	0x4
 4740 0114 5C       		.byte	0x5c
 4741 0115 F9000000 		.4byte	0xf9
 4742 0119 05       		.uleb128 0x5
 4743 011a 01       		.byte	0x1
 4744 011b 04       		.byte	0x4
ARM GAS  /tmp/ccBklucm.s 			page 85


 4745 011c 6A       		.byte	0x6a
 4746 011d 2E010000 		.4byte	0x12e
 4747 0121 06       		.uleb128 0x6
 4748 0122 190D0000 		.4byte	.LASF25
 4749 0126 00       		.sleb128 0
 4750 0127 06       		.uleb128 0x6
 4751 0128 940B0000 		.4byte	.LASF26
 4752 012c 01       		.sleb128 1
 4753 012d 00       		.byte	0
 4754 012e 03       		.uleb128 0x3
 4755 012f 0D0B0000 		.4byte	.LASF27
 4756 0133 04       		.byte	0x4
 4757 0134 6D       		.byte	0x6d
 4758 0135 19010000 		.4byte	0x119
 4759 0139 05       		.uleb128 0x5
 4760 013a 01       		.byte	0x1
 4761 013b 04       		.byte	0x4
 4762 013c 75       		.byte	0x75
 4763 013d 68010000 		.4byte	0x168
 4764 0141 06       		.uleb128 0x6
 4765 0142 ED0D0000 		.4byte	.LASF28
 4766 0146 00       		.sleb128 0
 4767 0147 06       		.uleb128 0x6
 4768 0148 C1070000 		.4byte	.LASF29
 4769 014c 10       		.sleb128 16
 4770 014d 06       		.uleb128 0x6
 4771 014e 24020000 		.4byte	.LASF30
 4772 0152 20       		.sleb128 32
 4773 0153 06       		.uleb128 0x6
 4774 0154 F4010000 		.4byte	.LASF31
 4775 0158 30       		.sleb128 48
 4776 0159 06       		.uleb128 0x6
 4777 015a 830B0000 		.4byte	.LASF32
 4778 015e C000     		.sleb128 64
 4779 0160 06       		.uleb128 0x6
 4780 0161 D0080000 		.4byte	.LASF33
 4781 0165 D000     		.sleb128 80
 4782 0167 00       		.byte	0
 4783 0168 03       		.uleb128 0x3
 4784 0169 BE010000 		.4byte	.LASF34
 4785 016d 04       		.byte	0x4
 4786 016e 7D       		.byte	0x7d
 4787 016f 39010000 		.4byte	0x139
 4788 0173 05       		.uleb128 0x5
 4789 0174 01       		.byte	0x1
 4790 0175 04       		.byte	0x4
 4791 0176 86       		.byte	0x86
 4792 0177 88010000 		.4byte	0x188
 4793 017b 06       		.uleb128 0x6
 4794 017c D3020000 		.4byte	.LASF35
 4795 0180 00       		.sleb128 0
 4796 0181 06       		.uleb128 0x6
 4797 0182 9A0A0000 		.4byte	.LASF36
 4798 0186 04       		.sleb128 4
 4799 0187 00       		.byte	0
 4800 0188 03       		.uleb128 0x3
 4801 0189 E1080000 		.4byte	.LASF37
ARM GAS  /tmp/ccBklucm.s 			page 86


 4802 018d 04       		.byte	0x4
 4803 018e 8A       		.byte	0x8a
 4804 018f 73010000 		.4byte	0x173
 4805 0193 05       		.uleb128 0x5
 4806 0194 01       		.byte	0x1
 4807 0195 04       		.byte	0x4
 4808 0196 93       		.byte	0x93
 4809 0197 A8010000 		.4byte	0x1a8
 4810 019b 06       		.uleb128 0x6
 4811 019c A5060000 		.4byte	.LASF38
 4812 01a0 00       		.sleb128 0
 4813 01a1 06       		.uleb128 0x6
 4814 01a2 31040000 		.4byte	.LASF39
 4815 01a6 02       		.sleb128 2
 4816 01a7 00       		.byte	0
 4817 01a8 03       		.uleb128 0x3
 4818 01a9 600F0000 		.4byte	.LASF40
 4819 01ad 04       		.byte	0x4
 4820 01ae 96       		.byte	0x96
 4821 01af 93010000 		.4byte	0x193
 4822 01b3 05       		.uleb128 0x5
 4823 01b4 01       		.byte	0x1
 4824 01b5 04       		.byte	0x4
 4825 01b6 9D       		.byte	0x9d
 4826 01b7 C8010000 		.4byte	0x1c8
 4827 01bb 06       		.uleb128 0x6
 4828 01bc 95090000 		.4byte	.LASF41
 4829 01c0 00       		.sleb128 0
 4830 01c1 06       		.uleb128 0x6
 4831 01c2 63070000 		.4byte	.LASF42
 4832 01c6 01       		.sleb128 1
 4833 01c7 00       		.byte	0
 4834 01c8 03       		.uleb128 0x3
 4835 01c9 220E0000 		.4byte	.LASF43
 4836 01cd 04       		.byte	0x4
 4837 01ce A0       		.byte	0xa0
 4838 01cf B3010000 		.4byte	0x1b3
 4839 01d3 05       		.uleb128 0x5
 4840 01d4 01       		.byte	0x1
 4841 01d5 04       		.byte	0x4
 4842 01d6 A9       		.byte	0xa9
 4843 01d7 E9010000 		.4byte	0x1e9
 4844 01db 06       		.uleb128 0x6
 4845 01dc 7E070000 		.4byte	.LASF44
 4846 01e0 00       		.sleb128 0
 4847 01e1 06       		.uleb128 0x6
 4848 01e2 01070000 		.4byte	.LASF45
 4849 01e6 8001     		.sleb128 128
 4850 01e8 00       		.byte	0
 4851 01e9 03       		.uleb128 0x3
 4852 01ea 9E010000 		.4byte	.LASF46
 4853 01ee 04       		.byte	0x4
 4854 01ef AC       		.byte	0xac
 4855 01f0 D3010000 		.4byte	0x1d3
 4856 01f4 05       		.uleb128 0x5
 4857 01f5 01       		.byte	0x1
 4858 01f6 04       		.byte	0x4
ARM GAS  /tmp/ccBklucm.s 			page 87


 4859 01f7 B3       		.byte	0xb3
 4860 01f8 0A020000 		.4byte	0x20a
 4861 01fc 06       		.uleb128 0x6
 4862 01fd DC0D0000 		.4byte	.LASF47
 4863 0201 00       		.sleb128 0
 4864 0202 06       		.uleb128 0x6
 4865 0203 D1090000 		.4byte	.LASF48
 4866 0207 C000     		.sleb128 64
 4867 0209 00       		.byte	0
 4868 020a 03       		.uleb128 0x3
 4869 020b 5D080000 		.4byte	.LASF49
 4870 020f 04       		.byte	0x4
 4871 0210 B6       		.byte	0xb6
 4872 0211 F4010000 		.4byte	0x1f4
 4873 0215 05       		.uleb128 0x5
 4874 0216 01       		.byte	0x1
 4875 0217 04       		.byte	0x4
 4876 0218 BE       		.byte	0xbe
 4877 0219 36020000 		.4byte	0x236
 4878 021d 06       		.uleb128 0x6
 4879 021e FA030000 		.4byte	.LASF50
 4880 0222 00       		.sleb128 0
 4881 0223 06       		.uleb128 0x6
 4882 0224 140A0000 		.4byte	.LASF51
 4883 0228 01       		.sleb128 1
 4884 0229 06       		.uleb128 0x6
 4885 022a CE0D0000 		.4byte	.LASF52
 4886 022e 02       		.sleb128 2
 4887 022f 06       		.uleb128 0x6
 4888 0230 54030000 		.4byte	.LASF53
 4889 0234 03       		.sleb128 3
 4890 0235 00       		.byte	0
 4891 0236 03       		.uleb128 0x3
 4892 0237 77040000 		.4byte	.LASF54
 4893 023b 04       		.byte	0x4
 4894 023c C3       		.byte	0xc3
 4895 023d 15020000 		.4byte	0x215
 4896 0241 07       		.uleb128 0x7
 4897 0242 04       		.byte	0x4
 4898 0243 04       		.byte	0x4
 4899 0244 CD       		.byte	0xcd
 4900 0245 77020000 		.4byte	0x277
 4901 0249 08       		.uleb128 0x8
 4902 024a 504800   		.ascii	"PH\000"
 4903 024d 04       		.byte	0x4
 4904 024e CF       		.byte	0xcf
 4905 024f A2000000 		.4byte	0xa2
 4906 0253 00       		.byte	0
 4907 0254 08       		.uleb128 0x8
 4908 0255 504C00   		.ascii	"PL\000"
 4909 0258 04       		.byte	0x4
 4910 0259 D0       		.byte	0xd0
 4911 025a A2000000 		.4byte	0xa2
 4912 025e 01       		.byte	0x1
 4913 025f 08       		.uleb128 0x8
 4914 0260 494100   		.ascii	"IA\000"
 4915 0263 04       		.byte	0x4
ARM GAS  /tmp/ccBklucm.s 			page 88


 4916 0264 D1       		.byte	0xd1
 4917 0265 A2000000 		.4byte	0xa2
 4918 0269 02       		.byte	0x2
 4919 026a 09       		.uleb128 0x9
 4920 026b A6070000 		.4byte	.LASF55
 4921 026f 04       		.byte	0x4
 4922 0270 D2       		.byte	0xd2
 4923 0271 A2000000 		.4byte	0xa2
 4924 0275 03       		.byte	0x3
 4925 0276 00       		.byte	0
 4926 0277 03       		.uleb128 0x3
 4927 0278 230A0000 		.4byte	.LASF56
 4928 027c 04       		.byte	0x4
 4929 027d D3       		.byte	0xd3
 4930 027e 41020000 		.4byte	0x241
 4931 0282 07       		.uleb128 0x7
 4932 0283 04       		.byte	0x4
 4933 0284 04       		.byte	0x4
 4934 0285 D9       		.byte	0xd9
 4935 0286 BB020000 		.4byte	0x2bb
 4936 028a 09       		.uleb128 0x9
 4937 028b 6F060000 		.4byte	.LASF57
 4938 028f 04       		.byte	0x4
 4939 0290 DB       		.byte	0xdb
 4940 0291 A2000000 		.4byte	0xa2
 4941 0295 00       		.byte	0
 4942 0296 09       		.uleb128 0x9
 4943 0297 8B0E0000 		.4byte	.LASF58
 4944 029b 04       		.byte	0x4
 4945 029c DC       		.byte	0xdc
 4946 029d A2000000 		.4byte	0xa2
 4947 02a1 01       		.byte	0x1
 4948 02a2 09       		.uleb128 0x9
 4949 02a3 72010000 		.4byte	.LASF59
 4950 02a7 04       		.byte	0x4
 4951 02a8 DD       		.byte	0xdd
 4952 02a9 A2000000 		.4byte	0xa2
 4953 02ad 02       		.byte	0x2
 4954 02ae 09       		.uleb128 0x9
 4955 02af 94060000 		.4byte	.LASF60
 4956 02b3 04       		.byte	0x4
 4957 02b4 DE       		.byte	0xde
 4958 02b5 A2000000 		.4byte	0xa2
 4959 02b9 03       		.byte	0x3
 4960 02ba 00       		.byte	0
 4961 02bb 03       		.uleb128 0x3
 4962 02bc 81030000 		.4byte	.LASF61
 4963 02c0 04       		.byte	0x4
 4964 02c1 DF       		.byte	0xdf
 4965 02c2 82020000 		.4byte	0x282
 4966 02c6 05       		.uleb128 0x5
 4967 02c7 01       		.byte	0x1
 4968 02c8 04       		.byte	0x4
 4969 02c9 E6       		.byte	0xe6
 4970 02ca DB020000 		.4byte	0x2db
 4971 02ce 06       		.uleb128 0x6
 4972 02cf 9D0F0000 		.4byte	.LASF62
ARM GAS  /tmp/ccBklucm.s 			page 89


 4973 02d3 00       		.sleb128 0
 4974 02d4 06       		.uleb128 0x6
 4975 02d5 13070000 		.4byte	.LASF63
 4976 02d9 20       		.sleb128 32
 4977 02da 00       		.byte	0
 4978 02db 03       		.uleb128 0x3
 4979 02dc A0050000 		.4byte	.LASF64
 4980 02e0 04       		.byte	0x4
 4981 02e1 E9       		.byte	0xe9
 4982 02e2 C6020000 		.4byte	0x2c6
 4983 02e6 05       		.uleb128 0x5
 4984 02e7 01       		.byte	0x1
 4985 02e8 04       		.byte	0x4
 4986 02e9 F2       		.byte	0xf2
 4987 02ea 17030000 		.4byte	0x317
 4988 02ee 06       		.uleb128 0x6
 4989 02ef 500C0000 		.4byte	.LASF65
 4990 02f3 00       		.sleb128 0
 4991 02f4 06       		.uleb128 0x6
 4992 02f5 BC0D0000 		.4byte	.LASF66
 4993 02f9 20       		.sleb128 32
 4994 02fa 06       		.uleb128 0x6
 4995 02fb E1020000 		.4byte	.LASF67
 4996 02ff C000     		.sleb128 64
 4997 0301 06       		.uleb128 0x6
 4998 0302 58090000 		.4byte	.LASF68
 4999 0306 E000     		.sleb128 96
 5000 0308 06       		.uleb128 0x6
 5001 0309 35020000 		.4byte	.LASF69
 5002 030d 8001     		.sleb128 128
 5003 030f 06       		.uleb128 0x6
 5004 0310 E60E0000 		.4byte	.LASF70
 5005 0314 E001     		.sleb128 224
 5006 0316 00       		.byte	0
 5007 0317 03       		.uleb128 0x3
 5008 0318 AA030000 		.4byte	.LASF71
 5009 031c 04       		.byte	0x4
 5010 031d F9       		.byte	0xf9
 5011 031e E6020000 		.4byte	0x2e6
 5012 0322 0A       		.uleb128 0xa
 5013 0323 05       		.byte	0x5
 5014 0324 04       		.byte	0x4
 5015 0325 0301     		.2byte	0x103
 5016 0327 6D030000 		.4byte	0x36d
 5017 032b 0B       		.uleb128 0xb
 5018 032c DA0C0000 		.4byte	.LASF72
 5019 0330 04       		.byte	0x4
 5020 0331 0501     		.2byte	0x105
 5021 0333 A2000000 		.4byte	0xa2
 5022 0337 00       		.byte	0
 5023 0338 0B       		.uleb128 0xb
 5024 0339 C5080000 		.4byte	.LASF73
 5025 033d 04       		.byte	0x4
 5026 033e 0601     		.2byte	0x106
 5027 0340 A2000000 		.4byte	0xa2
 5028 0344 01       		.byte	0x1
 5029 0345 0B       		.uleb128 0xb
ARM GAS  /tmp/ccBklucm.s 			page 90


 5030 0346 97030000 		.4byte	.LASF74
 5031 034a 04       		.byte	0x4
 5032 034b 0701     		.2byte	0x107
 5033 034d A2000000 		.4byte	0xa2
 5034 0351 02       		.byte	0x2
 5035 0352 0B       		.uleb128 0xb
 5036 0353 040B0000 		.4byte	.LASF75
 5037 0357 04       		.byte	0x4
 5038 0358 0801     		.2byte	0x108
 5039 035a A2000000 		.4byte	0xa2
 5040 035e 03       		.byte	0x3
 5041 035f 0B       		.uleb128 0xb
 5042 0360 3B000000 		.4byte	.LASF76
 5043 0364 04       		.byte	0x4
 5044 0365 0901     		.2byte	0x109
 5045 0367 A2000000 		.4byte	0xa2
 5046 036b 04       		.byte	0x4
 5047 036c 00       		.byte	0
 5048 036d 0C       		.uleb128 0xc
 5049 036e 7F090000 		.4byte	.LASF77
 5050 0372 04       		.byte	0x4
 5051 0373 0A01     		.2byte	0x10a
 5052 0375 22030000 		.4byte	0x322
 5053 0379 0A       		.uleb128 0xa
 5054 037a 07       		.byte	0x7
 5055 037b 04       		.byte	0x4
 5056 037c 1101     		.2byte	0x111
 5057 037e DE030000 		.4byte	0x3de
 5058 0382 0B       		.uleb128 0xb
 5059 0383 B8050000 		.4byte	.LASF78
 5060 0387 04       		.byte	0x4
 5061 0388 1301     		.2byte	0x113
 5062 038a 2E010000 		.4byte	0x12e
 5063 038e 00       		.byte	0
 5064 038f 0B       		.uleb128 0xb
 5065 0390 8E0F0000 		.4byte	.LASF79
 5066 0394 04       		.byte	0x4
 5067 0395 1401     		.2byte	0x114
 5068 0397 68010000 		.4byte	0x168
 5069 039b 01       		.byte	0x1
 5070 039c 0D       		.uleb128 0xd
 5071 039d 42445500 		.ascii	"BDU\000"
 5072 03a1 04       		.byte	0x4
 5073 03a2 1601     		.2byte	0x116
 5074 03a4 A8010000 		.4byte	0x1a8
 5075 03a8 02       		.byte	0x2
 5076 03a9 0B       		.uleb128 0xb
 5077 03aa C4030000 		.4byte	.LASF80
 5078 03ae 04       		.byte	0x4
 5079 03af 1701     		.2byte	0x117
 5080 03b1 0E010000 		.4byte	0x10e
 5081 03b5 03       		.byte	0x3
 5082 03b6 0B       		.uleb128 0xb
 5083 03b7 E70B0000 		.4byte	.LASF81
 5084 03bb 04       		.byte	0x4
 5085 03bc 1801     		.2byte	0x118
 5086 03be 88010000 		.4byte	0x188
ARM GAS  /tmp/ccBklucm.s 			page 91


 5087 03c2 04       		.byte	0x4
 5088 03c3 0D       		.uleb128 0xd
 5089 03c4 53696D00 		.ascii	"Sim\000"
 5090 03c8 04       		.byte	0x4
 5091 03c9 1901     		.2byte	0x119
 5092 03cb C8010000 		.4byte	0x1c8
 5093 03cf 05       		.byte	0x5
 5094 03d0 0B       		.uleb128 0xb
 5095 03d1 AF050000 		.4byte	.LASF82
 5096 03d5 04       		.byte	0x4
 5097 03d6 1B01     		.2byte	0x11b
 5098 03d8 0E010000 		.4byte	0x10e
 5099 03dc 06       		.byte	0x6
 5100 03dd 00       		.byte	0
 5101 03de 0C       		.uleb128 0xc
 5102 03df D3060000 		.4byte	.LASF83
 5103 03e3 04       		.byte	0x4
 5104 03e4 1C01     		.2byte	0x11c
 5105 03e6 79030000 		.4byte	0x379
 5106 03ea 0A       		.uleb128 0xa
 5107 03eb 0C       		.byte	0xc
 5108 03ec 04       		.byte	0x4
 5109 03ed 2201     		.2byte	0x122
 5110 03ef 83040000 		.4byte	0x483
 5111 03f3 0B       		.uleb128 0xb
 5112 03f4 420A0000 		.4byte	.LASF84
 5113 03f8 04       		.byte	0x4
 5114 03f9 2401     		.2byte	0x124
 5115 03fb E9010000 		.4byte	0x1e9
 5116 03ff 00       		.byte	0
 5117 0400 0B       		.uleb128 0xb
 5118 0401 95040000 		.4byte	.LASF85
 5119 0405 04       		.byte	0x4
 5120 0406 2501     		.2byte	0x125
 5121 0408 0A020000 		.4byte	0x20a
 5122 040c 01       		.byte	0x1
 5123 040d 0B       		.uleb128 0xb
 5124 040e D50E0000 		.4byte	.LASF86
 5125 0412 04       		.byte	0x4
 5126 0413 2701     		.2byte	0x127
 5127 0415 36020000 		.4byte	0x236
 5128 0419 02       		.byte	0x2
 5129 041a 0B       		.uleb128 0xb
 5130 041b 080D0000 		.4byte	.LASF87
 5131 041f 04       		.byte	0x4
 5132 0420 2901     		.2byte	0x129
 5133 0422 0E010000 		.4byte	0x10e
 5134 0426 03       		.byte	0x3
 5135 0427 0B       		.uleb128 0xb
 5136 0428 040B0000 		.4byte	.LASF75
 5137 042c 04       		.byte	0x4
 5138 042d 2B01     		.2byte	0x12b
 5139 042f 0E010000 		.4byte	0x10e
 5140 0433 04       		.byte	0x4
 5141 0434 0B       		.uleb128 0xb
 5142 0435 3B000000 		.4byte	.LASF76
 5143 0439 04       		.byte	0x4
ARM GAS  /tmp/ccBklucm.s 			page 92


 5144 043a 2D01     		.2byte	0x12d
 5145 043c 0E010000 		.4byte	0x10e
 5146 0440 05       		.byte	0x5
 5147 0441 0B       		.uleb128 0xb
 5148 0442 97030000 		.4byte	.LASF74
 5149 0446 04       		.byte	0x4
 5150 0447 2F01     		.2byte	0x12f
 5151 0449 0E010000 		.4byte	0x10e
 5152 044d 06       		.byte	0x6
 5153 044e 0B       		.uleb128 0xb
 5154 044f 82010000 		.4byte	.LASF88
 5155 0453 04       		.byte	0x4
 5156 0454 3001     		.2byte	0x130
 5157 0456 0E010000 		.4byte	0x10e
 5158 045a 07       		.byte	0x7
 5159 045b 0B       		.uleb128 0xb
 5160 045c 140F0000 		.4byte	.LASF89
 5161 0460 04       		.byte	0x4
 5162 0461 3101     		.2byte	0x131
 5163 0463 AD000000 		.4byte	0xad
 5164 0467 08       		.byte	0x8
 5165 0468 0B       		.uleb128 0xb
 5166 0469 54080000 		.4byte	.LASF90
 5167 046d 04       		.byte	0x4
 5168 046e 3201     		.2byte	0x132
 5169 0470 0E010000 		.4byte	0x10e
 5170 0474 0A       		.byte	0xa
 5171 0475 0B       		.uleb128 0xb
 5172 0476 32000000 		.4byte	.LASF91
 5173 047a 04       		.byte	0x4
 5174 047b 3301     		.2byte	0x133
 5175 047d 0E010000 		.4byte	0x10e
 5176 0481 0B       		.byte	0xb
 5177 0482 00       		.byte	0
 5178 0483 0C       		.uleb128 0xc
 5179 0484 670B0000 		.4byte	.LASF92
 5180 0488 04       		.byte	0x4
 5181 0489 3401     		.2byte	0x134
 5182 048b EA030000 		.4byte	0x3ea
 5183 048f 0A       		.uleb128 0xa
 5184 0490 03       		.byte	0x3
 5185 0491 04       		.byte	0x4
 5186 0492 3901     		.2byte	0x139
 5187 0494 C0040000 		.4byte	0x4c0
 5188 0498 0B       		.uleb128 0xb
 5189 0499 3C070000 		.4byte	.LASF93
 5190 049d 04       		.byte	0x4
 5191 049e 3B01     		.2byte	0x13b
 5192 04a0 17030000 		.4byte	0x317
 5193 04a4 00       		.byte	0
 5194 04a5 0B       		.uleb128 0xb
 5195 04a6 2C0B0000 		.4byte	.LASF94
 5196 04aa 04       		.byte	0x4
 5197 04ab 3C01     		.2byte	0x13c
 5198 04ad 0E010000 		.4byte	0x10e
 5199 04b1 01       		.byte	0x1
 5200 04b2 0B       		.uleb128 0xb
ARM GAS  /tmp/ccBklucm.s 			page 93


 5201 04b3 87020000 		.4byte	.LASF95
 5202 04b7 04       		.byte	0x4
 5203 04b8 3D01     		.2byte	0x13d
 5204 04ba A2000000 		.4byte	0xa2
 5205 04be 02       		.byte	0x2
 5206 04bf 00       		.byte	0
 5207 04c0 0C       		.uleb128 0xc
 5208 04c1 52050000 		.4byte	.LASF96
 5209 04c5 04       		.byte	0x4
 5210 04c6 3E01     		.2byte	0x13e
 5211 04c8 8F040000 		.4byte	0x48f
 5212 04cc 0A       		.uleb128 0xa
 5213 04cd 08       		.byte	0x8
 5214 04ce 04       		.byte	0x4
 5215 04cf 4401     		.2byte	0x144
 5216 04d1 F0040000 		.4byte	0x4f0
 5217 04d5 0B       		.uleb128 0xb
 5218 04d6 350D0000 		.4byte	.LASF97
 5219 04da 04       		.byte	0x4
 5220 04db 4601     		.2byte	0x146
 5221 04dd AD000000 		.4byte	0xad
 5222 04e1 00       		.byte	0
 5223 04e2 0B       		.uleb128 0xb
 5224 04e3 D2030000 		.4byte	.LASF98
 5225 04e7 04       		.byte	0x4
 5226 04e8 4701     		.2byte	0x147
 5227 04ea C3000000 		.4byte	0xc3
 5228 04ee 04       		.byte	0x4
 5229 04ef 00       		.byte	0
 5230 04f0 0C       		.uleb128 0xc
 5231 04f1 FA020000 		.4byte	.LASF99
 5232 04f5 04       		.byte	0x4
 5233 04f6 4801     		.2byte	0x148
 5234 04f8 CC040000 		.4byte	0x4cc
 5235 04fc 0A       		.uleb128 0xa
 5236 04fd 03       		.byte	0x3
 5237 04fe 04       		.byte	0x4
 5238 04ff 4E01     		.2byte	0x14e
 5239 0501 2D050000 		.4byte	0x52d
 5240 0505 0B       		.uleb128 0xb
 5241 0506 9E0D0000 		.4byte	.LASF100
 5242 050a 04       		.byte	0x4
 5243 050b 5001     		.2byte	0x150
 5244 050d A2000000 		.4byte	0xa2
 5245 0511 00       		.byte	0
 5246 0512 0B       		.uleb128 0xb
 5247 0513 D7030000 		.4byte	.LASF101
 5248 0517 04       		.byte	0x4
 5249 0518 5101     		.2byte	0x151
 5250 051a A2000000 		.4byte	0xa2
 5251 051e 01       		.byte	0x1
 5252 051f 0B       		.uleb128 0xb
 5253 0520 DD030000 		.4byte	.LASF102
 5254 0524 04       		.byte	0x4
 5255 0525 5201     		.2byte	0x152
 5256 0527 A2000000 		.4byte	0xa2
 5257 052b 02       		.byte	0x2
ARM GAS  /tmp/ccBklucm.s 			page 94


 5258 052c 00       		.byte	0
 5259 052d 0C       		.uleb128 0xc
 5260 052e 340B0000 		.4byte	.LASF103
 5261 0532 04       		.byte	0x4
 5262 0533 5301     		.2byte	0x153
 5263 0535 FC040000 		.4byte	0x4fc
 5264 0539 0E       		.uleb128 0xe
 5265 053a 44030000 		.4byte	.LASF108
 5266 053e 01       		.byte	0x1
 5267 053f 5C       		.byte	0x5c
 5268 0540 EE000000 		.4byte	0xee
 5269 0544 00000000 		.4byte	.LFB0
 5270 0548 3A000000 		.4byte	.LFE0-.LFB0
 5271 054c 01       		.uleb128 0x1
 5272 054d 9C       		.byte	0x9c
 5273 054e 8B050000 		.4byte	0x58b
 5274 0552 0F       		.uleb128 0xf
 5275 0553 0D0F0000 		.4byte	.LASF104
 5276 0557 01       		.byte	0x1
 5277 0558 5C       		.byte	0x5c
 5278 0559 8B050000 		.4byte	0x58b
 5279 055d 02       		.uleb128 0x2
 5280 055e 91       		.byte	0x91
 5281 055f 74       		.sleb128 -12
 5282 0560 0F       		.uleb128 0xf
 5283 0561 C3060000 		.4byte	.LASF105
 5284 0565 01       		.byte	0x1
 5285 0566 5C       		.byte	0x5c
 5286 0567 A2000000 		.4byte	0xa2
 5287 056b 02       		.uleb128 0x2
 5288 056c 91       		.byte	0x91
 5289 056d 73       		.sleb128 -13
 5290 056e 0F       		.uleb128 0xf
 5291 056f EC030000 		.4byte	.LASF106
 5292 0573 01       		.byte	0x1
 5293 0574 5C       		.byte	0x5c
 5294 0575 B8000000 		.4byte	0xb8
 5295 0579 02       		.uleb128 0x2
 5296 057a 91       		.byte	0x91
 5297 057b 70       		.sleb128 -16
 5298 057c 0F       		.uleb128 0xf
 5299 057d 860E0000 		.4byte	.LASF107
 5300 0581 01       		.byte	0x1
 5301 0582 5C       		.byte	0x5c
 5302 0583 8D050000 		.4byte	0x58d
 5303 0587 02       		.uleb128 0x2
 5304 0588 91       		.byte	0x91
 5305 0589 6C       		.sleb128 -20
 5306 058a 00       		.byte	0
 5307 058b 10       		.uleb128 0x10
 5308 058c 04       		.byte	0x4
 5309 058d 11       		.uleb128 0x11
 5310 058e 04       		.byte	0x4
 5311 058f A2000000 		.4byte	0xa2
 5312 0593 0E       		.uleb128 0xe
 5313 0594 A50B0000 		.4byte	.LASF109
 5314 0598 01       		.byte	0x1
ARM GAS  /tmp/ccBklucm.s 			page 95


 5315 0599 6C       		.byte	0x6c
 5316 059a EE000000 		.4byte	0xee
 5317 059e 40000000 		.4byte	.LFB1
 5318 05a2 3A000000 		.4byte	.LFE1-.LFB1
 5319 05a6 01       		.uleb128 0x1
 5320 05a7 9C       		.byte	0x9c
 5321 05a8 E5050000 		.4byte	0x5e5
 5322 05ac 0F       		.uleb128 0xf
 5323 05ad 0D0F0000 		.4byte	.LASF104
 5324 05b1 01       		.byte	0x1
 5325 05b2 6C       		.byte	0x6c
 5326 05b3 8B050000 		.4byte	0x58b
 5327 05b7 02       		.uleb128 0x2
 5328 05b8 91       		.byte	0x91
 5329 05b9 74       		.sleb128 -12
 5330 05ba 0F       		.uleb128 0xf
 5331 05bb C3060000 		.4byte	.LASF105
 5332 05bf 01       		.byte	0x1
 5333 05c0 6C       		.byte	0x6c
 5334 05c1 A2000000 		.4byte	0xa2
 5335 05c5 02       		.uleb128 0x2
 5336 05c6 91       		.byte	0x91
 5337 05c7 73       		.sleb128 -13
 5338 05c8 0F       		.uleb128 0xf
 5339 05c9 15020000 		.4byte	.LASF110
 5340 05cd 01       		.byte	0x1
 5341 05ce 6C       		.byte	0x6c
 5342 05cf B8000000 		.4byte	0xb8
 5343 05d3 02       		.uleb128 0x2
 5344 05d4 91       		.byte	0x91
 5345 05d5 70       		.sleb128 -16
 5346 05d6 0F       		.uleb128 0xf
 5347 05d7 860E0000 		.4byte	.LASF107
 5348 05db 01       		.byte	0x1
 5349 05dc 6C       		.byte	0x6c
 5350 05dd 8D050000 		.4byte	0x58d
 5351 05e1 02       		.uleb128 0x2
 5352 05e2 91       		.byte	0x91
 5353 05e3 6C       		.sleb128 -20
 5354 05e4 00       		.byte	0
 5355 05e5 0E       		.uleb128 0xe
 5356 05e6 0E0C0000 		.4byte	.LASF111
 5357 05ea 01       		.byte	0x1
 5358 05eb 7A       		.byte	0x7a
 5359 05ec EE000000 		.4byte	0xee
 5360 05f0 80000000 		.4byte	.LFB2
 5361 05f4 28000000 		.4byte	.LFE2-.LFB2
 5362 05f8 01       		.uleb128 0x1
 5363 05f9 9C       		.byte	0x9c
 5364 05fa 1B060000 		.4byte	0x61b
 5365 05fe 0F       		.uleb128 0xf
 5366 05ff 0D0F0000 		.4byte	.LASF104
 5367 0603 01       		.byte	0x1
 5368 0604 7A       		.byte	0x7a
 5369 0605 8B050000 		.4byte	0x58b
 5370 0609 02       		.uleb128 0x2
 5371 060a 91       		.byte	0x91
ARM GAS  /tmp/ccBklucm.s 			page 96


 5372 060b 74       		.sleb128 -12
 5373 060c 0F       		.uleb128 0xf
 5374 060d 28070000 		.4byte	.LASF112
 5375 0611 01       		.byte	0x1
 5376 0612 7A       		.byte	0x7a
 5377 0613 8D050000 		.4byte	0x58d
 5378 0617 02       		.uleb128 0x2
 5379 0618 91       		.byte	0x91
 5380 0619 70       		.sleb128 -16
 5381 061a 00       		.byte	0
 5382 061b 12       		.uleb128 0x12
 5383 061c 47040000 		.4byte	.LASF113
 5384 0620 01       		.byte	0x1
 5385 0621 88       		.byte	0x88
 5386 0622 EE000000 		.4byte	0xee
 5387 0626 B0000000 		.4byte	.LFB3
 5388 062a 1E000000 		.4byte	.LFE3-.LFB3
 5389 062e 01       		.uleb128 0x1
 5390 062f 9C       		.byte	0x9c
 5391 0630 43060000 		.4byte	0x643
 5392 0634 0F       		.uleb128 0xf
 5393 0635 CB060000 		.4byte	.LASF114
 5394 0639 01       		.byte	0x1
 5395 063a 88       		.byte	0x88
 5396 063b 43060000 		.4byte	0x643
 5397 063f 02       		.uleb128 0x2
 5398 0640 91       		.byte	0x91
 5399 0641 7C       		.sleb128 -4
 5400 0642 00       		.byte	0
 5401 0643 11       		.uleb128 0x11
 5402 0644 04       		.byte	0x4
 5403 0645 2D050000 		.4byte	0x52d
 5404 0649 0E       		.uleb128 0xe
 5405 064a E3090000 		.4byte	.LASF115
 5406 064e 01       		.byte	0x1
 5407 064f 98       		.byte	0x98
 5408 0650 EE000000 		.4byte	0xee
 5409 0654 D0000000 		.4byte	.LFB4
 5410 0658 64000000 		.4byte	.LFE4-.LFB4
 5411 065c 01       		.uleb128 0x1
 5412 065d 9C       		.byte	0x9c
 5413 065e 8D060000 		.4byte	0x68d
 5414 0662 0F       		.uleb128 0xf
 5415 0663 0D0F0000 		.4byte	.LASF104
 5416 0667 01       		.byte	0x1
 5417 0668 98       		.byte	0x98
 5418 0669 8B050000 		.4byte	0x58b
 5419 066d 02       		.uleb128 0x2
 5420 066e 91       		.byte	0x91
 5421 066f 6C       		.sleb128 -20
 5422 0670 0F       		.uleb128 0xf
 5423 0671 0D0D0000 		.4byte	.LASF116
 5424 0675 01       		.byte	0x1
 5425 0676 98       		.byte	0x98
 5426 0677 2E010000 		.4byte	0x12e
 5427 067b 02       		.uleb128 0x2
 5428 067c 91       		.byte	0x91
ARM GAS  /tmp/ccBklucm.s 			page 97


 5429 067d 6B       		.sleb128 -21
 5430 067e 13       		.uleb128 0x13
 5431 067f 746D7000 		.ascii	"tmp\000"
 5432 0683 01       		.byte	0x1
 5433 0684 9A       		.byte	0x9a
 5434 0685 A2000000 		.4byte	0xa2
 5435 0689 02       		.uleb128 0x2
 5436 068a 91       		.byte	0x91
 5437 068b 77       		.sleb128 -9
 5438 068c 00       		.byte	0
 5439 068d 0E       		.uleb128 0xe
 5440 068e 81080000 		.4byte	.LASF117
 5441 0692 01       		.byte	0x1
 5442 0693 B0       		.byte	0xb0
 5443 0694 EE000000 		.4byte	0xee
 5444 0698 40010000 		.4byte	.LFB5
 5445 069c 38000000 		.4byte	.LFE5-.LFB5
 5446 06a0 01       		.uleb128 0x1
 5447 06a1 9C       		.byte	0x9c
 5448 06a2 D1060000 		.4byte	0x6d1
 5449 06a6 0F       		.uleb128 0xf
 5450 06a7 0D0F0000 		.4byte	.LASF104
 5451 06ab 01       		.byte	0x1
 5452 06ac B0       		.byte	0xb0
 5453 06ad 8B050000 		.4byte	0x58b
 5454 06b1 02       		.uleb128 0x2
 5455 06b2 91       		.byte	0x91
 5456 06b3 6C       		.sleb128 -20
 5457 06b4 0F       		.uleb128 0xf
 5458 06b5 0D0D0000 		.4byte	.LASF116
 5459 06b9 01       		.byte	0x1
 5460 06ba B0       		.byte	0xb0
 5461 06bb D1060000 		.4byte	0x6d1
 5462 06bf 02       		.uleb128 0x2
 5463 06c0 91       		.byte	0x91
 5464 06c1 68       		.sleb128 -24
 5465 06c2 13       		.uleb128 0x13
 5466 06c3 746D7000 		.ascii	"tmp\000"
 5467 06c7 01       		.byte	0x1
 5468 06c8 B2       		.byte	0xb2
 5469 06c9 A2000000 		.4byte	0xa2
 5470 06cd 02       		.uleb128 0x2
 5471 06ce 91       		.byte	0x91
 5472 06cf 77       		.sleb128 -9
 5473 06d0 00       		.byte	0
 5474 06d1 11       		.uleb128 0x11
 5475 06d2 04       		.byte	0x4
 5476 06d3 2E010000 		.4byte	0x12e
 5477 06d7 0E       		.uleb128 0xe
 5478 06d8 A6040000 		.4byte	.LASF118
 5479 06dc 01       		.byte	0x1
 5480 06dd C3       		.byte	0xc3
 5481 06de EE000000 		.4byte	0xee
 5482 06e2 80010000 		.4byte	.LFB6
 5483 06e6 64000000 		.4byte	.LFE6-.LFB6
 5484 06ea 01       		.uleb128 0x1
 5485 06eb 9C       		.byte	0x9c
ARM GAS  /tmp/ccBklucm.s 			page 98


 5486 06ec 1B070000 		.4byte	0x71b
 5487 06f0 0F       		.uleb128 0xf
 5488 06f1 0D0F0000 		.4byte	.LASF104
 5489 06f5 01       		.byte	0x1
 5490 06f6 C3       		.byte	0xc3
 5491 06f7 8B050000 		.4byte	0x58b
 5492 06fb 02       		.uleb128 0x2
 5493 06fc 91       		.byte	0x91
 5494 06fd 6C       		.sleb128 -20
 5495 06fe 14       		.uleb128 0x14
 5496 06ff 6F647200 		.ascii	"odr\000"
 5497 0703 01       		.byte	0x1
 5498 0704 C3       		.byte	0xc3
 5499 0705 68010000 		.4byte	0x168
 5500 0709 02       		.uleb128 0x2
 5501 070a 91       		.byte	0x91
 5502 070b 6B       		.sleb128 -21
 5503 070c 13       		.uleb128 0x13
 5504 070d 746D7000 		.ascii	"tmp\000"
 5505 0711 01       		.byte	0x1
 5506 0712 C5       		.byte	0xc5
 5507 0713 A2000000 		.4byte	0xa2
 5508 0717 02       		.uleb128 0x2
 5509 0718 91       		.byte	0x91
 5510 0719 77       		.sleb128 -9
 5511 071a 00       		.byte	0
 5512 071b 0E       		.uleb128 0xe
 5513 071c 05020000 		.4byte	.LASF119
 5514 0720 01       		.byte	0x1
 5515 0721 DC       		.byte	0xdc
 5516 0722 EE000000 		.4byte	0xee
 5517 0726 F0010000 		.4byte	.LFB7
 5518 072a 38000000 		.4byte	.LFE7-.LFB7
 5519 072e 01       		.uleb128 0x1
 5520 072f 9C       		.byte	0x9c
 5521 0730 5F070000 		.4byte	0x75f
 5522 0734 0F       		.uleb128 0xf
 5523 0735 0D0F0000 		.4byte	.LASF104
 5524 0739 01       		.byte	0x1
 5525 073a DC       		.byte	0xdc
 5526 073b 8B050000 		.4byte	0x58b
 5527 073f 02       		.uleb128 0x2
 5528 0740 91       		.byte	0x91
 5529 0741 6C       		.sleb128 -20
 5530 0742 14       		.uleb128 0x14
 5531 0743 6F647200 		.ascii	"odr\000"
 5532 0747 01       		.byte	0x1
 5533 0748 DC       		.byte	0xdc
 5534 0749 5F070000 		.4byte	0x75f
 5535 074d 02       		.uleb128 0x2
 5536 074e 91       		.byte	0x91
 5537 074f 68       		.sleb128 -24
 5538 0750 13       		.uleb128 0x13
 5539 0751 746D7000 		.ascii	"tmp\000"
 5540 0755 01       		.byte	0x1
 5541 0756 DE       		.byte	0xde
 5542 0757 A2000000 		.4byte	0xa2
ARM GAS  /tmp/ccBklucm.s 			page 99


 5543 075b 02       		.uleb128 0x2
 5544 075c 91       		.byte	0x91
 5545 075d 77       		.sleb128 -9
 5546 075e 00       		.byte	0
 5547 075f 11       		.uleb128 0x11
 5548 0760 04       		.byte	0x4
 5549 0761 68010000 		.4byte	0x168
 5550 0765 0E       		.uleb128 0xe
 5551 0766 4D0B0000 		.4byte	.LASF120
 5552 076a 01       		.byte	0x1
 5553 076b EE       		.byte	0xee
 5554 076c EE000000 		.4byte	0xee
 5555 0770 30020000 		.4byte	.LFB8
 5556 0774 6C000000 		.4byte	.LFE8-.LFB8
 5557 0778 01       		.uleb128 0x1
 5558 0779 9C       		.byte	0x9c
 5559 077a A9070000 		.4byte	0x7a9
 5560 077e 0F       		.uleb128 0xf
 5561 077f 0D0F0000 		.4byte	.LASF104
 5562 0783 01       		.byte	0x1
 5563 0784 EE       		.byte	0xee
 5564 0785 8B050000 		.4byte	0x58b
 5565 0789 02       		.uleb128 0x2
 5566 078a 91       		.byte	0x91
 5567 078b 6C       		.sleb128 -20
 5568 078c 0F       		.uleb128 0xf
 5569 078d 14030000 		.4byte	.LASF121
 5570 0791 01       		.byte	0x1
 5571 0792 EE       		.byte	0xee
 5572 0793 0E010000 		.4byte	0x10e
 5573 0797 02       		.uleb128 0x2
 5574 0798 91       		.byte	0x91
 5575 0799 6B       		.sleb128 -21
 5576 079a 13       		.uleb128 0x13
 5577 079b 746D7000 		.ascii	"tmp\000"
 5578 079f 01       		.byte	0x1
 5579 07a0 F0       		.byte	0xf0
 5580 07a1 A2000000 		.4byte	0xa2
 5581 07a5 02       		.uleb128 0x2
 5582 07a6 91       		.byte	0x91
 5583 07a7 77       		.sleb128 -9
 5584 07a8 00       		.byte	0
 5585 07a9 15       		.uleb128 0x15
 5586 07aa 24030000 		.4byte	.LASF122
 5587 07ae 01       		.byte	0x1
 5588 07af 0901     		.2byte	0x109
 5589 07b1 EE000000 		.4byte	0xee
 5590 07b5 A0020000 		.4byte	.LFB9
 5591 07b9 64000000 		.4byte	.LFE9-.LFB9
 5592 07bd 01       		.uleb128 0x1
 5593 07be 9C       		.byte	0x9c
 5594 07bf F1070000 		.4byte	0x7f1
 5595 07c3 16       		.uleb128 0x16
 5596 07c4 0D0F0000 		.4byte	.LASF104
 5597 07c8 01       		.byte	0x1
 5598 07c9 0901     		.2byte	0x109
 5599 07cb 8B050000 		.4byte	0x58b
ARM GAS  /tmp/ccBklucm.s 			page 100


 5600 07cf 02       		.uleb128 0x2
 5601 07d0 91       		.byte	0x91
 5602 07d1 6C       		.sleb128 -20
 5603 07d2 16       		.uleb128 0x16
 5604 07d3 120E0000 		.4byte	.LASF123
 5605 07d7 01       		.byte	0x1
 5606 07d8 0901     		.2byte	0x109
 5607 07da 88010000 		.4byte	0x188
 5608 07de 02       		.uleb128 0x2
 5609 07df 91       		.byte	0x91
 5610 07e0 6B       		.sleb128 -21
 5611 07e1 17       		.uleb128 0x17
 5612 07e2 746D7000 		.ascii	"tmp\000"
 5613 07e6 01       		.byte	0x1
 5614 07e7 0C01     		.2byte	0x10c
 5615 07e9 A2000000 		.4byte	0xa2
 5616 07ed 02       		.uleb128 0x2
 5617 07ee 91       		.byte	0x91
 5618 07ef 77       		.sleb128 -9
 5619 07f0 00       		.byte	0
 5620 07f1 15       		.uleb128 0x15
 5621 07f2 A90A0000 		.4byte	.LASF124
 5622 07f6 01       		.byte	0x1
 5623 07f7 2901     		.2byte	0x129
 5624 07f9 EE000000 		.4byte	0xee
 5625 07fd 10030000 		.4byte	.LFB10
 5626 0801 64000000 		.4byte	.LFE10-.LFB10
 5627 0805 01       		.uleb128 0x1
 5628 0806 9C       		.byte	0x9c
 5629 0807 39080000 		.4byte	0x839
 5630 080b 16       		.uleb128 0x16
 5631 080c 0D0F0000 		.4byte	.LASF104
 5632 0810 01       		.byte	0x1
 5633 0811 2901     		.2byte	0x129
 5634 0813 8B050000 		.4byte	0x58b
 5635 0817 02       		.uleb128 0x2
 5636 0818 91       		.byte	0x91
 5637 0819 6C       		.sleb128 -20
 5638 081a 18       		.uleb128 0x18
 5639 081b 62647500 		.ascii	"bdu\000"
 5640 081f 01       		.byte	0x1
 5641 0820 2901     		.2byte	0x129
 5642 0822 A8010000 		.4byte	0x1a8
 5643 0826 02       		.uleb128 0x2
 5644 0827 91       		.byte	0x91
 5645 0828 6B       		.sleb128 -21
 5646 0829 17       		.uleb128 0x17
 5647 082a 746D7000 		.ascii	"tmp\000"
 5648 082e 01       		.byte	0x1
 5649 082f 2B01     		.2byte	0x12b
 5650 0831 A2000000 		.4byte	0xa2
 5651 0835 02       		.uleb128 0x2
 5652 0836 91       		.byte	0x91
 5653 0837 77       		.sleb128 -9
 5654 0838 00       		.byte	0
 5655 0839 15       		.uleb128 0x15
 5656 083a 53070000 		.4byte	.LASF125
ARM GAS  /tmp/ccBklucm.s 			page 101


 5657 083e 01       		.byte	0x1
 5658 083f 4301     		.2byte	0x143
 5659 0841 EE000000 		.4byte	0xee
 5660 0845 80030000 		.4byte	.LFB11
 5661 0849 38000000 		.4byte	.LFE11-.LFB11
 5662 084d 01       		.uleb128 0x1
 5663 084e 9C       		.byte	0x9c
 5664 084f 81080000 		.4byte	0x881
 5665 0853 16       		.uleb128 0x16
 5666 0854 0D0F0000 		.4byte	.LASF104
 5667 0858 01       		.byte	0x1
 5668 0859 4301     		.2byte	0x143
 5669 085b 8B050000 		.4byte	0x58b
 5670 085f 02       		.uleb128 0x2
 5671 0860 91       		.byte	0x91
 5672 0861 6C       		.sleb128 -20
 5673 0862 18       		.uleb128 0x18
 5674 0863 62647500 		.ascii	"bdu\000"
 5675 0867 01       		.byte	0x1
 5676 0868 4301     		.2byte	0x143
 5677 086a 81080000 		.4byte	0x881
 5678 086e 02       		.uleb128 0x2
 5679 086f 91       		.byte	0x91
 5680 0870 68       		.sleb128 -24
 5681 0871 17       		.uleb128 0x17
 5682 0872 746D7000 		.ascii	"tmp\000"
 5683 0876 01       		.byte	0x1
 5684 0877 4501     		.2byte	0x145
 5685 0879 A2000000 		.4byte	0xa2
 5686 087d 02       		.uleb128 0x2
 5687 087e 91       		.byte	0x91
 5688 087f 77       		.sleb128 -9
 5689 0880 00       		.byte	0
 5690 0881 11       		.uleb128 0x11
 5691 0882 04       		.byte	0x4
 5692 0883 A8010000 		.4byte	0x1a8
 5693 0887 15       		.uleb128 0x15
 5694 0888 87050000 		.4byte	.LASF126
 5695 088c 01       		.byte	0x1
 5696 088d 5501     		.2byte	0x155
 5697 088f EE000000 		.4byte	0xee
 5698 0893 C0030000 		.4byte	.LFB12
 5699 0897 64000000 		.4byte	.LFE12-.LFB12
 5700 089b 01       		.uleb128 0x1
 5701 089c 9C       		.byte	0x9c
 5702 089d CF080000 		.4byte	0x8cf
 5703 08a1 16       		.uleb128 0x16
 5704 08a2 0D0F0000 		.4byte	.LASF104
 5705 08a6 01       		.byte	0x1
 5706 08a7 5501     		.2byte	0x155
 5707 08a9 8B050000 		.4byte	0x58b
 5708 08ad 02       		.uleb128 0x2
 5709 08ae 91       		.byte	0x91
 5710 08af 6C       		.sleb128 -20
 5711 08b0 16       		.uleb128 0x16
 5712 08b1 61040000 		.4byte	.LASF127
 5713 08b5 01       		.byte	0x1
ARM GAS  /tmp/ccBklucm.s 			page 102


 5714 08b6 5501     		.2byte	0x155
 5715 08b8 C8010000 		.4byte	0x1c8
 5716 08bc 02       		.uleb128 0x2
 5717 08bd 91       		.byte	0x91
 5718 08be 6B       		.sleb128 -21
 5719 08bf 17       		.uleb128 0x17
 5720 08c0 746D7000 		.ascii	"tmp\000"
 5721 08c4 01       		.byte	0x1
 5722 08c5 5701     		.2byte	0x157
 5723 08c7 A2000000 		.4byte	0xa2
 5724 08cb 02       		.uleb128 0x2
 5725 08cc 91       		.byte	0x91
 5726 08cd 77       		.sleb128 -9
 5727 08ce 00       		.byte	0
 5728 08cf 15       		.uleb128 0x15
 5729 08d0 E10A0000 		.4byte	.LASF128
 5730 08d4 01       		.byte	0x1
 5731 08d5 6E01     		.2byte	0x16e
 5732 08d7 EE000000 		.4byte	0xee
 5733 08db 30040000 		.4byte	.LFB13
 5734 08df 64000000 		.4byte	.LFE13-.LFB13
 5735 08e3 01       		.uleb128 0x1
 5736 08e4 9C       		.byte	0x9c
 5737 08e5 17090000 		.4byte	0x917
 5738 08e9 16       		.uleb128 0x16
 5739 08ea 0D0F0000 		.4byte	.LASF104
 5740 08ee 01       		.byte	0x1
 5741 08ef 6E01     		.2byte	0x16e
 5742 08f1 8B050000 		.4byte	0x58b
 5743 08f5 02       		.uleb128 0x2
 5744 08f6 91       		.byte	0x91
 5745 08f7 6C       		.sleb128 -20
 5746 08f8 16       		.uleb128 0x16
 5747 08f9 0D0D0000 		.4byte	.LASF116
 5748 08fd 01       		.byte	0x1
 5749 08fe 6E01     		.2byte	0x16e
 5750 0900 DB020000 		.4byte	0x2db
 5751 0904 02       		.uleb128 0x2
 5752 0905 91       		.byte	0x91
 5753 0906 6B       		.sleb128 -21
 5754 0907 17       		.uleb128 0x17
 5755 0908 746D7000 		.ascii	"tmp\000"
 5756 090c 01       		.byte	0x1
 5757 090d 7001     		.2byte	0x170
 5758 090f A2000000 		.4byte	0xa2
 5759 0913 02       		.uleb128 0x2
 5760 0914 91       		.byte	0x91
 5761 0915 77       		.sleb128 -9
 5762 0916 00       		.byte	0
 5763 0917 15       		.uleb128 0x15
 5764 0918 B80C0000 		.4byte	.LASF129
 5765 091c 01       		.byte	0x1
 5766 091d 8901     		.2byte	0x189
 5767 091f EE000000 		.4byte	0xee
 5768 0923 A0040000 		.4byte	.LFB14
 5769 0927 38000000 		.4byte	.LFE14-.LFB14
 5770 092b 01       		.uleb128 0x1
ARM GAS  /tmp/ccBklucm.s 			page 103


 5771 092c 9C       		.byte	0x9c
 5772 092d 5F090000 		.4byte	0x95f
 5773 0931 16       		.uleb128 0x16
 5774 0932 0D0F0000 		.4byte	.LASF104
 5775 0936 01       		.byte	0x1
 5776 0937 8901     		.2byte	0x189
 5777 0939 8B050000 		.4byte	0x58b
 5778 093d 02       		.uleb128 0x2
 5779 093e 91       		.byte	0x91
 5780 093f 6C       		.sleb128 -20
 5781 0940 16       		.uleb128 0x16
 5782 0941 61040000 		.4byte	.LASF127
 5783 0945 01       		.byte	0x1
 5784 0946 8901     		.2byte	0x189
 5785 0948 5F090000 		.4byte	0x95f
 5786 094c 02       		.uleb128 0x2
 5787 094d 91       		.byte	0x91
 5788 094e 68       		.sleb128 -24
 5789 094f 17       		.uleb128 0x17
 5790 0950 746D7000 		.ascii	"tmp\000"
 5791 0954 01       		.byte	0x1
 5792 0955 8B01     		.2byte	0x18b
 5793 0957 A2000000 		.4byte	0xa2
 5794 095b 02       		.uleb128 0x2
 5795 095c 91       		.byte	0x91
 5796 095d 77       		.sleb128 -9
 5797 095e 00       		.byte	0
 5798 095f 11       		.uleb128 0x11
 5799 0960 04       		.byte	0x4
 5800 0961 C8010000 		.4byte	0x1c8
 5801 0965 15       		.uleb128 0x15
 5802 0966 510E0000 		.4byte	.LASF130
 5803 096a 01       		.byte	0x1
 5804 096b 9A01     		.2byte	0x19a
 5805 096d EE000000 		.4byte	0xee
 5806 0971 E0040000 		.4byte	.LFB15
 5807 0975 4E000000 		.4byte	.LFE15-.LFB15
 5808 0979 01       		.uleb128 0x1
 5809 097a 9C       		.byte	0x9c
 5810 097b 9E090000 		.4byte	0x99e
 5811 097f 16       		.uleb128 0x16
 5812 0980 0D0F0000 		.4byte	.LASF104
 5813 0984 01       		.byte	0x1
 5814 0985 9A01     		.2byte	0x19a
 5815 0987 8B050000 		.4byte	0x58b
 5816 098b 02       		.uleb128 0x2
 5817 098c 91       		.byte	0x91
 5818 098d 6C       		.sleb128 -20
 5819 098e 17       		.uleb128 0x17
 5820 098f 746D7000 		.ascii	"tmp\000"
 5821 0993 01       		.byte	0x1
 5822 0994 9C01     		.2byte	0x19c
 5823 0996 A2000000 		.4byte	0xa2
 5824 099a 02       		.uleb128 0x2
 5825 099b 91       		.byte	0x91
 5826 099c 77       		.sleb128 -9
 5827 099d 00       		.byte	0
ARM GAS  /tmp/ccBklucm.s 			page 104


 5828 099e 15       		.uleb128 0x15
 5829 099f 8B010000 		.4byte	.LASF131
 5830 09a3 01       		.byte	0x1
 5831 09a4 AF01     		.2byte	0x1af
 5832 09a6 EE000000 		.4byte	0xee
 5833 09aa 30050000 		.4byte	.LFB16
 5834 09ae 4E000000 		.4byte	.LFE16-.LFB16
 5835 09b2 01       		.uleb128 0x1
 5836 09b3 9C       		.byte	0x9c
 5837 09b4 D7090000 		.4byte	0x9d7
 5838 09b8 16       		.uleb128 0x16
 5839 09b9 0D0F0000 		.4byte	.LASF104
 5840 09bd 01       		.byte	0x1
 5841 09be AF01     		.2byte	0x1af
 5842 09c0 8B050000 		.4byte	0x58b
 5843 09c4 02       		.uleb128 0x2
 5844 09c5 91       		.byte	0x91
 5845 09c6 6C       		.sleb128 -20
 5846 09c7 17       		.uleb128 0x17
 5847 09c8 746D7000 		.ascii	"tmp\000"
 5848 09cc 01       		.byte	0x1
 5849 09cd B101     		.2byte	0x1b1
 5850 09cf A2000000 		.4byte	0xa2
 5851 09d3 02       		.uleb128 0x2
 5852 09d4 91       		.byte	0x91
 5853 09d5 77       		.sleb128 -9
 5854 09d6 00       		.byte	0
 5855 09d7 15       		.uleb128 0x15
 5856 09d8 00000000 		.4byte	.LASF132
 5857 09dc 01       		.byte	0x1
 5858 09dd C501     		.2byte	0x1c5
 5859 09df EE000000 		.4byte	0xee
 5860 09e3 80050000 		.4byte	.LFB17
 5861 09e7 4E000000 		.4byte	.LFE17-.LFB17
 5862 09eb 01       		.uleb128 0x1
 5863 09ec 9C       		.byte	0x9c
 5864 09ed 100A0000 		.4byte	0xa10
 5865 09f1 16       		.uleb128 0x16
 5866 09f2 0D0F0000 		.4byte	.LASF104
 5867 09f6 01       		.byte	0x1
 5868 09f7 C501     		.2byte	0x1c5
 5869 09f9 8B050000 		.4byte	0x58b
 5870 09fd 02       		.uleb128 0x2
 5871 09fe 91       		.byte	0x91
 5872 09ff 6C       		.sleb128 -20
 5873 0a00 17       		.uleb128 0x17
 5874 0a01 746D7000 		.ascii	"tmp\000"
 5875 0a05 01       		.byte	0x1
 5876 0a06 C701     		.2byte	0x1c7
 5877 0a08 A2000000 		.4byte	0xa2
 5878 0a0c 02       		.uleb128 0x2
 5879 0a0d 91       		.byte	0x91
 5880 0a0e 77       		.sleb128 -9
 5881 0a0f 00       		.byte	0
 5882 0a10 15       		.uleb128 0x15
 5883 0a11 BD0E0000 		.4byte	.LASF133
 5884 0a15 01       		.byte	0x1
ARM GAS  /tmp/ccBklucm.s 			page 105


 5885 0a16 DB01     		.2byte	0x1db
 5886 0a18 EE000000 		.4byte	0xee
 5887 0a1c D0050000 		.4byte	.LFB18
 5888 0a20 6C000000 		.4byte	.LFE18-.LFB18
 5889 0a24 01       		.uleb128 0x1
 5890 0a25 9C       		.byte	0x9c
 5891 0a26 580A0000 		.4byte	0xa58
 5892 0a2a 16       		.uleb128 0x16
 5893 0a2b 0D0F0000 		.4byte	.LASF104
 5894 0a2f 01       		.byte	0x1
 5895 0a30 DB01     		.2byte	0x1db
 5896 0a32 8B050000 		.4byte	0x58b
 5897 0a36 02       		.uleb128 0x2
 5898 0a37 91       		.byte	0x91
 5899 0a38 6C       		.sleb128 -20
 5900 0a39 16       		.uleb128 0x16
 5901 0a3a 350E0000 		.4byte	.LASF134
 5902 0a3e 01       		.byte	0x1
 5903 0a3f DB01     		.2byte	0x1db
 5904 0a41 0E010000 		.4byte	0x10e
 5905 0a45 02       		.uleb128 0x2
 5906 0a46 91       		.byte	0x91
 5907 0a47 6B       		.sleb128 -21
 5908 0a48 17       		.uleb128 0x17
 5909 0a49 746D7000 		.ascii	"tmp\000"
 5910 0a4d 01       		.byte	0x1
 5911 0a4e DD01     		.2byte	0x1dd
 5912 0a50 A2000000 		.4byte	0xa2
 5913 0a54 02       		.uleb128 0x2
 5914 0a55 91       		.byte	0x91
 5915 0a56 77       		.sleb128 -9
 5916 0a57 00       		.byte	0
 5917 0a58 15       		.uleb128 0x15
 5918 0a59 2C010000 		.4byte	.LASF135
 5919 0a5d 01       		.byte	0x1
 5920 0a5e F201     		.2byte	0x1f2
 5921 0a60 EE000000 		.4byte	0xee
 5922 0a64 40060000 		.4byte	.LFB19
 5923 0a68 6C000000 		.4byte	.LFE19-.LFB19
 5924 0a6c 01       		.uleb128 0x1
 5925 0a6d 9C       		.byte	0x9c
 5926 0a6e A00A0000 		.4byte	0xaa0
 5927 0a72 16       		.uleb128 0x16
 5928 0a73 0D0F0000 		.4byte	.LASF104
 5929 0a77 01       		.byte	0x1
 5930 0a78 F201     		.2byte	0x1f2
 5931 0a7a 8B050000 		.4byte	0x58b
 5932 0a7e 02       		.uleb128 0x2
 5933 0a7f 91       		.byte	0x91
 5934 0a80 6C       		.sleb128 -20
 5935 0a81 16       		.uleb128 0x16
 5936 0a82 350E0000 		.4byte	.LASF134
 5937 0a86 01       		.byte	0x1
 5938 0a87 F201     		.2byte	0x1f2
 5939 0a89 0E010000 		.4byte	0x10e
 5940 0a8d 02       		.uleb128 0x2
 5941 0a8e 91       		.byte	0x91
ARM GAS  /tmp/ccBklucm.s 			page 106


 5942 0a8f 6B       		.sleb128 -21
 5943 0a90 17       		.uleb128 0x17
 5944 0a91 746D7000 		.ascii	"tmp\000"
 5945 0a95 01       		.byte	0x1
 5946 0a96 F401     		.2byte	0x1f4
 5947 0a98 A2000000 		.4byte	0xa2
 5948 0a9c 02       		.uleb128 0x2
 5949 0a9d 91       		.byte	0x91
 5950 0a9e 77       		.sleb128 -9
 5951 0a9f 00       		.byte	0
 5952 0aa0 15       		.uleb128 0x15
 5953 0aa1 5E020000 		.4byte	.LASF136
 5954 0aa5 01       		.byte	0x1
 5955 0aa6 0A02     		.2byte	0x20a
 5956 0aa8 EE000000 		.4byte	0xee
 5957 0aac B0060000 		.4byte	.LFB20
 5958 0ab0 6C000000 		.4byte	.LFE20-.LFB20
 5959 0ab4 01       		.uleb128 0x1
 5960 0ab5 9C       		.byte	0x9c
 5961 0ab6 E80A0000 		.4byte	0xae8
 5962 0aba 16       		.uleb128 0x16
 5963 0abb 0D0F0000 		.4byte	.LASF104
 5964 0abf 01       		.byte	0x1
 5965 0ac0 0A02     		.2byte	0x20a
 5966 0ac2 8B050000 		.4byte	0x58b
 5967 0ac6 02       		.uleb128 0x2
 5968 0ac7 91       		.byte	0x91
 5969 0ac8 6C       		.sleb128 -20
 5970 0ac9 16       		.uleb128 0x16
 5971 0aca 350E0000 		.4byte	.LASF134
 5972 0ace 01       		.byte	0x1
 5973 0acf 0A02     		.2byte	0x20a
 5974 0ad1 0E010000 		.4byte	0x10e
 5975 0ad5 02       		.uleb128 0x2
 5976 0ad6 91       		.byte	0x91
 5977 0ad7 6B       		.sleb128 -21
 5978 0ad8 17       		.uleb128 0x17
 5979 0ad9 746D7000 		.ascii	"tmp\000"
 5980 0add 01       		.byte	0x1
 5981 0ade 0D02     		.2byte	0x20d
 5982 0ae0 A2000000 		.4byte	0xa2
 5983 0ae4 02       		.uleb128 0x2
 5984 0ae5 91       		.byte	0x91
 5985 0ae6 77       		.sleb128 -9
 5986 0ae7 00       		.byte	0
 5987 0ae8 15       		.uleb128 0x15
 5988 0ae9 D70B0000 		.4byte	.LASF137
 5989 0aed 01       		.byte	0x1
 5990 0aee 2402     		.2byte	0x224
 5991 0af0 EE000000 		.4byte	0xee
 5992 0af4 20070000 		.4byte	.LFB21
 5993 0af8 70000000 		.4byte	.LFE21-.LFB21
 5994 0afc 01       		.uleb128 0x1
 5995 0afd 9C       		.byte	0x9c
 5996 0afe 300B0000 		.4byte	0xb30
 5997 0b02 16       		.uleb128 0x16
 5998 0b03 0D0F0000 		.4byte	.LASF104
ARM GAS  /tmp/ccBklucm.s 			page 107


 5999 0b07 01       		.byte	0x1
 6000 0b08 2402     		.2byte	0x224
 6001 0b0a 8B050000 		.4byte	0x58b
 6002 0b0e 02       		.uleb128 0x2
 6003 0b0f 91       		.byte	0x91
 6004 0b10 6C       		.sleb128 -20
 6005 0b11 16       		.uleb128 0x16
 6006 0b12 890D0000 		.4byte	.LASF138
 6007 0b16 01       		.byte	0x1
 6008 0b17 2402     		.2byte	0x224
 6009 0b19 0E010000 		.4byte	0x10e
 6010 0b1d 02       		.uleb128 0x2
 6011 0b1e 91       		.byte	0x91
 6012 0b1f 6B       		.sleb128 -21
 6013 0b20 17       		.uleb128 0x17
 6014 0b21 746D7000 		.ascii	"tmp\000"
 6015 0b25 01       		.byte	0x1
 6016 0b26 2602     		.2byte	0x226
 6017 0b28 A2000000 		.4byte	0xa2
 6018 0b2c 02       		.uleb128 0x2
 6019 0b2d 91       		.byte	0x91
 6020 0b2e 77       		.sleb128 -9
 6021 0b2f 00       		.byte	0
 6022 0b30 15       		.uleb128 0x15
 6023 0b31 00090000 		.4byte	.LASF139
 6024 0b35 01       		.byte	0x1
 6025 0b36 3F02     		.2byte	0x23f
 6026 0b38 EE000000 		.4byte	0xee
 6027 0b3c 90070000 		.4byte	.LFB22
 6028 0b40 4E000000 		.4byte	.LFE22-.LFB22
 6029 0b44 01       		.uleb128 0x1
 6030 0b45 9C       		.byte	0x9c
 6031 0b46 690B0000 		.4byte	0xb69
 6032 0b4a 16       		.uleb128 0x16
 6033 0b4b 0D0F0000 		.4byte	.LASF104
 6034 0b4f 01       		.byte	0x1
 6035 0b50 3F02     		.2byte	0x23f
 6036 0b52 8B050000 		.4byte	0x58b
 6037 0b56 02       		.uleb128 0x2
 6038 0b57 91       		.byte	0x91
 6039 0b58 6C       		.sleb128 -20
 6040 0b59 17       		.uleb128 0x17
 6041 0b5a 746D7000 		.ascii	"tmp\000"
 6042 0b5e 01       		.byte	0x1
 6043 0b5f 4102     		.2byte	0x241
 6044 0b61 A2000000 		.4byte	0xa2
 6045 0b65 02       		.uleb128 0x2
 6046 0b66 91       		.byte	0x91
 6047 0b67 77       		.sleb128 -9
 6048 0b68 00       		.byte	0
 6049 0b69 15       		.uleb128 0x15
 6050 0b6a B60B0000 		.4byte	.LASF140
 6051 0b6e 01       		.byte	0x1
 6052 0b6f 5702     		.2byte	0x257
 6053 0b71 EE000000 		.4byte	0xee
 6054 0b75 E0070000 		.4byte	.LFB23
 6055 0b79 64000000 		.4byte	.LFE23-.LFB23
ARM GAS  /tmp/ccBklucm.s 			page 108


 6056 0b7d 01       		.uleb128 0x1
 6057 0b7e 9C       		.byte	0x9c
 6058 0b7f B10B0000 		.4byte	0xbb1
 6059 0b83 16       		.uleb128 0x16
 6060 0b84 0D0F0000 		.4byte	.LASF104
 6061 0b88 01       		.byte	0x1
 6062 0b89 5702     		.2byte	0x257
 6063 0b8b 8B050000 		.4byte	0x58b
 6064 0b8f 02       		.uleb128 0x2
 6065 0b90 91       		.byte	0x91
 6066 0b91 6C       		.sleb128 -20
 6067 0b92 16       		.uleb128 0x16
 6068 0b93 0D0D0000 		.4byte	.LASF116
 6069 0b97 01       		.byte	0x1
 6070 0b98 5702     		.2byte	0x257
 6071 0b9a E9010000 		.4byte	0x1e9
 6072 0b9e 02       		.uleb128 0x2
 6073 0b9f 91       		.byte	0x91
 6074 0ba0 6B       		.sleb128 -21
 6075 0ba1 17       		.uleb128 0x17
 6076 0ba2 746D7000 		.ascii	"tmp\000"
 6077 0ba6 01       		.byte	0x1
 6078 0ba7 5902     		.2byte	0x259
 6079 0ba9 A2000000 		.4byte	0xa2
 6080 0bad 02       		.uleb128 0x2
 6081 0bae 91       		.byte	0x91
 6082 0baf 77       		.sleb128 -9
 6083 0bb0 00       		.byte	0
 6084 0bb1 15       		.uleb128 0x15
 6085 0bb2 220F0000 		.4byte	.LASF141
 6086 0bb6 01       		.byte	0x1
 6087 0bb7 7002     		.2byte	0x270
 6088 0bb9 EE000000 		.4byte	0xee
 6089 0bbd 50080000 		.4byte	.LFB24
 6090 0bc1 64000000 		.4byte	.LFE24-.LFB24
 6091 0bc5 01       		.uleb128 0x1
 6092 0bc6 9C       		.byte	0x9c
 6093 0bc7 F90B0000 		.4byte	0xbf9
 6094 0bcb 16       		.uleb128 0x16
 6095 0bcc 0D0F0000 		.4byte	.LASF104
 6096 0bd0 01       		.byte	0x1
 6097 0bd1 7002     		.2byte	0x270
 6098 0bd3 8B050000 		.4byte	0x58b
 6099 0bd7 02       		.uleb128 0x2
 6100 0bd8 91       		.byte	0x91
 6101 0bd9 6C       		.sleb128 -20
 6102 0bda 16       		.uleb128 0x16
 6103 0bdb AB070000 		.4byte	.LASF142
 6104 0bdf 01       		.byte	0x1
 6105 0be0 7002     		.2byte	0x270
 6106 0be2 0A020000 		.4byte	0x20a
 6107 0be6 02       		.uleb128 0x2
 6108 0be7 91       		.byte	0x91
 6109 0be8 6B       		.sleb128 -21
 6110 0be9 17       		.uleb128 0x17
 6111 0bea 746D7000 		.ascii	"tmp\000"
 6112 0bee 01       		.byte	0x1
ARM GAS  /tmp/ccBklucm.s 			page 109


 6113 0bef 7202     		.2byte	0x272
 6114 0bf1 A2000000 		.4byte	0xa2
 6115 0bf5 02       		.uleb128 0x2
 6116 0bf6 91       		.byte	0x91
 6117 0bf7 77       		.sleb128 -9
 6118 0bf8 00       		.byte	0
 6119 0bf9 15       		.uleb128 0x15
 6120 0bfa E50C0000 		.4byte	.LASF143
 6121 0bfe 01       		.byte	0x1
 6122 0bff 8802     		.2byte	0x288
 6123 0c01 EE000000 		.4byte	0xee
 6124 0c05 C0080000 		.4byte	.LFB25
 6125 0c09 64000000 		.4byte	.LFE25-.LFB25
 6126 0c0d 01       		.uleb128 0x1
 6127 0c0e 9C       		.byte	0x9c
 6128 0c0f 410C0000 		.4byte	0xc41
 6129 0c13 16       		.uleb128 0x16
 6130 0c14 0D0F0000 		.4byte	.LASF104
 6131 0c18 01       		.byte	0x1
 6132 0c19 8802     		.2byte	0x288
 6133 0c1b 8B050000 		.4byte	0x58b
 6134 0c1f 02       		.uleb128 0x2
 6135 0c20 91       		.byte	0x91
 6136 0c21 6C       		.sleb128 -20
 6137 0c22 16       		.uleb128 0x16
 6138 0c23 120D0000 		.4byte	.LASF144
 6139 0c27 01       		.byte	0x1
 6140 0c28 8802     		.2byte	0x288
 6141 0c2a 36020000 		.4byte	0x236
 6142 0c2e 02       		.uleb128 0x2
 6143 0c2f 91       		.byte	0x91
 6144 0c30 6B       		.sleb128 -21
 6145 0c31 17       		.uleb128 0x17
 6146 0c32 746D7000 		.ascii	"tmp\000"
 6147 0c36 01       		.byte	0x1
 6148 0c37 8A02     		.2byte	0x28a
 6149 0c39 A2000000 		.4byte	0xa2
 6150 0c3d 02       		.uleb128 0x2
 6151 0c3e 91       		.byte	0x91
 6152 0c3f 77       		.sleb128 -9
 6153 0c40 00       		.byte	0
 6154 0c41 15       		.uleb128 0x15
 6155 0c42 20090000 		.4byte	.LASF145
 6156 0c46 01       		.byte	0x1
 6157 0c47 A102     		.2byte	0x2a1
 6158 0c49 EE000000 		.4byte	0xee
 6159 0c4d 30090000 		.4byte	.LFB26
 6160 0c51 6C000000 		.4byte	.LFE26-.LFB26
 6161 0c55 01       		.uleb128 0x1
 6162 0c56 9C       		.byte	0x9c
 6163 0c57 890C0000 		.4byte	0xc89
 6164 0c5b 16       		.uleb128 0x16
 6165 0c5c 0D0F0000 		.4byte	.LASF104
 6166 0c60 01       		.byte	0x1
 6167 0c61 A102     		.2byte	0x2a1
 6168 0c63 8B050000 		.4byte	0x58b
 6169 0c67 02       		.uleb128 0x2
ARM GAS  /tmp/ccBklucm.s 			page 110


 6170 0c68 91       		.byte	0x91
 6171 0c69 6C       		.sleb128 -20
 6172 0c6a 16       		.uleb128 0x16
 6173 0c6b 350E0000 		.4byte	.LASF134
 6174 0c6f 01       		.byte	0x1
 6175 0c70 A102     		.2byte	0x2a1
 6176 0c72 0E010000 		.4byte	0x10e
 6177 0c76 02       		.uleb128 0x2
 6178 0c77 91       		.byte	0x91
 6179 0c78 6B       		.sleb128 -21
 6180 0c79 17       		.uleb128 0x17
 6181 0c7a 746D7000 		.ascii	"tmp\000"
 6182 0c7e 01       		.byte	0x1
 6183 0c7f A302     		.2byte	0x2a3
 6184 0c81 A2000000 		.4byte	0xa2
 6185 0c85 02       		.uleb128 0x2
 6186 0c86 91       		.byte	0x91
 6187 0c87 77       		.sleb128 -9
 6188 0c88 00       		.byte	0
 6189 0c89 15       		.uleb128 0x15
 6190 0c8a 6F0F0000 		.4byte	.LASF146
 6191 0c8e 01       		.byte	0x1
 6192 0c8f BA02     		.2byte	0x2ba
 6193 0c91 EE000000 		.4byte	0xee
 6194 0c95 A0090000 		.4byte	.LFB27
 6195 0c99 6C000000 		.4byte	.LFE27-.LFB27
 6196 0c9d 01       		.uleb128 0x1
 6197 0c9e 9C       		.byte	0x9c
 6198 0c9f D10C0000 		.4byte	0xcd1
 6199 0ca3 16       		.uleb128 0x16
 6200 0ca4 0D0F0000 		.4byte	.LASF104
 6201 0ca8 01       		.byte	0x1
 6202 0ca9 BA02     		.2byte	0x2ba
 6203 0cab 8B050000 		.4byte	0x58b
 6204 0caf 02       		.uleb128 0x2
 6205 0cb0 91       		.byte	0x91
 6206 0cb1 6C       		.sleb128 -20
 6207 0cb2 16       		.uleb128 0x16
 6208 0cb3 350E0000 		.4byte	.LASF134
 6209 0cb7 01       		.byte	0x1
 6210 0cb8 BA02     		.2byte	0x2ba
 6211 0cba 0E010000 		.4byte	0x10e
 6212 0cbe 02       		.uleb128 0x2
 6213 0cbf 91       		.byte	0x91
 6214 0cc0 6B       		.sleb128 -21
 6215 0cc1 17       		.uleb128 0x17
 6216 0cc2 746D7000 		.ascii	"tmp\000"
 6217 0cc6 01       		.byte	0x1
 6218 0cc7 BC02     		.2byte	0x2bc
 6219 0cc9 A2000000 		.4byte	0xa2
 6220 0ccd 02       		.uleb128 0x2
 6221 0cce 91       		.byte	0x91
 6222 0ccf 77       		.sleb128 -9
 6223 0cd0 00       		.byte	0
 6224 0cd1 15       		.uleb128 0x15
 6225 0cd2 690C0000 		.4byte	.LASF147
 6226 0cd6 01       		.byte	0x1
ARM GAS  /tmp/ccBklucm.s 			page 111


 6227 0cd7 D302     		.2byte	0x2d3
 6228 0cd9 EE000000 		.4byte	0xee
 6229 0cdd 100A0000 		.4byte	.LFB28
 6230 0ce1 6C000000 		.4byte	.LFE28-.LFB28
 6231 0ce5 01       		.uleb128 0x1
 6232 0ce6 9C       		.byte	0x9c
 6233 0ce7 190D0000 		.4byte	0xd19
 6234 0ceb 16       		.uleb128 0x16
 6235 0cec 0D0F0000 		.4byte	.LASF104
 6236 0cf0 01       		.byte	0x1
 6237 0cf1 D302     		.2byte	0x2d3
 6238 0cf3 8B050000 		.4byte	0x58b
 6239 0cf7 02       		.uleb128 0x2
 6240 0cf8 91       		.byte	0x91
 6241 0cf9 6C       		.sleb128 -20
 6242 0cfa 16       		.uleb128 0x16
 6243 0cfb 350E0000 		.4byte	.LASF134
 6244 0cff 01       		.byte	0x1
 6245 0d00 D302     		.2byte	0x2d3
 6246 0d02 0E010000 		.4byte	0x10e
 6247 0d06 02       		.uleb128 0x2
 6248 0d07 91       		.byte	0x91
 6249 0d08 6B       		.sleb128 -21
 6250 0d09 17       		.uleb128 0x17
 6251 0d0a 746D7000 		.ascii	"tmp\000"
 6252 0d0e 01       		.byte	0x1
 6253 0d0f D502     		.2byte	0x2d5
 6254 0d11 A2000000 		.4byte	0xa2
 6255 0d15 02       		.uleb128 0x2
 6256 0d16 91       		.byte	0x91
 6257 0d17 77       		.sleb128 -9
 6258 0d18 00       		.byte	0
 6259 0d19 15       		.uleb128 0x15
 6260 0d1a 91020000 		.4byte	.LASF148
 6261 0d1e 01       		.byte	0x1
 6262 0d1f EB02     		.2byte	0x2eb
 6263 0d21 EE000000 		.4byte	0xee
 6264 0d25 800A0000 		.4byte	.LFB29
 6265 0d29 6C000000 		.4byte	.LFE29-.LFB29
 6266 0d2d 01       		.uleb128 0x1
 6267 0d2e 9C       		.byte	0x9c
 6268 0d2f 610D0000 		.4byte	0xd61
 6269 0d33 16       		.uleb128 0x16
 6270 0d34 0D0F0000 		.4byte	.LASF104
 6271 0d38 01       		.byte	0x1
 6272 0d39 EB02     		.2byte	0x2eb
 6273 0d3b 8B050000 		.4byte	0x58b
 6274 0d3f 02       		.uleb128 0x2
 6275 0d40 91       		.byte	0x91
 6276 0d41 6C       		.sleb128 -20
 6277 0d42 16       		.uleb128 0x16
 6278 0d43 350E0000 		.4byte	.LASF134
 6279 0d47 01       		.byte	0x1
 6280 0d48 EB02     		.2byte	0x2eb
 6281 0d4a 0E010000 		.4byte	0x10e
 6282 0d4e 02       		.uleb128 0x2
 6283 0d4f 91       		.byte	0x91
ARM GAS  /tmp/ccBklucm.s 			page 112


 6284 0d50 6B       		.sleb128 -21
 6285 0d51 17       		.uleb128 0x17
 6286 0d52 746D7000 		.ascii	"tmp\000"
 6287 0d56 01       		.byte	0x1
 6288 0d57 ED02     		.2byte	0x2ed
 6289 0d59 A2000000 		.4byte	0xa2
 6290 0d5d 02       		.uleb128 0x2
 6291 0d5e 91       		.byte	0x91
 6292 0d5f 77       		.sleb128 -9
 6293 0d60 00       		.byte	0
 6294 0d61 15       		.uleb128 0x15
 6295 0d62 5A060000 		.4byte	.LASF149
 6296 0d66 01       		.byte	0x1
 6297 0d67 0703     		.2byte	0x307
 6298 0d69 EE000000 		.4byte	0xee
 6299 0d6d F00A0000 		.4byte	.LFB30
 6300 0d71 4E000000 		.4byte	.LFE30-.LFB30
 6301 0d75 01       		.uleb128 0x1
 6302 0d76 9C       		.byte	0x9c
 6303 0d77 9A0D0000 		.4byte	0xd9a
 6304 0d7b 16       		.uleb128 0x16
 6305 0d7c 0D0F0000 		.4byte	.LASF104
 6306 0d80 01       		.byte	0x1
 6307 0d81 0703     		.2byte	0x307
 6308 0d83 8B050000 		.4byte	0x58b
 6309 0d87 02       		.uleb128 0x2
 6310 0d88 91       		.byte	0x91
 6311 0d89 6C       		.sleb128 -20
 6312 0d8a 17       		.uleb128 0x17
 6313 0d8b 746D7000 		.ascii	"tmp\000"
 6314 0d8f 01       		.byte	0x1
 6315 0d90 0903     		.2byte	0x309
 6316 0d92 A2000000 		.4byte	0xa2
 6317 0d96 02       		.uleb128 0x2
 6318 0d97 91       		.byte	0x91
 6319 0d98 77       		.sleb128 -9
 6320 0d99 00       		.byte	0
 6321 0d9a 15       		.uleb128 0x15
 6322 0d9b AF080000 		.4byte	.LASF150
 6323 0d9f 01       		.byte	0x1
 6324 0da0 1C03     		.2byte	0x31c
 6325 0da2 EE000000 		.4byte	0xee
 6326 0da6 400B0000 		.4byte	.LFB31
 6327 0daa 4E000000 		.4byte	.LFE31-.LFB31
 6328 0dae 01       		.uleb128 0x1
 6329 0daf 9C       		.byte	0x9c
 6330 0db0 D30D0000 		.4byte	0xdd3
 6331 0db4 16       		.uleb128 0x16
 6332 0db5 0D0F0000 		.4byte	.LASF104
 6333 0db9 01       		.byte	0x1
 6334 0dba 1C03     		.2byte	0x31c
 6335 0dbc 8B050000 		.4byte	0x58b
 6336 0dc0 02       		.uleb128 0x2
 6337 0dc1 91       		.byte	0x91
 6338 0dc2 6C       		.sleb128 -20
 6339 0dc3 17       		.uleb128 0x17
 6340 0dc4 746D7000 		.ascii	"tmp\000"
ARM GAS  /tmp/ccBklucm.s 			page 113


 6341 0dc8 01       		.byte	0x1
 6342 0dc9 1E03     		.2byte	0x31e
 6343 0dcb A2000000 		.4byte	0xa2
 6344 0dcf 02       		.uleb128 0x2
 6345 0dd0 91       		.byte	0x91
 6346 0dd1 77       		.sleb128 -9
 6347 0dd2 00       		.byte	0
 6348 0dd3 15       		.uleb128 0x15
 6349 0dd4 610E0000 		.4byte	.LASF151
 6350 0dd8 01       		.byte	0x1
 6351 0dd9 3303     		.2byte	0x333
 6352 0ddb EE000000 		.4byte	0xee
 6353 0ddf 900B0000 		.4byte	.LFB32
 6354 0de3 4E000000 		.4byte	.LFE32-.LFB32
 6355 0de7 01       		.uleb128 0x1
 6356 0de8 9C       		.byte	0x9c
 6357 0de9 0C0E0000 		.4byte	0xe0c
 6358 0ded 16       		.uleb128 0x16
 6359 0dee 0D0F0000 		.4byte	.LASF104
 6360 0df2 01       		.byte	0x1
 6361 0df3 3303     		.2byte	0x333
 6362 0df5 8B050000 		.4byte	0x58b
 6363 0df9 02       		.uleb128 0x2
 6364 0dfa 91       		.byte	0x91
 6365 0dfb 6C       		.sleb128 -20
 6366 0dfc 17       		.uleb128 0x17
 6367 0dfd 746D7000 		.ascii	"tmp\000"
 6368 0e01 01       		.byte	0x1
 6369 0e02 3503     		.2byte	0x335
 6370 0e04 A2000000 		.4byte	0xa2
 6371 0e08 02       		.uleb128 0x2
 6372 0e09 91       		.byte	0x91
 6373 0e0a 77       		.sleb128 -9
 6374 0e0b 00       		.byte	0
 6375 0e0c 15       		.uleb128 0x15
 6376 0e0d 3A090000 		.4byte	.LASF152
 6377 0e11 01       		.byte	0x1
 6378 0e12 4903     		.2byte	0x349
 6379 0e14 EE000000 		.4byte	0xee
 6380 0e18 E00B0000 		.4byte	.LFB33
 6381 0e1c 4E000000 		.4byte	.LFE33-.LFB33
 6382 0e20 01       		.uleb128 0x1
 6383 0e21 9C       		.byte	0x9c
 6384 0e22 450E0000 		.4byte	0xe45
 6385 0e26 16       		.uleb128 0x16
 6386 0e27 0D0F0000 		.4byte	.LASF104
 6387 0e2b 01       		.byte	0x1
 6388 0e2c 4903     		.2byte	0x349
 6389 0e2e 8B050000 		.4byte	0x58b
 6390 0e32 02       		.uleb128 0x2
 6391 0e33 91       		.byte	0x91
 6392 0e34 6C       		.sleb128 -20
 6393 0e35 17       		.uleb128 0x17
 6394 0e36 746D7000 		.ascii	"tmp\000"
 6395 0e3a 01       		.byte	0x1
 6396 0e3b 4B03     		.2byte	0x34b
 6397 0e3d A2000000 		.4byte	0xa2
ARM GAS  /tmp/ccBklucm.s 			page 114


 6398 0e41 02       		.uleb128 0x2
 6399 0e42 91       		.byte	0x91
 6400 0e43 77       		.sleb128 -9
 6401 0e44 00       		.byte	0
 6402 0e45 15       		.uleb128 0x15
 6403 0e46 28080000 		.4byte	.LASF153
 6404 0e4a 01       		.byte	0x1
 6405 0e4b 6203     		.2byte	0x362
 6406 0e4d EE000000 		.4byte	0xee
 6407 0e51 300C0000 		.4byte	.LFB34
 6408 0e55 6C000000 		.4byte	.LFE34-.LFB34
 6409 0e59 01       		.uleb128 0x1
 6410 0e5a 9C       		.byte	0x9c
 6411 0e5b 8D0E0000 		.4byte	0xe8d
 6412 0e5f 16       		.uleb128 0x16
 6413 0e60 0D0F0000 		.4byte	.LASF104
 6414 0e64 01       		.byte	0x1
 6415 0e65 6203     		.2byte	0x362
 6416 0e67 8B050000 		.4byte	0x58b
 6417 0e6b 02       		.uleb128 0x2
 6418 0e6c 91       		.byte	0x91
 6419 0e6d 6C       		.sleb128 -20
 6420 0e6e 16       		.uleb128 0x16
 6421 0e6f F9060000 		.4byte	.LASF154
 6422 0e73 01       		.byte	0x1
 6423 0e74 6203     		.2byte	0x362
 6424 0e76 0E010000 		.4byte	0x10e
 6425 0e7a 02       		.uleb128 0x2
 6426 0e7b 91       		.byte	0x91
 6427 0e7c 6B       		.sleb128 -21
 6428 0e7d 17       		.uleb128 0x17
 6429 0e7e 746D7000 		.ascii	"tmp\000"
 6430 0e82 01       		.byte	0x1
 6431 0e83 6403     		.2byte	0x364
 6432 0e85 A2000000 		.4byte	0xa2
 6433 0e89 02       		.uleb128 0x2
 6434 0e8a 91       		.byte	0x91
 6435 0e8b 77       		.sleb128 -9
 6436 0e8c 00       		.byte	0
 6437 0e8d 15       		.uleb128 0x15
 6438 0e8e B50F0000 		.4byte	.LASF155
 6439 0e92 01       		.byte	0x1
 6440 0e93 7B03     		.2byte	0x37b
 6441 0e95 EE000000 		.4byte	0xee
 6442 0e99 A00C0000 		.4byte	.LFB35
 6443 0e9d 3A000000 		.4byte	.LFE35-.LFB35
 6444 0ea1 01       		.uleb128 0x1
 6445 0ea2 9C       		.byte	0x9c
 6446 0ea3 D50E0000 		.4byte	0xed5
 6447 0ea7 16       		.uleb128 0x16
 6448 0ea8 0D0F0000 		.4byte	.LASF104
 6449 0eac 01       		.byte	0x1
 6450 0ead 7B03     		.2byte	0x37b
 6451 0eaf 8B050000 		.4byte	0x58b
 6452 0eb3 02       		.uleb128 0x2
 6453 0eb4 91       		.byte	0x91
 6454 0eb5 6C       		.sleb128 -20
ARM GAS  /tmp/ccBklucm.s 			page 115


 6455 0eb6 16       		.uleb128 0x16
 6456 0eb7 F9060000 		.4byte	.LASF154
 6457 0ebb 01       		.byte	0x1
 6458 0ebc 7B03     		.2byte	0x37b
 6459 0ebe D50E0000 		.4byte	0xed5
 6460 0ec2 02       		.uleb128 0x2
 6461 0ec3 91       		.byte	0x91
 6462 0ec4 68       		.sleb128 -24
 6463 0ec5 17       		.uleb128 0x17
 6464 0ec6 746D7000 		.ascii	"tmp\000"
 6465 0eca 01       		.byte	0x1
 6466 0ecb 7D03     		.2byte	0x37d
 6467 0ecd A2000000 		.4byte	0xa2
 6468 0ed1 02       		.uleb128 0x2
 6469 0ed2 91       		.byte	0x91
 6470 0ed3 77       		.sleb128 -9
 6471 0ed4 00       		.byte	0
 6472 0ed5 11       		.uleb128 0x11
 6473 0ed6 04       		.byte	0x4
 6474 0ed7 0E010000 		.4byte	0x10e
 6475 0edb 15       		.uleb128 0x15
 6476 0edc B3090000 		.4byte	.LASF156
 6477 0ee0 01       		.byte	0x1
 6478 0ee1 8D03     		.2byte	0x38d
 6479 0ee3 EE000000 		.4byte	0xee
 6480 0ee7 E00C0000 		.4byte	.LFB36
 6481 0eeb 6C000000 		.4byte	.LFE36-.LFB36
 6482 0eef 01       		.uleb128 0x1
 6483 0ef0 9C       		.byte	0x9c
 6484 0ef1 230F0000 		.4byte	0xf23
 6485 0ef5 16       		.uleb128 0x16
 6486 0ef6 0D0F0000 		.4byte	.LASF104
 6487 0efa 01       		.byte	0x1
 6488 0efb 8D03     		.2byte	0x38d
 6489 0efd 8B050000 		.4byte	0x58b
 6490 0f01 02       		.uleb128 0x2
 6491 0f02 91       		.byte	0x91
 6492 0f03 6C       		.sleb128 -20
 6493 0f04 16       		.uleb128 0x16
 6494 0f05 350E0000 		.4byte	.LASF134
 6495 0f09 01       		.byte	0x1
 6496 0f0a 8D03     		.2byte	0x38d
 6497 0f0c 0E010000 		.4byte	0x10e
 6498 0f10 02       		.uleb128 0x2
 6499 0f11 91       		.byte	0x91
 6500 0f12 6B       		.sleb128 -21
 6501 0f13 17       		.uleb128 0x17
 6502 0f14 746D7000 		.ascii	"tmp\000"
 6503 0f18 01       		.byte	0x1
 6504 0f19 8F03     		.2byte	0x38f
 6505 0f1b A2000000 		.4byte	0xa2
 6506 0f1f 02       		.uleb128 0x2
 6507 0f20 91       		.byte	0x91
 6508 0f21 77       		.sleb128 -9
 6509 0f22 00       		.byte	0
 6510 0f23 15       		.uleb128 0x15
 6511 0f24 020E0000 		.4byte	.LASF157
ARM GAS  /tmp/ccBklucm.s 			page 116


 6512 0f28 01       		.byte	0x1
 6513 0f29 A703     		.2byte	0x3a7
 6514 0f2b EE000000 		.4byte	0xee
 6515 0f2f 500D0000 		.4byte	.LFB37
 6516 0f33 6C000000 		.4byte	.LFE37-.LFB37
 6517 0f37 01       		.uleb128 0x1
 6518 0f38 9C       		.byte	0x9c
 6519 0f39 6B0F0000 		.4byte	0xf6b
 6520 0f3d 16       		.uleb128 0x16
 6521 0f3e 0D0F0000 		.4byte	.LASF104
 6522 0f42 01       		.byte	0x1
 6523 0f43 A703     		.2byte	0x3a7
 6524 0f45 8B050000 		.4byte	0x58b
 6525 0f49 02       		.uleb128 0x2
 6526 0f4a 91       		.byte	0x91
 6527 0f4b 6C       		.sleb128 -20
 6528 0f4c 16       		.uleb128 0x16
 6529 0f4d 350E0000 		.4byte	.LASF134
 6530 0f51 01       		.byte	0x1
 6531 0f52 A703     		.2byte	0x3a7
 6532 0f54 0E010000 		.4byte	0x10e
 6533 0f58 02       		.uleb128 0x2
 6534 0f59 91       		.byte	0x91
 6535 0f5a 6B       		.sleb128 -21
 6536 0f5b 17       		.uleb128 0x17
 6537 0f5c 746D7000 		.ascii	"tmp\000"
 6538 0f60 01       		.byte	0x1
 6539 0f61 A903     		.2byte	0x3a9
 6540 0f63 A2000000 		.4byte	0xa2
 6541 0f67 02       		.uleb128 0x2
 6542 0f68 91       		.byte	0x91
 6543 0f69 77       		.sleb128 -9
 6544 0f6a 00       		.byte	0
 6545 0f6b 15       		.uleb128 0x15
 6546 0f6c CF050000 		.4byte	.LASF158
 6547 0f70 01       		.byte	0x1
 6548 0f71 BF03     		.2byte	0x3bf
 6549 0f73 EE000000 		.4byte	0xee
 6550 0f77 C00D0000 		.4byte	.LFB38
 6551 0f7b 64000000 		.4byte	.LFE38-.LFB38
 6552 0f7f 01       		.uleb128 0x1
 6553 0f80 9C       		.byte	0x9c
 6554 0f81 B30F0000 		.4byte	0xfb3
 6555 0f85 16       		.uleb128 0x16
 6556 0f86 0D0F0000 		.4byte	.LASF104
 6557 0f8a 01       		.byte	0x1
 6558 0f8b BF03     		.2byte	0x3bf
 6559 0f8d 8B050000 		.4byte	0x58b
 6560 0f91 02       		.uleb128 0x2
 6561 0f92 91       		.byte	0x91
 6562 0f93 6C       		.sleb128 -20
 6563 0f94 16       		.uleb128 0x16
 6564 0f95 350E0000 		.4byte	.LASF134
 6565 0f99 01       		.byte	0x1
 6566 0f9a BF03     		.2byte	0x3bf
 6567 0f9c 0E010000 		.4byte	0x10e
 6568 0fa0 02       		.uleb128 0x2
ARM GAS  /tmp/ccBklucm.s 			page 117


 6569 0fa1 91       		.byte	0x91
 6570 0fa2 6B       		.sleb128 -21
 6571 0fa3 17       		.uleb128 0x17
 6572 0fa4 746D7000 		.ascii	"tmp\000"
 6573 0fa8 01       		.byte	0x1
 6574 0fa9 C103     		.2byte	0x3c1
 6575 0fab A2000000 		.4byte	0xa2
 6576 0faf 02       		.uleb128 0x2
 6577 0fb0 91       		.byte	0x91
 6578 0fb1 77       		.sleb128 -9
 6579 0fb2 00       		.byte	0
 6580 0fb3 15       		.uleb128 0x15
 6581 0fb4 230C0000 		.4byte	.LASF159
 6582 0fb8 01       		.byte	0x1
 6583 0fb9 D803     		.2byte	0x3d8
 6584 0fbb EE000000 		.4byte	0xee
 6585 0fbf 300E0000 		.4byte	.LFB39
 6586 0fc3 64000000 		.4byte	.LFE39-.LFB39
 6587 0fc7 01       		.uleb128 0x1
 6588 0fc8 9C       		.byte	0x9c
 6589 0fc9 FB0F0000 		.4byte	0xffb
 6590 0fcd 16       		.uleb128 0x16
 6591 0fce 0D0F0000 		.4byte	.LASF104
 6592 0fd2 01       		.byte	0x1
 6593 0fd3 D803     		.2byte	0x3d8
 6594 0fd5 8B050000 		.4byte	0x58b
 6595 0fd9 02       		.uleb128 0x2
 6596 0fda 91       		.byte	0x91
 6597 0fdb 6C       		.sleb128 -20
 6598 0fdc 16       		.uleb128 0x16
 6599 0fdd 9F080000 		.4byte	.LASF160
 6600 0fe1 01       		.byte	0x1
 6601 0fe2 D903     		.2byte	0x3d9
 6602 0fe4 FB0F0000 		.4byte	0xffb
 6603 0fe8 02       		.uleb128 0x2
 6604 0fe9 91       		.byte	0x91
 6605 0fea 68       		.sleb128 -24
 6606 0feb 17       		.uleb128 0x17
 6607 0fec 746D7000 		.ascii	"tmp\000"
 6608 0ff0 01       		.byte	0x1
 6609 0ff1 DB03     		.2byte	0x3db
 6610 0ff3 A2000000 		.4byte	0xa2
 6611 0ff7 02       		.uleb128 0x2
 6612 0ff8 91       		.byte	0x91
 6613 0ff9 77       		.sleb128 -9
 6614 0ffa 00       		.byte	0
 6615 0ffb 11       		.uleb128 0x11
 6616 0ffc 04       		.byte	0x4
 6617 0ffd 77020000 		.4byte	0x277
 6618 1001 15       		.uleb128 0x15
 6619 1002 44000000 		.4byte	.LASF161
 6620 1006 01       		.byte	0x1
 6621 1007 EE03     		.2byte	0x3ee
 6622 1009 EE000000 		.4byte	0xee
 6623 100d A00E0000 		.4byte	.LFB40
 6624 1011 66000000 		.4byte	.LFE40-.LFB40
 6625 1015 01       		.uleb128 0x1
ARM GAS  /tmp/ccBklucm.s 			page 118


 6626 1016 9C       		.byte	0x9c
 6627 1017 49100000 		.4byte	0x1049
 6628 101b 16       		.uleb128 0x16
 6629 101c 0D0F0000 		.4byte	.LASF104
 6630 1020 01       		.byte	0x1
 6631 1021 EE03     		.2byte	0x3ee
 6632 1023 8B050000 		.4byte	0x58b
 6633 1027 02       		.uleb128 0x2
 6634 1028 91       		.byte	0x91
 6635 1029 6C       		.sleb128 -20
 6636 102a 16       		.uleb128 0x16
 6637 102b A8090000 		.4byte	.LASF162
 6638 102f 01       		.byte	0x1
 6639 1030 EE03     		.2byte	0x3ee
 6640 1032 49100000 		.4byte	0x1049
 6641 1036 02       		.uleb128 0x2
 6642 1037 91       		.byte	0x91
 6643 1038 68       		.sleb128 -24
 6644 1039 17       		.uleb128 0x17
 6645 103a 746D7000 		.ascii	"tmp\000"
 6646 103e 01       		.byte	0x1
 6647 103f F003     		.2byte	0x3f0
 6648 1041 A2000000 		.4byte	0xa2
 6649 1045 02       		.uleb128 0x2
 6650 1046 91       		.byte	0x91
 6651 1047 77       		.sleb128 -9
 6652 1048 00       		.byte	0
 6653 1049 11       		.uleb128 0x11
 6654 104a 04       		.byte	0x4
 6655 104b BB020000 		.4byte	0x2bb
 6656 104f 15       		.uleb128 0x15
 6657 1050 10080000 		.4byte	.LASF163
 6658 1054 01       		.byte	0x1
 6659 1055 0704     		.2byte	0x407
 6660 1057 EE000000 		.4byte	0xee
 6661 105b 100F0000 		.4byte	.LFB41
 6662 105f 7C000000 		.4byte	.LFE41-.LFB41
 6663 1063 01       		.uleb128 0x1
 6664 1064 9C       		.byte	0x9c
 6665 1065 B3100000 		.4byte	0x10b3
 6666 1069 16       		.uleb128 0x16
 6667 106a 0D0F0000 		.4byte	.LASF104
 6668 106e 01       		.byte	0x1
 6669 106f 0704     		.2byte	0x407
 6670 1071 8B050000 		.4byte	0x58b
 6671 1075 02       		.uleb128 0x2
 6672 1076 91       		.byte	0x91
 6673 1077 6C       		.sleb128 -20
 6674 1078 16       		.uleb128 0x16
 6675 1079 1A030000 		.4byte	.LASF164
 6676 107d 01       		.byte	0x1
 6677 107e 0704     		.2byte	0x407
 6678 1080 B3100000 		.4byte	0x10b3
 6679 1084 02       		.uleb128 0x2
 6680 1085 91       		.byte	0x91
 6681 1086 68       		.sleb128 -24
 6682 1087 19       		.uleb128 0x19
ARM GAS  /tmp/ccBklucm.s 			page 119


 6683 1088 07040000 		.4byte	.LASF165
 6684 108c 01       		.byte	0x1
 6685 108d 0904     		.2byte	0x409
 6686 108f B9100000 		.4byte	0x10b9
 6687 1093 02       		.uleb128 0x2
 6688 1094 91       		.byte	0x91
 6689 1095 70       		.sleb128 -16
 6690 1096 17       		.uleb128 0x17
 6691 1097 746D7000 		.ascii	"tmp\000"
 6692 109b 01       		.byte	0x1
 6693 109c 0A04     		.2byte	0x40a
 6694 109e CE000000 		.4byte	0xce
 6695 10a2 02       		.uleb128 0x2
 6696 10a3 91       		.byte	0x91
 6697 10a4 74       		.sleb128 -12
 6698 10a5 17       		.uleb128 0x17
 6699 10a6 6900     		.ascii	"i\000"
 6700 10a8 01       		.byte	0x1
 6701 10a9 0B04     		.2byte	0x40b
 6702 10ab A2000000 		.4byte	0xa2
 6703 10af 02       		.uleb128 0x2
 6704 10b0 91       		.byte	0x91
 6705 10b1 73       		.sleb128 -13
 6706 10b2 00       		.byte	0
 6707 10b3 11       		.uleb128 0x11
 6708 10b4 04       		.byte	0x4
 6709 10b5 C3000000 		.4byte	0xc3
 6710 10b9 1A       		.uleb128 0x1a
 6711 10ba A2000000 		.4byte	0xa2
 6712 10be C9100000 		.4byte	0x10c9
 6713 10c2 1B       		.uleb128 0x1b
 6714 10c3 C9100000 		.4byte	0x10c9
 6715 10c7 02       		.byte	0x2
 6716 10c8 00       		.byte	0
 6717 10c9 02       		.uleb128 0x2
 6718 10ca 04       		.byte	0x4
 6719 10cb 07       		.byte	0x7
 6720 10cc E8070000 		.4byte	.LASF166
 6721 10d0 15       		.uleb128 0x15
 6722 10d1 3C0E0000 		.4byte	.LASF167
 6723 10d5 01       		.byte	0x1
 6724 10d6 2504     		.2byte	0x425
 6725 10d8 EE000000 		.4byte	0xee
 6726 10dc 900F0000 		.4byte	.LFB42
 6727 10e0 3E000000 		.4byte	.LFE42-.LFB42
 6728 10e4 01       		.uleb128 0x1
 6729 10e5 9C       		.byte	0x9c
 6730 10e6 18110000 		.4byte	0x1118
 6731 10ea 16       		.uleb128 0x16
 6732 10eb 0D0F0000 		.4byte	.LASF104
 6733 10ef 01       		.byte	0x1
 6734 10f0 2504     		.2byte	0x425
 6735 10f2 8B050000 		.4byte	0x58b
 6736 10f6 02       		.uleb128 0x2
 6737 10f7 91       		.byte	0x91
 6738 10f8 6C       		.sleb128 -20
 6739 10f9 16       		.uleb128 0x16
ARM GAS  /tmp/ccBklucm.s 			page 120


 6740 10fa D2030000 		.4byte	.LASF98
 6741 10fe 01       		.byte	0x1
 6742 10ff 2504     		.2byte	0x425
 6743 1101 B3100000 		.4byte	0x10b3
 6744 1105 02       		.uleb128 0x2
 6745 1106 91       		.byte	0x91
 6746 1107 68       		.sleb128 -24
 6747 1108 19       		.uleb128 0x19
 6748 1109 1A030000 		.4byte	.LASF164
 6749 110d 01       		.byte	0x1
 6750 110e 2704     		.2byte	0x427
 6751 1110 C3000000 		.4byte	0xc3
 6752 1114 02       		.uleb128 0x2
 6753 1115 91       		.byte	0x91
 6754 1116 74       		.sleb128 -12
 6755 1117 00       		.byte	0
 6756 1118 15       		.uleb128 0x15
 6757 1119 F9090000 		.4byte	.LASF168
 6758 111d 01       		.byte	0x1
 6759 111e 3904     		.2byte	0x439
 6760 1120 EE000000 		.4byte	0xee
 6761 1124 D00F0000 		.4byte	.LFB43
 6762 1128 42000000 		.4byte	.LFE43-.LFB43
 6763 112c 01       		.uleb128 0x1
 6764 112d 9C       		.byte	0x9c
 6765 112e 6F110000 		.4byte	0x116f
 6766 1132 16       		.uleb128 0x16
 6767 1133 0D0F0000 		.4byte	.LASF104
 6768 1137 01       		.byte	0x1
 6769 1138 3904     		.2byte	0x439
 6770 113a 8B050000 		.4byte	0x58b
 6771 113e 02       		.uleb128 0x2
 6772 113f 91       		.byte	0x91
 6773 1140 6C       		.sleb128 -20
 6774 1141 16       		.uleb128 0x16
 6775 1142 F7080000 		.4byte	.LASF169
 6776 1146 01       		.byte	0x1
 6777 1147 3904     		.2byte	0x439
 6778 1149 6F110000 		.4byte	0x116f
 6779 114d 02       		.uleb128 0x2
 6780 114e 91       		.byte	0x91
 6781 114f 68       		.sleb128 -24
 6782 1150 19       		.uleb128 0x19
 6783 1151 07040000 		.4byte	.LASF165
 6784 1155 01       		.byte	0x1
 6785 1156 3B04     		.2byte	0x43b
 6786 1158 75110000 		.4byte	0x1175
 6787 115c 02       		.uleb128 0x2
 6788 115d 91       		.byte	0x91
 6789 115e 74       		.sleb128 -12
 6790 115f 17       		.uleb128 0x17
 6791 1160 746D7000 		.ascii	"tmp\000"
 6792 1164 01       		.byte	0x1
 6793 1165 3C04     		.2byte	0x43c
 6794 1167 B8000000 		.4byte	0xb8
 6795 116b 02       		.uleb128 0x2
 6796 116c 91       		.byte	0x91
ARM GAS  /tmp/ccBklucm.s 			page 121


 6797 116d 76       		.sleb128 -10
 6798 116e 00       		.byte	0
 6799 116f 11       		.uleb128 0x11
 6800 1170 04       		.byte	0x4
 6801 1171 AD000000 		.4byte	0xad
 6802 1175 1A       		.uleb128 0x1a
 6803 1176 A2000000 		.4byte	0xa2
 6804 117a 85110000 		.4byte	0x1185
 6805 117e 1B       		.uleb128 0x1b
 6806 117f C9100000 		.4byte	0x10c9
 6807 1183 01       		.byte	0x1
 6808 1184 00       		.byte	0
 6809 1185 15       		.uleb128 0x15
 6810 1186 A40D0000 		.4byte	.LASF170
 6811 118a 01       		.byte	0x1
 6812 118b 5204     		.2byte	0x452
 6813 118d EE000000 		.4byte	0xee
 6814 1191 20100000 		.4byte	.LFB44
 6815 1195 4C000000 		.4byte	.LFE44-.LFB44
 6816 1199 01       		.uleb128 0x1
 6817 119a 9C       		.byte	0x9c
 6818 119b CD110000 		.4byte	0x11cd
 6819 119f 16       		.uleb128 0x16
 6820 11a0 0D0F0000 		.4byte	.LASF104
 6821 11a4 01       		.byte	0x1
 6822 11a5 5204     		.2byte	0x452
 6823 11a7 8B050000 		.4byte	0x58b
 6824 11ab 02       		.uleb128 0x2
 6825 11ac 91       		.byte	0x91
 6826 11ad 6C       		.sleb128 -20
 6827 11ae 16       		.uleb128 0x16
 6828 11af 350D0000 		.4byte	.LASF97
 6829 11b3 01       		.byte	0x1
 6830 11b4 5204     		.2byte	0x452
 6831 11b6 6F110000 		.4byte	0x116f
 6832 11ba 02       		.uleb128 0x2
 6833 11bb 91       		.byte	0x91
 6834 11bc 68       		.sleb128 -24
 6835 11bd 19       		.uleb128 0x19
 6836 11be F7080000 		.4byte	.LASF169
 6837 11c2 01       		.byte	0x1
 6838 11c3 5404     		.2byte	0x454
 6839 11c5 AD000000 		.4byte	0xad
 6840 11c9 02       		.uleb128 0x2
 6841 11ca 91       		.byte	0x91
 6842 11cb 76       		.sleb128 -10
 6843 11cc 00       		.byte	0
 6844 11cd 15       		.uleb128 0x15
 6845 11ce 420F0000 		.4byte	.LASF171
 6846 11d2 01       		.byte	0x1
 6847 11d3 6504     		.2byte	0x465
 6848 11d5 EE000000 		.4byte	0xee
 6849 11d9 70100000 		.4byte	.LFB45
 6850 11dd 42000000 		.4byte	.LFE45-.LFB45
 6851 11e1 01       		.uleb128 0x1
 6852 11e2 9C       		.byte	0x9c
 6853 11e3 15120000 		.4byte	0x1215
ARM GAS  /tmp/ccBklucm.s 			page 122


 6854 11e7 16       		.uleb128 0x16
 6855 11e8 0D0F0000 		.4byte	.LASF104
 6856 11ec 01       		.byte	0x1
 6857 11ed 6504     		.2byte	0x465
 6858 11ef 8B050000 		.4byte	0x58b
 6859 11f3 02       		.uleb128 0x2
 6860 11f4 91       		.byte	0x91
 6861 11f5 6C       		.sleb128 -20
 6862 11f6 16       		.uleb128 0x16
 6863 11f7 BE030000 		.4byte	.LASF172
 6864 11fb 01       		.byte	0x1
 6865 11fc 6504     		.2byte	0x465
 6866 11fe 6F110000 		.4byte	0x116f
 6867 1202 02       		.uleb128 0x2
 6868 1203 91       		.byte	0x91
 6869 1204 68       		.sleb128 -24
 6870 1205 19       		.uleb128 0x19
 6871 1206 76070000 		.4byte	.LASF173
 6872 120a 01       		.byte	0x1
 6873 120b 6704     		.2byte	0x467
 6874 120d 75110000 		.4byte	0x1175
 6875 1211 02       		.uleb128 0x2
 6876 1212 91       		.byte	0x91
 6877 1213 74       		.sleb128 -12
 6878 1214 00       		.byte	0
 6879 1215 15       		.uleb128 0x15
 6880 1216 E8050000 		.4byte	.LASF174
 6881 121a 01       		.byte	0x1
 6882 121b 7804     		.2byte	0x478
 6883 121d EE000000 		.4byte	0xee
 6884 1221 C0100000 		.4byte	.LFB46
 6885 1225 4C000000 		.4byte	.LFE46-.LFB46
 6886 1229 01       		.uleb128 0x1
 6887 122a 9C       		.byte	0x9c
 6888 122b 5D120000 		.4byte	0x125d
 6889 122f 16       		.uleb128 0x16
 6890 1230 0D0F0000 		.4byte	.LASF104
 6891 1234 01       		.byte	0x1
 6892 1235 7804     		.2byte	0x478
 6893 1237 8B050000 		.4byte	0x58b
 6894 123b 02       		.uleb128 0x2
 6895 123c 91       		.byte	0x91
 6896 123d 6C       		.sleb128 -20
 6897 123e 16       		.uleb128 0x16
 6898 123f BE030000 		.4byte	.LASF172
 6899 1243 01       		.byte	0x1
 6900 1244 7804     		.2byte	0x478
 6901 1246 AD000000 		.4byte	0xad
 6902 124a 02       		.uleb128 0x2
 6903 124b 91       		.byte	0x91
 6904 124c 6A       		.sleb128 -22
 6905 124d 19       		.uleb128 0x19
 6906 124e 07040000 		.4byte	.LASF165
 6907 1252 01       		.byte	0x1
 6908 1253 7A04     		.2byte	0x47a
 6909 1255 75110000 		.4byte	0x1175
 6910 1259 02       		.uleb128 0x2
ARM GAS  /tmp/ccBklucm.s 			page 123


 6911 125a 91       		.byte	0x91
 6912 125b 74       		.sleb128 -12
 6913 125c 00       		.byte	0
 6914 125d 15       		.uleb128 0x15
 6915 125e 91070000 		.4byte	.LASF175
 6916 1262 01       		.byte	0x1
 6917 1263 8B04     		.2byte	0x48b
 6918 1265 EE000000 		.4byte	0xee
 6919 1269 10110000 		.4byte	.LFB47
 6920 126d 64000000 		.4byte	.LFE47-.LFB47
 6921 1271 01       		.uleb128 0x1
 6922 1272 9C       		.byte	0x9c
 6923 1273 A5120000 		.4byte	0x12a5
 6924 1277 16       		.uleb128 0x16
 6925 1278 0D0F0000 		.4byte	.LASF104
 6926 127c 01       		.byte	0x1
 6927 127d 8B04     		.2byte	0x48b
 6928 127f 8B050000 		.4byte	0x58b
 6929 1283 02       		.uleb128 0x2
 6930 1284 91       		.byte	0x91
 6931 1285 6C       		.sleb128 -20
 6932 1286 16       		.uleb128 0x16
 6933 1287 190E0000 		.4byte	.LASF176
 6934 128b 01       		.byte	0x1
 6935 128c 8B04     		.2byte	0x48b
 6936 128e 17030000 		.4byte	0x317
 6937 1292 02       		.uleb128 0x2
 6938 1293 91       		.byte	0x91
 6939 1294 6B       		.sleb128 -21
 6940 1295 17       		.uleb128 0x17
 6941 1296 746D7000 		.ascii	"tmp\000"
 6942 129a 01       		.byte	0x1
 6943 129b 8D04     		.2byte	0x48d
 6944 129d A2000000 		.4byte	0xa2
 6945 12a1 02       		.uleb128 0x2
 6946 12a2 91       		.byte	0x91
 6947 12a3 77       		.sleb128 -9
 6948 12a4 00       		.byte	0
 6949 12a5 15       		.uleb128 0x15
 6950 12a6 1D000000 		.4byte	.LASF177
 6951 12aa 01       		.byte	0x1
 6952 12ab A304     		.2byte	0x4a3
 6953 12ad EE000000 		.4byte	0xee
 6954 12b1 80110000 		.4byte	.LFB48
 6955 12b5 40000000 		.4byte	.LFE48-.LFB48
 6956 12b9 01       		.uleb128 0x1
 6957 12ba 9C       		.byte	0x9c
 6958 12bb ED120000 		.4byte	0x12ed
 6959 12bf 16       		.uleb128 0x16
 6960 12c0 0D0F0000 		.4byte	.LASF104
 6961 12c4 01       		.byte	0x1
 6962 12c5 A304     		.2byte	0x4a3
 6963 12c7 8B050000 		.4byte	0x58b
 6964 12cb 02       		.uleb128 0x2
 6965 12cc 91       		.byte	0x91
 6966 12cd 6C       		.sleb128 -20
 6967 12ce 16       		.uleb128 0x16
ARM GAS  /tmp/ccBklucm.s 			page 124


 6968 12cf 190E0000 		.4byte	.LASF176
 6969 12d3 01       		.byte	0x1
 6970 12d4 A304     		.2byte	0x4a3
 6971 12d6 ED120000 		.4byte	0x12ed
 6972 12da 02       		.uleb128 0x2
 6973 12db 91       		.byte	0x91
 6974 12dc 68       		.sleb128 -24
 6975 12dd 17       		.uleb128 0x17
 6976 12de 746D7000 		.ascii	"tmp\000"
 6977 12e2 01       		.byte	0x1
 6978 12e3 A504     		.2byte	0x4a5
 6979 12e5 A2000000 		.4byte	0xa2
 6980 12e9 02       		.uleb128 0x2
 6981 12ea 91       		.byte	0x91
 6982 12eb 77       		.sleb128 -9
 6983 12ec 00       		.byte	0
 6984 12ed 11       		.uleb128 0x11
 6985 12ee 04       		.byte	0x4
 6986 12ef 17030000 		.4byte	0x317
 6987 12f3 15       		.uleb128 0x15
 6988 12f4 F1070000 		.4byte	.LASF178
 6989 12f8 01       		.byte	0x1
 6990 12f9 B604     		.2byte	0x4b6
 6991 12fb EE000000 		.4byte	0xee
 6992 12ff C0110000 		.4byte	.LFB49
 6993 1303 64000000 		.4byte	.LFE49-.LFB49
 6994 1307 01       		.uleb128 0x1
 6995 1308 9C       		.byte	0x9c
 6996 1309 3B130000 		.4byte	0x133b
 6997 130d 16       		.uleb128 0x16
 6998 130e 0D0F0000 		.4byte	.LASF104
 6999 1312 01       		.byte	0x1
 7000 1313 B604     		.2byte	0x4b6
 7001 1315 8B050000 		.4byte	0x58b
 7002 1319 02       		.uleb128 0x2
 7003 131a 91       		.byte	0x91
 7004 131b 6C       		.sleb128 -20
 7005 131c 16       		.uleb128 0x16
 7006 131d DF050000 		.4byte	.LASF179
 7007 1321 01       		.byte	0x1
 7008 1322 B604     		.2byte	0x4b6
 7009 1324 A2000000 		.4byte	0xa2
 7010 1328 02       		.uleb128 0x2
 7011 1329 91       		.byte	0x91
 7012 132a 6B       		.sleb128 -21
 7013 132b 17       		.uleb128 0x17
 7014 132c 746D7000 		.ascii	"tmp\000"
 7015 1330 01       		.byte	0x1
 7016 1331 B804     		.2byte	0x4b8
 7017 1333 A2000000 		.4byte	0xa2
 7018 1337 02       		.uleb128 0x2
 7019 1338 91       		.byte	0x91
 7020 1339 77       		.sleb128 -9
 7021 133a 00       		.byte	0
 7022 133b 15       		.uleb128 0x15
 7023 133c 9E0E0000 		.4byte	.LASF180
 7024 1340 01       		.byte	0x1
ARM GAS  /tmp/ccBklucm.s 			page 125


 7025 1341 CE04     		.2byte	0x4ce
 7026 1343 EE000000 		.4byte	0xee
 7027 1347 30120000 		.4byte	.LFB50
 7028 134b 36000000 		.4byte	.LFE50-.LFB50
 7029 134f 01       		.uleb128 0x1
 7030 1350 9C       		.byte	0x9c
 7031 1351 74130000 		.4byte	0x1374
 7032 1355 16       		.uleb128 0x16
 7033 1356 0D0F0000 		.4byte	.LASF104
 7034 135a 01       		.byte	0x1
 7035 135b CE04     		.2byte	0x4ce
 7036 135d 8B050000 		.4byte	0x58b
 7037 1361 02       		.uleb128 0x2
 7038 1362 91       		.byte	0x91
 7039 1363 74       		.sleb128 -12
 7040 1364 16       		.uleb128 0x16
 7041 1365 DF050000 		.4byte	.LASF179
 7042 1369 01       		.byte	0x1
 7043 136a CE04     		.2byte	0x4ce
 7044 136c 8D050000 		.4byte	0x58d
 7045 1370 02       		.uleb128 0x2
 7046 1371 91       		.byte	0x91
 7047 1372 70       		.sleb128 -16
 7048 1373 00       		.byte	0
 7049 1374 15       		.uleb128 0x15
 7050 1375 18060000 		.4byte	.LASF181
 7051 1379 01       		.byte	0x1
 7052 137a DE04     		.2byte	0x4de
 7053 137c EE000000 		.4byte	0xee
 7054 1380 70120000 		.4byte	.LFB51
 7055 1384 80000000 		.4byte	.LFE51-.LFB51
 7056 1388 01       		.uleb128 0x1
 7057 1389 9C       		.byte	0x9c
 7058 138a BC130000 		.4byte	0x13bc
 7059 138e 16       		.uleb128 0x16
 7060 138f 0D0F0000 		.4byte	.LASF104
 7061 1393 01       		.byte	0x1
 7062 1394 DE04     		.2byte	0x4de
 7063 1396 8B050000 		.4byte	0x58b
 7064 139a 02       		.uleb128 0x2
 7065 139b 91       		.byte	0x91
 7066 139c 6C       		.sleb128 -20
 7067 139d 16       		.uleb128 0x16
 7068 139e 350E0000 		.4byte	.LASF134
 7069 13a2 01       		.byte	0x1
 7070 13a3 DE04     		.2byte	0x4de
 7071 13a5 BC130000 		.4byte	0x13bc
 7072 13a9 02       		.uleb128 0x2
 7073 13aa 91       		.byte	0x91
 7074 13ab 68       		.sleb128 -24
 7075 13ac 17       		.uleb128 0x17
 7076 13ad 746D7000 		.ascii	"tmp\000"
 7077 13b1 01       		.byte	0x1
 7078 13b2 E004     		.2byte	0x4e0
 7079 13b4 A2000000 		.4byte	0xa2
 7080 13b8 02       		.uleb128 0x2
 7081 13b9 91       		.byte	0x91
ARM GAS  /tmp/ccBklucm.s 			page 126


 7082 13ba 77       		.sleb128 -9
 7083 13bb 00       		.byte	0
 7084 13bc 11       		.uleb128 0x11
 7085 13bd 04       		.byte	0x4
 7086 13be 6D030000 		.4byte	0x36d
 7087 13c2 15       		.uleb128 0x15
 7088 13c3 690D0000 		.4byte	.LASF182
 7089 13c7 01       		.byte	0x1
 7090 13c8 FD04     		.2byte	0x4fd
 7091 13ca EE000000 		.4byte	0xee
 7092 13ce F0120000 		.4byte	.LFB52
 7093 13d2 56000000 		.4byte	.LFE52-.LFB52
 7094 13d6 01       		.uleb128 0x1
 7095 13d7 9C       		.byte	0x9c
 7096 13d8 19140000 		.4byte	0x1419
 7097 13dc 16       		.uleb128 0x16
 7098 13dd 0D0F0000 		.4byte	.LASF104
 7099 13e1 01       		.byte	0x1
 7100 13e2 FD04     		.2byte	0x4fd
 7101 13e4 8B050000 		.4byte	0x58b
 7102 13e8 02       		.uleb128 0x2
 7103 13e9 91       		.byte	0x91
 7104 13ea 6C       		.sleb128 -20
 7105 13eb 16       		.uleb128 0x16
 7106 13ec 25040000 		.4byte	.LASF183
 7107 13f0 01       		.byte	0x1
 7108 13f1 FD04     		.2byte	0x4fd
 7109 13f3 6F110000 		.4byte	0x116f
 7110 13f7 02       		.uleb128 0x2
 7111 13f8 91       		.byte	0x91
 7112 13f9 68       		.sleb128 -24
 7113 13fa 19       		.uleb128 0x19
 7114 13fb 07040000 		.4byte	.LASF165
 7115 13ff 01       		.byte	0x1
 7116 1400 FF04     		.2byte	0x4ff
 7117 1402 75110000 		.4byte	0x1175
 7118 1406 02       		.uleb128 0x2
 7119 1407 91       		.byte	0x91
 7120 1408 74       		.sleb128 -12
 7121 1409 19       		.uleb128 0x19
 7122 140a 1A030000 		.4byte	.LASF164
 7123 140e 01       		.byte	0x1
 7124 140f 0005     		.2byte	0x500
 7125 1411 AD000000 		.4byte	0xad
 7126 1415 02       		.uleb128 0x2
 7127 1416 91       		.byte	0x91
 7128 1417 76       		.sleb128 -10
 7129 1418 00       		.byte	0
 7130 1419 15       		.uleb128 0x15
 7131 141a 69050000 		.4byte	.LASF184
 7132 141e 01       		.byte	0x1
 7133 141f 1405     		.2byte	0x514
 7134 1421 EE000000 		.4byte	0xee
 7135 1425 50130000 		.4byte	.LFB53
 7136 1429 92000000 		.4byte	.LFE53-.LFB53
 7137 142d 01       		.uleb128 0x1
 7138 142e 9C       		.byte	0x9c
ARM GAS  /tmp/ccBklucm.s 			page 127


 7139 142f 8C140000 		.4byte	0x148c
 7140 1433 16       		.uleb128 0x16
 7141 1434 0D0F0000 		.4byte	.LASF104
 7142 1438 01       		.byte	0x1
 7143 1439 1405     		.2byte	0x514
 7144 143b 8B050000 		.4byte	0x58b
 7145 143f 02       		.uleb128 0x2
 7146 1440 91       		.byte	0x91
 7147 1441 64       		.sleb128 -28
 7148 1442 16       		.uleb128 0x16
 7149 1443 27010000 		.4byte	.LASF185
 7150 1447 01       		.byte	0x1
 7151 1448 1405     		.2byte	0x514
 7152 144a B3100000 		.4byte	0x10b3
 7153 144e 02       		.uleb128 0x2
 7154 144f 91       		.byte	0x91
 7155 1450 60       		.sleb128 -32
 7156 1451 19       		.uleb128 0x19
 7157 1452 07040000 		.4byte	.LASF165
 7158 1456 01       		.byte	0x1
 7159 1457 1605     		.2byte	0x516
 7160 1459 B9100000 		.4byte	0x10b9
 7161 145d 02       		.uleb128 0x2
 7162 145e 91       		.byte	0x91
 7163 145f 68       		.sleb128 -24
 7164 1460 19       		.uleb128 0x19
 7165 1461 97080000 		.4byte	.LASF186
 7166 1465 01       		.byte	0x1
 7167 1466 1705     		.2byte	0x517
 7168 1468 CE000000 		.4byte	0xce
 7169 146c 02       		.uleb128 0x2
 7170 146d 91       		.byte	0x91
 7171 146e 74       		.sleb128 -12
 7172 146f 19       		.uleb128 0x19
 7173 1470 1A030000 		.4byte	.LASF164
 7174 1474 01       		.byte	0x1
 7175 1475 1805     		.2byte	0x518
 7176 1477 C3000000 		.4byte	0xc3
 7177 147b 02       		.uleb128 0x2
 7178 147c 91       		.byte	0x91
 7179 147d 6C       		.sleb128 -20
 7180 147e 17       		.uleb128 0x17
 7181 147f 6900     		.ascii	"i\000"
 7182 1481 01       		.byte	0x1
 7183 1482 1905     		.2byte	0x519
 7184 1484 A2000000 		.4byte	0xa2
 7185 1488 02       		.uleb128 0x2
 7186 1489 91       		.byte	0x91
 7187 148a 73       		.sleb128 -13
 7188 148b 00       		.byte	0
 7189 148c 15       		.uleb128 0x15
 7190 148d 990C0000 		.4byte	.LASF187
 7191 1491 01       		.byte	0x1
 7192 1492 3405     		.2byte	0x534
 7193 1494 EE000000 		.4byte	0xee
 7194 1498 F0130000 		.4byte	.LFB54
 7195 149c 58000000 		.4byte	.LFE54-.LFB54
ARM GAS  /tmp/ccBklucm.s 			page 128


 7196 14a0 01       		.uleb128 0x1
 7197 14a1 9C       		.byte	0x9c
 7198 14a2 E3140000 		.4byte	0x14e3
 7199 14a6 16       		.uleb128 0x16
 7200 14a7 0D0F0000 		.4byte	.LASF104
 7201 14ab 01       		.byte	0x1
 7202 14ac 3405     		.2byte	0x534
 7203 14ae 8B050000 		.4byte	0x58b
 7204 14b2 02       		.uleb128 0x2
 7205 14b3 91       		.byte	0x91
 7206 14b4 6C       		.sleb128 -20
 7207 14b5 16       		.uleb128 0x16
 7208 14b6 5B000000 		.4byte	.LASF188
 7209 14ba 01       		.byte	0x1
 7210 14bb 3405     		.2byte	0x534
 7211 14bd 8D050000 		.4byte	0x58d
 7212 14c1 02       		.uleb128 0x2
 7213 14c2 91       		.byte	0x91
 7214 14c3 68       		.sleb128 -24
 7215 14c4 17       		.uleb128 0x17
 7216 14c5 746D7000 		.ascii	"tmp\000"
 7217 14c9 01       		.byte	0x1
 7218 14ca 3605     		.2byte	0x536
 7219 14cc A2000000 		.4byte	0xa2
 7220 14d0 02       		.uleb128 0x2
 7221 14d1 91       		.byte	0x91
 7222 14d2 77       		.sleb128 -9
 7223 14d3 19       		.uleb128 0x19
 7224 14d4 A8090000 		.4byte	.LASF162
 7225 14d8 01       		.byte	0x1
 7226 14d9 3705     		.2byte	0x537
 7227 14db BB020000 		.4byte	0x2bb
 7228 14df 02       		.uleb128 0x2
 7229 14e0 91       		.byte	0x91
 7230 14e1 70       		.sleb128 -16
 7231 14e2 00       		.byte	0
 7232 14e3 15       		.uleb128 0x15
 7233 14e4 470D0000 		.4byte	.LASF189
 7234 14e8 01       		.byte	0x1
 7235 14e9 4A05     		.2byte	0x54a
 7236 14eb EE000000 		.4byte	0xee
 7237 14ef 50140000 		.4byte	.LFB55
 7238 14f3 4A000000 		.4byte	.LFE55-.LFB55
 7239 14f7 01       		.uleb128 0x1
 7240 14f8 9C       		.byte	0x9c
 7241 14f9 3A150000 		.4byte	0x153a
 7242 14fd 16       		.uleb128 0x16
 7243 14fe 0D0F0000 		.4byte	.LASF104
 7244 1502 01       		.byte	0x1
 7245 1503 4A05     		.2byte	0x54a
 7246 1505 8B050000 		.4byte	0x58b
 7247 1509 02       		.uleb128 0x2
 7248 150a 91       		.byte	0x91
 7249 150b 6C       		.sleb128 -20
 7250 150c 16       		.uleb128 0x16
 7251 150d CF0A0000 		.4byte	.LASF190
 7252 1511 01       		.byte	0x1
ARM GAS  /tmp/ccBklucm.s 			page 129


 7253 1512 4A05     		.2byte	0x54a
 7254 1514 3A150000 		.4byte	0x153a
 7255 1518 02       		.uleb128 0x2
 7256 1519 91       		.byte	0x91
 7257 151a 68       		.sleb128 -24
 7258 151b 19       		.uleb128 0x19
 7259 151c 350D0000 		.4byte	.LASF97
 7260 1520 01       		.byte	0x1
 7261 1521 4C05     		.2byte	0x54c
 7262 1523 AD000000 		.4byte	0xad
 7263 1527 02       		.uleb128 0x2
 7264 1528 91       		.byte	0x91
 7265 1529 76       		.sleb128 -10
 7266 152a 19       		.uleb128 0x19
 7267 152b D2030000 		.4byte	.LASF98
 7268 152f 01       		.byte	0x1
 7269 1530 4D05     		.2byte	0x54d
 7270 1532 C3000000 		.4byte	0xc3
 7271 1536 02       		.uleb128 0x2
 7272 1537 91       		.byte	0x91
 7273 1538 70       		.sleb128 -16
 7274 1539 00       		.byte	0
 7275 153a 11       		.uleb128 0x11
 7276 153b 04       		.byte	0x4
 7277 153c F0040000 		.4byte	0x4f0
 7278 1540 15       		.uleb128 0x15
 7279 1541 EC060000 		.4byte	.LASF191
 7280 1545 01       		.byte	0x1
 7281 1546 6605     		.2byte	0x566
 7282 1548 EE000000 		.4byte	0xee
 7283 154c A0140000 		.4byte	.LFB56
 7284 1550 5E000000 		.4byte	.LFE56-.LFB56
 7285 1554 01       		.uleb128 0x1
 7286 1555 9C       		.byte	0x9c
 7287 1556 79150000 		.4byte	0x1579
 7288 155a 16       		.uleb128 0x16
 7289 155b 0D0F0000 		.4byte	.LASF104
 7290 155f 01       		.byte	0x1
 7291 1560 6605     		.2byte	0x566
 7292 1562 8B050000 		.4byte	0x58b
 7293 1566 02       		.uleb128 0x2
 7294 1567 91       		.byte	0x91
 7295 1568 6C       		.sleb128 -20
 7296 1569 19       		.uleb128 0x19
 7297 156a 46070000 		.4byte	.LASF192
 7298 156e 01       		.byte	0x1
 7299 156f 6805     		.2byte	0x568
 7300 1571 DE030000 		.4byte	0x3de
 7301 1575 02       		.uleb128 0x2
 7302 1576 91       		.byte	0x91
 7303 1577 70       		.sleb128 -16
 7304 1578 00       		.byte	0
 7305 1579 15       		.uleb128 0x15
 7306 157a B2070000 		.4byte	.LASF193
 7307 157e 01       		.byte	0x1
 7308 157f 8305     		.2byte	0x583
 7309 1581 EE000000 		.4byte	0xee
ARM GAS  /tmp/ccBklucm.s 			page 130


 7310 1585 00150000 		.4byte	.LFB57
 7311 1589 34000000 		.4byte	.LFE57-.LFB57
 7312 158d 01       		.uleb128 0x1
 7313 158e 9C       		.byte	0x9c
 7314 158f B2150000 		.4byte	0x15b2
 7315 1593 16       		.uleb128 0x16
 7316 1594 0D0F0000 		.4byte	.LASF104
 7317 1598 01       		.byte	0x1
 7318 1599 8305     		.2byte	0x583
 7319 159b 8B050000 		.4byte	0x58b
 7320 159f 02       		.uleb128 0x2
 7321 15a0 91       		.byte	0x91
 7322 15a1 6C       		.sleb128 -20
 7323 15a2 19       		.uleb128 0x19
 7324 15a3 CF0A0000 		.4byte	.LASF190
 7325 15a7 01       		.byte	0x1
 7326 15a8 8505     		.2byte	0x585
 7327 15aa F0040000 		.4byte	0x4f0
 7328 15ae 02       		.uleb128 0x2
 7329 15af 91       		.byte	0x91
 7330 15b0 70       		.sleb128 -16
 7331 15b1 00       		.byte	0
 7332 15b2 15       		.uleb128 0x15
 7333 15b3 67030000 		.4byte	.LASF194
 7334 15b7 01       		.byte	0x1
 7335 15b8 9905     		.2byte	0x599
 7336 15ba EE000000 		.4byte	0xee
 7337 15be 40150000 		.4byte	.LFB58
 7338 15c2 AC000000 		.4byte	.LFE58-.LFB58
 7339 15c6 01       		.uleb128 0x1
 7340 15c7 9C       		.byte	0x9c
 7341 15c8 EB150000 		.4byte	0x15eb
 7342 15cc 16       		.uleb128 0x16
 7343 15cd 0D0F0000 		.4byte	.LASF104
 7344 15d1 01       		.byte	0x1
 7345 15d2 9905     		.2byte	0x599
 7346 15d4 8B050000 		.4byte	0x58b
 7347 15d8 02       		.uleb128 0x2
 7348 15d9 91       		.byte	0x91
 7349 15da 74       		.sleb128 -12
 7350 15db 16       		.uleb128 0x16
 7351 15dc 73080000 		.4byte	.LASF195
 7352 15e0 01       		.byte	0x1
 7353 15e1 9905     		.2byte	0x599
 7354 15e3 EB150000 		.4byte	0x15eb
 7355 15e7 02       		.uleb128 0x2
 7356 15e8 91       		.byte	0x91
 7357 15e9 70       		.sleb128 -16
 7358 15ea 00       		.byte	0
 7359 15eb 11       		.uleb128 0x11
 7360 15ec 04       		.byte	0x4
 7361 15ed DE030000 		.4byte	0x3de
 7362 15f1 15       		.uleb128 0x15
 7363 15f2 4E010000 		.4byte	.LASF196
 7364 15f6 01       		.byte	0x1
 7365 15f7 CA05     		.2byte	0x5ca
 7366 15f9 EE000000 		.4byte	0xee
ARM GAS  /tmp/ccBklucm.s 			page 131


 7367 15fd F0150000 		.4byte	.LFB59
 7368 1601 AE000000 		.4byte	.LFE59-.LFB59
 7369 1605 01       		.uleb128 0x1
 7370 1606 9C       		.byte	0x9c
 7371 1607 39160000 		.4byte	0x1639
 7372 160b 16       		.uleb128 0x16
 7373 160c 0D0F0000 		.4byte	.LASF104
 7374 1610 01       		.byte	0x1
 7375 1611 CA05     		.2byte	0x5ca
 7376 1613 8B050000 		.4byte	0x58b
 7377 1617 02       		.uleb128 0x2
 7378 1618 91       		.byte	0x91
 7379 1619 6C       		.sleb128 -20
 7380 161a 16       		.uleb128 0x16
 7381 161b 73080000 		.4byte	.LASF195
 7382 161f 01       		.byte	0x1
 7383 1620 CA05     		.2byte	0x5ca
 7384 1622 EB150000 		.4byte	0x15eb
 7385 1626 02       		.uleb128 0x2
 7386 1627 91       		.byte	0x91
 7387 1628 68       		.sleb128 -24
 7388 1629 17       		.uleb128 0x17
 7389 162a 746D7000 		.ascii	"tmp\000"
 7390 162e 01       		.byte	0x1
 7391 162f CD05     		.2byte	0x5cd
 7392 1631 A2000000 		.4byte	0xa2
 7393 1635 02       		.uleb128 0x2
 7394 1636 91       		.byte	0x91
 7395 1637 77       		.sleb128 -9
 7396 1638 00       		.byte	0
 7397 1639 15       		.uleb128 0x15
 7398 163a 2F060000 		.4byte	.LASF197
 7399 163e 01       		.byte	0x1
 7400 163f ED05     		.2byte	0x5ed
 7401 1641 EE000000 		.4byte	0xee
 7402 1645 A0160000 		.4byte	.LFB60
 7403 1649 F6010000 		.4byte	.LFE60-.LFB60
 7404 164d 01       		.uleb128 0x1
 7405 164e 9C       		.byte	0x9c
 7406 164f 72160000 		.4byte	0x1672
 7407 1653 16       		.uleb128 0x16
 7408 1654 0D0F0000 		.4byte	.LASF104
 7409 1658 01       		.byte	0x1
 7410 1659 ED05     		.2byte	0x5ed
 7411 165b 8B050000 		.4byte	0x58b
 7412 165f 02       		.uleb128 0x2
 7413 1660 91       		.byte	0x91
 7414 1661 74       		.sleb128 -12
 7415 1662 16       		.uleb128 0x16
 7416 1663 920D0000 		.4byte	.LASF198
 7417 1667 01       		.byte	0x1
 7418 1668 ED05     		.2byte	0x5ed
 7419 166a 72160000 		.4byte	0x1672
 7420 166e 02       		.uleb128 0x2
 7421 166f 91       		.byte	0x91
 7422 1670 70       		.sleb128 -16
 7423 1671 00       		.byte	0
ARM GAS  /tmp/ccBklucm.s 			page 132


 7424 1672 11       		.uleb128 0x11
 7425 1673 04       		.byte	0x4
 7426 1674 83040000 		.4byte	0x483
 7427 1678 15       		.uleb128 0x15
 7428 1679 F20B0000 		.4byte	.LASF199
 7429 167d 01       		.byte	0x1
 7430 167e 5C06     		.2byte	0x65c
 7431 1680 EE000000 		.4byte	0xee
 7432 1684 A0180000 		.4byte	.LFB61
 7433 1688 DE000000 		.4byte	.LFE61-.LFB61
 7434 168c 01       		.uleb128 0x1
 7435 168d 9C       		.byte	0x9c
 7436 168e C0160000 		.4byte	0x16c0
 7437 1692 16       		.uleb128 0x16
 7438 1693 0D0F0000 		.4byte	.LASF104
 7439 1697 01       		.byte	0x1
 7440 1698 5C06     		.2byte	0x65c
 7441 169a 8B050000 		.4byte	0x58b
 7442 169e 02       		.uleb128 0x2
 7443 169f 91       		.byte	0x91
 7444 16a0 6C       		.sleb128 -20
 7445 16a1 16       		.uleb128 0x16
 7446 16a2 920D0000 		.4byte	.LASF198
 7447 16a6 01       		.byte	0x1
 7448 16a7 5C06     		.2byte	0x65c
 7449 16a9 72160000 		.4byte	0x1672
 7450 16ad 02       		.uleb128 0x2
 7451 16ae 91       		.byte	0x91
 7452 16af 68       		.sleb128 -24
 7453 16b0 17       		.uleb128 0x17
 7454 16b1 746D7000 		.ascii	"tmp\000"
 7455 16b5 01       		.byte	0x1
 7456 16b6 5E06     		.2byte	0x65e
 7457 16b8 A2000000 		.4byte	0xa2
 7458 16bc 02       		.uleb128 0x2
 7459 16bd 91       		.byte	0x91
 7460 16be 77       		.sleb128 -9
 7461 16bf 00       		.byte	0
 7462 16c0 15       		.uleb128 0x15
 7463 16c1 D1070000 		.4byte	.LASF200
 7464 16c5 01       		.byte	0x1
 7465 16c6 8206     		.2byte	0x682
 7466 16c8 EE000000 		.4byte	0xee
 7467 16cc 80190000 		.4byte	.LFB62
 7468 16d0 BA000000 		.4byte	.LFE62-.LFB62
 7469 16d4 01       		.uleb128 0x1
 7470 16d5 9C       		.byte	0x9c
 7471 16d6 F9160000 		.4byte	0x16f9
 7472 16da 16       		.uleb128 0x16
 7473 16db 0D0F0000 		.4byte	.LASF104
 7474 16df 01       		.byte	0x1
 7475 16e0 8206     		.2byte	0x682
 7476 16e2 8B050000 		.4byte	0x58b
 7477 16e6 02       		.uleb128 0x2
 7478 16e7 91       		.byte	0x91
 7479 16e8 74       		.sleb128 -12
 7480 16e9 16       		.uleb128 0x16
ARM GAS  /tmp/ccBklucm.s 			page 133


 7481 16ea 3A0D0000 		.4byte	.LASF201
 7482 16ee 01       		.byte	0x1
 7483 16ef 8206     		.2byte	0x682
 7484 16f1 F9160000 		.4byte	0x16f9
 7485 16f5 02       		.uleb128 0x2
 7486 16f6 91       		.byte	0x91
 7487 16f7 70       		.sleb128 -16
 7488 16f8 00       		.byte	0
 7489 16f9 11       		.uleb128 0x11
 7490 16fa 04       		.byte	0x4
 7491 16fb C0040000 		.4byte	0x4c0
 7492 16ff 1C       		.uleb128 0x1c
 7493 1700 0E040000 		.4byte	.LASF205
 7494 1704 01       		.byte	0x1
 7495 1705 B206     		.2byte	0x6b2
 7496 1707 EE000000 		.4byte	0xee
 7497 170b 401A0000 		.4byte	.LFB63
 7498 170f 6E000000 		.4byte	.LFE63-.LFB63
 7499 1713 01       		.uleb128 0x1
 7500 1714 9C       		.byte	0x9c
 7501 1715 16       		.uleb128 0x16
 7502 1716 0D0F0000 		.4byte	.LASF104
 7503 171a 01       		.byte	0x1
 7504 171b B206     		.2byte	0x6b2
 7505 171d 8B050000 		.4byte	0x58b
 7506 1721 02       		.uleb128 0x2
 7507 1722 91       		.byte	0x91
 7508 1723 6C       		.sleb128 -20
 7509 1724 16       		.uleb128 0x16
 7510 1725 3A0D0000 		.4byte	.LASF201
 7511 1729 01       		.byte	0x1
 7512 172a B206     		.2byte	0x6b2
 7513 172c F9160000 		.4byte	0x16f9
 7514 1730 02       		.uleb128 0x2
 7515 1731 91       		.byte	0x91
 7516 1732 68       		.sleb128 -24
 7517 1733 17       		.uleb128 0x17
 7518 1734 746D7000 		.ascii	"tmp\000"
 7519 1738 01       		.byte	0x1
 7520 1739 B406     		.2byte	0x6b4
 7521 173b A2000000 		.4byte	0xa2
 7522 173f 02       		.uleb128 0x2
 7523 1740 91       		.byte	0x91
 7524 1741 77       		.sleb128 -9
 7525 1742 00       		.byte	0
 7526 1743 00       		.byte	0
 7527              		.section	.debug_abbrev,"",%progbits
 7528              	.Ldebug_abbrev0:
 7529 0000 01       		.uleb128 0x1
 7530 0001 11       		.uleb128 0x11
 7531 0002 01       		.byte	0x1
 7532 0003 25       		.uleb128 0x25
 7533 0004 0E       		.uleb128 0xe
 7534 0005 13       		.uleb128 0x13
 7535 0006 0B       		.uleb128 0xb
 7536 0007 03       		.uleb128 0x3
 7537 0008 0E       		.uleb128 0xe
ARM GAS  /tmp/ccBklucm.s 			page 134


 7538 0009 1B       		.uleb128 0x1b
 7539 000a 0E       		.uleb128 0xe
 7540 000b 11       		.uleb128 0x11
 7541 000c 01       		.uleb128 0x1
 7542 000d 12       		.uleb128 0x12
 7543 000e 06       		.uleb128 0x6
 7544 000f 10       		.uleb128 0x10
 7545 0010 17       		.uleb128 0x17
 7546 0011 00       		.byte	0
 7547 0012 00       		.byte	0
 7548 0013 02       		.uleb128 0x2
 7549 0014 24       		.uleb128 0x24
 7550 0015 00       		.byte	0
 7551 0016 0B       		.uleb128 0xb
 7552 0017 0B       		.uleb128 0xb
 7553 0018 3E       		.uleb128 0x3e
 7554 0019 0B       		.uleb128 0xb
 7555 001a 03       		.uleb128 0x3
 7556 001b 0E       		.uleb128 0xe
 7557 001c 00       		.byte	0
 7558 001d 00       		.byte	0
 7559 001e 03       		.uleb128 0x3
 7560 001f 16       		.uleb128 0x16
 7561 0020 00       		.byte	0
 7562 0021 03       		.uleb128 0x3
 7563 0022 0E       		.uleb128 0xe
 7564 0023 3A       		.uleb128 0x3a
 7565 0024 0B       		.uleb128 0xb
 7566 0025 3B       		.uleb128 0x3b
 7567 0026 0B       		.uleb128 0xb
 7568 0027 49       		.uleb128 0x49
 7569 0028 13       		.uleb128 0x13
 7570 0029 00       		.byte	0
 7571 002a 00       		.byte	0
 7572 002b 04       		.uleb128 0x4
 7573 002c 24       		.uleb128 0x24
 7574 002d 00       		.byte	0
 7575 002e 0B       		.uleb128 0xb
 7576 002f 0B       		.uleb128 0xb
 7577 0030 3E       		.uleb128 0x3e
 7578 0031 0B       		.uleb128 0xb
 7579 0032 03       		.uleb128 0x3
 7580 0033 08       		.uleb128 0x8
 7581 0034 00       		.byte	0
 7582 0035 00       		.byte	0
 7583 0036 05       		.uleb128 0x5
 7584 0037 04       		.uleb128 0x4
 7585 0038 01       		.byte	0x1
 7586 0039 0B       		.uleb128 0xb
 7587 003a 0B       		.uleb128 0xb
 7588 003b 3A       		.uleb128 0x3a
 7589 003c 0B       		.uleb128 0xb
 7590 003d 3B       		.uleb128 0x3b
 7591 003e 0B       		.uleb128 0xb
 7592 003f 01       		.uleb128 0x1
 7593 0040 13       		.uleb128 0x13
 7594 0041 00       		.byte	0
ARM GAS  /tmp/ccBklucm.s 			page 135


 7595 0042 00       		.byte	0
 7596 0043 06       		.uleb128 0x6
 7597 0044 28       		.uleb128 0x28
 7598 0045 00       		.byte	0
 7599 0046 03       		.uleb128 0x3
 7600 0047 0E       		.uleb128 0xe
 7601 0048 1C       		.uleb128 0x1c
 7602 0049 0D       		.uleb128 0xd
 7603 004a 00       		.byte	0
 7604 004b 00       		.byte	0
 7605 004c 07       		.uleb128 0x7
 7606 004d 13       		.uleb128 0x13
 7607 004e 01       		.byte	0x1
 7608 004f 0B       		.uleb128 0xb
 7609 0050 0B       		.uleb128 0xb
 7610 0051 3A       		.uleb128 0x3a
 7611 0052 0B       		.uleb128 0xb
 7612 0053 3B       		.uleb128 0x3b
 7613 0054 0B       		.uleb128 0xb
 7614 0055 01       		.uleb128 0x1
 7615 0056 13       		.uleb128 0x13
 7616 0057 00       		.byte	0
 7617 0058 00       		.byte	0
 7618 0059 08       		.uleb128 0x8
 7619 005a 0D       		.uleb128 0xd
 7620 005b 00       		.byte	0
 7621 005c 03       		.uleb128 0x3
 7622 005d 08       		.uleb128 0x8
 7623 005e 3A       		.uleb128 0x3a
 7624 005f 0B       		.uleb128 0xb
 7625 0060 3B       		.uleb128 0x3b
 7626 0061 0B       		.uleb128 0xb
 7627 0062 49       		.uleb128 0x49
 7628 0063 13       		.uleb128 0x13
 7629 0064 38       		.uleb128 0x38
 7630 0065 0B       		.uleb128 0xb
 7631 0066 00       		.byte	0
 7632 0067 00       		.byte	0
 7633 0068 09       		.uleb128 0x9
 7634 0069 0D       		.uleb128 0xd
 7635 006a 00       		.byte	0
 7636 006b 03       		.uleb128 0x3
 7637 006c 0E       		.uleb128 0xe
 7638 006d 3A       		.uleb128 0x3a
 7639 006e 0B       		.uleb128 0xb
 7640 006f 3B       		.uleb128 0x3b
 7641 0070 0B       		.uleb128 0xb
 7642 0071 49       		.uleb128 0x49
 7643 0072 13       		.uleb128 0x13
 7644 0073 38       		.uleb128 0x38
 7645 0074 0B       		.uleb128 0xb
 7646 0075 00       		.byte	0
 7647 0076 00       		.byte	0
 7648 0077 0A       		.uleb128 0xa
 7649 0078 13       		.uleb128 0x13
 7650 0079 01       		.byte	0x1
 7651 007a 0B       		.uleb128 0xb
ARM GAS  /tmp/ccBklucm.s 			page 136


 7652 007b 0B       		.uleb128 0xb
 7653 007c 3A       		.uleb128 0x3a
 7654 007d 0B       		.uleb128 0xb
 7655 007e 3B       		.uleb128 0x3b
 7656 007f 05       		.uleb128 0x5
 7657 0080 01       		.uleb128 0x1
 7658 0081 13       		.uleb128 0x13
 7659 0082 00       		.byte	0
 7660 0083 00       		.byte	0
 7661 0084 0B       		.uleb128 0xb
 7662 0085 0D       		.uleb128 0xd
 7663 0086 00       		.byte	0
 7664 0087 03       		.uleb128 0x3
 7665 0088 0E       		.uleb128 0xe
 7666 0089 3A       		.uleb128 0x3a
 7667 008a 0B       		.uleb128 0xb
 7668 008b 3B       		.uleb128 0x3b
 7669 008c 05       		.uleb128 0x5
 7670 008d 49       		.uleb128 0x49
 7671 008e 13       		.uleb128 0x13
 7672 008f 38       		.uleb128 0x38
 7673 0090 0B       		.uleb128 0xb
 7674 0091 00       		.byte	0
 7675 0092 00       		.byte	0
 7676 0093 0C       		.uleb128 0xc
 7677 0094 16       		.uleb128 0x16
 7678 0095 00       		.byte	0
 7679 0096 03       		.uleb128 0x3
 7680 0097 0E       		.uleb128 0xe
 7681 0098 3A       		.uleb128 0x3a
 7682 0099 0B       		.uleb128 0xb
 7683 009a 3B       		.uleb128 0x3b
 7684 009b 05       		.uleb128 0x5
 7685 009c 49       		.uleb128 0x49
 7686 009d 13       		.uleb128 0x13
 7687 009e 00       		.byte	0
 7688 009f 00       		.byte	0
 7689 00a0 0D       		.uleb128 0xd
 7690 00a1 0D       		.uleb128 0xd
 7691 00a2 00       		.byte	0
 7692 00a3 03       		.uleb128 0x3
 7693 00a4 08       		.uleb128 0x8
 7694 00a5 3A       		.uleb128 0x3a
 7695 00a6 0B       		.uleb128 0xb
 7696 00a7 3B       		.uleb128 0x3b
 7697 00a8 05       		.uleb128 0x5
 7698 00a9 49       		.uleb128 0x49
 7699 00aa 13       		.uleb128 0x13
 7700 00ab 38       		.uleb128 0x38
 7701 00ac 0B       		.uleb128 0xb
 7702 00ad 00       		.byte	0
 7703 00ae 00       		.byte	0
 7704 00af 0E       		.uleb128 0xe
 7705 00b0 2E       		.uleb128 0x2e
 7706 00b1 01       		.byte	0x1
 7707 00b2 3F       		.uleb128 0x3f
 7708 00b3 19       		.uleb128 0x19
ARM GAS  /tmp/ccBklucm.s 			page 137


 7709 00b4 03       		.uleb128 0x3
 7710 00b5 0E       		.uleb128 0xe
 7711 00b6 3A       		.uleb128 0x3a
 7712 00b7 0B       		.uleb128 0xb
 7713 00b8 3B       		.uleb128 0x3b
 7714 00b9 0B       		.uleb128 0xb
 7715 00ba 27       		.uleb128 0x27
 7716 00bb 19       		.uleb128 0x19
 7717 00bc 49       		.uleb128 0x49
 7718 00bd 13       		.uleb128 0x13
 7719 00be 11       		.uleb128 0x11
 7720 00bf 01       		.uleb128 0x1
 7721 00c0 12       		.uleb128 0x12
 7722 00c1 06       		.uleb128 0x6
 7723 00c2 40       		.uleb128 0x40
 7724 00c3 18       		.uleb128 0x18
 7725 00c4 9642     		.uleb128 0x2116
 7726 00c6 19       		.uleb128 0x19
 7727 00c7 01       		.uleb128 0x1
 7728 00c8 13       		.uleb128 0x13
 7729 00c9 00       		.byte	0
 7730 00ca 00       		.byte	0
 7731 00cb 0F       		.uleb128 0xf
 7732 00cc 05       		.uleb128 0x5
 7733 00cd 00       		.byte	0
 7734 00ce 03       		.uleb128 0x3
 7735 00cf 0E       		.uleb128 0xe
 7736 00d0 3A       		.uleb128 0x3a
 7737 00d1 0B       		.uleb128 0xb
 7738 00d2 3B       		.uleb128 0x3b
 7739 00d3 0B       		.uleb128 0xb
 7740 00d4 49       		.uleb128 0x49
 7741 00d5 13       		.uleb128 0x13
 7742 00d6 02       		.uleb128 0x2
 7743 00d7 18       		.uleb128 0x18
 7744 00d8 00       		.byte	0
 7745 00d9 00       		.byte	0
 7746 00da 10       		.uleb128 0x10
 7747 00db 0F       		.uleb128 0xf
 7748 00dc 00       		.byte	0
 7749 00dd 0B       		.uleb128 0xb
 7750 00de 0B       		.uleb128 0xb
 7751 00df 00       		.byte	0
 7752 00e0 00       		.byte	0
 7753 00e1 11       		.uleb128 0x11
 7754 00e2 0F       		.uleb128 0xf
 7755 00e3 00       		.byte	0
 7756 00e4 0B       		.uleb128 0xb
 7757 00e5 0B       		.uleb128 0xb
 7758 00e6 49       		.uleb128 0x49
 7759 00e7 13       		.uleb128 0x13
 7760 00e8 00       		.byte	0
 7761 00e9 00       		.byte	0
 7762 00ea 12       		.uleb128 0x12
 7763 00eb 2E       		.uleb128 0x2e
 7764 00ec 01       		.byte	0x1
 7765 00ed 3F       		.uleb128 0x3f
ARM GAS  /tmp/ccBklucm.s 			page 138


 7766 00ee 19       		.uleb128 0x19
 7767 00ef 03       		.uleb128 0x3
 7768 00f0 0E       		.uleb128 0xe
 7769 00f1 3A       		.uleb128 0x3a
 7770 00f2 0B       		.uleb128 0xb
 7771 00f3 3B       		.uleb128 0x3b
 7772 00f4 0B       		.uleb128 0xb
 7773 00f5 27       		.uleb128 0x27
 7774 00f6 19       		.uleb128 0x19
 7775 00f7 49       		.uleb128 0x49
 7776 00f8 13       		.uleb128 0x13
 7777 00f9 11       		.uleb128 0x11
 7778 00fa 01       		.uleb128 0x1
 7779 00fb 12       		.uleb128 0x12
 7780 00fc 06       		.uleb128 0x6
 7781 00fd 40       		.uleb128 0x40
 7782 00fe 18       		.uleb128 0x18
 7783 00ff 9742     		.uleb128 0x2117
 7784 0101 19       		.uleb128 0x19
 7785 0102 01       		.uleb128 0x1
 7786 0103 13       		.uleb128 0x13
 7787 0104 00       		.byte	0
 7788 0105 00       		.byte	0
 7789 0106 13       		.uleb128 0x13
 7790 0107 34       		.uleb128 0x34
 7791 0108 00       		.byte	0
 7792 0109 03       		.uleb128 0x3
 7793 010a 08       		.uleb128 0x8
 7794 010b 3A       		.uleb128 0x3a
 7795 010c 0B       		.uleb128 0xb
 7796 010d 3B       		.uleb128 0x3b
 7797 010e 0B       		.uleb128 0xb
 7798 010f 49       		.uleb128 0x49
 7799 0110 13       		.uleb128 0x13
 7800 0111 02       		.uleb128 0x2
 7801 0112 18       		.uleb128 0x18
 7802 0113 00       		.byte	0
 7803 0114 00       		.byte	0
 7804 0115 14       		.uleb128 0x14
 7805 0116 05       		.uleb128 0x5
 7806 0117 00       		.byte	0
 7807 0118 03       		.uleb128 0x3
 7808 0119 08       		.uleb128 0x8
 7809 011a 3A       		.uleb128 0x3a
 7810 011b 0B       		.uleb128 0xb
 7811 011c 3B       		.uleb128 0x3b
 7812 011d 0B       		.uleb128 0xb
 7813 011e 49       		.uleb128 0x49
 7814 011f 13       		.uleb128 0x13
 7815 0120 02       		.uleb128 0x2
 7816 0121 18       		.uleb128 0x18
 7817 0122 00       		.byte	0
 7818 0123 00       		.byte	0
 7819 0124 15       		.uleb128 0x15
 7820 0125 2E       		.uleb128 0x2e
 7821 0126 01       		.byte	0x1
 7822 0127 3F       		.uleb128 0x3f
ARM GAS  /tmp/ccBklucm.s 			page 139


 7823 0128 19       		.uleb128 0x19
 7824 0129 03       		.uleb128 0x3
 7825 012a 0E       		.uleb128 0xe
 7826 012b 3A       		.uleb128 0x3a
 7827 012c 0B       		.uleb128 0xb
 7828 012d 3B       		.uleb128 0x3b
 7829 012e 05       		.uleb128 0x5
 7830 012f 27       		.uleb128 0x27
 7831 0130 19       		.uleb128 0x19
 7832 0131 49       		.uleb128 0x49
 7833 0132 13       		.uleb128 0x13
 7834 0133 11       		.uleb128 0x11
 7835 0134 01       		.uleb128 0x1
 7836 0135 12       		.uleb128 0x12
 7837 0136 06       		.uleb128 0x6
 7838 0137 40       		.uleb128 0x40
 7839 0138 18       		.uleb128 0x18
 7840 0139 9642     		.uleb128 0x2116
 7841 013b 19       		.uleb128 0x19
 7842 013c 01       		.uleb128 0x1
 7843 013d 13       		.uleb128 0x13
 7844 013e 00       		.byte	0
 7845 013f 00       		.byte	0
 7846 0140 16       		.uleb128 0x16
 7847 0141 05       		.uleb128 0x5
 7848 0142 00       		.byte	0
 7849 0143 03       		.uleb128 0x3
 7850 0144 0E       		.uleb128 0xe
 7851 0145 3A       		.uleb128 0x3a
 7852 0146 0B       		.uleb128 0xb
 7853 0147 3B       		.uleb128 0x3b
 7854 0148 05       		.uleb128 0x5
 7855 0149 49       		.uleb128 0x49
 7856 014a 13       		.uleb128 0x13
 7857 014b 02       		.uleb128 0x2
 7858 014c 18       		.uleb128 0x18
 7859 014d 00       		.byte	0
 7860 014e 00       		.byte	0
 7861 014f 17       		.uleb128 0x17
 7862 0150 34       		.uleb128 0x34
 7863 0151 00       		.byte	0
 7864 0152 03       		.uleb128 0x3
 7865 0153 08       		.uleb128 0x8
 7866 0154 3A       		.uleb128 0x3a
 7867 0155 0B       		.uleb128 0xb
 7868 0156 3B       		.uleb128 0x3b
 7869 0157 05       		.uleb128 0x5
 7870 0158 49       		.uleb128 0x49
 7871 0159 13       		.uleb128 0x13
 7872 015a 02       		.uleb128 0x2
 7873 015b 18       		.uleb128 0x18
 7874 015c 00       		.byte	0
 7875 015d 00       		.byte	0
 7876 015e 18       		.uleb128 0x18
 7877 015f 05       		.uleb128 0x5
 7878 0160 00       		.byte	0
 7879 0161 03       		.uleb128 0x3
ARM GAS  /tmp/ccBklucm.s 			page 140


 7880 0162 08       		.uleb128 0x8
 7881 0163 3A       		.uleb128 0x3a
 7882 0164 0B       		.uleb128 0xb
 7883 0165 3B       		.uleb128 0x3b
 7884 0166 05       		.uleb128 0x5
 7885 0167 49       		.uleb128 0x49
 7886 0168 13       		.uleb128 0x13
 7887 0169 02       		.uleb128 0x2
 7888 016a 18       		.uleb128 0x18
 7889 016b 00       		.byte	0
 7890 016c 00       		.byte	0
 7891 016d 19       		.uleb128 0x19
 7892 016e 34       		.uleb128 0x34
 7893 016f 00       		.byte	0
 7894 0170 03       		.uleb128 0x3
 7895 0171 0E       		.uleb128 0xe
 7896 0172 3A       		.uleb128 0x3a
 7897 0173 0B       		.uleb128 0xb
 7898 0174 3B       		.uleb128 0x3b
 7899 0175 05       		.uleb128 0x5
 7900 0176 49       		.uleb128 0x49
 7901 0177 13       		.uleb128 0x13
 7902 0178 02       		.uleb128 0x2
 7903 0179 18       		.uleb128 0x18
 7904 017a 00       		.byte	0
 7905 017b 00       		.byte	0
 7906 017c 1A       		.uleb128 0x1a
 7907 017d 01       		.uleb128 0x1
 7908 017e 01       		.byte	0x1
 7909 017f 49       		.uleb128 0x49
 7910 0180 13       		.uleb128 0x13
 7911 0181 01       		.uleb128 0x1
 7912 0182 13       		.uleb128 0x13
 7913 0183 00       		.byte	0
 7914 0184 00       		.byte	0
 7915 0185 1B       		.uleb128 0x1b
 7916 0186 21       		.uleb128 0x21
 7917 0187 00       		.byte	0
 7918 0188 49       		.uleb128 0x49
 7919 0189 13       		.uleb128 0x13
 7920 018a 2F       		.uleb128 0x2f
 7921 018b 0B       		.uleb128 0xb
 7922 018c 00       		.byte	0
 7923 018d 00       		.byte	0
 7924 018e 1C       		.uleb128 0x1c
 7925 018f 2E       		.uleb128 0x2e
 7926 0190 01       		.byte	0x1
 7927 0191 3F       		.uleb128 0x3f
 7928 0192 19       		.uleb128 0x19
 7929 0193 03       		.uleb128 0x3
 7930 0194 0E       		.uleb128 0xe
 7931 0195 3A       		.uleb128 0x3a
 7932 0196 0B       		.uleb128 0xb
 7933 0197 3B       		.uleb128 0x3b
 7934 0198 05       		.uleb128 0x5
 7935 0199 27       		.uleb128 0x27
 7936 019a 19       		.uleb128 0x19
ARM GAS  /tmp/ccBklucm.s 			page 141


 7937 019b 49       		.uleb128 0x49
 7938 019c 13       		.uleb128 0x13
 7939 019d 11       		.uleb128 0x11
 7940 019e 01       		.uleb128 0x1
 7941 019f 12       		.uleb128 0x12
 7942 01a0 06       		.uleb128 0x6
 7943 01a1 40       		.uleb128 0x40
 7944 01a2 18       		.uleb128 0x18
 7945 01a3 9642     		.uleb128 0x2116
 7946 01a5 19       		.uleb128 0x19
 7947 01a6 00       		.byte	0
 7948 01a7 00       		.byte	0
 7949 01a8 00       		.byte	0
 7950              		.section	.debug_aranges,"",%progbits
 7951 0000 1C000000 		.4byte	0x1c
 7952 0004 0200     		.2byte	0x2
 7953 0006 00000000 		.4byte	.Ldebug_info0
 7954 000a 04       		.byte	0x4
 7955 000b 00       		.byte	0
 7956 000c 0000     		.2byte	0
 7957 000e 0000     		.2byte	0
 7958 0010 00000000 		.4byte	.Ltext0
 7959 0014 AE1A0000 		.4byte	.Letext0-.Ltext0
 7960 0018 00000000 		.4byte	0
 7961 001c 00000000 		.4byte	0
 7962              		.section	.debug_line,"",%progbits
 7963              	.Ldebug_line0:
 7964 0000 7A040000 		.section	.debug_str,"MS",%progbits,1
 7964      02006501 
 7964      00000201 
 7964      FB0E0D00 
 7964      01010101 
 7965              	.LASF132:
 7966 0000 4C505332 		.ascii	"LPS22HB_SwResetAndMemoryBoot\000"
 7966      3248425F 
 7966      53775265 
 7966      73657441 
 7966      6E644D65 
 7967              	.LASF177:
 7968 001d 4C505332 		.ascii	"LPS22HB_Get_FifoMode\000"
 7968      3248425F 
 7968      4765745F 
 7968      4669666F 
 7968      4D6F6465 
 7969              	.LASF91:
 7970 0032 4175746F 		.ascii	"AutoZero\000"
 7970      5A65726F 
 7970      00
 7971              	.LASF76:
 7972 003b 4649464F 		.ascii	"FIFO_FTH\000"
 7972      5F465448 
 7972      00
 7973              	.LASF161:
 7974 0044 4C505332 		.ascii	"LPS22HB_Get_DataStatus\000"
 7974      3248425F 
 7974      4765745F 
 7974      44617461 
ARM GAS  /tmp/ccBklucm.s 			page 142


 7974      53746174 
 7975              	.LASF188:
 7976 005b 49735F4D 		.ascii	"Is_Measurement_Completed\000"
 7976      65617375 
 7976      72656D65 
 7976      6E745F43 
 7976      6F6D706C 
 7977              	.LASF202:
 7978 0074 474E5520 		.ascii	"GNU C 4.8.4 20140526 (release) [ARM/embedded-4_8-br"
 7978      4320342E 
 7978      382E3420 
 7978      32303134 
 7978      30353236 
 7979 00a7 616E6368 		.ascii	"anch revision 211358] -mcpu=cortex-m4 -mno-thumb-in"
 7979      20726576 
 7979      6973696F 
 7979      6E203231 
 7979      31333538 
 7980 00da 74657277 		.ascii	"terwork -mthumb -ggdb -O0 -std=c99 -fomit-frame-poi"
 7980      6F726B20 
 7980      2D6D7468 
 7980      756D6220 
 7980      2D676764 
 7981 010d 6E746572 		.ascii	"nter -falign-functions=16\000"
 7981      202D6661 
 7981      6C69676E 
 7981      2D66756E 
 7981      6374696F 
 7982              	.LASF185:
 7983 0127 52656650 		.ascii	"RefP\000"
 7983      00
 7984              	.LASF135:
 7985 012c 4C505332 		.ascii	"LPS22HB_Set_FifoWatermarkLevelUse\000"
 7985      3248425F 
 7985      5365745F 
 7985      4669666F 
 7985      57617465 
 7986              	.LASF196:
 7987 014e 4C505332 		.ascii	"LPS22HB_Get_GenericConfig\000"
 7987      3248425F 
 7987      4765745F 
 7987      47656E65 
 7987      72696343 
 7988              	.LASF2:
 7989 0168 5F5F7569 		.ascii	"__uint8_t\000"
 7989      6E74385F 
 7989      7400
 7990              	.LASF59:
 7991 0172 54656D70 		.ascii	"TempDataOverrun\000"
 7991      44617461 
 7991      4F766572 
 7991      72756E00 
 7992              	.LASF88:
 7993 0182 4C617463 		.ascii	"LatchIRQ\000"
 7993      68495251 
 7993      00
 7994              	.LASF131:
ARM GAS  /tmp/ccBklucm.s 			page 143


 7995 018b 4C505332 		.ascii	"LPS22HB_MemoryBoot\000"
 7995      3248425F 
 7995      4D656D6F 
 7995      7279426F 
 7995      6F7400
 7996              	.LASF46:
 7997 019e 4C505332 		.ascii	"LPS22HB_InterruptActiveLevel_et\000"
 7997      3248425F 
 7997      496E7465 
 7997      72727570 
 7997      74416374 
 7998              	.LASF34:
 7999 01be 4C505332 		.ascii	"LPS22HB_Odr_et\000"
 7999      3248425F 
 7999      4F64725F 
 7999      657400
 8000              	.LASF22:
 8001 01cd 4C505332 		.ascii	"LPS22HB_DISABLE\000"
 8001      3248425F 
 8001      44495341 
 8001      424C4500 
 8002              	.LASF12:
 8003 01dd 6C6F6E67 		.ascii	"long long unsigned int\000"
 8003      206C6F6E 
 8003      6720756E 
 8003      7369676E 
 8003      65642069 
 8004              	.LASF31:
 8005 01f4 4C505332 		.ascii	"LPS22HB_ODR_25HZ\000"
 8005      3248425F 
 8005      4F44525F 
 8005      3235485A 
 8005      00
 8006              	.LASF119:
 8007 0205 4C505332 		.ascii	"LPS22HB_Get_Odr\000"
 8007      3248425F 
 8007      4765745F 
 8007      4F647200 
 8008              	.LASF110:
 8009 0215 4E756D42 		.ascii	"NumByteToWrite\000"
 8009      79746554 
 8009      6F577269 
 8009      746500
 8010              	.LASF30:
 8011 0224 4C505332 		.ascii	"LPS22HB_ODR_10HZ\000"
 8011      3248425F 
 8011      4F44525F 
 8011      3130485A 
 8011      00
 8012              	.LASF69:
 8013 0235 4C505332 		.ascii	"LPS22HB_FIFO_TRIGGER_BYPASSTOSTREAM_MODE\000"
 8013      3248425F 
 8013      4649464F 
 8013      5F545249 
 8013      47474552 
 8014              	.LASF136:
 8015 025e 4C505332 		.ascii	"LPS22HB_Set_AutomaticIncrementRegAddress\000"
ARM GAS  /tmp/ccBklucm.s 			page 144


 8015      3248425F 
 8015      5365745F 
 8015      4175746F 
 8015      6D617469 
 8016              	.LASF95:
 8017 0287 57544D5F 		.ascii	"WTM_LEVEL\000"
 8017      4C455645 
 8017      4C00
 8018              	.LASF148:
 8019 0291 4C505332 		.ascii	"LPS22HB_Set_FIFO_FULL_Interrupt\000"
 8019      3248425F 
 8019      5365745F 
 8019      4649464F 
 8019      5F46554C 
 8020              	.LASF15:
 8021 02b1 696E7431 		.ascii	"int16_t\000"
 8021      365F7400 
 8022              	.LASF11:
 8023 02b9 6C6F6E67 		.ascii	"long long int\000"
 8023      206C6F6E 
 8023      6720696E 
 8023      7400
 8024              	.LASF0:
 8025 02c7 7369676E 		.ascii	"signed char\000"
 8025      65642063 
 8025      68617200 
 8026              	.LASF35:
 8027 02d3 4C505332 		.ascii	"LPS22HB_ODR_9\000"
 8027      3248425F 
 8027      4F44525F 
 8027      3900
 8028              	.LASF67:
 8029 02e1 4C505332 		.ascii	"LPS22HB_FIFO_STREAM_MODE\000"
 8029      3248425F 
 8029      4649464F 
 8029      5F535452 
 8029      45414D5F 
 8030              	.LASF99:
 8031 02fa 4C505332 		.ascii	"LPS22HB_MeasureTypeDef_st\000"
 8031      3248425F 
 8031      4D656173 
 8031      75726554 
 8031      79706544 
 8032              	.LASF121:
 8033 0314 73746174 		.ascii	"state\000"
 8033      6500
 8034              	.LASF164:
 8035 031a 7261775F 		.ascii	"raw_press\000"
 8035      70726573 
 8035      7300
 8036              	.LASF122:
 8037 0324 4C505332 		.ascii	"LPS22HB_Set_LowPassFilterCutoff\000"
 8037      3248425F 
 8037      5365745F 
 8037      4C6F7750 
 8037      61737346 
 8038              	.LASF108:
ARM GAS  /tmp/ccBklucm.s 			page 145


 8039 0344 4C505332 		.ascii	"LPS22HB_ReadReg\000"
 8039      3248425F 
 8039      52656164 
 8039      52656700 
 8040              	.LASF53:
 8041 0354 4C505332 		.ascii	"LPS22HB_P_LOW_HIGH\000"
 8041      3248425F 
 8041      505F4C4F 
 8041      575F4849 
 8041      474800
 8042              	.LASF194:
 8043 0367 4C505332 		.ascii	"LPS22HB_Set_GenericConfig\000"
 8043      3248425F 
 8043      5365745F 
 8043      47656E65 
 8043      72696343 
 8044              	.LASF61:
 8045 0381 4C505332 		.ascii	"LPS22HB_DataStatus_st\000"
 8045      3248425F 
 8045      44617461 
 8045      53746174 
 8045      75735F73 
 8046              	.LASF74:
 8047 0397 4649464F 		.ascii	"FIFO_FULL\000"
 8047      5F46554C 
 8047      4C00
 8048              	.LASF8:
 8049 03a1 6C6F6E67 		.ascii	"long int\000"
 8049      20696E74 
 8049      00
 8050              	.LASF71:
 8051 03aa 4C505332 		.ascii	"LPS22HB_FifoMode_et\000"
 8051      3248425F 
 8051      4669666F 
 8051      4D6F6465 
 8051      5F657400 
 8052              	.LASF172:
 8053 03be 505F7468 		.ascii	"P_ths\000"
 8053      7300
 8054              	.LASF80:
 8055 03c4 4C6F7750 		.ascii	"LowPassFilter\000"
 8055      61737346 
 8055      696C7465 
 8055      7200
 8056              	.LASF98:
 8057 03d2 506F7574 		.ascii	"Pout\000"
 8057      00
 8058              	.LASF101:
 8059 03d7 4D696E6F 		.ascii	"Minor\000"
 8059      7200
 8060              	.LASF102:
 8061 03dd 506F696E 		.ascii	"Point\000"
 8061      7400
 8062              	.LASF16:
 8063 03e3 75696E74 		.ascii	"uint16_t\000"
 8063      31365F74 
 8063      00
ARM GAS  /tmp/ccBklucm.s 			page 146


 8064              	.LASF106:
 8065 03ec 4E756D42 		.ascii	"NumByteToRead\000"
 8065      79746554 
 8065      6F526561 
 8065      6400
 8066              	.LASF50:
 8067 03fa 4C505332 		.ascii	"LPS22HB_DATA\000"
 8067      3248425F 
 8067      44415441 
 8067      00
 8068              	.LASF165:
 8069 0407 62756666 		.ascii	"buffer\000"
 8069      657200
 8070              	.LASF205:
 8071 040e 4C505332 		.ascii	"LPS22HB_Get_FifoConfig\000"
 8071      3248425F 
 8071      4765745F 
 8071      4669666F 
 8071      436F6E66 
 8072              	.LASF183:
 8073 0425 70726573 		.ascii	"pressoffset\000"
 8073      736F6666 
 8073      73657400 
 8074              	.LASF39:
 8075 0431 4C505332 		.ascii	"LPS22HB_BDU_NO_UPDATE\000"
 8075      3248425F 
 8075      4244555F 
 8075      4E4F5F55 
 8075      50444154 
 8076              	.LASF113:
 8077 0447 4C505332 		.ascii	"LPS22HB_Get_DriverVersion\000"
 8077      3248425F 
 8077      4765745F 
 8077      44726976 
 8077      65725665 
 8078              	.LASF127:
 8079 0461 7370696D 		.ascii	"spimode\000"
 8079      6F646500 
 8080              	.LASF20:
 8081 0469 4C505332 		.ascii	"LPS22HB_ERROR\000"
 8081      3248425F 
 8081      4552524F 
 8081      5200
 8082              	.LASF54:
 8083 0477 4C505332 		.ascii	"LPS22HB_OutputSignalConfig_et\000"
 8083      3248425F 
 8083      4F757470 
 8083      75745369 
 8083      676E616C 
 8084              	.LASF85:
 8085 0495 50505F4F 		.ascii	"PP_OD\000"
 8085      4400
 8086              	.LASF9:
 8087 049b 5F5F7569 		.ascii	"__uint32_t\000"
 8087      6E743332 
 8087      5F7400
 8088              	.LASF118:
ARM GAS  /tmp/ccBklucm.s 			page 147


 8089 04a6 4C505332 		.ascii	"LPS22HB_Set_Odr\000"
 8089      3248425F 
 8089      5365745F 
 8089      4F647200 
 8090              	.LASF204:
 8091 04b6 2F752F65 		.ascii	"/u/elawton2/p442-submissions/sensortile/reference/b"
 8091      6C617774 
 8091      6F6E322F 
 8091      70343432 
 8091      2D737562 
 8092 04e9 6C75656D 		.ascii	"luemicrosystem2/BlueMicrosystem2_V2.2.0/Projects/Mu"
 8092      6963726F 
 8092      73797374 
 8092      656D322F 
 8092      426C7565 
 8093 051c 6C74692F 		.ascii	"lti/Applications/BlueMicrosystem2/bluechibi\000"
 8093      4170706C 
 8093      69636174 
 8093      696F6E73 
 8093      2F426C75 
 8094              	.LASF3:
 8095 0548 5F5F696E 		.ascii	"__int16_t\000"
 8095      7431365F 
 8095      7400
 8096              	.LASF96:
 8097 0552 4C505332 		.ascii	"LPS22HB_FIFOTypeDef_st\000"
 8097      3248425F 
 8097      4649464F 
 8097      54797065 
 8097      4465665F 
 8098              	.LASF184:
 8099 0569 4C505332 		.ascii	"LPS22HB_Get_ReferencePressure\000"
 8099      3248425F 
 8099      4765745F 
 8099      52656665 
 8099      72656E63 
 8100              	.LASF126:
 8101 0587 4C505332 		.ascii	"LPS22HB_Set_SpiInterface\000"
 8101      3248425F 
 8101      5365745F 
 8101      53706949 
 8101      6E746572 
 8102              	.LASF64:
 8103 05a0 4C505332 		.ascii	"LPS22HB_CTE_et\000"
 8103      3248425F 
 8103      4354455F 
 8103      657400
 8104              	.LASF82:
 8105 05af 49664164 		.ascii	"IfAddInc\000"
 8105      64496E63 
 8105      00
 8106              	.LASF78:
 8107 05b8 506F7765 		.ascii	"PowerMode\000"
 8107      724D6F64 
 8107      6500
 8108              	.LASF13:
 8109 05c2 756E7369 		.ascii	"unsigned int\000"
ARM GAS  /tmp/ccBklucm.s 			page 148


 8109      676E6564 
 8109      20696E74 
 8109      00
 8110              	.LASF158:
 8111 05cf 4C505332 		.ascii	"LPS22HB_Set_PHE\000"
 8111      3248425F 
 8111      5365745F 
 8111      50484500 
 8112              	.LASF179:
 8113 05df 77746D6C 		.ascii	"wtmlevel\000"
 8113      6576656C 
 8113      00
 8114              	.LASF174:
 8115 05e8 4C505332 		.ascii	"LPS22HB_Set_PressureThreshold\000"
 8115      3248425F 
 8115      5365745F 
 8115      50726573 
 8115      73757265 
 8116              	.LASF10:
 8117 0606 6C6F6E67 		.ascii	"long unsigned int\000"
 8117      20756E73 
 8117      69676E65 
 8117      6420696E 
 8117      7400
 8118              	.LASF181:
 8119 0618 4C505332 		.ascii	"LPS22HB_Get_FifoStatus\000"
 8119      3248425F 
 8119      4765745F 
 8119      4669666F 
 8119      53746174 
 8120              	.LASF197:
 8121 062f 4C505332 		.ascii	"LPS22HB_Set_InterruptConfig\000"
 8121      3248425F 
 8121      5365745F 
 8121      496E7465 
 8121      72727570 
 8122              	.LASF23:
 8123 064b 4C505332 		.ascii	"LPS22HB_ENABLE\000"
 8123      3248425F 
 8123      454E4142 
 8123      4C4500
 8124              	.LASF149:
 8125 065a 4C505332 		.ascii	"LPS22HB_Set_AutoRifP\000"
 8125      3248425F 
 8125      5365745F 
 8125      4175746F 
 8125      52696650 
 8126              	.LASF57:
 8127 066f 54656D70 		.ascii	"TempDataAvailable\000"
 8127      44617461 
 8127      41766169 
 8127      6C61626C 
 8127      6500
 8128              	.LASF6:
 8129 0681 73686F72 		.ascii	"short unsigned int\000"
 8129      7420756E 
 8129      7369676E 
ARM GAS  /tmp/ccBklucm.s 			page 149


 8129      65642069 
 8129      6E7400
 8130              	.LASF60:
 8131 0694 50726573 		.ascii	"PressDataOverrun\000"
 8131      73446174 
 8131      614F7665 
 8131      7272756E 
 8131      00
 8132              	.LASF38:
 8133 06a5 4C505332 		.ascii	"LPS22HB_BDU_CONTINUOUS_UPDATE\000"
 8133      3248425F 
 8133      4244555F 
 8133      434F4E54 
 8133      494E554F 
 8134              	.LASF105:
 8135 06c3 52656741 		.ascii	"RegAddr\000"
 8135      64647200 
 8136              	.LASF114:
 8137 06cb 56657273 		.ascii	"Version\000"
 8137      696F6E00 
 8138              	.LASF83:
 8139 06d3 4C505332 		.ascii	"LPS22HB_ConfigTypeDef_st\000"
 8139      3248425F 
 8139      436F6E66 
 8139      69675479 
 8139      70654465 
 8140              	.LASF191:
 8141 06ec 4C505332 		.ascii	"LPS22HB_Init\000"
 8141      3248425F 
 8141      496E6974 
 8141      00
 8142              	.LASF154:
 8143 06f9 64696666 		.ascii	"diff_en\000"
 8143      5F656E00 
 8144              	.LASF45:
 8145 0701 4C505332 		.ascii	"LPS22HB_ActiveLow\000"
 8145      3248425F 
 8145      41637469 
 8145      76654C6F 
 8145      7700
 8146              	.LASF63:
 8147 0713 4C505332 		.ascii	"LPS22HB_CTE_Balanced\000"
 8147      3248425F 
 8147      4354455F 
 8147      42616C61 
 8147      6E636564 
 8148              	.LASF112:
 8149 0728 64657669 		.ascii	"deviceid\000"
 8149      63656964 
 8149      00
 8150              	.LASF19:
 8151 0731 4C505332 		.ascii	"LPS22HB_OK\000"
 8151      3248425F 
 8151      4F4B00
 8152              	.LASF93:
 8153 073c 4649464F 		.ascii	"FIFO_MODE\000"
 8153      5F4D4F44 
ARM GAS  /tmp/ccBklucm.s 			page 150


 8153      4500
 8154              	.LASF192:
 8155 0746 704C5053 		.ascii	"pLPS22HBInit\000"
 8155      32324842 
 8155      496E6974 
 8155      00
 8156              	.LASF125:
 8157 0753 4C505332 		.ascii	"LPS22HB_Get_Bdu\000"
 8157      3248425F 
 8157      4765745F 
 8157      42647500 
 8158              	.LASF42:
 8159 0763 4C505332 		.ascii	"LPS22HB_SPI_3_WIRE\000"
 8159      3248425F 
 8159      5350495F 
 8159      335F5749 
 8159      524500
 8160              	.LASF173:
 8161 0776 74656D70 		.ascii	"tempReg\000"
 8161      52656700 
 8162              	.LASF44:
 8163 077e 4C505332 		.ascii	"LPS22HB_ActiveHigh\000"
 8163      3248425F 
 8163      41637469 
 8163      76654869 
 8163      676800
 8164              	.LASF175:
 8165 0791 4C505332 		.ascii	"LPS22HB_Set_FifoMode\000"
 8165      3248425F 
 8165      5365745F 
 8165      4669666F 
 8165      4D6F6465 
 8166              	.LASF55:
 8167 07a6 424F4F54 		.ascii	"BOOT\000"
 8167      00
 8168              	.LASF142:
 8169 07ab 6F757470 		.ascii	"output\000"
 8169      757400
 8170              	.LASF193:
 8171 07b2 4C505332 		.ascii	"LPS22HB_DeInit\000"
 8171      3248425F 
 8171      4465496E 
 8171      697400
 8172              	.LASF29:
 8173 07c1 4C505332 		.ascii	"LPS22HB_ODR_1HZ\000"
 8173      3248425F 
 8173      4F44525F 
 8173      31485A00 
 8174              	.LASF200:
 8175 07d1 4C505332 		.ascii	"LPS22HB_Set_FifoConfig\000"
 8175      3248425F 
 8175      5365745F 
 8175      4669666F 
 8175      436F6E66 
 8176              	.LASF166:
 8177 07e8 73697A65 		.ascii	"sizetype\000"
 8177      74797065 
ARM GAS  /tmp/ccBklucm.s 			page 151


 8177      00
 8178              	.LASF178:
 8179 07f1 4C505332 		.ascii	"LPS22HB_Set_FifoWatermarkLevel\000"
 8179      3248425F 
 8179      5365745F 
 8179      4669666F 
 8179      57617465 
 8180              	.LASF163:
 8181 0810 4C505332 		.ascii	"LPS22HB_Get_RawPressure\000"
 8181      3248425F 
 8181      4765745F 
 8181      52617750 
 8181      72657373 
 8182              	.LASF153:
 8183 0828 4C505332 		.ascii	"LPS22HB_Set_InterruptDifferentialGeneration\000"
 8183      3248425F 
 8183      5365745F 
 8183      496E7465 
 8183      72727570 
 8184              	.LASF90:
 8185 0854 4175746F 		.ascii	"AutoRifP\000"
 8185      52696650 
 8185      00
 8186              	.LASF49:
 8187 085d 4C505332 		.ascii	"LPS22HB_OutputType_et\000"
 8187      3248425F 
 8187      4F757470 
 8187      75745479 
 8187      70655F65 
 8188              	.LASF195:
 8189 0873 70784C50 		.ascii	"pxLPS22HBInit\000"
 8189      53323248 
 8189      42496E69 
 8189      7400
 8190              	.LASF117:
 8191 0881 4C505332 		.ascii	"LPS22HB_Get_PowerMode\000"
 8191      3248425F 
 8191      4765745F 
 8191      506F7765 
 8191      724D6F64 
 8192              	.LASF186:
 8193 0897 74656D70 		.ascii	"tempVal\000"
 8193      56616C00 
 8194              	.LASF160:
 8195 089f 696E7465 		.ascii	"interruptsource\000"
 8195      72727570 
 8195      74736F75 
 8195      72636500 
 8196              	.LASF150:
 8197 08af 4C505332 		.ascii	"LPS22HB_ResetAutoRifP\000"
 8197      3248425F 
 8197      52657365 
 8197      74417574 
 8197      6F526966 
 8198              	.LASF73:
 8199 08c5 4649464F 		.ascii	"FIFO_EMPTY\000"
 8199      5F454D50 
ARM GAS  /tmp/ccBklucm.s 			page 152


 8199      545900
 8200              	.LASF33:
 8201 08d0 4C505332 		.ascii	"LPS22HB_ODR_75HZ\000"
 8201      3248425F 
 8201      4F44525F 
 8201      3735485A 
 8201      00
 8202              	.LASF37:
 8203 08e1 4C505332 		.ascii	"LPS22HB_LPF_Cutoff_et\000"
 8203      3248425F 
 8203      4C50465F 
 8203      4375746F 
 8203      66665F65 
 8204              	.LASF169:
 8205 08f7 7261775F 		.ascii	"raw_data\000"
 8205      64617461 
 8205      00
 8206              	.LASF139:
 8207 0900 4C505332 		.ascii	"LPS22HB_StartOneShotMeasurement\000"
 8207      3248425F 
 8207      53746172 
 8207      744F6E65 
 8207      53686F74 
 8208              	.LASF145:
 8209 0920 4C505332 		.ascii	"LPS22HB_Set_DRDYInterrupt\000"
 8209      3248425F 
 8209      5365745F 
 8209      44524459 
 8209      496E7465 
 8210              	.LASF152:
 8211 093a 4C505332 		.ascii	"LPS22HB_ResetAutoZeroFunction\000"
 8211      3248425F 
 8211      52657365 
 8211      74417574 
 8211      6F5A6572 
 8212              	.LASF68:
 8213 0958 4C505332 		.ascii	"LPS22HB_FIFO_TRIGGER_STREAMTOFIFO_MODE\000"
 8213      3248425F 
 8213      4649464F 
 8213      5F545249 
 8213      47474552 
 8214              	.LASF77:
 8215 097f 4C505332 		.ascii	"LPS22HB_FifoStatus_st\000"
 8215      3248425F 
 8215      4669666F 
 8215      53746174 
 8215      75735F73 
 8216              	.LASF41:
 8217 0995 4C505332 		.ascii	"LPS22HB_SPI_4_WIRE\000"
 8217      3248425F 
 8217      5350495F 
 8217      345F5749 
 8217      524500
 8218              	.LASF162:
 8219 09a8 64617461 		.ascii	"datastatus\000"
 8219      73746174 
 8219      757300
ARM GAS  /tmp/ccBklucm.s 			page 153


 8220              	.LASF156:
 8221 09b3 4C505332 		.ascii	"LPS22HB_LatchInterruptRequest\000"
 8221      3248425F 
 8221      4C617463 
 8221      68496E74 
 8221      65727275 
 8222              	.LASF48:
 8223 09d1 4C505332 		.ascii	"LPS22HB_OpenDrain\000"
 8223      3248425F 
 8223      4F70656E 
 8223      44726169 
 8223      6E00
 8224              	.LASF115:
 8225 09e3 4C505332 		.ascii	"LPS22HB_Set_PowerMode\000"
 8225      3248425F 
 8225      5365745F 
 8225      506F7765 
 8225      724D6F64 
 8226              	.LASF168:
 8227 09f9 4C505332 		.ascii	"LPS22HB_Get_RawTemperature\000"
 8227      3248425F 
 8227      4765745F 
 8227      52617754 
 8227      656D7065 
 8228              	.LASF51:
 8229 0a14 4C505332 		.ascii	"LPS22HB_P_HIGH\000"
 8229      3248425F 
 8229      505F4849 
 8229      474800
 8230              	.LASF56:
 8231 0a23 4C505332 		.ascii	"LPS22HB_InterruptDiffStatus_st\000"
 8231      3248425F 
 8231      496E7465 
 8231      72727570 
 8231      74446966 
 8232              	.LASF84:
 8233 0a42 494E545F 		.ascii	"INT_H_L\000"
 8233      485F4C00 
 8234              	.LASF21:
 8235 0a4a 4C505332 		.ascii	"LPS22HB_Error_et\000"
 8235      3248425F 
 8235      4572726F 
 8235      725F6574 
 8235      00
 8236              	.LASF203:
 8237 0a5b 2E2E2F2E 		.ascii	"../../../../../Drivers/BSP/Components/lps22hb/LPS22"
 8237      2E2F2E2E 
 8237      2F2E2E2F 
 8237      2E2E2F44 
 8237      72697665 
 8238 0a8e 48425F44 		.ascii	"HB_Driver.c\000"
 8238      72697665 
 8238      722E6300 
 8239              	.LASF36:
 8240 0a9a 4C505332 		.ascii	"LPS22HB_ODR_20\000"
 8240      3248425F 
 8240      4F44525F 
ARM GAS  /tmp/ccBklucm.s 			page 154


 8240      323000
 8241              	.LASF124:
 8242 0aa9 4C505332 		.ascii	"LPS22HB_Set_Bdu\000"
 8242      3248425F 
 8242      5365745F 
 8242      42647500 
 8243              	.LASF17:
 8244 0ab9 696E7433 		.ascii	"int32_t\000"
 8244      325F7400 
 8245              	.LASF1:
 8246 0ac1 756E7369 		.ascii	"unsigned char\000"
 8246      676E6564 
 8246      20636861 
 8246      7200
 8247              	.LASF190:
 8248 0acf 4D656173 		.ascii	"Measurement_Value\000"
 8248      7572656D 
 8248      656E745F 
 8248      56616C75 
 8248      6500
 8249              	.LASF128:
 8250 0ae1 4C505332 		.ascii	"LPS22HB_Set_ClockTreeConfifuration\000"
 8250      3248425F 
 8250      5365745F 
 8250      436C6F63 
 8250      6B547265 
 8251              	.LASF75:
 8252 0b04 4649464F 		.ascii	"FIFO_OVR\000"
 8252      5F4F5652 
 8252      00
 8253              	.LASF27:
 8254 0b0d 4C505332 		.ascii	"LPS22HB_PowerMode_et\000"
 8254      3248425F 
 8254      506F7765 
 8254      724D6F64 
 8254      655F6574 
 8255              	.LASF4:
 8256 0b22 73686F72 		.ascii	"short int\000"
 8256      7420696E 
 8256      7400
 8257              	.LASF94:
 8258 0b2c 57544D5F 		.ascii	"WTM_INT\000"
 8258      494E5400 
 8259              	.LASF103:
 8260 0b34 4C505332 		.ascii	"LPS22HB_DriverVersion_st\000"
 8260      3248425F 
 8260      44726976 
 8260      65725665 
 8260      7273696F 
 8261              	.LASF120:
 8262 0b4d 4C505332 		.ascii	"LPS22HB_Set_LowPassFilter\000"
 8262      3248425F 
 8262      5365745F 
 8262      4C6F7750 
 8262      61737346 
 8263              	.LASF92:
 8264 0b67 4C505332 		.ascii	"LPS22HB_InterruptTypeDef_st\000"
ARM GAS  /tmp/ccBklucm.s 			page 155


 8264      3248425F 
 8264      496E7465 
 8264      72727570 
 8264      74547970 
 8265              	.LASF32:
 8266 0b83 4C505332 		.ascii	"LPS22HB_ODR_50HZ\000"
 8266      3248425F 
 8266      4F44525F 
 8266      3530485A 
 8266      00
 8267              	.LASF26:
 8268 0b94 4C505332 		.ascii	"LPS22HB_LowPower\000"
 8268      3248425F 
 8268      4C6F7750 
 8268      6F776572 
 8268      00
 8269              	.LASF109:
 8270 0ba5 4C505332 		.ascii	"LPS22HB_WriteReg\000"
 8270      3248425F 
 8270      57726974 
 8270      65526567 
 8270      00
 8271              	.LASF140:
 8272 0bb6 4C505332 		.ascii	"LPS22HB_Set_InterruptActiveLevel\000"
 8272      3248425F 
 8272      5365745F 
 8272      496E7465 
 8272      72727570 
 8273              	.LASF137:
 8274 0bd7 4C505332 		.ascii	"LPS22HB_Set_I2C\000"
 8274      3248425F 
 8274      5365745F 
 8274      49324300 
 8275              	.LASF81:
 8276 0be7 4C50465F 		.ascii	"LPF_Cutoff\000"
 8276      4375746F 
 8276      666600
 8277              	.LASF199:
 8278 0bf2 4C505332 		.ascii	"LPS22HB_Get_InterruptConfig\000"
 8278      3248425F 
 8278      4765745F 
 8278      496E7465 
 8278      72727570 
 8279              	.LASF111:
 8280 0c0e 4C505332 		.ascii	"LPS22HB_Get_DeviceID\000"
 8280      3248425F 
 8280      4765745F 
 8280      44657669 
 8280      63654944 
 8281              	.LASF159:
 8282 0c23 4C505332 		.ascii	"LPS22HB_Get_InterruptDifferentialEventStatus\000"
 8282      3248425F 
 8282      4765745F 
 8282      496E7465 
 8282      72727570 
 8283              	.LASF65:
 8284 0c50 4C505332 		.ascii	"LPS22HB_FIFO_BYPASS_MODE\000"
ARM GAS  /tmp/ccBklucm.s 			page 156


 8284      3248425F 
 8284      4649464F 
 8284      5F425950 
 8284      4153535F 
 8285              	.LASF147:
 8286 0c69 4C505332 		.ascii	"LPS22HB_Set_FIFO_FTH_Interrupt\000"
 8286      3248425F 
 8286      5365745F 
 8286      4649464F 
 8286      5F465448 
 8287              	.LASF24:
 8288 0c88 4C505332 		.ascii	"LPS22HB_State_et\000"
 8288      3248425F 
 8288      53746174 
 8288      655F6574 
 8288      00
 8289              	.LASF187:
 8290 0c99 4C505332 		.ascii	"LPS22HB_IsMeasurementCompleted\000"
 8290      3248425F 
 8290      49734D65 
 8290      61737572 
 8290      656D656E 
 8291              	.LASF129:
 8292 0cb8 4C505332 		.ascii	"LPS22HB_Get_SpiInterface\000"
 8292      3248425F 
 8292      4765745F 
 8292      53706949 
 8292      6E746572 
 8293              	.LASF18:
 8294 0cd1 75696E74 		.ascii	"uint32_t\000"
 8294      33325F74 
 8294      00
 8295              	.LASF72:
 8296 0cda 4649464F 		.ascii	"FIFO_LEVEL\000"
 8296      5F4C4556 
 8296      454C00
 8297              	.LASF143:
 8298 0ce5 4C505332 		.ascii	"LPS22HB_Set_InterruptControlConfig\000"
 8298      3248425F 
 8298      5365745F 
 8298      496E7465 
 8298      72727570 
 8299              	.LASF87:
 8300 0d08 44524459 		.ascii	"DRDY\000"
 8300      00
 8301              	.LASF116:
 8302 0d0d 6D6F6465 		.ascii	"mode\000"
 8302      00
 8303              	.LASF144:
 8304 0d12 636F6E66 		.ascii	"config\000"
 8304      696700
 8305              	.LASF25:
 8306 0d19 4C505332 		.ascii	"LPS22HB_LowNoise\000"
 8306      3248425F 
 8306      4C6F774E 
 8306      6F697365 
 8306      00
ARM GAS  /tmp/ccBklucm.s 			page 157


 8307              	.LASF5:
 8308 0d2a 5F5F7569 		.ascii	"__uint16_t\000"
 8308      6E743136 
 8308      5F7400
 8309              	.LASF97:
 8310 0d35 546F7574 		.ascii	"Tout\000"
 8310      00
 8311              	.LASF201:
 8312 0d3a 704C5053 		.ascii	"pLPS22HBFIFO\000"
 8312      32324842 
 8312      4649464F 
 8312      00
 8313              	.LASF189:
 8314 0d47 4C505332 		.ascii	"LPS22HB_Get_Measurement\000"
 8314      3248425F 
 8314      4765745F 
 8314      4D656173 
 8314      7572656D 
 8315              	.LASF7:
 8316 0d5f 5F5F696E 		.ascii	"__int32_t\000"
 8316      7433325F 
 8316      7400
 8317              	.LASF182:
 8318 0d69 4C505332 		.ascii	"LPS22HB_Get_PressureOffsetValue\000"
 8318      3248425F 
 8318      4765745F 
 8318      50726573 
 8318      73757265 
 8319              	.LASF138:
 8320 0d89 73746174 		.ascii	"statei2c\000"
 8320      65693263 
 8320      00
 8321              	.LASF198:
 8322 0d92 704C5053 		.ascii	"pLPS22HBInt\000"
 8322      32324842 
 8322      496E7400 
 8323              	.LASF100:
 8324 0d9e 4D616A6F 		.ascii	"Major\000"
 8324      7200
 8325              	.LASF170:
 8326 0da4 4C505332 		.ascii	"LPS22HB_Get_Temperature\000"
 8326      3248425F 
 8326      4765745F 
 8326      54656D70 
 8326      65726174 
 8327              	.LASF66:
 8328 0dbc 4C505332 		.ascii	"LPS22HB_FIFO_MODE\000"
 8328      3248425F 
 8328      4649464F 
 8328      5F4D4F44 
 8328      4500
 8329              	.LASF52:
 8330 0dce 4C505332 		.ascii	"LPS22HB_P_LOW\000"
 8330      3248425F 
 8330      505F4C4F 
 8330      5700
 8331              	.LASF47:
ARM GAS  /tmp/ccBklucm.s 			page 158


 8332 0ddc 4C505332 		.ascii	"LPS22HB_PushPull\000"
 8332      3248425F 
 8332      50757368 
 8332      50756C6C 
 8332      00
 8333              	.LASF28:
 8334 0ded 4C505332 		.ascii	"LPS22HB_ODR_ONE_SHOT\000"
 8334      3248425F 
 8334      4F44525F 
 8334      4F4E455F 
 8334      53484F54 
 8335              	.LASF157:
 8336 0e02 4C505332 		.ascii	"LPS22HB_Set_PLE\000"
 8336      3248425F 
 8336      5365745F 
 8336      504C4500 
 8337              	.LASF123:
 8338 0e12 6375746F 		.ascii	"cutoff\000"
 8338      666600
 8339              	.LASF176:
 8340 0e19 6669666F 		.ascii	"fifomode\000"
 8340      6D6F6465 
 8340      00
 8341              	.LASF43:
 8342 0e22 4C505332 		.ascii	"LPS22HB_SPIMode_et\000"
 8342      3248425F 
 8342      5350494D 
 8342      6F64655F 
 8342      657400
 8343              	.LASF134:
 8344 0e35 73746174 		.ascii	"status\000"
 8344      757300
 8345              	.LASF167:
 8346 0e3c 4C505332 		.ascii	"LPS22HB_Get_Pressure\000"
 8346      3248425F 
 8346      4765745F 
 8346      50726573 
 8346      73757265 
 8347              	.LASF130:
 8348 0e51 4C505332 		.ascii	"LPS22HB_SwReset\000"
 8348      3248425F 
 8348      53775265 
 8348      73657400 
 8349              	.LASF151:
 8350 0e61 4C505332 		.ascii	"LPS22HB_Set_AutoZeroFunction\000"
 8350      3248425F 
 8350      5365745F 
 8350      4175746F 
 8350      5A65726F 
 8351              	.LASF14:
 8352 0e7e 75696E74 		.ascii	"uint8_t\000"
 8352      385F7400 
 8353              	.LASF107:
 8354 0e86 44617461 		.ascii	"Data\000"
 8354      00
 8355              	.LASF58:
 8356 0e8b 50726573 		.ascii	"PressDataAvailable\000"
ARM GAS  /tmp/ccBklucm.s 			page 159


 8356      73446174 
 8356      61417661 
 8356      696C6162 
 8356      6C6500
 8357              	.LASF180:
 8358 0e9e 4C505332 		.ascii	"LPS22HB_Get_FifoWatermarkLevel\000"
 8358      3248425F 
 8358      4765745F 
 8358      4669666F 
 8358      57617465 
 8359              	.LASF133:
 8360 0ebd 4C505332 		.ascii	"LPS22HB_Set_FifoModeUse\000"
 8360      3248425F 
 8360      5365745F 
 8360      4669666F 
 8360      4D6F6465 
 8361              	.LASF86:
 8362 0ed5 4F757470 		.ascii	"OutputSignal_INT\000"
 8362      75745369 
 8362      676E616C 
 8362      5F494E54 
 8362      00
 8363              	.LASF70:
 8364 0ee6 4C505332 		.ascii	"LPS22HB_FIFO_TRIGGER_BYPASSTOFIFO_MODE\000"
 8364      3248425F 
 8364      4649464F 
 8364      5F545249 
 8364      47474552 
 8365              	.LASF104:
 8366 0f0d 68616E64 		.ascii	"handle\000"
 8366      6C6500
 8367              	.LASF89:
 8368 0f14 5448535F 		.ascii	"THS_threshold\000"
 8368      74687265 
 8368      73686F6C 
 8368      6400
 8369              	.LASF141:
 8370 0f22 4C505332 		.ascii	"LPS22HB_Set_InterruptOutputType\000"
 8370      3248425F 
 8370      5365745F 
 8370      496E7465 
 8370      72727570 
 8371              	.LASF171:
 8372 0f42 4C505332 		.ascii	"LPS22HB_Get_PressureThreshold\000"
 8372      3248425F 
 8372      4765745F 
 8372      50726573 
 8372      73757265 
 8373              	.LASF40:
 8374 0f60 4C505332 		.ascii	"LPS22HB_Bdu_et\000"
 8374      3248425F 
 8374      4264755F 
 8374      657400
 8375              	.LASF146:
 8376 0f6f 4C505332 		.ascii	"LPS22HB_Set_FIFO_OVR_Interrupt\000"
 8376      3248425F 
 8376      5365745F 
ARM GAS  /tmp/ccBklucm.s 			page 160


 8376      4649464F 
 8376      5F4F5652 
 8377              	.LASF79:
 8378 0f8e 4F757470 		.ascii	"OutputDataRate\000"
 8378      75744461 
 8378      74615261 
 8378      746500
 8379              	.LASF62:
 8380 0f9d 4C505332 		.ascii	"LPS22HB_CTE_NotBalanced\000"
 8380      3248425F 
 8380      4354455F 
 8380      4E6F7442 
 8380      616C616E 
 8381              	.LASF155:
 8382 0fb5 4C505332 		.ascii	"LPS22HB_Get_InterruptDifferentialGeneration\000"
 8382      3248425F 
 8382      4765745F 
 8382      496E7465 
 8382      72727570 
 8383              		.ident	"GCC: (GNU Tools for ARM Embedded Processors) 4.8.4 20140526 (release) [ARM/embedded-4_8-br
ARM GAS  /tmp/ccBklucm.s 			page 161


DEFINED SYMBOLS
                            *ABS*:00000000 LPS22HB_Driver.c
     /tmp/ccBklucm.s:18     .text:00000000 $t
     /tmp/ccBklucm.s:24     .text:00000000 LPS22HB_ReadReg
     /tmp/ccBklucm.s:73     .text:00000040 LPS22HB_WriteReg
     /tmp/ccBklucm.s:121    .text:00000080 LPS22HB_Get_DeviceID
     /tmp/ccBklucm.s:164    .text:000000b0 LPS22HB_Get_DriverVersion
     /tmp/ccBklucm.s:202    .text:000000d0 LPS22HB_Set_PowerMode
     /tmp/ccBklucm.s:270    .text:00000140 LPS22HB_Get_PowerMode
     /tmp/ccBklucm.s:319    .text:00000180 LPS22HB_Set_Odr
     /tmp/ccBklucm.s:387    .text:000001f0 LPS22HB_Get_Odr
     /tmp/ccBklucm.s:436    .text:00000230 LPS22HB_Set_LowPassFilter
     /tmp/ccBklucm.s:508    .text:000002a0 LPS22HB_Set_LowPassFilterCutoff
     /tmp/ccBklucm.s:576    .text:00000310 LPS22HB_Set_Bdu
     /tmp/ccBklucm.s:644    .text:00000380 LPS22HB_Get_Bdu
     /tmp/ccBklucm.s:693    .text:000003c0 LPS22HB_Set_SpiInterface
     /tmp/ccBklucm.s:761    .text:00000430 LPS22HB_Set_ClockTreeConfifuration
     /tmp/ccBklucm.s:829    .text:000004a0 LPS22HB_Get_SpiInterface
     /tmp/ccBklucm.s:878    .text:000004e0 LPS22HB_SwReset
     /tmp/ccBklucm.s:938    .text:00000530 LPS22HB_MemoryBoot
     /tmp/ccBklucm.s:998    .text:00000580 LPS22HB_SwResetAndMemoryBoot
     /tmp/ccBklucm.s:1058   .text:000005d0 LPS22HB_Set_FifoModeUse
     /tmp/ccBklucm.s:1130   .text:00000640 LPS22HB_Set_FifoWatermarkLevelUse
     /tmp/ccBklucm.s:1202   .text:000006b0 LPS22HB_Set_AutomaticIncrementRegAddress
     /tmp/ccBklucm.s:1274   .text:00000720 LPS22HB_Set_I2C
     /tmp/ccBklucm.s:1348   .text:00000790 LPS22HB_StartOneShotMeasurement
     /tmp/ccBklucm.s:1408   .text:000007e0 LPS22HB_Set_InterruptActiveLevel
     /tmp/ccBklucm.s:1476   .text:00000850 LPS22HB_Set_InterruptOutputType
     /tmp/ccBklucm.s:1544   .text:000008c0 LPS22HB_Set_InterruptControlConfig
     /tmp/ccBklucm.s:1612   .text:00000930 LPS22HB_Set_DRDYInterrupt
     /tmp/ccBklucm.s:1684   .text:000009a0 LPS22HB_Set_FIFO_OVR_Interrupt
     /tmp/ccBklucm.s:1756   .text:00000a10 LPS22HB_Set_FIFO_FTH_Interrupt
     /tmp/ccBklucm.s:1828   .text:00000a80 LPS22HB_Set_FIFO_FULL_Interrupt
     /tmp/ccBklucm.s:1900   .text:00000af0 LPS22HB_Set_AutoRifP
     /tmp/ccBklucm.s:1960   .text:00000b40 LPS22HB_ResetAutoRifP
     /tmp/ccBklucm.s:2020   .text:00000b90 LPS22HB_Set_AutoZeroFunction
     /tmp/ccBklucm.s:2080   .text:00000be0 LPS22HB_ResetAutoZeroFunction
     /tmp/ccBklucm.s:2140   .text:00000c30 LPS22HB_Set_InterruptDifferentialGeneration
     /tmp/ccBklucm.s:2212   .text:00000ca0 LPS22HB_Get_InterruptDifferentialGeneration
     /tmp/ccBklucm.s:2262   .text:00000ce0 LPS22HB_LatchInterruptRequest
     /tmp/ccBklucm.s:2334   .text:00000d50 LPS22HB_Set_PLE
     /tmp/ccBklucm.s:2406   .text:00000dc0 LPS22HB_Set_PHE
     /tmp/ccBklucm.s:2474   .text:00000e30 LPS22HB_Get_InterruptDifferentialEventStatus
     /tmp/ccBklucm.s:2543   .text:00000ea0 LPS22HB_Get_DataStatus
     /tmp/ccBklucm.s:2612   .text:00000f10 LPS22HB_Get_RawPressure
     /tmp/ccBklucm.s:2698   .text:00000f90 LPS22HB_Get_Pressure
     /tmp/ccBklucm.s:2752   .text:00000fd0 LPS22HB_Get_RawTemperature
     /tmp/ccBklucm.s:2806   .text:00001020 LPS22HB_Get_Temperature
     /tmp/ccBklucm.s:2857   .text:00001068 $d
     /tmp/ccBklucm.s:2861   .text:0000106c $t
     /tmp/ccBklucm.s:2867   .text:00001070 LPS22HB_Get_PressureThreshold
     /tmp/ccBklucm.s:2923   .text:000010c0 LPS22HB_Set_PressureThreshold
     /tmp/ccBklucm.s:2981   .text:00001110 LPS22HB_Set_FifoMode
     /tmp/ccBklucm.s:3049   .text:00001180 LPS22HB_Get_FifoMode
     /tmp/ccBklucm.s:3101   .text:000011c0 LPS22HB_Set_FifoWatermarkLevel
     /tmp/ccBklucm.s:3169   .text:00001230 LPS22HB_Get_FifoWatermarkLevel
     /tmp/ccBklucm.s:3219   .text:00001270 LPS22HB_Get_FifoStatus
ARM GAS  /tmp/ccBklucm.s 			page 162


     /tmp/ccBklucm.s:3313   .text:000012f0 LPS22HB_Get_PressureOffsetValue
     /tmp/ccBklucm.s:3376   .text:00001350 LPS22HB_Get_ReferencePressure
     /tmp/ccBklucm.s:3473   .text:000013f0 LPS22HB_IsMeasurementCompleted
     /tmp/ccBklucm.s:3534   .text:00001450 LPS22HB_Get_Measurement
     /tmp/ccBklucm.s:3596   .text:000014a0 LPS22HB_Init
     /tmp/ccBklucm.s:3719   .text:00001540 LPS22HB_Set_GenericConfig
     /tmp/ccBklucm.s:3668   .text:00001500 LPS22HB_DeInit
     /tmp/ccBklucm.s:3840   .text:000015f0 LPS22HB_Get_GenericConfig
     /tmp/ccBklucm.s:3946   .text:000016a0 LPS22HB_Set_InterruptConfig
     /tmp/ccBklucm.s:4269   .text:000018a0 LPS22HB_Get_InterruptConfig
     /tmp/ccBklucm.s:4399   .text:00001980 LPS22HB_Set_FifoConfig
     /tmp/ccBklucm.s:4531   .text:00001a40 LPS22HB_Get_FifoConfig
                     .debug_frame:00000010 $d

UNDEFINED SYMBOLS
Sensor_IO_Read
Sensor_IO_Write
