ARM GAS  /tmp/ccLvZpjt.s 			page 1


   1              		.syntax unified
   2              		.cpu cortex-m4
   3              		.fpu softvfp
   4              		.eabi_attribute 20, 1
   5              		.eabi_attribute 21, 1
   6              		.eabi_attribute 23, 3
   7              		.eabi_attribute 24, 1
   8              		.eabi_attribute 25, 1
   9              		.eabi_attribute 26, 1
  10              		.eabi_attribute 30, 6
  11              		.eabi_attribute 34, 1
  12              		.eabi_attribute 18, 4
  13              		.thumb
  14              		.file	"LSM303AGR_MAG_driver_HL.c"
  15              		.text
  16              	.Ltext0:
  17              		.cfi_sections	.debug_frame
  18              		.global	LSM303AGR_M_Drv
  19              		.data
  20              		.align	2
  21              		.type	LSM303AGR_M_Drv, %object
  22              		.size	LSM303AGR_M_Drv, 72
  23              	LSM303AGR_M_Drv:
  24 0000 00000000 		.word	LSM303AGR_M_Init
  25 0004 00000000 		.word	LSM303AGR_M_DeInit
  26 0008 00000000 		.word	LSM303AGR_M_Sensor_Enable
  27 000c 00000000 		.word	LSM303AGR_M_Sensor_Disable
  28 0010 00000000 		.word	LSM303AGR_M_Get_WhoAmI
  29 0014 00000000 		.word	LSM303AGR_M_Check_WhoAmI
  30 0018 00000000 		.word	LSM303AGR_M_Get_Axes
  31 001c 00000000 		.word	LSM303AGR_M_Get_AxesRaw
  32 0020 00000000 		.word	LSM303AGR_M_Get_Sensitivity
  33 0024 00000000 		.word	LSM303AGR_M_Get_ODR
  34 0028 00000000 		.word	LSM303AGR_M_Set_ODR
  35 002c 00000000 		.word	LSM303AGR_M_Set_ODR_Value
  36 0030 00000000 		.word	LSM303AGR_M_Get_FS
  37 0034 00000000 		.word	LSM303AGR_M_Set_FS
  38 0038 00000000 		.word	LSM303AGR_M_Set_FS_Value
  39 003c 00000000 		.word	LSM303AGR_M_Read_Reg
  40 0040 00000000 		.word	LSM303AGR_M_Write_Reg
  41 0044 00000000 		.word	LSM303AGR_M_Get_DRDY_Status
  42              		.text
  43              		.align	2
  44              		.p2align 4,,15
  45              		.thumb
  46              		.thumb_func
  47              		.type	LSM303AGR_M_Init, %function
  48              	LSM303AGR_M_Init:
  49              	.LFB0:
  50              		.file 1 "../../../../../Drivers/BSP/Components/lsm303agr/LSM303AGR_MAG_driver_HL.c"
  51              		.loc 1 143 0
  52              		.cfi_startproc
  53              		@ args = 0, pretend = 0, frame = 24
  54              		@ frame_needed = 0, uses_anonymous_args = 0
  55 0000 00B5     		push	{lr}
  56              		.cfi_def_cfa_offset 4
  57              		.cfi_offset 14, -4
ARM GAS  /tmp/ccLvZpjt.s 			page 2


  58 0002 87B0     		sub	sp, sp, #28
  59              		.cfi_def_cfa_offset 32
  60 0004 0190     		str	r0, [sp, #4]
  61              		.loc 1 144 0
  62 0006 019B     		ldr	r3, [sp, #4]
  63 0008 9B68     		ldr	r3, [r3, #8]
  64 000a 0593     		str	r3, [sp, #20]
  65              		.loc 1 145 0
  66 000c 059B     		ldr	r3, [sp, #20]
  67 000e 1B68     		ldr	r3, [r3]
  68 0010 0493     		str	r3, [sp, #16]
  69              		.loc 1 146 0
  70 0012 049B     		ldr	r3, [sp, #16]
  71 0014 1B68     		ldr	r3, [r3]
  72 0016 0393     		str	r3, [sp, #12]
  73              		.loc 1 148 0
  74 0018 0198     		ldr	r0, [sp, #4]
  75 001a 00F0C1F8 		bl	LSM303AGR_M_Check_WhoAmI
  76 001e 0346     		mov	r3, r0
  77 0020 012B     		cmp	r3, #1
  78 0022 01D1     		bne	.L2
  79              		.loc 1 150 0
  80 0024 0123     		movs	r3, #1
  81 0026 33E0     		b	.L3
  82              	.L2:
  83              		.loc 1 154 0
  84 0028 0198     		ldr	r0, [sp, #4]
  85 002a 0221     		movs	r1, #2
  86 002c FFF7FEFF 		bl	LSM303AGR_MAG_W_MD
  87 0030 0346     		mov	r3, r0
  88 0032 002B     		cmp	r3, #0
  89 0034 01D1     		bne	.L4
  90              		.loc 1 156 0
  91 0036 0123     		movs	r3, #1
  92 0038 2AE0     		b	.L3
  93              	.L4:
  94              		.loc 1 160 0
  95 003a 0198     		ldr	r0, [sp, #4]
  96 003c 1021     		movs	r1, #16
  97 003e FFF7FEFF 		bl	LSM303AGR_MAG_W_BDU
  98 0042 0346     		mov	r3, r0
  99 0044 002B     		cmp	r3, #0
 100 0046 01D1     		bne	.L5
 101              		.loc 1 162 0
 102 0048 0123     		movs	r3, #1
 103 004a 21E0     		b	.L3
 104              	.L5:
 105              		.loc 1 165 0
 106 004c 0198     		ldr	r0, [sp, #4]
 107 004e 0421     		movs	r1, #4
 108 0050 00F0AEF9 		bl	LSM303AGR_M_Set_ODR
 109 0054 0346     		mov	r3, r0
 110 0056 012B     		cmp	r3, #1
 111 0058 01D1     		bne	.L6
 112              		.loc 1 167 0
 113 005a 0123     		movs	r3, #1
 114 005c 18E0     		b	.L3
ARM GAS  /tmp/ccLvZpjt.s 			page 3


 115              	.L6:
 116              		.loc 1 170 0
 117 005e 0198     		ldr	r0, [sp, #4]
 118 0060 0021     		movs	r1, #0
 119 0062 00F02DFA 		bl	LSM303AGR_M_Set_FS
 120 0066 0346     		mov	r3, r0
 121 0068 012B     		cmp	r3, #1
 122 006a 01D1     		bne	.L7
 123              		.loc 1 172 0
 124 006c 0123     		movs	r3, #1
 125 006e 0FE0     		b	.L3
 126              	.L7:
 127              		.loc 1 175 0
 128 0070 0198     		ldr	r0, [sp, #4]
 129 0072 0021     		movs	r1, #0
 130 0074 FFF7FEFF 		bl	LSM303AGR_MAG_W_ST
 131 0078 0346     		mov	r3, r0
 132 007a 002B     		cmp	r3, #0
 133 007c 01D1     		bne	.L8
 134              		.loc 1 177 0
 135 007e 0123     		movs	r3, #1
 136 0080 06E0     		b	.L3
 137              	.L8:
 138              		.loc 1 180 0
 139 0082 039B     		ldr	r3, [sp, #12]
 140 0084 0122     		movs	r2, #1
 141 0086 5A70     		strb	r2, [r3, #1]
 142              		.loc 1 182 0
 143 0088 019B     		ldr	r3, [sp, #4]
 144 008a 0122     		movs	r2, #1
 145 008c 5A71     		strb	r2, [r3, #5]
 146              		.loc 1 184 0
 147 008e 0023     		movs	r3, #0
 148              	.L3:
 149              		.loc 1 185 0
 150 0090 1846     		mov	r0, r3
 151 0092 07B0     		add	sp, sp, #28
 152              		@ sp needed
 153 0094 5DF804FB 		ldr	pc, [sp], #4
 154              		.cfi_endproc
 155              	.LFE0:
 156              		.size	LSM303AGR_M_Init, .-LSM303AGR_M_Init
 157              		.align	2
 158 0098 AFF30080 		.p2align 4,,15
 158      AFF30080 
 159              		.thumb
 160              		.thumb_func
 161              		.type	LSM303AGR_M_DeInit, %function
 162              	LSM303AGR_M_DeInit:
 163              	.LFB1:
 164              		.loc 1 195 0
 165              		.cfi_startproc
 166              		@ args = 0, pretend = 0, frame = 24
 167              		@ frame_needed = 0, uses_anonymous_args = 0
 168 00a0 00B5     		push	{lr}
 169              		.cfi_def_cfa_offset 4
 170              		.cfi_offset 14, -4
ARM GAS  /tmp/ccLvZpjt.s 			page 4


 171 00a2 87B0     		sub	sp, sp, #28
 172              		.cfi_def_cfa_offset 32
 173 00a4 0190     		str	r0, [sp, #4]
 174              		.loc 1 196 0
 175 00a6 019B     		ldr	r3, [sp, #4]
 176 00a8 9B68     		ldr	r3, [r3, #8]
 177 00aa 0593     		str	r3, [sp, #20]
 178              		.loc 1 197 0
 179 00ac 059B     		ldr	r3, [sp, #20]
 180 00ae 1B68     		ldr	r3, [r3]
 181 00b0 0493     		str	r3, [sp, #16]
 182              		.loc 1 198 0
 183 00b2 049B     		ldr	r3, [sp, #16]
 184 00b4 1B68     		ldr	r3, [r3]
 185 00b6 0393     		str	r3, [sp, #12]
 186              		.loc 1 200 0
 187 00b8 0198     		ldr	r0, [sp, #4]
 188 00ba 00F071F8 		bl	LSM303AGR_M_Check_WhoAmI
 189 00be 0346     		mov	r3, r0
 190 00c0 012B     		cmp	r3, #1
 191 00c2 01D1     		bne	.L10
 192              		.loc 1 202 0
 193 00c4 0123     		movs	r3, #1
 194 00c6 0EE0     		b	.L11
 195              	.L10:
 196              		.loc 1 206 0
 197 00c8 0198     		ldr	r0, [sp, #4]
 198 00ca 00F031F8 		bl	LSM303AGR_M_Sensor_Disable
 199 00ce 0346     		mov	r3, r0
 200 00d0 012B     		cmp	r3, #1
 201 00d2 01D1     		bne	.L12
 202              		.loc 1 208 0
 203 00d4 0123     		movs	r3, #1
 204 00d6 06E0     		b	.L11
 205              	.L12:
 206              		.loc 1 211 0
 207 00d8 039B     		ldr	r3, [sp, #12]
 208 00da 0022     		movs	r2, #0
 209 00dc 5A70     		strb	r2, [r3, #1]
 210              		.loc 1 213 0
 211 00de 019B     		ldr	r3, [sp, #4]
 212 00e0 0022     		movs	r2, #0
 213 00e2 5A71     		strb	r2, [r3, #5]
 214              		.loc 1 215 0
 215 00e4 0023     		movs	r3, #0
 216              	.L11:
 217              		.loc 1 216 0
 218 00e6 1846     		mov	r0, r3
 219 00e8 07B0     		add	sp, sp, #28
 220              		@ sp needed
 221 00ea 5DF804FB 		ldr	pc, [sp], #4
 222              		.cfi_endproc
 223              	.LFE1:
 224              		.size	LSM303AGR_M_DeInit, .-LSM303AGR_M_DeInit
 225 00ee 00BF     		.align	2
 226              		.p2align 4,,15
 227              		.thumb
ARM GAS  /tmp/ccLvZpjt.s 			page 5


 228              		.thumb_func
 229              		.type	LSM303AGR_M_Sensor_Enable, %function
 230              	LSM303AGR_M_Sensor_Enable:
 231              	.LFB2:
 232              		.loc 1 227 0
 233              		.cfi_startproc
 234              		@ args = 0, pretend = 0, frame = 8
 235              		@ frame_needed = 0, uses_anonymous_args = 0
 236 00f0 00B5     		push	{lr}
 237              		.cfi_def_cfa_offset 4
 238              		.cfi_offset 14, -4
 239 00f2 83B0     		sub	sp, sp, #12
 240              		.cfi_def_cfa_offset 16
 241 00f4 0190     		str	r0, [sp, #4]
 242              		.loc 1 230 0
 243 00f6 019B     		ldr	r3, [sp, #4]
 244 00f8 9B79     		ldrb	r3, [r3, #6]	@ zero_extendqisi2
 245 00fa 012B     		cmp	r3, #1
 246 00fc 01D1     		bne	.L14
 247              		.loc 1 232 0
 248 00fe 0023     		movs	r3, #0
 249 0100 0CE0     		b	.L15
 250              	.L14:
 251              		.loc 1 236 0
 252 0102 0198     		ldr	r0, [sp, #4]
 253 0104 0021     		movs	r1, #0
 254 0106 FFF7FEFF 		bl	LSM303AGR_MAG_W_MD
 255 010a 0346     		mov	r3, r0
 256 010c 002B     		cmp	r3, #0
 257 010e 01D1     		bne	.L16
 258              		.loc 1 238 0
 259 0110 0123     		movs	r3, #1
 260 0112 03E0     		b	.L15
 261              	.L16:
 262              		.loc 1 241 0
 263 0114 019B     		ldr	r3, [sp, #4]
 264 0116 0122     		movs	r2, #1
 265 0118 9A71     		strb	r2, [r3, #6]
 266              		.loc 1 243 0
 267 011a 0023     		movs	r3, #0
 268              	.L15:
 269              		.loc 1 244 0
 270 011c 1846     		mov	r0, r3
 271 011e 03B0     		add	sp, sp, #12
 272              		@ sp needed
 273 0120 5DF804FB 		ldr	pc, [sp], #4
 274              		.cfi_endproc
 275              	.LFE2:
 276              		.size	LSM303AGR_M_Sensor_Enable, .-LSM303AGR_M_Sensor_Enable
 277              		.align	2
 278 0124 AFF30080 		.p2align 4,,15
 278      AFF30080 
 278      AFF30080 
 279              		.thumb
 280              		.thumb_func
 281              		.type	LSM303AGR_M_Sensor_Disable, %function
 282              	LSM303AGR_M_Sensor_Disable:
ARM GAS  /tmp/ccLvZpjt.s 			page 6


 283              	.LFB3:
 284              		.loc 1 255 0
 285              		.cfi_startproc
 286              		@ args = 0, pretend = 0, frame = 8
 287              		@ frame_needed = 0, uses_anonymous_args = 0
 288 0130 00B5     		push	{lr}
 289              		.cfi_def_cfa_offset 4
 290              		.cfi_offset 14, -4
 291 0132 83B0     		sub	sp, sp, #12
 292              		.cfi_def_cfa_offset 16
 293 0134 0190     		str	r0, [sp, #4]
 294              		.loc 1 258 0
 295 0136 019B     		ldr	r3, [sp, #4]
 296 0138 9B79     		ldrb	r3, [r3, #6]	@ zero_extendqisi2
 297 013a 002B     		cmp	r3, #0
 298 013c 01D1     		bne	.L18
 299              		.loc 1 260 0
 300 013e 0023     		movs	r3, #0
 301 0140 0CE0     		b	.L19
 302              	.L18:
 303              		.loc 1 264 0
 304 0142 0198     		ldr	r0, [sp, #4]
 305 0144 0221     		movs	r1, #2
 306 0146 FFF7FEFF 		bl	LSM303AGR_MAG_W_MD
 307 014a 0346     		mov	r3, r0
 308 014c 002B     		cmp	r3, #0
 309 014e 01D1     		bne	.L20
 310              		.loc 1 266 0
 311 0150 0123     		movs	r3, #1
 312 0152 03E0     		b	.L19
 313              	.L20:
 314              		.loc 1 269 0
 315 0154 019B     		ldr	r3, [sp, #4]
 316 0156 0022     		movs	r2, #0
 317 0158 9A71     		strb	r2, [r3, #6]
 318              		.loc 1 271 0
 319 015a 0023     		movs	r3, #0
 320              	.L19:
 321              		.loc 1 272 0
 322 015c 1846     		mov	r0, r3
 323 015e 03B0     		add	sp, sp, #12
 324              		@ sp needed
 325 0160 5DF804FB 		ldr	pc, [sp], #4
 326              		.cfi_endproc
 327              	.LFE3:
 328              		.size	LSM303AGR_M_Sensor_Disable, .-LSM303AGR_M_Sensor_Disable
 329              		.align	2
 330 0164 AFF30080 		.p2align 4,,15
 330      AFF30080 
 330      AFF30080 
 331              		.thumb
 332              		.thumb_func
 333              		.type	LSM303AGR_M_Get_WhoAmI, %function
 334              	LSM303AGR_M_Get_WhoAmI:
 335              	.LFB4:
 336              		.loc 1 284 0
 337              		.cfi_startproc
ARM GAS  /tmp/ccLvZpjt.s 			page 7


 338              		@ args = 0, pretend = 0, frame = 8
 339              		@ frame_needed = 0, uses_anonymous_args = 0
 340 0170 00B5     		push	{lr}
 341              		.cfi_def_cfa_offset 4
 342              		.cfi_offset 14, -4
 343 0172 83B0     		sub	sp, sp, #12
 344              		.cfi_def_cfa_offset 16
 345 0174 0190     		str	r0, [sp, #4]
 346 0176 0091     		str	r1, [sp]
 347              		.loc 1 287 0
 348 0178 0198     		ldr	r0, [sp, #4]
 349 017a 0099     		ldr	r1, [sp]
 350 017c FFF7FEFF 		bl	LSM303AGR_MAG_R_WHO_AM_I
 351 0180 0346     		mov	r3, r0
 352 0182 002B     		cmp	r3, #0
 353 0184 01D1     		bne	.L22
 354              		.loc 1 289 0
 355 0186 0123     		movs	r3, #1
 356 0188 00E0     		b	.L23
 357              	.L22:
 358              		.loc 1 292 0
 359 018a 0023     		movs	r3, #0
 360              	.L23:
 361              		.loc 1 293 0
 362 018c 1846     		mov	r0, r3
 363 018e 03B0     		add	sp, sp, #12
 364              		@ sp needed
 365 0190 5DF804FB 		ldr	pc, [sp], #4
 366              		.cfi_endproc
 367              	.LFE4:
 368              		.size	LSM303AGR_M_Get_WhoAmI, .-LSM303AGR_M_Get_WhoAmI
 369              		.align	2
 370 0194 AFF30080 		.p2align 4,,15
 370      AFF30080 
 370      AFF30080 
 371              		.thumb
 372              		.thumb_func
 373              		.type	LSM303AGR_M_Check_WhoAmI, %function
 374              	LSM303AGR_M_Check_WhoAmI:
 375              	.LFB5:
 376              		.loc 1 304 0
 377              		.cfi_startproc
 378              		@ args = 0, pretend = 0, frame = 16
 379              		@ frame_needed = 0, uses_anonymous_args = 0
 380 01a0 00B5     		push	{lr}
 381              		.cfi_def_cfa_offset 4
 382              		.cfi_offset 14, -4
 383 01a2 85B0     		sub	sp, sp, #20
 384              		.cfi_def_cfa_offset 24
 385 01a4 0190     		str	r0, [sp, #4]
 386              		.loc 1 306 0
 387 01a6 0023     		movs	r3, #0
 388 01a8 8DF80F30 		strb	r3, [sp, #15]
 389              		.loc 1 308 0
 390 01ac 0DF10F03 		add	r3, sp, #15
 391 01b0 0198     		ldr	r0, [sp, #4]
 392 01b2 1946     		mov	r1, r3
ARM GAS  /tmp/ccLvZpjt.s 			page 8


 393 01b4 FFF7DCFF 		bl	LSM303AGR_M_Get_WhoAmI
 394 01b8 0346     		mov	r3, r0
 395 01ba 012B     		cmp	r3, #1
 396 01bc 01D1     		bne	.L25
 397              		.loc 1 310 0
 398 01be 0123     		movs	r3, #1
 399 01c0 08E0     		b	.L28
 400              	.L25:
 401              		.loc 1 312 0
 402 01c2 019B     		ldr	r3, [sp, #4]
 403 01c4 1A78     		ldrb	r2, [r3]	@ zero_extendqisi2
 404 01c6 9DF80F30 		ldrb	r3, [sp, #15]	@ zero_extendqisi2
 405 01ca 9A42     		cmp	r2, r3
 406 01cc 01D0     		beq	.L27
 407              		.loc 1 314 0
 408 01ce 0123     		movs	r3, #1
 409 01d0 00E0     		b	.L28
 410              	.L27:
 411              		.loc 1 317 0
 412 01d2 0023     		movs	r3, #0
 413              	.L28:
 414              		.loc 1 318 0
 415 01d4 1846     		mov	r0, r3
 416 01d6 05B0     		add	sp, sp, #20
 417              		@ sp needed
 418 01d8 5DF804FB 		ldr	pc, [sp], #4
 419              		.cfi_endproc
 420              	.LFE5:
 421              		.size	LSM303AGR_M_Check_WhoAmI, .-LSM303AGR_M_Check_WhoAmI
 422              		.global	__aeabi_i2f
 423              		.global	__aeabi_fmul
 424              		.global	__aeabi_f2iz
 425              		.align	2
 426 01dc AFF30080 		.p2align 4,,15
 427              		.thumb
 428              		.thumb_func
 429              		.type	LSM303AGR_M_Get_Axes, %function
 430              	LSM303AGR_M_Get_Axes:
 431              	.LFB6:
 432              		.loc 1 330 0
 433              		.cfi_startproc
 434              		@ args = 0, pretend = 0, frame = 24
 435              		@ frame_needed = 0, uses_anonymous_args = 0
 436 01e0 00B5     		push	{lr}
 437              		.cfi_def_cfa_offset 4
 438              		.cfi_offset 14, -4
 439 01e2 87B0     		sub	sp, sp, #28
 440              		.cfi_def_cfa_offset 32
 441 01e4 0190     		str	r0, [sp, #4]
 442 01e6 0091     		str	r1, [sp]
 443              		.loc 1 333 0
 444 01e8 4FF00003 		mov	r3, #0
 445 01ec 0393     		str	r3, [sp, #12]	@ float
 446              		.loc 1 336 0
 447 01ee 04AB     		add	r3, sp, #16
 448 01f0 0198     		ldr	r0, [sp, #4]
 449 01f2 1946     		mov	r1, r3
ARM GAS  /tmp/ccLvZpjt.s 			page 9


 450 01f4 00F0E4F9 		bl	LSM303AGR_M_Get_Axes_Raw
 451 01f8 0346     		mov	r3, r0
 452 01fa 012B     		cmp	r3, #1
 453 01fc 01D1     		bne	.L30
 454              		.loc 1 338 0
 455 01fe 0123     		movs	r3, #1
 456 0200 43E0     		b	.L33
 457              	.L30:
 458              		.loc 1 342 0
 459 0202 03AB     		add	r3, sp, #12
 460 0204 0198     		ldr	r0, [sp, #4]
 461 0206 1946     		mov	r1, r3
 462 0208 00F06AF8 		bl	LSM303AGR_M_Get_Sensitivity
 463 020c 0346     		mov	r3, r0
 464 020e 012B     		cmp	r3, #1
 465 0210 01D1     		bne	.L32
 466              		.loc 1 344 0
 467 0212 0123     		movs	r3, #1
 468 0214 39E0     		b	.L33
 469              	.L32:
 470              		.loc 1 348 0
 471 0216 BDF81030 		ldrh	r3, [sp, #16]
 472 021a 1BB2     		sxth	r3, r3
 473 021c 1846     		mov	r0, r3
 474 021e FFF7FEFF 		bl	__aeabi_i2f
 475 0222 0246     		mov	r2, r0
 476 0224 039B     		ldr	r3, [sp, #12]	@ float
 477 0226 1046     		mov	r0, r2
 478 0228 1946     		mov	r1, r3
 479 022a FFF7FEFF 		bl	__aeabi_fmul
 480 022e 0346     		mov	r3, r0
 481 0230 1846     		mov	r0, r3
 482 0232 FFF7FEFF 		bl	__aeabi_f2iz
 483 0236 0246     		mov	r2, r0
 484 0238 009B     		ldr	r3, [sp]
 485 023a 1A60     		str	r2, [r3]
 486              		.loc 1 349 0
 487 023c BDF81230 		ldrh	r3, [sp, #18]
 488 0240 1BB2     		sxth	r3, r3
 489 0242 1846     		mov	r0, r3
 490 0244 FFF7FEFF 		bl	__aeabi_i2f
 491 0248 0246     		mov	r2, r0
 492 024a 039B     		ldr	r3, [sp, #12]	@ float
 493 024c 1046     		mov	r0, r2
 494 024e 1946     		mov	r1, r3
 495 0250 FFF7FEFF 		bl	__aeabi_fmul
 496 0254 0346     		mov	r3, r0
 497 0256 1846     		mov	r0, r3
 498 0258 FFF7FEFF 		bl	__aeabi_f2iz
 499 025c 0246     		mov	r2, r0
 500 025e 009B     		ldr	r3, [sp]
 501 0260 5A60     		str	r2, [r3, #4]
 502              		.loc 1 350 0
 503 0262 BDF81430 		ldrh	r3, [sp, #20]
 504 0266 1BB2     		sxth	r3, r3
 505 0268 1846     		mov	r0, r3
 506 026a FFF7FEFF 		bl	__aeabi_i2f
ARM GAS  /tmp/ccLvZpjt.s 			page 10


 507 026e 0246     		mov	r2, r0
 508 0270 039B     		ldr	r3, [sp, #12]	@ float
 509 0272 1046     		mov	r0, r2
 510 0274 1946     		mov	r1, r3
 511 0276 FFF7FEFF 		bl	__aeabi_fmul
 512 027a 0346     		mov	r3, r0
 513 027c 1846     		mov	r0, r3
 514 027e FFF7FEFF 		bl	__aeabi_f2iz
 515 0282 0246     		mov	r2, r0
 516 0284 009B     		ldr	r3, [sp]
 517 0286 9A60     		str	r2, [r3, #8]
 518              		.loc 1 352 0
 519 0288 0023     		movs	r3, #0
 520              	.L33:
 521              		.loc 1 353 0
 522 028a 1846     		mov	r0, r3
 523 028c 07B0     		add	sp, sp, #28
 524              		@ sp needed
 525 028e 5DF804FB 		ldr	pc, [sp], #4
 526              		.cfi_endproc
 527              	.LFE6:
 528              		.size	LSM303AGR_M_Get_Axes, .-LSM303AGR_M_Get_Axes
 529 0292 00BF     		.align	2
 530 0294 AFF30080 		.p2align 4,,15
 530      AFF30080 
 530      AFF30080 
 531              		.thumb
 532              		.thumb_func
 533              		.type	LSM303AGR_M_Get_AxesRaw, %function
 534              	LSM303AGR_M_Get_AxesRaw:
 535              	.LFB7:
 536              		.loc 1 365 0
 537              		.cfi_startproc
 538              		@ args = 0, pretend = 0, frame = 16
 539              		@ frame_needed = 0, uses_anonymous_args = 0
 540 02a0 00B5     		push	{lr}
 541              		.cfi_def_cfa_offset 4
 542              		.cfi_offset 14, -4
 543 02a2 85B0     		sub	sp, sp, #20
 544              		.cfi_def_cfa_offset 24
 545 02a4 0190     		str	r0, [sp, #4]
 546 02a6 0091     		str	r1, [sp]
 547              		.loc 1 370 0
 548 02a8 02AB     		add	r3, sp, #8
 549 02aa 0198     		ldr	r0, [sp, #4]
 550 02ac 1946     		mov	r1, r3
 551 02ae 00F087F9 		bl	LSM303AGR_M_Get_Axes_Raw
 552 02b2 0346     		mov	r3, r0
 553 02b4 012B     		cmp	r3, #1
 554 02b6 01D1     		bne	.L35
 555              		.loc 1 372 0
 556 02b8 0123     		movs	r3, #1
 557 02ba 0CE0     		b	.L37
 558              	.L35:
 559              		.loc 1 376 0
 560 02bc BDF80820 		ldrh	r2, [sp, #8]
 561 02c0 009B     		ldr	r3, [sp]
ARM GAS  /tmp/ccLvZpjt.s 			page 11


 562 02c2 1A80     		strh	r2, [r3]	@ movhi
 563              		.loc 1 377 0
 564 02c4 BDF80A20 		ldrh	r2, [sp, #10]
 565 02c8 009B     		ldr	r3, [sp]
 566 02ca 5A80     		strh	r2, [r3, #2]	@ movhi
 567              		.loc 1 378 0
 568 02cc BDF80C20 		ldrh	r2, [sp, #12]
 569 02d0 009B     		ldr	r3, [sp]
 570 02d2 9A80     		strh	r2, [r3, #4]	@ movhi
 571              		.loc 1 380 0
 572 02d4 0023     		movs	r3, #0
 573              	.L37:
 574              		.loc 1 381 0
 575 02d6 1846     		mov	r0, r3
 576 02d8 05B0     		add	sp, sp, #20
 577              		@ sp needed
 578 02da 5DF804FB 		ldr	pc, [sp], #4
 579              		.cfi_endproc
 580              	.LFE7:
 581              		.size	LSM303AGR_M_Get_AxesRaw, .-LSM303AGR_M_Get_AxesRaw
 582 02de 00BF     		.align	2
 583              		.p2align 4,,15
 584              		.thumb
 585              		.thumb_func
 586              		.type	LSM303AGR_M_Get_Sensitivity, %function
 587              	LSM303AGR_M_Get_Sensitivity:
 588              	.LFB8:
 589              		.loc 1 393 0
 590              		.cfi_startproc
 591              		@ args = 0, pretend = 0, frame = 8
 592              		@ frame_needed = 0, uses_anonymous_args = 0
 593              		@ link register save eliminated.
 594 02e0 82B0     		sub	sp, sp, #8
 595              		.cfi_def_cfa_offset 8
 596 02e2 0190     		str	r0, [sp, #4]
 597 02e4 0091     		str	r1, [sp]
 598              		.loc 1 394 0
 599 02e6 009B     		ldr	r3, [sp]
 600 02e8 4FF07F52 		mov	r2, #1069547520
 601 02ec 1A60     		str	r2, [r3]	@ float
 602              		.loc 1 396 0
 603 02ee 0023     		movs	r3, #0
 604              		.loc 1 397 0
 605 02f0 1846     		mov	r0, r3
 606 02f2 02B0     		add	sp, sp, #8
 607              		@ sp needed
 608 02f4 7047     		bx	lr
 609              		.cfi_endproc
 610              	.LFE8:
 611              		.size	LSM303AGR_M_Get_Sensitivity, .-LSM303AGR_M_Get_Sensitivity
 612 02f6 00BF     		.align	2
 613 02f8 AFF30080 		.p2align 4,,15
 613      AFF30080 
 614              		.thumb
 615              		.thumb_func
 616              		.type	LSM303AGR_M_Get_ODR, %function
 617              	LSM303AGR_M_Get_ODR:
ARM GAS  /tmp/ccLvZpjt.s 			page 12


 618              	.LFB9:
 619              		.loc 1 409 0
 620              		.cfi_startproc
 621              		@ args = 0, pretend = 0, frame = 16
 622              		@ frame_needed = 0, uses_anonymous_args = 0
 623 0300 00B5     		push	{lr}
 624              		.cfi_def_cfa_offset 4
 625              		.cfi_offset 14, -4
 626 0302 85B0     		sub	sp, sp, #20
 627              		.cfi_def_cfa_offset 24
 628 0304 0190     		str	r0, [sp, #4]
 629 0306 0091     		str	r1, [sp]
 630              		.loc 1 412 0
 631 0308 0DF10F03 		add	r3, sp, #15
 632 030c 0198     		ldr	r0, [sp, #4]
 633 030e 1946     		mov	r1, r3
 634 0310 FFF7FEFF 		bl	LSM303AGR_MAG_R_ODR
 635 0314 0346     		mov	r3, r0
 636 0316 002B     		cmp	r3, #0
 637 0318 01D1     		bne	.L41
 638              		.loc 1 414 0
 639 031a 0123     		movs	r3, #1
 640 031c 36E0     		b	.L50
 641              	.L41:
 642              		.loc 1 417 0
 643 031e 9DF80F30 		ldrb	r3, [sp, #15]	@ zero_extendqisi2
 644 0322 0C2B     		cmp	r3, #12
 645 0324 2CD8     		bhi	.L43
 646 0326 01A2     		adr	r2, .L45
 647 0328 52F823F0 		ldr	pc, [r2, r3, lsl #2]
 648              		.p2align 2
 649              	.L45:
 650 032c 61030000 		.word	.L44+1
 651 0330 81030000 		.word	.L43+1
 652 0334 81030000 		.word	.L43+1
 653 0338 81030000 		.word	.L43+1
 654 033c 69030000 		.word	.L46+1
 655 0340 81030000 		.word	.L43+1
 656 0344 81030000 		.word	.L43+1
 657 0348 81030000 		.word	.L43+1
 658 034c 71030000 		.word	.L47+1
 659 0350 81030000 		.word	.L43+1
 660 0354 81030000 		.word	.L43+1
 661 0358 81030000 		.word	.L43+1
 662 035c 79030000 		.word	.L48+1
 663              		.p2align 1
 664              	.L44:
 665              		.loc 1 420 0
 666 0360 009B     		ldr	r3, [sp]
 667 0362 0C4A     		ldr	r2, .L51
 668 0364 1A60     		str	r2, [r3]	@ float
 669              		.loc 1 421 0
 670 0366 10E0     		b	.L49
 671              	.L46:
 672              		.loc 1 423 0
 673 0368 009B     		ldr	r3, [sp]
 674 036a 0B4A     		ldr	r2, .L51+4
ARM GAS  /tmp/ccLvZpjt.s 			page 13


 675 036c 1A60     		str	r2, [r3]	@ float
 676              		.loc 1 424 0
 677 036e 0CE0     		b	.L49
 678              	.L47:
 679              		.loc 1 426 0
 680 0370 009B     		ldr	r3, [sp]
 681 0372 0A4A     		ldr	r2, .L51+8
 682 0374 1A60     		str	r2, [r3]	@ float
 683              		.loc 1 427 0
 684 0376 08E0     		b	.L49
 685              	.L48:
 686              		.loc 1 429 0
 687 0378 009B     		ldr	r3, [sp]
 688 037a 094A     		ldr	r2, .L51+12
 689 037c 1A60     		str	r2, [r3]	@ float
 690              		.loc 1 430 0
 691 037e 04E0     		b	.L49
 692              	.L43:
 693              		.loc 1 432 0
 694 0380 009B     		ldr	r3, [sp]
 695 0382 084A     		ldr	r2, .L51+16
 696 0384 1A60     		str	r2, [r3]	@ float
 697              		.loc 1 433 0
 698 0386 0123     		movs	r3, #1
 699 0388 00E0     		b	.L50
 700              	.L49:
 701              		.loc 1 435 0
 702 038a 0023     		movs	r3, #0
 703              	.L50:
 704              		.loc 1 436 0
 705 038c 1846     		mov	r0, r3
 706 038e 05B0     		add	sp, sp, #20
 707              		@ sp needed
 708 0390 5DF804FB 		ldr	pc, [sp], #4
 709              	.L52:
 710              		.align	2
 711              	.L51:
 712 0394 00002041 		.word	1092616192
 713 0398 0000A041 		.word	1101004800
 714 039c 00004842 		.word	1112014848
 715 03a0 0000C842 		.word	1120403456
 716 03a4 000080BF 		.word	-1082130432
 717              		.cfi_endproc
 718              	.LFE9:
 719              		.size	LSM303AGR_M_Get_ODR, .-LSM303AGR_M_Get_ODR
 720              		.align	2
 721 03a8 AFF30080 		.p2align 4,,15
 721      AFF30080 
 722              		.thumb
 723              		.thumb_func
 724              		.type	LSM303AGR_M_Set_ODR, %function
 725              	LSM303AGR_M_Set_ODR:
 726              	.LFB10:
 727              		.loc 1 448 0
 728              		.cfi_startproc
 729              		@ args = 0, pretend = 0, frame = 16
 730              		@ frame_needed = 0, uses_anonymous_args = 0
ARM GAS  /tmp/ccLvZpjt.s 			page 14


 731 03b0 00B5     		push	{lr}
 732              		.cfi_def_cfa_offset 4
 733              		.cfi_offset 14, -4
 734 03b2 85B0     		sub	sp, sp, #20
 735              		.cfi_def_cfa_offset 24
 736 03b4 0190     		str	r0, [sp, #4]
 737 03b6 0B46     		mov	r3, r1
 738 03b8 8DF80330 		strb	r3, [sp, #3]
 739              		.loc 1 451 0
 740 03bc 9DF80330 		ldrb	r3, [sp, #3]	@ zero_extendqisi2
 741 03c0 042B     		cmp	r3, #4
 742 03c2 21D8     		bhi	.L54
 743 03c4 01A2     		adr	r2, .L56
 744 03c6 52F823F0 		ldr	pc, [r2, r3, lsl #2]
 745 03ca 00BF     		.p2align 2
 746              	.L56:
 747 03cc E1030000 		.word	.L55+1
 748 03d0 E9030000 		.word	.L57+1
 749 03d4 F1030000 		.word	.L58+1
 750 03d8 F9030000 		.word	.L59+1
 751 03dc 01040000 		.word	.L60+1
 752              		.p2align 1
 753              	.L55:
 754              		.loc 1 454 0
 755 03e0 0023     		movs	r3, #0
 756 03e2 8DF80F30 		strb	r3, [sp, #15]
 757              		.loc 1 455 0
 758 03e6 11E0     		b	.L61
 759              	.L57:
 760              		.loc 1 457 0
 761 03e8 0423     		movs	r3, #4
 762 03ea 8DF80F30 		strb	r3, [sp, #15]
 763              		.loc 1 458 0
 764 03ee 0DE0     		b	.L61
 765              	.L58:
 766              		.loc 1 460 0
 767 03f0 0823     		movs	r3, #8
 768 03f2 8DF80F30 		strb	r3, [sp, #15]
 769              		.loc 1 461 0
 770 03f6 09E0     		b	.L61
 771              	.L59:
 772              		.loc 1 463 0
 773 03f8 0C23     		movs	r3, #12
 774 03fa 8DF80F30 		strb	r3, [sp, #15]
 775              		.loc 1 464 0
 776 03fe 05E0     		b	.L61
 777              	.L60:
 778              		.loc 1 466 0
 779 0400 0C23     		movs	r3, #12
 780 0402 8DF80F30 		strb	r3, [sp, #15]
 781              		.loc 1 467 0
 782 0406 01E0     		b	.L61
 783              	.L54:
 784              		.loc 1 469 0
 785 0408 0123     		movs	r3, #1
 786 040a 0BE0     		b	.L62
 787              	.L61:
ARM GAS  /tmp/ccLvZpjt.s 			page 15


 788              		.loc 1 472 0
 789 040c 9DF80F30 		ldrb	r3, [sp, #15]	@ zero_extendqisi2
 790 0410 0198     		ldr	r0, [sp, #4]
 791 0412 1946     		mov	r1, r3
 792 0414 FFF7FEFF 		bl	LSM303AGR_MAG_W_ODR
 793 0418 0346     		mov	r3, r0
 794 041a 002B     		cmp	r3, #0
 795 041c 01D1     		bne	.L63
 796              		.loc 1 474 0
 797 041e 0123     		movs	r3, #1
 798 0420 00E0     		b	.L62
 799              	.L63:
 800              		.loc 1 477 0
 801 0422 0023     		movs	r3, #0
 802              	.L62:
 803              		.loc 1 478 0
 804 0424 1846     		mov	r0, r3
 805 0426 05B0     		add	sp, sp, #20
 806              		@ sp needed
 807 0428 5DF804FB 		ldr	pc, [sp], #4
 808              		.cfi_endproc
 809              	.LFE10:
 810              		.size	LSM303AGR_M_Set_ODR, .-LSM303AGR_M_Set_ODR
 811              		.global	__aeabi_fcmple
 812              		.align	2
 813 042c AFF30080 		.p2align 4,,15
 814              		.thumb
 815              		.thumb_func
 816              		.type	LSM303AGR_M_Set_ODR_Value, %function
 817              	LSM303AGR_M_Set_ODR_Value:
 818              	.LFB11:
 819              		.loc 1 490 0
 820              		.cfi_startproc
 821              		@ args = 0, pretend = 0, frame = 16
 822              		@ frame_needed = 0, uses_anonymous_args = 0
 823 0430 00B5     		push	{lr}
 824              		.cfi_def_cfa_offset 4
 825              		.cfi_offset 14, -4
 826 0432 85B0     		sub	sp, sp, #20
 827              		.cfi_def_cfa_offset 24
 828 0434 0190     		str	r0, [sp, #4]
 829 0436 0091     		str	r1, [sp]	@ float
 830              		.loc 1 493 0
 831 0438 0098     		ldr	r0, [sp]	@ float
 832 043a 1649     		ldr	r1, .L82
 833 043c FFF7FEFF 		bl	__aeabi_fcmple
 834 0440 0346     		mov	r3, r0
 835 0442 002B     		cmp	r3, #0
 836 0444 01D0     		beq	.L79
 837              		.loc 1 493 0 is_stmt 0 discriminator 1
 838 0446 0023     		movs	r3, #0
 839 0448 12E0     		b	.L67
 840              	.L79:
 841              		.loc 1 493 0 discriminator 2
 842 044a 0098     		ldr	r0, [sp]	@ float
 843 044c 1249     		ldr	r1, .L82+4
 844 044e FFF7FEFF 		bl	__aeabi_fcmple
ARM GAS  /tmp/ccLvZpjt.s 			page 16


 845 0452 0346     		mov	r3, r0
 846 0454 002B     		cmp	r3, #0
 847 0456 01D0     		beq	.L80
 848              		.loc 1 493 0 discriminator 3
 849 0458 0423     		movs	r3, #4
 850 045a 09E0     		b	.L67
 851              	.L80:
 852              		.loc 1 493 0 discriminator 4
 853 045c 0098     		ldr	r0, [sp]	@ float
 854 045e 0F49     		ldr	r1, .L82+8
 855 0460 FFF7FEFF 		bl	__aeabi_fcmple
 856 0464 0346     		mov	r3, r0
 857 0466 002B     		cmp	r3, #0
 858 0468 01D0     		beq	.L81
 859              		.loc 1 493 0 discriminator 5
 860 046a 0823     		movs	r3, #8
 861 046c 00E0     		b	.L67
 862              	.L81:
 863              		.loc 1 493 0 discriminator 6
 864 046e 0C23     		movs	r3, #12
 865              	.L67:
 866              		.loc 1 493 0 discriminator 9
 867 0470 8DF80F30 		strb	r3, [sp, #15]
 868              		.loc 1 498 0 is_stmt 1 discriminator 9
 869 0474 9DF80F30 		ldrb	r3, [sp, #15]	@ zero_extendqisi2
 870 0478 0198     		ldr	r0, [sp, #4]
 871 047a 1946     		mov	r1, r3
 872 047c FFF7FEFF 		bl	LSM303AGR_MAG_W_ODR
 873 0480 0346     		mov	r3, r0
 874 0482 002B     		cmp	r3, #0
 875 0484 01D1     		bne	.L74
 876              		.loc 1 500 0
 877 0486 0123     		movs	r3, #1
 878 0488 00E0     		b	.L75
 879              	.L74:
 880              		.loc 1 503 0
 881 048a 0023     		movs	r3, #0
 882              	.L75:
 883              		.loc 1 504 0
 884 048c 1846     		mov	r0, r3
 885 048e 05B0     		add	sp, sp, #20
 886              		@ sp needed
 887 0490 5DF804FB 		ldr	pc, [sp], #4
 888              	.L83:
 889              		.align	2
 890              	.L82:
 891 0494 00002041 		.word	1092616192
 892 0498 0000A041 		.word	1101004800
 893 049c 00004842 		.word	1112014848
 894              		.cfi_endproc
 895              	.LFE11:
 896              		.size	LSM303AGR_M_Set_ODR_Value, .-LSM303AGR_M_Set_ODR_Value
 897              		.align	2
 898              		.p2align 4,,15
 899              		.thumb
 900              		.thumb_func
 901              		.type	LSM303AGR_M_Get_FS, %function
ARM GAS  /tmp/ccLvZpjt.s 			page 17


 902              	LSM303AGR_M_Get_FS:
 903              	.LFB12:
 904              		.loc 1 516 0
 905              		.cfi_startproc
 906              		@ args = 0, pretend = 0, frame = 8
 907              		@ frame_needed = 0, uses_anonymous_args = 0
 908              		@ link register save eliminated.
 909 04a0 82B0     		sub	sp, sp, #8
 910              		.cfi_def_cfa_offset 8
 911 04a2 0190     		str	r0, [sp, #4]
 912 04a4 0091     		str	r1, [sp]
 913              		.loc 1 517 0
 914 04a6 009B     		ldr	r3, [sp]
 915 04a8 024A     		ldr	r2, .L86
 916 04aa 1A60     		str	r2, [r3]	@ float
 917              		.loc 1 519 0
 918 04ac 0023     		movs	r3, #0
 919              		.loc 1 520 0
 920 04ae 1846     		mov	r0, r3
 921 04b0 02B0     		add	sp, sp, #8
 922              		@ sp needed
 923 04b2 7047     		bx	lr
 924              	.L87:
 925              		.align	2
 926              	.L86:
 927 04b4 00004842 		.word	1112014848
 928              		.cfi_endproc
 929              	.LFE12:
 930              		.size	LSM303AGR_M_Get_FS, .-LSM303AGR_M_Get_FS
 931              		.align	2
 932 04b8 AFF30080 		.p2align 4,,15
 932      AFF30080 
 933              		.thumb
 934              		.thumb_func
 935              		.type	LSM303AGR_M_Set_FS, %function
 936              	LSM303AGR_M_Set_FS:
 937              	.LFB13:
 938              		.loc 1 532 0
 939              		.cfi_startproc
 940              		@ args = 0, pretend = 0, frame = 8
 941              		@ frame_needed = 0, uses_anonymous_args = 0
 942              		@ link register save eliminated.
 943 04c0 82B0     		sub	sp, sp, #8
 944              		.cfi_def_cfa_offset 8
 945 04c2 0190     		str	r0, [sp, #4]
 946 04c4 0B46     		mov	r3, r1
 947 04c6 8DF80330 		strb	r3, [sp, #3]
 948              		.loc 1 533 0
 949 04ca 0023     		movs	r3, #0
 950              		.loc 1 534 0
 951 04cc 1846     		mov	r0, r3
 952 04ce 02B0     		add	sp, sp, #8
 953              		@ sp needed
 954 04d0 7047     		bx	lr
 955              		.cfi_endproc
 956              	.LFE13:
 957              		.size	LSM303AGR_M_Set_FS, .-LSM303AGR_M_Set_FS
ARM GAS  /tmp/ccLvZpjt.s 			page 18


 958 04d2 00BF     		.align	2
 959 04d4 AFF30080 		.p2align 4,,15
 959      AFF30080 
 959      AFF30080 
 960              		.thumb
 961              		.thumb_func
 962              		.type	LSM303AGR_M_Set_FS_Value, %function
 963              	LSM303AGR_M_Set_FS_Value:
 964              	.LFB14:
 965              		.loc 1 546 0
 966              		.cfi_startproc
 967              		@ args = 0, pretend = 0, frame = 8
 968              		@ frame_needed = 0, uses_anonymous_args = 0
 969              		@ link register save eliminated.
 970 04e0 82B0     		sub	sp, sp, #8
 971              		.cfi_def_cfa_offset 8
 972 04e2 0190     		str	r0, [sp, #4]
 973 04e4 0091     		str	r1, [sp]	@ float
 974              		.loc 1 547 0
 975 04e6 0023     		movs	r3, #0
 976              		.loc 1 548 0
 977 04e8 1846     		mov	r0, r3
 978 04ea 02B0     		add	sp, sp, #8
 979              		@ sp needed
 980 04ec 7047     		bx	lr
 981              		.cfi_endproc
 982              	.LFE14:
 983              		.size	LSM303AGR_M_Set_FS_Value, .-LSM303AGR_M_Set_FS_Value
 984 04ee 00BF     		.align	2
 985              		.p2align 4,,15
 986              		.thumb
 987              		.thumb_func
 988              		.type	LSM303AGR_M_Read_Reg, %function
 989              	LSM303AGR_M_Read_Reg:
 990              	.LFB15:
 991              		.loc 1 560 0
 992              		.cfi_startproc
 993              		@ args = 0, pretend = 0, frame = 16
 994              		@ frame_needed = 0, uses_anonymous_args = 0
 995 04f0 00B5     		push	{lr}
 996              		.cfi_def_cfa_offset 4
 997              		.cfi_offset 14, -4
 998 04f2 85B0     		sub	sp, sp, #20
 999              		.cfi_def_cfa_offset 24
 1000 04f4 0390     		str	r0, [sp, #12]
 1001 04f6 0B46     		mov	r3, r1
 1002 04f8 0192     		str	r2, [sp, #4]
 1003 04fa 8DF80B30 		strb	r3, [sp, #11]
 1004              		.loc 1 562 0
 1005 04fe 9DF80B30 		ldrb	r3, [sp, #11]	@ zero_extendqisi2
 1006 0502 0398     		ldr	r0, [sp, #12]
 1007 0504 1946     		mov	r1, r3
 1008 0506 019A     		ldr	r2, [sp, #4]
 1009 0508 0123     		movs	r3, #1
 1010 050a FFF7FEFF 		bl	LSM303AGR_MAG_ReadReg
 1011 050e 0346     		mov	r3, r0
 1012 0510 002B     		cmp	r3, #0
ARM GAS  /tmp/ccLvZpjt.s 			page 19


 1013 0512 01D1     		bne	.L93
 1014              		.loc 1 564 0
 1015 0514 0123     		movs	r3, #1
 1016 0516 00E0     		b	.L94
 1017              	.L93:
 1018              		.loc 1 567 0
 1019 0518 0023     		movs	r3, #0
 1020              	.L94:
 1021              		.loc 1 568 0
 1022 051a 1846     		mov	r0, r3
 1023 051c 05B0     		add	sp, sp, #20
 1024              		@ sp needed
 1025 051e 5DF804FB 		ldr	pc, [sp], #4
 1026              		.cfi_endproc
 1027              	.LFE15:
 1028              		.size	LSM303AGR_M_Read_Reg, .-LSM303AGR_M_Read_Reg
 1029 0522 00BF     		.align	2
 1030 0524 AFF30080 		.p2align 4,,15
 1030      AFF30080 
 1030      AFF30080 
 1031              		.thumb
 1032              		.thumb_func
 1033              		.type	LSM303AGR_M_Write_Reg, %function
 1034              	LSM303AGR_M_Write_Reg:
 1035              	.LFB16:
 1036              		.loc 1 581 0
 1037              		.cfi_startproc
 1038              		@ args = 0, pretend = 0, frame = 8
 1039              		@ frame_needed = 0, uses_anonymous_args = 0
 1040 0530 00B5     		push	{lr}
 1041              		.cfi_def_cfa_offset 4
 1042              		.cfi_offset 14, -4
 1043 0532 83B0     		sub	sp, sp, #12
 1044              		.cfi_def_cfa_offset 16
 1045 0534 0190     		str	r0, [sp, #4]
 1046 0536 1346     		mov	r3, r2
 1047 0538 0A46     		mov	r2, r1
 1048 053a 8DF80320 		strb	r2, [sp, #3]
 1049 053e 8DF80230 		strb	r3, [sp, #2]
 1050              		.loc 1 583 0
 1051 0542 9DF80320 		ldrb	r2, [sp, #3]	@ zero_extendqisi2
 1052 0546 0DF10203 		add	r3, sp, #2
 1053 054a 0198     		ldr	r0, [sp, #4]
 1054 054c 1146     		mov	r1, r2
 1055 054e 1A46     		mov	r2, r3
 1056 0550 0123     		movs	r3, #1
 1057 0552 FFF7FEFF 		bl	LSM303AGR_MAG_WriteReg
 1058 0556 0346     		mov	r3, r0
 1059 0558 002B     		cmp	r3, #0
 1060 055a 01D1     		bne	.L96
 1061              		.loc 1 585 0
 1062 055c 0123     		movs	r3, #1
 1063 055e 00E0     		b	.L97
 1064              	.L96:
 1065              		.loc 1 588 0
 1066 0560 0023     		movs	r3, #0
 1067              	.L97:
ARM GAS  /tmp/ccLvZpjt.s 			page 20


 1068              		.loc 1 589 0
 1069 0562 1846     		mov	r0, r3
 1070 0564 03B0     		add	sp, sp, #12
 1071              		@ sp needed
 1072 0566 5DF804FB 		ldr	pc, [sp], #4
 1073              		.cfi_endproc
 1074              	.LFE16:
 1075              		.size	LSM303AGR_M_Write_Reg, .-LSM303AGR_M_Write_Reg
 1076 056a 00BF     		.align	2
 1077 056c AFF30080 		.p2align 4,,15
 1078              		.thumb
 1079              		.thumb_func
 1080              		.type	LSM303AGR_M_Get_DRDY_Status, %function
 1081              	LSM303AGR_M_Get_DRDY_Status:
 1082              	.LFB17:
 1083              		.loc 1 601 0
 1084              		.cfi_startproc
 1085              		@ args = 0, pretend = 0, frame = 16
 1086              		@ frame_needed = 0, uses_anonymous_args = 0
 1087 0570 00B5     		push	{lr}
 1088              		.cfi_def_cfa_offset 4
 1089              		.cfi_offset 14, -4
 1090 0572 85B0     		sub	sp, sp, #20
 1091              		.cfi_def_cfa_offset 24
 1092 0574 0190     		str	r0, [sp, #4]
 1093 0576 0091     		str	r1, [sp]
 1094              		.loc 1 605 0
 1095 0578 0DF10F03 		add	r3, sp, #15
 1096 057c 0198     		ldr	r0, [sp, #4]
 1097 057e 1946     		mov	r1, r3
 1098 0580 FFF7FEFF 		bl	LSM303AGR_MAG_R_ZYXDA
 1099 0584 0346     		mov	r3, r0
 1100 0586 002B     		cmp	r3, #0
 1101 0588 01D1     		bne	.L99
 1102              		.loc 1 607 0
 1103 058a 0123     		movs	r3, #1
 1104 058c 10E0     		b	.L105
 1105              	.L99:
 1106              		.loc 1 610 0
 1107 058e 9DF80F30 		ldrb	r3, [sp, #15]	@ zero_extendqisi2
 1108 0592 002B     		cmp	r3, #0
 1109 0594 05D0     		beq	.L102
 1110 0596 082B     		cmp	r3, #8
 1111 0598 07D1     		bne	.L106
 1112              		.loc 1 613 0
 1113 059a 009B     		ldr	r3, [sp]
 1114 059c 0122     		movs	r2, #1
 1115 059e 1A70     		strb	r2, [r3]
 1116              		.loc 1 614 0
 1117 05a0 05E0     		b	.L104
 1118              	.L102:
 1119              		.loc 1 616 0
 1120 05a2 009B     		ldr	r3, [sp]
 1121 05a4 0022     		movs	r2, #0
 1122 05a6 1A70     		strb	r2, [r3]
 1123              		.loc 1 617 0
 1124 05a8 01E0     		b	.L104
ARM GAS  /tmp/ccLvZpjt.s 			page 21


 1125              	.L106:
 1126              		.loc 1 619 0
 1127 05aa 0123     		movs	r3, #1
 1128 05ac 00E0     		b	.L105
 1129              	.L104:
 1130              		.loc 1 622 0
 1131 05ae 0023     		movs	r3, #0
 1132              	.L105:
 1133              		.loc 1 623 0
 1134 05b0 1846     		mov	r0, r3
 1135 05b2 05B0     		add	sp, sp, #20
 1136              		@ sp needed
 1137 05b4 5DF804FB 		ldr	pc, [sp], #4
 1138              		.cfi_endproc
 1139              	.LFE17:
 1140              		.size	LSM303AGR_M_Get_DRDY_Status, .-LSM303AGR_M_Get_DRDY_Status
 1141              		.align	2
 1142 05b8 AFF30080 		.p2align 4,,15
 1142      AFF30080 
 1143              		.thumb
 1144              		.thumb_func
 1145              		.type	LSM303AGR_M_Get_Axes_Raw, %function
 1146              	LSM303AGR_M_Get_Axes_Raw:
 1147              	.LFB18:
 1148              		.loc 1 642 0
 1149              		.cfi_startproc
 1150              		@ args = 0, pretend = 0, frame = 24
 1151              		@ frame_needed = 0, uses_anonymous_args = 0
 1152 05c0 00B5     		push	{lr}
 1153              		.cfi_def_cfa_offset 4
 1154              		.cfi_offset 14, -4
 1155 05c2 87B0     		sub	sp, sp, #28
 1156              		.cfi_def_cfa_offset 32
 1157 05c4 0190     		str	r0, [sp, #4]
 1158 05c6 0091     		str	r1, [sp]
 1159              		.loc 1 644 0
 1160 05c8 0023     		movs	r3, #0
 1161 05ca 8DF80C30 		strb	r3, [sp, #12]
 1162 05ce 0023     		movs	r3, #0
 1163 05d0 8DF80D30 		strb	r3, [sp, #13]
 1164 05d4 0023     		movs	r3, #0
 1165 05d6 8DF80E30 		strb	r3, [sp, #14]
 1166 05da 0023     		movs	r3, #0
 1167 05dc 8DF80F30 		strb	r3, [sp, #15]
 1168 05e0 0023     		movs	r3, #0
 1169 05e2 8DF81030 		strb	r3, [sp, #16]
 1170 05e6 0023     		movs	r3, #0
 1171 05e8 8DF81130 		strb	r3, [sp, #17]
 1172              		.loc 1 648 0
 1173 05ec 03AB     		add	r3, sp, #12
 1174 05ee 0198     		ldr	r0, [sp, #4]
 1175 05f0 1946     		mov	r1, r3
 1176 05f2 FFF7FEFF 		bl	LSM303AGR_MAG_Get_Raw_Magnetic
 1177 05f6 0346     		mov	r3, r0
 1178 05f8 002B     		cmp	r3, #0
 1179 05fa 01D1     		bne	.L108
 1180              		.loc 1 650 0
ARM GAS  /tmp/ccLvZpjt.s 			page 22


 1181 05fc 0123     		movs	r3, #1
 1182 05fe 10E0     		b	.L110
 1183              	.L108:
 1184              		.loc 1 653 0
 1185 0600 03AB     		add	r3, sp, #12
 1186 0602 0593     		str	r3, [sp, #20]
 1187              		.loc 1 656 0
 1188 0604 059B     		ldr	r3, [sp, #20]
 1189 0606 1A88     		ldrh	r2, [r3]
 1190 0608 009B     		ldr	r3, [sp]
 1191 060a 1A80     		strh	r2, [r3]	@ movhi
 1192              		.loc 1 657 0
 1193 060c 009B     		ldr	r3, [sp]
 1194 060e 0233     		adds	r3, r3, #2
 1195 0610 059A     		ldr	r2, [sp, #20]
 1196 0612 5288     		ldrh	r2, [r2, #2]
 1197 0614 1A80     		strh	r2, [r3]	@ movhi
 1198              		.loc 1 658 0
 1199 0616 009B     		ldr	r3, [sp]
 1200 0618 0433     		adds	r3, r3, #4
 1201 061a 059A     		ldr	r2, [sp, #20]
 1202 061c 9288     		ldrh	r2, [r2, #4]
 1203 061e 1A80     		strh	r2, [r3]	@ movhi
 1204              		.loc 1 660 0
 1205 0620 0023     		movs	r3, #0
 1206              	.L110:
 1207              		.loc 1 661 0
 1208 0622 1846     		mov	r0, r3
 1209 0624 07B0     		add	sp, sp, #28
 1210              		@ sp needed
 1211 0626 5DF804FB 		ldr	pc, [sp], #4
 1212              		.cfi_endproc
 1213              	.LFE18:
 1214              		.size	LSM303AGR_M_Get_Axes_Raw, .-LSM303AGR_M_Get_Axes_Raw
 1215              	.Letext0:
 1216              		.file 2 "/nfs/nfs5/home/research/hardware/arm2/gcc-arm-embedded/gcc-arm-none-eabi-4_8-2014q2/arm-n
 1217              		.file 3 "/nfs/nfs5/home/research/hardware/arm2/gcc-arm-embedded/gcc-arm-none-eabi-4_8-2014q2/arm-n
 1218              		.file 4 "../../../../../Drivers/BSP/Components/Common/component.h"
 1219              		.file 5 "../../../../../Drivers/BSP/Components/Common/sensor.h"
 1220              		.file 6 "../../../../../Drivers/BSP/Components/Common/magnetometer.h"
 1221              		.file 7 "../../../../../Drivers/BSP/Components/lsm303agr/LSM303AGR_MAG_driver.h"
 1222              		.file 8 "../../../../../Drivers/BSP/Components/lsm303agr/LSM303AGR_Combo_driver_HL.h"
 1223              		.file 9 "../../../../../Drivers/BSP/Components/lsm303agr/LSM303AGR_MAG_driver_HL.h"