ARM GAS  /tmp/ccNUhamC.s 			page 1


   1              		.syntax unified
   2              		.cpu cortex-m4
   3              		.fpu softvfp
   4              		.eabi_attribute 20, 1
   5              		.eabi_attribute 21, 1
   6              		.eabi_attribute 23, 3
   7              		.eabi_attribute 24, 1
   8              		.eabi_attribute 25, 1
   9              		.eabi_attribute 26, 1
  10              		.eabi_attribute 30, 6
  11              		.eabi_attribute 34, 1
  12              		.eabi_attribute 18, 4
  13              		.thumb
  14              		.file	"LSM303AGR_MAG_driver.c"
  15              		.text
  16              	.Ltext0:
  17              		.cfi_sections	.debug_frame
  18              		.align	2
  19              		.p2align 4,,15
  20              		.global	LSM303AGR_MAG_WriteReg
  21              		.thumb
  22              		.thumb_func
  23              		.type	LSM303AGR_MAG_WriteReg, %function
  24              	LSM303AGR_MAG_WriteReg:
  25              	.LFB0:
  26              		.file 1 "../../../../../Drivers/BSP/Components/lsm303agr/LSM303AGR_MAG_driver.c"
  27              		.loc 1 67 0
  28              		.cfi_startproc
  29              		@ args = 0, pretend = 0, frame = 16
  30              		@ frame_needed = 0, uses_anonymous_args = 0
  31 0000 00B5     		push	{lr}
  32              		.cfi_def_cfa_offset 4
  33              		.cfi_offset 14, -4
  34 0002 85B0     		sub	sp, sp, #20
  35              		.cfi_def_cfa_offset 24
  36 0004 0390     		str	r0, [sp, #12]
  37 0006 0192     		str	r2, [sp, #4]
  38 0008 0A46     		mov	r2, r1
  39 000a 8DF80B20 		strb	r2, [sp, #11]
  40 000e ADF80830 		strh	r3, [sp, #8]	@ movhi
  41              		.loc 1 69 0
  42 0012 9DF80B20 		ldrb	r2, [sp, #11]	@ zero_extendqisi2
  43 0016 BDF80830 		ldrh	r3, [sp, #8]
  44 001a 0398     		ldr	r0, [sp, #12]
  45 001c 1146     		mov	r1, r2
  46 001e 019A     		ldr	r2, [sp, #4]
  47 0020 FFF7FEFF 		bl	Sensor_IO_Write
  48 0024 0346     		mov	r3, r0
  49 0026 002B     		cmp	r3, #0
  50 0028 01D0     		beq	.L2
  51              		.loc 1 71 0
  52 002a 0023     		movs	r3, #0
  53 002c 00E0     		b	.L3
  54              	.L2:
  55              		.loc 1 75 0
  56 002e 0123     		movs	r3, #1
  57              	.L3:
ARM GAS  /tmp/ccNUhamC.s 			page 2


  58              		.loc 1 77 0
  59 0030 1846     		mov	r0, r3
  60 0032 05B0     		add	sp, sp, #20
  61              		@ sp needed
  62 0034 5DF804FB 		ldr	pc, [sp], #4
  63              		.cfi_endproc
  64              	.LFE0:
  65              		.size	LSM303AGR_MAG_WriteReg, .-LSM303AGR_MAG_WriteReg
  66              		.align	2
  67 0038 AFF30080 		.p2align 4,,15
  67      AFF30080 
  68              		.global	LSM303AGR_MAG_ReadReg
  69              		.thumb
  70              		.thumb_func
  71              		.type	LSM303AGR_MAG_ReadReg, %function
  72              	LSM303AGR_MAG_ReadReg:
  73              	.LFB1:
  74              		.loc 1 89 0
  75              		.cfi_startproc
  76              		@ args = 0, pretend = 0, frame = 16
  77              		@ frame_needed = 0, uses_anonymous_args = 0
  78 0040 00B5     		push	{lr}
  79              		.cfi_def_cfa_offset 4
  80              		.cfi_offset 14, -4
  81 0042 85B0     		sub	sp, sp, #20
  82              		.cfi_def_cfa_offset 24
  83 0044 0390     		str	r0, [sp, #12]
  84 0046 0192     		str	r2, [sp, #4]
  85 0048 0A46     		mov	r2, r1
  86 004a 8DF80B20 		strb	r2, [sp, #11]
  87 004e ADF80830 		strh	r3, [sp, #8]	@ movhi
  88              		.loc 1 91 0
  89 0052 9DF80B20 		ldrb	r2, [sp, #11]	@ zero_extendqisi2
  90 0056 BDF80830 		ldrh	r3, [sp, #8]
  91 005a 0398     		ldr	r0, [sp, #12]
  92 005c 1146     		mov	r1, r2
  93 005e 019A     		ldr	r2, [sp, #4]
  94 0060 FFF7FEFF 		bl	Sensor_IO_Read
  95 0064 0346     		mov	r3, r0
  96 0066 002B     		cmp	r3, #0
  97 0068 01D0     		beq	.L5
  98              		.loc 1 93 0
  99 006a 0023     		movs	r3, #0
 100 006c 00E0     		b	.L6
 101              	.L5:
 102              		.loc 1 97 0
 103 006e 0123     		movs	r3, #1
 104              	.L6:
 105              		.loc 1 99 0
 106 0070 1846     		mov	r0, r3
 107 0072 05B0     		add	sp, sp, #20
 108              		@ sp needed
 109 0074 5DF804FB 		ldr	pc, [sp], #4
 110              		.cfi_endproc
 111              	.LFE1:
 112              		.size	LSM303AGR_MAG_ReadReg, .-LSM303AGR_MAG_ReadReg
 113              		.align	2
ARM GAS  /tmp/ccNUhamC.s 			page 3


 114 0078 AFF30080 		.p2align 4,,15
 114      AFF30080 
 115              		.global	LSM303AGR_MAG_R_WHO_AM_I
 116              		.thumb
 117              		.thumb_func
 118              		.type	LSM303AGR_MAG_R_WHO_AM_I, %function
 119              	LSM303AGR_MAG_R_WHO_AM_I:
 120              	.LFB2:
 121              		.loc 1 111 0
 122              		.cfi_startproc
 123              		@ args = 0, pretend = 0, frame = 8
 124              		@ frame_needed = 0, uses_anonymous_args = 0
 125 0080 00B5     		push	{lr}
 126              		.cfi_def_cfa_offset 4
 127              		.cfi_offset 14, -4
 128 0082 83B0     		sub	sp, sp, #12
 129              		.cfi_def_cfa_offset 16
 130 0084 0190     		str	r0, [sp, #4]
 131 0086 0091     		str	r1, [sp]
 132              		.loc 1 112 0
 133 0088 0198     		ldr	r0, [sp, #4]
 134 008a 4F21     		movs	r1, #79
 135 008c 009A     		ldr	r2, [sp]
 136 008e 0123     		movs	r3, #1
 137 0090 FFF7FEFF 		bl	LSM303AGR_MAG_ReadReg
 138 0094 0346     		mov	r3, r0
 139 0096 002B     		cmp	r3, #0
 140 0098 01D1     		bne	.L8
 141              		.loc 1 113 0
 142 009a 0023     		movs	r3, #0
 143 009c 08E0     		b	.L9
 144              	.L8:
 145              		.loc 1 115 0
 146 009e 009B     		ldr	r3, [sp]
 147 00a0 1A78     		ldrb	r2, [r3]	@ zero_extendqisi2
 148 00a2 009B     		ldr	r3, [sp]
 149 00a4 1A70     		strb	r2, [r3]
 150              		.loc 1 116 0
 151 00a6 009B     		ldr	r3, [sp]
 152 00a8 1A78     		ldrb	r2, [r3]	@ zero_extendqisi2
 153 00aa 009B     		ldr	r3, [sp]
 154 00ac 1A70     		strb	r2, [r3]
 155              		.loc 1 118 0
 156 00ae 0123     		movs	r3, #1
 157              	.L9:
 158              		.loc 1 119 0
 159 00b0 1846     		mov	r0, r3
 160 00b2 03B0     		add	sp, sp, #12
 161              		@ sp needed
 162 00b4 5DF804FB 		ldr	pc, [sp], #4
 163              		.cfi_endproc
 164              	.LFE2:
 165              		.size	LSM303AGR_MAG_R_WHO_AM_I, .-LSM303AGR_MAG_R_WHO_AM_I
 166              		.align	2
 167 00b8 AFF30080 		.p2align 4,,15
 167      AFF30080 
 168              		.global	LSM303AGR_MAG_W_BDU
ARM GAS  /tmp/ccNUhamC.s 			page 4


 169              		.thumb
 170              		.thumb_func
 171              		.type	LSM303AGR_MAG_W_BDU, %function
 172              	LSM303AGR_MAG_W_BDU:
 173              	.LFB3:
 174              		.loc 1 129 0
 175              		.cfi_startproc
 176              		@ args = 0, pretend = 0, frame = 16
 177              		@ frame_needed = 0, uses_anonymous_args = 0
 178 00c0 00B5     		push	{lr}
 179              		.cfi_def_cfa_offset 4
 180              		.cfi_offset 14, -4
 181 00c2 85B0     		sub	sp, sp, #20
 182              		.cfi_def_cfa_offset 24
 183 00c4 0190     		str	r0, [sp, #4]
 184 00c6 0B46     		mov	r3, r1
 185 00c8 8DF80330 		strb	r3, [sp, #3]
 186              		.loc 1 132 0
 187 00cc 0DF10F03 		add	r3, sp, #15
 188 00d0 0198     		ldr	r0, [sp, #4]
 189 00d2 6221     		movs	r1, #98
 190 00d4 1A46     		mov	r2, r3
 191 00d6 0123     		movs	r3, #1
 192 00d8 FFF7FEFF 		bl	LSM303AGR_MAG_ReadReg
 193 00dc 0346     		mov	r3, r0
 194 00de 002B     		cmp	r3, #0
 195 00e0 01D1     		bne	.L11
 196              		.loc 1 133 0
 197 00e2 0023     		movs	r3, #0
 198 00e4 1CE0     		b	.L14
 199              	.L11:
 200              		.loc 1 135 0
 201 00e6 9DF80F30 		ldrb	r3, [sp, #15]	@ zero_extendqisi2
 202 00ea 23F01003 		bic	r3, r3, #16
 203 00ee DBB2     		uxtb	r3, r3
 204 00f0 8DF80F30 		strb	r3, [sp, #15]
 205              		.loc 1 136 0
 206 00f4 9DF80F20 		ldrb	r2, [sp, #15]	@ zero_extendqisi2
 207 00f8 9DF80330 		ldrb	r3, [sp, #3]
 208 00fc 1343     		orrs	r3, r3, r2
 209 00fe DBB2     		uxtb	r3, r3
 210 0100 8DF80F30 		strb	r3, [sp, #15]
 211              		.loc 1 138 0
 212 0104 0DF10F03 		add	r3, sp, #15
 213 0108 0198     		ldr	r0, [sp, #4]
 214 010a 6221     		movs	r1, #98
 215 010c 1A46     		mov	r2, r3
 216 010e 0123     		movs	r3, #1
 217 0110 FFF7FEFF 		bl	LSM303AGR_MAG_WriteReg
 218 0114 0346     		mov	r3, r0
 219 0116 002B     		cmp	r3, #0
 220 0118 01D1     		bne	.L13
 221              		.loc 1 139 0
 222 011a 0023     		movs	r3, #0
 223 011c 00E0     		b	.L14
 224              	.L13:
 225              		.loc 1 141 0
ARM GAS  /tmp/ccNUhamC.s 			page 5


 226 011e 0123     		movs	r3, #1
 227              	.L14:
 228              		.loc 1 142 0
 229 0120 1846     		mov	r0, r3
 230 0122 05B0     		add	sp, sp, #20
 231              		@ sp needed
 232 0124 5DF804FB 		ldr	pc, [sp], #4
 233              		.cfi_endproc
 234              	.LFE3:
 235              		.size	LSM303AGR_MAG_W_BDU, .-LSM303AGR_MAG_W_BDU
 236              		.align	2
 237 0128 AFF30080 		.p2align 4,,15
 237      AFF30080 
 238              		.global	LSM303AGR_MAG_R_BDU
 239              		.thumb
 240              		.thumb_func
 241              		.type	LSM303AGR_MAG_R_BDU, %function
 242              	LSM303AGR_MAG_R_BDU:
 243              	.LFB4:
 244              		.loc 1 152 0
 245              		.cfi_startproc
 246              		@ args = 0, pretend = 0, frame = 8
 247              		@ frame_needed = 0, uses_anonymous_args = 0
 248 0130 00B5     		push	{lr}
 249              		.cfi_def_cfa_offset 4
 250              		.cfi_offset 14, -4
 251 0132 83B0     		sub	sp, sp, #12
 252              		.cfi_def_cfa_offset 16
 253 0134 0190     		str	r0, [sp, #4]
 254 0136 0091     		str	r1, [sp]
 255              		.loc 1 153 0
 256 0138 0198     		ldr	r0, [sp, #4]
 257 013a 6221     		movs	r1, #98
 258 013c 009A     		ldr	r2, [sp]
 259 013e 0123     		movs	r3, #1
 260 0140 FFF7FEFF 		bl	LSM303AGR_MAG_ReadReg
 261 0144 0346     		mov	r3, r0
 262 0146 002B     		cmp	r3, #0
 263 0148 01D1     		bne	.L16
 264              		.loc 1 154 0
 265 014a 0023     		movs	r3, #0
 266 014c 07E0     		b	.L17
 267              	.L16:
 268              		.loc 1 156 0
 269 014e 009B     		ldr	r3, [sp]
 270 0150 1B78     		ldrb	r3, [r3]	@ zero_extendqisi2
 271 0152 03F01003 		and	r3, r3, #16
 272 0156 DAB2     		uxtb	r2, r3
 273 0158 009B     		ldr	r3, [sp]
 274 015a 1A70     		strb	r2, [r3]
 275              		.loc 1 158 0
 276 015c 0123     		movs	r3, #1
 277              	.L17:
 278              		.loc 1 159 0
 279 015e 1846     		mov	r0, r3
 280 0160 03B0     		add	sp, sp, #12
 281              		@ sp needed
ARM GAS  /tmp/ccNUhamC.s 			page 6


 282 0162 5DF804FB 		ldr	pc, [sp], #4
 283              		.cfi_endproc
 284              	.LFE4:
 285              		.size	LSM303AGR_MAG_R_BDU, .-LSM303AGR_MAG_R_BDU
 286 0166 00BF     		.align	2
 287 0168 AFF30080 		.p2align 4,,15
 287      AFF30080 
 288              		.global	LSM303AGR_MAG_W_MD
 289              		.thumb
 290              		.thumb_func
 291              		.type	LSM303AGR_MAG_W_MD, %function
 292              	LSM303AGR_MAG_W_MD:
 293              	.LFB5:
 294              		.loc 1 169 0
 295              		.cfi_startproc
 296              		@ args = 0, pretend = 0, frame = 16
 297              		@ frame_needed = 0, uses_anonymous_args = 0
 298 0170 00B5     		push	{lr}
 299              		.cfi_def_cfa_offset 4
 300              		.cfi_offset 14, -4
 301 0172 85B0     		sub	sp, sp, #20
 302              		.cfi_def_cfa_offset 24
 303 0174 0190     		str	r0, [sp, #4]
 304 0176 0B46     		mov	r3, r1
 305 0178 8DF80330 		strb	r3, [sp, #3]
 306              		.loc 1 172 0
 307 017c 0DF10F03 		add	r3, sp, #15
 308 0180 0198     		ldr	r0, [sp, #4]
 309 0182 6021     		movs	r1, #96
 310 0184 1A46     		mov	r2, r3
 311 0186 0123     		movs	r3, #1
 312 0188 FFF7FEFF 		bl	LSM303AGR_MAG_ReadReg
 313 018c 0346     		mov	r3, r0
 314 018e 002B     		cmp	r3, #0
 315 0190 01D1     		bne	.L19
 316              		.loc 1 173 0
 317 0192 0023     		movs	r3, #0
 318 0194 1CE0     		b	.L22
 319              	.L19:
 320              		.loc 1 175 0
 321 0196 9DF80F30 		ldrb	r3, [sp, #15]	@ zero_extendqisi2
 322 019a 23F00303 		bic	r3, r3, #3
 323 019e DBB2     		uxtb	r3, r3
 324 01a0 8DF80F30 		strb	r3, [sp, #15]
 325              		.loc 1 176 0
 326 01a4 9DF80F20 		ldrb	r2, [sp, #15]	@ zero_extendqisi2
 327 01a8 9DF80330 		ldrb	r3, [sp, #3]
 328 01ac 1343     		orrs	r3, r3, r2
 329 01ae DBB2     		uxtb	r3, r3
 330 01b0 8DF80F30 		strb	r3, [sp, #15]
 331              		.loc 1 178 0
 332 01b4 0DF10F03 		add	r3, sp, #15
 333 01b8 0198     		ldr	r0, [sp, #4]
 334 01ba 6021     		movs	r1, #96
 335 01bc 1A46     		mov	r2, r3
 336 01be 0123     		movs	r3, #1
 337 01c0 FFF7FEFF 		bl	LSM303AGR_MAG_WriteReg
ARM GAS  /tmp/ccNUhamC.s 			page 7


 338 01c4 0346     		mov	r3, r0
 339 01c6 002B     		cmp	r3, #0
 340 01c8 01D1     		bne	.L21
 341              		.loc 1 179 0
 342 01ca 0023     		movs	r3, #0
 343 01cc 00E0     		b	.L22
 344              	.L21:
 345              		.loc 1 181 0
 346 01ce 0123     		movs	r3, #1
 347              	.L22:
 348              		.loc 1 182 0
 349 01d0 1846     		mov	r0, r3
 350 01d2 05B0     		add	sp, sp, #20
 351              		@ sp needed
 352 01d4 5DF804FB 		ldr	pc, [sp], #4
 353              		.cfi_endproc
 354              	.LFE5:
 355              		.size	LSM303AGR_MAG_W_MD, .-LSM303AGR_MAG_W_MD
 356              		.align	2
 357 01d8 AFF30080 		.p2align 4,,15
 357      AFF30080 
 358              		.global	LSM303AGR_MAG_R_MD
 359              		.thumb
 360              		.thumb_func
 361              		.type	LSM303AGR_MAG_R_MD, %function
 362              	LSM303AGR_MAG_R_MD:
 363              	.LFB6:
 364              		.loc 1 192 0
 365              		.cfi_startproc
 366              		@ args = 0, pretend = 0, frame = 8
 367              		@ frame_needed = 0, uses_anonymous_args = 0
 368 01e0 00B5     		push	{lr}
 369              		.cfi_def_cfa_offset 4
 370              		.cfi_offset 14, -4
 371 01e2 83B0     		sub	sp, sp, #12
 372              		.cfi_def_cfa_offset 16
 373 01e4 0190     		str	r0, [sp, #4]
 374 01e6 0091     		str	r1, [sp]
 375              		.loc 1 193 0
 376 01e8 0198     		ldr	r0, [sp, #4]
 377 01ea 6021     		movs	r1, #96
 378 01ec 009A     		ldr	r2, [sp]
 379 01ee 0123     		movs	r3, #1
 380 01f0 FFF7FEFF 		bl	LSM303AGR_MAG_ReadReg
 381 01f4 0346     		mov	r3, r0
 382 01f6 002B     		cmp	r3, #0
 383 01f8 01D1     		bne	.L24
 384              		.loc 1 194 0
 385 01fa 0023     		movs	r3, #0
 386 01fc 07E0     		b	.L25
 387              	.L24:
 388              		.loc 1 196 0
 389 01fe 009B     		ldr	r3, [sp]
 390 0200 1B78     		ldrb	r3, [r3]	@ zero_extendqisi2
 391 0202 03F00303 		and	r3, r3, #3
 392 0206 DAB2     		uxtb	r2, r3
 393 0208 009B     		ldr	r3, [sp]
ARM GAS  /tmp/ccNUhamC.s 			page 8


 394 020a 1A70     		strb	r2, [r3]
 395              		.loc 1 198 0
 396 020c 0123     		movs	r3, #1
 397              	.L25:
 398              		.loc 1 199 0
 399 020e 1846     		mov	r0, r3
 400 0210 03B0     		add	sp, sp, #12
 401              		@ sp needed
 402 0212 5DF804FB 		ldr	pc, [sp], #4
 403              		.cfi_endproc
 404              	.LFE6:
 405              		.size	LSM303AGR_MAG_R_MD, .-LSM303AGR_MAG_R_MD
 406 0216 00BF     		.align	2
 407 0218 AFF30080 		.p2align 4,,15
 407      AFF30080 
 408              		.global	LSM303AGR_MAG_Get_Raw_Magnetic
 409              		.thumb
 410              		.thumb_func
 411              		.type	LSM303AGR_MAG_Get_Raw_Magnetic, %function
 412              	LSM303AGR_MAG_Get_Raw_Magnetic:
 413              	.LFB7:
 414              		.loc 1 209 0
 415              		.cfi_startproc
 416              		@ args = 0, pretend = 0, frame = 8
 417              		@ frame_needed = 0, uses_anonymous_args = 0
 418 0220 00B5     		push	{lr}
 419              		.cfi_def_cfa_offset 4
 420              		.cfi_offset 14, -4
 421 0222 83B0     		sub	sp, sp, #12
 422              		.cfi_def_cfa_offset 16
 423 0224 0190     		str	r0, [sp, #4]
 424 0226 0091     		str	r1, [sp]
 425              		.loc 1 210 0
 426 0228 0198     		ldr	r0, [sp, #4]
 427 022a 6821     		movs	r1, #104
 428 022c 009A     		ldr	r2, [sp]
 429 022e 0623     		movs	r3, #6
 430 0230 FFF7FEFF 		bl	LSM303AGR_MAG_ReadReg
 431 0234 0346     		mov	r3, r0
 432 0236 002B     		cmp	r3, #0
 433 0238 01D1     		bne	.L27
 434              		.loc 1 211 0
 435 023a 0023     		movs	r3, #0
 436 023c 00E0     		b	.L28
 437              	.L27:
 438              		.loc 1 213 0
 439 023e 0123     		movs	r3, #1
 440              	.L28:
 441              		.loc 1 214 0
 442 0240 1846     		mov	r0, r3
 443 0242 03B0     		add	sp, sp, #12
 444              		@ sp needed
 445 0244 5DF804FB 		ldr	pc, [sp], #4
 446              		.cfi_endproc
 447              	.LFE7:
 448              		.size	LSM303AGR_MAG_Get_Raw_Magnetic, .-LSM303AGR_MAG_Get_Raw_Magnetic
 449              		.align	2
ARM GAS  /tmp/ccNUhamC.s 			page 9


 450 0248 AFF30080 		.p2align 4,,15
 450      AFF30080 
 451              		.global	LSM303AGR_MAG_Get_Magnetic
 452              		.thumb
 453              		.thumb_func
 454              		.type	LSM303AGR_MAG_Get_Magnetic, %function
 455              	LSM303AGR_MAG_Get_Magnetic:
 456              	.LFB8:
 457              		.loc 1 225 0
 458              		.cfi_startproc
 459              		@ args = 0, pretend = 0, frame = 16
 460              		@ frame_needed = 0, uses_anonymous_args = 0
 461 0250 00B5     		push	{lr}
 462              		.cfi_def_cfa_offset 4
 463              		.cfi_offset 14, -4
 464 0252 85B0     		sub	sp, sp, #20
 465              		.cfi_def_cfa_offset 24
 466 0254 0190     		str	r0, [sp, #4]
 467 0256 0091     		str	r1, [sp]
 468              		.loc 1 229 0
 469 0258 02AB     		add	r3, sp, #8
 470 025a 0198     		ldr	r0, [sp, #4]
 471 025c 1946     		mov	r1, r3
 472 025e FFF7FEFF 		bl	LSM303AGR_MAG_Get_Raw_Magnetic
 473              		.loc 1 232 0
 474 0262 BDF80830 		ldrh	r3, [sp, #8]
 475 0266 1AB2     		sxth	r2, r3
 476 0268 1346     		mov	r3, r2
 477 026a 1B01     		lsls	r3, r3, #4
 478 026c 9B1A     		subs	r3, r3, r2
 479 026e 164A     		ldr	r2, .L31
 480 0270 82FB0302 		smull	r0, r2, r2, r3
 481 0274 9210     		asrs	r2, r2, #2
 482 0276 DB17     		asrs	r3, r3, #31
 483 0278 D21A     		subs	r2, r2, r3
 484 027a 009B     		ldr	r3, [sp]
 485 027c 1A60     		str	r2, [r3]
 486              		.loc 1 233 0
 487 027e 009B     		ldr	r3, [sp]
 488 0280 191D     		adds	r1, r3, #4
 489 0282 BDF80A30 		ldrh	r3, [sp, #10]
 490 0286 1AB2     		sxth	r2, r3
 491 0288 1346     		mov	r3, r2
 492 028a 1B01     		lsls	r3, r3, #4
 493 028c 9B1A     		subs	r3, r3, r2
 494 028e 0E4A     		ldr	r2, .L31
 495 0290 82FB0302 		smull	r0, r2, r2, r3
 496 0294 9210     		asrs	r2, r2, #2
 497 0296 DB17     		asrs	r3, r3, #31
 498 0298 D31A     		subs	r3, r2, r3
 499 029a 0B60     		str	r3, [r1]
 500              		.loc 1 234 0
 501 029c 009B     		ldr	r3, [sp]
 502 029e 03F10801 		add	r1, r3, #8
 503 02a2 BDF80C30 		ldrh	r3, [sp, #12]
 504 02a6 1AB2     		sxth	r2, r3
 505 02a8 1346     		mov	r3, r2
ARM GAS  /tmp/ccNUhamC.s 			page 10


 506 02aa 1B01     		lsls	r3, r3, #4
 507 02ac 9B1A     		subs	r3, r3, r2
 508 02ae 064A     		ldr	r2, .L31
 509 02b0 82FB0302 		smull	r0, r2, r2, r3
 510 02b4 9210     		asrs	r2, r2, #2
 511 02b6 DB17     		asrs	r3, r3, #31
 512 02b8 D31A     		subs	r3, r2, r3
 513 02ba 0B60     		str	r3, [r1]
 514              		.loc 1 236 0
 515 02bc 0123     		movs	r3, #1
 516              		.loc 1 237 0
 517 02be 1846     		mov	r0, r3
 518 02c0 05B0     		add	sp, sp, #20
 519              		@ sp needed
 520 02c2 5DF804FB 		ldr	pc, [sp], #4
 521              	.L32:
 522 02c6 00BF     		.align	2
 523              	.L31:
 524 02c8 67666666 		.word	1717986919
 525              		.cfi_endproc
 526              	.LFE8:
 527              		.size	LSM303AGR_MAG_Get_Magnetic, .-LSM303AGR_MAG_Get_Magnetic
 528              		.align	2
 529 02cc AFF30080 		.p2align 4,,15
 530              		.global	LSM303AGR_MAG_W_ODR
 531              		.thumb
 532              		.thumb_func
 533              		.type	LSM303AGR_MAG_W_ODR, %function
 534              	LSM303AGR_MAG_W_ODR:
 535              	.LFB9:
 536              		.loc 1 247 0
 537              		.cfi_startproc
 538              		@ args = 0, pretend = 0, frame = 16
 539              		@ frame_needed = 0, uses_anonymous_args = 0
 540 02d0 00B5     		push	{lr}
 541              		.cfi_def_cfa_offset 4
 542              		.cfi_offset 14, -4
 543 02d2 85B0     		sub	sp, sp, #20
 544              		.cfi_def_cfa_offset 24
 545 02d4 0190     		str	r0, [sp, #4]
 546 02d6 0B46     		mov	r3, r1
 547 02d8 8DF80330 		strb	r3, [sp, #3]
 548              		.loc 1 250 0
 549 02dc 0DF10F03 		add	r3, sp, #15
 550 02e0 0198     		ldr	r0, [sp, #4]
 551 02e2 6021     		movs	r1, #96
 552 02e4 1A46     		mov	r2, r3
 553 02e6 0123     		movs	r3, #1
 554 02e8 FFF7FEFF 		bl	LSM303AGR_MAG_ReadReg
 555 02ec 0346     		mov	r3, r0
 556 02ee 002B     		cmp	r3, #0
 557 02f0 01D1     		bne	.L34
 558              		.loc 1 251 0
 559 02f2 0023     		movs	r3, #0
 560 02f4 1CE0     		b	.L37
 561              	.L34:
 562              		.loc 1 253 0
ARM GAS  /tmp/ccNUhamC.s 			page 11


 563 02f6 9DF80F30 		ldrb	r3, [sp, #15]	@ zero_extendqisi2
 564 02fa 23F00C03 		bic	r3, r3, #12
 565 02fe DBB2     		uxtb	r3, r3
 566 0300 8DF80F30 		strb	r3, [sp, #15]
 567              		.loc 1 254 0
 568 0304 9DF80F20 		ldrb	r2, [sp, #15]	@ zero_extendqisi2
 569 0308 9DF80330 		ldrb	r3, [sp, #3]
 570 030c 1343     		orrs	r3, r3, r2
 571 030e DBB2     		uxtb	r3, r3
 572 0310 8DF80F30 		strb	r3, [sp, #15]
 573              		.loc 1 256 0
 574 0314 0DF10F03 		add	r3, sp, #15
 575 0318 0198     		ldr	r0, [sp, #4]
 576 031a 6021     		movs	r1, #96
 577 031c 1A46     		mov	r2, r3
 578 031e 0123     		movs	r3, #1
 579 0320 FFF7FEFF 		bl	LSM303AGR_MAG_WriteReg
 580 0324 0346     		mov	r3, r0
 581 0326 002B     		cmp	r3, #0
 582 0328 01D1     		bne	.L36
 583              		.loc 1 257 0
 584 032a 0023     		movs	r3, #0
 585 032c 00E0     		b	.L37
 586              	.L36:
 587              		.loc 1 259 0
 588 032e 0123     		movs	r3, #1
 589              	.L37:
 590              		.loc 1 260 0
 591 0330 1846     		mov	r0, r3
 592 0332 05B0     		add	sp, sp, #20
 593              		@ sp needed
 594 0334 5DF804FB 		ldr	pc, [sp], #4
 595              		.cfi_endproc
 596              	.LFE9:
 597              		.size	LSM303AGR_MAG_W_ODR, .-LSM303AGR_MAG_W_ODR
 598              		.align	2
 599 0338 AFF30080 		.p2align 4,,15
 599      AFF30080 
 600              		.global	LSM303AGR_MAG_R_ODR
 601              		.thumb
 602              		.thumb_func
 603              		.type	LSM303AGR_MAG_R_ODR, %function
 604              	LSM303AGR_MAG_R_ODR:
 605              	.LFB10:
 606              		.loc 1 270 0
 607              		.cfi_startproc
 608              		@ args = 0, pretend = 0, frame = 8
 609              		@ frame_needed = 0, uses_anonymous_args = 0
 610 0340 00B5     		push	{lr}
 611              		.cfi_def_cfa_offset 4
 612              		.cfi_offset 14, -4
 613 0342 83B0     		sub	sp, sp, #12
 614              		.cfi_def_cfa_offset 16
 615 0344 0190     		str	r0, [sp, #4]
 616 0346 0091     		str	r1, [sp]
 617              		.loc 1 271 0
 618 0348 0198     		ldr	r0, [sp, #4]
ARM GAS  /tmp/ccNUhamC.s 			page 12


 619 034a 6021     		movs	r1, #96
 620 034c 009A     		ldr	r2, [sp]
 621 034e 0123     		movs	r3, #1
 622 0350 FFF7FEFF 		bl	LSM303AGR_MAG_ReadReg
 623 0354 0346     		mov	r3, r0
 624 0356 002B     		cmp	r3, #0
 625 0358 01D1     		bne	.L39
 626              		.loc 1 272 0
 627 035a 0023     		movs	r3, #0
 628 035c 07E0     		b	.L40
 629              	.L39:
 630              		.loc 1 274 0
 631 035e 009B     		ldr	r3, [sp]
 632 0360 1B78     		ldrb	r3, [r3]	@ zero_extendqisi2
 633 0362 03F00C03 		and	r3, r3, #12
 634 0366 DAB2     		uxtb	r2, r3
 635 0368 009B     		ldr	r3, [sp]
 636 036a 1A70     		strb	r2, [r3]
 637              		.loc 1 276 0
 638 036c 0123     		movs	r3, #1
 639              	.L40:
 640              		.loc 1 277 0
 641 036e 1846     		mov	r0, r3
 642 0370 03B0     		add	sp, sp, #12
 643              		@ sp needed
 644 0372 5DF804FB 		ldr	pc, [sp], #4
 645              		.cfi_endproc
 646              	.LFE10:
 647              		.size	LSM303AGR_MAG_R_ODR, .-LSM303AGR_MAG_R_ODR
 648 0376 00BF     		.align	2
 649 0378 AFF30080 		.p2align 4,,15
 649      AFF30080 
 650              		.global	LSM303AGR_MAG_W_OFF_X_L
 651              		.thumb
 652              		.thumb_func
 653              		.type	LSM303AGR_MAG_W_OFF_X_L, %function
 654              	LSM303AGR_MAG_W_OFF_X_L:
 655              	.LFB11:
 656              		.loc 1 289 0
 657              		.cfi_startproc
 658              		@ args = 0, pretend = 0, frame = 16
 659              		@ frame_needed = 0, uses_anonymous_args = 0
 660 0380 00B5     		push	{lr}
 661              		.cfi_def_cfa_offset 4
 662              		.cfi_offset 14, -4
 663 0382 85B0     		sub	sp, sp, #20
 664              		.cfi_def_cfa_offset 24
 665 0384 0190     		str	r0, [sp, #4]
 666 0386 0B46     		mov	r3, r1
 667 0388 8DF80330 		strb	r3, [sp, #3]
 668              		.loc 1 295 0
 669 038c 0DF10F03 		add	r3, sp, #15
 670 0390 0198     		ldr	r0, [sp, #4]
 671 0392 4521     		movs	r1, #69
 672 0394 1A46     		mov	r2, r3
 673 0396 0123     		movs	r3, #1
 674 0398 FFF7FEFF 		bl	LSM303AGR_MAG_ReadReg
ARM GAS  /tmp/ccNUhamC.s 			page 13


 675 039c 0346     		mov	r3, r0
 676 039e 002B     		cmp	r3, #0
 677 03a0 01D1     		bne	.L42
 678              		.loc 1 296 0
 679 03a2 0023     		movs	r3, #0
 680 03a4 18E0     		b	.L45
 681              	.L42:
 682              		.loc 1 298 0
 683 03a6 0023     		movs	r3, #0
 684 03a8 8DF80F30 		strb	r3, [sp, #15]
 685              		.loc 1 299 0
 686 03ac 9DF80F20 		ldrb	r2, [sp, #15]	@ zero_extendqisi2
 687 03b0 9DF80330 		ldrb	r3, [sp, #3]
 688 03b4 1343     		orrs	r3, r3, r2
 689 03b6 DBB2     		uxtb	r3, r3
 690 03b8 8DF80F30 		strb	r3, [sp, #15]
 691              		.loc 1 301 0
 692 03bc 0DF10F03 		add	r3, sp, #15
 693 03c0 0198     		ldr	r0, [sp, #4]
 694 03c2 4521     		movs	r1, #69
 695 03c4 1A46     		mov	r2, r3
 696 03c6 0123     		movs	r3, #1
 697 03c8 FFF7FEFF 		bl	LSM303AGR_MAG_WriteReg
 698 03cc 0346     		mov	r3, r0
 699 03ce 002B     		cmp	r3, #0
 700 03d0 01D1     		bne	.L44
 701              		.loc 1 302 0
 702 03d2 0023     		movs	r3, #0
 703 03d4 00E0     		b	.L45
 704              	.L44:
 705              		.loc 1 304 0
 706 03d6 0123     		movs	r3, #1
 707              	.L45:
 708              		.loc 1 305 0
 709 03d8 1846     		mov	r0, r3
 710 03da 05B0     		add	sp, sp, #20
 711              		@ sp needed
 712 03dc 5DF804FB 		ldr	pc, [sp], #4
 713              		.cfi_endproc
 714              	.LFE11:
 715              		.size	LSM303AGR_MAG_W_OFF_X_L, .-LSM303AGR_MAG_W_OFF_X_L
 716              		.align	2
 717              		.p2align 4,,15
 718              		.global	LSM303AGR_MAG_R_OFF_X_L
 719              		.thumb
 720              		.thumb_func
 721              		.type	LSM303AGR_MAG_R_OFF_X_L, %function
 722              	LSM303AGR_MAG_R_OFF_X_L:
 723              	.LFB12:
 724              		.loc 1 315 0
 725              		.cfi_startproc
 726              		@ args = 0, pretend = 0, frame = 8
 727              		@ frame_needed = 0, uses_anonymous_args = 0
 728 03e0 00B5     		push	{lr}
 729              		.cfi_def_cfa_offset 4
 730              		.cfi_offset 14, -4
 731 03e2 83B0     		sub	sp, sp, #12
ARM GAS  /tmp/ccNUhamC.s 			page 14


 732              		.cfi_def_cfa_offset 16
 733 03e4 0190     		str	r0, [sp, #4]
 734 03e6 0091     		str	r1, [sp]
 735              		.loc 1 316 0
 736 03e8 0198     		ldr	r0, [sp, #4]
 737 03ea 4521     		movs	r1, #69
 738 03ec 009A     		ldr	r2, [sp]
 739 03ee 0123     		movs	r3, #1
 740 03f0 FFF7FEFF 		bl	LSM303AGR_MAG_ReadReg
 741 03f4 0346     		mov	r3, r0
 742 03f6 002B     		cmp	r3, #0
 743 03f8 01D1     		bne	.L47
 744              		.loc 1 317 0
 745 03fa 0023     		movs	r3, #0
 746 03fc 08E0     		b	.L48
 747              	.L47:
 748              		.loc 1 319 0
 749 03fe 009B     		ldr	r3, [sp]
 750 0400 1A78     		ldrb	r2, [r3]	@ zero_extendqisi2
 751 0402 009B     		ldr	r3, [sp]
 752 0404 1A70     		strb	r2, [r3]
 753              		.loc 1 320 0
 754 0406 009B     		ldr	r3, [sp]
 755 0408 1A78     		ldrb	r2, [r3]	@ zero_extendqisi2
 756 040a 009B     		ldr	r3, [sp]
 757 040c 1A70     		strb	r2, [r3]
 758              		.loc 1 322 0
 759 040e 0123     		movs	r3, #1
 760              	.L48:
 761              		.loc 1 323 0
 762 0410 1846     		mov	r0, r3
 763 0412 03B0     		add	sp, sp, #12
 764              		@ sp needed
 765 0414 5DF804FB 		ldr	pc, [sp], #4
 766              		.cfi_endproc
 767              	.LFE12:
 768              		.size	LSM303AGR_MAG_R_OFF_X_L, .-LSM303AGR_MAG_R_OFF_X_L
 769              		.align	2
 770 0418 AFF30080 		.p2align 4,,15
 770      AFF30080 
 771              		.global	LSM303AGR_MAG_W_OFF_X_H
 772              		.thumb
 773              		.thumb_func
 774              		.type	LSM303AGR_MAG_W_OFF_X_H, %function
 775              	LSM303AGR_MAG_W_OFF_X_H:
 776              	.LFB13:
 777              		.loc 1 333 0
 778              		.cfi_startproc
 779              		@ args = 0, pretend = 0, frame = 16
 780              		@ frame_needed = 0, uses_anonymous_args = 0
 781 0420 00B5     		push	{lr}
 782              		.cfi_def_cfa_offset 4
 783              		.cfi_offset 14, -4
 784 0422 85B0     		sub	sp, sp, #20
 785              		.cfi_def_cfa_offset 24
 786 0424 0190     		str	r0, [sp, #4]
 787 0426 0B46     		mov	r3, r1
ARM GAS  /tmp/ccNUhamC.s 			page 15


 788 0428 8DF80330 		strb	r3, [sp, #3]
 789              		.loc 1 339 0
 790 042c 0DF10F03 		add	r3, sp, #15
 791 0430 0198     		ldr	r0, [sp, #4]
 792 0432 4621     		movs	r1, #70
 793 0434 1A46     		mov	r2, r3
 794 0436 0123     		movs	r3, #1
 795 0438 FFF7FEFF 		bl	LSM303AGR_MAG_ReadReg
 796 043c 0346     		mov	r3, r0
 797 043e 002B     		cmp	r3, #0
 798 0440 01D1     		bne	.L50
 799              		.loc 1 340 0
 800 0442 0023     		movs	r3, #0
 801 0444 18E0     		b	.L53
 802              	.L50:
 803              		.loc 1 342 0
 804 0446 0023     		movs	r3, #0
 805 0448 8DF80F30 		strb	r3, [sp, #15]
 806              		.loc 1 343 0
 807 044c 9DF80F20 		ldrb	r2, [sp, #15]	@ zero_extendqisi2
 808 0450 9DF80330 		ldrb	r3, [sp, #3]
 809 0454 1343     		orrs	r3, r3, r2
 810 0456 DBB2     		uxtb	r3, r3
 811 0458 8DF80F30 		strb	r3, [sp, #15]
 812              		.loc 1 345 0
 813 045c 0DF10F03 		add	r3, sp, #15
 814 0460 0198     		ldr	r0, [sp, #4]
 815 0462 4621     		movs	r1, #70
 816 0464 1A46     		mov	r2, r3
 817 0466 0123     		movs	r3, #1
 818 0468 FFF7FEFF 		bl	LSM303AGR_MAG_WriteReg
 819 046c 0346     		mov	r3, r0
 820 046e 002B     		cmp	r3, #0
 821 0470 01D1     		bne	.L52
 822              		.loc 1 346 0
 823 0472 0023     		movs	r3, #0
 824 0474 00E0     		b	.L53
 825              	.L52:
 826              		.loc 1 348 0
 827 0476 0123     		movs	r3, #1
 828              	.L53:
 829              		.loc 1 349 0
 830 0478 1846     		mov	r0, r3
 831 047a 05B0     		add	sp, sp, #20
 832              		@ sp needed
 833 047c 5DF804FB 		ldr	pc, [sp], #4
 834              		.cfi_endproc
 835              	.LFE13:
 836              		.size	LSM303AGR_MAG_W_OFF_X_H, .-LSM303AGR_MAG_W_OFF_X_H
 837              		.align	2
 838              		.p2align 4,,15
 839              		.global	LSM303AGR_MAG_R_OFF_X_H
 840              		.thumb
 841              		.thumb_func
 842              		.type	LSM303AGR_MAG_R_OFF_X_H, %function
 843              	LSM303AGR_MAG_R_OFF_X_H:
 844              	.LFB14:
ARM GAS  /tmp/ccNUhamC.s 			page 16


 845              		.loc 1 359 0
 846              		.cfi_startproc
 847              		@ args = 0, pretend = 0, frame = 8
 848              		@ frame_needed = 0, uses_anonymous_args = 0
 849 0480 00B5     		push	{lr}
 850              		.cfi_def_cfa_offset 4
 851              		.cfi_offset 14, -4
 852 0482 83B0     		sub	sp, sp, #12
 853              		.cfi_def_cfa_offset 16
 854 0484 0190     		str	r0, [sp, #4]
 855 0486 0091     		str	r1, [sp]
 856              		.loc 1 360 0
 857 0488 0198     		ldr	r0, [sp, #4]
 858 048a 4621     		movs	r1, #70
 859 048c 009A     		ldr	r2, [sp]
 860 048e 0123     		movs	r3, #1
 861 0490 FFF7FEFF 		bl	LSM303AGR_MAG_ReadReg
 862 0494 0346     		mov	r3, r0
 863 0496 002B     		cmp	r3, #0
 864 0498 01D1     		bne	.L55
 865              		.loc 1 361 0
 866 049a 0023     		movs	r3, #0
 867 049c 08E0     		b	.L56
 868              	.L55:
 869              		.loc 1 363 0
 870 049e 009B     		ldr	r3, [sp]
 871 04a0 1A78     		ldrb	r2, [r3]	@ zero_extendqisi2
 872 04a2 009B     		ldr	r3, [sp]
 873 04a4 1A70     		strb	r2, [r3]
 874              		.loc 1 364 0
 875 04a6 009B     		ldr	r3, [sp]
 876 04a8 1A78     		ldrb	r2, [r3]	@ zero_extendqisi2
 877 04aa 009B     		ldr	r3, [sp]
 878 04ac 1A70     		strb	r2, [r3]
 879              		.loc 1 366 0
 880 04ae 0123     		movs	r3, #1
 881              	.L56:
 882              		.loc 1 367 0
 883 04b0 1846     		mov	r0, r3
 884 04b2 03B0     		add	sp, sp, #12
 885              		@ sp needed
 886 04b4 5DF804FB 		ldr	pc, [sp], #4
 887              		.cfi_endproc
 888              	.LFE14:
 889              		.size	LSM303AGR_MAG_R_OFF_X_H, .-LSM303AGR_MAG_R_OFF_X_H
 890              		.align	2
 891 04b8 AFF30080 		.p2align 4,,15
 891      AFF30080 
 892              		.global	LSM303AGR_MAG_W_OFF_Y_L
 893              		.thumb
 894              		.thumb_func
 895              		.type	LSM303AGR_MAG_W_OFF_Y_L, %function
 896              	LSM303AGR_MAG_W_OFF_Y_L:
 897              	.LFB15:
 898              		.loc 1 377 0
 899              		.cfi_startproc
 900              		@ args = 0, pretend = 0, frame = 16
ARM GAS  /tmp/ccNUhamC.s 			page 17


 901              		@ frame_needed = 0, uses_anonymous_args = 0
 902 04c0 00B5     		push	{lr}
 903              		.cfi_def_cfa_offset 4
 904              		.cfi_offset 14, -4
 905 04c2 85B0     		sub	sp, sp, #20
 906              		.cfi_def_cfa_offset 24
 907 04c4 0190     		str	r0, [sp, #4]
 908 04c6 0B46     		mov	r3, r1
 909 04c8 8DF80330 		strb	r3, [sp, #3]
 910              		.loc 1 383 0
 911 04cc 0DF10F03 		add	r3, sp, #15
 912 04d0 0198     		ldr	r0, [sp, #4]
 913 04d2 4721     		movs	r1, #71
 914 04d4 1A46     		mov	r2, r3
 915 04d6 0123     		movs	r3, #1
 916 04d8 FFF7FEFF 		bl	LSM303AGR_MAG_ReadReg
 917 04dc 0346     		mov	r3, r0
 918 04de 002B     		cmp	r3, #0
 919 04e0 01D1     		bne	.L58
 920              		.loc 1 384 0
 921 04e2 0023     		movs	r3, #0
 922 04e4 18E0     		b	.L61
 923              	.L58:
 924              		.loc 1 386 0
 925 04e6 0023     		movs	r3, #0
 926 04e8 8DF80F30 		strb	r3, [sp, #15]
 927              		.loc 1 387 0
 928 04ec 9DF80F20 		ldrb	r2, [sp, #15]	@ zero_extendqisi2
 929 04f0 9DF80330 		ldrb	r3, [sp, #3]
 930 04f4 1343     		orrs	r3, r3, r2
 931 04f6 DBB2     		uxtb	r3, r3
 932 04f8 8DF80F30 		strb	r3, [sp, #15]
 933              		.loc 1 389 0
 934 04fc 0DF10F03 		add	r3, sp, #15
 935 0500 0198     		ldr	r0, [sp, #4]
 936 0502 4721     		movs	r1, #71
 937 0504 1A46     		mov	r2, r3
 938 0506 0123     		movs	r3, #1
 939 0508 FFF7FEFF 		bl	LSM303AGR_MAG_WriteReg
 940 050c 0346     		mov	r3, r0
 941 050e 002B     		cmp	r3, #0
 942 0510 01D1     		bne	.L60
 943              		.loc 1 390 0
 944 0512 0023     		movs	r3, #0
 945 0514 00E0     		b	.L61
 946              	.L60:
 947              		.loc 1 392 0
 948 0516 0123     		movs	r3, #1
 949              	.L61:
 950              		.loc 1 393 0
 951 0518 1846     		mov	r0, r3
 952 051a 05B0     		add	sp, sp, #20
 953              		@ sp needed
 954 051c 5DF804FB 		ldr	pc, [sp], #4
 955              		.cfi_endproc
 956              	.LFE15:
 957              		.size	LSM303AGR_MAG_W_OFF_Y_L, .-LSM303AGR_MAG_W_OFF_Y_L
ARM GAS  /tmp/ccNUhamC.s 			page 18


 958              		.align	2
 959              		.p2align 4,,15
 960              		.global	LSM303AGR_MAG_R_OFF_Y_L
 961              		.thumb
 962              		.thumb_func
 963              		.type	LSM303AGR_MAG_R_OFF_Y_L, %function
 964              	LSM303AGR_MAG_R_OFF_Y_L:
 965              	.LFB16:
 966              		.loc 1 403 0
 967              		.cfi_startproc
 968              		@ args = 0, pretend = 0, frame = 8
 969              		@ frame_needed = 0, uses_anonymous_args = 0
 970 0520 00B5     		push	{lr}
 971              		.cfi_def_cfa_offset 4
 972              		.cfi_offset 14, -4
 973 0522 83B0     		sub	sp, sp, #12
 974              		.cfi_def_cfa_offset 16
 975 0524 0190     		str	r0, [sp, #4]
 976 0526 0091     		str	r1, [sp]
 977              		.loc 1 404 0
 978 0528 0198     		ldr	r0, [sp, #4]
 979 052a 4721     		movs	r1, #71
 980 052c 009A     		ldr	r2, [sp]
 981 052e 0123     		movs	r3, #1
 982 0530 FFF7FEFF 		bl	LSM303AGR_MAG_ReadReg
 983 0534 0346     		mov	r3, r0
 984 0536 002B     		cmp	r3, #0
 985 0538 01D1     		bne	.L63
 986              		.loc 1 405 0
 987 053a 0023     		movs	r3, #0
 988 053c 08E0     		b	.L64
 989              	.L63:
 990              		.loc 1 407 0
 991 053e 009B     		ldr	r3, [sp]
 992 0540 1A78     		ldrb	r2, [r3]	@ zero_extendqisi2
 993 0542 009B     		ldr	r3, [sp]
 994 0544 1A70     		strb	r2, [r3]
 995              		.loc 1 408 0
 996 0546 009B     		ldr	r3, [sp]
 997 0548 1A78     		ldrb	r2, [r3]	@ zero_extendqisi2
 998 054a 009B     		ldr	r3, [sp]
 999 054c 1A70     		strb	r2, [r3]
 1000              		.loc 1 410 0
 1001 054e 0123     		movs	r3, #1
 1002              	.L64:
 1003              		.loc 1 411 0
 1004 0550 1846     		mov	r0, r3
 1005 0552 03B0     		add	sp, sp, #12
 1006              		@ sp needed
 1007 0554 5DF804FB 		ldr	pc, [sp], #4
 1008              		.cfi_endproc
 1009              	.LFE16:
 1010              		.size	LSM303AGR_MAG_R_OFF_Y_L, .-LSM303AGR_MAG_R_OFF_Y_L
 1011              		.align	2
 1012 0558 AFF30080 		.p2align 4,,15
 1012      AFF30080 
 1013              		.global	LSM303AGR_MAG_W_OFF_Y_H
ARM GAS  /tmp/ccNUhamC.s 			page 19


 1014              		.thumb
 1015              		.thumb_func
 1016              		.type	LSM303AGR_MAG_W_OFF_Y_H, %function
 1017              	LSM303AGR_MAG_W_OFF_Y_H:
 1018              	.LFB17:
 1019              		.loc 1 421 0
 1020              		.cfi_startproc
 1021              		@ args = 0, pretend = 0, frame = 16
 1022              		@ frame_needed = 0, uses_anonymous_args = 0
 1023 0560 00B5     		push	{lr}
 1024              		.cfi_def_cfa_offset 4
 1025              		.cfi_offset 14, -4
 1026 0562 85B0     		sub	sp, sp, #20
 1027              		.cfi_def_cfa_offset 24
 1028 0564 0190     		str	r0, [sp, #4]
 1029 0566 0B46     		mov	r3, r1
 1030 0568 8DF80330 		strb	r3, [sp, #3]
 1031              		.loc 1 427 0
 1032 056c 0DF10F03 		add	r3, sp, #15
 1033 0570 0198     		ldr	r0, [sp, #4]
 1034 0572 4821     		movs	r1, #72
 1035 0574 1A46     		mov	r2, r3
 1036 0576 0123     		movs	r3, #1
 1037 0578 FFF7FEFF 		bl	LSM303AGR_MAG_ReadReg
 1038 057c 0346     		mov	r3, r0
 1039 057e 002B     		cmp	r3, #0
 1040 0580 01D1     		bne	.L66
 1041              		.loc 1 428 0
 1042 0582 0023     		movs	r3, #0
 1043 0584 18E0     		b	.L69
 1044              	.L66:
 1045              		.loc 1 430 0
 1046 0586 0023     		movs	r3, #0
 1047 0588 8DF80F30 		strb	r3, [sp, #15]
 1048              		.loc 1 431 0
 1049 058c 9DF80F20 		ldrb	r2, [sp, #15]	@ zero_extendqisi2
 1050 0590 9DF80330 		ldrb	r3, [sp, #3]
 1051 0594 1343     		orrs	r3, r3, r2
 1052 0596 DBB2     		uxtb	r3, r3
 1053 0598 8DF80F30 		strb	r3, [sp, #15]
 1054              		.loc 1 433 0
 1055 059c 0DF10F03 		add	r3, sp, #15
 1056 05a0 0198     		ldr	r0, [sp, #4]
 1057 05a2 4821     		movs	r1, #72
 1058 05a4 1A46     		mov	r2, r3
 1059 05a6 0123     		movs	r3, #1
 1060 05a8 FFF7FEFF 		bl	LSM303AGR_MAG_WriteReg
 1061 05ac 0346     		mov	r3, r0
 1062 05ae 002B     		cmp	r3, #0
 1063 05b0 01D1     		bne	.L68
 1064              		.loc 1 434 0
 1065 05b2 0023     		movs	r3, #0
 1066 05b4 00E0     		b	.L69
 1067              	.L68:
 1068              		.loc 1 436 0
 1069 05b6 0123     		movs	r3, #1
 1070              	.L69:
ARM GAS  /tmp/ccNUhamC.s 			page 20


 1071              		.loc 1 437 0
 1072 05b8 1846     		mov	r0, r3
 1073 05ba 05B0     		add	sp, sp, #20
 1074              		@ sp needed
 1075 05bc 5DF804FB 		ldr	pc, [sp], #4
 1076              		.cfi_endproc
 1077              	.LFE17:
 1078              		.size	LSM303AGR_MAG_W_OFF_Y_H, .-LSM303AGR_MAG_W_OFF_Y_H
 1079              		.align	2
 1080              		.p2align 4,,15
 1081              		.global	LSM303AGR_MAG_R_OFF_Y_H
 1082              		.thumb
 1083              		.thumb_func
 1084              		.type	LSM303AGR_MAG_R_OFF_Y_H, %function
 1085              	LSM303AGR_MAG_R_OFF_Y_H:
 1086              	.LFB18:
 1087              		.loc 1 447 0
 1088              		.cfi_startproc
 1089              		@ args = 0, pretend = 0, frame = 8
 1090              		@ frame_needed = 0, uses_anonymous_args = 0
 1091 05c0 00B5     		push	{lr}
 1092              		.cfi_def_cfa_offset 4
 1093              		.cfi_offset 14, -4
 1094 05c2 83B0     		sub	sp, sp, #12
 1095              		.cfi_def_cfa_offset 16
 1096 05c4 0190     		str	r0, [sp, #4]
 1097 05c6 0091     		str	r1, [sp]
 1098              		.loc 1 448 0
 1099 05c8 0198     		ldr	r0, [sp, #4]
 1100 05ca 4821     		movs	r1, #72
 1101 05cc 009A     		ldr	r2, [sp]
 1102 05ce 0123     		movs	r3, #1
 1103 05d0 FFF7FEFF 		bl	LSM303AGR_MAG_ReadReg
 1104 05d4 0346     		mov	r3, r0
 1105 05d6 002B     		cmp	r3, #0
 1106 05d8 01D1     		bne	.L71
 1107              		.loc 1 449 0
 1108 05da 0023     		movs	r3, #0
 1109 05dc 08E0     		b	.L72
 1110              	.L71:
 1111              		.loc 1 451 0
 1112 05de 009B     		ldr	r3, [sp]
 1113 05e0 1A78     		ldrb	r2, [r3]	@ zero_extendqisi2
 1114 05e2 009B     		ldr	r3, [sp]
 1115 05e4 1A70     		strb	r2, [r3]
 1116              		.loc 1 452 0
 1117 05e6 009B     		ldr	r3, [sp]
 1118 05e8 1A78     		ldrb	r2, [r3]	@ zero_extendqisi2
 1119 05ea 009B     		ldr	r3, [sp]
 1120 05ec 1A70     		strb	r2, [r3]
 1121              		.loc 1 454 0
 1122 05ee 0123     		movs	r3, #1
 1123              	.L72:
 1124              		.loc 1 455 0
 1125 05f0 1846     		mov	r0, r3
 1126 05f2 03B0     		add	sp, sp, #12
 1127              		@ sp needed
ARM GAS  /tmp/ccNUhamC.s 			page 21


 1128 05f4 5DF804FB 		ldr	pc, [sp], #4
 1129              		.cfi_endproc
 1130              	.LFE18:
 1131              		.size	LSM303AGR_MAG_R_OFF_Y_H, .-LSM303AGR_MAG_R_OFF_Y_H
 1132              		.align	2
 1133 05f8 AFF30080 		.p2align 4,,15
 1133      AFF30080 
 1134              		.global	LSM303AGR_MAG_W_OFF_Z_L
 1135              		.thumb
 1136              		.thumb_func
 1137              		.type	LSM303AGR_MAG_W_OFF_Z_L, %function
 1138              	LSM303AGR_MAG_W_OFF_Z_L:
 1139              	.LFB19:
 1140              		.loc 1 465 0
 1141              		.cfi_startproc
 1142              		@ args = 0, pretend = 0, frame = 16
 1143              		@ frame_needed = 0, uses_anonymous_args = 0
 1144 0600 00B5     		push	{lr}
 1145              		.cfi_def_cfa_offset 4
 1146              		.cfi_offset 14, -4
 1147 0602 85B0     		sub	sp, sp, #20
 1148              		.cfi_def_cfa_offset 24
 1149 0604 0190     		str	r0, [sp, #4]
 1150 0606 0B46     		mov	r3, r1
 1151 0608 8DF80330 		strb	r3, [sp, #3]
 1152              		.loc 1 471 0
 1153 060c 0DF10F03 		add	r3, sp, #15
 1154 0610 0198     		ldr	r0, [sp, #4]
 1155 0612 4921     		movs	r1, #73
 1156 0614 1A46     		mov	r2, r3
 1157 0616 0123     		movs	r3, #1
 1158 0618 FFF7FEFF 		bl	LSM303AGR_MAG_ReadReg
 1159 061c 0346     		mov	r3, r0
 1160 061e 002B     		cmp	r3, #0
 1161 0620 01D1     		bne	.L74
 1162              		.loc 1 472 0
 1163 0622 0023     		movs	r3, #0
 1164 0624 18E0     		b	.L77
 1165              	.L74:
 1166              		.loc 1 474 0
 1167 0626 0023     		movs	r3, #0
 1168 0628 8DF80F30 		strb	r3, [sp, #15]
 1169              		.loc 1 475 0
 1170 062c 9DF80F20 		ldrb	r2, [sp, #15]	@ zero_extendqisi2
 1171 0630 9DF80330 		ldrb	r3, [sp, #3]
 1172 0634 1343     		orrs	r3, r3, r2
 1173 0636 DBB2     		uxtb	r3, r3
 1174 0638 8DF80F30 		strb	r3, [sp, #15]
 1175              		.loc 1 477 0
 1176 063c 0DF10F03 		add	r3, sp, #15
 1177 0640 0198     		ldr	r0, [sp, #4]
 1178 0642 4921     		movs	r1, #73
 1179 0644 1A46     		mov	r2, r3
 1180 0646 0123     		movs	r3, #1
 1181 0648 FFF7FEFF 		bl	LSM303AGR_MAG_WriteReg
 1182 064c 0346     		mov	r3, r0
 1183 064e 002B     		cmp	r3, #0
ARM GAS  /tmp/ccNUhamC.s 			page 22


 1184 0650 01D1     		bne	.L76
 1185              		.loc 1 478 0
 1186 0652 0023     		movs	r3, #0
 1187 0654 00E0     		b	.L77
 1188              	.L76:
 1189              		.loc 1 480 0
 1190 0656 0123     		movs	r3, #1
 1191              	.L77:
 1192              		.loc 1 481 0
 1193 0658 1846     		mov	r0, r3
 1194 065a 05B0     		add	sp, sp, #20
 1195              		@ sp needed
 1196 065c 5DF804FB 		ldr	pc, [sp], #4
 1197              		.cfi_endproc
 1198              	.LFE19:
 1199              		.size	LSM303AGR_MAG_W_OFF_Z_L, .-LSM303AGR_MAG_W_OFF_Z_L
 1200              		.align	2
 1201              		.p2align 4,,15
 1202              		.global	LSM303AGR_MAG_R_OFF_Z_L
 1203              		.thumb
 1204              		.thumb_func
 1205              		.type	LSM303AGR_MAG_R_OFF_Z_L, %function
 1206              	LSM303AGR_MAG_R_OFF_Z_L:
 1207              	.LFB20:
 1208              		.loc 1 491 0
 1209              		.cfi_startproc
 1210              		@ args = 0, pretend = 0, frame = 8
 1211              		@ frame_needed = 0, uses_anonymous_args = 0
 1212 0660 00B5     		push	{lr}
 1213              		.cfi_def_cfa_offset 4
 1214              		.cfi_offset 14, -4
 1215 0662 83B0     		sub	sp, sp, #12
 1216              		.cfi_def_cfa_offset 16
 1217 0664 0190     		str	r0, [sp, #4]
 1218 0666 0091     		str	r1, [sp]
 1219              		.loc 1 492 0
 1220 0668 0198     		ldr	r0, [sp, #4]
 1221 066a 4921     		movs	r1, #73
 1222 066c 009A     		ldr	r2, [sp]
 1223 066e 0123     		movs	r3, #1
 1224 0670 FFF7FEFF 		bl	LSM303AGR_MAG_ReadReg
 1225 0674 0346     		mov	r3, r0
 1226 0676 002B     		cmp	r3, #0
 1227 0678 01D1     		bne	.L79
 1228              		.loc 1 493 0
 1229 067a 0023     		movs	r3, #0
 1230 067c 08E0     		b	.L80
 1231              	.L79:
 1232              		.loc 1 495 0
 1233 067e 009B     		ldr	r3, [sp]
 1234 0680 1A78     		ldrb	r2, [r3]	@ zero_extendqisi2
 1235 0682 009B     		ldr	r3, [sp]
 1236 0684 1A70     		strb	r2, [r3]
 1237              		.loc 1 496 0
 1238 0686 009B     		ldr	r3, [sp]
 1239 0688 1A78     		ldrb	r2, [r3]	@ zero_extendqisi2
 1240 068a 009B     		ldr	r3, [sp]
ARM GAS  /tmp/ccNUhamC.s 			page 23


 1241 068c 1A70     		strb	r2, [r3]
 1242              		.loc 1 498 0
 1243 068e 0123     		movs	r3, #1
 1244              	.L80:
 1245              		.loc 1 499 0
 1246 0690 1846     		mov	r0, r3
 1247 0692 03B0     		add	sp, sp, #12
 1248              		@ sp needed
 1249 0694 5DF804FB 		ldr	pc, [sp], #4
 1250              		.cfi_endproc
 1251              	.LFE20:
 1252              		.size	LSM303AGR_MAG_R_OFF_Z_L, .-LSM303AGR_MAG_R_OFF_Z_L
 1253              		.align	2
 1254 0698 AFF30080 		.p2align 4,,15
 1254      AFF30080 
 1255              		.global	LSM303AGR_MAG_W_OFF_Z_H
 1256              		.thumb
 1257              		.thumb_func
 1258              		.type	LSM303AGR_MAG_W_OFF_Z_H, %function
 1259              	LSM303AGR_MAG_W_OFF_Z_H:
 1260              	.LFB21:
 1261              		.loc 1 509 0
 1262              		.cfi_startproc
 1263              		@ args = 0, pretend = 0, frame = 16
 1264              		@ frame_needed = 0, uses_anonymous_args = 0
 1265 06a0 00B5     		push	{lr}
 1266              		.cfi_def_cfa_offset 4
 1267              		.cfi_offset 14, -4
 1268 06a2 85B0     		sub	sp, sp, #20
 1269              		.cfi_def_cfa_offset 24
 1270 06a4 0190     		str	r0, [sp, #4]
 1271 06a6 0B46     		mov	r3, r1
 1272 06a8 8DF80330 		strb	r3, [sp, #3]
 1273              		.loc 1 515 0
 1274 06ac 0DF10F03 		add	r3, sp, #15
 1275 06b0 0198     		ldr	r0, [sp, #4]
 1276 06b2 4A21     		movs	r1, #74
 1277 06b4 1A46     		mov	r2, r3
 1278 06b6 0123     		movs	r3, #1
 1279 06b8 FFF7FEFF 		bl	LSM303AGR_MAG_ReadReg
 1280 06bc 0346     		mov	r3, r0
 1281 06be 002B     		cmp	r3, #0
 1282 06c0 01D1     		bne	.L82
 1283              		.loc 1 516 0
 1284 06c2 0023     		movs	r3, #0
 1285 06c4 18E0     		b	.L85
 1286              	.L82:
 1287              		.loc 1 518 0
 1288 06c6 0023     		movs	r3, #0
 1289 06c8 8DF80F30 		strb	r3, [sp, #15]
 1290              		.loc 1 519 0
 1291 06cc 9DF80F20 		ldrb	r2, [sp, #15]	@ zero_extendqisi2
 1292 06d0 9DF80330 		ldrb	r3, [sp, #3]
 1293 06d4 1343     		orrs	r3, r3, r2
 1294 06d6 DBB2     		uxtb	r3, r3
 1295 06d8 8DF80F30 		strb	r3, [sp, #15]
 1296              		.loc 1 521 0
ARM GAS  /tmp/ccNUhamC.s 			page 24


 1297 06dc 0DF10F03 		add	r3, sp, #15
 1298 06e0 0198     		ldr	r0, [sp, #4]
 1299 06e2 4A21     		movs	r1, #74
 1300 06e4 1A46     		mov	r2, r3
 1301 06e6 0123     		movs	r3, #1
 1302 06e8 FFF7FEFF 		bl	LSM303AGR_MAG_WriteReg
 1303 06ec 0346     		mov	r3, r0
 1304 06ee 002B     		cmp	r3, #0
 1305 06f0 01D1     		bne	.L84
 1306              		.loc 1 522 0
 1307 06f2 0023     		movs	r3, #0
 1308 06f4 00E0     		b	.L85
 1309              	.L84:
 1310              		.loc 1 524 0
 1311 06f6 0123     		movs	r3, #1
 1312              	.L85:
 1313              		.loc 1 525 0
 1314 06f8 1846     		mov	r0, r3
 1315 06fa 05B0     		add	sp, sp, #20
 1316              		@ sp needed
 1317 06fc 5DF804FB 		ldr	pc, [sp], #4
 1318              		.cfi_endproc
 1319              	.LFE21:
 1320              		.size	LSM303AGR_MAG_W_OFF_Z_H, .-LSM303AGR_MAG_W_OFF_Z_H
 1321              		.align	2
 1322              		.p2align 4,,15
 1323              		.global	LSM303AGR_MAG_Get_MagOff
 1324              		.thumb
 1325              		.thumb_func
 1326              		.type	LSM303AGR_MAG_Get_MagOff, %function
 1327              	LSM303AGR_MAG_Get_MagOff:
 1328              	.LFB22:
 1329              		.loc 1 535 0
 1330              		.cfi_startproc
 1331              		@ args = 0, pretend = 0, frame = 24
 1332              		@ frame_needed = 0, uses_anonymous_args = 0
 1333 0700 00B5     		push	{lr}
 1334              		.cfi_def_cfa_offset 4
 1335              		.cfi_offset 14, -4
 1336 0702 87B0     		sub	sp, sp, #28
 1337              		.cfi_def_cfa_offset 32
 1338 0704 0390     		str	r0, [sp, #12]
 1339 0706 0291     		str	r1, [sp, #8]
 1340 0708 0192     		str	r2, [sp, #4]
 1341 070a 0093     		str	r3, [sp]
 1342              		.loc 1 539 0
 1343 070c 0DF11703 		add	r3, sp, #23
 1344 0710 0398     		ldr	r0, [sp, #12]
 1345 0712 1946     		mov	r1, r3
 1346 0714 FFF7FEFF 		bl	LSM303AGR_MAG_R_OFF_X_L
 1347              		.loc 1 540 0
 1348 0718 0DF11603 		add	r3, sp, #22
 1349 071c 0398     		ldr	r0, [sp, #12]
 1350 071e 1946     		mov	r1, r3
 1351 0720 FFF7FEFF 		bl	LSM303AGR_MAG_R_OFF_X_H
 1352              		.loc 1 541 0
 1353 0724 9DF81630 		ldrb	r3, [sp, #22]	@ zero_extendqisi2
ARM GAS  /tmp/ccNUhamC.s 			page 25


 1354 0728 1B02     		lsls	r3, r3, #8
 1355 072a 9AB2     		uxth	r2, r3
 1356 072c 9DF81730 		ldrb	r3, [sp, #23]	@ zero_extendqisi2
 1357 0730 1343     		orrs	r3, r3, r2
 1358 0732 9BB2     		uxth	r3, r3
 1359 0734 9AB2     		uxth	r2, r3
 1360 0736 029B     		ldr	r3, [sp, #8]
 1361 0738 1A80     		strh	r2, [r3]	@ movhi
 1362              		.loc 1 544 0
 1363 073a 0DF11703 		add	r3, sp, #23
 1364 073e 0398     		ldr	r0, [sp, #12]
 1365 0740 1946     		mov	r1, r3
 1366 0742 FFF7FEFF 		bl	LSM303AGR_MAG_R_OFF_Y_L
 1367              		.loc 1 545 0
 1368 0746 0DF11603 		add	r3, sp, #22
 1369 074a 0398     		ldr	r0, [sp, #12]
 1370 074c 1946     		mov	r1, r3
 1371 074e FFF7FEFF 		bl	LSM303AGR_MAG_R_OFF_Y_H
 1372              		.loc 1 546 0
 1373 0752 9DF81630 		ldrb	r3, [sp, #22]	@ zero_extendqisi2
 1374 0756 1B02     		lsls	r3, r3, #8
 1375 0758 9AB2     		uxth	r2, r3
 1376 075a 9DF81730 		ldrb	r3, [sp, #23]	@ zero_extendqisi2
 1377 075e 1343     		orrs	r3, r3, r2
 1378 0760 9BB2     		uxth	r3, r3
 1379 0762 9AB2     		uxth	r2, r3
 1380 0764 019B     		ldr	r3, [sp, #4]
 1381 0766 1A80     		strh	r2, [r3]	@ movhi
 1382              		.loc 1 549 0
 1383 0768 0DF11703 		add	r3, sp, #23
 1384 076c 0398     		ldr	r0, [sp, #12]
 1385 076e 1946     		mov	r1, r3
 1386 0770 FFF7FEFF 		bl	LSM303AGR_MAG_R_OFF_Z_L
 1387              		.loc 1 550 0
 1388 0774 0DF11603 		add	r3, sp, #22
 1389 0778 0398     		ldr	r0, [sp, #12]
 1390 077a 1946     		mov	r1, r3
 1391 077c FFF7FEFF 		bl	LSM303AGR_MAG_R_OFF_Z_H
 1392              		.loc 1 551 0
 1393 0780 9DF81630 		ldrb	r3, [sp, #22]	@ zero_extendqisi2
 1394 0784 1B02     		lsls	r3, r3, #8
 1395 0786 9AB2     		uxth	r2, r3
 1396 0788 9DF81730 		ldrb	r3, [sp, #23]	@ zero_extendqisi2
 1397 078c 1343     		orrs	r3, r3, r2
 1398 078e 9BB2     		uxth	r3, r3
 1399 0790 9AB2     		uxth	r2, r3
 1400 0792 009B     		ldr	r3, [sp]
 1401 0794 1A80     		strh	r2, [r3]	@ movhi
 1402              		.loc 1 553 0
 1403 0796 0123     		movs	r3, #1
 1404              		.loc 1 554 0
 1405 0798 1846     		mov	r0, r3
 1406 079a 07B0     		add	sp, sp, #28
 1407              		@ sp needed
 1408 079c 5DF804FB 		ldr	pc, [sp], #4
 1409              		.cfi_endproc
 1410              	.LFE22:
ARM GAS  /tmp/ccNUhamC.s 			page 26


 1411              		.size	LSM303AGR_MAG_Get_MagOff, .-LSM303AGR_MAG_Get_MagOff
 1412              		.align	2
 1413              		.p2align 4,,15
 1414              		.global	LSM303AGR_MAG_Set_MagOff
 1415              		.thumb
 1416              		.thumb_func
 1417              		.type	LSM303AGR_MAG_Set_MagOff, %function
 1418              	LSM303AGR_MAG_Set_MagOff:
 1419              	.LFB23:
 1420              		.loc 1 564 0
 1421              		.cfi_startproc
 1422              		@ args = 0, pretend = 0, frame = 16
 1423              		@ frame_needed = 0, uses_anonymous_args = 0
 1424 07a0 00B5     		push	{lr}
 1425              		.cfi_def_cfa_offset 4
 1426              		.cfi_offset 14, -4
 1427 07a2 85B0     		sub	sp, sp, #20
 1428              		.cfi_def_cfa_offset 24
 1429 07a4 0390     		str	r0, [sp, #12]
 1430 07a6 ADF80A10 		strh	r1, [sp, #10]	@ movhi
 1431 07aa ADF80820 		strh	r2, [sp, #8]	@ movhi
 1432 07ae ADF80630 		strh	r3, [sp, #6]	@ movhi
 1433              		.loc 1 566 0
 1434 07b2 BDF80A30 		ldrh	r3, [sp, #10]	@ movhi
 1435 07b6 DBB2     		uxtb	r3, r3
 1436 07b8 0398     		ldr	r0, [sp, #12]
 1437 07ba 1946     		mov	r1, r3
 1438 07bc FFF7FEFF 		bl	LSM303AGR_MAG_W_OFF_X_L
 1439              		.loc 1 567 0
 1440 07c0 BDF80A30 		ldrh	r3, [sp, #10]
 1441 07c4 1B0A     		lsrs	r3, r3, #8
 1442 07c6 9BB2     		uxth	r3, r3
 1443 07c8 DBB2     		uxtb	r3, r3
 1444 07ca 0398     		ldr	r0, [sp, #12]
 1445 07cc 1946     		mov	r1, r3
 1446 07ce FFF7FEFF 		bl	LSM303AGR_MAG_W_OFF_X_H
 1447              		.loc 1 570 0
 1448 07d2 BDF80830 		ldrh	r3, [sp, #8]	@ movhi
 1449 07d6 DBB2     		uxtb	r3, r3
 1450 07d8 0398     		ldr	r0, [sp, #12]
 1451 07da 1946     		mov	r1, r3
 1452 07dc FFF7FEFF 		bl	LSM303AGR_MAG_W_OFF_Y_L
 1453              		.loc 1 571 0
 1454 07e0 BDF80830 		ldrh	r3, [sp, #8]
 1455 07e4 1B0A     		lsrs	r3, r3, #8
 1456 07e6 9BB2     		uxth	r3, r3
 1457 07e8 DBB2     		uxtb	r3, r3
 1458 07ea 0398     		ldr	r0, [sp, #12]
 1459 07ec 1946     		mov	r1, r3
 1460 07ee FFF7FEFF 		bl	LSM303AGR_MAG_W_OFF_Y_H
 1461              		.loc 1 574 0
 1462 07f2 BDF80630 		ldrh	r3, [sp, #6]	@ movhi
 1463 07f6 DBB2     		uxtb	r3, r3
 1464 07f8 0398     		ldr	r0, [sp, #12]
 1465 07fa 1946     		mov	r1, r3
 1466 07fc FFF7FEFF 		bl	LSM303AGR_MAG_W_OFF_Z_L
 1467              		.loc 1 575 0
ARM GAS  /tmp/ccNUhamC.s 			page 27


 1468 0800 BDF80630 		ldrh	r3, [sp, #6]
 1469 0804 1B0A     		lsrs	r3, r3, #8
 1470 0806 9BB2     		uxth	r3, r3
 1471 0808 DBB2     		uxtb	r3, r3
 1472 080a 0398     		ldr	r0, [sp, #12]
 1473 080c 1946     		mov	r1, r3
 1474 080e FFF7FEFF 		bl	LSM303AGR_MAG_W_OFF_Z_H
 1475              		.loc 1 577 0
 1476 0812 0123     		movs	r3, #1
 1477              		.loc 1 578 0
 1478 0814 1846     		mov	r0, r3
 1479 0816 05B0     		add	sp, sp, #20
 1480              		@ sp needed
 1481 0818 5DF804FB 		ldr	pc, [sp], #4
 1482              		.cfi_endproc
 1483              	.LFE23:
 1484              		.size	LSM303AGR_MAG_Set_MagOff, .-LSM303AGR_MAG_Set_MagOff
 1485              		.align	2
 1486 081c AFF30080 		.p2align 4,,15
 1487              		.global	LSM303AGR_MAG_R_OFF_Z_H
 1488              		.thumb
 1489              		.thumb_func
 1490              		.type	LSM303AGR_MAG_R_OFF_Z_H, %function
 1491              	LSM303AGR_MAG_R_OFF_Z_H:
 1492              	.LFB24:
 1493              		.loc 1 588 0
 1494              		.cfi_startproc
 1495              		@ args = 0, pretend = 0, frame = 8
 1496              		@ frame_needed = 0, uses_anonymous_args = 0
 1497 0820 00B5     		push	{lr}
 1498              		.cfi_def_cfa_offset 4
 1499              		.cfi_offset 14, -4
 1500 0822 83B0     		sub	sp, sp, #12
 1501              		.cfi_def_cfa_offset 16
 1502 0824 0190     		str	r0, [sp, #4]
 1503 0826 0091     		str	r1, [sp]
 1504              		.loc 1 589 0
 1505 0828 0198     		ldr	r0, [sp, #4]
 1506 082a 4A21     		movs	r1, #74
 1507 082c 009A     		ldr	r2, [sp]
 1508 082e 0123     		movs	r3, #1
 1509 0830 FFF7FEFF 		bl	LSM303AGR_MAG_ReadReg
 1510 0834 0346     		mov	r3, r0
 1511 0836 002B     		cmp	r3, #0
 1512 0838 01D1     		bne	.L91
 1513              		.loc 1 590 0
 1514 083a 0023     		movs	r3, #0
 1515 083c 08E0     		b	.L92
 1516              	.L91:
 1517              		.loc 1 592 0
 1518 083e 009B     		ldr	r3, [sp]
 1519 0840 1A78     		ldrb	r2, [r3]	@ zero_extendqisi2
 1520 0842 009B     		ldr	r3, [sp]
 1521 0844 1A70     		strb	r2, [r3]
 1522              		.loc 1 593 0
 1523 0846 009B     		ldr	r3, [sp]
 1524 0848 1A78     		ldrb	r2, [r3]	@ zero_extendqisi2
ARM GAS  /tmp/ccNUhamC.s 			page 28


 1525 084a 009B     		ldr	r3, [sp]
 1526 084c 1A70     		strb	r2, [r3]
 1527              		.loc 1 595 0
 1528 084e 0123     		movs	r3, #1
 1529              	.L92:
 1530              		.loc 1 596 0
 1531 0850 1846     		mov	r0, r3
 1532 0852 03B0     		add	sp, sp, #12
 1533              		@ sp needed
 1534 0854 5DF804FB 		ldr	pc, [sp], #4
 1535              		.cfi_endproc
 1536              	.LFE24:
 1537              		.size	LSM303AGR_MAG_R_OFF_Z_H, .-LSM303AGR_MAG_R_OFF_Z_H
 1538              		.align	2
 1539 0858 AFF30080 		.p2align 4,,15
 1539      AFF30080 
 1540              		.global	LSM303AGR_MAG_W_LP
 1541              		.thumb
 1542              		.thumb_func
 1543              		.type	LSM303AGR_MAG_W_LP, %function
 1544              	LSM303AGR_MAG_W_LP:
 1545              	.LFB25:
 1546              		.loc 1 606 0
 1547              		.cfi_startproc
 1548              		@ args = 0, pretend = 0, frame = 16
 1549              		@ frame_needed = 0, uses_anonymous_args = 0
 1550 0860 00B5     		push	{lr}
 1551              		.cfi_def_cfa_offset 4
 1552              		.cfi_offset 14, -4
 1553 0862 85B0     		sub	sp, sp, #20
 1554              		.cfi_def_cfa_offset 24
 1555 0864 0190     		str	r0, [sp, #4]
 1556 0866 0B46     		mov	r3, r1
 1557 0868 8DF80330 		strb	r3, [sp, #3]
 1558              		.loc 1 609 0
 1559 086c 0DF10F03 		add	r3, sp, #15
 1560 0870 0198     		ldr	r0, [sp, #4]
 1561 0872 6021     		movs	r1, #96
 1562 0874 1A46     		mov	r2, r3
 1563 0876 0123     		movs	r3, #1
 1564 0878 FFF7FEFF 		bl	LSM303AGR_MAG_ReadReg
 1565 087c 0346     		mov	r3, r0
 1566 087e 002B     		cmp	r3, #0
 1567 0880 01D1     		bne	.L94
 1568              		.loc 1 610 0
 1569 0882 0023     		movs	r3, #0
 1570 0884 1CE0     		b	.L97
 1571              	.L94:
 1572              		.loc 1 612 0
 1573 0886 9DF80F30 		ldrb	r3, [sp, #15]	@ zero_extendqisi2
 1574 088a 23F01003 		bic	r3, r3, #16
 1575 088e DBB2     		uxtb	r3, r3
 1576 0890 8DF80F30 		strb	r3, [sp, #15]
 1577              		.loc 1 613 0
 1578 0894 9DF80F20 		ldrb	r2, [sp, #15]	@ zero_extendqisi2
 1579 0898 9DF80330 		ldrb	r3, [sp, #3]
 1580 089c 1343     		orrs	r3, r3, r2
ARM GAS  /tmp/ccNUhamC.s 			page 29


 1581 089e DBB2     		uxtb	r3, r3
 1582 08a0 8DF80F30 		strb	r3, [sp, #15]
 1583              		.loc 1 615 0
 1584 08a4 0DF10F03 		add	r3, sp, #15
 1585 08a8 0198     		ldr	r0, [sp, #4]
 1586 08aa 6021     		movs	r1, #96
 1587 08ac 1A46     		mov	r2, r3
 1588 08ae 0123     		movs	r3, #1
 1589 08b0 FFF7FEFF 		bl	LSM303AGR_MAG_WriteReg
 1590 08b4 0346     		mov	r3, r0
 1591 08b6 002B     		cmp	r3, #0
 1592 08b8 01D1     		bne	.L96
 1593              		.loc 1 616 0
 1594 08ba 0023     		movs	r3, #0
 1595 08bc 00E0     		b	.L97
 1596              	.L96:
 1597              		.loc 1 618 0
 1598 08be 0123     		movs	r3, #1
 1599              	.L97:
 1600              		.loc 1 619 0
 1601 08c0 1846     		mov	r0, r3
 1602 08c2 05B0     		add	sp, sp, #20
 1603              		@ sp needed
 1604 08c4 5DF804FB 		ldr	pc, [sp], #4
 1605              		.cfi_endproc
 1606              	.LFE25:
 1607              		.size	LSM303AGR_MAG_W_LP, .-LSM303AGR_MAG_W_LP
 1608              		.align	2
 1609 08c8 AFF30080 		.p2align 4,,15
 1609      AFF30080 
 1610              		.global	LSM303AGR_MAG_R_LP
 1611              		.thumb
 1612              		.thumb_func
 1613              		.type	LSM303AGR_MAG_R_LP, %function
 1614              	LSM303AGR_MAG_R_LP:
 1615              	.LFB26:
 1616              		.loc 1 629 0
 1617              		.cfi_startproc
 1618              		@ args = 0, pretend = 0, frame = 8
 1619              		@ frame_needed = 0, uses_anonymous_args = 0
 1620 08d0 00B5     		push	{lr}
 1621              		.cfi_def_cfa_offset 4
 1622              		.cfi_offset 14, -4
 1623 08d2 83B0     		sub	sp, sp, #12
 1624              		.cfi_def_cfa_offset 16
 1625 08d4 0190     		str	r0, [sp, #4]
 1626 08d6 0091     		str	r1, [sp]
 1627              		.loc 1 630 0
 1628 08d8 0198     		ldr	r0, [sp, #4]
 1629 08da 6021     		movs	r1, #96
 1630 08dc 009A     		ldr	r2, [sp]
 1631 08de 0123     		movs	r3, #1
 1632 08e0 FFF7FEFF 		bl	LSM303AGR_MAG_ReadReg
 1633 08e4 0346     		mov	r3, r0
 1634 08e6 002B     		cmp	r3, #0
 1635 08e8 01D1     		bne	.L99
 1636              		.loc 1 631 0
ARM GAS  /tmp/ccNUhamC.s 			page 30


 1637 08ea 0023     		movs	r3, #0
 1638 08ec 07E0     		b	.L100
 1639              	.L99:
 1640              		.loc 1 633 0
 1641 08ee 009B     		ldr	r3, [sp]
 1642 08f0 1B78     		ldrb	r3, [r3]	@ zero_extendqisi2
 1643 08f2 03F01003 		and	r3, r3, #16
 1644 08f6 DAB2     		uxtb	r2, r3
 1645 08f8 009B     		ldr	r3, [sp]
 1646 08fa 1A70     		strb	r2, [r3]
 1647              		.loc 1 635 0
 1648 08fc 0123     		movs	r3, #1
 1649              	.L100:
 1650              		.loc 1 636 0
 1651 08fe 1846     		mov	r0, r3
 1652 0900 03B0     		add	sp, sp, #12
 1653              		@ sp needed
 1654 0902 5DF804FB 		ldr	pc, [sp], #4
 1655              		.cfi_endproc
 1656              	.LFE26:
 1657              		.size	LSM303AGR_MAG_R_LP, .-LSM303AGR_MAG_R_LP
 1658 0906 00BF     		.align	2
 1659 0908 AFF30080 		.p2align 4,,15
 1659      AFF30080 
 1660              		.global	LSM303AGR_MAG_W_SOFT_RST
 1661              		.thumb
 1662              		.thumb_func
 1663              		.type	LSM303AGR_MAG_W_SOFT_RST, %function
 1664              	LSM303AGR_MAG_W_SOFT_RST:
 1665              	.LFB27:
 1666              		.loc 1 646 0
 1667              		.cfi_startproc
 1668              		@ args = 0, pretend = 0, frame = 16
 1669              		@ frame_needed = 0, uses_anonymous_args = 0
 1670 0910 00B5     		push	{lr}
 1671              		.cfi_def_cfa_offset 4
 1672              		.cfi_offset 14, -4
 1673 0912 85B0     		sub	sp, sp, #20
 1674              		.cfi_def_cfa_offset 24
 1675 0914 0190     		str	r0, [sp, #4]
 1676 0916 0B46     		mov	r3, r1
 1677 0918 8DF80330 		strb	r3, [sp, #3]
 1678              		.loc 1 649 0
 1679 091c 0DF10F03 		add	r3, sp, #15
 1680 0920 0198     		ldr	r0, [sp, #4]
 1681 0922 6021     		movs	r1, #96
 1682 0924 1A46     		mov	r2, r3
 1683 0926 0123     		movs	r3, #1
 1684 0928 FFF7FEFF 		bl	LSM303AGR_MAG_ReadReg
 1685 092c 0346     		mov	r3, r0
 1686 092e 002B     		cmp	r3, #0
 1687 0930 01D1     		bne	.L102
 1688              		.loc 1 650 0
 1689 0932 0023     		movs	r3, #0
 1690 0934 1CE0     		b	.L105
 1691              	.L102:
 1692              		.loc 1 652 0
ARM GAS  /tmp/ccNUhamC.s 			page 31


 1693 0936 9DF80F30 		ldrb	r3, [sp, #15]	@ zero_extendqisi2
 1694 093a 23F02003 		bic	r3, r3, #32
 1695 093e DBB2     		uxtb	r3, r3
 1696 0940 8DF80F30 		strb	r3, [sp, #15]
 1697              		.loc 1 653 0
 1698 0944 9DF80F20 		ldrb	r2, [sp, #15]	@ zero_extendqisi2
 1699 0948 9DF80330 		ldrb	r3, [sp, #3]
 1700 094c 1343     		orrs	r3, r3, r2
 1701 094e DBB2     		uxtb	r3, r3
 1702 0950 8DF80F30 		strb	r3, [sp, #15]
 1703              		.loc 1 655 0
 1704 0954 0DF10F03 		add	r3, sp, #15
 1705 0958 0198     		ldr	r0, [sp, #4]
 1706 095a 6021     		movs	r1, #96
 1707 095c 1A46     		mov	r2, r3
 1708 095e 0123     		movs	r3, #1
 1709 0960 FFF7FEFF 		bl	LSM303AGR_MAG_WriteReg
 1710 0964 0346     		mov	r3, r0
 1711 0966 002B     		cmp	r3, #0
 1712 0968 01D1     		bne	.L104
 1713              		.loc 1 656 0
 1714 096a 0023     		movs	r3, #0
 1715 096c 00E0     		b	.L105
 1716              	.L104:
 1717              		.loc 1 658 0
 1718 096e 0123     		movs	r3, #1
 1719              	.L105:
 1720              		.loc 1 659 0
 1721 0970 1846     		mov	r0, r3
 1722 0972 05B0     		add	sp, sp, #20
 1723              		@ sp needed
 1724 0974 5DF804FB 		ldr	pc, [sp], #4
 1725              		.cfi_endproc
 1726              	.LFE27:
 1727              		.size	LSM303AGR_MAG_W_SOFT_RST, .-LSM303AGR_MAG_W_SOFT_RST
 1728              		.align	2
 1729 0978 AFF30080 		.p2align 4,,15
 1729      AFF30080 
 1730              		.global	LSM303AGR_MAG_R_SOFT_RST
 1731              		.thumb
 1732              		.thumb_func
 1733              		.type	LSM303AGR_MAG_R_SOFT_RST, %function
 1734              	LSM303AGR_MAG_R_SOFT_RST:
 1735              	.LFB28:
 1736              		.loc 1 669 0
 1737              		.cfi_startproc
 1738              		@ args = 0, pretend = 0, frame = 8
 1739              		@ frame_needed = 0, uses_anonymous_args = 0
 1740 0980 00B5     		push	{lr}
 1741              		.cfi_def_cfa_offset 4
 1742              		.cfi_offset 14, -4
 1743 0982 83B0     		sub	sp, sp, #12
 1744              		.cfi_def_cfa_offset 16
 1745 0984 0190     		str	r0, [sp, #4]
 1746 0986 0091     		str	r1, [sp]
 1747              		.loc 1 670 0
 1748 0988 0198     		ldr	r0, [sp, #4]
ARM GAS  /tmp/ccNUhamC.s 			page 32


 1749 098a 6021     		movs	r1, #96
 1750 098c 009A     		ldr	r2, [sp]
 1751 098e 0123     		movs	r3, #1
 1752 0990 FFF7FEFF 		bl	LSM303AGR_MAG_ReadReg
 1753 0994 0346     		mov	r3, r0
 1754 0996 002B     		cmp	r3, #0
 1755 0998 01D1     		bne	.L107
 1756              		.loc 1 671 0
 1757 099a 0023     		movs	r3, #0
 1758 099c 07E0     		b	.L108
 1759              	.L107:
 1760              		.loc 1 673 0
 1761 099e 009B     		ldr	r3, [sp]
 1762 09a0 1B78     		ldrb	r3, [r3]	@ zero_extendqisi2
 1763 09a2 03F02003 		and	r3, r3, #32
 1764 09a6 DAB2     		uxtb	r2, r3
 1765 09a8 009B     		ldr	r3, [sp]
 1766 09aa 1A70     		strb	r2, [r3]
 1767              		.loc 1 675 0
 1768 09ac 0123     		movs	r3, #1
 1769              	.L108:
 1770              		.loc 1 676 0
 1771 09ae 1846     		mov	r0, r3
 1772 09b0 03B0     		add	sp, sp, #12
 1773              		@ sp needed
 1774 09b2 5DF804FB 		ldr	pc, [sp], #4
 1775              		.cfi_endproc
 1776              	.LFE28:
 1777              		.size	LSM303AGR_MAG_R_SOFT_RST, .-LSM303AGR_MAG_R_SOFT_RST
 1778 09b6 00BF     		.align	2
 1779 09b8 AFF30080 		.p2align 4,,15
 1779      AFF30080 
 1780              		.global	LSM303AGR_MAG_W_LPF
 1781              		.thumb
 1782              		.thumb_func
 1783              		.type	LSM303AGR_MAG_W_LPF, %function
 1784              	LSM303AGR_MAG_W_LPF:
 1785              	.LFB29:
 1786              		.loc 1 686 0
 1787              		.cfi_startproc
 1788              		@ args = 0, pretend = 0, frame = 16
 1789              		@ frame_needed = 0, uses_anonymous_args = 0
 1790 09c0 00B5     		push	{lr}
 1791              		.cfi_def_cfa_offset 4
 1792              		.cfi_offset 14, -4
 1793 09c2 85B0     		sub	sp, sp, #20
 1794              		.cfi_def_cfa_offset 24
 1795 09c4 0190     		str	r0, [sp, #4]
 1796 09c6 0B46     		mov	r3, r1
 1797 09c8 8DF80330 		strb	r3, [sp, #3]
 1798              		.loc 1 689 0
 1799 09cc 0DF10F03 		add	r3, sp, #15
 1800 09d0 0198     		ldr	r0, [sp, #4]
 1801 09d2 6121     		movs	r1, #97
 1802 09d4 1A46     		mov	r2, r3
 1803 09d6 0123     		movs	r3, #1
 1804 09d8 FFF7FEFF 		bl	LSM303AGR_MAG_ReadReg
ARM GAS  /tmp/ccNUhamC.s 			page 33


 1805 09dc 0346     		mov	r3, r0
 1806 09de 002B     		cmp	r3, #0
 1807 09e0 01D1     		bne	.L110
 1808              		.loc 1 690 0
 1809 09e2 0023     		movs	r3, #0
 1810 09e4 1CE0     		b	.L113
 1811              	.L110:
 1812              		.loc 1 692 0
 1813 09e6 9DF80F30 		ldrb	r3, [sp, #15]	@ zero_extendqisi2
 1814 09ea 23F00103 		bic	r3, r3, #1
 1815 09ee DBB2     		uxtb	r3, r3
 1816 09f0 8DF80F30 		strb	r3, [sp, #15]
 1817              		.loc 1 693 0
 1818 09f4 9DF80F20 		ldrb	r2, [sp, #15]	@ zero_extendqisi2
 1819 09f8 9DF80330 		ldrb	r3, [sp, #3]
 1820 09fc 1343     		orrs	r3, r3, r2
 1821 09fe DBB2     		uxtb	r3, r3
 1822 0a00 8DF80F30 		strb	r3, [sp, #15]
 1823              		.loc 1 695 0
 1824 0a04 0DF10F03 		add	r3, sp, #15
 1825 0a08 0198     		ldr	r0, [sp, #4]
 1826 0a0a 6121     		movs	r1, #97
 1827 0a0c 1A46     		mov	r2, r3
 1828 0a0e 0123     		movs	r3, #1
 1829 0a10 FFF7FEFF 		bl	LSM303AGR_MAG_WriteReg
 1830 0a14 0346     		mov	r3, r0
 1831 0a16 002B     		cmp	r3, #0
 1832 0a18 01D1     		bne	.L112
 1833              		.loc 1 696 0
 1834 0a1a 0023     		movs	r3, #0
 1835 0a1c 00E0     		b	.L113
 1836              	.L112:
 1837              		.loc 1 698 0
 1838 0a1e 0123     		movs	r3, #1
 1839              	.L113:
 1840              		.loc 1 699 0
 1841 0a20 1846     		mov	r0, r3
 1842 0a22 05B0     		add	sp, sp, #20
 1843              		@ sp needed
 1844 0a24 5DF804FB 		ldr	pc, [sp], #4
 1845              		.cfi_endproc
 1846              	.LFE29:
 1847              		.size	LSM303AGR_MAG_W_LPF, .-LSM303AGR_MAG_W_LPF
 1848              		.align	2
 1849 0a28 AFF30080 		.p2align 4,,15
 1849      AFF30080 
 1850              		.global	LSM303AGR_MAG_R_LPF
 1851              		.thumb
 1852              		.thumb_func
 1853              		.type	LSM303AGR_MAG_R_LPF, %function
 1854              	LSM303AGR_MAG_R_LPF:
 1855              	.LFB30:
 1856              		.loc 1 709 0
 1857              		.cfi_startproc
 1858              		@ args = 0, pretend = 0, frame = 8
 1859              		@ frame_needed = 0, uses_anonymous_args = 0
 1860 0a30 00B5     		push	{lr}
ARM GAS  /tmp/ccNUhamC.s 			page 34


 1861              		.cfi_def_cfa_offset 4
 1862              		.cfi_offset 14, -4
 1863 0a32 83B0     		sub	sp, sp, #12
 1864              		.cfi_def_cfa_offset 16
 1865 0a34 0190     		str	r0, [sp, #4]
 1866 0a36 0091     		str	r1, [sp]
 1867              		.loc 1 710 0
 1868 0a38 0198     		ldr	r0, [sp, #4]
 1869 0a3a 6121     		movs	r1, #97
 1870 0a3c 009A     		ldr	r2, [sp]
 1871 0a3e 0123     		movs	r3, #1
 1872 0a40 FFF7FEFF 		bl	LSM303AGR_MAG_ReadReg
 1873 0a44 0346     		mov	r3, r0
 1874 0a46 002B     		cmp	r3, #0
 1875 0a48 01D1     		bne	.L115
 1876              		.loc 1 711 0
 1877 0a4a 0023     		movs	r3, #0
 1878 0a4c 07E0     		b	.L116
 1879              	.L115:
 1880              		.loc 1 713 0
 1881 0a4e 009B     		ldr	r3, [sp]
 1882 0a50 1B78     		ldrb	r3, [r3]	@ zero_extendqisi2
 1883 0a52 03F00103 		and	r3, r3, #1
 1884 0a56 DAB2     		uxtb	r2, r3
 1885 0a58 009B     		ldr	r3, [sp]
 1886 0a5a 1A70     		strb	r2, [r3]
 1887              		.loc 1 715 0
 1888 0a5c 0123     		movs	r3, #1
 1889              	.L116:
 1890              		.loc 1 716 0
 1891 0a5e 1846     		mov	r0, r3
 1892 0a60 03B0     		add	sp, sp, #12
 1893              		@ sp needed
 1894 0a62 5DF804FB 		ldr	pc, [sp], #4
 1895              		.cfi_endproc
 1896              	.LFE30:
 1897              		.size	LSM303AGR_MAG_R_LPF, .-LSM303AGR_MAG_R_LPF
 1898 0a66 00BF     		.align	2
 1899 0a68 AFF30080 		.p2align 4,,15
 1899      AFF30080 
 1900              		.global	LSM303AGR_MAG_W_OFF_CANC
 1901              		.thumb
 1902              		.thumb_func
 1903              		.type	LSM303AGR_MAG_W_OFF_CANC, %function
 1904              	LSM303AGR_MAG_W_OFF_CANC:
 1905              	.LFB31:
 1906              		.loc 1 726 0
 1907              		.cfi_startproc
 1908              		@ args = 0, pretend = 0, frame = 16
 1909              		@ frame_needed = 0, uses_anonymous_args = 0
 1910 0a70 00B5     		push	{lr}
 1911              		.cfi_def_cfa_offset 4
 1912              		.cfi_offset 14, -4
 1913 0a72 85B0     		sub	sp, sp, #20
 1914              		.cfi_def_cfa_offset 24
 1915 0a74 0190     		str	r0, [sp, #4]
 1916 0a76 0B46     		mov	r3, r1
ARM GAS  /tmp/ccNUhamC.s 			page 35


 1917 0a78 8DF80330 		strb	r3, [sp, #3]
 1918              		.loc 1 729 0
 1919 0a7c 0DF10F03 		add	r3, sp, #15
 1920 0a80 0198     		ldr	r0, [sp, #4]
 1921 0a82 6121     		movs	r1, #97
 1922 0a84 1A46     		mov	r2, r3
 1923 0a86 0123     		movs	r3, #1
 1924 0a88 FFF7FEFF 		bl	LSM303AGR_MAG_ReadReg
 1925 0a8c 0346     		mov	r3, r0
 1926 0a8e 002B     		cmp	r3, #0
 1927 0a90 01D1     		bne	.L118
 1928              		.loc 1 730 0
 1929 0a92 0023     		movs	r3, #0
 1930 0a94 1CE0     		b	.L121
 1931              	.L118:
 1932              		.loc 1 732 0
 1933 0a96 9DF80F30 		ldrb	r3, [sp, #15]	@ zero_extendqisi2
 1934 0a9a 23F00203 		bic	r3, r3, #2
 1935 0a9e DBB2     		uxtb	r3, r3
 1936 0aa0 8DF80F30 		strb	r3, [sp, #15]
 1937              		.loc 1 733 0
 1938 0aa4 9DF80F20 		ldrb	r2, [sp, #15]	@ zero_extendqisi2
 1939 0aa8 9DF80330 		ldrb	r3, [sp, #3]
 1940 0aac 1343     		orrs	r3, r3, r2
 1941 0aae DBB2     		uxtb	r3, r3
 1942 0ab0 8DF80F30 		strb	r3, [sp, #15]
 1943              		.loc 1 735 0
 1944 0ab4 0DF10F03 		add	r3, sp, #15
 1945 0ab8 0198     		ldr	r0, [sp, #4]
 1946 0aba 6121     		movs	r1, #97
 1947 0abc 1A46     		mov	r2, r3
 1948 0abe 0123     		movs	r3, #1
 1949 0ac0 FFF7FEFF 		bl	LSM303AGR_MAG_WriteReg
 1950 0ac4 0346     		mov	r3, r0
 1951 0ac6 002B     		cmp	r3, #0
 1952 0ac8 01D1     		bne	.L120
 1953              		.loc 1 736 0
 1954 0aca 0023     		movs	r3, #0
 1955 0acc 00E0     		b	.L121
 1956              	.L120:
 1957              		.loc 1 738 0
 1958 0ace 0123     		movs	r3, #1
 1959              	.L121:
 1960              		.loc 1 739 0
 1961 0ad0 1846     		mov	r0, r3
 1962 0ad2 05B0     		add	sp, sp, #20
 1963              		@ sp needed
 1964 0ad4 5DF804FB 		ldr	pc, [sp], #4
 1965              		.cfi_endproc
 1966              	.LFE31:
 1967              		.size	LSM303AGR_MAG_W_OFF_CANC, .-LSM303AGR_MAG_W_OFF_CANC
 1968              		.align	2
 1969 0ad8 AFF30080 		.p2align 4,,15
 1969      AFF30080 
 1970              		.global	LSM303AGR_MAG_R_OFF_CANC
 1971              		.thumb
 1972              		.thumb_func
ARM GAS  /tmp/ccNUhamC.s 			page 36


 1973              		.type	LSM303AGR_MAG_R_OFF_CANC, %function
 1974              	LSM303AGR_MAG_R_OFF_CANC:
 1975              	.LFB32:
 1976              		.loc 1 749 0
 1977              		.cfi_startproc
 1978              		@ args = 0, pretend = 0, frame = 8
 1979              		@ frame_needed = 0, uses_anonymous_args = 0
 1980 0ae0 00B5     		push	{lr}
 1981              		.cfi_def_cfa_offset 4
 1982              		.cfi_offset 14, -4
 1983 0ae2 83B0     		sub	sp, sp, #12
 1984              		.cfi_def_cfa_offset 16
 1985 0ae4 0190     		str	r0, [sp, #4]
 1986 0ae6 0091     		str	r1, [sp]
 1987              		.loc 1 750 0
 1988 0ae8 0198     		ldr	r0, [sp, #4]
 1989 0aea 6121     		movs	r1, #97
 1990 0aec 009A     		ldr	r2, [sp]
 1991 0aee 0123     		movs	r3, #1
 1992 0af0 FFF7FEFF 		bl	LSM303AGR_MAG_ReadReg
 1993 0af4 0346     		mov	r3, r0
 1994 0af6 002B     		cmp	r3, #0
 1995 0af8 01D1     		bne	.L123
 1996              		.loc 1 751 0
 1997 0afa 0023     		movs	r3, #0
 1998 0afc 07E0     		b	.L124
 1999              	.L123:
 2000              		.loc 1 753 0
 2001 0afe 009B     		ldr	r3, [sp]
 2002 0b00 1B78     		ldrb	r3, [r3]	@ zero_extendqisi2
 2003 0b02 03F00203 		and	r3, r3, #2
 2004 0b06 DAB2     		uxtb	r2, r3
 2005 0b08 009B     		ldr	r3, [sp]
 2006 0b0a 1A70     		strb	r2, [r3]
 2007              		.loc 1 755 0
 2008 0b0c 0123     		movs	r3, #1
 2009              	.L124:
 2010              		.loc 1 756 0
 2011 0b0e 1846     		mov	r0, r3
 2012 0b10 03B0     		add	sp, sp, #12
 2013              		@ sp needed
 2014 0b12 5DF804FB 		ldr	pc, [sp], #4
 2015              		.cfi_endproc
 2016              	.LFE32:
 2017              		.size	LSM303AGR_MAG_R_OFF_CANC, .-LSM303AGR_MAG_R_OFF_CANC
 2018 0b16 00BF     		.align	2
 2019 0b18 AFF30080 		.p2align 4,,15
 2019      AFF30080 
 2020              		.global	LSM303AGR_MAG_W_SET_FREQ
 2021              		.thumb
 2022              		.thumb_func
 2023              		.type	LSM303AGR_MAG_W_SET_FREQ, %function
 2024              	LSM303AGR_MAG_W_SET_FREQ:
 2025              	.LFB33:
 2026              		.loc 1 766 0
 2027              		.cfi_startproc
 2028              		@ args = 0, pretend = 0, frame = 16
ARM GAS  /tmp/ccNUhamC.s 			page 37


 2029              		@ frame_needed = 0, uses_anonymous_args = 0
 2030 0b20 00B5     		push	{lr}
 2031              		.cfi_def_cfa_offset 4
 2032              		.cfi_offset 14, -4
 2033 0b22 85B0     		sub	sp, sp, #20
 2034              		.cfi_def_cfa_offset 24
 2035 0b24 0190     		str	r0, [sp, #4]
 2036 0b26 0B46     		mov	r3, r1
 2037 0b28 8DF80330 		strb	r3, [sp, #3]
 2038              		.loc 1 769 0
 2039 0b2c 0DF10F03 		add	r3, sp, #15
 2040 0b30 0198     		ldr	r0, [sp, #4]
 2041 0b32 6121     		movs	r1, #97
 2042 0b34 1A46     		mov	r2, r3
 2043 0b36 0123     		movs	r3, #1
 2044 0b38 FFF7FEFF 		bl	LSM303AGR_MAG_ReadReg
 2045 0b3c 0346     		mov	r3, r0
 2046 0b3e 002B     		cmp	r3, #0
 2047 0b40 01D1     		bne	.L126
 2048              		.loc 1 770 0
 2049 0b42 0023     		movs	r3, #0
 2050 0b44 1CE0     		b	.L129
 2051              	.L126:
 2052              		.loc 1 772 0
 2053 0b46 9DF80F30 		ldrb	r3, [sp, #15]	@ zero_extendqisi2
 2054 0b4a 23F00403 		bic	r3, r3, #4
 2055 0b4e DBB2     		uxtb	r3, r3
 2056 0b50 8DF80F30 		strb	r3, [sp, #15]
 2057              		.loc 1 773 0
 2058 0b54 9DF80F20 		ldrb	r2, [sp, #15]	@ zero_extendqisi2
 2059 0b58 9DF80330 		ldrb	r3, [sp, #3]
 2060 0b5c 1343     		orrs	r3, r3, r2
 2061 0b5e DBB2     		uxtb	r3, r3
 2062 0b60 8DF80F30 		strb	r3, [sp, #15]
 2063              		.loc 1 775 0
 2064 0b64 0DF10F03 		add	r3, sp, #15
 2065 0b68 0198     		ldr	r0, [sp, #4]
 2066 0b6a 6121     		movs	r1, #97
 2067 0b6c 1A46     		mov	r2, r3
 2068 0b6e 0123     		movs	r3, #1
 2069 0b70 FFF7FEFF 		bl	LSM303AGR_MAG_WriteReg
 2070 0b74 0346     		mov	r3, r0
 2071 0b76 002B     		cmp	r3, #0
 2072 0b78 01D1     		bne	.L128
 2073              		.loc 1 776 0
 2074 0b7a 0023     		movs	r3, #0
 2075 0b7c 00E0     		b	.L129
 2076              	.L128:
 2077              		.loc 1 778 0
 2078 0b7e 0123     		movs	r3, #1
 2079              	.L129:
 2080              		.loc 1 779 0
 2081 0b80 1846     		mov	r0, r3
 2082 0b82 05B0     		add	sp, sp, #20
 2083              		@ sp needed
 2084 0b84 5DF804FB 		ldr	pc, [sp], #4
 2085              		.cfi_endproc
ARM GAS  /tmp/ccNUhamC.s 			page 38


 2086              	.LFE33:
 2087              		.size	LSM303AGR_MAG_W_SET_FREQ, .-LSM303AGR_MAG_W_SET_FREQ
 2088              		.align	2
 2089 0b88 AFF30080 		.p2align 4,,15
 2089      AFF30080 
 2090              		.global	LSM303AGR_MAG_R_SET_FREQ
 2091              		.thumb
 2092              		.thumb_func
 2093              		.type	LSM303AGR_MAG_R_SET_FREQ, %function
 2094              	LSM303AGR_MAG_R_SET_FREQ:
 2095              	.LFB34:
 2096              		.loc 1 789 0
 2097              		.cfi_startproc
 2098              		@ args = 0, pretend = 0, frame = 8
 2099              		@ frame_needed = 0, uses_anonymous_args = 0
 2100 0b90 00B5     		push	{lr}
 2101              		.cfi_def_cfa_offset 4
 2102              		.cfi_offset 14, -4
 2103 0b92 83B0     		sub	sp, sp, #12
 2104              		.cfi_def_cfa_offset 16
 2105 0b94 0190     		str	r0, [sp, #4]
 2106 0b96 0091     		str	r1, [sp]
 2107              		.loc 1 790 0
 2108 0b98 0198     		ldr	r0, [sp, #4]
 2109 0b9a 6121     		movs	r1, #97
 2110 0b9c 009A     		ldr	r2, [sp]
 2111 0b9e 0123     		movs	r3, #1
 2112 0ba0 FFF7FEFF 		bl	LSM303AGR_MAG_ReadReg
 2113 0ba4 0346     		mov	r3, r0
 2114 0ba6 002B     		cmp	r3, #0
 2115 0ba8 01D1     		bne	.L131
 2116              		.loc 1 791 0
 2117 0baa 0023     		movs	r3, #0
 2118 0bac 07E0     		b	.L132
 2119              	.L131:
 2120              		.loc 1 793 0
 2121 0bae 009B     		ldr	r3, [sp]
 2122 0bb0 1B78     		ldrb	r3, [r3]	@ zero_extendqisi2
 2123 0bb2 03F00403 		and	r3, r3, #4
 2124 0bb6 DAB2     		uxtb	r2, r3
 2125 0bb8 009B     		ldr	r3, [sp]
 2126 0bba 1A70     		strb	r2, [r3]
 2127              		.loc 1 795 0
 2128 0bbc 0123     		movs	r3, #1
 2129              	.L132:
 2130              		.loc 1 796 0
 2131 0bbe 1846     		mov	r0, r3
 2132 0bc0 03B0     		add	sp, sp, #12
 2133              		@ sp needed
 2134 0bc2 5DF804FB 		ldr	pc, [sp], #4
 2135              		.cfi_endproc
 2136              	.LFE34:
 2137              		.size	LSM303AGR_MAG_R_SET_FREQ, .-LSM303AGR_MAG_R_SET_FREQ
 2138 0bc6 00BF     		.align	2
 2139 0bc8 AFF30080 		.p2align 4,,15
 2139      AFF30080 
 2140              		.global	LSM303AGR_MAG_W_INT_ON_DATAOFF
ARM GAS  /tmp/ccNUhamC.s 			page 39


 2141              		.thumb
 2142              		.thumb_func
 2143              		.type	LSM303AGR_MAG_W_INT_ON_DATAOFF, %function
 2144              	LSM303AGR_MAG_W_INT_ON_DATAOFF:
 2145              	.LFB35:
 2146              		.loc 1 806 0
 2147              		.cfi_startproc
 2148              		@ args = 0, pretend = 0, frame = 16
 2149              		@ frame_needed = 0, uses_anonymous_args = 0
 2150 0bd0 00B5     		push	{lr}
 2151              		.cfi_def_cfa_offset 4
 2152              		.cfi_offset 14, -4
 2153 0bd2 85B0     		sub	sp, sp, #20
 2154              		.cfi_def_cfa_offset 24
 2155 0bd4 0190     		str	r0, [sp, #4]
 2156 0bd6 0B46     		mov	r3, r1
 2157 0bd8 8DF80330 		strb	r3, [sp, #3]
 2158              		.loc 1 809 0
 2159 0bdc 0DF10F03 		add	r3, sp, #15
 2160 0be0 0198     		ldr	r0, [sp, #4]
 2161 0be2 6121     		movs	r1, #97
 2162 0be4 1A46     		mov	r2, r3
 2163 0be6 0123     		movs	r3, #1
 2164 0be8 FFF7FEFF 		bl	LSM303AGR_MAG_ReadReg
 2165 0bec 0346     		mov	r3, r0
 2166 0bee 002B     		cmp	r3, #0
 2167 0bf0 01D1     		bne	.L134
 2168              		.loc 1 810 0
 2169 0bf2 0023     		movs	r3, #0
 2170 0bf4 1CE0     		b	.L137
 2171              	.L134:
 2172              		.loc 1 812 0
 2173 0bf6 9DF80F30 		ldrb	r3, [sp, #15]	@ zero_extendqisi2
 2174 0bfa 23F00803 		bic	r3, r3, #8
 2175 0bfe DBB2     		uxtb	r3, r3
 2176 0c00 8DF80F30 		strb	r3, [sp, #15]
 2177              		.loc 1 813 0
 2178 0c04 9DF80F20 		ldrb	r2, [sp, #15]	@ zero_extendqisi2
 2179 0c08 9DF80330 		ldrb	r3, [sp, #3]
 2180 0c0c 1343     		orrs	r3, r3, r2
 2181 0c0e DBB2     		uxtb	r3, r3
 2182 0c10 8DF80F30 		strb	r3, [sp, #15]
 2183              		.loc 1 815 0
 2184 0c14 0DF10F03 		add	r3, sp, #15
 2185 0c18 0198     		ldr	r0, [sp, #4]
 2186 0c1a 6121     		movs	r1, #97
 2187 0c1c 1A46     		mov	r2, r3
 2188 0c1e 0123     		movs	r3, #1
 2189 0c20 FFF7FEFF 		bl	LSM303AGR_MAG_WriteReg
 2190 0c24 0346     		mov	r3, r0
 2191 0c26 002B     		cmp	r3, #0
 2192 0c28 01D1     		bne	.L136
 2193              		.loc 1 816 0
 2194 0c2a 0023     		movs	r3, #0
 2195 0c2c 00E0     		b	.L137
 2196              	.L136:
 2197              		.loc 1 818 0
ARM GAS  /tmp/ccNUhamC.s 			page 40


 2198 0c2e 0123     		movs	r3, #1
 2199              	.L137:
 2200              		.loc 1 819 0
 2201 0c30 1846     		mov	r0, r3
 2202 0c32 05B0     		add	sp, sp, #20
 2203              		@ sp needed
 2204 0c34 5DF804FB 		ldr	pc, [sp], #4
 2205              		.cfi_endproc
 2206              	.LFE35:
 2207              		.size	LSM303AGR_MAG_W_INT_ON_DATAOFF, .-LSM303AGR_MAG_W_INT_ON_DATAOFF
 2208              		.align	2
 2209 0c38 AFF30080 		.p2align 4,,15
 2209      AFF30080 
 2210              		.global	LSM303AGR_MAG_R_INT_ON_DATAOFF
 2211              		.thumb
 2212              		.thumb_func
 2213              		.type	LSM303AGR_MAG_R_INT_ON_DATAOFF, %function
 2214              	LSM303AGR_MAG_R_INT_ON_DATAOFF:
 2215              	.LFB36:
 2216              		.loc 1 829 0
 2217              		.cfi_startproc
 2218              		@ args = 0, pretend = 0, frame = 8
 2219              		@ frame_needed = 0, uses_anonymous_args = 0
 2220 0c40 00B5     		push	{lr}
 2221              		.cfi_def_cfa_offset 4
 2222              		.cfi_offset 14, -4
 2223 0c42 83B0     		sub	sp, sp, #12
 2224              		.cfi_def_cfa_offset 16
 2225 0c44 0190     		str	r0, [sp, #4]
 2226 0c46 0091     		str	r1, [sp]
 2227              		.loc 1 830 0
 2228 0c48 0198     		ldr	r0, [sp, #4]
 2229 0c4a 6121     		movs	r1, #97
 2230 0c4c 009A     		ldr	r2, [sp]
 2231 0c4e 0123     		movs	r3, #1
 2232 0c50 FFF7FEFF 		bl	LSM303AGR_MAG_ReadReg
 2233 0c54 0346     		mov	r3, r0
 2234 0c56 002B     		cmp	r3, #0
 2235 0c58 01D1     		bne	.L139
 2236              		.loc 1 831 0
 2237 0c5a 0023     		movs	r3, #0
 2238 0c5c 07E0     		b	.L140
 2239              	.L139:
 2240              		.loc 1 833 0
 2241 0c5e 009B     		ldr	r3, [sp]
 2242 0c60 1B78     		ldrb	r3, [r3]	@ zero_extendqisi2
 2243 0c62 03F00803 		and	r3, r3, #8
 2244 0c66 DAB2     		uxtb	r2, r3
 2245 0c68 009B     		ldr	r3, [sp]
 2246 0c6a 1A70     		strb	r2, [r3]
 2247              		.loc 1 835 0
 2248 0c6c 0123     		movs	r3, #1
 2249              	.L140:
 2250              		.loc 1 836 0
 2251 0c6e 1846     		mov	r0, r3
 2252 0c70 03B0     		add	sp, sp, #12
 2253              		@ sp needed
ARM GAS  /tmp/ccNUhamC.s 			page 41


 2254 0c72 5DF804FB 		ldr	pc, [sp], #4
 2255              		.cfi_endproc
 2256              	.LFE36:
 2257              		.size	LSM303AGR_MAG_R_INT_ON_DATAOFF, .-LSM303AGR_MAG_R_INT_ON_DATAOFF
 2258 0c76 00BF     		.align	2
 2259 0c78 AFF30080 		.p2align 4,,15
 2259      AFF30080 
 2260              		.global	LSM303AGR_MAG_W_INT_MAG
 2261              		.thumb
 2262              		.thumb_func
 2263              		.type	LSM303AGR_MAG_W_INT_MAG, %function
 2264              	LSM303AGR_MAG_W_INT_MAG:
 2265              	.LFB37:
 2266              		.loc 1 846 0
 2267              		.cfi_startproc
 2268              		@ args = 0, pretend = 0, frame = 16
 2269              		@ frame_needed = 0, uses_anonymous_args = 0
 2270 0c80 00B5     		push	{lr}
 2271              		.cfi_def_cfa_offset 4
 2272              		.cfi_offset 14, -4
 2273 0c82 85B0     		sub	sp, sp, #20
 2274              		.cfi_def_cfa_offset 24
 2275 0c84 0190     		str	r0, [sp, #4]
 2276 0c86 0B46     		mov	r3, r1
 2277 0c88 8DF80330 		strb	r3, [sp, #3]
 2278              		.loc 1 849 0
 2279 0c8c 0DF10F03 		add	r3, sp, #15
 2280 0c90 0198     		ldr	r0, [sp, #4]
 2281 0c92 6221     		movs	r1, #98
 2282 0c94 1A46     		mov	r2, r3
 2283 0c96 0123     		movs	r3, #1
 2284 0c98 FFF7FEFF 		bl	LSM303AGR_MAG_ReadReg
 2285 0c9c 0346     		mov	r3, r0
 2286 0c9e 002B     		cmp	r3, #0
 2287 0ca0 01D1     		bne	.L142
 2288              		.loc 1 850 0
 2289 0ca2 0023     		movs	r3, #0
 2290 0ca4 1CE0     		b	.L145
 2291              	.L142:
 2292              		.loc 1 852 0
 2293 0ca6 9DF80F30 		ldrb	r3, [sp, #15]	@ zero_extendqisi2
 2294 0caa 23F00103 		bic	r3, r3, #1
 2295 0cae DBB2     		uxtb	r3, r3
 2296 0cb0 8DF80F30 		strb	r3, [sp, #15]
 2297              		.loc 1 853 0
 2298 0cb4 9DF80F20 		ldrb	r2, [sp, #15]	@ zero_extendqisi2
 2299 0cb8 9DF80330 		ldrb	r3, [sp, #3]
 2300 0cbc 1343     		orrs	r3, r3, r2
 2301 0cbe DBB2     		uxtb	r3, r3
 2302 0cc0 8DF80F30 		strb	r3, [sp, #15]
 2303              		.loc 1 855 0
 2304 0cc4 0DF10F03 		add	r3, sp, #15
 2305 0cc8 0198     		ldr	r0, [sp, #4]
 2306 0cca 6221     		movs	r1, #98
 2307 0ccc 1A46     		mov	r2, r3
 2308 0cce 0123     		movs	r3, #1
 2309 0cd0 FFF7FEFF 		bl	LSM303AGR_MAG_WriteReg
ARM GAS  /tmp/ccNUhamC.s 			page 42


 2310 0cd4 0346     		mov	r3, r0
 2311 0cd6 002B     		cmp	r3, #0
 2312 0cd8 01D1     		bne	.L144
 2313              		.loc 1 856 0
 2314 0cda 0023     		movs	r3, #0
 2315 0cdc 00E0     		b	.L145
 2316              	.L144:
 2317              		.loc 1 858 0
 2318 0cde 0123     		movs	r3, #1
 2319              	.L145:
 2320              		.loc 1 859 0
 2321 0ce0 1846     		mov	r0, r3
 2322 0ce2 05B0     		add	sp, sp, #20
 2323              		@ sp needed
 2324 0ce4 5DF804FB 		ldr	pc, [sp], #4
 2325              		.cfi_endproc
 2326              	.LFE37:
 2327              		.size	LSM303AGR_MAG_W_INT_MAG, .-LSM303AGR_MAG_W_INT_MAG
 2328              		.align	2
 2329 0ce8 AFF30080 		.p2align 4,,15
 2329      AFF30080 
 2330              		.global	LSM303AGR_MAG_R_INT_MAG
 2331              		.thumb
 2332              		.thumb_func
 2333              		.type	LSM303AGR_MAG_R_INT_MAG, %function
 2334              	LSM303AGR_MAG_R_INT_MAG:
 2335              	.LFB38:
 2336              		.loc 1 869 0
 2337              		.cfi_startproc
 2338              		@ args = 0, pretend = 0, frame = 8
 2339              		@ frame_needed = 0, uses_anonymous_args = 0
 2340 0cf0 00B5     		push	{lr}
 2341              		.cfi_def_cfa_offset 4
 2342              		.cfi_offset 14, -4
 2343 0cf2 83B0     		sub	sp, sp, #12
 2344              		.cfi_def_cfa_offset 16
 2345 0cf4 0190     		str	r0, [sp, #4]
 2346 0cf6 0091     		str	r1, [sp]
 2347              		.loc 1 870 0
 2348 0cf8 0198     		ldr	r0, [sp, #4]
 2349 0cfa 6221     		movs	r1, #98
 2350 0cfc 009A     		ldr	r2, [sp]
 2351 0cfe 0123     		movs	r3, #1
 2352 0d00 FFF7FEFF 		bl	LSM303AGR_MAG_ReadReg
 2353 0d04 0346     		mov	r3, r0
 2354 0d06 002B     		cmp	r3, #0
 2355 0d08 01D1     		bne	.L147
 2356              		.loc 1 871 0
 2357 0d0a 0023     		movs	r3, #0
 2358 0d0c 07E0     		b	.L148
 2359              	.L147:
 2360              		.loc 1 873 0
 2361 0d0e 009B     		ldr	r3, [sp]
 2362 0d10 1B78     		ldrb	r3, [r3]	@ zero_extendqisi2
 2363 0d12 03F00103 		and	r3, r3, #1
 2364 0d16 DAB2     		uxtb	r2, r3
 2365 0d18 009B     		ldr	r3, [sp]
ARM GAS  /tmp/ccNUhamC.s 			page 43


 2366 0d1a 1A70     		strb	r2, [r3]
 2367              		.loc 1 875 0
 2368 0d1c 0123     		movs	r3, #1
 2369              	.L148:
 2370              		.loc 1 876 0
 2371 0d1e 1846     		mov	r0, r3
 2372 0d20 03B0     		add	sp, sp, #12
 2373              		@ sp needed
 2374 0d22 5DF804FB 		ldr	pc, [sp], #4
 2375              		.cfi_endproc
 2376              	.LFE38:
 2377              		.size	LSM303AGR_MAG_R_INT_MAG, .-LSM303AGR_MAG_R_INT_MAG
 2378 0d26 00BF     		.align	2
 2379 0d28 AFF30080 		.p2align 4,,15
 2379      AFF30080 
 2380              		.global	LSM303AGR_MAG_W_ST
 2381              		.thumb
 2382              		.thumb_func
 2383              		.type	LSM303AGR_MAG_W_ST, %function
 2384              	LSM303AGR_MAG_W_ST:
 2385              	.LFB39:
 2386              		.loc 1 886 0
 2387              		.cfi_startproc
 2388              		@ args = 0, pretend = 0, frame = 16
 2389              		@ frame_needed = 0, uses_anonymous_args = 0
 2390 0d30 00B5     		push	{lr}
 2391              		.cfi_def_cfa_offset 4
 2392              		.cfi_offset 14, -4
 2393 0d32 85B0     		sub	sp, sp, #20
 2394              		.cfi_def_cfa_offset 24
 2395 0d34 0190     		str	r0, [sp, #4]
 2396 0d36 0B46     		mov	r3, r1
 2397 0d38 8DF80330 		strb	r3, [sp, #3]
 2398              		.loc 1 889 0
 2399 0d3c 0DF10F03 		add	r3, sp, #15
 2400 0d40 0198     		ldr	r0, [sp, #4]
 2401 0d42 6221     		movs	r1, #98
 2402 0d44 1A46     		mov	r2, r3
 2403 0d46 0123     		movs	r3, #1
 2404 0d48 FFF7FEFF 		bl	LSM303AGR_MAG_ReadReg
 2405 0d4c 0346     		mov	r3, r0
 2406 0d4e 002B     		cmp	r3, #0
 2407 0d50 01D1     		bne	.L150
 2408              		.loc 1 890 0
 2409 0d52 0023     		movs	r3, #0
 2410 0d54 1CE0     		b	.L153
 2411              	.L150:
 2412              		.loc 1 892 0
 2413 0d56 9DF80F30 		ldrb	r3, [sp, #15]	@ zero_extendqisi2
 2414 0d5a 23F00203 		bic	r3, r3, #2
 2415 0d5e DBB2     		uxtb	r3, r3
 2416 0d60 8DF80F30 		strb	r3, [sp, #15]
 2417              		.loc 1 893 0
 2418 0d64 9DF80F20 		ldrb	r2, [sp, #15]	@ zero_extendqisi2
 2419 0d68 9DF80330 		ldrb	r3, [sp, #3]
 2420 0d6c 1343     		orrs	r3, r3, r2
 2421 0d6e DBB2     		uxtb	r3, r3
ARM GAS  /tmp/ccNUhamC.s 			page 44


 2422 0d70 8DF80F30 		strb	r3, [sp, #15]
 2423              		.loc 1 895 0
 2424 0d74 0DF10F03 		add	r3, sp, #15
 2425 0d78 0198     		ldr	r0, [sp, #4]
 2426 0d7a 6221     		movs	r1, #98
 2427 0d7c 1A46     		mov	r2, r3
 2428 0d7e 0123     		movs	r3, #1
 2429 0d80 FFF7FEFF 		bl	LSM303AGR_MAG_WriteReg
 2430 0d84 0346     		mov	r3, r0
 2431 0d86 002B     		cmp	r3, #0
 2432 0d88 01D1     		bne	.L152
 2433              		.loc 1 896 0
 2434 0d8a 0023     		movs	r3, #0
 2435 0d8c 00E0     		b	.L153
 2436              	.L152:
 2437              		.loc 1 898 0
 2438 0d8e 0123     		movs	r3, #1
 2439              	.L153:
 2440              		.loc 1 899 0
 2441 0d90 1846     		mov	r0, r3
 2442 0d92 05B0     		add	sp, sp, #20
 2443              		@ sp needed
 2444 0d94 5DF804FB 		ldr	pc, [sp], #4
 2445              		.cfi_endproc
 2446              	.LFE39:
 2447              		.size	LSM303AGR_MAG_W_ST, .-LSM303AGR_MAG_W_ST
 2448              		.align	2
 2449 0d98 AFF30080 		.p2align 4,,15
 2449      AFF30080 
 2450              		.global	LSM303AGR_MAG_R_ST
 2451              		.thumb
 2452              		.thumb_func
 2453              		.type	LSM303AGR_MAG_R_ST, %function
 2454              	LSM303AGR_MAG_R_ST:
 2455              	.LFB40:
 2456              		.loc 1 909 0
 2457              		.cfi_startproc
 2458              		@ args = 0, pretend = 0, frame = 8
 2459              		@ frame_needed = 0, uses_anonymous_args = 0
 2460 0da0 00B5     		push	{lr}
 2461              		.cfi_def_cfa_offset 4
 2462              		.cfi_offset 14, -4
 2463 0da2 83B0     		sub	sp, sp, #12
 2464              		.cfi_def_cfa_offset 16
 2465 0da4 0190     		str	r0, [sp, #4]
 2466 0da6 0091     		str	r1, [sp]
 2467              		.loc 1 910 0
 2468 0da8 0198     		ldr	r0, [sp, #4]
 2469 0daa 6221     		movs	r1, #98
 2470 0dac 009A     		ldr	r2, [sp]
 2471 0dae 0123     		movs	r3, #1
 2472 0db0 FFF7FEFF 		bl	LSM303AGR_MAG_ReadReg
 2473 0db4 0346     		mov	r3, r0
 2474 0db6 002B     		cmp	r3, #0
 2475 0db8 01D1     		bne	.L155
 2476              		.loc 1 911 0
 2477 0dba 0023     		movs	r3, #0
ARM GAS  /tmp/ccNUhamC.s 			page 45


 2478 0dbc 07E0     		b	.L156
 2479              	.L155:
 2480              		.loc 1 913 0
 2481 0dbe 009B     		ldr	r3, [sp]
 2482 0dc0 1B78     		ldrb	r3, [r3]	@ zero_extendqisi2
 2483 0dc2 03F00203 		and	r3, r3, #2
 2484 0dc6 DAB2     		uxtb	r2, r3
 2485 0dc8 009B     		ldr	r3, [sp]
 2486 0dca 1A70     		strb	r2, [r3]
 2487              		.loc 1 915 0
 2488 0dcc 0123     		movs	r3, #1
 2489              	.L156:
 2490              		.loc 1 916 0
 2491 0dce 1846     		mov	r0, r3
 2492 0dd0 03B0     		add	sp, sp, #12
 2493              		@ sp needed
 2494 0dd2 5DF804FB 		ldr	pc, [sp], #4
 2495              		.cfi_endproc
 2496              	.LFE40:
 2497              		.size	LSM303AGR_MAG_R_ST, .-LSM303AGR_MAG_R_ST
 2498 0dd6 00BF     		.align	2
 2499 0dd8 AFF30080 		.p2align 4,,15
 2499      AFF30080 
 2500              		.global	LSM303AGR_MAG_W_BLE
 2501              		.thumb
 2502              		.thumb_func
 2503              		.type	LSM303AGR_MAG_W_BLE, %function
 2504              	LSM303AGR_MAG_W_BLE:
 2505              	.LFB41:
 2506              		.loc 1 926 0
 2507              		.cfi_startproc
 2508              		@ args = 0, pretend = 0, frame = 16
 2509              		@ frame_needed = 0, uses_anonymous_args = 0
 2510 0de0 00B5     		push	{lr}
 2511              		.cfi_def_cfa_offset 4
 2512              		.cfi_offset 14, -4
 2513 0de2 85B0     		sub	sp, sp, #20
 2514              		.cfi_def_cfa_offset 24
 2515 0de4 0190     		str	r0, [sp, #4]
 2516 0de6 0B46     		mov	r3, r1
 2517 0de8 8DF80330 		strb	r3, [sp, #3]
 2518              		.loc 1 929 0
 2519 0dec 0DF10F03 		add	r3, sp, #15
 2520 0df0 0198     		ldr	r0, [sp, #4]
 2521 0df2 6221     		movs	r1, #98
 2522 0df4 1A46     		mov	r2, r3
 2523 0df6 0123     		movs	r3, #1
 2524 0df8 FFF7FEFF 		bl	LSM303AGR_MAG_ReadReg
 2525 0dfc 0346     		mov	r3, r0
 2526 0dfe 002B     		cmp	r3, #0
 2527 0e00 01D1     		bne	.L158
 2528              		.loc 1 930 0
 2529 0e02 0023     		movs	r3, #0
 2530 0e04 1CE0     		b	.L161
 2531              	.L158:
 2532              		.loc 1 932 0
 2533 0e06 9DF80F30 		ldrb	r3, [sp, #15]	@ zero_extendqisi2
ARM GAS  /tmp/ccNUhamC.s 			page 46


 2534 0e0a 23F00803 		bic	r3, r3, #8
 2535 0e0e DBB2     		uxtb	r3, r3
 2536 0e10 8DF80F30 		strb	r3, [sp, #15]
 2537              		.loc 1 933 0
 2538 0e14 9DF80F20 		ldrb	r2, [sp, #15]	@ zero_extendqisi2
 2539 0e18 9DF80330 		ldrb	r3, [sp, #3]
 2540 0e1c 1343     		orrs	r3, r3, r2
 2541 0e1e DBB2     		uxtb	r3, r3
 2542 0e20 8DF80F30 		strb	r3, [sp, #15]
 2543              		.loc 1 935 0
 2544 0e24 0DF10F03 		add	r3, sp, #15
 2545 0e28 0198     		ldr	r0, [sp, #4]
 2546 0e2a 6221     		movs	r1, #98
 2547 0e2c 1A46     		mov	r2, r3
 2548 0e2e 0123     		movs	r3, #1
 2549 0e30 FFF7FEFF 		bl	LSM303AGR_MAG_WriteReg
 2550 0e34 0346     		mov	r3, r0
 2551 0e36 002B     		cmp	r3, #0
 2552 0e38 01D1     		bne	.L160
 2553              		.loc 1 936 0
 2554 0e3a 0023     		movs	r3, #0
 2555 0e3c 00E0     		b	.L161
 2556              	.L160:
 2557              		.loc 1 938 0
 2558 0e3e 0123     		movs	r3, #1
 2559              	.L161:
 2560              		.loc 1 939 0
 2561 0e40 1846     		mov	r0, r3
 2562 0e42 05B0     		add	sp, sp, #20
 2563              		@ sp needed
 2564 0e44 5DF804FB 		ldr	pc, [sp], #4
 2565              		.cfi_endproc
 2566              	.LFE41:
 2567              		.size	LSM303AGR_MAG_W_BLE, .-LSM303AGR_MAG_W_BLE
 2568              		.align	2
 2569 0e48 AFF30080 		.p2align 4,,15
 2569      AFF30080 
 2570              		.global	LSM303AGR_MAG_R_BLE
 2571              		.thumb
 2572              		.thumb_func
 2573              		.type	LSM303AGR_MAG_R_BLE, %function
 2574              	LSM303AGR_MAG_R_BLE:
 2575              	.LFB42:
 2576              		.loc 1 949 0
 2577              		.cfi_startproc
 2578              		@ args = 0, pretend = 0, frame = 8
 2579              		@ frame_needed = 0, uses_anonymous_args = 0
 2580 0e50 00B5     		push	{lr}
 2581              		.cfi_def_cfa_offset 4
 2582              		.cfi_offset 14, -4
 2583 0e52 83B0     		sub	sp, sp, #12
 2584              		.cfi_def_cfa_offset 16
 2585 0e54 0190     		str	r0, [sp, #4]
 2586 0e56 0091     		str	r1, [sp]
 2587              		.loc 1 950 0
 2588 0e58 0198     		ldr	r0, [sp, #4]
 2589 0e5a 6221     		movs	r1, #98
ARM GAS  /tmp/ccNUhamC.s 			page 47


 2590 0e5c 009A     		ldr	r2, [sp]
 2591 0e5e 0123     		movs	r3, #1
 2592 0e60 FFF7FEFF 		bl	LSM303AGR_MAG_ReadReg
 2593 0e64 0346     		mov	r3, r0
 2594 0e66 002B     		cmp	r3, #0
 2595 0e68 01D1     		bne	.L163
 2596              		.loc 1 951 0
 2597 0e6a 0023     		movs	r3, #0
 2598 0e6c 07E0     		b	.L164
 2599              	.L163:
 2600              		.loc 1 953 0
 2601 0e6e 009B     		ldr	r3, [sp]
 2602 0e70 1B78     		ldrb	r3, [r3]	@ zero_extendqisi2
 2603 0e72 03F00803 		and	r3, r3, #8
 2604 0e76 DAB2     		uxtb	r2, r3
 2605 0e78 009B     		ldr	r3, [sp]
 2606 0e7a 1A70     		strb	r2, [r3]
 2607              		.loc 1 955 0
 2608 0e7c 0123     		movs	r3, #1
 2609              	.L164:
 2610              		.loc 1 956 0
 2611 0e7e 1846     		mov	r0, r3
 2612 0e80 03B0     		add	sp, sp, #12
 2613              		@ sp needed
 2614 0e82 5DF804FB 		ldr	pc, [sp], #4
 2615              		.cfi_endproc
 2616              	.LFE42:
 2617              		.size	LSM303AGR_MAG_R_BLE, .-LSM303AGR_MAG_R_BLE
 2618 0e86 00BF     		.align	2
 2619 0e88 AFF30080 		.p2align 4,,15
 2619      AFF30080 
 2620              		.global	LSM303AGR_MAG_W_I2C_DIS
 2621              		.thumb
 2622              		.thumb_func
 2623              		.type	LSM303AGR_MAG_W_I2C_DIS, %function
 2624              	LSM303AGR_MAG_W_I2C_DIS:
 2625              	.LFB43:
 2626              		.loc 1 966 0
 2627              		.cfi_startproc
 2628              		@ args = 0, pretend = 0, frame = 16
 2629              		@ frame_needed = 0, uses_anonymous_args = 0
 2630 0e90 00B5     		push	{lr}
 2631              		.cfi_def_cfa_offset 4
 2632              		.cfi_offset 14, -4
 2633 0e92 85B0     		sub	sp, sp, #20
 2634              		.cfi_def_cfa_offset 24
 2635 0e94 0190     		str	r0, [sp, #4]
 2636 0e96 0B46     		mov	r3, r1
 2637 0e98 8DF80330 		strb	r3, [sp, #3]
 2638              		.loc 1 969 0
 2639 0e9c 0DF10F03 		add	r3, sp, #15
 2640 0ea0 0198     		ldr	r0, [sp, #4]
 2641 0ea2 6221     		movs	r1, #98
 2642 0ea4 1A46     		mov	r2, r3
 2643 0ea6 0123     		movs	r3, #1
 2644 0ea8 FFF7FEFF 		bl	LSM303AGR_MAG_ReadReg
 2645 0eac 0346     		mov	r3, r0
ARM GAS  /tmp/ccNUhamC.s 			page 48


 2646 0eae 002B     		cmp	r3, #0
 2647 0eb0 01D1     		bne	.L166
 2648              		.loc 1 970 0
 2649 0eb2 0023     		movs	r3, #0
 2650 0eb4 1CE0     		b	.L169
 2651              	.L166:
 2652              		.loc 1 972 0
 2653 0eb6 9DF80F30 		ldrb	r3, [sp, #15]	@ zero_extendqisi2
 2654 0eba 23F02003 		bic	r3, r3, #32
 2655 0ebe DBB2     		uxtb	r3, r3
 2656 0ec0 8DF80F30 		strb	r3, [sp, #15]
 2657              		.loc 1 973 0
 2658 0ec4 9DF80F20 		ldrb	r2, [sp, #15]	@ zero_extendqisi2
 2659 0ec8 9DF80330 		ldrb	r3, [sp, #3]
 2660 0ecc 1343     		orrs	r3, r3, r2
 2661 0ece DBB2     		uxtb	r3, r3
 2662 0ed0 8DF80F30 		strb	r3, [sp, #15]
 2663              		.loc 1 975 0
 2664 0ed4 0DF10F03 		add	r3, sp, #15
 2665 0ed8 0198     		ldr	r0, [sp, #4]
 2666 0eda 6221     		movs	r1, #98
 2667 0edc 1A46     		mov	r2, r3
 2668 0ede 0123     		movs	r3, #1
 2669 0ee0 FFF7FEFF 		bl	LSM303AGR_MAG_WriteReg
 2670 0ee4 0346     		mov	r3, r0
 2671 0ee6 002B     		cmp	r3, #0
 2672 0ee8 01D1     		bne	.L168
 2673              		.loc 1 976 0
 2674 0eea 0023     		movs	r3, #0
 2675 0eec 00E0     		b	.L169
 2676              	.L168:
 2677              		.loc 1 978 0
 2678 0eee 0123     		movs	r3, #1
 2679              	.L169:
 2680              		.loc 1 979 0
 2681 0ef0 1846     		mov	r0, r3
 2682 0ef2 05B0     		add	sp, sp, #20
 2683              		@ sp needed
 2684 0ef4 5DF804FB 		ldr	pc, [sp], #4
 2685              		.cfi_endproc
 2686              	.LFE43:
 2687              		.size	LSM303AGR_MAG_W_I2C_DIS, .-LSM303AGR_MAG_W_I2C_DIS
 2688              		.align	2
 2689 0ef8 AFF30080 		.p2align 4,,15
 2689      AFF30080 
 2690              		.global	LSM303AGR_MAG_R_I2C_DIS
 2691              		.thumb
 2692              		.thumb_func
 2693              		.type	LSM303AGR_MAG_R_I2C_DIS, %function
 2694              	LSM303AGR_MAG_R_I2C_DIS:
 2695              	.LFB44:
 2696              		.loc 1 989 0
 2697              		.cfi_startproc
 2698              		@ args = 0, pretend = 0, frame = 8
 2699              		@ frame_needed = 0, uses_anonymous_args = 0
 2700 0f00 00B5     		push	{lr}
 2701              		.cfi_def_cfa_offset 4
ARM GAS  /tmp/ccNUhamC.s 			page 49


 2702              		.cfi_offset 14, -4
 2703 0f02 83B0     		sub	sp, sp, #12
 2704              		.cfi_def_cfa_offset 16
 2705 0f04 0190     		str	r0, [sp, #4]
 2706 0f06 0091     		str	r1, [sp]
 2707              		.loc 1 990 0
 2708 0f08 0198     		ldr	r0, [sp, #4]
 2709 0f0a 6221     		movs	r1, #98
 2710 0f0c 009A     		ldr	r2, [sp]
 2711 0f0e 0123     		movs	r3, #1
 2712 0f10 FFF7FEFF 		bl	LSM303AGR_MAG_ReadReg
 2713 0f14 0346     		mov	r3, r0
 2714 0f16 002B     		cmp	r3, #0
 2715 0f18 01D1     		bne	.L171
 2716              		.loc 1 991 0
 2717 0f1a 0023     		movs	r3, #0
 2718 0f1c 07E0     		b	.L172
 2719              	.L171:
 2720              		.loc 1 993 0
 2721 0f1e 009B     		ldr	r3, [sp]
 2722 0f20 1B78     		ldrb	r3, [r3]	@ zero_extendqisi2
 2723 0f22 03F02003 		and	r3, r3, #32
 2724 0f26 DAB2     		uxtb	r2, r3
 2725 0f28 009B     		ldr	r3, [sp]
 2726 0f2a 1A70     		strb	r2, [r3]
 2727              		.loc 1 995 0
 2728 0f2c 0123     		movs	r3, #1
 2729              	.L172:
 2730              		.loc 1 996 0
 2731 0f2e 1846     		mov	r0, r3
 2732 0f30 03B0     		add	sp, sp, #12
 2733              		@ sp needed
 2734 0f32 5DF804FB 		ldr	pc, [sp], #4
 2735              		.cfi_endproc
 2736              	.LFE44:
 2737              		.size	LSM303AGR_MAG_R_I2C_DIS, .-LSM303AGR_MAG_R_I2C_DIS
 2738 0f36 00BF     		.align	2
 2739 0f38 AFF30080 		.p2align 4,,15
 2739      AFF30080 
 2740              		.global	LSM303AGR_MAG_W_INT_MAG_PIN
 2741              		.thumb
 2742              		.thumb_func
 2743              		.type	LSM303AGR_MAG_W_INT_MAG_PIN, %function
 2744              	LSM303AGR_MAG_W_INT_MAG_PIN:
 2745              	.LFB45:
 2746              		.loc 1 1006 0
 2747              		.cfi_startproc
 2748              		@ args = 0, pretend = 0, frame = 16
 2749              		@ frame_needed = 0, uses_anonymous_args = 0
 2750 0f40 00B5     		push	{lr}
 2751              		.cfi_def_cfa_offset 4
 2752              		.cfi_offset 14, -4
 2753 0f42 85B0     		sub	sp, sp, #20
 2754              		.cfi_def_cfa_offset 24
 2755 0f44 0190     		str	r0, [sp, #4]
 2756 0f46 0B46     		mov	r3, r1
 2757 0f48 8DF80330 		strb	r3, [sp, #3]
ARM GAS  /tmp/ccNUhamC.s 			page 50


 2758              		.loc 1 1009 0
 2759 0f4c 0DF10F03 		add	r3, sp, #15
 2760 0f50 0198     		ldr	r0, [sp, #4]
 2761 0f52 6221     		movs	r1, #98
 2762 0f54 1A46     		mov	r2, r3
 2763 0f56 0123     		movs	r3, #1
 2764 0f58 FFF7FEFF 		bl	LSM303AGR_MAG_ReadReg
 2765 0f5c 0346     		mov	r3, r0
 2766 0f5e 002B     		cmp	r3, #0
 2767 0f60 01D1     		bne	.L174
 2768              		.loc 1 1010 0
 2769 0f62 0023     		movs	r3, #0
 2770 0f64 1CE0     		b	.L177
 2771              	.L174:
 2772              		.loc 1 1012 0
 2773 0f66 9DF80F30 		ldrb	r3, [sp, #15]	@ zero_extendqisi2
 2774 0f6a 23F04003 		bic	r3, r3, #64
 2775 0f6e DBB2     		uxtb	r3, r3
 2776 0f70 8DF80F30 		strb	r3, [sp, #15]
 2777              		.loc 1 1013 0
 2778 0f74 9DF80F20 		ldrb	r2, [sp, #15]	@ zero_extendqisi2
 2779 0f78 9DF80330 		ldrb	r3, [sp, #3]
 2780 0f7c 1343     		orrs	r3, r3, r2
 2781 0f7e DBB2     		uxtb	r3, r3
 2782 0f80 8DF80F30 		strb	r3, [sp, #15]
 2783              		.loc 1 1015 0
 2784 0f84 0DF10F03 		add	r3, sp, #15
 2785 0f88 0198     		ldr	r0, [sp, #4]
 2786 0f8a 6221     		movs	r1, #98
 2787 0f8c 1A46     		mov	r2, r3
 2788 0f8e 0123     		movs	r3, #1
 2789 0f90 FFF7FEFF 		bl	LSM303AGR_MAG_WriteReg
 2790 0f94 0346     		mov	r3, r0
 2791 0f96 002B     		cmp	r3, #0
 2792 0f98 01D1     		bne	.L176
 2793              		.loc 1 1016 0
 2794 0f9a 0023     		movs	r3, #0
 2795 0f9c 00E0     		b	.L177
 2796              	.L176:
 2797              		.loc 1 1018 0
 2798 0f9e 0123     		movs	r3, #1
 2799              	.L177:
 2800              		.loc 1 1019 0
 2801 0fa0 1846     		mov	r0, r3
 2802 0fa2 05B0     		add	sp, sp, #20
 2803              		@ sp needed
 2804 0fa4 5DF804FB 		ldr	pc, [sp], #4
 2805              		.cfi_endproc
 2806              	.LFE45:
 2807              		.size	LSM303AGR_MAG_W_INT_MAG_PIN, .-LSM303AGR_MAG_W_INT_MAG_PIN
 2808              		.align	2
 2809 0fa8 AFF30080 		.p2align 4,,15
 2809      AFF30080 
 2810              		.global	LSM303AGR_MAG_R_INT_MAG_PIN
 2811              		.thumb
 2812              		.thumb_func
 2813              		.type	LSM303AGR_MAG_R_INT_MAG_PIN, %function
ARM GAS  /tmp/ccNUhamC.s 			page 51


 2814              	LSM303AGR_MAG_R_INT_MAG_PIN:
 2815              	.LFB46:
 2816              		.loc 1 1029 0
 2817              		.cfi_startproc
 2818              		@ args = 0, pretend = 0, frame = 8
 2819              		@ frame_needed = 0, uses_anonymous_args = 0
 2820 0fb0 00B5     		push	{lr}
 2821              		.cfi_def_cfa_offset 4
 2822              		.cfi_offset 14, -4
 2823 0fb2 83B0     		sub	sp, sp, #12
 2824              		.cfi_def_cfa_offset 16
 2825 0fb4 0190     		str	r0, [sp, #4]
 2826 0fb6 0091     		str	r1, [sp]
 2827              		.loc 1 1030 0
 2828 0fb8 0198     		ldr	r0, [sp, #4]
 2829 0fba 6221     		movs	r1, #98
 2830 0fbc 009A     		ldr	r2, [sp]
 2831 0fbe 0123     		movs	r3, #1
 2832 0fc0 FFF7FEFF 		bl	LSM303AGR_MAG_ReadReg
 2833 0fc4 0346     		mov	r3, r0
 2834 0fc6 002B     		cmp	r3, #0
 2835 0fc8 01D1     		bne	.L179
 2836              		.loc 1 1031 0
 2837 0fca 0023     		movs	r3, #0
 2838 0fcc 07E0     		b	.L180
 2839              	.L179:
 2840              		.loc 1 1033 0
 2841 0fce 009B     		ldr	r3, [sp]
 2842 0fd0 1B78     		ldrb	r3, [r3]	@ zero_extendqisi2
 2843 0fd2 03F04003 		and	r3, r3, #64
 2844 0fd6 DAB2     		uxtb	r2, r3
 2845 0fd8 009B     		ldr	r3, [sp]
 2846 0fda 1A70     		strb	r2, [r3]
 2847              		.loc 1 1035 0
 2848 0fdc 0123     		movs	r3, #1
 2849              	.L180:
 2850              		.loc 1 1036 0
 2851 0fde 1846     		mov	r0, r3
 2852 0fe0 03B0     		add	sp, sp, #12
 2853              		@ sp needed
 2854 0fe2 5DF804FB 		ldr	pc, [sp], #4
 2855              		.cfi_endproc
 2856              	.LFE46:
 2857              		.size	LSM303AGR_MAG_R_INT_MAG_PIN, .-LSM303AGR_MAG_R_INT_MAG_PIN
 2858 0fe6 00BF     		.align	2
 2859 0fe8 AFF30080 		.p2align 4,,15
 2859      AFF30080 
 2860              		.global	LSM303AGR_MAG_W_IEN
 2861              		.thumb
 2862              		.thumb_func
 2863              		.type	LSM303AGR_MAG_W_IEN, %function
 2864              	LSM303AGR_MAG_W_IEN:
 2865              	.LFB47:
 2866              		.loc 1 1046 0
 2867              		.cfi_startproc
 2868              		@ args = 0, pretend = 0, frame = 16
 2869              		@ frame_needed = 0, uses_anonymous_args = 0
ARM GAS  /tmp/ccNUhamC.s 			page 52


 2870 0ff0 00B5     		push	{lr}
 2871              		.cfi_def_cfa_offset 4
 2872              		.cfi_offset 14, -4
 2873 0ff2 85B0     		sub	sp, sp, #20
 2874              		.cfi_def_cfa_offset 24
 2875 0ff4 0190     		str	r0, [sp, #4]
 2876 0ff6 0B46     		mov	r3, r1
 2877 0ff8 8DF80330 		strb	r3, [sp, #3]
 2878              		.loc 1 1049 0
 2879 0ffc 0DF10F03 		add	r3, sp, #15
 2880 1000 0198     		ldr	r0, [sp, #4]
 2881 1002 6321     		movs	r1, #99
 2882 1004 1A46     		mov	r2, r3
 2883 1006 0123     		movs	r3, #1
 2884 1008 FFF7FEFF 		bl	LSM303AGR_MAG_ReadReg
 2885 100c 0346     		mov	r3, r0
 2886 100e 002B     		cmp	r3, #0
 2887 1010 01D1     		bne	.L182
 2888              		.loc 1 1050 0
 2889 1012 0023     		movs	r3, #0
 2890 1014 1CE0     		b	.L185
 2891              	.L182:
 2892              		.loc 1 1052 0
 2893 1016 9DF80F30 		ldrb	r3, [sp, #15]	@ zero_extendqisi2
 2894 101a 23F00103 		bic	r3, r3, #1
 2895 101e DBB2     		uxtb	r3, r3
 2896 1020 8DF80F30 		strb	r3, [sp, #15]
 2897              		.loc 1 1053 0
 2898 1024 9DF80F20 		ldrb	r2, [sp, #15]	@ zero_extendqisi2
 2899 1028 9DF80330 		ldrb	r3, [sp, #3]
 2900 102c 1343     		orrs	r3, r3, r2
 2901 102e DBB2     		uxtb	r3, r3
 2902 1030 8DF80F30 		strb	r3, [sp, #15]
 2903              		.loc 1 1055 0
 2904 1034 0DF10F03 		add	r3, sp, #15
 2905 1038 0198     		ldr	r0, [sp, #4]
 2906 103a 6321     		movs	r1, #99
 2907 103c 1A46     		mov	r2, r3
 2908 103e 0123     		movs	r3, #1
 2909 1040 FFF7FEFF 		bl	LSM303AGR_MAG_WriteReg
 2910 1044 0346     		mov	r3, r0
 2911 1046 002B     		cmp	r3, #0
 2912 1048 01D1     		bne	.L184
 2913              		.loc 1 1056 0
 2914 104a 0023     		movs	r3, #0
 2915 104c 00E0     		b	.L185
 2916              	.L184:
 2917              		.loc 1 1058 0
 2918 104e 0123     		movs	r3, #1
 2919              	.L185:
 2920              		.loc 1 1059 0
 2921 1050 1846     		mov	r0, r3
 2922 1052 05B0     		add	sp, sp, #20
 2923              		@ sp needed
 2924 1054 5DF804FB 		ldr	pc, [sp], #4
 2925              		.cfi_endproc
 2926              	.LFE47:
ARM GAS  /tmp/ccNUhamC.s 			page 53


 2927              		.size	LSM303AGR_MAG_W_IEN, .-LSM303AGR_MAG_W_IEN
 2928              		.align	2
 2929 1058 AFF30080 		.p2align 4,,15
 2929      AFF30080 
 2930              		.global	LSM303AGR_MAG_R_IEN
 2931              		.thumb
 2932              		.thumb_func
 2933              		.type	LSM303AGR_MAG_R_IEN, %function
 2934              	LSM303AGR_MAG_R_IEN:
 2935              	.LFB48:
 2936              		.loc 1 1069 0
 2937              		.cfi_startproc
 2938              		@ args = 0, pretend = 0, frame = 8
 2939              		@ frame_needed = 0, uses_anonymous_args = 0
 2940 1060 00B5     		push	{lr}
 2941              		.cfi_def_cfa_offset 4
 2942              		.cfi_offset 14, -4
 2943 1062 83B0     		sub	sp, sp, #12
 2944              		.cfi_def_cfa_offset 16
 2945 1064 0190     		str	r0, [sp, #4]
 2946 1066 0091     		str	r1, [sp]
 2947              		.loc 1 1070 0
 2948 1068 0198     		ldr	r0, [sp, #4]
 2949 106a 6321     		movs	r1, #99
 2950 106c 009A     		ldr	r2, [sp]
 2951 106e 0123     		movs	r3, #1
 2952 1070 FFF7FEFF 		bl	LSM303AGR_MAG_ReadReg
 2953 1074 0346     		mov	r3, r0
 2954 1076 002B     		cmp	r3, #0
 2955 1078 01D1     		bne	.L187
 2956              		.loc 1 1071 0
 2957 107a 0023     		movs	r3, #0
 2958 107c 07E0     		b	.L188
 2959              	.L187:
 2960              		.loc 1 1073 0
 2961 107e 009B     		ldr	r3, [sp]
 2962 1080 1B78     		ldrb	r3, [r3]	@ zero_extendqisi2
 2963 1082 03F00103 		and	r3, r3, #1
 2964 1086 DAB2     		uxtb	r2, r3
 2965 1088 009B     		ldr	r3, [sp]
 2966 108a 1A70     		strb	r2, [r3]
 2967              		.loc 1 1075 0
 2968 108c 0123     		movs	r3, #1
 2969              	.L188:
 2970              		.loc 1 1076 0
 2971 108e 1846     		mov	r0, r3
 2972 1090 03B0     		add	sp, sp, #12
 2973              		@ sp needed
 2974 1092 5DF804FB 		ldr	pc, [sp], #4
 2975              		.cfi_endproc
 2976              	.LFE48:
 2977              		.size	LSM303AGR_MAG_R_IEN, .-LSM303AGR_MAG_R_IEN
 2978 1096 00BF     		.align	2
 2979 1098 AFF30080 		.p2align 4,,15
 2979      AFF30080 
 2980              		.global	LSM303AGR_MAG_W_IEL
 2981              		.thumb
ARM GAS  /tmp/ccNUhamC.s 			page 54


 2982              		.thumb_func
 2983              		.type	LSM303AGR_MAG_W_IEL, %function
 2984              	LSM303AGR_MAG_W_IEL:
 2985              	.LFB49:
 2986              		.loc 1 1086 0
 2987              		.cfi_startproc
 2988              		@ args = 0, pretend = 0, frame = 16
 2989              		@ frame_needed = 0, uses_anonymous_args = 0
 2990 10a0 00B5     		push	{lr}
 2991              		.cfi_def_cfa_offset 4
 2992              		.cfi_offset 14, -4
 2993 10a2 85B0     		sub	sp, sp, #20
 2994              		.cfi_def_cfa_offset 24
 2995 10a4 0190     		str	r0, [sp, #4]
 2996 10a6 0B46     		mov	r3, r1
 2997 10a8 8DF80330 		strb	r3, [sp, #3]
 2998              		.loc 1 1089 0
 2999 10ac 0DF10F03 		add	r3, sp, #15
 3000 10b0 0198     		ldr	r0, [sp, #4]
 3001 10b2 6321     		movs	r1, #99
 3002 10b4 1A46     		mov	r2, r3
 3003 10b6 0123     		movs	r3, #1
 3004 10b8 FFF7FEFF 		bl	LSM303AGR_MAG_ReadReg
 3005 10bc 0346     		mov	r3, r0
 3006 10be 002B     		cmp	r3, #0
 3007 10c0 01D1     		bne	.L190
 3008              		.loc 1 1090 0
 3009 10c2 0023     		movs	r3, #0
 3010 10c4 1CE0     		b	.L193
 3011              	.L190:
 3012              		.loc 1 1092 0
 3013 10c6 9DF80F30 		ldrb	r3, [sp, #15]	@ zero_extendqisi2
 3014 10ca 23F00203 		bic	r3, r3, #2
 3015 10ce DBB2     		uxtb	r3, r3
 3016 10d0 8DF80F30 		strb	r3, [sp, #15]
 3017              		.loc 1 1093 0
 3018 10d4 9DF80F20 		ldrb	r2, [sp, #15]	@ zero_extendqisi2
 3019 10d8 9DF80330 		ldrb	r3, [sp, #3]
 3020 10dc 1343     		orrs	r3, r3, r2
 3021 10de DBB2     		uxtb	r3, r3
 3022 10e0 8DF80F30 		strb	r3, [sp, #15]
 3023              		.loc 1 1095 0
 3024 10e4 0DF10F03 		add	r3, sp, #15
 3025 10e8 0198     		ldr	r0, [sp, #4]
 3026 10ea 6321     		movs	r1, #99
 3027 10ec 1A46     		mov	r2, r3
 3028 10ee 0123     		movs	r3, #1
 3029 10f0 FFF7FEFF 		bl	LSM303AGR_MAG_WriteReg
 3030 10f4 0346     		mov	r3, r0
 3031 10f6 002B     		cmp	r3, #0
 3032 10f8 01D1     		bne	.L192
 3033              		.loc 1 1096 0
 3034 10fa 0023     		movs	r3, #0
 3035 10fc 00E0     		b	.L193
 3036              	.L192:
 3037              		.loc 1 1098 0
 3038 10fe 0123     		movs	r3, #1
ARM GAS  /tmp/ccNUhamC.s 			page 55


 3039              	.L193:
 3040              		.loc 1 1099 0
 3041 1100 1846     		mov	r0, r3
 3042 1102 05B0     		add	sp, sp, #20
 3043              		@ sp needed
 3044 1104 5DF804FB 		ldr	pc, [sp], #4
 3045              		.cfi_endproc
 3046              	.LFE49:
 3047              		.size	LSM303AGR_MAG_W_IEL, .-LSM303AGR_MAG_W_IEL
 3048              		.align	2
 3049 1108 AFF30080 		.p2align 4,,15
 3049      AFF30080 
 3050              		.global	LSM303AGR_MAG_R_IEL
 3051              		.thumb
 3052              		.thumb_func
 3053              		.type	LSM303AGR_MAG_R_IEL, %function
 3054              	LSM303AGR_MAG_R_IEL:
 3055              	.LFB50:
 3056              		.loc 1 1109 0
 3057              		.cfi_startproc
 3058              		@ args = 0, pretend = 0, frame = 8
 3059              		@ frame_needed = 0, uses_anonymous_args = 0
 3060 1110 00B5     		push	{lr}
 3061              		.cfi_def_cfa_offset 4
 3062              		.cfi_offset 14, -4
 3063 1112 83B0     		sub	sp, sp, #12
 3064              		.cfi_def_cfa_offset 16
 3065 1114 0190     		str	r0, [sp, #4]
 3066 1116 0091     		str	r1, [sp]
 3067              		.loc 1 1110 0
 3068 1118 0198     		ldr	r0, [sp, #4]
 3069 111a 6321     		movs	r1, #99
 3070 111c 009A     		ldr	r2, [sp]
 3071 111e 0123     		movs	r3, #1
 3072 1120 FFF7FEFF 		bl	LSM303AGR_MAG_ReadReg
 3073 1124 0346     		mov	r3, r0
 3074 1126 002B     		cmp	r3, #0
 3075 1128 01D1     		bne	.L195
 3076              		.loc 1 1111 0
 3077 112a 0023     		movs	r3, #0
 3078 112c 07E0     		b	.L196
 3079              	.L195:
 3080              		.loc 1 1113 0
 3081 112e 009B     		ldr	r3, [sp]
 3082 1130 1B78     		ldrb	r3, [r3]	@ zero_extendqisi2
 3083 1132 03F00203 		and	r3, r3, #2
 3084 1136 DAB2     		uxtb	r2, r3
 3085 1138 009B     		ldr	r3, [sp]
 3086 113a 1A70     		strb	r2, [r3]
 3087              		.loc 1 1115 0
 3088 113c 0123     		movs	r3, #1
 3089              	.L196:
 3090              		.loc 1 1116 0
 3091 113e 1846     		mov	r0, r3
 3092 1140 03B0     		add	sp, sp, #12
 3093              		@ sp needed
 3094 1142 5DF804FB 		ldr	pc, [sp], #4
ARM GAS  /tmp/ccNUhamC.s 			page 56


 3095              		.cfi_endproc
 3096              	.LFE50:
 3097              		.size	LSM303AGR_MAG_R_IEL, .-LSM303AGR_MAG_R_IEL
 3098 1146 00BF     		.align	2
 3099 1148 AFF30080 		.p2align 4,,15
 3099      AFF30080 
 3100              		.global	LSM303AGR_MAG_W_IEA
 3101              		.thumb
 3102              		.thumb_func
 3103              		.type	LSM303AGR_MAG_W_IEA, %function
 3104              	LSM303AGR_MAG_W_IEA:
 3105              	.LFB51:
 3106              		.loc 1 1126 0
 3107              		.cfi_startproc
 3108              		@ args = 0, pretend = 0, frame = 16
 3109              		@ frame_needed = 0, uses_anonymous_args = 0
 3110 1150 00B5     		push	{lr}
 3111              		.cfi_def_cfa_offset 4
 3112              		.cfi_offset 14, -4
 3113 1152 85B0     		sub	sp, sp, #20
 3114              		.cfi_def_cfa_offset 24
 3115 1154 0190     		str	r0, [sp, #4]
 3116 1156 0B46     		mov	r3, r1
 3117 1158 8DF80330 		strb	r3, [sp, #3]
 3118              		.loc 1 1129 0
 3119 115c 0DF10F03 		add	r3, sp, #15
 3120 1160 0198     		ldr	r0, [sp, #4]
 3121 1162 6321     		movs	r1, #99
 3122 1164 1A46     		mov	r2, r3
 3123 1166 0123     		movs	r3, #1
 3124 1168 FFF7FEFF 		bl	LSM303AGR_MAG_ReadReg
 3125 116c 0346     		mov	r3, r0
 3126 116e 002B     		cmp	r3, #0
 3127 1170 01D1     		bne	.L198
 3128              		.loc 1 1130 0
 3129 1172 0023     		movs	r3, #0
 3130 1174 1CE0     		b	.L201
 3131              	.L198:
 3132              		.loc 1 1132 0
 3133 1176 9DF80F30 		ldrb	r3, [sp, #15]	@ zero_extendqisi2
 3134 117a 23F00403 		bic	r3, r3, #4
 3135 117e DBB2     		uxtb	r3, r3
 3136 1180 8DF80F30 		strb	r3, [sp, #15]
 3137              		.loc 1 1133 0
 3138 1184 9DF80F20 		ldrb	r2, [sp, #15]	@ zero_extendqisi2
 3139 1188 9DF80330 		ldrb	r3, [sp, #3]
 3140 118c 1343     		orrs	r3, r3, r2
 3141 118e DBB2     		uxtb	r3, r3
 3142 1190 8DF80F30 		strb	r3, [sp, #15]
 3143              		.loc 1 1135 0
 3144 1194 0DF10F03 		add	r3, sp, #15
 3145 1198 0198     		ldr	r0, [sp, #4]
 3146 119a 6321     		movs	r1, #99
 3147 119c 1A46     		mov	r2, r3
 3148 119e 0123     		movs	r3, #1
 3149 11a0 FFF7FEFF 		bl	LSM303AGR_MAG_WriteReg
 3150 11a4 0346     		mov	r3, r0
ARM GAS  /tmp/ccNUhamC.s 			page 57


 3151 11a6 002B     		cmp	r3, #0
 3152 11a8 01D1     		bne	.L200
 3153              		.loc 1 1136 0
 3154 11aa 0023     		movs	r3, #0
 3155 11ac 00E0     		b	.L201
 3156              	.L200:
 3157              		.loc 1 1138 0
 3158 11ae 0123     		movs	r3, #1
 3159              	.L201:
 3160              		.loc 1 1139 0
 3161 11b0 1846     		mov	r0, r3
 3162 11b2 05B0     		add	sp, sp, #20
 3163              		@ sp needed
 3164 11b4 5DF804FB 		ldr	pc, [sp], #4
 3165              		.cfi_endproc
 3166              	.LFE51:
 3167              		.size	LSM303AGR_MAG_W_IEA, .-LSM303AGR_MAG_W_IEA
 3168              		.align	2
 3169 11b8 AFF30080 		.p2align 4,,15
 3169      AFF30080 
 3170              		.global	LSM303AGR_MAG_R_IEA
 3171              		.thumb
 3172              		.thumb_func
 3173              		.type	LSM303AGR_MAG_R_IEA, %function
 3174              	LSM303AGR_MAG_R_IEA:
 3175              	.LFB52:
 3176              		.loc 1 1149 0
 3177              		.cfi_startproc
 3178              		@ args = 0, pretend = 0, frame = 8
 3179              		@ frame_needed = 0, uses_anonymous_args = 0
 3180 11c0 00B5     		push	{lr}
 3181              		.cfi_def_cfa_offset 4
 3182              		.cfi_offset 14, -4
 3183 11c2 83B0     		sub	sp, sp, #12
 3184              		.cfi_def_cfa_offset 16
 3185 11c4 0190     		str	r0, [sp, #4]
 3186 11c6 0091     		str	r1, [sp]
 3187              		.loc 1 1150 0
 3188 11c8 0198     		ldr	r0, [sp, #4]
 3189 11ca 6321     		movs	r1, #99
 3190 11cc 009A     		ldr	r2, [sp]
 3191 11ce 0123     		movs	r3, #1
 3192 11d0 FFF7FEFF 		bl	LSM303AGR_MAG_ReadReg
 3193 11d4 0346     		mov	r3, r0
 3194 11d6 002B     		cmp	r3, #0
 3195 11d8 01D1     		bne	.L203
 3196              		.loc 1 1151 0
 3197 11da 0023     		movs	r3, #0
 3198 11dc 07E0     		b	.L204
 3199              	.L203:
 3200              		.loc 1 1153 0
 3201 11de 009B     		ldr	r3, [sp]
 3202 11e0 1B78     		ldrb	r3, [r3]	@ zero_extendqisi2
 3203 11e2 03F00403 		and	r3, r3, #4
 3204 11e6 DAB2     		uxtb	r2, r3
 3205 11e8 009B     		ldr	r3, [sp]
 3206 11ea 1A70     		strb	r2, [r3]
ARM GAS  /tmp/ccNUhamC.s 			page 58


 3207              		.loc 1 1155 0
 3208 11ec 0123     		movs	r3, #1
 3209              	.L204:
 3210              		.loc 1 1156 0
 3211 11ee 1846     		mov	r0, r3
 3212 11f0 03B0     		add	sp, sp, #12
 3213              		@ sp needed
 3214 11f2 5DF804FB 		ldr	pc, [sp], #4
 3215              		.cfi_endproc
 3216              	.LFE52:
 3217              		.size	LSM303AGR_MAG_R_IEA, .-LSM303AGR_MAG_R_IEA
 3218 11f6 00BF     		.align	2
 3219 11f8 AFF30080 		.p2align 4,,15
 3219      AFF30080 
 3220              		.global	LSM303AGR_MAG_W_ZIEN
 3221              		.thumb
 3222              		.thumb_func
 3223              		.type	LSM303AGR_MAG_W_ZIEN, %function
 3224              	LSM303AGR_MAG_W_ZIEN:
 3225              	.LFB53:
 3226              		.loc 1 1166 0
 3227              		.cfi_startproc
 3228              		@ args = 0, pretend = 0, frame = 16
 3229              		@ frame_needed = 0, uses_anonymous_args = 0
 3230 1200 00B5     		push	{lr}
 3231              		.cfi_def_cfa_offset 4
 3232              		.cfi_offset 14, -4
 3233 1202 85B0     		sub	sp, sp, #20
 3234              		.cfi_def_cfa_offset 24
 3235 1204 0190     		str	r0, [sp, #4]
 3236 1206 0B46     		mov	r3, r1
 3237 1208 8DF80330 		strb	r3, [sp, #3]
 3238              		.loc 1 1169 0
 3239 120c 0DF10F03 		add	r3, sp, #15
 3240 1210 0198     		ldr	r0, [sp, #4]
 3241 1212 6321     		movs	r1, #99
 3242 1214 1A46     		mov	r2, r3
 3243 1216 0123     		movs	r3, #1
 3244 1218 FFF7FEFF 		bl	LSM303AGR_MAG_ReadReg
 3245 121c 0346     		mov	r3, r0
 3246 121e 002B     		cmp	r3, #0
 3247 1220 01D1     		bne	.L206
 3248              		.loc 1 1170 0
 3249 1222 0023     		movs	r3, #0
 3250 1224 1CE0     		b	.L209
 3251              	.L206:
 3252              		.loc 1 1172 0
 3253 1226 9DF80F30 		ldrb	r3, [sp, #15]	@ zero_extendqisi2
 3254 122a 23F02003 		bic	r3, r3, #32
 3255 122e DBB2     		uxtb	r3, r3
 3256 1230 8DF80F30 		strb	r3, [sp, #15]
 3257              		.loc 1 1173 0
 3258 1234 9DF80F20 		ldrb	r2, [sp, #15]	@ zero_extendqisi2
 3259 1238 9DF80330 		ldrb	r3, [sp, #3]
 3260 123c 1343     		orrs	r3, r3, r2
 3261 123e DBB2     		uxtb	r3, r3
 3262 1240 8DF80F30 		strb	r3, [sp, #15]
ARM GAS  /tmp/ccNUhamC.s 			page 59


 3263              		.loc 1 1175 0
 3264 1244 0DF10F03 		add	r3, sp, #15
 3265 1248 0198     		ldr	r0, [sp, #4]
 3266 124a 6321     		movs	r1, #99
 3267 124c 1A46     		mov	r2, r3
 3268 124e 0123     		movs	r3, #1
 3269 1250 FFF7FEFF 		bl	LSM303AGR_MAG_WriteReg
 3270 1254 0346     		mov	r3, r0
 3271 1256 002B     		cmp	r3, #0
 3272 1258 01D1     		bne	.L208
 3273              		.loc 1 1176 0
 3274 125a 0023     		movs	r3, #0
 3275 125c 00E0     		b	.L209
 3276              	.L208:
 3277              		.loc 1 1178 0
 3278 125e 0123     		movs	r3, #1
 3279              	.L209:
 3280              		.loc 1 1179 0
 3281 1260 1846     		mov	r0, r3
 3282 1262 05B0     		add	sp, sp, #20
 3283              		@ sp needed
 3284 1264 5DF804FB 		ldr	pc, [sp], #4
 3285              		.cfi_endproc
 3286              	.LFE53:
 3287              		.size	LSM303AGR_MAG_W_ZIEN, .-LSM303AGR_MAG_W_ZIEN
 3288              		.align	2
 3289 1268 AFF30080 		.p2align 4,,15
 3289      AFF30080 
 3290              		.global	LSM303AGR_MAG_R_ZIEN
 3291              		.thumb
 3292              		.thumb_func
 3293              		.type	LSM303AGR_MAG_R_ZIEN, %function
 3294              	LSM303AGR_MAG_R_ZIEN:
 3295              	.LFB54:
 3296              		.loc 1 1189 0
 3297              		.cfi_startproc
 3298              		@ args = 0, pretend = 0, frame = 8
 3299              		@ frame_needed = 0, uses_anonymous_args = 0
 3300 1270 00B5     		push	{lr}
 3301              		.cfi_def_cfa_offset 4
 3302              		.cfi_offset 14, -4
 3303 1272 83B0     		sub	sp, sp, #12
 3304              		.cfi_def_cfa_offset 16
 3305 1274 0190     		str	r0, [sp, #4]
 3306 1276 0091     		str	r1, [sp]
 3307              		.loc 1 1190 0
 3308 1278 0198     		ldr	r0, [sp, #4]
 3309 127a 6321     		movs	r1, #99
 3310 127c 009A     		ldr	r2, [sp]
 3311 127e 0123     		movs	r3, #1
 3312 1280 FFF7FEFF 		bl	LSM303AGR_MAG_ReadReg
 3313 1284 0346     		mov	r3, r0
 3314 1286 002B     		cmp	r3, #0
 3315 1288 01D1     		bne	.L211
 3316              		.loc 1 1191 0
 3317 128a 0023     		movs	r3, #0
 3318 128c 07E0     		b	.L212
ARM GAS  /tmp/ccNUhamC.s 			page 60


 3319              	.L211:
 3320              		.loc 1 1193 0
 3321 128e 009B     		ldr	r3, [sp]
 3322 1290 1B78     		ldrb	r3, [r3]	@ zero_extendqisi2
 3323 1292 03F02003 		and	r3, r3, #32
 3324 1296 DAB2     		uxtb	r2, r3
 3325 1298 009B     		ldr	r3, [sp]
 3326 129a 1A70     		strb	r2, [r3]
 3327              		.loc 1 1195 0
 3328 129c 0123     		movs	r3, #1
 3329              	.L212:
 3330              		.loc 1 1196 0
 3331 129e 1846     		mov	r0, r3
 3332 12a0 03B0     		add	sp, sp, #12
 3333              		@ sp needed
 3334 12a2 5DF804FB 		ldr	pc, [sp], #4
 3335              		.cfi_endproc
 3336              	.LFE54:
 3337              		.size	LSM303AGR_MAG_R_ZIEN, .-LSM303AGR_MAG_R_ZIEN
 3338 12a6 00BF     		.align	2
 3339 12a8 AFF30080 		.p2align 4,,15
 3339      AFF30080 
 3340              		.global	LSM303AGR_MAG_W_YIEN
 3341              		.thumb
 3342              		.thumb_func
 3343              		.type	LSM303AGR_MAG_W_YIEN, %function
 3344              	LSM303AGR_MAG_W_YIEN:
 3345              	.LFB55:
 3346              		.loc 1 1206 0
 3347              		.cfi_startproc
 3348              		@ args = 0, pretend = 0, frame = 16
 3349              		@ frame_needed = 0, uses_anonymous_args = 0
 3350 12b0 00B5     		push	{lr}
 3351              		.cfi_def_cfa_offset 4
 3352              		.cfi_offset 14, -4
 3353 12b2 85B0     		sub	sp, sp, #20
 3354              		.cfi_def_cfa_offset 24
 3355 12b4 0190     		str	r0, [sp, #4]
 3356 12b6 0B46     		mov	r3, r1
 3357 12b8 8DF80330 		strb	r3, [sp, #3]
 3358              		.loc 1 1209 0
 3359 12bc 0DF10F03 		add	r3, sp, #15
 3360 12c0 0198     		ldr	r0, [sp, #4]
 3361 12c2 6321     		movs	r1, #99
 3362 12c4 1A46     		mov	r2, r3
 3363 12c6 0123     		movs	r3, #1
 3364 12c8 FFF7FEFF 		bl	LSM303AGR_MAG_ReadReg
 3365 12cc 0346     		mov	r3, r0
 3366 12ce 002B     		cmp	r3, #0
 3367 12d0 01D1     		bne	.L214
 3368              		.loc 1 1210 0
 3369 12d2 0023     		movs	r3, #0
 3370 12d4 1CE0     		b	.L217
 3371              	.L214:
 3372              		.loc 1 1212 0
 3373 12d6 9DF80F30 		ldrb	r3, [sp, #15]	@ zero_extendqisi2
 3374 12da 23F04003 		bic	r3, r3, #64
ARM GAS  /tmp/ccNUhamC.s 			page 61


 3375 12de DBB2     		uxtb	r3, r3
 3376 12e0 8DF80F30 		strb	r3, [sp, #15]
 3377              		.loc 1 1213 0
 3378 12e4 9DF80F20 		ldrb	r2, [sp, #15]	@ zero_extendqisi2
 3379 12e8 9DF80330 		ldrb	r3, [sp, #3]
 3380 12ec 1343     		orrs	r3, r3, r2
 3381 12ee DBB2     		uxtb	r3, r3
 3382 12f0 8DF80F30 		strb	r3, [sp, #15]
 3383              		.loc 1 1215 0
 3384 12f4 0DF10F03 		add	r3, sp, #15
 3385 12f8 0198     		ldr	r0, [sp, #4]
 3386 12fa 6321     		movs	r1, #99
 3387 12fc 1A46     		mov	r2, r3
 3388 12fe 0123     		movs	r3, #1
 3389 1300 FFF7FEFF 		bl	LSM303AGR_MAG_WriteReg
 3390 1304 0346     		mov	r3, r0
 3391 1306 002B     		cmp	r3, #0
 3392 1308 01D1     		bne	.L216
 3393              		.loc 1 1216 0
 3394 130a 0023     		movs	r3, #0
 3395 130c 00E0     		b	.L217
 3396              	.L216:
 3397              		.loc 1 1218 0
 3398 130e 0123     		movs	r3, #1
 3399              	.L217:
 3400              		.loc 1 1219 0
 3401 1310 1846     		mov	r0, r3
 3402 1312 05B0     		add	sp, sp, #20
 3403              		@ sp needed
 3404 1314 5DF804FB 		ldr	pc, [sp], #4
 3405              		.cfi_endproc
 3406              	.LFE55:
 3407              		.size	LSM303AGR_MAG_W_YIEN, .-LSM303AGR_MAG_W_YIEN
 3408              		.align	2
 3409 1318 AFF30080 		.p2align 4,,15
 3409      AFF30080 
 3410              		.global	LSM303AGR_MAG_R_YIEN
 3411              		.thumb
 3412              		.thumb_func
 3413              		.type	LSM303AGR_MAG_R_YIEN, %function
 3414              	LSM303AGR_MAG_R_YIEN:
 3415              	.LFB56:
 3416              		.loc 1 1229 0
 3417              		.cfi_startproc
 3418              		@ args = 0, pretend = 0, frame = 8
 3419              		@ frame_needed = 0, uses_anonymous_args = 0
 3420 1320 00B5     		push	{lr}
 3421              		.cfi_def_cfa_offset 4
 3422              		.cfi_offset 14, -4
 3423 1322 83B0     		sub	sp, sp, #12
 3424              		.cfi_def_cfa_offset 16
 3425 1324 0190     		str	r0, [sp, #4]
 3426 1326 0091     		str	r1, [sp]
 3427              		.loc 1 1230 0
 3428 1328 0198     		ldr	r0, [sp, #4]
 3429 132a 6321     		movs	r1, #99
 3430 132c 009A     		ldr	r2, [sp]
ARM GAS  /tmp/ccNUhamC.s 			page 62


 3431 132e 0123     		movs	r3, #1
 3432 1330 FFF7FEFF 		bl	LSM303AGR_MAG_ReadReg
 3433 1334 0346     		mov	r3, r0
 3434 1336 002B     		cmp	r3, #0
 3435 1338 01D1     		bne	.L219
 3436              		.loc 1 1231 0
 3437 133a 0023     		movs	r3, #0
 3438 133c 07E0     		b	.L220
 3439              	.L219:
 3440              		.loc 1 1233 0
 3441 133e 009B     		ldr	r3, [sp]
 3442 1340 1B78     		ldrb	r3, [r3]	@ zero_extendqisi2
 3443 1342 03F04003 		and	r3, r3, #64
 3444 1346 DAB2     		uxtb	r2, r3
 3445 1348 009B     		ldr	r3, [sp]
 3446 134a 1A70     		strb	r2, [r3]
 3447              		.loc 1 1235 0
 3448 134c 0123     		movs	r3, #1
 3449              	.L220:
 3450              		.loc 1 1236 0
 3451 134e 1846     		mov	r0, r3
 3452 1350 03B0     		add	sp, sp, #12
 3453              		@ sp needed
 3454 1352 5DF804FB 		ldr	pc, [sp], #4
 3455              		.cfi_endproc
 3456              	.LFE56:
 3457              		.size	LSM303AGR_MAG_R_YIEN, .-LSM303AGR_MAG_R_YIEN
 3458 1356 00BF     		.align	2
 3459 1358 AFF30080 		.p2align 4,,15
 3459      AFF30080 
 3460              		.global	LSM303AGR_MAG_W_XIEN
 3461              		.thumb
 3462              		.thumb_func
 3463              		.type	LSM303AGR_MAG_W_XIEN, %function
 3464              	LSM303AGR_MAG_W_XIEN:
 3465              	.LFB57:
 3466              		.loc 1 1246 0
 3467              		.cfi_startproc
 3468              		@ args = 0, pretend = 0, frame = 16
 3469              		@ frame_needed = 0, uses_anonymous_args = 0
 3470 1360 00B5     		push	{lr}
 3471              		.cfi_def_cfa_offset 4
 3472              		.cfi_offset 14, -4
 3473 1362 85B0     		sub	sp, sp, #20
 3474              		.cfi_def_cfa_offset 24
 3475 1364 0190     		str	r0, [sp, #4]
 3476 1366 0B46     		mov	r3, r1
 3477 1368 8DF80330 		strb	r3, [sp, #3]
 3478              		.loc 1 1249 0
 3479 136c 0DF10F03 		add	r3, sp, #15
 3480 1370 0198     		ldr	r0, [sp, #4]
 3481 1372 6321     		movs	r1, #99
 3482 1374 1A46     		mov	r2, r3
 3483 1376 0123     		movs	r3, #1
 3484 1378 FFF7FEFF 		bl	LSM303AGR_MAG_ReadReg
 3485 137c 0346     		mov	r3, r0
 3486 137e 002B     		cmp	r3, #0
ARM GAS  /tmp/ccNUhamC.s 			page 63


 3487 1380 01D1     		bne	.L222
 3488              		.loc 1 1250 0
 3489 1382 0023     		movs	r3, #0
 3490 1384 1CE0     		b	.L225
 3491              	.L222:
 3492              		.loc 1 1252 0
 3493 1386 9DF80F30 		ldrb	r3, [sp, #15]	@ zero_extendqisi2
 3494 138a 03F07F03 		and	r3, r3, #127
 3495 138e DBB2     		uxtb	r3, r3
 3496 1390 8DF80F30 		strb	r3, [sp, #15]
 3497              		.loc 1 1253 0
 3498 1394 9DF80F20 		ldrb	r2, [sp, #15]	@ zero_extendqisi2
 3499 1398 9DF80330 		ldrb	r3, [sp, #3]
 3500 139c 1343     		orrs	r3, r3, r2
 3501 139e DBB2     		uxtb	r3, r3
 3502 13a0 8DF80F30 		strb	r3, [sp, #15]
 3503              		.loc 1 1255 0
 3504 13a4 0DF10F03 		add	r3, sp, #15
 3505 13a8 0198     		ldr	r0, [sp, #4]
 3506 13aa 6321     		movs	r1, #99
 3507 13ac 1A46     		mov	r2, r3
 3508 13ae 0123     		movs	r3, #1
 3509 13b0 FFF7FEFF 		bl	LSM303AGR_MAG_WriteReg
 3510 13b4 0346     		mov	r3, r0
 3511 13b6 002B     		cmp	r3, #0
 3512 13b8 01D1     		bne	.L224
 3513              		.loc 1 1256 0
 3514 13ba 0023     		movs	r3, #0
 3515 13bc 00E0     		b	.L225
 3516              	.L224:
 3517              		.loc 1 1258 0
 3518 13be 0123     		movs	r3, #1
 3519              	.L225:
 3520              		.loc 1 1259 0
 3521 13c0 1846     		mov	r0, r3
 3522 13c2 05B0     		add	sp, sp, #20
 3523              		@ sp needed
 3524 13c4 5DF804FB 		ldr	pc, [sp], #4
 3525              		.cfi_endproc
 3526              	.LFE57:
 3527              		.size	LSM303AGR_MAG_W_XIEN, .-LSM303AGR_MAG_W_XIEN
 3528              		.align	2
 3529 13c8 AFF30080 		.p2align 4,,15
 3529      AFF30080 
 3530              		.global	LSM303AGR_MAG_R_XIEN
 3531              		.thumb
 3532              		.thumb_func
 3533              		.type	LSM303AGR_MAG_R_XIEN, %function
 3534              	LSM303AGR_MAG_R_XIEN:
 3535              	.LFB58:
 3536              		.loc 1 1269 0
 3537              		.cfi_startproc
 3538              		@ args = 0, pretend = 0, frame = 8
 3539              		@ frame_needed = 0, uses_anonymous_args = 0
 3540 13d0 00B5     		push	{lr}
 3541              		.cfi_def_cfa_offset 4
 3542              		.cfi_offset 14, -4
ARM GAS  /tmp/ccNUhamC.s 			page 64


 3543 13d2 83B0     		sub	sp, sp, #12
 3544              		.cfi_def_cfa_offset 16
 3545 13d4 0190     		str	r0, [sp, #4]
 3546 13d6 0091     		str	r1, [sp]
 3547              		.loc 1 1270 0
 3548 13d8 0198     		ldr	r0, [sp, #4]
 3549 13da 6321     		movs	r1, #99
 3550 13dc 009A     		ldr	r2, [sp]
 3551 13de 0123     		movs	r3, #1
 3552 13e0 FFF7FEFF 		bl	LSM303AGR_MAG_ReadReg
 3553 13e4 0346     		mov	r3, r0
 3554 13e6 002B     		cmp	r3, #0
 3555 13e8 01D1     		bne	.L227
 3556              		.loc 1 1271 0
 3557 13ea 0023     		movs	r3, #0
 3558 13ec 07E0     		b	.L228
 3559              	.L227:
 3560              		.loc 1 1273 0
 3561 13ee 009B     		ldr	r3, [sp]
 3562 13f0 1B78     		ldrb	r3, [r3]	@ zero_extendqisi2
 3563 13f2 23F07F03 		bic	r3, r3, #127
 3564 13f6 DAB2     		uxtb	r2, r3
 3565 13f8 009B     		ldr	r3, [sp]
 3566 13fa 1A70     		strb	r2, [r3]
 3567              		.loc 1 1275 0
 3568 13fc 0123     		movs	r3, #1
 3569              	.L228:
 3570              		.loc 1 1276 0
 3571 13fe 1846     		mov	r0, r3
 3572 1400 03B0     		add	sp, sp, #12
 3573              		@ sp needed
 3574 1402 5DF804FB 		ldr	pc, [sp], #4
 3575              		.cfi_endproc
 3576              	.LFE58:
 3577              		.size	LSM303AGR_MAG_R_XIEN, .-LSM303AGR_MAG_R_XIEN
 3578 1406 00BF     		.align	2
 3579 1408 AFF30080 		.p2align 4,,15
 3579      AFF30080 
 3580              		.global	LSM303AGR_MAG_R_INT
 3581              		.thumb
 3582              		.thumb_func
 3583              		.type	LSM303AGR_MAG_R_INT, %function
 3584              	LSM303AGR_MAG_R_INT:
 3585              	.LFB59:
 3586              		.loc 1 1286 0
 3587              		.cfi_startproc
 3588              		@ args = 0, pretend = 0, frame = 8
 3589              		@ frame_needed = 0, uses_anonymous_args = 0
 3590 1410 00B5     		push	{lr}
 3591              		.cfi_def_cfa_offset 4
 3592              		.cfi_offset 14, -4
 3593 1412 83B0     		sub	sp, sp, #12
 3594              		.cfi_def_cfa_offset 16
 3595 1414 0190     		str	r0, [sp, #4]
 3596 1416 0091     		str	r1, [sp]
 3597              		.loc 1 1287 0
 3598 1418 0198     		ldr	r0, [sp, #4]
ARM GAS  /tmp/ccNUhamC.s 			page 65


 3599 141a 6421     		movs	r1, #100
 3600 141c 009A     		ldr	r2, [sp]
 3601 141e 0123     		movs	r3, #1
 3602 1420 FFF7FEFF 		bl	LSM303AGR_MAG_ReadReg
 3603 1424 0346     		mov	r3, r0
 3604 1426 002B     		cmp	r3, #0
 3605 1428 01D1     		bne	.L230
 3606              		.loc 1 1288 0
 3607 142a 0023     		movs	r3, #0
 3608 142c 07E0     		b	.L231
 3609              	.L230:
 3610              		.loc 1 1290 0
 3611 142e 009B     		ldr	r3, [sp]
 3612 1430 1B78     		ldrb	r3, [r3]	@ zero_extendqisi2
 3613 1432 03F00103 		and	r3, r3, #1
 3614 1436 DAB2     		uxtb	r2, r3
 3615 1438 009B     		ldr	r3, [sp]
 3616 143a 1A70     		strb	r2, [r3]
 3617              		.loc 1 1292 0
 3618 143c 0123     		movs	r3, #1
 3619              	.L231:
 3620              		.loc 1 1293 0
 3621 143e 1846     		mov	r0, r3
 3622 1440 03B0     		add	sp, sp, #12
 3623              		@ sp needed
 3624 1442 5DF804FB 		ldr	pc, [sp], #4
 3625              		.cfi_endproc
 3626              	.LFE59:
 3627              		.size	LSM303AGR_MAG_R_INT, .-LSM303AGR_MAG_R_INT
 3628 1446 00BF     		.align	2
 3629 1448 AFF30080 		.p2align 4,,15
 3629      AFF30080 
 3630              		.global	LSM303AGR_MAG_R_MROI
 3631              		.thumb
 3632              		.thumb_func
 3633              		.type	LSM303AGR_MAG_R_MROI, %function
 3634              	LSM303AGR_MAG_R_MROI:
 3635              	.LFB60:
 3636              		.loc 1 1303 0
 3637              		.cfi_startproc
 3638              		@ args = 0, pretend = 0, frame = 8
 3639              		@ frame_needed = 0, uses_anonymous_args = 0
 3640 1450 00B5     		push	{lr}
 3641              		.cfi_def_cfa_offset 4
 3642              		.cfi_offset 14, -4
 3643 1452 83B0     		sub	sp, sp, #12
 3644              		.cfi_def_cfa_offset 16
 3645 1454 0190     		str	r0, [sp, #4]
 3646 1456 0091     		str	r1, [sp]
 3647              		.loc 1 1304 0
 3648 1458 0198     		ldr	r0, [sp, #4]
 3649 145a 6421     		movs	r1, #100
 3650 145c 009A     		ldr	r2, [sp]
 3651 145e 0123     		movs	r3, #1
 3652 1460 FFF7FEFF 		bl	LSM303AGR_MAG_ReadReg
 3653 1464 0346     		mov	r3, r0
 3654 1466 002B     		cmp	r3, #0
ARM GAS  /tmp/ccNUhamC.s 			page 66


 3655 1468 01D1     		bne	.L233
 3656              		.loc 1 1305 0
 3657 146a 0023     		movs	r3, #0
 3658 146c 07E0     		b	.L234
 3659              	.L233:
 3660              		.loc 1 1307 0
 3661 146e 009B     		ldr	r3, [sp]
 3662 1470 1B78     		ldrb	r3, [r3]	@ zero_extendqisi2
 3663 1472 03F00203 		and	r3, r3, #2
 3664 1476 DAB2     		uxtb	r2, r3
 3665 1478 009B     		ldr	r3, [sp]
 3666 147a 1A70     		strb	r2, [r3]
 3667              		.loc 1 1309 0
 3668 147c 0123     		movs	r3, #1
 3669              	.L234:
 3670              		.loc 1 1310 0
 3671 147e 1846     		mov	r0, r3
 3672 1480 03B0     		add	sp, sp, #12
 3673              		@ sp needed
 3674 1482 5DF804FB 		ldr	pc, [sp], #4
 3675              		.cfi_endproc
 3676              	.LFE60:
 3677              		.size	LSM303AGR_MAG_R_MROI, .-LSM303AGR_MAG_R_MROI
 3678 1486 00BF     		.align	2
 3679 1488 AFF30080 		.p2align 4,,15
 3679      AFF30080 
 3680              		.global	LSM303AGR_MAG_R_N_TH_S_Z
 3681              		.thumb
 3682              		.thumb_func
 3683              		.type	LSM303AGR_MAG_R_N_TH_S_Z, %function
 3684              	LSM303AGR_MAG_R_N_TH_S_Z:
 3685              	.LFB61:
 3686              		.loc 1 1320 0
 3687              		.cfi_startproc
 3688              		@ args = 0, pretend = 0, frame = 8
 3689              		@ frame_needed = 0, uses_anonymous_args = 0
 3690 1490 00B5     		push	{lr}
 3691              		.cfi_def_cfa_offset 4
 3692              		.cfi_offset 14, -4
 3693 1492 83B0     		sub	sp, sp, #12
 3694              		.cfi_def_cfa_offset 16
 3695 1494 0190     		str	r0, [sp, #4]
 3696 1496 0091     		str	r1, [sp]
 3697              		.loc 1 1321 0
 3698 1498 0198     		ldr	r0, [sp, #4]
 3699 149a 6421     		movs	r1, #100
 3700 149c 009A     		ldr	r2, [sp]
 3701 149e 0123     		movs	r3, #1
 3702 14a0 FFF7FEFF 		bl	LSM303AGR_MAG_ReadReg
 3703 14a4 0346     		mov	r3, r0
 3704 14a6 002B     		cmp	r3, #0
 3705 14a8 01D1     		bne	.L236
 3706              		.loc 1 1322 0
 3707 14aa 0023     		movs	r3, #0
 3708 14ac 07E0     		b	.L237
 3709              	.L236:
 3710              		.loc 1 1324 0
ARM GAS  /tmp/ccNUhamC.s 			page 67


 3711 14ae 009B     		ldr	r3, [sp]
 3712 14b0 1B78     		ldrb	r3, [r3]	@ zero_extendqisi2
 3713 14b2 03F00403 		and	r3, r3, #4
 3714 14b6 DAB2     		uxtb	r2, r3
 3715 14b8 009B     		ldr	r3, [sp]
 3716 14ba 1A70     		strb	r2, [r3]
 3717              		.loc 1 1326 0
 3718 14bc 0123     		movs	r3, #1
 3719              	.L237:
 3720              		.loc 1 1327 0
 3721 14be 1846     		mov	r0, r3
 3722 14c0 03B0     		add	sp, sp, #12
 3723              		@ sp needed
 3724 14c2 5DF804FB 		ldr	pc, [sp], #4
 3725              		.cfi_endproc
 3726              	.LFE61:
 3727              		.size	LSM303AGR_MAG_R_N_TH_S_Z, .-LSM303AGR_MAG_R_N_TH_S_Z
 3728 14c6 00BF     		.align	2
 3729 14c8 AFF30080 		.p2align 4,,15
 3729      AFF30080 
 3730              		.global	LSM303AGR_MAG_R_N_TH_S_Y
 3731              		.thumb
 3732              		.thumb_func
 3733              		.type	LSM303AGR_MAG_R_N_TH_S_Y, %function
 3734              	LSM303AGR_MAG_R_N_TH_S_Y:
 3735              	.LFB62:
 3736              		.loc 1 1337 0
 3737              		.cfi_startproc
 3738              		@ args = 0, pretend = 0, frame = 8
 3739              		@ frame_needed = 0, uses_anonymous_args = 0
 3740 14d0 00B5     		push	{lr}
 3741              		.cfi_def_cfa_offset 4
 3742              		.cfi_offset 14, -4
 3743 14d2 83B0     		sub	sp, sp, #12
 3744              		.cfi_def_cfa_offset 16
 3745 14d4 0190     		str	r0, [sp, #4]
 3746 14d6 0091     		str	r1, [sp]
 3747              		.loc 1 1338 0
 3748 14d8 0198     		ldr	r0, [sp, #4]
 3749 14da 6421     		movs	r1, #100
 3750 14dc 009A     		ldr	r2, [sp]
 3751 14de 0123     		movs	r3, #1
 3752 14e0 FFF7FEFF 		bl	LSM303AGR_MAG_ReadReg
 3753 14e4 0346     		mov	r3, r0
 3754 14e6 002B     		cmp	r3, #0
 3755 14e8 01D1     		bne	.L239
 3756              		.loc 1 1339 0
 3757 14ea 0023     		movs	r3, #0
 3758 14ec 07E0     		b	.L240
 3759              	.L239:
 3760              		.loc 1 1341 0
 3761 14ee 009B     		ldr	r3, [sp]
 3762 14f0 1B78     		ldrb	r3, [r3]	@ zero_extendqisi2
 3763 14f2 03F00803 		and	r3, r3, #8
 3764 14f6 DAB2     		uxtb	r2, r3
 3765 14f8 009B     		ldr	r3, [sp]
 3766 14fa 1A70     		strb	r2, [r3]
ARM GAS  /tmp/ccNUhamC.s 			page 68


 3767              		.loc 1 1343 0
 3768 14fc 0123     		movs	r3, #1
 3769              	.L240:
 3770              		.loc 1 1344 0
 3771 14fe 1846     		mov	r0, r3
 3772 1500 03B0     		add	sp, sp, #12
 3773              		@ sp needed
 3774 1502 5DF804FB 		ldr	pc, [sp], #4
 3775              		.cfi_endproc
 3776              	.LFE62:
 3777              		.size	LSM303AGR_MAG_R_N_TH_S_Y, .-LSM303AGR_MAG_R_N_TH_S_Y
 3778 1506 00BF     		.align	2
 3779 1508 AFF30080 		.p2align 4,,15
 3779      AFF30080 
 3780              		.global	LSM303AGR_MAG_R_N_TH_S_X
 3781              		.thumb
 3782              		.thumb_func
 3783              		.type	LSM303AGR_MAG_R_N_TH_S_X, %function
 3784              	LSM303AGR_MAG_R_N_TH_S_X:
 3785              	.LFB63:
 3786              		.loc 1 1354 0
 3787              		.cfi_startproc
 3788              		@ args = 0, pretend = 0, frame = 8
 3789              		@ frame_needed = 0, uses_anonymous_args = 0
 3790 1510 00B5     		push	{lr}
 3791              		.cfi_def_cfa_offset 4
 3792              		.cfi_offset 14, -4
 3793 1512 83B0     		sub	sp, sp, #12
 3794              		.cfi_def_cfa_offset 16
 3795 1514 0190     		str	r0, [sp, #4]
 3796 1516 0091     		str	r1, [sp]
 3797              		.loc 1 1355 0
 3798 1518 0198     		ldr	r0, [sp, #4]
 3799 151a 6421     		movs	r1, #100
 3800 151c 009A     		ldr	r2, [sp]
 3801 151e 0123     		movs	r3, #1
 3802 1520 FFF7FEFF 		bl	LSM303AGR_MAG_ReadReg
 3803 1524 0346     		mov	r3, r0
 3804 1526 002B     		cmp	r3, #0
 3805 1528 01D1     		bne	.L242
 3806              		.loc 1 1356 0
 3807 152a 0023     		movs	r3, #0
 3808 152c 07E0     		b	.L243
 3809              	.L242:
 3810              		.loc 1 1358 0
 3811 152e 009B     		ldr	r3, [sp]
 3812 1530 1B78     		ldrb	r3, [r3]	@ zero_extendqisi2
 3813 1532 03F01003 		and	r3, r3, #16
 3814 1536 DAB2     		uxtb	r2, r3
 3815 1538 009B     		ldr	r3, [sp]
 3816 153a 1A70     		strb	r2, [r3]
 3817              		.loc 1 1360 0
 3818 153c 0123     		movs	r3, #1
 3819              	.L243:
 3820              		.loc 1 1361 0
 3821 153e 1846     		mov	r0, r3
 3822 1540 03B0     		add	sp, sp, #12
ARM GAS  /tmp/ccNUhamC.s 			page 69


 3823              		@ sp needed
 3824 1542 5DF804FB 		ldr	pc, [sp], #4
 3825              		.cfi_endproc
 3826              	.LFE63:
 3827              		.size	LSM303AGR_MAG_R_N_TH_S_X, .-LSM303AGR_MAG_R_N_TH_S_X
 3828 1546 00BF     		.align	2
 3829 1548 AFF30080 		.p2align 4,,15
 3829      AFF30080 
 3830              		.global	LSM303AGR_MAG_R_P_TH_S_Z
 3831              		.thumb
 3832              		.thumb_func
 3833              		.type	LSM303AGR_MAG_R_P_TH_S_Z, %function
 3834              	LSM303AGR_MAG_R_P_TH_S_Z:
 3835              	.LFB64:
 3836              		.loc 1 1371 0
 3837              		.cfi_startproc
 3838              		@ args = 0, pretend = 0, frame = 8
 3839              		@ frame_needed = 0, uses_anonymous_args = 0
 3840 1550 00B5     		push	{lr}
 3841              		.cfi_def_cfa_offset 4
 3842              		.cfi_offset 14, -4
 3843 1552 83B0     		sub	sp, sp, #12
 3844              		.cfi_def_cfa_offset 16
 3845 1554 0190     		str	r0, [sp, #4]
 3846 1556 0091     		str	r1, [sp]
 3847              		.loc 1 1372 0
 3848 1558 0198     		ldr	r0, [sp, #4]
 3849 155a 6421     		movs	r1, #100
 3850 155c 009A     		ldr	r2, [sp]
 3851 155e 0123     		movs	r3, #1
 3852 1560 FFF7FEFF 		bl	LSM303AGR_MAG_ReadReg
 3853 1564 0346     		mov	r3, r0
 3854 1566 002B     		cmp	r3, #0
 3855 1568 01D1     		bne	.L245
 3856              		.loc 1 1373 0
 3857 156a 0023     		movs	r3, #0
 3858 156c 07E0     		b	.L246
 3859              	.L245:
 3860              		.loc 1 1375 0
 3861 156e 009B     		ldr	r3, [sp]
 3862 1570 1B78     		ldrb	r3, [r3]	@ zero_extendqisi2
 3863 1572 03F02003 		and	r3, r3, #32
 3864 1576 DAB2     		uxtb	r2, r3
 3865 1578 009B     		ldr	r3, [sp]
 3866 157a 1A70     		strb	r2, [r3]
 3867              		.loc 1 1377 0
 3868 157c 0123     		movs	r3, #1
 3869              	.L246:
 3870              		.loc 1 1378 0
 3871 157e 1846     		mov	r0, r3
 3872 1580 03B0     		add	sp, sp, #12
 3873              		@ sp needed
 3874 1582 5DF804FB 		ldr	pc, [sp], #4
 3875              		.cfi_endproc
 3876              	.LFE64:
 3877              		.size	LSM303AGR_MAG_R_P_TH_S_Z, .-LSM303AGR_MAG_R_P_TH_S_Z
 3878 1586 00BF     		.align	2
ARM GAS  /tmp/ccNUhamC.s 			page 70


 3879 1588 AFF30080 		.p2align 4,,15
 3879      AFF30080 
 3880              		.global	LSM303AGR_MAG_R_P_TH_S_Y
 3881              		.thumb
 3882              		.thumb_func
 3883              		.type	LSM303AGR_MAG_R_P_TH_S_Y, %function
 3884              	LSM303AGR_MAG_R_P_TH_S_Y:
 3885              	.LFB65:
 3886              		.loc 1 1388 0
 3887              		.cfi_startproc
 3888              		@ args = 0, pretend = 0, frame = 8
 3889              		@ frame_needed = 0, uses_anonymous_args = 0
 3890 1590 00B5     		push	{lr}
 3891              		.cfi_def_cfa_offset 4
 3892              		.cfi_offset 14, -4
 3893 1592 83B0     		sub	sp, sp, #12
 3894              		.cfi_def_cfa_offset 16
 3895 1594 0190     		str	r0, [sp, #4]
 3896 1596 0091     		str	r1, [sp]
 3897              		.loc 1 1389 0
 3898 1598 0198     		ldr	r0, [sp, #4]
 3899 159a 6421     		movs	r1, #100
 3900 159c 009A     		ldr	r2, [sp]
 3901 159e 0123     		movs	r3, #1
 3902 15a0 FFF7FEFF 		bl	LSM303AGR_MAG_ReadReg
 3903 15a4 0346     		mov	r3, r0
 3904 15a6 002B     		cmp	r3, #0
 3905 15a8 01D1     		bne	.L248
 3906              		.loc 1 1390 0
 3907 15aa 0023     		movs	r3, #0
 3908 15ac 07E0     		b	.L249
 3909              	.L248:
 3910              		.loc 1 1392 0
 3911 15ae 009B     		ldr	r3, [sp]
 3912 15b0 1B78     		ldrb	r3, [r3]	@ zero_extendqisi2
 3913 15b2 03F04003 		and	r3, r3, #64
 3914 15b6 DAB2     		uxtb	r2, r3
 3915 15b8 009B     		ldr	r3, [sp]
 3916 15ba 1A70     		strb	r2, [r3]
 3917              		.loc 1 1394 0
 3918 15bc 0123     		movs	r3, #1
 3919              	.L249:
 3920              		.loc 1 1395 0
 3921 15be 1846     		mov	r0, r3
 3922 15c0 03B0     		add	sp, sp, #12
 3923              		@ sp needed
 3924 15c2 5DF804FB 		ldr	pc, [sp], #4
 3925              		.cfi_endproc
 3926              	.LFE65:
 3927              		.size	LSM303AGR_MAG_R_P_TH_S_Y, .-LSM303AGR_MAG_R_P_TH_S_Y
 3928 15c6 00BF     		.align	2
 3929 15c8 AFF30080 		.p2align 4,,15
 3929      AFF30080 
 3930              		.global	LSM303AGR_MAG_R_P_TH_S_X
 3931              		.thumb
 3932              		.thumb_func
 3933              		.type	LSM303AGR_MAG_R_P_TH_S_X, %function
ARM GAS  /tmp/ccNUhamC.s 			page 71


 3934              	LSM303AGR_MAG_R_P_TH_S_X:
 3935              	.LFB66:
 3936              		.loc 1 1405 0
 3937              		.cfi_startproc
 3938              		@ args = 0, pretend = 0, frame = 8
 3939              		@ frame_needed = 0, uses_anonymous_args = 0
 3940 15d0 00B5     		push	{lr}
 3941              		.cfi_def_cfa_offset 4
 3942              		.cfi_offset 14, -4
 3943 15d2 83B0     		sub	sp, sp, #12
 3944              		.cfi_def_cfa_offset 16
 3945 15d4 0190     		str	r0, [sp, #4]
 3946 15d6 0091     		str	r1, [sp]
 3947              		.loc 1 1406 0
 3948 15d8 0198     		ldr	r0, [sp, #4]
 3949 15da 6421     		movs	r1, #100
 3950 15dc 009A     		ldr	r2, [sp]
 3951 15de 0123     		movs	r3, #1
 3952 15e0 FFF7FEFF 		bl	LSM303AGR_MAG_ReadReg
 3953 15e4 0346     		mov	r3, r0
 3954 15e6 002B     		cmp	r3, #0
 3955 15e8 01D1     		bne	.L251
 3956              		.loc 1 1407 0
 3957 15ea 0023     		movs	r3, #0
 3958 15ec 07E0     		b	.L252
 3959              	.L251:
 3960              		.loc 1 1409 0
 3961 15ee 009B     		ldr	r3, [sp]
 3962 15f0 1B78     		ldrb	r3, [r3]	@ zero_extendqisi2
 3963 15f2 23F07F03 		bic	r3, r3, #127
 3964 15f6 DAB2     		uxtb	r2, r3
 3965 15f8 009B     		ldr	r3, [sp]
 3966 15fa 1A70     		strb	r2, [r3]
 3967              		.loc 1 1411 0
 3968 15fc 0123     		movs	r3, #1
 3969              	.L252:
 3970              		.loc 1 1412 0
 3971 15fe 1846     		mov	r0, r3
 3972 1600 03B0     		add	sp, sp, #12
 3973              		@ sp needed
 3974 1602 5DF804FB 		ldr	pc, [sp], #4
 3975              		.cfi_endproc
 3976              	.LFE66:
 3977              		.size	LSM303AGR_MAG_R_P_TH_S_X, .-LSM303AGR_MAG_R_P_TH_S_X
 3978 1606 00BF     		.align	2
 3979 1608 AFF30080 		.p2align 4,,15
 3979      AFF30080 
 3980              		.global	LSM303AGR_MAG_R_XDA
 3981              		.thumb
 3982              		.thumb_func
 3983              		.type	LSM303AGR_MAG_R_XDA, %function
 3984              	LSM303AGR_MAG_R_XDA:
 3985              	.LFB67:
 3986              		.loc 1 1422 0
 3987              		.cfi_startproc
 3988              		@ args = 0, pretend = 0, frame = 8
 3989              		@ frame_needed = 0, uses_anonymous_args = 0
ARM GAS  /tmp/ccNUhamC.s 			page 72


 3990 1610 00B5     		push	{lr}
 3991              		.cfi_def_cfa_offset 4
 3992              		.cfi_offset 14, -4
 3993 1612 83B0     		sub	sp, sp, #12
 3994              		.cfi_def_cfa_offset 16
 3995 1614 0190     		str	r0, [sp, #4]
 3996 1616 0091     		str	r1, [sp]
 3997              		.loc 1 1423 0
 3998 1618 0198     		ldr	r0, [sp, #4]
 3999 161a 6721     		movs	r1, #103
 4000 161c 009A     		ldr	r2, [sp]
 4001 161e 0123     		movs	r3, #1
 4002 1620 FFF7FEFF 		bl	LSM303AGR_MAG_ReadReg
 4003 1624 0346     		mov	r3, r0
 4004 1626 002B     		cmp	r3, #0
 4005 1628 01D1     		bne	.L254
 4006              		.loc 1 1424 0
 4007 162a 0023     		movs	r3, #0
 4008 162c 07E0     		b	.L255
 4009              	.L254:
 4010              		.loc 1 1426 0
 4011 162e 009B     		ldr	r3, [sp]
 4012 1630 1B78     		ldrb	r3, [r3]	@ zero_extendqisi2
 4013 1632 03F00103 		and	r3, r3, #1
 4014 1636 DAB2     		uxtb	r2, r3
 4015 1638 009B     		ldr	r3, [sp]
 4016 163a 1A70     		strb	r2, [r3]
 4017              		.loc 1 1428 0
 4018 163c 0123     		movs	r3, #1
 4019              	.L255:
 4020              		.loc 1 1429 0
 4021 163e 1846     		mov	r0, r3
 4022 1640 03B0     		add	sp, sp, #12
 4023              		@ sp needed
 4024 1642 5DF804FB 		ldr	pc, [sp], #4
 4025              		.cfi_endproc
 4026              	.LFE67:
 4027              		.size	LSM303AGR_MAG_R_XDA, .-LSM303AGR_MAG_R_XDA
 4028 1646 00BF     		.align	2
 4029 1648 AFF30080 		.p2align 4,,15
 4029      AFF30080 
 4030              		.global	LSM303AGR_MAG_R_YDA
 4031              		.thumb
 4032              		.thumb_func
 4033              		.type	LSM303AGR_MAG_R_YDA, %function
 4034              	LSM303AGR_MAG_R_YDA:
 4035              	.LFB68:
 4036              		.loc 1 1439 0
 4037              		.cfi_startproc
 4038              		@ args = 0, pretend = 0, frame = 8
 4039              		@ frame_needed = 0, uses_anonymous_args = 0
 4040 1650 00B5     		push	{lr}
 4041              		.cfi_def_cfa_offset 4
 4042              		.cfi_offset 14, -4
 4043 1652 83B0     		sub	sp, sp, #12
 4044              		.cfi_def_cfa_offset 16
 4045 1654 0190     		str	r0, [sp, #4]
ARM GAS  /tmp/ccNUhamC.s 			page 73


 4046 1656 0091     		str	r1, [sp]
 4047              		.loc 1 1440 0
 4048 1658 0198     		ldr	r0, [sp, #4]
 4049 165a 6721     		movs	r1, #103
 4050 165c 009A     		ldr	r2, [sp]
 4051 165e 0123     		movs	r3, #1
 4052 1660 FFF7FEFF 		bl	LSM303AGR_MAG_ReadReg
 4053 1664 0346     		mov	r3, r0
 4054 1666 002B     		cmp	r3, #0
 4055 1668 01D1     		bne	.L257
 4056              		.loc 1 1441 0
 4057 166a 0023     		movs	r3, #0
 4058 166c 07E0     		b	.L258
 4059              	.L257:
 4060              		.loc 1 1443 0
 4061 166e 009B     		ldr	r3, [sp]
 4062 1670 1B78     		ldrb	r3, [r3]	@ zero_extendqisi2
 4063 1672 03F00203 		and	r3, r3, #2
 4064 1676 DAB2     		uxtb	r2, r3
 4065 1678 009B     		ldr	r3, [sp]
 4066 167a 1A70     		strb	r2, [r3]
 4067              		.loc 1 1445 0
 4068 167c 0123     		movs	r3, #1
 4069              	.L258:
 4070              		.loc 1 1446 0
 4071 167e 1846     		mov	r0, r3
 4072 1680 03B0     		add	sp, sp, #12
 4073              		@ sp needed
 4074 1682 5DF804FB 		ldr	pc, [sp], #4
 4075              		.cfi_endproc
 4076              	.LFE68:
 4077              		.size	LSM303AGR_MAG_R_YDA, .-LSM303AGR_MAG_R_YDA
 4078 1686 00BF     		.align	2
 4079 1688 AFF30080 		.p2align 4,,15
 4079      AFF30080 
 4080              		.global	LSM303AGR_MAG_R_ZDA
 4081              		.thumb
 4082              		.thumb_func
 4083              		.type	LSM303AGR_MAG_R_ZDA, %function
 4084              	LSM303AGR_MAG_R_ZDA:
 4085              	.LFB69:
 4086              		.loc 1 1456 0
 4087              		.cfi_startproc
 4088              		@ args = 0, pretend = 0, frame = 8
 4089              		@ frame_needed = 0, uses_anonymous_args = 0
 4090 1690 00B5     		push	{lr}
 4091              		.cfi_def_cfa_offset 4
 4092              		.cfi_offset 14, -4
 4093 1692 83B0     		sub	sp, sp, #12
 4094              		.cfi_def_cfa_offset 16
 4095 1694 0190     		str	r0, [sp, #4]
 4096 1696 0091     		str	r1, [sp]
 4097              		.loc 1 1457 0
 4098 1698 0198     		ldr	r0, [sp, #4]
 4099 169a 6721     		movs	r1, #103
 4100 169c 009A     		ldr	r2, [sp]
 4101 169e 0123     		movs	r3, #1
ARM GAS  /tmp/ccNUhamC.s 			page 74


 4102 16a0 FFF7FEFF 		bl	LSM303AGR_MAG_ReadReg
 4103 16a4 0346     		mov	r3, r0
 4104 16a6 002B     		cmp	r3, #0
 4105 16a8 01D1     		bne	.L260
 4106              		.loc 1 1458 0
 4107 16aa 0023     		movs	r3, #0
 4108 16ac 07E0     		b	.L261
 4109              	.L260:
 4110              		.loc 1 1460 0
 4111 16ae 009B     		ldr	r3, [sp]
 4112 16b0 1B78     		ldrb	r3, [r3]	@ zero_extendqisi2
 4113 16b2 03F00403 		and	r3, r3, #4
 4114 16b6 DAB2     		uxtb	r2, r3
 4115 16b8 009B     		ldr	r3, [sp]
 4116 16ba 1A70     		strb	r2, [r3]
 4117              		.loc 1 1462 0
 4118 16bc 0123     		movs	r3, #1
 4119              	.L261:
 4120              		.loc 1 1463 0
 4121 16be 1846     		mov	r0, r3
 4122 16c0 03B0     		add	sp, sp, #12
 4123              		@ sp needed
 4124 16c2 5DF804FB 		ldr	pc, [sp], #4
 4125              		.cfi_endproc
 4126              	.LFE69:
 4127              		.size	LSM303AGR_MAG_R_ZDA, .-LSM303AGR_MAG_R_ZDA
 4128 16c6 00BF     		.align	2
 4129 16c8 AFF30080 		.p2align 4,,15
 4129      AFF30080 
 4130              		.global	LSM303AGR_MAG_R_ZYXDA
 4131              		.thumb
 4132              		.thumb_func
 4133              		.type	LSM303AGR_MAG_R_ZYXDA, %function
 4134              	LSM303AGR_MAG_R_ZYXDA:
 4135              	.LFB70:
 4136              		.loc 1 1473 0
 4137              		.cfi_startproc
 4138              		@ args = 0, pretend = 0, frame = 8
 4139              		@ frame_needed = 0, uses_anonymous_args = 0
 4140 16d0 00B5     		push	{lr}
 4141              		.cfi_def_cfa_offset 4
 4142              		.cfi_offset 14, -4
 4143 16d2 83B0     		sub	sp, sp, #12
 4144              		.cfi_def_cfa_offset 16
 4145 16d4 0190     		str	r0, [sp, #4]
 4146 16d6 0091     		str	r1, [sp]
 4147              		.loc 1 1474 0
 4148 16d8 0198     		ldr	r0, [sp, #4]
 4149 16da 6721     		movs	r1, #103
 4150 16dc 009A     		ldr	r2, [sp]
 4151 16de 0123     		movs	r3, #1
 4152 16e0 FFF7FEFF 		bl	LSM303AGR_MAG_ReadReg
 4153 16e4 0346     		mov	r3, r0
 4154 16e6 002B     		cmp	r3, #0
 4155 16e8 01D1     		bne	.L263
 4156              		.loc 1 1475 0
 4157 16ea 0023     		movs	r3, #0
ARM GAS  /tmp/ccNUhamC.s 			page 75


 4158 16ec 07E0     		b	.L264
 4159              	.L263:
 4160              		.loc 1 1477 0
 4161 16ee 009B     		ldr	r3, [sp]
 4162 16f0 1B78     		ldrb	r3, [r3]	@ zero_extendqisi2
 4163 16f2 03F00803 		and	r3, r3, #8
 4164 16f6 DAB2     		uxtb	r2, r3
 4165 16f8 009B     		ldr	r3, [sp]
 4166 16fa 1A70     		strb	r2, [r3]
 4167              		.loc 1 1479 0
 4168 16fc 0123     		movs	r3, #1
 4169              	.L264:
 4170              		.loc 1 1480 0
 4171 16fe 1846     		mov	r0, r3
 4172 1700 03B0     		add	sp, sp, #12
 4173              		@ sp needed
 4174 1702 5DF804FB 		ldr	pc, [sp], #4
 4175              		.cfi_endproc
 4176              	.LFE70:
 4177              		.size	LSM303AGR_MAG_R_ZYXDA, .-LSM303AGR_MAG_R_ZYXDA
 4178 1706 00BF     		.align	2
 4179 1708 AFF30080 		.p2align 4,,15
 4179      AFF30080 
 4180              		.global	LSM303AGR_MAG_R_XOR
 4181              		.thumb
 4182              		.thumb_func
 4183              		.type	LSM303AGR_MAG_R_XOR, %function
 4184              	LSM303AGR_MAG_R_XOR:
 4185              	.LFB71:
 4186              		.loc 1 1490 0
 4187              		.cfi_startproc
 4188              		@ args = 0, pretend = 0, frame = 8
 4189              		@ frame_needed = 0, uses_anonymous_args = 0
 4190 1710 00B5     		push	{lr}
 4191              		.cfi_def_cfa_offset 4
 4192              		.cfi_offset 14, -4
 4193 1712 83B0     		sub	sp, sp, #12
 4194              		.cfi_def_cfa_offset 16
 4195 1714 0190     		str	r0, [sp, #4]
 4196 1716 0091     		str	r1, [sp]
 4197              		.loc 1 1491 0
 4198 1718 0198     		ldr	r0, [sp, #4]
 4199 171a 6721     		movs	r1, #103
 4200 171c 009A     		ldr	r2, [sp]
 4201 171e 0123     		movs	r3, #1
 4202 1720 FFF7FEFF 		bl	LSM303AGR_MAG_ReadReg
 4203 1724 0346     		mov	r3, r0
 4204 1726 002B     		cmp	r3, #0
 4205 1728 01D1     		bne	.L266
 4206              		.loc 1 1492 0
 4207 172a 0023     		movs	r3, #0
 4208 172c 07E0     		b	.L267
 4209              	.L266:
 4210              		.loc 1 1494 0
 4211 172e 009B     		ldr	r3, [sp]
 4212 1730 1B78     		ldrb	r3, [r3]	@ zero_extendqisi2
 4213 1732 03F01003 		and	r3, r3, #16
ARM GAS  /tmp/ccNUhamC.s 			page 76


 4214 1736 DAB2     		uxtb	r2, r3
 4215 1738 009B     		ldr	r3, [sp]
 4216 173a 1A70     		strb	r2, [r3]
 4217              		.loc 1 1496 0
 4218 173c 0123     		movs	r3, #1
 4219              	.L267:
 4220              		.loc 1 1497 0
 4221 173e 1846     		mov	r0, r3
 4222 1740 03B0     		add	sp, sp, #12
 4223              		@ sp needed
 4224 1742 5DF804FB 		ldr	pc, [sp], #4
 4225              		.cfi_endproc
 4226              	.LFE71:
 4227              		.size	LSM303AGR_MAG_R_XOR, .-LSM303AGR_MAG_R_XOR
 4228 1746 00BF     		.align	2
 4229 1748 AFF30080 		.p2align 4,,15
 4229      AFF30080 
 4230              		.global	LSM303AGR_MAG_R_YOR
 4231              		.thumb
 4232              		.thumb_func
 4233              		.type	LSM303AGR_MAG_R_YOR, %function
 4234              	LSM303AGR_MAG_R_YOR:
 4235              	.LFB72:
 4236              		.loc 1 1507 0
 4237              		.cfi_startproc
 4238              		@ args = 0, pretend = 0, frame = 8
 4239              		@ frame_needed = 0, uses_anonymous_args = 0
 4240 1750 00B5     		push	{lr}
 4241              		.cfi_def_cfa_offset 4
 4242              		.cfi_offset 14, -4
 4243 1752 83B0     		sub	sp, sp, #12
 4244              		.cfi_def_cfa_offset 16
 4245 1754 0190     		str	r0, [sp, #4]
 4246 1756 0091     		str	r1, [sp]
 4247              		.loc 1 1508 0
 4248 1758 0198     		ldr	r0, [sp, #4]
 4249 175a 6721     		movs	r1, #103
 4250 175c 009A     		ldr	r2, [sp]
 4251 175e 0123     		movs	r3, #1
 4252 1760 FFF7FEFF 		bl	LSM303AGR_MAG_ReadReg
 4253 1764 0346     		mov	r3, r0
 4254 1766 002B     		cmp	r3, #0
 4255 1768 01D1     		bne	.L269
 4256              		.loc 1 1509 0
 4257 176a 0023     		movs	r3, #0
 4258 176c 07E0     		b	.L270
 4259              	.L269:
 4260              		.loc 1 1511 0
 4261 176e 009B     		ldr	r3, [sp]
 4262 1770 1B78     		ldrb	r3, [r3]	@ zero_extendqisi2
 4263 1772 03F02003 		and	r3, r3, #32
 4264 1776 DAB2     		uxtb	r2, r3
 4265 1778 009B     		ldr	r3, [sp]
 4266 177a 1A70     		strb	r2, [r3]
 4267              		.loc 1 1513 0
 4268 177c 0123     		movs	r3, #1
 4269              	.L270:
ARM GAS  /tmp/ccNUhamC.s 			page 77


 4270              		.loc 1 1514 0
 4271 177e 1846     		mov	r0, r3
 4272 1780 03B0     		add	sp, sp, #12
 4273              		@ sp needed
 4274 1782 5DF804FB 		ldr	pc, [sp], #4
 4275              		.cfi_endproc
 4276              	.LFE72:
 4277              		.size	LSM303AGR_MAG_R_YOR, .-LSM303AGR_MAG_R_YOR
 4278 1786 00BF     		.align	2
 4279 1788 AFF30080 		.p2align 4,,15
 4279      AFF30080 
 4280              		.global	LSM303AGR_MAG_R_ZOR
 4281              		.thumb
 4282              		.thumb_func
 4283              		.type	LSM303AGR_MAG_R_ZOR, %function
 4284              	LSM303AGR_MAG_R_ZOR:
 4285              	.LFB73:
 4286              		.loc 1 1524 0
 4287              		.cfi_startproc
 4288              		@ args = 0, pretend = 0, frame = 8
 4289              		@ frame_needed = 0, uses_anonymous_args = 0
 4290 1790 00B5     		push	{lr}
 4291              		.cfi_def_cfa_offset 4
 4292              		.cfi_offset 14, -4
 4293 1792 83B0     		sub	sp, sp, #12
 4294              		.cfi_def_cfa_offset 16
 4295 1794 0190     		str	r0, [sp, #4]
 4296 1796 0091     		str	r1, [sp]
 4297              		.loc 1 1525 0
 4298 1798 0198     		ldr	r0, [sp, #4]
 4299 179a 6721     		movs	r1, #103
 4300 179c 009A     		ldr	r2, [sp]
 4301 179e 0123     		movs	r3, #1
 4302 17a0 FFF7FEFF 		bl	LSM303AGR_MAG_ReadReg
 4303 17a4 0346     		mov	r3, r0
 4304 17a6 002B     		cmp	r3, #0
 4305 17a8 01D1     		bne	.L272
 4306              		.loc 1 1526 0
 4307 17aa 0023     		movs	r3, #0
 4308 17ac 07E0     		b	.L273
 4309              	.L272:
 4310              		.loc 1 1528 0
 4311 17ae 009B     		ldr	r3, [sp]
 4312 17b0 1B78     		ldrb	r3, [r3]	@ zero_extendqisi2
 4313 17b2 03F04003 		and	r3, r3, #64
 4314 17b6 DAB2     		uxtb	r2, r3
 4315 17b8 009B     		ldr	r3, [sp]
 4316 17ba 1A70     		strb	r2, [r3]
 4317              		.loc 1 1530 0
 4318 17bc 0123     		movs	r3, #1
 4319              	.L273:
 4320              		.loc 1 1531 0
 4321 17be 1846     		mov	r0, r3
 4322 17c0 03B0     		add	sp, sp, #12
 4323              		@ sp needed
 4324 17c2 5DF804FB 		ldr	pc, [sp], #4
 4325              		.cfi_endproc
ARM GAS  /tmp/ccNUhamC.s 			page 78


 4326              	.LFE73:
 4327              		.size	LSM303AGR_MAG_R_ZOR, .-LSM303AGR_MAG_R_ZOR
 4328 17c6 00BF     		.align	2
 4329 17c8 AFF30080 		.p2align 4,,15
 4329      AFF30080 
 4330              		.global	LSM303AGR_MAG_R_ZYXOR
 4331              		.thumb
 4332              		.thumb_func
 4333              		.type	LSM303AGR_MAG_R_ZYXOR, %function
 4334              	LSM303AGR_MAG_R_ZYXOR:
 4335              	.LFB74:
 4336              		.loc 1 1541 0
 4337              		.cfi_startproc
 4338              		@ args = 0, pretend = 0, frame = 8
 4339              		@ frame_needed = 0, uses_anonymous_args = 0
 4340 17d0 00B5     		push	{lr}
 4341              		.cfi_def_cfa_offset 4
 4342              		.cfi_offset 14, -4
 4343 17d2 83B0     		sub	sp, sp, #12
 4344              		.cfi_def_cfa_offset 16
 4345 17d4 0190     		str	r0, [sp, #4]
 4346 17d6 0091     		str	r1, [sp]
 4347              		.loc 1 1542 0
 4348 17d8 0198     		ldr	r0, [sp, #4]
 4349 17da 6721     		movs	r1, #103
 4350 17dc 009A     		ldr	r2, [sp]
 4351 17de 0123     		movs	r3, #1
 4352 17e0 FFF7FEFF 		bl	LSM303AGR_MAG_ReadReg
 4353 17e4 0346     		mov	r3, r0
 4354 17e6 002B     		cmp	r3, #0
 4355 17e8 01D1     		bne	.L275
 4356              		.loc 1 1543 0
 4357 17ea 0023     		movs	r3, #0
 4358 17ec 07E0     		b	.L276
 4359              	.L275:
 4360              		.loc 1 1545 0
 4361 17ee 009B     		ldr	r3, [sp]
 4362 17f0 1B78     		ldrb	r3, [r3]	@ zero_extendqisi2
 4363 17f2 23F07F03 		bic	r3, r3, #127
 4364 17f6 DAB2     		uxtb	r2, r3
 4365 17f8 009B     		ldr	r3, [sp]
 4366 17fa 1A70     		strb	r2, [r3]
 4367              		.loc 1 1547 0
 4368 17fc 0123     		movs	r3, #1
 4369              	.L276:
 4370              		.loc 1 1548 0
 4371 17fe 1846     		mov	r0, r3
 4372 1800 03B0     		add	sp, sp, #12
 4373              		@ sp needed
 4374 1802 5DF804FB 		ldr	pc, [sp], #4
 4375              		.cfi_endproc
 4376              	.LFE74:
 4377              		.size	LSM303AGR_MAG_R_ZYXOR, .-LSM303AGR_MAG_R_ZYXOR
 4378 1806 00BF     		.align	2
 4379 1808 AFF30080 		.p2align 4,,15
 4379      AFF30080 
 4380              		.global	LSM303AGR_MAG_Get_IntThreshld
ARM GAS  /tmp/ccNUhamC.s 			page 79


 4381              		.thumb
 4382              		.thumb_func
 4383              		.type	LSM303AGR_MAG_Get_IntThreshld, %function
 4384              	LSM303AGR_MAG_Get_IntThreshld:
 4385              	.LFB75:
 4386              		.loc 1 1559 0
 4387              		.cfi_startproc
 4388              		@ args = 0, pretend = 0, frame = 16
 4389              		@ frame_needed = 0, uses_anonymous_args = 0
 4390 1810 00B5     		push	{lr}
 4391              		.cfi_def_cfa_offset 4
 4392              		.cfi_offset 14, -4
 4393 1812 85B0     		sub	sp, sp, #20
 4394              		.cfi_def_cfa_offset 24
 4395 1814 0190     		str	r0, [sp, #4]
 4396 1816 0091     		str	r1, [sp]
 4397              		.loc 1 1563 0
 4398 1818 0223     		movs	r3, #2
 4399 181a 8DF80C30 		strb	r3, [sp, #12]
 4400              		.loc 1 1565 0
 4401 181e 0023     		movs	r3, #0
 4402 1820 8DF80D30 		strb	r3, [sp, #13]
 4403              		.loc 1 1566 0
 4404 1824 0023     		movs	r3, #0
 4405 1826 8DF80F30 		strb	r3, [sp, #15]
 4406 182a 2BE0     		b	.L278
 4407              	.L283:
 4408              		.loc 1 1568 0
 4409 182c 0023     		movs	r3, #0
 4410 182e 8DF80E30 		strb	r3, [sp, #14]
 4411 1832 1CE0     		b	.L279
 4412              	.L282:
 4413              		.loc 1 1570 0
 4414 1834 9DF80D30 		ldrb	r3, [sp, #13]
 4415 1838 6533     		adds	r3, r3, #101
 4416 183a DAB2     		uxtb	r2, r3
 4417 183c 9DF80D30 		ldrb	r3, [sp, #13]	@ zero_extendqisi2
 4418 1840 0099     		ldr	r1, [sp]
 4419 1842 0B44     		add	r3, r3, r1
 4420 1844 0198     		ldr	r0, [sp, #4]
 4421 1846 1146     		mov	r1, r2
 4422 1848 1A46     		mov	r2, r3
 4423 184a 0123     		movs	r3, #1
 4424 184c FFF7FEFF 		bl	LSM303AGR_MAG_ReadReg
 4425 1850 0346     		mov	r3, r0
 4426 1852 002B     		cmp	r3, #0
 4427 1854 01D1     		bne	.L280
 4428              		.loc 1 1571 0
 4429 1856 0023     		movs	r3, #0
 4430 1858 19E0     		b	.L281
 4431              	.L280:
 4432              		.loc 1 1572 0
 4433 185a 9DF80D30 		ldrb	r3, [sp, #13]	@ zero_extendqisi2
 4434 185e 0133     		adds	r3, r3, #1
 4435 1860 8DF80D30 		strb	r3, [sp, #13]
 4436              		.loc 1 1568 0
 4437 1864 9DF80E30 		ldrb	r3, [sp, #14]	@ zero_extendqisi2
ARM GAS  /tmp/ccNUhamC.s 			page 80


 4438 1868 0133     		adds	r3, r3, #1
 4439 186a 8DF80E30 		strb	r3, [sp, #14]
 4440              	.L279:
 4441              		.loc 1 1568 0 is_stmt 0 discriminator 1
 4442 186e 9DF80E20 		ldrb	r2, [sp, #14]	@ zero_extendqisi2
 4443 1872 9DF80C30 		ldrb	r3, [sp, #12]	@ zero_extendqisi2
 4444 1876 9A42     		cmp	r2, r3
 4445 1878 DCD3     		bcc	.L282
 4446              		.loc 1 1566 0 is_stmt 1
 4447 187a 9DF80F30 		ldrb	r3, [sp, #15]	@ zero_extendqisi2
 4448 187e 0133     		adds	r3, r3, #1
 4449 1880 8DF80F30 		strb	r3, [sp, #15]
 4450              	.L278:
 4451              		.loc 1 1566 0 is_stmt 0 discriminator 1
 4452 1884 9DF80F30 		ldrb	r3, [sp, #15]	@ zero_extendqisi2
 4453 1888 002B     		cmp	r3, #0
 4454 188a CFD0     		beq	.L283
 4455              		.loc 1 1576 0 is_stmt 1
 4456 188c 0123     		movs	r3, #1
 4457              	.L281:
 4458              		.loc 1 1577 0
 4459 188e 1846     		mov	r0, r3
 4460 1890 05B0     		add	sp, sp, #20
 4461              		@ sp needed
 4462 1892 5DF804FB 		ldr	pc, [sp], #4
 4463              		.cfi_endproc
 4464              	.LFE75:
 4465              		.size	LSM303AGR_MAG_Get_IntThreshld, .-LSM303AGR_MAG_Get_IntThreshld
 4466 1896 00BF     		.align	2
 4467 1898 AFF30080 		.p2align 4,,15
 4467      AFF30080 
 4468              		.global	LSM303AGR_MAG_Set_IntThreshld
 4469              		.thumb
 4470              		.thumb_func
 4471              		.type	LSM303AGR_MAG_Set_IntThreshld, %function
 4472              	LSM303AGR_MAG_Set_IntThreshld:
 4473              	.LFB76:
 4474              		.loc 1 1587 0
 4475              		.cfi_startproc
 4476              		@ args = 0, pretend = 0, frame = 16
 4477              		@ frame_needed = 0, uses_anonymous_args = 0
 4478 18a0 00B5     		push	{lr}
 4479              		.cfi_def_cfa_offset 4
 4480              		.cfi_offset 14, -4
 4481 18a2 85B0     		sub	sp, sp, #20
 4482              		.cfi_def_cfa_offset 24
 4483 18a4 0190     		str	r0, [sp, #4]
 4484 18a6 0091     		str	r1, [sp]
 4485              		.loc 1 1591 0
 4486 18a8 0223     		movs	r3, #2
 4487 18aa 8DF80C30 		strb	r3, [sp, #12]
 4488              		.loc 1 1593 0
 4489 18ae 0023     		movs	r3, #0
 4490 18b0 8DF80D30 		strb	r3, [sp, #13]
 4491              		.loc 1 1594 0
 4492 18b4 0023     		movs	r3, #0
 4493 18b6 8DF80F30 		strb	r3, [sp, #15]
ARM GAS  /tmp/ccNUhamC.s 			page 81


 4494 18ba 2BE0     		b	.L285
 4495              	.L290:
 4496              		.loc 1 1596 0
 4497 18bc 0023     		movs	r3, #0
 4498 18be 8DF80E30 		strb	r3, [sp, #14]
 4499 18c2 1CE0     		b	.L286
 4500              	.L289:
 4501              		.loc 1 1598 0
 4502 18c4 9DF80D30 		ldrb	r3, [sp, #13]
 4503 18c8 6533     		adds	r3, r3, #101
 4504 18ca DAB2     		uxtb	r2, r3
 4505 18cc 9DF80D30 		ldrb	r3, [sp, #13]	@ zero_extendqisi2
 4506 18d0 0099     		ldr	r1, [sp]
 4507 18d2 0B44     		add	r3, r3, r1
 4508 18d4 0198     		ldr	r0, [sp, #4]
 4509 18d6 1146     		mov	r1, r2
 4510 18d8 1A46     		mov	r2, r3
 4511 18da 0123     		movs	r3, #1
 4512 18dc FFF7FEFF 		bl	LSM303AGR_MAG_WriteReg
 4513 18e0 0346     		mov	r3, r0
 4514 18e2 002B     		cmp	r3, #0
 4515 18e4 01D1     		bne	.L287
 4516              		.loc 1 1599 0
 4517 18e6 0023     		movs	r3, #0
 4518 18e8 19E0     		b	.L288
 4519              	.L287:
 4520              		.loc 1 1600 0
 4521 18ea 9DF80D30 		ldrb	r3, [sp, #13]	@ zero_extendqisi2
 4522 18ee 0133     		adds	r3, r3, #1
 4523 18f0 8DF80D30 		strb	r3, [sp, #13]
 4524              		.loc 1 1596 0
 4525 18f4 9DF80E30 		ldrb	r3, [sp, #14]	@ zero_extendqisi2
 4526 18f8 0133     		adds	r3, r3, #1
 4527 18fa 8DF80E30 		strb	r3, [sp, #14]
 4528              	.L286:
 4529              		.loc 1 1596 0 is_stmt 0 discriminator 1
 4530 18fe 9DF80E20 		ldrb	r2, [sp, #14]	@ zero_extendqisi2
 4531 1902 9DF80C30 		ldrb	r3, [sp, #12]	@ zero_extendqisi2
 4532 1906 9A42     		cmp	r2, r3
 4533 1908 DCD3     		bcc	.L289
 4534              		.loc 1 1594 0 is_stmt 1
 4535 190a 9DF80F30 		ldrb	r3, [sp, #15]	@ zero_extendqisi2
 4536 190e 0133     		adds	r3, r3, #1
 4537 1910 8DF80F30 		strb	r3, [sp, #15]
 4538              	.L285:
 4539              		.loc 1 1594 0 is_stmt 0 discriminator 1
 4540 1914 9DF80F30 		ldrb	r3, [sp, #15]	@ zero_extendqisi2
 4541 1918 002B     		cmp	r3, #0
 4542 191a CFD0     		beq	.L290
 4543              		.loc 1 1604 0 is_stmt 1
 4544 191c 0123     		movs	r3, #1
 4545              	.L288:
 4546              		.loc 1 1605 0
 4547 191e 1846     		mov	r0, r3
 4548 1920 05B0     		add	sp, sp, #20
 4549              		@ sp needed
 4550 1922 5DF804FB 		ldr	pc, [sp], #4
ARM GAS  /tmp/ccNUhamC.s 			page 82


 4551              		.cfi_endproc
 4552              	.LFE76:
 4553              		.size	LSM303AGR_MAG_Set_IntThreshld, .-LSM303AGR_MAG_Set_IntThreshld
 4554              	.Letext0:
 4555              		.file 2 "../../../../../Drivers/BSP/Components/lsm303agr/LSM303AGR_MAG_driver.h"
 4556 1926 00BFAFF3 		.section	.debug_info,"",%progbits
 4556      0080AFF3 
 4556      0080
 4557              	.Ldebug_info0:
 4558 0000 591A0000 		.4byte	0x1a59
 4559 0004 0400     		.2byte	0x4
 4560 0006 00000000 		.4byte	.Ldebug_abbrev0
 4561 000a 04       		.byte	0x4
 4562 000b 01       		.uleb128 0x1
 4563 000c F4000000 		.4byte	.LASF219
 4564 0010 01       		.byte	0x1
 4565 0011 9E120000 		.4byte	.LASF220
 4566 0015 7E060000 		.4byte	.LASF221
 4567 0019 00000000 		.4byte	.Ltext0
 4568 001d 26190000 		.4byte	.Letext0-.Ltext0
 4569 0021 00000000 		.4byte	.Ldebug_line0
 4570 0025 02       		.uleb128 0x2
 4571 0026 01       		.byte	0x1
 4572 0027 06       		.byte	0x6
 4573 0028 8A030000 		.4byte	.LASF0
 4574 002c 02       		.uleb128 0x2
 4575 002d 01       		.byte	0x1
 4576 002e 08       		.byte	0x8
 4577 002f 830D0000 		.4byte	.LASF1
 4578 0033 02       		.uleb128 0x2
 4579 0034 02       		.byte	0x2
 4580 0035 05       		.byte	0x5
 4581 0036 DF0D0000 		.4byte	.LASF2
 4582 003a 02       		.uleb128 0x2
 4583 003b 02       		.byte	0x2
 4584 003c 07       		.byte	0x7
 4585 003d C9080000 		.4byte	.LASF3
 4586 0041 02       		.uleb128 0x2
 4587 0042 04       		.byte	0x4
 4588 0043 05       		.byte	0x5
 4589 0044 85040000 		.4byte	.LASF4
 4590 0048 02       		.uleb128 0x2
 4591 0049 04       		.byte	0x4
 4592 004a 07       		.byte	0x7
 4593 004b 2B080000 		.4byte	.LASF5
 4594 004f 02       		.uleb128 0x2
 4595 0050 08       		.byte	0x8
 4596 0051 05       		.byte	0x5
 4597 0052 7C030000 		.4byte	.LASF6
 4598 0056 02       		.uleb128 0x2
 4599 0057 08       		.byte	0x8
 4600 0058 07       		.byte	0x7
 4601 0059 A0020000 		.4byte	.LASF7
 4602 005d 03       		.uleb128 0x3
 4603 005e 04       		.byte	0x4
 4604 005f 05       		.byte	0x5
 4605 0060 696E7400 		.ascii	"int\000"
ARM GAS  /tmp/ccNUhamC.s 			page 83


 4606 0064 02       		.uleb128 0x2
 4607 0065 04       		.byte	0x4
 4608 0066 07       		.byte	0x7
 4609 0067 9A070000 		.4byte	.LASF8
 4610 006b 04       		.uleb128 0x4
 4611 006c E60A0000 		.4byte	.LASF9
 4612 0070 02       		.byte	0x2
 4613 0071 38       		.byte	0x38
 4614 0072 2C000000 		.4byte	0x2c
 4615 0076 04       		.uleb128 0x4
 4616 0077 8B110000 		.4byte	.LASF10
 4617 007b 02       		.byte	0x2
 4618 007c 39       		.byte	0x39
 4619 007d 3A000000 		.4byte	0x3a
 4620 0081 04       		.uleb128 0x4
 4621 0082 77000000 		.4byte	.LASF11
 4622 0086 02       		.byte	0x2
 4623 0087 3C       		.byte	0x3c
 4624 0088 33000000 		.4byte	0x33
 4625 008c 05       		.uleb128 0x5
 4626 008d 06       		.byte	0x6
 4627 008e 02       		.byte	0x2
 4628 008f 46       		.byte	0x46
 4629 0090 AB000000 		.4byte	0xab
 4630 0094 06       		.uleb128 0x6
 4631 0095 A7010000 		.4byte	.LASF12
 4632 0099 02       		.byte	0x2
 4633 009a 48       		.byte	0x48
 4634 009b AB000000 		.4byte	0xab
 4635 009f 06       		.uleb128 0x6
 4636 00a0 E2090000 		.4byte	.LASF13
 4637 00a4 02       		.byte	0x2
 4638 00a5 49       		.byte	0x49
 4639 00a6 C2000000 		.4byte	0xc2
 4640 00aa 00       		.byte	0
 4641 00ab 07       		.uleb128 0x7
 4642 00ac 81000000 		.4byte	0x81
 4643 00b0 BB000000 		.4byte	0xbb
 4644 00b4 08       		.uleb128 0x8
 4645 00b5 BB000000 		.4byte	0xbb
 4646 00b9 02       		.byte	0x2
 4647 00ba 00       		.byte	0
 4648 00bb 02       		.uleb128 0x2
 4649 00bc 04       		.byte	0x4
 4650 00bd 07       		.byte	0x7
 4651 00be EB0A0000 		.4byte	.LASF14
 4652 00c2 07       		.uleb128 0x7
 4653 00c3 6B000000 		.4byte	0x6b
 4654 00c7 D2000000 		.4byte	0xd2
 4655 00cb 08       		.uleb128 0x8
 4656 00cc BB000000 		.4byte	0xbb
 4657 00d0 05       		.byte	0x5
 4658 00d1 00       		.byte	0
 4659 00d2 04       		.uleb128 0x4
 4660 00d3 68100000 		.4byte	.LASF15
 4661 00d7 02       		.byte	0x2
 4662 00d8 4A       		.byte	0x4a
ARM GAS  /tmp/ccNUhamC.s 			page 84


 4663 00d9 8C000000 		.4byte	0x8c
 4664 00dd 09       		.uleb128 0x9
 4665 00de 01       		.byte	0x1
 4666 00df 02       		.byte	0x2
 4667 00e0 59       		.byte	0x59
 4668 00e1 F2000000 		.4byte	0xf2
 4669 00e5 0A       		.uleb128 0xa
 4670 00e6 D9010000 		.4byte	.LASF16
 4671 00ea 01       		.sleb128 1
 4672 00eb 0A       		.uleb128 0xa
 4673 00ec 440D0000 		.4byte	.LASF17
 4674 00f0 00       		.sleb128 0
 4675 00f1 00       		.byte	0
 4676 00f2 04       		.uleb128 0x4
 4677 00f3 A7040000 		.4byte	.LASF18
 4678 00f7 02       		.byte	0x2
 4679 00f8 5C       		.byte	0x5c
 4680 00f9 DD000000 		.4byte	0xdd
 4681 00fd 09       		.uleb128 0x9
 4682 00fe 01       		.byte	0x1
 4683 00ff 02       		.byte	0x2
 4684 0100 A8       		.byte	0xa8
 4685 0101 12010000 		.4byte	0x112
 4686 0105 0A       		.uleb128 0xa
 4687 0106 31100000 		.4byte	.LASF19
 4688 010a 00       		.sleb128 0
 4689 010b 0A       		.uleb128 0xa
 4690 010c 91000000 		.4byte	.LASF20
 4691 0110 10       		.sleb128 16
 4692 0111 00       		.byte	0
 4693 0112 04       		.uleb128 0x4
 4694 0113 E3020000 		.4byte	.LASF21
 4695 0117 02       		.byte	0x2
 4696 0118 AB       		.byte	0xab
 4697 0119 FD000000 		.4byte	0xfd
 4698 011d 09       		.uleb128 0x9
 4699 011e 01       		.byte	0x1
 4700 011f 02       		.byte	0x2
 4701 0120 B8       		.byte	0xb8
 4702 0121 3E010000 		.4byte	0x13e
 4703 0125 0A       		.uleb128 0xa
 4704 0126 A7070000 		.4byte	.LASF22
 4705 012a 00       		.sleb128 0
 4706 012b 0A       		.uleb128 0xa
 4707 012c 910D0000 		.4byte	.LASF23
 4708 0130 01       		.sleb128 1
 4709 0131 0A       		.uleb128 0xa
 4710 0132 F40A0000 		.4byte	.LASF24
 4711 0136 02       		.sleb128 2
 4712 0137 0A       		.uleb128 0xa
 4713 0138 0F0D0000 		.4byte	.LASF25
 4714 013c 03       		.sleb128 3
 4715 013d 00       		.byte	0
 4716 013e 04       		.uleb128 0x4
 4717 013f 91130000 		.4byte	.LASF26
 4718 0143 02       		.byte	0x2
 4719 0144 BD       		.byte	0xbd
ARM GAS  /tmp/ccNUhamC.s 			page 85


 4720 0145 1D010000 		.4byte	0x11d
 4721 0149 09       		.uleb128 0x9
 4722 014a 01       		.byte	0x1
 4723 014b 02       		.byte	0x2
 4724 014c D2       		.byte	0xd2
 4725 014d 6A010000 		.4byte	0x16a
 4726 0151 0A       		.uleb128 0xa
 4727 0152 FB0E0000 		.4byte	.LASF27
 4728 0156 00       		.sleb128 0
 4729 0157 0A       		.uleb128 0xa
 4730 0158 BD0C0000 		.4byte	.LASF28
 4731 015c 04       		.sleb128 4
 4732 015d 0A       		.uleb128 0xa
 4733 015e 30060000 		.4byte	.LASF29
 4734 0162 08       		.sleb128 8
 4735 0163 0A       		.uleb128 0xa
 4736 0164 81050000 		.4byte	.LASF30
 4737 0168 0C       		.sleb128 12
 4738 0169 00       		.byte	0
 4739 016a 04       		.uleb128 0x4
 4740 016b A6100000 		.4byte	.LASF31
 4741 016f 02       		.byte	0x2
 4742 0170 D7       		.byte	0xd7
 4743 0171 49010000 		.4byte	0x149
 4744 0175 0B       		.uleb128 0xb
 4745 0176 01       		.byte	0x1
 4746 0177 02       		.byte	0x2
 4747 0178 2E01     		.2byte	0x12e
 4748 017a 8B010000 		.4byte	0x18b
 4749 017e 0A       		.uleb128 0xa
 4750 017f 24040000 		.4byte	.LASF32
 4751 0183 00       		.sleb128 0
 4752 0184 0A       		.uleb128 0xa
 4753 0185 EC140000 		.4byte	.LASF33
 4754 0189 10       		.sleb128 16
 4755 018a 00       		.byte	0
 4756 018b 0C       		.uleb128 0xc
 4757 018c 19120000 		.4byte	.LASF34
 4758 0190 02       		.byte	0x2
 4759 0191 3101     		.2byte	0x131
 4760 0193 75010000 		.4byte	0x175
 4761 0197 0B       		.uleb128 0xb
 4762 0198 01       		.byte	0x1
 4763 0199 02       		.byte	0x2
 4764 019a 3E01     		.2byte	0x13e
 4765 019c AD010000 		.4byte	0x1ad
 4766 01a0 0A       		.uleb128 0xa
 4767 01a1 C2090000 		.4byte	.LASF35
 4768 01a5 00       		.sleb128 0
 4769 01a6 0A       		.uleb128 0xa
 4770 01a7 77090000 		.4byte	.LASF36
 4771 01ab 20       		.sleb128 32
 4772 01ac 00       		.byte	0
 4773 01ad 0C       		.uleb128 0xc
 4774 01ae 00100000 		.4byte	.LASF37
 4775 01b2 02       		.byte	0x2
 4776 01b3 4101     		.2byte	0x141
ARM GAS  /tmp/ccNUhamC.s 			page 86


 4777 01b5 97010000 		.4byte	0x197
 4778 01b9 0B       		.uleb128 0xb
 4779 01ba 01       		.byte	0x1
 4780 01bb 02       		.byte	0x2
 4781 01bc 4E01     		.2byte	0x14e
 4782 01be CF010000 		.4byte	0x1cf
 4783 01c2 0A       		.uleb128 0xa
 4784 01c3 EE0D0000 		.4byte	.LASF38
 4785 01c7 00       		.sleb128 0
 4786 01c8 0A       		.uleb128 0xa
 4787 01c9 84120000 		.4byte	.LASF39
 4788 01cd 01       		.sleb128 1
 4789 01ce 00       		.byte	0
 4790 01cf 0C       		.uleb128 0xc
 4791 01d0 D40F0000 		.4byte	.LASF40
 4792 01d4 02       		.byte	0x2
 4793 01d5 5101     		.2byte	0x151
 4794 01d7 B9010000 		.4byte	0x1b9
 4795 01db 0B       		.uleb128 0xb
 4796 01dc 01       		.byte	0x1
 4797 01dd 02       		.byte	0x2
 4798 01de 5E01     		.2byte	0x15e
 4799 01e0 F1010000 		.4byte	0x1f1
 4800 01e4 0A       		.uleb128 0xa
 4801 01e5 C60B0000 		.4byte	.LASF41
 4802 01e9 00       		.sleb128 0
 4803 01ea 0A       		.uleb128 0xa
 4804 01eb 5F020000 		.4byte	.LASF42
 4805 01ef 02       		.sleb128 2
 4806 01f0 00       		.byte	0
 4807 01f1 0C       		.uleb128 0xc
 4808 01f2 8E040000 		.4byte	.LASF43
 4809 01f6 02       		.byte	0x2
 4810 01f7 6101     		.2byte	0x161
 4811 01f9 DB010000 		.4byte	0x1db
 4812 01fd 0B       		.uleb128 0xb
 4813 01fe 01       		.byte	0x1
 4814 01ff 02       		.byte	0x2
 4815 0200 6E01     		.2byte	0x16e
 4816 0202 13020000 		.4byte	0x213
 4817 0206 0A       		.uleb128 0xa
 4818 0207 DC040000 		.4byte	.LASF44
 4819 020b 00       		.sleb128 0
 4820 020c 0A       		.uleb128 0xa
 4821 020d 99050000 		.4byte	.LASF45
 4822 0211 04       		.sleb128 4
 4823 0212 00       		.byte	0
 4824 0213 0C       		.uleb128 0xc
 4825 0214 B7050000 		.4byte	.LASF46
 4826 0218 02       		.byte	0x2
 4827 0219 7101     		.2byte	0x171
 4828 021b FD010000 		.4byte	0x1fd
 4829 021f 0B       		.uleb128 0xb
 4830 0220 01       		.byte	0x1
 4831 0221 02       		.byte	0x2
 4832 0222 7E01     		.2byte	0x17e
 4833 0224 35020000 		.4byte	0x235
ARM GAS  /tmp/ccNUhamC.s 			page 87


 4834 0228 0A       		.uleb128 0xa
 4835 0229 D40C0000 		.4byte	.LASF47
 4836 022d 00       		.sleb128 0
 4837 022e 0A       		.uleb128 0xa
 4838 022f 13130000 		.4byte	.LASF48
 4839 0233 08       		.sleb128 8
 4840 0234 00       		.byte	0
 4841 0235 0C       		.uleb128 0xc
 4842 0236 0A140000 		.4byte	.LASF49
 4843 023a 02       		.byte	0x2
 4844 023b 8101     		.2byte	0x181
 4845 023d 1F020000 		.4byte	0x21f
 4846 0241 0B       		.uleb128 0xb
 4847 0242 01       		.byte	0x1
 4848 0243 02       		.byte	0x2
 4849 0244 8E01     		.2byte	0x18e
 4850 0246 57020000 		.4byte	0x257
 4851 024a 0A       		.uleb128 0xa
 4852 024b 16050000 		.4byte	.LASF50
 4853 024f 00       		.sleb128 0
 4854 0250 0A       		.uleb128 0xa
 4855 0251 60060000 		.4byte	.LASF51
 4856 0255 01       		.sleb128 1
 4857 0256 00       		.byte	0
 4858 0257 0C       		.uleb128 0xc
 4859 0258 7D0B0000 		.4byte	.LASF52
 4860 025c 02       		.byte	0x2
 4861 025d 9101     		.2byte	0x191
 4862 025f 41020000 		.4byte	0x241
 4863 0263 0B       		.uleb128 0xb
 4864 0264 01       		.byte	0x1
 4865 0265 02       		.byte	0x2
 4866 0266 9E01     		.2byte	0x19e
 4867 0268 79020000 		.4byte	0x279
 4868 026c 0A       		.uleb128 0xa
 4869 026d 64130000 		.4byte	.LASF53
 4870 0271 00       		.sleb128 0
 4871 0272 0A       		.uleb128 0xa
 4872 0273 B0080000 		.4byte	.LASF54
 4873 0277 02       		.sleb128 2
 4874 0278 00       		.byte	0
 4875 0279 0C       		.uleb128 0xc
 4876 027a 9D080000 		.4byte	.LASF55
 4877 027e 02       		.byte	0x2
 4878 027f A101     		.2byte	0x1a1
 4879 0281 63020000 		.4byte	0x263
 4880 0285 0B       		.uleb128 0xb
 4881 0286 01       		.byte	0x1
 4882 0287 02       		.byte	0x2
 4883 0288 AE01     		.2byte	0x1ae
 4884 028a 9B020000 		.4byte	0x29b
 4885 028e 0A       		.uleb128 0xa
 4886 028f 4A0B0000 		.4byte	.LASF56
 4887 0293 00       		.sleb128 0
 4888 0294 0A       		.uleb128 0xa
 4889 0295 3D080000 		.4byte	.LASF57
 4890 0299 08       		.sleb128 8
ARM GAS  /tmp/ccNUhamC.s 			page 88


 4891 029a 00       		.byte	0
 4892 029b 0C       		.uleb128 0xc
 4893 029c 11030000 		.4byte	.LASF58
 4894 02a0 02       		.byte	0x2
 4895 02a1 B101     		.2byte	0x1b1
 4896 02a3 85020000 		.4byte	0x285
 4897 02a7 0B       		.uleb128 0xb
 4898 02a8 01       		.byte	0x1
 4899 02a9 02       		.byte	0x2
 4900 02aa BE01     		.2byte	0x1be
 4901 02ac BD020000 		.4byte	0x2bd
 4902 02b0 0A       		.uleb128 0xa
 4903 02b1 A30C0000 		.4byte	.LASF59
 4904 02b5 00       		.sleb128 0
 4905 02b6 0A       		.uleb128 0xa
 4906 02b7 27090000 		.4byte	.LASF60
 4907 02bb 20       		.sleb128 32
 4908 02bc 00       		.byte	0
 4909 02bd 0C       		.uleb128 0xc
 4910 02be C1010000 		.4byte	.LASF61
 4911 02c2 02       		.byte	0x2
 4912 02c3 C101     		.2byte	0x1c1
 4913 02c5 A7020000 		.4byte	0x2a7
 4914 02c9 0B       		.uleb128 0xb
 4915 02ca 01       		.byte	0x1
 4916 02cb 02       		.byte	0x2
 4917 02cc CE01     		.2byte	0x1ce
 4918 02ce E0020000 		.4byte	0x2e0
 4919 02d2 0A       		.uleb128 0xa
 4920 02d3 22110000 		.4byte	.LASF62
 4921 02d7 00       		.sleb128 0
 4922 02d8 0A       		.uleb128 0xa
 4923 02d9 7E020000 		.4byte	.LASF63
 4924 02dd C000     		.sleb128 64
 4925 02df 00       		.byte	0
 4926 02e0 0C       		.uleb128 0xc
 4927 02e1 090E0000 		.4byte	.LASF64
 4928 02e5 02       		.byte	0x2
 4929 02e6 D101     		.2byte	0x1d1
 4930 02e8 C9020000 		.4byte	0x2c9
 4931 02ec 0B       		.uleb128 0xb
 4932 02ed 01       		.byte	0x1
 4933 02ee 02       		.byte	0x2
 4934 02ef DE01     		.2byte	0x1de
 4935 02f1 02030000 		.4byte	0x302
 4936 02f5 0A       		.uleb128 0xa
 4937 02f6 650A0000 		.4byte	.LASF65
 4938 02fa 00       		.sleb128 0
 4939 02fb 0A       		.uleb128 0xa
 4940 02fc AE0E0000 		.4byte	.LASF66
 4941 0300 01       		.sleb128 1
 4942 0301 00       		.byte	0
 4943 0302 0C       		.uleb128 0xc
 4944 0303 CB0D0000 		.4byte	.LASF67
 4945 0307 02       		.byte	0x2
 4946 0308 E101     		.2byte	0x1e1
 4947 030a EC020000 		.4byte	0x2ec
ARM GAS  /tmp/ccNUhamC.s 			page 89


 4948 030e 0B       		.uleb128 0xb
 4949 030f 01       		.byte	0x1
 4950 0310 02       		.byte	0x2
 4951 0311 EE01     		.2byte	0x1ee
 4952 0313 24030000 		.4byte	0x324
 4953 0317 0A       		.uleb128 0xa
 4954 0318 B5140000 		.4byte	.LASF68
 4955 031c 00       		.sleb128 0
 4956 031d 0A       		.uleb128 0xa
 4957 031e 940A0000 		.4byte	.LASF69
 4958 0322 02       		.sleb128 2
 4959 0323 00       		.byte	0
 4960 0324 0C       		.uleb128 0xc
 4961 0325 AB000000 		.4byte	.LASF70
 4962 0329 02       		.byte	0x2
 4963 032a F101     		.2byte	0x1f1
 4964 032c 0E030000 		.4byte	0x30e
 4965 0330 0B       		.uleb128 0xb
 4966 0331 01       		.byte	0x1
 4967 0332 02       		.byte	0x2
 4968 0333 FE01     		.2byte	0x1fe
 4969 0335 46030000 		.4byte	0x346
 4970 0339 0A       		.uleb128 0xa
 4971 033a F5070000 		.4byte	.LASF71
 4972 033e 00       		.sleb128 0
 4973 033f 0A       		.uleb128 0xa
 4974 0340 4C100000 		.4byte	.LASF72
 4975 0344 04       		.sleb128 4
 4976 0345 00       		.byte	0
 4977 0346 0C       		.uleb128 0xc
 4978 0347 05120000 		.4byte	.LASF73
 4979 034b 02       		.byte	0x2
 4980 034c 0102     		.2byte	0x201
 4981 034e 30030000 		.4byte	0x330
 4982 0352 0B       		.uleb128 0xb
 4983 0353 01       		.byte	0x1
 4984 0354 02       		.byte	0x2
 4985 0355 0E02     		.2byte	0x20e
 4986 0357 68030000 		.4byte	0x368
 4987 035b 0A       		.uleb128 0xa
 4988 035c 14060000 		.4byte	.LASF74
 4989 0360 00       		.sleb128 0
 4990 0361 0A       		.uleb128 0xa
 4991 0362 2B020000 		.4byte	.LASF75
 4992 0366 20       		.sleb128 32
 4993 0367 00       		.byte	0
 4994 0368 0C       		.uleb128 0xc
 4995 0369 B10B0000 		.4byte	.LASF76
 4996 036d 02       		.byte	0x2
 4997 036e 1102     		.2byte	0x211
 4998 0370 52030000 		.4byte	0x352
 4999 0374 0B       		.uleb128 0xb
 5000 0375 01       		.byte	0x1
 5001 0376 02       		.byte	0x2
 5002 0377 1E02     		.2byte	0x21e
 5003 0379 8B030000 		.4byte	0x38b
 5004 037d 0A       		.uleb128 0xa
ARM GAS  /tmp/ccNUhamC.s 			page 90


 5005 037e D5110000 		.4byte	.LASF77
 5006 0382 00       		.sleb128 0
 5007 0383 0A       		.uleb128 0xa
 5008 0384 C80E0000 		.4byte	.LASF78
 5009 0388 C000     		.sleb128 64
 5010 038a 00       		.byte	0
 5011 038b 0C       		.uleb128 0xc
 5012 038c 59040000 		.4byte	.LASF79
 5013 0390 02       		.byte	0x2
 5014 0391 2102     		.2byte	0x221
 5015 0393 74030000 		.4byte	0x374
 5016 0397 0B       		.uleb128 0xb
 5017 0398 01       		.byte	0x1
 5018 0399 02       		.byte	0x2
 5019 039a 2E02     		.2byte	0x22e
 5020 039c AE030000 		.4byte	0x3ae
 5021 03a0 0A       		.uleb128 0xa
 5022 03a1 6A070000 		.4byte	.LASF80
 5023 03a5 00       		.sleb128 0
 5024 03a6 0A       		.uleb128 0xa
 5025 03a7 4F0D0000 		.4byte	.LASF81
 5026 03ab 8001     		.sleb128 128
 5027 03ad 00       		.byte	0
 5028 03ae 0C       		.uleb128 0xc
 5029 03af 1E000000 		.4byte	.LASF82
 5030 03b3 02       		.byte	0x2
 5031 03b4 3102     		.2byte	0x231
 5032 03b6 97030000 		.4byte	0x397
 5033 03ba 0B       		.uleb128 0xb
 5034 03bb 01       		.byte	0x1
 5035 03bc 02       		.byte	0x2
 5036 03bd 3E02     		.2byte	0x23e
 5037 03bf D0030000 		.4byte	0x3d0
 5038 03c3 0A       		.uleb128 0xa
 5039 03c4 12020000 		.4byte	.LASF83
 5040 03c8 00       		.sleb128 0
 5041 03c9 0A       		.uleb128 0xa
 5042 03ca 70140000 		.4byte	.LASF84
 5043 03ce 01       		.sleb128 1
 5044 03cf 00       		.byte	0
 5045 03d0 0C       		.uleb128 0xc
 5046 03d1 610C0000 		.4byte	.LASF85
 5047 03d5 02       		.byte	0x2
 5048 03d6 4102     		.2byte	0x241
 5049 03d8 BA030000 		.4byte	0x3ba
 5050 03dc 0B       		.uleb128 0xb
 5051 03dd 01       		.byte	0x1
 5052 03de 02       		.byte	0x2
 5053 03df 4D02     		.2byte	0x24d
 5054 03e1 F2030000 		.4byte	0x3f2
 5055 03e5 0A       		.uleb128 0xa
 5056 03e6 11080000 		.4byte	.LASF86
 5057 03ea 00       		.sleb128 0
 5058 03eb 0A       		.uleb128 0xa
 5059 03ec 010A0000 		.4byte	.LASF87
 5060 03f0 02       		.sleb128 2
 5061 03f1 00       		.byte	0
ARM GAS  /tmp/ccNUhamC.s 			page 91


 5062 03f2 0C       		.uleb128 0xc
 5063 03f3 45110000 		.4byte	.LASF88
 5064 03f7 02       		.byte	0x2
 5065 03f8 5002     		.2byte	0x250
 5066 03fa DC030000 		.4byte	0x3dc
 5067 03fe 0B       		.uleb128 0xb
 5068 03ff 01       		.byte	0x1
 5069 0400 02       		.byte	0x2
 5070 0401 5C02     		.2byte	0x25c
 5071 0403 14040000 		.4byte	0x414
 5072 0407 0A       		.uleb128 0xa
 5073 0408 DC080000 		.4byte	.LASF89
 5074 040c 00       		.sleb128 0
 5075 040d 0A       		.uleb128 0xa
 5076 040e 91110000 		.4byte	.LASF90
 5077 0412 04       		.sleb128 4
 5078 0413 00       		.byte	0
 5079 0414 0C       		.uleb128 0xc
 5080 0415 BF130000 		.4byte	.LASF91
 5081 0419 02       		.byte	0x2
 5082 041a 5F02     		.2byte	0x25f
 5083 041c FE030000 		.4byte	0x3fe
 5084 0420 0B       		.uleb128 0xb
 5085 0421 01       		.byte	0x1
 5086 0422 02       		.byte	0x2
 5087 0423 6B02     		.2byte	0x26b
 5088 0425 36040000 		.4byte	0x436
 5089 0429 0A       		.uleb128 0xa
 5090 042a 900E0000 		.4byte	.LASF92
 5091 042e 00       		.sleb128 0
 5092 042f 0A       		.uleb128 0xa
 5093 0430 C90A0000 		.4byte	.LASF93
 5094 0434 08       		.sleb128 8
 5095 0435 00       		.byte	0
 5096 0436 0C       		.uleb128 0xc
 5097 0437 E8090000 		.4byte	.LASF94
 5098 043b 02       		.byte	0x2
 5099 043c 6E02     		.2byte	0x26e
 5100 043e 20040000 		.4byte	0x420
 5101 0442 0B       		.uleb128 0xb
 5102 0443 01       		.byte	0x1
 5103 0444 02       		.byte	0x2
 5104 0445 7A02     		.2byte	0x27a
 5105 0447 58040000 		.4byte	0x458
 5106 044b 0A       		.uleb128 0xa
 5107 044c 00000000 		.4byte	.LASF95
 5108 0450 00       		.sleb128 0
 5109 0451 0A       		.uleb128 0xa
 5110 0452 BA100000 		.4byte	.LASF96
 5111 0456 10       		.sleb128 16
 5112 0457 00       		.byte	0
 5113 0458 0C       		.uleb128 0xc
 5114 0459 2B0D0000 		.4byte	.LASF97
 5115 045d 02       		.byte	0x2
 5116 045e 7D02     		.2byte	0x27d
 5117 0460 42040000 		.4byte	0x442
 5118 0464 0B       		.uleb128 0xb
ARM GAS  /tmp/ccNUhamC.s 			page 92


 5119 0465 01       		.byte	0x1
 5120 0466 02       		.byte	0x2
 5121 0467 8902     		.2byte	0x289
 5122 0469 7A040000 		.4byte	0x47a
 5123 046d 0A       		.uleb128 0xa
 5124 046e 540E0000 		.4byte	.LASF98
 5125 0472 00       		.sleb128 0
 5126 0473 0A       		.uleb128 0xa
 5127 0474 E60B0000 		.4byte	.LASF99
 5128 0478 20       		.sleb128 32
 5129 0479 00       		.byte	0
 5130 047a 0C       		.uleb128 0xc
 5131 047b 47060000 		.4byte	.LASF100
 5132 047f 02       		.byte	0x2
 5133 0480 8C02     		.2byte	0x28c
 5134 0482 64040000 		.4byte	0x464
 5135 0486 0B       		.uleb128 0xb
 5136 0487 01       		.byte	0x1
 5137 0488 02       		.byte	0x2
 5138 0489 9802     		.2byte	0x298
 5139 048b 9D040000 		.4byte	0x49d
 5140 048f 0A       		.uleb128 0xa
 5141 0490 CE140000 		.4byte	.LASF101
 5142 0494 00       		.sleb128 0
 5143 0495 0A       		.uleb128 0xa
 5144 0496 5A090000 		.4byte	.LASF102
 5145 049a C000     		.sleb128 64
 5146 049c 00       		.byte	0
 5147 049d 0C       		.uleb128 0xc
 5148 049e 1A0A0000 		.4byte	.LASF103
 5149 04a2 02       		.byte	0x2
 5150 04a3 9B02     		.2byte	0x29b
 5151 04a5 86040000 		.4byte	0x486
 5152 04a9 0B       		.uleb128 0xb
 5153 04aa 01       		.byte	0x1
 5154 04ab 02       		.byte	0x2
 5155 04ac A702     		.2byte	0x2a7
 5156 04ae C0040000 		.4byte	0x4c0
 5157 04b2 0A       		.uleb128 0xa
 5158 04b3 28070000 		.4byte	.LASF104
 5159 04b7 00       		.sleb128 0
 5160 04b8 0A       		.uleb128 0xa
 5161 04b9 190B0000 		.4byte	.LASF105
 5162 04bd 8001     		.sleb128 128
 5163 04bf 00       		.byte	0
 5164 04c0 0C       		.uleb128 0xc
 5165 04c1 6A0D0000 		.4byte	.LASF106
 5166 04c5 02       		.byte	0x2
 5167 04c6 AA02     		.2byte	0x2aa
 5168 04c8 A9040000 		.4byte	0x4a9
 5169 04cc 0B       		.uleb128 0xb
 5170 04cd 01       		.byte	0x1
 5171 04ce 02       		.byte	0x2
 5172 04cf B602     		.2byte	0x2b6
 5173 04d1 E2040000 		.4byte	0x4e2
 5174 04d5 0A       		.uleb128 0xa
 5175 04d6 4C0A0000 		.4byte	.LASF107
ARM GAS  /tmp/ccNUhamC.s 			page 93


 5176 04da 00       		.sleb128 0
 5177 04db 0A       		.uleb128 0xa
 5178 04dc FC050000 		.4byte	.LASF108
 5179 04e0 01       		.sleb128 1
 5180 04e1 00       		.byte	0
 5181 04e2 0C       		.uleb128 0xc
 5182 04e3 B0040000 		.4byte	.LASF109
 5183 04e7 02       		.byte	0x2
 5184 04e8 B902     		.2byte	0x2b9
 5185 04ea CC040000 		.4byte	0x4cc
 5186 04ee 0B       		.uleb128 0xb
 5187 04ef 01       		.byte	0x1
 5188 04f0 02       		.byte	0x2
 5189 04f1 C502     		.2byte	0x2c5
 5190 04f3 04050000 		.4byte	0x504
 5191 04f7 0A       		.uleb128 0xa
 5192 04f8 41140000 		.4byte	.LASF110
 5193 04fc 00       		.sleb128 0
 5194 04fd 0A       		.uleb128 0xa
 5195 04fe 42090000 		.4byte	.LASF111
 5196 0502 02       		.sleb128 2
 5197 0503 00       		.byte	0
 5198 0504 0C       		.uleb128 0xc
 5199 0505 10040000 		.4byte	.LASF112
 5200 0509 02       		.byte	0x2
 5201 050a C802     		.2byte	0x2c8
 5202 050c EE040000 		.4byte	0x4ee
 5203 0510 0B       		.uleb128 0xb
 5204 0511 01       		.byte	0x1
 5205 0512 02       		.byte	0x2
 5206 0513 D402     		.2byte	0x2d4
 5207 0515 26050000 		.4byte	0x526
 5208 0519 0A       		.uleb128 0xa
 5209 051a F7030000 		.4byte	.LASF113
 5210 051e 00       		.sleb128 0
 5211 051f 0A       		.uleb128 0xa
 5212 0520 030C0000 		.4byte	.LASF114
 5213 0524 04       		.sleb128 4
 5214 0525 00       		.byte	0
 5215 0526 0C       		.uleb128 0xc
 5216 0527 86070000 		.4byte	.LASF115
 5217 052b 02       		.byte	0x2
 5218 052c D702     		.2byte	0x2d7
 5219 052e 10050000 		.4byte	0x510
 5220 0532 0B       		.uleb128 0xb
 5221 0533 01       		.byte	0x1
 5222 0534 02       		.byte	0x2
 5223 0535 E302     		.2byte	0x2e3
 5224 0537 48050000 		.4byte	0x548
 5225 053b 0A       		.uleb128 0xa
 5226 053c AE0A0000 		.4byte	.LASF116
 5227 0540 00       		.sleb128 0
 5228 0541 0A       		.uleb128 0xa
 5229 0542 F7020000 		.4byte	.LASF117
 5230 0546 08       		.sleb128 8
 5231 0547 00       		.byte	0
 5232 0548 0C       		.uleb128 0xc
ARM GAS  /tmp/ccNUhamC.s 			page 94


 5233 0549 5A140000 		.4byte	.LASF118
 5234 054d 02       		.byte	0x2
 5235 054e E602     		.2byte	0x2e6
 5236 0550 32050000 		.4byte	0x532
 5237 0554 0B       		.uleb128 0xb
 5238 0555 01       		.byte	0x1
 5239 0556 02       		.byte	0x2
 5240 0557 F202     		.2byte	0x2f2
 5241 0559 6A050000 		.4byte	0x56a
 5242 055d 0A       		.uleb128 0xa
 5243 055e 2F0C0000 		.4byte	.LASF119
 5244 0562 00       		.sleb128 0
 5245 0563 0A       		.uleb128 0xa
 5246 0564 10070000 		.4byte	.LASF120
 5247 0568 10       		.sleb128 16
 5248 0569 00       		.byte	0
 5249 056a 0C       		.uleb128 0xc
 5250 056b F1110000 		.4byte	.LASF121
 5251 056f 02       		.byte	0x2
 5252 0570 F502     		.2byte	0x2f5
 5253 0572 54050000 		.4byte	0x554
 5254 0576 0B       		.uleb128 0xb
 5255 0577 01       		.byte	0x1
 5256 0578 02       		.byte	0x2
 5257 0579 0103     		.2byte	0x301
 5258 057b 8C050000 		.4byte	0x58c
 5259 057f 0A       		.uleb128 0xa
 5260 0580 480C0000 		.4byte	.LASF122
 5261 0584 00       		.sleb128 0
 5262 0585 0A       		.uleb128 0xa
 5263 0586 AA090000 		.4byte	.LASF123
 5264 058a 20       		.sleb128 32
 5265 058b 00       		.byte	0
 5266 058c 0C       		.uleb128 0xc
 5267 058d 44120000 		.4byte	.LASF124
 5268 0591 02       		.byte	0x2
 5269 0592 0403     		.2byte	0x304
 5270 0594 76050000 		.4byte	0x576
 5271 0598 0B       		.uleb128 0xb
 5272 0599 01       		.byte	0x1
 5273 059a 02       		.byte	0x2
 5274 059b 1003     		.2byte	0x310
 5275 059d AF050000 		.4byte	0x5af
 5276 05a1 0A       		.uleb128 0xa
 5277 05a2 F1130000 		.4byte	.LASF125
 5278 05a6 00       		.sleb128 0
 5279 05a7 0A       		.uleb128 0xa
 5280 05a8 750C0000 		.4byte	.LASF126
 5281 05ac C000     		.sleb128 64
 5282 05ae 00       		.byte	0
 5283 05af 0C       		.uleb128 0xc
 5284 05b0 360B0000 		.4byte	.LASF127
 5285 05b4 02       		.byte	0x2
 5286 05b5 1303     		.2byte	0x313
 5287 05b7 98050000 		.4byte	0x598
 5288 05bb 0B       		.uleb128 0xb
 5289 05bc 01       		.byte	0x1
ARM GAS  /tmp/ccNUhamC.s 			page 95


 5290 05bd 02       		.byte	0x2
 5291 05be 1F03     		.2byte	0x31f
 5292 05c0 D2050000 		.4byte	0x5d2
 5293 05c4 0A       		.uleb128 0xa
 5294 05c5 520F0000 		.4byte	.LASF128
 5295 05c9 00       		.sleb128 0
 5296 05ca 0A       		.uleb128 0xa
 5297 05cb 62030000 		.4byte	.LASF129
 5298 05cf 8001     		.sleb128 128
 5299 05d1 00       		.byte	0
 5300 05d2 0C       		.uleb128 0xc
 5301 05d3 3E0E0000 		.4byte	.LASF130
 5302 05d7 02       		.byte	0x2
 5303 05d8 2203     		.2byte	0x322
 5304 05da BB050000 		.4byte	0x5bb
 5305 05de 0D       		.uleb128 0xd
 5306 05df 6E040000 		.4byte	.LASF133
 5307 05e3 01       		.byte	0x1
 5308 05e4 42       		.byte	0x42
 5309 05e5 F2000000 		.4byte	0xf2
 5310 05e9 00000000 		.4byte	.LFB0
 5311 05ed 38000000 		.4byte	.LFE0-.LFB0
 5312 05f1 01       		.uleb128 0x1
 5313 05f2 9C       		.byte	0x9c
 5314 05f3 30060000 		.4byte	0x630
 5315 05f7 0E       		.uleb128 0xe
 5316 05f8 A4130000 		.4byte	.LASF131
 5317 05fc 01       		.byte	0x1
 5318 05fd 42       		.byte	0x42
 5319 05fe 30060000 		.4byte	0x630
 5320 0602 02       		.uleb128 0x2
 5321 0603 91       		.byte	0x91
 5322 0604 74       		.sleb128 -12
 5323 0605 0F       		.uleb128 0xf
 5324 0606 52656700 		.ascii	"Reg\000"
 5325 060a 01       		.byte	0x1
 5326 060b 42       		.byte	0x42
 5327 060c 6B000000 		.4byte	0x6b
 5328 0610 02       		.uleb128 0x2
 5329 0611 91       		.byte	0x91
 5330 0612 73       		.sleb128 -13
 5331 0613 0E       		.uleb128 0xe
 5332 0614 8B0E0000 		.4byte	.LASF132
 5333 0618 01       		.byte	0x1
 5334 0619 42       		.byte	0x42
 5335 061a 32060000 		.4byte	0x632
 5336 061e 02       		.uleb128 0x2
 5337 061f 91       		.byte	0x91
 5338 0620 6C       		.sleb128 -20
 5339 0621 0F       		.uleb128 0xf
 5340 0622 6C656E00 		.ascii	"len\000"
 5341 0626 01       		.byte	0x1
 5342 0627 42       		.byte	0x42
 5343 0628 76000000 		.4byte	0x76
 5344 062c 02       		.uleb128 0x2
 5345 062d 91       		.byte	0x91
 5346 062e 70       		.sleb128 -16
ARM GAS  /tmp/ccNUhamC.s 			page 96


 5347 062f 00       		.byte	0
 5348 0630 10       		.uleb128 0x10
 5349 0631 04       		.byte	0x4
 5350 0632 11       		.uleb128 0x11
 5351 0633 04       		.byte	0x4
 5352 0634 6B000000 		.4byte	0x6b
 5353 0638 0D       		.uleb128 0xd
 5354 0639 57080000 		.4byte	.LASF134
 5355 063d 01       		.byte	0x1
 5356 063e 58       		.byte	0x58
 5357 063f F2000000 		.4byte	0xf2
 5358 0643 40000000 		.4byte	.LFB1
 5359 0647 38000000 		.4byte	.LFE1-.LFB1
 5360 064b 01       		.uleb128 0x1
 5361 064c 9C       		.byte	0x9c
 5362 064d 8A060000 		.4byte	0x68a
 5363 0651 0E       		.uleb128 0xe
 5364 0652 A4130000 		.4byte	.LASF131
 5365 0656 01       		.byte	0x1
 5366 0657 58       		.byte	0x58
 5367 0658 30060000 		.4byte	0x630
 5368 065c 02       		.uleb128 0x2
 5369 065d 91       		.byte	0x91
 5370 065e 74       		.sleb128 -12
 5371 065f 0F       		.uleb128 0xf
 5372 0660 52656700 		.ascii	"Reg\000"
 5373 0664 01       		.byte	0x1
 5374 0665 58       		.byte	0x58
 5375 0666 6B000000 		.4byte	0x6b
 5376 066a 02       		.uleb128 0x2
 5377 066b 91       		.byte	0x91
 5378 066c 73       		.sleb128 -13
 5379 066d 0E       		.uleb128 0xe
 5380 066e 8B0E0000 		.4byte	.LASF132
 5381 0672 01       		.byte	0x1
 5382 0673 58       		.byte	0x58
 5383 0674 32060000 		.4byte	0x632
 5384 0678 02       		.uleb128 0x2
 5385 0679 91       		.byte	0x91
 5386 067a 6C       		.sleb128 -20
 5387 067b 0F       		.uleb128 0xf
 5388 067c 6C656E00 		.ascii	"len\000"
 5389 0680 01       		.byte	0x1
 5390 0681 58       		.byte	0x58
 5391 0682 76000000 		.4byte	0x76
 5392 0686 02       		.uleb128 0x2
 5393 0687 91       		.byte	0x91
 5394 0688 70       		.sleb128 -16
 5395 0689 00       		.byte	0
 5396 068a 0D       		.uleb128 0xd
 5397 068b C7070000 		.4byte	.LASF135
 5398 068f 01       		.byte	0x1
 5399 0690 6E       		.byte	0x6e
 5400 0691 F2000000 		.4byte	0xf2
 5401 0695 80000000 		.4byte	.LFB2
 5402 0699 38000000 		.4byte	.LFE2-.LFB2
 5403 069d 01       		.uleb128 0x1
ARM GAS  /tmp/ccNUhamC.s 			page 97


 5404 069e 9C       		.byte	0x9c
 5405 069f C0060000 		.4byte	0x6c0
 5406 06a3 0E       		.uleb128 0xe
 5407 06a4 A4130000 		.4byte	.LASF131
 5408 06a8 01       		.byte	0x1
 5409 06a9 6E       		.byte	0x6e
 5410 06aa 30060000 		.4byte	0x630
 5411 06ae 02       		.uleb128 0x2
 5412 06af 91       		.byte	0x91
 5413 06b0 74       		.sleb128 -12
 5414 06b1 0E       		.uleb128 0xe
 5415 06b2 64070000 		.4byte	.LASF136
 5416 06b6 01       		.byte	0x1
 5417 06b7 6E       		.byte	0x6e
 5418 06b8 32060000 		.4byte	0x632
 5419 06bc 02       		.uleb128 0x2
 5420 06bd 91       		.byte	0x91
 5421 06be 70       		.sleb128 -16
 5422 06bf 00       		.byte	0
 5423 06c0 0D       		.uleb128 0xd
 5424 06c1 CB030000 		.4byte	.LASF137
 5425 06c5 01       		.byte	0x1
 5426 06c6 80       		.byte	0x80
 5427 06c7 F2000000 		.4byte	0xf2
 5428 06cb C0000000 		.4byte	.LFB3
 5429 06cf 68000000 		.4byte	.LFE3-.LFB3
 5430 06d3 01       		.uleb128 0x1
 5431 06d4 9C       		.byte	0x9c
 5432 06d5 04070000 		.4byte	0x704
 5433 06d9 0E       		.uleb128 0xe
 5434 06da A4130000 		.4byte	.LASF131
 5435 06de 01       		.byte	0x1
 5436 06df 80       		.byte	0x80
 5437 06e0 30060000 		.4byte	0x630
 5438 06e4 02       		.uleb128 0x2
 5439 06e5 91       		.byte	0x91
 5440 06e6 6C       		.sleb128 -20
 5441 06e7 0E       		.uleb128 0xe
 5442 06e8 AE0D0000 		.4byte	.LASF138
 5443 06ec 01       		.byte	0x1
 5444 06ed 80       		.byte	0x80
 5445 06ee 12010000 		.4byte	0x112
 5446 06f2 02       		.uleb128 0x2
 5447 06f3 91       		.byte	0x91
 5448 06f4 6B       		.sleb128 -21
 5449 06f5 12       		.uleb128 0x12
 5450 06f6 64070000 		.4byte	.LASF136
 5451 06fa 01       		.byte	0x1
 5452 06fb 82       		.byte	0x82
 5453 06fc 6B000000 		.4byte	0x6b
 5454 0700 02       		.uleb128 0x2
 5455 0701 91       		.byte	0x91
 5456 0702 77       		.sleb128 -9
 5457 0703 00       		.byte	0
 5458 0704 0D       		.uleb128 0xd
 5459 0705 7D000000 		.4byte	.LASF139
 5460 0709 01       		.byte	0x1
ARM GAS  /tmp/ccNUhamC.s 			page 98


 5461 070a 97       		.byte	0x97
 5462 070b F2000000 		.4byte	0xf2
 5463 070f 30010000 		.4byte	.LFB4
 5464 0713 36000000 		.4byte	.LFE4-.LFB4
 5465 0717 01       		.uleb128 0x1
 5466 0718 9C       		.byte	0x9c
 5467 0719 3A070000 		.4byte	0x73a
 5468 071d 0E       		.uleb128 0xe
 5469 071e A4130000 		.4byte	.LASF131
 5470 0722 01       		.byte	0x1
 5471 0723 97       		.byte	0x97
 5472 0724 30060000 		.4byte	0x630
 5473 0728 02       		.uleb128 0x2
 5474 0729 91       		.byte	0x91
 5475 072a 74       		.sleb128 -12
 5476 072b 0E       		.uleb128 0xe
 5477 072c 64070000 		.4byte	.LASF136
 5478 0730 01       		.byte	0x1
 5479 0731 97       		.byte	0x97
 5480 0732 3A070000 		.4byte	0x73a
 5481 0736 02       		.uleb128 0x2
 5482 0737 91       		.byte	0x91
 5483 0738 70       		.sleb128 -16
 5484 0739 00       		.byte	0
 5485 073a 11       		.uleb128 0x11
 5486 073b 04       		.byte	0x4
 5487 073c 12010000 		.4byte	0x112
 5488 0740 0D       		.uleb128 0xd
 5489 0741 D0050000 		.4byte	.LASF140
 5490 0745 01       		.byte	0x1
 5491 0746 A8       		.byte	0xa8
 5492 0747 F2000000 		.4byte	0xf2
 5493 074b 70010000 		.4byte	.LFB5
 5494 074f 68000000 		.4byte	.LFE5-.LFB5
 5495 0753 01       		.uleb128 0x1
 5496 0754 9C       		.byte	0x9c
 5497 0755 84070000 		.4byte	0x784
 5498 0759 0E       		.uleb128 0xe
 5499 075a A4130000 		.4byte	.LASF131
 5500 075e 01       		.byte	0x1
 5501 075f A8       		.byte	0xa8
 5502 0760 30060000 		.4byte	0x630
 5503 0764 02       		.uleb128 0x2
 5504 0765 91       		.byte	0x91
 5505 0766 6C       		.sleb128 -20
 5506 0767 0E       		.uleb128 0xe
 5507 0768 AE0D0000 		.4byte	.LASF138
 5508 076c 01       		.byte	0x1
 5509 076d A8       		.byte	0xa8
 5510 076e 3E010000 		.4byte	0x13e
 5511 0772 02       		.uleb128 0x2
 5512 0773 91       		.byte	0x91
 5513 0774 6B       		.sleb128 -21
 5514 0775 12       		.uleb128 0x12
 5515 0776 64070000 		.4byte	.LASF136
 5516 077a 01       		.byte	0x1
 5517 077b AA       		.byte	0xaa
ARM GAS  /tmp/ccNUhamC.s 			page 99


 5518 077c 6B000000 		.4byte	0x6b
 5519 0780 02       		.uleb128 0x2
 5520 0781 91       		.byte	0x91
 5521 0782 77       		.sleb128 -9
 5522 0783 00       		.byte	0
 5523 0784 0D       		.uleb128 0xd
 5524 0785 AE010000 		.4byte	.LASF141
 5525 0789 01       		.byte	0x1
 5526 078a BF       		.byte	0xbf
 5527 078b F2000000 		.4byte	0xf2
 5528 078f E0010000 		.4byte	.LFB6
 5529 0793 36000000 		.4byte	.LFE6-.LFB6
 5530 0797 01       		.uleb128 0x1
 5531 0798 9C       		.byte	0x9c
 5532 0799 BA070000 		.4byte	0x7ba
 5533 079d 0E       		.uleb128 0xe
 5534 079e A4130000 		.4byte	.LASF131
 5535 07a2 01       		.byte	0x1
 5536 07a3 BF       		.byte	0xbf
 5537 07a4 30060000 		.4byte	0x630
 5538 07a8 02       		.uleb128 0x2
 5539 07a9 91       		.byte	0x91
 5540 07aa 74       		.sleb128 -12
 5541 07ab 0E       		.uleb128 0xe
 5542 07ac 64070000 		.4byte	.LASF136
 5543 07b0 01       		.byte	0x1
 5544 07b1 BF       		.byte	0xbf
 5545 07b2 BA070000 		.4byte	0x7ba
 5546 07b6 02       		.uleb128 0x2
 5547 07b7 91       		.byte	0x91
 5548 07b8 70       		.sleb128 -16
 5549 07b9 00       		.byte	0
 5550 07ba 11       		.uleb128 0x11
 5551 07bb 04       		.byte	0x4
 5552 07bc 3E010000 		.4byte	0x13e
 5553 07c0 0D       		.uleb128 0xd
 5554 07c1 AC030000 		.4byte	.LASF142
 5555 07c5 01       		.byte	0x1
 5556 07c6 D0       		.byte	0xd0
 5557 07c7 F2000000 		.4byte	0xf2
 5558 07cb 20020000 		.4byte	.LFB7
 5559 07cf 28000000 		.4byte	.LFE7-.LFB7
 5560 07d3 01       		.uleb128 0x1
 5561 07d4 9C       		.byte	0x9c
 5562 07d5 F6070000 		.4byte	0x7f6
 5563 07d9 0E       		.uleb128 0xe
 5564 07da A4130000 		.4byte	.LASF131
 5565 07de 01       		.byte	0x1
 5566 07df D0       		.byte	0xd0
 5567 07e0 30060000 		.4byte	0x630
 5568 07e4 02       		.uleb128 0x2
 5569 07e5 91       		.byte	0x91
 5570 07e6 74       		.sleb128 -12
 5571 07e7 0E       		.uleb128 0xe
 5572 07e8 E90D0000 		.4byte	.LASF143
 5573 07ec 01       		.byte	0x1
 5574 07ed D0       		.byte	0xd0
ARM GAS  /tmp/ccNUhamC.s 			page 100


 5575 07ee 32060000 		.4byte	0x632
 5576 07f2 02       		.uleb128 0x2
 5577 07f3 91       		.byte	0x91
 5578 07f4 70       		.sleb128 -16
 5579 07f5 00       		.byte	0
 5580 07f6 0D       		.uleb128 0xd
 5581 07f7 76080000 		.4byte	.LASF144
 5582 07fb 01       		.byte	0x1
 5583 07fc E0       		.byte	0xe0
 5584 07fd F2000000 		.4byte	0xf2
 5585 0801 50020000 		.4byte	.LFB8
 5586 0805 7C000000 		.4byte	.LFE8-.LFB8
 5587 0809 01       		.uleb128 0x1
 5588 080a 9C       		.byte	0x9c
 5589 080b 3A080000 		.4byte	0x83a
 5590 080f 0E       		.uleb128 0xe
 5591 0810 A4130000 		.4byte	.LASF131
 5592 0814 01       		.byte	0x1
 5593 0815 E0       		.byte	0xe0
 5594 0816 30060000 		.4byte	0x630
 5595 081a 02       		.uleb128 0x2
 5596 081b 91       		.byte	0x91
 5597 081c 6C       		.sleb128 -20
 5598 081d 0E       		.uleb128 0xe
 5599 081e E90D0000 		.4byte	.LASF143
 5600 0822 01       		.byte	0x1
 5601 0823 E0       		.byte	0xe0
 5602 0824 3A080000 		.4byte	0x83a
 5603 0828 02       		.uleb128 0x2
 5604 0829 91       		.byte	0x91
 5605 082a 68       		.sleb128 -24
 5606 082b 12       		.uleb128 0x12
 5607 082c BF000000 		.4byte	.LASF145
 5608 0830 01       		.byte	0x1
 5609 0831 E2       		.byte	0xe2
 5610 0832 D2000000 		.4byte	0xd2
 5611 0836 02       		.uleb128 0x2
 5612 0837 91       		.byte	0x91
 5613 0838 70       		.sleb128 -16
 5614 0839 00       		.byte	0
 5615 083a 11       		.uleb128 0x11
 5616 083b 04       		.byte	0x4
 5617 083c 5D000000 		.4byte	0x5d
 5618 0840 0D       		.uleb128 0xd
 5619 0841 AB130000 		.4byte	.LASF146
 5620 0845 01       		.byte	0x1
 5621 0846 F6       		.byte	0xf6
 5622 0847 F2000000 		.4byte	0xf2
 5623 084b D0020000 		.4byte	.LFB9
 5624 084f 68000000 		.4byte	.LFE9-.LFB9
 5625 0853 01       		.uleb128 0x1
 5626 0854 9C       		.byte	0x9c
 5627 0855 84080000 		.4byte	0x884
 5628 0859 0E       		.uleb128 0xe
 5629 085a A4130000 		.4byte	.LASF131
 5630 085e 01       		.byte	0x1
 5631 085f F6       		.byte	0xf6
ARM GAS  /tmp/ccNUhamC.s 			page 101


 5632 0860 30060000 		.4byte	0x630
 5633 0864 02       		.uleb128 0x2
 5634 0865 91       		.byte	0x91
 5635 0866 6C       		.sleb128 -20
 5636 0867 0E       		.uleb128 0xe
 5637 0868 AE0D0000 		.4byte	.LASF138
 5638 086c 01       		.byte	0x1
 5639 086d F6       		.byte	0xf6
 5640 086e 6A010000 		.4byte	0x16a
 5641 0872 02       		.uleb128 0x2
 5642 0873 91       		.byte	0x91
 5643 0874 6B       		.sleb128 -21
 5644 0875 12       		.uleb128 0x12
 5645 0876 64070000 		.4byte	.LASF136
 5646 087a 01       		.byte	0x1
 5647 087b F8       		.byte	0xf8
 5648 087c 6B000000 		.4byte	0x6b
 5649 0880 02       		.uleb128 0x2
 5650 0881 91       		.byte	0x91
 5651 0882 77       		.sleb128 -9
 5652 0883 00       		.byte	0
 5653 0884 13       		.uleb128 0x13
 5654 0885 B70D0000 		.4byte	.LASF147
 5655 0889 01       		.byte	0x1
 5656 088a 0D01     		.2byte	0x10d
 5657 088c F2000000 		.4byte	0xf2
 5658 0890 40030000 		.4byte	.LFB10
 5659 0894 36000000 		.4byte	.LFE10-.LFB10
 5660 0898 01       		.uleb128 0x1
 5661 0899 9C       		.byte	0x9c
 5662 089a BD080000 		.4byte	0x8bd
 5663 089e 14       		.uleb128 0x14
 5664 089f A4130000 		.4byte	.LASF131
 5665 08a3 01       		.byte	0x1
 5666 08a4 0D01     		.2byte	0x10d
 5667 08a6 30060000 		.4byte	0x630
 5668 08aa 02       		.uleb128 0x2
 5669 08ab 91       		.byte	0x91
 5670 08ac 74       		.sleb128 -12
 5671 08ad 14       		.uleb128 0x14
 5672 08ae 64070000 		.4byte	.LASF136
 5673 08b2 01       		.byte	0x1
 5674 08b3 0D01     		.2byte	0x10d
 5675 08b5 BD080000 		.4byte	0x8bd
 5676 08b9 02       		.uleb128 0x2
 5677 08ba 91       		.byte	0x91
 5678 08bb 70       		.sleb128 -16
 5679 08bc 00       		.byte	0
 5680 08bd 11       		.uleb128 0x11
 5681 08be 04       		.byte	0x4
 5682 08bf 6A010000 		.4byte	0x16a
 5683 08c3 13       		.uleb128 0x13
 5684 08c4 6C120000 		.4byte	.LASF148
 5685 08c8 01       		.byte	0x1
 5686 08c9 2001     		.2byte	0x120
 5687 08cb F2000000 		.4byte	0xf2
 5688 08cf 80030000 		.4byte	.LFB11
ARM GAS  /tmp/ccNUhamC.s 			page 102


 5689 08d3 60000000 		.4byte	.LFE11-.LFB11
 5690 08d7 01       		.uleb128 0x1
 5691 08d8 9C       		.byte	0x9c
 5692 08d9 0B090000 		.4byte	0x90b
 5693 08dd 14       		.uleb128 0x14
 5694 08de A4130000 		.4byte	.LASF131
 5695 08e2 01       		.byte	0x1
 5696 08e3 2001     		.2byte	0x120
 5697 08e5 30060000 		.4byte	0x630
 5698 08e9 02       		.uleb128 0x2
 5699 08ea 91       		.byte	0x91
 5700 08eb 6C       		.sleb128 -20
 5701 08ec 14       		.uleb128 0x14
 5702 08ed AE0D0000 		.4byte	.LASF138
 5703 08f1 01       		.byte	0x1
 5704 08f2 2001     		.2byte	0x120
 5705 08f4 6B000000 		.4byte	0x6b
 5706 08f8 02       		.uleb128 0x2
 5707 08f9 91       		.byte	0x91
 5708 08fa 6B       		.sleb128 -21
 5709 08fb 15       		.uleb128 0x15
 5710 08fc 64070000 		.4byte	.LASF136
 5711 0900 01       		.byte	0x1
 5712 0901 2201     		.2byte	0x122
 5713 0903 6B000000 		.4byte	0x6b
 5714 0907 02       		.uleb128 0x2
 5715 0908 91       		.byte	0x91
 5716 0909 77       		.sleb128 -9
 5717 090a 00       		.byte	0
 5718 090b 13       		.uleb128 0x13
 5719 090c C4040000 		.4byte	.LASF149
 5720 0910 01       		.byte	0x1
 5721 0911 3A01     		.2byte	0x13a
 5722 0913 F2000000 		.4byte	0xf2
 5723 0917 E0030000 		.4byte	.LFB12
 5724 091b 38000000 		.4byte	.LFE12-.LFB12
 5725 091f 01       		.uleb128 0x1
 5726 0920 9C       		.byte	0x9c
 5727 0921 44090000 		.4byte	0x944
 5728 0925 14       		.uleb128 0x14
 5729 0926 A4130000 		.4byte	.LASF131
 5730 092a 01       		.byte	0x1
 5731 092b 3A01     		.2byte	0x13a
 5732 092d 30060000 		.4byte	0x630
 5733 0931 02       		.uleb128 0x2
 5734 0932 91       		.byte	0x91
 5735 0933 74       		.sleb128 -12
 5736 0934 14       		.uleb128 0x14
 5737 0935 64070000 		.4byte	.LASF136
 5738 0939 01       		.byte	0x1
 5739 093a 3A01     		.2byte	0x13a
 5740 093c 32060000 		.4byte	0x632
 5741 0940 02       		.uleb128 0x2
 5742 0941 91       		.byte	0x91
 5743 0942 70       		.sleb128 -16
 5744 0943 00       		.byte	0
 5745 0944 13       		.uleb128 0x13
ARM GAS  /tmp/ccNUhamC.s 			page 103


 5746 0945 2C120000 		.4byte	.LASF150
 5747 0949 01       		.byte	0x1
 5748 094a 4C01     		.2byte	0x14c
 5749 094c F2000000 		.4byte	0xf2
 5750 0950 20040000 		.4byte	.LFB13
 5751 0954 60000000 		.4byte	.LFE13-.LFB13
 5752 0958 01       		.uleb128 0x1
 5753 0959 9C       		.byte	0x9c
 5754 095a 8C090000 		.4byte	0x98c
 5755 095e 14       		.uleb128 0x14
 5756 095f A4130000 		.4byte	.LASF131
 5757 0963 01       		.byte	0x1
 5758 0964 4C01     		.2byte	0x14c
 5759 0966 30060000 		.4byte	0x630
 5760 096a 02       		.uleb128 0x2
 5761 096b 91       		.byte	0x91
 5762 096c 6C       		.sleb128 -20
 5763 096d 14       		.uleb128 0x14
 5764 096e AE0D0000 		.4byte	.LASF138
 5765 0972 01       		.byte	0x1
 5766 0973 4C01     		.2byte	0x14c
 5767 0975 6B000000 		.4byte	0x6b
 5768 0979 02       		.uleb128 0x2
 5769 097a 91       		.byte	0x91
 5770 097b 6B       		.sleb128 -21
 5771 097c 15       		.uleb128 0x15
 5772 097d 64070000 		.4byte	.LASF136
 5773 0981 01       		.byte	0x1
 5774 0982 4E01     		.2byte	0x14e
 5775 0984 6B000000 		.4byte	0x6b
 5776 0988 02       		.uleb128 0x2
 5777 0989 91       		.byte	0x91
 5778 098a 77       		.sleb128 -9
 5779 098b 00       		.byte	0
 5780 098c 13       		.uleb128 0x13
 5781 098d DF030000 		.4byte	.LASF151
 5782 0991 01       		.byte	0x1
 5783 0992 6601     		.2byte	0x166
 5784 0994 F2000000 		.4byte	0xf2
 5785 0998 80040000 		.4byte	.LFB14
 5786 099c 38000000 		.4byte	.LFE14-.LFB14
 5787 09a0 01       		.uleb128 0x1
 5788 09a1 9C       		.byte	0x9c
 5789 09a2 C5090000 		.4byte	0x9c5
 5790 09a6 14       		.uleb128 0x14
 5791 09a7 A4130000 		.4byte	.LASF131
 5792 09ab 01       		.byte	0x1
 5793 09ac 6601     		.2byte	0x166
 5794 09ae 30060000 		.4byte	0x630
 5795 09b2 02       		.uleb128 0x2
 5796 09b3 91       		.byte	0x91
 5797 09b4 74       		.sleb128 -12
 5798 09b5 14       		.uleb128 0x14
 5799 09b6 64070000 		.4byte	.LASF136
 5800 09ba 01       		.byte	0x1
 5801 09bb 6601     		.2byte	0x166
 5802 09bd 32060000 		.4byte	0x632
ARM GAS  /tmp/ccNUhamC.s 			page 104


 5803 09c1 02       		.uleb128 0x2
 5804 09c2 91       		.byte	0x91
 5805 09c3 70       		.sleb128 -16
 5806 09c4 00       		.byte	0
 5807 09c5 13       		.uleb128 0x13
 5808 09c6 270F0000 		.4byte	.LASF152
 5809 09ca 01       		.byte	0x1
 5810 09cb 7801     		.2byte	0x178
 5811 09cd F2000000 		.4byte	0xf2
 5812 09d1 C0040000 		.4byte	.LFB15
 5813 09d5 60000000 		.4byte	.LFE15-.LFB15
 5814 09d9 01       		.uleb128 0x1
 5815 09da 9C       		.byte	0x9c
 5816 09db 0D0A0000 		.4byte	0xa0d
 5817 09df 14       		.uleb128 0x14
 5818 09e0 A4130000 		.4byte	.LASF131
 5819 09e4 01       		.byte	0x1
 5820 09e5 7801     		.2byte	0x178
 5821 09e7 30060000 		.4byte	0x630
 5822 09eb 02       		.uleb128 0x2
 5823 09ec 91       		.byte	0x91
 5824 09ed 6C       		.sleb128 -20
 5825 09ee 14       		.uleb128 0x14
 5826 09ef AE0D0000 		.4byte	.LASF138
 5827 09f3 01       		.byte	0x1
 5828 09f4 7801     		.2byte	0x178
 5829 09f6 6B000000 		.4byte	0x6b
 5830 09fa 02       		.uleb128 0x2
 5831 09fb 91       		.byte	0x91
 5832 09fc 6B       		.sleb128 -21
 5833 09fd 15       		.uleb128 0x15
 5834 09fe 64070000 		.4byte	.LASF136
 5835 0a02 01       		.byte	0x1
 5836 0a03 7A01     		.2byte	0x17a
 5837 0a05 6B000000 		.4byte	0x6b
 5838 0a09 02       		.uleb128 0x2
 5839 0a0a 91       		.byte	0x91
 5840 0a0b 77       		.sleb128 -9
 5841 0a0c 00       		.byte	0
 5842 0a0d 13       		.uleb128 0x13
 5843 0a0e 5A110000 		.4byte	.LASF153
 5844 0a12 01       		.byte	0x1
 5845 0a13 9201     		.2byte	0x192
 5846 0a15 F2000000 		.4byte	0xf2
 5847 0a19 20050000 		.4byte	.LFB16
 5848 0a1d 38000000 		.4byte	.LFE16-.LFB16
 5849 0a21 01       		.uleb128 0x1
 5850 0a22 9C       		.byte	0x9c
 5851 0a23 460A0000 		.4byte	0xa46
 5852 0a27 14       		.uleb128 0x14
 5853 0a28 A4130000 		.4byte	.LASF131
 5854 0a2c 01       		.byte	0x1
 5855 0a2d 9201     		.2byte	0x192
 5856 0a2f 30060000 		.4byte	0x630
 5857 0a33 02       		.uleb128 0x2
 5858 0a34 91       		.byte	0x91
 5859 0a35 74       		.sleb128 -12
ARM GAS  /tmp/ccNUhamC.s 			page 105


 5860 0a36 14       		.uleb128 0x14
 5861 0a37 64070000 		.4byte	.LASF136
 5862 0a3b 01       		.byte	0x1
 5863 0a3c 9201     		.2byte	0x192
 5864 0a3e 32060000 		.4byte	0x632
 5865 0a42 02       		.uleb128 0x2
 5866 0a43 91       		.byte	0x91
 5867 0a44 70       		.sleb128 -16
 5868 0a45 00       		.byte	0
 5869 0a46 13       		.uleb128 0x13
 5870 0a47 E30E0000 		.4byte	.LASF154
 5871 0a4b 01       		.byte	0x1
 5872 0a4c A401     		.2byte	0x1a4
 5873 0a4e F2000000 		.4byte	0xf2
 5874 0a52 60050000 		.4byte	.LFB17
 5875 0a56 60000000 		.4byte	.LFE17-.LFB17
 5876 0a5a 01       		.uleb128 0x1
 5877 0a5b 9C       		.byte	0x9c
 5878 0a5c 8E0A0000 		.4byte	0xa8e
 5879 0a60 14       		.uleb128 0x14
 5880 0a61 A4130000 		.4byte	.LASF131
 5881 0a65 01       		.byte	0x1
 5882 0a66 A401     		.2byte	0x1a4
 5883 0a68 30060000 		.4byte	0x630
 5884 0a6c 02       		.uleb128 0x2
 5885 0a6d 91       		.byte	0x91
 5886 0a6e 6C       		.sleb128 -20
 5887 0a6f 14       		.uleb128 0x14
 5888 0a70 AE0D0000 		.4byte	.LASF138
 5889 0a74 01       		.byte	0x1
 5890 0a75 A401     		.2byte	0x1a4
 5891 0a77 6B000000 		.4byte	0x6b
 5892 0a7b 02       		.uleb128 0x2
 5893 0a7c 91       		.byte	0x91
 5894 0a7d 6B       		.sleb128 -21
 5895 0a7e 15       		.uleb128 0x15
 5896 0a7f 64070000 		.4byte	.LASF136
 5897 0a83 01       		.byte	0x1
 5898 0a84 A601     		.2byte	0x1a6
 5899 0a86 6B000000 		.4byte	0x6b
 5900 0a8a 02       		.uleb128 0x2
 5901 0a8b 91       		.byte	0x91
 5902 0a8c 77       		.sleb128 -9
 5903 0a8d 00       		.byte	0
 5904 0a8e 13       		.uleb128 0x13
 5905 0a8f 29140000 		.4byte	.LASF155
 5906 0a93 01       		.byte	0x1
 5907 0a94 BE01     		.2byte	0x1be
 5908 0a96 F2000000 		.4byte	0xf2
 5909 0a9a C0050000 		.4byte	.LFB18
 5910 0a9e 38000000 		.4byte	.LFE18-.LFB18
 5911 0aa2 01       		.uleb128 0x1
 5912 0aa3 9C       		.byte	0x9c
 5913 0aa4 C70A0000 		.4byte	0xac7
 5914 0aa8 14       		.uleb128 0x14
 5915 0aa9 A4130000 		.4byte	.LASF131
 5916 0aad 01       		.byte	0x1
ARM GAS  /tmp/ccNUhamC.s 			page 106


 5917 0aae BE01     		.2byte	0x1be
 5918 0ab0 30060000 		.4byte	0x630
 5919 0ab4 02       		.uleb128 0x2
 5920 0ab5 91       		.byte	0x91
 5921 0ab6 74       		.sleb128 -12
 5922 0ab7 14       		.uleb128 0x14
 5923 0ab8 64070000 		.4byte	.LASF136
 5924 0abc 01       		.byte	0x1
 5925 0abd BE01     		.2byte	0x1be
 5926 0abf 32060000 		.4byte	0x632
 5927 0ac3 02       		.uleb128 0x2
 5928 0ac4 91       		.byte	0x91
 5929 0ac5 70       		.sleb128 -16
 5930 0ac6 00       		.byte	0
 5931 0ac7 13       		.uleb128 0x13
 5932 0ac8 650B0000 		.4byte	.LASF156
 5933 0acc 01       		.byte	0x1
 5934 0acd D001     		.2byte	0x1d0
 5935 0acf F2000000 		.4byte	0xf2
 5936 0ad3 00060000 		.4byte	.LFB19
 5937 0ad7 60000000 		.4byte	.LFE19-.LFB19
 5938 0adb 01       		.uleb128 0x1
 5939 0adc 9C       		.byte	0x9c
 5940 0add 0F0B0000 		.4byte	0xb0f
 5941 0ae1 14       		.uleb128 0x14
 5942 0ae2 A4130000 		.4byte	.LASF131
 5943 0ae6 01       		.byte	0x1
 5944 0ae7 D001     		.2byte	0x1d0
 5945 0ae9 30060000 		.4byte	0x630
 5946 0aed 02       		.uleb128 0x2
 5947 0aee 91       		.byte	0x91
 5948 0aef 6C       		.sleb128 -20
 5949 0af0 14       		.uleb128 0x14
 5950 0af1 AE0D0000 		.4byte	.LASF138
 5951 0af5 01       		.byte	0x1
 5952 0af6 D001     		.2byte	0x1d0
 5953 0af8 6B000000 		.4byte	0x6b
 5954 0afc 02       		.uleb128 0x2
 5955 0afd 91       		.byte	0x91
 5956 0afe 6B       		.sleb128 -21
 5957 0aff 15       		.uleb128 0x15
 5958 0b00 64070000 		.4byte	.LASF136
 5959 0b04 01       		.byte	0x1
 5960 0b05 D201     		.2byte	0x1d2
 5961 0b07 6B000000 		.4byte	0x6b
 5962 0b0b 02       		.uleb128 0x2
 5963 0b0c 91       		.byte	0x91
 5964 0b0d 77       		.sleb128 -9
 5965 0b0e 00       		.byte	0
 5966 0b0f 13       		.uleb128 0x13
 5967 0b10 19100000 		.4byte	.LASF157
 5968 0b14 01       		.byte	0x1
 5969 0b15 EA01     		.2byte	0x1ea
 5970 0b17 F2000000 		.4byte	0xf2
 5971 0b1b 60060000 		.4byte	.LFB20
 5972 0b1f 38000000 		.4byte	.LFE20-.LFB20
 5973 0b23 01       		.uleb128 0x1
ARM GAS  /tmp/ccNUhamC.s 			page 107


 5974 0b24 9C       		.byte	0x9c
 5975 0b25 480B0000 		.4byte	0xb48
 5976 0b29 14       		.uleb128 0x14
 5977 0b2a A4130000 		.4byte	.LASF131
 5978 0b2e 01       		.byte	0x1
 5979 0b2f EA01     		.2byte	0x1ea
 5980 0b31 30060000 		.4byte	0x630
 5981 0b35 02       		.uleb128 0x2
 5982 0b36 91       		.byte	0x91
 5983 0b37 74       		.sleb128 -12
 5984 0b38 14       		.uleb128 0x14
 5985 0b39 64070000 		.4byte	.LASF136
 5986 0b3d 01       		.byte	0x1
 5987 0b3e EA01     		.2byte	0x1ea
 5988 0b40 32060000 		.4byte	0x632
 5989 0b44 02       		.uleb128 0x2
 5990 0b45 91       		.byte	0x91
 5991 0b46 70       		.sleb128 -16
 5992 0b47 00       		.byte	0
 5993 0b48 13       		.uleb128 0x13
 5994 0b49 E6010000 		.4byte	.LASF158
 5995 0b4d 01       		.byte	0x1
 5996 0b4e FC01     		.2byte	0x1fc
 5997 0b50 F2000000 		.4byte	0xf2
 5998 0b54 A0060000 		.4byte	.LFB21
 5999 0b58 60000000 		.4byte	.LFE21-.LFB21
 6000 0b5c 01       		.uleb128 0x1
 6001 0b5d 9C       		.byte	0x9c
 6002 0b5e 900B0000 		.4byte	0xb90
 6003 0b62 14       		.uleb128 0x14
 6004 0b63 A4130000 		.4byte	.LASF131
 6005 0b67 01       		.byte	0x1
 6006 0b68 FC01     		.2byte	0x1fc
 6007 0b6a 30060000 		.4byte	0x630
 6008 0b6e 02       		.uleb128 0x2
 6009 0b6f 91       		.byte	0x91
 6010 0b70 6C       		.sleb128 -20
 6011 0b71 14       		.uleb128 0x14
 6012 0b72 AE0D0000 		.4byte	.LASF138
 6013 0b76 01       		.byte	0x1
 6014 0b77 FC01     		.2byte	0x1fc
 6015 0b79 6B000000 		.4byte	0x6b
 6016 0b7d 02       		.uleb128 0x2
 6017 0b7e 91       		.byte	0x91
 6018 0b7f 6B       		.sleb128 -21
 6019 0b80 15       		.uleb128 0x15
 6020 0b81 64070000 		.4byte	.LASF136
 6021 0b85 01       		.byte	0x1
 6022 0b86 FE01     		.2byte	0x1fe
 6023 0b88 6B000000 		.4byte	0x6b
 6024 0b8c 02       		.uleb128 0x2
 6025 0b8d 91       		.byte	0x91
 6026 0b8e 77       		.sleb128 -9
 6027 0b8f 00       		.byte	0
 6028 0b90 13       		.uleb128 0x13
 6029 0b91 FD040000 		.4byte	.LASF159
 6030 0b95 01       		.byte	0x1
ARM GAS  /tmp/ccNUhamC.s 			page 108


 6031 0b96 1602     		.2byte	0x216
 6032 0b98 F2000000 		.4byte	0xf2
 6033 0b9c 00070000 		.4byte	.LFB22
 6034 0ba0 A0000000 		.4byte	.LFE22-.LFB22
 6035 0ba4 01       		.uleb128 0x1
 6036 0ba5 9C       		.byte	0x9c
 6037 0ba6 050C0000 		.4byte	0xc05
 6038 0baa 14       		.uleb128 0x14
 6039 0bab A4130000 		.4byte	.LASF131
 6040 0baf 01       		.byte	0x1
 6041 0bb0 1602     		.2byte	0x216
 6042 0bb2 30060000 		.4byte	0x630
 6043 0bb6 02       		.uleb128 0x2
 6044 0bb7 91       		.byte	0x91
 6045 0bb8 6C       		.sleb128 -20
 6046 0bb9 14       		.uleb128 0x14
 6047 0bba 100B0000 		.4byte	.LASF160
 6048 0bbe 01       		.byte	0x1
 6049 0bbf 1602     		.2byte	0x216
 6050 0bc1 050C0000 		.4byte	0xc05
 6051 0bc5 02       		.uleb128 0x2
 6052 0bc6 91       		.byte	0x91
 6053 0bc7 68       		.sleb128 -24
 6054 0bc8 14       		.uleb128 0x14
 6055 0bc9 6D080000 		.4byte	.LASF161
 6056 0bcd 01       		.byte	0x1
 6057 0bce 1602     		.2byte	0x216
 6058 0bd0 050C0000 		.4byte	0xc05
 6059 0bd4 02       		.uleb128 0x2
 6060 0bd5 91       		.byte	0x91
 6061 0bd6 64       		.sleb128 -28
 6062 0bd7 14       		.uleb128 0x14
 6063 0bd8 B30F0000 		.4byte	.LASF162
 6064 0bdc 01       		.byte	0x1
 6065 0bdd 1602     		.2byte	0x216
 6066 0bdf 050C0000 		.4byte	0xc05
 6067 0be3 02       		.uleb128 0x2
 6068 0be4 91       		.byte	0x91
 6069 0be5 60       		.sleb128 -32
 6070 0be6 15       		.uleb128 0x15
 6071 0be7 97080000 		.4byte	.LASF163
 6072 0beb 01       		.byte	0x1
 6073 0bec 1802     		.2byte	0x218
 6074 0bee 6B000000 		.4byte	0x6b
 6075 0bf2 02       		.uleb128 0x2
 6076 0bf3 91       		.byte	0x91
 6077 0bf4 77       		.sleb128 -9
 6078 0bf5 15       		.uleb128 0x15
 6079 0bf6 91080000 		.4byte	.LASF164
 6080 0bfa 01       		.byte	0x1
 6081 0bfb 1802     		.2byte	0x218
 6082 0bfd 6B000000 		.4byte	0x6b
 6083 0c01 02       		.uleb128 0x2
 6084 0c02 91       		.byte	0x91
 6085 0c03 76       		.sleb128 -10
 6086 0c04 00       		.byte	0
 6087 0c05 11       		.uleb128 0x11
ARM GAS  /tmp/ccNUhamC.s 			page 109


 6088 0c06 04       		.byte	0x4
 6089 0c07 76000000 		.4byte	0x76
 6090 0c0b 13       		.uleb128 0x13
 6091 0c0c D8130000 		.4byte	.LASF165
 6092 0c10 01       		.byte	0x1
 6093 0c11 3302     		.2byte	0x233
 6094 0c13 F2000000 		.4byte	0xf2
 6095 0c17 A0070000 		.4byte	.LFB23
 6096 0c1b 7C000000 		.4byte	.LFE23-.LFB23
 6097 0c1f 01       		.uleb128 0x1
 6098 0c20 9C       		.byte	0x9c
 6099 0c21 620C0000 		.4byte	0xc62
 6100 0c25 14       		.uleb128 0x14
 6101 0c26 A4130000 		.4byte	.LASF131
 6102 0c2a 01       		.byte	0x1
 6103 0c2b 3302     		.2byte	0x233
 6104 0c2d 30060000 		.4byte	0x630
 6105 0c31 02       		.uleb128 0x2
 6106 0c32 91       		.byte	0x91
 6107 0c33 74       		.sleb128 -12
 6108 0c34 14       		.uleb128 0x14
 6109 0c35 100B0000 		.4byte	.LASF160
 6110 0c39 01       		.byte	0x1
 6111 0c3a 3302     		.2byte	0x233
 6112 0c3c 76000000 		.4byte	0x76
 6113 0c40 02       		.uleb128 0x2
 6114 0c41 91       		.byte	0x91
 6115 0c42 72       		.sleb128 -14
 6116 0c43 14       		.uleb128 0x14
 6117 0c44 6D080000 		.4byte	.LASF161
 6118 0c48 01       		.byte	0x1
 6119 0c49 3302     		.2byte	0x233
 6120 0c4b 76000000 		.4byte	0x76
 6121 0c4f 02       		.uleb128 0x2
 6122 0c50 91       		.byte	0x91
 6123 0c51 70       		.sleb128 -16
 6124 0c52 14       		.uleb128 0x14
 6125 0c53 B30F0000 		.4byte	.LASF162
 6126 0c57 01       		.byte	0x1
 6127 0c58 3302     		.2byte	0x233
 6128 0c5a 76000000 		.4byte	0x76
 6129 0c5e 02       		.uleb128 0x2
 6130 0c5f 91       		.byte	0x91
 6131 0c60 6E       		.sleb128 -18
 6132 0c61 00       		.byte	0
 6133 0c62 13       		.uleb128 0x13
 6134 0c63 E80F0000 		.4byte	.LASF166
 6135 0c67 01       		.byte	0x1
 6136 0c68 4B02     		.2byte	0x24b
 6137 0c6a F2000000 		.4byte	0xf2
 6138 0c6e 20080000 		.4byte	.LFB24
 6139 0c72 38000000 		.4byte	.LFE24-.LFB24
 6140 0c76 01       		.uleb128 0x1
 6141 0c77 9C       		.byte	0x9c
 6142 0c78 9B0C0000 		.4byte	0xc9b
 6143 0c7c 14       		.uleb128 0x14
 6144 0c7d A4130000 		.4byte	.LASF131
ARM GAS  /tmp/ccNUhamC.s 			page 110


 6145 0c81 01       		.byte	0x1
 6146 0c82 4B02     		.2byte	0x24b
 6147 0c84 30060000 		.4byte	0x630
 6148 0c88 02       		.uleb128 0x2
 6149 0c89 91       		.byte	0x91
 6150 0c8a 74       		.sleb128 -12
 6151 0c8b 14       		.uleb128 0x14
 6152 0c8c 64070000 		.4byte	.LASF136
 6153 0c90 01       		.byte	0x1
 6154 0c91 4B02     		.2byte	0x24b
 6155 0c93 32060000 		.4byte	0x632
 6156 0c97 02       		.uleb128 0x2
 6157 0c98 91       		.byte	0x91
 6158 0c99 70       		.sleb128 -16
 6159 0c9a 00       		.byte	0
 6160 0c9b 13       		.uleb128 0x13
 6161 0c9c 51130000 		.4byte	.LASF167
 6162 0ca0 01       		.byte	0x1
 6163 0ca1 5D02     		.2byte	0x25d
 6164 0ca3 F2000000 		.4byte	0xf2
 6165 0ca7 60080000 		.4byte	.LFB25
 6166 0cab 68000000 		.4byte	.LFE25-.LFB25
 6167 0caf 01       		.uleb128 0x1
 6168 0cb0 9C       		.byte	0x9c
 6169 0cb1 E30C0000 		.4byte	0xce3
 6170 0cb5 14       		.uleb128 0x14
 6171 0cb6 A4130000 		.4byte	.LASF131
 6172 0cba 01       		.byte	0x1
 6173 0cbb 5D02     		.2byte	0x25d
 6174 0cbd 30060000 		.4byte	0x630
 6175 0cc1 02       		.uleb128 0x2
 6176 0cc2 91       		.byte	0x91
 6177 0cc3 6C       		.sleb128 -20
 6178 0cc4 14       		.uleb128 0x14
 6179 0cc5 AE0D0000 		.4byte	.LASF138
 6180 0cc9 01       		.byte	0x1
 6181 0cca 5D02     		.2byte	0x25d
 6182 0ccc 8B010000 		.4byte	0x18b
 6183 0cd0 02       		.uleb128 0x2
 6184 0cd1 91       		.byte	0x91
 6185 0cd2 6B       		.sleb128 -21
 6186 0cd3 15       		.uleb128 0x15
 6187 0cd4 64070000 		.4byte	.LASF136
 6188 0cd8 01       		.byte	0x1
 6189 0cd9 5F02     		.2byte	0x25f
 6190 0cdb 6B000000 		.4byte	0x6b
 6191 0cdf 02       		.uleb128 0x2
 6192 0ce0 91       		.byte	0x91
 6193 0ce1 77       		.sleb128 -9
 6194 0ce2 00       		.byte	0
 6195 0ce3 13       		.uleb128 0x13
 6196 0ce4 7E130000 		.4byte	.LASF168
 6197 0ce8 01       		.byte	0x1
 6198 0ce9 7402     		.2byte	0x274
 6199 0ceb F2000000 		.4byte	0xf2
 6200 0cef D0080000 		.4byte	.LFB26
 6201 0cf3 36000000 		.4byte	.LFE26-.LFB26
ARM GAS  /tmp/ccNUhamC.s 			page 111


 6202 0cf7 01       		.uleb128 0x1
 6203 0cf8 9C       		.byte	0x9c
 6204 0cf9 1C0D0000 		.4byte	0xd1c
 6205 0cfd 14       		.uleb128 0x14
 6206 0cfe A4130000 		.4byte	.LASF131
 6207 0d02 01       		.byte	0x1
 6208 0d03 7402     		.2byte	0x274
 6209 0d05 30060000 		.4byte	0x630
 6210 0d09 02       		.uleb128 0x2
 6211 0d0a 91       		.byte	0x91
 6212 0d0b 74       		.sleb128 -12
 6213 0d0c 14       		.uleb128 0x14
 6214 0d0d 64070000 		.4byte	.LASF136
 6215 0d11 01       		.byte	0x1
 6216 0d12 7402     		.2byte	0x274
 6217 0d14 1C0D0000 		.4byte	0xd1c
 6218 0d18 02       		.uleb128 0x2
 6219 0d19 91       		.byte	0x91
 6220 0d1a 70       		.sleb128 -16
 6221 0d1b 00       		.byte	0
 6222 0d1c 11       		.uleb128 0x11
 6223 0d1d 04       		.byte	0x4
 6224 0d1e 8B010000 		.4byte	0x18b
 6225 0d22 13       		.uleb128 0x13
 6226 0d23 46020000 		.4byte	.LASF169
 6227 0d27 01       		.byte	0x1
 6228 0d28 8502     		.2byte	0x285
 6229 0d2a F2000000 		.4byte	0xf2
 6230 0d2e 10090000 		.4byte	.LFB27
 6231 0d32 68000000 		.4byte	.LFE27-.LFB27
 6232 0d36 01       		.uleb128 0x1
 6233 0d37 9C       		.byte	0x9c
 6234 0d38 6A0D0000 		.4byte	0xd6a
 6235 0d3c 14       		.uleb128 0x14
 6236 0d3d A4130000 		.4byte	.LASF131
 6237 0d41 01       		.byte	0x1
 6238 0d42 8502     		.2byte	0x285
 6239 0d44 30060000 		.4byte	0x630
 6240 0d48 02       		.uleb128 0x2
 6241 0d49 91       		.byte	0x91
 6242 0d4a 6C       		.sleb128 -20
 6243 0d4b 14       		.uleb128 0x14
 6244 0d4c AE0D0000 		.4byte	.LASF138
 6245 0d50 01       		.byte	0x1
 6246 0d51 8502     		.2byte	0x285
 6247 0d53 AD010000 		.4byte	0x1ad
 6248 0d57 02       		.uleb128 0x2
 6249 0d58 91       		.byte	0x91
 6250 0d59 6B       		.sleb128 -21
 6251 0d5a 15       		.uleb128 0x15
 6252 0d5b 64070000 		.4byte	.LASF136
 6253 0d5f 01       		.byte	0x1
 6254 0d60 8702     		.2byte	0x287
 6255 0d62 6B000000 		.4byte	0x6b
 6256 0d66 02       		.uleb128 0x2
 6257 0d67 91       		.byte	0x91
 6258 0d68 77       		.sleb128 -9
ARM GAS  /tmp/ccNUhamC.s 			page 112


 6259 0d69 00       		.byte	0
 6260 0d6a 13       		.uleb128 0x13
 6261 0d6b 330A0000 		.4byte	.LASF170
 6262 0d6f 01       		.byte	0x1
 6263 0d70 9C02     		.2byte	0x29c
 6264 0d72 F2000000 		.4byte	0xf2
 6265 0d76 80090000 		.4byte	.LFB28
 6266 0d7a 36000000 		.4byte	.LFE28-.LFB28
 6267 0d7e 01       		.uleb128 0x1
 6268 0d7f 9C       		.byte	0x9c
 6269 0d80 A30D0000 		.4byte	0xda3
 6270 0d84 14       		.uleb128 0x14
 6271 0d85 A4130000 		.4byte	.LASF131
 6272 0d89 01       		.byte	0x1
 6273 0d8a 9C02     		.2byte	0x29c
 6274 0d8c 30060000 		.4byte	0x630
 6275 0d90 02       		.uleb128 0x2
 6276 0d91 91       		.byte	0x91
 6277 0d92 74       		.sleb128 -12
 6278 0d93 14       		.uleb128 0x14
 6279 0d94 64070000 		.4byte	.LASF136
 6280 0d98 01       		.byte	0x1
 6281 0d99 9C02     		.2byte	0x29c
 6282 0d9b A30D0000 		.4byte	0xda3
 6283 0d9f 02       		.uleb128 0x2
 6284 0da0 91       		.byte	0x91
 6285 0da1 70       		.sleb128 -16
 6286 0da2 00       		.byte	0
 6287 0da3 11       		.uleb128 0x11
 6288 0da4 04       		.byte	0x4
 6289 0da5 AD010000 		.4byte	0x1ad
 6290 0da9 13       		.uleb128 0x13
 6291 0daa 58120000 		.4byte	.LASF171
 6292 0dae 01       		.byte	0x1
 6293 0daf AD02     		.2byte	0x2ad
 6294 0db1 F2000000 		.4byte	0xf2
 6295 0db5 C0090000 		.4byte	.LFB29
 6296 0db9 68000000 		.4byte	.LFE29-.LFB29
 6297 0dbd 01       		.uleb128 0x1
 6298 0dbe 9C       		.byte	0x9c
 6299 0dbf F10D0000 		.4byte	0xdf1
 6300 0dc3 14       		.uleb128 0x14
 6301 0dc4 A4130000 		.4byte	.LASF131
 6302 0dc8 01       		.byte	0x1
 6303 0dc9 AD02     		.2byte	0x2ad
 6304 0dcb 30060000 		.4byte	0x630
 6305 0dcf 02       		.uleb128 0x2
 6306 0dd0 91       		.byte	0x91
 6307 0dd1 6C       		.sleb128 -20
 6308 0dd2 14       		.uleb128 0x14
 6309 0dd3 AE0D0000 		.4byte	.LASF138
 6310 0dd7 01       		.byte	0x1
 6311 0dd8 AD02     		.2byte	0x2ad
 6312 0dda CF010000 		.4byte	0x1cf
 6313 0dde 02       		.uleb128 0x2
 6314 0ddf 91       		.byte	0x91
 6315 0de0 6B       		.sleb128 -21
ARM GAS  /tmp/ccNUhamC.s 			page 113


 6316 0de1 15       		.uleb128 0x15
 6317 0de2 64070000 		.4byte	.LASF136
 6318 0de6 01       		.byte	0x1
 6319 0de7 AF02     		.2byte	0x2af
 6320 0de9 6B000000 		.4byte	0x6b
 6321 0ded 02       		.uleb128 0x2
 6322 0dee 91       		.byte	0x91
 6323 0def 77       		.sleb128 -9
 6324 0df0 00       		.byte	0
 6325 0df1 13       		.uleb128 0x13
 6326 0df2 CC000000 		.4byte	.LASF172
 6327 0df6 01       		.byte	0x1
 6328 0df7 C402     		.2byte	0x2c4
 6329 0df9 F2000000 		.4byte	0xf2
 6330 0dfd 300A0000 		.4byte	.LFB30
 6331 0e01 36000000 		.4byte	.LFE30-.LFB30
 6332 0e05 01       		.uleb128 0x1
 6333 0e06 9C       		.byte	0x9c
 6334 0e07 2A0E0000 		.4byte	0xe2a
 6335 0e0b 14       		.uleb128 0x14
 6336 0e0c A4130000 		.4byte	.LASF131
 6337 0e10 01       		.byte	0x1
 6338 0e11 C402     		.2byte	0x2c4
 6339 0e13 30060000 		.4byte	0x630
 6340 0e17 02       		.uleb128 0x2
 6341 0e18 91       		.byte	0x91
 6342 0e19 74       		.sleb128 -12
 6343 0e1a 14       		.uleb128 0x14
 6344 0e1b 64070000 		.4byte	.LASF136
 6345 0e1f 01       		.byte	0x1
 6346 0e20 C402     		.2byte	0x2c4
 6347 0e22 2A0E0000 		.4byte	0xe2a
 6348 0e26 02       		.uleb128 0x2
 6349 0e27 91       		.byte	0x91
 6350 0e28 70       		.sleb128 -16
 6351 0e29 00       		.byte	0
 6352 0e2a 11       		.uleb128 0x11
 6353 0e2b 04       		.byte	0x4
 6354 0e2c CF010000 		.4byte	0x1cf
 6355 0e30 13       		.uleb128 0x13
 6356 0e31 F5100000 		.4byte	.LASF173
 6357 0e35 01       		.byte	0x1
 6358 0e36 D502     		.2byte	0x2d5
 6359 0e38 F2000000 		.4byte	0xf2
 6360 0e3c 700A0000 		.4byte	.LFB31
 6361 0e40 68000000 		.4byte	.LFE31-.LFB31
 6362 0e44 01       		.uleb128 0x1
 6363 0e45 9C       		.byte	0x9c
 6364 0e46 780E0000 		.4byte	0xe78
 6365 0e4a 14       		.uleb128 0x14
 6366 0e4b A4130000 		.4byte	.LASF131
 6367 0e4f 01       		.byte	0x1
 6368 0e50 D502     		.2byte	0x2d5
 6369 0e52 30060000 		.4byte	0x630
 6370 0e56 02       		.uleb128 0x2
 6371 0e57 91       		.byte	0x91
 6372 0e58 6C       		.sleb128 -20
ARM GAS  /tmp/ccNUhamC.s 			page 114


 6373 0e59 14       		.uleb128 0x14
 6374 0e5a AE0D0000 		.4byte	.LASF138
 6375 0e5e 01       		.byte	0x1
 6376 0e5f D502     		.2byte	0x2d5
 6377 0e61 F1010000 		.4byte	0x1f1
 6378 0e65 02       		.uleb128 0x2
 6379 0e66 91       		.byte	0x91
 6380 0e67 6B       		.sleb128 -21
 6381 0e68 15       		.uleb128 0x15
 6382 0e69 64070000 		.4byte	.LASF136
 6383 0e6d 01       		.byte	0x1
 6384 0e6e D702     		.2byte	0x2d7
 6385 0e70 6B000000 		.4byte	0x6b
 6386 0e74 02       		.uleb128 0x2
 6387 0e75 91       		.byte	0x91
 6388 0e76 77       		.sleb128 -9
 6389 0e77 00       		.byte	0
 6390 0e78 13       		.uleb128 0x13
 6391 0e79 810F0000 		.4byte	.LASF174
 6392 0e7d 01       		.byte	0x1
 6393 0e7e EC02     		.2byte	0x2ec
 6394 0e80 F2000000 		.4byte	0xf2
 6395 0e84 E00A0000 		.4byte	.LFB32
 6396 0e88 36000000 		.4byte	.LFE32-.LFB32
 6397 0e8c 01       		.uleb128 0x1
 6398 0e8d 9C       		.byte	0x9c
 6399 0e8e B10E0000 		.4byte	0xeb1
 6400 0e92 14       		.uleb128 0x14
 6401 0e93 A4130000 		.4byte	.LASF131
 6402 0e97 01       		.byte	0x1
 6403 0e98 EC02     		.2byte	0x2ec
 6404 0e9a 30060000 		.4byte	0x630
 6405 0e9e 02       		.uleb128 0x2
 6406 0e9f 91       		.byte	0x91
 6407 0ea0 74       		.sleb128 -12
 6408 0ea1 14       		.uleb128 0x14
 6409 0ea2 64070000 		.4byte	.LASF136
 6410 0ea6 01       		.byte	0x1
 6411 0ea7 EC02     		.2byte	0x2ec
 6412 0ea9 B10E0000 		.4byte	0xeb1
 6413 0ead 02       		.uleb128 0x2
 6414 0eae 91       		.byte	0x91
 6415 0eaf 70       		.sleb128 -16
 6416 0eb0 00       		.byte	0
 6417 0eb1 11       		.uleb128 0x11
 6418 0eb2 04       		.byte	0x4
 6419 0eb3 F1010000 		.4byte	0x1f1
 6420 0eb7 13       		.uleb128 0x13
 6421 0eb8 9A0F0000 		.4byte	.LASF175
 6422 0ebc 01       		.byte	0x1
 6423 0ebd FD02     		.2byte	0x2fd
 6424 0ebf F2000000 		.4byte	0xf2
 6425 0ec3 200B0000 		.4byte	.LFB33
 6426 0ec7 68000000 		.4byte	.LFE33-.LFB33
 6427 0ecb 01       		.uleb128 0x1
 6428 0ecc 9C       		.byte	0x9c
 6429 0ecd FF0E0000 		.4byte	0xeff
ARM GAS  /tmp/ccNUhamC.s 			page 115


 6430 0ed1 14       		.uleb128 0x14
 6431 0ed2 A4130000 		.4byte	.LASF131
 6432 0ed6 01       		.byte	0x1
 6433 0ed7 FD02     		.2byte	0x2fd
 6434 0ed9 30060000 		.4byte	0x630
 6435 0edd 02       		.uleb128 0x2
 6436 0ede 91       		.byte	0x91
 6437 0edf 6C       		.sleb128 -20
 6438 0ee0 14       		.uleb128 0x14
 6439 0ee1 AE0D0000 		.4byte	.LASF138
 6440 0ee5 01       		.byte	0x1
 6441 0ee6 FD02     		.2byte	0x2fd
 6442 0ee8 13020000 		.4byte	0x213
 6443 0eec 02       		.uleb128 0x2
 6444 0eed 91       		.byte	0x91
 6445 0eee 6B       		.sleb128 -21
 6446 0eef 15       		.uleb128 0x15
 6447 0ef0 64070000 		.4byte	.LASF136
 6448 0ef4 01       		.byte	0x1
 6449 0ef5 FF02     		.2byte	0x2ff
 6450 0ef7 6B000000 		.4byte	0x6b
 6451 0efb 02       		.uleb128 0x2
 6452 0efc 91       		.byte	0x91
 6453 0efd 77       		.sleb128 -9
 6454 0efe 00       		.byte	0
 6455 0eff 13       		.uleb128 0x13
 6456 0f00 E3050000 		.4byte	.LASF176
 6457 0f04 01       		.byte	0x1
 6458 0f05 1403     		.2byte	0x314
 6459 0f07 F2000000 		.4byte	0xf2
 6460 0f0b 900B0000 		.4byte	.LFB34
 6461 0f0f 36000000 		.4byte	.LFE34-.LFB34
 6462 0f13 01       		.uleb128 0x1
 6463 0f14 9C       		.byte	0x9c
 6464 0f15 380F0000 		.4byte	0xf38
 6465 0f19 14       		.uleb128 0x14
 6466 0f1a A4130000 		.4byte	.LASF131
 6467 0f1e 01       		.byte	0x1
 6468 0f1f 1403     		.2byte	0x314
 6469 0f21 30060000 		.4byte	0x630
 6470 0f25 02       		.uleb128 0x2
 6471 0f26 91       		.byte	0x91
 6472 0f27 74       		.sleb128 -12
 6473 0f28 14       		.uleb128 0x14
 6474 0f29 64070000 		.4byte	.LASF136
 6475 0f2d 01       		.byte	0x1
 6476 0f2e 1403     		.2byte	0x314
 6477 0f30 380F0000 		.4byte	0xf38
 6478 0f34 02       		.uleb128 0x2
 6479 0f35 91       		.byte	0x91
 6480 0f36 70       		.sleb128 -16
 6481 0f37 00       		.byte	0
 6482 0f38 11       		.uleb128 0x11
 6483 0f39 04       		.byte	0x4
 6484 0f3a 13020000 		.4byte	0x213
 6485 0f3e 13       		.uleb128 0x13
 6486 0f3f 3A040000 		.4byte	.LASF177
ARM GAS  /tmp/ccNUhamC.s 			page 116


 6487 0f43 01       		.byte	0x1
 6488 0f44 2503     		.2byte	0x325
 6489 0f46 F2000000 		.4byte	0xf2
 6490 0f4a D00B0000 		.4byte	.LFB35
 6491 0f4e 68000000 		.4byte	.LFE35-.LFB35
 6492 0f52 01       		.uleb128 0x1
 6493 0f53 9C       		.byte	0x9c
 6494 0f54 860F0000 		.4byte	0xf86
 6495 0f58 14       		.uleb128 0x14
 6496 0f59 A4130000 		.4byte	.LASF131
 6497 0f5d 01       		.byte	0x1
 6498 0f5e 2503     		.2byte	0x325
 6499 0f60 30060000 		.4byte	0x630
 6500 0f64 02       		.uleb128 0x2
 6501 0f65 91       		.byte	0x91
 6502 0f66 6C       		.sleb128 -20
 6503 0f67 14       		.uleb128 0x14
 6504 0f68 AE0D0000 		.4byte	.LASF138
 6505 0f6c 01       		.byte	0x1
 6506 0f6d 2503     		.2byte	0x325
 6507 0f6f 35020000 		.4byte	0x235
 6508 0f73 02       		.uleb128 0x2
 6509 0f74 91       		.byte	0x91
 6510 0f75 6B       		.sleb128 -21
 6511 0f76 15       		.uleb128 0x15
 6512 0f77 64070000 		.4byte	.LASF136
 6513 0f7b 01       		.byte	0x1
 6514 0f7c 2703     		.2byte	0x327
 6515 0f7e 6B000000 		.4byte	0x6b
 6516 0f82 02       		.uleb128 0x2
 6517 0f83 91       		.byte	0x91
 6518 0f84 77       		.sleb128 -9
 6519 0f85 00       		.byte	0
 6520 0f86 13       		.uleb128 0x13
 6521 0f87 35050000 		.4byte	.LASF178
 6522 0f8b 01       		.byte	0x1
 6523 0f8c 3C03     		.2byte	0x33c
 6524 0f8e F2000000 		.4byte	0xf2
 6525 0f92 400C0000 		.4byte	.LFB36
 6526 0f96 36000000 		.4byte	.LFE36-.LFB36
 6527 0f9a 01       		.uleb128 0x1
 6528 0f9b 9C       		.byte	0x9c
 6529 0f9c BF0F0000 		.4byte	0xfbf
 6530 0fa0 14       		.uleb128 0x14
 6531 0fa1 A4130000 		.4byte	.LASF131
 6532 0fa5 01       		.byte	0x1
 6533 0fa6 3C03     		.2byte	0x33c
 6534 0fa8 30060000 		.4byte	0x630
 6535 0fac 02       		.uleb128 0x2
 6536 0fad 91       		.byte	0x91
 6537 0fae 74       		.sleb128 -12
 6538 0faf 14       		.uleb128 0x14
 6539 0fb0 64070000 		.4byte	.LASF136
 6540 0fb4 01       		.byte	0x1
 6541 0fb5 3C03     		.2byte	0x33c
 6542 0fb7 BF0F0000 		.4byte	0xfbf
 6543 0fbb 02       		.uleb128 0x2
ARM GAS  /tmp/ccNUhamC.s 			page 117


 6544 0fbc 91       		.byte	0x91
 6545 0fbd 70       		.sleb128 -16
 6546 0fbe 00       		.byte	0
 6547 0fbf 11       		.uleb128 0x11
 6548 0fc0 04       		.byte	0x4
 6549 0fc1 35020000 		.4byte	0x235
 6550 0fc5 13       		.uleb128 0x13
 6551 0fc6 B7020000 		.4byte	.LASF179
 6552 0fca 01       		.byte	0x1
 6553 0fcb 4D03     		.2byte	0x34d
 6554 0fcd F2000000 		.4byte	0xf2
 6555 0fd1 800C0000 		.4byte	.LFB37
 6556 0fd5 68000000 		.4byte	.LFE37-.LFB37
 6557 0fd9 01       		.uleb128 0x1
 6558 0fda 9C       		.byte	0x9c
 6559 0fdb 0D100000 		.4byte	0x100d
 6560 0fdf 14       		.uleb128 0x14
 6561 0fe0 A4130000 		.4byte	.LASF131
 6562 0fe4 01       		.byte	0x1
 6563 0fe5 4D03     		.2byte	0x34d
 6564 0fe7 30060000 		.4byte	0x630
 6565 0feb 02       		.uleb128 0x2
 6566 0fec 91       		.byte	0x91
 6567 0fed 6C       		.sleb128 -20
 6568 0fee 14       		.uleb128 0x14
 6569 0fef AE0D0000 		.4byte	.LASF138
 6570 0ff3 01       		.byte	0x1
 6571 0ff4 4D03     		.2byte	0x34d
 6572 0ff6 57020000 		.4byte	0x257
 6573 0ffa 02       		.uleb128 0x2
 6574 0ffb 91       		.byte	0x91
 6575 0ffc 6B       		.sleb128 -21
 6576 0ffd 15       		.uleb128 0x15
 6577 0ffe 64070000 		.4byte	.LASF136
 6578 1002 01       		.byte	0x1
 6579 1003 4F03     		.2byte	0x34f
 6580 1005 6B000000 		.4byte	0x6b
 6581 1009 02       		.uleb128 0x2
 6582 100a 91       		.byte	0x91
 6583 100b 77       		.sleb128 -9
 6584 100c 00       		.byte	0
 6585 100d 13       		.uleb128 0x13
 6586 100e BC0F0000 		.4byte	.LASF180
 6587 1012 01       		.byte	0x1
 6588 1013 6403     		.2byte	0x364
 6589 1015 F2000000 		.4byte	0xf2
 6590 1019 F00C0000 		.4byte	.LFB38
 6591 101d 36000000 		.4byte	.LFE38-.LFB38
 6592 1021 01       		.uleb128 0x1
 6593 1022 9C       		.byte	0x9c
 6594 1023 46100000 		.4byte	0x1046
 6595 1027 14       		.uleb128 0x14
 6596 1028 A4130000 		.4byte	.LASF131
 6597 102c 01       		.byte	0x1
 6598 102d 6403     		.2byte	0x364
 6599 102f 30060000 		.4byte	0x630
 6600 1033 02       		.uleb128 0x2
ARM GAS  /tmp/ccNUhamC.s 			page 118


 6601 1034 91       		.byte	0x91
 6602 1035 74       		.sleb128 -12
 6603 1036 14       		.uleb128 0x14
 6604 1037 64070000 		.4byte	.LASF136
 6605 103b 01       		.byte	0x1
 6606 103c 6403     		.2byte	0x364
 6607 103e 46100000 		.4byte	0x1046
 6608 1042 02       		.uleb128 0x2
 6609 1043 91       		.byte	0x91
 6610 1044 70       		.sleb128 -16
 6611 1045 00       		.byte	0
 6612 1046 11       		.uleb128 0x11
 6613 1047 04       		.byte	0x4
 6614 1048 57020000 		.4byte	0x257
 6615 104c 13       		.uleb128 0x13
 6616 104d 3F0F0000 		.4byte	.LASF181
 6617 1051 01       		.byte	0x1
 6618 1052 7503     		.2byte	0x375
 6619 1054 F2000000 		.4byte	0xf2
 6620 1058 300D0000 		.4byte	.LFB39
 6621 105c 68000000 		.4byte	.LFE39-.LFB39
 6622 1060 01       		.uleb128 0x1
 6623 1061 9C       		.byte	0x9c
 6624 1062 94100000 		.4byte	0x1094
 6625 1066 14       		.uleb128 0x14
 6626 1067 A4130000 		.4byte	.LASF131
 6627 106b 01       		.byte	0x1
 6628 106c 7503     		.2byte	0x375
 6629 106e 30060000 		.4byte	0x630
 6630 1072 02       		.uleb128 0x2
 6631 1073 91       		.byte	0x91
 6632 1074 6C       		.sleb128 -20
 6633 1075 14       		.uleb128 0x14
 6634 1076 AE0D0000 		.4byte	.LASF138
 6635 107a 01       		.byte	0x1
 6636 107b 7503     		.2byte	0x375
 6637 107d 79020000 		.4byte	0x279
 6638 1081 02       		.uleb128 0x2
 6639 1082 91       		.byte	0x91
 6640 1083 6B       		.sleb128 -21
 6641 1084 15       		.uleb128 0x15
 6642 1085 64070000 		.4byte	.LASF136
 6643 1089 01       		.byte	0x1
 6644 108a 7703     		.2byte	0x377
 6645 108c 6B000000 		.4byte	0x6b
 6646 1090 02       		.uleb128 0x2
 6647 1091 91       		.byte	0x91
 6648 1092 77       		.sleb128 -9
 6649 1093 00       		.byte	0
 6650 1094 13       		.uleb128 0x13
 6651 1095 AE110000 		.4byte	.LASF182
 6652 1099 01       		.byte	0x1
 6653 109a 8C03     		.2byte	0x38c
 6654 109c F2000000 		.4byte	0xf2
 6655 10a0 A00D0000 		.4byte	.LFB40
 6656 10a4 36000000 		.4byte	.LFE40-.LFB40
 6657 10a8 01       		.uleb128 0x1
ARM GAS  /tmp/ccNUhamC.s 			page 119


 6658 10a9 9C       		.byte	0x9c
 6659 10aa CD100000 		.4byte	0x10cd
 6660 10ae 14       		.uleb128 0x14
 6661 10af A4130000 		.4byte	.LASF131
 6662 10b3 01       		.byte	0x1
 6663 10b4 8C03     		.2byte	0x38c
 6664 10b6 30060000 		.4byte	0x630
 6665 10ba 02       		.uleb128 0x2
 6666 10bb 91       		.byte	0x91
 6667 10bc 74       		.sleb128 -12
 6668 10bd 14       		.uleb128 0x14
 6669 10be 64070000 		.4byte	.LASF136
 6670 10c2 01       		.byte	0x1
 6671 10c3 8C03     		.2byte	0x38c
 6672 10c5 CD100000 		.4byte	0x10cd
 6673 10c9 02       		.uleb128 0x2
 6674 10ca 91       		.byte	0x91
 6675 10cb 70       		.sleb128 -16
 6676 10cc 00       		.byte	0
 6677 10cd 11       		.uleb128 0x11
 6678 10ce 04       		.byte	0x4
 6679 10cf 79020000 		.4byte	0x279
 6680 10d3 13       		.uleb128 0x13
 6681 10d4 6D0F0000 		.4byte	.LASF183
 6682 10d8 01       		.byte	0x1
 6683 10d9 9D03     		.2byte	0x39d
 6684 10db F2000000 		.4byte	0xf2
 6685 10df E00D0000 		.4byte	.LFB41
 6686 10e3 68000000 		.4byte	.LFE41-.LFB41
 6687 10e7 01       		.uleb128 0x1
 6688 10e8 9C       		.byte	0x9c
 6689 10e9 1B110000 		.4byte	0x111b
 6690 10ed 14       		.uleb128 0x14
 6691 10ee A4130000 		.4byte	.LASF131
 6692 10f2 01       		.byte	0x1
 6693 10f3 9D03     		.2byte	0x39d
 6694 10f5 30060000 		.4byte	0x630
 6695 10f9 02       		.uleb128 0x2
 6696 10fa 91       		.byte	0x91
 6697 10fb 6C       		.sleb128 -20
 6698 10fc 14       		.uleb128 0x14
 6699 10fd AE0D0000 		.4byte	.LASF138
 6700 1101 01       		.byte	0x1
 6701 1102 9D03     		.2byte	0x39d
 6702 1104 9B020000 		.4byte	0x29b
 6703 1108 02       		.uleb128 0x2
 6704 1109 91       		.byte	0x91
 6705 110a 6B       		.sleb128 -21
 6706 110b 15       		.uleb128 0x15
 6707 110c 64070000 		.4byte	.LASF136
 6708 1110 01       		.byte	0x1
 6709 1111 9F03     		.2byte	0x39f
 6710 1113 6B000000 		.4byte	0x6b
 6711 1117 02       		.uleb128 0x2
 6712 1118 91       		.byte	0x91
 6713 1119 77       		.sleb128 -9
 6714 111a 00       		.byte	0
ARM GAS  /tmp/ccNUhamC.s 			page 120


 6715 111b 13       		.uleb128 0x13
 6716 111c E0000000 		.4byte	.LASF184
 6717 1120 01       		.byte	0x1
 6718 1121 B403     		.2byte	0x3b4
 6719 1123 F2000000 		.4byte	0xf2
 6720 1127 500E0000 		.4byte	.LFB42
 6721 112b 36000000 		.4byte	.LFE42-.LFB42
 6722 112f 01       		.uleb128 0x1
 6723 1130 9C       		.byte	0x9c
 6724 1131 54110000 		.4byte	0x1154
 6725 1135 14       		.uleb128 0x14
 6726 1136 A4130000 		.4byte	.LASF131
 6727 113a 01       		.byte	0x1
 6728 113b B403     		.2byte	0x3b4
 6729 113d 30060000 		.4byte	0x630
 6730 1141 02       		.uleb128 0x2
 6731 1142 91       		.byte	0x91
 6732 1143 74       		.sleb128 -12
 6733 1144 14       		.uleb128 0x14
 6734 1145 64070000 		.4byte	.LASF136
 6735 1149 01       		.byte	0x1
 6736 114a B403     		.2byte	0x3b4
 6737 114c 54110000 		.4byte	0x1154
 6738 1150 02       		.uleb128 0x2
 6739 1151 91       		.byte	0x91
 6740 1152 70       		.sleb128 -16
 6741 1153 00       		.byte	0
 6742 1154 11       		.uleb128 0x11
 6743 1155 04       		.byte	0x4
 6744 1156 9B020000 		.4byte	0x29b
 6745 115a 13       		.uleb128 0x13
 6746 115b 0F090000 		.4byte	.LASF185
 6747 115f 01       		.byte	0x1
 6748 1160 C503     		.2byte	0x3c5
 6749 1162 F2000000 		.4byte	0xf2
 6750 1166 900E0000 		.4byte	.LFB43
 6751 116a 68000000 		.4byte	.LFE43-.LFB43
 6752 116e 01       		.uleb128 0x1
 6753 116f 9C       		.byte	0x9c
 6754 1170 A2110000 		.4byte	0x11a2
 6755 1174 14       		.uleb128 0x14
 6756 1175 A4130000 		.4byte	.LASF131
 6757 1179 01       		.byte	0x1
 6758 117a C503     		.2byte	0x3c5
 6759 117c 30060000 		.4byte	0x630
 6760 1180 02       		.uleb128 0x2
 6761 1181 91       		.byte	0x91
 6762 1182 6C       		.sleb128 -20
 6763 1183 14       		.uleb128 0x14
 6764 1184 AE0D0000 		.4byte	.LASF138
 6765 1188 01       		.byte	0x1
 6766 1189 C503     		.2byte	0x3c5
 6767 118b BD020000 		.4byte	0x2bd
 6768 118f 02       		.uleb128 0x2
 6769 1190 91       		.byte	0x91
 6770 1191 6B       		.sleb128 -21
 6771 1192 15       		.uleb128 0x15
ARM GAS  /tmp/ccNUhamC.s 			page 121


 6772 1193 64070000 		.4byte	.LASF136
 6773 1197 01       		.byte	0x1
 6774 1198 C703     		.2byte	0x3c7
 6775 119a 6B000000 		.4byte	0x6b
 6776 119e 02       		.uleb128 0x2
 6777 119f 91       		.byte	0x91
 6778 11a0 77       		.sleb128 -9
 6779 11a1 00       		.byte	0
 6780 11a2 13       		.uleb128 0x13
 6781 11a3 54050000 		.4byte	.LASF186
 6782 11a7 01       		.byte	0x1
 6783 11a8 DC03     		.2byte	0x3dc
 6784 11aa F2000000 		.4byte	0xf2
 6785 11ae 000F0000 		.4byte	.LFB44
 6786 11b2 36000000 		.4byte	.LFE44-.LFB44
 6787 11b6 01       		.uleb128 0x1
 6788 11b7 9C       		.byte	0x9c
 6789 11b8 DB110000 		.4byte	0x11db
 6790 11bc 14       		.uleb128 0x14
 6791 11bd A4130000 		.4byte	.LASF131
 6792 11c1 01       		.byte	0x1
 6793 11c2 DC03     		.2byte	0x3dc
 6794 11c4 30060000 		.4byte	0x630
 6795 11c8 02       		.uleb128 0x2
 6796 11c9 91       		.byte	0x91
 6797 11ca 74       		.sleb128 -12
 6798 11cb 14       		.uleb128 0x14
 6799 11cc 64070000 		.4byte	.LASF136
 6800 11d0 01       		.byte	0x1
 6801 11d1 DC03     		.2byte	0x3dc
 6802 11d3 DB110000 		.4byte	0x11db
 6803 11d7 02       		.uleb128 0x2
 6804 11d8 91       		.byte	0x91
 6805 11d9 70       		.sleb128 -16
 6806 11da 00       		.byte	0
 6807 11db 11       		.uleb128 0x11
 6808 11dc 04       		.byte	0x4
 6809 11dd BD020000 		.4byte	0x2bd
 6810 11e1 13       		.uleb128 0x13
 6811 11e2 950B0000 		.4byte	.LASF187
 6812 11e6 01       		.byte	0x1
 6813 11e7 ED03     		.2byte	0x3ed
 6814 11e9 F2000000 		.4byte	0xf2
 6815 11ed 400F0000 		.4byte	.LFB45
 6816 11f1 68000000 		.4byte	.LFE45-.LFB45
 6817 11f5 01       		.uleb128 0x1
 6818 11f6 9C       		.byte	0x9c
 6819 11f7 29120000 		.4byte	0x1229
 6820 11fb 14       		.uleb128 0x14
 6821 11fc A4130000 		.4byte	.LASF131
 6822 1200 01       		.byte	0x1
 6823 1201 ED03     		.2byte	0x3ed
 6824 1203 30060000 		.4byte	0x630
 6825 1207 02       		.uleb128 0x2
 6826 1208 91       		.byte	0x91
 6827 1209 6C       		.sleb128 -20
 6828 120a 14       		.uleb128 0x14
ARM GAS  /tmp/ccNUhamC.s 			page 122


 6829 120b AE0D0000 		.4byte	.LASF138
 6830 120f 01       		.byte	0x1
 6831 1210 ED03     		.2byte	0x3ed
 6832 1212 E0020000 		.4byte	0x2e0
 6833 1216 02       		.uleb128 0x2
 6834 1217 91       		.byte	0x91
 6835 1218 6B       		.sleb128 -21
 6836 1219 15       		.uleb128 0x15
 6837 121a 64070000 		.4byte	.LASF136
 6838 121e 01       		.byte	0x1
 6839 121f EF03     		.2byte	0x3ef
 6840 1221 6B000000 		.4byte	0x6b
 6841 1225 02       		.uleb128 0x2
 6842 1226 91       		.byte	0x91
 6843 1227 77       		.sleb128 -9
 6844 1228 00       		.byte	0
 6845 1229 13       		.uleb128 0x13
 6846 122a 47000000 		.4byte	.LASF188
 6847 122e 01       		.byte	0x1
 6848 122f 0404     		.2byte	0x404
 6849 1231 F2000000 		.4byte	0xf2
 6850 1235 B00F0000 		.4byte	.LFB46
 6851 1239 36000000 		.4byte	.LFE46-.LFB46
 6852 123d 01       		.uleb128 0x1
 6853 123e 9C       		.byte	0x9c
 6854 123f 62120000 		.4byte	0x1262
 6855 1243 14       		.uleb128 0x14
 6856 1244 A4130000 		.4byte	.LASF131
 6857 1248 01       		.byte	0x1
 6858 1249 0404     		.2byte	0x404
 6859 124b 30060000 		.4byte	0x630
 6860 124f 02       		.uleb128 0x2
 6861 1250 91       		.byte	0x91
 6862 1251 74       		.sleb128 -12
 6863 1252 14       		.uleb128 0x14
 6864 1253 64070000 		.4byte	.LASF136
 6865 1257 01       		.byte	0x1
 6866 1258 0404     		.2byte	0x404
 6867 125a 62120000 		.4byte	0x1262
 6868 125e 02       		.uleb128 0x2
 6869 125f 91       		.byte	0x91
 6870 1260 70       		.sleb128 -16
 6871 1261 00       		.byte	0
 6872 1262 11       		.uleb128 0x11
 6873 1263 04       		.byte	0x4
 6874 1264 E0020000 		.4byte	0x2e0
 6875 1268 13       		.uleb128 0x13
 6876 1269 63000000 		.4byte	.LASF189
 6877 126d 01       		.byte	0x1
 6878 126e 1504     		.2byte	0x415
 6879 1270 F2000000 		.4byte	0xf2
 6880 1274 F00F0000 		.4byte	.LFB47
 6881 1278 68000000 		.4byte	.LFE47-.LFB47
 6882 127c 01       		.uleb128 0x1
 6883 127d 9C       		.byte	0x9c
 6884 127e B0120000 		.4byte	0x12b0
 6885 1282 14       		.uleb128 0x14
ARM GAS  /tmp/ccNUhamC.s 			page 123


 6886 1283 A4130000 		.4byte	.LASF131
 6887 1287 01       		.byte	0x1
 6888 1288 1504     		.2byte	0x415
 6889 128a 30060000 		.4byte	0x630
 6890 128e 02       		.uleb128 0x2
 6891 128f 91       		.byte	0x91
 6892 1290 6C       		.sleb128 -20
 6893 1291 14       		.uleb128 0x14
 6894 1292 AE0D0000 		.4byte	.LASF138
 6895 1296 01       		.byte	0x1
 6896 1297 1504     		.2byte	0x415
 6897 1299 02030000 		.4byte	0x302
 6898 129d 02       		.uleb128 0x2
 6899 129e 91       		.byte	0x91
 6900 129f 6B       		.sleb128 -21
 6901 12a0 15       		.uleb128 0x15
 6902 12a1 64070000 		.4byte	.LASF136
 6903 12a5 01       		.byte	0x1
 6904 12a6 1704     		.2byte	0x417
 6905 12a8 6B000000 		.4byte	0x6b
 6906 12ac 02       		.uleb128 0x2
 6907 12ad 91       		.byte	0x91
 6908 12ae 77       		.sleb128 -9
 6909 12af 00       		.byte	0
 6910 12b0 13       		.uleb128 0x13
 6911 12b1 C1110000 		.4byte	.LASF190
 6912 12b5 01       		.byte	0x1
 6913 12b6 2C04     		.2byte	0x42c
 6914 12b8 F2000000 		.4byte	0xf2
 6915 12bc 60100000 		.4byte	.LFB48
 6916 12c0 36000000 		.4byte	.LFE48-.LFB48
 6917 12c4 01       		.uleb128 0x1
 6918 12c5 9C       		.byte	0x9c
 6919 12c6 E9120000 		.4byte	0x12e9
 6920 12ca 14       		.uleb128 0x14
 6921 12cb A4130000 		.4byte	.LASF131
 6922 12cf 01       		.byte	0x1
 6923 12d0 2C04     		.2byte	0x42c
 6924 12d2 30060000 		.4byte	0x630
 6925 12d6 02       		.uleb128 0x2
 6926 12d7 91       		.byte	0x91
 6927 12d8 74       		.sleb128 -12
 6928 12d9 14       		.uleb128 0x14
 6929 12da 64070000 		.4byte	.LASF136
 6930 12de 01       		.byte	0x1
 6931 12df 2C04     		.2byte	0x42c
 6932 12e1 E9120000 		.4byte	0x12e9
 6933 12e5 02       		.uleb128 0x2
 6934 12e6 91       		.byte	0x91
 6935 12e7 70       		.sleb128 -16
 6936 12e8 00       		.byte	0
 6937 12e9 11       		.uleb128 0x11
 6938 12ea 04       		.byte	0x4
 6939 12eb 02030000 		.4byte	0x302
 6940 12ef 13       		.uleb128 0x13
 6941 12f0 33000000 		.4byte	.LASF191
 6942 12f4 01       		.byte	0x1
ARM GAS  /tmp/ccNUhamC.s 			page 124


 6943 12f5 3D04     		.2byte	0x43d
 6944 12f7 F2000000 		.4byte	0xf2
 6945 12fb A0100000 		.4byte	.LFB49
 6946 12ff 68000000 		.4byte	.LFE49-.LFB49
 6947 1303 01       		.uleb128 0x1
 6948 1304 9C       		.byte	0x9c
 6949 1305 37130000 		.4byte	0x1337
 6950 1309 14       		.uleb128 0x14
 6951 130a A4130000 		.4byte	.LASF131
 6952 130e 01       		.byte	0x1
 6953 130f 3D04     		.2byte	0x43d
 6954 1311 30060000 		.4byte	0x630
 6955 1315 02       		.uleb128 0x2
 6956 1316 91       		.byte	0x91
 6957 1317 6C       		.sleb128 -20
 6958 1318 14       		.uleb128 0x14
 6959 1319 AE0D0000 		.4byte	.LASF138
 6960 131d 01       		.byte	0x1
 6961 131e 3D04     		.2byte	0x43d
 6962 1320 24030000 		.4byte	0x324
 6963 1324 02       		.uleb128 0x2
 6964 1325 91       		.byte	0x91
 6965 1326 6B       		.sleb128 -21
 6966 1327 15       		.uleb128 0x15
 6967 1328 64070000 		.4byte	.LASF136
 6968 132c 01       		.byte	0x1
 6969 132d 3F04     		.2byte	0x43f
 6970 132f 6B000000 		.4byte	0x6b
 6971 1333 02       		.uleb128 0x2
 6972 1334 91       		.byte	0x91
 6973 1335 77       		.sleb128 -9
 6974 1336 00       		.byte	0
 6975 1337 13       		.uleb128 0x13
 6976 1338 3A030000 		.4byte	.LASF192
 6977 133c 01       		.byte	0x1
 6978 133d 5404     		.2byte	0x454
 6979 133f F2000000 		.4byte	0xf2
 6980 1343 10110000 		.4byte	.LFB50
 6981 1347 36000000 		.4byte	.LFE50-.LFB50
 6982 134b 01       		.uleb128 0x1
 6983 134c 9C       		.byte	0x9c
 6984 134d 70130000 		.4byte	0x1370
 6985 1351 14       		.uleb128 0x14
 6986 1352 A4130000 		.4byte	.LASF131
 6987 1356 01       		.byte	0x1
 6988 1357 5404     		.2byte	0x454
 6989 1359 30060000 		.4byte	0x630
 6990 135d 02       		.uleb128 0x2
 6991 135e 91       		.byte	0x91
 6992 135f 74       		.sleb128 -12
 6993 1360 14       		.uleb128 0x14
 6994 1361 64070000 		.4byte	.LASF136
 6995 1365 01       		.byte	0x1
 6996 1366 5404     		.2byte	0x454
 6997 1368 70130000 		.4byte	0x1370
 6998 136c 02       		.uleb128 0x2
 6999 136d 91       		.byte	0x91
ARM GAS  /tmp/ccNUhamC.s 			page 125


 7000 136e 70       		.sleb128 -16
 7001 136f 00       		.byte	0
 7002 1370 11       		.uleb128 0x11
 7003 1371 04       		.byte	0x4
 7004 1372 24030000 		.4byte	0x324
 7005 1376 13       		.uleb128 0x13
 7006 1377 88140000 		.4byte	.LASF193
 7007 137b 01       		.byte	0x1
 7008 137c 6504     		.2byte	0x465
 7009 137e F2000000 		.4byte	0xf2
 7010 1382 50110000 		.4byte	.LFB51
 7011 1386 68000000 		.4byte	.LFE51-.LFB51
 7012 138a 01       		.uleb128 0x1
 7013 138b 9C       		.byte	0x9c
 7014 138c BE130000 		.4byte	0x13be
 7015 1390 14       		.uleb128 0x14
 7016 1391 A4130000 		.4byte	.LASF131
 7017 1395 01       		.byte	0x1
 7018 1396 6504     		.2byte	0x465
 7019 1398 30060000 		.4byte	0x630
 7020 139c 02       		.uleb128 0x2
 7021 139d 91       		.byte	0x91
 7022 139e 6C       		.sleb128 -20
 7023 139f 14       		.uleb128 0x14
 7024 13a0 AE0D0000 		.4byte	.LASF138
 7025 13a4 01       		.byte	0x1
 7026 13a5 6504     		.2byte	0x465
 7027 13a7 46030000 		.4byte	0x346
 7028 13ab 02       		.uleb128 0x2
 7029 13ac 91       		.byte	0x91
 7030 13ad 6B       		.sleb128 -21
 7031 13ae 15       		.uleb128 0x15
 7032 13af 64070000 		.4byte	.LASF136
 7033 13b3 01       		.byte	0x1
 7034 13b4 6704     		.2byte	0x467
 7035 13b6 6B000000 		.4byte	0x6b
 7036 13ba 02       		.uleb128 0x2
 7037 13bb 91       		.byte	0x91
 7038 13bc 77       		.sleb128 -9
 7039 13bd 00       		.byte	0
 7040 13be 13       		.uleb128 0x13
 7041 13bf 0E110000 		.4byte	.LASF194
 7042 13c3 01       		.byte	0x1
 7043 13c4 7C04     		.2byte	0x47c
 7044 13c6 F2000000 		.4byte	0xf2
 7045 13ca C0110000 		.4byte	.LFB52
 7046 13ce 36000000 		.4byte	.LFE52-.LFB52
 7047 13d2 01       		.uleb128 0x1
 7048 13d3 9C       		.byte	0x9c
 7049 13d4 F7130000 		.4byte	0x13f7
 7050 13d8 14       		.uleb128 0x14
 7051 13d9 A4130000 		.4byte	.LASF131
 7052 13dd 01       		.byte	0x1
 7053 13de 7C04     		.2byte	0x47c
 7054 13e0 30060000 		.4byte	0x630
 7055 13e4 02       		.uleb128 0x2
 7056 13e5 91       		.byte	0x91
ARM GAS  /tmp/ccNUhamC.s 			page 126


 7057 13e6 74       		.sleb128 -12
 7058 13e7 14       		.uleb128 0x14
 7059 13e8 64070000 		.4byte	.LASF136
 7060 13ec 01       		.byte	0x1
 7061 13ed 7C04     		.2byte	0x47c
 7062 13ef F7130000 		.4byte	0x13f7
 7063 13f3 02       		.uleb128 0x2
 7064 13f4 91       		.byte	0x91
 7065 13f5 70       		.sleb128 -16
 7066 13f6 00       		.byte	0
 7067 13f7 11       		.uleb128 0x11
 7068 13f8 04       		.byte	0x4
 7069 13f9 46030000 		.4byte	0x346
 7070 13fd 13       		.uleb128 0x13
 7071 13fe FA0C0000 		.4byte	.LASF195
 7072 1402 01       		.byte	0x1
 7073 1403 8D04     		.2byte	0x48d
 7074 1405 F2000000 		.4byte	0xf2
 7075 1409 00120000 		.4byte	.LFB53
 7076 140d 68000000 		.4byte	.LFE53-.LFB53
 7077 1411 01       		.uleb128 0x1
 7078 1412 9C       		.byte	0x9c
 7079 1413 45140000 		.4byte	0x1445
 7080 1417 14       		.uleb128 0x14
 7081 1418 A4130000 		.4byte	.LASF131
 7082 141c 01       		.byte	0x1
 7083 141d 8D04     		.2byte	0x48d
 7084 141f 30060000 		.4byte	0x630
 7085 1423 02       		.uleb128 0x2
 7086 1424 91       		.byte	0x91
 7087 1425 6C       		.sleb128 -20
 7088 1426 14       		.uleb128 0x14
 7089 1427 AE0D0000 		.4byte	.LASF138
 7090 142b 01       		.byte	0x1
 7091 142c 8D04     		.2byte	0x48d
 7092 142e 68030000 		.4byte	0x368
 7093 1432 02       		.uleb128 0x2
 7094 1433 91       		.byte	0x91
 7095 1434 6B       		.sleb128 -21
 7096 1435 15       		.uleb128 0x15
 7097 1436 64070000 		.4byte	.LASF136
 7098 143a 01       		.byte	0x1
 7099 143b 8F04     		.2byte	0x48f
 7100 143d 6B000000 		.4byte	0x6b
 7101 1441 02       		.uleb128 0x2
 7102 1442 91       		.byte	0x91
 7103 1443 77       		.sleb128 -9
 7104 1444 00       		.byte	0
 7105 1445 13       		.uleb128 0x13
 7106 1446 E0070000 		.4byte	.LASF196
 7107 144a 01       		.byte	0x1
 7108 144b A404     		.2byte	0x4a4
 7109 144d F2000000 		.4byte	0xf2
 7110 1451 70120000 		.4byte	.LFB54
 7111 1455 36000000 		.4byte	.LFE54-.LFB54
 7112 1459 01       		.uleb128 0x1
 7113 145a 9C       		.byte	0x9c
ARM GAS  /tmp/ccNUhamC.s 			page 127


 7114 145b 7E140000 		.4byte	0x147e
 7115 145f 14       		.uleb128 0x14
 7116 1460 A4130000 		.4byte	.LASF131
 7117 1464 01       		.byte	0x1
 7118 1465 A404     		.2byte	0x4a4
 7119 1467 30060000 		.4byte	0x630
 7120 146b 02       		.uleb128 0x2
 7121 146c 91       		.byte	0x91
 7122 146d 74       		.sleb128 -12
 7123 146e 14       		.uleb128 0x14
 7124 146f 64070000 		.4byte	.LASF136
 7125 1473 01       		.byte	0x1
 7126 1474 A404     		.2byte	0x4a4
 7127 1476 7E140000 		.4byte	0x147e
 7128 147a 02       		.uleb128 0x2
 7129 147b 91       		.byte	0x91
 7130 147c 70       		.sleb128 -16
 7131 147d 00       		.byte	0
 7132 147e 11       		.uleb128 0x11
 7133 147f 04       		.byte	0x4
 7134 1480 68030000 		.4byte	0x368
 7135 1484 13       		.uleb128 0x13
 7136 1485 E5120000 		.4byte	.LASF197
 7137 1489 01       		.byte	0x1
 7138 148a B504     		.2byte	0x4b5
 7139 148c F2000000 		.4byte	0xf2
 7140 1490 B0120000 		.4byte	.LFB55
 7141 1494 68000000 		.4byte	.LFE55-.LFB55
 7142 1498 01       		.uleb128 0x1
 7143 1499 9C       		.byte	0x9c
 7144 149a CC140000 		.4byte	0x14cc
 7145 149e 14       		.uleb128 0x14
 7146 149f A4130000 		.4byte	.LASF131
 7147 14a3 01       		.byte	0x1
 7148 14a4 B504     		.2byte	0x4b5
 7149 14a6 30060000 		.4byte	0x630
 7150 14aa 02       		.uleb128 0x2
 7151 14ab 91       		.byte	0x91
 7152 14ac 6C       		.sleb128 -20
 7153 14ad 14       		.uleb128 0x14
 7154 14ae AE0D0000 		.4byte	.LASF138
 7155 14b2 01       		.byte	0x1
 7156 14b3 B504     		.2byte	0x4b5
 7157 14b5 8B030000 		.4byte	0x38b
 7158 14b9 02       		.uleb128 0x2
 7159 14ba 91       		.byte	0x91
 7160 14bb 6B       		.sleb128 -21
 7161 14bc 15       		.uleb128 0x15
 7162 14bd 64070000 		.4byte	.LASF136
 7163 14c1 01       		.byte	0x1
 7164 14c2 B704     		.2byte	0x4b7
 7165 14c4 6B000000 		.4byte	0x6b
 7166 14c8 02       		.uleb128 0x2
 7167 14c9 91       		.byte	0x91
 7168 14ca 77       		.sleb128 -9
 7169 14cb 00       		.byte	0
 7170 14cc 13       		.uleb128 0x13
ARM GAS  /tmp/ccNUhamC.s 			page 128


 7171 14cd 6C050000 		.4byte	.LASF198
 7172 14d1 01       		.byte	0x1
 7173 14d2 CC04     		.2byte	0x4cc
 7174 14d4 F2000000 		.4byte	0xf2
 7175 14d8 20130000 		.4byte	.LFB56
 7176 14dc 36000000 		.4byte	.LFE56-.LFB56
 7177 14e0 01       		.uleb128 0x1
 7178 14e1 9C       		.byte	0x9c
 7179 14e2 05150000 		.4byte	0x1505
 7180 14e6 14       		.uleb128 0x14
 7181 14e7 A4130000 		.4byte	.LASF131
 7182 14eb 01       		.byte	0x1
 7183 14ec CC04     		.2byte	0x4cc
 7184 14ee 30060000 		.4byte	0x630
 7185 14f2 02       		.uleb128 0x2
 7186 14f3 91       		.byte	0x91
 7187 14f4 74       		.sleb128 -12
 7188 14f5 14       		.uleb128 0x14
 7189 14f6 64070000 		.4byte	.LASF136
 7190 14fa 01       		.byte	0x1
 7191 14fb CC04     		.2byte	0x4cc
 7192 14fd 05150000 		.4byte	0x1505
 7193 1501 02       		.uleb128 0x2
 7194 1502 91       		.byte	0x91
 7195 1503 70       		.sleb128 -16
 7196 1504 00       		.byte	0
 7197 1505 11       		.uleb128 0x11
 7198 1506 04       		.byte	0x4
 7199 1507 8B030000 		.4byte	0x38b
 7200 150b 13       		.uleb128 0x13
 7201 150c FA080000 		.4byte	.LASF199
 7202 1510 01       		.byte	0x1
 7203 1511 DD04     		.2byte	0x4dd
 7204 1513 F2000000 		.4byte	0xf2
 7205 1517 60130000 		.4byte	.LFB57
 7206 151b 68000000 		.4byte	.LFE57-.LFB57
 7207 151f 01       		.uleb128 0x1
 7208 1520 9C       		.byte	0x9c
 7209 1521 53150000 		.4byte	0x1553
 7210 1525 14       		.uleb128 0x14
 7211 1526 A4130000 		.4byte	.LASF131
 7212 152a 01       		.byte	0x1
 7213 152b DD04     		.2byte	0x4dd
 7214 152d 30060000 		.4byte	0x630
 7215 1531 02       		.uleb128 0x2
 7216 1532 91       		.byte	0x91
 7217 1533 6C       		.sleb128 -20
 7218 1534 14       		.uleb128 0x14
 7219 1535 AE0D0000 		.4byte	.LASF138
 7220 1539 01       		.byte	0x1
 7221 153a DD04     		.2byte	0x4dd
 7222 153c AE030000 		.4byte	0x3ae
 7223 1540 02       		.uleb128 0x2
 7224 1541 91       		.byte	0x91
 7225 1542 6B       		.sleb128 -21
 7226 1543 15       		.uleb128 0x15
 7227 1544 64070000 		.4byte	.LASF136
ARM GAS  /tmp/ccNUhamC.s 			page 129


 7228 1548 01       		.byte	0x1
 7229 1549 DF04     		.2byte	0x4df
 7230 154b 6B000000 		.4byte	0x6b
 7231 154f 02       		.uleb128 0x2
 7232 1550 91       		.byte	0x91
 7233 1551 77       		.sleb128 -9
 7234 1552 00       		.byte	0
 7235 1553 13       		.uleb128 0x13
 7236 1554 25030000 		.4byte	.LASF200
 7237 1558 01       		.byte	0x1
 7238 1559 F404     		.2byte	0x4f4
 7239 155b F2000000 		.4byte	0xf2
 7240 155f D0130000 		.4byte	.LFB58
 7241 1563 36000000 		.4byte	.LFE58-.LFB58
 7242 1567 01       		.uleb128 0x1
 7243 1568 9C       		.byte	0x9c
 7244 1569 8C150000 		.4byte	0x158c
 7245 156d 14       		.uleb128 0x14
 7246 156e A4130000 		.4byte	.LASF131
 7247 1572 01       		.byte	0x1
 7248 1573 F404     		.2byte	0x4f4
 7249 1575 30060000 		.4byte	0x630
 7250 1579 02       		.uleb128 0x2
 7251 157a 91       		.byte	0x91
 7252 157b 74       		.sleb128 -12
 7253 157c 14       		.uleb128 0x14
 7254 157d 64070000 		.4byte	.LASF136
 7255 1581 01       		.byte	0x1
 7256 1582 F404     		.2byte	0x4f4
 7257 1584 8C150000 		.4byte	0x158c
 7258 1588 02       		.uleb128 0x2
 7259 1589 91       		.byte	0x91
 7260 158a 70       		.sleb128 -16
 7261 158b 00       		.byte	0
 7262 158c 11       		.uleb128 0x11
 7263 158d 04       		.byte	0x4
 7264 158e AE030000 		.4byte	0x3ae
 7265 1592 13       		.uleb128 0x13
 7266 1593 FE010000 		.4byte	.LASF201
 7267 1597 01       		.byte	0x1
 7268 1598 0505     		.2byte	0x505
 7269 159a F2000000 		.4byte	0xf2
 7270 159e 10140000 		.4byte	.LFB59
 7271 15a2 36000000 		.4byte	.LFE59-.LFB59
 7272 15a6 01       		.uleb128 0x1
 7273 15a7 9C       		.byte	0x9c
 7274 15a8 CB150000 		.4byte	0x15cb
 7275 15ac 14       		.uleb128 0x14
 7276 15ad A4130000 		.4byte	.LASF131
 7277 15b1 01       		.byte	0x1
 7278 15b2 0505     		.2byte	0x505
 7279 15b4 30060000 		.4byte	0x630
 7280 15b8 02       		.uleb128 0x2
 7281 15b9 91       		.byte	0x91
 7282 15ba 74       		.sleb128 -12
 7283 15bb 14       		.uleb128 0x14
 7284 15bc 64070000 		.4byte	.LASF136
ARM GAS  /tmp/ccNUhamC.s 			page 130


 7285 15c0 01       		.byte	0x1
 7286 15c1 0505     		.2byte	0x505
 7287 15c3 CB150000 		.4byte	0x15cb
 7288 15c7 02       		.uleb128 0x2
 7289 15c8 91       		.byte	0x91
 7290 15c9 70       		.sleb128 -16
 7291 15ca 00       		.byte	0
 7292 15cb 11       		.uleb128 0x11
 7293 15cc 04       		.byte	0x4
 7294 15cd D0030000 		.4byte	0x3d0
 7295 15d1 13       		.uleb128 0x13
 7296 15d2 120F0000 		.4byte	.LASF202
 7297 15d6 01       		.byte	0x1
 7298 15d7 1605     		.2byte	0x516
 7299 15d9 F2000000 		.4byte	0xf2
 7300 15dd 50140000 		.4byte	.LFB60
 7301 15e1 36000000 		.4byte	.LFE60-.LFB60
 7302 15e5 01       		.uleb128 0x1
 7303 15e6 9C       		.byte	0x9c
 7304 15e7 0A160000 		.4byte	0x160a
 7305 15eb 14       		.uleb128 0x14
 7306 15ec A4130000 		.4byte	.LASF131
 7307 15f0 01       		.byte	0x1
 7308 15f1 1605     		.2byte	0x516
 7309 15f3 30060000 		.4byte	0x630
 7310 15f7 02       		.uleb128 0x2
 7311 15f8 91       		.byte	0x91
 7312 15f9 74       		.sleb128 -12
 7313 15fa 14       		.uleb128 0x14
 7314 15fb 64070000 		.4byte	.LASF136
 7315 15ff 01       		.byte	0x1
 7316 1600 1605     		.2byte	0x516
 7317 1602 0A160000 		.4byte	0x160a
 7318 1606 02       		.uleb128 0x2
 7319 1607 91       		.byte	0x91
 7320 1608 70       		.sleb128 -16
 7321 1609 00       		.byte	0
 7322 160a 11       		.uleb128 0x11
 7323 160b 04       		.byte	0x4
 7324 160c F2030000 		.4byte	0x3f2
 7325 1610 13       		.uleb128 0x13
 7326 1611 72110000 		.4byte	.LASF203
 7327 1615 01       		.byte	0x1
 7328 1616 2705     		.2byte	0x527
 7329 1618 F2000000 		.4byte	0xf2
 7330 161c 90140000 		.4byte	.LFB61
 7331 1620 36000000 		.4byte	.LFE61-.LFB61
 7332 1624 01       		.uleb128 0x1
 7333 1625 9C       		.byte	0x9c
 7334 1626 49160000 		.4byte	0x1649
 7335 162a 14       		.uleb128 0x14
 7336 162b A4130000 		.4byte	.LASF131
 7337 162f 01       		.byte	0x1
 7338 1630 2705     		.2byte	0x527
 7339 1632 30060000 		.4byte	0x630
 7340 1636 02       		.uleb128 0x2
 7341 1637 91       		.byte	0x91
ARM GAS  /tmp/ccNUhamC.s 			page 131


 7342 1638 74       		.sleb128 -12
 7343 1639 14       		.uleb128 0x14
 7344 163a 64070000 		.4byte	.LASF136
 7345 163e 01       		.byte	0x1
 7346 163f 2705     		.2byte	0x527
 7347 1641 49160000 		.4byte	0x1649
 7348 1645 02       		.uleb128 0x2
 7349 1646 91       		.byte	0x91
 7350 1647 70       		.sleb128 -16
 7351 1648 00       		.byte	0
 7352 1649 11       		.uleb128 0x11
 7353 164a 04       		.byte	0x4
 7354 164b 14040000 		.4byte	0x414
 7355 164f 13       		.uleb128 0x13
 7356 1650 FA120000 		.4byte	.LASF204
 7357 1654 01       		.byte	0x1
 7358 1655 3805     		.2byte	0x538
 7359 1657 F2000000 		.4byte	0xf2
 7360 165b D0140000 		.4byte	.LFB62
 7361 165f 36000000 		.4byte	.LFE62-.LFB62
 7362 1663 01       		.uleb128 0x1
 7363 1664 9C       		.byte	0x9c
 7364 1665 88160000 		.4byte	0x1688
 7365 1669 14       		.uleb128 0x14
 7366 166a A4130000 		.4byte	.LASF131
 7367 166e 01       		.byte	0x1
 7368 166f 3805     		.2byte	0x538
 7369 1671 30060000 		.4byte	0x630
 7370 1675 02       		.uleb128 0x2
 7371 1676 91       		.byte	0x91
 7372 1677 74       		.sleb128 -12
 7373 1678 14       		.uleb128 0x14
 7374 1679 64070000 		.4byte	.LASF136
 7375 167d 01       		.byte	0x1
 7376 167e 3805     		.2byte	0x538
 7377 1680 88160000 		.4byte	0x1688
 7378 1684 02       		.uleb128 0x2
 7379 1685 91       		.byte	0x91
 7380 1686 70       		.sleb128 -16
 7381 1687 00       		.byte	0
 7382 1688 11       		.uleb128 0x11
 7383 1689 04       		.byte	0x4
 7384 168a 36040000 		.4byte	0x436
 7385 168e 13       		.uleb128 0x13
 7386 168f 9C140000 		.4byte	.LASF205
 7387 1693 01       		.byte	0x1
 7388 1694 4905     		.2byte	0x549
 7389 1696 F2000000 		.4byte	0xf2
 7390 169a 10150000 		.4byte	.LFB63
 7391 169e 36000000 		.4byte	.LFE63-.LFB63
 7392 16a2 01       		.uleb128 0x1
 7393 16a3 9C       		.byte	0x9c
 7394 16a4 C7160000 		.4byte	0x16c7
 7395 16a8 14       		.uleb128 0x14
 7396 16a9 A4130000 		.4byte	.LASF131
 7397 16ad 01       		.byte	0x1
 7398 16ae 4905     		.2byte	0x549
ARM GAS  /tmp/ccNUhamC.s 			page 132


 7399 16b0 30060000 		.4byte	0x630
 7400 16b4 02       		.uleb128 0x2
 7401 16b5 91       		.byte	0x91
 7402 16b6 74       		.sleb128 -12
 7403 16b7 14       		.uleb128 0x14
 7404 16b8 64070000 		.4byte	.LASF136
 7405 16bc 01       		.byte	0x1
 7406 16bd 4905     		.2byte	0x549
 7407 16bf C7160000 		.4byte	0x16c7
 7408 16c3 02       		.uleb128 0x2
 7409 16c4 91       		.byte	0x91
 7410 16c5 70       		.sleb128 -16
 7411 16c6 00       		.byte	0
 7412 16c7 11       		.uleb128 0x11
 7413 16c8 04       		.byte	0x4
 7414 16c9 58040000 		.4byte	0x458
 7415 16cd 13       		.uleb128 0x13
 7416 16ce 79100000 		.4byte	.LASF206
 7417 16d2 01       		.byte	0x1
 7418 16d3 5A05     		.2byte	0x55a
 7419 16d5 F2000000 		.4byte	0xf2
 7420 16d9 50150000 		.4byte	.LFB64
 7421 16dd 36000000 		.4byte	.LFE64-.LFB64
 7422 16e1 01       		.uleb128 0x1
 7423 16e2 9C       		.byte	0x9c
 7424 16e3 06170000 		.4byte	0x1706
 7425 16e7 14       		.uleb128 0x14
 7426 16e8 A4130000 		.4byte	.LASF131
 7427 16ec 01       		.byte	0x1
 7428 16ed 5A05     		.2byte	0x55a
 7429 16ef 30060000 		.4byte	0x630
 7430 16f3 02       		.uleb128 0x2
 7431 16f4 91       		.byte	0x91
 7432 16f5 74       		.sleb128 -12
 7433 16f6 14       		.uleb128 0x14
 7434 16f7 64070000 		.4byte	.LASF136
 7435 16fb 01       		.byte	0x1
 7436 16fc 5A05     		.2byte	0x55a
 7437 16fe 06170000 		.4byte	0x1706
 7438 1702 02       		.uleb128 0x2
 7439 1703 91       		.byte	0x91
 7440 1704 70       		.sleb128 -16
 7441 1705 00       		.byte	0
 7442 1706 11       		.uleb128 0x11
 7443 1707 04       		.byte	0x4
 7444 1708 7A040000 		.4byte	0x47a
 7445 170c 13       		.uleb128 0x13
 7446 170d 38130000 		.4byte	.LASF207
 7447 1711 01       		.byte	0x1
 7448 1712 6B05     		.2byte	0x56b
 7449 1714 F2000000 		.4byte	0xf2
 7450 1718 90150000 		.4byte	.LFB65
 7451 171c 36000000 		.4byte	.LFE65-.LFB65
 7452 1720 01       		.uleb128 0x1
 7453 1721 9C       		.byte	0x9c
 7454 1722 45170000 		.4byte	0x1745
 7455 1726 14       		.uleb128 0x14
ARM GAS  /tmp/ccNUhamC.s 			page 133


 7456 1727 A4130000 		.4byte	.LASF131
 7457 172b 01       		.byte	0x1
 7458 172c 6B05     		.2byte	0x56b
 7459 172e 30060000 		.4byte	0x630
 7460 1732 02       		.uleb128 0x2
 7461 1733 91       		.byte	0x91
 7462 1734 74       		.sleb128 -12
 7463 1735 14       		.uleb128 0x14
 7464 1736 64070000 		.4byte	.LASF136
 7465 173a 01       		.byte	0x1
 7466 173b 6B05     		.2byte	0x56b
 7467 173d 45170000 		.4byte	0x1745
 7468 1741 02       		.uleb128 0x2
 7469 1742 91       		.byte	0x91
 7470 1743 70       		.sleb128 -16
 7471 1744 00       		.byte	0
 7472 1745 11       		.uleb128 0x11
 7473 1746 04       		.byte	0x4
 7474 1747 9D040000 		.4byte	0x49d
 7475 174b 13       		.uleb128 0x13
 7476 174c 250E0000 		.4byte	.LASF208
 7477 1750 01       		.byte	0x1
 7478 1751 7C05     		.2byte	0x57c
 7479 1753 F2000000 		.4byte	0xf2
 7480 1757 D0150000 		.4byte	.LFB66
 7481 175b 36000000 		.4byte	.LFE66-.LFB66
 7482 175f 01       		.uleb128 0x1
 7483 1760 9C       		.byte	0x9c
 7484 1761 84170000 		.4byte	0x1784
 7485 1765 14       		.uleb128 0x14
 7486 1766 A4130000 		.4byte	.LASF131
 7487 176a 01       		.byte	0x1
 7488 176b 7C05     		.2byte	0x57c
 7489 176d 30060000 		.4byte	0x630
 7490 1771 02       		.uleb128 0x2
 7491 1772 91       		.byte	0x91
 7492 1773 74       		.sleb128 -12
 7493 1774 14       		.uleb128 0x14
 7494 1775 64070000 		.4byte	.LASF136
 7495 1779 01       		.byte	0x1
 7496 177a 7C05     		.2byte	0x57c
 7497 177c 84170000 		.4byte	0x1784
 7498 1780 02       		.uleb128 0x2
 7499 1781 91       		.byte	0x91
 7500 1782 70       		.sleb128 -16
 7501 1783 00       		.byte	0
 7502 1784 11       		.uleb128 0x11
 7503 1785 04       		.byte	0x4
 7504 1786 C0040000 		.4byte	0x4c0
 7505 178a 13       		.uleb128 0x13
 7506 178b 1B0C0000 		.4byte	.LASF209
 7507 178f 01       		.byte	0x1
 7508 1790 8D05     		.2byte	0x58d
 7509 1792 F2000000 		.4byte	0xf2
 7510 1796 10160000 		.4byte	.LFB67
 7511 179a 36000000 		.4byte	.LFE67-.LFB67
 7512 179e 01       		.uleb128 0x1
ARM GAS  /tmp/ccNUhamC.s 			page 134


 7513 179f 9C       		.byte	0x9c
 7514 17a0 C3170000 		.4byte	0x17c3
 7515 17a4 14       		.uleb128 0x14
 7516 17a5 A4130000 		.4byte	.LASF131
 7517 17a9 01       		.byte	0x1
 7518 17aa 8D05     		.2byte	0x58d
 7519 17ac 30060000 		.4byte	0x630
 7520 17b0 02       		.uleb128 0x2
 7521 17b1 91       		.byte	0x91
 7522 17b2 74       		.sleb128 -12
 7523 17b3 14       		.uleb128 0x14
 7524 17b4 64070000 		.4byte	.LASF136
 7525 17b8 01       		.byte	0x1
 7526 17b9 8D05     		.2byte	0x58d
 7527 17bb C3170000 		.4byte	0x17c3
 7528 17bf 02       		.uleb128 0x2
 7529 17c0 91       		.byte	0x91
 7530 17c1 70       		.sleb128 -16
 7531 17c2 00       		.byte	0
 7532 17c3 11       		.uleb128 0x11
 7533 17c4 04       		.byte	0x4
 7534 17c5 E2040000 		.4byte	0x4e2
 7535 17c9 13       		.uleb128 0x13
 7536 17ca 92100000 		.4byte	.LASF210
 7537 17ce 01       		.byte	0x1
 7538 17cf 9E05     		.2byte	0x59e
 7539 17d1 F2000000 		.4byte	0xf2
 7540 17d5 50160000 		.4byte	.LFB68
 7541 17d9 36000000 		.4byte	.LFE68-.LFB68
 7542 17dd 01       		.uleb128 0x1
 7543 17de 9C       		.byte	0x9c
 7544 17df 02180000 		.4byte	0x1802
 7545 17e3 14       		.uleb128 0x14
 7546 17e4 A4130000 		.4byte	.LASF131
 7547 17e8 01       		.byte	0x1
 7548 17e9 9E05     		.2byte	0x59e
 7549 17eb 30060000 		.4byte	0x630
 7550 17ef 02       		.uleb128 0x2
 7551 17f0 91       		.byte	0x91
 7552 17f1 74       		.sleb128 -12
 7553 17f2 14       		.uleb128 0x14
 7554 17f3 64070000 		.4byte	.LASF136
 7555 17f7 01       		.byte	0x1
 7556 17f8 9E05     		.2byte	0x59e
 7557 17fa 02180000 		.4byte	0x1802
 7558 17fe 02       		.uleb128 0x2
 7559 17ff 91       		.byte	0x91
 7560 1800 70       		.sleb128 -16
 7561 1801 00       		.byte	0
 7562 1802 11       		.uleb128 0x11
 7563 1803 04       		.byte	0x4
 7564 1804 04050000 		.4byte	0x504
 7565 1808 13       		.uleb128 0x13
 7566 1809 4E030000 		.4byte	.LASF211
 7567 180d 01       		.byte	0x1
 7568 180e AF05     		.2byte	0x5af
 7569 1810 F2000000 		.4byte	0xf2
ARM GAS  /tmp/ccNUhamC.s 			page 135


 7570 1814 90160000 		.4byte	.LFB69
 7571 1818 36000000 		.4byte	.LFE69-.LFB69
 7572 181c 01       		.uleb128 0x1
 7573 181d 9C       		.byte	0x9c
 7574 181e 41180000 		.4byte	0x1841
 7575 1822 14       		.uleb128 0x14
 7576 1823 A4130000 		.4byte	.LASF131
 7577 1827 01       		.byte	0x1
 7578 1828 AF05     		.2byte	0x5af
 7579 182a 30060000 		.4byte	0x630
 7580 182e 02       		.uleb128 0x2
 7581 182f 91       		.byte	0x91
 7582 1830 74       		.sleb128 -12
 7583 1831 14       		.uleb128 0x14
 7584 1832 64070000 		.4byte	.LASF136
 7585 1836 01       		.byte	0x1
 7586 1837 AF05     		.2byte	0x5af
 7587 1839 41180000 		.4byte	0x1841
 7588 183d 02       		.uleb128 0x2
 7589 183e 91       		.byte	0x91
 7590 183f 70       		.sleb128 -16
 7591 1840 00       		.byte	0
 7592 1841 11       		.uleb128 0x11
 7593 1842 04       		.byte	0x4
 7594 1843 26050000 		.4byte	0x526
 7595 1847 13       		.uleb128 0x13
 7596 1848 96030000 		.4byte	.LASF212
 7597 184c 01       		.byte	0x1
 7598 184d C005     		.2byte	0x5c0
 7599 184f F2000000 		.4byte	0xf2
 7600 1853 D0160000 		.4byte	.LFB70
 7601 1857 36000000 		.4byte	.LFE70-.LFB70
 7602 185b 01       		.uleb128 0x1
 7603 185c 9C       		.byte	0x9c
 7604 185d 80180000 		.4byte	0x1880
 7605 1861 14       		.uleb128 0x14
 7606 1862 A4130000 		.4byte	.LASF131
 7607 1866 01       		.byte	0x1
 7608 1867 C005     		.2byte	0x5c0
 7609 1869 30060000 		.4byte	0x630
 7610 186d 02       		.uleb128 0x2
 7611 186e 91       		.byte	0x91
 7612 186f 74       		.sleb128 -12
 7613 1870 14       		.uleb128 0x14
 7614 1871 64070000 		.4byte	.LASF136
 7615 1875 01       		.byte	0x1
 7616 1876 C005     		.2byte	0x5c0
 7617 1878 80180000 		.4byte	0x1880
 7618 187c 02       		.uleb128 0x2
 7619 187d 91       		.byte	0x91
 7620 187e 70       		.sleb128 -16
 7621 187f 00       		.byte	0
 7622 1880 11       		.uleb128 0x11
 7623 1881 04       		.byte	0x4
 7624 1882 48050000 		.4byte	0x548
 7625 1886 13       		.uleb128 0x13
 7626 1887 800A0000 		.4byte	.LASF213
ARM GAS  /tmp/ccNUhamC.s 			page 136


 7627 188b 01       		.byte	0x1
 7628 188c D105     		.2byte	0x5d1
 7629 188e F2000000 		.4byte	0xf2
 7630 1892 10170000 		.4byte	.LFB71
 7631 1896 36000000 		.4byte	.LFE71-.LFB71
 7632 189a 01       		.uleb128 0x1
 7633 189b 9C       		.byte	0x9c
 7634 189c BF180000 		.4byte	0x18bf
 7635 18a0 14       		.uleb128 0x14
 7636 18a1 A4130000 		.4byte	.LASF131
 7637 18a5 01       		.byte	0x1
 7638 18a6 D105     		.2byte	0x5d1
 7639 18a8 30060000 		.4byte	0x630
 7640 18ac 02       		.uleb128 0x2
 7641 18ad 91       		.byte	0x91
 7642 18ae 74       		.sleb128 -12
 7643 18af 14       		.uleb128 0x14
 7644 18b0 64070000 		.4byte	.LASF136
 7645 18b4 01       		.byte	0x1
 7646 18b5 D105     		.2byte	0x5d1
 7647 18b7 BF180000 		.4byte	0x18bf
 7648 18bb 02       		.uleb128 0x2
 7649 18bc 91       		.byte	0x91
 7650 18bd 70       		.sleb128 -16
 7651 18be 00       		.byte	0
 7652 18bf 11       		.uleb128 0x11
 7653 18c0 04       		.byte	0x4
 7654 18c1 6A050000 		.4byte	0x56a
 7655 18c5 13       		.uleb128 0x13
 7656 18c6 96090000 		.4byte	.LASF214
 7657 18ca 01       		.byte	0x1
 7658 18cb E205     		.2byte	0x5e2
 7659 18cd F2000000 		.4byte	0xf2
 7660 18d1 50170000 		.4byte	.LFB72
 7661 18d5 36000000 		.4byte	.LFE72-.LFB72
 7662 18d9 01       		.uleb128 0x1
 7663 18da 9C       		.byte	0x9c
 7664 18db FE180000 		.4byte	0x18fe
 7665 18df 14       		.uleb128 0x14
 7666 18e0 A4130000 		.4byte	.LASF131
 7667 18e4 01       		.byte	0x1
 7668 18e5 E205     		.2byte	0x5e2
 7669 18e7 30060000 		.4byte	0x630
 7670 18eb 02       		.uleb128 0x2
 7671 18ec 91       		.byte	0x91
 7672 18ed 74       		.sleb128 -12
 7673 18ee 14       		.uleb128 0x14
 7674 18ef 64070000 		.4byte	.LASF136
 7675 18f3 01       		.byte	0x1
 7676 18f4 E205     		.2byte	0x5e2
 7677 18f6 FE180000 		.4byte	0x18fe
 7678 18fa 02       		.uleb128 0x2
 7679 18fb 91       		.byte	0x91
 7680 18fc 70       		.sleb128 -16
 7681 18fd 00       		.byte	0
 7682 18fe 11       		.uleb128 0x11
 7683 18ff 04       		.byte	0x4
ARM GAS  /tmp/ccNUhamC.s 			page 137


 7684 1900 8C050000 		.4byte	0x58c
 7685 1904 13       		.uleb128 0x13
 7686 1905 CF020000 		.4byte	.LASF215
 7687 1909 01       		.byte	0x1
 7688 190a F305     		.2byte	0x5f3
 7689 190c F2000000 		.4byte	0xf2
 7690 1910 90170000 		.4byte	.LFB73
 7691 1914 36000000 		.4byte	.LFE73-.LFB73
 7692 1918 01       		.uleb128 0x1
 7693 1919 9C       		.byte	0x9c
 7694 191a 3D190000 		.4byte	0x193d
 7695 191e 14       		.uleb128 0x14
 7696 191f A4130000 		.4byte	.LASF131
 7697 1923 01       		.byte	0x1
 7698 1924 F305     		.2byte	0x5f3
 7699 1926 30060000 		.4byte	0x630
 7700 192a 02       		.uleb128 0x2
 7701 192b 91       		.byte	0x91
 7702 192c 74       		.sleb128 -12
 7703 192d 14       		.uleb128 0x14
 7704 192e 64070000 		.4byte	.LASF136
 7705 1932 01       		.byte	0x1
 7706 1933 F305     		.2byte	0x5f3
 7707 1935 3D190000 		.4byte	0x193d
 7708 1939 02       		.uleb128 0x2
 7709 193a 91       		.byte	0x91
 7710 193b 70       		.sleb128 -16
 7711 193c 00       		.byte	0
 7712 193d 11       		.uleb128 0x11
 7713 193e 04       		.byte	0x4
 7714 193f AF050000 		.4byte	0x5af
 7715 1943 13       		.uleb128 0x13
 7716 1944 8D0C0000 		.4byte	.LASF216
 7717 1948 01       		.byte	0x1
 7718 1949 0406     		.2byte	0x604
 7719 194b F2000000 		.4byte	0xf2
 7720 194f D0170000 		.4byte	.LFB74
 7721 1953 36000000 		.4byte	.LFE74-.LFB74
 7722 1957 01       		.uleb128 0x1
 7723 1958 9C       		.byte	0x9c
 7724 1959 7C190000 		.4byte	0x197c
 7725 195d 14       		.uleb128 0x14
 7726 195e A4130000 		.4byte	.LASF131
 7727 1962 01       		.byte	0x1
 7728 1963 0406     		.2byte	0x604
 7729 1965 30060000 		.4byte	0x630
 7730 1969 02       		.uleb128 0x2
 7731 196a 91       		.byte	0x91
 7732 196b 74       		.sleb128 -12
 7733 196c 14       		.uleb128 0x14
 7734 196d 64070000 		.4byte	.LASF136
 7735 1971 01       		.byte	0x1
 7736 1972 0406     		.2byte	0x604
 7737 1974 7C190000 		.4byte	0x197c
 7738 1978 02       		.uleb128 0x2
 7739 1979 91       		.byte	0x91
 7740 197a 70       		.sleb128 -16
ARM GAS  /tmp/ccNUhamC.s 			page 138


 7741 197b 00       		.byte	0
 7742 197c 11       		.uleb128 0x11
 7743 197d 04       		.byte	0x4
 7744 197e D2050000 		.4byte	0x5d2
 7745 1982 13       		.uleb128 0x13
 7746 1983 D7100000 		.4byte	.LASF217
 7747 1987 01       		.byte	0x1
 7748 1988 1606     		.2byte	0x616
 7749 198a F2000000 		.4byte	0xf2
 7750 198e 10180000 		.4byte	.LFB75
 7751 1992 86000000 		.4byte	.LFE75-.LFB75
 7752 1996 01       		.uleb128 0x1
 7753 1997 9C       		.byte	0x9c
 7754 1998 F1190000 		.4byte	0x19f1
 7755 199c 14       		.uleb128 0x14
 7756 199d A4130000 		.4byte	.LASF131
 7757 19a1 01       		.byte	0x1
 7758 19a2 1606     		.2byte	0x616
 7759 19a4 30060000 		.4byte	0x630
 7760 19a8 02       		.uleb128 0x2
 7761 19a9 91       		.byte	0x91
 7762 19aa 6C       		.sleb128 -20
 7763 19ab 14       		.uleb128 0x14
 7764 19ac E90D0000 		.4byte	.LASF143
 7765 19b0 01       		.byte	0x1
 7766 19b1 1606     		.2byte	0x616
 7767 19b3 32060000 		.4byte	0x632
 7768 19b7 02       		.uleb128 0x2
 7769 19b8 91       		.byte	0x91
 7770 19b9 68       		.sleb128 -24
 7771 19ba 16       		.uleb128 0x16
 7772 19bb 6900     		.ascii	"i\000"
 7773 19bd 01       		.byte	0x1
 7774 19be 1806     		.2byte	0x618
 7775 19c0 6B000000 		.4byte	0x6b
 7776 19c4 02       		.uleb128 0x2
 7777 19c5 91       		.byte	0x91
 7778 19c6 77       		.sleb128 -9
 7779 19c7 16       		.uleb128 0x16
 7780 19c8 6A00     		.ascii	"j\000"
 7781 19ca 01       		.byte	0x1
 7782 19cb 1806     		.2byte	0x618
 7783 19cd 6B000000 		.4byte	0x6b
 7784 19d1 02       		.uleb128 0x2
 7785 19d2 91       		.byte	0x91
 7786 19d3 76       		.sleb128 -10
 7787 19d4 16       		.uleb128 0x16
 7788 19d5 6B00     		.ascii	"k\000"
 7789 19d7 01       		.byte	0x1
 7790 19d8 1806     		.2byte	0x618
 7791 19da 6B000000 		.4byte	0x6b
 7792 19de 02       		.uleb128 0x2
 7793 19df 91       		.byte	0x91
 7794 19e0 75       		.sleb128 -11
 7795 19e1 15       		.uleb128 0x15
 7796 19e2 720E0000 		.4byte	.LASF218
 7797 19e6 01       		.byte	0x1
ARM GAS  /tmp/ccNUhamC.s 			page 139


 7798 19e7 1906     		.2byte	0x619
 7799 19e9 6B000000 		.4byte	0x6b
 7800 19ed 02       		.uleb128 0x2
 7801 19ee 91       		.byte	0x91
 7802 19ef 74       		.sleb128 -12
 7803 19f0 00       		.byte	0
 7804 19f1 17       		.uleb128 0x17
 7805 19f2 46070000 		.4byte	.LASF222
 7806 19f6 01       		.byte	0x1
 7807 19f7 3206     		.2byte	0x632
 7808 19f9 F2000000 		.4byte	0xf2
 7809 19fd A0180000 		.4byte	.LFB76
 7810 1a01 86000000 		.4byte	.LFE76-.LFB76
 7811 1a05 01       		.uleb128 0x1
 7812 1a06 9C       		.byte	0x9c
 7813 1a07 14       		.uleb128 0x14
 7814 1a08 A4130000 		.4byte	.LASF131
 7815 1a0c 01       		.byte	0x1
 7816 1a0d 3206     		.2byte	0x632
 7817 1a0f 30060000 		.4byte	0x630
 7818 1a13 02       		.uleb128 0x2
 7819 1a14 91       		.byte	0x91
 7820 1a15 6C       		.sleb128 -20
 7821 1a16 14       		.uleb128 0x14
 7822 1a17 E90D0000 		.4byte	.LASF143
 7823 1a1b 01       		.byte	0x1
 7824 1a1c 3206     		.2byte	0x632
 7825 1a1e 32060000 		.4byte	0x632
 7826 1a22 02       		.uleb128 0x2
 7827 1a23 91       		.byte	0x91
 7828 1a24 68       		.sleb128 -24
 7829 1a25 16       		.uleb128 0x16
 7830 1a26 6900     		.ascii	"i\000"
 7831 1a28 01       		.byte	0x1
 7832 1a29 3406     		.2byte	0x634
 7833 1a2b 6B000000 		.4byte	0x6b
 7834 1a2f 02       		.uleb128 0x2
 7835 1a30 91       		.byte	0x91
 7836 1a31 77       		.sleb128 -9
 7837 1a32 16       		.uleb128 0x16
 7838 1a33 6A00     		.ascii	"j\000"
 7839 1a35 01       		.byte	0x1
 7840 1a36 3406     		.2byte	0x634
 7841 1a38 6B000000 		.4byte	0x6b
 7842 1a3c 02       		.uleb128 0x2
 7843 1a3d 91       		.byte	0x91
 7844 1a3e 76       		.sleb128 -10
 7845 1a3f 16       		.uleb128 0x16
 7846 1a40 6B00     		.ascii	"k\000"
 7847 1a42 01       		.byte	0x1
 7848 1a43 3406     		.2byte	0x634
 7849 1a45 6B000000 		.4byte	0x6b
 7850 1a49 02       		.uleb128 0x2
 7851 1a4a 91       		.byte	0x91
 7852 1a4b 75       		.sleb128 -11
 7853 1a4c 15       		.uleb128 0x15
 7854 1a4d 720E0000 		.4byte	.LASF218
ARM GAS  /tmp/ccNUhamC.s 			page 140


 7855 1a51 01       		.byte	0x1
 7856 1a52 3506     		.2byte	0x635
 7857 1a54 6B000000 		.4byte	0x6b
 7858 1a58 02       		.uleb128 0x2
 7859 1a59 91       		.byte	0x91
 7860 1a5a 74       		.sleb128 -12
 7861 1a5b 00       		.byte	0
 7862 1a5c 00       		.byte	0
 7863              		.section	.debug_abbrev,"",%progbits
 7864              	.Ldebug_abbrev0:
 7865 0000 01       		.uleb128 0x1
 7866 0001 11       		.uleb128 0x11
 7867 0002 01       		.byte	0x1
 7868 0003 25       		.uleb128 0x25
 7869 0004 0E       		.uleb128 0xe
 7870 0005 13       		.uleb128 0x13
 7871 0006 0B       		.uleb128 0xb
 7872 0007 03       		.uleb128 0x3
 7873 0008 0E       		.uleb128 0xe
 7874 0009 1B       		.uleb128 0x1b
 7875 000a 0E       		.uleb128 0xe
 7876 000b 11       		.uleb128 0x11
 7877 000c 01       		.uleb128 0x1
 7878 000d 12       		.uleb128 0x12
 7879 000e 06       		.uleb128 0x6
 7880 000f 10       		.uleb128 0x10
 7881 0010 17       		.uleb128 0x17
 7882 0011 00       		.byte	0
 7883 0012 00       		.byte	0
 7884 0013 02       		.uleb128 0x2
 7885 0014 24       		.uleb128 0x24
 7886 0015 00       		.byte	0
 7887 0016 0B       		.uleb128 0xb
 7888 0017 0B       		.uleb128 0xb
 7889 0018 3E       		.uleb128 0x3e
 7890 0019 0B       		.uleb128 0xb
 7891 001a 03       		.uleb128 0x3
 7892 001b 0E       		.uleb128 0xe
 7893 001c 00       		.byte	0
 7894 001d 00       		.byte	0
 7895 001e 03       		.uleb128 0x3
 7896 001f 24       		.uleb128 0x24
 7897 0020 00       		.byte	0
 7898 0021 0B       		.uleb128 0xb
 7899 0022 0B       		.uleb128 0xb
 7900 0023 3E       		.uleb128 0x3e
 7901 0024 0B       		.uleb128 0xb
 7902 0025 03       		.uleb128 0x3
 7903 0026 08       		.uleb128 0x8
 7904 0027 00       		.byte	0
 7905 0028 00       		.byte	0
 7906 0029 04       		.uleb128 0x4
 7907 002a 16       		.uleb128 0x16
 7908 002b 00       		.byte	0
 7909 002c 03       		.uleb128 0x3
 7910 002d 0E       		.uleb128 0xe
 7911 002e 3A       		.uleb128 0x3a
ARM GAS  /tmp/ccNUhamC.s 			page 141


 7912 002f 0B       		.uleb128 0xb
 7913 0030 3B       		.uleb128 0x3b
 7914 0031 0B       		.uleb128 0xb
 7915 0032 49       		.uleb128 0x49
 7916 0033 13       		.uleb128 0x13
 7917 0034 00       		.byte	0
 7918 0035 00       		.byte	0
 7919 0036 05       		.uleb128 0x5
 7920 0037 17       		.uleb128 0x17
 7921 0038 01       		.byte	0x1
 7922 0039 0B       		.uleb128 0xb
 7923 003a 0B       		.uleb128 0xb
 7924 003b 3A       		.uleb128 0x3a
 7925 003c 0B       		.uleb128 0xb
 7926 003d 3B       		.uleb128 0x3b
 7927 003e 0B       		.uleb128 0xb
 7928 003f 01       		.uleb128 0x1
 7929 0040 13       		.uleb128 0x13
 7930 0041 00       		.byte	0
 7931 0042 00       		.byte	0
 7932 0043 06       		.uleb128 0x6
 7933 0044 0D       		.uleb128 0xd
 7934 0045 00       		.byte	0
 7935 0046 03       		.uleb128 0x3
 7936 0047 0E       		.uleb128 0xe
 7937 0048 3A       		.uleb128 0x3a
 7938 0049 0B       		.uleb128 0xb
 7939 004a 3B       		.uleb128 0x3b
 7940 004b 0B       		.uleb128 0xb
 7941 004c 49       		.uleb128 0x49
 7942 004d 13       		.uleb128 0x13
 7943 004e 00       		.byte	0
 7944 004f 00       		.byte	0
 7945 0050 07       		.uleb128 0x7
 7946 0051 01       		.uleb128 0x1
 7947 0052 01       		.byte	0x1
 7948 0053 49       		.uleb128 0x49
 7949 0054 13       		.uleb128 0x13
 7950 0055 01       		.uleb128 0x1
 7951 0056 13       		.uleb128 0x13
 7952 0057 00       		.byte	0
 7953 0058 00       		.byte	0
 7954 0059 08       		.uleb128 0x8
 7955 005a 21       		.uleb128 0x21
 7956 005b 00       		.byte	0
 7957 005c 49       		.uleb128 0x49
 7958 005d 13       		.uleb128 0x13
 7959 005e 2F       		.uleb128 0x2f
 7960 005f 0B       		.uleb128 0xb
 7961 0060 00       		.byte	0
 7962 0061 00       		.byte	0
 7963 0062 09       		.uleb128 0x9
 7964 0063 04       		.uleb128 0x4
 7965 0064 01       		.byte	0x1
 7966 0065 0B       		.uleb128 0xb
 7967 0066 0B       		.uleb128 0xb
 7968 0067 3A       		.uleb128 0x3a
ARM GAS  /tmp/ccNUhamC.s 			page 142


 7969 0068 0B       		.uleb128 0xb
 7970 0069 3B       		.uleb128 0x3b
 7971 006a 0B       		.uleb128 0xb
 7972 006b 01       		.uleb128 0x1
 7973 006c 13       		.uleb128 0x13
 7974 006d 00       		.byte	0
 7975 006e 00       		.byte	0
 7976 006f 0A       		.uleb128 0xa
 7977 0070 28       		.uleb128 0x28
 7978 0071 00       		.byte	0
 7979 0072 03       		.uleb128 0x3
 7980 0073 0E       		.uleb128 0xe
 7981 0074 1C       		.uleb128 0x1c
 7982 0075 0D       		.uleb128 0xd
 7983 0076 00       		.byte	0
 7984 0077 00       		.byte	0
 7985 0078 0B       		.uleb128 0xb
 7986 0079 04       		.uleb128 0x4
 7987 007a 01       		.byte	0x1
 7988 007b 0B       		.uleb128 0xb
 7989 007c 0B       		.uleb128 0xb
 7990 007d 3A       		.uleb128 0x3a
 7991 007e 0B       		.uleb128 0xb
 7992 007f 3B       		.uleb128 0x3b
 7993 0080 05       		.uleb128 0x5
 7994 0081 01       		.uleb128 0x1
 7995 0082 13       		.uleb128 0x13
 7996 0083 00       		.byte	0
 7997 0084 00       		.byte	0
 7998 0085 0C       		.uleb128 0xc
 7999 0086 16       		.uleb128 0x16
 8000 0087 00       		.byte	0
 8001 0088 03       		.uleb128 0x3
 8002 0089 0E       		.uleb128 0xe
 8003 008a 3A       		.uleb128 0x3a
 8004 008b 0B       		.uleb128 0xb
 8005 008c 3B       		.uleb128 0x3b
 8006 008d 05       		.uleb128 0x5
 8007 008e 49       		.uleb128 0x49
 8008 008f 13       		.uleb128 0x13
 8009 0090 00       		.byte	0
 8010 0091 00       		.byte	0
 8011 0092 0D       		.uleb128 0xd
 8012 0093 2E       		.uleb128 0x2e
 8013 0094 01       		.byte	0x1
 8014 0095 3F       		.uleb128 0x3f
 8015 0096 19       		.uleb128 0x19
 8016 0097 03       		.uleb128 0x3
 8017 0098 0E       		.uleb128 0xe
 8018 0099 3A       		.uleb128 0x3a
 8019 009a 0B       		.uleb128 0xb
 8020 009b 3B       		.uleb128 0x3b
 8021 009c 0B       		.uleb128 0xb
 8022 009d 27       		.uleb128 0x27
 8023 009e 19       		.uleb128 0x19
 8024 009f 49       		.uleb128 0x49
 8025 00a0 13       		.uleb128 0x13
ARM GAS  /tmp/ccNUhamC.s 			page 143


 8026 00a1 11       		.uleb128 0x11
 8027 00a2 01       		.uleb128 0x1
 8028 00a3 12       		.uleb128 0x12
 8029 00a4 06       		.uleb128 0x6
 8030 00a5 40       		.uleb128 0x40
 8031 00a6 18       		.uleb128 0x18
 8032 00a7 9642     		.uleb128 0x2116
 8033 00a9 19       		.uleb128 0x19
 8034 00aa 01       		.uleb128 0x1
 8035 00ab 13       		.uleb128 0x13
 8036 00ac 00       		.byte	0
 8037 00ad 00       		.byte	0
 8038 00ae 0E       		.uleb128 0xe
 8039 00af 05       		.uleb128 0x5
 8040 00b0 00       		.byte	0
 8041 00b1 03       		.uleb128 0x3
 8042 00b2 0E       		.uleb128 0xe
 8043 00b3 3A       		.uleb128 0x3a
 8044 00b4 0B       		.uleb128 0xb
 8045 00b5 3B       		.uleb128 0x3b
 8046 00b6 0B       		.uleb128 0xb
 8047 00b7 49       		.uleb128 0x49
 8048 00b8 13       		.uleb128 0x13
 8049 00b9 02       		.uleb128 0x2
 8050 00ba 18       		.uleb128 0x18
 8051 00bb 00       		.byte	0
 8052 00bc 00       		.byte	0
 8053 00bd 0F       		.uleb128 0xf
 8054 00be 05       		.uleb128 0x5
 8055 00bf 00       		.byte	0
 8056 00c0 03       		.uleb128 0x3
 8057 00c1 08       		.uleb128 0x8
 8058 00c2 3A       		.uleb128 0x3a
 8059 00c3 0B       		.uleb128 0xb
 8060 00c4 3B       		.uleb128 0x3b
 8061 00c5 0B       		.uleb128 0xb
 8062 00c6 49       		.uleb128 0x49
 8063 00c7 13       		.uleb128 0x13
 8064 00c8 02       		.uleb128 0x2
 8065 00c9 18       		.uleb128 0x18
 8066 00ca 00       		.byte	0
 8067 00cb 00       		.byte	0
 8068 00cc 10       		.uleb128 0x10
 8069 00cd 0F       		.uleb128 0xf
 8070 00ce 00       		.byte	0
 8071 00cf 0B       		.uleb128 0xb
 8072 00d0 0B       		.uleb128 0xb
 8073 00d1 00       		.byte	0
 8074 00d2 00       		.byte	0
 8075 00d3 11       		.uleb128 0x11
 8076 00d4 0F       		.uleb128 0xf
 8077 00d5 00       		.byte	0
 8078 00d6 0B       		.uleb128 0xb
 8079 00d7 0B       		.uleb128 0xb
 8080 00d8 49       		.uleb128 0x49
 8081 00d9 13       		.uleb128 0x13
 8082 00da 00       		.byte	0
ARM GAS  /tmp/ccNUhamC.s 			page 144


 8083 00db 00       		.byte	0
 8084 00dc 12       		.uleb128 0x12
 8085 00dd 34       		.uleb128 0x34
 8086 00de 00       		.byte	0
 8087 00df 03       		.uleb128 0x3
 8088 00e0 0E       		.uleb128 0xe
 8089 00e1 3A       		.uleb128 0x3a
 8090 00e2 0B       		.uleb128 0xb
 8091 00e3 3B       		.uleb128 0x3b
 8092 00e4 0B       		.uleb128 0xb
 8093 00e5 49       		.uleb128 0x49
 8094 00e6 13       		.uleb128 0x13
 8095 00e7 02       		.uleb128 0x2
 8096 00e8 18       		.uleb128 0x18
 8097 00e9 00       		.byte	0
 8098 00ea 00       		.byte	0
 8099 00eb 13       		.uleb128 0x13
 8100 00ec 2E       		.uleb128 0x2e
 8101 00ed 01       		.byte	0x1
 8102 00ee 3F       		.uleb128 0x3f
 8103 00ef 19       		.uleb128 0x19
 8104 00f0 03       		.uleb128 0x3
 8105 00f1 0E       		.uleb128 0xe
 8106 00f2 3A       		.uleb128 0x3a
 8107 00f3 0B       		.uleb128 0xb
 8108 00f4 3B       		.uleb128 0x3b
 8109 00f5 05       		.uleb128 0x5
 8110 00f6 27       		.uleb128 0x27
 8111 00f7 19       		.uleb128 0x19
 8112 00f8 49       		.uleb128 0x49
 8113 00f9 13       		.uleb128 0x13
 8114 00fa 11       		.uleb128 0x11
 8115 00fb 01       		.uleb128 0x1
 8116 00fc 12       		.uleb128 0x12
 8117 00fd 06       		.uleb128 0x6
 8118 00fe 40       		.uleb128 0x40
 8119 00ff 18       		.uleb128 0x18
 8120 0100 9642     		.uleb128 0x2116
 8121 0102 19       		.uleb128 0x19
 8122 0103 01       		.uleb128 0x1
 8123 0104 13       		.uleb128 0x13
 8124 0105 00       		.byte	0
 8125 0106 00       		.byte	0
 8126 0107 14       		.uleb128 0x14
 8127 0108 05       		.uleb128 0x5
 8128 0109 00       		.byte	0
 8129 010a 03       		.uleb128 0x3
 8130 010b 0E       		.uleb128 0xe
 8131 010c 3A       		.uleb128 0x3a
 8132 010d 0B       		.uleb128 0xb
 8133 010e 3B       		.uleb128 0x3b
 8134 010f 05       		.uleb128 0x5
 8135 0110 49       		.uleb128 0x49
 8136 0111 13       		.uleb128 0x13
 8137 0112 02       		.uleb128 0x2
 8138 0113 18       		.uleb128 0x18
 8139 0114 00       		.byte	0
ARM GAS  /tmp/ccNUhamC.s 			page 145


 8140 0115 00       		.byte	0
 8141 0116 15       		.uleb128 0x15
 8142 0117 34       		.uleb128 0x34
 8143 0118 00       		.byte	0
 8144 0119 03       		.uleb128 0x3
 8145 011a 0E       		.uleb128 0xe
 8146 011b 3A       		.uleb128 0x3a
 8147 011c 0B       		.uleb128 0xb
 8148 011d 3B       		.uleb128 0x3b
 8149 011e 05       		.uleb128 0x5
 8150 011f 49       		.uleb128 0x49
 8151 0120 13       		.uleb128 0x13
 8152 0121 02       		.uleb128 0x2
 8153 0122 18       		.uleb128 0x18
 8154 0123 00       		.byte	0
 8155 0124 00       		.byte	0
 8156 0125 16       		.uleb128 0x16
 8157 0126 34       		.uleb128 0x34
 8158 0127 00       		.byte	0
 8159 0128 03       		.uleb128 0x3
 8160 0129 08       		.uleb128 0x8
 8161 012a 3A       		.uleb128 0x3a
 8162 012b 0B       		.uleb128 0xb
 8163 012c 3B       		.uleb128 0x3b
 8164 012d 05       		.uleb128 0x5
 8165 012e 49       		.uleb128 0x49
 8166 012f 13       		.uleb128 0x13
 8167 0130 02       		.uleb128 0x2
 8168 0131 18       		.uleb128 0x18
 8169 0132 00       		.byte	0
 8170 0133 00       		.byte	0
 8171 0134 17       		.uleb128 0x17
 8172 0135 2E       		.uleb128 0x2e
 8173 0136 01       		.byte	0x1
 8174 0137 3F       		.uleb128 0x3f
 8175 0138 19       		.uleb128 0x19
 8176 0139 03       		.uleb128 0x3
 8177 013a 0E       		.uleb128 0xe
 8178 013b 3A       		.uleb128 0x3a
 8179 013c 0B       		.uleb128 0xb
 8180 013d 3B       		.uleb128 0x3b
 8181 013e 05       		.uleb128 0x5
 8182 013f 27       		.uleb128 0x27
 8183 0140 19       		.uleb128 0x19
 8184 0141 49       		.uleb128 0x49
 8185 0142 13       		.uleb128 0x13
 8186 0143 11       		.uleb128 0x11
 8187 0144 01       		.uleb128 0x1
 8188 0145 12       		.uleb128 0x12
 8189 0146 06       		.uleb128 0x6
 8190 0147 40       		.uleb128 0x40
 8191 0148 18       		.uleb128 0x18
 8192 0149 9642     		.uleb128 0x2116
 8193 014b 19       		.uleb128 0x19
 8194 014c 00       		.byte	0
 8195 014d 00       		.byte	0
 8196 014e 00       		.byte	0
ARM GAS  /tmp/ccNUhamC.s 			page 146


 8197              		.section	.debug_aranges,"",%progbits
 8198 0000 1C000000 		.4byte	0x1c
 8199 0004 0200     		.2byte	0x2
 8200 0006 00000000 		.4byte	.Ldebug_info0
 8201 000a 04       		.byte	0x4
 8202 000b 00       		.byte	0
 8203 000c 0000     		.2byte	0
 8204 000e 0000     		.2byte	0
 8205 0010 00000000 		.4byte	.Ltext0
 8206 0014 26190000 		.4byte	.Letext0-.Ltext0
 8207 0018 00000000 		.4byte	0
 8208 001c 00000000 		.4byte	0
 8209              		.section	.debug_line,"",%progbits
 8210              	.Ldebug_line0:
 8211 0000 7C030000 		.section	.debug_str,"MS",%progbits,1
 8211      02007700 
 8211      00000201 
 8211      FB0E0D00 
 8211      01010101 
 8212              	.LASF95:
 8213 0000 4C534D33 		.ascii	"LSM303AGR_MAG_N_TH_S_X_EV_OFF\000"
 8213      30334147 
 8213      525F4D41 
 8213      475F4E5F 
 8213      54485F53 
 8214              	.LASF82:
 8215 001e 4C534D33 		.ascii	"LSM303AGR_MAG_XIEN_t\000"
 8215      30334147 
 8215      525F4D41 
 8215      475F5849 
 8215      454E5F74 
 8216              	.LASF191:
 8217 0033 4C534D33 		.ascii	"LSM303AGR_MAG_W_IEL\000"
 8217      30334147 
 8217      525F4D41 
 8217      475F575F 
 8217      49454C00 
 8218              	.LASF188:
 8219 0047 4C534D33 		.ascii	"LSM303AGR_MAG_R_INT_MAG_PIN\000"
 8219      30334147 
 8219      525F4D41 
 8219      475F525F 
 8219      494E545F 
 8220              	.LASF189:
 8221 0063 4C534D33 		.ascii	"LSM303AGR_MAG_W_IEN\000"
 8221      30334147 
 8221      525F4D41 
 8221      475F575F 
 8221      49454E00 
 8222              	.LASF11:
 8223 0077 6931365F 		.ascii	"i16_t\000"
 8223      7400
 8224              	.LASF139:
 8225 007d 4C534D33 		.ascii	"LSM303AGR_MAG_R_BDU\000"
 8225      30334147 
 8225      525F4D41 
 8225      475F525F 
ARM GAS  /tmp/ccNUhamC.s 			page 147


 8225      42445500 
 8226              	.LASF20:
 8227 0091 4C534D33 		.ascii	"LSM303AGR_MAG_BDU_ENABLED\000"
 8227      30334147 
 8227      525F4D41 
 8227      475F4244 
 8227      555F454E 
 8228              	.LASF70:
 8229 00ab 4C534D33 		.ascii	"LSM303AGR_MAG_IEL_t\000"
 8229      30334147 
 8229      525F4D41 
 8229      475F4945 
 8229      4C5F7400 
 8230              	.LASF145:
 8231 00bf 7261775F 		.ascii	"raw_data_tmp\000"
 8231      64617461 
 8231      5F746D70 
 8231      00
 8232              	.LASF172:
 8233 00cc 4C534D33 		.ascii	"LSM303AGR_MAG_R_LPF\000"
 8233      30334147 
 8233      525F4D41 
 8233      475F525F 
 8233      4C504600 
 8234              	.LASF184:
 8235 00e0 4C534D33 		.ascii	"LSM303AGR_MAG_R_BLE\000"
 8235      30334147 
 8235      525F4D41 
 8235      475F525F 
 8235      424C4500 
 8236              	.LASF219:
 8237 00f4 474E5520 		.ascii	"GNU C 4.8.4 20140526 (release) [ARM/embedded-4_8-br"
 8237      4320342E 
 8237      382E3420 
 8237      32303134 
 8237      30353236 
 8238 0127 616E6368 		.ascii	"anch revision 211358] -mcpu=cortex-m4 -mno-thumb-in"
 8238      20726576 
 8238      6973696F 
 8238      6E203231 
 8238      31333538 
 8239 015a 74657277 		.ascii	"terwork -mthumb -ggdb -O0 -std=c99 -fomit-frame-poi"
 8239      6F726B20 
 8239      2D6D7468 
 8239      756D6220 
 8239      2D676764 
 8240 018d 6E746572 		.ascii	"nter -falign-functions=16\000"
 8240      202D6661 
 8240      6C69676E 
 8240      2D66756E 
 8240      6374696F 
 8241              	.LASF12:
 8242 01a7 69313662 		.ascii	"i16bit\000"
 8242      697400
 8243              	.LASF141:
 8244 01ae 4C534D33 		.ascii	"LSM303AGR_MAG_R_MD\000"
 8244      30334147 
ARM GAS  /tmp/ccNUhamC.s 			page 148


 8244      525F4D41 
 8244      475F525F 
 8244      4D4400
 8245              	.LASF61:
 8246 01c1 4C534D33 		.ascii	"LSM303AGR_MAG_I2C_DIS_t\000"
 8246      30334147 
 8246      525F4D41 
 8246      475F4932 
 8246      435F4449 
 8247              	.LASF16:
 8248 01d9 4D454D53 		.ascii	"MEMS_SUCCESS\000"
 8248      5F535543 
 8248      43455353 
 8248      00
 8249              	.LASF158:
 8250 01e6 4C534D33 		.ascii	"LSM303AGR_MAG_W_OFF_Z_H\000"
 8250      30334147 
 8250      525F4D41 
 8250      475F575F 
 8250      4F46465F 
 8251              	.LASF201:
 8252 01fe 4C534D33 		.ascii	"LSM303AGR_MAG_R_INT\000"
 8252      30334147 
 8252      525F4D41 
 8252      475F525F 
 8252      494E5400 
 8253              	.LASF83:
 8254 0212 4C534D33 		.ascii	"LSM303AGR_MAG_INT_EV_OFF\000"
 8254      30334147 
 8254      525F4D41 
 8254      475F494E 
 8254      545F4556 
 8255              	.LASF75:
 8256 022b 4C534D33 		.ascii	"LSM303AGR_MAG_ZIEN_ENABLED\000"
 8256      30334147 
 8256      525F4D41 
 8256      475F5A49 
 8256      454E5F45 
 8257              	.LASF169:
 8258 0246 4C534D33 		.ascii	"LSM303AGR_MAG_W_SOFT_RST\000"
 8258      30334147 
 8258      525F4D41 
 8258      475F575F 
 8258      534F4654 
 8259              	.LASF42:
 8260 025f 4C534D33 		.ascii	"LSM303AGR_MAG_OFF_CANC_ENABLED\000"
 8260      30334147 
 8260      525F4D41 
 8260      475F4F46 
 8260      465F4341 
 8261              	.LASF63:
 8262 027e 4C534D33 		.ascii	"LSM303AGR_MAG_INT_MAG_PIN_ENABLED\000"
 8262      30334147 
 8262      525F4D41 
 8262      475F494E 
 8262      545F4D41 
 8263              	.LASF7:
ARM GAS  /tmp/ccNUhamC.s 			page 149


 8264 02a0 6C6F6E67 		.ascii	"long long unsigned int\000"
 8264      206C6F6E 
 8264      6720756E 
 8264      7369676E 
 8264      65642069 
 8265              	.LASF179:
 8266 02b7 4C534D33 		.ascii	"LSM303AGR_MAG_W_INT_MAG\000"
 8266      30334147 
 8266      525F4D41 
 8266      475F575F 
 8266      494E545F 
 8267              	.LASF215:
 8268 02cf 4C534D33 		.ascii	"LSM303AGR_MAG_R_ZOR\000"
 8268      30334147 
 8268      525F4D41 
 8268      475F525F 
 8268      5A4F5200 
 8269              	.LASF21:
 8270 02e3 4C534D33 		.ascii	"LSM303AGR_MAG_BDU_t\000"
 8270      30334147 
 8270      525F4D41 
 8270      475F4244 
 8270      555F7400 
 8271              	.LASF117:
 8272 02f7 4C534D33 		.ascii	"LSM303AGR_MAG_ZYXDA_EV_ON\000"
 8272      30334147 
 8272      525F4D41 
 8272      475F5A59 
 8272      5844415F 
 8273              	.LASF58:
 8274 0311 4C534D33 		.ascii	"LSM303AGR_MAG_BLE_t\000"
 8274      30334147 
 8274      525F4D41 
 8274      475F424C 
 8274      455F7400 
 8275              	.LASF200:
 8276 0325 4C534D33 		.ascii	"LSM303AGR_MAG_R_XIEN\000"
 8276      30334147 
 8276      525F4D41 
 8276      475F525F 
 8276      5849454E 
 8277              	.LASF192:
 8278 033a 4C534D33 		.ascii	"LSM303AGR_MAG_R_IEL\000"
 8278      30334147 
 8278      525F4D41 
 8278      475F525F 
 8278      49454C00 
 8279              	.LASF211:
 8280 034e 4C534D33 		.ascii	"LSM303AGR_MAG_R_ZDA\000"
 8280      30334147 
 8280      525F4D41 
 8280      475F525F 
 8280      5A444100 
 8281              	.LASF129:
 8282 0362 4C534D33 		.ascii	"LSM303AGR_MAG_ZYXOR_EV_ON\000"
 8282      30334147 
 8282      525F4D41 
ARM GAS  /tmp/ccNUhamC.s 			page 150


 8282      475F5A59 
 8282      584F525F 
 8283              	.LASF6:
 8284 037c 6C6F6E67 		.ascii	"long long int\000"
 8284      206C6F6E 
 8284      6720696E 
 8284      7400
 8285              	.LASF0:
 8286 038a 7369676E 		.ascii	"signed char\000"
 8286      65642063 
 8286      68617200 
 8287              	.LASF212:
 8288 0396 4C534D33 		.ascii	"LSM303AGR_MAG_R_ZYXDA\000"
 8288      30334147 
 8288      525F4D41 
 8288      475F525F 
 8288      5A595844 
 8289              	.LASF142:
 8290 03ac 4C534D33 		.ascii	"LSM303AGR_MAG_Get_Raw_Magnetic\000"
 8290      30334147 
 8290      525F4D41 
 8290      475F4765 
 8290      745F5261 
 8291              	.LASF137:
 8292 03cb 4C534D33 		.ascii	"LSM303AGR_MAG_W_BDU\000"
 8292      30334147 
 8292      525F4D41 
 8292      475F575F 
 8292      42445500 
 8293              	.LASF151:
 8294 03df 4C534D33 		.ascii	"LSM303AGR_MAG_R_OFF_X_H\000"
 8294      30334147 
 8294      525F4D41 
 8294      475F525F 
 8294      4F46465F 
 8295              	.LASF113:
 8296 03f7 4C534D33 		.ascii	"LSM303AGR_MAG_ZDA_EV_OFF\000"
 8296      30334147 
 8296      525F4D41 
 8296      475F5A44 
 8296      415F4556 
 8297              	.LASF112:
 8298 0410 4C534D33 		.ascii	"LSM303AGR_MAG_YDA_t\000"
 8298      30334147 
 8298      525F4D41 
 8298      475F5944 
 8298      415F7400 
 8299              	.LASF32:
 8300 0424 4C534D33 		.ascii	"LSM303AGR_MAG_HR_MODE\000"
 8300      30334147 
 8300      525F4D41 
 8300      475F4852 
 8300      5F4D4F44 
 8301              	.LASF177:
 8302 043a 4C534D33 		.ascii	"LSM303AGR_MAG_W_INT_ON_DATAOFF\000"
 8302      30334147 
 8302      525F4D41 
ARM GAS  /tmp/ccNUhamC.s 			page 151


 8302      475F575F 
 8302      494E545F 
 8303              	.LASF79:
 8304 0459 4C534D33 		.ascii	"LSM303AGR_MAG_YIEN_t\000"
 8304      30334147 
 8304      525F4D41 
 8304      475F5949 
 8304      454E5F74 
 8305              	.LASF133:
 8306 046e 4C534D33 		.ascii	"LSM303AGR_MAG_WriteReg\000"
 8306      30334147 
 8306      525F4D41 
 8306      475F5772 
 8306      69746552 
 8307              	.LASF4:
 8308 0485 6C6F6E67 		.ascii	"long int\000"
 8308      20696E74 
 8308      00
 8309              	.LASF43:
 8310 048e 4C534D33 		.ascii	"LSM303AGR_MAG_OFF_CANC_t\000"
 8310      30334147 
 8310      525F4D41 
 8310      475F4F46 
 8310      465F4341 
 8311              	.LASF18:
 8312 04a7 73746174 		.ascii	"status_t\000"
 8312      75735F74 
 8312      00
 8313              	.LASF109:
 8314 04b0 4C534D33 		.ascii	"LSM303AGR_MAG_XDA_t\000"
 8314      30334147 
 8314      525F4D41 
 8314      475F5844 
 8314      415F7400 
 8315              	.LASF149:
 8316 04c4 4C534D33 		.ascii	"LSM303AGR_MAG_R_OFF_X_L\000"
 8316      30334147 
 8316      525F4D41 
 8316      475F525F 
 8316      4F46465F 
 8317              	.LASF44:
 8318 04dc 4C534D33 		.ascii	"LSM303AGR_MAG_SET_FREQ_CONTINUOS\000"
 8318      30334147 
 8318      525F4D41 
 8318      475F5345 
 8318      545F4652 
 8319              	.LASF159:
 8320 04fd 4C534D33 		.ascii	"LSM303AGR_MAG_Get_MagOff\000"
 8320      30334147 
 8320      525F4D41 
 8320      475F4765 
 8320      745F4D61 
 8321              	.LASF50:
 8322 0516 4C534D33 		.ascii	"LSM303AGR_MAG_INT_MAG_DISABLED\000"
 8322      30334147 
 8322      525F4D41 
 8322      475F494E 
ARM GAS  /tmp/ccNUhamC.s 			page 152


 8322      545F4D41 
 8323              	.LASF178:
 8324 0535 4C534D33 		.ascii	"LSM303AGR_MAG_R_INT_ON_DATAOFF\000"
 8324      30334147 
 8324      525F4D41 
 8324      475F525F 
 8324      494E545F 
 8325              	.LASF186:
 8326 0554 4C534D33 		.ascii	"LSM303AGR_MAG_R_I2C_DIS\000"
 8326      30334147 
 8326      525F4D41 
 8326      475F525F 
 8326      4932435F 
 8327              	.LASF198:
 8328 056c 4C534D33 		.ascii	"LSM303AGR_MAG_R_YIEN\000"
 8328      30334147 
 8328      525F4D41 
 8328      475F525F 
 8328      5949454E 
 8329              	.LASF30:
 8330 0581 4C534D33 		.ascii	"LSM303AGR_MAG_ODR_100Hz\000"
 8330      30334147 
 8330      525F4D41 
 8330      475F4F44 
 8330      525F3130 
 8331              	.LASF45:
 8332 0599 4C534D33 		.ascii	"LSM303AGR_MAG_SET_FREQ_SINGLE\000"
 8332      30334147 
 8332      525F4D41 
 8332      475F5345 
 8332      545F4652 
 8333              	.LASF46:
 8334 05b7 4C534D33 		.ascii	"LSM303AGR_MAG_SET_FREQ_t\000"
 8334      30334147 
 8334      525F4D41 
 8334      475F5345 
 8334      545F4652 
 8335              	.LASF140:
 8336 05d0 4C534D33 		.ascii	"LSM303AGR_MAG_W_MD\000"
 8336      30334147 
 8336      525F4D41 
 8336      475F575F 
 8336      4D4400
 8337              	.LASF176:
 8338 05e3 4C534D33 		.ascii	"LSM303AGR_MAG_R_SET_FREQ\000"
 8338      30334147 
 8338      525F4D41 
 8338      475F525F 
 8338      5345545F 
 8339              	.LASF108:
 8340 05fc 4C534D33 		.ascii	"LSM303AGR_MAG_XDA_EV_ON\000"
 8340      30334147 
 8340      525F4D41 
 8340      475F5844 
 8340      415F4556 
 8341              	.LASF74:
 8342 0614 4C534D33 		.ascii	"LSM303AGR_MAG_ZIEN_DISABLED\000"
ARM GAS  /tmp/ccNUhamC.s 			page 153


 8342      30334147 
 8342      525F4D41 
 8342      475F5A49 
 8342      454E5F44 
 8343              	.LASF29:
 8344 0630 4C534D33 		.ascii	"LSM303AGR_MAG_ODR_50Hz\000"
 8344      30334147 
 8344      525F4D41 
 8344      475F4F44 
 8344      525F3530 
 8345              	.LASF100:
 8346 0647 4C534D33 		.ascii	"LSM303AGR_MAG_P_TH_S_Z_t\000"
 8346      30334147 
 8346      525F4D41 
 8346      475F505F 
 8346      54485F53 
 8347              	.LASF51:
 8348 0660 4C534D33 		.ascii	"LSM303AGR_MAG_INT_MAG_ENABLED\000"
 8348      30334147 
 8348      525F4D41 
 8348      475F494E 
 8348      545F4D41 
 8349              	.LASF221:
 8350 067e 2F752F65 		.ascii	"/u/elawton2/p442-submissions/sensortile/reference/b"
 8350      6C617774 
 8350      6F6E322F 
 8350      70343432 
 8350      2D737562 
 8351 06b1 6C75656D 		.ascii	"luemicrosystem2/BlueMicrosystem2_V2.2.0/Projects/Mu"
 8351      6963726F 
 8351      73797374 
 8351      656D322F 
 8351      426C7565 
 8352 06e4 6C74692F 		.ascii	"lti/Applications/BlueMicrosystem2/bluechibi\000"
 8352      4170706C 
 8352      69636174 
 8352      696F6E73 
 8352      2F426C75 
 8353              	.LASF120:
 8354 0710 4C534D33 		.ascii	"LSM303AGR_MAG_XOR_EV_ON\000"
 8354      30334147 
 8354      525F4D41 
 8354      475F584F 
 8354      525F4556 
 8355              	.LASF104:
 8356 0728 4C534D33 		.ascii	"LSM303AGR_MAG_P_TH_S_X_EV_OFF\000"
 8356      30334147 
 8356      525F4D41 
 8356      475F505F 
 8356      54485F53 
 8357              	.LASF222:
 8358 0746 4C534D33 		.ascii	"LSM303AGR_MAG_Set_IntThreshld\000"
 8358      30334147 
 8358      525F4D41 
 8358      475F5365 
 8358      745F496E 
 8359              	.LASF136:
ARM GAS  /tmp/ccNUhamC.s 			page 154


 8360 0764 76616C75 		.ascii	"value\000"
 8360      6500
 8361              	.LASF80:
 8362 076a 4C534D33 		.ascii	"LSM303AGR_MAG_XIEN_DISABLED\000"
 8362      30334147 
 8362      525F4D41 
 8362      475F5849 
 8362      454E5F44 
 8363              	.LASF115:
 8364 0786 4C534D33 		.ascii	"LSM303AGR_MAG_ZDA_t\000"
 8364      30334147 
 8364      525F4D41 
 8364      475F5A44 
 8364      415F7400 
 8365              	.LASF8:
 8366 079a 756E7369 		.ascii	"unsigned int\000"
 8366      676E6564 
 8366      20696E74 
 8366      00
 8367              	.LASF22:
 8368 07a7 4C534D33 		.ascii	"LSM303AGR_MAG_MD_CONTINUOS_MODE\000"
 8368      30334147 
 8368      525F4D41 
 8368      475F4D44 
 8368      5F434F4E 
 8369              	.LASF135:
 8370 07c7 4C534D33 		.ascii	"LSM303AGR_MAG_R_WHO_AM_I\000"
 8370      30334147 
 8370      525F4D41 
 8370      475F525F 
 8370      57484F5F 
 8371              	.LASF196:
 8372 07e0 4C534D33 		.ascii	"LSM303AGR_MAG_R_ZIEN\000"
 8372      30334147 
 8372      525F4D41 
 8372      475F525F 
 8372      5A49454E 
 8373              	.LASF71:
 8374 07f5 4C534D33 		.ascii	"LSM303AGR_MAG_IEA_ACTIVE_LO\000"
 8374      30334147 
 8374      525F4D41 
 8374      475F4945 
 8374      415F4143 
 8375              	.LASF86:
 8376 0811 4C534D33 		.ascii	"LSM303AGR_MAG_MROI_EV_OFF\000"
 8376      30334147 
 8376      525F4D41 
 8376      475F4D52 
 8376      4F495F45 
 8377              	.LASF5:
 8378 082b 6C6F6E67 		.ascii	"long unsigned int\000"
 8378      20756E73 
 8378      69676E65 
 8378      6420696E 
 8378      7400
 8379              	.LASF57:
 8380 083d 4C534D33 		.ascii	"LSM303AGR_MAG_BLE_ENABLED\000"
ARM GAS  /tmp/ccNUhamC.s 			page 155


 8380      30334147 
 8380      525F4D41 
 8380      475F424C 
 8380      455F454E 
 8381              	.LASF134:
 8382 0857 4C534D33 		.ascii	"LSM303AGR_MAG_ReadReg\000"
 8382      30334147 
 8382      525F4D41 
 8382      475F5265 
 8382      61645265 
 8383              	.LASF161:
 8384 086d 6D616779 		.ascii	"magy_off\000"
 8384      5F6F6666 
 8384      00
 8385              	.LASF144:
 8386 0876 4C534D33 		.ascii	"LSM303AGR_MAG_Get_Magnetic\000"
 8386      30334147 
 8386      525F4D41 
 8386      475F4765 
 8386      745F4D61 
 8387              	.LASF164:
 8388 0891 7265675F 		.ascii	"reg_h\000"
 8388      6800
 8389              	.LASF163:
 8390 0897 7265675F 		.ascii	"reg_l\000"
 8390      6C00
 8391              	.LASF55:
 8392 089d 4C534D33 		.ascii	"LSM303AGR_MAG_ST_t\000"
 8392      30334147 
 8392      525F4D41 
 8392      475F5354 
 8392      5F7400
 8393              	.LASF54:
 8394 08b0 4C534D33 		.ascii	"LSM303AGR_MAG_ST_ENABLED\000"
 8394      30334147 
 8394      525F4D41 
 8394      475F5354 
 8394      5F454E41 
 8395              	.LASF3:
 8396 08c9 73686F72 		.ascii	"short unsigned int\000"
 8396      7420756E 
 8396      7369676E 
 8396      65642069 
 8396      6E7400
 8397              	.LASF89:
 8398 08dc 4C534D33 		.ascii	"LSM303AGR_MAG_N_TH_S_Z_EV_OFF\000"
 8398      30334147 
 8398      525F4D41 
 8398      475F4E5F 
 8398      54485F53 
 8399              	.LASF199:
 8400 08fa 4C534D33 		.ascii	"LSM303AGR_MAG_W_XIEN\000"
 8400      30334147 
 8400      525F4D41 
 8400      475F575F 
 8400      5849454E 
 8401              	.LASF185:
ARM GAS  /tmp/ccNUhamC.s 			page 156


 8402 090f 4C534D33 		.ascii	"LSM303AGR_MAG_W_I2C_DIS\000"
 8402      30334147 
 8402      525F4D41 
 8402      475F575F 
 8402      4932435F 
 8403              	.LASF60:
 8404 0927 4C534D33 		.ascii	"LSM303AGR_MAG_I2C_DISABLED\000"
 8404      30334147 
 8404      525F4D41 
 8404      475F4932 
 8404      435F4449 
 8405              	.LASF111:
 8406 0942 4C534D33 		.ascii	"LSM303AGR_MAG_YDA_EV_ON\000"
 8406      30334147 
 8406      525F4D41 
 8406      475F5944 
 8406      415F4556 
 8407              	.LASF102:
 8408 095a 4C534D33 		.ascii	"LSM303AGR_MAG_P_TH_S_Y_EV_ON\000"
 8408      30334147 
 8408      525F4D41 
 8408      475F505F 
 8408      54485F53 
 8409              	.LASF36:
 8410 0977 4C534D33 		.ascii	"LSM303AGR_MAG_SOFT_RST_ENABLED\000"
 8410      30334147 
 8410      525F4D41 
 8410      475F534F 
 8410      46545F52 
 8411              	.LASF214:
 8412 0996 4C534D33 		.ascii	"LSM303AGR_MAG_R_YOR\000"
 8412      30334147 
 8412      525F4D41 
 8412      475F525F 
 8412      594F5200 
 8413              	.LASF123:
 8414 09aa 4C534D33 		.ascii	"LSM303AGR_MAG_YOR_EV_ON\000"
 8414      30334147 
 8414      525F4D41 
 8414      475F594F 
 8414      525F4556 
 8415              	.LASF35:
 8416 09c2 4C534D33 		.ascii	"LSM303AGR_MAG_SOFT_RST_DISABLED\000"
 8416      30334147 
 8416      525F4D41 
 8416      475F534F 
 8416      46545F52 
 8417              	.LASF13:
 8418 09e2 75386269 		.ascii	"u8bit\000"
 8418      7400
 8419              	.LASF94:
 8420 09e8 4C534D33 		.ascii	"LSM303AGR_MAG_N_TH_S_Y_t\000"
 8420      30334147 
 8420      525F4D41 
 8420      475F4E5F 
 8420      54485F53 
 8421              	.LASF87:
ARM GAS  /tmp/ccNUhamC.s 			page 157


 8422 0a01 4C534D33 		.ascii	"LSM303AGR_MAG_MROI_EV_ON\000"
 8422      30334147 
 8422      525F4D41 
 8422      475F4D52 
 8422      4F495F45 
 8423              	.LASF103:
 8424 0a1a 4C534D33 		.ascii	"LSM303AGR_MAG_P_TH_S_Y_t\000"
 8424      30334147 
 8424      525F4D41 
 8424      475F505F 
 8424      54485F53 
 8425              	.LASF170:
 8426 0a33 4C534D33 		.ascii	"LSM303AGR_MAG_R_SOFT_RST\000"
 8426      30334147 
 8426      525F4D41 
 8426      475F525F 
 8426      534F4654 
 8427              	.LASF107:
 8428 0a4c 4C534D33 		.ascii	"LSM303AGR_MAG_XDA_EV_OFF\000"
 8428      30334147 
 8428      525F4D41 
 8428      475F5844 
 8428      415F4556 
 8429              	.LASF65:
 8430 0a65 4C534D33 		.ascii	"LSM303AGR_MAG_IEN_DISABLED\000"
 8430      30334147 
 8430      525F4D41 
 8430      475F4945 
 8430      4E5F4449 
 8431              	.LASF213:
 8432 0a80 4C534D33 		.ascii	"LSM303AGR_MAG_R_XOR\000"
 8432      30334147 
 8432      525F4D41 
 8432      475F525F 
 8432      584F5200 
 8433              	.LASF69:
 8434 0a94 4C534D33 		.ascii	"LSM303AGR_MAG_IEL_LATCHED\000"
 8434      30334147 
 8434      525F4D41 
 8434      475F4945 
 8434      4C5F4C41 
 8435              	.LASF116:
 8436 0aae 4C534D33 		.ascii	"LSM303AGR_MAG_ZYXDA_EV_OFF\000"
 8436      30334147 
 8436      525F4D41 
 8436      475F5A59 
 8436      5844415F 
 8437              	.LASF93:
 8438 0ac9 4C534D33 		.ascii	"LSM303AGR_MAG_N_TH_S_Y_EV_ON\000"
 8438      30334147 
 8438      525F4D41 
 8438      475F4E5F 
 8438      54485F53 
 8439              	.LASF9:
 8440 0ae6 75385F74 		.ascii	"u8_t\000"
 8440      00
 8441              	.LASF14:
ARM GAS  /tmp/ccNUhamC.s 			page 158


 8442 0aeb 73697A65 		.ascii	"sizetype\000"
 8442      74797065 
 8442      00
 8443              	.LASF24:
 8444 0af4 4C534D33 		.ascii	"LSM303AGR_MAG_MD_IDLE1_MODE\000"
 8444      30334147 
 8444      525F4D41 
 8444      475F4D44 
 8444      5F49444C 
 8445              	.LASF160:
 8446 0b10 6D616778 		.ascii	"magx_off\000"
 8446      5F6F6666 
 8446      00
 8447              	.LASF105:
 8448 0b19 4C534D33 		.ascii	"LSM303AGR_MAG_P_TH_S_X_EV_ON\000"
 8448      30334147 
 8448      525F4D41 
 8448      475F505F 
 8448      54485F53 
 8449              	.LASF127:
 8450 0b36 4C534D33 		.ascii	"LSM303AGR_MAG_ZOR_t\000"
 8450      30334147 
 8450      525F4D41 
 8450      475F5A4F 
 8450      525F7400 
 8451              	.LASF56:
 8452 0b4a 4C534D33 		.ascii	"LSM303AGR_MAG_BLE_DISABLED\000"
 8452      30334147 
 8452      525F4D41 
 8452      475F424C 
 8452      455F4449 
 8453              	.LASF156:
 8454 0b65 4C534D33 		.ascii	"LSM303AGR_MAG_W_OFF_Z_L\000"
 8454      30334147 
 8454      525F4D41 
 8454      475F575F 
 8454      4F46465F 
 8455              	.LASF52:
 8456 0b7d 4C534D33 		.ascii	"LSM303AGR_MAG_INT_MAG_t\000"
 8456      30334147 
 8456      525F4D41 
 8456      475F494E 
 8456      545F4D41 
 8457              	.LASF187:
 8458 0b95 4C534D33 		.ascii	"LSM303AGR_MAG_W_INT_MAG_PIN\000"
 8458      30334147 
 8458      525F4D41 
 8458      475F575F 
 8458      494E545F 
 8459              	.LASF76:
 8460 0bb1 4C534D33 		.ascii	"LSM303AGR_MAG_ZIEN_t\000"
 8460      30334147 
 8460      525F4D41 
 8460      475F5A49 
 8460      454E5F74 
 8461              	.LASF41:
 8462 0bc6 4C534D33 		.ascii	"LSM303AGR_MAG_OFF_CANC_DISABLED\000"
ARM GAS  /tmp/ccNUhamC.s 			page 159


 8462      30334147 
 8462      525F4D41 
 8462      475F4F46 
 8462      465F4341 
 8463              	.LASF99:
 8464 0be6 4C534D33 		.ascii	"LSM303AGR_MAG_P_TH_S_Z_EV_ON\000"
 8464      30334147 
 8464      525F4D41 
 8464      475F505F 
 8464      54485F53 
 8465              	.LASF114:
 8466 0c03 4C534D33 		.ascii	"LSM303AGR_MAG_ZDA_EV_ON\000"
 8466      30334147 
 8466      525F4D41 
 8466      475F5A44 
 8466      415F4556 
 8467              	.LASF209:
 8468 0c1b 4C534D33 		.ascii	"LSM303AGR_MAG_R_XDA\000"
 8468      30334147 
 8468      525F4D41 
 8468      475F525F 
 8468      58444100 
 8469              	.LASF119:
 8470 0c2f 4C534D33 		.ascii	"LSM303AGR_MAG_XOR_EV_OFF\000"
 8470      30334147 
 8470      525F4D41 
 8470      475F584F 
 8470      525F4556 
 8471              	.LASF122:
 8472 0c48 4C534D33 		.ascii	"LSM303AGR_MAG_YOR_EV_OFF\000"
 8472      30334147 
 8472      525F4D41 
 8472      475F594F 
 8472      525F4556 
 8473              	.LASF85:
 8474 0c61 4C534D33 		.ascii	"LSM303AGR_MAG_INT_t\000"
 8474      30334147 
 8474      525F4D41 
 8474      475F494E 
 8474      545F7400 
 8475              	.LASF126:
 8476 0c75 4C534D33 		.ascii	"LSM303AGR_MAG_ZOR_EV_ON\000"
 8476      30334147 
 8476      525F4D41 
 8476      475F5A4F 
 8476      525F4556 
 8477              	.LASF216:
 8478 0c8d 4C534D33 		.ascii	"LSM303AGR_MAG_R_ZYXOR\000"
 8478      30334147 
 8478      525F4D41 
 8478      475F525F 
 8478      5A59584F 
 8479              	.LASF59:
 8480 0ca3 4C534D33 		.ascii	"LSM303AGR_MAG_I2C_ENABLED\000"
 8480      30334147 
 8480      525F4D41 
 8480      475F4932 
ARM GAS  /tmp/ccNUhamC.s 			page 160


 8480      435F454E 
 8481              	.LASF28:
 8482 0cbd 4C534D33 		.ascii	"LSM303AGR_MAG_ODR_20Hz\000"
 8482      30334147 
 8482      525F4D41 
 8482      475F4F44 
 8482      525F3230 
 8483              	.LASF47:
 8484 0cd4 4C534D33 		.ascii	"LSM303AGR_MAG_INT_ON_DATAOFF_DISABLED\000"
 8484      30334147 
 8484      525F4D41 
 8484      475F494E 
 8484      545F4F4E 
 8485              	.LASF195:
 8486 0cfa 4C534D33 		.ascii	"LSM303AGR_MAG_W_ZIEN\000"
 8486      30334147 
 8486      525F4D41 
 8486      475F575F 
 8486      5A49454E 
 8487              	.LASF25:
 8488 0d0f 4C534D33 		.ascii	"LSM303AGR_MAG_MD_IDLE2_MODE\000"
 8488      30334147 
 8488      525F4D41 
 8488      475F4D44 
 8488      5F49444C 
 8489              	.LASF97:
 8490 0d2b 4C534D33 		.ascii	"LSM303AGR_MAG_N_TH_S_X_t\000"
 8490      30334147 
 8490      525F4D41 
 8490      475F4E5F 
 8490      54485F53 
 8491              	.LASF17:
 8492 0d44 4D454D53 		.ascii	"MEMS_ERROR\000"
 8492      5F455252 
 8492      4F5200
 8493              	.LASF81:
 8494 0d4f 4C534D33 		.ascii	"LSM303AGR_MAG_XIEN_ENABLED\000"
 8494      30334147 
 8494      525F4D41 
 8494      475F5849 
 8494      454E5F45 
 8495              	.LASF106:
 8496 0d6a 4C534D33 		.ascii	"LSM303AGR_MAG_P_TH_S_X_t\000"
 8496      30334147 
 8496      525F4D41 
 8496      475F505F 
 8496      54485F53 
 8497              	.LASF1:
 8498 0d83 756E7369 		.ascii	"unsigned char\000"
 8498      676E6564 
 8498      20636861 
 8498      7200
 8499              	.LASF23:
 8500 0d91 4C534D33 		.ascii	"LSM303AGR_MAG_MD_SINGLE_MODE\000"
 8500      30334147 
 8500      525F4D41 
 8500      475F4D44 
ARM GAS  /tmp/ccNUhamC.s 			page 161


 8500      5F53494E 
 8501              	.LASF138:
 8502 0dae 6E657756 		.ascii	"newValue\000"
 8502      616C7565 
 8502      00
 8503              	.LASF147:
 8504 0db7 4C534D33 		.ascii	"LSM303AGR_MAG_R_ODR\000"
 8504      30334147 
 8504      525F4D41 
 8504      475F525F 
 8504      4F445200 
 8505              	.LASF67:
 8506 0dcb 4C534D33 		.ascii	"LSM303AGR_MAG_IEN_t\000"
 8506      30334147 
 8506      525F4D41 
 8506      475F4945 
 8506      4E5F7400 
 8507              	.LASF2:
 8508 0ddf 73686F72 		.ascii	"short int\000"
 8508      7420696E 
 8508      7400
 8509              	.LASF143:
 8510 0de9 62756666 		.ascii	"buff\000"
 8510      00
 8511              	.LASF38:
 8512 0dee 4C534D33 		.ascii	"LSM303AGR_MAG_LPF_DISABLED\000"
 8512      30334147 
 8512      525F4D41 
 8512      475F4C50 
 8512      465F4449 
 8513              	.LASF64:
 8514 0e09 4C534D33 		.ascii	"LSM303AGR_MAG_INT_MAG_PIN_t\000"
 8514      30334147 
 8514      525F4D41 
 8514      475F494E 
 8514      545F4D41 
 8515              	.LASF208:
 8516 0e25 4C534D33 		.ascii	"LSM303AGR_MAG_R_P_TH_S_X\000"
 8516      30334147 
 8516      525F4D41 
 8516      475F525F 
 8516      505F5448 
 8517              	.LASF130:
 8518 0e3e 4C534D33 		.ascii	"LSM303AGR_MAG_ZYXOR_t\000"
 8518      30334147 
 8518      525F4D41 
 8518      475F5A59 
 8518      584F525F 
 8519              	.LASF98:
 8520 0e54 4C534D33 		.ascii	"LSM303AGR_MAG_P_TH_S_Z_EV_OFF\000"
 8520      30334147 
 8520      525F4D41 
 8520      475F505F 
 8520      54485F53 
 8521              	.LASF218:
 8522 0e72 6E756D62 		.ascii	"numberOfByteForDimension\000"
 8522      65724F66 
ARM GAS  /tmp/ccNUhamC.s 			page 162


 8522      42797465 
 8522      466F7244 
 8522      696D656E 
 8523              	.LASF132:
 8524 0e8b 42756670 		.ascii	"Bufp\000"
 8524      00
 8525              	.LASF92:
 8526 0e90 4C534D33 		.ascii	"LSM303AGR_MAG_N_TH_S_Y_EV_OFF\000"
 8526      30334147 
 8526      525F4D41 
 8526      475F4E5F 
 8526      54485F53 
 8527              	.LASF66:
 8528 0eae 4C534D33 		.ascii	"LSM303AGR_MAG_IEN_ENABLED\000"
 8528      30334147 
 8528      525F4D41 
 8528      475F4945 
 8528      4E5F454E 
 8529              	.LASF78:
 8530 0ec8 4C534D33 		.ascii	"LSM303AGR_MAG_YIEN_ENABLED\000"
 8530      30334147 
 8530      525F4D41 
 8530      475F5949 
 8530      454E5F45 
 8531              	.LASF154:
 8532 0ee3 4C534D33 		.ascii	"LSM303AGR_MAG_W_OFF_Y_H\000"
 8532      30334147 
 8532      525F4D41 
 8532      475F575F 
 8532      4F46465F 
 8533              	.LASF27:
 8534 0efb 4C534D33 		.ascii	"LSM303AGR_MAG_ODR_10Hz\000"
 8534      30334147 
 8534      525F4D41 
 8534      475F4F44 
 8534      525F3130 
 8535              	.LASF202:
 8536 0f12 4C534D33 		.ascii	"LSM303AGR_MAG_R_MROI\000"
 8536      30334147 
 8536      525F4D41 
 8536      475F525F 
 8536      4D524F49 
 8537              	.LASF152:
 8538 0f27 4C534D33 		.ascii	"LSM303AGR_MAG_W_OFF_Y_L\000"
 8538      30334147 
 8538      525F4D41 
 8538      475F575F 
 8538      4F46465F 
 8539              	.LASF181:
 8540 0f3f 4C534D33 		.ascii	"LSM303AGR_MAG_W_ST\000"
 8540      30334147 
 8540      525F4D41 
 8540      475F575F 
 8540      535400
 8541              	.LASF128:
 8542 0f52 4C534D33 		.ascii	"LSM303AGR_MAG_ZYXOR_EV_OFF\000"
 8542      30334147 
ARM GAS  /tmp/ccNUhamC.s 			page 163


 8542      525F4D41 
 8542      475F5A59 
 8542      584F525F 
 8543              	.LASF183:
 8544 0f6d 4C534D33 		.ascii	"LSM303AGR_MAG_W_BLE\000"
 8544      30334147 
 8544      525F4D41 
 8544      475F575F 
 8544      424C4500 
 8545              	.LASF174:
 8546 0f81 4C534D33 		.ascii	"LSM303AGR_MAG_R_OFF_CANC\000"
 8546      30334147 
 8546      525F4D41 
 8546      475F525F 
 8546      4F46465F 
 8547              	.LASF175:
 8548 0f9a 4C534D33 		.ascii	"LSM303AGR_MAG_W_SET_FREQ\000"
 8548      30334147 
 8548      525F4D41 
 8548      475F575F 
 8548      5345545F 
 8549              	.LASF162:
 8550 0fb3 6D61677A 		.ascii	"magz_off\000"
 8550      5F6F6666 
 8550      00
 8551              	.LASF180:
 8552 0fbc 4C534D33 		.ascii	"LSM303AGR_MAG_R_INT_MAG\000"
 8552      30334147 
 8552      525F4D41 
 8552      475F525F 
 8552      494E545F 
 8553              	.LASF40:
 8554 0fd4 4C534D33 		.ascii	"LSM303AGR_MAG_LPF_t\000"
 8554      30334147 
 8554      525F4D41 
 8554      475F4C50 
 8554      465F7400 
 8555              	.LASF166:
 8556 0fe8 4C534D33 		.ascii	"LSM303AGR_MAG_R_OFF_Z_H\000"
 8556      30334147 
 8556      525F4D41 
 8556      475F525F 
 8556      4F46465F 
 8557              	.LASF37:
 8558 1000 4C534D33 		.ascii	"LSM303AGR_MAG_SOFT_RST_t\000"
 8558      30334147 
 8558      525F4D41 
 8558      475F534F 
 8558      46545F52 
 8559              	.LASF157:
 8560 1019 4C534D33 		.ascii	"LSM303AGR_MAG_R_OFF_Z_L\000"
 8560      30334147 
 8560      525F4D41 
 8560      475F525F 
 8560      4F46465F 
 8561              	.LASF19:
 8562 1031 4C534D33 		.ascii	"LSM303AGR_MAG_BDU_DISABLED\000"
ARM GAS  /tmp/ccNUhamC.s 			page 164


 8562      30334147 
 8562      525F4D41 
 8562      475F4244 
 8562      555F4449 
 8563              	.LASF72:
 8564 104c 4C534D33 		.ascii	"LSM303AGR_MAG_IEA_ACTIVE_HI\000"
 8564      30334147 
 8564      525F4D41 
 8564      475F4945 
 8564      415F4143 
 8565              	.LASF15:
 8566 1068 54797065 		.ascii	"Type3Axis16bit_U\000"
 8566      33417869 
 8566      73313662 
 8566      69745F55 
 8566      00
 8567              	.LASF206:
 8568 1079 4C534D33 		.ascii	"LSM303AGR_MAG_R_P_TH_S_Z\000"
 8568      30334147 
 8568      525F4D41 
 8568      475F525F 
 8568      505F5448 
 8569              	.LASF210:
 8570 1092 4C534D33 		.ascii	"LSM303AGR_MAG_R_YDA\000"
 8570      30334147 
 8570      525F4D41 
 8570      475F525F 
 8570      59444100 
 8571              	.LASF31:
 8572 10a6 4C534D33 		.ascii	"LSM303AGR_MAG_ODR_t\000"
 8572      30334147 
 8572      525F4D41 
 8572      475F4F44 
 8572      525F7400 
 8573              	.LASF96:
 8574 10ba 4C534D33 		.ascii	"LSM303AGR_MAG_N_TH_S_X_EV_ON\000"
 8574      30334147 
 8574      525F4D41 
 8574      475F4E5F 
 8574      54485F53 
 8575              	.LASF217:
 8576 10d7 4C534D33 		.ascii	"LSM303AGR_MAG_Get_IntThreshld\000"
 8576      30334147 
 8576      525F4D41 
 8576      475F4765 
 8576      745F496E 
 8577              	.LASF173:
 8578 10f5 4C534D33 		.ascii	"LSM303AGR_MAG_W_OFF_CANC\000"
 8578      30334147 
 8578      525F4D41 
 8578      475F575F 
 8578      4F46465F 
 8579              	.LASF194:
 8580 110e 4C534D33 		.ascii	"LSM303AGR_MAG_R_IEA\000"
 8580      30334147 
 8580      525F4D41 
 8580      475F525F 
ARM GAS  /tmp/ccNUhamC.s 			page 165


 8580      49454100 
 8581              	.LASF62:
 8582 1122 4C534D33 		.ascii	"LSM303AGR_MAG_INT_MAG_PIN_DISABLED\000"
 8582      30334147 
 8582      525F4D41 
 8582      475F494E 
 8582      545F4D41 
 8583              	.LASF88:
 8584 1145 4C534D33 		.ascii	"LSM303AGR_MAG_MROI_t\000"
 8584      30334147 
 8584      525F4D41 
 8584      475F4D52 
 8584      4F495F74 
 8585              	.LASF153:
 8586 115a 4C534D33 		.ascii	"LSM303AGR_MAG_R_OFF_Y_L\000"
 8586      30334147 
 8586      525F4D41 
 8586      475F525F 
 8586      4F46465F 
 8587              	.LASF203:
 8588 1172 4C534D33 		.ascii	"LSM303AGR_MAG_R_N_TH_S_Z\000"
 8588      30334147 
 8588      525F4D41 
 8588      475F525F 
 8588      4E5F5448 
 8589              	.LASF10:
 8590 118b 7531365F 		.ascii	"u16_t\000"
 8590      7400
 8591              	.LASF90:
 8592 1191 4C534D33 		.ascii	"LSM303AGR_MAG_N_TH_S_Z_EV_ON\000"
 8592      30334147 
 8592      525F4D41 
 8592      475F4E5F 
 8592      54485F53 
 8593              	.LASF182:
 8594 11ae 4C534D33 		.ascii	"LSM303AGR_MAG_R_ST\000"
 8594      30334147 
 8594      525F4D41 
 8594      475F525F 
 8594      535400
 8595              	.LASF190:
 8596 11c1 4C534D33 		.ascii	"LSM303AGR_MAG_R_IEN\000"
 8596      30334147 
 8596      525F4D41 
 8596      475F525F 
 8596      49454E00 
 8597              	.LASF77:
 8598 11d5 4C534D33 		.ascii	"LSM303AGR_MAG_YIEN_DISABLED\000"
 8598      30334147 
 8598      525F4D41 
 8598      475F5949 
 8598      454E5F44 
 8599              	.LASF121:
 8600 11f1 4C534D33 		.ascii	"LSM303AGR_MAG_XOR_t\000"
 8600      30334147 
 8600      525F4D41 
 8600      475F584F 
ARM GAS  /tmp/ccNUhamC.s 			page 166


 8600      525F7400 
 8601              	.LASF73:
 8602 1205 4C534D33 		.ascii	"LSM303AGR_MAG_IEA_t\000"
 8602      30334147 
 8602      525F4D41 
 8602      475F4945 
 8602      415F7400 
 8603              	.LASF34:
 8604 1219 4C534D33 		.ascii	"LSM303AGR_MAG_LP_t\000"
 8604      30334147 
 8604      525F4D41 
 8604      475F4C50 
 8604      5F7400
 8605              	.LASF150:
 8606 122c 4C534D33 		.ascii	"LSM303AGR_MAG_W_OFF_X_H\000"
 8606      30334147 
 8606      525F4D41 
 8606      475F575F 
 8606      4F46465F 
 8607              	.LASF124:
 8608 1244 4C534D33 		.ascii	"LSM303AGR_MAG_YOR_t\000"
 8608      30334147 
 8608      525F4D41 
 8608      475F594F 
 8608      525F7400 
 8609              	.LASF171:
 8610 1258 4C534D33 		.ascii	"LSM303AGR_MAG_W_LPF\000"
 8610      30334147 
 8610      525F4D41 
 8610      475F575F 
 8610      4C504600 
 8611              	.LASF148:
 8612 126c 4C534D33 		.ascii	"LSM303AGR_MAG_W_OFF_X_L\000"
 8612      30334147 
 8612      525F4D41 
 8612      475F575F 
 8612      4F46465F 
 8613              	.LASF39:
 8614 1284 4C534D33 		.ascii	"LSM303AGR_MAG_LPF_ENABLED\000"
 8614      30334147 
 8614      525F4D41 
 8614      475F4C50 
 8614      465F454E 
 8615              	.LASF220:
 8616 129e 2E2E2F2E 		.ascii	"../../../../../Drivers/BSP/Components/lsm303agr/LSM"
 8616      2E2F2E2E 
 8616      2F2E2E2F 
 8616      2E2E2F44 
 8616      72697665 
 8617 12d1 33303341 		.ascii	"303AGR_MAG_driver.c\000"
 8617      47525F4D 
 8617      41475F64 
 8617      72697665 
 8617      722E6300 
 8618              	.LASF197:
 8619 12e5 4C534D33 		.ascii	"LSM303AGR_MAG_W_YIEN\000"
 8619      30334147 
ARM GAS  /tmp/ccNUhamC.s 			page 167


 8619      525F4D41 
 8619      475F575F 
 8619      5949454E 
 8620              	.LASF204:
 8621 12fa 4C534D33 		.ascii	"LSM303AGR_MAG_R_N_TH_S_Y\000"
 8621      30334147 
 8621      525F4D41 
 8621      475F525F 
 8621      4E5F5448 
 8622              	.LASF48:
 8623 1313 4C534D33 		.ascii	"LSM303AGR_MAG_INT_ON_DATAOFF_ENABLED\000"
 8623      30334147 
 8623      525F4D41 
 8623      475F494E 
 8623      545F4F4E 
 8624              	.LASF207:
 8625 1338 4C534D33 		.ascii	"LSM303AGR_MAG_R_P_TH_S_Y\000"
 8625      30334147 
 8625      525F4D41 
 8625      475F525F 
 8625      505F5448 
 8626              	.LASF167:
 8627 1351 4C534D33 		.ascii	"LSM303AGR_MAG_W_LP\000"
 8627      30334147 
 8627      525F4D41 
 8627      475F575F 
 8627      4C5000
 8628              	.LASF53:
 8629 1364 4C534D33 		.ascii	"LSM303AGR_MAG_ST_DISABLED\000"
 8629      30334147 
 8629      525F4D41 
 8629      475F5354 
 8629      5F444953 
 8630              	.LASF168:
 8631 137e 4C534D33 		.ascii	"LSM303AGR_MAG_R_LP\000"
 8631      30334147 
 8631      525F4D41 
 8631      475F525F 
 8631      4C5000
 8632              	.LASF26:
 8633 1391 4C534D33 		.ascii	"LSM303AGR_MAG_MD_t\000"
 8633      30334147 
 8633      525F4D41 
 8633      475F4D44 
 8633      5F7400
 8634              	.LASF131:
 8635 13a4 68616E64 		.ascii	"handle\000"
 8635      6C6500
 8636              	.LASF146:
 8637 13ab 4C534D33 		.ascii	"LSM303AGR_MAG_W_ODR\000"
 8637      30334147 
 8637      525F4D41 
 8637      475F575F 
 8637      4F445200 
 8638              	.LASF91:
 8639 13bf 4C534D33 		.ascii	"LSM303AGR_MAG_N_TH_S_Z_t\000"
 8639      30334147 
ARM GAS  /tmp/ccNUhamC.s 			page 168


 8639      525F4D41 
 8639      475F4E5F 
 8639      54485F53 
 8640              	.LASF165:
 8641 13d8 4C534D33 		.ascii	"LSM303AGR_MAG_Set_MagOff\000"
 8641      30334147 
 8641      525F4D41 
 8641      475F5365 
 8641      745F4D61 
 8642              	.LASF125:
 8643 13f1 4C534D33 		.ascii	"LSM303AGR_MAG_ZOR_EV_OFF\000"
 8643      30334147 
 8643      525F4D41 
 8643      475F5A4F 
 8643      525F4556 
 8644              	.LASF49:
 8645 140a 4C534D33 		.ascii	"LSM303AGR_MAG_INT_ON_DATAOFF_t\000"
 8645      30334147 
 8645      525F4D41 
 8645      475F494E 
 8645      545F4F4E 
 8646              	.LASF155:
 8647 1429 4C534D33 		.ascii	"LSM303AGR_MAG_R_OFF_Y_H\000"
 8647      30334147 
 8647      525F4D41 
 8647      475F525F 
 8647      4F46465F 
 8648              	.LASF110:
 8649 1441 4C534D33 		.ascii	"LSM303AGR_MAG_YDA_EV_OFF\000"
 8649      30334147 
 8649      525F4D41 
 8649      475F5944 
 8649      415F4556 
 8650              	.LASF118:
 8651 145a 4C534D33 		.ascii	"LSM303AGR_MAG_ZYXDA_t\000"
 8651      30334147 
 8651      525F4D41 
 8651      475F5A59 
 8651      5844415F 
 8652              	.LASF84:
 8653 1470 4C534D33 		.ascii	"LSM303AGR_MAG_INT_EV_ON\000"
 8653      30334147 
 8653      525F4D41 
 8653      475F494E 
 8653      545F4556 
 8654              	.LASF193:
 8655 1488 4C534D33 		.ascii	"LSM303AGR_MAG_W_IEA\000"
 8655      30334147 
 8655      525F4D41 
 8655      475F575F 
 8655      49454100 
 8656              	.LASF205:
 8657 149c 4C534D33 		.ascii	"LSM303AGR_MAG_R_N_TH_S_X\000"
 8657      30334147 
 8657      525F4D41 
 8657      475F525F 
 8657      4E5F5448 
ARM GAS  /tmp/ccNUhamC.s 			page 169


 8658              	.LASF68:
 8659 14b5 4C534D33 		.ascii	"LSM303AGR_MAG_IEL_PULSED\000"
 8659      30334147 
 8659      525F4D41 
 8659      475F4945 
 8659      4C5F5055 
 8660              	.LASF101:
 8661 14ce 4C534D33 		.ascii	"LSM303AGR_MAG_P_TH_S_Y_EV_OFF\000"
 8661      30334147 
 8661      525F4D41 
 8661      475F505F 
 8661      54485F53 
 8662              	.LASF33:
 8663 14ec 4C534D33 		.ascii	"LSM303AGR_MAG_LP_MODE\000"
 8663      30334147 
 8663      525F4D41 
 8663      475F4C50 
 8663      5F4D4F44 
 8664              		.ident	"GCC: (GNU Tools for ARM Embedded Processors) 4.8.4 20140526 (release) [ARM/embedded-4_8-br
ARM GAS  /tmp/ccNUhamC.s 			page 170


DEFINED SYMBOLS
                            *ABS*:00000000 LSM303AGR_MAG_driver.c
     /tmp/ccNUhamC.s:18     .text:00000000 $t
     /tmp/ccNUhamC.s:24     .text:00000000 LSM303AGR_MAG_WriteReg
     /tmp/ccNUhamC.s:72     .text:00000040 LSM303AGR_MAG_ReadReg
     /tmp/ccNUhamC.s:119    .text:00000080 LSM303AGR_MAG_R_WHO_AM_I
     /tmp/ccNUhamC.s:172    .text:000000c0 LSM303AGR_MAG_W_BDU
     /tmp/ccNUhamC.s:242    .text:00000130 LSM303AGR_MAG_R_BDU
     /tmp/ccNUhamC.s:292    .text:00000170 LSM303AGR_MAG_W_MD
     /tmp/ccNUhamC.s:362    .text:000001e0 LSM303AGR_MAG_R_MD
     /tmp/ccNUhamC.s:412    .text:00000220 LSM303AGR_MAG_Get_Raw_Magnetic
     /tmp/ccNUhamC.s:455    .text:00000250 LSM303AGR_MAG_Get_Magnetic
     /tmp/ccNUhamC.s:524    .text:000002c8 $d
     /tmp/ccNUhamC.s:528    .text:000002cc $t
     /tmp/ccNUhamC.s:534    .text:000002d0 LSM303AGR_MAG_W_ODR
     /tmp/ccNUhamC.s:604    .text:00000340 LSM303AGR_MAG_R_ODR
     /tmp/ccNUhamC.s:654    .text:00000380 LSM303AGR_MAG_W_OFF_X_L
     /tmp/ccNUhamC.s:722    .text:000003e0 LSM303AGR_MAG_R_OFF_X_L
     /tmp/ccNUhamC.s:775    .text:00000420 LSM303AGR_MAG_W_OFF_X_H
     /tmp/ccNUhamC.s:843    .text:00000480 LSM303AGR_MAG_R_OFF_X_H
     /tmp/ccNUhamC.s:896    .text:000004c0 LSM303AGR_MAG_W_OFF_Y_L
     /tmp/ccNUhamC.s:964    .text:00000520 LSM303AGR_MAG_R_OFF_Y_L
     /tmp/ccNUhamC.s:1017   .text:00000560 LSM303AGR_MAG_W_OFF_Y_H
     /tmp/ccNUhamC.s:1085   .text:000005c0 LSM303AGR_MAG_R_OFF_Y_H
     /tmp/ccNUhamC.s:1138   .text:00000600 LSM303AGR_MAG_W_OFF_Z_L
     /tmp/ccNUhamC.s:1206   .text:00000660 LSM303AGR_MAG_R_OFF_Z_L
     /tmp/ccNUhamC.s:1259   .text:000006a0 LSM303AGR_MAG_W_OFF_Z_H
     /tmp/ccNUhamC.s:1327   .text:00000700 LSM303AGR_MAG_Get_MagOff
     /tmp/ccNUhamC.s:1491   .text:00000820 LSM303AGR_MAG_R_OFF_Z_H
     /tmp/ccNUhamC.s:1418   .text:000007a0 LSM303AGR_MAG_Set_MagOff
     /tmp/ccNUhamC.s:1544   .text:00000860 LSM303AGR_MAG_W_LP
     /tmp/ccNUhamC.s:1614   .text:000008d0 LSM303AGR_MAG_R_LP
     /tmp/ccNUhamC.s:1664   .text:00000910 LSM303AGR_MAG_W_SOFT_RST
     /tmp/ccNUhamC.s:1734   .text:00000980 LSM303AGR_MAG_R_SOFT_RST
     /tmp/ccNUhamC.s:1784   .text:000009c0 LSM303AGR_MAG_W_LPF
     /tmp/ccNUhamC.s:1854   .text:00000a30 LSM303AGR_MAG_R_LPF
     /tmp/ccNUhamC.s:1904   .text:00000a70 LSM303AGR_MAG_W_OFF_CANC
     /tmp/ccNUhamC.s:1974   .text:00000ae0 LSM303AGR_MAG_R_OFF_CANC
     /tmp/ccNUhamC.s:2024   .text:00000b20 LSM303AGR_MAG_W_SET_FREQ
     /tmp/ccNUhamC.s:2094   .text:00000b90 LSM303AGR_MAG_R_SET_FREQ
     /tmp/ccNUhamC.s:2144   .text:00000bd0 LSM303AGR_MAG_W_INT_ON_DATAOFF
     /tmp/ccNUhamC.s:2214   .text:00000c40 LSM303AGR_MAG_R_INT_ON_DATAOFF
     /tmp/ccNUhamC.s:2264   .text:00000c80 LSM303AGR_MAG_W_INT_MAG
     /tmp/ccNUhamC.s:2334   .text:00000cf0 LSM303AGR_MAG_R_INT_MAG
     /tmp/ccNUhamC.s:2384   .text:00000d30 LSM303AGR_MAG_W_ST
     /tmp/ccNUhamC.s:2454   .text:00000da0 LSM303AGR_MAG_R_ST
     /tmp/ccNUhamC.s:2504   .text:00000de0 LSM303AGR_MAG_W_BLE
     /tmp/ccNUhamC.s:2574   .text:00000e50 LSM303AGR_MAG_R_BLE
     /tmp/ccNUhamC.s:2624   .text:00000e90 LSM303AGR_MAG_W_I2C_DIS
     /tmp/ccNUhamC.s:2694   .text:00000f00 LSM303AGR_MAG_R_I2C_DIS
     /tmp/ccNUhamC.s:2744   .text:00000f40 LSM303AGR_MAG_W_INT_MAG_PIN
     /tmp/ccNUhamC.s:2814   .text:00000fb0 LSM303AGR_MAG_R_INT_MAG_PIN
     /tmp/ccNUhamC.s:2864   .text:00000ff0 LSM303AGR_MAG_W_IEN
     /tmp/ccNUhamC.s:2934   .text:00001060 LSM303AGR_MAG_R_IEN
     /tmp/ccNUhamC.s:2984   .text:000010a0 LSM303AGR_MAG_W_IEL
     /tmp/ccNUhamC.s:3054   .text:00001110 LSM303AGR_MAG_R_IEL
     /tmp/ccNUhamC.s:3104   .text:00001150 LSM303AGR_MAG_W_IEA
ARM GAS  /tmp/ccNUhamC.s 			page 171


     /tmp/ccNUhamC.s:3174   .text:000011c0 LSM303AGR_MAG_R_IEA
     /tmp/ccNUhamC.s:3224   .text:00001200 LSM303AGR_MAG_W_ZIEN
     /tmp/ccNUhamC.s:3294   .text:00001270 LSM303AGR_MAG_R_ZIEN
     /tmp/ccNUhamC.s:3344   .text:000012b0 LSM303AGR_MAG_W_YIEN
     /tmp/ccNUhamC.s:3414   .text:00001320 LSM303AGR_MAG_R_YIEN
     /tmp/ccNUhamC.s:3464   .text:00001360 LSM303AGR_MAG_W_XIEN
     /tmp/ccNUhamC.s:3534   .text:000013d0 LSM303AGR_MAG_R_XIEN
     /tmp/ccNUhamC.s:3584   .text:00001410 LSM303AGR_MAG_R_INT
     /tmp/ccNUhamC.s:3634   .text:00001450 LSM303AGR_MAG_R_MROI
     /tmp/ccNUhamC.s:3684   .text:00001490 LSM303AGR_MAG_R_N_TH_S_Z
     /tmp/ccNUhamC.s:3734   .text:000014d0 LSM303AGR_MAG_R_N_TH_S_Y
     /tmp/ccNUhamC.s:3784   .text:00001510 LSM303AGR_MAG_R_N_TH_S_X
     /tmp/ccNUhamC.s:3834   .text:00001550 LSM303AGR_MAG_R_P_TH_S_Z
     /tmp/ccNUhamC.s:3884   .text:00001590 LSM303AGR_MAG_R_P_TH_S_Y
     /tmp/ccNUhamC.s:3934   .text:000015d0 LSM303AGR_MAG_R_P_TH_S_X
     /tmp/ccNUhamC.s:3984   .text:00001610 LSM303AGR_MAG_R_XDA
     /tmp/ccNUhamC.s:4034   .text:00001650 LSM303AGR_MAG_R_YDA
     /tmp/ccNUhamC.s:4084   .text:00001690 LSM303AGR_MAG_R_ZDA
     /tmp/ccNUhamC.s:4134   .text:000016d0 LSM303AGR_MAG_R_ZYXDA
     /tmp/ccNUhamC.s:4184   .text:00001710 LSM303AGR_MAG_R_XOR
     /tmp/ccNUhamC.s:4234   .text:00001750 LSM303AGR_MAG_R_YOR
     /tmp/ccNUhamC.s:4284   .text:00001790 LSM303AGR_MAG_R_ZOR
     /tmp/ccNUhamC.s:4334   .text:000017d0 LSM303AGR_MAG_R_ZYXOR
     /tmp/ccNUhamC.s:4384   .text:00001810 LSM303AGR_MAG_Get_IntThreshld
     /tmp/ccNUhamC.s:4472   .text:000018a0 LSM303AGR_MAG_Set_IntThreshld
                     .debug_frame:00000010 $d

UNDEFINED SYMBOLS
Sensor_IO_Write
Sensor_IO_Read
