ARM GAS  /tmp/ccHvf4Lz.s 			page 1


   1              		.syntax unified
   2              		.cpu cortex-m4
   3              		.fpu softvfp
   4              		.eabi_attribute 20, 1
   5              		.eabi_attribute 21, 1
   6              		.eabi_attribute 23, 3
   7              		.eabi_attribute 24, 1
   8              		.eabi_attribute 25, 1
   9              		.eabi_attribute 26, 1
  10              		.eabi_attribute 30, 6
  11              		.eabi_attribute 34, 1
  12              		.eabi_attribute 18, 4
  13              		.thumb
  14              		.file	"LSM303AGR_ACC_driver_HL.c"
  15              		.text
  16              	.Ltext0:
  17              		.cfi_sections	.debug_frame
  18              		.global	LSM303AGR_X_Drv
  19              		.data
  20              		.align	2
  21              		.type	LSM303AGR_X_Drv, %object
  22              		.size	LSM303AGR_X_Drv, 80
  23              	LSM303AGR_X_Drv:
  24 0000 00000000 		.word	LSM303AGR_X_Init
  25 0004 00000000 		.word	LSM303AGR_X_DeInit
  26 0008 00000000 		.word	LSM303AGR_X_Sensor_Enable
  27 000c 00000000 		.word	LSM303AGR_X_Sensor_Disable
  28 0010 00000000 		.word	LSM303AGR_X_Get_WhoAmI
  29 0014 00000000 		.word	LSM303AGR_X_Check_WhoAmI
  30 0018 00000000 		.word	LSM303AGR_X_Get_Axes
  31 001c 00000000 		.word	LSM303AGR_X_Get_AxesRaw
  32 0020 00000000 		.word	LSM303AGR_X_Get_Sensitivity
  33 0024 00000000 		.word	LSM303AGR_X_Get_ODR
  34 0028 00000000 		.word	LSM303AGR_X_Set_ODR
  35 002c 00000000 		.word	LSM303AGR_X_Set_ODR_Value
  36 0030 00000000 		.word	LSM303AGR_X_Get_FS
  37 0034 00000000 		.word	LSM303AGR_X_Set_FS
  38 0038 00000000 		.word	LSM303AGR_X_Set_FS_Value
  39 003c 00000000 		.word	LSM303AGR_X_Get_Axes_Status
  40 0040 00000000 		.word	LSM303AGR_X_Set_Axes_Status
  41 0044 00000000 		.word	LSM303AGR_X_Read_Reg
  42 0048 00000000 		.word	LSM303AGR_X_Write_Reg
  43 004c 00000000 		.word	LSM303AGR_X_Get_DRDY_Status
  44              		.comm	LSM303AGR_Combo_Data,2,4
  45              		.section	.rodata
  46              		.align	2
  47              	.LC0:
  48 0000 01       		.byte	1
  49 0001 01       		.byte	1
  50 0002 01       		.byte	1
  51 0003 00       		.text
  52              		.align	2
  53              		.p2align 4,,15
  54              		.thumb
  55              		.thumb_func
  56              		.type	LSM303AGR_X_Init, %function
  57              	LSM303AGR_X_Init:
ARM GAS  /tmp/ccHvf4Lz.s 			page 2


  58              	.LFB0:
  59              		.file 1 "../../../../../Drivers/BSP/Components/lsm303agr/LSM303AGR_ACC_driver_HL.c"
  60              		.loc 1 155 0
  61              		.cfi_startproc
  62              		@ args = 0, pretend = 0, frame = 24
  63              		@ frame_needed = 0, uses_anonymous_args = 0
  64 0000 00B5     		push	{lr}
  65              		.cfi_def_cfa_offset 4
  66              		.cfi_offset 14, -4
  67 0002 87B0     		sub	sp, sp, #28
  68              		.cfi_def_cfa_offset 32
  69 0004 0190     		str	r0, [sp, #4]
  70              		.loc 1 157 0
  71 0006 294A     		ldr	r2, .L10
  72 0008 02AB     		add	r3, sp, #8
  73 000a 1188     		ldrh	r1, [r2]	@ unaligned
  74 000c 9278     		ldrb	r2, [r2, #2]
  75 000e 1980     		strh	r1, [r3]	@ unaligned
  76 0010 9A70     		strb	r2, [r3, #2]
  77              		.loc 1 158 0
  78 0012 019B     		ldr	r3, [sp, #4]
  79 0014 9B68     		ldr	r3, [r3, #8]
  80 0016 0593     		str	r3, [sp, #20]
  81              		.loc 1 159 0
  82 0018 059B     		ldr	r3, [sp, #20]
  83 001a 1B68     		ldr	r3, [r3]
  84 001c 0493     		str	r3, [sp, #16]
  85              		.loc 1 160 0
  86 001e 049B     		ldr	r3, [sp, #16]
  87 0020 1B68     		ldr	r3, [r3]
  88 0022 0393     		str	r3, [sp, #12]
  89              		.loc 1 162 0
  90 0024 0198     		ldr	r0, [sp, #4]
  91 0026 00F0EBF8 		bl	LSM303AGR_X_Check_WhoAmI
  92 002a 0346     		mov	r3, r0
  93 002c 012B     		cmp	r3, #1
  94 002e 01D1     		bne	.L2
  95              		.loc 1 164 0
  96 0030 0123     		movs	r3, #1
  97 0032 37E0     		b	.L9
  98              	.L2:
  99              		.loc 1 168 0
 100 0034 0198     		ldr	r0, [sp, #4]
 101 0036 8021     		movs	r1, #128
 102 0038 FFF7FEFF 		bl	LSM303AGR_ACC_W_BlockDataUpdate
 103 003c 0346     		mov	r3, r0
 104 003e 002B     		cmp	r3, #0
 105 0040 01D1     		bne	.L4
 106              		.loc 1 170 0
 107 0042 0123     		movs	r3, #1
 108 0044 2EE0     		b	.L9
 109              	.L4:
 110              		.loc 1 174 0
 111 0046 0198     		ldr	r0, [sp, #4]
 112 0048 0021     		movs	r1, #0
 113 004a FFF7FEFF 		bl	LSM303AGR_ACC_W_FifoMode
 114 004e 0346     		mov	r3, r0
ARM GAS  /tmp/ccHvf4Lz.s 			page 3


 115 0050 002B     		cmp	r3, #0
 116 0052 01D1     		bne	.L5
 117              		.loc 1 176 0
 118 0054 0123     		movs	r3, #1
 119 0056 25E0     		b	.L9
 120              	.L5:
 121              		.loc 1 180 0
 122 0058 049B     		ldr	r3, [sp, #16]
 123 005a 154A     		ldr	r2, .L10+4
 124 005c 5A60     		str	r2, [r3, #4]	@ float
 125              		.loc 1 183 0
 126 005e 0198     		ldr	r0, [sp, #4]
 127 0060 0021     		movs	r1, #0
 128 0062 FFF7FEFF 		bl	LSM303AGR_ACC_W_ODR
 129 0066 0346     		mov	r3, r0
 130 0068 002B     		cmp	r3, #0
 131 006a 01D1     		bne	.L6
 132              		.loc 1 185 0
 133 006c 0123     		movs	r3, #1
 134 006e 19E0     		b	.L9
 135              	.L6:
 136              		.loc 1 189 0
 137 0070 0198     		ldr	r0, [sp, #4]
 138 0072 0021     		movs	r1, #0
 139 0074 00F064FA 		bl	LSM303AGR_X_Set_FS
 140 0078 0346     		mov	r3, r0
 141 007a 012B     		cmp	r3, #1
 142 007c 01D1     		bne	.L7
 143              		.loc 1 191 0
 144 007e 0123     		movs	r3, #1
 145 0080 10E0     		b	.L9
 146              	.L7:
 147              		.loc 1 195 0
 148 0082 02AB     		add	r3, sp, #8
 149 0084 0198     		ldr	r0, [sp, #4]
 150 0086 1946     		mov	r1, r3
 151 0088 00F00AFB 		bl	LSM303AGR_X_Set_Axes_Status
 152 008c 0346     		mov	r3, r0
 153 008e 012B     		cmp	r3, #1
 154 0090 01D1     		bne	.L8
 155              		.loc 1 197 0
 156 0092 0123     		movs	r3, #1
 157 0094 06E0     		b	.L9
 158              	.L8:
 159              		.loc 1 200 0
 160 0096 039B     		ldr	r3, [sp, #12]
 161 0098 0122     		movs	r2, #1
 162 009a 1A70     		strb	r2, [r3]
 163              		.loc 1 202 0
 164 009c 019B     		ldr	r3, [sp, #4]
 165 009e 0122     		movs	r2, #1
 166 00a0 5A71     		strb	r2, [r3, #5]
 167              		.loc 1 204 0
 168 00a2 0023     		movs	r3, #0
 169              	.L9:
 170              		.loc 1 205 0
 171 00a4 1846     		mov	r0, r3
ARM GAS  /tmp/ccHvf4Lz.s 			page 4


 172 00a6 07B0     		add	sp, sp, #28
 173              		@ sp needed
 174 00a8 5DF804FB 		ldr	pc, [sp], #4
 175              	.L11:
 176              		.align	2
 177              	.L10:
 178 00ac 00000000 		.word	.LC0
 179 00b0 0000C842 		.word	1120403456
 180              		.cfi_endproc
 181              	.LFE0:
 182              		.size	LSM303AGR_X_Init, .-LSM303AGR_X_Init
 183              		.align	2
 184 00b4 AFF30080 		.p2align 4,,15
 184      AFF30080 
 184      AFF30080 
 185              		.thumb
 186              		.thumb_func
 187              		.type	LSM303AGR_X_DeInit, %function
 188              	LSM303AGR_X_DeInit:
 189              	.LFB1:
 190              		.loc 1 215 0
 191              		.cfi_startproc
 192              		@ args = 0, pretend = 0, frame = 24
 193              		@ frame_needed = 0, uses_anonymous_args = 0
 194 00c0 00B5     		push	{lr}
 195              		.cfi_def_cfa_offset 4
 196              		.cfi_offset 14, -4
 197 00c2 87B0     		sub	sp, sp, #28
 198              		.cfi_def_cfa_offset 32
 199 00c4 0190     		str	r0, [sp, #4]
 200              		.loc 1 217 0
 201 00c6 019B     		ldr	r3, [sp, #4]
 202 00c8 9B68     		ldr	r3, [r3, #8]
 203 00ca 0593     		str	r3, [sp, #20]
 204              		.loc 1 218 0
 205 00cc 059B     		ldr	r3, [sp, #20]
 206 00ce 1B68     		ldr	r3, [r3]
 207 00d0 0493     		str	r3, [sp, #16]
 208              		.loc 1 219 0
 209 00d2 049B     		ldr	r3, [sp, #16]
 210 00d4 1B68     		ldr	r3, [r3]
 211 00d6 0393     		str	r3, [sp, #12]
 212              		.loc 1 221 0
 213 00d8 0198     		ldr	r0, [sp, #4]
 214 00da 00F091F8 		bl	LSM303AGR_X_Check_WhoAmI
 215 00de 0346     		mov	r3, r0
 216 00e0 012B     		cmp	r3, #1
 217 00e2 01D1     		bne	.L13
 218              		.loc 1 223 0
 219 00e4 0123     		movs	r3, #1
 220 00e6 12E0     		b	.L14
 221              	.L13:
 222              		.loc 1 227 0
 223 00e8 0198     		ldr	r0, [sp, #4]
 224 00ea 00F041F8 		bl	LSM303AGR_X_Sensor_Disable
 225 00ee 0346     		mov	r3, r0
 226 00f0 012B     		cmp	r3, #1
ARM GAS  /tmp/ccHvf4Lz.s 			page 5


 227 00f2 01D1     		bne	.L15
 228              		.loc 1 229 0
 229 00f4 0123     		movs	r3, #1
 230 00f6 0AE0     		b	.L14
 231              	.L15:
 232              		.loc 1 233 0
 233 00f8 049B     		ldr	r3, [sp, #16]
 234 00fa 4FF00002 		mov	r2, #0
 235 00fe 5A60     		str	r2, [r3, #4]	@ float
 236              		.loc 1 235 0
 237 0100 039B     		ldr	r3, [sp, #12]
 238 0102 0022     		movs	r2, #0
 239 0104 1A70     		strb	r2, [r3]
 240              		.loc 1 237 0
 241 0106 019B     		ldr	r3, [sp, #4]
 242 0108 0022     		movs	r2, #0
 243 010a 5A71     		strb	r2, [r3, #5]
 244              		.loc 1 239 0
 245 010c 0023     		movs	r3, #0
 246              	.L14:
 247              		.loc 1 240 0
 248 010e 1846     		mov	r0, r3
 249 0110 07B0     		add	sp, sp, #28
 250              		@ sp needed
 251 0112 5DF804FB 		ldr	pc, [sp], #4
 252              		.cfi_endproc
 253              	.LFE1:
 254              		.size	LSM303AGR_X_DeInit, .-LSM303AGR_X_DeInit
 255 0116 00BF     		.align	2
 256 0118 AFF30080 		.p2align 4,,15
 256      AFF30080 
 257              		.thumb
 258              		.thumb_func
 259              		.type	LSM303AGR_X_Sensor_Enable, %function
 260              	LSM303AGR_X_Sensor_Enable:
 261              	.LFB2:
 262              		.loc 1 251 0
 263              		.cfi_startproc
 264              		@ args = 0, pretend = 0, frame = 16
 265              		@ frame_needed = 0, uses_anonymous_args = 0
 266 0120 00B5     		push	{lr}
 267              		.cfi_def_cfa_offset 4
 268              		.cfi_offset 14, -4
 269 0122 85B0     		sub	sp, sp, #20
 270              		.cfi_def_cfa_offset 24
 271 0124 0190     		str	r0, [sp, #4]
 272              		.loc 1 252 0
 273 0126 019B     		ldr	r3, [sp, #4]
 274 0128 9B68     		ldr	r3, [r3, #8]
 275 012a 0393     		str	r3, [sp, #12]
 276              		.loc 1 253 0
 277 012c 039B     		ldr	r3, [sp, #12]
 278 012e 1B68     		ldr	r3, [r3]
 279 0130 0293     		str	r3, [sp, #8]
 280              		.loc 1 256 0
 281 0132 019B     		ldr	r3, [sp, #4]
 282 0134 9B79     		ldrb	r3, [r3, #6]	@ zero_extendqisi2
ARM GAS  /tmp/ccHvf4Lz.s 			page 6


 283 0136 012B     		cmp	r3, #1
 284 0138 01D1     		bne	.L17
 285              		.loc 1 258 0
 286 013a 0023     		movs	r3, #0
 287 013c 0EE0     		b	.L18
 288              	.L17:
 289              		.loc 1 262 0
 290 013e 029B     		ldr	r3, [sp, #8]
 291 0140 5B68     		ldr	r3, [r3, #4]	@ float
 292 0142 0198     		ldr	r0, [sp, #4]
 293 0144 1946     		mov	r1, r3
 294 0146 00F04BFC 		bl	LSM303AGR_X_Set_ODR_Value_When_Enabled
 295 014a 0346     		mov	r3, r0
 296 014c 012B     		cmp	r3, #1
 297 014e 01D1     		bne	.L19
 298              		.loc 1 264 0
 299 0150 0123     		movs	r3, #1
 300 0152 03E0     		b	.L18
 301              	.L19:
 302              		.loc 1 267 0
 303 0154 019B     		ldr	r3, [sp, #4]
 304 0156 0122     		movs	r2, #1
 305 0158 9A71     		strb	r2, [r3, #6]
 306              		.loc 1 269 0
 307 015a 0023     		movs	r3, #0
 308              	.L18:
 309              		.loc 1 270 0
 310 015c 1846     		mov	r0, r3
 311 015e 05B0     		add	sp, sp, #20
 312              		@ sp needed
 313 0160 5DF804FB 		ldr	pc, [sp], #4
 314              		.cfi_endproc
 315              	.LFE2:
 316              		.size	LSM303AGR_X_Sensor_Enable, .-LSM303AGR_X_Sensor_Enable
 317              		.align	2
 318 0164 AFF30080 		.p2align 4,,15
 318      AFF30080 
 318      AFF30080 
 319              		.thumb
 320              		.thumb_func
 321              		.type	LSM303AGR_X_Sensor_Disable, %function
 322              	LSM303AGR_X_Sensor_Disable:
 323              	.LFB3:
 324              		.loc 1 281 0
 325              		.cfi_startproc
 326              		@ args = 0, pretend = 0, frame = 16
 327              		@ frame_needed = 0, uses_anonymous_args = 0
 328 0170 00B5     		push	{lr}
 329              		.cfi_def_cfa_offset 4
 330              		.cfi_offset 14, -4
 331 0172 85B0     		sub	sp, sp, #20
 332              		.cfi_def_cfa_offset 24
 333 0174 0190     		str	r0, [sp, #4]
 334              		.loc 1 282 0
 335 0176 019B     		ldr	r3, [sp, #4]
 336 0178 9B68     		ldr	r3, [r3, #8]
 337 017a 0393     		str	r3, [sp, #12]
ARM GAS  /tmp/ccHvf4Lz.s 			page 7


 338              		.loc 1 283 0
 339 017c 039B     		ldr	r3, [sp, #12]
 340 017e 1B68     		ldr	r3, [r3]
 341 0180 0293     		str	r3, [sp, #8]
 342              		.loc 1 286 0
 343 0182 019B     		ldr	r3, [sp, #4]
 344 0184 9B79     		ldrb	r3, [r3, #6]	@ zero_extendqisi2
 345 0186 002B     		cmp	r3, #0
 346 0188 01D1     		bne	.L21
 347              		.loc 1 288 0
 348 018a 0023     		movs	r3, #0
 349 018c 17E0     		b	.L22
 350              	.L21:
 351              		.loc 1 292 0
 352 018e 029B     		ldr	r3, [sp, #8]
 353 0190 0433     		adds	r3, r3, #4
 354 0192 0198     		ldr	r0, [sp, #4]
 355 0194 1946     		mov	r1, r3
 356 0196 00F0E3F8 		bl	LSM303AGR_X_Get_ODR
 357 019a 0346     		mov	r3, r0
 358 019c 012B     		cmp	r3, #1
 359 019e 01D1     		bne	.L23
 360              		.loc 1 294 0
 361 01a0 0123     		movs	r3, #1
 362 01a2 0CE0     		b	.L22
 363              	.L23:
 364              		.loc 1 298 0
 365 01a4 0198     		ldr	r0, [sp, #4]
 366 01a6 0021     		movs	r1, #0
 367 01a8 FFF7FEFF 		bl	LSM303AGR_ACC_W_ODR
 368 01ac 0346     		mov	r3, r0
 369 01ae 002B     		cmp	r3, #0
 370 01b0 01D1     		bne	.L24
 371              		.loc 1 300 0
 372 01b2 0123     		movs	r3, #1
 373 01b4 03E0     		b	.L22
 374              	.L24:
 375              		.loc 1 303 0
 376 01b6 019B     		ldr	r3, [sp, #4]
 377 01b8 0022     		movs	r2, #0
 378 01ba 9A71     		strb	r2, [r3, #6]
 379              		.loc 1 305 0
 380 01bc 0023     		movs	r3, #0
 381              	.L22:
 382              		.loc 1 306 0
 383 01be 1846     		mov	r0, r3
 384 01c0 05B0     		add	sp, sp, #20
 385              		@ sp needed
 386 01c2 5DF804FB 		ldr	pc, [sp], #4
 387              		.cfi_endproc
 388              	.LFE3:
 389              		.size	LSM303AGR_X_Sensor_Disable, .-LSM303AGR_X_Sensor_Disable
 390 01c6 00BF     		.align	2
 391 01c8 AFF30080 		.p2align 4,,15
 391      AFF30080 
 392              		.thumb
 393              		.thumb_func
ARM GAS  /tmp/ccHvf4Lz.s 			page 8


 394              		.type	LSM303AGR_X_Get_WhoAmI, %function
 395              	LSM303AGR_X_Get_WhoAmI:
 396              	.LFB4:
 397              		.loc 1 317 0
 398              		.cfi_startproc
 399              		@ args = 0, pretend = 0, frame = 8
 400              		@ frame_needed = 0, uses_anonymous_args = 0
 401 01d0 00B5     		push	{lr}
 402              		.cfi_def_cfa_offset 4
 403              		.cfi_offset 14, -4
 404 01d2 83B0     		sub	sp, sp, #12
 405              		.cfi_def_cfa_offset 16
 406 01d4 0190     		str	r0, [sp, #4]
 407 01d6 0091     		str	r1, [sp]
 408              		.loc 1 320 0
 409 01d8 0198     		ldr	r0, [sp, #4]
 410 01da 0099     		ldr	r1, [sp]
 411 01dc FFF7FEFF 		bl	LSM303AGR_ACC_R_WHO_AM_I
 412 01e0 0346     		mov	r3, r0
 413 01e2 002B     		cmp	r3, #0
 414 01e4 01D1     		bne	.L26
 415              		.loc 1 322 0
 416 01e6 0123     		movs	r3, #1
 417 01e8 00E0     		b	.L27
 418              	.L26:
 419              		.loc 1 325 0
 420 01ea 0023     		movs	r3, #0
 421              	.L27:
 422              		.loc 1 326 0
 423 01ec 1846     		mov	r0, r3
 424 01ee 03B0     		add	sp, sp, #12
 425              		@ sp needed
 426 01f0 5DF804FB 		ldr	pc, [sp], #4
 427              		.cfi_endproc
 428              	.LFE4:
 429              		.size	LSM303AGR_X_Get_WhoAmI, .-LSM303AGR_X_Get_WhoAmI
 430              		.align	2
 431 01f4 AFF30080 		.p2align 4,,15
 431      AFF30080 
 431      AFF30080 
 432              		.thumb
 433              		.thumb_func
 434              		.type	LSM303AGR_X_Check_WhoAmI, %function
 435              	LSM303AGR_X_Check_WhoAmI:
 436              	.LFB5:
 437              		.loc 1 335 0
 438              		.cfi_startproc
 439              		@ args = 0, pretend = 0, frame = 16
 440              		@ frame_needed = 0, uses_anonymous_args = 0
 441 0200 00B5     		push	{lr}
 442              		.cfi_def_cfa_offset 4
 443              		.cfi_offset 14, -4
 444 0202 85B0     		sub	sp, sp, #20
 445              		.cfi_def_cfa_offset 24
 446 0204 0190     		str	r0, [sp, #4]
 447              		.loc 1 337 0
 448 0206 0023     		movs	r3, #0
ARM GAS  /tmp/ccHvf4Lz.s 			page 9


 449 0208 8DF80F30 		strb	r3, [sp, #15]
 450              		.loc 1 339 0
 451 020c 0DF10F03 		add	r3, sp, #15
 452 0210 0198     		ldr	r0, [sp, #4]
 453 0212 1946     		mov	r1, r3
 454 0214 FFF7DCFF 		bl	LSM303AGR_X_Get_WhoAmI
 455 0218 0346     		mov	r3, r0
 456 021a 012B     		cmp	r3, #1
 457 021c 01D1     		bne	.L29
 458              		.loc 1 341 0
 459 021e 0123     		movs	r3, #1
 460 0220 08E0     		b	.L32
 461              	.L29:
 462              		.loc 1 343 0
 463 0222 019B     		ldr	r3, [sp, #4]
 464 0224 1A78     		ldrb	r2, [r3]	@ zero_extendqisi2
 465 0226 9DF80F30 		ldrb	r3, [sp, #15]	@ zero_extendqisi2
 466 022a 9A42     		cmp	r2, r3
 467 022c 01D0     		beq	.L31
 468              		.loc 1 345 0
 469 022e 0123     		movs	r3, #1
 470 0230 00E0     		b	.L32
 471              	.L31:
 472              		.loc 1 348 0
 473 0232 0023     		movs	r3, #0
 474              	.L32:
 475              		.loc 1 349 0
 476 0234 1846     		mov	r0, r3
 477 0236 05B0     		add	sp, sp, #20
 478              		@ sp needed
 479 0238 5DF804FB 		ldr	pc, [sp], #4
 480              		.cfi_endproc
 481              	.LFE5:
 482              		.size	LSM303AGR_X_Check_WhoAmI, .-LSM303AGR_X_Check_WhoAmI
 483              		.align	2
 484 023c AFF30080 		.p2align 4,,15
 485              		.thumb
 486              		.thumb_func
 487              		.type	LSM303AGR_X_Get_Axes, %function
 488              	LSM303AGR_X_Get_Axes:
 489              	.LFB6:
 490              		.loc 1 360 0
 491              		.cfi_startproc
 492              		@ args = 0, pretend = 0, frame = 24
 493              		@ frame_needed = 0, uses_anonymous_args = 0
 494 0240 00B5     		push	{lr}
 495              		.cfi_def_cfa_offset 4
 496              		.cfi_offset 14, -4
 497 0242 87B0     		sub	sp, sp, #28
 498              		.cfi_def_cfa_offset 32
 499 0244 0190     		str	r0, [sp, #4]
 500 0246 0091     		str	r1, [sp]
 501              		.loc 1 365 0
 502 0248 03AB     		add	r3, sp, #12
 503 024a 0198     		ldr	r0, [sp, #4]
 504 024c 1946     		mov	r1, r3
 505 024e FFF7FEFF 		bl	LSM303AGR_ACC_Get_Acceleration
ARM GAS  /tmp/ccHvf4Lz.s 			page 10


 506 0252 0346     		mov	r3, r0
 507 0254 002B     		cmp	r3, #0
 508 0256 01D1     		bne	.L34
 509              		.loc 1 367 0
 510 0258 0123     		movs	r3, #1
 511 025a 09E0     		b	.L36
 512              	.L34:
 513              		.loc 1 371 0
 514 025c 039A     		ldr	r2, [sp, #12]
 515 025e 009B     		ldr	r3, [sp]
 516 0260 1A60     		str	r2, [r3]
 517              		.loc 1 372 0
 518 0262 049A     		ldr	r2, [sp, #16]
 519 0264 009B     		ldr	r3, [sp]
 520 0266 5A60     		str	r2, [r3, #4]
 521              		.loc 1 373 0
 522 0268 059A     		ldr	r2, [sp, #20]
 523 026a 009B     		ldr	r3, [sp]
 524 026c 9A60     		str	r2, [r3, #8]
 525              		.loc 1 375 0
 526 026e 0023     		movs	r3, #0
 527              	.L36:
 528              		.loc 1 376 0
 529 0270 1846     		mov	r0, r3
 530 0272 07B0     		add	sp, sp, #28
 531              		@ sp needed
 532 0274 5DF804FB 		ldr	pc, [sp], #4
 533              		.cfi_endproc
 534              	.LFE6:
 535              		.size	LSM303AGR_X_Get_Axes, .-LSM303AGR_X_Get_Axes
 536              		.align	2
 537 0278 AFF30080 		.p2align 4,,15
 537      AFF30080 
 538              		.thumb
 539              		.thumb_func
 540              		.type	LSM303AGR_X_Get_AxesRaw, %function
 541              	LSM303AGR_X_Get_AxesRaw:
 542              	.LFB7:
 543              		.loc 1 386 0
 544              		.cfi_startproc
 545              		@ args = 0, pretend = 0, frame = 16
 546              		@ frame_needed = 0, uses_anonymous_args = 0
 547 0280 00B5     		push	{lr}
 548              		.cfi_def_cfa_offset 4
 549              		.cfi_offset 14, -4
 550 0282 85B0     		sub	sp, sp, #20
 551              		.cfi_def_cfa_offset 24
 552 0284 0190     		str	r0, [sp, #4]
 553 0286 0091     		str	r1, [sp]
 554              		.loc 1 391 0
 555 0288 02AB     		add	r3, sp, #8
 556 028a 0198     		ldr	r0, [sp, #4]
 557 028c 1946     		mov	r1, r3
 558 028e 00F0AFFA 		bl	LSM303AGR_X_Get_Axes_Raw
 559 0292 0346     		mov	r3, r0
 560 0294 012B     		cmp	r3, #1
 561 0296 01D1     		bne	.L38
ARM GAS  /tmp/ccHvf4Lz.s 			page 11


 562              		.loc 1 393 0
 563 0298 0123     		movs	r3, #1
 564 029a 0CE0     		b	.L40
 565              	.L38:
 566              		.loc 1 397 0
 567 029c BDF80820 		ldrh	r2, [sp, #8]
 568 02a0 009B     		ldr	r3, [sp]
 569 02a2 1A80     		strh	r2, [r3]	@ movhi
 570              		.loc 1 398 0
 571 02a4 BDF80A20 		ldrh	r2, [sp, #10]
 572 02a8 009B     		ldr	r3, [sp]
 573 02aa 5A80     		strh	r2, [r3, #2]	@ movhi
 574              		.loc 1 399 0
 575 02ac BDF80C20 		ldrh	r2, [sp, #12]
 576 02b0 009B     		ldr	r3, [sp]
 577 02b2 9A80     		strh	r2, [r3, #4]	@ movhi
 578              		.loc 1 401 0
 579 02b4 0023     		movs	r3, #0
 580              	.L40:
 581              		.loc 1 402 0
 582 02b6 1846     		mov	r0, r3
 583 02b8 05B0     		add	sp, sp, #20
 584              		@ sp needed
 585 02ba 5DF804FB 		ldr	pc, [sp], #4
 586              		.cfi_endproc
 587              	.LFE7:
 588              		.size	LSM303AGR_X_Get_AxesRaw, .-LSM303AGR_X_Get_AxesRaw
 589 02be 00BF     		.align	2
 590              		.p2align 4,,15
 591              		.thumb
 592              		.thumb_func
 593              		.type	LSM303AGR_X_Get_Sensitivity, %function
 594              	LSM303AGR_X_Get_Sensitivity:
 595              	.LFB8:
 596              		.loc 1 414 0
 597              		.cfi_startproc
 598              		@ args = 0, pretend = 0, frame = 16
 599              		@ frame_needed = 0, uses_anonymous_args = 0
 600 02c0 00B5     		push	{lr}
 601              		.cfi_def_cfa_offset 4
 602              		.cfi_offset 14, -4
 603 02c2 85B0     		sub	sp, sp, #20
 604              		.cfi_def_cfa_offset 24
 605 02c4 0190     		str	r0, [sp, #4]
 606 02c6 0091     		str	r1, [sp]
 607              		.loc 1 420 0
 608 02c8 0DF10F03 		add	r3, sp, #15
 609 02cc 0198     		ldr	r0, [sp, #4]
 610 02ce 1946     		mov	r1, r3
 611 02d0 FFF7FEFF 		bl	LSM303AGR_ACC_R_LOWPWR_EN
 612 02d4 0346     		mov	r3, r0
 613 02d6 002B     		cmp	r3, #0
 614 02d8 01D1     		bne	.L42
 615              		.loc 1 422 0
 616 02da 0123     		movs	r3, #1
 617 02dc 35E0     		b	.L48
 618              	.L42:
ARM GAS  /tmp/ccHvf4Lz.s 			page 12


 619              		.loc 1 426 0
 620 02de 0DF10E03 		add	r3, sp, #14
 621 02e2 0198     		ldr	r0, [sp, #4]
 622 02e4 1946     		mov	r1, r3
 623 02e6 FFF7FEFF 		bl	LSM303AGR_ACC_R_HiRes
 624 02ea 0346     		mov	r3, r0
 625 02ec 002B     		cmp	r3, #0
 626 02ee 01D1     		bne	.L44
 627              		.loc 1 428 0
 628 02f0 0123     		movs	r3, #1
 629 02f2 2AE0     		b	.L48
 630              	.L44:
 631              		.loc 1 431 0
 632 02f4 9DF80F30 		ldrb	r3, [sp, #15]	@ zero_extendqisi2
 633 02f8 002B     		cmp	r3, #0
 634 02fa 09D1     		bne	.L45
 635              		.loc 1 431 0 is_stmt 0 discriminator 1
 636 02fc 9DF80E30 		ldrb	r3, [sp, #14]	@ zero_extendqisi2
 637 0300 002B     		cmp	r3, #0
 638 0302 05D1     		bne	.L45
 639              		.loc 1 434 0 is_stmt 1
 640 0304 0198     		ldr	r0, [sp, #4]
 641 0306 0099     		ldr	r1, [sp]
 642 0308 00F01AFC 		bl	LSM303AGR_X_Get_Sensitivity_Normal_Mode
 643 030c 0346     		mov	r3, r0
 644 030e 1CE0     		b	.L48
 645              	.L45:
 646              		.loc 1 436 0
 647 0310 9DF80F30 		ldrb	r3, [sp, #15]	@ zero_extendqisi2
 648 0314 082B     		cmp	r3, #8
 649 0316 09D1     		bne	.L46
 650              		.loc 1 436 0 is_stmt 0 discriminator 1
 651 0318 9DF80E30 		ldrb	r3, [sp, #14]	@ zero_extendqisi2
 652 031c 002B     		cmp	r3, #0
 653 031e 05D1     		bne	.L46
 654              		.loc 1 439 0 is_stmt 1
 655 0320 0198     		ldr	r0, [sp, #4]
 656 0322 0099     		ldr	r1, [sp]
 657 0324 00F054FC 		bl	LSM303AGR_X_Get_Sensitivity_LP_Mode
 658 0328 0346     		mov	r3, r0
 659 032a 0EE0     		b	.L48
 660              	.L46:
 661              		.loc 1 441 0
 662 032c 9DF80F30 		ldrb	r3, [sp, #15]	@ zero_extendqisi2
 663 0330 002B     		cmp	r3, #0
 664 0332 09D1     		bne	.L47
 665              		.loc 1 441 0 is_stmt 0 discriminator 1
 666 0334 9DF80E30 		ldrb	r3, [sp, #14]	@ zero_extendqisi2
 667 0338 082B     		cmp	r3, #8
 668 033a 05D1     		bne	.L47
 669              		.loc 1 444 0 is_stmt 1
 670 033c 0198     		ldr	r0, [sp, #4]
 671 033e 0099     		ldr	r1, [sp]
 672 0340 00F08EFC 		bl	LSM303AGR_X_Get_Sensitivity_HR_Mode
 673 0344 0346     		mov	r3, r0
 674 0346 00E0     		b	.L48
 675              	.L47:
ARM GAS  /tmp/ccHvf4Lz.s 			page 13


 676              		.loc 1 449 0
 677 0348 0123     		movs	r3, #1
 678              	.L48:
 679              		.loc 1 451 0
 680 034a 1846     		mov	r0, r3
 681 034c 05B0     		add	sp, sp, #20
 682              		@ sp needed
 683 034e 5DF804FB 		ldr	pc, [sp], #4
 684              		.cfi_endproc
 685              	.LFE8:
 686              		.size	LSM303AGR_X_Get_Sensitivity, .-LSM303AGR_X_Get_Sensitivity
 687 0352 00BF     		.align	2
 688 0354 AFF30080 		.p2align 4,,15
 688      AFF30080 
 688      AFF30080 
 689              		.thumb
 690              		.thumb_func
 691              		.type	LSM303AGR_X_Get_ODR, %function
 692              	LSM303AGR_X_Get_ODR:
 693              	.LFB9:
 694              		.loc 1 463 0
 695              		.cfi_startproc
 696              		@ args = 0, pretend = 0, frame = 16
 697              		@ frame_needed = 0, uses_anonymous_args = 0
 698 0360 00B5     		push	{lr}
 699              		.cfi_def_cfa_offset 4
 700              		.cfi_offset 14, -4
 701 0362 85B0     		sub	sp, sp, #20
 702              		.cfi_def_cfa_offset 24
 703 0364 0190     		str	r0, [sp, #4]
 704 0366 0091     		str	r1, [sp]
 705              		.loc 1 467 0
 706 0368 0DF10F03 		add	r3, sp, #15
 707 036c 0198     		ldr	r0, [sp, #4]
 708 036e 1946     		mov	r1, r3
 709 0370 FFF7FEFF 		bl	LSM303AGR_ACC_R_ODR
 710 0374 0346     		mov	r3, r0
 711 0376 002B     		cmp	r3, #0
 712 0378 01D1     		bne	.L50
 713              		.loc 1 469 0
 714 037a 0123     		movs	r3, #1
 715 037c 40E0     		b	.L64
 716              	.L50:
 717              		.loc 1 472 0
 718 037e 9DF80F30 		ldrb	r3, [sp, #15]	@ zero_extendqisi2
 719 0382 302B     		cmp	r3, #48
 720 0384 22D0     		beq	.L53
 721 0386 302B     		cmp	r3, #48
 722 0388 06DC     		bgt	.L54
 723 038a 102B     		cmp	r3, #16
 724 038c 15D0     		beq	.L55
 725 038e 202B     		cmp	r3, #32
 726 0390 18D0     		beq	.L56
 727 0392 002B     		cmp	r3, #0
 728 0394 0CD0     		beq	.L57
 729 0396 2DE0     		b	.L52
 730              	.L54:
ARM GAS  /tmp/ccHvf4Lz.s 			page 14


 731 0398 502B     		cmp	r3, #80
 732 039a 1FD0     		beq	.L58
 733 039c 502B     		cmp	r3, #80
 734 039e 02DC     		bgt	.L59
 735 03a0 402B     		cmp	r3, #64
 736 03a2 17D0     		beq	.L60
 737 03a4 26E0     		b	.L52
 738              	.L59:
 739 03a6 602B     		cmp	r3, #96
 740 03a8 1CD0     		beq	.L61
 741 03aa 702B     		cmp	r3, #112
 742 03ac 1ED0     		beq	.L62
 743 03ae 21E0     		b	.L52
 744              	.L57:
 745              		.loc 1 475 0
 746 03b0 009B     		ldr	r3, [sp]
 747 03b2 4FF00002 		mov	r2, #0
 748 03b6 1A60     		str	r2, [r3]	@ float
 749              		.loc 1 476 0
 750 03b8 21E0     		b	.L63
 751              	.L55:
 752              		.loc 1 478 0
 753 03ba 009B     		ldr	r3, [sp]
 754 03bc 4FF07E52 		mov	r2, #1065353216
 755 03c0 1A60     		str	r2, [r3]	@ float
 756              		.loc 1 479 0
 757 03c2 1CE0     		b	.L63
 758              	.L56:
 759              		.loc 1 481 0
 760 03c4 009B     		ldr	r3, [sp]
 761 03c6 104A     		ldr	r2, .L65
 762 03c8 1A60     		str	r2, [r3]	@ float
 763              		.loc 1 482 0
 764 03ca 18E0     		b	.L63
 765              	.L53:
 766              		.loc 1 484 0
 767 03cc 009B     		ldr	r3, [sp]
 768 03ce 0F4A     		ldr	r2, .L65+4
 769 03d0 1A60     		str	r2, [r3]	@ float
 770              		.loc 1 485 0
 771 03d2 14E0     		b	.L63
 772              	.L60:
 773              		.loc 1 487 0
 774 03d4 009B     		ldr	r3, [sp]
 775 03d6 0E4A     		ldr	r2, .L65+8
 776 03d8 1A60     		str	r2, [r3]	@ float
 777              		.loc 1 488 0
 778 03da 10E0     		b	.L63
 779              	.L58:
 780              		.loc 1 490 0
 781 03dc 009B     		ldr	r3, [sp]
 782 03de 0D4A     		ldr	r2, .L65+12
 783 03e0 1A60     		str	r2, [r3]	@ float
 784              		.loc 1 491 0
 785 03e2 0CE0     		b	.L63
 786              	.L61:
 787              		.loc 1 493 0
ARM GAS  /tmp/ccHvf4Lz.s 			page 15


 788 03e4 009B     		ldr	r3, [sp]
 789 03e6 0C4A     		ldr	r2, .L65+16
 790 03e8 1A60     		str	r2, [r3]	@ float
 791              		.loc 1 494 0
 792 03ea 08E0     		b	.L63
 793              	.L62:
 794              		.loc 1 496 0
 795 03ec 009B     		ldr	r3, [sp]
 796 03ee 0B4A     		ldr	r2, .L65+20
 797 03f0 1A60     		str	r2, [r3]	@ float
 798              		.loc 1 497 0
 799 03f2 04E0     		b	.L63
 800              	.L52:
 801              		.loc 1 499 0
 802 03f4 009B     		ldr	r3, [sp]
 803 03f6 0A4A     		ldr	r2, .L65+24
 804 03f8 1A60     		str	r2, [r3]	@ float
 805              		.loc 1 500 0
 806 03fa 0123     		movs	r3, #1
 807 03fc 00E0     		b	.L64
 808              	.L63:
 809              		.loc 1 503 0
 810 03fe 0023     		movs	r3, #0
 811              	.L64:
 812              		.loc 1 504 0
 813 0400 1846     		mov	r0, r3
 814 0402 05B0     		add	sp, sp, #20
 815              		@ sp needed
 816 0404 5DF804FB 		ldr	pc, [sp], #4
 817              	.L66:
 818              		.align	2
 819              	.L65:
 820 0408 00002041 		.word	1092616192
 821 040c 0000C841 		.word	1103626240
 822 0410 00004842 		.word	1112014848
 823 0414 0000C842 		.word	1120403456
 824 0418 00004843 		.word	1128792064
 825 041c 0000C843 		.word	1137180672
 826 0420 000080BF 		.word	-1082130432
 827              		.cfi_endproc
 828              	.LFE9:
 829              		.size	LSM303AGR_X_Get_ODR, .-LSM303AGR_X_Get_ODR
 830              		.align	2
 831 0424 AFF30080 		.p2align 4,,15
 831      AFF30080 
 831      AFF30080 
 832              		.thumb
 833              		.thumb_func
 834              		.type	LSM303AGR_X_Set_ODR, %function
 835              	LSM303AGR_X_Set_ODR:
 836              	.LFB10:
 837              		.loc 1 516 0
 838              		.cfi_startproc
 839              		@ args = 0, pretend = 0, frame = 8
 840              		@ frame_needed = 0, uses_anonymous_args = 0
 841 0430 00B5     		push	{lr}
 842              		.cfi_def_cfa_offset 4
ARM GAS  /tmp/ccHvf4Lz.s 			page 16


 843              		.cfi_offset 14, -4
 844 0432 83B0     		sub	sp, sp, #12
 845              		.cfi_def_cfa_offset 16
 846 0434 0190     		str	r0, [sp, #4]
 847 0436 0B46     		mov	r3, r1
 848 0438 8DF80330 		strb	r3, [sp, #3]
 849              		.loc 1 518 0
 850 043c 019B     		ldr	r3, [sp, #4]
 851 043e 9B79     		ldrb	r3, [r3, #6]	@ zero_extendqisi2
 852 0440 012B     		cmp	r3, #1
 853 0442 0AD1     		bne	.L68
 854              		.loc 1 520 0
 855 0444 9DF80330 		ldrb	r3, [sp, #3]	@ zero_extendqisi2
 856 0448 0198     		ldr	r0, [sp, #4]
 857 044a 1946     		mov	r1, r3
 858 044c 00F048FA 		bl	LSM303AGR_X_Set_ODR_When_Enabled
 859 0450 0346     		mov	r3, r0
 860 0452 012B     		cmp	r3, #1
 861 0454 0CD1     		bne	.L69
 862              		.loc 1 522 0
 863 0456 0123     		movs	r3, #1
 864 0458 0BE0     		b	.L70
 865              	.L68:
 866              		.loc 1 527 0
 867 045a 9DF80330 		ldrb	r3, [sp, #3]	@ zero_extendqisi2
 868 045e 0198     		ldr	r0, [sp, #4]
 869 0460 1946     		mov	r1, r3
 870 0462 00F07DFA 		bl	LSM303AGR_X_Set_ODR_When_Disabled
 871 0466 0346     		mov	r3, r0
 872 0468 012B     		cmp	r3, #1
 873 046a 01D1     		bne	.L69
 874              		.loc 1 529 0
 875 046c 0123     		movs	r3, #1
 876 046e 00E0     		b	.L70
 877              	.L69:
 878              		.loc 1 533 0
 879 0470 0023     		movs	r3, #0
 880              	.L70:
 881              		.loc 1 534 0
 882 0472 1846     		mov	r0, r3
 883 0474 03B0     		add	sp, sp, #12
 884              		@ sp needed
 885 0476 5DF804FB 		ldr	pc, [sp], #4
 886              		.cfi_endproc
 887              	.LFE10:
 888              		.size	LSM303AGR_X_Set_ODR, .-LSM303AGR_X_Set_ODR
 889 047a 00BF     		.align	2
 890 047c AFF30080 		.p2align 4,,15
 891              		.thumb
 892              		.thumb_func
 893              		.type	LSM303AGR_X_Set_ODR_Value, %function
 894              	LSM303AGR_X_Set_ODR_Value:
 895              	.LFB11:
 896              		.loc 1 546 0
 897              		.cfi_startproc
 898              		@ args = 0, pretend = 0, frame = 8
 899              		@ frame_needed = 0, uses_anonymous_args = 0
ARM GAS  /tmp/ccHvf4Lz.s 			page 17


 900 0480 00B5     		push	{lr}
 901              		.cfi_def_cfa_offset 4
 902              		.cfi_offset 14, -4
 903 0482 83B0     		sub	sp, sp, #12
 904              		.cfi_def_cfa_offset 16
 905 0484 0190     		str	r0, [sp, #4]
 906 0486 0091     		str	r1, [sp]	@ float
 907              		.loc 1 548 0
 908 0488 019B     		ldr	r3, [sp, #4]
 909 048a 9B79     		ldrb	r3, [r3, #6]	@ zero_extendqisi2
 910 048c 012B     		cmp	r3, #1
 911 048e 08D1     		bne	.L72
 912              		.loc 1 550 0
 913 0490 0198     		ldr	r0, [sp, #4]
 914 0492 0099     		ldr	r1, [sp]	@ float
 915 0494 00F0A4FA 		bl	LSM303AGR_X_Set_ODR_Value_When_Enabled
 916 0498 0346     		mov	r3, r0
 917 049a 012B     		cmp	r3, #1
 918 049c 0AD1     		bne	.L73
 919              		.loc 1 552 0
 920 049e 0123     		movs	r3, #1
 921 04a0 09E0     		b	.L74
 922              	.L72:
 923              		.loc 1 557 0
 924 04a2 0198     		ldr	r0, [sp, #4]
 925 04a4 0099     		ldr	r1, [sp]	@ float
 926 04a6 00F0F3FA 		bl	LSM303AGR_X_Set_ODR_Value_When_Disabled
 927 04aa 0346     		mov	r3, r0
 928 04ac 012B     		cmp	r3, #1
 929 04ae 01D1     		bne	.L73
 930              		.loc 1 559 0
 931 04b0 0123     		movs	r3, #1
 932 04b2 00E0     		b	.L74
 933              	.L73:
 934              		.loc 1 563 0
 935 04b4 0023     		movs	r3, #0
 936              	.L74:
 937              		.loc 1 564 0
 938 04b6 1846     		mov	r0, r3
 939 04b8 03B0     		add	sp, sp, #12
 940              		@ sp needed
 941 04ba 5DF804FB 		ldr	pc, [sp], #4
 942              		.cfi_endproc
 943              	.LFE11:
 944              		.size	LSM303AGR_X_Set_ODR_Value, .-LSM303AGR_X_Set_ODR_Value
 945 04be 00BF     		.align	2
 946              		.p2align 4,,15
 947              		.thumb
 948              		.thumb_func
 949              		.type	LSM303AGR_X_Get_FS, %function
 950              	LSM303AGR_X_Get_FS:
 951              	.LFB12:
 952              		.loc 1 576 0
 953              		.cfi_startproc
 954              		@ args = 0, pretend = 0, frame = 16
 955              		@ frame_needed = 0, uses_anonymous_args = 0
 956 04c0 00B5     		push	{lr}
ARM GAS  /tmp/ccHvf4Lz.s 			page 18


 957              		.cfi_def_cfa_offset 4
 958              		.cfi_offset 14, -4
 959 04c2 85B0     		sub	sp, sp, #20
 960              		.cfi_def_cfa_offset 24
 961 04c4 0190     		str	r0, [sp, #4]
 962 04c6 0091     		str	r1, [sp]
 963              		.loc 1 580 0
 964 04c8 0DF10F03 		add	r3, sp, #15
 965 04cc 0198     		ldr	r0, [sp, #4]
 966 04ce 1946     		mov	r1, r3
 967 04d0 FFF7FEFF 		bl	LSM303AGR_ACC_R_FullScale
 968 04d4 0346     		mov	r3, r0
 969 04d6 002B     		cmp	r3, #0
 970 04d8 01D1     		bne	.L76
 971              		.loc 1 582 0
 972 04da 0123     		movs	r3, #1
 973 04dc 27E0     		b	.L85
 974              	.L76:
 975              		.loc 1 585 0
 976 04de 9DF80F30 		ldrb	r3, [sp, #15]	@ zero_extendqisi2
 977 04e2 102B     		cmp	r3, #16
 978 04e4 0ED0     		beq	.L79
 979 04e6 102B     		cmp	r3, #16
 980 04e8 02DC     		bgt	.L80
 981 04ea 002B     		cmp	r3, #0
 982 04ec 05D0     		beq	.L81
 983 04ee 18E0     		b	.L78
 984              	.L80:
 985 04f0 202B     		cmp	r3, #32
 986 04f2 0CD0     		beq	.L82
 987 04f4 302B     		cmp	r3, #48
 988 04f6 0FD0     		beq	.L83
 989 04f8 13E0     		b	.L78
 990              	.L81:
 991              		.loc 1 588 0
 992 04fa 009B     		ldr	r3, [sp]
 993 04fc 4FF08042 		mov	r2, #1073741824
 994 0500 1A60     		str	r2, [r3]	@ float
 995              		.loc 1 589 0
 996 0502 13E0     		b	.L84
 997              	.L79:
 998              		.loc 1 591 0
 999 0504 009B     		ldr	r3, [sp]
 1000 0506 4FF08142 		mov	r2, #1082130432
 1001 050a 1A60     		str	r2, [r3]	@ float
 1002              		.loc 1 592 0
 1003 050c 0EE0     		b	.L84
 1004              	.L82:
 1005              		.loc 1 594 0
 1006 050e 009B     		ldr	r3, [sp]
 1007 0510 4FF08242 		mov	r2, #1090519040
 1008 0514 1A60     		str	r2, [r3]	@ float
 1009              		.loc 1 595 0
 1010 0516 09E0     		b	.L84
 1011              	.L83:
 1012              		.loc 1 597 0
 1013 0518 009B     		ldr	r3, [sp]
ARM GAS  /tmp/ccHvf4Lz.s 			page 19


 1014 051a 4FF08342 		mov	r2, #1098907648
 1015 051e 1A60     		str	r2, [r3]	@ float
 1016              		.loc 1 598 0
 1017 0520 04E0     		b	.L84
 1018              	.L78:
 1019              		.loc 1 600 0
 1020 0522 009B     		ldr	r3, [sp]
 1021 0524 044A     		ldr	r2, .L86
 1022 0526 1A60     		str	r2, [r3]	@ float
 1023              		.loc 1 601 0
 1024 0528 0123     		movs	r3, #1
 1025 052a 00E0     		b	.L85
 1026              	.L84:
 1027              		.loc 1 604 0
 1028 052c 0023     		movs	r3, #0
 1029              	.L85:
 1030              		.loc 1 605 0
 1031 052e 1846     		mov	r0, r3
 1032 0530 05B0     		add	sp, sp, #20
 1033              		@ sp needed
 1034 0532 5DF804FB 		ldr	pc, [sp], #4
 1035              	.L87:
 1036 0536 00BF     		.align	2
 1037              	.L86:
 1038 0538 000080BF 		.word	-1082130432
 1039              		.cfi_endproc
 1040              	.LFE12:
 1041              		.size	LSM303AGR_X_Get_FS, .-LSM303AGR_X_Get_FS
 1042              		.align	2
 1043 053c AFF30080 		.p2align 4,,15
 1044              		.thumb
 1045              		.thumb_func
 1046              		.type	LSM303AGR_X_Set_FS, %function
 1047              	LSM303AGR_X_Set_FS:
 1048              	.LFB13:
 1049              		.loc 1 617 0
 1050              		.cfi_startproc
 1051              		@ args = 0, pretend = 0, frame = 16
 1052              		@ frame_needed = 0, uses_anonymous_args = 0
 1053 0540 00B5     		push	{lr}
 1054              		.cfi_def_cfa_offset 4
 1055              		.cfi_offset 14, -4
 1056 0542 85B0     		sub	sp, sp, #20
 1057              		.cfi_def_cfa_offset 24
 1058 0544 0190     		str	r0, [sp, #4]
 1059 0546 0B46     		mov	r3, r1
 1060 0548 8DF80330 		strb	r3, [sp, #3]
 1061              		.loc 1 621 0
 1062 054c 9DF80330 		ldrb	r3, [sp, #3]	@ zero_extendqisi2
 1063 0550 022B     		cmp	r3, #2
 1064 0552 07D0     		beq	.L90
 1065 0554 042B     		cmp	r3, #4
 1066 0556 09D0     		beq	.L91
 1067 0558 002B     		cmp	r3, #0
 1068 055a 0BD1     		bne	.L96
 1069              		.loc 1 624 0
 1070 055c 0023     		movs	r3, #0
ARM GAS  /tmp/ccHvf4Lz.s 			page 20


 1071 055e 8DF80F30 		strb	r3, [sp, #15]
 1072              		.loc 1 625 0
 1073 0562 09E0     		b	.L93
 1074              	.L90:
 1075              		.loc 1 627 0
 1076 0564 1023     		movs	r3, #16
 1077 0566 8DF80F30 		strb	r3, [sp, #15]
 1078              		.loc 1 628 0
 1079 056a 05E0     		b	.L93
 1080              	.L91:
 1081              		.loc 1 630 0
 1082 056c 2023     		movs	r3, #32
 1083 056e 8DF80F30 		strb	r3, [sp, #15]
 1084              		.loc 1 631 0
 1085 0572 01E0     		b	.L93
 1086              	.L96:
 1087              		.loc 1 633 0
 1088 0574 0123     		movs	r3, #1
 1089 0576 0BE0     		b	.L94
 1090              	.L93:
 1091              		.loc 1 636 0
 1092 0578 9DF80F30 		ldrb	r3, [sp, #15]	@ zero_extendqisi2
 1093 057c 0198     		ldr	r0, [sp, #4]
 1094 057e 1946     		mov	r1, r3
 1095 0580 FFF7FEFF 		bl	LSM303AGR_ACC_W_FullScale
 1096 0584 0346     		mov	r3, r0
 1097 0586 002B     		cmp	r3, #0
 1098 0588 01D1     		bne	.L95
 1099              		.loc 1 638 0
 1100 058a 0123     		movs	r3, #1
 1101 058c 00E0     		b	.L94
 1102              	.L95:
 1103              		.loc 1 641 0
 1104 058e 0023     		movs	r3, #0
 1105              	.L94:
 1106              		.loc 1 642 0
 1107 0590 1846     		mov	r0, r3
 1108 0592 05B0     		add	sp, sp, #20
 1109              		@ sp needed
 1110 0594 5DF804FB 		ldr	pc, [sp], #4
 1111              		.cfi_endproc
 1112              	.LFE13:
 1113              		.size	LSM303AGR_X_Set_FS, .-LSM303AGR_X_Set_FS
 1114              		.global	__aeabi_fcmple
 1115              		.align	2
 1116 0598 AFF30080 		.p2align 4,,15
 1116      AFF30080 
 1117              		.thumb
 1118              		.thumb_func
 1119              		.type	LSM303AGR_X_Set_FS_Value, %function
 1120              	LSM303AGR_X_Set_FS_Value:
 1121              	.LFB14:
 1122              		.loc 1 654 0
 1123              		.cfi_startproc
 1124              		@ args = 0, pretend = 0, frame = 16
 1125              		@ frame_needed = 0, uses_anonymous_args = 0
 1126 05a0 00B5     		push	{lr}
ARM GAS  /tmp/ccHvf4Lz.s 			page 21


 1127              		.cfi_def_cfa_offset 4
 1128              		.cfi_offset 14, -4
 1129 05a2 85B0     		sub	sp, sp, #20
 1130              		.cfi_def_cfa_offset 24
 1131 05a4 0190     		str	r0, [sp, #4]
 1132 05a6 0091     		str	r1, [sp]	@ float
 1133              		.loc 1 658 0
 1134 05a8 0098     		ldr	r0, [sp]	@ float
 1135 05aa 4FF08041 		mov	r1, #1073741824
 1136 05ae FFF7FEFF 		bl	__aeabi_fcmple
 1137 05b2 0346     		mov	r3, r0
 1138 05b4 002B     		cmp	r3, #0
 1139 05b6 01D0     		beq	.L112
 1140              		.loc 1 658 0 is_stmt 0 discriminator 1
 1141 05b8 0023     		movs	r3, #0
 1142 05ba 14E0     		b	.L100
 1143              	.L112:
 1144              		.loc 1 658 0 discriminator 2
 1145 05bc 0098     		ldr	r0, [sp]	@ float
 1146 05be 4FF08141 		mov	r1, #1082130432
 1147 05c2 FFF7FEFF 		bl	__aeabi_fcmple
 1148 05c6 0346     		mov	r3, r0
 1149 05c8 002B     		cmp	r3, #0
 1150 05ca 01D0     		beq	.L113
 1151              		.loc 1 658 0 discriminator 3
 1152 05cc 1023     		movs	r3, #16
 1153 05ce 0AE0     		b	.L100
 1154              	.L113:
 1155              		.loc 1 658 0 discriminator 4
 1156 05d0 0098     		ldr	r0, [sp]	@ float
 1157 05d2 4FF08241 		mov	r1, #1090519040
 1158 05d6 FFF7FEFF 		bl	__aeabi_fcmple
 1159 05da 0346     		mov	r3, r0
 1160 05dc 002B     		cmp	r3, #0
 1161 05de 01D0     		beq	.L114
 1162              		.loc 1 658 0 discriminator 5
 1163 05e0 2023     		movs	r3, #32
 1164 05e2 00E0     		b	.L100
 1165              	.L114:
 1166              		.loc 1 658 0 discriminator 6
 1167 05e4 3023     		movs	r3, #48
 1168              	.L100:
 1169              		.loc 1 658 0 discriminator 9
 1170 05e6 8DF80F30 		strb	r3, [sp, #15]
 1171              		.loc 1 663 0 is_stmt 1 discriminator 9
 1172 05ea 9DF80F30 		ldrb	r3, [sp, #15]	@ zero_extendqisi2
 1173 05ee 0198     		ldr	r0, [sp, #4]
 1174 05f0 1946     		mov	r1, r3
 1175 05f2 FFF7FEFF 		bl	LSM303AGR_ACC_W_FullScale
 1176 05f6 0346     		mov	r3, r0
 1177 05f8 002B     		cmp	r3, #0
 1178 05fa 01D1     		bne	.L107
 1179              		.loc 1 665 0
 1180 05fc 0123     		movs	r3, #1
 1181 05fe 00E0     		b	.L108
 1182              	.L107:
 1183              		.loc 1 668 0
ARM GAS  /tmp/ccHvf4Lz.s 			page 22


 1184 0600 0023     		movs	r3, #0
 1185              	.L108:
 1186              		.loc 1 669 0
 1187 0602 1846     		mov	r0, r3
 1188 0604 05B0     		add	sp, sp, #20
 1189              		@ sp needed
 1190 0606 5DF804FB 		ldr	pc, [sp], #4
 1191              		.cfi_endproc
 1192              	.LFE14:
 1193              		.size	LSM303AGR_X_Set_FS_Value, .-LSM303AGR_X_Set_FS_Value
 1194 060a 00BF     		.align	2
 1195 060c AFF30080 		.p2align 4,,15
 1196              		.thumb
 1197              		.thumb_func
 1198              		.type	LSM303AGR_X_Get_Axes_Status, %function
 1199              	LSM303AGR_X_Get_Axes_Status:
 1200              	.LFB15:
 1201              		.loc 1 681 0
 1202              		.cfi_startproc
 1203              		@ args = 0, pretend = 0, frame = 16
 1204              		@ frame_needed = 0, uses_anonymous_args = 0
 1205 0610 00B5     		push	{lr}
 1206              		.cfi_def_cfa_offset 4
 1207              		.cfi_offset 14, -4
 1208 0612 85B0     		sub	sp, sp, #20
 1209              		.cfi_def_cfa_offset 24
 1210 0614 0190     		str	r0, [sp, #4]
 1211 0616 0091     		str	r1, [sp]
 1212              		.loc 1 687 0
 1213 0618 0DF10F03 		add	r3, sp, #15
 1214 061c 0198     		ldr	r0, [sp, #4]
 1215 061e 1946     		mov	r1, r3
 1216 0620 FFF7FEFF 		bl	LSM303AGR_ACC_R_XEN
 1217 0624 0346     		mov	r3, r0
 1218 0626 002B     		cmp	r3, #0
 1219 0628 01D1     		bne	.L116
 1220              		.loc 1 689 0
 1221 062a 0123     		movs	r3, #1
 1222 062c 34E0     		b	.L120
 1223              	.L116:
 1224              		.loc 1 691 0
 1225 062e 0DF10E03 		add	r3, sp, #14
 1226 0632 0198     		ldr	r0, [sp, #4]
 1227 0634 1946     		mov	r1, r3
 1228 0636 FFF7FEFF 		bl	LSM303AGR_ACC_R_YEN
 1229 063a 0346     		mov	r3, r0
 1230 063c 002B     		cmp	r3, #0
 1231 063e 01D1     		bne	.L118
 1232              		.loc 1 693 0
 1233 0640 0123     		movs	r3, #1
 1234 0642 29E0     		b	.L120
 1235              	.L118:
 1236              		.loc 1 695 0
 1237 0644 0DF10D03 		add	r3, sp, #13
 1238 0648 0198     		ldr	r0, [sp, #4]
 1239 064a 1946     		mov	r1, r3
 1240 064c FFF7FEFF 		bl	LSM303AGR_ACC_R_ZEN
ARM GAS  /tmp/ccHvf4Lz.s 			page 23


 1241 0650 0346     		mov	r3, r0
 1242 0652 002B     		cmp	r3, #0
 1243 0654 01D1     		bne	.L119
 1244              		.loc 1 697 0
 1245 0656 0123     		movs	r3, #1
 1246 0658 1EE0     		b	.L120
 1247              	.L119:
 1248              		.loc 1 700 0
 1249 065a 9DF80F30 		ldrb	r3, [sp, #15]	@ zero_extendqisi2
 1250 065e 012B     		cmp	r3, #1
 1251 0660 14BF     		ite	ne
 1252 0662 0023     		movne	r3, #0
 1253 0664 0123     		moveq	r3, #1
 1254 0666 DBB2     		uxtb	r3, r3
 1255 0668 1A46     		mov	r2, r3
 1256 066a 009B     		ldr	r3, [sp]
 1257 066c 1A70     		strb	r2, [r3]
 1258              		.loc 1 701 0
 1259 066e 009B     		ldr	r3, [sp]
 1260 0670 0133     		adds	r3, r3, #1
 1261 0672 9DF80E20 		ldrb	r2, [sp, #14]	@ zero_extendqisi2
 1262 0676 022A     		cmp	r2, #2
 1263 0678 14BF     		ite	ne
 1264 067a 0022     		movne	r2, #0
 1265 067c 0122     		moveq	r2, #1
 1266 067e D2B2     		uxtb	r2, r2
 1267 0680 1A70     		strb	r2, [r3]
 1268              		.loc 1 702 0
 1269 0682 009B     		ldr	r3, [sp]
 1270 0684 0233     		adds	r3, r3, #2
 1271 0686 9DF80D20 		ldrb	r2, [sp, #13]	@ zero_extendqisi2
 1272 068a 042A     		cmp	r2, #4
 1273 068c 14BF     		ite	ne
 1274 068e 0022     		movne	r2, #0
 1275 0690 0122     		moveq	r2, #1
 1276 0692 D2B2     		uxtb	r2, r2
 1277 0694 1A70     		strb	r2, [r3]
 1278              		.loc 1 704 0
 1279 0696 0023     		movs	r3, #0
 1280              	.L120:
 1281              		.loc 1 705 0
 1282 0698 1846     		mov	r0, r3
 1283 069a 05B0     		add	sp, sp, #20
 1284              		@ sp needed
 1285 069c 5DF804FB 		ldr	pc, [sp], #4
 1286              		.cfi_endproc
 1287              	.LFE15:
 1288              		.size	LSM303AGR_X_Get_Axes_Status, .-LSM303AGR_X_Get_Axes_Status
 1289              		.align	2
 1290              		.p2align 4,,15
 1291              		.thumb
 1292              		.thumb_func
 1293              		.type	LSM303AGR_X_Set_Axes_Status, %function
 1294              	LSM303AGR_X_Set_Axes_Status:
 1295              	.LFB16:
 1296              		.loc 1 717 0
 1297              		.cfi_startproc
ARM GAS  /tmp/ccHvf4Lz.s 			page 24


 1298              		@ args = 0, pretend = 0, frame = 8
 1299              		@ frame_needed = 0, uses_anonymous_args = 0
 1300 06a0 00B5     		push	{lr}
 1301              		.cfi_def_cfa_offset 4
 1302              		.cfi_offset 14, -4
 1303 06a2 83B0     		sub	sp, sp, #12
 1304              		.cfi_def_cfa_offset 16
 1305 06a4 0190     		str	r0, [sp, #4]
 1306 06a6 0091     		str	r1, [sp]
 1307              		.loc 1 720 0
 1308 06a8 009B     		ldr	r3, [sp]
 1309 06aa 1B78     		ldrb	r3, [r3]	@ zero_extendqisi2
 1310              		.loc 1 719 0
 1311 06ac 012B     		cmp	r3, #1
 1312 06ae 14BF     		ite	ne
 1313 06b0 0023     		movne	r3, #0
 1314 06b2 0123     		moveq	r3, #1
 1315 06b4 DBB2     		uxtb	r3, r3
 1316 06b6 0198     		ldr	r0, [sp, #4]
 1317 06b8 1946     		mov	r1, r3
 1318 06ba FFF7FEFF 		bl	LSM303AGR_ACC_W_XEN
 1319 06be 0346     		mov	r3, r0
 1320 06c0 002B     		cmp	r3, #0
 1321 06c2 01D1     		bne	.L122
 1322              		.loc 1 722 0
 1323 06c4 0123     		movs	r3, #1
 1324 06c6 22E0     		b	.L123
 1325              	.L122:
 1326              		.loc 1 726 0
 1327 06c8 009B     		ldr	r3, [sp]
 1328 06ca 0133     		adds	r3, r3, #1
 1329 06cc 1B78     		ldrb	r3, [r3]	@ zero_extendqisi2
 1330              		.loc 1 725 0
 1331 06ce 012B     		cmp	r3, #1
 1332 06d0 01D1     		bne	.L124
 1333              		.loc 1 725 0 is_stmt 0 discriminator 1
 1334 06d2 0223     		movs	r3, #2
 1335 06d4 00E0     		b	.L125
 1336              	.L124:
 1337              		.loc 1 725 0 discriminator 2
 1338 06d6 0023     		movs	r3, #0
 1339              	.L125:
 1340              		.loc 1 725 0 discriminator 3
 1341 06d8 0198     		ldr	r0, [sp, #4]
 1342 06da 1946     		mov	r1, r3
 1343 06dc FFF7FEFF 		bl	LSM303AGR_ACC_W_YEN
 1344 06e0 0346     		mov	r3, r0
 1345 06e2 002B     		cmp	r3, #0
 1346 06e4 01D1     		bne	.L126
 1347              		.loc 1 728 0 is_stmt 1
 1348 06e6 0123     		movs	r3, #1
 1349 06e8 11E0     		b	.L123
 1350              	.L126:
 1351              		.loc 1 732 0
 1352 06ea 009B     		ldr	r3, [sp]
 1353 06ec 0233     		adds	r3, r3, #2
 1354 06ee 1B78     		ldrb	r3, [r3]	@ zero_extendqisi2
ARM GAS  /tmp/ccHvf4Lz.s 			page 25


 1355              		.loc 1 731 0
 1356 06f0 012B     		cmp	r3, #1
 1357 06f2 01D1     		bne	.L127
 1358              		.loc 1 731 0 is_stmt 0 discriminator 1
 1359 06f4 0423     		movs	r3, #4
 1360 06f6 00E0     		b	.L128
 1361              	.L127:
 1362              		.loc 1 731 0 discriminator 2
 1363 06f8 0023     		movs	r3, #0
 1364              	.L128:
 1365              		.loc 1 731 0 discriminator 3
 1366 06fa 0198     		ldr	r0, [sp, #4]
 1367 06fc 1946     		mov	r1, r3
 1368 06fe FFF7FEFF 		bl	LSM303AGR_ACC_W_ZEN
 1369 0702 0346     		mov	r3, r0
 1370 0704 002B     		cmp	r3, #0
 1371 0706 01D1     		bne	.L129
 1372              		.loc 1 734 0 is_stmt 1
 1373 0708 0123     		movs	r3, #1
 1374 070a 00E0     		b	.L123
 1375              	.L129:
 1376              		.loc 1 737 0
 1377 070c 0023     		movs	r3, #0
 1378              	.L123:
 1379              		.loc 1 738 0
 1380 070e 1846     		mov	r0, r3
 1381 0710 03B0     		add	sp, sp, #12
 1382              		@ sp needed
 1383 0712 5DF804FB 		ldr	pc, [sp], #4
 1384              		.cfi_endproc
 1385              	.LFE16:
 1386              		.size	LSM303AGR_X_Set_Axes_Status, .-LSM303AGR_X_Set_Axes_Status
 1387 0716 00BF     		.align	2
 1388 0718 AFF30080 		.p2align 4,,15
 1388      AFF30080 
 1389              		.thumb
 1390              		.thumb_func
 1391              		.type	LSM303AGR_X_Read_Reg, %function
 1392              	LSM303AGR_X_Read_Reg:
 1393              	.LFB17:
 1394              		.loc 1 750 0
 1395              		.cfi_startproc
 1396              		@ args = 0, pretend = 0, frame = 16
 1397              		@ frame_needed = 0, uses_anonymous_args = 0
 1398 0720 00B5     		push	{lr}
 1399              		.cfi_def_cfa_offset 4
 1400              		.cfi_offset 14, -4
 1401 0722 85B0     		sub	sp, sp, #20
 1402              		.cfi_def_cfa_offset 24
 1403 0724 0390     		str	r0, [sp, #12]
 1404 0726 0B46     		mov	r3, r1
 1405 0728 0192     		str	r2, [sp, #4]
 1406 072a 8DF80B30 		strb	r3, [sp, #11]
 1407              		.loc 1 752 0
 1408 072e 9DF80B30 		ldrb	r3, [sp, #11]	@ zero_extendqisi2
 1409 0732 0398     		ldr	r0, [sp, #12]
 1410 0734 1946     		mov	r1, r3
ARM GAS  /tmp/ccHvf4Lz.s 			page 26


 1411 0736 019A     		ldr	r2, [sp, #4]
 1412 0738 0123     		movs	r3, #1
 1413 073a FFF7FEFF 		bl	LSM303AGR_ACC_ReadReg
 1414 073e 0346     		mov	r3, r0
 1415 0740 002B     		cmp	r3, #0
 1416 0742 01D1     		bne	.L131
 1417              		.loc 1 754 0
 1418 0744 0123     		movs	r3, #1
 1419 0746 00E0     		b	.L132
 1420              	.L131:
 1421              		.loc 1 757 0
 1422 0748 0023     		movs	r3, #0
 1423              	.L132:
 1424              		.loc 1 758 0
 1425 074a 1846     		mov	r0, r3
 1426 074c 05B0     		add	sp, sp, #20
 1427              		@ sp needed
 1428 074e 5DF804FB 		ldr	pc, [sp], #4
 1429              		.cfi_endproc
 1430              	.LFE17:
 1431              		.size	LSM303AGR_X_Read_Reg, .-LSM303AGR_X_Read_Reg
 1432 0752 00BF     		.align	2
 1433 0754 AFF30080 		.p2align 4,,15
 1433      AFF30080 
 1433      AFF30080 
 1434              		.thumb
 1435              		.thumb_func
 1436              		.type	LSM303AGR_X_Write_Reg, %function
 1437              	LSM303AGR_X_Write_Reg:
 1438              	.LFB18:
 1439              		.loc 1 771 0
 1440              		.cfi_startproc
 1441              		@ args = 0, pretend = 0, frame = 8
 1442              		@ frame_needed = 0, uses_anonymous_args = 0
 1443 0760 00B5     		push	{lr}
 1444              		.cfi_def_cfa_offset 4
 1445              		.cfi_offset 14, -4
 1446 0762 83B0     		sub	sp, sp, #12
 1447              		.cfi_def_cfa_offset 16
 1448 0764 0190     		str	r0, [sp, #4]
 1449 0766 1346     		mov	r3, r2
 1450 0768 0A46     		mov	r2, r1
 1451 076a 8DF80320 		strb	r2, [sp, #3]
 1452 076e 8DF80230 		strb	r3, [sp, #2]
 1453              		.loc 1 773 0
 1454 0772 9DF80320 		ldrb	r2, [sp, #3]	@ zero_extendqisi2
 1455 0776 0DF10203 		add	r3, sp, #2
 1456 077a 0198     		ldr	r0, [sp, #4]
 1457 077c 1146     		mov	r1, r2
 1458 077e 1A46     		mov	r2, r3
 1459 0780 0123     		movs	r3, #1
 1460 0782 FFF7FEFF 		bl	LSM303AGR_ACC_WriteReg
 1461 0786 0346     		mov	r3, r0
 1462 0788 002B     		cmp	r3, #0
 1463 078a 01D1     		bne	.L134
 1464              		.loc 1 775 0
 1465 078c 0123     		movs	r3, #1
ARM GAS  /tmp/ccHvf4Lz.s 			page 27


 1466 078e 00E0     		b	.L135
 1467              	.L134:
 1468              		.loc 1 778 0
 1469 0790 0023     		movs	r3, #0
 1470              	.L135:
 1471              		.loc 1 779 0
 1472 0792 1846     		mov	r0, r3
 1473 0794 03B0     		add	sp, sp, #12
 1474              		@ sp needed
 1475 0796 5DF804FB 		ldr	pc, [sp], #4
 1476              		.cfi_endproc
 1477              	.LFE18:
 1478              		.size	LSM303AGR_X_Write_Reg, .-LSM303AGR_X_Write_Reg
 1479 079a 00BF     		.align	2
 1480 079c AFF30080 		.p2align 4,,15
 1481              		.thumb
 1482              		.thumb_func
 1483              		.type	LSM303AGR_X_Get_DRDY_Status, %function
 1484              	LSM303AGR_X_Get_DRDY_Status:
 1485              	.LFB19:
 1486              		.loc 1 791 0
 1487              		.cfi_startproc
 1488              		@ args = 0, pretend = 0, frame = 16
 1489              		@ frame_needed = 0, uses_anonymous_args = 0
 1490 07a0 00B5     		push	{lr}
 1491              		.cfi_def_cfa_offset 4
 1492              		.cfi_offset 14, -4
 1493 07a2 85B0     		sub	sp, sp, #20
 1494              		.cfi_def_cfa_offset 24
 1495 07a4 0190     		str	r0, [sp, #4]
 1496 07a6 0091     		str	r1, [sp]
 1497              		.loc 1 795 0
 1498 07a8 0DF10F03 		add	r3, sp, #15
 1499 07ac 0198     		ldr	r0, [sp, #4]
 1500 07ae 1946     		mov	r1, r3
 1501 07b0 FFF7FEFF 		bl	LSM303AGR_ACC_R_XDataAvail
 1502 07b4 0346     		mov	r3, r0
 1503 07b6 002B     		cmp	r3, #0
 1504 07b8 01D1     		bne	.L137
 1505              		.loc 1 797 0
 1506 07ba 0123     		movs	r3, #1
 1507 07bc 10E0     		b	.L143
 1508              	.L137:
 1509              		.loc 1 800 0
 1510 07be 9DF80F30 		ldrb	r3, [sp, #15]	@ zero_extendqisi2
 1511 07c2 002B     		cmp	r3, #0
 1512 07c4 05D0     		beq	.L140
 1513 07c6 012B     		cmp	r3, #1
 1514 07c8 07D1     		bne	.L144
 1515              		.loc 1 803 0
 1516 07ca 009B     		ldr	r3, [sp]
 1517 07cc 0122     		movs	r2, #1
 1518 07ce 1A70     		strb	r2, [r3]
 1519              		.loc 1 804 0
 1520 07d0 05E0     		b	.L142
 1521              	.L140:
 1522              		.loc 1 806 0
ARM GAS  /tmp/ccHvf4Lz.s 			page 28


 1523 07d2 009B     		ldr	r3, [sp]
 1524 07d4 0022     		movs	r2, #0
 1525 07d6 1A70     		strb	r2, [r3]
 1526              		.loc 1 807 0
 1527 07d8 01E0     		b	.L142
 1528              	.L144:
 1529              		.loc 1 809 0
 1530 07da 0123     		movs	r3, #1
 1531 07dc 00E0     		b	.L143
 1532              	.L142:
 1533              		.loc 1 812 0
 1534 07de 0023     		movs	r3, #0
 1535              	.L143:
 1536              		.loc 1 813 0
 1537 07e0 1846     		mov	r0, r3
 1538 07e2 05B0     		add	sp, sp, #20
 1539              		@ sp needed
 1540 07e4 5DF804FB 		ldr	pc, [sp], #4
 1541              		.cfi_endproc
 1542              	.LFE19:
 1543              		.size	LSM303AGR_X_Get_DRDY_Status, .-LSM303AGR_X_Get_DRDY_Status
 1544              		.align	2
 1545 07e8 AFF30080 		.p2align 4,,15
 1545      AFF30080 
 1546              		.thumb
 1547              		.thumb_func
 1548              		.type	LSM303AGR_X_Get_Axes_Raw, %function
 1549              	LSM303AGR_X_Get_Axes_Raw:
 1550              	.LFB20:
 1551              		.loc 1 832 0
 1552              		.cfi_startproc
 1553              		@ args = 0, pretend = 0, frame = 24
 1554              		@ frame_needed = 0, uses_anonymous_args = 0
 1555 07f0 00B5     		push	{lr}
 1556              		.cfi_def_cfa_offset 4
 1557              		.cfi_offset 14, -4
 1558 07f2 87B0     		sub	sp, sp, #28
 1559              		.cfi_def_cfa_offset 32
 1560 07f4 0190     		str	r0, [sp, #4]
 1561 07f6 0091     		str	r1, [sp]
 1562              		.loc 1 835 0
 1563 07f8 0023     		movs	r3, #0
 1564 07fa 8DF81730 		strb	r3, [sp, #23]
 1565              		.loc 1 840 0
 1566 07fe 0DF10E03 		add	r3, sp, #14
 1567 0802 0198     		ldr	r0, [sp, #4]
 1568 0804 1946     		mov	r1, r3
 1569 0806 FFF7FEFF 		bl	LSM303AGR_ACC_R_HiRes
 1570 080a 0346     		mov	r3, r0
 1571 080c 002B     		cmp	r3, #0
 1572 080e 01D1     		bne	.L146
 1573              		.loc 1 842 0
 1574 0810 0123     		movs	r3, #1
 1575 0812 5BE0     		b	.L154
 1576              	.L146:
 1577              		.loc 1 845 0
 1578 0814 0DF10F03 		add	r3, sp, #15
ARM GAS  /tmp/ccHvf4Lz.s 			page 29


 1579 0818 0198     		ldr	r0, [sp, #4]
 1580 081a 1946     		mov	r1, r3
 1581 081c FFF7FEFF 		bl	LSM303AGR_ACC_R_LOWPWR_EN
 1582 0820 0346     		mov	r3, r0
 1583 0822 002B     		cmp	r3, #0
 1584 0824 01D1     		bne	.L148
 1585              		.loc 1 847 0
 1586 0826 0123     		movs	r3, #1
 1587 0828 50E0     		b	.L154
 1588              	.L148:
 1589              		.loc 1 850 0
 1590 082a 9DF80F30 		ldrb	r3, [sp, #15]	@ zero_extendqisi2
 1591 082e 082B     		cmp	r3, #8
 1592 0830 07D1     		bne	.L149
 1593              		.loc 1 850 0 is_stmt 0 discriminator 1
 1594 0832 9DF80E30 		ldrb	r3, [sp, #14]	@ zero_extendqisi2
 1595 0836 002B     		cmp	r3, #0
 1596 0838 03D1     		bne	.L149
 1597              		.loc 1 853 0 is_stmt 1
 1598 083a 0823     		movs	r3, #8
 1599 083c 8DF81730 		strb	r3, [sp, #23]
 1600 0840 19E0     		b	.L150
 1601              	.L149:
 1602              		.loc 1 855 0
 1603 0842 9DF80F30 		ldrb	r3, [sp, #15]	@ zero_extendqisi2
 1604 0846 002B     		cmp	r3, #0
 1605 0848 07D1     		bne	.L151
 1606              		.loc 1 855 0 is_stmt 0 discriminator 1
 1607 084a 9DF80E30 		ldrb	r3, [sp, #14]	@ zero_extendqisi2
 1608 084e 002B     		cmp	r3, #0
 1609 0850 03D1     		bne	.L151
 1610              		.loc 1 858 0 is_stmt 1
 1611 0852 0623     		movs	r3, #6
 1612 0854 8DF81730 		strb	r3, [sp, #23]
 1613 0858 0DE0     		b	.L150
 1614              	.L151:
 1615              		.loc 1 860 0
 1616 085a 9DF80F30 		ldrb	r3, [sp, #15]	@ zero_extendqisi2
 1617 085e 002B     		cmp	r3, #0
 1618 0860 07D1     		bne	.L152
 1619              		.loc 1 860 0 is_stmt 0 discriminator 1
 1620 0862 9DF80E30 		ldrb	r3, [sp, #14]	@ zero_extendqisi2
 1621 0866 082B     		cmp	r3, #8
 1622 0868 03D1     		bne	.L152
 1623              		.loc 1 863 0 is_stmt 1
 1624 086a 0423     		movs	r3, #4
 1625 086c 8DF81730 		strb	r3, [sp, #23]
 1626 0870 01E0     		b	.L150
 1627              	.L152:
 1628              		.loc 1 867 0
 1629 0872 0123     		movs	r3, #1
 1630 0874 2AE0     		b	.L154
 1631              	.L150:
 1632              		.loc 1 871 0
 1633 0876 04AB     		add	r3, sp, #16
 1634 0878 0198     		ldr	r0, [sp, #4]
 1635 087a 1946     		mov	r1, r3
ARM GAS  /tmp/ccHvf4Lz.s 			page 30


 1636 087c FFF7FEFF 		bl	LSM303AGR_ACC_Get_Raw_Acceleration
 1637 0880 0346     		mov	r3, r0
 1638 0882 002B     		cmp	r3, #0
 1639 0884 01D1     		bne	.L153
 1640              		.loc 1 873 0
 1641 0886 0123     		movs	r3, #1
 1642 0888 20E0     		b	.L154
 1643              	.L153:
 1644              		.loc 1 877 0
 1645 088a BDF81030 		ldrh	r3, [sp, #16]
 1646 088e 1AB2     		sxth	r2, r3
 1647 0890 9DF81730 		ldrb	r3, [sp, #23]	@ zero_extendqisi2
 1648 0894 42FA03F3 		asr	r3, r2, r3
 1649 0898 9AB2     		uxth	r2, r3
 1650 089a 009B     		ldr	r3, [sp]
 1651 089c 1A80     		strh	r2, [r3]	@ movhi
 1652              		.loc 1 878 0
 1653 089e 009B     		ldr	r3, [sp]
 1654 08a0 0233     		adds	r3, r3, #2
 1655 08a2 BDF81220 		ldrh	r2, [sp, #18]
 1656 08a6 11B2     		sxth	r1, r2
 1657 08a8 9DF81720 		ldrb	r2, [sp, #23]	@ zero_extendqisi2
 1658 08ac 41FA02F2 		asr	r2, r1, r2
 1659 08b0 92B2     		uxth	r2, r2
 1660 08b2 1A80     		strh	r2, [r3]	@ movhi
 1661              		.loc 1 879 0
 1662 08b4 009B     		ldr	r3, [sp]
 1663 08b6 0433     		adds	r3, r3, #4
 1664 08b8 BDF81420 		ldrh	r2, [sp, #20]
 1665 08bc 11B2     		sxth	r1, r2
 1666 08be 9DF81720 		ldrb	r2, [sp, #23]	@ zero_extendqisi2
 1667 08c2 41FA02F2 		asr	r2, r1, r2
 1668 08c6 92B2     		uxth	r2, r2
 1669 08c8 1A80     		strh	r2, [r3]	@ movhi
 1670              		.loc 1 881 0
 1671 08ca 0023     		movs	r3, #0
 1672              	.L154:
 1673              		.loc 1 882 0
 1674 08cc 1846     		mov	r0, r3
 1675 08ce 07B0     		add	sp, sp, #28
 1676              		@ sp needed
 1677 08d0 5DF804FB 		ldr	pc, [sp], #4
 1678              		.cfi_endproc
 1679              	.LFE20:
 1680              		.size	LSM303AGR_X_Get_Axes_Raw, .-LSM303AGR_X_Get_Axes_Raw
 1681              		.align	2
 1682 08d4 AFF30080 		.p2align 4,,15
 1682      AFF30080 
 1682      AFF30080 
 1683              		.thumb
 1684              		.thumb_func
 1685              		.type	LSM303AGR_X_Set_ODR_When_Enabled, %function
 1686              	LSM303AGR_X_Set_ODR_When_Enabled:
 1687              	.LFB21:
 1688              		.loc 1 892 0
 1689              		.cfi_startproc
 1690              		@ args = 0, pretend = 0, frame = 16
ARM GAS  /tmp/ccHvf4Lz.s 			page 31


 1691              		@ frame_needed = 0, uses_anonymous_args = 0
 1692 08e0 00B5     		push	{lr}
 1693              		.cfi_def_cfa_offset 4
 1694              		.cfi_offset 14, -4
 1695 08e2 85B0     		sub	sp, sp, #20
 1696              		.cfi_def_cfa_offset 24
 1697 08e4 0190     		str	r0, [sp, #4]
 1698 08e6 0B46     		mov	r3, r1
 1699 08e8 8DF80330 		strb	r3, [sp, #3]
 1700              		.loc 1 895 0
 1701 08ec 9DF80330 		ldrb	r3, [sp, #3]	@ zero_extendqisi2
 1702 08f0 042B     		cmp	r3, #4
 1703 08f2 21D8     		bhi	.L156
 1704 08f4 01A2     		adr	r2, .L158
 1705 08f6 52F823F0 		ldr	pc, [r2, r3, lsl #2]
 1706 08fa 00BF     		.p2align 2
 1707              	.L158:
 1708 08fc 11090000 		.word	.L157+1
 1709 0900 19090000 		.word	.L159+1
 1710 0904 21090000 		.word	.L160+1
 1711 0908 29090000 		.word	.L161+1
 1712 090c 31090000 		.word	.L162+1
 1713              		.p2align 1
 1714              	.L157:
 1715              		.loc 1 898 0
 1716 0910 1023     		movs	r3, #16
 1717 0912 8DF80F30 		strb	r3, [sp, #15]
 1718              		.loc 1 899 0
 1719 0916 11E0     		b	.L163
 1720              	.L159:
 1721              		.loc 1 901 0
 1722 0918 2023     		movs	r3, #32
 1723 091a 8DF80F30 		strb	r3, [sp, #15]
 1724              		.loc 1 902 0
 1725 091e 0DE0     		b	.L163
 1726              	.L160:
 1727              		.loc 1 904 0
 1728 0920 3023     		movs	r3, #48
 1729 0922 8DF80F30 		strb	r3, [sp, #15]
 1730              		.loc 1 905 0
 1731 0926 09E0     		b	.L163
 1732              	.L161:
 1733              		.loc 1 907 0
 1734 0928 4023     		movs	r3, #64
 1735 092a 8DF80F30 		strb	r3, [sp, #15]
 1736              		.loc 1 908 0
 1737 092e 05E0     		b	.L163
 1738              	.L162:
 1739              		.loc 1 910 0
 1740 0930 5023     		movs	r3, #80
 1741 0932 8DF80F30 		strb	r3, [sp, #15]
 1742              		.loc 1 911 0
 1743 0936 01E0     		b	.L163
 1744              	.L156:
 1745              		.loc 1 913 0
 1746 0938 0123     		movs	r3, #1
 1747 093a 0BE0     		b	.L164
ARM GAS  /tmp/ccHvf4Lz.s 			page 32


 1748              	.L163:
 1749              		.loc 1 916 0
 1750 093c 9DF80F30 		ldrb	r3, [sp, #15]	@ zero_extendqisi2
 1751 0940 0198     		ldr	r0, [sp, #4]
 1752 0942 1946     		mov	r1, r3
 1753 0944 FFF7FEFF 		bl	LSM303AGR_ACC_W_ODR
 1754 0948 0346     		mov	r3, r0
 1755 094a 002B     		cmp	r3, #0
 1756 094c 01D1     		bne	.L165
 1757              		.loc 1 918 0
 1758 094e 0123     		movs	r3, #1
 1759 0950 00E0     		b	.L164
 1760              	.L165:
 1761              		.loc 1 921 0
 1762 0952 0023     		movs	r3, #0
 1763              	.L164:
 1764              		.loc 1 922 0
 1765 0954 1846     		mov	r0, r3
 1766 0956 05B0     		add	sp, sp, #20
 1767              		@ sp needed
 1768 0958 5DF804FB 		ldr	pc, [sp], #4
 1769              		.cfi_endproc
 1770              	.LFE21:
 1771              		.size	LSM303AGR_X_Set_ODR_When_Enabled, .-LSM303AGR_X_Set_ODR_When_Enabled
 1772              		.align	2
 1773 095c AFF30080 		.p2align 4,,15
 1774              		.thumb
 1775              		.thumb_func
 1776              		.type	LSM303AGR_X_Set_ODR_When_Disabled, %function
 1777              	LSM303AGR_X_Set_ODR_When_Disabled:
 1778              	.LFB22:
 1779              		.loc 1 932 0
 1780              		.cfi_startproc
 1781              		@ args = 0, pretend = 0, frame = 16
 1782              		@ frame_needed = 0, uses_anonymous_args = 0
 1783              		@ link register save eliminated.
 1784 0960 84B0     		sub	sp, sp, #16
 1785              		.cfi_def_cfa_offset 16
 1786 0962 0190     		str	r0, [sp, #4]
 1787 0964 0B46     		mov	r3, r1
 1788 0966 8DF80330 		strb	r3, [sp, #3]
 1789              		.loc 1 933 0
 1790 096a 019B     		ldr	r3, [sp, #4]
 1791 096c 9B68     		ldr	r3, [r3, #8]
 1792 096e 0393     		str	r3, [sp, #12]
 1793              		.loc 1 934 0
 1794 0970 039B     		ldr	r3, [sp, #12]
 1795 0972 1B68     		ldr	r3, [r3]
 1796 0974 0293     		str	r3, [sp, #8]
 1797              		.loc 1 936 0
 1798 0976 9DF80330 		ldrb	r3, [sp, #3]	@ zero_extendqisi2
 1799 097a 042B     		cmp	r3, #4
 1800 097c 21D8     		bhi	.L167
 1801 097e 01A2     		adr	r2, .L169
 1802 0980 52F823F0 		ldr	pc, [r2, r3, lsl #2]
 1803              		.p2align 2
 1804              	.L169:
ARM GAS  /tmp/ccHvf4Lz.s 			page 33


 1805 0984 99090000 		.word	.L168+1
 1806 0988 A3090000 		.word	.L170+1
 1807 098c AB090000 		.word	.L171+1
 1808 0990 B3090000 		.word	.L172+1
 1809 0994 BB090000 		.word	.L173+1
 1810              		.p2align 1
 1811              	.L168:
 1812              		.loc 1 939 0
 1813 0998 029B     		ldr	r3, [sp, #8]
 1814 099a 4FF07E52 		mov	r2, #1065353216
 1815 099e 5A60     		str	r2, [r3, #4]	@ float
 1816              		.loc 1 940 0
 1817 09a0 11E0     		b	.L174
 1818              	.L170:
 1819              		.loc 1 942 0
 1820 09a2 029B     		ldr	r3, [sp, #8]
 1821 09a4 0A4A     		ldr	r2, .L176
 1822 09a6 5A60     		str	r2, [r3, #4]	@ float
 1823              		.loc 1 943 0
 1824 09a8 0DE0     		b	.L174
 1825              	.L171:
 1826              		.loc 1 945 0
 1827 09aa 029B     		ldr	r3, [sp, #8]
 1828 09ac 094A     		ldr	r2, .L176+4
 1829 09ae 5A60     		str	r2, [r3, #4]	@ float
 1830              		.loc 1 946 0
 1831 09b0 09E0     		b	.L174
 1832              	.L172:
 1833              		.loc 1 948 0
 1834 09b2 029B     		ldr	r3, [sp, #8]
 1835 09b4 084A     		ldr	r2, .L176+8
 1836 09b6 5A60     		str	r2, [r3, #4]	@ float
 1837              		.loc 1 949 0
 1838 09b8 05E0     		b	.L174
 1839              	.L173:
 1840              		.loc 1 951 0
 1841 09ba 029B     		ldr	r3, [sp, #8]
 1842 09bc 074A     		ldr	r2, .L176+12
 1843 09be 5A60     		str	r2, [r3, #4]	@ float
 1844              		.loc 1 952 0
 1845 09c0 01E0     		b	.L174
 1846              	.L167:
 1847              		.loc 1 954 0
 1848 09c2 0123     		movs	r3, #1
 1849 09c4 00E0     		b	.L175
 1850              	.L174:
 1851              		.loc 1 957 0
 1852 09c6 0023     		movs	r3, #0
 1853              	.L175:
 1854              		.loc 1 958 0
 1855 09c8 1846     		mov	r0, r3
 1856 09ca 04B0     		add	sp, sp, #16
 1857              		@ sp needed
 1858 09cc 7047     		bx	lr
 1859              	.L177:
 1860 09ce 00BF     		.align	2
 1861              	.L176:
ARM GAS  /tmp/ccHvf4Lz.s 			page 34


 1862 09d0 00002041 		.word	1092616192
 1863 09d4 0000C841 		.word	1103626240
 1864 09d8 00004842 		.word	1112014848
 1865 09dc 0000C842 		.word	1120403456
 1866              		.cfi_endproc
 1867              	.LFE22:
 1868              		.size	LSM303AGR_X_Set_ODR_When_Disabled, .-LSM303AGR_X_Set_ODR_When_Disabled
 1869              		.align	2
 1870              		.p2align 4,,15
 1871              		.thumb
 1872              		.thumb_func
 1873              		.type	LSM303AGR_X_Set_ODR_Value_When_Enabled, %function
 1874              	LSM303AGR_X_Set_ODR_Value_When_Enabled:
 1875              	.LFB23:
 1876              		.loc 1 968 0
 1877              		.cfi_startproc
 1878              		@ args = 0, pretend = 0, frame = 16
 1879              		@ frame_needed = 0, uses_anonymous_args = 0
 1880 09e0 00B5     		push	{lr}
 1881              		.cfi_def_cfa_offset 4
 1882              		.cfi_offset 14, -4
 1883 09e2 85B0     		sub	sp, sp, #20
 1884              		.cfi_def_cfa_offset 24
 1885 09e4 0190     		str	r0, [sp, #4]
 1886 09e6 0091     		str	r1, [sp]	@ float
 1887              		.loc 1 972 0
 1888 09e8 0098     		ldr	r0, [sp]	@ float
 1889 09ea 4FF07E51 		mov	r1, #1065353216
 1890 09ee FFF7FEFF 		bl	__aeabi_fcmple
 1891 09f2 0346     		mov	r3, r0
 1892 09f4 002B     		cmp	r3, #0
 1893 09f6 01D0     		beq	.L205
 1894              		.loc 1 972 0 is_stmt 0 discriminator 1
 1895 09f8 1023     		movs	r3, #16
 1896 09fa 2DE0     		b	.L181
 1897              	.L205:
 1898              		.loc 1 972 0 discriminator 2
 1899 09fc 0098     		ldr	r0, [sp]	@ float
 1900 09fe 1F49     		ldr	r1, .L211
 1901 0a00 FFF7FEFF 		bl	__aeabi_fcmple
 1902 0a04 0346     		mov	r3, r0
 1903 0a06 002B     		cmp	r3, #0
 1904 0a08 01D0     		beq	.L206
 1905              		.loc 1 972 0 discriminator 3
 1906 0a0a 2023     		movs	r3, #32
 1907 0a0c 24E0     		b	.L181
 1908              	.L206:
 1909              		.loc 1 972 0 discriminator 4
 1910 0a0e 0098     		ldr	r0, [sp]	@ float
 1911 0a10 1B49     		ldr	r1, .L211+4
 1912 0a12 FFF7FEFF 		bl	__aeabi_fcmple
 1913 0a16 0346     		mov	r3, r0
 1914 0a18 002B     		cmp	r3, #0
 1915 0a1a 01D0     		beq	.L207
 1916              		.loc 1 972 0 discriminator 5
 1917 0a1c 3023     		movs	r3, #48
 1918 0a1e 1BE0     		b	.L181
ARM GAS  /tmp/ccHvf4Lz.s 			page 35


 1919              	.L207:
 1920              		.loc 1 972 0 discriminator 6
 1921 0a20 0098     		ldr	r0, [sp]	@ float
 1922 0a22 1849     		ldr	r1, .L211+8
 1923 0a24 FFF7FEFF 		bl	__aeabi_fcmple
 1924 0a28 0346     		mov	r3, r0
 1925 0a2a 002B     		cmp	r3, #0
 1926 0a2c 01D0     		beq	.L208
 1927              		.loc 1 972 0 discriminator 7
 1928 0a2e 4023     		movs	r3, #64
 1929 0a30 12E0     		b	.L181
 1930              	.L208:
 1931              		.loc 1 972 0 discriminator 8
 1932 0a32 0098     		ldr	r0, [sp]	@ float
 1933 0a34 1449     		ldr	r1, .L211+12
 1934 0a36 FFF7FEFF 		bl	__aeabi_fcmple
 1935 0a3a 0346     		mov	r3, r0
 1936 0a3c 002B     		cmp	r3, #0
 1937 0a3e 01D0     		beq	.L209
 1938              		.loc 1 972 0 discriminator 9
 1939 0a40 5023     		movs	r3, #80
 1940 0a42 09E0     		b	.L181
 1941              	.L209:
 1942              		.loc 1 972 0 discriminator 10
 1943 0a44 0098     		ldr	r0, [sp]	@ float
 1944 0a46 1149     		ldr	r1, .L211+16
 1945 0a48 FFF7FEFF 		bl	__aeabi_fcmple
 1946 0a4c 0346     		mov	r3, r0
 1947 0a4e 002B     		cmp	r3, #0
 1948 0a50 01D0     		beq	.L210
 1949              		.loc 1 972 0 discriminator 11
 1950 0a52 6023     		movs	r3, #96
 1951 0a54 00E0     		b	.L181
 1952              	.L210:
 1953              		.loc 1 972 0 discriminator 12
 1954 0a56 7023     		movs	r3, #112
 1955              	.L181:
 1956              		.loc 1 972 0 discriminator 18
 1957 0a58 8DF80F30 		strb	r3, [sp, #15]
 1958              		.loc 1 980 0 is_stmt 1 discriminator 18
 1959 0a5c 9DF80F30 		ldrb	r3, [sp, #15]	@ zero_extendqisi2
 1960 0a60 0198     		ldr	r0, [sp, #4]
 1961 0a62 1946     		mov	r1, r3
 1962 0a64 FFF7FEFF 		bl	LSM303AGR_ACC_W_ODR
 1963 0a68 0346     		mov	r3, r0
 1964 0a6a 002B     		cmp	r3, #0
 1965 0a6c 01D1     		bne	.L197
 1966              		.loc 1 982 0
 1967 0a6e 0123     		movs	r3, #1
 1968 0a70 00E0     		b	.L198
 1969              	.L197:
 1970              		.loc 1 985 0
 1971 0a72 0023     		movs	r3, #0
 1972              	.L198:
 1973              		.loc 1 986 0
 1974 0a74 1846     		mov	r0, r3
 1975 0a76 05B0     		add	sp, sp, #20
ARM GAS  /tmp/ccHvf4Lz.s 			page 36


 1976              		@ sp needed
 1977 0a78 5DF804FB 		ldr	pc, [sp], #4
 1978              	.L212:
 1979              		.align	2
 1980              	.L211:
 1981 0a7c 00002041 		.word	1092616192
 1982 0a80 0000C841 		.word	1103626240
 1983 0a84 00004842 		.word	1112014848
 1984 0a88 0000C842 		.word	1120403456
 1985 0a8c 00004843 		.word	1128792064
 1986              		.cfi_endproc
 1987              	.LFE23:
 1988              		.size	LSM303AGR_X_Set_ODR_Value_When_Enabled, .-LSM303AGR_X_Set_ODR_Value_When_Enabled
 1989              		.align	2
 1990              		.p2align 4,,15
 1991              		.thumb
 1992              		.thumb_func
 1993              		.type	LSM303AGR_X_Set_ODR_Value_When_Disabled, %function
 1994              	LSM303AGR_X_Set_ODR_Value_When_Disabled:
 1995              	.LFB24:
 1996              		.loc 1 996 0
 1997              		.cfi_startproc
 1998              		@ args = 0, pretend = 0, frame = 16
 1999              		@ frame_needed = 0, uses_anonymous_args = 0
 2000 0a90 00B5     		push	{lr}
 2001              		.cfi_def_cfa_offset 4
 2002              		.cfi_offset 14, -4
 2003 0a92 85B0     		sub	sp, sp, #20
 2004              		.cfi_def_cfa_offset 24
 2005 0a94 0190     		str	r0, [sp, #4]
 2006 0a96 0091     		str	r1, [sp]	@ float
 2007              		.loc 1 998 0
 2008 0a98 019B     		ldr	r3, [sp, #4]
 2009 0a9a 9B68     		ldr	r3, [r3, #8]
 2010 0a9c 0393     		str	r3, [sp, #12]
 2011              		.loc 1 999 0
 2012 0a9e 039B     		ldr	r3, [sp, #12]
 2013 0aa0 1B68     		ldr	r3, [r3]
 2014 0aa2 0293     		str	r3, [sp, #8]
 2015              		.loc 1 1002 0
 2016 0aa4 0098     		ldr	r0, [sp]	@ float
 2017 0aa6 4FF07E51 		mov	r1, #1065353216
 2018 0aaa FFF7FEFF 		bl	__aeabi_fcmple
 2019 0aae 0346     		mov	r3, r0
 2020 0ab0 002B     		cmp	r3, #0
 2021 0ab2 02D0     		beq	.L239
 2022              		.loc 1 1002 0 is_stmt 0 discriminator 1
 2023 0ab4 4FF07E53 		mov	r3, #1065353216
 2024 0ab8 2DE0     		b	.L216
 2025              	.L239:
 2026              		.loc 1 1003 0 is_stmt 1
 2027 0aba 0098     		ldr	r0, [sp]	@ float
 2028 0abc 1949     		ldr	r1, .L245
 2029 0abe FFF7FEFF 		bl	__aeabi_fcmple
 2030 0ac2 0346     		mov	r3, r0
 2031 0ac4 002B     		cmp	r3, #0
 2032 0ac6 01D0     		beq	.L240
ARM GAS  /tmp/ccHvf4Lz.s 			page 37


 2033              		.loc 1 1003 0 is_stmt 0 discriminator 1
 2034 0ac8 164B     		ldr	r3, .L245
 2035 0aca 24E0     		b	.L216
 2036              	.L240:
 2037              		.loc 1 1004 0 is_stmt 1
 2038 0acc 0098     		ldr	r0, [sp]	@ float
 2039 0ace 1649     		ldr	r1, .L245+4
 2040 0ad0 FFF7FEFF 		bl	__aeabi_fcmple
 2041 0ad4 0346     		mov	r3, r0
 2042 0ad6 002B     		cmp	r3, #0
 2043 0ad8 01D0     		beq	.L241
 2044              		.loc 1 1004 0 is_stmt 0 discriminator 1
 2045 0ada 134B     		ldr	r3, .L245+4
 2046 0adc 1BE0     		b	.L216
 2047              	.L241:
 2048              		.loc 1 1005 0 is_stmt 1
 2049 0ade 0098     		ldr	r0, [sp]	@ float
 2050 0ae0 1249     		ldr	r1, .L245+8
 2051 0ae2 FFF7FEFF 		bl	__aeabi_fcmple
 2052 0ae6 0346     		mov	r3, r0
 2053 0ae8 002B     		cmp	r3, #0
 2054 0aea 01D0     		beq	.L242
 2055              		.loc 1 1005 0 is_stmt 0 discriminator 1
 2056 0aec 0F4B     		ldr	r3, .L245+8
 2057 0aee 12E0     		b	.L216
 2058              	.L242:
 2059              		.loc 1 1006 0 is_stmt 1
 2060 0af0 0098     		ldr	r0, [sp]	@ float
 2061 0af2 0F49     		ldr	r1, .L245+12
 2062 0af4 FFF7FEFF 		bl	__aeabi_fcmple
 2063 0af8 0346     		mov	r3, r0
 2064 0afa 002B     		cmp	r3, #0
 2065 0afc 01D0     		beq	.L243
 2066              		.loc 1 1006 0 is_stmt 0 discriminator 1
 2067 0afe 0C4B     		ldr	r3, .L245+12
 2068 0b00 09E0     		b	.L216
 2069              	.L243:
 2070              		.loc 1 1007 0 is_stmt 1
 2071 0b02 0098     		ldr	r0, [sp]	@ float
 2072 0b04 0B49     		ldr	r1, .L245+16
 2073 0b06 FFF7FEFF 		bl	__aeabi_fcmple
 2074 0b0a 0346     		mov	r3, r0
 2075 0b0c 002B     		cmp	r3, #0
 2076 0b0e 01D0     		beq	.L244
 2077              		.loc 1 1007 0 is_stmt 0 discriminator 1
 2078 0b10 084B     		ldr	r3, .L245+16
 2079 0b12 00E0     		b	.L216
 2080              	.L244:
 2081              		.loc 1 1007 0 discriminator 2
 2082 0b14 084B     		ldr	r3, .L245+20
 2083              	.L216:
 2084              		.loc 1 1001 0 is_stmt 1
 2085 0b16 029A     		ldr	r2, [sp, #8]
 2086 0b18 5360     		str	r3, [r2, #4]	@ float
 2087              		.loc 1 1009 0
 2088 0b1a 0023     		movs	r3, #0
 2089              		.loc 1 1010 0
ARM GAS  /tmp/ccHvf4Lz.s 			page 38


 2090 0b1c 1846     		mov	r0, r3
 2091 0b1e 05B0     		add	sp, sp, #20
 2092              		@ sp needed
 2093 0b20 5DF804FB 		ldr	pc, [sp], #4
 2094              	.L246:
 2095              		.align	2
 2096              	.L245:
 2097 0b24 00002041 		.word	1092616192
 2098 0b28 0000C841 		.word	1103626240
 2099 0b2c 00004842 		.word	1112014848
 2100 0b30 0000C842 		.word	1120403456
 2101 0b34 00004843 		.word	1128792064
 2102 0b38 0000C843 		.word	1137180672
 2103              		.cfi_endproc
 2104              	.LFE24:
 2105              		.size	LSM303AGR_X_Set_ODR_Value_When_Disabled, .-LSM303AGR_X_Set_ODR_Value_When_Disabled
 2106              		.align	2
 2107 0b3c AFF30080 		.p2align 4,,15
 2108              		.thumb
 2109              		.thumb_func
 2110              		.type	LSM303AGR_X_Get_Sensitivity_Normal_Mode, %function
 2111              	LSM303AGR_X_Get_Sensitivity_Normal_Mode:
 2112              	.LFB25:
 2113              		.loc 1 1020 0
 2114              		.cfi_startproc
 2115              		@ args = 0, pretend = 0, frame = 16
 2116              		@ frame_needed = 0, uses_anonymous_args = 0
 2117 0b40 00B5     		push	{lr}
 2118              		.cfi_def_cfa_offset 4
 2119              		.cfi_offset 14, -4
 2120 0b42 85B0     		sub	sp, sp, #20
 2121              		.cfi_def_cfa_offset 24
 2122 0b44 0190     		str	r0, [sp, #4]
 2123 0b46 0091     		str	r1, [sp]
 2124              		.loc 1 1025 0
 2125 0b48 0DF10F03 		add	r3, sp, #15
 2126 0b4c 0198     		ldr	r0, [sp, #4]
 2127 0b4e 1946     		mov	r1, r3
 2128 0b50 FFF7FEFF 		bl	LSM303AGR_ACC_R_FullScale
 2129 0b54 0346     		mov	r3, r0
 2130 0b56 002B     		cmp	r3, #0
 2131 0b58 01D1     		bne	.L248
 2132              		.loc 1 1027 0
 2133 0b5a 0123     		movs	r3, #1
 2134 0b5c 23E0     		b	.L257
 2135              	.L248:
 2136              		.loc 1 1031 0
 2137 0b5e 9DF80F30 		ldrb	r3, [sp, #15]	@ zero_extendqisi2
 2138 0b62 102B     		cmp	r3, #16
 2139 0b64 0DD0     		beq	.L251
 2140 0b66 102B     		cmp	r3, #16
 2141 0b68 02DC     		bgt	.L252
 2142 0b6a 002B     		cmp	r3, #0
 2143 0b6c 05D0     		beq	.L253
 2144 0b6e 14E0     		b	.L250
 2145              	.L252:
 2146 0b70 202B     		cmp	r3, #32
ARM GAS  /tmp/ccHvf4Lz.s 			page 39


 2147 0b72 0AD0     		beq	.L254
 2148 0b74 302B     		cmp	r3, #48
 2149 0b76 0CD0     		beq	.L255
 2150 0b78 0FE0     		b	.L250
 2151              	.L253:
 2152              		.loc 1 1034 0
 2153 0b7a 009B     		ldr	r3, [sp]
 2154 0b7c 0C4A     		ldr	r2, .L258
 2155 0b7e 1A60     		str	r2, [r3]	@ float
 2156              		.loc 1 1035 0
 2157 0b80 10E0     		b	.L256
 2158              	.L251:
 2159              		.loc 1 1037 0
 2160 0b82 009B     		ldr	r3, [sp]
 2161 0b84 0B4A     		ldr	r2, .L258+4
 2162 0b86 1A60     		str	r2, [r3]	@ float
 2163              		.loc 1 1038 0
 2164 0b88 0CE0     		b	.L256
 2165              	.L254:
 2166              		.loc 1 1040 0
 2167 0b8a 009B     		ldr	r3, [sp]
 2168 0b8c 0A4A     		ldr	r2, .L258+8
 2169 0b8e 1A60     		str	r2, [r3]	@ float
 2170              		.loc 1 1041 0
 2171 0b90 08E0     		b	.L256
 2172              	.L255:
 2173              		.loc 1 1043 0
 2174 0b92 009B     		ldr	r3, [sp]
 2175 0b94 094A     		ldr	r2, .L258+12
 2176 0b96 1A60     		str	r2, [r3]	@ float
 2177              		.loc 1 1044 0
 2178 0b98 04E0     		b	.L256
 2179              	.L250:
 2180              		.loc 1 1046 0
 2181 0b9a 009B     		ldr	r3, [sp]
 2182 0b9c 084A     		ldr	r2, .L258+16
 2183 0b9e 1A60     		str	r2, [r3]	@ float
 2184              		.loc 1 1047 0
 2185 0ba0 0123     		movs	r3, #1
 2186 0ba2 00E0     		b	.L257
 2187              	.L256:
 2188              		.loc 1 1050 0
 2189 0ba4 0023     		movs	r3, #0
 2190              	.L257:
 2191              		.loc 1 1051 0
 2192 0ba6 1846     		mov	r0, r3
 2193 0ba8 05B0     		add	sp, sp, #20
 2194              		@ sp needed
 2195 0baa 5DF804FB 		ldr	pc, [sp], #4
 2196              	.L259:
 2197 0bae 00BF     		.align	2
 2198              	.L258:
 2199 0bb0 9A997940 		.word	1081711002
 2200 0bb4 713DFA40 		.word	1090141553
 2201 0bb8 7B147A41 		.word	1098519675
 2202 0bbc 9A993B42 		.word	1111202202
 2203 0bc0 000080BF 		.word	-1082130432
ARM GAS  /tmp/ccHvf4Lz.s 			page 40


 2204              		.cfi_endproc
 2205              	.LFE25:
 2206              		.size	LSM303AGR_X_Get_Sensitivity_Normal_Mode, .-LSM303AGR_X_Get_Sensitivity_Normal_Mode
 2207              		.align	2
 2208 0bc4 AFF30080 		.p2align 4,,15
 2208      AFF30080 
 2208      AFF30080 
 2209              		.thumb
 2210              		.thumb_func
 2211              		.type	LSM303AGR_X_Get_Sensitivity_LP_Mode, %function
 2212              	LSM303AGR_X_Get_Sensitivity_LP_Mode:
 2213              	.LFB26:
 2214              		.loc 1 1061 0
 2215              		.cfi_startproc
 2216              		@ args = 0, pretend = 0, frame = 16
 2217              		@ frame_needed = 0, uses_anonymous_args = 0
 2218 0bd0 00B5     		push	{lr}
 2219              		.cfi_def_cfa_offset 4
 2220              		.cfi_offset 14, -4
 2221 0bd2 85B0     		sub	sp, sp, #20
 2222              		.cfi_def_cfa_offset 24
 2223 0bd4 0190     		str	r0, [sp, #4]
 2224 0bd6 0091     		str	r1, [sp]
 2225              		.loc 1 1065 0
 2226 0bd8 0DF10F03 		add	r3, sp, #15
 2227 0bdc 0198     		ldr	r0, [sp, #4]
 2228 0bde 1946     		mov	r1, r3
 2229 0be0 FFF7FEFF 		bl	LSM303AGR_ACC_R_FullScale
 2230 0be4 0346     		mov	r3, r0
 2231 0be6 002B     		cmp	r3, #0
 2232 0be8 01D1     		bne	.L261
 2233              		.loc 1 1067 0
 2234 0bea 0123     		movs	r3, #1
 2235 0bec 23E0     		b	.L270
 2236              	.L261:
 2237              		.loc 1 1071 0
 2238 0bee 9DF80F30 		ldrb	r3, [sp, #15]	@ zero_extendqisi2
 2239 0bf2 102B     		cmp	r3, #16
 2240 0bf4 0DD0     		beq	.L264
 2241 0bf6 102B     		cmp	r3, #16
 2242 0bf8 02DC     		bgt	.L265
 2243 0bfa 002B     		cmp	r3, #0
 2244 0bfc 05D0     		beq	.L266
 2245 0bfe 14E0     		b	.L263
 2246              	.L265:
 2247 0c00 202B     		cmp	r3, #32
 2248 0c02 0AD0     		beq	.L267
 2249 0c04 302B     		cmp	r3, #48
 2250 0c06 0CD0     		beq	.L268
 2251 0c08 0FE0     		b	.L263
 2252              	.L266:
 2253              		.loc 1 1074 0
 2254 0c0a 009B     		ldr	r3, [sp]
 2255 0c0c 0C4A     		ldr	r2, .L271
 2256 0c0e 1A60     		str	r2, [r3]	@ float
 2257              		.loc 1 1075 0
 2258 0c10 10E0     		b	.L269
ARM GAS  /tmp/ccHvf4Lz.s 			page 41


 2259              	.L264:
 2260              		.loc 1 1077 0
 2261 0c12 009B     		ldr	r3, [sp]
 2262 0c14 0B4A     		ldr	r2, .L271+4
 2263 0c16 1A60     		str	r2, [r3]	@ float
 2264              		.loc 1 1078 0
 2265 0c18 0CE0     		b	.L269
 2266              	.L267:
 2267              		.loc 1 1080 0
 2268 0c1a 009B     		ldr	r3, [sp]
 2269 0c1c 0A4A     		ldr	r2, .L271+8
 2270 0c1e 1A60     		str	r2, [r3]	@ float
 2271              		.loc 1 1081 0
 2272 0c20 08E0     		b	.L269
 2273              	.L268:
 2274              		.loc 1 1083 0
 2275 0c22 009B     		ldr	r3, [sp]
 2276 0c24 094A     		ldr	r2, .L271+12
 2277 0c26 1A60     		str	r2, [r3]	@ float
 2278              		.loc 1 1084 0
 2279 0c28 04E0     		b	.L269
 2280              	.L263:
 2281              		.loc 1 1086 0
 2282 0c2a 009B     		ldr	r3, [sp]
 2283 0c2c 084A     		ldr	r2, .L271+16
 2284 0c2e 1A60     		str	r2, [r3]	@ float
 2285              		.loc 1 1087 0
 2286 0c30 0123     		movs	r3, #1
 2287 0c32 00E0     		b	.L270
 2288              	.L269:
 2289              		.loc 1 1090 0
 2290 0c34 0023     		movs	r3, #0
 2291              	.L270:
 2292              		.loc 1 1091 0
 2293 0c36 1846     		mov	r0, r3
 2294 0c38 05B0     		add	sp, sp, #20
 2295              		@ sp needed
 2296 0c3a 5DF804FB 		ldr	pc, [sp], #4
 2297              	.L272:
 2298 0c3e 00BF     		.align	2
 2299              	.L271:
 2300 0c40 7B147A41 		.word	1098519675
 2301 0c44 7B14FA41 		.word	1106908283
 2302 0c48 7B147A42 		.word	1115296891
 2303 0c4c 7B943B43 		.word	1127978107
 2304 0c50 000080BF 		.word	-1082130432
 2305              		.cfi_endproc
 2306              	.LFE26:
 2307              		.size	LSM303AGR_X_Get_Sensitivity_LP_Mode, .-LSM303AGR_X_Get_Sensitivity_LP_Mode
 2308              		.align	2
 2309 0c54 AFF30080 		.p2align 4,,15
 2309      AFF30080 
 2309      AFF30080 
 2310              		.thumb
 2311              		.thumb_func
 2312              		.type	LSM303AGR_X_Get_Sensitivity_HR_Mode, %function
 2313              	LSM303AGR_X_Get_Sensitivity_HR_Mode:
ARM GAS  /tmp/ccHvf4Lz.s 			page 42


 2314              	.LFB27:
 2315              		.loc 1 1101 0
 2316              		.cfi_startproc
 2317              		@ args = 0, pretend = 0, frame = 16
 2318              		@ frame_needed = 0, uses_anonymous_args = 0
 2319 0c60 00B5     		push	{lr}
 2320              		.cfi_def_cfa_offset 4
 2321              		.cfi_offset 14, -4
 2322 0c62 85B0     		sub	sp, sp, #20
 2323              		.cfi_def_cfa_offset 24
 2324 0c64 0190     		str	r0, [sp, #4]
 2325 0c66 0091     		str	r1, [sp]
 2326              		.loc 1 1105 0
 2327 0c68 0DF10F03 		add	r3, sp, #15
 2328 0c6c 0198     		ldr	r0, [sp, #4]
 2329 0c6e 1946     		mov	r1, r3
 2330 0c70 FFF7FEFF 		bl	LSM303AGR_ACC_R_FullScale
 2331 0c74 0346     		mov	r3, r0
 2332 0c76 002B     		cmp	r3, #0
 2333 0c78 01D1     		bne	.L274
 2334              		.loc 1 1107 0
 2335 0c7a 0123     		movs	r3, #1
 2336 0c7c 23E0     		b	.L283
 2337              	.L274:
 2338              		.loc 1 1111 0
 2339 0c7e 9DF80F30 		ldrb	r3, [sp, #15]	@ zero_extendqisi2
 2340 0c82 102B     		cmp	r3, #16
 2341 0c84 0DD0     		beq	.L277
 2342 0c86 102B     		cmp	r3, #16
 2343 0c88 02DC     		bgt	.L278
 2344 0c8a 002B     		cmp	r3, #0
 2345 0c8c 05D0     		beq	.L279
 2346 0c8e 14E0     		b	.L276
 2347              	.L278:
 2348 0c90 202B     		cmp	r3, #32
 2349 0c92 0AD0     		beq	.L280
 2350 0c94 302B     		cmp	r3, #48
 2351 0c96 0CD0     		beq	.L281
 2352 0c98 0FE0     		b	.L276
 2353              	.L279:
 2354              		.loc 1 1114 0
 2355 0c9a 009B     		ldr	r3, [sp]
 2356 0c9c 0C4A     		ldr	r2, .L284
 2357 0c9e 1A60     		str	r2, [r3]	@ float
 2358              		.loc 1 1115 0
 2359 0ca0 10E0     		b	.L282
 2360              	.L277:
 2361              		.loc 1 1117 0
 2362 0ca2 009B     		ldr	r3, [sp]
 2363 0ca4 0B4A     		ldr	r2, .L284+4
 2364 0ca6 1A60     		str	r2, [r3]	@ float
 2365              		.loc 1 1118 0
 2366 0ca8 0CE0     		b	.L282
 2367              	.L280:
 2368              		.loc 1 1120 0
 2369 0caa 009B     		ldr	r3, [sp]
 2370 0cac 0A4A     		ldr	r2, .L284+8
ARM GAS  /tmp/ccHvf4Lz.s 			page 43


 2371 0cae 1A60     		str	r2, [r3]	@ float
 2372              		.loc 1 1121 0
 2373 0cb0 08E0     		b	.L282
 2374              	.L281:
 2375              		.loc 1 1123 0
 2376 0cb2 009B     		ldr	r3, [sp]
 2377 0cb4 094A     		ldr	r2, .L284+12
 2378 0cb6 1A60     		str	r2, [r3]	@ float
 2379              		.loc 1 1124 0
 2380 0cb8 04E0     		b	.L282
 2381              	.L276:
 2382              		.loc 1 1126 0
 2383 0cba 009B     		ldr	r3, [sp]
 2384 0cbc 084A     		ldr	r2, .L284+16
 2385 0cbe 1A60     		str	r2, [r3]	@ float
 2386              		.loc 1 1127 0
 2387 0cc0 0123     		movs	r3, #1
 2388 0cc2 00E0     		b	.L283
 2389              	.L282:
 2390              		.loc 1 1130 0
 2391 0cc4 0023     		movs	r3, #0
 2392              	.L283:
 2393              		.loc 1 1131 0
 2394 0cc6 1846     		mov	r0, r3
 2395 0cc8 05B0     		add	sp, sp, #20
 2396              		@ sp needed
 2397 0cca 5DF804FB 		ldr	pc, [sp], #4
 2398              	.L285:
 2399 0cce 00BF     		.align	2
 2400              	.L284:
 2401 0cd0 48E17A3F 		.word	1065017672
 2402 0cd4 9A99F93F 		.word	1073322394
 2403 0cd8 9A997940 		.word	1081711002
 2404 0cdc 1F853B41 		.word	1094419743
 2405 0ce0 000080BF 		.word	-1082130432
 2406              		.cfi_endproc
 2407              	.LFE27:
 2408              		.size	LSM303AGR_X_Get_Sensitivity_HR_Mode, .-LSM303AGR_X_Get_Sensitivity_HR_Mode
 2409              	.Letext0:
 2410              		.file 2 "/nfs/nfs5/home/research/hardware/arm2/gcc-arm-embedded/gcc-arm-none-eabi-4_8-2014q2/arm-n
 2411              		.file 3 "/nfs/nfs5/home/research/hardware/arm2/gcc-arm-embedded/gcc-arm-none-eabi-4_8-2014q2/arm-n
 2412              		.file 4 "../../../../../Drivers/BSP/Components/Common/component.h"
 2413              		.file 5 "../../../../../Drivers/BSP/Components/Common/sensor.h"
 2414              		.file 6 "../../../../../Drivers/BSP/Components/Common/accelerometer.h"
 2415              		.file 7 "../../../../../Drivers/BSP/Components/lsm303agr/LSM303AGR_ACC_driver.h"
 2416              		.file 8 "../../../../../Drivers/BSP/Components/lsm303agr/LSM303AGR_Combo_driver_HL.h"
 2417              		.file 9 "../../../../../Drivers/BSP/Components/lsm303agr/LSM303AGR_ACC_driver_HL.h"