ARM GAS  /tmp/ccHvf4Lz.s 			page 1


   1              		.syntax unified
   2              		.cpu cortex-m4
   3              		.fpu softvfp
   4              		.eabi_attribute 20, 1
   5              		.eabi_attribute 21, 1
   6              		.eabi_attribute 23, 3
   7              		.eabi_attribute 24, 1
   8              		.eabi_attribute 25, 1
   9              		.eabi_attribute 26, 1
  10              		.eabi_attribute 30, 6
  11              		.eabi_attribute 34, 1
  12              		.eabi_attribute 18, 4
  13              		.thumb
  14              		.file	"LSM303AGR_ACC_driver_HL.c"
  15              		.text
  16              	.Ltext0:
  17              		.cfi_sections	.debug_frame
  18              		.global	LSM303AGR_X_Drv
  19              		.data
  20              		.align	2
  21              		.type	LSM303AGR_X_Drv, %object
  22              		.size	LSM303AGR_X_Drv, 80
  23              	LSM303AGR_X_Drv:
  24 0000 00000000 		.word	LSM303AGR_X_Init
  25 0004 00000000 		.word	LSM303AGR_X_DeInit
  26 0008 00000000 		.word	LSM303AGR_X_Sensor_Enable
  27 000c 00000000 		.word	LSM303AGR_X_Sensor_Disable
  28 0010 00000000 		.word	LSM303AGR_X_Get_WhoAmI
  29 0014 00000000 		.word	LSM303AGR_X_Check_WhoAmI
  30 0018 00000000 		.word	LSM303AGR_X_Get_Axes
  31 001c 00000000 		.word	LSM303AGR_X_Get_AxesRaw
  32 0020 00000000 		.word	LSM303AGR_X_Get_Sensitivity
  33 0024 00000000 		.word	LSM303AGR_X_Get_ODR
  34 0028 00000000 		.word	LSM303AGR_X_Set_ODR
  35 002c 00000000 		.word	LSM303AGR_X_Set_ODR_Value
  36 0030 00000000 		.word	LSM303AGR_X_Get_FS
  37 0034 00000000 		.word	LSM303AGR_X_Set_FS
  38 0038 00000000 		.word	LSM303AGR_X_Set_FS_Value
  39 003c 00000000 		.word	LSM303AGR_X_Get_Axes_Status
  40 0040 00000000 		.word	LSM303AGR_X_Set_Axes_Status
  41 0044 00000000 		.word	LSM303AGR_X_Read_Reg
  42 0048 00000000 		.word	LSM303AGR_X_Write_Reg
  43 004c 00000000 		.word	LSM303AGR_X_Get_DRDY_Status
  44              		.comm	LSM303AGR_Combo_Data,2,4
  45              		.section	.rodata
  46              		.align	2
  47              	.LC0:
  48 0000 01       		.byte	1
  49 0001 01       		.byte	1
  50 0002 01       		.byte	1
  51 0003 00       		.text
  52              		.align	2
  53              		.p2align 4,,15
  54              		.thumb
  55              		.thumb_func
  56              		.type	LSM303AGR_X_Init, %function
  57              	LSM303AGR_X_Init:
ARM GAS  /tmp/ccHvf4Lz.s 			page 2


  58              	.LFB0:
  59              		.file 1 "../../../../../Drivers/BSP/Components/lsm303agr/LSM303AGR_ACC_driver_HL.c"
  60              		.loc 1 155 0
  61              		.cfi_startproc
  62              		@ args = 0, pretend = 0, frame = 24
  63              		@ frame_needed = 0, uses_anonymous_args = 0
  64 0000 00B5     		push	{lr}
  65              		.cfi_def_cfa_offset 4
  66              		.cfi_offset 14, -4
  67 0002 87B0     		sub	sp, sp, #28
  68              		.cfi_def_cfa_offset 32
  69 0004 0190     		str	r0, [sp, #4]
  70              		.loc 1 157 0
  71 0006 294A     		ldr	r2, .L10
  72 0008 02AB     		add	r3, sp, #8
  73 000a 1188     		ldrh	r1, [r2]	@ unaligned
  74 000c 9278     		ldrb	r2, [r2, #2]
  75 000e 1980     		strh	r1, [r3]	@ unaligned
  76 0010 9A70     		strb	r2, [r3, #2]
  77              		.loc 1 158 0
  78 0012 019B     		ldr	r3, [sp, #4]
  79 0014 9B68     		ldr	r3, [r3, #8]
  80 0016 0593     		str	r3, [sp, #20]
  81              		.loc 1 159 0
  82 0018 059B     		ldr	r3, [sp, #20]
  83 001a 1B68     		ldr	r3, [r3]
  84 001c 0493     		str	r3, [sp, #16]
  85              		.loc 1 160 0
  86 001e 049B     		ldr	r3, [sp, #16]
  87 0020 1B68     		ldr	r3, [r3]
  88 0022 0393     		str	r3, [sp, #12]
  89              		.loc 1 162 0
  90 0024 0198     		ldr	r0, [sp, #4]
  91 0026 00F0EBF8 		bl	LSM303AGR_X_Check_WhoAmI
  92 002a 0346     		mov	r3, r0
  93 002c 012B     		cmp	r3, #1
  94 002e 01D1     		bne	.L2
  95              		.loc 1 164 0
  96 0030 0123     		movs	r3, #1
  97 0032 37E0     		b	.L9
  98              	.L2:
  99              		.loc 1 168 0
 100 0034 0198     		ldr	r0, [sp, #4]
 101 0036 8021     		movs	r1, #128
 102 0038 FFF7FEFF 		bl	LSM303AGR_ACC_W_BlockDataUpdate
 103 003c 0346     		mov	r3, r0
 104 003e 002B     		cmp	r3, #0
 105 0040 01D1     		bne	.L4
 106              		.loc 1 170 0
 107 0042 0123     		movs	r3, #1
 108 0044 2EE0     		b	.L9
 109              	.L4:
 110              		.loc 1 174 0
 111 0046 0198     		ldr	r0, [sp, #4]
 112 0048 0021     		movs	r1, #0
 113 004a FFF7FEFF 		bl	LSM303AGR_ACC_W_FifoMode
 114 004e 0346     		mov	r3, r0
ARM GAS  /tmp/ccHvf4Lz.s 			page 3


 115 0050 002B     		cmp	r3, #0
 116 0052 01D1     		bne	.L5
 117              		.loc 1 176 0
 118 0054 0123     		movs	r3, #1
 119 0056 25E0     		b	.L9
 120              	.L5:
 121              		.loc 1 180 0
 122 0058 049B     		ldr	r3, [sp, #16]
 123 005a 154A     		ldr	r2, .L10+4
 124 005c 5A60     		str	r2, [r3, #4]	@ float
 125              		.loc 1 183 0
 126 005e 0198     		ldr	r0, [sp, #4]
 127 0060 0021     		movs	r1, #0
 128 0062 FFF7FEFF 		bl	LSM303AGR_ACC_W_ODR
 129 0066 0346     		mov	r3, r0
 130 0068 002B     		cmp	r3, #0
 131 006a 01D1     		bne	.L6
 132              		.loc 1 185 0
 133 006c 0123     		movs	r3, #1
 134 006e 19E0     		b	.L9
 135              	.L6:
 136              		.loc 1 189 0
 137 0070 0198     		ldr	r0, [sp, #4]
 138 0072 0021     		movs	r1, #0
 139 0074 00F064FA 		bl	LSM303AGR_X_Set_FS
 140 0078 0346     		mov	r3, r0
 141 007a 012B     		cmp	r3, #1
 142 007c 01D1     		bne	.L7
 143              		.loc 1 191 0
 144 007e 0123     		movs	r3, #1
 145 0080 10E0     		b	.L9
 146              	.L7:
 147              		.loc 1 195 0
 148 0082 02AB     		add	r3, sp, #8
 149 0084 0198     		ldr	r0, [sp, #4]
 150 0086 1946     		mov	r1, r3
 151 0088 00F00AFB 		bl	LSM303AGR_X_Set_Axes_Status
 152 008c 0346     		mov	r3, r0
 153 008e 012B     		cmp	r3, #1
 154 0090 01D1     		bne	.L8
 155              		.loc 1 197 0
 156 0092 0123     		movs	r3, #1
 157 0094 06E0     		b	.L9
 158              	.L8:
 159              		.loc 1 200 0
 160 0096 039B     		ldr	r3, [sp, #12]
 161 0098 0122     		movs	r2, #1
 162 009a 1A70     		strb	r2, [r3]
 163              		.loc 1 202 0
 164 009c 019B     		ldr	r3, [sp, #4]
 165 009e 0122     		movs	r2, #1
 166 00a0 5A71     		strb	r2, [r3, #5]
 167              		.loc 1 204 0
 168 00a2 0023     		movs	r3, #0
 169              	.L9:
 170              		.loc 1 205 0
 171 00a4 1846     		mov	r0, r3
ARM GAS  /tmp/ccHvf4Lz.s 			page 4


 172 00a6 07B0     		add	sp, sp, #28
 173              		@ sp needed
 174 00a8 5DF804FB 		ldr	pc, [sp], #4
 175              	.L11:
 176              		.align	2
 177              	.L10:
 178 00ac 00000000 		.word	.LC0
 179 00b0 0000C842 		.word	1120403456
 180              		.cfi_endproc
 181              	.LFE0:
 182              		.size	LSM303AGR_X_Init, .-LSM303AGR_X_Init
 183              		.align	2
 184 00b4 AFF30080 		.p2align 4,,15
 184      AFF30080 
 184      AFF30080 
 185              		.thumb
 186              		.thumb_func
 187              		.type	LSM303AGR_X_DeInit, %function
 188              	LSM303AGR_X_DeInit:
 189              	.LFB1:
 190              		.loc 1 215 0
 191              		.cfi_startproc
 192              		@ args = 0, pretend = 0, frame = 24
 193              		@ frame_needed = 0, uses_anonymous_args = 0
 194 00c0 00B5     		push	{lr}
 195              		.cfi_def_cfa_offset 4
 196              		.cfi_offset 14, -4
 197 00c2 87B0     		sub	sp, sp, #28
 198              		.cfi_def_cfa_offset 32
 199 00c4 0190     		str	r0, [sp, #4]
 200              		.loc 1 217 0
 201 00c6 019B     		ldr	r3, [sp, #4]
 202 00c8 9B68     		ldr	r3, [r3, #8]
 203 00ca 0593     		str	r3, [sp, #20]
 204              		.loc 1 218 0
 205 00cc 059B     		ldr	r3, [sp, #20]
 206 00ce 1B68     		ldr	r3, [r3]
 207 00d0 0493     		str	r3, [sp, #16]
 208              		.loc 1 219 0
 209 00d2 049B     		ldr	r3, [sp, #16]
 210 00d4 1B68     		ldr	r3, [r3]
 211 00d6 0393     		str	r3, [sp, #12]
 212              		.loc 1 221 0
 213 00d8 0198     		ldr	r0, [sp, #4]
 214 00da 00F091F8 		bl	LSM303AGR_X_Check_WhoAmI
 215 00de 0346     		mov	r3, r0
 216 00e0 012B     		cmp	r3, #1
 217 00e2 01D1     		bne	.L13
 218              		.loc 1 223 0
 219 00e4 0123     		movs	r3, #1
 220 00e6 12E0     		b	.L14
 221              	.L13:
 222              		.loc 1 227 0
 223 00e8 0198     		ldr	r0, [sp, #4]
 224 00ea 00F041F8 		bl	LSM303AGR_X_Sensor_Disable
 225 00ee 0346     		mov	r3, r0
 226 00f0 012B     		cmp	r3, #1
ARM GAS  /tmp/ccHvf4Lz.s 			page 5


 227 00f2 01D1     		bne	.L15
 228              		.loc 1 229 0
 229 00f4 0123     		movs	r3, #1
 230 00f6 0AE0     		b	.L14
 231              	.L15:
 232              		.loc 1 233 0
 233 00f8 049B     		ldr	r3, [sp, #16]
 234 00fa 4FF00002 		mov	r2, #0
 235 00fe 5A60     		str	r2, [r3, #4]	@ float
 236              		.loc 1 235 0
 237 0100 039B     		ldr	r3, [sp, #12]
 238 0102 0022     		movs	r2, #0
 239 0104 1A70     		strb	r2, [r3]
 240              		.loc 1 237 0
 241 0106 019B     		ldr	r3, [sp, #4]
 242 0108 0022     		movs	r2, #0
 243 010a 5A71     		strb	r2, [r3, #5]
 244              		.loc 1 239 0
 245 010c 0023     		movs	r3, #0
 246              	.L14:
 247              		.loc 1 240 0
 248 010e 1846     		mov	r0, r3
 249 0110 07B0     		add	sp, sp, #28
 250              		@ sp needed
 251 0112 5DF804FB 		ldr	pc, [sp], #4
 252              		.cfi_endproc
 253              	.LFE1:
 254              		.size	LSM303AGR_X_DeInit, .-LSM303AGR_X_DeInit
 255 0116 00BF     		.align	2
 256 0118 AFF30080 		.p2align 4,,15
 256      AFF30080 
 257              		.thumb
 258              		.thumb_func
 259              		.type	LSM303AGR_X_Sensor_Enable, %function
 260              	LSM303AGR_X_Sensor_Enable:
 261              	.LFB2:
 262              		.loc 1 251 0
 263              		.cfi_startproc
 264              		@ args = 0, pretend = 0, frame = 16
 265              		@ frame_needed = 0, uses_anonymous_args = 0
 266 0120 00B5     		push	{lr}
 267              		.cfi_def_cfa_offset 4
 268              		.cfi_offset 14, -4
 269 0122 85B0     		sub	sp, sp, #20
 270              		.cfi_def_cfa_offset 24
 271 0124 0190     		str	r0, [sp, #4]
 272              		.loc 1 252 0
 273 0126 019B     		ldr	r3, [sp, #4]
 274 0128 9B68     		ldr	r3, [r3, #8]
 275 012a 0393     		str	r3, [sp, #12]
 276              		.loc 1 253 0
 277 012c 039B     		ldr	r3, [sp, #12]
 278 012e 1B68     		ldr	r3, [r3]
 279 0130 0293     		str	r3, [sp, #8]
 280              		.loc 1 256 0
 281 0132 019B     		ldr	r3, [sp, #4]
 282 0134 9B79     		ldrb	r3, [r3, #6]	@ zero_extendqisi2
ARM GAS  /tmp/ccHvf4Lz.s 			page 6


 283 0136 012B     		cmp	r3, #1
 284 0138 01D1     		bne	.L17
 285              		.loc 1 258 0
 286 013a 0023     		movs	r3, #0
 287 013c 0EE0     		b	.L18
 288              	.L17:
 289              		.loc 1 262 0
 290 013e 029B     		ldr	r3, [sp, #8]
 291 0140 5B68     		ldr	r3, [r3, #4]	@ float
 292 0142 0198     		ldr	r0, [sp, #4]
 293 0144 1946     		mov	r1, r3
 294 0146 00F04BFC 		bl	LSM303AGR_X_Set_ODR_Value_When_Enabled
 295 014a 0346     		mov	r3, r0
 296 014c 012B     		cmp	r3, #1
 297 014e 01D1     		bne	.L19
 298              		.loc 1 264 0
 299 0150 0123     		movs	r3, #1
 300 0152 03E0     		b	.L18
 301              	.L19:
 302              		.loc 1 267 0
 303 0154 019B     		ldr	r3, [sp, #4]
 304 0156 0122     		movs	r2, #1
 305 0158 9A71     		strb	r2, [r3, #6]
 306              		.loc 1 269 0
 307 015a 0023     		movs	r3, #0
 308              	.L18:
 309              		.loc 1 270 0
 310 015c 1846     		mov	r0, r3
 311 015e 05B0     		add	sp, sp, #20
 312              		@ sp needed
 313 0160 5DF804FB 		ldr	pc, [sp], #4
 314              		.cfi_endproc
 315              	.LFE2:
 316              		.size	LSM303AGR_X_Sensor_Enable, .-LSM303AGR_X_Sensor_Enable
 317              		.align	2
 318 0164 AFF30080 		.p2align 4,,15
 318      AFF30080 
 318      AFF30080 
 319              		.thumb
 320              		.thumb_func
 321              		.type	LSM303AGR_X_Sensor_Disable, %function
 322              	LSM303AGR_X_Sensor_Disable:
 323              	.LFB3:
 324              		.loc 1 281 0
 325              		.cfi_startproc
 326              		@ args = 0, pretend = 0, frame = 16
 327              		@ frame_needed = 0, uses_anonymous_args = 0
 328 0170 00B5     		push	{lr}
 329              		.cfi_def_cfa_offset 4
 330              		.cfi_offset 14, -4
 331 0172 85B0     		sub	sp, sp, #20
 332              		.cfi_def_cfa_offset 24
 333 0174 0190     		str	r0, [sp, #4]
 334              		.loc 1 282 0
 335 0176 019B     		ldr	r3, [sp, #4]
 336 0178 9B68     		ldr	r3, [r3, #8]
 337 017a 0393     		str	r3, [sp, #12]
ARM GAS  /tmp/ccHvf4Lz.s 			page 7


 338              		.loc 1 283 0
 339 017c 039B     		ldr	r3, [sp, #12]
 340 017e 1B68     		ldr	r3, [r3]
 341 0180 0293     		str	r3, [sp, #8]
 342              		.loc 1 286 0
 343 0182 019B     		ldr	r3, [sp, #4]
 344 0184 9B79     		ldrb	r3, [r3, #6]	@ zero_extendqisi2
 345 0186 002B     		cmp	r3, #0
 346 0188 01D1     		bne	.L21
 347              		.loc 1 288 0
 348 018a 0023     		movs	r3, #0
 349 018c 17E0     		b	.L22
 350              	.L21:
 351              		.loc 1 292 0
 352 018e 029B     		ldr	r3, [sp, #8]
 353 0190 0433     		adds	r3, r3, #4
 354 0192 0198     		ldr	r0, [sp, #4]
 355 0194 1946     		mov	r1, r3
 356 0196 00F0E3F8 		bl	LSM303AGR_X_Get_ODR
 357 019a 0346     		mov	r3, r0
 358 019c 012B     		cmp	r3, #1
 359 019e 01D1     		bne	.L23
 360              		.loc 1 294 0
 361 01a0 0123     		movs	r3, #1
 362 01a2 0CE0     		b	.L22
 363              	.L23:
 364              		.loc 1 298 0
 365 01a4 0198     		ldr	r0, [sp, #4]
 366 01a6 0021     		movs	r1, #0
 367 01a8 FFF7FEFF 		bl	LSM303AGR_ACC_W_ODR
 368 01ac 0346     		mov	r3, r0
 369 01ae 002B     		cmp	r3, #0
 370 01b0 01D1     		bne	.L24
 371              		.loc 1 300 0
 372 01b2 0123     		movs	r3, #1
 373 01b4 03E0     		b	.L22
 374              	.L24:
 375              		.loc 1 303 0
 376 01b6 019B     		ldr	r3, [sp, #4]
 377 01b8 0022     		movs	r2, #0
 378 01ba 9A71     		strb	r2, [r3, #6]
 379              		.loc 1 305 0
 380 01bc 0023     		movs	r3, #0
 381              	.L22:
 382              		.loc 1 306 0
 383 01be 1846     		mov	r0, r3
 384 01c0 05B0     		add	sp, sp, #20
 385              		@ sp needed
 386 01c2 5DF804FB 		ldr	pc, [sp], #4
 387              		.cfi_endproc
 388              	.LFE3:
 389              		.size	LSM303AGR_X_Sensor_Disable, .-LSM303AGR_X_Sensor_Disable
 390 01c6 00BF     		.align	2
 391 01c8 AFF30080 		.p2align 4,,15
 391      AFF30080 
 392              		.thumb
 393              		.thumb_func
ARM GAS  /tmp/ccHvf4Lz.s 			page 8


 394              		.type	LSM303AGR_X_Get_WhoAmI, %function
 395              	LSM303AGR_X_Get_WhoAmI:
 396              	.LFB4:
 397              		.loc 1 317 0
 398              		.cfi_startproc
 399              		@ args = 0, pretend = 0, frame = 8
 400              		@ frame_needed = 0, uses_anonymous_args = 0
 401 01d0 00B5     		push	{lr}
 402              		.cfi_def_cfa_offset 4
 403              		.cfi_offset 14, -4
 404 01d2 83B0     		sub	sp, sp, #12
 405              		.cfi_def_cfa_offset 16
 406 01d4 0190     		str	r0, [sp, #4]
 407 01d6 0091     		str	r1, [sp]
 408              		.loc 1 320 0
 409 01d8 0198     		ldr	r0, [sp, #4]
 410 01da 0099     		ldr	r1, [sp]
 411 01dc FFF7FEFF 		bl	LSM303AGR_ACC_R_WHO_AM_I
 412 01e0 0346     		mov	r3, r0
 413 01e2 002B     		cmp	r3, #0
 414 01e4 01D1     		bne	.L26
 415              		.loc 1 322 0
 416 01e6 0123     		movs	r3, #1
 417 01e8 00E0     		b	.L27
 418              	.L26:
 419              		.loc 1 325 0
 420 01ea 0023     		movs	r3, #0
 421              	.L27:
 422              		.loc 1 326 0
 423 01ec 1846     		mov	r0, r3
 424 01ee 03B0     		add	sp, sp, #12
 425              		@ sp needed
 426 01f0 5DF804FB 		ldr	pc, [sp], #4
 427              		.cfi_endproc
 428              	.LFE4:
 429              		.size	LSM303AGR_X_Get_WhoAmI, .-LSM303AGR_X_Get_WhoAmI
 430              		.align	2
 431 01f4 AFF30080 		.p2align 4,,15
 431      AFF30080 
 431      AFF30080 
 432              		.thumb
 433              		.thumb_func
 434              		.type	LSM303AGR_X_Check_WhoAmI, %function
 435              	LSM303AGR_X_Check_WhoAmI:
 436              	.LFB5:
 437              		.loc 1 335 0
 438              		.cfi_startproc
 439              		@ args = 0, pretend = 0, frame = 16
 440              		@ frame_needed = 0, uses_anonymous_args = 0
 441 0200 00B5     		push	{lr}
 442              		.cfi_def_cfa_offset 4
 443              		.cfi_offset 14, -4
 444 0202 85B0     		sub	sp, sp, #20
 445              		.cfi_def_cfa_offset 24
 446 0204 0190     		str	r0, [sp, #4]
 447              		.loc 1 337 0
 448 0206 0023     		movs	r3, #0
ARM GAS  /tmp/ccHvf4Lz.s 			page 9


 449 0208 8DF80F30 		strb	r3, [sp, #15]
 450              		.loc 1 339 0
 451 020c 0DF10F03 		add	r3, sp, #15
 452 0210 0198     		ldr	r0, [sp, #4]
 453 0212 1946     		mov	r1, r3
 454 0214 FFF7DCFF 		bl	LSM303AGR_X_Get_WhoAmI
 455 0218 0346     		mov	r3, r0
 456 021a 012B     		cmp	r3, #1
 457 021c 01D1     		bne	.L29
 458              		.loc 1 341 0
 459 021e 0123     		movs	r3, #1
 460 0220 08E0     		b	.L32
 461              	.L29:
 462              		.loc 1 343 0
 463 0222 019B     		ldr	r3, [sp, #4]
 464 0224 1A78     		ldrb	r2, [r3]	@ zero_extendqisi2
 465 0226 9DF80F30 		ldrb	r3, [sp, #15]	@ zero_extendqisi2
 466 022a 9A42     		cmp	r2, r3
 467 022c 01D0     		beq	.L31
 468              		.loc 1 345 0
 469 022e 0123     		movs	r3, #1
 470 0230 00E0     		b	.L32
 471              	.L31:
 472              		.loc 1 348 0
 473 0232 0023     		movs	r3, #0
 474              	.L32:
 475              		.loc 1 349 0
 476 0234 1846     		mov	r0, r3
 477 0236 05B0     		add	sp, sp, #20
 478              		@ sp needed
 479 0238 5DF804FB 		ldr	pc, [sp], #4
 480              		.cfi_endproc
 481              	.LFE5:
 482              		.size	LSM303AGR_X_Check_WhoAmI, .-LSM303AGR_X_Check_WhoAmI
 483              		.align	2
 484 023c AFF30080 		.p2align 4,,15
 485              		.thumb
 486              		.thumb_func
 487              		.type	LSM303AGR_X_Get_Axes, %function
 488              	LSM303AGR_X_Get_Axes:
 489              	.LFB6:
 490              		.loc 1 360 0
 491              		.cfi_startproc
 492              		@ args = 0, pretend = 0, frame = 24
 493              		@ frame_needed = 0, uses_anonymous_args = 0
 494 0240 00B5     		push	{lr}
 495              		.cfi_def_cfa_offset 4
 496              		.cfi_offset 14, -4
 497 0242 87B0     		sub	sp, sp, #28
 498              		.cfi_def_cfa_offset 32
 499 0244 0190     		str	r0, [sp, #4]
 500 0246 0091     		str	r1, [sp]
 501              		.loc 1 365 0
 502 0248 03AB     		add	r3, sp, #12
 503 024a 0198     		ldr	r0, [sp, #4]
 504 024c 1946     		mov	r1, r3
 505 024e FFF7FEFF 		bl	LSM303AGR_ACC_Get_Acceleration
ARM GAS  /tmp/ccHvf4Lz.s 			page 10


 506 0252 0346     		mov	r3, r0
 507 0254 002B     		cmp	r3, #0
 508 0256 01D1     		bne	.L34
 509              		.loc 1 367 0
 510 0258 0123     		movs	r3, #1
 511 025a 09E0     		b	.L36
 512              	.L34:
 513              		.loc 1 371 0
 514 025c 039A     		ldr	r2, [sp, #12]
 515 025e 009B     		ldr	r3, [sp]
 516 0260 1A60     		str	r2, [r3]
 517              		.loc 1 372 0
 518 0262 049A     		ldr	r2, [sp, #16]
 519 0264 009B     		ldr	r3, [sp]
 520 0266 5A60     		str	r2, [r3, #4]
 521              		.loc 1 373 0
 522 0268 059A     		ldr	r2, [sp, #20]
 523 026a 009B     		ldr	r3, [sp]
 524 026c 9A60     		str	r2, [r3, #8]
 525              		.loc 1 375 0
 526 026e 0023     		movs	r3, #0
 527              	.L36:
 528              		.loc 1 376 0
 529 0270 1846     		mov	r0, r3
 530 0272 07B0     		add	sp, sp, #28
 531              		@ sp needed
 532 0274 5DF804FB 		ldr	pc, [sp], #4
 533              		.cfi_endproc
 534              	.LFE6:
 535              		.size	LSM303AGR_X_Get_Axes, .-LSM303AGR_X_Get_Axes
 536              		.align	2
 537 0278 AFF30080 		.p2align 4,,15
 537      AFF30080 
 538              		.thumb
 539              		.thumb_func
 540              		.type	LSM303AGR_X_Get_AxesRaw, %function
 541              	LSM303AGR_X_Get_AxesRaw:
 542              	.LFB7:
 543              		.loc 1 386 0
 544              		.cfi_startproc
 545              		@ args = 0, pretend = 0, frame = 16
 546              		@ frame_needed = 0, uses_anonymous_args = 0
 547 0280 00B5     		push	{lr}
 548              		.cfi_def_cfa_offset 4
 549              		.cfi_offset 14, -4
 550 0282 85B0     		sub	sp, sp, #20
 551              		.cfi_def_cfa_offset 24
 552 0284 0190     		str	r0, [sp, #4]
 553 0286 0091     		str	r1, [sp]
 554              		.loc 1 391 0
 555 0288 02AB     		add	r3, sp, #8
 556 028a 0198     		ldr	r0, [sp, #4]
 557 028c 1946     		mov	r1, r3
 558 028e 00F0AFFA 		bl	LSM303AGR_X_Get_Axes_Raw
 559 0292 0346     		mov	r3, r0
 560 0294 012B     		cmp	r3, #1
 561 0296 01D1     		bne	.L38
ARM GAS  /tmp/ccHvf4Lz.s 			page 11


 562              		.loc 1 393 0
 563 0298 0123     		movs	r3, #1
 564 029a 0CE0     		b	.L40
 565              	.L38:
 566              		.loc 1 397 0
 567 029c BDF80820 		ldrh	r2, [sp, #8]
 568 02a0 009B     		ldr	r3, [sp]
 569 02a2 1A80     		strh	r2, [r3]	@ movhi
 570              		.loc 1 398 0
 571 02a4 BDF80A20 		ldrh	r2, [sp, #10]
 572 02a8 009B     		ldr	r3, [sp]
 573 02aa 5A80     		strh	r2, [r3, #2]	@ movhi
 574              		.loc 1 399 0
 575 02ac BDF80C20 		ldrh	r2, [sp, #12]
 576 02b0 009B     		ldr	r3, [sp]
 577 02b2 9A80     		strh	r2, [r3, #4]	@ movhi
 578              		.loc 1 401 0
 579 02b4 0023     		movs	r3, #0
 580              	.L40:
 581              		.loc 1 402 0
 582 02b6 1846     		mov	r0, r3
 583 02b8 05B0     		add	sp, sp, #20
 584              		@ sp needed
 585 02ba 5DF804FB 		ldr	pc, [sp], #4
 586              		.cfi_endproc
 587              	.LFE7:
 588              		.size	LSM303AGR_X_Get_AxesRaw, .-LSM303AGR_X_Get_AxesRaw
 589 02be 00BF     		.align	2
 590              		.p2align 4,,15
 591              		.thumb
 592              		.thumb_func
 593              		.type	LSM303AGR_X_Get_Sensitivity, %function
 594              	LSM303AGR_X_Get_Sensitivity:
 595              	.LFB8:
 596              		.loc 1 414 0
 597              		.cfi_startproc
 598              		@ args = 0, pretend = 0, frame = 16
 599              		@ frame_needed = 0, uses_anonymous_args = 0
 600 02c0 00B5     		push	{lr}
 601              		.cfi_def_cfa_offset 4
 602              		.cfi_offset 14, -4
 603 02c2 85B0     		sub	sp, sp, #20
 604              		.cfi_def_cfa_offset 24
 605 02c4 0190     		str	r0, [sp, #4]
 606 02c6 0091     		str	r1, [sp]
 607              		.loc 1 420 0
 608 02c8 0DF10F03 		add	r3, sp, #15
 609 02cc 0198     		ldr	r0, [sp, #4]
 610 02ce 1946     		mov	r1, r3
 611 02d0 FFF7FEFF 		bl	LSM303AGR_ACC_R_LOWPWR_EN
 612 02d4 0346     		mov	r3, r0
 613 02d6 002B     		cmp	r3, #0
 614 02d8 01D1     		bne	.L42
 615              		.loc 1 422 0
 616 02da 0123     		movs	r3, #1
 617 02dc 35E0     		b	.L48
 618              	.L42:
ARM GAS  /tmp/ccHvf4Lz.s 			page 12


 619              		.loc 1 426 0
 620 02de 0DF10E03 		add	r3, sp, #14
 621 02e2 0198     		ldr	r0, [sp, #4]
 622 02e4 1946     		mov	r1, r3
 623 02e6 FFF7FEFF 		bl	LSM303AGR_ACC_R_HiRes
 624 02ea 0346     		mov	r3, r0
 625 02ec 002B     		cmp	r3, #0
 626 02ee 01D1     		bne	.L44
 627              		.loc 1 428 0
 628 02f0 0123     		movs	r3, #1
 629 02f2 2AE0     		b	.L48
 630              	.L44:
 631              		.loc 1 431 0
 632 02f4 9DF80F30 		ldrb	r3, [sp, #15]	@ zero_extendqisi2
 633 02f8 002B     		cmp	r3, #0
 634 02fa 09D1     		bne	.L45
 635              		.loc 1 431 0 is_stmt 0 discriminator 1
 636 02fc 9DF80E30 		ldrb	r3, [sp, #14]	@ zero_extendqisi2
 637 0300 002B     		cmp	r3, #0
 638 0302 05D1     		bne	.L45
 639              		.loc 1 434 0 is_stmt 1
 640 0304 0198     		ldr	r0, [sp, #4]
 641 0306 0099     		ldr	r1, [sp]
 642 0308 00F01AFC 		bl	LSM303AGR_X_Get_Sensitivity_Normal_Mode
 643 030c 0346     		mov	r3, r0
 644 030e 1CE0     		b	.L48
 645              	.L45:
 646              		.loc 1 436 0
 647 0310 9DF80F30 		ldrb	r3, [sp, #15]	@ zero_extendqisi2
 648 0314 082B     		cmp	r3, #8
 649 0316 09D1     		bne	.L46
 650              		.loc 1 436 0 is_stmt 0 discriminator 1
 651 0318 9DF80E30 		ldrb	r3, [sp, #14]	@ zero_extendqisi2
 652 031c 002B     		cmp	r3, #0
 653 031e 05D1     		bne	.L46
 654              		.loc 1 439 0 is_stmt 1
 655 0320 0198     		ldr	r0, [sp, #4]
 656 0322 0099     		ldr	r1, [sp]
 657 0324 00F054FC 		bl	LSM303AGR_X_Get_Sensitivity_LP_Mode
 658 0328 0346     		mov	r3, r0
 659 032a 0EE0     		b	.L48
 660              	.L46:
 661              		.loc 1 441 0
 662 032c 9DF80F30 		ldrb	r3, [sp, #15]	@ zero_extendqisi2
 663 0330 002B     		cmp	r3, #0
 664 0332 09D1     		bne	.L47
 665              		.loc 1 441 0 is_stmt 0 discriminator 1
 666 0334 9DF80E30 		ldrb	r3, [sp, #14]	@ zero_extendqisi2
 667 0338 082B     		cmp	r3, #8
 668 033a 05D1     		bne	.L47
 669              		.loc 1 444 0 is_stmt 1
 670 033c 0198     		ldr	r0, [sp, #4]
 671 033e 0099     		ldr	r1, [sp]
 672 0340 00F08EFC 		bl	LSM303AGR_X_Get_Sensitivity_HR_Mode
 673 0344 0346     		mov	r3, r0
 674 0346 00E0     		b	.L48
 675              	.L47:
ARM GAS  /tmp/ccHvf4Lz.s 			page 13


 676              		.loc 1 449 0
 677 0348 0123     		movs	r3, #1
 678              	.L48:
 679              		.loc 1 451 0
 680 034a 1846     		mov	r0, r3
 681 034c 05B0     		add	sp, sp, #20
 682              		@ sp needed
 683 034e 5DF804FB 		ldr	pc, [sp], #4
 684              		.cfi_endproc
 685              	.LFE8:
 686              		.size	LSM303AGR_X_Get_Sensitivity, .-LSM303AGR_X_Get_Sensitivity
 687 0352 00BF     		.align	2
 688 0354 AFF30080 		.p2align 4,,15
 688      AFF30080 
 688      AFF30080 
 689              		.thumb
 690              		.thumb_func
 691              		.type	LSM303AGR_X_Get_ODR, %function
 692              	LSM303AGR_X_Get_ODR:
 693              	.LFB9:
 694              		.loc 1 463 0
 695              		.cfi_startproc
 696              		@ args = 0, pretend = 0, frame = 16
 697              		@ frame_needed = 0, uses_anonymous_args = 0
 698 0360 00B5     		push	{lr}
 699              		.cfi_def_cfa_offset 4
 700              		.cfi_offset 14, -4
 701 0362 85B0     		sub	sp, sp, #20
 702              		.cfi_def_cfa_offset 24
 703 0364 0190     		str	r0, [sp, #4]
 704 0366 0091     		str	r1, [sp]
 705              		.loc 1 467 0
 706 0368 0DF10F03 		add	r3, sp, #15
 707 036c 0198     		ldr	r0, [sp, #4]
 708 036e 1946     		mov	r1, r3
 709 0370 FFF7FEFF 		bl	LSM303AGR_ACC_R_ODR
 710 0374 0346     		mov	r3, r0
 711 0376 002B     		cmp	r3, #0
 712 0378 01D1     		bne	.L50
 713              		.loc 1 469 0
 714 037a 0123     		movs	r3, #1
 715 037c 40E0     		b	.L64
 716              	.L50:
 717              		.loc 1 472 0
 718 037e 9DF80F30 		ldrb	r3, [sp, #15]	@ zero_extendqisi2
 719 0382 302B     		cmp	r3, #48
 720 0384 22D0     		beq	.L53
 721 0386 302B     		cmp	r3, #48
 722 0388 06DC     		bgt	.L54
 723 038a 102B     		cmp	r3, #16
 724 038c 15D0     		beq	.L55
 725 038e 202B     		cmp	r3, #32
 726 0390 18D0     		beq	.L56
 727 0392 002B     		cmp	r3, #0
 728 0394 0CD0     		beq	.L57
 729 0396 2DE0     		b	.L52
 730              	.L54:
ARM GAS  /tmp/ccHvf4Lz.s 			page 14


 731 0398 502B     		cmp	r3, #80
 732 039a 1FD0     		beq	.L58
 733 039c 502B     		cmp	r3, #80
 734 039e 02DC     		bgt	.L59
 735 03a0 402B     		cmp	r3, #64
 736 03a2 17D0     		beq	.L60
 737 03a4 26E0     		b	.L52
 738              	.L59:
 739 03a6 602B     		cmp	r3, #96
 740 03a8 1CD0     		beq	.L61
 741 03aa 702B     		cmp	r3, #112
 742 03ac 1ED0     		beq	.L62
 743 03ae 21E0     		b	.L52
 744              	.L57:
 745              		.loc 1 475 0
 746 03b0 009B     		ldr	r3, [sp]
 747 03b2 4FF00002 		mov	r2, #0
 748 03b6 1A60     		str	r2, [r3]	@ float
 749              		.loc 1 476 0
 750 03b8 21E0     		b	.L63
 751              	.L55:
 752              		.loc 1 478 0
 753 03ba 009B     		ldr	r3, [sp]
 754 03bc 4FF07E52 		mov	r2, #1065353216
 755 03c0 1A60     		str	r2, [r3]	@ float
 756              		.loc 1 479 0
 757 03c2 1CE0     		b	.L63
 758              	.L56:
 759              		.loc 1 481 0
 760 03c4 009B     		ldr	r3, [sp]
 761 03c6 104A     		ldr	r2, .L65
 762 03c8 1A60     		str	r2, [r3]	@ float
 763              		.loc 1 482 0
 764 03ca 18E0     		b	.L63
 765              	.L53:
 766              		.loc 1 484 0
 767 03cc 009B     		ldr	r3, [sp]
 768 03ce 0F4A     		ldr	r2, .L65+4
 769 03d0 1A60     		str	r2, [r3]	@ float
 770              		.loc 1 485 0
 771 03d2 14E0     		b	.L63
 772              	.L60:
 773              		.loc 1 487 0
 774 03d4 009B     		ldr	r3, [sp]
 775 03d6 0E4A     		ldr	r2, .L65+8
 776 03d8 1A60     		str	r2, [r3]	@ float
 777              		.loc 1 488 0
 778 03da 10E0     		b	.L63
 779              	.L58:
 780              		.loc 1 490 0
 781 03dc 009B     		ldr	r3, [sp]
 782 03de 0D4A     		ldr	r2, .L65+12
 783 03e0 1A60     		str	r2, [r3]	@ float
 784              		.loc 1 491 0
 785 03e2 0CE0     		b	.L63
 786              	.L61:
 787              		.loc 1 493 0
ARM GAS  /tmp/ccHvf4Lz.s 			page 15


 788 03e4 009B     		ldr	r3, [sp]
 789 03e6 0C4A     		ldr	r2, .L65+16
 790 03e8 1A60     		str	r2, [r3]	@ float
 791              		.loc 1 494 0
 792 03ea 08E0     		b	.L63
 793              	.L62:
 794              		.loc 1 496 0
 795 03ec 009B     		ldr	r3, [sp]
 796 03ee 0B4A     		ldr	r2, .L65+20
 797 03f0 1A60     		str	r2, [r3]	@ float
 798              		.loc 1 497 0
 799 03f2 04E0     		b	.L63
 800              	.L52:
 801              		.loc 1 499 0
 802 03f4 009B     		ldr	r3, [sp]
 803 03f6 0A4A     		ldr	r2, .L65+24
 804 03f8 1A60     		str	r2, [r3]	@ float
 805              		.loc 1 500 0
 806 03fa 0123     		movs	r3, #1
 807 03fc 00E0     		b	.L64
 808              	.L63:
 809              		.loc 1 503 0
 810 03fe 0023     		movs	r3, #0
 811              	.L64:
 812              		.loc 1 504 0
 813 0400 1846     		mov	r0, r3
 814 0402 05B0     		add	sp, sp, #20
 815              		@ sp needed
 816 0404 5DF804FB 		ldr	pc, [sp], #4
 817              	.L66:
 818              		.align	2
 819              	.L65:
 820 0408 00002041 		.word	1092616192
 821 040c 0000C841 		.word	1103626240
 822 0410 00004842 		.word	1112014848
 823 0414 0000C842 		.word	1120403456
 824 0418 00004843 		.word	1128792064
 825 041c 0000C843 		.word	1137180672
 826 0420 000080BF 		.word	-1082130432
 827              		.cfi_endproc
 828              	.LFE9:
 829              		.size	LSM303AGR_X_Get_ODR, .-LSM303AGR_X_Get_ODR
 830              		.align	2
 831 0424 AFF30080 		.p2align 4,,15
 831      AFF30080 
 831      AFF30080 
 832              		.thumb
 833              		.thumb_func
 834              		.type	LSM303AGR_X_Set_ODR, %function
 835              	LSM303AGR_X_Set_ODR:
 836              	.LFB10:
 837              		.loc 1 516 0
 838              		.cfi_startproc
 839              		@ args = 0, pretend = 0, frame = 8
 840              		@ frame_needed = 0, uses_anonymous_args = 0
 841 0430 00B5     		push	{lr}
 842              		.cfi_def_cfa_offset 4
ARM GAS  /tmp/ccHvf4Lz.s 			page 16


 843              		.cfi_offset 14, -4
 844 0432 83B0     		sub	sp, sp, #12
 845              		.cfi_def_cfa_offset 16
 846 0434 0190     		str	r0, [sp, #4]
 847 0436 0B46     		mov	r3, r1
 848 0438 8DF80330 		strb	r3, [sp, #3]
 849              		.loc 1 518 0
 850 043c 019B     		ldr	r3, [sp, #4]
 851 043e 9B79     		ldrb	r3, [r3, #6]	@ zero_extendqisi2
 852 0440 012B     		cmp	r3, #1
 853 0442 0AD1     		bne	.L68
 854              		.loc 1 520 0
 855 0444 9DF80330 		ldrb	r3, [sp, #3]	@ zero_extendqisi2
 856 0448 0198     		ldr	r0, [sp, #4]
 857 044a 1946     		mov	r1, r3
 858 044c 00F048FA 		bl	LSM303AGR_X_Set_ODR_When_Enabled
 859 0450 0346     		mov	r3, r0
 860 0452 012B     		cmp	r3, #1
 861 0454 0CD1     		bne	.L69
 862              		.loc 1 522 0
 863 0456 0123     		movs	r3, #1
 864 0458 0BE0     		b	.L70
 865              	.L68:
 866              		.loc 1 527 0
 867 045a 9DF80330 		ldrb	r3, [sp, #3]	@ zero_extendqisi2
 868 045e 0198     		ldr	r0, [sp, #4]
 869 0460 1946     		mov	r1, r3
 870 0462 00F07DFA 		bl	LSM303AGR_X_Set_ODR_When_Disabled
 871 0466 0346     		mov	r3, r0
 872 0468 012B     		cmp	r3, #1
 873 046a 01D1     		bne	.L69
 874              		.loc 1 529 0
 875 046c 0123     		movs	r3, #1
 876 046e 00E0     		b	.L70
 877              	.L69:
 878              		.loc 1 533 0
 879 0470 0023     		movs	r3, #0
 880              	.L70:
 881              		.loc 1 534 0
 882 0472 1846     		mov	r0, r3
 883 0474 03B0     		add	sp, sp, #12
 884              		@ sp needed
 885 0476 5DF804FB 		ldr	pc, [sp], #4
 886              		.cfi_endproc
 887              	.LFE10:
 888              		.size	LSM303AGR_X_Set_ODR, .-LSM303AGR_X_Set_ODR
 889 047a 00BF     		.align	2
 890 047c AFF30080 		.p2align 4,,15
 891              		.thumb
 892              		.thumb_func
 893              		.type	LSM303AGR_X_Set_ODR_Value, %function
 894              	LSM303AGR_X_Set_ODR_Value:
 895              	.LFB11:
 896              		.loc 1 546 0
 897              		.cfi_startproc
 898              		@ args = 0, pretend = 0, frame = 8
 899              		@ frame_needed = 0, uses_anonymous_args = 0
ARM GAS  /tmp/ccHvf4Lz.s 			page 17


 900 0480 00B5     		push	{lr}
 901              		.cfi_def_cfa_offset 4
 902              		.cfi_offset 14, -4
 903 0482 83B0     		sub	sp, sp, #12
 904              		.cfi_def_cfa_offset 16
 905 0484 0190     		str	r0, [sp, #4]
 906 0486 0091     		str	r1, [sp]	@ float
 907              		.loc 1 548 0
 908 0488 019B     		ldr	r3, [sp, #4]
 909 048a 9B79     		ldrb	r3, [r3, #6]	@ zero_extendqisi2
 910 048c 012B     		cmp	r3, #1
 911 048e 08D1     		bne	.L72
 912              		.loc 1 550 0
 913 0490 0198     		ldr	r0, [sp, #4]
 914 0492 0099     		ldr	r1, [sp]	@ float
 915 0494 00F0A4FA 		bl	LSM303AGR_X_Set_ODR_Value_When_Enabled
 916 0498 0346     		mov	r3, r0
 917 049a 012B     		cmp	r3, #1
 918 049c 0AD1     		bne	.L73
 919              		.loc 1 552 0
 920 049e 0123     		movs	r3, #1
 921 04a0 09E0     		b	.L74
 922              	.L72:
 923              		.loc 1 557 0
 924 04a2 0198     		ldr	r0, [sp, #4]
 925 04a4 0099     		ldr	r1, [sp]	@ float
 926 04a6 00F0F3FA 		bl	LSM303AGR_X_Set_ODR_Value_When_Disabled
 927 04aa 0346     		mov	r3, r0
 928 04ac 012B     		cmp	r3, #1
 929 04ae 01D1     		bne	.L73
 930              		.loc 1 559 0
 931 04b0 0123     		movs	r3, #1
 932 04b2 00E0     		b	.L74
 933              	.L73:
 934              		.loc 1 563 0
 935 04b4 0023     		movs	r3, #0
 936              	.L74:
 937              		.loc 1 564 0
 938 04b6 1846     		mov	r0, r3
 939 04b8 03B0     		add	sp, sp, #12
 940              		@ sp needed
 941 04ba 5DF804FB 		ldr	pc, [sp], #4
 942              		.cfi_endproc
 943              	.LFE11:
 944              		.size	LSM303AGR_X_Set_ODR_Value, .-LSM303AGR_X_Set_ODR_Value
 945 04be 00BF     		.align	2
 946              		.p2align 4,,15
 947              		.thumb
 948              		.thumb_func
 949              		.type	LSM303AGR_X_Get_FS, %function
 950              	LSM303AGR_X_Get_FS:
 951              	.LFB12:
 952              		.loc 1 576 0
 953              		.cfi_startproc
 954              		@ args = 0, pretend = 0, frame = 16
 955              		@ frame_needed = 0, uses_anonymous_args = 0
 956 04c0 00B5     		push	{lr}
ARM GAS  /tmp/ccHvf4Lz.s 			page 18


 957              		.cfi_def_cfa_offset 4
 958              		.cfi_offset 14, -4
 959 04c2 85B0     		sub	sp, sp, #20
 960              		.cfi_def_cfa_offset 24
 961 04c4 0190     		str	r0, [sp, #4]
 962 04c6 0091     		str	r1, [sp]
 963              		.loc 1 580 0
 964 04c8 0DF10F03 		add	r3, sp, #15
 965 04cc 0198     		ldr	r0, [sp, #4]
 966 04ce 1946     		mov	r1, r3
 967 04d0 FFF7FEFF 		bl	LSM303AGR_ACC_R_FullScale
 968 04d4 0346     		mov	r3, r0
 969 04d6 002B     		cmp	r3, #0
 970 04d8 01D1     		bne	.L76
 971              		.loc 1 582 0
 972 04da 0123     		movs	r3, #1
 973 04dc 27E0     		b	.L85
 974              	.L76:
 975              		.loc 1 585 0
 976 04de 9DF80F30 		ldrb	r3, [sp, #15]	@ zero_extendqisi2
 977 04e2 102B     		cmp	r3, #16
 978 04e4 0ED0     		beq	.L79
 979 04e6 102B     		cmp	r3, #16
 980 04e8 02DC     		bgt	.L80
 981 04ea 002B     		cmp	r3, #0
 982 04ec 05D0     		beq	.L81
 983 04ee 18E0     		b	.L78
 984              	.L80:
 985 04f0 202B     		cmp	r3, #32
 986 04f2 0CD0     		beq	.L82
 987 04f4 302B     		cmp	r3, #48
 988 04f6 0FD0     		beq	.L83
 989 04f8 13E0     		b	.L78
 990              	.L81:
 991              		.loc 1 588 0
 992 04fa 009B     		ldr	r3, [sp]
 993 04fc 4FF08042 		mov	r2, #1073741824
 994 0500 1A60     		str	r2, [r3]	@ float
 995              		.loc 1 589 0
 996 0502 13E0     		b	.L84
 997              	.L79:
 998              		.loc 1 591 0
 999 0504 009B     		ldr	r3, [sp]
 1000 0506 4FF08142 		mov	r2, #1082130432
 1001 050a 1A60     		str	r2, [r3]	@ float
 1002              		.loc 1 592 0
 1003 050c 0EE0     		b	.L84
 1004              	.L82:
 1005              		.loc 1 594 0
 1006 050e 009B     		ldr	r3, [sp]
 1007 0510 4FF08242 		mov	r2, #1090519040
 1008 0514 1A60     		str	r2, [r3]	@ float
 1009              		.loc 1 595 0
 1010 0516 09E0     		b	.L84
 1011              	.L83:
 1012              		.loc 1 597 0
 1013 0518 009B     		ldr	r3, [sp]
ARM GAS  /tmp/ccHvf4Lz.s 			page 19


 1014 051a 4FF08342 		mov	r2, #1098907648
 1015 051e 1A60     		str	r2, [r3]	@ float
 1016              		.loc 1 598 0
 1017 0520 04E0     		b	.L84
 1018              	.L78:
 1019              		.loc 1 600 0
 1020 0522 009B     		ldr	r3, [sp]
 1021 0524 044A     		ldr	r2, .L86
 1022 0526 1A60     		str	r2, [r3]	@ float
 1023              		.loc 1 601 0
 1024 0528 0123     		movs	r3, #1
 1025 052a 00E0     		b	.L85
 1026              	.L84:
 1027              		.loc 1 604 0
 1028 052c 0023     		movs	r3, #0
 1029              	.L85:
 1030              		.loc 1 605 0
 1031 052e 1846     		mov	r0, r3
 1032 0530 05B0     		add	sp, sp, #20
 1033              		@ sp needed
 1034 0532 5DF804FB 		ldr	pc, [sp], #4
 1035              	.L87:
 1036 0536 00BF     		.align	2
 1037              	.L86:
 1038 0538 000080BF 		.word	-1082130432
 1039              		.cfi_endproc
 1040              	.LFE12:
 1041              		.size	LSM303AGR_X_Get_FS, .-LSM303AGR_X_Get_FS
 1042              		.align	2
 1043 053c AFF30080 		.p2align 4,,15
 1044              		.thumb
 1045              		.thumb_func
 1046              		.type	LSM303AGR_X_Set_FS, %function
 1047              	LSM303AGR_X_Set_FS:
 1048              	.LFB13:
 1049              		.loc 1 617 0
 1050              		.cfi_startproc
 1051              		@ args = 0, pretend = 0, frame = 16
 1052              		@ frame_needed = 0, uses_anonymous_args = 0
 1053 0540 00B5     		push	{lr}
 1054              		.cfi_def_cfa_offset 4
 1055              		.cfi_offset 14, -4
 1056 0542 85B0     		sub	sp, sp, #20
 1057              		.cfi_def_cfa_offset 24
 1058 0544 0190     		str	r0, [sp, #4]
 1059 0546 0B46     		mov	r3, r1
 1060 0548 8DF80330 		strb	r3, [sp, #3]
 1061              		.loc 1 621 0
 1062 054c 9DF80330 		ldrb	r3, [sp, #3]	@ zero_extendqisi2
 1063 0550 022B     		cmp	r3, #2
 1064 0552 07D0     		beq	.L90
 1065 0554 042B     		cmp	r3, #4
 1066 0556 09D0     		beq	.L91
 1067 0558 002B     		cmp	r3, #0
 1068 055a 0BD1     		bne	.L96
 1069              		.loc 1 624 0
 1070 055c 0023     		movs	r3, #0
ARM GAS  /tmp/ccHvf4Lz.s 			page 20


 1071 055e 8DF80F30 		strb	r3, [sp, #15]
 1072              		.loc 1 625 0
 1073 0562 09E0     		b	.L93
 1074              	.L90:
 1075              		.loc 1 627 0
 1076 0564 1023     		movs	r3, #16
 1077 0566 8DF80F30 		strb	r3, [sp, #15]
 1078              		.loc 1 628 0
 1079 056a 05E0     		b	.L93
 1080              	.L91:
 1081              		.loc 1 630 0
 1082 056c 2023     		movs	r3, #32
 1083 056e 8DF80F30 		strb	r3, [sp, #15]
 1084              		.loc 1 631 0
 1085 0572 01E0     		b	.L93
 1086              	.L96:
 1087              		.loc 1 633 0
 1088 0574 0123     		movs	r3, #1
 1089 0576 0BE0     		b	.L94
 1090              	.L93:
 1091              		.loc 1 636 0
 1092 0578 9DF80F30 		ldrb	r3, [sp, #15]	@ zero_extendqisi2
 1093 057c 0198     		ldr	r0, [sp, #4]
 1094 057e 1946     		mov	r1, r3
 1095 0580 FFF7FEFF 		bl	LSM303AGR_ACC_W_FullScale
 1096 0584 0346     		mov	r3, r0
 1097 0586 002B     		cmp	r3, #0
 1098 0588 01D1     		bne	.L95
 1099              		.loc 1 638 0
 1100 058a 0123     		movs	r3, #1
 1101 058c 00E0     		b	.L94
 1102              	.L95:
 1103              		.loc 1 641 0
 1104 058e 0023     		movs	r3, #0
 1105              	.L94:
 1106              		.loc 1 642 0
 1107 0590 1846     		mov	r0, r3
 1108 0592 05B0     		add	sp, sp, #20
 1109              		@ sp needed
 1110 0594 5DF804FB 		ldr	pc, [sp], #4
 1111              		.cfi_endproc
 1112              	.LFE13:
 1113              		.size	LSM303AGR_X_Set_FS, .-LSM303AGR_X_Set_FS
 1114              		.global	__aeabi_fcmple
 1115              		.align	2
 1116 0598 AFF30080 		.p2align 4,,15
 1116      AFF30080 
 1117              		.thumb
 1118              		.thumb_func
 1119              		.type	LSM303AGR_X_Set_FS_Value, %function
 1120              	LSM303AGR_X_Set_FS_Value:
 1121              	.LFB14:
 1122              		.loc 1 654 0
 1123              		.cfi_startproc
 1124              		@ args = 0, pretend = 0, frame = 16
 1125              		@ frame_needed = 0, uses_anonymous_args = 0
 1126 05a0 00B5     		push	{lr}
ARM GAS  /tmp/ccHvf4Lz.s 			page 21


 1127              		.cfi_def_cfa_offset 4
 1128              		.cfi_offset 14, -4
 1129 05a2 85B0     		sub	sp, sp, #20
 1130              		.cfi_def_cfa_offset 24
 1131 05a4 0190     		str	r0, [sp, #4]
 1132 05a6 0091     		str	r1, [sp]	@ float
 1133              		.loc 1 658 0
 1134 05a8 0098     		ldr	r0, [sp]	@ float
 1135 05aa 4FF08041 		mov	r1, #1073741824
 1136 05ae FFF7FEFF 		bl	__aeabi_fcmple
 1137 05b2 0346     		mov	r3, r0
 1138 05b4 002B     		cmp	r3, #0
 1139 05b6 01D0     		beq	.L112
 1140              		.loc 1 658 0 is_stmt 0 discriminator 1
 1141 05b8 0023     		movs	r3, #0
 1142 05ba 14E0     		b	.L100
 1143              	.L112:
 1144              		.loc 1 658 0 discriminator 2
 1145 05bc 0098     		ldr	r0, [sp]	@ float
 1146 05be 4FF08141 		mov	r1, #1082130432
 1147 05c2 FFF7FEFF 		bl	__aeabi_fcmple
 1148 05c6 0346     		mov	r3, r0
 1149 05c8 002B     		cmp	r3, #0
 1150 05ca 01D0     		beq	.L113
 1151              		.loc 1 658 0 discriminator 3
 1152 05cc 1023     		movs	r3, #16
 1153 05ce 0AE0     		b	.L100
 1154              	.L113:
 1155              		.loc 1 658 0 discriminator 4
 1156 05d0 0098     		ldr	r0, [sp]	@ float
 1157 05d2 4FF08241 		mov	r1, #1090519040
 1158 05d6 FFF7FEFF 		bl	__aeabi_fcmple
 1159 05da 0346     		mov	r3, r0
 1160 05dc 002B     		cmp	r3, #0
 1161 05de 01D0     		beq	.L114
 1162              		.loc 1 658 0 discriminator 5
 1163 05e0 2023     		movs	r3, #32
 1164 05e2 00E0     		b	.L100
 1165              	.L114:
 1166              		.loc 1 658 0 discriminator 6
 1167 05e4 3023     		movs	r3, #48
 1168              	.L100:
 1169              		.loc 1 658 0 discriminator 9
 1170 05e6 8DF80F30 		strb	r3, [sp, #15]
 1171              		.loc 1 663 0 is_stmt 1 discriminator 9
 1172 05ea 9DF80F30 		ldrb	r3, [sp, #15]	@ zero_extendqisi2
 1173 05ee 0198     		ldr	r0, [sp, #4]
 1174 05f0 1946     		mov	r1, r3
 1175 05f2 FFF7FEFF 		bl	LSM303AGR_ACC_W_FullScale
 1176 05f6 0346     		mov	r3, r0
 1177 05f8 002B     		cmp	r3, #0
 1178 05fa 01D1     		bne	.L107
 1179              		.loc 1 665 0
 1180 05fc 0123     		movs	r3, #1
 1181 05fe 00E0     		b	.L108
 1182              	.L107:
 1183              		.loc 1 668 0
ARM GAS  /tmp/ccHvf4Lz.s 			page 22


 1184 0600 0023     		movs	r3, #0
 1185              	.L108:
 1186              		.loc 1 669 0
 1187 0602 1846     		mov	r0, r3
 1188 0604 05B0     		add	sp, sp, #20
 1189              		@ sp needed
 1190 0606 5DF804FB 		ldr	pc, [sp], #4
 1191              		.cfi_endproc
 1192              	.LFE14:
 1193              		.size	LSM303AGR_X_Set_FS_Value, .-LSM303AGR_X_Set_FS_Value
 1194 060a 00BF     		.align	2
 1195 060c AFF30080 		.p2align 4,,15
 1196              		.thumb
 1197              		.thumb_func
 1198              		.type	LSM303AGR_X_Get_Axes_Status, %function
 1199              	LSM303AGR_X_Get_Axes_Status:
 1200              	.LFB15:
 1201              		.loc 1 681 0
 1202              		.cfi_startproc
 1203              		@ args = 0, pretend = 0, frame = 16
 1204              		@ frame_needed = 0, uses_anonymous_args = 0
 1205 0610 00B5     		push	{lr}
 1206              		.cfi_def_cfa_offset 4
 1207              		.cfi_offset 14, -4
 1208 0612 85B0     		sub	sp, sp, #20
 1209              		.cfi_def_cfa_offset 24
 1210 0614 0190     		str	r0, [sp, #4]
 1211 0616 0091     		str	r1, [sp]
 1212              		.loc 1 687 0
 1213 0618 0DF10F03 		add	r3, sp, #15
 1214 061c 0198     		ldr	r0, [sp, #4]
 1215 061e 1946     		mov	r1, r3
 1216 0620 FFF7FEFF 		bl	LSM303AGR_ACC_R_XEN
 1217 0624 0346     		mov	r3, r0
 1218 0626 002B     		cmp	r3, #0
 1219 0628 01D1     		bne	.L116
 1220              		.loc 1 689 0
 1221 062a 0123     		movs	r3, #1
 1222 062c 34E0     		b	.L120
 1223              	.L116:
 1224              		.loc 1 691 0
 1225 062e 0DF10E03 		add	r3, sp, #14
 1226 0632 0198     		ldr	r0, [sp, #4]
 1227 0634 1946     		mov	r1, r3
 1228 0636 FFF7FEFF 		bl	LSM303AGR_ACC_R_YEN
 1229 063a 0346     		mov	r3, r0
 1230 063c 002B     		cmp	r3, #0
 1231 063e 01D1     		bne	.L118
 1232              		.loc 1 693 0
 1233 0640 0123     		movs	r3, #1
 1234 0642 29E0     		b	.L120
 1235              	.L118:
 1236              		.loc 1 695 0
 1237 0644 0DF10D03 		add	r3, sp, #13
 1238 0648 0198     		ldr	r0, [sp, #4]
 1239 064a 1946     		mov	r1, r3
 1240 064c FFF7FEFF 		bl	LSM303AGR_ACC_R_ZEN
ARM GAS  /tmp/ccHvf4Lz.s 			page 23


 1241 0650 0346     		mov	r3, r0
 1242 0652 002B     		cmp	r3, #0
 1243 0654 01D1     		bne	.L119
 1244              		.loc 1 697 0
 1245 0656 0123     		movs	r3, #1
 1246 0658 1EE0     		b	.L120
 1247              	.L119:
 1248              		.loc 1 700 0
 1249 065a 9DF80F30 		ldrb	r3, [sp, #15]	@ zero_extendqisi2
 1250 065e 012B     		cmp	r3, #1
 1251 0660 14BF     		ite	ne
 1252 0662 0023     		movne	r3, #0
 1253 0664 0123     		moveq	r3, #1
 1254 0666 DBB2     		uxtb	r3, r3
 1255 0668 1A46     		mov	r2, r3
 1256 066a 009B     		ldr	r3, [sp]
 1257 066c 1A70     		strb	r2, [r3]
 1258              		.loc 1 701 0
 1259 066e 009B     		ldr	r3, [sp]
 1260 0670 0133     		adds	r3, r3, #1
 1261 0672 9DF80E20 		ldrb	r2, [sp, #14]	@ zero_extendqisi2
 1262 0676 022A     		cmp	r2, #2
 1263 0678 14BF     		ite	ne
 1264 067a 0022     		movne	r2, #0
 1265 067c 0122     		moveq	r2, #1
 1266 067e D2B2     		uxtb	r2, r2
 1267 0680 1A70     		strb	r2, [r3]
 1268              		.loc 1 702 0
 1269 0682 009B     		ldr	r3, [sp]
 1270 0684 0233     		adds	r3, r3, #2
 1271 0686 9DF80D20 		ldrb	r2, [sp, #13]	@ zero_extendqisi2
 1272 068a 042A     		cmp	r2, #4
 1273 068c 14BF     		ite	ne
 1274 068e 0022     		movne	r2, #0
 1275 0690 0122     		moveq	r2, #1
 1276 0692 D2B2     		uxtb	r2, r2
 1277 0694 1A70     		strb	r2, [r3]
 1278              		.loc 1 704 0
 1279 0696 0023     		movs	r3, #0
 1280              	.L120:
 1281              		.loc 1 705 0
 1282 0698 1846     		mov	r0, r3
 1283 069a 05B0     		add	sp, sp, #20
 1284              		@ sp needed
 1285 069c 5DF804FB 		ldr	pc, [sp], #4
 1286              		.cfi_endproc
 1287              	.LFE15:
 1288              		.size	LSM303AGR_X_Get_Axes_Status, .-LSM303AGR_X_Get_Axes_Status
 1289              		.align	2
 1290              		.p2align 4,,15
 1291              		.thumb
 1292              		.thumb_func
 1293              		.type	LSM303AGR_X_Set_Axes_Status, %function
 1294              	LSM303AGR_X_Set_Axes_Status:
 1295              	.LFB16:
 1296              		.loc 1 717 0
 1297              		.cfi_startproc
ARM GAS  /tmp/ccHvf4Lz.s 			page 24


 1298              		@ args = 0, pretend = 0, frame = 8
 1299              		@ frame_needed = 0, uses_anonymous_args = 0
 1300 06a0 00B5     		push	{lr}
 1301              		.cfi_def_cfa_offset 4
 1302              		.cfi_offset 14, -4
 1303 06a2 83B0     		sub	sp, sp, #12
 1304              		.cfi_def_cfa_offset 16
 1305 06a4 0190     		str	r0, [sp, #4]
 1306 06a6 0091     		str	r1, [sp]
 1307              		.loc 1 720 0
 1308 06a8 009B     		ldr	r3, [sp]
 1309 06aa 1B78     		ldrb	r3, [r3]	@ zero_extendqisi2
 1310              		.loc 1 719 0
 1311 06ac 012B     		cmp	r3, #1
 1312 06ae 14BF     		ite	ne
 1313 06b0 0023     		movne	r3, #0
 1314 06b2 0123     		moveq	r3, #1
 1315 06b4 DBB2     		uxtb	r3, r3
 1316 06b6 0198     		ldr	r0, [sp, #4]
 1317 06b8 1946     		mov	r1, r3
 1318 06ba FFF7FEFF 		bl	LSM303AGR_ACC_W_XEN
 1319 06be 0346     		mov	r3, r0
 1320 06c0 002B     		cmp	r3, #0
 1321 06c2 01D1     		bne	.L122
 1322              		.loc 1 722 0
 1323 06c4 0123     		movs	r3, #1
 1324 06c6 22E0     		b	.L123
 1325              	.L122:
 1326              		.loc 1 726 0
 1327 06c8 009B     		ldr	r3, [sp]
 1328 06ca 0133     		adds	r3, r3, #1
 1329 06cc 1B78     		ldrb	r3, [r3]	@ zero_extendqisi2
 1330              		.loc 1 725 0
 1331 06ce 012B     		cmp	r3, #1
 1332 06d0 01D1     		bne	.L124
 1333              		.loc 1 725 0 is_stmt 0 discriminator 1
 1334 06d2 0223     		movs	r3, #2
 1335 06d4 00E0     		b	.L125
 1336              	.L124:
 1337              		.loc 1 725 0 discriminator 2
 1338 06d6 0023     		movs	r3, #0
 1339              	.L125:
 1340              		.loc 1 725 0 discriminator 3
 1341 06d8 0198     		ldr	r0, [sp, #4]
 1342 06da 1946     		mov	r1, r3
 1343 06dc FFF7FEFF 		bl	LSM303AGR_ACC_W_YEN
 1344 06e0 0346     		mov	r3, r0
 1345 06e2 002B     		cmp	r3, #0
 1346 06e4 01D1     		bne	.L126
 1347              		.loc 1 728 0 is_stmt 1
 1348 06e6 0123     		movs	r3, #1
 1349 06e8 11E0     		b	.L123
 1350              	.L126:
 1351              		.loc 1 732 0
 1352 06ea 009B     		ldr	r3, [sp]
 1353 06ec 0233     		adds	r3, r3, #2
 1354 06ee 1B78     		ldrb	r3, [r3]	@ zero_extendqisi2
ARM GAS  /tmp/ccHvf4Lz.s 			page 25


 1355              		.loc 1 731 0
 1356 06f0 012B     		cmp	r3, #1
 1357 06f2 01D1     		bne	.L127
 1358              		.loc 1 731 0 is_stmt 0 discriminator 1
 1359 06f4 0423     		movs	r3, #4
 1360 06f6 00E0     		b	.L128
 1361              	.L127:
 1362              		.loc 1 731 0 discriminator 2
 1363 06f8 0023     		movs	r3, #0
 1364              	.L128:
 1365              		.loc 1 731 0 discriminator 3
 1366 06fa 0198     		ldr	r0, [sp, #4]
 1367 06fc 1946     		mov	r1, r3
 1368 06fe FFF7FEFF 		bl	LSM303AGR_ACC_W_ZEN
 1369 0702 0346     		mov	r3, r0
 1370 0704 002B     		cmp	r3, #0
 1371 0706 01D1     		bne	.L129
 1372              		.loc 1 734 0 is_stmt 1
 1373 0708 0123     		movs	r3, #1
 1374 070a 00E0     		b	.L123
 1375              	.L129:
 1376              		.loc 1 737 0
 1377 070c 0023     		movs	r3, #0
 1378              	.L123:
 1379              		.loc 1 738 0
 1380 070e 1846     		mov	r0, r3
 1381 0710 03B0     		add	sp, sp, #12
 1382              		@ sp needed
 1383 0712 5DF804FB 		ldr	pc, [sp], #4
 1384              		.cfi_endproc
 1385              	.LFE16:
 1386              		.size	LSM303AGR_X_Set_Axes_Status, .-LSM303AGR_X_Set_Axes_Status
 1387 0716 00BF     		.align	2
 1388 0718 AFF30080 		.p2align 4,,15
 1388      AFF30080 
 1389              		.thumb
 1390              		.thumb_func
 1391              		.type	LSM303AGR_X_Read_Reg, %function
 1392              	LSM303AGR_X_Read_Reg:
 1393              	.LFB17:
 1394              		.loc 1 750 0
 1395              		.cfi_startproc
 1396              		@ args = 0, pretend = 0, frame = 16
 1397              		@ frame_needed = 0, uses_anonymous_args = 0
 1398 0720 00B5     		push	{lr}
 1399              		.cfi_def_cfa_offset 4
 1400              		.cfi_offset 14, -4
 1401 0722 85B0     		sub	sp, sp, #20
 1402              		.cfi_def_cfa_offset 24
 1403 0724 0390     		str	r0, [sp, #12]
 1404 0726 0B46     		mov	r3, r1
 1405 0728 0192     		str	r2, [sp, #4]
 1406 072a 8DF80B30 		strb	r3, [sp, #11]
 1407              		.loc 1 752 0
 1408 072e 9DF80B30 		ldrb	r3, [sp, #11]	@ zero_extendqisi2
 1409 0732 0398     		ldr	r0, [sp, #12]
 1410 0734 1946     		mov	r1, r3
ARM GAS  /tmp/ccHvf4Lz.s 			page 26


 1411 0736 019A     		ldr	r2, [sp, #4]
 1412 0738 0123     		movs	r3, #1
 1413 073a FFF7FEFF 		bl	LSM303AGR_ACC_ReadReg
 1414 073e 0346     		mov	r3, r0
 1415 0740 002B     		cmp	r3, #0
 1416 0742 01D1     		bne	.L131
 1417              		.loc 1 754 0
 1418 0744 0123     		movs	r3, #1
 1419 0746 00E0     		b	.L132
 1420              	.L131:
 1421              		.loc 1 757 0
 1422 0748 0023     		movs	r3, #0
 1423              	.L132:
 1424              		.loc 1 758 0
 1425 074a 1846     		mov	r0, r3
 1426 074c 05B0     		add	sp, sp, #20
 1427              		@ sp needed
 1428 074e 5DF804FB 		ldr	pc, [sp], #4
 1429              		.cfi_endproc
 1430              	.LFE17:
 1431              		.size	LSM303AGR_X_Read_Reg, .-LSM303AGR_X_Read_Reg
 1432 0752 00BF     		.align	2
 1433 0754 AFF30080 		.p2align 4,,15
 1433      AFF30080 
 1433      AFF30080 
 1434              		.thumb
 1435              		.thumb_func
 1436              		.type	LSM303AGR_X_Write_Reg, %function
 1437              	LSM303AGR_X_Write_Reg:
 1438              	.LFB18:
 1439              		.loc 1 771 0
 1440              		.cfi_startproc
 1441              		@ args = 0, pretend = 0, frame = 8
 1442              		@ frame_needed = 0, uses_anonymous_args = 0
 1443 0760 00B5     		push	{lr}
 1444              		.cfi_def_cfa_offset 4
 1445              		.cfi_offset 14, -4
 1446 0762 83B0     		sub	sp, sp, #12
 1447              		.cfi_def_cfa_offset 16
 1448 0764 0190     		str	r0, [sp, #4]
 1449 0766 1346     		mov	r3, r2
 1450 0768 0A46     		mov	r2, r1
 1451 076a 8DF80320 		strb	r2, [sp, #3]
 1452 076e 8DF80230 		strb	r3, [sp, #2]
 1453              		.loc 1 773 0
 1454 0772 9DF80320 		ldrb	r2, [sp, #3]	@ zero_extendqisi2
 1455 0776 0DF10203 		add	r3, sp, #2
 1456 077a 0198     		ldr	r0, [sp, #4]
 1457 077c 1146     		mov	r1, r2
 1458 077e 1A46     		mov	r2, r3
 1459 0780 0123     		movs	r3, #1
 1460 0782 FFF7FEFF 		bl	LSM303AGR_ACC_WriteReg
 1461 0786 0346     		mov	r3, r0
 1462 0788 002B     		cmp	r3, #0
 1463 078a 01D1     		bne	.L134
 1464              		.loc 1 775 0
 1465 078c 0123     		movs	r3, #1
ARM GAS  /tmp/ccHvf4Lz.s 			page 27


 1466 078e 00E0     		b	.L135
 1467              	.L134:
 1468              		.loc 1 778 0
 1469 0790 0023     		movs	r3, #0
 1470              	.L135:
 1471              		.loc 1 779 0
 1472 0792 1846     		mov	r0, r3
 1473 0794 03B0     		add	sp, sp, #12
 1474              		@ sp needed
 1475 0796 5DF804FB 		ldr	pc, [sp], #4
 1476              		.cfi_endproc
 1477              	.LFE18:
 1478              		.size	LSM303AGR_X_Write_Reg, .-LSM303AGR_X_Write_Reg
 1479 079a 00BF     		.align	2
 1480 079c AFF30080 		.p2align 4,,15
 1481              		.thumb
 1482              		.thumb_func
 1483              		.type	LSM303AGR_X_Get_DRDY_Status, %function
 1484              	LSM303AGR_X_Get_DRDY_Status:
 1485              	.LFB19:
 1486              		.loc 1 791 0
 1487              		.cfi_startproc
 1488              		@ args = 0, pretend = 0, frame = 16
 1489              		@ frame_needed = 0, uses_anonymous_args = 0
 1490 07a0 00B5     		push	{lr}
 1491              		.cfi_def_cfa_offset 4
 1492              		.cfi_offset 14, -4
 1493 07a2 85B0     		sub	sp, sp, #20
 1494              		.cfi_def_cfa_offset 24
 1495 07a4 0190     		str	r0, [sp, #4]
 1496 07a6 0091     		str	r1, [sp]
 1497              		.loc 1 795 0
 1498 07a8 0DF10F03 		add	r3, sp, #15
 1499 07ac 0198     		ldr	r0, [sp, #4]
 1500 07ae 1946     		mov	r1, r3
 1501 07b0 FFF7FEFF 		bl	LSM303AGR_ACC_R_XDataAvail
 1502 07b4 0346     		mov	r3, r0
 1503 07b6 002B     		cmp	r3, #0
 1504 07b8 01D1     		bne	.L137
 1505              		.loc 1 797 0
 1506 07ba 0123     		movs	r3, #1
 1507 07bc 10E0     		b	.L143
 1508              	.L137:
 1509              		.loc 1 800 0
 1510 07be 9DF80F30 		ldrb	r3, [sp, #15]	@ zero_extendqisi2
 1511 07c2 002B     		cmp	r3, #0
 1512 07c4 05D0     		beq	.L140
 1513 07c6 012B     		cmp	r3, #1
 1514 07c8 07D1     		bne	.L144
 1515              		.loc 1 803 0
 1516 07ca 009B     		ldr	r3, [sp]
 1517 07cc 0122     		movs	r2, #1
 1518 07ce 1A70     		strb	r2, [r3]
 1519              		.loc 1 804 0
 1520 07d0 05E0     		b	.L142
 1521              	.L140:
 1522              		.loc 1 806 0
ARM GAS  /tmp/ccHvf4Lz.s 			page 28


 1523 07d2 009B     		ldr	r3, [sp]
 1524 07d4 0022     		movs	r2, #0
 1525 07d6 1A70     		strb	r2, [r3]
 1526              		.loc 1 807 0
 1527 07d8 01E0     		b	.L142
 1528              	.L144:
 1529              		.loc 1 809 0
 1530 07da 0123     		movs	r3, #1
 1531 07dc 00E0     		b	.L143
 1532              	.L142:
 1533              		.loc 1 812 0
 1534 07de 0023     		movs	r3, #0
 1535              	.L143:
 1536              		.loc 1 813 0
 1537 07e0 1846     		mov	r0, r3
 1538 07e2 05B0     		add	sp, sp, #20
 1539              		@ sp needed
 1540 07e4 5DF804FB 		ldr	pc, [sp], #4
 1541              		.cfi_endproc
 1542              	.LFE19:
 1543              		.size	LSM303AGR_X_Get_DRDY_Status, .-LSM303AGR_X_Get_DRDY_Status
 1544              		.align	2
 1545 07e8 AFF30080 		.p2align 4,,15
 1545      AFF30080 
 1546              		.thumb
 1547              		.thumb_func
 1548              		.type	LSM303AGR_X_Get_Axes_Raw, %function
 1549              	LSM303AGR_X_Get_Axes_Raw:
 1550              	.LFB20:
 1551              		.loc 1 832 0
 1552              		.cfi_startproc
 1553              		@ args = 0, pretend = 0, frame = 24
 1554              		@ frame_needed = 0, uses_anonymous_args = 0
 1555 07f0 00B5     		push	{lr}
 1556              		.cfi_def_cfa_offset 4
 1557              		.cfi_offset 14, -4
 1558 07f2 87B0     		sub	sp, sp, #28
 1559              		.cfi_def_cfa_offset 32
 1560 07f4 0190     		str	r0, [sp, #4]
 1561 07f6 0091     		str	r1, [sp]
 1562              		.loc 1 835 0
 1563 07f8 0023     		movs	r3, #0
 1564 07fa 8DF81730 		strb	r3, [sp, #23]
 1565              		.loc 1 840 0
 1566 07fe 0DF10E03 		add	r3, sp, #14
 1567 0802 0198     		ldr	r0, [sp, #4]
 1568 0804 1946     		mov	r1, r3
 1569 0806 FFF7FEFF 		bl	LSM303AGR_ACC_R_HiRes
 1570 080a 0346     		mov	r3, r0
 1571 080c 002B     		cmp	r3, #0
 1572 080e 01D1     		bne	.L146
 1573              		.loc 1 842 0
 1574 0810 0123     		movs	r3, #1
 1575 0812 5BE0     		b	.L154
 1576              	.L146:
 1577              		.loc 1 845 0
 1578 0814 0DF10F03 		add	r3, sp, #15
ARM GAS  /tmp/ccHvf4Lz.s 			page 29


 1579 0818 0198     		ldr	r0, [sp, #4]
 1580 081a 1946     		mov	r1, r3
 1581 081c FFF7FEFF 		bl	LSM303AGR_ACC_R_LOWPWR_EN
 1582 0820 0346     		mov	r3, r0
 1583 0822 002B     		cmp	r3, #0
 1584 0824 01D1     		bne	.L148
 1585              		.loc 1 847 0
 1586 0826 0123     		movs	r3, #1
 1587 0828 50E0     		b	.L154
 1588              	.L148:
 1589              		.loc 1 850 0
 1590 082a 9DF80F30 		ldrb	r3, [sp, #15]	@ zero_extendqisi2
 1591 082e 082B     		cmp	r3, #8
 1592 0830 07D1     		bne	.L149
 1593              		.loc 1 850 0 is_stmt 0 discriminator 1
 1594 0832 9DF80E30 		ldrb	r3, [sp, #14]	@ zero_extendqisi2
 1595 0836 002B     		cmp	r3, #0
 1596 0838 03D1     		bne	.L149
 1597              		.loc 1 853 0 is_stmt 1
 1598 083a 0823     		movs	r3, #8
 1599 083c 8DF81730 		strb	r3, [sp, #23]
 1600 0840 19E0     		b	.L150
 1601              	.L149:
 1602              		.loc 1 855 0
 1603 0842 9DF80F30 		ldrb	r3, [sp, #15]	@ zero_extendqisi2
 1604 0846 002B     		cmp	r3, #0
 1605 0848 07D1     		bne	.L151
 1606              		.loc 1 855 0 is_stmt 0 discriminator 1
 1607 084a 9DF80E30 		ldrb	r3, [sp, #14]	@ zero_extendqisi2
 1608 084e 002B     		cmp	r3, #0
 1609 0850 03D1     		bne	.L151
 1610              		.loc 1 858 0 is_stmt 1
 1611 0852 0623     		movs	r3, #6
 1612 0854 8DF81730 		strb	r3, [sp, #23]
 1613 0858 0DE0     		b	.L150
 1614              	.L151:
 1615              		.loc 1 860 0
 1616 085a 9DF80F30 		ldrb	r3, [sp, #15]	@ zero_extendqisi2
 1617 085e 002B     		cmp	r3, #0
 1618 0860 07D1     		bne	.L152
 1619              		.loc 1 860 0 is_stmt 0 discriminator 1
 1620 0862 9DF80E30 		ldrb	r3, [sp, #14]	@ zero_extendqisi2
 1621 0866 082B     		cmp	r3, #8
 1622 0868 03D1     		bne	.L152
 1623              		.loc 1 863 0 is_stmt 1
 1624 086a 0423     		movs	r3, #4
 1625 086c 8DF81730 		strb	r3, [sp, #23]
 1626 0870 01E0     		b	.L150
 1627              	.L152:
 1628              		.loc 1 867 0
 1629 0872 0123     		movs	r3, #1
 1630 0874 2AE0     		b	.L154
 1631              	.L150:
 1632              		.loc 1 871 0
 1633 0876 04AB     		add	r3, sp, #16
 1634 0878 0198     		ldr	r0, [sp, #4]
 1635 087a 1946     		mov	r1, r3
ARM GAS  /tmp/ccHvf4Lz.s 			page 30


 1636 087c FFF7FEFF 		bl	LSM303AGR_ACC_Get_Raw_Acceleration
 1637 0880 0346     		mov	r3, r0
 1638 0882 002B     		cmp	r3, #0
 1639 0884 01D1     		bne	.L153
 1640              		.loc 1 873 0
 1641 0886 0123     		movs	r3, #1
 1642 0888 20E0     		b	.L154
 1643              	.L153:
 1644              		.loc 1 877 0
 1645 088a BDF81030 		ldrh	r3, [sp, #16]
 1646 088e 1AB2     		sxth	r2, r3
 1647 0890 9DF81730 		ldrb	r3, [sp, #23]	@ zero_extendqisi2
 1648 0894 42FA03F3 		asr	r3, r2, r3
 1649 0898 9AB2     		uxth	r2, r3
 1650 089a 009B     		ldr	r3, [sp]
 1651 089c 1A80     		strh	r2, [r3]	@ movhi
 1652              		.loc 1 878 0
 1653 089e 009B     		ldr	r3, [sp]
 1654 08a0 0233     		adds	r3, r3, #2
 1655 08a2 BDF81220 		ldrh	r2, [sp, #18]
 1656 08a6 11B2     		sxth	r1, r2
 1657 08a8 9DF81720 		ldrb	r2, [sp, #23]	@ zero_extendqisi2
 1658 08ac 41FA02F2 		asr	r2, r1, r2
 1659 08b0 92B2     		uxth	r2, r2
 1660 08b2 1A80     		strh	r2, [r3]	@ movhi
 1661              		.loc 1 879 0
 1662 08b4 009B     		ldr	r3, [sp]
 1663 08b6 0433     		adds	r3, r3, #4
 1664 08b8 BDF81420 		ldrh	r2, [sp, #20]
 1665 08bc 11B2     		sxth	r1, r2
 1666 08be 9DF81720 		ldrb	r2, [sp, #23]	@ zero_extendqisi2
 1667 08c2 41FA02F2 		asr	r2, r1, r2
 1668 08c6 92B2     		uxth	r2, r2
 1669 08c8 1A80     		strh	r2, [r3]	@ movhi
 1670              		.loc 1 881 0
 1671 08ca 0023     		movs	r3, #0
 1672              	.L154:
 1673              		.loc 1 882 0
 1674 08cc 1846     		mov	r0, r3
 1675 08ce 07B0     		add	sp, sp, #28
 1676              		@ sp needed
 1677 08d0 5DF804FB 		ldr	pc, [sp], #4
 1678              		.cfi_endproc
 1679              	.LFE20:
 1680              		.size	LSM303AGR_X_Get_Axes_Raw, .-LSM303AGR_X_Get_Axes_Raw
 1681              		.align	2
 1682 08d4 AFF30080 		.p2align 4,,15
 1682      AFF30080 
 1682      AFF30080 
 1683              		.thumb
 1684              		.thumb_func
 1685              		.type	LSM303AGR_X_Set_ODR_When_Enabled, %function
 1686              	LSM303AGR_X_Set_ODR_When_Enabled:
 1687              	.LFB21:
 1688              		.loc 1 892 0
 1689              		.cfi_startproc
 1690              		@ args = 0, pretend = 0, frame = 16
ARM GAS  /tmp/ccHvf4Lz.s 			page 31


 1691              		@ frame_needed = 0, uses_anonymous_args = 0
 1692 08e0 00B5     		push	{lr}
 1693              		.cfi_def_cfa_offset 4
 1694              		.cfi_offset 14, -4
 1695 08e2 85B0     		sub	sp, sp, #20
 1696              		.cfi_def_cfa_offset 24
 1697 08e4 0190     		str	r0, [sp, #4]
 1698 08e6 0B46     		mov	r3, r1
 1699 08e8 8DF80330 		strb	r3, [sp, #3]
 1700              		.loc 1 895 0
 1701 08ec 9DF80330 		ldrb	r3, [sp, #3]	@ zero_extendqisi2
 1702 08f0 042B     		cmp	r3, #4
 1703 08f2 21D8     		bhi	.L156
 1704 08f4 01A2     		adr	r2, .L158
 1705 08f6 52F823F0 		ldr	pc, [r2, r3, lsl #2]
 1706 08fa 00BF     		.p2align 2
 1707              	.L158:
 1708 08fc 11090000 		.word	.L157+1
 1709 0900 19090000 		.word	.L159+1
 1710 0904 21090000 		.word	.L160+1
 1711 0908 29090000 		.word	.L161+1
 1712 090c 31090000 		.word	.L162+1
 1713              		.p2align 1
 1714              	.L157:
 1715              		.loc 1 898 0
 1716 0910 1023     		movs	r3, #16
 1717 0912 8DF80F30 		strb	r3, [sp, #15]
 1718              		.loc 1 899 0
 1719 0916 11E0     		b	.L163
 1720              	.L159:
 1721              		.loc 1 901 0
 1722 0918 2023     		movs	r3, #32
 1723 091a 8DF80F30 		strb	r3, [sp, #15]
 1724              		.loc 1 902 0
 1725 091e 0DE0     		b	.L163
 1726              	.L160:
 1727              		.loc 1 904 0
 1728 0920 3023     		movs	r3, #48
 1729 0922 8DF80F30 		strb	r3, [sp, #15]
 1730              		.loc 1 905 0
 1731 0926 09E0     		b	.L163
 1732              	.L161:
 1733              		.loc 1 907 0
 1734 0928 4023     		movs	r3, #64
 1735 092a 8DF80F30 		strb	r3, [sp, #15]
 1736              		.loc 1 908 0
 1737 092e 05E0     		b	.L163
 1738              	.L162:
 1739              		.loc 1 910 0
 1740 0930 5023     		movs	r3, #80
 1741 0932 8DF80F30 		strb	r3, [sp, #15]
 1742              		.loc 1 911 0
 1743 0936 01E0     		b	.L163
 1744              	.L156:
 1745              		.loc 1 913 0
 1746 0938 0123     		movs	r3, #1
 1747 093a 0BE0     		b	.L164
ARM GAS  /tmp/ccHvf4Lz.s 			page 32


 1748              	.L163:
 1749              		.loc 1 916 0
 1750 093c 9DF80F30 		ldrb	r3, [sp, #15]	@ zero_extendqisi2
 1751 0940 0198     		ldr	r0, [sp, #4]
 1752 0942 1946     		mov	r1, r3
 1753 0944 FFF7FEFF 		bl	LSM303AGR_ACC_W_ODR
 1754 0948 0346     		mov	r3, r0
 1755 094a 002B     		cmp	r3, #0
 1756 094c 01D1     		bne	.L165
 1757              		.loc 1 918 0
 1758 094e 0123     		movs	r3, #1
 1759 0950 00E0     		b	.L164
 1760              	.L165:
 1761              		.loc 1 921 0
 1762 0952 0023     		movs	r3, #0
 1763              	.L164:
 1764              		.loc 1 922 0
 1765 0954 1846     		mov	r0, r3
 1766 0956 05B0     		add	sp, sp, #20
 1767              		@ sp needed
 1768 0958 5DF804FB 		ldr	pc, [sp], #4
 1769              		.cfi_endproc
 1770              	.LFE21:
 1771              		.size	LSM303AGR_X_Set_ODR_When_Enabled, .-LSM303AGR_X_Set_ODR_When_Enabled
 1772              		.align	2
 1773 095c AFF30080 		.p2align 4,,15
 1774              		.thumb
 1775              		.thumb_func
 1776              		.type	LSM303AGR_X_Set_ODR_When_Disabled, %function
 1777              	LSM303AGR_X_Set_ODR_When_Disabled:
 1778              	.LFB22:
 1779              		.loc 1 932 0
 1780              		.cfi_startproc
 1781              		@ args = 0, pretend = 0, frame = 16
 1782              		@ frame_needed = 0, uses_anonymous_args = 0
 1783              		@ link register save eliminated.
 1784 0960 84B0     		sub	sp, sp, #16
 1785              		.cfi_def_cfa_offset 16
 1786 0962 0190     		str	r0, [sp, #4]
 1787 0964 0B46     		mov	r3, r1
 1788 0966 8DF80330 		strb	r3, [sp, #3]
 1789              		.loc 1 933 0
 1790 096a 019B     		ldr	r3, [sp, #4]
 1791 096c 9B68     		ldr	r3, [r3, #8]
 1792 096e 0393     		str	r3, [sp, #12]
 1793              		.loc 1 934 0
 1794 0970 039B     		ldr	r3, [sp, #12]
 1795 0972 1B68     		ldr	r3, [r3]
 1796 0974 0293     		str	r3, [sp, #8]
 1797              		.loc 1 936 0
 1798 0976 9DF80330 		ldrb	r3, [sp, #3]	@ zero_extendqisi2
 1799 097a 042B     		cmp	r3, #4
 1800 097c 21D8     		bhi	.L167
 1801 097e 01A2     		adr	r2, .L169
 1802 0980 52F823F0 		ldr	pc, [r2, r3, lsl #2]
 1803              		.p2align 2
 1804              	.L169:
ARM GAS  /tmp/ccHvf4Lz.s 			page 33


 1805 0984 99090000 		.word	.L168+1
 1806 0988 A3090000 		.word	.L170+1
 1807 098c AB090000 		.word	.L171+1
 1808 0990 B3090000 		.word	.L172+1
 1809 0994 BB090000 		.word	.L173+1
 1810              		.p2align 1
 1811              	.L168:
 1812              		.loc 1 939 0
 1813 0998 029B     		ldr	r3, [sp, #8]
 1814 099a 4FF07E52 		mov	r2, #1065353216
 1815 099e 5A60     		str	r2, [r3, #4]	@ float
 1816              		.loc 1 940 0
 1817 09a0 11E0     		b	.L174
 1818              	.L170:
 1819              		.loc 1 942 0
 1820 09a2 029B     		ldr	r3, [sp, #8]
 1821 09a4 0A4A     		ldr	r2, .L176
 1822 09a6 5A60     		str	r2, [r3, #4]	@ float
 1823              		.loc 1 943 0
 1824 09a8 0DE0     		b	.L174
 1825              	.L171:
 1826              		.loc 1 945 0
 1827 09aa 029B     		ldr	r3, [sp, #8]
 1828 09ac 094A     		ldr	r2, .L176+4
 1829 09ae 5A60     		str	r2, [r3, #4]	@ float
 1830              		.loc 1 946 0
 1831 09b0 09E0     		b	.L174
 1832              	.L172:
 1833              		.loc 1 948 0
 1834 09b2 029B     		ldr	r3, [sp, #8]
 1835 09b4 084A     		ldr	r2, .L176+8
 1836 09b6 5A60     		str	r2, [r3, #4]	@ float
 1837              		.loc 1 949 0
 1838 09b8 05E0     		b	.L174
 1839              	.L173:
 1840              		.loc 1 951 0
 1841 09ba 029B     		ldr	r3, [sp, #8]
 1842 09bc 074A     		ldr	r2, .L176+12
 1843 09be 5A60     		str	r2, [r3, #4]	@ float
 1844              		.loc 1 952 0
 1845 09c0 01E0     		b	.L174
 1846              	.L167:
 1847              		.loc 1 954 0
 1848 09c2 0123     		movs	r3, #1
 1849 09c4 00E0     		b	.L175
 1850              	.L174:
 1851              		.loc 1 957 0
 1852 09c6 0023     		movs	r3, #0
 1853              	.L175:
 1854              		.loc 1 958 0
 1855 09c8 1846     		mov	r0, r3
 1856 09ca 04B0     		add	sp, sp, #16
 1857              		@ sp needed
 1858 09cc 7047     		bx	lr
 1859              	.L177:
 1860 09ce 00BF     		.align	2
 1861              	.L176:
ARM GAS  /tmp/ccHvf4Lz.s 			page 34


 1862 09d0 00002041 		.word	1092616192
 1863 09d4 0000C841 		.word	1103626240
 1864 09d8 00004842 		.word	1112014848
 1865 09dc 0000C842 		.word	1120403456
 1866              		.cfi_endproc
 1867              	.LFE22:
 1868              		.size	LSM303AGR_X_Set_ODR_When_Disabled, .-LSM303AGR_X_Set_ODR_When_Disabled
 1869              		.align	2
 1870              		.p2align 4,,15
 1871              		.thumb
 1872              		.thumb_func
 1873              		.type	LSM303AGR_X_Set_ODR_Value_When_Enabled, %function
 1874              	LSM303AGR_X_Set_ODR_Value_When_Enabled:
 1875              	.LFB23:
 1876              		.loc 1 968 0
 1877              		.cfi_startproc
 1878              		@ args = 0, pretend = 0, frame = 16
 1879              		@ frame_needed = 0, uses_anonymous_args = 0
 1880 09e0 00B5     		push	{lr}
 1881              		.cfi_def_cfa_offset 4
 1882              		.cfi_offset 14, -4
 1883 09e2 85B0     		sub	sp, sp, #20
 1884              		.cfi_def_cfa_offset 24
 1885 09e4 0190     		str	r0, [sp, #4]
 1886 09e6 0091     		str	r1, [sp]	@ float
 1887              		.loc 1 972 0
 1888 09e8 0098     		ldr	r0, [sp]	@ float
 1889 09ea 4FF07E51 		mov	r1, #1065353216
 1890 09ee FFF7FEFF 		bl	__aeabi_fcmple
 1891 09f2 0346     		mov	r3, r0
 1892 09f4 002B     		cmp	r3, #0
 1893 09f6 01D0     		beq	.L205
 1894              		.loc 1 972 0 is_stmt 0 discriminator 1
 1895 09f8 1023     		movs	r3, #16
 1896 09fa 2DE0     		b	.L181
 1897              	.L205:
 1898              		.loc 1 972 0 discriminator 2
 1899 09fc 0098     		ldr	r0, [sp]	@ float
 1900 09fe 1F49     		ldr	r1, .L211
 1901 0a00 FFF7FEFF 		bl	__aeabi_fcmple
 1902 0a04 0346     		mov	r3, r0
 1903 0a06 002B     		cmp	r3, #0
 1904 0a08 01D0     		beq	.L206
 1905              		.loc 1 972 0 discriminator 3
 1906 0a0a 2023     		movs	r3, #32
 1907 0a0c 24E0     		b	.L181
 1908              	.L206:
 1909              		.loc 1 972 0 discriminator 4
 1910 0a0e 0098     		ldr	r0, [sp]	@ float
 1911 0a10 1B49     		ldr	r1, .L211+4
 1912 0a12 FFF7FEFF 		bl	__aeabi_fcmple
 1913 0a16 0346     		mov	r3, r0
 1914 0a18 002B     		cmp	r3, #0
 1915 0a1a 01D0     		beq	.L207
 1916              		.loc 1 972 0 discriminator 5
 1917 0a1c 3023     		movs	r3, #48
 1918 0a1e 1BE0     		b	.L181
ARM GAS  /tmp/ccHvf4Lz.s 			page 35


 1919              	.L207:
 1920              		.loc 1 972 0 discriminator 6
 1921 0a20 0098     		ldr	r0, [sp]	@ float
 1922 0a22 1849     		ldr	r1, .L211+8
 1923 0a24 FFF7FEFF 		bl	__aeabi_fcmple
 1924 0a28 0346     		mov	r3, r0
 1925 0a2a 002B     		cmp	r3, #0
 1926 0a2c 01D0     		beq	.L208
 1927              		.loc 1 972 0 discriminator 7
 1928 0a2e 4023     		movs	r3, #64
 1929 0a30 12E0     		b	.L181
 1930              	.L208:
 1931              		.loc 1 972 0 discriminator 8
 1932 0a32 0098     		ldr	r0, [sp]	@ float
 1933 0a34 1449     		ldr	r1, .L211+12
 1934 0a36 FFF7FEFF 		bl	__aeabi_fcmple
 1935 0a3a 0346     		mov	r3, r0
 1936 0a3c 002B     		cmp	r3, #0
 1937 0a3e 01D0     		beq	.L209
 1938              		.loc 1 972 0 discriminator 9
 1939 0a40 5023     		movs	r3, #80
 1940 0a42 09E0     		b	.L181
 1941              	.L209:
 1942              		.loc 1 972 0 discriminator 10
 1943 0a44 0098     		ldr	r0, [sp]	@ float
 1944 0a46 1149     		ldr	r1, .L211+16
 1945 0a48 FFF7FEFF 		bl	__aeabi_fcmple
 1946 0a4c 0346     		mov	r3, r0
 1947 0a4e 002B     		cmp	r3, #0
 1948 0a50 01D0     		beq	.L210
 1949              		.loc 1 972 0 discriminator 11
 1950 0a52 6023     		movs	r3, #96
 1951 0a54 00E0     		b	.L181
 1952              	.L210:
 1953              		.loc 1 972 0 discriminator 12
 1954 0a56 7023     		movs	r3, #112
 1955              	.L181:
 1956              		.loc 1 972 0 discriminator 18
 1957 0a58 8DF80F30 		strb	r3, [sp, #15]
 1958              		.loc 1 980 0 is_stmt 1 discriminator 18
 1959 0a5c 9DF80F30 		ldrb	r3, [sp, #15]	@ zero_extendqisi2
 1960 0a60 0198     		ldr	r0, [sp, #4]
 1961 0a62 1946     		mov	r1, r3
 1962 0a64 FFF7FEFF 		bl	LSM303AGR_ACC_W_ODR
 1963 0a68 0346     		mov	r3, r0
 1964 0a6a 002B     		cmp	r3, #0
 1965 0a6c 01D1     		bne	.L197
 1966              		.loc 1 982 0
 1967 0a6e 0123     		movs	r3, #1
 1968 0a70 00E0     		b	.L198
 1969              	.L197:
 1970              		.loc 1 985 0
 1971 0a72 0023     		movs	r3, #0
 1972              	.L198:
 1973              		.loc 1 986 0
 1974 0a74 1846     		mov	r0, r3
 1975 0a76 05B0     		add	sp, sp, #20
ARM GAS  /tmp/ccHvf4Lz.s 			page 36


 1976              		@ sp needed
 1977 0a78 5DF804FB 		ldr	pc, [sp], #4
 1978              	.L212:
 1979              		.align	2
 1980              	.L211:
 1981 0a7c 00002041 		.word	1092616192
 1982 0a80 0000C841 		.word	1103626240
 1983 0a84 00004842 		.word	1112014848
 1984 0a88 0000C842 		.word	1120403456
 1985 0a8c 00004843 		.word	1128792064
 1986              		.cfi_endproc
 1987              	.LFE23:
 1988              		.size	LSM303AGR_X_Set_ODR_Value_When_Enabled, .-LSM303AGR_X_Set_ODR_Value_When_Enabled
 1989              		.align	2
 1990              		.p2align 4,,15
 1991              		.thumb
 1992              		.thumb_func
 1993              		.type	LSM303AGR_X_Set_ODR_Value_When_Disabled, %function
 1994              	LSM303AGR_X_Set_ODR_Value_When_Disabled:
 1995              	.LFB24:
 1996              		.loc 1 996 0
 1997              		.cfi_startproc
 1998              		@ args = 0, pretend = 0, frame = 16
 1999              		@ frame_needed = 0, uses_anonymous_args = 0
 2000 0a90 00B5     		push	{lr}
 2001              		.cfi_def_cfa_offset 4
 2002              		.cfi_offset 14, -4
 2003 0a92 85B0     		sub	sp, sp, #20
 2004              		.cfi_def_cfa_offset 24
 2005 0a94 0190     		str	r0, [sp, #4]
 2006 0a96 0091     		str	r1, [sp]	@ float
 2007              		.loc 1 998 0
 2008 0a98 019B     		ldr	r3, [sp, #4]
 2009 0a9a 9B68     		ldr	r3, [r3, #8]
 2010 0a9c 0393     		str	r3, [sp, #12]
 2011              		.loc 1 999 0
 2012 0a9e 039B     		ldr	r3, [sp, #12]
 2013 0aa0 1B68     		ldr	r3, [r3]
 2014 0aa2 0293     		str	r3, [sp, #8]
 2015              		.loc 1 1002 0
 2016 0aa4 0098     		ldr	r0, [sp]	@ float
 2017 0aa6 4FF07E51 		mov	r1, #1065353216
 2018 0aaa FFF7FEFF 		bl	__aeabi_fcmple
 2019 0aae 0346     		mov	r3, r0
 2020 0ab0 002B     		cmp	r3, #0
 2021 0ab2 02D0     		beq	.L239
 2022              		.loc 1 1002 0 is_stmt 0 discriminator 1
 2023 0ab4 4FF07E53 		mov	r3, #1065353216
 2024 0ab8 2DE0     		b	.L216
 2025              	.L239:
 2026              		.loc 1 1003 0 is_stmt 1
 2027 0aba 0098     		ldr	r0, [sp]	@ float
 2028 0abc 1949     		ldr	r1, .L245
 2029 0abe FFF7FEFF 		bl	__aeabi_fcmple
 2030 0ac2 0346     		mov	r3, r0
 2031 0ac4 002B     		cmp	r3, #0
 2032 0ac6 01D0     		beq	.L240
ARM GAS  /tmp/ccHvf4Lz.s 			page 37


 2033              		.loc 1 1003 0 is_stmt 0 discriminator 1
 2034 0ac8 164B     		ldr	r3, .L245
 2035 0aca 24E0     		b	.L216
 2036              	.L240:
 2037              		.loc 1 1004 0 is_stmt 1
 2038 0acc 0098     		ldr	r0, [sp]	@ float
 2039 0ace 1649     		ldr	r1, .L245+4
 2040 0ad0 FFF7FEFF 		bl	__aeabi_fcmple
 2041 0ad4 0346     		mov	r3, r0
 2042 0ad6 002B     		cmp	r3, #0
 2043 0ad8 01D0     		beq	.L241
 2044              		.loc 1 1004 0 is_stmt 0 discriminator 1
 2045 0ada 134B     		ldr	r3, .L245+4
 2046 0adc 1BE0     		b	.L216
 2047              	.L241:
 2048              		.loc 1 1005 0 is_stmt 1
 2049 0ade 0098     		ldr	r0, [sp]	@ float
 2050 0ae0 1249     		ldr	r1, .L245+8
 2051 0ae2 FFF7FEFF 		bl	__aeabi_fcmple
 2052 0ae6 0346     		mov	r3, r0
 2053 0ae8 002B     		cmp	r3, #0
 2054 0aea 01D0     		beq	.L242
 2055              		.loc 1 1005 0 is_stmt 0 discriminator 1
 2056 0aec 0F4B     		ldr	r3, .L245+8
 2057 0aee 12E0     		b	.L216
 2058              	.L242:
 2059              		.loc 1 1006 0 is_stmt 1
 2060 0af0 0098     		ldr	r0, [sp]	@ float
 2061 0af2 0F49     		ldr	r1, .L245+12
 2062 0af4 FFF7FEFF 		bl	__aeabi_fcmple
 2063 0af8 0346     		mov	r3, r0
 2064 0afa 002B     		cmp	r3, #0
 2065 0afc 01D0     		beq	.L243
 2066              		.loc 1 1006 0 is_stmt 0 discriminator 1
 2067 0afe 0C4B     		ldr	r3, .L245+12
 2068 0b00 09E0     		b	.L216
 2069              	.L243:
 2070              		.loc 1 1007 0 is_stmt 1
 2071 0b02 0098     		ldr	r0, [sp]	@ float
 2072 0b04 0B49     		ldr	r1, .L245+16
 2073 0b06 FFF7FEFF 		bl	__aeabi_fcmple
 2074 0b0a 0346     		mov	r3, r0
 2075 0b0c 002B     		cmp	r3, #0
 2076 0b0e 01D0     		beq	.L244
 2077              		.loc 1 1007 0 is_stmt 0 discriminator 1
 2078 0b10 084B     		ldr	r3, .L245+16
 2079 0b12 00E0     		b	.L216
 2080              	.L244:
 2081              		.loc 1 1007 0 discriminator 2
 2082 0b14 084B     		ldr	r3, .L245+20
 2083              	.L216:
 2084              		.loc 1 1001 0 is_stmt 1
 2085 0b16 029A     		ldr	r2, [sp, #8]
 2086 0b18 5360     		str	r3, [r2, #4]	@ float
 2087              		.loc 1 1009 0
 2088 0b1a 0023     		movs	r3, #0
 2089              		.loc 1 1010 0
ARM GAS  /tmp/ccHvf4Lz.s 			page 38


 2090 0b1c 1846     		mov	r0, r3
 2091 0b1e 05B0     		add	sp, sp, #20
 2092              		@ sp needed
 2093 0b20 5DF804FB 		ldr	pc, [sp], #4
 2094              	.L246:
 2095              		.align	2
 2096              	.L245:
 2097 0b24 00002041 		.word	1092616192
 2098 0b28 0000C841 		.word	1103626240
 2099 0b2c 00004842 		.word	1112014848
 2100 0b30 0000C842 		.word	1120403456
 2101 0b34 00004843 		.word	1128792064
 2102 0b38 0000C843 		.word	1137180672
 2103              		.cfi_endproc
 2104              	.LFE24:
 2105              		.size	LSM303AGR_X_Set_ODR_Value_When_Disabled, .-LSM303AGR_X_Set_ODR_Value_When_Disabled
 2106              		.align	2
 2107 0b3c AFF30080 		.p2align 4,,15
 2108              		.thumb
 2109              		.thumb_func
 2110              		.type	LSM303AGR_X_Get_Sensitivity_Normal_Mode, %function
 2111              	LSM303AGR_X_Get_Sensitivity_Normal_Mode:
 2112              	.LFB25:
 2113              		.loc 1 1020 0
 2114              		.cfi_startproc
 2115              		@ args = 0, pretend = 0, frame = 16
 2116              		@ frame_needed = 0, uses_anonymous_args = 0
 2117 0b40 00B5     		push	{lr}
 2118              		.cfi_def_cfa_offset 4
 2119              		.cfi_offset 14, -4
 2120 0b42 85B0     		sub	sp, sp, #20
 2121              		.cfi_def_cfa_offset 24
 2122 0b44 0190     		str	r0, [sp, #4]
 2123 0b46 0091     		str	r1, [sp]
 2124              		.loc 1 1025 0
 2125 0b48 0DF10F03 		add	r3, sp, #15
 2126 0b4c 0198     		ldr	r0, [sp, #4]
 2127 0b4e 1946     		mov	r1, r3
 2128 0b50 FFF7FEFF 		bl	LSM303AGR_ACC_R_FullScale
 2129 0b54 0346     		mov	r3, r0
 2130 0b56 002B     		cmp	r3, #0
 2131 0b58 01D1     		bne	.L248
 2132              		.loc 1 1027 0
 2133 0b5a 0123     		movs	r3, #1
 2134 0b5c 23E0     		b	.L257
 2135              	.L248:
 2136              		.loc 1 1031 0
 2137 0b5e 9DF80F30 		ldrb	r3, [sp, #15]	@ zero_extendqisi2
 2138 0b62 102B     		cmp	r3, #16
 2139 0b64 0DD0     		beq	.L251
 2140 0b66 102B     		cmp	r3, #16
 2141 0b68 02DC     		bgt	.L252
 2142 0b6a 002B     		cmp	r3, #0
 2143 0b6c 05D0     		beq	.L253
 2144 0b6e 14E0     		b	.L250
 2145              	.L252:
 2146 0b70 202B     		cmp	r3, #32
ARM GAS  /tmp/ccHvf4Lz.s 			page 39


 2147 0b72 0AD0     		beq	.L254
 2148 0b74 302B     		cmp	r3, #48
 2149 0b76 0CD0     		beq	.L255
 2150 0b78 0FE0     		b	.L250
 2151              	.L253:
 2152              		.loc 1 1034 0
 2153 0b7a 009B     		ldr	r3, [sp]
 2154 0b7c 0C4A     		ldr	r2, .L258
 2155 0b7e 1A60     		str	r2, [r3]	@ float
 2156              		.loc 1 1035 0
 2157 0b80 10E0     		b	.L256
 2158              	.L251:
 2159              		.loc 1 1037 0
 2160 0b82 009B     		ldr	r3, [sp]
 2161 0b84 0B4A     		ldr	r2, .L258+4
 2162 0b86 1A60     		str	r2, [r3]	@ float
 2163              		.loc 1 1038 0
 2164 0b88 0CE0     		b	.L256
 2165              	.L254:
 2166              		.loc 1 1040 0
 2167 0b8a 009B     		ldr	r3, [sp]
 2168 0b8c 0A4A     		ldr	r2, .L258+8
 2169 0b8e 1A60     		str	r2, [r3]	@ float
 2170              		.loc 1 1041 0
 2171 0b90 08E0     		b	.L256
 2172              	.L255:
 2173              		.loc 1 1043 0
 2174 0b92 009B     		ldr	r3, [sp]
 2175 0b94 094A     		ldr	r2, .L258+12
 2176 0b96 1A60     		str	r2, [r3]	@ float
 2177              		.loc 1 1044 0
 2178 0b98 04E0     		b	.L256
 2179              	.L250:
 2180              		.loc 1 1046 0
 2181 0b9a 009B     		ldr	r3, [sp]
 2182 0b9c 084A     		ldr	r2, .L258+16
 2183 0b9e 1A60     		str	r2, [r3]	@ float
 2184              		.loc 1 1047 0
 2185 0ba0 0123     		movs	r3, #1
 2186 0ba2 00E0     		b	.L257
 2187              	.L256:
 2188              		.loc 1 1050 0
 2189 0ba4 0023     		movs	r3, #0
 2190              	.L257:
 2191              		.loc 1 1051 0
 2192 0ba6 1846     		mov	r0, r3
 2193 0ba8 05B0     		add	sp, sp, #20
 2194              		@ sp needed
 2195 0baa 5DF804FB 		ldr	pc, [sp], #4
 2196              	.L259:
 2197 0bae 00BF     		.align	2
 2198              	.L258:
 2199 0bb0 9A997940 		.word	1081711002
 2200 0bb4 713DFA40 		.word	1090141553
 2201 0bb8 7B147A41 		.word	1098519675
 2202 0bbc 9A993B42 		.word	1111202202
 2203 0bc0 000080BF 		.word	-1082130432
ARM GAS  /tmp/ccHvf4Lz.s 			page 40


 2204              		.cfi_endproc
 2205              	.LFE25:
 2206              		.size	LSM303AGR_X_Get_Sensitivity_Normal_Mode, .-LSM303AGR_X_Get_Sensitivity_Normal_Mode
 2207              		.align	2
 2208 0bc4 AFF30080 		.p2align 4,,15
 2208      AFF30080 
 2208      AFF30080 
 2209              		.thumb
 2210              		.thumb_func
 2211              		.type	LSM303AGR_X_Get_Sensitivity_LP_Mode, %function
 2212              	LSM303AGR_X_Get_Sensitivity_LP_Mode:
 2213              	.LFB26:
 2214              		.loc 1 1061 0
 2215              		.cfi_startproc
 2216              		@ args = 0, pretend = 0, frame = 16
 2217              		@ frame_needed = 0, uses_anonymous_args = 0
 2218 0bd0 00B5     		push	{lr}
 2219              		.cfi_def_cfa_offset 4
 2220              		.cfi_offset 14, -4
 2221 0bd2 85B0     		sub	sp, sp, #20
 2222              		.cfi_def_cfa_offset 24
 2223 0bd4 0190     		str	r0, [sp, #4]
 2224 0bd6 0091     		str	r1, [sp]
 2225              		.loc 1 1065 0
 2226 0bd8 0DF10F03 		add	r3, sp, #15
 2227 0bdc 0198     		ldr	r0, [sp, #4]
 2228 0bde 1946     		mov	r1, r3
 2229 0be0 FFF7FEFF 		bl	LSM303AGR_ACC_R_FullScale
 2230 0be4 0346     		mov	r3, r0
 2231 0be6 002B     		cmp	r3, #0
 2232 0be8 01D1     		bne	.L261
 2233              		.loc 1 1067 0
 2234 0bea 0123     		movs	r3, #1
 2235 0bec 23E0     		b	.L270
 2236              	.L261:
 2237              		.loc 1 1071 0
 2238 0bee 9DF80F30 		ldrb	r3, [sp, #15]	@ zero_extendqisi2
 2239 0bf2 102B     		cmp	r3, #16
 2240 0bf4 0DD0     		beq	.L264
 2241 0bf6 102B     		cmp	r3, #16
 2242 0bf8 02DC     		bgt	.L265
 2243 0bfa 002B     		cmp	r3, #0
 2244 0bfc 05D0     		beq	.L266
 2245 0bfe 14E0     		b	.L263
 2246              	.L265:
 2247 0c00 202B     		cmp	r3, #32
 2248 0c02 0AD0     		beq	.L267
 2249 0c04 302B     		cmp	r3, #48
 2250 0c06 0CD0     		beq	.L268
 2251 0c08 0FE0     		b	.L263
 2252              	.L266:
 2253              		.loc 1 1074 0
 2254 0c0a 009B     		ldr	r3, [sp]
 2255 0c0c 0C4A     		ldr	r2, .L271
 2256 0c0e 1A60     		str	r2, [r3]	@ float
 2257              		.loc 1 1075 0
 2258 0c10 10E0     		b	.L269
ARM GAS  /tmp/ccHvf4Lz.s 			page 41


 2259              	.L264:
 2260              		.loc 1 1077 0
 2261 0c12 009B     		ldr	r3, [sp]
 2262 0c14 0B4A     		ldr	r2, .L271+4
 2263 0c16 1A60     		str	r2, [r3]	@ float
 2264              		.loc 1 1078 0
 2265 0c18 0CE0     		b	.L269
 2266              	.L267:
 2267              		.loc 1 1080 0
 2268 0c1a 009B     		ldr	r3, [sp]
 2269 0c1c 0A4A     		ldr	r2, .L271+8
 2270 0c1e 1A60     		str	r2, [r3]	@ float
 2271              		.loc 1 1081 0
 2272 0c20 08E0     		b	.L269
 2273              	.L268:
 2274              		.loc 1 1083 0
 2275 0c22 009B     		ldr	r3, [sp]
 2276 0c24 094A     		ldr	r2, .L271+12
 2277 0c26 1A60     		str	r2, [r3]	@ float
 2278              		.loc 1 1084 0
 2279 0c28 04E0     		b	.L269
 2280              	.L263:
 2281              		.loc 1 1086 0
 2282 0c2a 009B     		ldr	r3, [sp]
 2283 0c2c 084A     		ldr	r2, .L271+16
 2284 0c2e 1A60     		str	r2, [r3]	@ float
 2285              		.loc 1 1087 0
 2286 0c30 0123     		movs	r3, #1
 2287 0c32 00E0     		b	.L270
 2288              	.L269:
 2289              		.loc 1 1090 0
 2290 0c34 0023     		movs	r3, #0
 2291              	.L270:
 2292              		.loc 1 1091 0
 2293 0c36 1846     		mov	r0, r3
 2294 0c38 05B0     		add	sp, sp, #20
 2295              		@ sp needed
 2296 0c3a 5DF804FB 		ldr	pc, [sp], #4
 2297              	.L272:
 2298 0c3e 00BF     		.align	2
 2299              	.L271:
 2300 0c40 7B147A41 		.word	1098519675
 2301 0c44 7B14FA41 		.word	1106908283
 2302 0c48 7B147A42 		.word	1115296891
 2303 0c4c 7B943B43 		.word	1127978107
 2304 0c50 000080BF 		.word	-1082130432
 2305              		.cfi_endproc
 2306              	.LFE26:
 2307              		.size	LSM303AGR_X_Get_Sensitivity_LP_Mode, .-LSM303AGR_X_Get_Sensitivity_LP_Mode
 2308              		.align	2
 2309 0c54 AFF30080 		.p2align 4,,15
 2309      AFF30080 
 2309      AFF30080 
 2310              		.thumb
 2311              		.thumb_func
 2312              		.type	LSM303AGR_X_Get_Sensitivity_HR_Mode, %function
 2313              	LSM303AGR_X_Get_Sensitivity_HR_Mode:
ARM GAS  /tmp/ccHvf4Lz.s 			page 42


 2314              	.LFB27:
 2315              		.loc 1 1101 0
 2316              		.cfi_startproc
 2317              		@ args = 0, pretend = 0, frame = 16
 2318              		@ frame_needed = 0, uses_anonymous_args = 0
 2319 0c60 00B5     		push	{lr}
 2320              		.cfi_def_cfa_offset 4
 2321              		.cfi_offset 14, -4
 2322 0c62 85B0     		sub	sp, sp, #20
 2323              		.cfi_def_cfa_offset 24
 2324 0c64 0190     		str	r0, [sp, #4]
 2325 0c66 0091     		str	r1, [sp]
 2326              		.loc 1 1105 0
 2327 0c68 0DF10F03 		add	r3, sp, #15
 2328 0c6c 0198     		ldr	r0, [sp, #4]
 2329 0c6e 1946     		mov	r1, r3
 2330 0c70 FFF7FEFF 		bl	LSM303AGR_ACC_R_FullScale
 2331 0c74 0346     		mov	r3, r0
 2332 0c76 002B     		cmp	r3, #0
 2333 0c78 01D1     		bne	.L274
 2334              		.loc 1 1107 0
 2335 0c7a 0123     		movs	r3, #1
 2336 0c7c 23E0     		b	.L283
 2337              	.L274:
 2338              		.loc 1 1111 0
 2339 0c7e 9DF80F30 		ldrb	r3, [sp, #15]	@ zero_extendqisi2
 2340 0c82 102B     		cmp	r3, #16
 2341 0c84 0DD0     		beq	.L277
 2342 0c86 102B     		cmp	r3, #16
 2343 0c88 02DC     		bgt	.L278
 2344 0c8a 002B     		cmp	r3, #0
 2345 0c8c 05D0     		beq	.L279
 2346 0c8e 14E0     		b	.L276
 2347              	.L278:
 2348 0c90 202B     		cmp	r3, #32
 2349 0c92 0AD0     		beq	.L280
 2350 0c94 302B     		cmp	r3, #48
 2351 0c96 0CD0     		beq	.L281
 2352 0c98 0FE0     		b	.L276
 2353              	.L279:
 2354              		.loc 1 1114 0
 2355 0c9a 009B     		ldr	r3, [sp]
 2356 0c9c 0C4A     		ldr	r2, .L284
 2357 0c9e 1A60     		str	r2, [r3]	@ float
 2358              		.loc 1 1115 0
 2359 0ca0 10E0     		b	.L282
 2360              	.L277:
 2361              		.loc 1 1117 0
 2362 0ca2 009B     		ldr	r3, [sp]
 2363 0ca4 0B4A     		ldr	r2, .L284+4
 2364 0ca6 1A60     		str	r2, [r3]	@ float
 2365              		.loc 1 1118 0
 2366 0ca8 0CE0     		b	.L282
 2367              	.L280:
 2368              		.loc 1 1120 0
 2369 0caa 009B     		ldr	r3, [sp]
 2370 0cac 0A4A     		ldr	r2, .L284+8
ARM GAS  /tmp/ccHvf4Lz.s 			page 43


 2371 0cae 1A60     		str	r2, [r3]	@ float
 2372              		.loc 1 1121 0
 2373 0cb0 08E0     		b	.L282
 2374              	.L281:
 2375              		.loc 1 1123 0
 2376 0cb2 009B     		ldr	r3, [sp]
 2377 0cb4 094A     		ldr	r2, .L284+12
 2378 0cb6 1A60     		str	r2, [r3]	@ float
 2379              		.loc 1 1124 0
 2380 0cb8 04E0     		b	.L282
 2381              	.L276:
 2382              		.loc 1 1126 0
 2383 0cba 009B     		ldr	r3, [sp]
 2384 0cbc 084A     		ldr	r2, .L284+16
 2385 0cbe 1A60     		str	r2, [r3]	@ float
 2386              		.loc 1 1127 0
 2387 0cc0 0123     		movs	r3, #1
 2388 0cc2 00E0     		b	.L283
 2389              	.L282:
 2390              		.loc 1 1130 0
 2391 0cc4 0023     		movs	r3, #0
 2392              	.L283:
 2393              		.loc 1 1131 0
 2394 0cc6 1846     		mov	r0, r3
 2395 0cc8 05B0     		add	sp, sp, #20
 2396              		@ sp needed
 2397 0cca 5DF804FB 		ldr	pc, [sp], #4
 2398              	.L285:
 2399 0cce 00BF     		.align	2
 2400              	.L284:
 2401 0cd0 48E17A3F 		.word	1065017672
 2402 0cd4 9A99F93F 		.word	1073322394
 2403 0cd8 9A997940 		.word	1081711002
 2404 0cdc 1F853B41 		.word	1094419743
 2405 0ce0 000080BF 		.word	-1082130432
 2406              		.cfi_endproc
 2407              	.LFE27:
 2408              		.size	LSM303AGR_X_Get_Sensitivity_HR_Mode, .-LSM303AGR_X_Get_Sensitivity_HR_Mode
 2409              	.Letext0:
 2410              		.file 2 "/nfs/nfs5/home/research/hardware/arm2/gcc-arm-embedded/gcc-arm-none-eabi-4_8-2014q2/arm-n
 2411              		.file 3 "/nfs/nfs5/home/research/hardware/arm2/gcc-arm-embedded/gcc-arm-none-eabi-4_8-2014q2/arm-n
 2412              		.file 4 "../../../../../Drivers/BSP/Components/Common/component.h"
 2413              		.file 5 "../../../../../Drivers/BSP/Components/Common/sensor.h"
 2414              		.file 6 "../../../../../Drivers/BSP/Components/Common/accelerometer.h"
 2415              		.file 7 "../../../../../Drivers/BSP/Components/lsm303agr/LSM303AGR_ACC_driver.h"
 2416              		.file 8 "../../../../../Drivers/BSP/Components/lsm303agr/LSM303AGR_Combo_driver_HL.h"
 2417              		.file 9 "../../../../../Drivers/BSP/Components/lsm303agr/LSM303AGR_ACC_driver_HL.h"
 2418 0ce4 AFF30080 		.section	.debug_info,"",%progbits
 2418      AFF30080 
 2418      AFF30080 
 2419              	.Ldebug_info0:
 2420 0000 B70F0000 		.4byte	0xfb7
 2421 0004 0400     		.2byte	0x4
 2422 0006 00000000 		.4byte	.Ldebug_abbrev0
 2423 000a 04       		.byte	0x4
 2424 000b 01       		.uleb128 0x1
 2425 000c 9A090000 		.4byte	.LASF184
ARM GAS  /tmp/ccHvf4Lz.s 			page 44


 2426 0010 01       		.byte	0x1
 2427 0011 F6010000 		.4byte	.LASF185
 2428 0015 24050000 		.4byte	.LASF186
 2429 0019 00000000 		.4byte	.Ltext0
 2430 001d E40C0000 		.4byte	.Letext0-.Ltext0
 2431 0021 00000000 		.4byte	.Ldebug_line0
 2432 0025 02       		.uleb128 0x2
 2433 0026 04       		.byte	0x4
 2434 0027 05       		.byte	0x5
 2435 0028 696E7400 		.ascii	"int\000"
 2436 002c 03       		.uleb128 0x3
 2437 002d 04       		.byte	0x4
 2438 002e 07       		.byte	0x7
 2439 002f AE000000 		.4byte	.LASF0
 2440 0033 03       		.uleb128 0x3
 2441 0034 01       		.byte	0x1
 2442 0035 06       		.byte	0x6
 2443 0036 3A0C0000 		.4byte	.LASF1
 2444 003a 04       		.uleb128 0x4
 2445 003b 7C090000 		.4byte	.LASF3
 2446 003f 02       		.byte	0x2
 2447 0040 1C       		.byte	0x1c
 2448 0041 45000000 		.4byte	0x45
 2449 0045 03       		.uleb128 0x3
 2450 0046 01       		.byte	0x1
 2451 0047 08       		.byte	0x8
 2452 0048 4A0B0000 		.4byte	.LASF2
 2453 004c 04       		.uleb128 0x4
 2454 004d AF070000 		.4byte	.LASF4
 2455 0051 02       		.byte	0x2
 2456 0052 25       		.byte	0x25
 2457 0053 57000000 		.4byte	0x57
 2458 0057 03       		.uleb128 0x3
 2459 0058 02       		.byte	0x2
 2460 0059 05       		.byte	0x5
 2461 005a FE080000 		.4byte	.LASF5
 2462 005e 03       		.uleb128 0x3
 2463 005f 02       		.byte	0x2
 2464 0060 07       		.byte	0x7
 2465 0061 5A0C0000 		.4byte	.LASF6
 2466 0065 04       		.uleb128 0x4
 2467 0066 EB000000 		.4byte	.LASF7
 2468 006a 02       		.byte	0x2
 2469 006b 37       		.byte	0x37
 2470 006c 70000000 		.4byte	0x70
 2471 0070 03       		.uleb128 0x3
 2472 0071 04       		.byte	0x4
 2473 0072 05       		.byte	0x5
 2474 0073 08090000 		.4byte	.LASF8
 2475 0077 03       		.uleb128 0x3
 2476 0078 04       		.byte	0x4
 2477 0079 07       		.byte	0x7
 2478 007a A60A0000 		.4byte	.LASF9
 2479 007e 03       		.uleb128 0x3
 2480 007f 08       		.byte	0x8
 2481 0080 05       		.byte	0x5
 2482 0081 38070000 		.4byte	.LASF10
ARM GAS  /tmp/ccHvf4Lz.s 			page 45


 2483 0085 03       		.uleb128 0x3
 2484 0086 08       		.byte	0x8
 2485 0087 07       		.byte	0x7
 2486 0088 1A030000 		.4byte	.LASF11
 2487 008c 03       		.uleb128 0x3
 2488 008d 04       		.byte	0x4
 2489 008e 07       		.byte	0x7
 2490 008f 9D0A0000 		.4byte	.LASF12
 2491 0093 05       		.uleb128 0x5
 2492 0094 04       		.byte	0x4
 2493 0095 03       		.uleb128 0x3
 2494 0096 01       		.byte	0x1
 2495 0097 08       		.byte	0x8
 2496 0098 38060000 		.4byte	.LASF13
 2497 009c 04       		.uleb128 0x4
 2498 009d A5060000 		.4byte	.LASF14
 2499 00a1 03       		.byte	0x3
 2500 00a2 2A       		.byte	0x2a
 2501 00a3 3A000000 		.4byte	0x3a
 2502 00a7 04       		.uleb128 0x4
 2503 00a8 08030000 		.4byte	.LASF15
 2504 00ac 03       		.byte	0x3
 2505 00ad 35       		.byte	0x35
 2506 00ae 4C000000 		.4byte	0x4c
 2507 00b2 04       		.uleb128 0x4
 2508 00b3 170B0000 		.4byte	.LASF16
 2509 00b7 03       		.byte	0x3
 2510 00b8 41       		.byte	0x41
 2511 00b9 65000000 		.4byte	0x65
 2512 00bd 06       		.uleb128 0x6
 2513 00be 14       		.byte	0x14
 2514 00bf 04       		.byte	0x4
 2515 00c0 5B       		.byte	0x5b
 2516 00c1 4A010000 		.4byte	0x14a
 2517 00c5 07       		.uleb128 0x7
 2518 00c6 87030000 		.4byte	.LASF17
 2519 00ca 04       		.byte	0x4
 2520 00cb 5F       		.byte	0x5f
 2521 00cc 9C000000 		.4byte	0x9c
 2522 00d0 00       		.byte	0
 2523 00d1 07       		.uleb128 0x7
 2524 00d2 450D0000 		.4byte	.LASF18
 2525 00d6 04       		.byte	0x4
 2526 00d7 62       		.byte	0x62
 2527 00d8 9C000000 		.4byte	0x9c
 2528 00dc 01       		.byte	0x1
 2529 00dd 07       		.uleb128 0x7
 2530 00de B80A0000 		.4byte	.LASF19
 2531 00e2 04       		.byte	0x4
 2532 00e3 63       		.byte	0x63
 2533 00e4 9C000000 		.4byte	0x9c
 2534 00e8 02       		.byte	0x2
 2535 00e9 07       		.uleb128 0x7
 2536 00ea 69070000 		.4byte	.LASF20
 2537 00ee 04       		.byte	0x4
 2538 00ef 64       		.byte	0x64
 2539 00f0 9C000000 		.4byte	0x9c
ARM GAS  /tmp/ccHvf4Lz.s 			page 46


 2540 00f4 03       		.byte	0x3
 2541 00f5 07       		.uleb128 0x7
 2542 00f6 E8030000 		.4byte	.LASF21
 2543 00fa 04       		.byte	0x4
 2544 00fb 65       		.byte	0x65
 2545 00fc 9C000000 		.4byte	0x9c
 2546 0100 04       		.byte	0x4
 2547 0101 07       		.uleb128 0x7
 2548 0102 6B080000 		.4byte	.LASF22
 2549 0106 04       		.byte	0x4
 2550 0107 66       		.byte	0x66
 2551 0108 9C000000 		.4byte	0x9c
 2552 010c 05       		.byte	0x5
 2553 010d 07       		.uleb128 0x7
 2554 010e D3030000 		.4byte	.LASF23
 2555 0112 04       		.byte	0x4
 2556 0113 67       		.byte	0x67
 2557 0114 9C000000 		.4byte	0x9c
 2558 0118 06       		.byte	0x6
 2559 0119 07       		.uleb128 0x7
 2560 011a C5010000 		.4byte	.LASF24
 2561 011e 04       		.byte	0x4
 2562 011f 68       		.byte	0x68
 2563 0120 9C000000 		.4byte	0x9c
 2564 0124 07       		.byte	0x7
 2565 0125 07       		.uleb128 0x7
 2566 0126 8B040000 		.4byte	.LASF25
 2567 012a 04       		.byte	0x4
 2568 012b 6B       		.byte	0x6b
 2569 012c 93000000 		.4byte	0x93
 2570 0130 08       		.byte	0x8
 2571 0131 07       		.uleb128 0x7
 2572 0132 37090000 		.4byte	.LASF26
 2573 0136 04       		.byte	0x4
 2574 0137 6E       		.byte	0x6e
 2575 0138 93000000 		.4byte	0x93
 2576 013c 0C       		.byte	0xc
 2577 013d 07       		.uleb128 0x7
 2578 013e F3080000 		.4byte	.LASF27
 2579 0142 04       		.byte	0x4
 2580 0143 70       		.byte	0x70
 2581 0144 93000000 		.4byte	0x93
 2582 0148 10       		.byte	0x10
 2583 0149 00       		.byte	0
 2584 014a 04       		.uleb128 0x4
 2585 014b C3080000 		.4byte	.LASF28
 2586 014f 04       		.byte	0x4
 2587 0150 71       		.byte	0x71
 2588 0151 BD000000 		.4byte	0xbd
 2589 0155 08       		.uleb128 0x8
 2590 0156 01       		.byte	0x1
 2591 0157 04       		.byte	0x4
 2592 0158 79       		.byte	0x79
 2593 0159 76010000 		.4byte	0x176
 2594 015d 09       		.uleb128 0x9
 2595 015e FD060000 		.4byte	.LASF29
 2596 0162 00       		.sleb128 0
ARM GAS  /tmp/ccHvf4Lz.s 			page 47


 2597 0163 09       		.uleb128 0x9
 2598 0164 9E000000 		.4byte	.LASF30
 2599 0168 01       		.sleb128 1
 2600 0169 09       		.uleb128 0x9
 2601 016a DA0A0000 		.4byte	.LASF31
 2602 016e 02       		.sleb128 2
 2603 016f 09       		.uleb128 0x9
 2604 0170 B80B0000 		.4byte	.LASF32
 2605 0174 03       		.sleb128 3
 2606 0175 00       		.byte	0
 2607 0176 04       		.uleb128 0x4
 2608 0177 BB000000 		.4byte	.LASF33
 2609 017b 04       		.byte	0x4
 2610 017c 7E       		.byte	0x7e
 2611 017d 55010000 		.4byte	0x155
 2612 0181 06       		.uleb128 0x6
 2613 0182 06       		.byte	0x6
 2614 0183 05       		.byte	0x5
 2615 0184 4D       		.byte	0x4d
 2616 0185 AE010000 		.4byte	0x1ae
 2617 0189 07       		.uleb128 0x7
 2618 018a 1F080000 		.4byte	.LASF34
 2619 018e 05       		.byte	0x5
 2620 018f 4F       		.byte	0x4f
 2621 0190 A7000000 		.4byte	0xa7
 2622 0194 00       		.byte	0
 2623 0195 07       		.uleb128 0x7
 2624 0196 26080000 		.4byte	.LASF35
 2625 019a 05       		.byte	0x5
 2626 019b 50       		.byte	0x50
 2627 019c A7000000 		.4byte	0xa7
 2628 01a0 02       		.byte	0x2
 2629 01a1 07       		.uleb128 0x7
 2630 01a2 2D080000 		.4byte	.LASF36
 2631 01a6 05       		.byte	0x5
 2632 01a7 51       		.byte	0x51
 2633 01a8 A7000000 		.4byte	0xa7
 2634 01ac 04       		.byte	0x4
 2635 01ad 00       		.byte	0
 2636 01ae 04       		.uleb128 0x4
 2637 01af 1F0B0000 		.4byte	.LASF37
 2638 01b3 05       		.byte	0x5
 2639 01b4 52       		.byte	0x52
 2640 01b5 81010000 		.4byte	0x181
 2641 01b9 06       		.uleb128 0x6
 2642 01ba 0C       		.byte	0xc
 2643 01bb 05       		.byte	0x5
 2644 01bc 57       		.byte	0x57
 2645 01bd E6010000 		.4byte	0x1e6
 2646 01c1 07       		.uleb128 0x7
 2647 01c2 1F080000 		.4byte	.LASF34
 2648 01c6 05       		.byte	0x5
 2649 01c7 59       		.byte	0x59
 2650 01c8 B2000000 		.4byte	0xb2
 2651 01cc 00       		.byte	0
 2652 01cd 07       		.uleb128 0x7
 2653 01ce 26080000 		.4byte	.LASF35
ARM GAS  /tmp/ccHvf4Lz.s 			page 48


 2654 01d2 05       		.byte	0x5
 2655 01d3 5A       		.byte	0x5a
 2656 01d4 B2000000 		.4byte	0xb2
 2657 01d8 04       		.byte	0x4
 2658 01d9 07       		.uleb128 0x7
 2659 01da 2D080000 		.4byte	.LASF36
 2660 01de 05       		.byte	0x5
 2661 01df 5B       		.byte	0x5b
 2662 01e0 B2000000 		.4byte	0xb2
 2663 01e4 08       		.byte	0x8
 2664 01e5 00       		.byte	0
 2665 01e6 04       		.uleb128 0x4
 2666 01e7 2B070000 		.4byte	.LASF38
 2667 01eb 05       		.byte	0x5
 2668 01ec 5C       		.byte	0x5c
 2669 01ed B9010000 		.4byte	0x1b9
 2670 01f1 08       		.uleb128 0x8
 2671 01f2 01       		.byte	0x1
 2672 01f3 05       		.byte	0x5
 2673 01f4 62       		.byte	0x62
 2674 01f5 18020000 		.4byte	0x218
 2675 01f9 09       		.uleb128 0x9
 2676 01fa EF040000 		.4byte	.LASF39
 2677 01fe 00       		.sleb128 0
 2678 01ff 09       		.uleb128 0x9
 2679 0200 4C0D0000 		.4byte	.LASF40
 2680 0204 01       		.sleb128 1
 2681 0205 09       		.uleb128 0x9
 2682 0206 BE040000 		.4byte	.LASF41
 2683 020a 02       		.sleb128 2
 2684 020b 09       		.uleb128 0x9
 2685 020c 9E0B0000 		.4byte	.LASF42
 2686 0210 03       		.sleb128 3
 2687 0211 09       		.uleb128 0x9
 2688 0212 3A0B0000 		.4byte	.LASF43
 2689 0216 04       		.sleb128 4
 2690 0217 00       		.byte	0
 2691 0218 04       		.uleb128 0x4
 2692 0219 50060000 		.4byte	.LASF44
 2693 021d 05       		.byte	0x5
 2694 021e 68       		.byte	0x68
 2695 021f F1010000 		.4byte	0x1f1
 2696 0223 08       		.uleb128 0x8
 2697 0224 01       		.byte	0x1
 2698 0225 05       		.byte	0x5
 2699 0226 6E       		.byte	0x6e
 2700 0227 4A020000 		.4byte	0x24a
 2701 022b 09       		.uleb128 0x9
 2702 022c 5D010000 		.4byte	.LASF45
 2703 0230 00       		.sleb128 0
 2704 0231 09       		.uleb128 0x9
 2705 0232 D20B0000 		.4byte	.LASF46
 2706 0236 01       		.sleb128 1
 2707 0237 09       		.uleb128 0x9
 2708 0238 3C010000 		.4byte	.LASF47
 2709 023c 02       		.sleb128 2
 2710 023d 09       		.uleb128 0x9
ARM GAS  /tmp/ccHvf4Lz.s 			page 49


 2711 023e AB080000 		.4byte	.LASF48
 2712 0242 03       		.sleb128 3
 2713 0243 09       		.uleb128 0x9
 2714 0244 6D0C0000 		.4byte	.LASF49
 2715 0248 04       		.sleb128 4
 2716 0249 00       		.byte	0
 2717 024a 04       		.uleb128 0x4
 2718 024b 2F0B0000 		.4byte	.LASF50
 2719 024f 05       		.byte	0x5
 2720 0250 74       		.byte	0x74
 2721 0251 23020000 		.4byte	0x223
 2722 0255 06       		.uleb128 0x6
 2723 0256 50       		.byte	0x50
 2724 0257 06       		.byte	0x6
 2725 0258 4B       		.byte	0x4b
 2726 0259 4E030000 		.4byte	0x34e
 2727 025d 07       		.uleb128 0x7
 2728 025e 86040000 		.4byte	.LASF51
 2729 0262 06       		.byte	0x6
 2730 0263 4D       		.byte	0x4d
 2731 0264 63030000 		.4byte	0x363
 2732 0268 00       		.byte	0
 2733 0269 07       		.uleb128 0x7
 2734 026a 31030000 		.4byte	.LASF52
 2735 026e 06       		.byte	0x6
 2736 026f 4E       		.byte	0x4e
 2737 0270 63030000 		.4byte	0x363
 2738 0274 04       		.byte	0x4
 2739 0275 07       		.uleb128 0x7
 2740 0276 86090000 		.4byte	.LASF53
 2741 027a 06       		.byte	0x6
 2742 027b 4F       		.byte	0x4f
 2743 027c 63030000 		.4byte	0x363
 2744 0280 08       		.byte	0x8
 2745 0281 07       		.uleb128 0x7
 2746 0282 F7040000 		.4byte	.LASF54
 2747 0286 06       		.byte	0x6
 2748 0287 50       		.byte	0x50
 2749 0288 63030000 		.4byte	0x363
 2750 028c 0C       		.byte	0xc
 2751 028d 07       		.uleb128 0x7
 2752 028e D5080000 		.4byte	.LASF55
 2753 0292 06       		.byte	0x6
 2754 0293 51       		.byte	0x51
 2755 0294 83030000 		.4byte	0x383
 2756 0298 10       		.byte	0x10
 2757 0299 07       		.uleb128 0x7
 2758 029a 91040000 		.4byte	.LASF56
 2759 029e 06       		.byte	0x6
 2760 029f 52       		.byte	0x52
 2761 02a0 63030000 		.4byte	0x363
 2762 02a4 14       		.byte	0x14
 2763 02a5 07       		.uleb128 0x7
 2764 02a6 46070000 		.4byte	.LASF57
 2765 02aa 06       		.byte	0x6
 2766 02ab 53       		.byte	0x53
 2767 02ac A3030000 		.4byte	0x3a3
ARM GAS  /tmp/ccHvf4Lz.s 			page 50


 2768 02b0 18       		.byte	0x18
 2769 02b1 07       		.uleb128 0x7
 2770 02b2 C7030000 		.4byte	.LASF58
 2771 02b6 06       		.byte	0x6
 2772 02b7 54       		.byte	0x54
 2773 02b8 C3030000 		.4byte	0x3c3
 2774 02bc 1C       		.byte	0x1c
 2775 02bd 07       		.uleb128 0x7
 2776 02be 7A000000 		.4byte	.LASF59
 2777 02c2 06       		.byte	0x6
 2778 02c3 55       		.byte	0x55
 2779 02c4 EA030000 		.4byte	0x3ea
 2780 02c8 20       		.byte	0x20
 2781 02c9 07       		.uleb128 0x7
 2782 02ca F5060000 		.4byte	.LASF60
 2783 02ce 06       		.byte	0x6
 2784 02cf 56       		.byte	0x56
 2785 02d0 EA030000 		.4byte	0x3ea
 2786 02d4 24       		.byte	0x24
 2787 02d5 07       		.uleb128 0x7
 2788 02d6 34010000 		.4byte	.LASF61
 2789 02da 06       		.byte	0x6
 2790 02db 57       		.byte	0x57
 2791 02dc 04040000 		.4byte	0x404
 2792 02e0 28       		.byte	0x28
 2793 02e1 07       		.uleb128 0x7
 2794 02e2 E7060000 		.4byte	.LASF62
 2795 02e6 06       		.byte	0x6
 2796 02e7 58       		.byte	0x58
 2797 02e8 1E040000 		.4byte	0x41e
 2798 02ec 2C       		.byte	0x2c
 2799 02ed 07       		.uleb128 0x7
 2800 02ee 34080000 		.4byte	.LASF63
 2801 02f2 06       		.byte	0x6
 2802 02f3 59       		.byte	0x59
 2803 02f4 EA030000 		.4byte	0x3ea
 2804 02f8 30       		.byte	0x30
 2805 02f9 07       		.uleb128 0x7
 2806 02fa 430B0000 		.4byte	.LASF64
 2807 02fe 06       		.byte	0x6
 2808 02ff 5A       		.byte	0x5a
 2809 0300 38040000 		.4byte	0x438
 2810 0304 34       		.byte	0x34
 2811 0305 07       		.uleb128 0x7
 2812 0306 02060000 		.4byte	.LASF65
 2813 030a 06       		.byte	0x6
 2814 030b 5B       		.byte	0x5b
 2815 030c 1E040000 		.4byte	0x41e
 2816 0310 38       		.byte	0x38
 2817 0311 07       		.uleb128 0x7
 2818 0312 580D0000 		.4byte	.LASF66
 2819 0316 06       		.byte	0x6
 2820 0317 5C       		.byte	0x5c
 2821 0318 83030000 		.4byte	0x383
 2822 031c 3C       		.byte	0x3c
 2823 031d 07       		.uleb128 0x7
 2824 031e 1E040000 		.4byte	.LASF67
ARM GAS  /tmp/ccHvf4Lz.s 			page 51


 2825 0322 06       		.byte	0x6
 2826 0323 5D       		.byte	0x5d
 2827 0324 83030000 		.4byte	0x383
 2828 0328 40       		.byte	0x40
 2829 0329 07       		.uleb128 0x7
 2830 032a D5070000 		.4byte	.LASF68
 2831 032e 06       		.byte	0x6
 2832 032f 5E       		.byte	0x5e
 2833 0330 57040000 		.4byte	0x457
 2834 0334 44       		.byte	0x44
 2835 0335 07       		.uleb128 0x7
 2836 0336 4C000000 		.4byte	.LASF69
 2837 033a 06       		.byte	0x6
 2838 033b 5F       		.byte	0x5f
 2839 033c 76040000 		.4byte	0x476
 2840 0340 48       		.byte	0x48
 2841 0341 07       		.uleb128 0x7
 2842 0342 79080000 		.4byte	.LASF70
 2843 0346 06       		.byte	0x6
 2844 0347 60       		.byte	0x60
 2845 0348 83030000 		.4byte	0x383
 2846 034c 4C       		.byte	0x4c
 2847 034d 00       		.byte	0
 2848 034e 0A       		.uleb128 0xa
 2849 034f 76010000 		.4byte	0x176
 2850 0353 5D030000 		.4byte	0x35d
 2851 0357 0B       		.uleb128 0xb
 2852 0358 5D030000 		.4byte	0x35d
 2853 035c 00       		.byte	0
 2854 035d 0C       		.uleb128 0xc
 2855 035e 04       		.byte	0x4
 2856 035f 4A010000 		.4byte	0x14a
 2857 0363 0C       		.uleb128 0xc
 2858 0364 04       		.byte	0x4
 2859 0365 4E030000 		.4byte	0x34e
 2860 0369 0A       		.uleb128 0xa
 2861 036a 76010000 		.4byte	0x176
 2862 036e 7D030000 		.4byte	0x37d
 2863 0372 0B       		.uleb128 0xb
 2864 0373 5D030000 		.4byte	0x35d
 2865 0377 0B       		.uleb128 0xb
 2866 0378 7D030000 		.4byte	0x37d
 2867 037c 00       		.byte	0
 2868 037d 0C       		.uleb128 0xc
 2869 037e 04       		.byte	0x4
 2870 037f 9C000000 		.4byte	0x9c
 2871 0383 0C       		.uleb128 0xc
 2872 0384 04       		.byte	0x4
 2873 0385 69030000 		.4byte	0x369
 2874 0389 0A       		.uleb128 0xa
 2875 038a 76010000 		.4byte	0x176
 2876 038e 9D030000 		.4byte	0x39d
 2877 0392 0B       		.uleb128 0xb
 2878 0393 5D030000 		.4byte	0x35d
 2879 0397 0B       		.uleb128 0xb
 2880 0398 9D030000 		.4byte	0x39d
 2881 039c 00       		.byte	0
ARM GAS  /tmp/ccHvf4Lz.s 			page 52


 2882 039d 0C       		.uleb128 0xc
 2883 039e 04       		.byte	0x4
 2884 039f E6010000 		.4byte	0x1e6
 2885 03a3 0C       		.uleb128 0xc
 2886 03a4 04       		.byte	0x4
 2887 03a5 89030000 		.4byte	0x389
 2888 03a9 0A       		.uleb128 0xa
 2889 03aa 76010000 		.4byte	0x176
 2890 03ae BD030000 		.4byte	0x3bd
 2891 03b2 0B       		.uleb128 0xb
 2892 03b3 5D030000 		.4byte	0x35d
 2893 03b7 0B       		.uleb128 0xb
 2894 03b8 BD030000 		.4byte	0x3bd
 2895 03bc 00       		.byte	0
 2896 03bd 0C       		.uleb128 0xc
 2897 03be 04       		.byte	0x4
 2898 03bf AE010000 		.4byte	0x1ae
 2899 03c3 0C       		.uleb128 0xc
 2900 03c4 04       		.byte	0x4
 2901 03c5 A9030000 		.4byte	0x3a9
 2902 03c9 0A       		.uleb128 0xa
 2903 03ca 76010000 		.4byte	0x176
 2904 03ce DD030000 		.4byte	0x3dd
 2905 03d2 0B       		.uleb128 0xb
 2906 03d3 5D030000 		.4byte	0x35d
 2907 03d7 0B       		.uleb128 0xb
 2908 03d8 DD030000 		.4byte	0x3dd
 2909 03dc 00       		.byte	0
 2910 03dd 0C       		.uleb128 0xc
 2911 03de 04       		.byte	0x4
 2912 03df E3030000 		.4byte	0x3e3
 2913 03e3 03       		.uleb128 0x3
 2914 03e4 04       		.byte	0x4
 2915 03e5 04       		.byte	0x4
 2916 03e6 BA020000 		.4byte	.LASF71
 2917 03ea 0C       		.uleb128 0xc
 2918 03eb 04       		.byte	0x4
 2919 03ec C9030000 		.4byte	0x3c9
 2920 03f0 0A       		.uleb128 0xa
 2921 03f1 76010000 		.4byte	0x176
 2922 03f5 04040000 		.4byte	0x404
 2923 03f9 0B       		.uleb128 0xb
 2924 03fa 5D030000 		.4byte	0x35d
 2925 03fe 0B       		.uleb128 0xb
 2926 03ff 18020000 		.4byte	0x218
 2927 0403 00       		.byte	0
 2928 0404 0C       		.uleb128 0xc
 2929 0405 04       		.byte	0x4
 2930 0406 F0030000 		.4byte	0x3f0
 2931 040a 0A       		.uleb128 0xa
 2932 040b 76010000 		.4byte	0x176
 2933 040f 1E040000 		.4byte	0x41e
 2934 0413 0B       		.uleb128 0xb
 2935 0414 5D030000 		.4byte	0x35d
 2936 0418 0B       		.uleb128 0xb
 2937 0419 E3030000 		.4byte	0x3e3
 2938 041d 00       		.byte	0
ARM GAS  /tmp/ccHvf4Lz.s 			page 53


 2939 041e 0C       		.uleb128 0xc
 2940 041f 04       		.byte	0x4
 2941 0420 0A040000 		.4byte	0x40a
 2942 0424 0A       		.uleb128 0xa
 2943 0425 76010000 		.4byte	0x176
 2944 0429 38040000 		.4byte	0x438
 2945 042d 0B       		.uleb128 0xb
 2946 042e 5D030000 		.4byte	0x35d
 2947 0432 0B       		.uleb128 0xb
 2948 0433 4A020000 		.4byte	0x24a
 2949 0437 00       		.byte	0
 2950 0438 0C       		.uleb128 0xc
 2951 0439 04       		.byte	0x4
 2952 043a 24040000 		.4byte	0x424
 2953 043e 0A       		.uleb128 0xa
 2954 043f 76010000 		.4byte	0x176
 2955 0443 57040000 		.4byte	0x457
 2956 0447 0B       		.uleb128 0xb
 2957 0448 5D030000 		.4byte	0x35d
 2958 044c 0B       		.uleb128 0xb
 2959 044d 9C000000 		.4byte	0x9c
 2960 0451 0B       		.uleb128 0xb
 2961 0452 7D030000 		.4byte	0x37d
 2962 0456 00       		.byte	0
 2963 0457 0C       		.uleb128 0xc
 2964 0458 04       		.byte	0x4
 2965 0459 3E040000 		.4byte	0x43e
 2966 045d 0A       		.uleb128 0xa
 2967 045e 76010000 		.4byte	0x176
 2968 0462 76040000 		.4byte	0x476
 2969 0466 0B       		.uleb128 0xb
 2970 0467 5D030000 		.4byte	0x35d
 2971 046b 0B       		.uleb128 0xb
 2972 046c 9C000000 		.4byte	0x9c
 2973 0470 0B       		.uleb128 0xb
 2974 0471 9C000000 		.4byte	0x9c
 2975 0475 00       		.byte	0
 2976 0476 0C       		.uleb128 0xc
 2977 0477 04       		.byte	0x4
 2978 0478 5D040000 		.4byte	0x45d
 2979 047c 04       		.uleb128 0x4
 2980 047d 68060000 		.4byte	.LASF72
 2981 0481 06       		.byte	0x6
 2982 0482 61       		.byte	0x61
 2983 0483 55020000 		.4byte	0x255
 2984 0487 06       		.uleb128 0x6
 2985 0488 08       		.byte	0x8
 2986 0489 06       		.byte	0x6
 2987 048a 66       		.byte	0x66
 2988 048b A8040000 		.4byte	0x4a8
 2989 048f 07       		.uleb128 0x7
 2990 0490 EC0A0000 		.4byte	.LASF73
 2991 0494 06       		.byte	0x6
 2992 0495 68       		.byte	0x68
 2993 0496 93000000 		.4byte	0x93
 2994 049a 00       		.byte	0
 2995 049b 07       		.uleb128 0x7
ARM GAS  /tmp/ccHvf4Lz.s 			page 54


 2996 049c 81020000 		.4byte	.LASF74
 2997 04a0 06       		.byte	0x6
 2998 04a1 69       		.byte	0x69
 2999 04a2 93000000 		.4byte	0x93
 3000 04a6 04       		.byte	0x4
 3001 04a7 00       		.byte	0
 3002 04a8 04       		.uleb128 0x4
 3003 04a9 11090000 		.4byte	.LASF75
 3004 04ad 06       		.byte	0x6
 3005 04ae 6A       		.byte	0x6a
 3006 04af 87040000 		.4byte	0x487
 3007 04b3 04       		.uleb128 0x4
 3008 04b4 8F070000 		.4byte	.LASF76
 3009 04b8 07       		.byte	0x7
 3010 04b9 38       		.byte	0x38
 3011 04ba 45000000 		.4byte	0x45
 3012 04be 04       		.uleb128 0x4
 3013 04bf 94090000 		.4byte	.LASF77
 3014 04c3 07       		.byte	0x7
 3015 04c4 3C       		.byte	0x3c
 3016 04c5 57000000 		.4byte	0x57
 3017 04c9 0D       		.uleb128 0xd
 3018 04ca 06       		.byte	0x6
 3019 04cb 07       		.byte	0x7
 3020 04cc 46       		.byte	0x46
 3021 04cd E8040000 		.4byte	0x4e8
 3022 04d1 0E       		.uleb128 0xe
 3023 04d2 45000000 		.4byte	.LASF78
 3024 04d6 07       		.byte	0x7
 3025 04d7 48       		.byte	0x48
 3026 04d8 E8040000 		.4byte	0x4e8
 3027 04dc 0E       		.uleb128 0xe
 3028 04dd 68030000 		.4byte	.LASF79
 3029 04e1 07       		.byte	0x7
 3030 04e2 49       		.byte	0x49
 3031 04e3 F8040000 		.4byte	0x4f8
 3032 04e7 00       		.byte	0
 3033 04e8 0F       		.uleb128 0xf
 3034 04e9 BE040000 		.4byte	0x4be
 3035 04ed F8040000 		.4byte	0x4f8
 3036 04f1 10       		.uleb128 0x10
 3037 04f2 8C000000 		.4byte	0x8c
 3038 04f6 02       		.byte	0x2
 3039 04f7 00       		.byte	0
 3040 04f8 0F       		.uleb128 0xf
 3041 04f9 B3040000 		.4byte	0x4b3
 3042 04fd 08050000 		.4byte	0x508
 3043 0501 10       		.uleb128 0x10
 3044 0502 8C000000 		.4byte	0x8c
 3045 0506 05       		.byte	0x5
 3046 0507 00       		.byte	0
 3047 0508 04       		.uleb128 0x4
 3048 0509 020D0000 		.4byte	.LASF80
 3049 050d 07       		.byte	0x7
 3050 050e 4A       		.byte	0x4a
 3051 050f C9040000 		.4byte	0x4c9
 3052 0513 08       		.uleb128 0x8
ARM GAS  /tmp/ccHvf4Lz.s 			page 55


 3053 0514 01       		.byte	0x1
 3054 0515 07       		.byte	0x7
 3055 0516 59       		.byte	0x59
 3056 0517 28050000 		.4byte	0x528
 3057 051b 09       		.uleb128 0x9
 3058 051c AB0B0000 		.4byte	.LASF81
 3059 0520 01       		.sleb128 1
 3060 0521 09       		.uleb128 0x9
 3061 0522 15010000 		.4byte	.LASF82
 3062 0526 00       		.sleb128 0
 3063 0527 00       		.byte	0
 3064 0528 08       		.uleb128 0x8
 3065 0529 01       		.byte	0x1
 3066 052a 07       		.byte	0x7
 3067 052b BB       		.byte	0xbb
 3068 052c 3E050000 		.4byte	0x53e
 3069 0530 09       		.uleb128 0x9
 3070 0531 50080000 		.4byte	.LASF83
 3071 0535 00       		.sleb128 0
 3072 0536 09       		.uleb128 0x9
 3073 0537 64010000 		.4byte	.LASF84
 3074 053b 8001     		.sleb128 128
 3075 053d 00       		.byte	0
 3076 053e 08       		.uleb128 0x8
 3077 053f 01       		.byte	0x1
 3078 0540 07       		.byte	0x7
 3079 0541 CB       		.byte	0xcb
 3080 0542 5F050000 		.4byte	0x55f
 3081 0546 09       		.uleb128 0x9
 3082 0547 16000000 		.4byte	.LASF85
 3083 054b 00       		.sleb128 0
 3084 054c 09       		.uleb128 0x9
 3085 054d 20010000 		.4byte	.LASF86
 3086 0551 10       		.sleb128 16
 3087 0552 09       		.uleb128 0x9
 3088 0553 0F060000 		.4byte	.LASF87
 3089 0557 20       		.sleb128 32
 3090 0558 09       		.uleb128 0x9
 3091 0559 23060000 		.4byte	.LASF88
 3092 055d 30       		.sleb128 48
 3093 055e 00       		.byte	0
 3094 055f 04       		.uleb128 0x4
 3095 0560 F8070000 		.4byte	.LASF89
 3096 0564 07       		.byte	0x7
 3097 0565 D0       		.byte	0xd0
 3098 0566 3E050000 		.4byte	0x53e
 3099 056a 08       		.uleb128 0x8
 3100 056b 01       		.byte	0x1
 3101 056c 07       		.byte	0x7
 3102 056d E5       		.byte	0xe5
 3103 056e B5050000 		.4byte	0x5b5
 3104 0572 09       		.uleb128 0x9
 3105 0573 06050000 		.4byte	.LASF90
 3106 0577 00       		.sleb128 0
 3107 0578 09       		.uleb128 0x9
 3108 0579 12070000 		.4byte	.LASF91
 3109 057d 10       		.sleb128 16
ARM GAS  /tmp/ccHvf4Lz.s 			page 56


 3110 057e 09       		.uleb128 0x9
 3111 057f 050C0000 		.4byte	.LASF92
 3112 0583 20       		.sleb128 32
 3113 0584 09       		.uleb128 0x9
 3114 0585 C00A0000 		.4byte	.LASF93
 3115 0589 30       		.sleb128 48
 3116 058a 09       		.uleb128 0x9
 3117 058b 67020000 		.4byte	.LASF94
 3118 058f C000     		.sleb128 64
 3119 0591 09       		.uleb128 0x9
 3120 0592 D4040000 		.4byte	.LASF95
 3121 0596 D000     		.sleb128 80
 3122 0598 09       		.uleb128 0x9
 3123 0599 2A000000 		.4byte	.LASF96
 3124 059d E000     		.sleb128 96
 3125 059f 09       		.uleb128 0x9
 3126 05a0 6B040000 		.4byte	.LASF97
 3127 05a4 F000     		.sleb128 112
 3128 05a6 09       		.uleb128 0x9
 3129 05a7 B9070000 		.4byte	.LASF98
 3130 05ab 8001     		.sleb128 128
 3131 05ad 09       		.uleb128 0x9
 3132 05ae 5A0A0000 		.4byte	.LASF99
 3133 05b2 9001     		.sleb128 144
 3134 05b4 00       		.byte	0
 3135 05b5 04       		.uleb128 0x4
 3136 05b6 8A000000 		.4byte	.LASF100
 3137 05ba 07       		.byte	0x7
 3138 05bb F0       		.byte	0xf0
 3139 05bc 6A050000 		.4byte	0x56a
 3140 05c0 11       		.uleb128 0x11
 3141 05c1 01       		.byte	0x1
 3142 05c2 07       		.byte	0x7
 3143 05c3 A101     		.2byte	0x1a1
 3144 05c5 D6050000 		.4byte	0x5d6
 3145 05c9 09       		.uleb128 0x9
 3146 05ca 94070000 		.4byte	.LASF101
 3147 05ce 00       		.sleb128 0
 3148 05cf 09       		.uleb128 0x9
 3149 05d0 DE070000 		.4byte	.LASF102
 3150 05d4 01       		.sleb128 1
 3151 05d5 00       		.byte	0
 3152 05d6 12       		.uleb128 0x12
 3153 05d7 460C0000 		.4byte	.LASF103
 3154 05db 07       		.byte	0x7
 3155 05dc A401     		.2byte	0x1a4
 3156 05de C0050000 		.4byte	0x5c0
 3157 05e2 11       		.uleb128 0x11
 3158 05e3 01       		.byte	0x1
 3159 05e4 07       		.byte	0x7
 3160 05e5 B101     		.2byte	0x1b1
 3161 05e7 F8050000 		.4byte	0x5f8
 3162 05eb 09       		.uleb128 0x9
 3163 05ec 1F0C0000 		.4byte	.LASF104
 3164 05f0 00       		.sleb128 0
 3165 05f1 09       		.uleb128 0x9
 3166 05f2 E8050000 		.4byte	.LASF105
ARM GAS  /tmp/ccHvf4Lz.s 			page 57


 3167 05f6 02       		.sleb128 2
 3168 05f7 00       		.byte	0
 3169 05f8 12       		.uleb128 0x12
 3170 05f9 0B080000 		.4byte	.LASF106
 3171 05fd 07       		.byte	0x7
 3172 05fe B401     		.2byte	0x1b4
 3173 0600 E2050000 		.4byte	0x5e2
 3174 0604 11       		.uleb128 0x11
 3175 0605 01       		.byte	0x1
 3176 0606 07       		.byte	0x7
 3177 0607 C101     		.2byte	0x1c1
 3178 0609 1A060000 		.4byte	0x61a
 3179 060d 09       		.uleb128 0x9
 3180 060e AA010000 		.4byte	.LASF107
 3181 0612 00       		.sleb128 0
 3182 0613 09       		.uleb128 0x9
 3183 0614 43010000 		.4byte	.LASF108
 3184 0618 04       		.sleb128 4
 3185 0619 00       		.byte	0
 3186 061a 12       		.uleb128 0x12
 3187 061b A6020000 		.4byte	.LASF109
 3188 061f 07       		.byte	0x7
 3189 0620 C401     		.2byte	0x1c4
 3190 0622 04060000 		.4byte	0x604
 3191 0626 11       		.uleb128 0x11
 3192 0627 01       		.byte	0x1
 3193 0628 07       		.byte	0x7
 3194 0629 D101     		.2byte	0x1d1
 3195 062b 3C060000 		.4byte	0x63c
 3196 062f 09       		.uleb128 0x9
 3197 0630 8A020000 		.4byte	.LASF110
 3198 0634 00       		.sleb128 0
 3199 0635 09       		.uleb128 0x9
 3200 0636 7C0C0000 		.4byte	.LASF111
 3201 063a 08       		.sleb128 8
 3202 063b 00       		.byte	0
 3203 063c 12       		.uleb128 0x12
 3204 063d 56040000 		.4byte	.LASF112
 3205 0641 07       		.byte	0x7
 3206 0642 D401     		.2byte	0x1d4
 3207 0644 26060000 		.4byte	0x626
 3208 0648 11       		.uleb128 0x11
 3209 0649 01       		.byte	0x1
 3210 064a 07       		.byte	0x7
 3211 064b D702     		.2byte	0x2d7
 3212 064d 5E060000 		.4byte	0x65e
 3213 0651 09       		.uleb128 0x9
 3214 0652 130D0000 		.4byte	.LASF113
 3215 0656 00       		.sleb128 0
 3216 0657 09       		.uleb128 0x9
 3217 0658 CF050000 		.4byte	.LASF114
 3218 065c 08       		.sleb128 8
 3219 065d 00       		.byte	0
 3220 065e 12       		.uleb128 0x12
 3221 065f 0B040000 		.4byte	.LASF115
 3222 0663 07       		.byte	0x7
 3223 0664 DA02     		.2byte	0x2da
ARM GAS  /tmp/ccHvf4Lz.s 			page 58


 3224 0666 48060000 		.4byte	0x648
 3225 066a 11       		.uleb128 0x11
 3226 066b 01       		.byte	0x1
 3227 066c 07       		.byte	0x7
 3228 066d C203     		.2byte	0x3c2
 3229 066f 80060000 		.4byte	0x680
 3230 0673 09       		.uleb128 0x9
 3231 0674 9E040000 		.4byte	.LASF116
 3232 0678 00       		.sleb128 0
 3233 0679 09       		.uleb128 0x9
 3234 067a 5E000000 		.4byte	.LASF117
 3235 067e 01       		.sleb128 1
 3236 067f 00       		.byte	0
 3237 0680 12       		.uleb128 0x12
 3238 0681 96010000 		.4byte	.LASF118
 3239 0685 07       		.byte	0x7
 3240 0686 C503     		.2byte	0x3c5
 3241 0688 6A060000 		.4byte	0x66a
 3242 068c 11       		.uleb128 0x11
 3243 068d 01       		.byte	0x1
 3244 068e 07       		.byte	0x7
 3245 068f 5504     		.2byte	0x455
 3246 0691 B1060000 		.4byte	0x6b1
 3247 0695 09       		.uleb128 0x9
 3248 0696 CF060000 		.4byte	.LASF119
 3249 069a 00       		.sleb128 0
 3250 069b 09       		.uleb128 0x9
 3251 069c 00000000 		.4byte	.LASF120
 3252 06a0 C000     		.sleb128 64
 3253 06a2 09       		.uleb128 0x9
 3254 06a3 93080000 		.4byte	.LASF121
 3255 06a7 8001     		.sleb128 128
 3256 06a9 09       		.uleb128 0x9
 3257 06aa 77060000 		.4byte	.LASF122
 3258 06ae C001     		.sleb128 192
 3259 06b0 00       		.byte	0
 3260 06b1 06       		.uleb128 0x6
 3261 06b2 02       		.byte	0x2
 3262 06b3 08       		.byte	0x8
 3263 06b4 4B       		.byte	0x4b
 3264 06b5 D2060000 		.4byte	0x6d2
 3265 06b9 07       		.uleb128 0x7
 3266 06ba 3F090000 		.4byte	.LASF123
 3267 06be 08       		.byte	0x8
 3268 06bf 4D       		.byte	0x4d
 3269 06c0 9C000000 		.4byte	0x9c
 3270 06c4 00       		.byte	0
 3271 06c5 07       		.uleb128 0x7
 3272 06c6 2D0D0000 		.4byte	.LASF124
 3273 06ca 08       		.byte	0x8
 3274 06cb 4E       		.byte	0x4e
 3275 06cc 9C000000 		.4byte	0x9c
 3276 06d0 01       		.byte	0x1
 3277 06d1 00       		.byte	0
 3278 06d2 04       		.uleb128 0x4
 3279 06d3 BE0C0000 		.4byte	.LASF125
 3280 06d7 08       		.byte	0x8
ARM GAS  /tmp/ccHvf4Lz.s 			page 59


 3281 06d8 4F       		.byte	0x4f
 3282 06d9 B1060000 		.4byte	0x6b1
 3283 06dd 06       		.uleb128 0x6
 3284 06de 08       		.byte	0x8
 3285 06df 09       		.byte	0x9
 3286 06e0 6A       		.byte	0x6a
 3287 06e1 FE060000 		.4byte	0x6fe
 3288 06e5 07       		.uleb128 0x7
 3289 06e6 89080000 		.4byte	.LASF126
 3290 06ea 09       		.byte	0x9
 3291 06eb 6C       		.byte	0x6c
 3292 06ec FE060000 		.4byte	0x6fe
 3293 06f0 00       		.byte	0
 3294 06f1 07       		.uleb128 0x7
 3295 06f2 2A090000 		.4byte	.LASF127
 3296 06f6 09       		.byte	0x9
 3297 06f7 6D       		.byte	0x6d
 3298 06f8 E3030000 		.4byte	0x3e3
 3299 06fc 04       		.byte	0x4
 3300 06fd 00       		.byte	0
 3301 06fe 0C       		.uleb128 0xc
 3302 06ff 04       		.byte	0x4
 3303 0700 D2060000 		.4byte	0x6d2
 3304 0704 04       		.uleb128 0x4
 3305 0705 BC060000 		.4byte	.LASF128
 3306 0709 09       		.byte	0x9
 3307 070a 6E       		.byte	0x6e
 3308 070b DD060000 		.4byte	0x6dd
 3309 070f 03       		.uleb128 0x3
 3310 0710 08       		.byte	0x8
 3311 0711 04       		.byte	0x4
 3312 0712 AF0C0000 		.4byte	.LASF129
 3313 0716 03       		.uleb128 0x3
 3314 0717 08       		.byte	0x8
 3315 0718 04       		.byte	0x4
 3316 0719 B7080000 		.4byte	.LASF130
 3317 071d 13       		.uleb128 0x13
 3318 071e F7020000 		.4byte	.LASF132
 3319 0722 01       		.byte	0x1
 3320 0723 9A       		.byte	0x9a
 3321 0724 76010000 		.4byte	0x176
 3322 0728 00000000 		.4byte	.LFB0
 3323 072c B4000000 		.4byte	.LFE0-.LFB0
 3324 0730 01       		.uleb128 0x1
 3325 0731 9C       		.byte	0x9c
 3326 0732 7D070000 		.4byte	0x77d
 3327 0736 14       		.uleb128 0x14
 3328 0737 750C0000 		.4byte	.LASF134
 3329 073b 01       		.byte	0x1
 3330 073c 9A       		.byte	0x9a
 3331 073d 5D030000 		.4byte	0x35d
 3332 0741 02       		.uleb128 0x2
 3333 0742 91       		.byte	0x91
 3334 0743 64       		.sleb128 -28
 3335 0744 15       		.uleb128 0x15
 3336 0745 DF000000 		.4byte	.LASF131
 3337 0749 01       		.byte	0x1
ARM GAS  /tmp/ccHvf4Lz.s 			page 60


 3338 074a 9D       		.byte	0x9d
 3339 074b 7D070000 		.4byte	0x77d
 3340 074f 02       		.uleb128 0x2
 3341 0750 91       		.byte	0x91
 3342 0751 68       		.sleb128 -24
 3343 0752 15       		.uleb128 0x15
 3344 0753 8B040000 		.4byte	.LASF25
 3345 0757 01       		.byte	0x1
 3346 0758 9E       		.byte	0x9e
 3347 0759 8D070000 		.4byte	0x78d
 3348 075d 02       		.uleb128 0x2
 3349 075e 91       		.byte	0x91
 3350 075f 74       		.sleb128 -12
 3351 0760 15       		.uleb128 0x15
 3352 0761 EC0A0000 		.4byte	.LASF73
 3353 0765 01       		.byte	0x1
 3354 0766 9F       		.byte	0x9f
 3355 0767 93070000 		.4byte	0x793
 3356 076b 02       		.uleb128 0x2
 3357 076c 91       		.byte	0x91
 3358 076d 70       		.sleb128 -16
 3359 076e 15       		.uleb128 0x15
 3360 076f 89080000 		.4byte	.LASF126
 3361 0773 01       		.byte	0x1
 3362 0774 A0       		.byte	0xa0
 3363 0775 FE060000 		.4byte	0x6fe
 3364 0779 02       		.uleb128 0x2
 3365 077a 91       		.byte	0x91
 3366 077b 6C       		.sleb128 -20
 3367 077c 00       		.byte	0
 3368 077d 0F       		.uleb128 0xf
 3369 077e 9C000000 		.4byte	0x9c
 3370 0782 8D070000 		.4byte	0x78d
 3371 0786 10       		.uleb128 0x10
 3372 0787 8C000000 		.4byte	0x8c
 3373 078b 02       		.byte	0x2
 3374 078c 00       		.byte	0
 3375 078d 0C       		.uleb128 0xc
 3376 078e 04       		.byte	0x4
 3377 078f A8040000 		.4byte	0x4a8
 3378 0793 0C       		.uleb128 0xc
 3379 0794 04       		.byte	0x4
 3380 0795 04070000 		.4byte	0x704
 3381 0799 13       		.uleb128 0x13
 3382 079a CC000000 		.4byte	.LASF133
 3383 079e 01       		.byte	0x1
 3384 079f D6       		.byte	0xd6
 3385 07a0 76010000 		.4byte	0x176
 3386 07a4 C0000000 		.4byte	.LFB1
 3387 07a8 56000000 		.4byte	.LFE1-.LFB1
 3388 07ac 01       		.uleb128 0x1
 3389 07ad 9C       		.byte	0x9c
 3390 07ae EB070000 		.4byte	0x7eb
 3391 07b2 14       		.uleb128 0x14
 3392 07b3 750C0000 		.4byte	.LASF134
 3393 07b7 01       		.byte	0x1
 3394 07b8 D6       		.byte	0xd6
ARM GAS  /tmp/ccHvf4Lz.s 			page 61


 3395 07b9 5D030000 		.4byte	0x35d
 3396 07bd 02       		.uleb128 0x2
 3397 07be 91       		.byte	0x91
 3398 07bf 64       		.sleb128 -28
 3399 07c0 15       		.uleb128 0x15
 3400 07c1 8B040000 		.4byte	.LASF25
 3401 07c5 01       		.byte	0x1
 3402 07c6 D9       		.byte	0xd9
 3403 07c7 8D070000 		.4byte	0x78d
 3404 07cb 02       		.uleb128 0x2
 3405 07cc 91       		.byte	0x91
 3406 07cd 74       		.sleb128 -12
 3407 07ce 15       		.uleb128 0x15
 3408 07cf EC0A0000 		.4byte	.LASF73
 3409 07d3 01       		.byte	0x1
 3410 07d4 DA       		.byte	0xda
 3411 07d5 93070000 		.4byte	0x793
 3412 07d9 02       		.uleb128 0x2
 3413 07da 91       		.byte	0x91
 3414 07db 70       		.sleb128 -16
 3415 07dc 15       		.uleb128 0x15
 3416 07dd 89080000 		.4byte	.LASF126
 3417 07e1 01       		.byte	0x1
 3418 07e2 DB       		.byte	0xdb
 3419 07e3 FE060000 		.4byte	0x6fe
 3420 07e7 02       		.uleb128 0x2
 3421 07e8 91       		.byte	0x91
 3422 07e9 6C       		.sleb128 -20
 3423 07ea 00       		.byte	0
 3424 07eb 13       		.uleb128 0x13
 3425 07ec 770A0000 		.4byte	.LASF135
 3426 07f0 01       		.byte	0x1
 3427 07f1 FA       		.byte	0xfa
 3428 07f2 76010000 		.4byte	0x176
 3429 07f6 20010000 		.4byte	.LFB2
 3430 07fa 44000000 		.4byte	.LFE2-.LFB2
 3431 07fe 01       		.uleb128 0x1
 3432 07ff 9C       		.byte	0x9c
 3433 0800 2F080000 		.4byte	0x82f
 3434 0804 14       		.uleb128 0x14
 3435 0805 750C0000 		.4byte	.LASF134
 3436 0809 01       		.byte	0x1
 3437 080a FA       		.byte	0xfa
 3438 080b 5D030000 		.4byte	0x35d
 3439 080f 02       		.uleb128 0x2
 3440 0810 91       		.byte	0x91
 3441 0811 6C       		.sleb128 -20
 3442 0812 15       		.uleb128 0x15
 3443 0813 8B040000 		.4byte	.LASF25
 3444 0817 01       		.byte	0x1
 3445 0818 FC       		.byte	0xfc
 3446 0819 8D070000 		.4byte	0x78d
 3447 081d 02       		.uleb128 0x2
 3448 081e 91       		.byte	0x91
 3449 081f 74       		.sleb128 -12
 3450 0820 15       		.uleb128 0x15
 3451 0821 EC0A0000 		.4byte	.LASF73
ARM GAS  /tmp/ccHvf4Lz.s 			page 62


 3452 0825 01       		.byte	0x1
 3453 0826 FD       		.byte	0xfd
 3454 0827 93070000 		.4byte	0x793
 3455 082b 02       		.uleb128 0x2
 3456 082c 91       		.byte	0x91
 3457 082d 70       		.sleb128 -16
 3458 082e 00       		.byte	0
 3459 082f 16       		.uleb128 0x16
 3460 0830 38030000 		.4byte	.LASF136
 3461 0834 01       		.byte	0x1
 3462 0835 1801     		.2byte	0x118
 3463 0837 76010000 		.4byte	0x176
 3464 083b 70010000 		.4byte	.LFB3
 3465 083f 56000000 		.4byte	.LFE3-.LFB3
 3466 0843 01       		.uleb128 0x1
 3467 0844 9C       		.byte	0x9c
 3468 0845 77080000 		.4byte	0x877
 3469 0849 17       		.uleb128 0x17
 3470 084a 750C0000 		.4byte	.LASF134
 3471 084e 01       		.byte	0x1
 3472 084f 1801     		.2byte	0x118
 3473 0851 5D030000 		.4byte	0x35d
 3474 0855 02       		.uleb128 0x2
 3475 0856 91       		.byte	0x91
 3476 0857 6C       		.sleb128 -20
 3477 0858 18       		.uleb128 0x18
 3478 0859 8B040000 		.4byte	.LASF25
 3479 085d 01       		.byte	0x1
 3480 085e 1A01     		.2byte	0x11a
 3481 0860 8D070000 		.4byte	0x78d
 3482 0864 02       		.uleb128 0x2
 3483 0865 91       		.byte	0x91
 3484 0866 74       		.sleb128 -12
 3485 0867 18       		.uleb128 0x18
 3486 0868 EC0A0000 		.4byte	.LASF73
 3487 086c 01       		.byte	0x1
 3488 086d 1B01     		.2byte	0x11b
 3489 086f 93070000 		.4byte	0x793
 3490 0873 02       		.uleb128 0x2
 3491 0874 91       		.byte	0x91
 3492 0875 70       		.sleb128 -16
 3493 0876 00       		.byte	0
 3494 0877 16       		.uleb128 0x16
 3495 0878 FE000000 		.4byte	.LASF137
 3496 087c 01       		.byte	0x1
 3497 087d 3C01     		.2byte	0x13c
 3498 087f 76010000 		.4byte	0x176
 3499 0883 D0010000 		.4byte	.LFB4
 3500 0887 24000000 		.4byte	.LFE4-.LFB4
 3501 088b 01       		.uleb128 0x1
 3502 088c 9C       		.byte	0x9c
 3503 088d B0080000 		.4byte	0x8b0
 3504 0891 17       		.uleb128 0x17
 3505 0892 750C0000 		.4byte	.LASF134
 3506 0896 01       		.byte	0x1
 3507 0897 3C01     		.2byte	0x13c
 3508 0899 5D030000 		.4byte	0x35d
ARM GAS  /tmp/ccHvf4Lz.s 			page 63


 3509 089d 02       		.uleb128 0x2
 3510 089e 91       		.byte	0x91
 3511 089f 74       		.sleb128 -12
 3512 08a0 17       		.uleb128 0x17
 3513 08a1 87030000 		.4byte	.LASF17
 3514 08a5 01       		.byte	0x1
 3515 08a6 3C01     		.2byte	0x13c
 3516 08a8 7D030000 		.4byte	0x37d
 3517 08ac 02       		.uleb128 0x2
 3518 08ad 91       		.byte	0x91
 3519 08ae 70       		.sleb128 -16
 3520 08af 00       		.byte	0
 3521 08b0 16       		.uleb128 0x16
 3522 08b1 D50C0000 		.4byte	.LASF138
 3523 08b5 01       		.byte	0x1
 3524 08b6 4E01     		.2byte	0x14e
 3525 08b8 76010000 		.4byte	0x176
 3526 08bc 00020000 		.4byte	.LFB5
 3527 08c0 3C000000 		.4byte	.LFE5-.LFB5
 3528 08c4 01       		.uleb128 0x1
 3529 08c5 9C       		.byte	0x9c
 3530 08c6 E9080000 		.4byte	0x8e9
 3531 08ca 17       		.uleb128 0x17
 3532 08cb 750C0000 		.4byte	.LASF134
 3533 08cf 01       		.byte	0x1
 3534 08d0 4E01     		.2byte	0x14e
 3535 08d2 5D030000 		.4byte	0x35d
 3536 08d6 02       		.uleb128 0x2
 3537 08d7 91       		.byte	0x91
 3538 08d8 6C       		.sleb128 -20
 3539 08d9 18       		.uleb128 0x18
 3540 08da 87030000 		.4byte	.LASF17
 3541 08de 01       		.byte	0x1
 3542 08df 5101     		.2byte	0x151
 3543 08e1 9C000000 		.4byte	0x9c
 3544 08e5 02       		.uleb128 0x2
 3545 08e6 91       		.byte	0x91
 3546 08e7 77       		.sleb128 -9
 3547 08e8 00       		.byte	0
 3548 08e9 16       		.uleb128 0x16
 3549 08ea 53030000 		.4byte	.LASF139
 3550 08ee 01       		.byte	0x1
 3551 08ef 6701     		.2byte	0x167
 3552 08f1 76010000 		.4byte	0x176
 3553 08f5 40020000 		.4byte	.LFB6
 3554 08f9 38000000 		.4byte	.LFE6-.LFB6
 3555 08fd 01       		.uleb128 0x1
 3556 08fe 9C       		.byte	0x9c
 3557 08ff 31090000 		.4byte	0x931
 3558 0903 17       		.uleb128 0x17
 3559 0904 750C0000 		.4byte	.LASF134
 3560 0908 01       		.byte	0x1
 3561 0909 6701     		.2byte	0x167
 3562 090b 5D030000 		.4byte	0x35d
 3563 090f 02       		.uleb128 0x2
 3564 0910 91       		.byte	0x91
 3565 0911 64       		.sleb128 -28
ARM GAS  /tmp/ccHvf4Lz.s 			page 64


 3566 0912 17       		.uleb128 0x17
 3567 0913 E9010000 		.4byte	.LASF140
 3568 0917 01       		.byte	0x1
 3569 0918 6701     		.2byte	0x167
 3570 091a 9D030000 		.4byte	0x39d
 3571 091e 02       		.uleb128 0x2
 3572 091f 91       		.byte	0x91
 3573 0920 60       		.sleb128 -32
 3574 0921 18       		.uleb128 0x18
 3575 0922 90060000 		.4byte	.LASF141
 3576 0926 01       		.byte	0x1
 3577 0927 6A01     		.2byte	0x16a
 3578 0929 31090000 		.4byte	0x931
 3579 092d 02       		.uleb128 0x2
 3580 092e 91       		.byte	0x91
 3581 092f 6C       		.sleb128 -20
 3582 0930 00       		.byte	0
 3583 0931 0F       		.uleb128 0xf
 3584 0932 25000000 		.4byte	0x25
 3585 0936 41090000 		.4byte	0x941
 3586 093a 10       		.uleb128 0x10
 3587 093b 8C000000 		.4byte	0x8c
 3588 093f 02       		.byte	0x2
 3589 0940 00       		.byte	0
 3590 0941 16       		.uleb128 0x16
 3591 0942 7E010000 		.4byte	.LASF142
 3592 0946 01       		.byte	0x1
 3593 0947 8101     		.2byte	0x181
 3594 0949 76010000 		.4byte	0x176
 3595 094d 80020000 		.4byte	.LFB7
 3596 0951 3E000000 		.4byte	.LFE7-.LFB7
 3597 0955 01       		.uleb128 0x1
 3598 0956 9C       		.byte	0x9c
 3599 0957 89090000 		.4byte	0x989
 3600 095b 17       		.uleb128 0x17
 3601 095c 750C0000 		.4byte	.LASF134
 3602 0960 01       		.byte	0x1
 3603 0961 8101     		.2byte	0x181
 3604 0963 5D030000 		.4byte	0x35d
 3605 0967 02       		.uleb128 0x2
 3606 0968 91       		.byte	0x91
 3607 0969 6C       		.sleb128 -20
 3608 096a 17       		.uleb128 0x17
 3609 096b F1030000 		.4byte	.LASF143
 3610 096f 01       		.byte	0x1
 3611 0970 8101     		.2byte	0x181
 3612 0972 BD030000 		.4byte	0x3bd
 3613 0976 02       		.uleb128 0x2
 3614 0977 91       		.byte	0x91
 3615 0978 68       		.sleb128 -24
 3616 0979 18       		.uleb128 0x18
 3617 097a B4060000 		.4byte	.LASF144
 3618 097e 01       		.byte	0x1
 3619 097f 8401     		.2byte	0x184
 3620 0981 89090000 		.4byte	0x989
 3621 0985 02       		.uleb128 0x2
 3622 0986 91       		.byte	0x91
ARM GAS  /tmp/ccHvf4Lz.s 			page 65


 3623 0987 70       		.sleb128 -16
 3624 0988 00       		.byte	0
 3625 0989 0F       		.uleb128 0xf
 3626 098a A7000000 		.4byte	0xa7
 3627 098e 99090000 		.4byte	0x999
 3628 0992 10       		.uleb128 0x10
 3629 0993 8C000000 		.4byte	0x8c
 3630 0997 02       		.byte	0x2
 3631 0998 00       		.byte	0
 3632 0999 16       		.uleb128 0x16
 3633 099a C0020000 		.4byte	.LASF145
 3634 099e 01       		.byte	0x1
 3635 099f 9D01     		.2byte	0x19d
 3636 09a1 76010000 		.4byte	0x176
 3637 09a5 C0020000 		.4byte	.LFB8
 3638 09a9 92000000 		.4byte	.LFE8-.LFB8
 3639 09ad 01       		.uleb128 0x1
 3640 09ae 9C       		.byte	0x9c
 3641 09af F0090000 		.4byte	0x9f0
 3642 09b3 17       		.uleb128 0x17
 3643 09b4 750C0000 		.4byte	.LASF134
 3644 09b8 01       		.byte	0x1
 3645 09b9 9D01     		.2byte	0x19d
 3646 09bb 5D030000 		.4byte	0x35d
 3647 09bf 02       		.uleb128 0x2
 3648 09c0 91       		.byte	0x91
 3649 09c1 6C       		.sleb128 -20
 3650 09c2 17       		.uleb128 0x17
 3651 09c3 910A0000 		.4byte	.LASF146
 3652 09c7 01       		.byte	0x1
 3653 09c8 9D01     		.2byte	0x19d
 3654 09ca DD030000 		.4byte	0x3dd
 3655 09ce 02       		.uleb128 0x2
 3656 09cf 91       		.byte	0x91
 3657 09d0 68       		.sleb128 -24
 3658 09d1 18       		.uleb128 0x18
 3659 09d2 F5000000 		.4byte	.LASF147
 3660 09d6 01       		.byte	0x1
 3661 09d7 A001     		.2byte	0x1a0
 3662 09d9 3C060000 		.4byte	0x63c
 3663 09dd 02       		.uleb128 0x2
 3664 09de 91       		.byte	0x91
 3665 09df 77       		.sleb128 -9
 3666 09e0 18       		.uleb128 0x18
 3667 09e1 21090000 		.4byte	.LASF148
 3668 09e5 01       		.byte	0x1
 3669 09e6 A101     		.2byte	0x1a1
 3670 09e8 5E060000 		.4byte	0x65e
 3671 09ec 02       		.uleb128 0x2
 3672 09ed 91       		.byte	0x91
 3673 09ee 76       		.sleb128 -10
 3674 09ef 00       		.byte	0
 3675 09f0 16       		.uleb128 0x16
 3676 09f1 F7030000 		.4byte	.LASF149
 3677 09f5 01       		.byte	0x1
 3678 09f6 CE01     		.2byte	0x1ce
 3679 09f8 76010000 		.4byte	0x176
ARM GAS  /tmp/ccHvf4Lz.s 			page 66


 3680 09fc 60030000 		.4byte	.LFB9
 3681 0a00 C4000000 		.4byte	.LFE9-.LFB9
 3682 0a04 01       		.uleb128 0x1
 3683 0a05 9C       		.byte	0x9c
 3684 0a06 380A0000 		.4byte	0xa38
 3685 0a0a 17       		.uleb128 0x17
 3686 0a0b 750C0000 		.4byte	.LASF134
 3687 0a0f 01       		.byte	0x1
 3688 0a10 CE01     		.2byte	0x1ce
 3689 0a12 5D030000 		.4byte	0x35d
 3690 0a16 02       		.uleb128 0x2
 3691 0a17 91       		.byte	0x91
 3692 0a18 6C       		.sleb128 -20
 3693 0a19 19       		.uleb128 0x19
 3694 0a1a 6F647200 		.ascii	"odr\000"
 3695 0a1e 01       		.byte	0x1
 3696 0a1f CE01     		.2byte	0x1ce
 3697 0a21 DD030000 		.4byte	0x3dd
 3698 0a25 02       		.uleb128 0x2
 3699 0a26 91       		.byte	0x91
 3700 0a27 68       		.sleb128 -24
 3701 0a28 18       		.uleb128 0x18
 3702 0a29 C6040000 		.4byte	.LASF150
 3703 0a2d 01       		.byte	0x1
 3704 0a2e D101     		.2byte	0x1d1
 3705 0a30 B5050000 		.4byte	0x5b5
 3706 0a34 02       		.uleb128 0x2
 3707 0a35 91       		.byte	0x91
 3708 0a36 77       		.sleb128 -9
 3709 0a37 00       		.byte	0
 3710 0a38 16       		.uleb128 0x16
 3711 0a39 EE0C0000 		.4byte	.LASF151
 3712 0a3d 01       		.byte	0x1
 3713 0a3e 0302     		.2byte	0x203
 3714 0a40 76010000 		.4byte	0x176
 3715 0a44 30040000 		.4byte	.LFB10
 3716 0a48 4A000000 		.4byte	.LFE10-.LFB10
 3717 0a4c 01       		.uleb128 0x1
 3718 0a4d 9C       		.byte	0x9c
 3719 0a4e 710A0000 		.4byte	0xa71
 3720 0a52 17       		.uleb128 0x17
 3721 0a53 750C0000 		.4byte	.LASF134
 3722 0a57 01       		.byte	0x1
 3723 0a58 0302     		.2byte	0x203
 3724 0a5a 5D030000 		.4byte	0x35d
 3725 0a5e 02       		.uleb128 0x2
 3726 0a5f 91       		.byte	0x91
 3727 0a60 74       		.sleb128 -12
 3728 0a61 19       		.uleb128 0x19
 3729 0a62 6F647200 		.ascii	"odr\000"
 3730 0a66 01       		.byte	0x1
 3731 0a67 0302     		.2byte	0x203
 3732 0a69 18020000 		.4byte	0x218
 3733 0a6d 02       		.uleb128 0x2
 3734 0a6e 91       		.byte	0x91
 3735 0a6f 73       		.sleb128 -13
 3736 0a70 00       		.byte	0
ARM GAS  /tmp/ccHvf4Lz.s 			page 67


 3737 0a71 16       		.uleb128 0x16
 3738 0a72 4F070000 		.4byte	.LASF152
 3739 0a76 01       		.byte	0x1
 3740 0a77 2102     		.2byte	0x221
 3741 0a79 76010000 		.4byte	0x176
 3742 0a7d 80040000 		.4byte	.LFB11
 3743 0a81 3E000000 		.4byte	.LFE11-.LFB11
 3744 0a85 01       		.uleb128 0x1
 3745 0a86 9C       		.byte	0x9c
 3746 0a87 AA0A0000 		.4byte	0xaaa
 3747 0a8b 17       		.uleb128 0x17
 3748 0a8c 750C0000 		.4byte	.LASF134
 3749 0a90 01       		.byte	0x1
 3750 0a91 2102     		.2byte	0x221
 3751 0a93 5D030000 		.4byte	0x35d
 3752 0a97 02       		.uleb128 0x2
 3753 0a98 91       		.byte	0x91
 3754 0a99 74       		.sleb128 -12
 3755 0a9a 19       		.uleb128 0x19
 3756 0a9b 6F647200 		.ascii	"odr\000"
 3757 0a9f 01       		.byte	0x1
 3758 0aa0 2102     		.2byte	0x221
 3759 0aa2 E3030000 		.4byte	0x3e3
 3760 0aa6 02       		.uleb128 0x2
 3761 0aa7 91       		.byte	0x91
 3762 0aa8 70       		.sleb128 -16
 3763 0aa9 00       		.byte	0
 3764 0aaa 16       		.uleb128 0x16
 3765 0aab 3D060000 		.4byte	.LASF153
 3766 0aaf 01       		.byte	0x1
 3767 0ab0 3F02     		.2byte	0x23f
 3768 0ab2 76010000 		.4byte	0x176
 3769 0ab6 C0040000 		.4byte	.LFB12
 3770 0aba 7C000000 		.4byte	.LFE12-.LFB12
 3771 0abe 01       		.uleb128 0x1
 3772 0abf 9C       		.byte	0x9c
 3773 0ac0 F20A0000 		.4byte	0xaf2
 3774 0ac4 17       		.uleb128 0x17
 3775 0ac5 750C0000 		.4byte	.LASF134
 3776 0ac9 01       		.byte	0x1
 3777 0aca 3F02     		.2byte	0x23f
 3778 0acc 5D030000 		.4byte	0x35d
 3779 0ad0 02       		.uleb128 0x2
 3780 0ad1 91       		.byte	0x91
 3781 0ad2 6C       		.sleb128 -20
 3782 0ad3 17       		.uleb128 0x17
 3783 0ad4 10030000 		.4byte	.LASF154
 3784 0ad8 01       		.byte	0x1
 3785 0ad9 3F02     		.2byte	0x23f
 3786 0adb DD030000 		.4byte	0x3dd
 3787 0adf 02       		.uleb128 0x2
 3788 0ae0 91       		.byte	0x91
 3789 0ae1 68       		.sleb128 -24
 3790 0ae2 18       		.uleb128 0x18
 3791 0ae3 970C0000 		.4byte	.LASF155
 3792 0ae7 01       		.byte	0x1
 3793 0ae8 4202     		.2byte	0x242
ARM GAS  /tmp/ccHvf4Lz.s 			page 68


 3794 0aea 5F050000 		.4byte	0x55f
 3795 0aee 02       		.uleb128 0x2
 3796 0aef 91       		.byte	0x91
 3797 0af0 77       		.sleb128 -9
 3798 0af1 00       		.byte	0
 3799 0af2 16       		.uleb128 0x16
 3800 0af3 E0080000 		.4byte	.LASF156
 3801 0af7 01       		.byte	0x1
 3802 0af8 6802     		.2byte	0x268
 3803 0afa 76010000 		.4byte	0x176
 3804 0afe 40050000 		.4byte	.LFB13
 3805 0b02 58000000 		.4byte	.LFE13-.LFB13
 3806 0b06 01       		.uleb128 0x1
 3807 0b07 9C       		.byte	0x9c
 3808 0b08 3A0B0000 		.4byte	0xb3a
 3809 0b0c 17       		.uleb128 0x17
 3810 0b0d 750C0000 		.4byte	.LASF134
 3811 0b11 01       		.byte	0x1
 3812 0b12 6802     		.2byte	0x268
 3813 0b14 5D030000 		.4byte	0x35d
 3814 0b18 02       		.uleb128 0x2
 3815 0b19 91       		.byte	0x91
 3816 0b1a 6C       		.sleb128 -20
 3817 0b1b 17       		.uleb128 0x17
 3818 0b1c 10030000 		.4byte	.LASF154
 3819 0b20 01       		.byte	0x1
 3820 0b21 6802     		.2byte	0x268
 3821 0b23 4A020000 		.4byte	0x24a
 3822 0b27 02       		.uleb128 0x2
 3823 0b28 91       		.byte	0x91
 3824 0b29 6B       		.sleb128 -21
 3825 0b2a 18       		.uleb128 0x18
 3826 0b2b 3E0D0000 		.4byte	.LASF157
 3827 0b2f 01       		.byte	0x1
 3828 0b30 6B02     		.2byte	0x26b
 3829 0b32 5F050000 		.4byte	0x55f
 3830 0b36 02       		.uleb128 0x2
 3831 0b37 91       		.byte	0x91
 3832 0b38 77       		.sleb128 -9
 3833 0b39 00       		.byte	0
 3834 0b3a 16       		.uleb128 0x16
 3835 0b3b 6E030000 		.4byte	.LASF158
 3836 0b3f 01       		.byte	0x1
 3837 0b40 8D02     		.2byte	0x28d
 3838 0b42 76010000 		.4byte	0x176
 3839 0b46 A0050000 		.4byte	.LFB14
 3840 0b4a 6A000000 		.4byte	.LFE14-.LFB14
 3841 0b4e 01       		.uleb128 0x1
 3842 0b4f 9C       		.byte	0x9c
 3843 0b50 820B0000 		.4byte	0xb82
 3844 0b54 17       		.uleb128 0x17
 3845 0b55 750C0000 		.4byte	.LASF134
 3846 0b59 01       		.byte	0x1
 3847 0b5a 8D02     		.2byte	0x28d
 3848 0b5c 5D030000 		.4byte	0x35d
 3849 0b60 02       		.uleb128 0x2
 3850 0b61 91       		.byte	0x91
ARM GAS  /tmp/ccHvf4Lz.s 			page 69


 3851 0b62 6C       		.sleb128 -20
 3852 0b63 17       		.uleb128 0x17
 3853 0b64 10030000 		.4byte	.LASF154
 3854 0b68 01       		.byte	0x1
 3855 0b69 8D02     		.2byte	0x28d
 3856 0b6b E3030000 		.4byte	0x3e3
 3857 0b6f 02       		.uleb128 0x2
 3858 0b70 91       		.byte	0x91
 3859 0b71 68       		.sleb128 -24
 3860 0b72 18       		.uleb128 0x18
 3861 0b73 3E0D0000 		.4byte	.LASF157
 3862 0b77 01       		.byte	0x1
 3863 0b78 9002     		.2byte	0x290
 3864 0b7a 5F050000 		.4byte	0x55f
 3865 0b7e 02       		.uleb128 0x2
 3866 0b7f 91       		.byte	0x91
 3867 0b80 77       		.sleb128 -9
 3868 0b81 00       		.byte	0
 3869 0b82 16       		.uleb128 0x16
 3870 0b83 CD010000 		.4byte	.LASF159
 3871 0b87 01       		.byte	0x1
 3872 0b88 A802     		.2byte	0x2a8
 3873 0b8a 76010000 		.4byte	0x176
 3874 0b8e 10060000 		.4byte	.LFB15
 3875 0b92 90000000 		.4byte	.LFE15-.LFB15
 3876 0b96 01       		.uleb128 0x1
 3877 0b97 9C       		.byte	0x9c
 3878 0b98 E80B0000 		.4byte	0xbe8
 3879 0b9c 17       		.uleb128 0x17
 3880 0b9d 750C0000 		.4byte	.LASF134
 3881 0ba1 01       		.byte	0x1
 3882 0ba2 A802     		.2byte	0x2a8
 3883 0ba4 5D030000 		.4byte	0x35d
 3884 0ba8 02       		.uleb128 0x2
 3885 0ba9 91       		.byte	0x91
 3886 0baa 6C       		.sleb128 -20
 3887 0bab 17       		.uleb128 0x17
 3888 0bac 5C060000 		.4byte	.LASF160
 3889 0bb0 01       		.byte	0x1
 3890 0bb1 A802     		.2byte	0x2a8
 3891 0bb3 7D030000 		.4byte	0x37d
 3892 0bb7 02       		.uleb128 0x2
 3893 0bb8 91       		.byte	0x91
 3894 0bb9 68       		.sleb128 -24
 3895 0bba 18       		.uleb128 0x18
 3896 0bbb 74090000 		.4byte	.LASF161
 3897 0bbf 01       		.byte	0x1
 3898 0bc0 AB02     		.2byte	0x2ab
 3899 0bc2 D6050000 		.4byte	0x5d6
 3900 0bc6 02       		.uleb128 0x2
 3901 0bc7 91       		.byte	0x91
 3902 0bc8 77       		.sleb128 -9
 3903 0bc9 18       		.uleb128 0x18
 3904 0bca 0A070000 		.4byte	.LASF162
 3905 0bce 01       		.byte	0x1
 3906 0bcf AC02     		.2byte	0x2ac
 3907 0bd1 F8050000 		.4byte	0x5f8
ARM GAS  /tmp/ccHvf4Lz.s 			page 70


 3908 0bd5 02       		.uleb128 0x2
 3909 0bd6 91       		.byte	0x91
 3910 0bd7 76       		.sleb128 -10
 3911 0bd8 18       		.uleb128 0x18
 3912 0bd9 56000000 		.4byte	.LASF163
 3913 0bdd 01       		.byte	0x1
 3914 0bde AD02     		.2byte	0x2ad
 3915 0be0 1A060000 		.4byte	0x61a
 3916 0be4 02       		.uleb128 0x2
 3917 0be5 91       		.byte	0x91
 3918 0be6 75       		.sleb128 -11
 3919 0be7 00       		.byte	0
 3920 0be8 16       		.uleb128 0x16
 3921 0be9 73070000 		.4byte	.LASF164
 3922 0bed 01       		.byte	0x1
 3923 0bee CC02     		.2byte	0x2cc
 3924 0bf0 76010000 		.4byte	0x176
 3925 0bf4 A0060000 		.4byte	.LFB16
 3926 0bf8 76000000 		.4byte	.LFE16-.LFB16
 3927 0bfc 01       		.uleb128 0x1
 3928 0bfd 9C       		.byte	0x9c
 3929 0bfe 210C0000 		.4byte	0xc21
 3930 0c02 17       		.uleb128 0x17
 3931 0c03 750C0000 		.4byte	.LASF134
 3932 0c07 01       		.byte	0x1
 3933 0c08 CC02     		.2byte	0x2cc
 3934 0c0a 5D030000 		.4byte	0x35d
 3935 0c0e 02       		.uleb128 0x2
 3936 0c0f 91       		.byte	0x91
 3937 0c10 74       		.sleb128 -12
 3938 0c11 17       		.uleb128 0x17
 3939 0c12 DD030000 		.4byte	.LASF165
 3940 0c16 01       		.byte	0x1
 3941 0c17 CC02     		.2byte	0x2cc
 3942 0c19 7D030000 		.4byte	0x37d
 3943 0c1d 02       		.uleb128 0x2
 3944 0c1e 91       		.byte	0x91
 3945 0c1f 70       		.sleb128 -16
 3946 0c20 00       		.byte	0
 3947 0c21 16       		.uleb128 0x16
 3948 0c22 E2020000 		.4byte	.LASF166
 3949 0c26 01       		.byte	0x1
 3950 0c27 ED02     		.2byte	0x2ed
 3951 0c29 76010000 		.4byte	0x176
 3952 0c2d 20070000 		.4byte	.LFB17
 3953 0c31 32000000 		.4byte	.LFE17-.LFB17
 3954 0c35 01       		.uleb128 0x1
 3955 0c36 9C       		.byte	0x9c
 3956 0c37 690C0000 		.4byte	0xc69
 3957 0c3b 17       		.uleb128 0x17
 3958 0c3c 750C0000 		.4byte	.LASF134
 3959 0c40 01       		.byte	0x1
 3960 0c41 ED02     		.2byte	0x2ed
 3961 0c43 5D030000 		.4byte	0x35d
 3962 0c47 02       		.uleb128 0x2
 3963 0c48 91       		.byte	0x91
 3964 0c49 74       		.sleb128 -12
ARM GAS  /tmp/ccHvf4Lz.s 			page 71


 3965 0c4a 19       		.uleb128 0x19
 3966 0c4b 72656700 		.ascii	"reg\000"
 3967 0c4f 01       		.byte	0x1
 3968 0c50 ED02     		.2byte	0x2ed
 3969 0c52 9C000000 		.4byte	0x9c
 3970 0c56 02       		.uleb128 0x2
 3971 0c57 91       		.byte	0x91
 3972 0c58 73       		.sleb128 -13
 3973 0c59 17       		.uleb128 0x17
 3974 0c5a 90060000 		.4byte	.LASF141
 3975 0c5e 01       		.byte	0x1
 3976 0c5f ED02     		.2byte	0x2ed
 3977 0c61 7D030000 		.4byte	0x37d
 3978 0c65 02       		.uleb128 0x2
 3979 0c66 91       		.byte	0x91
 3980 0c67 6C       		.sleb128 -20
 3981 0c68 00       		.byte	0
 3982 0c69 16       		.uleb128 0x16
 3983 0c6a 90030000 		.4byte	.LASF167
 3984 0c6e 01       		.byte	0x1
 3985 0c6f 0203     		.2byte	0x302
 3986 0c71 76010000 		.4byte	0x176
 3987 0c75 60070000 		.4byte	.LFB18
 3988 0c79 3A000000 		.4byte	.LFE18-.LFB18
 3989 0c7d 01       		.uleb128 0x1
 3990 0c7e 9C       		.byte	0x9c
 3991 0c7f B10C0000 		.4byte	0xcb1
 3992 0c83 17       		.uleb128 0x17
 3993 0c84 750C0000 		.4byte	.LASF134
 3994 0c88 01       		.byte	0x1
 3995 0c89 0203     		.2byte	0x302
 3996 0c8b 5D030000 		.4byte	0x35d
 3997 0c8f 02       		.uleb128 0x2
 3998 0c90 91       		.byte	0x91
 3999 0c91 74       		.sleb128 -12
 4000 0c92 19       		.uleb128 0x19
 4001 0c93 72656700 		.ascii	"reg\000"
 4002 0c97 01       		.byte	0x1
 4003 0c98 0203     		.2byte	0x302
 4004 0c9a 9C000000 		.4byte	0x9c
 4005 0c9e 02       		.uleb128 0x2
 4006 0c9f 91       		.byte	0x91
 4007 0ca0 73       		.sleb128 -13
 4008 0ca1 17       		.uleb128 0x17
 4009 0ca2 90060000 		.4byte	.LASF141
 4010 0ca6 01       		.byte	0x1
 4011 0ca7 0203     		.2byte	0x302
 4012 0ca9 9C000000 		.4byte	0x9c
 4013 0cad 02       		.uleb128 0x2
 4014 0cae 91       		.byte	0x91
 4015 0caf 72       		.sleb128 -14
 4016 0cb0 00       		.byte	0
 4017 0cb1 16       		.uleb128 0x16
 4018 0cb2 FB0A0000 		.4byte	.LASF168
 4019 0cb6 01       		.byte	0x1
 4020 0cb7 1603     		.2byte	0x316
 4021 0cb9 76010000 		.4byte	0x176
ARM GAS  /tmp/ccHvf4Lz.s 			page 72


 4022 0cbd A0070000 		.4byte	.LFB19
 4023 0cc1 48000000 		.4byte	.LFE19-.LFB19
 4024 0cc5 01       		.uleb128 0x1
 4025 0cc6 9C       		.byte	0x9c
 4026 0cc7 F90C0000 		.4byte	0xcf9
 4027 0ccb 17       		.uleb128 0x17
 4028 0ccc 750C0000 		.4byte	.LASF134
 4029 0cd0 01       		.byte	0x1
 4030 0cd1 1603     		.2byte	0x316
 4031 0cd3 5D030000 		.4byte	0x35d
 4032 0cd7 02       		.uleb128 0x2
 4033 0cd8 91       		.byte	0x91
 4034 0cd9 6C       		.sleb128 -20
 4035 0cda 17       		.uleb128 0x17
 4036 0cdb AD060000 		.4byte	.LASF169
 4037 0cdf 01       		.byte	0x1
 4038 0ce0 1603     		.2byte	0x316
 4039 0ce2 7D030000 		.4byte	0x37d
 4040 0ce6 02       		.uleb128 0x2
 4041 0ce7 91       		.byte	0x91
 4042 0ce8 68       		.sleb128 -24
 4043 0ce9 18       		.uleb128 0x18
 4044 0cea A40C0000 		.4byte	.LASF170
 4045 0cee 01       		.byte	0x1
 4046 0cef 1903     		.2byte	0x319
 4047 0cf1 80060000 		.4byte	0x680
 4048 0cf5 02       		.uleb128 0x2
 4049 0cf6 91       		.byte	0x91
 4050 0cf7 77       		.sleb128 -9
 4051 0cf8 00       		.byte	0
 4052 0cf9 16       		.uleb128 0x16
 4053 0cfa B6050000 		.4byte	.LASF171
 4054 0cfe 01       		.byte	0x1
 4055 0cff 3F03     		.2byte	0x33f
 4056 0d01 76010000 		.4byte	0x176
 4057 0d05 F0070000 		.4byte	.LFB20
 4058 0d09 E4000000 		.4byte	.LFE20-.LFB20
 4059 0d0d 01       		.uleb128 0x1
 4060 0d0e 9C       		.byte	0x9c
 4061 0d0f 6C0D0000 		.4byte	0xd6c
 4062 0d13 17       		.uleb128 0x17
 4063 0d14 750C0000 		.4byte	.LASF134
 4064 0d18 01       		.byte	0x1
 4065 0d19 3F03     		.2byte	0x33f
 4066 0d1b 5D030000 		.4byte	0x35d
 4067 0d1f 02       		.uleb128 0x2
 4068 0d20 91       		.byte	0x91
 4069 0d21 64       		.sleb128 -28
 4070 0d22 17       		.uleb128 0x17
 4071 0d23 8B040000 		.4byte	.LASF25
 4072 0d27 01       		.byte	0x1
 4073 0d28 3F03     		.2byte	0x33f
 4074 0d2a 6C0D0000 		.4byte	0xd6c
 4075 0d2e 02       		.uleb128 0x2
 4076 0d2f 91       		.byte	0x91
 4077 0d30 60       		.sleb128 -32
 4078 0d31 18       		.uleb128 0x18
ARM GAS  /tmp/ccHvf4Lz.s 			page 73


 4079 0d32 4D0A0000 		.4byte	.LASF172
 4080 0d36 01       		.byte	0x1
 4081 0d37 4203     		.2byte	0x342
 4082 0d39 08050000 		.4byte	0x508
 4083 0d3d 02       		.uleb128 0x2
 4084 0d3e 91       		.byte	0x91
 4085 0d3f 70       		.sleb128 -16
 4086 0d40 18       		.uleb128 0x18
 4087 0d41 DC020000 		.4byte	.LASF173
 4088 0d45 01       		.byte	0x1
 4089 0d46 4303     		.2byte	0x343
 4090 0d48 B3040000 		.4byte	0x4b3
 4091 0d4c 02       		.uleb128 0x2
 4092 0d4d 91       		.byte	0x91
 4093 0d4e 77       		.sleb128 -9
 4094 0d4f 1A       		.uleb128 0x1a
 4095 0d50 6C7000   		.ascii	"lp\000"
 4096 0d53 01       		.byte	0x1
 4097 0d54 4403     		.2byte	0x344
 4098 0d56 3C060000 		.4byte	0x63c
 4099 0d5a 02       		.uleb128 0x2
 4100 0d5b 91       		.byte	0x91
 4101 0d5c 6F       		.sleb128 -17
 4102 0d5d 1A       		.uleb128 0x1a
 4103 0d5e 687200   		.ascii	"hr\000"
 4104 0d61 01       		.byte	0x1
 4105 0d62 4503     		.2byte	0x345
 4106 0d64 5E060000 		.4byte	0x65e
 4107 0d68 02       		.uleb128 0x2
 4108 0d69 91       		.byte	0x91
 4109 0d6a 6E       		.sleb128 -18
 4110 0d6b 00       		.byte	0
 4111 0d6c 0C       		.uleb128 0xc
 4112 0d6d 04       		.byte	0x4
 4113 0d6e A7000000 		.4byte	0xa7
 4114 0d72 16       		.uleb128 0x16
 4115 0d73 A6030000 		.4byte	.LASF174
 4116 0d77 01       		.byte	0x1
 4117 0d78 7B03     		.2byte	0x37b
 4118 0d7a 76010000 		.4byte	0x176
 4119 0d7e E0080000 		.4byte	.LFB21
 4120 0d82 7C000000 		.4byte	.LFE21-.LFB21
 4121 0d86 01       		.uleb128 0x1
 4122 0d87 9C       		.byte	0x9c
 4123 0d88 BA0D0000 		.4byte	0xdba
 4124 0d8c 17       		.uleb128 0x17
 4125 0d8d 750C0000 		.4byte	.LASF134
 4126 0d91 01       		.byte	0x1
 4127 0d92 7B03     		.2byte	0x37b
 4128 0d94 5D030000 		.4byte	0x35d
 4129 0d98 02       		.uleb128 0x2
 4130 0d99 91       		.byte	0x91
 4131 0d9a 6C       		.sleb128 -20
 4132 0d9b 19       		.uleb128 0x19
 4133 0d9c 6F647200 		.ascii	"odr\000"
 4134 0da0 01       		.byte	0x1
 4135 0da1 7B03     		.2byte	0x37b
ARM GAS  /tmp/ccHvf4Lz.s 			page 74


 4136 0da3 18020000 		.4byte	0x218
 4137 0da7 02       		.uleb128 0x2
 4138 0da8 91       		.byte	0x91
 4139 0da9 6B       		.sleb128 -21
 4140 0daa 18       		.uleb128 0x18
 4141 0dab B60C0000 		.4byte	.LASF175
 4142 0daf 01       		.byte	0x1
 4143 0db0 7D03     		.2byte	0x37d
 4144 0db2 B5050000 		.4byte	0x5b5
 4145 0db6 02       		.uleb128 0x2
 4146 0db7 91       		.byte	0x91
 4147 0db8 77       		.sleb128 -9
 4148 0db9 00       		.byte	0
 4149 0dba 1B       		.uleb128 0x1b
 4150 0dbb 7C0B0000 		.4byte	.LASF176
 4151 0dbf 01       		.byte	0x1
 4152 0dc0 A303     		.2byte	0x3a3
 4153 0dc2 76010000 		.4byte	0x176
 4154 0dc6 60090000 		.4byte	.LFB22
 4155 0dca 80000000 		.4byte	.LFE22-.LFB22
 4156 0dce 01       		.uleb128 0x1
 4157 0dcf 9C       		.byte	0x9c
 4158 0dd0 110E0000 		.4byte	0xe11
 4159 0dd4 17       		.uleb128 0x17
 4160 0dd5 750C0000 		.4byte	.LASF134
 4161 0dd9 01       		.byte	0x1
 4162 0dda A303     		.2byte	0x3a3
 4163 0ddc 5D030000 		.4byte	0x35d
 4164 0de0 02       		.uleb128 0x2
 4165 0de1 91       		.byte	0x91
 4166 0de2 74       		.sleb128 -12
 4167 0de3 19       		.uleb128 0x19
 4168 0de4 6F647200 		.ascii	"odr\000"
 4169 0de8 01       		.byte	0x1
 4170 0de9 A303     		.2byte	0x3a3
 4171 0deb 18020000 		.4byte	0x218
 4172 0def 02       		.uleb128 0x2
 4173 0df0 91       		.byte	0x91
 4174 0df1 73       		.sleb128 -13
 4175 0df2 18       		.uleb128 0x18
 4176 0df3 8B040000 		.4byte	.LASF25
 4177 0df7 01       		.byte	0x1
 4178 0df8 A503     		.2byte	0x3a5
 4179 0dfa 8D070000 		.4byte	0x78d
 4180 0dfe 02       		.uleb128 0x2
 4181 0dff 91       		.byte	0x91
 4182 0e00 7C       		.sleb128 -4
 4183 0e01 18       		.uleb128 0x18
 4184 0e02 EC0A0000 		.4byte	.LASF73
 4185 0e06 01       		.byte	0x1
 4186 0e07 A603     		.2byte	0x3a6
 4187 0e09 93070000 		.4byte	0x793
 4188 0e0d 02       		.uleb128 0x2
 4189 0e0e 91       		.byte	0x91
 4190 0e0f 78       		.sleb128 -8
 4191 0e10 00       		.byte	0
 4192 0e11 16       		.uleb128 0x16
ARM GAS  /tmp/ccHvf4Lz.s 			page 75


 4193 0e12 40020000 		.4byte	.LASF177
 4194 0e16 01       		.byte	0x1
 4195 0e17 C703     		.2byte	0x3c7
 4196 0e19 76010000 		.4byte	0x176
 4197 0e1d E0090000 		.4byte	.LFB23
 4198 0e21 B0000000 		.4byte	.LFE23-.LFB23
 4199 0e25 01       		.uleb128 0x1
 4200 0e26 9C       		.byte	0x9c
 4201 0e27 590E0000 		.4byte	0xe59
 4202 0e2b 17       		.uleb128 0x17
 4203 0e2c 750C0000 		.4byte	.LASF134
 4204 0e30 01       		.byte	0x1
 4205 0e31 C703     		.2byte	0x3c7
 4206 0e33 5D030000 		.4byte	0x35d
 4207 0e37 02       		.uleb128 0x2
 4208 0e38 91       		.byte	0x91
 4209 0e39 6C       		.sleb128 -20
 4210 0e3a 19       		.uleb128 0x19
 4211 0e3b 6F647200 		.ascii	"odr\000"
 4212 0e3f 01       		.byte	0x1
 4213 0e40 C703     		.2byte	0x3c7
 4214 0e42 E3030000 		.4byte	0x3e3
 4215 0e46 02       		.uleb128 0x2
 4216 0e47 91       		.byte	0x91
 4217 0e48 68       		.sleb128 -24
 4218 0e49 18       		.uleb128 0x18
 4219 0e4a B60C0000 		.4byte	.LASF175
 4220 0e4e 01       		.byte	0x1
 4221 0e4f CA03     		.2byte	0x3ca
 4222 0e51 B5050000 		.4byte	0x5b5
 4223 0e55 02       		.uleb128 0x2
 4224 0e56 91       		.byte	0x91
 4225 0e57 77       		.sleb128 -9
 4226 0e58 00       		.byte	0
 4227 0e59 16       		.uleb128 0x16
 4228 0e5a DD0B0000 		.4byte	.LASF178
 4229 0e5e 01       		.byte	0x1
 4230 0e5f E303     		.2byte	0x3e3
 4231 0e61 76010000 		.4byte	0x176
 4232 0e65 900A0000 		.4byte	.LFB24
 4233 0e69 AC000000 		.4byte	.LFE24-.LFB24
 4234 0e6d 01       		.uleb128 0x1
 4235 0e6e 9C       		.byte	0x9c
 4236 0e6f B00E0000 		.4byte	0xeb0
 4237 0e73 17       		.uleb128 0x17
 4238 0e74 750C0000 		.4byte	.LASF134
 4239 0e78 01       		.byte	0x1
 4240 0e79 E303     		.2byte	0x3e3
 4241 0e7b 5D030000 		.4byte	0x35d
 4242 0e7f 02       		.uleb128 0x2
 4243 0e80 91       		.byte	0x91
 4244 0e81 6C       		.sleb128 -20
 4245 0e82 19       		.uleb128 0x19
 4246 0e83 6F647200 		.ascii	"odr\000"
 4247 0e87 01       		.byte	0x1
 4248 0e88 E303     		.2byte	0x3e3
 4249 0e8a E3030000 		.4byte	0x3e3
ARM GAS  /tmp/ccHvf4Lz.s 			page 76


 4250 0e8e 02       		.uleb128 0x2
 4251 0e8f 91       		.byte	0x91
 4252 0e90 68       		.sleb128 -24
 4253 0e91 18       		.uleb128 0x18
 4254 0e92 8B040000 		.4byte	.LASF25
 4255 0e96 01       		.byte	0x1
 4256 0e97 E603     		.2byte	0x3e6
 4257 0e99 8D070000 		.4byte	0x78d
 4258 0e9d 02       		.uleb128 0x2
 4259 0e9e 91       		.byte	0x91
 4260 0e9f 74       		.sleb128 -12
 4261 0ea0 18       		.uleb128 0x18
 4262 0ea1 EC0A0000 		.4byte	.LASF73
 4263 0ea5 01       		.byte	0x1
 4264 0ea6 E703     		.2byte	0x3e7
 4265 0ea8 93070000 		.4byte	0x793
 4266 0eac 02       		.uleb128 0x2
 4267 0ead 91       		.byte	0x91
 4268 0eae 70       		.sleb128 -16
 4269 0eaf 00       		.byte	0
 4270 0eb0 16       		.uleb128 0x16
 4271 0eb1 2E040000 		.4byte	.LASF179
 4272 0eb5 01       		.byte	0x1
 4273 0eb6 FB03     		.2byte	0x3fb
 4274 0eb8 76010000 		.4byte	0x176
 4275 0ebc 400B0000 		.4byte	.LFB25
 4276 0ec0 84000000 		.4byte	.LFE25-.LFB25
 4277 0ec4 01       		.uleb128 0x1
 4278 0ec5 9C       		.byte	0x9c
 4279 0ec6 F80E0000 		.4byte	0xef8
 4280 0eca 17       		.uleb128 0x17
 4281 0ecb 750C0000 		.4byte	.LASF134
 4282 0ecf 01       		.byte	0x1
 4283 0ed0 FB03     		.2byte	0x3fb
 4284 0ed2 5D030000 		.4byte	0x35d
 4285 0ed6 02       		.uleb128 0x2
 4286 0ed7 91       		.byte	0x91
 4287 0ed8 6C       		.sleb128 -20
 4288 0ed9 17       		.uleb128 0x17
 4289 0eda 910A0000 		.4byte	.LASF146
 4290 0ede 01       		.byte	0x1
 4291 0edf FB03     		.2byte	0x3fb
 4292 0ee1 DD030000 		.4byte	0x3dd
 4293 0ee5 02       		.uleb128 0x2
 4294 0ee6 91       		.byte	0x91
 4295 0ee7 68       		.sleb128 -24
 4296 0ee8 18       		.uleb128 0x18
 4297 0ee9 10030000 		.4byte	.LASF154
 4298 0eed 01       		.byte	0x1
 4299 0eee FE03     		.2byte	0x3fe
 4300 0ef0 5F050000 		.4byte	0x55f
 4301 0ef4 02       		.uleb128 0x2
 4302 0ef5 91       		.byte	0x91
 4303 0ef6 77       		.sleb128 -9
 4304 0ef7 00       		.byte	0
 4305 0ef8 16       		.uleb128 0x16
 4306 0ef9 580B0000 		.4byte	.LASF180
ARM GAS  /tmp/ccHvf4Lz.s 			page 77


 4307 0efd 01       		.byte	0x1
 4308 0efe 2404     		.2byte	0x424
 4309 0f00 76010000 		.4byte	0x176
 4310 0f04 D00B0000 		.4byte	.LFB26
 4311 0f08 84000000 		.4byte	.LFE26-.LFB26
 4312 0f0c 01       		.uleb128 0x1
 4313 0f0d 9C       		.byte	0x9c
 4314 0f0e 400F0000 		.4byte	0xf40
 4315 0f12 17       		.uleb128 0x17
 4316 0f13 750C0000 		.4byte	.LASF134
 4317 0f17 01       		.byte	0x1
 4318 0f18 2404     		.2byte	0x424
 4319 0f1a 5D030000 		.4byte	0x35d
 4320 0f1e 02       		.uleb128 0x2
 4321 0f1f 91       		.byte	0x91
 4322 0f20 6C       		.sleb128 -20
 4323 0f21 17       		.uleb128 0x17
 4324 0f22 910A0000 		.4byte	.LASF146
 4325 0f26 01       		.byte	0x1
 4326 0f27 2404     		.2byte	0x424
 4327 0f29 DD030000 		.4byte	0x3dd
 4328 0f2d 02       		.uleb128 0x2
 4329 0f2e 91       		.byte	0x91
 4330 0f2f 68       		.sleb128 -24
 4331 0f30 18       		.uleb128 0x18
 4332 0f31 10030000 		.4byte	.LASF154
 4333 0f35 01       		.byte	0x1
 4334 0f36 2604     		.2byte	0x426
 4335 0f38 5F050000 		.4byte	0x55f
 4336 0f3c 02       		.uleb128 0x2
 4337 0f3d 91       		.byte	0x91
 4338 0f3e 77       		.sleb128 -9
 4339 0f3f 00       		.byte	0
 4340 0f40 16       		.uleb128 0x16
 4341 0f41 50090000 		.4byte	.LASF181
 4342 0f45 01       		.byte	0x1
 4343 0f46 4C04     		.2byte	0x44c
 4344 0f48 76010000 		.4byte	0x176
 4345 0f4c 600C0000 		.4byte	.LFB27
 4346 0f50 84000000 		.4byte	.LFE27-.LFB27
 4347 0f54 01       		.uleb128 0x1
 4348 0f55 9C       		.byte	0x9c
 4349 0f56 880F0000 		.4byte	0xf88
 4350 0f5a 17       		.uleb128 0x17
 4351 0f5b 750C0000 		.4byte	.LASF134
 4352 0f5f 01       		.byte	0x1
 4353 0f60 4C04     		.2byte	0x44c
 4354 0f62 5D030000 		.4byte	0x35d
 4355 0f66 02       		.uleb128 0x2
 4356 0f67 91       		.byte	0x91
 4357 0f68 6C       		.sleb128 -20
 4358 0f69 17       		.uleb128 0x17
 4359 0f6a 910A0000 		.4byte	.LASF146
 4360 0f6e 01       		.byte	0x1
 4361 0f6f 4C04     		.2byte	0x44c
 4362 0f71 DD030000 		.4byte	0x3dd
 4363 0f75 02       		.uleb128 0x2
ARM GAS  /tmp/ccHvf4Lz.s 			page 78


 4364 0f76 91       		.byte	0x91
 4365 0f77 68       		.sleb128 -24
 4366 0f78 18       		.uleb128 0x18
 4367 0f79 10030000 		.4byte	.LASF154
 4368 0f7d 01       		.byte	0x1
 4369 0f7e 4E04     		.2byte	0x44e
 4370 0f80 5F050000 		.4byte	0x55f
 4371 0f84 02       		.uleb128 0x2
 4372 0f85 91       		.byte	0x91
 4373 0f86 77       		.sleb128 -9
 4374 0f87 00       		.byte	0
 4375 0f88 0F       		.uleb128 0xf
 4376 0f89 D2060000 		.4byte	0x6d2
 4377 0f8d 980F0000 		.4byte	0xf98
 4378 0f91 10       		.uleb128 0x10
 4379 0f92 8C000000 		.4byte	0x8c
 4380 0f96 00       		.byte	0
 4381 0f97 00       		.byte	0
 4382 0f98 1C       		.uleb128 0x1c
 4383 0f99 3B080000 		.4byte	.LASF182
 4384 0f9d 01       		.byte	0x1
 4385 0f9e 8A       		.byte	0x8a
 4386 0f9f 880F0000 		.4byte	0xf88
 4387 0fa3 05       		.uleb128 0x5
 4388 0fa4 03       		.byte	0x3
 4389 0fa5 00000000 		.4byte	LSM303AGR_Combo_Data
 4390 0fa9 1C       		.uleb128 0x1c
 4391 0faa 95060000 		.4byte	.LASF183
 4392 0fae 01       		.byte	0x1
 4393 0faf 6F       		.byte	0x6f
 4394 0fb0 7C040000 		.4byte	0x47c
 4395 0fb4 05       		.uleb128 0x5
 4396 0fb5 03       		.byte	0x3
 4397 0fb6 00000000 		.4byte	LSM303AGR_X_Drv
 4398 0fba 00       		.byte	0
 4399              		.section	.debug_abbrev,"",%progbits
 4400              	.Ldebug_abbrev0:
 4401 0000 01       		.uleb128 0x1
 4402 0001 11       		.uleb128 0x11
 4403 0002 01       		.byte	0x1
 4404 0003 25       		.uleb128 0x25
 4405 0004 0E       		.uleb128 0xe
 4406 0005 13       		.uleb128 0x13
 4407 0006 0B       		.uleb128 0xb
 4408 0007 03       		.uleb128 0x3
 4409 0008 0E       		.uleb128 0xe
 4410 0009 1B       		.uleb128 0x1b
 4411 000a 0E       		.uleb128 0xe
 4412 000b 11       		.uleb128 0x11
 4413 000c 01       		.uleb128 0x1
 4414 000d 12       		.uleb128 0x12
 4415 000e 06       		.uleb128 0x6
 4416 000f 10       		.uleb128 0x10
 4417 0010 17       		.uleb128 0x17
 4418 0011 00       		.byte	0
 4419 0012 00       		.byte	0
 4420 0013 02       		.uleb128 0x2
ARM GAS  /tmp/ccHvf4Lz.s 			page 79


 4421 0014 24       		.uleb128 0x24
 4422 0015 00       		.byte	0
 4423 0016 0B       		.uleb128 0xb
 4424 0017 0B       		.uleb128 0xb
 4425 0018 3E       		.uleb128 0x3e
 4426 0019 0B       		.uleb128 0xb
 4427 001a 03       		.uleb128 0x3
 4428 001b 08       		.uleb128 0x8
 4429 001c 00       		.byte	0
 4430 001d 00       		.byte	0
 4431 001e 03       		.uleb128 0x3
 4432 001f 24       		.uleb128 0x24
 4433 0020 00       		.byte	0
 4434 0021 0B       		.uleb128 0xb
 4435 0022 0B       		.uleb128 0xb
 4436 0023 3E       		.uleb128 0x3e
 4437 0024 0B       		.uleb128 0xb
 4438 0025 03       		.uleb128 0x3
 4439 0026 0E       		.uleb128 0xe
 4440 0027 00       		.byte	0
 4441 0028 00       		.byte	0
 4442 0029 04       		.uleb128 0x4
 4443 002a 16       		.uleb128 0x16
 4444 002b 00       		.byte	0
 4445 002c 03       		.uleb128 0x3
 4446 002d 0E       		.uleb128 0xe
 4447 002e 3A       		.uleb128 0x3a
 4448 002f 0B       		.uleb128 0xb
 4449 0030 3B       		.uleb128 0x3b
 4450 0031 0B       		.uleb128 0xb
 4451 0032 49       		.uleb128 0x49
 4452 0033 13       		.uleb128 0x13
 4453 0034 00       		.byte	0
 4454 0035 00       		.byte	0
 4455 0036 05       		.uleb128 0x5
 4456 0037 0F       		.uleb128 0xf
 4457 0038 00       		.byte	0
 4458 0039 0B       		.uleb128 0xb
 4459 003a 0B       		.uleb128 0xb
 4460 003b 00       		.byte	0
 4461 003c 00       		.byte	0
 4462 003d 06       		.uleb128 0x6
 4463 003e 13       		.uleb128 0x13
 4464 003f 01       		.byte	0x1
 4465 0040 0B       		.uleb128 0xb
 4466 0041 0B       		.uleb128 0xb
 4467 0042 3A       		.uleb128 0x3a
 4468 0043 0B       		.uleb128 0xb
 4469 0044 3B       		.uleb128 0x3b
 4470 0045 0B       		.uleb128 0xb
 4471 0046 01       		.uleb128 0x1
 4472 0047 13       		.uleb128 0x13
 4473 0048 00       		.byte	0
 4474 0049 00       		.byte	0
 4475 004a 07       		.uleb128 0x7
 4476 004b 0D       		.uleb128 0xd
 4477 004c 00       		.byte	0
ARM GAS  /tmp/ccHvf4Lz.s 			page 80


 4478 004d 03       		.uleb128 0x3
 4479 004e 0E       		.uleb128 0xe
 4480 004f 3A       		.uleb128 0x3a
 4481 0050 0B       		.uleb128 0xb
 4482 0051 3B       		.uleb128 0x3b
 4483 0052 0B       		.uleb128 0xb
 4484 0053 49       		.uleb128 0x49
 4485 0054 13       		.uleb128 0x13
 4486 0055 38       		.uleb128 0x38
 4487 0056 0B       		.uleb128 0xb
 4488 0057 00       		.byte	0
 4489 0058 00       		.byte	0
 4490 0059 08       		.uleb128 0x8
 4491 005a 04       		.uleb128 0x4
 4492 005b 01       		.byte	0x1
 4493 005c 0B       		.uleb128 0xb
 4494 005d 0B       		.uleb128 0xb
 4495 005e 3A       		.uleb128 0x3a
 4496 005f 0B       		.uleb128 0xb
 4497 0060 3B       		.uleb128 0x3b
 4498 0061 0B       		.uleb128 0xb
 4499 0062 01       		.uleb128 0x1
 4500 0063 13       		.uleb128 0x13
 4501 0064 00       		.byte	0
 4502 0065 00       		.byte	0
 4503 0066 09       		.uleb128 0x9
 4504 0067 28       		.uleb128 0x28
 4505 0068 00       		.byte	0
 4506 0069 03       		.uleb128 0x3
 4507 006a 0E       		.uleb128 0xe
 4508 006b 1C       		.uleb128 0x1c
 4509 006c 0D       		.uleb128 0xd
 4510 006d 00       		.byte	0
 4511 006e 00       		.byte	0
 4512 006f 0A       		.uleb128 0xa
 4513 0070 15       		.uleb128 0x15
 4514 0071 01       		.byte	0x1
 4515 0072 27       		.uleb128 0x27
 4516 0073 19       		.uleb128 0x19
 4517 0074 49       		.uleb128 0x49
 4518 0075 13       		.uleb128 0x13
 4519 0076 01       		.uleb128 0x1
 4520 0077 13       		.uleb128 0x13
 4521 0078 00       		.byte	0
 4522 0079 00       		.byte	0
 4523 007a 0B       		.uleb128 0xb
 4524 007b 05       		.uleb128 0x5
 4525 007c 00       		.byte	0
 4526 007d 49       		.uleb128 0x49
 4527 007e 13       		.uleb128 0x13
 4528 007f 00       		.byte	0
 4529 0080 00       		.byte	0
 4530 0081 0C       		.uleb128 0xc
 4531 0082 0F       		.uleb128 0xf
 4532 0083 00       		.byte	0
 4533 0084 0B       		.uleb128 0xb
 4534 0085 0B       		.uleb128 0xb
ARM GAS  /tmp/ccHvf4Lz.s 			page 81


 4535 0086 49       		.uleb128 0x49
 4536 0087 13       		.uleb128 0x13
 4537 0088 00       		.byte	0
 4538 0089 00       		.byte	0
 4539 008a 0D       		.uleb128 0xd
 4540 008b 17       		.uleb128 0x17
 4541 008c 01       		.byte	0x1
 4542 008d 0B       		.uleb128 0xb
 4543 008e 0B       		.uleb128 0xb
 4544 008f 3A       		.uleb128 0x3a
 4545 0090 0B       		.uleb128 0xb
 4546 0091 3B       		.uleb128 0x3b
 4547 0092 0B       		.uleb128 0xb
 4548 0093 01       		.uleb128 0x1
 4549 0094 13       		.uleb128 0x13
 4550 0095 00       		.byte	0
 4551 0096 00       		.byte	0
 4552 0097 0E       		.uleb128 0xe
 4553 0098 0D       		.uleb128 0xd
 4554 0099 00       		.byte	0
 4555 009a 03       		.uleb128 0x3
 4556 009b 0E       		.uleb128 0xe
 4557 009c 3A       		.uleb128 0x3a
 4558 009d 0B       		.uleb128 0xb
 4559 009e 3B       		.uleb128 0x3b
 4560 009f 0B       		.uleb128 0xb
 4561 00a0 49       		.uleb128 0x49
 4562 00a1 13       		.uleb128 0x13
 4563 00a2 00       		.byte	0
 4564 00a3 00       		.byte	0
 4565 00a4 0F       		.uleb128 0xf
 4566 00a5 01       		.uleb128 0x1
 4567 00a6 01       		.byte	0x1
 4568 00a7 49       		.uleb128 0x49
 4569 00a8 13       		.uleb128 0x13
 4570 00a9 01       		.uleb128 0x1
 4571 00aa 13       		.uleb128 0x13
 4572 00ab 00       		.byte	0
 4573 00ac 00       		.byte	0
 4574 00ad 10       		.uleb128 0x10
 4575 00ae 21       		.uleb128 0x21
 4576 00af 00       		.byte	0
 4577 00b0 49       		.uleb128 0x49
 4578 00b1 13       		.uleb128 0x13
 4579 00b2 2F       		.uleb128 0x2f
 4580 00b3 0B       		.uleb128 0xb
 4581 00b4 00       		.byte	0
 4582 00b5 00       		.byte	0
 4583 00b6 11       		.uleb128 0x11
 4584 00b7 04       		.uleb128 0x4
 4585 00b8 01       		.byte	0x1
 4586 00b9 0B       		.uleb128 0xb
 4587 00ba 0B       		.uleb128 0xb
 4588 00bb 3A       		.uleb128 0x3a
 4589 00bc 0B       		.uleb128 0xb
 4590 00bd 3B       		.uleb128 0x3b
 4591 00be 05       		.uleb128 0x5
ARM GAS  /tmp/ccHvf4Lz.s 			page 82


 4592 00bf 01       		.uleb128 0x1
 4593 00c0 13       		.uleb128 0x13
 4594 00c1 00       		.byte	0
 4595 00c2 00       		.byte	0
 4596 00c3 12       		.uleb128 0x12
 4597 00c4 16       		.uleb128 0x16
 4598 00c5 00       		.byte	0
 4599 00c6 03       		.uleb128 0x3
 4600 00c7 0E       		.uleb128 0xe
 4601 00c8 3A       		.uleb128 0x3a
 4602 00c9 0B       		.uleb128 0xb
 4603 00ca 3B       		.uleb128 0x3b
 4604 00cb 05       		.uleb128 0x5
 4605 00cc 49       		.uleb128 0x49
 4606 00cd 13       		.uleb128 0x13
 4607 00ce 00       		.byte	0
 4608 00cf 00       		.byte	0
 4609 00d0 13       		.uleb128 0x13
 4610 00d1 2E       		.uleb128 0x2e
 4611 00d2 01       		.byte	0x1
 4612 00d3 03       		.uleb128 0x3
 4613 00d4 0E       		.uleb128 0xe
 4614 00d5 3A       		.uleb128 0x3a
 4615 00d6 0B       		.uleb128 0xb
 4616 00d7 3B       		.uleb128 0x3b
 4617 00d8 0B       		.uleb128 0xb
 4618 00d9 27       		.uleb128 0x27
 4619 00da 19       		.uleb128 0x19
 4620 00db 49       		.uleb128 0x49
 4621 00dc 13       		.uleb128 0x13
 4622 00dd 11       		.uleb128 0x11
 4623 00de 01       		.uleb128 0x1
 4624 00df 12       		.uleb128 0x12
 4625 00e0 06       		.uleb128 0x6
 4626 00e1 40       		.uleb128 0x40
 4627 00e2 18       		.uleb128 0x18
 4628 00e3 9642     		.uleb128 0x2116
 4629 00e5 19       		.uleb128 0x19
 4630 00e6 01       		.uleb128 0x1
 4631 00e7 13       		.uleb128 0x13
 4632 00e8 00       		.byte	0
 4633 00e9 00       		.byte	0
 4634 00ea 14       		.uleb128 0x14
 4635 00eb 05       		.uleb128 0x5
 4636 00ec 00       		.byte	0
 4637 00ed 03       		.uleb128 0x3
 4638 00ee 0E       		.uleb128 0xe
 4639 00ef 3A       		.uleb128 0x3a
 4640 00f0 0B       		.uleb128 0xb
 4641 00f1 3B       		.uleb128 0x3b
 4642 00f2 0B       		.uleb128 0xb
 4643 00f3 49       		.uleb128 0x49
 4644 00f4 13       		.uleb128 0x13
 4645 00f5 02       		.uleb128 0x2
 4646 00f6 18       		.uleb128 0x18
 4647 00f7 00       		.byte	0
 4648 00f8 00       		.byte	0
ARM GAS  /tmp/ccHvf4Lz.s 			page 83


 4649 00f9 15       		.uleb128 0x15
 4650 00fa 34       		.uleb128 0x34
 4651 00fb 00       		.byte	0
 4652 00fc 03       		.uleb128 0x3
 4653 00fd 0E       		.uleb128 0xe
 4654 00fe 3A       		.uleb128 0x3a
 4655 00ff 0B       		.uleb128 0xb
 4656 0100 3B       		.uleb128 0x3b
 4657 0101 0B       		.uleb128 0xb
 4658 0102 49       		.uleb128 0x49
 4659 0103 13       		.uleb128 0x13
 4660 0104 02       		.uleb128 0x2
 4661 0105 18       		.uleb128 0x18
 4662 0106 00       		.byte	0
 4663 0107 00       		.byte	0
 4664 0108 16       		.uleb128 0x16
 4665 0109 2E       		.uleb128 0x2e
 4666 010a 01       		.byte	0x1
 4667 010b 03       		.uleb128 0x3
 4668 010c 0E       		.uleb128 0xe
 4669 010d 3A       		.uleb128 0x3a
 4670 010e 0B       		.uleb128 0xb
 4671 010f 3B       		.uleb128 0x3b
 4672 0110 05       		.uleb128 0x5
 4673 0111 27       		.uleb128 0x27
 4674 0112 19       		.uleb128 0x19
 4675 0113 49       		.uleb128 0x49
 4676 0114 13       		.uleb128 0x13
 4677 0115 11       		.uleb128 0x11
 4678 0116 01       		.uleb128 0x1
 4679 0117 12       		.uleb128 0x12
 4680 0118 06       		.uleb128 0x6
 4681 0119 40       		.uleb128 0x40
 4682 011a 18       		.uleb128 0x18
 4683 011b 9642     		.uleb128 0x2116
 4684 011d 19       		.uleb128 0x19
 4685 011e 01       		.uleb128 0x1
 4686 011f 13       		.uleb128 0x13
 4687 0120 00       		.byte	0
 4688 0121 00       		.byte	0
 4689 0122 17       		.uleb128 0x17
 4690 0123 05       		.uleb128 0x5
 4691 0124 00       		.byte	0
 4692 0125 03       		.uleb128 0x3
 4693 0126 0E       		.uleb128 0xe
 4694 0127 3A       		.uleb128 0x3a
 4695 0128 0B       		.uleb128 0xb
 4696 0129 3B       		.uleb128 0x3b
 4697 012a 05       		.uleb128 0x5
 4698 012b 49       		.uleb128 0x49
 4699 012c 13       		.uleb128 0x13
 4700 012d 02       		.uleb128 0x2
 4701 012e 18       		.uleb128 0x18
 4702 012f 00       		.byte	0
 4703 0130 00       		.byte	0
 4704 0131 18       		.uleb128 0x18
 4705 0132 34       		.uleb128 0x34
ARM GAS  /tmp/ccHvf4Lz.s 			page 84


 4706 0133 00       		.byte	0
 4707 0134 03       		.uleb128 0x3
 4708 0135 0E       		.uleb128 0xe
 4709 0136 3A       		.uleb128 0x3a
 4710 0137 0B       		.uleb128 0xb
 4711 0138 3B       		.uleb128 0x3b
 4712 0139 05       		.uleb128 0x5
 4713 013a 49       		.uleb128 0x49
 4714 013b 13       		.uleb128 0x13
 4715 013c 02       		.uleb128 0x2
 4716 013d 18       		.uleb128 0x18
 4717 013e 00       		.byte	0
 4718 013f 00       		.byte	0
 4719 0140 19       		.uleb128 0x19
 4720 0141 05       		.uleb128 0x5
 4721 0142 00       		.byte	0
 4722 0143 03       		.uleb128 0x3
 4723 0144 08       		.uleb128 0x8
 4724 0145 3A       		.uleb128 0x3a
 4725 0146 0B       		.uleb128 0xb
 4726 0147 3B       		.uleb128 0x3b
 4727 0148 05       		.uleb128 0x5
 4728 0149 49       		.uleb128 0x49
 4729 014a 13       		.uleb128 0x13
 4730 014b 02       		.uleb128 0x2
 4731 014c 18       		.uleb128 0x18
 4732 014d 00       		.byte	0
 4733 014e 00       		.byte	0
 4734 014f 1A       		.uleb128 0x1a
 4735 0150 34       		.uleb128 0x34
 4736 0151 00       		.byte	0
 4737 0152 03       		.uleb128 0x3
 4738 0153 08       		.uleb128 0x8
 4739 0154 3A       		.uleb128 0x3a
 4740 0155 0B       		.uleb128 0xb
 4741 0156 3B       		.uleb128 0x3b
 4742 0157 05       		.uleb128 0x5
 4743 0158 49       		.uleb128 0x49
 4744 0159 13       		.uleb128 0x13
 4745 015a 02       		.uleb128 0x2
 4746 015b 18       		.uleb128 0x18
 4747 015c 00       		.byte	0
 4748 015d 00       		.byte	0
 4749 015e 1B       		.uleb128 0x1b
 4750 015f 2E       		.uleb128 0x2e
 4751 0160 01       		.byte	0x1
 4752 0161 03       		.uleb128 0x3
 4753 0162 0E       		.uleb128 0xe
 4754 0163 3A       		.uleb128 0x3a
 4755 0164 0B       		.uleb128 0xb
 4756 0165 3B       		.uleb128 0x3b
 4757 0166 05       		.uleb128 0x5
 4758 0167 27       		.uleb128 0x27
 4759 0168 19       		.uleb128 0x19
 4760 0169 49       		.uleb128 0x49
 4761 016a 13       		.uleb128 0x13
 4762 016b 11       		.uleb128 0x11
ARM GAS  /tmp/ccHvf4Lz.s 			page 85


 4763 016c 01       		.uleb128 0x1
 4764 016d 12       		.uleb128 0x12
 4765 016e 06       		.uleb128 0x6
 4766 016f 40       		.uleb128 0x40
 4767 0170 18       		.uleb128 0x18
 4768 0171 9742     		.uleb128 0x2117
 4769 0173 19       		.uleb128 0x19
 4770 0174 01       		.uleb128 0x1
 4771 0175 13       		.uleb128 0x13
 4772 0176 00       		.byte	0
 4773 0177 00       		.byte	0
 4774 0178 1C       		.uleb128 0x1c
 4775 0179 34       		.uleb128 0x34
 4776 017a 00       		.byte	0
 4777 017b 03       		.uleb128 0x3
 4778 017c 0E       		.uleb128 0xe
 4779 017d 3A       		.uleb128 0x3a
 4780 017e 0B       		.uleb128 0xb
 4781 017f 3B       		.uleb128 0x3b
 4782 0180 0B       		.uleb128 0xb
 4783 0181 49       		.uleb128 0x49
 4784 0182 13       		.uleb128 0x13
 4785 0183 3F       		.uleb128 0x3f
 4786 0184 19       		.uleb128 0x19
 4787 0185 02       		.uleb128 0x2
 4788 0186 18       		.uleb128 0x18
 4789 0187 00       		.byte	0
 4790 0188 00       		.byte	0
 4791 0189 00       		.byte	0
 4792              		.section	.debug_aranges,"",%progbits
 4793 0000 1C000000 		.4byte	0x1c
 4794 0004 0200     		.2byte	0x2
 4795 0006 00000000 		.4byte	.Ldebug_info0
 4796 000a 04       		.byte	0x4
 4797 000b 00       		.byte	0
 4798 000c 0000     		.2byte	0
 4799 000e 0000     		.2byte	0
 4800 0010 00000000 		.4byte	.Ltext0
 4801 0014 E40C0000 		.4byte	.Letext0-.Ltext0
 4802 0018 00000000 		.4byte	0
 4803 001c 00000000 		.4byte	0
 4804              		.section	.debug_line,"",%progbits
 4805              	.Ldebug_line0:
 4806 0000 9F040000 		.section	.debug_str,"MS",%progbits,1
 4806      02000D02 
 4806      00000201 
 4806      FB0E0D00 
 4806      01010101 
 4807              	.LASF120:
 4808 0000 4C534D33 		.ascii	"LSM303AGR_ACC_FM_FIFO\000"
 4808      30334147 
 4808      525F4143 
 4808      435F464D 
 4808      5F464946 
 4809              	.LASF85:
 4810 0016 4C534D33 		.ascii	"LSM303AGR_ACC_FS_2G\000"
 4810      30334147 
ARM GAS  /tmp/ccHvf4Lz.s 			page 86


 4810      525F4143 
 4810      435F4653 
 4810      5F324700 
 4811              	.LASF96:
 4812 002a 4C534D33 		.ascii	"LSM303AGR_ACC_ODR_DO_200Hz\000"
 4812      30334147 
 4812      525F4143 
 4812      435F4F44 
 4812      525F444F 
 4813              	.LASF78:
 4814 0045 69313662 		.ascii	"i16bit\000"
 4814      697400
 4815              	.LASF69:
 4816 004c 57726974 		.ascii	"Write_Reg\000"
 4816      655F5265 
 4816      6700
 4817              	.LASF163:
 4818 0056 7A537461 		.ascii	"zStatus\000"
 4818      74757300 
 4819              	.LASF117:
 4820 005e 4C534D33 		.ascii	"LSM303AGR_ACC_XDA_AVAILABLE\000"
 4820      30334147 
 4820      525F4143 
 4820      435F5844 
 4820      415F4156 
 4821              	.LASF59:
 4822 007a 4765745F 		.ascii	"Get_Sensitivity\000"
 4822      53656E73 
 4822      69746976 
 4822      69747900 
 4823              	.LASF100:
 4824 008a 4C534D33 		.ascii	"LSM303AGR_ACC_ODR_t\000"
 4824      30334147 
 4824      525F4143 
 4824      435F4F44 
 4824      525F7400 
 4825              	.LASF30:
 4826 009e 434F4D50 		.ascii	"COMPONENT_ERROR\000"
 4826      4F4E454E 
 4826      545F4552 
 4826      524F5200 
 4827              	.LASF0:
 4828 00ae 756E7369 		.ascii	"unsigned int\000"
 4828      676E6564 
 4828      20696E74 
 4828      00
 4829              	.LASF33:
 4830 00bb 44727653 		.ascii	"DrvStatusTypeDef\000"
 4830      74617475 
 4830      73547970 
 4830      65446566 
 4830      00
 4831              	.LASF133:
 4832 00cc 4C534D33 		.ascii	"LSM303AGR_X_DeInit\000"
 4832      30334147 
 4832      525F585F 
 4832      4465496E 
ARM GAS  /tmp/ccHvf4Lz.s 			page 87


 4832      697400
 4833              	.LASF131:
 4834 00df 61786573 		.ascii	"axes_status\000"
 4834      5F737461 
 4834      74757300 
 4835              	.LASF7:
 4836 00eb 5F5F696E 		.ascii	"__int32_t\000"
 4836      7433325F 
 4836      7400
 4837              	.LASF147:
 4838 00f5 6C705F76 		.ascii	"lp_value\000"
 4838      616C7565 
 4838      00
 4839              	.LASF137:
 4840 00fe 4C534D33 		.ascii	"LSM303AGR_X_Get_WhoAmI\000"
 4840      30334147 
 4840      525F585F 
 4840      4765745F 
 4840      57686F41 
 4841              	.LASF82:
 4842 0115 4D454D53 		.ascii	"MEMS_ERROR\000"
 4842      5F455252 
 4842      4F5200
 4843              	.LASF86:
 4844 0120 4C534D33 		.ascii	"LSM303AGR_ACC_FS_4G\000"
 4844      30334147 
 4844      525F4143 
 4844      435F4653 
 4844      5F344700 
 4845              	.LASF61:
 4846 0134 5365745F 		.ascii	"Set_ODR\000"
 4846      4F445200 
 4847              	.LASF47:
 4848 013c 46535F4D 		.ascii	"FS_MID\000"
 4848      494400
 4849              	.LASF108:
 4850 0143 4C534D33 		.ascii	"LSM303AGR_ACC_ZEN_ENABLED\000"
 4850      30334147 
 4850      525F4143 
 4850      435F5A45 
 4850      4E5F454E 
 4851              	.LASF45:
 4852 015d 46535F4C 		.ascii	"FS_LOW\000"
 4852      4F5700
 4853              	.LASF84:
 4854 0164 4C534D33 		.ascii	"LSM303AGR_ACC_BDU_ENABLED\000"
 4854      30334147 
 4854      525F4143 
 4854      435F4244 
 4854      555F454E 
 4855              	.LASF142:
 4856 017e 4C534D33 		.ascii	"LSM303AGR_X_Get_AxesRaw\000"
 4856      30334147 
 4856      525F585F 
 4856      4765745F 
 4856      41786573 
 4857              	.LASF118:
ARM GAS  /tmp/ccHvf4Lz.s 			page 88


 4858 0196 4C534D33 		.ascii	"LSM303AGR_ACC_XDA_t\000"
 4858      30334147 
 4858      525F4143 
 4858      435F5844 
 4858      415F7400 
 4859              	.LASF107:
 4860 01aa 4C534D33 		.ascii	"LSM303AGR_ACC_ZEN_DISABLED\000"
 4860      30334147 
 4860      525F4143 
 4860      435F5A45 
 4860      4E5F4449 
 4861              	.LASF24:
 4862 01c5 6973436F 		.ascii	"isCombo\000"
 4862      6D626F00 
 4863              	.LASF159:
 4864 01cd 4C534D33 		.ascii	"LSM303AGR_X_Get_Axes_Status\000"
 4864      30334147 
 4864      525F585F 
 4864      4765745F 
 4864      41786573 
 4865              	.LASF140:
 4866 01e9 61636365 		.ascii	"acceleration\000"
 4866      6C657261 
 4866      74696F6E 
 4866      00
 4867              	.LASF185:
 4868 01f6 2E2E2F2E 		.ascii	"../../../../../Drivers/BSP/Components/lsm303agr/LSM"
 4868      2E2F2E2E 
 4868      2F2E2E2F 
 4868      2E2E2F44 
 4868      72697665 
 4869 0229 33303341 		.ascii	"303AGR_ACC_driver_HL.c\000"
 4869      47525F41 
 4869      43435F64 
 4869      72697665 
 4869      725F484C 
 4870              	.LASF177:
 4871 0240 4C534D33 		.ascii	"LSM303AGR_X_Set_ODR_Value_When_Enabled\000"
 4871      30334147 
 4871      525F585F 
 4871      5365745F 
 4871      4F44525F 
 4872              	.LASF94:
 4873 0267 4C534D33 		.ascii	"LSM303AGR_ACC_ODR_DO_50Hz\000"
 4873      30334147 
 4873      525F4143 
 4873      435F4F44 
 4873      525F444F 
 4874              	.LASF74:
 4875 0281 70457874 		.ascii	"pExtData\000"
 4875      44617461 
 4875      00
 4876              	.LASF110:
 4877 028a 4C534D33 		.ascii	"LSM303AGR_ACC_LPEN_DISABLED\000"
 4877      30334147 
 4877      525F4143 
 4877      435F4C50 
ARM GAS  /tmp/ccHvf4Lz.s 			page 89


 4877      454E5F44 
 4878              	.LASF109:
 4879 02a6 4C534D33 		.ascii	"LSM303AGR_ACC_ZEN_t\000"
 4879      30334147 
 4879      525F4143 
 4879      435F5A45 
 4879      4E5F7400 
 4880              	.LASF71:
 4881 02ba 666C6F61 		.ascii	"float\000"
 4881      7400
 4882              	.LASF145:
 4883 02c0 4C534D33 		.ascii	"LSM303AGR_X_Get_Sensitivity\000"
 4883      30334147 
 4883      525F585F 
 4883      4765745F 
 4883      53656E73 
 4884              	.LASF173:
 4885 02dc 73686966 		.ascii	"shift\000"
 4885      7400
 4886              	.LASF166:
 4887 02e2 4C534D33 		.ascii	"LSM303AGR_X_Read_Reg\000"
 4887      30334147 
 4887      525F585F 
 4887      52656164 
 4887      5F526567 
 4888              	.LASF132:
 4889 02f7 4C534D33 		.ascii	"LSM303AGR_X_Init\000"
 4889      30334147 
 4889      525F585F 
 4889      496E6974 
 4889      00
 4890              	.LASF15:
 4891 0308 696E7431 		.ascii	"int16_t\000"
 4891      365F7400 
 4892              	.LASF154:
 4893 0310 66756C6C 		.ascii	"fullScale\000"
 4893      5363616C 
 4893      6500
 4894              	.LASF11:
 4895 031a 6C6F6E67 		.ascii	"long long unsigned int\000"
 4895      206C6F6E 
 4895      6720756E 
 4895      7369676E 
 4895      65642069 
 4896              	.LASF52:
 4897 0331 4465496E 		.ascii	"DeInit\000"
 4897      697400
 4898              	.LASF136:
 4899 0338 4C534D33 		.ascii	"LSM303AGR_X_Sensor_Disable\000"
 4899      30334147 
 4899      525F585F 
 4899      53656E73 
 4899      6F725F44 
 4900              	.LASF139:
 4901 0353 4C534D33 		.ascii	"LSM303AGR_X_Get_Axes\000"
 4901      30334147 
 4901      525F585F 
ARM GAS  /tmp/ccHvf4Lz.s 			page 90


 4901      4765745F 
 4901      41786573 
 4902              	.LASF79:
 4903 0368 75386269 		.ascii	"u8bit\000"
 4903      7400
 4904              	.LASF158:
 4905 036e 4C534D33 		.ascii	"LSM303AGR_X_Set_FS_Value\000"
 4905      30334147 
 4905      525F585F 
 4905      5365745F 
 4905      46535F56 
 4906              	.LASF17:
 4907 0387 77686F5F 		.ascii	"who_am_i\000"
 4907      616D5F69 
 4907      00
 4908              	.LASF167:
 4909 0390 4C534D33 		.ascii	"LSM303AGR_X_Write_Reg\000"
 4909      30334147 
 4909      525F585F 
 4909      57726974 
 4909      655F5265 
 4910              	.LASF174:
 4911 03a6 4C534D33 		.ascii	"LSM303AGR_X_Set_ODR_When_Enabled\000"
 4911      30334147 
 4911      525F585F 
 4911      5365745F 
 4911      4F44525F 
 4912              	.LASF58:
 4913 03c7 4765745F 		.ascii	"Get_AxesRaw\000"
 4913      41786573 
 4913      52617700 
 4914              	.LASF23:
 4915 03d3 6973456E 		.ascii	"isEnabled\000"
 4915      61626C65 
 4915      6400
 4916              	.LASF165:
 4917 03dd 656E6162 		.ascii	"enable_xyz\000"
 4917      6C655F78 
 4917      797A00
 4918              	.LASF21:
 4919 03e8 696E7374 		.ascii	"instance\000"
 4919      616E6365 
 4919      00
 4920              	.LASF143:
 4921 03f1 76616C75 		.ascii	"value\000"
 4921      6500
 4922              	.LASF149:
 4923 03f7 4C534D33 		.ascii	"LSM303AGR_X_Get_ODR\000"
 4923      30334147 
 4923      525F585F 
 4923      4765745F 
 4923      4F445200 
 4924              	.LASF115:
 4925 040b 4C534D33 		.ascii	"LSM303AGR_ACC_HR_t\000"
 4925      30334147 
 4925      525F4143 
 4925      435F4852 
ARM GAS  /tmp/ccHvf4Lz.s 			page 91


 4925      5F7400
 4926              	.LASF67:
 4927 041e 5365745F 		.ascii	"Set_Axes_Status\000"
 4927      41786573 
 4927      5F537461 
 4927      74757300 
 4928              	.LASF179:
 4929 042e 4C534D33 		.ascii	"LSM303AGR_X_Get_Sensitivity_Normal_Mode\000"
 4929      30334147 
 4929      525F585F 
 4929      4765745F 
 4929      53656E73 
 4930              	.LASF112:
 4931 0456 4C534D33 		.ascii	"LSM303AGR_ACC_LPEN_t\000"
 4931      30334147 
 4931      525F4143 
 4931      435F4C50 
 4931      454E5F74 
 4932              	.LASF97:
 4933 046b 4C534D33 		.ascii	"LSM303AGR_ACC_ODR_DO_400Hz\000"
 4933      30334147 
 4933      525F4143 
 4933      435F4F44 
 4933      525F444F 
 4934              	.LASF51:
 4935 0486 496E6974 		.ascii	"Init\000"
 4935      00
 4936              	.LASF25:
 4937 048b 70446174 		.ascii	"pData\000"
 4937      6100
 4938              	.LASF56:
 4939 0491 43686563 		.ascii	"Check_WhoAmI\000"
 4939      6B5F5768 
 4939      6F416D49 
 4939      00
 4940              	.LASF116:
 4941 049e 4C534D33 		.ascii	"LSM303AGR_ACC_XDA_NOT_AVAILABLE\000"
 4941      30334147 
 4941      525F4143 
 4941      435F5844 
 4941      415F4E4F 
 4942              	.LASF41:
 4943 04be 4F44525F 		.ascii	"ODR_MID\000"
 4943      4D494400 
 4944              	.LASF150:
 4945 04c6 6F64725F 		.ascii	"odr_low_level\000"
 4945      6C6F775F 
 4945      6C657665 
 4945      6C00
 4946              	.LASF95:
 4947 04d4 4C534D33 		.ascii	"LSM303AGR_ACC_ODR_DO_100Hz\000"
 4947      30334147 
 4947      525F4143 
 4947      435F4F44 
 4947      525F444F 
 4948              	.LASF39:
 4949 04ef 4F44525F 		.ascii	"ODR_LOW\000"
ARM GAS  /tmp/ccHvf4Lz.s 			page 92


 4949      4C4F5700 
 4950              	.LASF54:
 4951 04f7 53656E73 		.ascii	"Sensor_Disable\000"
 4951      6F725F44 
 4951      69736162 
 4951      6C6500
 4952              	.LASF90:
 4953 0506 4C534D33 		.ascii	"LSM303AGR_ACC_ODR_DO_PWR_DOWN\000"
 4953      30334147 
 4953      525F4143 
 4953      435F4F44 
 4953      525F444F 
 4954              	.LASF186:
 4955 0524 2F752F65 		.ascii	"/u/elawton2/p442-submissions/sensortile/reference/b"
 4955      6C617774 
 4955      6F6E322F 
 4955      70343432 
 4955      2D737562 
 4956 0557 6C75656D 		.ascii	"luemicrosystem2/BlueMicrosystem2_V2.2.0/Projects/Mu"
 4956      6963726F 
 4956      73797374 
 4956      656D322F 
 4956      426C7565 
 4957 058a 6C74692F 		.ascii	"lti/Applications/BlueMicrosystem2/bluechibi\000"
 4957      4170706C 
 4957      69636174 
 4957      696F6E73 
 4957      2F426C75 
 4958              	.LASF171:
 4959 05b6 4C534D33 		.ascii	"LSM303AGR_X_Get_Axes_Raw\000"
 4959      30334147 
 4959      525F585F 
 4959      4765745F 
 4959      41786573 
 4960              	.LASF114:
 4961 05cf 4C534D33 		.ascii	"LSM303AGR_ACC_HR_ENABLED\000"
 4961      30334147 
 4961      525F4143 
 4961      435F4852 
 4961      5F454E41 
 4962              	.LASF105:
 4963 05e8 4C534D33 		.ascii	"LSM303AGR_ACC_YEN_ENABLED\000"
 4963      30334147 
 4963      525F4143 
 4963      435F5945 
 4963      4E5F454E 
 4964              	.LASF65:
 4965 0602 5365745F 		.ascii	"Set_FS_Value\000"
 4965      46535F56 
 4965      616C7565 
 4965      00
 4966              	.LASF87:
 4967 060f 4C534D33 		.ascii	"LSM303AGR_ACC_FS_8G\000"
 4967      30334147 
 4967      525F4143 
 4967      435F4653 
 4967      5F384700 
ARM GAS  /tmp/ccHvf4Lz.s 			page 93


 4968              	.LASF88:
 4969 0623 4C534D33 		.ascii	"LSM303AGR_ACC_FS_16G\000"
 4969      30334147 
 4969      525F4143 
 4969      435F4653 
 4969      5F313647 
 4970              	.LASF13:
 4971 0638 63686172 		.ascii	"char\000"
 4971      00
 4972              	.LASF153:
 4973 063d 4C534D33 		.ascii	"LSM303AGR_X_Get_FS\000"
 4973      30334147 
 4973      525F585F 
 4973      4765745F 
 4973      465300
 4974              	.LASF44:
 4975 0650 53656E73 		.ascii	"SensorOdr_t\000"
 4975      6F724F64 
 4975      725F7400 
 4976              	.LASF160:
 4977 065c 78797A5F 		.ascii	"xyz_enabled\000"
 4977      656E6162 
 4977      6C656400 
 4978              	.LASF72:
 4979 0668 41434345 		.ascii	"ACCELERO_Drv_t\000"
 4979      4C45524F 
 4979      5F447276 
 4979      5F7400
 4980              	.LASF122:
 4981 0677 4C534D33 		.ascii	"LSM303AGR_ACC_FM_TRIGGER\000"
 4981      30334147 
 4981      525F4143 
 4981      435F464D 
 4981      5F545249 
 4982              	.LASF141:
 4983 0690 64617461 		.ascii	"data\000"
 4983      00
 4984              	.LASF183:
 4985 0695 4C534D33 		.ascii	"LSM303AGR_X_Drv\000"
 4985      30334147 
 4985      525F585F 
 4985      44727600 
 4986              	.LASF14:
 4987 06a5 75696E74 		.ascii	"uint8_t\000"
 4987      385F7400 
 4988              	.LASF169:
 4989 06ad 73746174 		.ascii	"status\000"
 4989      757300
 4990              	.LASF144:
 4991 06b4 64617461 		.ascii	"dataRaw\000"
 4991      52617700 
 4992              	.LASF128:
 4993 06bc 4C534D33 		.ascii	"LSM303AGR_X_Data_t\000"
 4993      30334147 
 4993      525F585F 
 4993      44617461 
 4993      5F7400
ARM GAS  /tmp/ccHvf4Lz.s 			page 94


 4994              	.LASF119:
 4995 06cf 4C534D33 		.ascii	"LSM303AGR_ACC_FM_BYPASS\000"
 4995      30334147 
 4995      525F4143 
 4995      435F464D 
 4995      5F425950 
 4996              	.LASF62:
 4997 06e7 5365745F 		.ascii	"Set_ODR_Value\000"
 4997      4F44525F 
 4997      56616C75 
 4997      6500
 4998              	.LASF60:
 4999 06f5 4765745F 		.ascii	"Get_ODR\000"
 4999      4F445200 
 5000              	.LASF29:
 5001 06fd 434F4D50 		.ascii	"COMPONENT_OK\000"
 5001      4F4E454E 
 5001      545F4F4B 
 5001      00
 5002              	.LASF162:
 5003 070a 79537461 		.ascii	"yStatus\000"
 5003      74757300 
 5004              	.LASF91:
 5005 0712 4C534D33 		.ascii	"LSM303AGR_ACC_ODR_DO_1Hz\000"
 5005      30334147 
 5005      525F4143 
 5005      435F4F44 
 5005      525F444F 
 5006              	.LASF38:
 5007 072b 53656E73 		.ascii	"SensorAxes_t\000"
 5007      6F724178 
 5007      65735F74 
 5007      00
 5008              	.LASF10:
 5009 0738 6C6F6E67 		.ascii	"long long int\000"
 5009      206C6F6E 
 5009      6720696E 
 5009      7400
 5010              	.LASF57:
 5011 0746 4765745F 		.ascii	"Get_Axes\000"
 5011      41786573 
 5011      00
 5012              	.LASF152:
 5013 074f 4C534D33 		.ascii	"LSM303AGR_X_Set_ODR_Value\000"
 5013      30334147 
 5013      525F585F 
 5013      5365745F 
 5013      4F44525F 
 5014              	.LASF20:
 5015 0769 73706944 		.ascii	"spiDevice\000"
 5015      65766963 
 5015      6500
 5016              	.LASF164:
 5017 0773 4C534D33 		.ascii	"LSM303AGR_X_Set_Axes_Status\000"
 5017      30334147 
 5017      525F585F 
 5017      5365745F 
ARM GAS  /tmp/ccHvf4Lz.s 			page 95


 5017      41786573 
 5018              	.LASF76:
 5019 078f 75385F74 		.ascii	"u8_t\000"
 5019      00
 5020              	.LASF101:
 5021 0794 4C534D33 		.ascii	"LSM303AGR_ACC_XEN_DISABLED\000"
 5021      30334147 
 5021      525F4143 
 5021      435F5845 
 5021      4E5F4449 
 5022              	.LASF4:
 5023 07af 5F5F696E 		.ascii	"__int16_t\000"
 5023      7431365F 
 5023      7400
 5024              	.LASF98:
 5025 07b9 4C534D33 		.ascii	"LSM303AGR_ACC_ODR_DO_1_6KHz\000"
 5025      30334147 
 5025      525F4143 
 5025      435F4F44 
 5025      525F444F 
 5026              	.LASF68:
 5027 07d5 52656164 		.ascii	"Read_Reg\000"
 5027      5F526567 
 5027      00
 5028              	.LASF102:
 5029 07de 4C534D33 		.ascii	"LSM303AGR_ACC_XEN_ENABLED\000"
 5029      30334147 
 5029      525F4143 
 5029      435F5845 
 5029      4E5F454E 
 5030              	.LASF89:
 5031 07f8 4C534D33 		.ascii	"LSM303AGR_ACC_FS_t\000"
 5031      30334147 
 5031      525F4143 
 5031      435F4653 
 5031      5F7400
 5032              	.LASF106:
 5033 080b 4C534D33 		.ascii	"LSM303AGR_ACC_YEN_t\000"
 5033      30334147 
 5033      525F4143 
 5033      435F5945 
 5033      4E5F7400 
 5034              	.LASF34:
 5035 081f 41584953 		.ascii	"AXIS_X\000"
 5035      5F5800
 5036              	.LASF35:
 5037 0826 41584953 		.ascii	"AXIS_Y\000"
 5037      5F5900
 5038              	.LASF36:
 5039 082d 41584953 		.ascii	"AXIS_Z\000"
 5039      5F5A00
 5040              	.LASF63:
 5041 0834 4765745F 		.ascii	"Get_FS\000"
 5041      465300
 5042              	.LASF182:
 5043 083b 4C534D33 		.ascii	"LSM303AGR_Combo_Data\000"
 5043      30334147 
ARM GAS  /tmp/ccHvf4Lz.s 			page 96


 5043      525F436F 
 5043      6D626F5F 
 5043      44617461 
 5044              	.LASF83:
 5045 0850 4C534D33 		.ascii	"LSM303AGR_ACC_BDU_DISABLED\000"
 5045      30334147 
 5045      525F4143 
 5045      435F4244 
 5045      555F4449 
 5046              	.LASF22:
 5047 086b 6973496E 		.ascii	"isInitialized\000"
 5047      69746961 
 5047      6C697A65 
 5047      6400
 5048              	.LASF70:
 5049 0879 4765745F 		.ascii	"Get_DRDY_Status\000"
 5049      44524459 
 5049      5F537461 
 5049      74757300 
 5050              	.LASF126:
 5051 0889 636F6D62 		.ascii	"comboData\000"
 5051      6F446174 
 5051      6100
 5052              	.LASF121:
 5053 0893 4C534D33 		.ascii	"LSM303AGR_ACC_FM_STREAM\000"
 5053      30334147 
 5053      525F4143 
 5053      435F464D 
 5053      5F535452 
 5054              	.LASF48:
 5055 08ab 46535F4D 		.ascii	"FS_MID_HIGH\000"
 5055      49445F48 
 5055      49474800 
 5056              	.LASF130:
 5057 08b7 6C6F6E67 		.ascii	"long double\000"
 5057      20646F75 
 5057      626C6500 
 5058              	.LASF28:
 5059 08c3 44727643 		.ascii	"DrvContextTypeDef\000"
 5059      6F6E7465 
 5059      78745479 
 5059      70654465 
 5059      6600
 5060              	.LASF55:
 5061 08d5 4765745F 		.ascii	"Get_WhoAmI\000"
 5061      57686F41 
 5061      6D4900
 5062              	.LASF156:
 5063 08e0 4C534D33 		.ascii	"LSM303AGR_X_Set_FS\000"
 5063      30334147 
 5063      525F585F 
 5063      5365745F 
 5063      465300
 5064              	.LASF27:
 5065 08f3 70457874 		.ascii	"pExtVTable\000"
 5065      56546162 
 5065      6C6500
ARM GAS  /tmp/ccHvf4Lz.s 			page 97


 5066              	.LASF5:
 5067 08fe 73686F72 		.ascii	"short int\000"
 5067      7420696E 
 5067      7400
 5068              	.LASF8:
 5069 0908 6C6F6E67 		.ascii	"long int\000"
 5069      20696E74 
 5069      00
 5070              	.LASF75:
 5071 0911 41434345 		.ascii	"ACCELERO_Data_t\000"
 5071      4C45524F 
 5071      5F446174 
 5071      615F7400 
 5072              	.LASF148:
 5073 0921 68725F76 		.ascii	"hr_value\000"
 5073      616C7565 
 5073      00
 5074              	.LASF127:
 5075 092a 50726576 		.ascii	"Previous_ODR\000"
 5075      696F7573 
 5075      5F4F4452 
 5075      00
 5076              	.LASF26:
 5077 0937 70565461 		.ascii	"pVTable\000"
 5077      626C6500 
 5078              	.LASF123:
 5079 093f 69734163 		.ascii	"isAccInitialized\000"
 5079      63496E69 
 5079      7469616C 
 5079      697A6564 
 5079      00
 5080              	.LASF181:
 5081 0950 4C534D33 		.ascii	"LSM303AGR_X_Get_Sensitivity_HR_Mode\000"
 5081      30334147 
 5081      525F585F 
 5081      4765745F 
 5081      53656E73 
 5082              	.LASF161:
 5083 0974 78537461 		.ascii	"xStatus\000"
 5083      74757300 
 5084              	.LASF3:
 5085 097c 5F5F7569 		.ascii	"__uint8_t\000"
 5085      6E74385F 
 5085      7400
 5086              	.LASF53:
 5087 0986 53656E73 		.ascii	"Sensor_Enable\000"
 5087      6F725F45 
 5087      6E61626C 
 5087      6500
 5088              	.LASF77:
 5089 0994 6931365F 		.ascii	"i16_t\000"
 5089      7400
 5090              	.LASF184:
 5091 099a 474E5520 		.ascii	"GNU C 4.8.4 20140526 (release) [ARM/embedded-4_8-br"
 5091      4320342E 
 5091      382E3420 
 5091      32303134 
ARM GAS  /tmp/ccHvf4Lz.s 			page 98


 5091      30353236 
 5092 09cd 616E6368 		.ascii	"anch revision 211358] -mcpu=cortex-m4 -mno-thumb-in"
 5092      20726576 
 5092      6973696F 
 5092      6E203231 
 5092      31333538 
 5093 0a00 74657277 		.ascii	"terwork -mthumb -ggdb -O0 -std=c99 -fomit-frame-poi"
 5093      6F726B20 
 5093      2D6D7468 
 5093      756D6220 
 5093      2D676764 
 5094 0a33 6E746572 		.ascii	"nter -falign-functions=16\000"
 5094      202D6661 
 5094      6C69676E 
 5094      2D66756E 
 5094      6374696F 
 5095              	.LASF172:
 5096 0a4d 7261775F 		.ascii	"raw_data_tmp\000"
 5096      64617461 
 5096      5F746D70 
 5096      00
 5097              	.LASF99:
 5098 0a5a 4C534D33 		.ascii	"LSM303AGR_ACC_ODR_DO_1_25KHz\000"
 5098      30334147 
 5098      525F4143 
 5098      435F4F44 
 5098      525F444F 
 5099              	.LASF135:
 5100 0a77 4C534D33 		.ascii	"LSM303AGR_X_Sensor_Enable\000"
 5100      30334147 
 5100      525F585F 
 5100      53656E73 
 5100      6F725F45 
 5101              	.LASF146:
 5102 0a91 73656E73 		.ascii	"sensitivity\000"
 5102      69746976 
 5102      69747900 
 5103              	.LASF12:
 5104 0a9d 73697A65 		.ascii	"sizetype\000"
 5104      74797065 
 5104      00
 5105              	.LASF9:
 5106 0aa6 6C6F6E67 		.ascii	"long unsigned int\000"
 5106      20756E73 
 5106      69676E65 
 5106      6420696E 
 5106      7400
 5107              	.LASF19:
 5108 0ab8 61646472 		.ascii	"address\000"
 5108      65737300 
 5109              	.LASF93:
 5110 0ac0 4C534D33 		.ascii	"LSM303AGR_ACC_ODR_DO_25Hz\000"
 5110      30334147 
 5110      525F4143 
 5110      435F4F44 
 5110      525F444F 
 5111              	.LASF31:
ARM GAS  /tmp/ccHvf4Lz.s 			page 99


 5112 0ada 434F4D50 		.ascii	"COMPONENT_TIMEOUT\000"
 5112      4F4E454E 
 5112      545F5449 
 5112      4D454F55 
 5112      5400
 5113              	.LASF73:
 5114 0aec 70436F6D 		.ascii	"pComponentData\000"
 5114      706F6E65 
 5114      6E744461 
 5114      746100
 5115              	.LASF168:
 5116 0afb 4C534D33 		.ascii	"LSM303AGR_X_Get_DRDY_Status\000"
 5116      30334147 
 5116      525F585F 
 5116      4765745F 
 5116      44524459 
 5117              	.LASF16:
 5118 0b17 696E7433 		.ascii	"int32_t\000"
 5118      325F7400 
 5119              	.LASF37:
 5120 0b1f 53656E73 		.ascii	"SensorAxesRaw_t\000"
 5120      6F724178 
 5120      65735261 
 5120      775F7400 
 5121              	.LASF50:
 5122 0b2f 53656E73 		.ascii	"SensorFs_t\000"
 5122      6F724673 
 5122      5F7400
 5123              	.LASF43:
 5124 0b3a 4F44525F 		.ascii	"ODR_HIGH\000"
 5124      48494748 
 5124      00
 5125              	.LASF64:
 5126 0b43 5365745F 		.ascii	"Set_FS\000"
 5126      465300
 5127              	.LASF2:
 5128 0b4a 756E7369 		.ascii	"unsigned char\000"
 5128      676E6564 
 5128      20636861 
 5128      7200
 5129              	.LASF180:
 5130 0b58 4C534D33 		.ascii	"LSM303AGR_X_Get_Sensitivity_LP_Mode\000"
 5130      30334147 
 5130      525F585F 
 5130      4765745F 
 5130      53656E73 
 5131              	.LASF176:
 5132 0b7c 4C534D33 		.ascii	"LSM303AGR_X_Set_ODR_When_Disabled\000"
 5132      30334147 
 5132      525F585F 
 5132      5365745F 
 5132      4F44525F 
 5133              	.LASF42:
 5134 0b9e 4F44525F 		.ascii	"ODR_MID_HIGH\000"
 5134      4D49445F 
 5134      48494748 
 5134      00
ARM GAS  /tmp/ccHvf4Lz.s 			page 100


 5135              	.LASF81:
 5136 0bab 4D454D53 		.ascii	"MEMS_SUCCESS\000"
 5136      5F535543 
 5136      43455353 
 5136      00
 5137              	.LASF32:
 5138 0bb8 434F4D50 		.ascii	"COMPONENT_NOT_IMPLEMENTED\000"
 5138      4F4E454E 
 5138      545F4E4F 
 5138      545F494D 
 5138      504C454D 
 5139              	.LASF46:
 5140 0bd2 46535F4D 		.ascii	"FS_MID_LOW\000"
 5140      49445F4C 
 5140      4F5700
 5141              	.LASF178:
 5142 0bdd 4C534D33 		.ascii	"LSM303AGR_X_Set_ODR_Value_When_Disabled\000"
 5142      30334147 
 5142      525F585F 
 5142      5365745F 
 5142      4F44525F 
 5143              	.LASF92:
 5144 0c05 4C534D33 		.ascii	"LSM303AGR_ACC_ODR_DO_10Hz\000"
 5144      30334147 
 5144      525F4143 
 5144      435F4F44 
 5144      525F444F 
 5145              	.LASF104:
 5146 0c1f 4C534D33 		.ascii	"LSM303AGR_ACC_YEN_DISABLED\000"
 5146      30334147 
 5146      525F4143 
 5146      435F5945 
 5146      4E5F4449 
 5147              	.LASF1:
 5148 0c3a 7369676E 		.ascii	"signed char\000"
 5148      65642063 
 5148      68617200 
 5149              	.LASF103:
 5150 0c46 4C534D33 		.ascii	"LSM303AGR_ACC_XEN_t\000"
 5150      30334147 
 5150      525F4143 
 5150      435F5845 
 5150      4E5F7400 
 5151              	.LASF6:
 5152 0c5a 73686F72 		.ascii	"short unsigned int\000"
 5152      7420756E 
 5152      7369676E 
 5152      65642069 
 5152      6E7400
 5153              	.LASF49:
 5154 0c6d 46535F48 		.ascii	"FS_HIGH\000"
 5154      49474800 
 5155              	.LASF134:
 5156 0c75 68616E64 		.ascii	"handle\000"
 5156      6C6500
 5157              	.LASF111:
 5158 0c7c 4C534D33 		.ascii	"LSM303AGR_ACC_LPEN_ENABLED\000"
ARM GAS  /tmp/ccHvf4Lz.s 			page 101


 5158      30334147 
 5158      525F4143 
 5158      435F4C50 
 5158      454E5F45 
 5159              	.LASF155:
 5160 0c97 66735F6C 		.ascii	"fs_low_level\000"
 5160      6F775F6C 
 5160      6576656C 
 5160      00
 5161              	.LASF170:
 5162 0ca4 73746174 		.ascii	"status_raw\000"
 5162      75735F72 
 5162      617700
 5163              	.LASF129:
 5164 0caf 646F7562 		.ascii	"double\000"
 5164      6C6500
 5165              	.LASF175:
 5166 0cb6 6E65775F 		.ascii	"new_odr\000"
 5166      6F647200 
 5167              	.LASF125:
 5168 0cbe 4C534D33 		.ascii	"LSM303AGR_Combo_Data_t\000"
 5168      30334147 
 5168      525F436F 
 5168      6D626F5F 
 5168      44617461 
 5169              	.LASF138:
 5170 0cd5 4C534D33 		.ascii	"LSM303AGR_X_Check_WhoAmI\000"
 5170      30334147 
 5170      525F585F 
 5170      43686563 
 5170      6B5F5768 
 5171              	.LASF151:
 5172 0cee 4C534D33 		.ascii	"LSM303AGR_X_Set_ODR\000"
 5172      30334147 
 5172      525F585F 
 5172      5365745F 
 5172      4F445200 
 5173              	.LASF80:
 5174 0d02 54797065 		.ascii	"Type3Axis16bit_U\000"
 5174      33417869 
 5174      73313662 
 5174      69745F55 
 5174      00
 5175              	.LASF113:
 5176 0d13 4C534D33 		.ascii	"LSM303AGR_ACC_HR_DISABLED\000"
 5176      30334147 
 5176      525F4143 
 5176      435F4852 
 5176      5F444953 
 5177              	.LASF124:
 5178 0d2d 69734D61 		.ascii	"isMagInitialized\000"
 5178      67496E69 
 5178      7469616C 
 5178      697A6564 
 5178      00
 5179              	.LASF157:
 5180 0d3e 6E65775F 		.ascii	"new_fs\000"
ARM GAS  /tmp/ccHvf4Lz.s 			page 102


 5180      667300
 5181              	.LASF18:
 5182 0d45 69665479 		.ascii	"ifType\000"
 5182      706500
 5183              	.LASF40:
 5184 0d4c 4F44525F 		.ascii	"ODR_MID_LOW\000"
 5184      4D49445F 
 5184      4C4F5700 
 5185              	.LASF66:
 5186 0d58 4765745F 		.ascii	"Get_Axes_Status\000"
 5186      41786573 
 5186      5F537461 
 5186      74757300 
 5187              		.ident	"GCC: (GNU Tools for ARM Embedded Processors) 4.8.4 20140526 (release) [ARM/embedded-4_8-br
ARM GAS  /tmp/ccHvf4Lz.s 			page 103


DEFINED SYMBOLS
                            *ABS*:00000000 LSM303AGR_ACC_driver_HL.c
     /tmp/ccHvf4Lz.s:23     .data:00000000 LSM303AGR_X_Drv
     /tmp/ccHvf4Lz.s:20     .data:00000000 $d
     /tmp/ccHvf4Lz.s:57     .text:00000000 LSM303AGR_X_Init
     /tmp/ccHvf4Lz.s:188    .text:000000c0 LSM303AGR_X_DeInit
     /tmp/ccHvf4Lz.s:260    .text:00000120 LSM303AGR_X_Sensor_Enable
     /tmp/ccHvf4Lz.s:322    .text:00000170 LSM303AGR_X_Sensor_Disable
     /tmp/ccHvf4Lz.s:395    .text:000001d0 LSM303AGR_X_Get_WhoAmI
     /tmp/ccHvf4Lz.s:435    .text:00000200 LSM303AGR_X_Check_WhoAmI
     /tmp/ccHvf4Lz.s:488    .text:00000240 LSM303AGR_X_Get_Axes
     /tmp/ccHvf4Lz.s:541    .text:00000280 LSM303AGR_X_Get_AxesRaw
     /tmp/ccHvf4Lz.s:594    .text:000002c0 LSM303AGR_X_Get_Sensitivity
     /tmp/ccHvf4Lz.s:692    .text:00000360 LSM303AGR_X_Get_ODR
     /tmp/ccHvf4Lz.s:835    .text:00000430 LSM303AGR_X_Set_ODR
     /tmp/ccHvf4Lz.s:894    .text:00000480 LSM303AGR_X_Set_ODR_Value
     /tmp/ccHvf4Lz.s:950    .text:000004c0 LSM303AGR_X_Get_FS
     /tmp/ccHvf4Lz.s:1047   .text:00000540 LSM303AGR_X_Set_FS
     /tmp/ccHvf4Lz.s:1120   .text:000005a0 LSM303AGR_X_Set_FS_Value
     /tmp/ccHvf4Lz.s:1199   .text:00000610 LSM303AGR_X_Get_Axes_Status
     /tmp/ccHvf4Lz.s:1294   .text:000006a0 LSM303AGR_X_Set_Axes_Status
     /tmp/ccHvf4Lz.s:1392   .text:00000720 LSM303AGR_X_Read_Reg
     /tmp/ccHvf4Lz.s:1437   .text:00000760 LSM303AGR_X_Write_Reg
     /tmp/ccHvf4Lz.s:1484   .text:000007a0 LSM303AGR_X_Get_DRDY_Status
                            *COM*:00000002 LSM303AGR_Combo_Data
     /tmp/ccHvf4Lz.s:46     .rodata:00000000 $d
     /tmp/ccHvf4Lz.s:52     .text:00000000 $t
     /tmp/ccHvf4Lz.s:178    .text:000000ac $d
     /tmp/ccHvf4Lz.s:183    .text:000000b4 $t
     /tmp/ccHvf4Lz.s:1874   .text:000009e0 LSM303AGR_X_Set_ODR_Value_When_Enabled
     /tmp/ccHvf4Lz.s:1549   .text:000007f0 LSM303AGR_X_Get_Axes_Raw
     /tmp/ccHvf4Lz.s:2111   .text:00000b40 LSM303AGR_X_Get_Sensitivity_Normal_Mode
     /tmp/ccHvf4Lz.s:2212   .text:00000bd0 LSM303AGR_X_Get_Sensitivity_LP_Mode
     /tmp/ccHvf4Lz.s:2313   .text:00000c60 LSM303AGR_X_Get_Sensitivity_HR_Mode
     /tmp/ccHvf4Lz.s:820    .text:00000408 $d
     /tmp/ccHvf4Lz.s:830    .text:00000424 $t
     /tmp/ccHvf4Lz.s:1686   .text:000008e0 LSM303AGR_X_Set_ODR_When_Enabled
     /tmp/ccHvf4Lz.s:1777   .text:00000960 LSM303AGR_X_Set_ODR_When_Disabled
     /tmp/ccHvf4Lz.s:1994   .text:00000a90 LSM303AGR_X_Set_ODR_Value_When_Disabled
     /tmp/ccHvf4Lz.s:1038   .text:00000538 $d
     /tmp/ccHvf4Lz.s:1042   .text:0000053c $t
     /tmp/ccHvf4Lz.s:1708   .text:000008fc $d
     /tmp/ccHvf4Lz.s:1713   .text:00000910 $t
     /tmp/ccHvf4Lz.s:1805   .text:00000984 $d
     /tmp/ccHvf4Lz.s:1810   .text:00000998 $t
     /tmp/ccHvf4Lz.s:1862   .text:000009d0 $d
     /tmp/ccHvf4Lz.s:1869   .text:000009e0 $t
     /tmp/ccHvf4Lz.s:1981   .text:00000a7c $d
     /tmp/ccHvf4Lz.s:1989   .text:00000a90 $t
     /tmp/ccHvf4Lz.s:2097   .text:00000b24 $d
     /tmp/ccHvf4Lz.s:2106   .text:00000b3c $t
     /tmp/ccHvf4Lz.s:2199   .text:00000bb0 $d
     /tmp/ccHvf4Lz.s:2207   .text:00000bc4 $t
     /tmp/ccHvf4Lz.s:2300   .text:00000c40 $d
     /tmp/ccHvf4Lz.s:2308   .text:00000c54 $t
     /tmp/ccHvf4Lz.s:2401   .text:00000cd0 $d
                     .debug_frame:00000010 $d
ARM GAS  /tmp/ccHvf4Lz.s 			page 104


     /tmp/ccHvf4Lz.s:2418   .text:00000ce4 $t

UNDEFINED SYMBOLS
LSM303AGR_ACC_W_BlockDataUpdate
LSM303AGR_ACC_W_FifoMode
LSM303AGR_ACC_W_ODR
LSM303AGR_ACC_R_WHO_AM_I
LSM303AGR_ACC_Get_Acceleration
LSM303AGR_ACC_R_LOWPWR_EN
LSM303AGR_ACC_R_HiRes
LSM303AGR_ACC_R_ODR
LSM303AGR_ACC_R_FullScale
LSM303AGR_ACC_W_FullScale
__aeabi_fcmple
LSM303AGR_ACC_R_XEN
LSM303AGR_ACC_R_YEN
LSM303AGR_ACC_R_ZEN
LSM303AGR_ACC_W_XEN
LSM303AGR_ACC_W_YEN
LSM303AGR_ACC_W_ZEN
LSM303AGR_ACC_ReadReg
LSM303AGR_ACC_WriteReg
LSM303AGR_ACC_R_XDataAvail
LSM303AGR_ACC_Get_Raw_Acceleration
