ARM GAS  /tmp/ccVYwGiK.s 			page 1


   1              		.syntax unified
   2              		.cpu cortex-m4
   3              		.fpu softvfp
   4              		.eabi_attribute 20, 1
   5              		.eabi_attribute 21, 1
   6              		.eabi_attribute 23, 3
   7              		.eabi_attribute 24, 1
   8              		.eabi_attribute 25, 1
   9              		.eabi_attribute 26, 1
  10              		.eabi_attribute 30, 6
  11              		.eabi_attribute 34, 1
  12              		.eabi_attribute 18, 4
  13              		.thumb
  14              		.file	"LSM303AGR_ACC_driver.c"
  15              		.text
  16              	.Ltext0:
  17              		.cfi_sections	.debug_frame
  18              		.align	2
  19              		.p2align 4,,15
  20              		.global	LSM303AGR_ACC_WriteReg
  21              		.thumb
  22              		.thumb_func
  23              		.type	LSM303AGR_ACC_WriteReg, %function
  24              	LSM303AGR_ACC_WriteReg:
  25              	.LFB0:
  26              		.file 1 "../../../../../Drivers/BSP/Components/lsm303agr/LSM303AGR_ACC_driver.c"
  27              		.loc 1 67 0
  28              		.cfi_startproc
  29              		@ args = 0, pretend = 0, frame = 16
  30              		@ frame_needed = 0, uses_anonymous_args = 0
  31 0000 00B5     		push	{lr}
  32              		.cfi_def_cfa_offset 4
  33              		.cfi_offset 14, -4
  34 0002 85B0     		sub	sp, sp, #20
  35              		.cfi_def_cfa_offset 24
  36 0004 0390     		str	r0, [sp, #12]
  37 0006 0192     		str	r2, [sp, #4]
  38 0008 0A46     		mov	r2, r1
  39 000a 8DF80B20 		strb	r2, [sp, #11]
  40 000e ADF80830 		strh	r3, [sp, #8]	@ movhi
  41              		.loc 1 69 0
  42 0012 9DF80B20 		ldrb	r2, [sp, #11]	@ zero_extendqisi2
  43 0016 BDF80830 		ldrh	r3, [sp, #8]
  44 001a 0398     		ldr	r0, [sp, #12]
  45 001c 1146     		mov	r1, r2
  46 001e 019A     		ldr	r2, [sp, #4]
  47 0020 FFF7FEFF 		bl	Sensor_IO_Write
  48 0024 0346     		mov	r3, r0
  49 0026 002B     		cmp	r3, #0
  50 0028 01D0     		beq	.L2
  51              		.loc 1 71 0
  52 002a 0023     		movs	r3, #0
  53 002c 00E0     		b	.L3
  54              	.L2:
  55              		.loc 1 75 0
  56 002e 0123     		movs	r3, #1
  57              	.L3:
ARM GAS  /tmp/ccVYwGiK.s 			page 2


  58              		.loc 1 77 0
  59 0030 1846     		mov	r0, r3
  60 0032 05B0     		add	sp, sp, #20
  61              		@ sp needed
  62 0034 5DF804FB 		ldr	pc, [sp], #4
  63              		.cfi_endproc
  64              	.LFE0:
  65              		.size	LSM303AGR_ACC_WriteReg, .-LSM303AGR_ACC_WriteReg
  66              		.align	2
  67 0038 AFF30080 		.p2align 4,,15
  67      AFF30080 
  68              		.global	LSM303AGR_ACC_ReadReg
  69              		.thumb
  70              		.thumb_func
  71              		.type	LSM303AGR_ACC_ReadReg, %function
  72              	LSM303AGR_ACC_ReadReg:
  73              	.LFB1:
  74              		.loc 1 89 0
  75              		.cfi_startproc
  76              		@ args = 0, pretend = 0, frame = 16
  77              		@ frame_needed = 0, uses_anonymous_args = 0
  78 0040 00B5     		push	{lr}
  79              		.cfi_def_cfa_offset 4
  80              		.cfi_offset 14, -4
  81 0042 85B0     		sub	sp, sp, #20
  82              		.cfi_def_cfa_offset 24
  83 0044 0390     		str	r0, [sp, #12]
  84 0046 0192     		str	r2, [sp, #4]
  85 0048 0A46     		mov	r2, r1
  86 004a 8DF80B20 		strb	r2, [sp, #11]
  87 004e ADF80830 		strh	r3, [sp, #8]	@ movhi
  88              		.loc 1 91 0
  89 0052 9DF80B20 		ldrb	r2, [sp, #11]	@ zero_extendqisi2
  90 0056 BDF80830 		ldrh	r3, [sp, #8]
  91 005a 0398     		ldr	r0, [sp, #12]
  92 005c 1146     		mov	r1, r2
  93 005e 019A     		ldr	r2, [sp, #4]
  94 0060 FFF7FEFF 		bl	Sensor_IO_Read
  95 0064 0346     		mov	r3, r0
  96 0066 002B     		cmp	r3, #0
  97 0068 01D0     		beq	.L5
  98              		.loc 1 93 0
  99 006a 0023     		movs	r3, #0
 100 006c 00E0     		b	.L6
 101              	.L5:
 102              		.loc 1 97 0
 103 006e 0123     		movs	r3, #1
 104              	.L6:
 105              		.loc 1 99 0
 106 0070 1846     		mov	r0, r3
 107 0072 05B0     		add	sp, sp, #20
 108              		@ sp needed
 109 0074 5DF804FB 		ldr	pc, [sp], #4
 110              		.cfi_endproc
 111              	.LFE1:
 112              		.size	LSM303AGR_ACC_ReadReg, .-LSM303AGR_ACC_ReadReg
 113              		.align	2
ARM GAS  /tmp/ccVYwGiK.s 			page 3


 114 0078 AFF30080 		.p2align 4,,15
 114      AFF30080 
 115              		.global	LSM303AGR_ACC_R_WHO_AM_I
 116              		.thumb
 117              		.thumb_func
 118              		.type	LSM303AGR_ACC_R_WHO_AM_I, %function
 119              	LSM303AGR_ACC_R_WHO_AM_I:
 120              	.LFB2:
 121              		.loc 1 111 0
 122              		.cfi_startproc
 123              		@ args = 0, pretend = 0, frame = 8
 124              		@ frame_needed = 0, uses_anonymous_args = 0
 125 0080 00B5     		push	{lr}
 126              		.cfi_def_cfa_offset 4
 127              		.cfi_offset 14, -4
 128 0082 83B0     		sub	sp, sp, #12
 129              		.cfi_def_cfa_offset 16
 130 0084 0190     		str	r0, [sp, #4]
 131 0086 0091     		str	r1, [sp]
 132              		.loc 1 112 0
 133 0088 0198     		ldr	r0, [sp, #4]
 134 008a 0F21     		movs	r1, #15
 135 008c 009A     		ldr	r2, [sp]
 136 008e 0123     		movs	r3, #1
 137 0090 FFF7FEFF 		bl	LSM303AGR_ACC_ReadReg
 138 0094 0346     		mov	r3, r0
 139 0096 002B     		cmp	r3, #0
 140 0098 01D1     		bne	.L8
 141              		.loc 1 113 0
 142 009a 0023     		movs	r3, #0
 143 009c 08E0     		b	.L9
 144              	.L8:
 145              		.loc 1 115 0
 146 009e 009B     		ldr	r3, [sp]
 147 00a0 1A78     		ldrb	r2, [r3]	@ zero_extendqisi2
 148 00a2 009B     		ldr	r3, [sp]
 149 00a4 1A70     		strb	r2, [r3]
 150              		.loc 1 116 0
 151 00a6 009B     		ldr	r3, [sp]
 152 00a8 1A78     		ldrb	r2, [r3]	@ zero_extendqisi2
 153 00aa 009B     		ldr	r3, [sp]
 154 00ac 1A70     		strb	r2, [r3]
 155              		.loc 1 118 0
 156 00ae 0123     		movs	r3, #1
 157              	.L9:
 158              		.loc 1 119 0
 159 00b0 1846     		mov	r0, r3
 160 00b2 03B0     		add	sp, sp, #12
 161              		@ sp needed
 162 00b4 5DF804FB 		ldr	pc, [sp], #4
 163              		.cfi_endproc
 164              	.LFE2:
 165              		.size	LSM303AGR_ACC_R_WHO_AM_I, .-LSM303AGR_ACC_R_WHO_AM_I
 166              		.align	2
 167 00b8 AFF30080 		.p2align 4,,15
 167      AFF30080 
 168              		.global	LSM303AGR_ACC_W_BlockDataUpdate
ARM GAS  /tmp/ccVYwGiK.s 			page 4


 169              		.thumb
 170              		.thumb_func
 171              		.type	LSM303AGR_ACC_W_BlockDataUpdate, %function
 172              	LSM303AGR_ACC_W_BlockDataUpdate:
 173              	.LFB3:
 174              		.loc 1 129 0
 175              		.cfi_startproc
 176              		@ args = 0, pretend = 0, frame = 16
 177              		@ frame_needed = 0, uses_anonymous_args = 0
 178 00c0 00B5     		push	{lr}
 179              		.cfi_def_cfa_offset 4
 180              		.cfi_offset 14, -4
 181 00c2 85B0     		sub	sp, sp, #20
 182              		.cfi_def_cfa_offset 24
 183 00c4 0190     		str	r0, [sp, #4]
 184 00c6 0B46     		mov	r3, r1
 185 00c8 8DF80330 		strb	r3, [sp, #3]
 186              		.loc 1 132 0
 187 00cc 0DF10F03 		add	r3, sp, #15
 188 00d0 0198     		ldr	r0, [sp, #4]
 189 00d2 2321     		movs	r1, #35
 190 00d4 1A46     		mov	r2, r3
 191 00d6 0123     		movs	r3, #1
 192 00d8 FFF7FEFF 		bl	LSM303AGR_ACC_ReadReg
 193 00dc 0346     		mov	r3, r0
 194 00de 002B     		cmp	r3, #0
 195 00e0 01D1     		bne	.L11
 196              		.loc 1 133 0
 197 00e2 0023     		movs	r3, #0
 198 00e4 1CE0     		b	.L14
 199              	.L11:
 200              		.loc 1 135 0
 201 00e6 9DF80F30 		ldrb	r3, [sp, #15]	@ zero_extendqisi2
 202 00ea 03F07F03 		and	r3, r3, #127
 203 00ee DBB2     		uxtb	r3, r3
 204 00f0 8DF80F30 		strb	r3, [sp, #15]
 205              		.loc 1 136 0
 206 00f4 9DF80F20 		ldrb	r2, [sp, #15]	@ zero_extendqisi2
 207 00f8 9DF80330 		ldrb	r3, [sp, #3]
 208 00fc 1343     		orrs	r3, r3, r2
 209 00fe DBB2     		uxtb	r3, r3
 210 0100 8DF80F30 		strb	r3, [sp, #15]
 211              		.loc 1 138 0
 212 0104 0DF10F03 		add	r3, sp, #15
 213 0108 0198     		ldr	r0, [sp, #4]
 214 010a 2321     		movs	r1, #35
 215 010c 1A46     		mov	r2, r3
 216 010e 0123     		movs	r3, #1
 217 0110 FFF7FEFF 		bl	LSM303AGR_ACC_WriteReg
 218 0114 0346     		mov	r3, r0
 219 0116 002B     		cmp	r3, #0
 220 0118 01D1     		bne	.L13
 221              		.loc 1 139 0
 222 011a 0023     		movs	r3, #0
 223 011c 00E0     		b	.L14
 224              	.L13:
 225              		.loc 1 141 0
ARM GAS  /tmp/ccVYwGiK.s 			page 5


 226 011e 0123     		movs	r3, #1
 227              	.L14:
 228              		.loc 1 142 0
 229 0120 1846     		mov	r0, r3
 230 0122 05B0     		add	sp, sp, #20
 231              		@ sp needed
 232 0124 5DF804FB 		ldr	pc, [sp], #4
 233              		.cfi_endproc
 234              	.LFE3:
 235              		.size	LSM303AGR_ACC_W_BlockDataUpdate, .-LSM303AGR_ACC_W_BlockDataUpdate
 236              		.align	2
 237 0128 AFF30080 		.p2align 4,,15
 237      AFF30080 
 238              		.global	LSM303AGR_ACC_R_BlockDataUpdate
 239              		.thumb
 240              		.thumb_func
 241              		.type	LSM303AGR_ACC_R_BlockDataUpdate, %function
 242              	LSM303AGR_ACC_R_BlockDataUpdate:
 243              	.LFB4:
 244              		.loc 1 152 0
 245              		.cfi_startproc
 246              		@ args = 0, pretend = 0, frame = 8
 247              		@ frame_needed = 0, uses_anonymous_args = 0
 248 0130 00B5     		push	{lr}
 249              		.cfi_def_cfa_offset 4
 250              		.cfi_offset 14, -4
 251 0132 83B0     		sub	sp, sp, #12
 252              		.cfi_def_cfa_offset 16
 253 0134 0190     		str	r0, [sp, #4]
 254 0136 0091     		str	r1, [sp]
 255              		.loc 1 153 0
 256 0138 0198     		ldr	r0, [sp, #4]
 257 013a 2321     		movs	r1, #35
 258 013c 009A     		ldr	r2, [sp]
 259 013e 0123     		movs	r3, #1
 260 0140 FFF7FEFF 		bl	LSM303AGR_ACC_ReadReg
 261 0144 0346     		mov	r3, r0
 262 0146 002B     		cmp	r3, #0
 263 0148 01D1     		bne	.L16
 264              		.loc 1 154 0
 265 014a 0023     		movs	r3, #0
 266 014c 07E0     		b	.L17
 267              	.L16:
 268              		.loc 1 156 0
 269 014e 009B     		ldr	r3, [sp]
 270 0150 1B78     		ldrb	r3, [r3]	@ zero_extendqisi2
 271 0152 23F07F03 		bic	r3, r3, #127
 272 0156 DAB2     		uxtb	r2, r3
 273 0158 009B     		ldr	r3, [sp]
 274 015a 1A70     		strb	r2, [r3]
 275              		.loc 1 158 0
 276 015c 0123     		movs	r3, #1
 277              	.L17:
 278              		.loc 1 159 0
 279 015e 1846     		mov	r0, r3
 280 0160 03B0     		add	sp, sp, #12
 281              		@ sp needed
ARM GAS  /tmp/ccVYwGiK.s 			page 6


 282 0162 5DF804FB 		ldr	pc, [sp], #4
 283              		.cfi_endproc
 284              	.LFE4:
 285              		.size	LSM303AGR_ACC_R_BlockDataUpdate, .-LSM303AGR_ACC_R_BlockDataUpdate
 286 0166 00BF     		.align	2
 287 0168 AFF30080 		.p2align 4,,15
 287      AFF30080 
 288              		.global	LSM303AGR_ACC_W_FullScale
 289              		.thumb
 290              		.thumb_func
 291              		.type	LSM303AGR_ACC_W_FullScale, %function
 292              	LSM303AGR_ACC_W_FullScale:
 293              	.LFB5:
 294              		.loc 1 169 0
 295              		.cfi_startproc
 296              		@ args = 0, pretend = 0, frame = 16
 297              		@ frame_needed = 0, uses_anonymous_args = 0
 298 0170 00B5     		push	{lr}
 299              		.cfi_def_cfa_offset 4
 300              		.cfi_offset 14, -4
 301 0172 85B0     		sub	sp, sp, #20
 302              		.cfi_def_cfa_offset 24
 303 0174 0190     		str	r0, [sp, #4]
 304 0176 0B46     		mov	r3, r1
 305 0178 8DF80330 		strb	r3, [sp, #3]
 306              		.loc 1 172 0
 307 017c 0DF10F03 		add	r3, sp, #15
 308 0180 0198     		ldr	r0, [sp, #4]
 309 0182 2321     		movs	r1, #35
 310 0184 1A46     		mov	r2, r3
 311 0186 0123     		movs	r3, #1
 312 0188 FFF7FEFF 		bl	LSM303AGR_ACC_ReadReg
 313 018c 0346     		mov	r3, r0
 314 018e 002B     		cmp	r3, #0
 315 0190 01D1     		bne	.L19
 316              		.loc 1 173 0
 317 0192 0023     		movs	r3, #0
 318 0194 1CE0     		b	.L22
 319              	.L19:
 320              		.loc 1 175 0
 321 0196 9DF80F30 		ldrb	r3, [sp, #15]	@ zero_extendqisi2
 322 019a 23F03003 		bic	r3, r3, #48
 323 019e DBB2     		uxtb	r3, r3
 324 01a0 8DF80F30 		strb	r3, [sp, #15]
 325              		.loc 1 176 0
 326 01a4 9DF80F20 		ldrb	r2, [sp, #15]	@ zero_extendqisi2
 327 01a8 9DF80330 		ldrb	r3, [sp, #3]
 328 01ac 1343     		orrs	r3, r3, r2
 329 01ae DBB2     		uxtb	r3, r3
 330 01b0 8DF80F30 		strb	r3, [sp, #15]
 331              		.loc 1 178 0
 332 01b4 0DF10F03 		add	r3, sp, #15
 333 01b8 0198     		ldr	r0, [sp, #4]
 334 01ba 2321     		movs	r1, #35
 335 01bc 1A46     		mov	r2, r3
 336 01be 0123     		movs	r3, #1
 337 01c0 FFF7FEFF 		bl	LSM303AGR_ACC_WriteReg
ARM GAS  /tmp/ccVYwGiK.s 			page 7


 338 01c4 0346     		mov	r3, r0
 339 01c6 002B     		cmp	r3, #0
 340 01c8 01D1     		bne	.L21
 341              		.loc 1 179 0
 342 01ca 0023     		movs	r3, #0
 343 01cc 00E0     		b	.L22
 344              	.L21:
 345              		.loc 1 181 0
 346 01ce 0123     		movs	r3, #1
 347              	.L22:
 348              		.loc 1 182 0
 349 01d0 1846     		mov	r0, r3
 350 01d2 05B0     		add	sp, sp, #20
 351              		@ sp needed
 352 01d4 5DF804FB 		ldr	pc, [sp], #4
 353              		.cfi_endproc
 354              	.LFE5:
 355              		.size	LSM303AGR_ACC_W_FullScale, .-LSM303AGR_ACC_W_FullScale
 356              		.align	2
 357 01d8 AFF30080 		.p2align 4,,15
 357      AFF30080 
 358              		.global	LSM303AGR_ACC_R_FullScale
 359              		.thumb
 360              		.thumb_func
 361              		.type	LSM303AGR_ACC_R_FullScale, %function
 362              	LSM303AGR_ACC_R_FullScale:
 363              	.LFB6:
 364              		.loc 1 192 0
 365              		.cfi_startproc
 366              		@ args = 0, pretend = 0, frame = 8
 367              		@ frame_needed = 0, uses_anonymous_args = 0
 368 01e0 00B5     		push	{lr}
 369              		.cfi_def_cfa_offset 4
 370              		.cfi_offset 14, -4
 371 01e2 83B0     		sub	sp, sp, #12
 372              		.cfi_def_cfa_offset 16
 373 01e4 0190     		str	r0, [sp, #4]
 374 01e6 0091     		str	r1, [sp]
 375              		.loc 1 193 0
 376 01e8 0198     		ldr	r0, [sp, #4]
 377 01ea 2321     		movs	r1, #35
 378 01ec 009A     		ldr	r2, [sp]
 379 01ee 0123     		movs	r3, #1
 380 01f0 FFF7FEFF 		bl	LSM303AGR_ACC_ReadReg
 381 01f4 0346     		mov	r3, r0
 382 01f6 002B     		cmp	r3, #0
 383 01f8 01D1     		bne	.L24
 384              		.loc 1 194 0
 385 01fa 0023     		movs	r3, #0
 386 01fc 07E0     		b	.L25
 387              	.L24:
 388              		.loc 1 196 0
 389 01fe 009B     		ldr	r3, [sp]
 390 0200 1B78     		ldrb	r3, [r3]	@ zero_extendqisi2
 391 0202 03F03003 		and	r3, r3, #48
 392 0206 DAB2     		uxtb	r2, r3
 393 0208 009B     		ldr	r3, [sp]
ARM GAS  /tmp/ccVYwGiK.s 			page 8


 394 020a 1A70     		strb	r2, [r3]
 395              		.loc 1 198 0
 396 020c 0123     		movs	r3, #1
 397              	.L25:
 398              		.loc 1 199 0
 399 020e 1846     		mov	r0, r3
 400 0210 03B0     		add	sp, sp, #12
 401              		@ sp needed
 402 0212 5DF804FB 		ldr	pc, [sp], #4
 403              		.cfi_endproc
 404              	.LFE6:
 405              		.size	LSM303AGR_ACC_R_FullScale, .-LSM303AGR_ACC_R_FullScale
 406 0216 00BF     		.align	2
 407 0218 AFF30080 		.p2align 4,,15
 407      AFF30080 
 408              		.global	LSM303AGR_ACC_Get_Raw_Acceleration
 409              		.thumb
 410              		.thumb_func
 411              		.type	LSM303AGR_ACC_Get_Raw_Acceleration, %function
 412              	LSM303AGR_ACC_Get_Raw_Acceleration:
 413              	.LFB7:
 414              		.loc 1 209 0
 415              		.cfi_startproc
 416              		@ args = 0, pretend = 0, frame = 8
 417              		@ frame_needed = 0, uses_anonymous_args = 0
 418 0220 00B5     		push	{lr}
 419              		.cfi_def_cfa_offset 4
 420              		.cfi_offset 14, -4
 421 0222 83B0     		sub	sp, sp, #12
 422              		.cfi_def_cfa_offset 16
 423 0224 0190     		str	r0, [sp, #4]
 424 0226 0091     		str	r1, [sp]
 425              		.loc 1 210 0
 426 0228 0198     		ldr	r0, [sp, #4]
 427 022a 2821     		movs	r1, #40
 428 022c 009A     		ldr	r2, [sp]
 429 022e 0623     		movs	r3, #6
 430 0230 FFF7FEFF 		bl	LSM303AGR_ACC_ReadReg
 431 0234 0346     		mov	r3, r0
 432 0236 002B     		cmp	r3, #0
 433 0238 01D1     		bne	.L27
 434              		.loc 1 211 0
 435 023a 0023     		movs	r3, #0
 436 023c 00E0     		b	.L28
 437              	.L27:
 438              		.loc 1 213 0
 439 023e 0123     		movs	r3, #1
 440              	.L28:
 441              		.loc 1 214 0
 442 0240 1846     		mov	r0, r3
 443 0242 03B0     		add	sp, sp, #12
 444              		@ sp needed
 445 0244 5DF804FB 		ldr	pc, [sp], #4
 446              		.cfi_endproc
 447              	.LFE7:
 448              		.size	LSM303AGR_ACC_Get_Raw_Acceleration, .-LSM303AGR_ACC_Get_Raw_Acceleration
 449              		.global	LSM303AGR_ACC_Sensitivity_List
ARM GAS  /tmp/ccVYwGiK.s 			page 9


 450              		.section	.rodata
 451              		.align	3
 452              		.type	LSM303AGR_ACC_Sensitivity_List, %object
 453              		.size	LSM303AGR_ACC_Sensitivity_List, 96
 454              	LSM303AGR_ACC_Sensitivity_List:
 455 0000 D4030000 		.word	980
 456 0004 00000000 		.word	0
 457 0008 9E070000 		.word	1950
 458 000c 00000000 		.word	0
 459 0010 3C0F0000 		.word	3900
 460 0014 00000000 		.word	0
 461 0018 C82D0000 		.word	11720
 462 001c 00000000 		.word	0
 463 0020 3C0F0000 		.word	3900
 464 0024 00000000 		.word	0
 465 0028 8C1E0000 		.word	7820
 466 002c 00000000 		.word	0
 467 0030 0E3D0000 		.word	15630
 468 0034 00000000 		.word	0
 469 0038 34B70000 		.word	46900
 470 003c 00000000 		.word	0
 471 0040 0E3D0000 		.word	15630
 472 0044 00000000 		.word	0
 473 0048 1C7A0000 		.word	31260
 474 004c 00000000 		.word	0
 475 0050 38F40000 		.word	62520
 476 0054 00000000 		.word	0
 477 0058 BCDC0200 		.word	187580
 478 005c 00000000 		.word	0
 479              		.global	__aeabi_ldivmod
 480              		.text
 481              		.align	2
 482 0248 AFF30080 		.p2align 4,,15
 482      AFF30080 
 483              		.global	LSM303AGR_ACC_Get_Acceleration
 484              		.thumb
 485              		.thumb_func
 486              		.type	LSM303AGR_ACC_Get_Acceleration, %function
 487              	LSM303AGR_ACC_Get_Acceleration:
 488              	.LFB8:
 489              		.loc 1 254 0
 490              		.cfi_startproc
 491              		@ args = 0, pretend = 0, frame = 24
 492              		@ frame_needed = 0, uses_anonymous_args = 0
 493 0250 70B5     		push	{r4, r5, r6, lr}
 494              		.cfi_def_cfa_offset 16
 495              		.cfi_offset 4, -16
 496              		.cfi_offset 5, -12
 497              		.cfi_offset 6, -8
 498              		.cfi_offset 14, -4
 499 0252 86B0     		sub	sp, sp, #24
 500              		.cfi_def_cfa_offset 40
 501 0254 0190     		str	r0, [sp, #4]
 502 0256 0091     		str	r1, [sp]
 503              		.loc 1 256 0
 504 0258 0023     		movs	r3, #0
 505 025a 8DF81730 		strb	r3, [sp, #23]
ARM GAS  /tmp/ccVYwGiK.s 			page 10


 506 025e 0023     		movs	r3, #0
 507 0260 8DF81630 		strb	r3, [sp, #22]
 508 0264 0023     		movs	r3, #0
 509 0266 8DF81530 		strb	r3, [sp, #21]
 510              		.loc 1 262 0
 511 026a 0DF10A03 		add	r3, sp, #10
 512 026e 0198     		ldr	r0, [sp, #4]
 513 0270 1946     		mov	r1, r3
 514 0272 FFF7FEFF 		bl	LSM303AGR_ACC_R_HiRes
 515              		.loc 1 263 0
 516 0276 0DF10B03 		add	r3, sp, #11
 517 027a 0198     		ldr	r0, [sp, #4]
 518 027c 1946     		mov	r1, r3
 519 027e FFF7FEFF 		bl	LSM303AGR_ACC_R_LOWPWR_EN
 520              		.loc 1 265 0
 521 0282 9DF80B30 		ldrb	r3, [sp, #11]	@ zero_extendqisi2
 522 0286 082B     		cmp	r3, #8
 523 0288 0AD1     		bne	.L30
 524              		.loc 1 265 0 is_stmt 0 discriminator 1
 525 028a 9DF80A30 		ldrb	r3, [sp, #10]	@ zero_extendqisi2
 526 028e 002B     		cmp	r3, #0
 527 0290 06D1     		bne	.L30
 528              		.loc 1 268 0 is_stmt 1
 529 0292 0223     		movs	r3, #2
 530 0294 8DF81730 		strb	r3, [sp, #23]
 531              		.loc 1 269 0
 532 0298 0823     		movs	r3, #8
 533 029a 8DF81530 		strb	r3, [sp, #21]
 534 029e 1FE0     		b	.L31
 535              	.L30:
 536              		.loc 1 271 0
 537 02a0 9DF80B30 		ldrb	r3, [sp, #11]	@ zero_extendqisi2
 538 02a4 002B     		cmp	r3, #0
 539 02a6 0AD1     		bne	.L32
 540              		.loc 1 271 0 is_stmt 0 discriminator 1
 541 02a8 9DF80A30 		ldrb	r3, [sp, #10]	@ zero_extendqisi2
 542 02ac 002B     		cmp	r3, #0
 543 02ae 06D1     		bne	.L32
 544              		.loc 1 274 0 is_stmt 1
 545 02b0 0123     		movs	r3, #1
 546 02b2 8DF81730 		strb	r3, [sp, #23]
 547              		.loc 1 275 0
 548 02b6 0623     		movs	r3, #6
 549 02b8 8DF81530 		strb	r3, [sp, #21]
 550 02bc 10E0     		b	.L31
 551              	.L32:
 552              		.loc 1 277 0
 553 02be 9DF80B30 		ldrb	r3, [sp, #11]	@ zero_extendqisi2
 554 02c2 002B     		cmp	r3, #0
 555 02c4 0AD1     		bne	.L33
 556              		.loc 1 277 0 is_stmt 0 discriminator 1
 557 02c6 9DF80A30 		ldrb	r3, [sp, #10]	@ zero_extendqisi2
 558 02ca 082B     		cmp	r3, #8
 559 02cc 06D1     		bne	.L33
 560              		.loc 1 280 0 is_stmt 1
 561 02ce 0023     		movs	r3, #0
 562 02d0 8DF81730 		strb	r3, [sp, #23]
ARM GAS  /tmp/ccVYwGiK.s 			page 11


 563              		.loc 1 281 0
 564 02d4 0423     		movs	r3, #4
 565 02d6 8DF81530 		strb	r3, [sp, #21]
 566 02da 01E0     		b	.L31
 567              	.L33:
 568              		.loc 1 284 0
 569 02dc 0023     		movs	r3, #0
 570 02de B8E0     		b	.L41
 571              	.L31:
 572              		.loc 1 287 0
 573 02e0 0DF10903 		add	r3, sp, #9
 574 02e4 0198     		ldr	r0, [sp, #4]
 575 02e6 1946     		mov	r1, r3
 576 02e8 FFF7FEFF 		bl	LSM303AGR_ACC_R_FullScale
 577              		.loc 1 288 0
 578 02ec 9DF80930 		ldrb	r3, [sp, #9]	@ zero_extendqisi2
 579 02f0 102B     		cmp	r3, #16
 580 02f2 0DD0     		beq	.L36
 581 02f4 102B     		cmp	r3, #16
 582 02f6 02DC     		bgt	.L37
 583 02f8 002B     		cmp	r3, #0
 584 02fa 05D0     		beq	.L38
 585 02fc 14E0     		b	.L35
 586              	.L37:
 587 02fe 202B     		cmp	r3, #32
 588 0300 0AD0     		beq	.L39
 589 0302 302B     		cmp	r3, #48
 590 0304 0CD0     		beq	.L40
 591 0306 0FE0     		b	.L35
 592              	.L38:
 593              		.loc 1 291 0
 594 0308 0023     		movs	r3, #0
 595 030a 8DF81630 		strb	r3, [sp, #22]
 596              		.loc 1 292 0
 597 030e 0BE0     		b	.L35
 598              	.L36:
 599              		.loc 1 295 0
 600 0310 0123     		movs	r3, #1
 601 0312 8DF81630 		strb	r3, [sp, #22]
 602              		.loc 1 296 0
 603 0316 07E0     		b	.L35
 604              	.L39:
 605              		.loc 1 299 0
 606 0318 0223     		movs	r3, #2
 607 031a 8DF81630 		strb	r3, [sp, #22]
 608              		.loc 1 300 0
 609 031e 03E0     		b	.L35
 610              	.L40:
 611              		.loc 1 303 0
 612 0320 0323     		movs	r3, #3
 613 0322 8DF81630 		strb	r3, [sp, #22]
 614              		.loc 1 304 0
 615 0326 00BF     		nop
 616              	.L35:
 617              		.loc 1 308 0
 618 0328 03AB     		add	r3, sp, #12
 619 032a 0198     		ldr	r0, [sp, #4]
ARM GAS  /tmp/ccVYwGiK.s 			page 12


 620 032c 1946     		mov	r1, r3
 621 032e FFF7FEFF 		bl	LSM303AGR_ACC_Get_Raw_Acceleration
 622              		.loc 1 311 0
 623 0332 BDF80C30 		ldrh	r3, [sp, #12]
 624 0336 1AB2     		sxth	r2, r3
 625 0338 9DF81530 		ldrb	r3, [sp, #21]	@ zero_extendqisi2
 626 033c 42FA03F3 		asr	r3, r2, r3
 627 0340 1846     		mov	r0, r3
 628 0342 4FEAE071 		asr	r1, r0, #31
 629 0346 9DF81740 		ldrb	r4, [sp, #23]	@ zero_extendqisi2
 630 034a 9DF81630 		ldrb	r3, [sp, #22]	@ zero_extendqisi2
 631 034e 424A     		ldr	r2, .L42
 632 0350 A400     		lsls	r4, r4, #2
 633 0352 2344     		add	r3, r3, r4
 634 0354 DB00     		lsls	r3, r3, #3
 635 0356 1344     		add	r3, r3, r2
 636 0358 D3E90023 		ldrd	r2, [r3]
 637 035c 02FB01F5 		mul	r5, r2, r1
 638 0360 00FB03F4 		mul	r4, r0, r3
 639 0364 2C44     		add	r4, r4, r5
 640 0366 A0FB0223 		umull	r2, r3, r0, r2
 641 036a E118     		adds	r1, r4, r3
 642 036c 0B46     		mov	r3, r1
 643 036e 12F5FA72 		adds	r2, r2, #500
 644 0372 43F10003 		adc	r3, r3, #0
 645 0376 1046     		mov	r0, r2
 646 0378 1946     		mov	r1, r3
 647 037a 4FF47A72 		mov	r2, #1000
 648 037e 4FF00003 		mov	r3, #0
 649 0382 FFF7FEFF 		bl	__aeabi_ldivmod
 650 0386 0246     		mov	r2, r0
 651 0388 0B46     		mov	r3, r1
 652 038a 009B     		ldr	r3, [sp]
 653 038c 1A60     		str	r2, [r3]
 654              		.loc 1 312 0
 655 038e 009B     		ldr	r3, [sp]
 656 0390 1C1D     		adds	r4, r3, #4
 657 0392 BDF80E30 		ldrh	r3, [sp, #14]
 658 0396 1AB2     		sxth	r2, r3
 659 0398 9DF81530 		ldrb	r3, [sp, #21]	@ zero_extendqisi2
 660 039c 42FA03F3 		asr	r3, r2, r3
 661 03a0 1846     		mov	r0, r3
 662 03a2 4FEAE071 		asr	r1, r0, #31
 663 03a6 9DF81750 		ldrb	r5, [sp, #23]	@ zero_extendqisi2
 664 03aa 9DF81630 		ldrb	r3, [sp, #22]	@ zero_extendqisi2
 665 03ae 2A4A     		ldr	r2, .L42
 666 03b0 AD00     		lsls	r5, r5, #2
 667 03b2 2B44     		add	r3, r3, r5
 668 03b4 DB00     		lsls	r3, r3, #3
 669 03b6 1344     		add	r3, r3, r2
 670 03b8 D3E90023 		ldrd	r2, [r3]
 671 03bc 02FB01F6 		mul	r6, r2, r1
 672 03c0 00FB03F5 		mul	r5, r0, r3
 673 03c4 3544     		add	r5, r5, r6
 674 03c6 A0FB0223 		umull	r2, r3, r0, r2
 675 03ca E918     		adds	r1, r5, r3
 676 03cc 0B46     		mov	r3, r1
ARM GAS  /tmp/ccVYwGiK.s 			page 13


 677 03ce 12F5FA72 		adds	r2, r2, #500
 678 03d2 43F10003 		adc	r3, r3, #0
 679 03d6 1046     		mov	r0, r2
 680 03d8 1946     		mov	r1, r3
 681 03da 4FF47A72 		mov	r2, #1000
 682 03de 4FF00003 		mov	r3, #0
 683 03e2 FFF7FEFF 		bl	__aeabi_ldivmod
 684 03e6 0246     		mov	r2, r0
 685 03e8 0B46     		mov	r3, r1
 686 03ea 1346     		mov	r3, r2
 687 03ec 2360     		str	r3, [r4]
 688              		.loc 1 313 0
 689 03ee 009B     		ldr	r3, [sp]
 690 03f0 03F10804 		add	r4, r3, #8
 691 03f4 BDF81030 		ldrh	r3, [sp, #16]
 692 03f8 1AB2     		sxth	r2, r3
 693 03fa 9DF81530 		ldrb	r3, [sp, #21]	@ zero_extendqisi2
 694 03fe 42FA03F3 		asr	r3, r2, r3
 695 0402 1846     		mov	r0, r3
 696 0404 4FEAE071 		asr	r1, r0, #31
 697 0408 9DF81750 		ldrb	r5, [sp, #23]	@ zero_extendqisi2
 698 040c 9DF81630 		ldrb	r3, [sp, #22]	@ zero_extendqisi2
 699 0410 114A     		ldr	r2, .L42
 700 0412 AD00     		lsls	r5, r5, #2
 701 0414 2B44     		add	r3, r3, r5
 702 0416 DB00     		lsls	r3, r3, #3
 703 0418 1344     		add	r3, r3, r2
 704 041a D3E90023 		ldrd	r2, [r3]
 705 041e 02FB01F6 		mul	r6, r2, r1
 706 0422 00FB03F5 		mul	r5, r0, r3
 707 0426 3544     		add	r5, r5, r6
 708 0428 A0FB0223 		umull	r2, r3, r0, r2
 709 042c E918     		adds	r1, r5, r3
 710 042e 0B46     		mov	r3, r1
 711 0430 12F5FA72 		adds	r2, r2, #500
 712 0434 43F10003 		adc	r3, r3, #0
 713 0438 1046     		mov	r0, r2
 714 043a 1946     		mov	r1, r3
 715 043c 4FF47A72 		mov	r2, #1000
 716 0440 4FF00003 		mov	r3, #0
 717 0444 FFF7FEFF 		bl	__aeabi_ldivmod
 718 0448 0246     		mov	r2, r0
 719 044a 0B46     		mov	r3, r1
 720 044c 1346     		mov	r3, r2
 721 044e 2360     		str	r3, [r4]
 722              		.loc 1 315 0
 723 0450 0123     		movs	r3, #1
 724              	.L41:
 725              		.loc 1 316 0
 726 0452 1846     		mov	r0, r3
 727 0454 06B0     		add	sp, sp, #24
 728              		@ sp needed
 729 0456 70BD     		pop	{r4, r5, r6, pc}
 730              	.L43:
 731              		.align	2
 732              	.L42:
 733 0458 00000000 		.word	LSM303AGR_ACC_Sensitivity_List
ARM GAS  /tmp/ccVYwGiK.s 			page 14


 734              		.cfi_endproc
 735              	.LFE8:
 736              		.size	LSM303AGR_ACC_Get_Acceleration, .-LSM303AGR_ACC_Get_Acceleration
 737              		.align	2
 738 045c AFF30080 		.p2align 4,,15
 739              		.global	LSM303AGR_ACC_W_ODR
 740              		.thumb
 741              		.thumb_func
 742              		.type	LSM303AGR_ACC_W_ODR, %function
 743              	LSM303AGR_ACC_W_ODR:
 744              	.LFB9:
 745              		.loc 1 326 0
 746              		.cfi_startproc
 747              		@ args = 0, pretend = 0, frame = 16
 748              		@ frame_needed = 0, uses_anonymous_args = 0
 749 0460 00B5     		push	{lr}
 750              		.cfi_def_cfa_offset 4
 751              		.cfi_offset 14, -4
 752 0462 85B0     		sub	sp, sp, #20
 753              		.cfi_def_cfa_offset 24
 754 0464 0190     		str	r0, [sp, #4]
 755 0466 0B46     		mov	r3, r1
 756 0468 8DF80330 		strb	r3, [sp, #3]
 757              		.loc 1 329 0
 758 046c 0DF10F03 		add	r3, sp, #15
 759 0470 0198     		ldr	r0, [sp, #4]
 760 0472 2021     		movs	r1, #32
 761 0474 1A46     		mov	r2, r3
 762 0476 0123     		movs	r3, #1
 763 0478 FFF7FEFF 		bl	LSM303AGR_ACC_ReadReg
 764 047c 0346     		mov	r3, r0
 765 047e 002B     		cmp	r3, #0
 766 0480 01D1     		bne	.L45
 767              		.loc 1 330 0
 768 0482 0023     		movs	r3, #0
 769 0484 1CE0     		b	.L48
 770              	.L45:
 771              		.loc 1 332 0
 772 0486 9DF80F30 		ldrb	r3, [sp, #15]	@ zero_extendqisi2
 773 048a 03F00F03 		and	r3, r3, #15
 774 048e DBB2     		uxtb	r3, r3
 775 0490 8DF80F30 		strb	r3, [sp, #15]
 776              		.loc 1 333 0
 777 0494 9DF80F20 		ldrb	r2, [sp, #15]	@ zero_extendqisi2
 778 0498 9DF80330 		ldrb	r3, [sp, #3]
 779 049c 1343     		orrs	r3, r3, r2
 780 049e DBB2     		uxtb	r3, r3
 781 04a0 8DF80F30 		strb	r3, [sp, #15]
 782              		.loc 1 335 0
 783 04a4 0DF10F03 		add	r3, sp, #15
 784 04a8 0198     		ldr	r0, [sp, #4]
 785 04aa 2021     		movs	r1, #32
 786 04ac 1A46     		mov	r2, r3
 787 04ae 0123     		movs	r3, #1
 788 04b0 FFF7FEFF 		bl	LSM303AGR_ACC_WriteReg
 789 04b4 0346     		mov	r3, r0
 790 04b6 002B     		cmp	r3, #0
ARM GAS  /tmp/ccVYwGiK.s 			page 15


 791 04b8 01D1     		bne	.L47
 792              		.loc 1 336 0
 793 04ba 0023     		movs	r3, #0
 794 04bc 00E0     		b	.L48
 795              	.L47:
 796              		.loc 1 338 0
 797 04be 0123     		movs	r3, #1
 798              	.L48:
 799              		.loc 1 339 0
 800 04c0 1846     		mov	r0, r3
 801 04c2 05B0     		add	sp, sp, #20
 802              		@ sp needed
 803 04c4 5DF804FB 		ldr	pc, [sp], #4
 804              		.cfi_endproc
 805              	.LFE9:
 806              		.size	LSM303AGR_ACC_W_ODR, .-LSM303AGR_ACC_W_ODR
 807              		.align	2
 808 04c8 AFF30080 		.p2align 4,,15
 808      AFF30080 
 809              		.global	LSM303AGR_ACC_R_ODR
 810              		.thumb
 811              		.thumb_func
 812              		.type	LSM303AGR_ACC_R_ODR, %function
 813              	LSM303AGR_ACC_R_ODR:
 814              	.LFB10:
 815              		.loc 1 349 0
 816              		.cfi_startproc
 817              		@ args = 0, pretend = 0, frame = 8
 818              		@ frame_needed = 0, uses_anonymous_args = 0
 819 04d0 00B5     		push	{lr}
 820              		.cfi_def_cfa_offset 4
 821              		.cfi_offset 14, -4
 822 04d2 83B0     		sub	sp, sp, #12
 823              		.cfi_def_cfa_offset 16
 824 04d4 0190     		str	r0, [sp, #4]
 825 04d6 0091     		str	r1, [sp]
 826              		.loc 1 350 0
 827 04d8 0198     		ldr	r0, [sp, #4]
 828 04da 2021     		movs	r1, #32
 829 04dc 009A     		ldr	r2, [sp]
 830 04de 0123     		movs	r3, #1
 831 04e0 FFF7FEFF 		bl	LSM303AGR_ACC_ReadReg
 832 04e4 0346     		mov	r3, r0
 833 04e6 002B     		cmp	r3, #0
 834 04e8 01D1     		bne	.L50
 835              		.loc 1 351 0
 836 04ea 0023     		movs	r3, #0
 837 04ec 07E0     		b	.L51
 838              	.L50:
 839              		.loc 1 353 0
 840 04ee 009B     		ldr	r3, [sp]
 841 04f0 1B78     		ldrb	r3, [r3]	@ zero_extendqisi2
 842 04f2 23F00F03 		bic	r3, r3, #15
 843 04f6 DAB2     		uxtb	r2, r3
 844 04f8 009B     		ldr	r3, [sp]
 845 04fa 1A70     		strb	r2, [r3]
 846              		.loc 1 355 0
ARM GAS  /tmp/ccVYwGiK.s 			page 16


 847 04fc 0123     		movs	r3, #1
 848              	.L51:
 849              		.loc 1 356 0
 850 04fe 1846     		mov	r0, r3
 851 0500 03B0     		add	sp, sp, #12
 852              		@ sp needed
 853 0502 5DF804FB 		ldr	pc, [sp], #4
 854              		.cfi_endproc
 855              	.LFE10:
 856              		.size	LSM303AGR_ACC_R_ODR, .-LSM303AGR_ACC_R_ODR
 857 0506 00BF     		.align	2
 858 0508 AFF30080 		.p2align 4,,15
 858      AFF30080 
 859              		.global	LSM303AGR_ACC_R_x_data_avail
 860              		.thumb
 861              		.thumb_func
 862              		.type	LSM303AGR_ACC_R_x_data_avail, %function
 863              	LSM303AGR_ACC_R_x_data_avail:
 864              	.LFB11:
 865              		.loc 1 368 0
 866              		.cfi_startproc
 867              		@ args = 0, pretend = 0, frame = 8
 868              		@ frame_needed = 0, uses_anonymous_args = 0
 869 0510 00B5     		push	{lr}
 870              		.cfi_def_cfa_offset 4
 871              		.cfi_offset 14, -4
 872 0512 83B0     		sub	sp, sp, #12
 873              		.cfi_def_cfa_offset 16
 874 0514 0190     		str	r0, [sp, #4]
 875 0516 0091     		str	r1, [sp]
 876              		.loc 1 369 0
 877 0518 0198     		ldr	r0, [sp, #4]
 878 051a 0721     		movs	r1, #7
 879 051c 009A     		ldr	r2, [sp]
 880 051e 0123     		movs	r3, #1
 881 0520 FFF7FEFF 		bl	LSM303AGR_ACC_ReadReg
 882 0524 0346     		mov	r3, r0
 883 0526 002B     		cmp	r3, #0
 884 0528 01D1     		bne	.L53
 885              		.loc 1 370 0
 886 052a 0023     		movs	r3, #0
 887 052c 07E0     		b	.L54
 888              	.L53:
 889              		.loc 1 372 0
 890 052e 009B     		ldr	r3, [sp]
 891 0530 1B78     		ldrb	r3, [r3]	@ zero_extendqisi2
 892 0532 03F00103 		and	r3, r3, #1
 893 0536 DAB2     		uxtb	r2, r3
 894 0538 009B     		ldr	r3, [sp]
 895 053a 1A70     		strb	r2, [r3]
 896              		.loc 1 374 0
 897 053c 0123     		movs	r3, #1
 898              	.L54:
 899              		.loc 1 375 0
 900 053e 1846     		mov	r0, r3
 901 0540 03B0     		add	sp, sp, #12
 902              		@ sp needed
ARM GAS  /tmp/ccVYwGiK.s 			page 17


 903 0542 5DF804FB 		ldr	pc, [sp], #4
 904              		.cfi_endproc
 905              	.LFE11:
 906              		.size	LSM303AGR_ACC_R_x_data_avail, .-LSM303AGR_ACC_R_x_data_avail
 907 0546 00BF     		.align	2
 908 0548 AFF30080 		.p2align 4,,15
 908      AFF30080 
 909              		.global	LSM303AGR_ACC_R_y_data_avail
 910              		.thumb
 911              		.thumb_func
 912              		.type	LSM303AGR_ACC_R_y_data_avail, %function
 913              	LSM303AGR_ACC_R_y_data_avail:
 914              	.LFB12:
 915              		.loc 1 385 0
 916              		.cfi_startproc
 917              		@ args = 0, pretend = 0, frame = 8
 918              		@ frame_needed = 0, uses_anonymous_args = 0
 919 0550 00B5     		push	{lr}
 920              		.cfi_def_cfa_offset 4
 921              		.cfi_offset 14, -4
 922 0552 83B0     		sub	sp, sp, #12
 923              		.cfi_def_cfa_offset 16
 924 0554 0190     		str	r0, [sp, #4]
 925 0556 0091     		str	r1, [sp]
 926              		.loc 1 386 0
 927 0558 0198     		ldr	r0, [sp, #4]
 928 055a 0721     		movs	r1, #7
 929 055c 009A     		ldr	r2, [sp]
 930 055e 0123     		movs	r3, #1
 931 0560 FFF7FEFF 		bl	LSM303AGR_ACC_ReadReg
 932 0564 0346     		mov	r3, r0
 933 0566 002B     		cmp	r3, #0
 934 0568 01D1     		bne	.L56
 935              		.loc 1 387 0
 936 056a 0023     		movs	r3, #0
 937 056c 07E0     		b	.L57
 938              	.L56:
 939              		.loc 1 389 0
 940 056e 009B     		ldr	r3, [sp]
 941 0570 1B78     		ldrb	r3, [r3]	@ zero_extendqisi2
 942 0572 03F00203 		and	r3, r3, #2
 943 0576 DAB2     		uxtb	r2, r3
 944 0578 009B     		ldr	r3, [sp]
 945 057a 1A70     		strb	r2, [r3]
 946              		.loc 1 391 0
 947 057c 0123     		movs	r3, #1
 948              	.L57:
 949              		.loc 1 392 0
 950 057e 1846     		mov	r0, r3
 951 0580 03B0     		add	sp, sp, #12
 952              		@ sp needed
 953 0582 5DF804FB 		ldr	pc, [sp], #4
 954              		.cfi_endproc
 955              	.LFE12:
 956              		.size	LSM303AGR_ACC_R_y_data_avail, .-LSM303AGR_ACC_R_y_data_avail
 957 0586 00BF     		.align	2
 958 0588 AFF30080 		.p2align 4,,15
ARM GAS  /tmp/ccVYwGiK.s 			page 18


 958      AFF30080 
 959              		.global	LSM303AGR_ACC_R_z_data_avail
 960              		.thumb
 961              		.thumb_func
 962              		.type	LSM303AGR_ACC_R_z_data_avail, %function
 963              	LSM303AGR_ACC_R_z_data_avail:
 964              	.LFB13:
 965              		.loc 1 402 0
 966              		.cfi_startproc
 967              		@ args = 0, pretend = 0, frame = 8
 968              		@ frame_needed = 0, uses_anonymous_args = 0
 969 0590 00B5     		push	{lr}
 970              		.cfi_def_cfa_offset 4
 971              		.cfi_offset 14, -4
 972 0592 83B0     		sub	sp, sp, #12
 973              		.cfi_def_cfa_offset 16
 974 0594 0190     		str	r0, [sp, #4]
 975 0596 0091     		str	r1, [sp]
 976              		.loc 1 403 0
 977 0598 0198     		ldr	r0, [sp, #4]
 978 059a 0721     		movs	r1, #7
 979 059c 009A     		ldr	r2, [sp]
 980 059e 0123     		movs	r3, #1
 981 05a0 FFF7FEFF 		bl	LSM303AGR_ACC_ReadReg
 982 05a4 0346     		mov	r3, r0
 983 05a6 002B     		cmp	r3, #0
 984 05a8 01D1     		bne	.L59
 985              		.loc 1 404 0
 986 05aa 0023     		movs	r3, #0
 987 05ac 07E0     		b	.L60
 988              	.L59:
 989              		.loc 1 406 0
 990 05ae 009B     		ldr	r3, [sp]
 991 05b0 1B78     		ldrb	r3, [r3]	@ zero_extendqisi2
 992 05b2 03F00403 		and	r3, r3, #4
 993 05b6 DAB2     		uxtb	r2, r3
 994 05b8 009B     		ldr	r3, [sp]
 995 05ba 1A70     		strb	r2, [r3]
 996              		.loc 1 408 0
 997 05bc 0123     		movs	r3, #1
 998              	.L60:
 999              		.loc 1 409 0
 1000 05be 1846     		mov	r0, r3
 1001 05c0 03B0     		add	sp, sp, #12
 1002              		@ sp needed
 1003 05c2 5DF804FB 		ldr	pc, [sp], #4
 1004              		.cfi_endproc
 1005              	.LFE13:
 1006              		.size	LSM303AGR_ACC_R_z_data_avail, .-LSM303AGR_ACC_R_z_data_avail
 1007 05c6 00BF     		.align	2
 1008 05c8 AFF30080 		.p2align 4,,15
 1008      AFF30080 
 1009              		.global	LSM303AGR_ACC_R_xyz_data_avail
 1010              		.thumb
 1011              		.thumb_func
 1012              		.type	LSM303AGR_ACC_R_xyz_data_avail, %function
 1013              	LSM303AGR_ACC_R_xyz_data_avail:
ARM GAS  /tmp/ccVYwGiK.s 			page 19


 1014              	.LFB14:
 1015              		.loc 1 419 0
 1016              		.cfi_startproc
 1017              		@ args = 0, pretend = 0, frame = 8
 1018              		@ frame_needed = 0, uses_anonymous_args = 0
 1019 05d0 00B5     		push	{lr}
 1020              		.cfi_def_cfa_offset 4
 1021              		.cfi_offset 14, -4
 1022 05d2 83B0     		sub	sp, sp, #12
 1023              		.cfi_def_cfa_offset 16
 1024 05d4 0190     		str	r0, [sp, #4]
 1025 05d6 0091     		str	r1, [sp]
 1026              		.loc 1 420 0
 1027 05d8 0198     		ldr	r0, [sp, #4]
 1028 05da 0721     		movs	r1, #7
 1029 05dc 009A     		ldr	r2, [sp]
 1030 05de 0123     		movs	r3, #1
 1031 05e0 FFF7FEFF 		bl	LSM303AGR_ACC_ReadReg
 1032 05e4 0346     		mov	r3, r0
 1033 05e6 002B     		cmp	r3, #0
 1034 05e8 01D1     		bne	.L62
 1035              		.loc 1 421 0
 1036 05ea 0023     		movs	r3, #0
 1037 05ec 07E0     		b	.L63
 1038              	.L62:
 1039              		.loc 1 423 0
 1040 05ee 009B     		ldr	r3, [sp]
 1041 05f0 1B78     		ldrb	r3, [r3]	@ zero_extendqisi2
 1042 05f2 03F00803 		and	r3, r3, #8
 1043 05f6 DAB2     		uxtb	r2, r3
 1044 05f8 009B     		ldr	r3, [sp]
 1045 05fa 1A70     		strb	r2, [r3]
 1046              		.loc 1 425 0
 1047 05fc 0123     		movs	r3, #1
 1048              	.L63:
 1049              		.loc 1 426 0
 1050 05fe 1846     		mov	r0, r3
 1051 0600 03B0     		add	sp, sp, #12
 1052              		@ sp needed
 1053 0602 5DF804FB 		ldr	pc, [sp], #4
 1054              		.cfi_endproc
 1055              	.LFE14:
 1056              		.size	LSM303AGR_ACC_R_xyz_data_avail, .-LSM303AGR_ACC_R_xyz_data_avail
 1057 0606 00BF     		.align	2
 1058 0608 AFF30080 		.p2align 4,,15
 1058      AFF30080 
 1059              		.global	LSM303AGR_ACC_R_DataXOverrun
 1060              		.thumb
 1061              		.thumb_func
 1062              		.type	LSM303AGR_ACC_R_DataXOverrun, %function
 1063              	LSM303AGR_ACC_R_DataXOverrun:
 1064              	.LFB15:
 1065              		.loc 1 436 0
 1066              		.cfi_startproc
 1067              		@ args = 0, pretend = 0, frame = 8
 1068              		@ frame_needed = 0, uses_anonymous_args = 0
 1069 0610 00B5     		push	{lr}
ARM GAS  /tmp/ccVYwGiK.s 			page 20


 1070              		.cfi_def_cfa_offset 4
 1071              		.cfi_offset 14, -4
 1072 0612 83B0     		sub	sp, sp, #12
 1073              		.cfi_def_cfa_offset 16
 1074 0614 0190     		str	r0, [sp, #4]
 1075 0616 0091     		str	r1, [sp]
 1076              		.loc 1 437 0
 1077 0618 0198     		ldr	r0, [sp, #4]
 1078 061a 0721     		movs	r1, #7
 1079 061c 009A     		ldr	r2, [sp]
 1080 061e 0123     		movs	r3, #1
 1081 0620 FFF7FEFF 		bl	LSM303AGR_ACC_ReadReg
 1082 0624 0346     		mov	r3, r0
 1083 0626 002B     		cmp	r3, #0
 1084 0628 01D1     		bne	.L65
 1085              		.loc 1 438 0
 1086 062a 0023     		movs	r3, #0
 1087 062c 07E0     		b	.L66
 1088              	.L65:
 1089              		.loc 1 440 0
 1090 062e 009B     		ldr	r3, [sp]
 1091 0630 1B78     		ldrb	r3, [r3]	@ zero_extendqisi2
 1092 0632 03F01003 		and	r3, r3, #16
 1093 0636 DAB2     		uxtb	r2, r3
 1094 0638 009B     		ldr	r3, [sp]
 1095 063a 1A70     		strb	r2, [r3]
 1096              		.loc 1 442 0
 1097 063c 0123     		movs	r3, #1
 1098              	.L66:
 1099              		.loc 1 443 0
 1100 063e 1846     		mov	r0, r3
 1101 0640 03B0     		add	sp, sp, #12
 1102              		@ sp needed
 1103 0642 5DF804FB 		ldr	pc, [sp], #4
 1104              		.cfi_endproc
 1105              	.LFE15:
 1106              		.size	LSM303AGR_ACC_R_DataXOverrun, .-LSM303AGR_ACC_R_DataXOverrun
 1107 0646 00BF     		.align	2
 1108 0648 AFF30080 		.p2align 4,,15
 1108      AFF30080 
 1109              		.global	LSM303AGR_ACC_R_DataYOverrun
 1110              		.thumb
 1111              		.thumb_func
 1112              		.type	LSM303AGR_ACC_R_DataYOverrun, %function
 1113              	LSM303AGR_ACC_R_DataYOverrun:
 1114              	.LFB16:
 1115              		.loc 1 453 0
 1116              		.cfi_startproc
 1117              		@ args = 0, pretend = 0, frame = 8
 1118              		@ frame_needed = 0, uses_anonymous_args = 0
 1119 0650 00B5     		push	{lr}
 1120              		.cfi_def_cfa_offset 4
 1121              		.cfi_offset 14, -4
 1122 0652 83B0     		sub	sp, sp, #12
 1123              		.cfi_def_cfa_offset 16
 1124 0654 0190     		str	r0, [sp, #4]
 1125 0656 0091     		str	r1, [sp]
ARM GAS  /tmp/ccVYwGiK.s 			page 21


 1126              		.loc 1 454 0
 1127 0658 0198     		ldr	r0, [sp, #4]
 1128 065a 0721     		movs	r1, #7
 1129 065c 009A     		ldr	r2, [sp]
 1130 065e 0123     		movs	r3, #1
 1131 0660 FFF7FEFF 		bl	LSM303AGR_ACC_ReadReg
 1132 0664 0346     		mov	r3, r0
 1133 0666 002B     		cmp	r3, #0
 1134 0668 01D1     		bne	.L68
 1135              		.loc 1 455 0
 1136 066a 0023     		movs	r3, #0
 1137 066c 07E0     		b	.L69
 1138              	.L68:
 1139              		.loc 1 457 0
 1140 066e 009B     		ldr	r3, [sp]
 1141 0670 1B78     		ldrb	r3, [r3]	@ zero_extendqisi2
 1142 0672 03F02003 		and	r3, r3, #32
 1143 0676 DAB2     		uxtb	r2, r3
 1144 0678 009B     		ldr	r3, [sp]
 1145 067a 1A70     		strb	r2, [r3]
 1146              		.loc 1 459 0
 1147 067c 0123     		movs	r3, #1
 1148              	.L69:
 1149              		.loc 1 460 0
 1150 067e 1846     		mov	r0, r3
 1151 0680 03B0     		add	sp, sp, #12
 1152              		@ sp needed
 1153 0682 5DF804FB 		ldr	pc, [sp], #4
 1154              		.cfi_endproc
 1155              	.LFE16:
 1156              		.size	LSM303AGR_ACC_R_DataYOverrun, .-LSM303AGR_ACC_R_DataYOverrun
 1157 0686 00BF     		.align	2
 1158 0688 AFF30080 		.p2align 4,,15
 1158      AFF30080 
 1159              		.global	LSM303AGR_ACC_R_DataZOverrun
 1160              		.thumb
 1161              		.thumb_func
 1162              		.type	LSM303AGR_ACC_R_DataZOverrun, %function
 1163              	LSM303AGR_ACC_R_DataZOverrun:
 1164              	.LFB17:
 1165              		.loc 1 470 0
 1166              		.cfi_startproc
 1167              		@ args = 0, pretend = 0, frame = 8
 1168              		@ frame_needed = 0, uses_anonymous_args = 0
 1169 0690 00B5     		push	{lr}
 1170              		.cfi_def_cfa_offset 4
 1171              		.cfi_offset 14, -4
 1172 0692 83B0     		sub	sp, sp, #12
 1173              		.cfi_def_cfa_offset 16
 1174 0694 0190     		str	r0, [sp, #4]
 1175 0696 0091     		str	r1, [sp]
 1176              		.loc 1 471 0
 1177 0698 0198     		ldr	r0, [sp, #4]
 1178 069a 0721     		movs	r1, #7
 1179 069c 009A     		ldr	r2, [sp]
 1180 069e 0123     		movs	r3, #1
 1181 06a0 FFF7FEFF 		bl	LSM303AGR_ACC_ReadReg
ARM GAS  /tmp/ccVYwGiK.s 			page 22


 1182 06a4 0346     		mov	r3, r0
 1183 06a6 002B     		cmp	r3, #0
 1184 06a8 01D1     		bne	.L71
 1185              		.loc 1 472 0
 1186 06aa 0023     		movs	r3, #0
 1187 06ac 07E0     		b	.L72
 1188              	.L71:
 1189              		.loc 1 474 0
 1190 06ae 009B     		ldr	r3, [sp]
 1191 06b0 1B78     		ldrb	r3, [r3]	@ zero_extendqisi2
 1192 06b2 03F04003 		and	r3, r3, #64
 1193 06b6 DAB2     		uxtb	r2, r3
 1194 06b8 009B     		ldr	r3, [sp]
 1195 06ba 1A70     		strb	r2, [r3]
 1196              		.loc 1 476 0
 1197 06bc 0123     		movs	r3, #1
 1198              	.L72:
 1199              		.loc 1 477 0
 1200 06be 1846     		mov	r0, r3
 1201 06c0 03B0     		add	sp, sp, #12
 1202              		@ sp needed
 1203 06c2 5DF804FB 		ldr	pc, [sp], #4
 1204              		.cfi_endproc
 1205              	.LFE17:
 1206              		.size	LSM303AGR_ACC_R_DataZOverrun, .-LSM303AGR_ACC_R_DataZOverrun
 1207 06c6 00BF     		.align	2
 1208 06c8 AFF30080 		.p2align 4,,15
 1208      AFF30080 
 1209              		.global	LSM303AGR_ACC_R_DataXYZOverrun
 1210              		.thumb
 1211              		.thumb_func
 1212              		.type	LSM303AGR_ACC_R_DataXYZOverrun, %function
 1213              	LSM303AGR_ACC_R_DataXYZOverrun:
 1214              	.LFB18:
 1215              		.loc 1 487 0
 1216              		.cfi_startproc
 1217              		@ args = 0, pretend = 0, frame = 8
 1218              		@ frame_needed = 0, uses_anonymous_args = 0
 1219 06d0 00B5     		push	{lr}
 1220              		.cfi_def_cfa_offset 4
 1221              		.cfi_offset 14, -4
 1222 06d2 83B0     		sub	sp, sp, #12
 1223              		.cfi_def_cfa_offset 16
 1224 06d4 0190     		str	r0, [sp, #4]
 1225 06d6 0091     		str	r1, [sp]
 1226              		.loc 1 488 0
 1227 06d8 0198     		ldr	r0, [sp, #4]
 1228 06da 0721     		movs	r1, #7
 1229 06dc 009A     		ldr	r2, [sp]
 1230 06de 0123     		movs	r3, #1
 1231 06e0 FFF7FEFF 		bl	LSM303AGR_ACC_ReadReg
 1232 06e4 0346     		mov	r3, r0
 1233 06e6 002B     		cmp	r3, #0
 1234 06e8 01D1     		bne	.L74
 1235              		.loc 1 489 0
 1236 06ea 0023     		movs	r3, #0
 1237 06ec 07E0     		b	.L75
ARM GAS  /tmp/ccVYwGiK.s 			page 23


 1238              	.L74:
 1239              		.loc 1 491 0
 1240 06ee 009B     		ldr	r3, [sp]
 1241 06f0 1B78     		ldrb	r3, [r3]	@ zero_extendqisi2
 1242 06f2 23F07F03 		bic	r3, r3, #127
 1243 06f6 DAB2     		uxtb	r2, r3
 1244 06f8 009B     		ldr	r3, [sp]
 1245 06fa 1A70     		strb	r2, [r3]
 1246              		.loc 1 493 0
 1247 06fc 0123     		movs	r3, #1
 1248              	.L75:
 1249              		.loc 1 494 0
 1250 06fe 1846     		mov	r0, r3
 1251 0700 03B0     		add	sp, sp, #12
 1252              		@ sp needed
 1253 0702 5DF804FB 		ldr	pc, [sp], #4
 1254              		.cfi_endproc
 1255              	.LFE18:
 1256              		.size	LSM303AGR_ACC_R_DataXYZOverrun, .-LSM303AGR_ACC_R_DataXYZOverrun
 1257 0706 00BF     		.align	2
 1258 0708 AFF30080 		.p2align 4,,15
 1258      AFF30080 
 1259              		.global	LSM303AGR_ACC_R_int_counter
 1260              		.thumb
 1261              		.thumb_func
 1262              		.type	LSM303AGR_ACC_R_int_counter, %function
 1263              	LSM303AGR_ACC_R_int_counter:
 1264              	.LFB19:
 1265              		.loc 1 504 0
 1266              		.cfi_startproc
 1267              		@ args = 0, pretend = 0, frame = 8
 1268              		@ frame_needed = 0, uses_anonymous_args = 0
 1269 0710 00B5     		push	{lr}
 1270              		.cfi_def_cfa_offset 4
 1271              		.cfi_offset 14, -4
 1272 0712 83B0     		sub	sp, sp, #12
 1273              		.cfi_def_cfa_offset 16
 1274 0714 0190     		str	r0, [sp, #4]
 1275 0716 0091     		str	r1, [sp]
 1276              		.loc 1 505 0
 1277 0718 0198     		ldr	r0, [sp, #4]
 1278 071a 0E21     		movs	r1, #14
 1279 071c 009A     		ldr	r2, [sp]
 1280 071e 0123     		movs	r3, #1
 1281 0720 FFF7FEFF 		bl	LSM303AGR_ACC_ReadReg
 1282 0724 0346     		mov	r3, r0
 1283 0726 002B     		cmp	r3, #0
 1284 0728 01D1     		bne	.L77
 1285              		.loc 1 506 0
 1286 072a 0023     		movs	r3, #0
 1287 072c 08E0     		b	.L78
 1288              	.L77:
 1289              		.loc 1 508 0
 1290 072e 009B     		ldr	r3, [sp]
 1291 0730 1A78     		ldrb	r2, [r3]	@ zero_extendqisi2
 1292 0732 009B     		ldr	r3, [sp]
 1293 0734 1A70     		strb	r2, [r3]
ARM GAS  /tmp/ccVYwGiK.s 			page 24


 1294              		.loc 1 509 0
 1295 0736 009B     		ldr	r3, [sp]
 1296 0738 1A78     		ldrb	r2, [r3]	@ zero_extendqisi2
 1297 073a 009B     		ldr	r3, [sp]
 1298 073c 1A70     		strb	r2, [r3]
 1299              		.loc 1 511 0
 1300 073e 0123     		movs	r3, #1
 1301              	.L78:
 1302              		.loc 1 512 0
 1303 0740 1846     		mov	r0, r3
 1304 0742 03B0     		add	sp, sp, #12
 1305              		@ sp needed
 1306 0744 5DF804FB 		ldr	pc, [sp], #4
 1307              		.cfi_endproc
 1308              	.LFE19:
 1309              		.size	LSM303AGR_ACC_R_int_counter, .-LSM303AGR_ACC_R_int_counter
 1310              		.align	2
 1311 0748 AFF30080 		.p2align 4,,15
 1311      AFF30080 
 1312              		.global	LSM303AGR_ACC_W_TEMP_EN_bits
 1313              		.thumb
 1314              		.thumb_func
 1315              		.type	LSM303AGR_ACC_W_TEMP_EN_bits, %function
 1316              	LSM303AGR_ACC_W_TEMP_EN_bits:
 1317              	.LFB20:
 1318              		.loc 1 522 0
 1319              		.cfi_startproc
 1320              		@ args = 0, pretend = 0, frame = 16
 1321              		@ frame_needed = 0, uses_anonymous_args = 0
 1322 0750 00B5     		push	{lr}
 1323              		.cfi_def_cfa_offset 4
 1324              		.cfi_offset 14, -4
 1325 0752 85B0     		sub	sp, sp, #20
 1326              		.cfi_def_cfa_offset 24
 1327 0754 0190     		str	r0, [sp, #4]
 1328 0756 0B46     		mov	r3, r1
 1329 0758 8DF80330 		strb	r3, [sp, #3]
 1330              		.loc 1 525 0
 1331 075c 0DF10F03 		add	r3, sp, #15
 1332 0760 0198     		ldr	r0, [sp, #4]
 1333 0762 1F21     		movs	r1, #31
 1334 0764 1A46     		mov	r2, r3
 1335 0766 0123     		movs	r3, #1
 1336 0768 FFF7FEFF 		bl	LSM303AGR_ACC_ReadReg
 1337 076c 0346     		mov	r3, r0
 1338 076e 002B     		cmp	r3, #0
 1339 0770 01D1     		bne	.L80
 1340              		.loc 1 526 0
 1341 0772 0023     		movs	r3, #0
 1342 0774 1CE0     		b	.L83
 1343              	.L80:
 1344              		.loc 1 528 0
 1345 0776 9DF80F30 		ldrb	r3, [sp, #15]	@ zero_extendqisi2
 1346 077a 23F04003 		bic	r3, r3, #64
 1347 077e DBB2     		uxtb	r3, r3
 1348 0780 8DF80F30 		strb	r3, [sp, #15]
 1349              		.loc 1 529 0
ARM GAS  /tmp/ccVYwGiK.s 			page 25


 1350 0784 9DF80F20 		ldrb	r2, [sp, #15]	@ zero_extendqisi2
 1351 0788 9DF80330 		ldrb	r3, [sp, #3]
 1352 078c 1343     		orrs	r3, r3, r2
 1353 078e DBB2     		uxtb	r3, r3
 1354 0790 8DF80F30 		strb	r3, [sp, #15]
 1355              		.loc 1 531 0
 1356 0794 0DF10F03 		add	r3, sp, #15
 1357 0798 0198     		ldr	r0, [sp, #4]
 1358 079a 1F21     		movs	r1, #31
 1359 079c 1A46     		mov	r2, r3
 1360 079e 0123     		movs	r3, #1
 1361 07a0 FFF7FEFF 		bl	LSM303AGR_ACC_WriteReg
 1362 07a4 0346     		mov	r3, r0
 1363 07a6 002B     		cmp	r3, #0
 1364 07a8 01D1     		bne	.L82
 1365              		.loc 1 532 0
 1366 07aa 0023     		movs	r3, #0
 1367 07ac 00E0     		b	.L83
 1368              	.L82:
 1369              		.loc 1 534 0
 1370 07ae 0123     		movs	r3, #1
 1371              	.L83:
 1372              		.loc 1 535 0
 1373 07b0 1846     		mov	r0, r3
 1374 07b2 05B0     		add	sp, sp, #20
 1375              		@ sp needed
 1376 07b4 5DF804FB 		ldr	pc, [sp], #4
 1377              		.cfi_endproc
 1378              	.LFE20:
 1379              		.size	LSM303AGR_ACC_W_TEMP_EN_bits, .-LSM303AGR_ACC_W_TEMP_EN_bits
 1380              		.align	2
 1381 07b8 AFF30080 		.p2align 4,,15
 1381      AFF30080 
 1382              		.global	LSM303AGR_ACC_R_TEMP_EN_bits
 1383              		.thumb
 1384              		.thumb_func
 1385              		.type	LSM303AGR_ACC_R_TEMP_EN_bits, %function
 1386              	LSM303AGR_ACC_R_TEMP_EN_bits:
 1387              	.LFB21:
 1388              		.loc 1 545 0
 1389              		.cfi_startproc
 1390              		@ args = 0, pretend = 0, frame = 8
 1391              		@ frame_needed = 0, uses_anonymous_args = 0
 1392 07c0 00B5     		push	{lr}
 1393              		.cfi_def_cfa_offset 4
 1394              		.cfi_offset 14, -4
 1395 07c2 83B0     		sub	sp, sp, #12
 1396              		.cfi_def_cfa_offset 16
 1397 07c4 0190     		str	r0, [sp, #4]
 1398 07c6 0091     		str	r1, [sp]
 1399              		.loc 1 546 0
 1400 07c8 0198     		ldr	r0, [sp, #4]
 1401 07ca 1F21     		movs	r1, #31
 1402 07cc 009A     		ldr	r2, [sp]
 1403 07ce 0123     		movs	r3, #1
 1404 07d0 FFF7FEFF 		bl	LSM303AGR_ACC_ReadReg
 1405 07d4 0346     		mov	r3, r0
ARM GAS  /tmp/ccVYwGiK.s 			page 26


 1406 07d6 002B     		cmp	r3, #0
 1407 07d8 01D1     		bne	.L85
 1408              		.loc 1 547 0
 1409 07da 0023     		movs	r3, #0
 1410 07dc 07E0     		b	.L86
 1411              	.L85:
 1412              		.loc 1 549 0
 1413 07de 009B     		ldr	r3, [sp]
 1414 07e0 1B78     		ldrb	r3, [r3]	@ zero_extendqisi2
 1415 07e2 03F04003 		and	r3, r3, #64
 1416 07e6 DAB2     		uxtb	r2, r3
 1417 07e8 009B     		ldr	r3, [sp]
 1418 07ea 1A70     		strb	r2, [r3]
 1419              		.loc 1 551 0
 1420 07ec 0123     		movs	r3, #1
 1421              	.L86:
 1422              		.loc 1 552 0
 1423 07ee 1846     		mov	r0, r3
 1424 07f0 03B0     		add	sp, sp, #12
 1425              		@ sp needed
 1426 07f2 5DF804FB 		ldr	pc, [sp], #4
 1427              		.cfi_endproc
 1428              	.LFE21:
 1429              		.size	LSM303AGR_ACC_R_TEMP_EN_bits, .-LSM303AGR_ACC_R_TEMP_EN_bits
 1430 07f6 00BF     		.align	2
 1431 07f8 AFF30080 		.p2align 4,,15
 1431      AFF30080 
 1432              		.global	LSM303AGR_ACC_W_ADC_PD
 1433              		.thumb
 1434              		.thumb_func
 1435              		.type	LSM303AGR_ACC_W_ADC_PD, %function
 1436              	LSM303AGR_ACC_W_ADC_PD:
 1437              	.LFB22:
 1438              		.loc 1 562 0
 1439              		.cfi_startproc
 1440              		@ args = 0, pretend = 0, frame = 16
 1441              		@ frame_needed = 0, uses_anonymous_args = 0
 1442 0800 00B5     		push	{lr}
 1443              		.cfi_def_cfa_offset 4
 1444              		.cfi_offset 14, -4
 1445 0802 85B0     		sub	sp, sp, #20
 1446              		.cfi_def_cfa_offset 24
 1447 0804 0190     		str	r0, [sp, #4]
 1448 0806 0B46     		mov	r3, r1
 1449 0808 8DF80330 		strb	r3, [sp, #3]
 1450              		.loc 1 565 0
 1451 080c 0DF10F03 		add	r3, sp, #15
 1452 0810 0198     		ldr	r0, [sp, #4]
 1453 0812 1F21     		movs	r1, #31
 1454 0814 1A46     		mov	r2, r3
 1455 0816 0123     		movs	r3, #1
 1456 0818 FFF7FEFF 		bl	LSM303AGR_ACC_ReadReg
 1457 081c 0346     		mov	r3, r0
 1458 081e 002B     		cmp	r3, #0
 1459 0820 01D1     		bne	.L88
 1460              		.loc 1 566 0
 1461 0822 0023     		movs	r3, #0
ARM GAS  /tmp/ccVYwGiK.s 			page 27


 1462 0824 1CE0     		b	.L91
 1463              	.L88:
 1464              		.loc 1 568 0
 1465 0826 9DF80F30 		ldrb	r3, [sp, #15]	@ zero_extendqisi2
 1466 082a 03F07F03 		and	r3, r3, #127
 1467 082e DBB2     		uxtb	r3, r3
 1468 0830 8DF80F30 		strb	r3, [sp, #15]
 1469              		.loc 1 569 0
 1470 0834 9DF80F20 		ldrb	r2, [sp, #15]	@ zero_extendqisi2
 1471 0838 9DF80330 		ldrb	r3, [sp, #3]
 1472 083c 1343     		orrs	r3, r3, r2
 1473 083e DBB2     		uxtb	r3, r3
 1474 0840 8DF80F30 		strb	r3, [sp, #15]
 1475              		.loc 1 571 0
 1476 0844 0DF10F03 		add	r3, sp, #15
 1477 0848 0198     		ldr	r0, [sp, #4]
 1478 084a 1F21     		movs	r1, #31
 1479 084c 1A46     		mov	r2, r3
 1480 084e 0123     		movs	r3, #1
 1481 0850 FFF7FEFF 		bl	LSM303AGR_ACC_WriteReg
 1482 0854 0346     		mov	r3, r0
 1483 0856 002B     		cmp	r3, #0
 1484 0858 01D1     		bne	.L90
 1485              		.loc 1 572 0
 1486 085a 0023     		movs	r3, #0
 1487 085c 00E0     		b	.L91
 1488              	.L90:
 1489              		.loc 1 574 0
 1490 085e 0123     		movs	r3, #1
 1491              	.L91:
 1492              		.loc 1 575 0
 1493 0860 1846     		mov	r0, r3
 1494 0862 05B0     		add	sp, sp, #20
 1495              		@ sp needed
 1496 0864 5DF804FB 		ldr	pc, [sp], #4
 1497              		.cfi_endproc
 1498              	.LFE22:
 1499              		.size	LSM303AGR_ACC_W_ADC_PD, .-LSM303AGR_ACC_W_ADC_PD
 1500              		.align	2
 1501 0868 AFF30080 		.p2align 4,,15
 1501      AFF30080 
 1502              		.global	LSM303AGR_ACC_R_ADC_PD
 1503              		.thumb
 1504              		.thumb_func
 1505              		.type	LSM303AGR_ACC_R_ADC_PD, %function
 1506              	LSM303AGR_ACC_R_ADC_PD:
 1507              	.LFB23:
 1508              		.loc 1 585 0
 1509              		.cfi_startproc
 1510              		@ args = 0, pretend = 0, frame = 8
 1511              		@ frame_needed = 0, uses_anonymous_args = 0
 1512 0870 00B5     		push	{lr}
 1513              		.cfi_def_cfa_offset 4
 1514              		.cfi_offset 14, -4
 1515 0872 83B0     		sub	sp, sp, #12
 1516              		.cfi_def_cfa_offset 16
 1517 0874 0190     		str	r0, [sp, #4]
ARM GAS  /tmp/ccVYwGiK.s 			page 28


 1518 0876 0091     		str	r1, [sp]
 1519              		.loc 1 586 0
 1520 0878 0198     		ldr	r0, [sp, #4]
 1521 087a 1F21     		movs	r1, #31
 1522 087c 009A     		ldr	r2, [sp]
 1523 087e 0123     		movs	r3, #1
 1524 0880 FFF7FEFF 		bl	LSM303AGR_ACC_ReadReg
 1525 0884 0346     		mov	r3, r0
 1526 0886 002B     		cmp	r3, #0
 1527 0888 01D1     		bne	.L93
 1528              		.loc 1 587 0
 1529 088a 0023     		movs	r3, #0
 1530 088c 07E0     		b	.L94
 1531              	.L93:
 1532              		.loc 1 589 0
 1533 088e 009B     		ldr	r3, [sp]
 1534 0890 1B78     		ldrb	r3, [r3]	@ zero_extendqisi2
 1535 0892 23F07F03 		bic	r3, r3, #127
 1536 0896 DAB2     		uxtb	r2, r3
 1537 0898 009B     		ldr	r3, [sp]
 1538 089a 1A70     		strb	r2, [r3]
 1539              		.loc 1 591 0
 1540 089c 0123     		movs	r3, #1
 1541              	.L94:
 1542              		.loc 1 592 0
 1543 089e 1846     		mov	r0, r3
 1544 08a0 03B0     		add	sp, sp, #12
 1545              		@ sp needed
 1546 08a2 5DF804FB 		ldr	pc, [sp], #4
 1547              		.cfi_endproc
 1548              	.LFE23:
 1549              		.size	LSM303AGR_ACC_R_ADC_PD, .-LSM303AGR_ACC_R_ADC_PD
 1550 08a6 00BF     		.align	2
 1551 08a8 AFF30080 		.p2align 4,,15
 1551      AFF30080 
 1552              		.global	LSM303AGR_ACC_W_XEN
 1553              		.thumb
 1554              		.thumb_func
 1555              		.type	LSM303AGR_ACC_W_XEN, %function
 1556              	LSM303AGR_ACC_W_XEN:
 1557              	.LFB24:
 1558              		.loc 1 602 0
 1559              		.cfi_startproc
 1560              		@ args = 0, pretend = 0, frame = 16
 1561              		@ frame_needed = 0, uses_anonymous_args = 0
 1562 08b0 00B5     		push	{lr}
 1563              		.cfi_def_cfa_offset 4
 1564              		.cfi_offset 14, -4
 1565 08b2 85B0     		sub	sp, sp, #20
 1566              		.cfi_def_cfa_offset 24
 1567 08b4 0190     		str	r0, [sp, #4]
 1568 08b6 0B46     		mov	r3, r1
 1569 08b8 8DF80330 		strb	r3, [sp, #3]
 1570              		.loc 1 605 0
 1571 08bc 0DF10F03 		add	r3, sp, #15
 1572 08c0 0198     		ldr	r0, [sp, #4]
 1573 08c2 2021     		movs	r1, #32
ARM GAS  /tmp/ccVYwGiK.s 			page 29


 1574 08c4 1A46     		mov	r2, r3
 1575 08c6 0123     		movs	r3, #1
 1576 08c8 FFF7FEFF 		bl	LSM303AGR_ACC_ReadReg
 1577 08cc 0346     		mov	r3, r0
 1578 08ce 002B     		cmp	r3, #0
 1579 08d0 01D1     		bne	.L96
 1580              		.loc 1 606 0
 1581 08d2 0023     		movs	r3, #0
 1582 08d4 1CE0     		b	.L99
 1583              	.L96:
 1584              		.loc 1 608 0
 1585 08d6 9DF80F30 		ldrb	r3, [sp, #15]	@ zero_extendqisi2
 1586 08da 23F00103 		bic	r3, r3, #1
 1587 08de DBB2     		uxtb	r3, r3
 1588 08e0 8DF80F30 		strb	r3, [sp, #15]
 1589              		.loc 1 609 0
 1590 08e4 9DF80F20 		ldrb	r2, [sp, #15]	@ zero_extendqisi2
 1591 08e8 9DF80330 		ldrb	r3, [sp, #3]
 1592 08ec 1343     		orrs	r3, r3, r2
 1593 08ee DBB2     		uxtb	r3, r3
 1594 08f0 8DF80F30 		strb	r3, [sp, #15]
 1595              		.loc 1 611 0
 1596 08f4 0DF10F03 		add	r3, sp, #15
 1597 08f8 0198     		ldr	r0, [sp, #4]
 1598 08fa 2021     		movs	r1, #32
 1599 08fc 1A46     		mov	r2, r3
 1600 08fe 0123     		movs	r3, #1
 1601 0900 FFF7FEFF 		bl	LSM303AGR_ACC_WriteReg
 1602 0904 0346     		mov	r3, r0
 1603 0906 002B     		cmp	r3, #0
 1604 0908 01D1     		bne	.L98
 1605              		.loc 1 612 0
 1606 090a 0023     		movs	r3, #0
 1607 090c 00E0     		b	.L99
 1608              	.L98:
 1609              		.loc 1 614 0
 1610 090e 0123     		movs	r3, #1
 1611              	.L99:
 1612              		.loc 1 615 0
 1613 0910 1846     		mov	r0, r3
 1614 0912 05B0     		add	sp, sp, #20
 1615              		@ sp needed
 1616 0914 5DF804FB 		ldr	pc, [sp], #4
 1617              		.cfi_endproc
 1618              	.LFE24:
 1619              		.size	LSM303AGR_ACC_W_XEN, .-LSM303AGR_ACC_W_XEN
 1620              		.align	2
 1621 0918 AFF30080 		.p2align 4,,15
 1621      AFF30080 
 1622              		.global	LSM303AGR_ACC_R_XEN
 1623              		.thumb
 1624              		.thumb_func
 1625              		.type	LSM303AGR_ACC_R_XEN, %function
 1626              	LSM303AGR_ACC_R_XEN:
 1627              	.LFB25:
 1628              		.loc 1 625 0
 1629              		.cfi_startproc
ARM GAS  /tmp/ccVYwGiK.s 			page 30


 1630              		@ args = 0, pretend = 0, frame = 8
 1631              		@ frame_needed = 0, uses_anonymous_args = 0
 1632 0920 00B5     		push	{lr}
 1633              		.cfi_def_cfa_offset 4
 1634              		.cfi_offset 14, -4
 1635 0922 83B0     		sub	sp, sp, #12
 1636              		.cfi_def_cfa_offset 16
 1637 0924 0190     		str	r0, [sp, #4]
 1638 0926 0091     		str	r1, [sp]
 1639              		.loc 1 626 0
 1640 0928 0198     		ldr	r0, [sp, #4]
 1641 092a 2021     		movs	r1, #32
 1642 092c 009A     		ldr	r2, [sp]
 1643 092e 0123     		movs	r3, #1
 1644 0930 FFF7FEFF 		bl	LSM303AGR_ACC_ReadReg
 1645 0934 0346     		mov	r3, r0
 1646 0936 002B     		cmp	r3, #0
 1647 0938 01D1     		bne	.L101
 1648              		.loc 1 627 0
 1649 093a 0023     		movs	r3, #0
 1650 093c 07E0     		b	.L102
 1651              	.L101:
 1652              		.loc 1 629 0
 1653 093e 009B     		ldr	r3, [sp]
 1654 0940 1B78     		ldrb	r3, [r3]	@ zero_extendqisi2
 1655 0942 03F00103 		and	r3, r3, #1
 1656 0946 DAB2     		uxtb	r2, r3
 1657 0948 009B     		ldr	r3, [sp]
 1658 094a 1A70     		strb	r2, [r3]
 1659              		.loc 1 631 0
 1660 094c 0123     		movs	r3, #1
 1661              	.L102:
 1662              		.loc 1 632 0
 1663 094e 1846     		mov	r0, r3
 1664 0950 03B0     		add	sp, sp, #12
 1665              		@ sp needed
 1666 0952 5DF804FB 		ldr	pc, [sp], #4
 1667              		.cfi_endproc
 1668              	.LFE25:
 1669              		.size	LSM303AGR_ACC_R_XEN, .-LSM303AGR_ACC_R_XEN
 1670 0956 00BF     		.align	2
 1671 0958 AFF30080 		.p2align 4,,15
 1671      AFF30080 
 1672              		.global	LSM303AGR_ACC_W_YEN
 1673              		.thumb
 1674              		.thumb_func
 1675              		.type	LSM303AGR_ACC_W_YEN, %function
 1676              	LSM303AGR_ACC_W_YEN:
 1677              	.LFB26:
 1678              		.loc 1 642 0
 1679              		.cfi_startproc
 1680              		@ args = 0, pretend = 0, frame = 16
 1681              		@ frame_needed = 0, uses_anonymous_args = 0
 1682 0960 00B5     		push	{lr}
 1683              		.cfi_def_cfa_offset 4
 1684              		.cfi_offset 14, -4
 1685 0962 85B0     		sub	sp, sp, #20
ARM GAS  /tmp/ccVYwGiK.s 			page 31


 1686              		.cfi_def_cfa_offset 24
 1687 0964 0190     		str	r0, [sp, #4]
 1688 0966 0B46     		mov	r3, r1
 1689 0968 8DF80330 		strb	r3, [sp, #3]
 1690              		.loc 1 645 0
 1691 096c 0DF10F03 		add	r3, sp, #15
 1692 0970 0198     		ldr	r0, [sp, #4]
 1693 0972 2021     		movs	r1, #32
 1694 0974 1A46     		mov	r2, r3
 1695 0976 0123     		movs	r3, #1
 1696 0978 FFF7FEFF 		bl	LSM303AGR_ACC_ReadReg
 1697 097c 0346     		mov	r3, r0
 1698 097e 002B     		cmp	r3, #0
 1699 0980 01D1     		bne	.L104
 1700              		.loc 1 646 0
 1701 0982 0023     		movs	r3, #0
 1702 0984 1CE0     		b	.L107
 1703              	.L104:
 1704              		.loc 1 648 0
 1705 0986 9DF80F30 		ldrb	r3, [sp, #15]	@ zero_extendqisi2
 1706 098a 23F00203 		bic	r3, r3, #2
 1707 098e DBB2     		uxtb	r3, r3
 1708 0990 8DF80F30 		strb	r3, [sp, #15]
 1709              		.loc 1 649 0
 1710 0994 9DF80F20 		ldrb	r2, [sp, #15]	@ zero_extendqisi2
 1711 0998 9DF80330 		ldrb	r3, [sp, #3]
 1712 099c 1343     		orrs	r3, r3, r2
 1713 099e DBB2     		uxtb	r3, r3
 1714 09a0 8DF80F30 		strb	r3, [sp, #15]
 1715              		.loc 1 651 0
 1716 09a4 0DF10F03 		add	r3, sp, #15
 1717 09a8 0198     		ldr	r0, [sp, #4]
 1718 09aa 2021     		movs	r1, #32
 1719 09ac 1A46     		mov	r2, r3
 1720 09ae 0123     		movs	r3, #1
 1721 09b0 FFF7FEFF 		bl	LSM303AGR_ACC_WriteReg
 1722 09b4 0346     		mov	r3, r0
 1723 09b6 002B     		cmp	r3, #0
 1724 09b8 01D1     		bne	.L106
 1725              		.loc 1 652 0
 1726 09ba 0023     		movs	r3, #0
 1727 09bc 00E0     		b	.L107
 1728              	.L106:
 1729              		.loc 1 654 0
 1730 09be 0123     		movs	r3, #1
 1731              	.L107:
 1732              		.loc 1 655 0
 1733 09c0 1846     		mov	r0, r3
 1734 09c2 05B0     		add	sp, sp, #20
 1735              		@ sp needed
 1736 09c4 5DF804FB 		ldr	pc, [sp], #4
 1737              		.cfi_endproc
 1738              	.LFE26:
 1739              		.size	LSM303AGR_ACC_W_YEN, .-LSM303AGR_ACC_W_YEN
 1740              		.align	2
 1741 09c8 AFF30080 		.p2align 4,,15
 1741      AFF30080 
ARM GAS  /tmp/ccVYwGiK.s 			page 32


 1742              		.global	LSM303AGR_ACC_R_YEN
 1743              		.thumb
 1744              		.thumb_func
 1745              		.type	LSM303AGR_ACC_R_YEN, %function
 1746              	LSM303AGR_ACC_R_YEN:
 1747              	.LFB27:
 1748              		.loc 1 665 0
 1749              		.cfi_startproc
 1750              		@ args = 0, pretend = 0, frame = 8
 1751              		@ frame_needed = 0, uses_anonymous_args = 0
 1752 09d0 00B5     		push	{lr}
 1753              		.cfi_def_cfa_offset 4
 1754              		.cfi_offset 14, -4
 1755 09d2 83B0     		sub	sp, sp, #12
 1756              		.cfi_def_cfa_offset 16
 1757 09d4 0190     		str	r0, [sp, #4]
 1758 09d6 0091     		str	r1, [sp]
 1759              		.loc 1 666 0
 1760 09d8 0198     		ldr	r0, [sp, #4]
 1761 09da 2021     		movs	r1, #32
 1762 09dc 009A     		ldr	r2, [sp]
 1763 09de 0123     		movs	r3, #1
 1764 09e0 FFF7FEFF 		bl	LSM303AGR_ACC_ReadReg
 1765 09e4 0346     		mov	r3, r0
 1766 09e6 002B     		cmp	r3, #0
 1767 09e8 01D1     		bne	.L109
 1768              		.loc 1 667 0
 1769 09ea 0023     		movs	r3, #0
 1770 09ec 07E0     		b	.L110
 1771              	.L109:
 1772              		.loc 1 669 0
 1773 09ee 009B     		ldr	r3, [sp]
 1774 09f0 1B78     		ldrb	r3, [r3]	@ zero_extendqisi2
 1775 09f2 03F00203 		and	r3, r3, #2
 1776 09f6 DAB2     		uxtb	r2, r3
 1777 09f8 009B     		ldr	r3, [sp]
 1778 09fa 1A70     		strb	r2, [r3]
 1779              		.loc 1 671 0
 1780 09fc 0123     		movs	r3, #1
 1781              	.L110:
 1782              		.loc 1 672 0
 1783 09fe 1846     		mov	r0, r3
 1784 0a00 03B0     		add	sp, sp, #12
 1785              		@ sp needed
 1786 0a02 5DF804FB 		ldr	pc, [sp], #4
 1787              		.cfi_endproc
 1788              	.LFE27:
 1789              		.size	LSM303AGR_ACC_R_YEN, .-LSM303AGR_ACC_R_YEN
 1790 0a06 00BF     		.align	2
 1791 0a08 AFF30080 		.p2align 4,,15
 1791      AFF30080 
 1792              		.global	LSM303AGR_ACC_W_ZEN
 1793              		.thumb
 1794              		.thumb_func
 1795              		.type	LSM303AGR_ACC_W_ZEN, %function
 1796              	LSM303AGR_ACC_W_ZEN:
 1797              	.LFB28:
ARM GAS  /tmp/ccVYwGiK.s 			page 33


 1798              		.loc 1 682 0
 1799              		.cfi_startproc
 1800              		@ args = 0, pretend = 0, frame = 16
 1801              		@ frame_needed = 0, uses_anonymous_args = 0
 1802 0a10 00B5     		push	{lr}
 1803              		.cfi_def_cfa_offset 4
 1804              		.cfi_offset 14, -4
 1805 0a12 85B0     		sub	sp, sp, #20
 1806              		.cfi_def_cfa_offset 24
 1807 0a14 0190     		str	r0, [sp, #4]
 1808 0a16 0B46     		mov	r3, r1
 1809 0a18 8DF80330 		strb	r3, [sp, #3]
 1810              		.loc 1 685 0
 1811 0a1c 0DF10F03 		add	r3, sp, #15
 1812 0a20 0198     		ldr	r0, [sp, #4]
 1813 0a22 2021     		movs	r1, #32
 1814 0a24 1A46     		mov	r2, r3
 1815 0a26 0123     		movs	r3, #1
 1816 0a28 FFF7FEFF 		bl	LSM303AGR_ACC_ReadReg
 1817 0a2c 0346     		mov	r3, r0
 1818 0a2e 002B     		cmp	r3, #0
 1819 0a30 01D1     		bne	.L112
 1820              		.loc 1 686 0
 1821 0a32 0023     		movs	r3, #0
 1822 0a34 1CE0     		b	.L115
 1823              	.L112:
 1824              		.loc 1 688 0
 1825 0a36 9DF80F30 		ldrb	r3, [sp, #15]	@ zero_extendqisi2
 1826 0a3a 23F00403 		bic	r3, r3, #4
 1827 0a3e DBB2     		uxtb	r3, r3
 1828 0a40 8DF80F30 		strb	r3, [sp, #15]
 1829              		.loc 1 689 0
 1830 0a44 9DF80F20 		ldrb	r2, [sp, #15]	@ zero_extendqisi2
 1831 0a48 9DF80330 		ldrb	r3, [sp, #3]
 1832 0a4c 1343     		orrs	r3, r3, r2
 1833 0a4e DBB2     		uxtb	r3, r3
 1834 0a50 8DF80F30 		strb	r3, [sp, #15]
 1835              		.loc 1 691 0
 1836 0a54 0DF10F03 		add	r3, sp, #15
 1837 0a58 0198     		ldr	r0, [sp, #4]
 1838 0a5a 2021     		movs	r1, #32
 1839 0a5c 1A46     		mov	r2, r3
 1840 0a5e 0123     		movs	r3, #1
 1841 0a60 FFF7FEFF 		bl	LSM303AGR_ACC_WriteReg
 1842 0a64 0346     		mov	r3, r0
 1843 0a66 002B     		cmp	r3, #0
 1844 0a68 01D1     		bne	.L114
 1845              		.loc 1 692 0
 1846 0a6a 0023     		movs	r3, #0
 1847 0a6c 00E0     		b	.L115
 1848              	.L114:
 1849              		.loc 1 694 0
 1850 0a6e 0123     		movs	r3, #1
 1851              	.L115:
 1852              		.loc 1 695 0
 1853 0a70 1846     		mov	r0, r3
 1854 0a72 05B0     		add	sp, sp, #20
ARM GAS  /tmp/ccVYwGiK.s 			page 34


 1855              		@ sp needed
 1856 0a74 5DF804FB 		ldr	pc, [sp], #4
 1857              		.cfi_endproc
 1858              	.LFE28:
 1859              		.size	LSM303AGR_ACC_W_ZEN, .-LSM303AGR_ACC_W_ZEN
 1860              		.align	2
 1861 0a78 AFF30080 		.p2align 4,,15
 1861      AFF30080 
 1862              		.global	LSM303AGR_ACC_R_ZEN
 1863              		.thumb
 1864              		.thumb_func
 1865              		.type	LSM303AGR_ACC_R_ZEN, %function
 1866              	LSM303AGR_ACC_R_ZEN:
 1867              	.LFB29:
 1868              		.loc 1 705 0
 1869              		.cfi_startproc
 1870              		@ args = 0, pretend = 0, frame = 8
 1871              		@ frame_needed = 0, uses_anonymous_args = 0
 1872 0a80 00B5     		push	{lr}
 1873              		.cfi_def_cfa_offset 4
 1874              		.cfi_offset 14, -4
 1875 0a82 83B0     		sub	sp, sp, #12
 1876              		.cfi_def_cfa_offset 16
 1877 0a84 0190     		str	r0, [sp, #4]
 1878 0a86 0091     		str	r1, [sp]
 1879              		.loc 1 706 0
 1880 0a88 0198     		ldr	r0, [sp, #4]
 1881 0a8a 2021     		movs	r1, #32
 1882 0a8c 009A     		ldr	r2, [sp]
 1883 0a8e 0123     		movs	r3, #1
 1884 0a90 FFF7FEFF 		bl	LSM303AGR_ACC_ReadReg
 1885 0a94 0346     		mov	r3, r0
 1886 0a96 002B     		cmp	r3, #0
 1887 0a98 01D1     		bne	.L117
 1888              		.loc 1 707 0
 1889 0a9a 0023     		movs	r3, #0
 1890 0a9c 07E0     		b	.L118
 1891              	.L117:
 1892              		.loc 1 709 0
 1893 0a9e 009B     		ldr	r3, [sp]
 1894 0aa0 1B78     		ldrb	r3, [r3]	@ zero_extendqisi2
 1895 0aa2 03F00403 		and	r3, r3, #4
 1896 0aa6 DAB2     		uxtb	r2, r3
 1897 0aa8 009B     		ldr	r3, [sp]
 1898 0aaa 1A70     		strb	r2, [r3]
 1899              		.loc 1 711 0
 1900 0aac 0123     		movs	r3, #1
 1901              	.L118:
 1902              		.loc 1 712 0
 1903 0aae 1846     		mov	r0, r3
 1904 0ab0 03B0     		add	sp, sp, #12
 1905              		@ sp needed
 1906 0ab2 5DF804FB 		ldr	pc, [sp], #4
 1907              		.cfi_endproc
 1908              	.LFE29:
 1909              		.size	LSM303AGR_ACC_R_ZEN, .-LSM303AGR_ACC_R_ZEN
 1910 0ab6 00BF     		.align	2
ARM GAS  /tmp/ccVYwGiK.s 			page 35


 1911 0ab8 AFF30080 		.p2align 4,,15
 1911      AFF30080 
 1912              		.global	LSM303AGR_ACC_W_LOWPWR_EN
 1913              		.thumb
 1914              		.thumb_func
 1915              		.type	LSM303AGR_ACC_W_LOWPWR_EN, %function
 1916              	LSM303AGR_ACC_W_LOWPWR_EN:
 1917              	.LFB30:
 1918              		.loc 1 722 0
 1919              		.cfi_startproc
 1920              		@ args = 0, pretend = 0, frame = 16
 1921              		@ frame_needed = 0, uses_anonymous_args = 0
 1922 0ac0 00B5     		push	{lr}
 1923              		.cfi_def_cfa_offset 4
 1924              		.cfi_offset 14, -4
 1925 0ac2 85B0     		sub	sp, sp, #20
 1926              		.cfi_def_cfa_offset 24
 1927 0ac4 0190     		str	r0, [sp, #4]
 1928 0ac6 0B46     		mov	r3, r1
 1929 0ac8 8DF80330 		strb	r3, [sp, #3]
 1930              		.loc 1 725 0
 1931 0acc 0DF10F03 		add	r3, sp, #15
 1932 0ad0 0198     		ldr	r0, [sp, #4]
 1933 0ad2 2021     		movs	r1, #32
 1934 0ad4 1A46     		mov	r2, r3
 1935 0ad6 0123     		movs	r3, #1
 1936 0ad8 FFF7FEFF 		bl	LSM303AGR_ACC_ReadReg
 1937 0adc 0346     		mov	r3, r0
 1938 0ade 002B     		cmp	r3, #0
 1939 0ae0 01D1     		bne	.L120
 1940              		.loc 1 726 0
 1941 0ae2 0023     		movs	r3, #0
 1942 0ae4 1CE0     		b	.L123
 1943              	.L120:
 1944              		.loc 1 728 0
 1945 0ae6 9DF80F30 		ldrb	r3, [sp, #15]	@ zero_extendqisi2
 1946 0aea 23F00803 		bic	r3, r3, #8
 1947 0aee DBB2     		uxtb	r3, r3
 1948 0af0 8DF80F30 		strb	r3, [sp, #15]
 1949              		.loc 1 729 0
 1950 0af4 9DF80F20 		ldrb	r2, [sp, #15]	@ zero_extendqisi2
 1951 0af8 9DF80330 		ldrb	r3, [sp, #3]
 1952 0afc 1343     		orrs	r3, r3, r2
 1953 0afe DBB2     		uxtb	r3, r3
 1954 0b00 8DF80F30 		strb	r3, [sp, #15]
 1955              		.loc 1 731 0
 1956 0b04 0DF10F03 		add	r3, sp, #15
 1957 0b08 0198     		ldr	r0, [sp, #4]
 1958 0b0a 2021     		movs	r1, #32
 1959 0b0c 1A46     		mov	r2, r3
 1960 0b0e 0123     		movs	r3, #1
 1961 0b10 FFF7FEFF 		bl	LSM303AGR_ACC_WriteReg
 1962 0b14 0346     		mov	r3, r0
 1963 0b16 002B     		cmp	r3, #0
 1964 0b18 01D1     		bne	.L122
 1965              		.loc 1 732 0
 1966 0b1a 0023     		movs	r3, #0
ARM GAS  /tmp/ccVYwGiK.s 			page 36


 1967 0b1c 00E0     		b	.L123
 1968              	.L122:
 1969              		.loc 1 734 0
 1970 0b1e 0123     		movs	r3, #1
 1971              	.L123:
 1972              		.loc 1 735 0
 1973 0b20 1846     		mov	r0, r3
 1974 0b22 05B0     		add	sp, sp, #20
 1975              		@ sp needed
 1976 0b24 5DF804FB 		ldr	pc, [sp], #4
 1977              		.cfi_endproc
 1978              	.LFE30:
 1979              		.size	LSM303AGR_ACC_W_LOWPWR_EN, .-LSM303AGR_ACC_W_LOWPWR_EN
 1980              		.align	2
 1981 0b28 AFF30080 		.p2align 4,,15
 1981      AFF30080 
 1982              		.global	LSM303AGR_ACC_R_LOWPWR_EN
 1983              		.thumb
 1984              		.thumb_func
 1985              		.type	LSM303AGR_ACC_R_LOWPWR_EN, %function
 1986              	LSM303AGR_ACC_R_LOWPWR_EN:
 1987              	.LFB31:
 1988              		.loc 1 745 0
 1989              		.cfi_startproc
 1990              		@ args = 0, pretend = 0, frame = 8
 1991              		@ frame_needed = 0, uses_anonymous_args = 0
 1992 0b30 00B5     		push	{lr}
 1993              		.cfi_def_cfa_offset 4
 1994              		.cfi_offset 14, -4
 1995 0b32 83B0     		sub	sp, sp, #12
 1996              		.cfi_def_cfa_offset 16
 1997 0b34 0190     		str	r0, [sp, #4]
 1998 0b36 0091     		str	r1, [sp]
 1999              		.loc 1 746 0
 2000 0b38 0198     		ldr	r0, [sp, #4]
 2001 0b3a 2021     		movs	r1, #32
 2002 0b3c 009A     		ldr	r2, [sp]
 2003 0b3e 0123     		movs	r3, #1
 2004 0b40 FFF7FEFF 		bl	LSM303AGR_ACC_ReadReg
 2005 0b44 0346     		mov	r3, r0
 2006 0b46 002B     		cmp	r3, #0
 2007 0b48 01D1     		bne	.L125
 2008              		.loc 1 747 0
 2009 0b4a 0023     		movs	r3, #0
 2010 0b4c 07E0     		b	.L126
 2011              	.L125:
 2012              		.loc 1 749 0
 2013 0b4e 009B     		ldr	r3, [sp]
 2014 0b50 1B78     		ldrb	r3, [r3]	@ zero_extendqisi2
 2015 0b52 03F00803 		and	r3, r3, #8
 2016 0b56 DAB2     		uxtb	r2, r3
 2017 0b58 009B     		ldr	r3, [sp]
 2018 0b5a 1A70     		strb	r2, [r3]
 2019              		.loc 1 751 0
 2020 0b5c 0123     		movs	r3, #1
 2021              	.L126:
 2022              		.loc 1 752 0
ARM GAS  /tmp/ccVYwGiK.s 			page 37


 2023 0b5e 1846     		mov	r0, r3
 2024 0b60 03B0     		add	sp, sp, #12
 2025              		@ sp needed
 2026 0b62 5DF804FB 		ldr	pc, [sp], #4
 2027              		.cfi_endproc
 2028              	.LFE31:
 2029              		.size	LSM303AGR_ACC_R_LOWPWR_EN, .-LSM303AGR_ACC_R_LOWPWR_EN
 2030 0b66 00BF     		.align	2
 2031 0b68 AFF30080 		.p2align 4,,15
 2031      AFF30080 
 2032              		.global	LSM303AGR_ACC_W_hpf_aoi_en_int1
 2033              		.thumb
 2034              		.thumb_func
 2035              		.type	LSM303AGR_ACC_W_hpf_aoi_en_int1, %function
 2036              	LSM303AGR_ACC_W_hpf_aoi_en_int1:
 2037              	.LFB32:
 2038              		.loc 1 762 0
 2039              		.cfi_startproc
 2040              		@ args = 0, pretend = 0, frame = 16
 2041              		@ frame_needed = 0, uses_anonymous_args = 0
 2042 0b70 00B5     		push	{lr}
 2043              		.cfi_def_cfa_offset 4
 2044              		.cfi_offset 14, -4
 2045 0b72 85B0     		sub	sp, sp, #20
 2046              		.cfi_def_cfa_offset 24
 2047 0b74 0190     		str	r0, [sp, #4]
 2048 0b76 0B46     		mov	r3, r1
 2049 0b78 8DF80330 		strb	r3, [sp, #3]
 2050              		.loc 1 765 0
 2051 0b7c 0DF10F03 		add	r3, sp, #15
 2052 0b80 0198     		ldr	r0, [sp, #4]
 2053 0b82 2121     		movs	r1, #33
 2054 0b84 1A46     		mov	r2, r3
 2055 0b86 0123     		movs	r3, #1
 2056 0b88 FFF7FEFF 		bl	LSM303AGR_ACC_ReadReg
 2057 0b8c 0346     		mov	r3, r0
 2058 0b8e 002B     		cmp	r3, #0
 2059 0b90 01D1     		bne	.L128
 2060              		.loc 1 766 0
 2061 0b92 0023     		movs	r3, #0
 2062 0b94 1CE0     		b	.L131
 2063              	.L128:
 2064              		.loc 1 768 0
 2065 0b96 9DF80F30 		ldrb	r3, [sp, #15]	@ zero_extendqisi2
 2066 0b9a 23F00103 		bic	r3, r3, #1
 2067 0b9e DBB2     		uxtb	r3, r3
 2068 0ba0 8DF80F30 		strb	r3, [sp, #15]
 2069              		.loc 1 769 0
 2070 0ba4 9DF80F20 		ldrb	r2, [sp, #15]	@ zero_extendqisi2
 2071 0ba8 9DF80330 		ldrb	r3, [sp, #3]
 2072 0bac 1343     		orrs	r3, r3, r2
 2073 0bae DBB2     		uxtb	r3, r3
 2074 0bb0 8DF80F30 		strb	r3, [sp, #15]
 2075              		.loc 1 771 0
 2076 0bb4 0DF10F03 		add	r3, sp, #15
 2077 0bb8 0198     		ldr	r0, [sp, #4]
 2078 0bba 2121     		movs	r1, #33
ARM GAS  /tmp/ccVYwGiK.s 			page 38


 2079 0bbc 1A46     		mov	r2, r3
 2080 0bbe 0123     		movs	r3, #1
 2081 0bc0 FFF7FEFF 		bl	LSM303AGR_ACC_WriteReg
 2082 0bc4 0346     		mov	r3, r0
 2083 0bc6 002B     		cmp	r3, #0
 2084 0bc8 01D1     		bne	.L130
 2085              		.loc 1 772 0
 2086 0bca 0023     		movs	r3, #0
 2087 0bcc 00E0     		b	.L131
 2088              	.L130:
 2089              		.loc 1 774 0
 2090 0bce 0123     		movs	r3, #1
 2091              	.L131:
 2092              		.loc 1 775 0
 2093 0bd0 1846     		mov	r0, r3
 2094 0bd2 05B0     		add	sp, sp, #20
 2095              		@ sp needed
 2096 0bd4 5DF804FB 		ldr	pc, [sp], #4
 2097              		.cfi_endproc
 2098              	.LFE32:
 2099              		.size	LSM303AGR_ACC_W_hpf_aoi_en_int1, .-LSM303AGR_ACC_W_hpf_aoi_en_int1
 2100              		.align	2
 2101 0bd8 AFF30080 		.p2align 4,,15
 2101      AFF30080 
 2102              		.global	LSM303AGR_ACC_R_hpf_aoi_en_int1
 2103              		.thumb
 2104              		.thumb_func
 2105              		.type	LSM303AGR_ACC_R_hpf_aoi_en_int1, %function
 2106              	LSM303AGR_ACC_R_hpf_aoi_en_int1:
 2107              	.LFB33:
 2108              		.loc 1 785 0
 2109              		.cfi_startproc
 2110              		@ args = 0, pretend = 0, frame = 8
 2111              		@ frame_needed = 0, uses_anonymous_args = 0
 2112 0be0 00B5     		push	{lr}
 2113              		.cfi_def_cfa_offset 4
 2114              		.cfi_offset 14, -4
 2115 0be2 83B0     		sub	sp, sp, #12
 2116              		.cfi_def_cfa_offset 16
 2117 0be4 0190     		str	r0, [sp, #4]
 2118 0be6 0091     		str	r1, [sp]
 2119              		.loc 1 786 0
 2120 0be8 0198     		ldr	r0, [sp, #4]
 2121 0bea 2121     		movs	r1, #33
 2122 0bec 009A     		ldr	r2, [sp]
 2123 0bee 0123     		movs	r3, #1
 2124 0bf0 FFF7FEFF 		bl	LSM303AGR_ACC_ReadReg
 2125 0bf4 0346     		mov	r3, r0
 2126 0bf6 002B     		cmp	r3, #0
 2127 0bf8 01D1     		bne	.L133
 2128              		.loc 1 787 0
 2129 0bfa 0023     		movs	r3, #0
 2130 0bfc 07E0     		b	.L134
 2131              	.L133:
 2132              		.loc 1 789 0
 2133 0bfe 009B     		ldr	r3, [sp]
 2134 0c00 1B78     		ldrb	r3, [r3]	@ zero_extendqisi2
ARM GAS  /tmp/ccVYwGiK.s 			page 39


 2135 0c02 03F00103 		and	r3, r3, #1
 2136 0c06 DAB2     		uxtb	r2, r3
 2137 0c08 009B     		ldr	r3, [sp]
 2138 0c0a 1A70     		strb	r2, [r3]
 2139              		.loc 1 791 0
 2140 0c0c 0123     		movs	r3, #1
 2141              	.L134:
 2142              		.loc 1 792 0
 2143 0c0e 1846     		mov	r0, r3
 2144 0c10 03B0     		add	sp, sp, #12
 2145              		@ sp needed
 2146 0c12 5DF804FB 		ldr	pc, [sp], #4
 2147              		.cfi_endproc
 2148              	.LFE33:
 2149              		.size	LSM303AGR_ACC_R_hpf_aoi_en_int1, .-LSM303AGR_ACC_R_hpf_aoi_en_int1
 2150 0c16 00BF     		.align	2
 2151 0c18 AFF30080 		.p2align 4,,15
 2151      AFF30080 
 2152              		.global	LSM303AGR_ACC_W_hpf_aoi_en_int2
 2153              		.thumb
 2154              		.thumb_func
 2155              		.type	LSM303AGR_ACC_W_hpf_aoi_en_int2, %function
 2156              	LSM303AGR_ACC_W_hpf_aoi_en_int2:
 2157              	.LFB34:
 2158              		.loc 1 802 0
 2159              		.cfi_startproc
 2160              		@ args = 0, pretend = 0, frame = 16
 2161              		@ frame_needed = 0, uses_anonymous_args = 0
 2162 0c20 00B5     		push	{lr}
 2163              		.cfi_def_cfa_offset 4
 2164              		.cfi_offset 14, -4
 2165 0c22 85B0     		sub	sp, sp, #20
 2166              		.cfi_def_cfa_offset 24
 2167 0c24 0190     		str	r0, [sp, #4]
 2168 0c26 0B46     		mov	r3, r1
 2169 0c28 8DF80330 		strb	r3, [sp, #3]
 2170              		.loc 1 805 0
 2171 0c2c 0DF10F03 		add	r3, sp, #15
 2172 0c30 0198     		ldr	r0, [sp, #4]
 2173 0c32 2121     		movs	r1, #33
 2174 0c34 1A46     		mov	r2, r3
 2175 0c36 0123     		movs	r3, #1
 2176 0c38 FFF7FEFF 		bl	LSM303AGR_ACC_ReadReg
 2177 0c3c 0346     		mov	r3, r0
 2178 0c3e 002B     		cmp	r3, #0
 2179 0c40 01D1     		bne	.L136
 2180              		.loc 1 806 0
 2181 0c42 0023     		movs	r3, #0
 2182 0c44 1CE0     		b	.L139
 2183              	.L136:
 2184              		.loc 1 808 0
 2185 0c46 9DF80F30 		ldrb	r3, [sp, #15]	@ zero_extendqisi2
 2186 0c4a 23F00203 		bic	r3, r3, #2
 2187 0c4e DBB2     		uxtb	r3, r3
 2188 0c50 8DF80F30 		strb	r3, [sp, #15]
 2189              		.loc 1 809 0
 2190 0c54 9DF80F20 		ldrb	r2, [sp, #15]	@ zero_extendqisi2
ARM GAS  /tmp/ccVYwGiK.s 			page 40


 2191 0c58 9DF80330 		ldrb	r3, [sp, #3]
 2192 0c5c 1343     		orrs	r3, r3, r2
 2193 0c5e DBB2     		uxtb	r3, r3
 2194 0c60 8DF80F30 		strb	r3, [sp, #15]
 2195              		.loc 1 811 0
 2196 0c64 0DF10F03 		add	r3, sp, #15
 2197 0c68 0198     		ldr	r0, [sp, #4]
 2198 0c6a 2121     		movs	r1, #33
 2199 0c6c 1A46     		mov	r2, r3
 2200 0c6e 0123     		movs	r3, #1
 2201 0c70 FFF7FEFF 		bl	LSM303AGR_ACC_WriteReg
 2202 0c74 0346     		mov	r3, r0
 2203 0c76 002B     		cmp	r3, #0
 2204 0c78 01D1     		bne	.L138
 2205              		.loc 1 812 0
 2206 0c7a 0023     		movs	r3, #0
 2207 0c7c 00E0     		b	.L139
 2208              	.L138:
 2209              		.loc 1 814 0
 2210 0c7e 0123     		movs	r3, #1
 2211              	.L139:
 2212              		.loc 1 815 0
 2213 0c80 1846     		mov	r0, r3
 2214 0c82 05B0     		add	sp, sp, #20
 2215              		@ sp needed
 2216 0c84 5DF804FB 		ldr	pc, [sp], #4
 2217              		.cfi_endproc
 2218              	.LFE34:
 2219              		.size	LSM303AGR_ACC_W_hpf_aoi_en_int2, .-LSM303AGR_ACC_W_hpf_aoi_en_int2
 2220              		.align	2
 2221 0c88 AFF30080 		.p2align 4,,15
 2221      AFF30080 
 2222              		.global	LSM303AGR_ACC_R_hpf_aoi_en_int2
 2223              		.thumb
 2224              		.thumb_func
 2225              		.type	LSM303AGR_ACC_R_hpf_aoi_en_int2, %function
 2226              	LSM303AGR_ACC_R_hpf_aoi_en_int2:
 2227              	.LFB35:
 2228              		.loc 1 825 0
 2229              		.cfi_startproc
 2230              		@ args = 0, pretend = 0, frame = 8
 2231              		@ frame_needed = 0, uses_anonymous_args = 0
 2232 0c90 00B5     		push	{lr}
 2233              		.cfi_def_cfa_offset 4
 2234              		.cfi_offset 14, -4
 2235 0c92 83B0     		sub	sp, sp, #12
 2236              		.cfi_def_cfa_offset 16
 2237 0c94 0190     		str	r0, [sp, #4]
 2238 0c96 0091     		str	r1, [sp]
 2239              		.loc 1 826 0
 2240 0c98 0198     		ldr	r0, [sp, #4]
 2241 0c9a 2121     		movs	r1, #33
 2242 0c9c 009A     		ldr	r2, [sp]
 2243 0c9e 0123     		movs	r3, #1
 2244 0ca0 FFF7FEFF 		bl	LSM303AGR_ACC_ReadReg
 2245 0ca4 0346     		mov	r3, r0
 2246 0ca6 002B     		cmp	r3, #0
ARM GAS  /tmp/ccVYwGiK.s 			page 41


 2247 0ca8 01D1     		bne	.L141
 2248              		.loc 1 827 0
 2249 0caa 0023     		movs	r3, #0
 2250 0cac 07E0     		b	.L142
 2251              	.L141:
 2252              		.loc 1 829 0
 2253 0cae 009B     		ldr	r3, [sp]
 2254 0cb0 1B78     		ldrb	r3, [r3]	@ zero_extendqisi2
 2255 0cb2 03F00203 		and	r3, r3, #2
 2256 0cb6 DAB2     		uxtb	r2, r3
 2257 0cb8 009B     		ldr	r3, [sp]
 2258 0cba 1A70     		strb	r2, [r3]
 2259              		.loc 1 831 0
 2260 0cbc 0123     		movs	r3, #1
 2261              	.L142:
 2262              		.loc 1 832 0
 2263 0cbe 1846     		mov	r0, r3
 2264 0cc0 03B0     		add	sp, sp, #12
 2265              		@ sp needed
 2266 0cc2 5DF804FB 		ldr	pc, [sp], #4
 2267              		.cfi_endproc
 2268              	.LFE35:
 2269              		.size	LSM303AGR_ACC_R_hpf_aoi_en_int2, .-LSM303AGR_ACC_R_hpf_aoi_en_int2
 2270 0cc6 00BF     		.align	2
 2271 0cc8 AFF30080 		.p2align 4,,15
 2271      AFF30080 
 2272              		.global	LSM303AGR_ACC_W_hpf_click_en
 2273              		.thumb
 2274              		.thumb_func
 2275              		.type	LSM303AGR_ACC_W_hpf_click_en, %function
 2276              	LSM303AGR_ACC_W_hpf_click_en:
 2277              	.LFB36:
 2278              		.loc 1 842 0
 2279              		.cfi_startproc
 2280              		@ args = 0, pretend = 0, frame = 16
 2281              		@ frame_needed = 0, uses_anonymous_args = 0
 2282 0cd0 00B5     		push	{lr}
 2283              		.cfi_def_cfa_offset 4
 2284              		.cfi_offset 14, -4
 2285 0cd2 85B0     		sub	sp, sp, #20
 2286              		.cfi_def_cfa_offset 24
 2287 0cd4 0190     		str	r0, [sp, #4]
 2288 0cd6 0B46     		mov	r3, r1
 2289 0cd8 8DF80330 		strb	r3, [sp, #3]
 2290              		.loc 1 845 0
 2291 0cdc 0DF10F03 		add	r3, sp, #15
 2292 0ce0 0198     		ldr	r0, [sp, #4]
 2293 0ce2 2121     		movs	r1, #33
 2294 0ce4 1A46     		mov	r2, r3
 2295 0ce6 0123     		movs	r3, #1
 2296 0ce8 FFF7FEFF 		bl	LSM303AGR_ACC_ReadReg
 2297 0cec 0346     		mov	r3, r0
 2298 0cee 002B     		cmp	r3, #0
 2299 0cf0 01D1     		bne	.L144
 2300              		.loc 1 846 0
 2301 0cf2 0023     		movs	r3, #0
 2302 0cf4 1CE0     		b	.L147
ARM GAS  /tmp/ccVYwGiK.s 			page 42


 2303              	.L144:
 2304              		.loc 1 848 0
 2305 0cf6 9DF80F30 		ldrb	r3, [sp, #15]	@ zero_extendqisi2
 2306 0cfa 23F00403 		bic	r3, r3, #4
 2307 0cfe DBB2     		uxtb	r3, r3
 2308 0d00 8DF80F30 		strb	r3, [sp, #15]
 2309              		.loc 1 849 0
 2310 0d04 9DF80F20 		ldrb	r2, [sp, #15]	@ zero_extendqisi2
 2311 0d08 9DF80330 		ldrb	r3, [sp, #3]
 2312 0d0c 1343     		orrs	r3, r3, r2
 2313 0d0e DBB2     		uxtb	r3, r3
 2314 0d10 8DF80F30 		strb	r3, [sp, #15]
 2315              		.loc 1 851 0
 2316 0d14 0DF10F03 		add	r3, sp, #15
 2317 0d18 0198     		ldr	r0, [sp, #4]
 2318 0d1a 2121     		movs	r1, #33
 2319 0d1c 1A46     		mov	r2, r3
 2320 0d1e 0123     		movs	r3, #1
 2321 0d20 FFF7FEFF 		bl	LSM303AGR_ACC_WriteReg
 2322 0d24 0346     		mov	r3, r0
 2323 0d26 002B     		cmp	r3, #0
 2324 0d28 01D1     		bne	.L146
 2325              		.loc 1 852 0
 2326 0d2a 0023     		movs	r3, #0
 2327 0d2c 00E0     		b	.L147
 2328              	.L146:
 2329              		.loc 1 854 0
 2330 0d2e 0123     		movs	r3, #1
 2331              	.L147:
 2332              		.loc 1 855 0
 2333 0d30 1846     		mov	r0, r3
 2334 0d32 05B0     		add	sp, sp, #20
 2335              		@ sp needed
 2336 0d34 5DF804FB 		ldr	pc, [sp], #4
 2337              		.cfi_endproc
 2338              	.LFE36:
 2339              		.size	LSM303AGR_ACC_W_hpf_click_en, .-LSM303AGR_ACC_W_hpf_click_en
 2340              		.align	2
 2341 0d38 AFF30080 		.p2align 4,,15
 2341      AFF30080 
 2342              		.global	LSM303AGR_ACC_R_hpf_click_en
 2343              		.thumb
 2344              		.thumb_func
 2345              		.type	LSM303AGR_ACC_R_hpf_click_en, %function
 2346              	LSM303AGR_ACC_R_hpf_click_en:
 2347              	.LFB37:
 2348              		.loc 1 865 0
 2349              		.cfi_startproc
 2350              		@ args = 0, pretend = 0, frame = 8
 2351              		@ frame_needed = 0, uses_anonymous_args = 0
 2352 0d40 00B5     		push	{lr}
 2353              		.cfi_def_cfa_offset 4
 2354              		.cfi_offset 14, -4
 2355 0d42 83B0     		sub	sp, sp, #12
 2356              		.cfi_def_cfa_offset 16
 2357 0d44 0190     		str	r0, [sp, #4]
 2358 0d46 0091     		str	r1, [sp]
ARM GAS  /tmp/ccVYwGiK.s 			page 43


 2359              		.loc 1 866 0
 2360 0d48 0198     		ldr	r0, [sp, #4]
 2361 0d4a 2121     		movs	r1, #33
 2362 0d4c 009A     		ldr	r2, [sp]
 2363 0d4e 0123     		movs	r3, #1
 2364 0d50 FFF7FEFF 		bl	LSM303AGR_ACC_ReadReg
 2365 0d54 0346     		mov	r3, r0
 2366 0d56 002B     		cmp	r3, #0
 2367 0d58 01D1     		bne	.L149
 2368              		.loc 1 867 0
 2369 0d5a 0023     		movs	r3, #0
 2370 0d5c 07E0     		b	.L150
 2371              	.L149:
 2372              		.loc 1 869 0
 2373 0d5e 009B     		ldr	r3, [sp]
 2374 0d60 1B78     		ldrb	r3, [r3]	@ zero_extendqisi2
 2375 0d62 03F00403 		and	r3, r3, #4
 2376 0d66 DAB2     		uxtb	r2, r3
 2377 0d68 009B     		ldr	r3, [sp]
 2378 0d6a 1A70     		strb	r2, [r3]
 2379              		.loc 1 871 0
 2380 0d6c 0123     		movs	r3, #1
 2381              	.L150:
 2382              		.loc 1 872 0
 2383 0d6e 1846     		mov	r0, r3
 2384 0d70 03B0     		add	sp, sp, #12
 2385              		@ sp needed
 2386 0d72 5DF804FB 		ldr	pc, [sp], #4
 2387              		.cfi_endproc
 2388              	.LFE37:
 2389              		.size	LSM303AGR_ACC_R_hpf_click_en, .-LSM303AGR_ACC_R_hpf_click_en
 2390 0d76 00BF     		.align	2
 2391 0d78 AFF30080 		.p2align 4,,15
 2391      AFF30080 
 2392              		.global	LSM303AGR_ACC_W_Data_Filter
 2393              		.thumb
 2394              		.thumb_func
 2395              		.type	LSM303AGR_ACC_W_Data_Filter, %function
 2396              	LSM303AGR_ACC_W_Data_Filter:
 2397              	.LFB38:
 2398              		.loc 1 882 0
 2399              		.cfi_startproc
 2400              		@ args = 0, pretend = 0, frame = 16
 2401              		@ frame_needed = 0, uses_anonymous_args = 0
 2402 0d80 00B5     		push	{lr}
 2403              		.cfi_def_cfa_offset 4
 2404              		.cfi_offset 14, -4
 2405 0d82 85B0     		sub	sp, sp, #20
 2406              		.cfi_def_cfa_offset 24
 2407 0d84 0190     		str	r0, [sp, #4]
 2408 0d86 0B46     		mov	r3, r1
 2409 0d88 8DF80330 		strb	r3, [sp, #3]
 2410              		.loc 1 885 0
 2411 0d8c 0DF10F03 		add	r3, sp, #15
 2412 0d90 0198     		ldr	r0, [sp, #4]
 2413 0d92 2121     		movs	r1, #33
 2414 0d94 1A46     		mov	r2, r3
ARM GAS  /tmp/ccVYwGiK.s 			page 44


 2415 0d96 0123     		movs	r3, #1
 2416 0d98 FFF7FEFF 		bl	LSM303AGR_ACC_ReadReg
 2417 0d9c 0346     		mov	r3, r0
 2418 0d9e 002B     		cmp	r3, #0
 2419 0da0 01D1     		bne	.L152
 2420              		.loc 1 886 0
 2421 0da2 0023     		movs	r3, #0
 2422 0da4 1CE0     		b	.L155
 2423              	.L152:
 2424              		.loc 1 888 0
 2425 0da6 9DF80F30 		ldrb	r3, [sp, #15]	@ zero_extendqisi2
 2426 0daa 23F00803 		bic	r3, r3, #8
 2427 0dae DBB2     		uxtb	r3, r3
 2428 0db0 8DF80F30 		strb	r3, [sp, #15]
 2429              		.loc 1 889 0
 2430 0db4 9DF80F20 		ldrb	r2, [sp, #15]	@ zero_extendqisi2
 2431 0db8 9DF80330 		ldrb	r3, [sp, #3]
 2432 0dbc 1343     		orrs	r3, r3, r2
 2433 0dbe DBB2     		uxtb	r3, r3
 2434 0dc0 8DF80F30 		strb	r3, [sp, #15]
 2435              		.loc 1 891 0
 2436 0dc4 0DF10F03 		add	r3, sp, #15
 2437 0dc8 0198     		ldr	r0, [sp, #4]
 2438 0dca 2121     		movs	r1, #33
 2439 0dcc 1A46     		mov	r2, r3
 2440 0dce 0123     		movs	r3, #1
 2441 0dd0 FFF7FEFF 		bl	LSM303AGR_ACC_WriteReg
 2442 0dd4 0346     		mov	r3, r0
 2443 0dd6 002B     		cmp	r3, #0
 2444 0dd8 01D1     		bne	.L154
 2445              		.loc 1 892 0
 2446 0dda 0023     		movs	r3, #0
 2447 0ddc 00E0     		b	.L155
 2448              	.L154:
 2449              		.loc 1 894 0
 2450 0dde 0123     		movs	r3, #1
 2451              	.L155:
 2452              		.loc 1 895 0
 2453 0de0 1846     		mov	r0, r3
 2454 0de2 05B0     		add	sp, sp, #20
 2455              		@ sp needed
 2456 0de4 5DF804FB 		ldr	pc, [sp], #4
 2457              		.cfi_endproc
 2458              	.LFE38:
 2459              		.size	LSM303AGR_ACC_W_Data_Filter, .-LSM303AGR_ACC_W_Data_Filter
 2460              		.align	2
 2461 0de8 AFF30080 		.p2align 4,,15
 2461      AFF30080 
 2462              		.global	LSM303AGR_ACC_R_Data_Filter
 2463              		.thumb
 2464              		.thumb_func
 2465              		.type	LSM303AGR_ACC_R_Data_Filter, %function
 2466              	LSM303AGR_ACC_R_Data_Filter:
 2467              	.LFB39:
 2468              		.loc 1 905 0
 2469              		.cfi_startproc
 2470              		@ args = 0, pretend = 0, frame = 8
ARM GAS  /tmp/ccVYwGiK.s 			page 45


 2471              		@ frame_needed = 0, uses_anonymous_args = 0
 2472 0df0 00B5     		push	{lr}
 2473              		.cfi_def_cfa_offset 4
 2474              		.cfi_offset 14, -4
 2475 0df2 83B0     		sub	sp, sp, #12
 2476              		.cfi_def_cfa_offset 16
 2477 0df4 0190     		str	r0, [sp, #4]
 2478 0df6 0091     		str	r1, [sp]
 2479              		.loc 1 906 0
 2480 0df8 0198     		ldr	r0, [sp, #4]
 2481 0dfa 2121     		movs	r1, #33
 2482 0dfc 009A     		ldr	r2, [sp]
 2483 0dfe 0123     		movs	r3, #1
 2484 0e00 FFF7FEFF 		bl	LSM303AGR_ACC_ReadReg
 2485 0e04 0346     		mov	r3, r0
 2486 0e06 002B     		cmp	r3, #0
 2487 0e08 01D1     		bne	.L157
 2488              		.loc 1 907 0
 2489 0e0a 0023     		movs	r3, #0
 2490 0e0c 07E0     		b	.L158
 2491              	.L157:
 2492              		.loc 1 909 0
 2493 0e0e 009B     		ldr	r3, [sp]
 2494 0e10 1B78     		ldrb	r3, [r3]	@ zero_extendqisi2
 2495 0e12 03F00803 		and	r3, r3, #8
 2496 0e16 DAB2     		uxtb	r2, r3
 2497 0e18 009B     		ldr	r3, [sp]
 2498 0e1a 1A70     		strb	r2, [r3]
 2499              		.loc 1 911 0
 2500 0e1c 0123     		movs	r3, #1
 2501              	.L158:
 2502              		.loc 1 912 0
 2503 0e1e 1846     		mov	r0, r3
 2504 0e20 03B0     		add	sp, sp, #12
 2505              		@ sp needed
 2506 0e22 5DF804FB 		ldr	pc, [sp], #4
 2507              		.cfi_endproc
 2508              	.LFE39:
 2509              		.size	LSM303AGR_ACC_R_Data_Filter, .-LSM303AGR_ACC_R_Data_Filter
 2510 0e26 00BF     		.align	2
 2511 0e28 AFF30080 		.p2align 4,,15
 2511      AFF30080 
 2512              		.global	LSM303AGR_ACC_W_hpf_cutoff_freq
 2513              		.thumb
 2514              		.thumb_func
 2515              		.type	LSM303AGR_ACC_W_hpf_cutoff_freq, %function
 2516              	LSM303AGR_ACC_W_hpf_cutoff_freq:
 2517              	.LFB40:
 2518              		.loc 1 922 0
 2519              		.cfi_startproc
 2520              		@ args = 0, pretend = 0, frame = 16
 2521              		@ frame_needed = 0, uses_anonymous_args = 0
 2522 0e30 00B5     		push	{lr}
 2523              		.cfi_def_cfa_offset 4
 2524              		.cfi_offset 14, -4
 2525 0e32 85B0     		sub	sp, sp, #20
 2526              		.cfi_def_cfa_offset 24
ARM GAS  /tmp/ccVYwGiK.s 			page 46


 2527 0e34 0190     		str	r0, [sp, #4]
 2528 0e36 0B46     		mov	r3, r1
 2529 0e38 8DF80330 		strb	r3, [sp, #3]
 2530              		.loc 1 925 0
 2531 0e3c 0DF10F03 		add	r3, sp, #15
 2532 0e40 0198     		ldr	r0, [sp, #4]
 2533 0e42 2121     		movs	r1, #33
 2534 0e44 1A46     		mov	r2, r3
 2535 0e46 0123     		movs	r3, #1
 2536 0e48 FFF7FEFF 		bl	LSM303AGR_ACC_ReadReg
 2537 0e4c 0346     		mov	r3, r0
 2538 0e4e 002B     		cmp	r3, #0
 2539 0e50 01D1     		bne	.L160
 2540              		.loc 1 926 0
 2541 0e52 0023     		movs	r3, #0
 2542 0e54 1CE0     		b	.L163
 2543              	.L160:
 2544              		.loc 1 928 0
 2545 0e56 9DF80F30 		ldrb	r3, [sp, #15]	@ zero_extendqisi2
 2546 0e5a 23F03003 		bic	r3, r3, #48
 2547 0e5e DBB2     		uxtb	r3, r3
 2548 0e60 8DF80F30 		strb	r3, [sp, #15]
 2549              		.loc 1 929 0
 2550 0e64 9DF80F20 		ldrb	r2, [sp, #15]	@ zero_extendqisi2
 2551 0e68 9DF80330 		ldrb	r3, [sp, #3]
 2552 0e6c 1343     		orrs	r3, r3, r2
 2553 0e6e DBB2     		uxtb	r3, r3
 2554 0e70 8DF80F30 		strb	r3, [sp, #15]
 2555              		.loc 1 931 0
 2556 0e74 0DF10F03 		add	r3, sp, #15
 2557 0e78 0198     		ldr	r0, [sp, #4]
 2558 0e7a 2121     		movs	r1, #33
 2559 0e7c 1A46     		mov	r2, r3
 2560 0e7e 0123     		movs	r3, #1
 2561 0e80 FFF7FEFF 		bl	LSM303AGR_ACC_WriteReg
 2562 0e84 0346     		mov	r3, r0
 2563 0e86 002B     		cmp	r3, #0
 2564 0e88 01D1     		bne	.L162
 2565              		.loc 1 932 0
 2566 0e8a 0023     		movs	r3, #0
 2567 0e8c 00E0     		b	.L163
 2568              	.L162:
 2569              		.loc 1 934 0
 2570 0e8e 0123     		movs	r3, #1
 2571              	.L163:
 2572              		.loc 1 935 0
 2573 0e90 1846     		mov	r0, r3
 2574 0e92 05B0     		add	sp, sp, #20
 2575              		@ sp needed
 2576 0e94 5DF804FB 		ldr	pc, [sp], #4
 2577              		.cfi_endproc
 2578              	.LFE40:
 2579              		.size	LSM303AGR_ACC_W_hpf_cutoff_freq, .-LSM303AGR_ACC_W_hpf_cutoff_freq
 2580              		.align	2
 2581 0e98 AFF30080 		.p2align 4,,15
 2581      AFF30080 
 2582              		.global	LSM303AGR_ACC_R_hpf_cutoff_freq
ARM GAS  /tmp/ccVYwGiK.s 			page 47


 2583              		.thumb
 2584              		.thumb_func
 2585              		.type	LSM303AGR_ACC_R_hpf_cutoff_freq, %function
 2586              	LSM303AGR_ACC_R_hpf_cutoff_freq:
 2587              	.LFB41:
 2588              		.loc 1 945 0
 2589              		.cfi_startproc
 2590              		@ args = 0, pretend = 0, frame = 8
 2591              		@ frame_needed = 0, uses_anonymous_args = 0
 2592 0ea0 00B5     		push	{lr}
 2593              		.cfi_def_cfa_offset 4
 2594              		.cfi_offset 14, -4
 2595 0ea2 83B0     		sub	sp, sp, #12
 2596              		.cfi_def_cfa_offset 16
 2597 0ea4 0190     		str	r0, [sp, #4]
 2598 0ea6 0091     		str	r1, [sp]
 2599              		.loc 1 946 0
 2600 0ea8 0198     		ldr	r0, [sp, #4]
 2601 0eaa 2121     		movs	r1, #33
 2602 0eac 009A     		ldr	r2, [sp]
 2603 0eae 0123     		movs	r3, #1
 2604 0eb0 FFF7FEFF 		bl	LSM303AGR_ACC_ReadReg
 2605 0eb4 0346     		mov	r3, r0
 2606 0eb6 002B     		cmp	r3, #0
 2607 0eb8 01D1     		bne	.L165
 2608              		.loc 1 947 0
 2609 0eba 0023     		movs	r3, #0
 2610 0ebc 07E0     		b	.L166
 2611              	.L165:
 2612              		.loc 1 949 0
 2613 0ebe 009B     		ldr	r3, [sp]
 2614 0ec0 1B78     		ldrb	r3, [r3]	@ zero_extendqisi2
 2615 0ec2 03F03003 		and	r3, r3, #48
 2616 0ec6 DAB2     		uxtb	r2, r3
 2617 0ec8 009B     		ldr	r3, [sp]
 2618 0eca 1A70     		strb	r2, [r3]
 2619              		.loc 1 951 0
 2620 0ecc 0123     		movs	r3, #1
 2621              	.L166:
 2622              		.loc 1 952 0
 2623 0ece 1846     		mov	r0, r3
 2624 0ed0 03B0     		add	sp, sp, #12
 2625              		@ sp needed
 2626 0ed2 5DF804FB 		ldr	pc, [sp], #4
 2627              		.cfi_endproc
 2628              	.LFE41:
 2629              		.size	LSM303AGR_ACC_R_hpf_cutoff_freq, .-LSM303AGR_ACC_R_hpf_cutoff_freq
 2630 0ed6 00BF     		.align	2
 2631 0ed8 AFF30080 		.p2align 4,,15
 2631      AFF30080 
 2632              		.global	LSM303AGR_ACC_W_hpf_mode
 2633              		.thumb
 2634              		.thumb_func
 2635              		.type	LSM303AGR_ACC_W_hpf_mode, %function
 2636              	LSM303AGR_ACC_W_hpf_mode:
 2637              	.LFB42:
 2638              		.loc 1 962 0
ARM GAS  /tmp/ccVYwGiK.s 			page 48


 2639              		.cfi_startproc
 2640              		@ args = 0, pretend = 0, frame = 16
 2641              		@ frame_needed = 0, uses_anonymous_args = 0
 2642 0ee0 00B5     		push	{lr}
 2643              		.cfi_def_cfa_offset 4
 2644              		.cfi_offset 14, -4
 2645 0ee2 85B0     		sub	sp, sp, #20
 2646              		.cfi_def_cfa_offset 24
 2647 0ee4 0190     		str	r0, [sp, #4]
 2648 0ee6 0B46     		mov	r3, r1
 2649 0ee8 8DF80330 		strb	r3, [sp, #3]
 2650              		.loc 1 965 0
 2651 0eec 0DF10F03 		add	r3, sp, #15
 2652 0ef0 0198     		ldr	r0, [sp, #4]
 2653 0ef2 2121     		movs	r1, #33
 2654 0ef4 1A46     		mov	r2, r3
 2655 0ef6 0123     		movs	r3, #1
 2656 0ef8 FFF7FEFF 		bl	LSM303AGR_ACC_ReadReg
 2657 0efc 0346     		mov	r3, r0
 2658 0efe 002B     		cmp	r3, #0
 2659 0f00 01D1     		bne	.L168
 2660              		.loc 1 966 0
 2661 0f02 0023     		movs	r3, #0
 2662 0f04 1CE0     		b	.L171
 2663              	.L168:
 2664              		.loc 1 968 0
 2665 0f06 9DF80F30 		ldrb	r3, [sp, #15]	@ zero_extendqisi2
 2666 0f0a 03F03F03 		and	r3, r3, #63
 2667 0f0e DBB2     		uxtb	r3, r3
 2668 0f10 8DF80F30 		strb	r3, [sp, #15]
 2669              		.loc 1 969 0
 2670 0f14 9DF80F20 		ldrb	r2, [sp, #15]	@ zero_extendqisi2
 2671 0f18 9DF80330 		ldrb	r3, [sp, #3]
 2672 0f1c 1343     		orrs	r3, r3, r2
 2673 0f1e DBB2     		uxtb	r3, r3
 2674 0f20 8DF80F30 		strb	r3, [sp, #15]
 2675              		.loc 1 971 0
 2676 0f24 0DF10F03 		add	r3, sp, #15
 2677 0f28 0198     		ldr	r0, [sp, #4]
 2678 0f2a 2121     		movs	r1, #33
 2679 0f2c 1A46     		mov	r2, r3
 2680 0f2e 0123     		movs	r3, #1
 2681 0f30 FFF7FEFF 		bl	LSM303AGR_ACC_WriteReg
 2682 0f34 0346     		mov	r3, r0
 2683 0f36 002B     		cmp	r3, #0
 2684 0f38 01D1     		bne	.L170
 2685              		.loc 1 972 0
 2686 0f3a 0023     		movs	r3, #0
 2687 0f3c 00E0     		b	.L171
 2688              	.L170:
 2689              		.loc 1 974 0
 2690 0f3e 0123     		movs	r3, #1
 2691              	.L171:
 2692              		.loc 1 975 0
 2693 0f40 1846     		mov	r0, r3
 2694 0f42 05B0     		add	sp, sp, #20
 2695              		@ sp needed
ARM GAS  /tmp/ccVYwGiK.s 			page 49


 2696 0f44 5DF804FB 		ldr	pc, [sp], #4
 2697              		.cfi_endproc
 2698              	.LFE42:
 2699              		.size	LSM303AGR_ACC_W_hpf_mode, .-LSM303AGR_ACC_W_hpf_mode
 2700              		.align	2
 2701 0f48 AFF30080 		.p2align 4,,15
 2701      AFF30080 
 2702              		.global	LSM303AGR_ACC_R_hpf_mode
 2703              		.thumb
 2704              		.thumb_func
 2705              		.type	LSM303AGR_ACC_R_hpf_mode, %function
 2706              	LSM303AGR_ACC_R_hpf_mode:
 2707              	.LFB43:
 2708              		.loc 1 985 0
 2709              		.cfi_startproc
 2710              		@ args = 0, pretend = 0, frame = 8
 2711              		@ frame_needed = 0, uses_anonymous_args = 0
 2712 0f50 00B5     		push	{lr}
 2713              		.cfi_def_cfa_offset 4
 2714              		.cfi_offset 14, -4
 2715 0f52 83B0     		sub	sp, sp, #12
 2716              		.cfi_def_cfa_offset 16
 2717 0f54 0190     		str	r0, [sp, #4]
 2718 0f56 0091     		str	r1, [sp]
 2719              		.loc 1 986 0
 2720 0f58 0198     		ldr	r0, [sp, #4]
 2721 0f5a 2121     		movs	r1, #33
 2722 0f5c 009A     		ldr	r2, [sp]
 2723 0f5e 0123     		movs	r3, #1
 2724 0f60 FFF7FEFF 		bl	LSM303AGR_ACC_ReadReg
 2725 0f64 0346     		mov	r3, r0
 2726 0f66 002B     		cmp	r3, #0
 2727 0f68 01D1     		bne	.L173
 2728              		.loc 1 987 0
 2729 0f6a 0023     		movs	r3, #0
 2730 0f6c 07E0     		b	.L174
 2731              	.L173:
 2732              		.loc 1 989 0
 2733 0f6e 009B     		ldr	r3, [sp]
 2734 0f70 1B78     		ldrb	r3, [r3]	@ zero_extendqisi2
 2735 0f72 23F03F03 		bic	r3, r3, #63
 2736 0f76 DAB2     		uxtb	r2, r3
 2737 0f78 009B     		ldr	r3, [sp]
 2738 0f7a 1A70     		strb	r2, [r3]
 2739              		.loc 1 991 0
 2740 0f7c 0123     		movs	r3, #1
 2741              	.L174:
 2742              		.loc 1 992 0
 2743 0f7e 1846     		mov	r0, r3
 2744 0f80 03B0     		add	sp, sp, #12
 2745              		@ sp needed
 2746 0f82 5DF804FB 		ldr	pc, [sp], #4
 2747              		.cfi_endproc
 2748              	.LFE43:
 2749              		.size	LSM303AGR_ACC_R_hpf_mode, .-LSM303AGR_ACC_R_hpf_mode
 2750 0f86 00BF     		.align	2
 2751 0f88 AFF30080 		.p2align 4,,15
ARM GAS  /tmp/ccVYwGiK.s 			page 50


 2751      AFF30080 
 2752              		.global	LSM303AGR_ACC_W_FIFO_Overrun_on_INT1
 2753              		.thumb
 2754              		.thumb_func
 2755              		.type	LSM303AGR_ACC_W_FIFO_Overrun_on_INT1, %function
 2756              	LSM303AGR_ACC_W_FIFO_Overrun_on_INT1:
 2757              	.LFB44:
 2758              		.loc 1 1002 0
 2759              		.cfi_startproc
 2760              		@ args = 0, pretend = 0, frame = 16
 2761              		@ frame_needed = 0, uses_anonymous_args = 0
 2762 0f90 00B5     		push	{lr}
 2763              		.cfi_def_cfa_offset 4
 2764              		.cfi_offset 14, -4
 2765 0f92 85B0     		sub	sp, sp, #20
 2766              		.cfi_def_cfa_offset 24
 2767 0f94 0190     		str	r0, [sp, #4]
 2768 0f96 0B46     		mov	r3, r1
 2769 0f98 8DF80330 		strb	r3, [sp, #3]
 2770              		.loc 1 1005 0
 2771 0f9c 0DF10F03 		add	r3, sp, #15
 2772 0fa0 0198     		ldr	r0, [sp, #4]
 2773 0fa2 2221     		movs	r1, #34
 2774 0fa4 1A46     		mov	r2, r3
 2775 0fa6 0123     		movs	r3, #1
 2776 0fa8 FFF7FEFF 		bl	LSM303AGR_ACC_ReadReg
 2777 0fac 0346     		mov	r3, r0
 2778 0fae 002B     		cmp	r3, #0
 2779 0fb0 01D1     		bne	.L176
 2780              		.loc 1 1006 0
 2781 0fb2 0023     		movs	r3, #0
 2782 0fb4 1CE0     		b	.L179
 2783              	.L176:
 2784              		.loc 1 1008 0
 2785 0fb6 9DF80F30 		ldrb	r3, [sp, #15]	@ zero_extendqisi2
 2786 0fba 23F00203 		bic	r3, r3, #2
 2787 0fbe DBB2     		uxtb	r3, r3
 2788 0fc0 8DF80F30 		strb	r3, [sp, #15]
 2789              		.loc 1 1009 0
 2790 0fc4 9DF80F20 		ldrb	r2, [sp, #15]	@ zero_extendqisi2
 2791 0fc8 9DF80330 		ldrb	r3, [sp, #3]
 2792 0fcc 1343     		orrs	r3, r3, r2
 2793 0fce DBB2     		uxtb	r3, r3
 2794 0fd0 8DF80F30 		strb	r3, [sp, #15]
 2795              		.loc 1 1011 0
 2796 0fd4 0DF10F03 		add	r3, sp, #15
 2797 0fd8 0198     		ldr	r0, [sp, #4]
 2798 0fda 2221     		movs	r1, #34
 2799 0fdc 1A46     		mov	r2, r3
 2800 0fde 0123     		movs	r3, #1
 2801 0fe0 FFF7FEFF 		bl	LSM303AGR_ACC_WriteReg
 2802 0fe4 0346     		mov	r3, r0
 2803 0fe6 002B     		cmp	r3, #0
 2804 0fe8 01D1     		bne	.L178
 2805              		.loc 1 1012 0
 2806 0fea 0023     		movs	r3, #0
 2807 0fec 00E0     		b	.L179
ARM GAS  /tmp/ccVYwGiK.s 			page 51


 2808              	.L178:
 2809              		.loc 1 1014 0
 2810 0fee 0123     		movs	r3, #1
 2811              	.L179:
 2812              		.loc 1 1015 0
 2813 0ff0 1846     		mov	r0, r3
 2814 0ff2 05B0     		add	sp, sp, #20
 2815              		@ sp needed
 2816 0ff4 5DF804FB 		ldr	pc, [sp], #4
 2817              		.cfi_endproc
 2818              	.LFE44:
 2819              		.size	LSM303AGR_ACC_W_FIFO_Overrun_on_INT1, .-LSM303AGR_ACC_W_FIFO_Overrun_on_INT1
 2820              		.align	2
 2821 0ff8 AFF30080 		.p2align 4,,15
 2821      AFF30080 
 2822              		.global	LSM303AGR_ACC_R_FIFO_Overrun_on_INT1
 2823              		.thumb
 2824              		.thumb_func
 2825              		.type	LSM303AGR_ACC_R_FIFO_Overrun_on_INT1, %function
 2826              	LSM303AGR_ACC_R_FIFO_Overrun_on_INT1:
 2827              	.LFB45:
 2828              		.loc 1 1025 0
 2829              		.cfi_startproc
 2830              		@ args = 0, pretend = 0, frame = 8
 2831              		@ frame_needed = 0, uses_anonymous_args = 0
 2832 1000 00B5     		push	{lr}
 2833              		.cfi_def_cfa_offset 4
 2834              		.cfi_offset 14, -4
 2835 1002 83B0     		sub	sp, sp, #12
 2836              		.cfi_def_cfa_offset 16
 2837 1004 0190     		str	r0, [sp, #4]
 2838 1006 0091     		str	r1, [sp]
 2839              		.loc 1 1026 0
 2840 1008 0198     		ldr	r0, [sp, #4]
 2841 100a 2221     		movs	r1, #34
 2842 100c 009A     		ldr	r2, [sp]
 2843 100e 0123     		movs	r3, #1
 2844 1010 FFF7FEFF 		bl	LSM303AGR_ACC_ReadReg
 2845 1014 0346     		mov	r3, r0
 2846 1016 002B     		cmp	r3, #0
 2847 1018 01D1     		bne	.L181
 2848              		.loc 1 1027 0
 2849 101a 0023     		movs	r3, #0
 2850 101c 07E0     		b	.L182
 2851              	.L181:
 2852              		.loc 1 1029 0
 2853 101e 009B     		ldr	r3, [sp]
 2854 1020 1B78     		ldrb	r3, [r3]	@ zero_extendqisi2
 2855 1022 03F00203 		and	r3, r3, #2
 2856 1026 DAB2     		uxtb	r2, r3
 2857 1028 009B     		ldr	r3, [sp]
 2858 102a 1A70     		strb	r2, [r3]
 2859              		.loc 1 1031 0
 2860 102c 0123     		movs	r3, #1
 2861              	.L182:
 2862              		.loc 1 1032 0
 2863 102e 1846     		mov	r0, r3
ARM GAS  /tmp/ccVYwGiK.s 			page 52


 2864 1030 03B0     		add	sp, sp, #12
 2865              		@ sp needed
 2866 1032 5DF804FB 		ldr	pc, [sp], #4
 2867              		.cfi_endproc
 2868              	.LFE45:
 2869              		.size	LSM303AGR_ACC_R_FIFO_Overrun_on_INT1, .-LSM303AGR_ACC_R_FIFO_Overrun_on_INT1
 2870 1036 00BF     		.align	2
 2871 1038 AFF30080 		.p2align 4,,15
 2871      AFF30080 
 2872              		.global	LSM303AGR_ACC_W_FIFO_Watermark_on_INT1
 2873              		.thumb
 2874              		.thumb_func
 2875              		.type	LSM303AGR_ACC_W_FIFO_Watermark_on_INT1, %function
 2876              	LSM303AGR_ACC_W_FIFO_Watermark_on_INT1:
 2877              	.LFB46:
 2878              		.loc 1 1042 0
 2879              		.cfi_startproc
 2880              		@ args = 0, pretend = 0, frame = 16
 2881              		@ frame_needed = 0, uses_anonymous_args = 0
 2882 1040 00B5     		push	{lr}
 2883              		.cfi_def_cfa_offset 4
 2884              		.cfi_offset 14, -4
 2885 1042 85B0     		sub	sp, sp, #20
 2886              		.cfi_def_cfa_offset 24
 2887 1044 0190     		str	r0, [sp, #4]
 2888 1046 0B46     		mov	r3, r1
 2889 1048 8DF80330 		strb	r3, [sp, #3]
 2890              		.loc 1 1045 0
 2891 104c 0DF10F03 		add	r3, sp, #15
 2892 1050 0198     		ldr	r0, [sp, #4]
 2893 1052 2221     		movs	r1, #34
 2894 1054 1A46     		mov	r2, r3
 2895 1056 0123     		movs	r3, #1
 2896 1058 FFF7FEFF 		bl	LSM303AGR_ACC_ReadReg
 2897 105c 0346     		mov	r3, r0
 2898 105e 002B     		cmp	r3, #0
 2899 1060 01D1     		bne	.L184
 2900              		.loc 1 1046 0
 2901 1062 0023     		movs	r3, #0
 2902 1064 1CE0     		b	.L187
 2903              	.L184:
 2904              		.loc 1 1048 0
 2905 1066 9DF80F30 		ldrb	r3, [sp, #15]	@ zero_extendqisi2
 2906 106a 23F00403 		bic	r3, r3, #4
 2907 106e DBB2     		uxtb	r3, r3
 2908 1070 8DF80F30 		strb	r3, [sp, #15]
 2909              		.loc 1 1049 0
 2910 1074 9DF80F20 		ldrb	r2, [sp, #15]	@ zero_extendqisi2
 2911 1078 9DF80330 		ldrb	r3, [sp, #3]
 2912 107c 1343     		orrs	r3, r3, r2
 2913 107e DBB2     		uxtb	r3, r3
 2914 1080 8DF80F30 		strb	r3, [sp, #15]
 2915              		.loc 1 1051 0
 2916 1084 0DF10F03 		add	r3, sp, #15
 2917 1088 0198     		ldr	r0, [sp, #4]
 2918 108a 2221     		movs	r1, #34
 2919 108c 1A46     		mov	r2, r3
ARM GAS  /tmp/ccVYwGiK.s 			page 53


 2920 108e 0123     		movs	r3, #1
 2921 1090 FFF7FEFF 		bl	LSM303AGR_ACC_WriteReg
 2922 1094 0346     		mov	r3, r0
 2923 1096 002B     		cmp	r3, #0
 2924 1098 01D1     		bne	.L186
 2925              		.loc 1 1052 0
 2926 109a 0023     		movs	r3, #0
 2927 109c 00E0     		b	.L187
 2928              	.L186:
 2929              		.loc 1 1054 0
 2930 109e 0123     		movs	r3, #1
 2931              	.L187:
 2932              		.loc 1 1055 0
 2933 10a0 1846     		mov	r0, r3
 2934 10a2 05B0     		add	sp, sp, #20
 2935              		@ sp needed
 2936 10a4 5DF804FB 		ldr	pc, [sp], #4
 2937              		.cfi_endproc
 2938              	.LFE46:
 2939              		.size	LSM303AGR_ACC_W_FIFO_Watermark_on_INT1, .-LSM303AGR_ACC_W_FIFO_Watermark_on_INT1
 2940              		.align	2
 2941 10a8 AFF30080 		.p2align 4,,15
 2941      AFF30080 
 2942              		.global	LSM303AGR_ACC_R_FIFO_Watermark_on_INT1
 2943              		.thumb
 2944              		.thumb_func
 2945              		.type	LSM303AGR_ACC_R_FIFO_Watermark_on_INT1, %function
 2946              	LSM303AGR_ACC_R_FIFO_Watermark_on_INT1:
 2947              	.LFB47:
 2948              		.loc 1 1065 0
 2949              		.cfi_startproc
 2950              		@ args = 0, pretend = 0, frame = 8
 2951              		@ frame_needed = 0, uses_anonymous_args = 0
 2952 10b0 00B5     		push	{lr}
 2953              		.cfi_def_cfa_offset 4
 2954              		.cfi_offset 14, -4
 2955 10b2 83B0     		sub	sp, sp, #12
 2956              		.cfi_def_cfa_offset 16
 2957 10b4 0190     		str	r0, [sp, #4]
 2958 10b6 0091     		str	r1, [sp]
 2959              		.loc 1 1066 0
 2960 10b8 0198     		ldr	r0, [sp, #4]
 2961 10ba 2221     		movs	r1, #34
 2962 10bc 009A     		ldr	r2, [sp]
 2963 10be 0123     		movs	r3, #1
 2964 10c0 FFF7FEFF 		bl	LSM303AGR_ACC_ReadReg
 2965 10c4 0346     		mov	r3, r0
 2966 10c6 002B     		cmp	r3, #0
 2967 10c8 01D1     		bne	.L189
 2968              		.loc 1 1067 0
 2969 10ca 0023     		movs	r3, #0
 2970 10cc 07E0     		b	.L190
 2971              	.L189:
 2972              		.loc 1 1069 0
 2973 10ce 009B     		ldr	r3, [sp]
 2974 10d0 1B78     		ldrb	r3, [r3]	@ zero_extendqisi2
 2975 10d2 03F00403 		and	r3, r3, #4
ARM GAS  /tmp/ccVYwGiK.s 			page 54


 2976 10d6 DAB2     		uxtb	r2, r3
 2977 10d8 009B     		ldr	r3, [sp]
 2978 10da 1A70     		strb	r2, [r3]
 2979              		.loc 1 1071 0
 2980 10dc 0123     		movs	r3, #1
 2981              	.L190:
 2982              		.loc 1 1072 0
 2983 10de 1846     		mov	r0, r3
 2984 10e0 03B0     		add	sp, sp, #12
 2985              		@ sp needed
 2986 10e2 5DF804FB 		ldr	pc, [sp], #4
 2987              		.cfi_endproc
 2988              	.LFE47:
 2989              		.size	LSM303AGR_ACC_R_FIFO_Watermark_on_INT1, .-LSM303AGR_ACC_R_FIFO_Watermark_on_INT1
 2990 10e6 00BF     		.align	2
 2991 10e8 AFF30080 		.p2align 4,,15
 2991      AFF30080 
 2992              		.global	LSM303AGR_ACC_W_FIFO_DRDY2_on_INT1
 2993              		.thumb
 2994              		.thumb_func
 2995              		.type	LSM303AGR_ACC_W_FIFO_DRDY2_on_INT1, %function
 2996              	LSM303AGR_ACC_W_FIFO_DRDY2_on_INT1:
 2997              	.LFB48:
 2998              		.loc 1 1082 0
 2999              		.cfi_startproc
 3000              		@ args = 0, pretend = 0, frame = 16
 3001              		@ frame_needed = 0, uses_anonymous_args = 0
 3002 10f0 00B5     		push	{lr}
 3003              		.cfi_def_cfa_offset 4
 3004              		.cfi_offset 14, -4
 3005 10f2 85B0     		sub	sp, sp, #20
 3006              		.cfi_def_cfa_offset 24
 3007 10f4 0190     		str	r0, [sp, #4]
 3008 10f6 0B46     		mov	r3, r1
 3009 10f8 8DF80330 		strb	r3, [sp, #3]
 3010              		.loc 1 1085 0
 3011 10fc 0DF10F03 		add	r3, sp, #15
 3012 1100 0198     		ldr	r0, [sp, #4]
 3013 1102 2221     		movs	r1, #34
 3014 1104 1A46     		mov	r2, r3
 3015 1106 0123     		movs	r3, #1
 3016 1108 FFF7FEFF 		bl	LSM303AGR_ACC_ReadReg
 3017 110c 0346     		mov	r3, r0
 3018 110e 002B     		cmp	r3, #0
 3019 1110 01D1     		bne	.L192
 3020              		.loc 1 1086 0
 3021 1112 0023     		movs	r3, #0
 3022 1114 1CE0     		b	.L195
 3023              	.L192:
 3024              		.loc 1 1088 0
 3025 1116 9DF80F30 		ldrb	r3, [sp, #15]	@ zero_extendqisi2
 3026 111a 23F00803 		bic	r3, r3, #8
 3027 111e DBB2     		uxtb	r3, r3
 3028 1120 8DF80F30 		strb	r3, [sp, #15]
 3029              		.loc 1 1089 0
 3030 1124 9DF80F20 		ldrb	r2, [sp, #15]	@ zero_extendqisi2
 3031 1128 9DF80330 		ldrb	r3, [sp, #3]
ARM GAS  /tmp/ccVYwGiK.s 			page 55


 3032 112c 1343     		orrs	r3, r3, r2
 3033 112e DBB2     		uxtb	r3, r3
 3034 1130 8DF80F30 		strb	r3, [sp, #15]
 3035              		.loc 1 1091 0
 3036 1134 0DF10F03 		add	r3, sp, #15
 3037 1138 0198     		ldr	r0, [sp, #4]
 3038 113a 2221     		movs	r1, #34
 3039 113c 1A46     		mov	r2, r3
 3040 113e 0123     		movs	r3, #1
 3041 1140 FFF7FEFF 		bl	LSM303AGR_ACC_WriteReg
 3042 1144 0346     		mov	r3, r0
 3043 1146 002B     		cmp	r3, #0
 3044 1148 01D1     		bne	.L194
 3045              		.loc 1 1092 0
 3046 114a 0023     		movs	r3, #0
 3047 114c 00E0     		b	.L195
 3048              	.L194:
 3049              		.loc 1 1094 0
 3050 114e 0123     		movs	r3, #1
 3051              	.L195:
 3052              		.loc 1 1095 0
 3053 1150 1846     		mov	r0, r3
 3054 1152 05B0     		add	sp, sp, #20
 3055              		@ sp needed
 3056 1154 5DF804FB 		ldr	pc, [sp], #4
 3057              		.cfi_endproc
 3058              	.LFE48:
 3059              		.size	LSM303AGR_ACC_W_FIFO_DRDY2_on_INT1, .-LSM303AGR_ACC_W_FIFO_DRDY2_on_INT1
 3060              		.align	2
 3061 1158 AFF30080 		.p2align 4,,15
 3061      AFF30080 
 3062              		.global	LSM303AGR_ACC_R_FIFO_DRDY2_on_INT1
 3063              		.thumb
 3064              		.thumb_func
 3065              		.type	LSM303AGR_ACC_R_FIFO_DRDY2_on_INT1, %function
 3066              	LSM303AGR_ACC_R_FIFO_DRDY2_on_INT1:
 3067              	.LFB49:
 3068              		.loc 1 1105 0
 3069              		.cfi_startproc
 3070              		@ args = 0, pretend = 0, frame = 8
 3071              		@ frame_needed = 0, uses_anonymous_args = 0
 3072 1160 00B5     		push	{lr}
 3073              		.cfi_def_cfa_offset 4
 3074              		.cfi_offset 14, -4
 3075 1162 83B0     		sub	sp, sp, #12
 3076              		.cfi_def_cfa_offset 16
 3077 1164 0190     		str	r0, [sp, #4]
 3078 1166 0091     		str	r1, [sp]
 3079              		.loc 1 1106 0
 3080 1168 0198     		ldr	r0, [sp, #4]
 3081 116a 2221     		movs	r1, #34
 3082 116c 009A     		ldr	r2, [sp]
 3083 116e 0123     		movs	r3, #1
 3084 1170 FFF7FEFF 		bl	LSM303AGR_ACC_ReadReg
 3085 1174 0346     		mov	r3, r0
 3086 1176 002B     		cmp	r3, #0
 3087 1178 01D1     		bne	.L197
ARM GAS  /tmp/ccVYwGiK.s 			page 56


 3088              		.loc 1 1107 0
 3089 117a 0023     		movs	r3, #0
 3090 117c 07E0     		b	.L198
 3091              	.L197:
 3092              		.loc 1 1109 0
 3093 117e 009B     		ldr	r3, [sp]
 3094 1180 1B78     		ldrb	r3, [r3]	@ zero_extendqisi2
 3095 1182 03F00803 		and	r3, r3, #8
 3096 1186 DAB2     		uxtb	r2, r3
 3097 1188 009B     		ldr	r3, [sp]
 3098 118a 1A70     		strb	r2, [r3]
 3099              		.loc 1 1111 0
 3100 118c 0123     		movs	r3, #1
 3101              	.L198:
 3102              		.loc 1 1112 0
 3103 118e 1846     		mov	r0, r3
 3104 1190 03B0     		add	sp, sp, #12
 3105              		@ sp needed
 3106 1192 5DF804FB 		ldr	pc, [sp], #4
 3107              		.cfi_endproc
 3108              	.LFE49:
 3109              		.size	LSM303AGR_ACC_R_FIFO_DRDY2_on_INT1, .-LSM303AGR_ACC_R_FIFO_DRDY2_on_INT1
 3110 1196 00BF     		.align	2
 3111 1198 AFF30080 		.p2align 4,,15
 3111      AFF30080 
 3112              		.global	LSM303AGR_ACC_W_FIFO_DRDY1_on_INT1
 3113              		.thumb
 3114              		.thumb_func
 3115              		.type	LSM303AGR_ACC_W_FIFO_DRDY1_on_INT1, %function
 3116              	LSM303AGR_ACC_W_FIFO_DRDY1_on_INT1:
 3117              	.LFB50:
 3118              		.loc 1 1122 0
 3119              		.cfi_startproc
 3120              		@ args = 0, pretend = 0, frame = 16
 3121              		@ frame_needed = 0, uses_anonymous_args = 0
 3122 11a0 00B5     		push	{lr}
 3123              		.cfi_def_cfa_offset 4
 3124              		.cfi_offset 14, -4
 3125 11a2 85B0     		sub	sp, sp, #20
 3126              		.cfi_def_cfa_offset 24
 3127 11a4 0190     		str	r0, [sp, #4]
 3128 11a6 0B46     		mov	r3, r1
 3129 11a8 8DF80330 		strb	r3, [sp, #3]
 3130              		.loc 1 1125 0
 3131 11ac 0DF10F03 		add	r3, sp, #15
 3132 11b0 0198     		ldr	r0, [sp, #4]
 3133 11b2 2221     		movs	r1, #34
 3134 11b4 1A46     		mov	r2, r3
 3135 11b6 0123     		movs	r3, #1
 3136 11b8 FFF7FEFF 		bl	LSM303AGR_ACC_ReadReg
 3137 11bc 0346     		mov	r3, r0
 3138 11be 002B     		cmp	r3, #0
 3139 11c0 01D1     		bne	.L200
 3140              		.loc 1 1126 0
 3141 11c2 0023     		movs	r3, #0
 3142 11c4 1CE0     		b	.L203
 3143              	.L200:
ARM GAS  /tmp/ccVYwGiK.s 			page 57


 3144              		.loc 1 1128 0
 3145 11c6 9DF80F30 		ldrb	r3, [sp, #15]	@ zero_extendqisi2
 3146 11ca 23F01003 		bic	r3, r3, #16
 3147 11ce DBB2     		uxtb	r3, r3
 3148 11d0 8DF80F30 		strb	r3, [sp, #15]
 3149              		.loc 1 1129 0
 3150 11d4 9DF80F20 		ldrb	r2, [sp, #15]	@ zero_extendqisi2
 3151 11d8 9DF80330 		ldrb	r3, [sp, #3]
 3152 11dc 1343     		orrs	r3, r3, r2
 3153 11de DBB2     		uxtb	r3, r3
 3154 11e0 8DF80F30 		strb	r3, [sp, #15]
 3155              		.loc 1 1131 0
 3156 11e4 0DF10F03 		add	r3, sp, #15
 3157 11e8 0198     		ldr	r0, [sp, #4]
 3158 11ea 2221     		movs	r1, #34
 3159 11ec 1A46     		mov	r2, r3
 3160 11ee 0123     		movs	r3, #1
 3161 11f0 FFF7FEFF 		bl	LSM303AGR_ACC_WriteReg
 3162 11f4 0346     		mov	r3, r0
 3163 11f6 002B     		cmp	r3, #0
 3164 11f8 01D1     		bne	.L202
 3165              		.loc 1 1132 0
 3166 11fa 0023     		movs	r3, #0
 3167 11fc 00E0     		b	.L203
 3168              	.L202:
 3169              		.loc 1 1134 0
 3170 11fe 0123     		movs	r3, #1
 3171              	.L203:
 3172              		.loc 1 1135 0
 3173 1200 1846     		mov	r0, r3
 3174 1202 05B0     		add	sp, sp, #20
 3175              		@ sp needed
 3176 1204 5DF804FB 		ldr	pc, [sp], #4
 3177              		.cfi_endproc
 3178              	.LFE50:
 3179              		.size	LSM303AGR_ACC_W_FIFO_DRDY1_on_INT1, .-LSM303AGR_ACC_W_FIFO_DRDY1_on_INT1
 3180              		.align	2
 3181 1208 AFF30080 		.p2align 4,,15
 3181      AFF30080 
 3182              		.global	LSM303AGR_ACC_R_FIFO_DRDY1_on_INT1
 3183              		.thumb
 3184              		.thumb_func
 3185              		.type	LSM303AGR_ACC_R_FIFO_DRDY1_on_INT1, %function
 3186              	LSM303AGR_ACC_R_FIFO_DRDY1_on_INT1:
 3187              	.LFB51:
 3188              		.loc 1 1145 0
 3189              		.cfi_startproc
 3190              		@ args = 0, pretend = 0, frame = 8
 3191              		@ frame_needed = 0, uses_anonymous_args = 0
 3192 1210 00B5     		push	{lr}
 3193              		.cfi_def_cfa_offset 4
 3194              		.cfi_offset 14, -4
 3195 1212 83B0     		sub	sp, sp, #12
 3196              		.cfi_def_cfa_offset 16
 3197 1214 0190     		str	r0, [sp, #4]
 3198 1216 0091     		str	r1, [sp]
 3199              		.loc 1 1146 0
ARM GAS  /tmp/ccVYwGiK.s 			page 58


 3200 1218 0198     		ldr	r0, [sp, #4]
 3201 121a 2221     		movs	r1, #34
 3202 121c 009A     		ldr	r2, [sp]
 3203 121e 0123     		movs	r3, #1
 3204 1220 FFF7FEFF 		bl	LSM303AGR_ACC_ReadReg
 3205 1224 0346     		mov	r3, r0
 3206 1226 002B     		cmp	r3, #0
 3207 1228 01D1     		bne	.L205
 3208              		.loc 1 1147 0
 3209 122a 0023     		movs	r3, #0
 3210 122c 07E0     		b	.L206
 3211              	.L205:
 3212              		.loc 1 1149 0
 3213 122e 009B     		ldr	r3, [sp]
 3214 1230 1B78     		ldrb	r3, [r3]	@ zero_extendqisi2
 3215 1232 03F01003 		and	r3, r3, #16
 3216 1236 DAB2     		uxtb	r2, r3
 3217 1238 009B     		ldr	r3, [sp]
 3218 123a 1A70     		strb	r2, [r3]
 3219              		.loc 1 1151 0
 3220 123c 0123     		movs	r3, #1
 3221              	.L206:
 3222              		.loc 1 1152 0
 3223 123e 1846     		mov	r0, r3
 3224 1240 03B0     		add	sp, sp, #12
 3225              		@ sp needed
 3226 1242 5DF804FB 		ldr	pc, [sp], #4
 3227              		.cfi_endproc
 3228              	.LFE51:
 3229              		.size	LSM303AGR_ACC_R_FIFO_DRDY1_on_INT1, .-LSM303AGR_ACC_R_FIFO_DRDY1_on_INT1
 3230 1246 00BF     		.align	2
 3231 1248 AFF30080 		.p2align 4,,15
 3231      AFF30080 
 3232              		.global	LSM303AGR_ACC_W_FIFO_AOL2_on_INT1
 3233              		.thumb
 3234              		.thumb_func
 3235              		.type	LSM303AGR_ACC_W_FIFO_AOL2_on_INT1, %function
 3236              	LSM303AGR_ACC_W_FIFO_AOL2_on_INT1:
 3237              	.LFB52:
 3238              		.loc 1 1162 0
 3239              		.cfi_startproc
 3240              		@ args = 0, pretend = 0, frame = 16
 3241              		@ frame_needed = 0, uses_anonymous_args = 0
 3242 1250 00B5     		push	{lr}
 3243              		.cfi_def_cfa_offset 4
 3244              		.cfi_offset 14, -4
 3245 1252 85B0     		sub	sp, sp, #20
 3246              		.cfi_def_cfa_offset 24
 3247 1254 0190     		str	r0, [sp, #4]
 3248 1256 0B46     		mov	r3, r1
 3249 1258 8DF80330 		strb	r3, [sp, #3]
 3250              		.loc 1 1165 0
 3251 125c 0DF10F03 		add	r3, sp, #15
 3252 1260 0198     		ldr	r0, [sp, #4]
 3253 1262 2221     		movs	r1, #34
 3254 1264 1A46     		mov	r2, r3
 3255 1266 0123     		movs	r3, #1
ARM GAS  /tmp/ccVYwGiK.s 			page 59


 3256 1268 FFF7FEFF 		bl	LSM303AGR_ACC_ReadReg
 3257 126c 0346     		mov	r3, r0
 3258 126e 002B     		cmp	r3, #0
 3259 1270 01D1     		bne	.L208
 3260              		.loc 1 1166 0
 3261 1272 0023     		movs	r3, #0
 3262 1274 1CE0     		b	.L211
 3263              	.L208:
 3264              		.loc 1 1168 0
 3265 1276 9DF80F30 		ldrb	r3, [sp, #15]	@ zero_extendqisi2
 3266 127a 23F02003 		bic	r3, r3, #32
 3267 127e DBB2     		uxtb	r3, r3
 3268 1280 8DF80F30 		strb	r3, [sp, #15]
 3269              		.loc 1 1169 0
 3270 1284 9DF80F20 		ldrb	r2, [sp, #15]	@ zero_extendqisi2
 3271 1288 9DF80330 		ldrb	r3, [sp, #3]
 3272 128c 1343     		orrs	r3, r3, r2
 3273 128e DBB2     		uxtb	r3, r3
 3274 1290 8DF80F30 		strb	r3, [sp, #15]
 3275              		.loc 1 1171 0
 3276 1294 0DF10F03 		add	r3, sp, #15
 3277 1298 0198     		ldr	r0, [sp, #4]
 3278 129a 2221     		movs	r1, #34
 3279 129c 1A46     		mov	r2, r3
 3280 129e 0123     		movs	r3, #1
 3281 12a0 FFF7FEFF 		bl	LSM303AGR_ACC_WriteReg
 3282 12a4 0346     		mov	r3, r0
 3283 12a6 002B     		cmp	r3, #0
 3284 12a8 01D1     		bne	.L210
 3285              		.loc 1 1172 0
 3286 12aa 0023     		movs	r3, #0
 3287 12ac 00E0     		b	.L211
 3288              	.L210:
 3289              		.loc 1 1174 0
 3290 12ae 0123     		movs	r3, #1
 3291              	.L211:
 3292              		.loc 1 1175 0
 3293 12b0 1846     		mov	r0, r3
 3294 12b2 05B0     		add	sp, sp, #20
 3295              		@ sp needed
 3296 12b4 5DF804FB 		ldr	pc, [sp], #4
 3297              		.cfi_endproc
 3298              	.LFE52:
 3299              		.size	LSM303AGR_ACC_W_FIFO_AOL2_on_INT1, .-LSM303AGR_ACC_W_FIFO_AOL2_on_INT1
 3300              		.align	2
 3301 12b8 AFF30080 		.p2align 4,,15
 3301      AFF30080 
 3302              		.global	LSM303AGR_ACC_R_FIFO_AOL2_on_INT1
 3303              		.thumb
 3304              		.thumb_func
 3305              		.type	LSM303AGR_ACC_R_FIFO_AOL2_on_INT1, %function
 3306              	LSM303AGR_ACC_R_FIFO_AOL2_on_INT1:
 3307              	.LFB53:
 3308              		.loc 1 1185 0
 3309              		.cfi_startproc
 3310              		@ args = 0, pretend = 0, frame = 8
 3311              		@ frame_needed = 0, uses_anonymous_args = 0
ARM GAS  /tmp/ccVYwGiK.s 			page 60


 3312 12c0 00B5     		push	{lr}
 3313              		.cfi_def_cfa_offset 4
 3314              		.cfi_offset 14, -4
 3315 12c2 83B0     		sub	sp, sp, #12
 3316              		.cfi_def_cfa_offset 16
 3317 12c4 0190     		str	r0, [sp, #4]
 3318 12c6 0091     		str	r1, [sp]
 3319              		.loc 1 1186 0
 3320 12c8 0198     		ldr	r0, [sp, #4]
 3321 12ca 2221     		movs	r1, #34
 3322 12cc 009A     		ldr	r2, [sp]
 3323 12ce 0123     		movs	r3, #1
 3324 12d0 FFF7FEFF 		bl	LSM303AGR_ACC_ReadReg
 3325 12d4 0346     		mov	r3, r0
 3326 12d6 002B     		cmp	r3, #0
 3327 12d8 01D1     		bne	.L213
 3328              		.loc 1 1187 0
 3329 12da 0023     		movs	r3, #0
 3330 12dc 07E0     		b	.L214
 3331              	.L213:
 3332              		.loc 1 1189 0
 3333 12de 009B     		ldr	r3, [sp]
 3334 12e0 1B78     		ldrb	r3, [r3]	@ zero_extendqisi2
 3335 12e2 03F02003 		and	r3, r3, #32
 3336 12e6 DAB2     		uxtb	r2, r3
 3337 12e8 009B     		ldr	r3, [sp]
 3338 12ea 1A70     		strb	r2, [r3]
 3339              		.loc 1 1191 0
 3340 12ec 0123     		movs	r3, #1
 3341              	.L214:
 3342              		.loc 1 1192 0
 3343 12ee 1846     		mov	r0, r3
 3344 12f0 03B0     		add	sp, sp, #12
 3345              		@ sp needed
 3346 12f2 5DF804FB 		ldr	pc, [sp], #4
 3347              		.cfi_endproc
 3348              	.LFE53:
 3349              		.size	LSM303AGR_ACC_R_FIFO_AOL2_on_INT1, .-LSM303AGR_ACC_R_FIFO_AOL2_on_INT1
 3350 12f6 00BF     		.align	2
 3351 12f8 AFF30080 		.p2align 4,,15
 3351      AFF30080 
 3352              		.global	LSM303AGR_ACC_W_FIFO_AOL1_on_INT1
 3353              		.thumb
 3354              		.thumb_func
 3355              		.type	LSM303AGR_ACC_W_FIFO_AOL1_on_INT1, %function
 3356              	LSM303AGR_ACC_W_FIFO_AOL1_on_INT1:
 3357              	.LFB54:
 3358              		.loc 1 1202 0
 3359              		.cfi_startproc
 3360              		@ args = 0, pretend = 0, frame = 16
 3361              		@ frame_needed = 0, uses_anonymous_args = 0
 3362 1300 00B5     		push	{lr}
 3363              		.cfi_def_cfa_offset 4
 3364              		.cfi_offset 14, -4
 3365 1302 85B0     		sub	sp, sp, #20
 3366              		.cfi_def_cfa_offset 24
 3367 1304 0190     		str	r0, [sp, #4]
ARM GAS  /tmp/ccVYwGiK.s 			page 61


 3368 1306 0B46     		mov	r3, r1
 3369 1308 8DF80330 		strb	r3, [sp, #3]
 3370              		.loc 1 1205 0
 3371 130c 0DF10F03 		add	r3, sp, #15
 3372 1310 0198     		ldr	r0, [sp, #4]
 3373 1312 2221     		movs	r1, #34
 3374 1314 1A46     		mov	r2, r3
 3375 1316 0123     		movs	r3, #1
 3376 1318 FFF7FEFF 		bl	LSM303AGR_ACC_ReadReg
 3377 131c 0346     		mov	r3, r0
 3378 131e 002B     		cmp	r3, #0
 3379 1320 01D1     		bne	.L216
 3380              		.loc 1 1206 0
 3381 1322 0023     		movs	r3, #0
 3382 1324 1CE0     		b	.L219
 3383              	.L216:
 3384              		.loc 1 1208 0
 3385 1326 9DF80F30 		ldrb	r3, [sp, #15]	@ zero_extendqisi2
 3386 132a 23F04003 		bic	r3, r3, #64
 3387 132e DBB2     		uxtb	r3, r3
 3388 1330 8DF80F30 		strb	r3, [sp, #15]
 3389              		.loc 1 1209 0
 3390 1334 9DF80F20 		ldrb	r2, [sp, #15]	@ zero_extendqisi2
 3391 1338 9DF80330 		ldrb	r3, [sp, #3]
 3392 133c 1343     		orrs	r3, r3, r2
 3393 133e DBB2     		uxtb	r3, r3
 3394 1340 8DF80F30 		strb	r3, [sp, #15]
 3395              		.loc 1 1211 0
 3396 1344 0DF10F03 		add	r3, sp, #15
 3397 1348 0198     		ldr	r0, [sp, #4]
 3398 134a 2221     		movs	r1, #34
 3399 134c 1A46     		mov	r2, r3
 3400 134e 0123     		movs	r3, #1
 3401 1350 FFF7FEFF 		bl	LSM303AGR_ACC_WriteReg
 3402 1354 0346     		mov	r3, r0
 3403 1356 002B     		cmp	r3, #0
 3404 1358 01D1     		bne	.L218
 3405              		.loc 1 1212 0
 3406 135a 0023     		movs	r3, #0
 3407 135c 00E0     		b	.L219
 3408              	.L218:
 3409              		.loc 1 1214 0
 3410 135e 0123     		movs	r3, #1
 3411              	.L219:
 3412              		.loc 1 1215 0
 3413 1360 1846     		mov	r0, r3
 3414 1362 05B0     		add	sp, sp, #20
 3415              		@ sp needed
 3416 1364 5DF804FB 		ldr	pc, [sp], #4
 3417              		.cfi_endproc
 3418              	.LFE54:
 3419              		.size	LSM303AGR_ACC_W_FIFO_AOL1_on_INT1, .-LSM303AGR_ACC_W_FIFO_AOL1_on_INT1
 3420              		.align	2
 3421 1368 AFF30080 		.p2align 4,,15
 3421      AFF30080 
 3422              		.global	LSM303AGR_ACC_R_FIFO_AOL1_on_INT1
 3423              		.thumb
ARM GAS  /tmp/ccVYwGiK.s 			page 62


 3424              		.thumb_func
 3425              		.type	LSM303AGR_ACC_R_FIFO_AOL1_on_INT1, %function
 3426              	LSM303AGR_ACC_R_FIFO_AOL1_on_INT1:
 3427              	.LFB55:
 3428              		.loc 1 1225 0
 3429              		.cfi_startproc
 3430              		@ args = 0, pretend = 0, frame = 8
 3431              		@ frame_needed = 0, uses_anonymous_args = 0
 3432 1370 00B5     		push	{lr}
 3433              		.cfi_def_cfa_offset 4
 3434              		.cfi_offset 14, -4
 3435 1372 83B0     		sub	sp, sp, #12
 3436              		.cfi_def_cfa_offset 16
 3437 1374 0190     		str	r0, [sp, #4]
 3438 1376 0091     		str	r1, [sp]
 3439              		.loc 1 1226 0
 3440 1378 0198     		ldr	r0, [sp, #4]
 3441 137a 2221     		movs	r1, #34
 3442 137c 009A     		ldr	r2, [sp]
 3443 137e 0123     		movs	r3, #1
 3444 1380 FFF7FEFF 		bl	LSM303AGR_ACC_ReadReg
 3445 1384 0346     		mov	r3, r0
 3446 1386 002B     		cmp	r3, #0
 3447 1388 01D1     		bne	.L221
 3448              		.loc 1 1227 0
 3449 138a 0023     		movs	r3, #0
 3450 138c 07E0     		b	.L222
 3451              	.L221:
 3452              		.loc 1 1229 0
 3453 138e 009B     		ldr	r3, [sp]
 3454 1390 1B78     		ldrb	r3, [r3]	@ zero_extendqisi2
 3455 1392 03F04003 		and	r3, r3, #64
 3456 1396 DAB2     		uxtb	r2, r3
 3457 1398 009B     		ldr	r3, [sp]
 3458 139a 1A70     		strb	r2, [r3]
 3459              		.loc 1 1231 0
 3460 139c 0123     		movs	r3, #1
 3461              	.L222:
 3462              		.loc 1 1232 0
 3463 139e 1846     		mov	r0, r3
 3464 13a0 03B0     		add	sp, sp, #12
 3465              		@ sp needed
 3466 13a2 5DF804FB 		ldr	pc, [sp], #4
 3467              		.cfi_endproc
 3468              	.LFE55:
 3469              		.size	LSM303AGR_ACC_R_FIFO_AOL1_on_INT1, .-LSM303AGR_ACC_R_FIFO_AOL1_on_INT1
 3470 13a6 00BF     		.align	2
 3471 13a8 AFF30080 		.p2align 4,,15
 3471      AFF30080 
 3472              		.global	LSM303AGR_ACC_W_FIFO_Click_on_INT1
 3473              		.thumb
 3474              		.thumb_func
 3475              		.type	LSM303AGR_ACC_W_FIFO_Click_on_INT1, %function
 3476              	LSM303AGR_ACC_W_FIFO_Click_on_INT1:
 3477              	.LFB56:
 3478              		.loc 1 1242 0
 3479              		.cfi_startproc
ARM GAS  /tmp/ccVYwGiK.s 			page 63


 3480              		@ args = 0, pretend = 0, frame = 16
 3481              		@ frame_needed = 0, uses_anonymous_args = 0
 3482 13b0 00B5     		push	{lr}
 3483              		.cfi_def_cfa_offset 4
 3484              		.cfi_offset 14, -4
 3485 13b2 85B0     		sub	sp, sp, #20
 3486              		.cfi_def_cfa_offset 24
 3487 13b4 0190     		str	r0, [sp, #4]
 3488 13b6 0B46     		mov	r3, r1
 3489 13b8 8DF80330 		strb	r3, [sp, #3]
 3490              		.loc 1 1245 0
 3491 13bc 0DF10F03 		add	r3, sp, #15
 3492 13c0 0198     		ldr	r0, [sp, #4]
 3493 13c2 2221     		movs	r1, #34
 3494 13c4 1A46     		mov	r2, r3
 3495 13c6 0123     		movs	r3, #1
 3496 13c8 FFF7FEFF 		bl	LSM303AGR_ACC_ReadReg
 3497 13cc 0346     		mov	r3, r0
 3498 13ce 002B     		cmp	r3, #0
 3499 13d0 01D1     		bne	.L224
 3500              		.loc 1 1246 0
 3501 13d2 0023     		movs	r3, #0
 3502 13d4 1CE0     		b	.L227
 3503              	.L224:
 3504              		.loc 1 1248 0
 3505 13d6 9DF80F30 		ldrb	r3, [sp, #15]	@ zero_extendqisi2
 3506 13da 03F07F03 		and	r3, r3, #127
 3507 13de DBB2     		uxtb	r3, r3
 3508 13e0 8DF80F30 		strb	r3, [sp, #15]
 3509              		.loc 1 1249 0
 3510 13e4 9DF80F20 		ldrb	r2, [sp, #15]	@ zero_extendqisi2
 3511 13e8 9DF80330 		ldrb	r3, [sp, #3]
 3512 13ec 1343     		orrs	r3, r3, r2
 3513 13ee DBB2     		uxtb	r3, r3
 3514 13f0 8DF80F30 		strb	r3, [sp, #15]
 3515              		.loc 1 1251 0
 3516 13f4 0DF10F03 		add	r3, sp, #15
 3517 13f8 0198     		ldr	r0, [sp, #4]
 3518 13fa 2221     		movs	r1, #34
 3519 13fc 1A46     		mov	r2, r3
 3520 13fe 0123     		movs	r3, #1
 3521 1400 FFF7FEFF 		bl	LSM303AGR_ACC_WriteReg
 3522 1404 0346     		mov	r3, r0
 3523 1406 002B     		cmp	r3, #0
 3524 1408 01D1     		bne	.L226
 3525              		.loc 1 1252 0
 3526 140a 0023     		movs	r3, #0
 3527 140c 00E0     		b	.L227
 3528              	.L226:
 3529              		.loc 1 1254 0
 3530 140e 0123     		movs	r3, #1
 3531              	.L227:
 3532              		.loc 1 1255 0
 3533 1410 1846     		mov	r0, r3
 3534 1412 05B0     		add	sp, sp, #20
 3535              		@ sp needed
 3536 1414 5DF804FB 		ldr	pc, [sp], #4
ARM GAS  /tmp/ccVYwGiK.s 			page 64


 3537              		.cfi_endproc
 3538              	.LFE56:
 3539              		.size	LSM303AGR_ACC_W_FIFO_Click_on_INT1, .-LSM303AGR_ACC_W_FIFO_Click_on_INT1
 3540              		.align	2
 3541 1418 AFF30080 		.p2align 4,,15
 3541      AFF30080 
 3542              		.global	LSM303AGR_ACC_R_FIFO_Click_on_INT1
 3543              		.thumb
 3544              		.thumb_func
 3545              		.type	LSM303AGR_ACC_R_FIFO_Click_on_INT1, %function
 3546              	LSM303AGR_ACC_R_FIFO_Click_on_INT1:
 3547              	.LFB57:
 3548              		.loc 1 1265 0
 3549              		.cfi_startproc
 3550              		@ args = 0, pretend = 0, frame = 8
 3551              		@ frame_needed = 0, uses_anonymous_args = 0
 3552 1420 00B5     		push	{lr}
 3553              		.cfi_def_cfa_offset 4
 3554              		.cfi_offset 14, -4
 3555 1422 83B0     		sub	sp, sp, #12
 3556              		.cfi_def_cfa_offset 16
 3557 1424 0190     		str	r0, [sp, #4]
 3558 1426 0091     		str	r1, [sp]
 3559              		.loc 1 1266 0
 3560 1428 0198     		ldr	r0, [sp, #4]
 3561 142a 2221     		movs	r1, #34
 3562 142c 009A     		ldr	r2, [sp]
 3563 142e 0123     		movs	r3, #1
 3564 1430 FFF7FEFF 		bl	LSM303AGR_ACC_ReadReg
 3565 1434 0346     		mov	r3, r0
 3566 1436 002B     		cmp	r3, #0
 3567 1438 01D1     		bne	.L229
 3568              		.loc 1 1267 0
 3569 143a 0023     		movs	r3, #0
 3570 143c 07E0     		b	.L230
 3571              	.L229:
 3572              		.loc 1 1269 0
 3573 143e 009B     		ldr	r3, [sp]
 3574 1440 1B78     		ldrb	r3, [r3]	@ zero_extendqisi2
 3575 1442 23F07F03 		bic	r3, r3, #127
 3576 1446 DAB2     		uxtb	r2, r3
 3577 1448 009B     		ldr	r3, [sp]
 3578 144a 1A70     		strb	r2, [r3]
 3579              		.loc 1 1271 0
 3580 144c 0123     		movs	r3, #1
 3581              	.L230:
 3582              		.loc 1 1272 0
 3583 144e 1846     		mov	r0, r3
 3584 1450 03B0     		add	sp, sp, #12
 3585              		@ sp needed
 3586 1452 5DF804FB 		ldr	pc, [sp], #4
 3587              		.cfi_endproc
 3588              	.LFE57:
 3589              		.size	LSM303AGR_ACC_R_FIFO_Click_on_INT1, .-LSM303AGR_ACC_R_FIFO_Click_on_INT1
 3590 1456 00BF     		.align	2
 3591 1458 AFF30080 		.p2align 4,,15
 3591      AFF30080 
ARM GAS  /tmp/ccVYwGiK.s 			page 65


 3592              		.global	LSM303AGR_ACC_W_SPI_mode
 3593              		.thumb
 3594              		.thumb_func
 3595              		.type	LSM303AGR_ACC_W_SPI_mode, %function
 3596              	LSM303AGR_ACC_W_SPI_mode:
 3597              	.LFB58:
 3598              		.loc 1 1282 0
 3599              		.cfi_startproc
 3600              		@ args = 0, pretend = 0, frame = 16
 3601              		@ frame_needed = 0, uses_anonymous_args = 0
 3602 1460 00B5     		push	{lr}
 3603              		.cfi_def_cfa_offset 4
 3604              		.cfi_offset 14, -4
 3605 1462 85B0     		sub	sp, sp, #20
 3606              		.cfi_def_cfa_offset 24
 3607 1464 0190     		str	r0, [sp, #4]
 3608 1466 0B46     		mov	r3, r1
 3609 1468 8DF80330 		strb	r3, [sp, #3]
 3610              		.loc 1 1285 0
 3611 146c 0DF10F03 		add	r3, sp, #15
 3612 1470 0198     		ldr	r0, [sp, #4]
 3613 1472 2321     		movs	r1, #35
 3614 1474 1A46     		mov	r2, r3
 3615 1476 0123     		movs	r3, #1
 3616 1478 FFF7FEFF 		bl	LSM303AGR_ACC_ReadReg
 3617 147c 0346     		mov	r3, r0
 3618 147e 002B     		cmp	r3, #0
 3619 1480 01D1     		bne	.L232
 3620              		.loc 1 1286 0
 3621 1482 0023     		movs	r3, #0
 3622 1484 1CE0     		b	.L235
 3623              	.L232:
 3624              		.loc 1 1288 0
 3625 1486 9DF80F30 		ldrb	r3, [sp, #15]	@ zero_extendqisi2
 3626 148a 23F00103 		bic	r3, r3, #1
 3627 148e DBB2     		uxtb	r3, r3
 3628 1490 8DF80F30 		strb	r3, [sp, #15]
 3629              		.loc 1 1289 0
 3630 1494 9DF80F20 		ldrb	r2, [sp, #15]	@ zero_extendqisi2
 3631 1498 9DF80330 		ldrb	r3, [sp, #3]
 3632 149c 1343     		orrs	r3, r3, r2
 3633 149e DBB2     		uxtb	r3, r3
 3634 14a0 8DF80F30 		strb	r3, [sp, #15]
 3635              		.loc 1 1291 0
 3636 14a4 0DF10F03 		add	r3, sp, #15
 3637 14a8 0198     		ldr	r0, [sp, #4]
 3638 14aa 2321     		movs	r1, #35
 3639 14ac 1A46     		mov	r2, r3
 3640 14ae 0123     		movs	r3, #1
 3641 14b0 FFF7FEFF 		bl	LSM303AGR_ACC_WriteReg
 3642 14b4 0346     		mov	r3, r0
 3643 14b6 002B     		cmp	r3, #0
 3644 14b8 01D1     		bne	.L234
 3645              		.loc 1 1292 0
 3646 14ba 0023     		movs	r3, #0
 3647 14bc 00E0     		b	.L235
 3648              	.L234:
ARM GAS  /tmp/ccVYwGiK.s 			page 66


 3649              		.loc 1 1294 0
 3650 14be 0123     		movs	r3, #1
 3651              	.L235:
 3652              		.loc 1 1295 0
 3653 14c0 1846     		mov	r0, r3
 3654 14c2 05B0     		add	sp, sp, #20
 3655              		@ sp needed
 3656 14c4 5DF804FB 		ldr	pc, [sp], #4
 3657              		.cfi_endproc
 3658              	.LFE58:
 3659              		.size	LSM303AGR_ACC_W_SPI_mode, .-LSM303AGR_ACC_W_SPI_mode
 3660              		.align	2
 3661 14c8 AFF30080 		.p2align 4,,15
 3661      AFF30080 
 3662              		.global	LSM303AGR_ACC_R_SPI_mode
 3663              		.thumb
 3664              		.thumb_func
 3665              		.type	LSM303AGR_ACC_R_SPI_mode, %function
 3666              	LSM303AGR_ACC_R_SPI_mode:
 3667              	.LFB59:
 3668              		.loc 1 1305 0
 3669              		.cfi_startproc
 3670              		@ args = 0, pretend = 0, frame = 8
 3671              		@ frame_needed = 0, uses_anonymous_args = 0
 3672 14d0 00B5     		push	{lr}
 3673              		.cfi_def_cfa_offset 4
 3674              		.cfi_offset 14, -4
 3675 14d2 83B0     		sub	sp, sp, #12
 3676              		.cfi_def_cfa_offset 16
 3677 14d4 0190     		str	r0, [sp, #4]
 3678 14d6 0091     		str	r1, [sp]
 3679              		.loc 1 1306 0
 3680 14d8 0198     		ldr	r0, [sp, #4]
 3681 14da 2321     		movs	r1, #35
 3682 14dc 009A     		ldr	r2, [sp]
 3683 14de 0123     		movs	r3, #1
 3684 14e0 FFF7FEFF 		bl	LSM303AGR_ACC_ReadReg
 3685 14e4 0346     		mov	r3, r0
 3686 14e6 002B     		cmp	r3, #0
 3687 14e8 01D1     		bne	.L237
 3688              		.loc 1 1307 0
 3689 14ea 0023     		movs	r3, #0
 3690 14ec 07E0     		b	.L238
 3691              	.L237:
 3692              		.loc 1 1309 0
 3693 14ee 009B     		ldr	r3, [sp]
 3694 14f0 1B78     		ldrb	r3, [r3]	@ zero_extendqisi2
 3695 14f2 03F00103 		and	r3, r3, #1
 3696 14f6 DAB2     		uxtb	r2, r3
 3697 14f8 009B     		ldr	r3, [sp]
 3698 14fa 1A70     		strb	r2, [r3]
 3699              		.loc 1 1311 0
 3700 14fc 0123     		movs	r3, #1
 3701              	.L238:
 3702              		.loc 1 1312 0
 3703 14fe 1846     		mov	r0, r3
 3704 1500 03B0     		add	sp, sp, #12
ARM GAS  /tmp/ccVYwGiK.s 			page 67


 3705              		@ sp needed
 3706 1502 5DF804FB 		ldr	pc, [sp], #4
 3707              		.cfi_endproc
 3708              	.LFE59:
 3709              		.size	LSM303AGR_ACC_R_SPI_mode, .-LSM303AGR_ACC_R_SPI_mode
 3710 1506 00BF     		.align	2
 3711 1508 AFF30080 		.p2align 4,,15
 3711      AFF30080 
 3712              		.global	LSM303AGR_ACC_W_SelfTest
 3713              		.thumb
 3714              		.thumb_func
 3715              		.type	LSM303AGR_ACC_W_SelfTest, %function
 3716              	LSM303AGR_ACC_W_SelfTest:
 3717              	.LFB60:
 3718              		.loc 1 1322 0
 3719              		.cfi_startproc
 3720              		@ args = 0, pretend = 0, frame = 16
 3721              		@ frame_needed = 0, uses_anonymous_args = 0
 3722 1510 00B5     		push	{lr}
 3723              		.cfi_def_cfa_offset 4
 3724              		.cfi_offset 14, -4
 3725 1512 85B0     		sub	sp, sp, #20
 3726              		.cfi_def_cfa_offset 24
 3727 1514 0190     		str	r0, [sp, #4]
 3728 1516 0B46     		mov	r3, r1
 3729 1518 8DF80330 		strb	r3, [sp, #3]
 3730              		.loc 1 1325 0
 3731 151c 0DF10F03 		add	r3, sp, #15
 3732 1520 0198     		ldr	r0, [sp, #4]
 3733 1522 2321     		movs	r1, #35
 3734 1524 1A46     		mov	r2, r3
 3735 1526 0123     		movs	r3, #1
 3736 1528 FFF7FEFF 		bl	LSM303AGR_ACC_ReadReg
 3737 152c 0346     		mov	r3, r0
 3738 152e 002B     		cmp	r3, #0
 3739 1530 01D1     		bne	.L240
 3740              		.loc 1 1326 0
 3741 1532 0023     		movs	r3, #0
 3742 1534 1CE0     		b	.L243
 3743              	.L240:
 3744              		.loc 1 1328 0
 3745 1536 9DF80F30 		ldrb	r3, [sp, #15]	@ zero_extendqisi2
 3746 153a 23F00603 		bic	r3, r3, #6
 3747 153e DBB2     		uxtb	r3, r3
 3748 1540 8DF80F30 		strb	r3, [sp, #15]
 3749              		.loc 1 1329 0
 3750 1544 9DF80F20 		ldrb	r2, [sp, #15]	@ zero_extendqisi2
 3751 1548 9DF80330 		ldrb	r3, [sp, #3]
 3752 154c 1343     		orrs	r3, r3, r2
 3753 154e DBB2     		uxtb	r3, r3
 3754 1550 8DF80F30 		strb	r3, [sp, #15]
 3755              		.loc 1 1331 0
 3756 1554 0DF10F03 		add	r3, sp, #15
 3757 1558 0198     		ldr	r0, [sp, #4]
 3758 155a 2321     		movs	r1, #35
 3759 155c 1A46     		mov	r2, r3
 3760 155e 0123     		movs	r3, #1
ARM GAS  /tmp/ccVYwGiK.s 			page 68


 3761 1560 FFF7FEFF 		bl	LSM303AGR_ACC_WriteReg
 3762 1564 0346     		mov	r3, r0
 3763 1566 002B     		cmp	r3, #0
 3764 1568 01D1     		bne	.L242
 3765              		.loc 1 1332 0
 3766 156a 0023     		movs	r3, #0
 3767 156c 00E0     		b	.L243
 3768              	.L242:
 3769              		.loc 1 1334 0
 3770 156e 0123     		movs	r3, #1
 3771              	.L243:
 3772              		.loc 1 1335 0
 3773 1570 1846     		mov	r0, r3
 3774 1572 05B0     		add	sp, sp, #20
 3775              		@ sp needed
 3776 1574 5DF804FB 		ldr	pc, [sp], #4
 3777              		.cfi_endproc
 3778              	.LFE60:
 3779              		.size	LSM303AGR_ACC_W_SelfTest, .-LSM303AGR_ACC_W_SelfTest
 3780              		.align	2
 3781 1578 AFF30080 		.p2align 4,,15
 3781      AFF30080 
 3782              		.global	LSM303AGR_ACC_R_SelfTest
 3783              		.thumb
 3784              		.thumb_func
 3785              		.type	LSM303AGR_ACC_R_SelfTest, %function
 3786              	LSM303AGR_ACC_R_SelfTest:
 3787              	.LFB61:
 3788              		.loc 1 1345 0
 3789              		.cfi_startproc
 3790              		@ args = 0, pretend = 0, frame = 8
 3791              		@ frame_needed = 0, uses_anonymous_args = 0
 3792 1580 00B5     		push	{lr}
 3793              		.cfi_def_cfa_offset 4
 3794              		.cfi_offset 14, -4
 3795 1582 83B0     		sub	sp, sp, #12
 3796              		.cfi_def_cfa_offset 16
 3797 1584 0190     		str	r0, [sp, #4]
 3798 1586 0091     		str	r1, [sp]
 3799              		.loc 1 1346 0
 3800 1588 0198     		ldr	r0, [sp, #4]
 3801 158a 2321     		movs	r1, #35
 3802 158c 009A     		ldr	r2, [sp]
 3803 158e 0123     		movs	r3, #1
 3804 1590 FFF7FEFF 		bl	LSM303AGR_ACC_ReadReg
 3805 1594 0346     		mov	r3, r0
 3806 1596 002B     		cmp	r3, #0
 3807 1598 01D1     		bne	.L245
 3808              		.loc 1 1347 0
 3809 159a 0023     		movs	r3, #0
 3810 159c 07E0     		b	.L246
 3811              	.L245:
 3812              		.loc 1 1349 0
 3813 159e 009B     		ldr	r3, [sp]
 3814 15a0 1B78     		ldrb	r3, [r3]	@ zero_extendqisi2
 3815 15a2 03F00603 		and	r3, r3, #6
 3816 15a6 DAB2     		uxtb	r2, r3
ARM GAS  /tmp/ccVYwGiK.s 			page 69


 3817 15a8 009B     		ldr	r3, [sp]
 3818 15aa 1A70     		strb	r2, [r3]
 3819              		.loc 1 1351 0
 3820 15ac 0123     		movs	r3, #1
 3821              	.L246:
 3822              		.loc 1 1352 0
 3823 15ae 1846     		mov	r0, r3
 3824 15b0 03B0     		add	sp, sp, #12
 3825              		@ sp needed
 3826 15b2 5DF804FB 		ldr	pc, [sp], #4
 3827              		.cfi_endproc
 3828              	.LFE61:
 3829              		.size	LSM303AGR_ACC_R_SelfTest, .-LSM303AGR_ACC_R_SelfTest
 3830 15b6 00BF     		.align	2
 3831 15b8 AFF30080 		.p2align 4,,15
 3831      AFF30080 
 3832              		.global	LSM303AGR_ACC_W_HiRes
 3833              		.thumb
 3834              		.thumb_func
 3835              		.type	LSM303AGR_ACC_W_HiRes, %function
 3836              	LSM303AGR_ACC_W_HiRes:
 3837              	.LFB62:
 3838              		.loc 1 1362 0
 3839              		.cfi_startproc
 3840              		@ args = 0, pretend = 0, frame = 16
 3841              		@ frame_needed = 0, uses_anonymous_args = 0
 3842 15c0 00B5     		push	{lr}
 3843              		.cfi_def_cfa_offset 4
 3844              		.cfi_offset 14, -4
 3845 15c2 85B0     		sub	sp, sp, #20
 3846              		.cfi_def_cfa_offset 24
 3847 15c4 0190     		str	r0, [sp, #4]
 3848 15c6 0B46     		mov	r3, r1
 3849 15c8 8DF80330 		strb	r3, [sp, #3]
 3850              		.loc 1 1365 0
 3851 15cc 0DF10F03 		add	r3, sp, #15
 3852 15d0 0198     		ldr	r0, [sp, #4]
 3853 15d2 2321     		movs	r1, #35
 3854 15d4 1A46     		mov	r2, r3
 3855 15d6 0123     		movs	r3, #1
 3856 15d8 FFF7FEFF 		bl	LSM303AGR_ACC_ReadReg
 3857 15dc 0346     		mov	r3, r0
 3858 15de 002B     		cmp	r3, #0
 3859 15e0 01D1     		bne	.L248
 3860              		.loc 1 1366 0
 3861 15e2 0023     		movs	r3, #0
 3862 15e4 1CE0     		b	.L251
 3863              	.L248:
 3864              		.loc 1 1368 0
 3865 15e6 9DF80F30 		ldrb	r3, [sp, #15]	@ zero_extendqisi2
 3866 15ea 23F00803 		bic	r3, r3, #8
 3867 15ee DBB2     		uxtb	r3, r3
 3868 15f0 8DF80F30 		strb	r3, [sp, #15]
 3869              		.loc 1 1369 0
 3870 15f4 9DF80F20 		ldrb	r2, [sp, #15]	@ zero_extendqisi2
 3871 15f8 9DF80330 		ldrb	r3, [sp, #3]
 3872 15fc 1343     		orrs	r3, r3, r2
ARM GAS  /tmp/ccVYwGiK.s 			page 70


 3873 15fe DBB2     		uxtb	r3, r3
 3874 1600 8DF80F30 		strb	r3, [sp, #15]
 3875              		.loc 1 1371 0
 3876 1604 0DF10F03 		add	r3, sp, #15
 3877 1608 0198     		ldr	r0, [sp, #4]
 3878 160a 2321     		movs	r1, #35
 3879 160c 1A46     		mov	r2, r3
 3880 160e 0123     		movs	r3, #1
 3881 1610 FFF7FEFF 		bl	LSM303AGR_ACC_WriteReg
 3882 1614 0346     		mov	r3, r0
 3883 1616 002B     		cmp	r3, #0
 3884 1618 01D1     		bne	.L250
 3885              		.loc 1 1372 0
 3886 161a 0023     		movs	r3, #0
 3887 161c 00E0     		b	.L251
 3888              	.L250:
 3889              		.loc 1 1374 0
 3890 161e 0123     		movs	r3, #1
 3891              	.L251:
 3892              		.loc 1 1375 0
 3893 1620 1846     		mov	r0, r3
 3894 1622 05B0     		add	sp, sp, #20
 3895              		@ sp needed
 3896 1624 5DF804FB 		ldr	pc, [sp], #4
 3897              		.cfi_endproc
 3898              	.LFE62:
 3899              		.size	LSM303AGR_ACC_W_HiRes, .-LSM303AGR_ACC_W_HiRes
 3900              		.align	2
 3901 1628 AFF30080 		.p2align 4,,15
 3901      AFF30080 
 3902              		.global	LSM303AGR_ACC_R_HiRes
 3903              		.thumb
 3904              		.thumb_func
 3905              		.type	LSM303AGR_ACC_R_HiRes, %function
 3906              	LSM303AGR_ACC_R_HiRes:
 3907              	.LFB63:
 3908              		.loc 1 1385 0
 3909              		.cfi_startproc
 3910              		@ args = 0, pretend = 0, frame = 8
 3911              		@ frame_needed = 0, uses_anonymous_args = 0
 3912 1630 00B5     		push	{lr}
 3913              		.cfi_def_cfa_offset 4
 3914              		.cfi_offset 14, -4
 3915 1632 83B0     		sub	sp, sp, #12
 3916              		.cfi_def_cfa_offset 16
 3917 1634 0190     		str	r0, [sp, #4]
 3918 1636 0091     		str	r1, [sp]
 3919              		.loc 1 1386 0
 3920 1638 0198     		ldr	r0, [sp, #4]
 3921 163a 2321     		movs	r1, #35
 3922 163c 009A     		ldr	r2, [sp]
 3923 163e 0123     		movs	r3, #1
 3924 1640 FFF7FEFF 		bl	LSM303AGR_ACC_ReadReg
 3925 1644 0346     		mov	r3, r0
 3926 1646 002B     		cmp	r3, #0
 3927 1648 01D1     		bne	.L253
 3928              		.loc 1 1387 0
ARM GAS  /tmp/ccVYwGiK.s 			page 71


 3929 164a 0023     		movs	r3, #0
 3930 164c 07E0     		b	.L254
 3931              	.L253:
 3932              		.loc 1 1389 0
 3933 164e 009B     		ldr	r3, [sp]
 3934 1650 1B78     		ldrb	r3, [r3]	@ zero_extendqisi2
 3935 1652 03F00803 		and	r3, r3, #8
 3936 1656 DAB2     		uxtb	r2, r3
 3937 1658 009B     		ldr	r3, [sp]
 3938 165a 1A70     		strb	r2, [r3]
 3939              		.loc 1 1391 0
 3940 165c 0123     		movs	r3, #1
 3941              	.L254:
 3942              		.loc 1 1392 0
 3943 165e 1846     		mov	r0, r3
 3944 1660 03B0     		add	sp, sp, #12
 3945              		@ sp needed
 3946 1662 5DF804FB 		ldr	pc, [sp], #4
 3947              		.cfi_endproc
 3948              	.LFE63:
 3949              		.size	LSM303AGR_ACC_R_HiRes, .-LSM303AGR_ACC_R_HiRes
 3950 1666 00BF     		.align	2
 3951 1668 AFF30080 		.p2align 4,,15
 3951      AFF30080 
 3952              		.global	LSM303AGR_ACC_W_LittleBigEndian
 3953              		.thumb
 3954              		.thumb_func
 3955              		.type	LSM303AGR_ACC_W_LittleBigEndian, %function
 3956              	LSM303AGR_ACC_W_LittleBigEndian:
 3957              	.LFB64:
 3958              		.loc 1 1402 0
 3959              		.cfi_startproc
 3960              		@ args = 0, pretend = 0, frame = 16
 3961              		@ frame_needed = 0, uses_anonymous_args = 0
 3962 1670 00B5     		push	{lr}
 3963              		.cfi_def_cfa_offset 4
 3964              		.cfi_offset 14, -4
 3965 1672 85B0     		sub	sp, sp, #20
 3966              		.cfi_def_cfa_offset 24
 3967 1674 0190     		str	r0, [sp, #4]
 3968 1676 0B46     		mov	r3, r1
 3969 1678 8DF80330 		strb	r3, [sp, #3]
 3970              		.loc 1 1405 0
 3971 167c 0DF10F03 		add	r3, sp, #15
 3972 1680 0198     		ldr	r0, [sp, #4]
 3973 1682 2321     		movs	r1, #35
 3974 1684 1A46     		mov	r2, r3
 3975 1686 0123     		movs	r3, #1
 3976 1688 FFF7FEFF 		bl	LSM303AGR_ACC_ReadReg
 3977 168c 0346     		mov	r3, r0
 3978 168e 002B     		cmp	r3, #0
 3979 1690 01D1     		bne	.L256
 3980              		.loc 1 1406 0
 3981 1692 0023     		movs	r3, #0
 3982 1694 1CE0     		b	.L259
 3983              	.L256:
 3984              		.loc 1 1408 0
ARM GAS  /tmp/ccVYwGiK.s 			page 72


 3985 1696 9DF80F30 		ldrb	r3, [sp, #15]	@ zero_extendqisi2
 3986 169a 23F04003 		bic	r3, r3, #64
 3987 169e DBB2     		uxtb	r3, r3
 3988 16a0 8DF80F30 		strb	r3, [sp, #15]
 3989              		.loc 1 1409 0
 3990 16a4 9DF80F20 		ldrb	r2, [sp, #15]	@ zero_extendqisi2
 3991 16a8 9DF80330 		ldrb	r3, [sp, #3]
 3992 16ac 1343     		orrs	r3, r3, r2
 3993 16ae DBB2     		uxtb	r3, r3
 3994 16b0 8DF80F30 		strb	r3, [sp, #15]
 3995              		.loc 1 1411 0
 3996 16b4 0DF10F03 		add	r3, sp, #15
 3997 16b8 0198     		ldr	r0, [sp, #4]
 3998 16ba 2321     		movs	r1, #35
 3999 16bc 1A46     		mov	r2, r3
 4000 16be 0123     		movs	r3, #1
 4001 16c0 FFF7FEFF 		bl	LSM303AGR_ACC_WriteReg
 4002 16c4 0346     		mov	r3, r0
 4003 16c6 002B     		cmp	r3, #0
 4004 16c8 01D1     		bne	.L258
 4005              		.loc 1 1412 0
 4006 16ca 0023     		movs	r3, #0
 4007 16cc 00E0     		b	.L259
 4008              	.L258:
 4009              		.loc 1 1414 0
 4010 16ce 0123     		movs	r3, #1
 4011              	.L259:
 4012              		.loc 1 1415 0
 4013 16d0 1846     		mov	r0, r3
 4014 16d2 05B0     		add	sp, sp, #20
 4015              		@ sp needed
 4016 16d4 5DF804FB 		ldr	pc, [sp], #4
 4017              		.cfi_endproc
 4018              	.LFE64:
 4019              		.size	LSM303AGR_ACC_W_LittleBigEndian, .-LSM303AGR_ACC_W_LittleBigEndian
 4020              		.align	2
 4021 16d8 AFF30080 		.p2align 4,,15
 4021      AFF30080 
 4022              		.global	LSM303AGR_ACC_R_LittleBigEndian
 4023              		.thumb
 4024              		.thumb_func
 4025              		.type	LSM303AGR_ACC_R_LittleBigEndian, %function
 4026              	LSM303AGR_ACC_R_LittleBigEndian:
 4027              	.LFB65:
 4028              		.loc 1 1425 0
 4029              		.cfi_startproc
 4030              		@ args = 0, pretend = 0, frame = 8
 4031              		@ frame_needed = 0, uses_anonymous_args = 0
 4032 16e0 00B5     		push	{lr}
 4033              		.cfi_def_cfa_offset 4
 4034              		.cfi_offset 14, -4
 4035 16e2 83B0     		sub	sp, sp, #12
 4036              		.cfi_def_cfa_offset 16
 4037 16e4 0190     		str	r0, [sp, #4]
 4038 16e6 0091     		str	r1, [sp]
 4039              		.loc 1 1426 0
 4040 16e8 0198     		ldr	r0, [sp, #4]
ARM GAS  /tmp/ccVYwGiK.s 			page 73


 4041 16ea 2321     		movs	r1, #35
 4042 16ec 009A     		ldr	r2, [sp]
 4043 16ee 0123     		movs	r3, #1
 4044 16f0 FFF7FEFF 		bl	LSM303AGR_ACC_ReadReg
 4045 16f4 0346     		mov	r3, r0
 4046 16f6 002B     		cmp	r3, #0
 4047 16f8 01D1     		bne	.L261
 4048              		.loc 1 1427 0
 4049 16fa 0023     		movs	r3, #0
 4050 16fc 07E0     		b	.L262
 4051              	.L261:
 4052              		.loc 1 1429 0
 4053 16fe 009B     		ldr	r3, [sp]
 4054 1700 1B78     		ldrb	r3, [r3]	@ zero_extendqisi2
 4055 1702 03F04003 		and	r3, r3, #64
 4056 1706 DAB2     		uxtb	r2, r3
 4057 1708 009B     		ldr	r3, [sp]
 4058 170a 1A70     		strb	r2, [r3]
 4059              		.loc 1 1431 0
 4060 170c 0123     		movs	r3, #1
 4061              	.L262:
 4062              		.loc 1 1432 0
 4063 170e 1846     		mov	r0, r3
 4064 1710 03B0     		add	sp, sp, #12
 4065              		@ sp needed
 4066 1712 5DF804FB 		ldr	pc, [sp], #4
 4067              		.cfi_endproc
 4068              	.LFE65:
 4069              		.size	LSM303AGR_ACC_R_LittleBigEndian, .-LSM303AGR_ACC_R_LittleBigEndian
 4070 1716 00BF     		.align	2
 4071 1718 AFF30080 		.p2align 4,,15
 4071      AFF30080 
 4072              		.global	LSM303AGR_ACC_W_4D_on_INT2
 4073              		.thumb
 4074              		.thumb_func
 4075              		.type	LSM303AGR_ACC_W_4D_on_INT2, %function
 4076              	LSM303AGR_ACC_W_4D_on_INT2:
 4077              	.LFB66:
 4078              		.loc 1 1442 0
 4079              		.cfi_startproc
 4080              		@ args = 0, pretend = 0, frame = 16
 4081              		@ frame_needed = 0, uses_anonymous_args = 0
 4082 1720 00B5     		push	{lr}
 4083              		.cfi_def_cfa_offset 4
 4084              		.cfi_offset 14, -4
 4085 1722 85B0     		sub	sp, sp, #20
 4086              		.cfi_def_cfa_offset 24
 4087 1724 0190     		str	r0, [sp, #4]
 4088 1726 0B46     		mov	r3, r1
 4089 1728 8DF80330 		strb	r3, [sp, #3]
 4090              		.loc 1 1445 0
 4091 172c 0DF10F03 		add	r3, sp, #15
 4092 1730 0198     		ldr	r0, [sp, #4]
 4093 1732 2421     		movs	r1, #36
 4094 1734 1A46     		mov	r2, r3
 4095 1736 0123     		movs	r3, #1
 4096 1738 FFF7FEFF 		bl	LSM303AGR_ACC_ReadReg
ARM GAS  /tmp/ccVYwGiK.s 			page 74


 4097 173c 0346     		mov	r3, r0
 4098 173e 002B     		cmp	r3, #0
 4099 1740 01D1     		bne	.L264
 4100              		.loc 1 1446 0
 4101 1742 0023     		movs	r3, #0
 4102 1744 1CE0     		b	.L267
 4103              	.L264:
 4104              		.loc 1 1448 0
 4105 1746 9DF80F30 		ldrb	r3, [sp, #15]	@ zero_extendqisi2
 4106 174a 23F00103 		bic	r3, r3, #1
 4107 174e DBB2     		uxtb	r3, r3
 4108 1750 8DF80F30 		strb	r3, [sp, #15]
 4109              		.loc 1 1449 0
 4110 1754 9DF80F20 		ldrb	r2, [sp, #15]	@ zero_extendqisi2
 4111 1758 9DF80330 		ldrb	r3, [sp, #3]
 4112 175c 1343     		orrs	r3, r3, r2
 4113 175e DBB2     		uxtb	r3, r3
 4114 1760 8DF80F30 		strb	r3, [sp, #15]
 4115              		.loc 1 1451 0
 4116 1764 0DF10F03 		add	r3, sp, #15
 4117 1768 0198     		ldr	r0, [sp, #4]
 4118 176a 2421     		movs	r1, #36
 4119 176c 1A46     		mov	r2, r3
 4120 176e 0123     		movs	r3, #1
 4121 1770 FFF7FEFF 		bl	LSM303AGR_ACC_WriteReg
 4122 1774 0346     		mov	r3, r0
 4123 1776 002B     		cmp	r3, #0
 4124 1778 01D1     		bne	.L266
 4125              		.loc 1 1452 0
 4126 177a 0023     		movs	r3, #0
 4127 177c 00E0     		b	.L267
 4128              	.L266:
 4129              		.loc 1 1454 0
 4130 177e 0123     		movs	r3, #1
 4131              	.L267:
 4132              		.loc 1 1455 0
 4133 1780 1846     		mov	r0, r3
 4134 1782 05B0     		add	sp, sp, #20
 4135              		@ sp needed
 4136 1784 5DF804FB 		ldr	pc, [sp], #4
 4137              		.cfi_endproc
 4138              	.LFE66:
 4139              		.size	LSM303AGR_ACC_W_4D_on_INT2, .-LSM303AGR_ACC_W_4D_on_INT2
 4140              		.align	2
 4141 1788 AFF30080 		.p2align 4,,15
 4141      AFF30080 
 4142              		.global	LSM303AGR_ACC_R_4D_on_INT2
 4143              		.thumb
 4144              		.thumb_func
 4145              		.type	LSM303AGR_ACC_R_4D_on_INT2, %function
 4146              	LSM303AGR_ACC_R_4D_on_INT2:
 4147              	.LFB67:
 4148              		.loc 1 1465 0
 4149              		.cfi_startproc
 4150              		@ args = 0, pretend = 0, frame = 8
 4151              		@ frame_needed = 0, uses_anonymous_args = 0
 4152 1790 00B5     		push	{lr}
ARM GAS  /tmp/ccVYwGiK.s 			page 75


 4153              		.cfi_def_cfa_offset 4
 4154              		.cfi_offset 14, -4
 4155 1792 83B0     		sub	sp, sp, #12
 4156              		.cfi_def_cfa_offset 16
 4157 1794 0190     		str	r0, [sp, #4]
 4158 1796 0091     		str	r1, [sp]
 4159              		.loc 1 1466 0
 4160 1798 0198     		ldr	r0, [sp, #4]
 4161 179a 2421     		movs	r1, #36
 4162 179c 009A     		ldr	r2, [sp]
 4163 179e 0123     		movs	r3, #1
 4164 17a0 FFF7FEFF 		bl	LSM303AGR_ACC_ReadReg
 4165 17a4 0346     		mov	r3, r0
 4166 17a6 002B     		cmp	r3, #0
 4167 17a8 01D1     		bne	.L269
 4168              		.loc 1 1467 0
 4169 17aa 0023     		movs	r3, #0
 4170 17ac 07E0     		b	.L270
 4171              	.L269:
 4172              		.loc 1 1469 0
 4173 17ae 009B     		ldr	r3, [sp]
 4174 17b0 1B78     		ldrb	r3, [r3]	@ zero_extendqisi2
 4175 17b2 03F00103 		and	r3, r3, #1
 4176 17b6 DAB2     		uxtb	r2, r3
 4177 17b8 009B     		ldr	r3, [sp]
 4178 17ba 1A70     		strb	r2, [r3]
 4179              		.loc 1 1471 0
 4180 17bc 0123     		movs	r3, #1
 4181              	.L270:
 4182              		.loc 1 1472 0
 4183 17be 1846     		mov	r0, r3
 4184 17c0 03B0     		add	sp, sp, #12
 4185              		@ sp needed
 4186 17c2 5DF804FB 		ldr	pc, [sp], #4
 4187              		.cfi_endproc
 4188              	.LFE67:
 4189              		.size	LSM303AGR_ACC_R_4D_on_INT2, .-LSM303AGR_ACC_R_4D_on_INT2
 4190 17c6 00BF     		.align	2
 4191 17c8 AFF30080 		.p2align 4,,15
 4191      AFF30080 
 4192              		.global	LSM303AGR_ACC_W_LatchInterrupt_on_INT2
 4193              		.thumb
 4194              		.thumb_func
 4195              		.type	LSM303AGR_ACC_W_LatchInterrupt_on_INT2, %function
 4196              	LSM303AGR_ACC_W_LatchInterrupt_on_INT2:
 4197              	.LFB68:
 4198              		.loc 1 1482 0
 4199              		.cfi_startproc
 4200              		@ args = 0, pretend = 0, frame = 16
 4201              		@ frame_needed = 0, uses_anonymous_args = 0
 4202 17d0 00B5     		push	{lr}
 4203              		.cfi_def_cfa_offset 4
 4204              		.cfi_offset 14, -4
 4205 17d2 85B0     		sub	sp, sp, #20
 4206              		.cfi_def_cfa_offset 24
 4207 17d4 0190     		str	r0, [sp, #4]
 4208 17d6 0B46     		mov	r3, r1
ARM GAS  /tmp/ccVYwGiK.s 			page 76


 4209 17d8 8DF80330 		strb	r3, [sp, #3]
 4210              		.loc 1 1485 0
 4211 17dc 0DF10F03 		add	r3, sp, #15
 4212 17e0 0198     		ldr	r0, [sp, #4]
 4213 17e2 2421     		movs	r1, #36
 4214 17e4 1A46     		mov	r2, r3
 4215 17e6 0123     		movs	r3, #1
 4216 17e8 FFF7FEFF 		bl	LSM303AGR_ACC_ReadReg
 4217 17ec 0346     		mov	r3, r0
 4218 17ee 002B     		cmp	r3, #0
 4219 17f0 01D1     		bne	.L272
 4220              		.loc 1 1486 0
 4221 17f2 0023     		movs	r3, #0
 4222 17f4 1CE0     		b	.L275
 4223              	.L272:
 4224              		.loc 1 1488 0
 4225 17f6 9DF80F30 		ldrb	r3, [sp, #15]	@ zero_extendqisi2
 4226 17fa 23F00203 		bic	r3, r3, #2
 4227 17fe DBB2     		uxtb	r3, r3
 4228 1800 8DF80F30 		strb	r3, [sp, #15]
 4229              		.loc 1 1489 0
 4230 1804 9DF80F20 		ldrb	r2, [sp, #15]	@ zero_extendqisi2
 4231 1808 9DF80330 		ldrb	r3, [sp, #3]
 4232 180c 1343     		orrs	r3, r3, r2
 4233 180e DBB2     		uxtb	r3, r3
 4234 1810 8DF80F30 		strb	r3, [sp, #15]
 4235              		.loc 1 1491 0
 4236 1814 0DF10F03 		add	r3, sp, #15
 4237 1818 0198     		ldr	r0, [sp, #4]
 4238 181a 2421     		movs	r1, #36
 4239 181c 1A46     		mov	r2, r3
 4240 181e 0123     		movs	r3, #1
 4241 1820 FFF7FEFF 		bl	LSM303AGR_ACC_WriteReg
 4242 1824 0346     		mov	r3, r0
 4243 1826 002B     		cmp	r3, #0
 4244 1828 01D1     		bne	.L274
 4245              		.loc 1 1492 0
 4246 182a 0023     		movs	r3, #0
 4247 182c 00E0     		b	.L275
 4248              	.L274:
 4249              		.loc 1 1494 0
 4250 182e 0123     		movs	r3, #1
 4251              	.L275:
 4252              		.loc 1 1495 0
 4253 1830 1846     		mov	r0, r3
 4254 1832 05B0     		add	sp, sp, #20
 4255              		@ sp needed
 4256 1834 5DF804FB 		ldr	pc, [sp], #4
 4257              		.cfi_endproc
 4258              	.LFE68:
 4259              		.size	LSM303AGR_ACC_W_LatchInterrupt_on_INT2, .-LSM303AGR_ACC_W_LatchInterrupt_on_INT2
 4260              		.align	2
 4261 1838 AFF30080 		.p2align 4,,15
 4261      AFF30080 
 4262              		.global	LSM303AGR_ACC_R_LatchInterrupt_on_INT2
 4263              		.thumb
 4264              		.thumb_func
ARM GAS  /tmp/ccVYwGiK.s 			page 77


 4265              		.type	LSM303AGR_ACC_R_LatchInterrupt_on_INT2, %function
 4266              	LSM303AGR_ACC_R_LatchInterrupt_on_INT2:
 4267              	.LFB69:
 4268              		.loc 1 1505 0
 4269              		.cfi_startproc
 4270              		@ args = 0, pretend = 0, frame = 8
 4271              		@ frame_needed = 0, uses_anonymous_args = 0
 4272 1840 00B5     		push	{lr}
 4273              		.cfi_def_cfa_offset 4
 4274              		.cfi_offset 14, -4
 4275 1842 83B0     		sub	sp, sp, #12
 4276              		.cfi_def_cfa_offset 16
 4277 1844 0190     		str	r0, [sp, #4]
 4278 1846 0091     		str	r1, [sp]
 4279              		.loc 1 1506 0
 4280 1848 0198     		ldr	r0, [sp, #4]
 4281 184a 2421     		movs	r1, #36
 4282 184c 009A     		ldr	r2, [sp]
 4283 184e 0123     		movs	r3, #1
 4284 1850 FFF7FEFF 		bl	LSM303AGR_ACC_ReadReg
 4285 1854 0346     		mov	r3, r0
 4286 1856 002B     		cmp	r3, #0
 4287 1858 01D1     		bne	.L277
 4288              		.loc 1 1507 0
 4289 185a 0023     		movs	r3, #0
 4290 185c 07E0     		b	.L278
 4291              	.L277:
 4292              		.loc 1 1509 0
 4293 185e 009B     		ldr	r3, [sp]
 4294 1860 1B78     		ldrb	r3, [r3]	@ zero_extendqisi2
 4295 1862 03F00203 		and	r3, r3, #2
 4296 1866 DAB2     		uxtb	r2, r3
 4297 1868 009B     		ldr	r3, [sp]
 4298 186a 1A70     		strb	r2, [r3]
 4299              		.loc 1 1511 0
 4300 186c 0123     		movs	r3, #1
 4301              	.L278:
 4302              		.loc 1 1512 0
 4303 186e 1846     		mov	r0, r3
 4304 1870 03B0     		add	sp, sp, #12
 4305              		@ sp needed
 4306 1872 5DF804FB 		ldr	pc, [sp], #4
 4307              		.cfi_endproc
 4308              	.LFE69:
 4309              		.size	LSM303AGR_ACC_R_LatchInterrupt_on_INT2, .-LSM303AGR_ACC_R_LatchInterrupt_on_INT2
 4310 1876 00BF     		.align	2
 4311 1878 AFF30080 		.p2align 4,,15
 4311      AFF30080 
 4312              		.global	LSM303AGR_ACC_W_4D_on_INT1
 4313              		.thumb
 4314              		.thumb_func
 4315              		.type	LSM303AGR_ACC_W_4D_on_INT1, %function
 4316              	LSM303AGR_ACC_W_4D_on_INT1:
 4317              	.LFB70:
 4318              		.loc 1 1522 0
 4319              		.cfi_startproc
 4320              		@ args = 0, pretend = 0, frame = 16
ARM GAS  /tmp/ccVYwGiK.s 			page 78


 4321              		@ frame_needed = 0, uses_anonymous_args = 0
 4322 1880 00B5     		push	{lr}
 4323              		.cfi_def_cfa_offset 4
 4324              		.cfi_offset 14, -4
 4325 1882 85B0     		sub	sp, sp, #20
 4326              		.cfi_def_cfa_offset 24
 4327 1884 0190     		str	r0, [sp, #4]
 4328 1886 0B46     		mov	r3, r1
 4329 1888 8DF80330 		strb	r3, [sp, #3]
 4330              		.loc 1 1525 0
 4331 188c 0DF10F03 		add	r3, sp, #15
 4332 1890 0198     		ldr	r0, [sp, #4]
 4333 1892 2421     		movs	r1, #36
 4334 1894 1A46     		mov	r2, r3
 4335 1896 0123     		movs	r3, #1
 4336 1898 FFF7FEFF 		bl	LSM303AGR_ACC_ReadReg
 4337 189c 0346     		mov	r3, r0
 4338 189e 002B     		cmp	r3, #0
 4339 18a0 01D1     		bne	.L280
 4340              		.loc 1 1526 0
 4341 18a2 0023     		movs	r3, #0
 4342 18a4 1CE0     		b	.L283
 4343              	.L280:
 4344              		.loc 1 1528 0
 4345 18a6 9DF80F30 		ldrb	r3, [sp, #15]	@ zero_extendqisi2
 4346 18aa 23F00403 		bic	r3, r3, #4
 4347 18ae DBB2     		uxtb	r3, r3
 4348 18b0 8DF80F30 		strb	r3, [sp, #15]
 4349              		.loc 1 1529 0
 4350 18b4 9DF80F20 		ldrb	r2, [sp, #15]	@ zero_extendqisi2
 4351 18b8 9DF80330 		ldrb	r3, [sp, #3]
 4352 18bc 1343     		orrs	r3, r3, r2
 4353 18be DBB2     		uxtb	r3, r3
 4354 18c0 8DF80F30 		strb	r3, [sp, #15]
 4355              		.loc 1 1531 0
 4356 18c4 0DF10F03 		add	r3, sp, #15
 4357 18c8 0198     		ldr	r0, [sp, #4]
 4358 18ca 2421     		movs	r1, #36
 4359 18cc 1A46     		mov	r2, r3
 4360 18ce 0123     		movs	r3, #1
 4361 18d0 FFF7FEFF 		bl	LSM303AGR_ACC_WriteReg
 4362 18d4 0346     		mov	r3, r0
 4363 18d6 002B     		cmp	r3, #0
 4364 18d8 01D1     		bne	.L282
 4365              		.loc 1 1532 0
 4366 18da 0023     		movs	r3, #0
 4367 18dc 00E0     		b	.L283
 4368              	.L282:
 4369              		.loc 1 1534 0
 4370 18de 0123     		movs	r3, #1
 4371              	.L283:
 4372              		.loc 1 1535 0
 4373 18e0 1846     		mov	r0, r3
 4374 18e2 05B0     		add	sp, sp, #20
 4375              		@ sp needed
 4376 18e4 5DF804FB 		ldr	pc, [sp], #4
 4377              		.cfi_endproc
ARM GAS  /tmp/ccVYwGiK.s 			page 79


 4378              	.LFE70:
 4379              		.size	LSM303AGR_ACC_W_4D_on_INT1, .-LSM303AGR_ACC_W_4D_on_INT1
 4380              		.align	2
 4381 18e8 AFF30080 		.p2align 4,,15
 4381      AFF30080 
 4382              		.global	LSM303AGR_ACC_R_4D_on_INT1
 4383              		.thumb
 4384              		.thumb_func
 4385              		.type	LSM303AGR_ACC_R_4D_on_INT1, %function
 4386              	LSM303AGR_ACC_R_4D_on_INT1:
 4387              	.LFB71:
 4388              		.loc 1 1545 0
 4389              		.cfi_startproc
 4390              		@ args = 0, pretend = 0, frame = 8
 4391              		@ frame_needed = 0, uses_anonymous_args = 0
 4392 18f0 00B5     		push	{lr}
 4393              		.cfi_def_cfa_offset 4
 4394              		.cfi_offset 14, -4
 4395 18f2 83B0     		sub	sp, sp, #12
 4396              		.cfi_def_cfa_offset 16
 4397 18f4 0190     		str	r0, [sp, #4]
 4398 18f6 0091     		str	r1, [sp]
 4399              		.loc 1 1546 0
 4400 18f8 0198     		ldr	r0, [sp, #4]
 4401 18fa 2421     		movs	r1, #36
 4402 18fc 009A     		ldr	r2, [sp]
 4403 18fe 0123     		movs	r3, #1
 4404 1900 FFF7FEFF 		bl	LSM303AGR_ACC_ReadReg
 4405 1904 0346     		mov	r3, r0
 4406 1906 002B     		cmp	r3, #0
 4407 1908 01D1     		bne	.L285
 4408              		.loc 1 1547 0
 4409 190a 0023     		movs	r3, #0
 4410 190c 07E0     		b	.L286
 4411              	.L285:
 4412              		.loc 1 1549 0
 4413 190e 009B     		ldr	r3, [sp]
 4414 1910 1B78     		ldrb	r3, [r3]	@ zero_extendqisi2
 4415 1912 03F00403 		and	r3, r3, #4
 4416 1916 DAB2     		uxtb	r2, r3
 4417 1918 009B     		ldr	r3, [sp]
 4418 191a 1A70     		strb	r2, [r3]
 4419              		.loc 1 1551 0
 4420 191c 0123     		movs	r3, #1
 4421              	.L286:
 4422              		.loc 1 1552 0
 4423 191e 1846     		mov	r0, r3
 4424 1920 03B0     		add	sp, sp, #12
 4425              		@ sp needed
 4426 1922 5DF804FB 		ldr	pc, [sp], #4
 4427              		.cfi_endproc
 4428              	.LFE71:
 4429              		.size	LSM303AGR_ACC_R_4D_on_INT1, .-LSM303AGR_ACC_R_4D_on_INT1
 4430 1926 00BF     		.align	2
 4431 1928 AFF30080 		.p2align 4,,15
 4431      AFF30080 
 4432              		.global	LSM303AGR_ACC_W_LatchInterrupt_on_INT1
ARM GAS  /tmp/ccVYwGiK.s 			page 80


 4433              		.thumb
 4434              		.thumb_func
 4435              		.type	LSM303AGR_ACC_W_LatchInterrupt_on_INT1, %function
 4436              	LSM303AGR_ACC_W_LatchInterrupt_on_INT1:
 4437              	.LFB72:
 4438              		.loc 1 1562 0
 4439              		.cfi_startproc
 4440              		@ args = 0, pretend = 0, frame = 16
 4441              		@ frame_needed = 0, uses_anonymous_args = 0
 4442 1930 00B5     		push	{lr}
 4443              		.cfi_def_cfa_offset 4
 4444              		.cfi_offset 14, -4
 4445 1932 85B0     		sub	sp, sp, #20
 4446              		.cfi_def_cfa_offset 24
 4447 1934 0190     		str	r0, [sp, #4]
 4448 1936 0B46     		mov	r3, r1
 4449 1938 8DF80330 		strb	r3, [sp, #3]
 4450              		.loc 1 1565 0
 4451 193c 0DF10F03 		add	r3, sp, #15
 4452 1940 0198     		ldr	r0, [sp, #4]
 4453 1942 2421     		movs	r1, #36
 4454 1944 1A46     		mov	r2, r3
 4455 1946 0123     		movs	r3, #1
 4456 1948 FFF7FEFF 		bl	LSM303AGR_ACC_ReadReg
 4457 194c 0346     		mov	r3, r0
 4458 194e 002B     		cmp	r3, #0
 4459 1950 01D1     		bne	.L288
 4460              		.loc 1 1566 0
 4461 1952 0023     		movs	r3, #0
 4462 1954 1CE0     		b	.L291
 4463              	.L288:
 4464              		.loc 1 1568 0
 4465 1956 9DF80F30 		ldrb	r3, [sp, #15]	@ zero_extendqisi2
 4466 195a 23F00803 		bic	r3, r3, #8
 4467 195e DBB2     		uxtb	r3, r3
 4468 1960 8DF80F30 		strb	r3, [sp, #15]
 4469              		.loc 1 1569 0
 4470 1964 9DF80F20 		ldrb	r2, [sp, #15]	@ zero_extendqisi2
 4471 1968 9DF80330 		ldrb	r3, [sp, #3]
 4472 196c 1343     		orrs	r3, r3, r2
 4473 196e DBB2     		uxtb	r3, r3
 4474 1970 8DF80F30 		strb	r3, [sp, #15]
 4475              		.loc 1 1571 0
 4476 1974 0DF10F03 		add	r3, sp, #15
 4477 1978 0198     		ldr	r0, [sp, #4]
 4478 197a 2421     		movs	r1, #36
 4479 197c 1A46     		mov	r2, r3
 4480 197e 0123     		movs	r3, #1
 4481 1980 FFF7FEFF 		bl	LSM303AGR_ACC_WriteReg
 4482 1984 0346     		mov	r3, r0
 4483 1986 002B     		cmp	r3, #0
 4484 1988 01D1     		bne	.L290
 4485              		.loc 1 1572 0
 4486 198a 0023     		movs	r3, #0
 4487 198c 00E0     		b	.L291
 4488              	.L290:
 4489              		.loc 1 1574 0
ARM GAS  /tmp/ccVYwGiK.s 			page 81


 4490 198e 0123     		movs	r3, #1
 4491              	.L291:
 4492              		.loc 1 1575 0
 4493 1990 1846     		mov	r0, r3
 4494 1992 05B0     		add	sp, sp, #20
 4495              		@ sp needed
 4496 1994 5DF804FB 		ldr	pc, [sp], #4
 4497              		.cfi_endproc
 4498              	.LFE72:
 4499              		.size	LSM303AGR_ACC_W_LatchInterrupt_on_INT1, .-LSM303AGR_ACC_W_LatchInterrupt_on_INT1
 4500              		.align	2
 4501 1998 AFF30080 		.p2align 4,,15
 4501      AFF30080 
 4502              		.global	LSM303AGR_ACC_R_LatchInterrupt_on_INT1
 4503              		.thumb
 4504              		.thumb_func
 4505              		.type	LSM303AGR_ACC_R_LatchInterrupt_on_INT1, %function
 4506              	LSM303AGR_ACC_R_LatchInterrupt_on_INT1:
 4507              	.LFB73:
 4508              		.loc 1 1585 0
 4509              		.cfi_startproc
 4510              		@ args = 0, pretend = 0, frame = 8
 4511              		@ frame_needed = 0, uses_anonymous_args = 0
 4512 19a0 00B5     		push	{lr}
 4513              		.cfi_def_cfa_offset 4
 4514              		.cfi_offset 14, -4
 4515 19a2 83B0     		sub	sp, sp, #12
 4516              		.cfi_def_cfa_offset 16
 4517 19a4 0190     		str	r0, [sp, #4]
 4518 19a6 0091     		str	r1, [sp]
 4519              		.loc 1 1586 0
 4520 19a8 0198     		ldr	r0, [sp, #4]
 4521 19aa 2421     		movs	r1, #36
 4522 19ac 009A     		ldr	r2, [sp]
 4523 19ae 0123     		movs	r3, #1
 4524 19b0 FFF7FEFF 		bl	LSM303AGR_ACC_ReadReg
 4525 19b4 0346     		mov	r3, r0
 4526 19b6 002B     		cmp	r3, #0
 4527 19b8 01D1     		bne	.L293
 4528              		.loc 1 1587 0
 4529 19ba 0023     		movs	r3, #0
 4530 19bc 07E0     		b	.L294
 4531              	.L293:
 4532              		.loc 1 1589 0
 4533 19be 009B     		ldr	r3, [sp]
 4534 19c0 1B78     		ldrb	r3, [r3]	@ zero_extendqisi2
 4535 19c2 03F00803 		and	r3, r3, #8
 4536 19c6 DAB2     		uxtb	r2, r3
 4537 19c8 009B     		ldr	r3, [sp]
 4538 19ca 1A70     		strb	r2, [r3]
 4539              		.loc 1 1591 0
 4540 19cc 0123     		movs	r3, #1
 4541              	.L294:
 4542              		.loc 1 1592 0
 4543 19ce 1846     		mov	r0, r3
 4544 19d0 03B0     		add	sp, sp, #12
 4545              		@ sp needed
ARM GAS  /tmp/ccVYwGiK.s 			page 82


 4546 19d2 5DF804FB 		ldr	pc, [sp], #4
 4547              		.cfi_endproc
 4548              	.LFE73:
 4549              		.size	LSM303AGR_ACC_R_LatchInterrupt_on_INT1, .-LSM303AGR_ACC_R_LatchInterrupt_on_INT1
 4550 19d6 00BF     		.align	2
 4551 19d8 AFF30080 		.p2align 4,,15
 4551      AFF30080 
 4552              		.global	LSM303AGR_ACC_W_FIFO_EN
 4553              		.thumb
 4554              		.thumb_func
 4555              		.type	LSM303AGR_ACC_W_FIFO_EN, %function
 4556              	LSM303AGR_ACC_W_FIFO_EN:
 4557              	.LFB74:
 4558              		.loc 1 1602 0
 4559              		.cfi_startproc
 4560              		@ args = 0, pretend = 0, frame = 16
 4561              		@ frame_needed = 0, uses_anonymous_args = 0
 4562 19e0 00B5     		push	{lr}
 4563              		.cfi_def_cfa_offset 4
 4564              		.cfi_offset 14, -4
 4565 19e2 85B0     		sub	sp, sp, #20
 4566              		.cfi_def_cfa_offset 24
 4567 19e4 0190     		str	r0, [sp, #4]
 4568 19e6 0B46     		mov	r3, r1
 4569 19e8 8DF80330 		strb	r3, [sp, #3]
 4570              		.loc 1 1605 0
 4571 19ec 0DF10F03 		add	r3, sp, #15
 4572 19f0 0198     		ldr	r0, [sp, #4]
 4573 19f2 2421     		movs	r1, #36
 4574 19f4 1A46     		mov	r2, r3
 4575 19f6 0123     		movs	r3, #1
 4576 19f8 FFF7FEFF 		bl	LSM303AGR_ACC_ReadReg
 4577 19fc 0346     		mov	r3, r0
 4578 19fe 002B     		cmp	r3, #0
 4579 1a00 01D1     		bne	.L296
 4580              		.loc 1 1606 0
 4581 1a02 0023     		movs	r3, #0
 4582 1a04 1CE0     		b	.L299
 4583              	.L296:
 4584              		.loc 1 1608 0
 4585 1a06 9DF80F30 		ldrb	r3, [sp, #15]	@ zero_extendqisi2
 4586 1a0a 23F04003 		bic	r3, r3, #64
 4587 1a0e DBB2     		uxtb	r3, r3
 4588 1a10 8DF80F30 		strb	r3, [sp, #15]
 4589              		.loc 1 1609 0
 4590 1a14 9DF80F20 		ldrb	r2, [sp, #15]	@ zero_extendqisi2
 4591 1a18 9DF80330 		ldrb	r3, [sp, #3]
 4592 1a1c 1343     		orrs	r3, r3, r2
 4593 1a1e DBB2     		uxtb	r3, r3
 4594 1a20 8DF80F30 		strb	r3, [sp, #15]
 4595              		.loc 1 1611 0
 4596 1a24 0DF10F03 		add	r3, sp, #15
 4597 1a28 0198     		ldr	r0, [sp, #4]
 4598 1a2a 2421     		movs	r1, #36
 4599 1a2c 1A46     		mov	r2, r3
 4600 1a2e 0123     		movs	r3, #1
 4601 1a30 FFF7FEFF 		bl	LSM303AGR_ACC_WriteReg
ARM GAS  /tmp/ccVYwGiK.s 			page 83


 4602 1a34 0346     		mov	r3, r0
 4603 1a36 002B     		cmp	r3, #0
 4604 1a38 01D1     		bne	.L298
 4605              		.loc 1 1612 0
 4606 1a3a 0023     		movs	r3, #0
 4607 1a3c 00E0     		b	.L299
 4608              	.L298:
 4609              		.loc 1 1614 0
 4610 1a3e 0123     		movs	r3, #1
 4611              	.L299:
 4612              		.loc 1 1615 0
 4613 1a40 1846     		mov	r0, r3
 4614 1a42 05B0     		add	sp, sp, #20
 4615              		@ sp needed
 4616 1a44 5DF804FB 		ldr	pc, [sp], #4
 4617              		.cfi_endproc
 4618              	.LFE74:
 4619              		.size	LSM303AGR_ACC_W_FIFO_EN, .-LSM303AGR_ACC_W_FIFO_EN
 4620              		.align	2
 4621 1a48 AFF30080 		.p2align 4,,15
 4621      AFF30080 
 4622              		.global	LSM303AGR_ACC_R_FIFO_EN
 4623              		.thumb
 4624              		.thumb_func
 4625              		.type	LSM303AGR_ACC_R_FIFO_EN, %function
 4626              	LSM303AGR_ACC_R_FIFO_EN:
 4627              	.LFB75:
 4628              		.loc 1 1625 0
 4629              		.cfi_startproc
 4630              		@ args = 0, pretend = 0, frame = 8
 4631              		@ frame_needed = 0, uses_anonymous_args = 0
 4632 1a50 00B5     		push	{lr}
 4633              		.cfi_def_cfa_offset 4
 4634              		.cfi_offset 14, -4
 4635 1a52 83B0     		sub	sp, sp, #12
 4636              		.cfi_def_cfa_offset 16
 4637 1a54 0190     		str	r0, [sp, #4]
 4638 1a56 0091     		str	r1, [sp]
 4639              		.loc 1 1626 0
 4640 1a58 0198     		ldr	r0, [sp, #4]
 4641 1a5a 2421     		movs	r1, #36
 4642 1a5c 009A     		ldr	r2, [sp]
 4643 1a5e 0123     		movs	r3, #1
 4644 1a60 FFF7FEFF 		bl	LSM303AGR_ACC_ReadReg
 4645 1a64 0346     		mov	r3, r0
 4646 1a66 002B     		cmp	r3, #0
 4647 1a68 01D1     		bne	.L301
 4648              		.loc 1 1627 0
 4649 1a6a 0023     		movs	r3, #0
 4650 1a6c 07E0     		b	.L302
 4651              	.L301:
 4652              		.loc 1 1629 0
 4653 1a6e 009B     		ldr	r3, [sp]
 4654 1a70 1B78     		ldrb	r3, [r3]	@ zero_extendqisi2
 4655 1a72 03F04003 		and	r3, r3, #64
 4656 1a76 DAB2     		uxtb	r2, r3
 4657 1a78 009B     		ldr	r3, [sp]
ARM GAS  /tmp/ccVYwGiK.s 			page 84


 4658 1a7a 1A70     		strb	r2, [r3]
 4659              		.loc 1 1631 0
 4660 1a7c 0123     		movs	r3, #1
 4661              	.L302:
 4662              		.loc 1 1632 0
 4663 1a7e 1846     		mov	r0, r3
 4664 1a80 03B0     		add	sp, sp, #12
 4665              		@ sp needed
 4666 1a82 5DF804FB 		ldr	pc, [sp], #4
 4667              		.cfi_endproc
 4668              	.LFE75:
 4669              		.size	LSM303AGR_ACC_R_FIFO_EN, .-LSM303AGR_ACC_R_FIFO_EN
 4670 1a86 00BF     		.align	2
 4671 1a88 AFF30080 		.p2align 4,,15
 4671      AFF30080 
 4672              		.global	LSM303AGR_ACC_W_RebootMemory
 4673              		.thumb
 4674              		.thumb_func
 4675              		.type	LSM303AGR_ACC_W_RebootMemory, %function
 4676              	LSM303AGR_ACC_W_RebootMemory:
 4677              	.LFB76:
 4678              		.loc 1 1642 0
 4679              		.cfi_startproc
 4680              		@ args = 0, pretend = 0, frame = 16
 4681              		@ frame_needed = 0, uses_anonymous_args = 0
 4682 1a90 00B5     		push	{lr}
 4683              		.cfi_def_cfa_offset 4
 4684              		.cfi_offset 14, -4
 4685 1a92 85B0     		sub	sp, sp, #20
 4686              		.cfi_def_cfa_offset 24
 4687 1a94 0190     		str	r0, [sp, #4]
 4688 1a96 0B46     		mov	r3, r1
 4689 1a98 8DF80330 		strb	r3, [sp, #3]
 4690              		.loc 1 1645 0
 4691 1a9c 0DF10F03 		add	r3, sp, #15
 4692 1aa0 0198     		ldr	r0, [sp, #4]
 4693 1aa2 2421     		movs	r1, #36
 4694 1aa4 1A46     		mov	r2, r3
 4695 1aa6 0123     		movs	r3, #1
 4696 1aa8 FFF7FEFF 		bl	LSM303AGR_ACC_ReadReg
 4697 1aac 0346     		mov	r3, r0
 4698 1aae 002B     		cmp	r3, #0
 4699 1ab0 01D1     		bne	.L304
 4700              		.loc 1 1646 0
 4701 1ab2 0023     		movs	r3, #0
 4702 1ab4 1CE0     		b	.L307
 4703              	.L304:
 4704              		.loc 1 1648 0
 4705 1ab6 9DF80F30 		ldrb	r3, [sp, #15]	@ zero_extendqisi2
 4706 1aba 03F07F03 		and	r3, r3, #127
 4707 1abe DBB2     		uxtb	r3, r3
 4708 1ac0 8DF80F30 		strb	r3, [sp, #15]
 4709              		.loc 1 1649 0
 4710 1ac4 9DF80F20 		ldrb	r2, [sp, #15]	@ zero_extendqisi2
 4711 1ac8 9DF80330 		ldrb	r3, [sp, #3]
 4712 1acc 1343     		orrs	r3, r3, r2
 4713 1ace DBB2     		uxtb	r3, r3
ARM GAS  /tmp/ccVYwGiK.s 			page 85


 4714 1ad0 8DF80F30 		strb	r3, [sp, #15]
 4715              		.loc 1 1651 0
 4716 1ad4 0DF10F03 		add	r3, sp, #15
 4717 1ad8 0198     		ldr	r0, [sp, #4]
 4718 1ada 2421     		movs	r1, #36
 4719 1adc 1A46     		mov	r2, r3
 4720 1ade 0123     		movs	r3, #1
 4721 1ae0 FFF7FEFF 		bl	LSM303AGR_ACC_WriteReg
 4722 1ae4 0346     		mov	r3, r0
 4723 1ae6 002B     		cmp	r3, #0
 4724 1ae8 01D1     		bne	.L306
 4725              		.loc 1 1652 0
 4726 1aea 0023     		movs	r3, #0
 4727 1aec 00E0     		b	.L307
 4728              	.L306:
 4729              		.loc 1 1654 0
 4730 1aee 0123     		movs	r3, #1
 4731              	.L307:
 4732              		.loc 1 1655 0
 4733 1af0 1846     		mov	r0, r3
 4734 1af2 05B0     		add	sp, sp, #20
 4735              		@ sp needed
 4736 1af4 5DF804FB 		ldr	pc, [sp], #4
 4737              		.cfi_endproc
 4738              	.LFE76:
 4739              		.size	LSM303AGR_ACC_W_RebootMemory, .-LSM303AGR_ACC_W_RebootMemory
 4740              		.align	2
 4741 1af8 AFF30080 		.p2align 4,,15
 4741      AFF30080 
 4742              		.global	LSM303AGR_ACC_R_RebootMemory
 4743              		.thumb
 4744              		.thumb_func
 4745              		.type	LSM303AGR_ACC_R_RebootMemory, %function
 4746              	LSM303AGR_ACC_R_RebootMemory:
 4747              	.LFB77:
 4748              		.loc 1 1665 0
 4749              		.cfi_startproc
 4750              		@ args = 0, pretend = 0, frame = 8
 4751              		@ frame_needed = 0, uses_anonymous_args = 0
 4752 1b00 00B5     		push	{lr}
 4753              		.cfi_def_cfa_offset 4
 4754              		.cfi_offset 14, -4
 4755 1b02 83B0     		sub	sp, sp, #12
 4756              		.cfi_def_cfa_offset 16
 4757 1b04 0190     		str	r0, [sp, #4]
 4758 1b06 0091     		str	r1, [sp]
 4759              		.loc 1 1666 0
 4760 1b08 0198     		ldr	r0, [sp, #4]
 4761 1b0a 2421     		movs	r1, #36
 4762 1b0c 009A     		ldr	r2, [sp]
 4763 1b0e 0123     		movs	r3, #1
 4764 1b10 FFF7FEFF 		bl	LSM303AGR_ACC_ReadReg
 4765 1b14 0346     		mov	r3, r0
 4766 1b16 002B     		cmp	r3, #0
 4767 1b18 01D1     		bne	.L309
 4768              		.loc 1 1667 0
 4769 1b1a 0023     		movs	r3, #0
ARM GAS  /tmp/ccVYwGiK.s 			page 86


 4770 1b1c 07E0     		b	.L310
 4771              	.L309:
 4772              		.loc 1 1669 0
 4773 1b1e 009B     		ldr	r3, [sp]
 4774 1b20 1B78     		ldrb	r3, [r3]	@ zero_extendqisi2
 4775 1b22 23F07F03 		bic	r3, r3, #127
 4776 1b26 DAB2     		uxtb	r2, r3
 4777 1b28 009B     		ldr	r3, [sp]
 4778 1b2a 1A70     		strb	r2, [r3]
 4779              		.loc 1 1671 0
 4780 1b2c 0123     		movs	r3, #1
 4781              	.L310:
 4782              		.loc 1 1672 0
 4783 1b2e 1846     		mov	r0, r3
 4784 1b30 03B0     		add	sp, sp, #12
 4785              		@ sp needed
 4786 1b32 5DF804FB 		ldr	pc, [sp], #4
 4787              		.cfi_endproc
 4788              	.LFE77:
 4789              		.size	LSM303AGR_ACC_R_RebootMemory, .-LSM303AGR_ACC_R_RebootMemory
 4790 1b36 00BF     		.align	2
 4791 1b38 AFF30080 		.p2align 4,,15
 4791      AFF30080 
 4792              		.global	LSM303AGR_ACC_W_IntActive
 4793              		.thumb
 4794              		.thumb_func
 4795              		.type	LSM303AGR_ACC_W_IntActive, %function
 4796              	LSM303AGR_ACC_W_IntActive:
 4797              	.LFB78:
 4798              		.loc 1 1682 0
 4799              		.cfi_startproc
 4800              		@ args = 0, pretend = 0, frame = 16
 4801              		@ frame_needed = 0, uses_anonymous_args = 0
 4802 1b40 00B5     		push	{lr}
 4803              		.cfi_def_cfa_offset 4
 4804              		.cfi_offset 14, -4
 4805 1b42 85B0     		sub	sp, sp, #20
 4806              		.cfi_def_cfa_offset 24
 4807 1b44 0190     		str	r0, [sp, #4]
 4808 1b46 0B46     		mov	r3, r1
 4809 1b48 8DF80330 		strb	r3, [sp, #3]
 4810              		.loc 1 1685 0
 4811 1b4c 0DF10F03 		add	r3, sp, #15
 4812 1b50 0198     		ldr	r0, [sp, #4]
 4813 1b52 2521     		movs	r1, #37
 4814 1b54 1A46     		mov	r2, r3
 4815 1b56 0123     		movs	r3, #1
 4816 1b58 FFF7FEFF 		bl	LSM303AGR_ACC_ReadReg
 4817 1b5c 0346     		mov	r3, r0
 4818 1b5e 002B     		cmp	r3, #0
 4819 1b60 01D1     		bne	.L312
 4820              		.loc 1 1686 0
 4821 1b62 0023     		movs	r3, #0
 4822 1b64 1CE0     		b	.L315
 4823              	.L312:
 4824              		.loc 1 1688 0
 4825 1b66 9DF80F30 		ldrb	r3, [sp, #15]	@ zero_extendqisi2
ARM GAS  /tmp/ccVYwGiK.s 			page 87


 4826 1b6a 23F00203 		bic	r3, r3, #2
 4827 1b6e DBB2     		uxtb	r3, r3
 4828 1b70 8DF80F30 		strb	r3, [sp, #15]
 4829              		.loc 1 1689 0
 4830 1b74 9DF80F20 		ldrb	r2, [sp, #15]	@ zero_extendqisi2
 4831 1b78 9DF80330 		ldrb	r3, [sp, #3]
 4832 1b7c 1343     		orrs	r3, r3, r2
 4833 1b7e DBB2     		uxtb	r3, r3
 4834 1b80 8DF80F30 		strb	r3, [sp, #15]
 4835              		.loc 1 1691 0
 4836 1b84 0DF10F03 		add	r3, sp, #15
 4837 1b88 0198     		ldr	r0, [sp, #4]
 4838 1b8a 2521     		movs	r1, #37
 4839 1b8c 1A46     		mov	r2, r3
 4840 1b8e 0123     		movs	r3, #1
 4841 1b90 FFF7FEFF 		bl	LSM303AGR_ACC_WriteReg
 4842 1b94 0346     		mov	r3, r0
 4843 1b96 002B     		cmp	r3, #0
 4844 1b98 01D1     		bne	.L314
 4845              		.loc 1 1692 0
 4846 1b9a 0023     		movs	r3, #0
 4847 1b9c 00E0     		b	.L315
 4848              	.L314:
 4849              		.loc 1 1694 0
 4850 1b9e 0123     		movs	r3, #1
 4851              	.L315:
 4852              		.loc 1 1695 0
 4853 1ba0 1846     		mov	r0, r3
 4854 1ba2 05B0     		add	sp, sp, #20
 4855              		@ sp needed
 4856 1ba4 5DF804FB 		ldr	pc, [sp], #4
 4857              		.cfi_endproc
 4858              	.LFE78:
 4859              		.size	LSM303AGR_ACC_W_IntActive, .-LSM303AGR_ACC_W_IntActive
 4860              		.align	2
 4861 1ba8 AFF30080 		.p2align 4,,15
 4861      AFF30080 
 4862              		.global	LSM303AGR_ACC_R_IntActive
 4863              		.thumb
 4864              		.thumb_func
 4865              		.type	LSM303AGR_ACC_R_IntActive, %function
 4866              	LSM303AGR_ACC_R_IntActive:
 4867              	.LFB79:
 4868              		.loc 1 1705 0
 4869              		.cfi_startproc
 4870              		@ args = 0, pretend = 0, frame = 8
 4871              		@ frame_needed = 0, uses_anonymous_args = 0
 4872 1bb0 00B5     		push	{lr}
 4873              		.cfi_def_cfa_offset 4
 4874              		.cfi_offset 14, -4
 4875 1bb2 83B0     		sub	sp, sp, #12
 4876              		.cfi_def_cfa_offset 16
 4877 1bb4 0190     		str	r0, [sp, #4]
 4878 1bb6 0091     		str	r1, [sp]
 4879              		.loc 1 1706 0
 4880 1bb8 0198     		ldr	r0, [sp, #4]
 4881 1bba 2521     		movs	r1, #37
ARM GAS  /tmp/ccVYwGiK.s 			page 88


 4882 1bbc 009A     		ldr	r2, [sp]
 4883 1bbe 0123     		movs	r3, #1
 4884 1bc0 FFF7FEFF 		bl	LSM303AGR_ACC_ReadReg
 4885 1bc4 0346     		mov	r3, r0
 4886 1bc6 002B     		cmp	r3, #0
 4887 1bc8 01D1     		bne	.L317
 4888              		.loc 1 1707 0
 4889 1bca 0023     		movs	r3, #0
 4890 1bcc 07E0     		b	.L318
 4891              	.L317:
 4892              		.loc 1 1709 0
 4893 1bce 009B     		ldr	r3, [sp]
 4894 1bd0 1B78     		ldrb	r3, [r3]	@ zero_extendqisi2
 4895 1bd2 03F00203 		and	r3, r3, #2
 4896 1bd6 DAB2     		uxtb	r2, r3
 4897 1bd8 009B     		ldr	r3, [sp]
 4898 1bda 1A70     		strb	r2, [r3]
 4899              		.loc 1 1711 0
 4900 1bdc 0123     		movs	r3, #1
 4901              	.L318:
 4902              		.loc 1 1712 0
 4903 1bde 1846     		mov	r0, r3
 4904 1be0 03B0     		add	sp, sp, #12
 4905              		@ sp needed
 4906 1be2 5DF804FB 		ldr	pc, [sp], #4
 4907              		.cfi_endproc
 4908              	.LFE79:
 4909              		.size	LSM303AGR_ACC_R_IntActive, .-LSM303AGR_ACC_R_IntActive
 4910 1be6 00BF     		.align	2
 4911 1be8 AFF30080 		.p2align 4,,15
 4911      AFF30080 
 4912              		.global	LSM303AGR_ACC_W_P2_ACT
 4913              		.thumb
 4914              		.thumb_func
 4915              		.type	LSM303AGR_ACC_W_P2_ACT, %function
 4916              	LSM303AGR_ACC_W_P2_ACT:
 4917              	.LFB80:
 4918              		.loc 1 1722 0
 4919              		.cfi_startproc
 4920              		@ args = 0, pretend = 0, frame = 16
 4921              		@ frame_needed = 0, uses_anonymous_args = 0
 4922 1bf0 00B5     		push	{lr}
 4923              		.cfi_def_cfa_offset 4
 4924              		.cfi_offset 14, -4
 4925 1bf2 85B0     		sub	sp, sp, #20
 4926              		.cfi_def_cfa_offset 24
 4927 1bf4 0190     		str	r0, [sp, #4]
 4928 1bf6 0B46     		mov	r3, r1
 4929 1bf8 8DF80330 		strb	r3, [sp, #3]
 4930              		.loc 1 1725 0
 4931 1bfc 0DF10F03 		add	r3, sp, #15
 4932 1c00 0198     		ldr	r0, [sp, #4]
 4933 1c02 2521     		movs	r1, #37
 4934 1c04 1A46     		mov	r2, r3
 4935 1c06 0123     		movs	r3, #1
 4936 1c08 FFF7FEFF 		bl	LSM303AGR_ACC_ReadReg
 4937 1c0c 0346     		mov	r3, r0
ARM GAS  /tmp/ccVYwGiK.s 			page 89


 4938 1c0e 002B     		cmp	r3, #0
 4939 1c10 01D1     		bne	.L320
 4940              		.loc 1 1726 0
 4941 1c12 0023     		movs	r3, #0
 4942 1c14 1CE0     		b	.L323
 4943              	.L320:
 4944              		.loc 1 1728 0
 4945 1c16 9DF80F30 		ldrb	r3, [sp, #15]	@ zero_extendqisi2
 4946 1c1a 23F00803 		bic	r3, r3, #8
 4947 1c1e DBB2     		uxtb	r3, r3
 4948 1c20 8DF80F30 		strb	r3, [sp, #15]
 4949              		.loc 1 1729 0
 4950 1c24 9DF80F20 		ldrb	r2, [sp, #15]	@ zero_extendqisi2
 4951 1c28 9DF80330 		ldrb	r3, [sp, #3]
 4952 1c2c 1343     		orrs	r3, r3, r2
 4953 1c2e DBB2     		uxtb	r3, r3
 4954 1c30 8DF80F30 		strb	r3, [sp, #15]
 4955              		.loc 1 1731 0
 4956 1c34 0DF10F03 		add	r3, sp, #15
 4957 1c38 0198     		ldr	r0, [sp, #4]
 4958 1c3a 2521     		movs	r1, #37
 4959 1c3c 1A46     		mov	r2, r3
 4960 1c3e 0123     		movs	r3, #1
 4961 1c40 FFF7FEFF 		bl	LSM303AGR_ACC_WriteReg
 4962 1c44 0346     		mov	r3, r0
 4963 1c46 002B     		cmp	r3, #0
 4964 1c48 01D1     		bne	.L322
 4965              		.loc 1 1732 0
 4966 1c4a 0023     		movs	r3, #0
 4967 1c4c 00E0     		b	.L323
 4968              	.L322:
 4969              		.loc 1 1734 0
 4970 1c4e 0123     		movs	r3, #1
 4971              	.L323:
 4972              		.loc 1 1735 0
 4973 1c50 1846     		mov	r0, r3
 4974 1c52 05B0     		add	sp, sp, #20
 4975              		@ sp needed
 4976 1c54 5DF804FB 		ldr	pc, [sp], #4
 4977              		.cfi_endproc
 4978              	.LFE80:
 4979              		.size	LSM303AGR_ACC_W_P2_ACT, .-LSM303AGR_ACC_W_P2_ACT
 4980              		.align	2
 4981 1c58 AFF30080 		.p2align 4,,15
 4981      AFF30080 
 4982              		.global	LSM303AGR_ACC_R_P2_ACT
 4983              		.thumb
 4984              		.thumb_func
 4985              		.type	LSM303AGR_ACC_R_P2_ACT, %function
 4986              	LSM303AGR_ACC_R_P2_ACT:
 4987              	.LFB81:
 4988              		.loc 1 1745 0
 4989              		.cfi_startproc
 4990              		@ args = 0, pretend = 0, frame = 8
 4991              		@ frame_needed = 0, uses_anonymous_args = 0
 4992 1c60 00B5     		push	{lr}
 4993              		.cfi_def_cfa_offset 4
ARM GAS  /tmp/ccVYwGiK.s 			page 90


 4994              		.cfi_offset 14, -4
 4995 1c62 83B0     		sub	sp, sp, #12
 4996              		.cfi_def_cfa_offset 16
 4997 1c64 0190     		str	r0, [sp, #4]
 4998 1c66 0091     		str	r1, [sp]
 4999              		.loc 1 1746 0
 5000 1c68 0198     		ldr	r0, [sp, #4]
 5001 1c6a 2521     		movs	r1, #37
 5002 1c6c 009A     		ldr	r2, [sp]
 5003 1c6e 0123     		movs	r3, #1
 5004 1c70 FFF7FEFF 		bl	LSM303AGR_ACC_ReadReg
 5005 1c74 0346     		mov	r3, r0
 5006 1c76 002B     		cmp	r3, #0
 5007 1c78 01D1     		bne	.L325
 5008              		.loc 1 1747 0
 5009 1c7a 0023     		movs	r3, #0
 5010 1c7c 07E0     		b	.L326
 5011              	.L325:
 5012              		.loc 1 1749 0
 5013 1c7e 009B     		ldr	r3, [sp]
 5014 1c80 1B78     		ldrb	r3, [r3]	@ zero_extendqisi2
 5015 1c82 03F00803 		and	r3, r3, #8
 5016 1c86 DAB2     		uxtb	r2, r3
 5017 1c88 009B     		ldr	r3, [sp]
 5018 1c8a 1A70     		strb	r2, [r3]
 5019              		.loc 1 1751 0
 5020 1c8c 0123     		movs	r3, #1
 5021              	.L326:
 5022              		.loc 1 1752 0
 5023 1c8e 1846     		mov	r0, r3
 5024 1c90 03B0     		add	sp, sp, #12
 5025              		@ sp needed
 5026 1c92 5DF804FB 		ldr	pc, [sp], #4
 5027              		.cfi_endproc
 5028              	.LFE81:
 5029              		.size	LSM303AGR_ACC_R_P2_ACT, .-LSM303AGR_ACC_R_P2_ACT
 5030 1c96 00BF     		.align	2
 5031 1c98 AFF30080 		.p2align 4,,15
 5031      AFF30080 
 5032              		.global	LSM303AGR_ACC_W_Boot_on_INT2
 5033              		.thumb
 5034              		.thumb_func
 5035              		.type	LSM303AGR_ACC_W_Boot_on_INT2, %function
 5036              	LSM303AGR_ACC_W_Boot_on_INT2:
 5037              	.LFB82:
 5038              		.loc 1 1762 0
 5039              		.cfi_startproc
 5040              		@ args = 0, pretend = 0, frame = 16
 5041              		@ frame_needed = 0, uses_anonymous_args = 0
 5042 1ca0 00B5     		push	{lr}
 5043              		.cfi_def_cfa_offset 4
 5044              		.cfi_offset 14, -4
 5045 1ca2 85B0     		sub	sp, sp, #20
 5046              		.cfi_def_cfa_offset 24
 5047 1ca4 0190     		str	r0, [sp, #4]
 5048 1ca6 0B46     		mov	r3, r1
 5049 1ca8 8DF80330 		strb	r3, [sp, #3]
ARM GAS  /tmp/ccVYwGiK.s 			page 91


 5050              		.loc 1 1765 0
 5051 1cac 0DF10F03 		add	r3, sp, #15
 5052 1cb0 0198     		ldr	r0, [sp, #4]
 5053 1cb2 2521     		movs	r1, #37
 5054 1cb4 1A46     		mov	r2, r3
 5055 1cb6 0123     		movs	r3, #1
 5056 1cb8 FFF7FEFF 		bl	LSM303AGR_ACC_ReadReg
 5057 1cbc 0346     		mov	r3, r0
 5058 1cbe 002B     		cmp	r3, #0
 5059 1cc0 01D1     		bne	.L328
 5060              		.loc 1 1766 0
 5061 1cc2 0023     		movs	r3, #0
 5062 1cc4 1CE0     		b	.L331
 5063              	.L328:
 5064              		.loc 1 1768 0
 5065 1cc6 9DF80F30 		ldrb	r3, [sp, #15]	@ zero_extendqisi2
 5066 1cca 23F01003 		bic	r3, r3, #16
 5067 1cce DBB2     		uxtb	r3, r3
 5068 1cd0 8DF80F30 		strb	r3, [sp, #15]
 5069              		.loc 1 1769 0
 5070 1cd4 9DF80F20 		ldrb	r2, [sp, #15]	@ zero_extendqisi2
 5071 1cd8 9DF80330 		ldrb	r3, [sp, #3]
 5072 1cdc 1343     		orrs	r3, r3, r2
 5073 1cde DBB2     		uxtb	r3, r3
 5074 1ce0 8DF80F30 		strb	r3, [sp, #15]
 5075              		.loc 1 1771 0
 5076 1ce4 0DF10F03 		add	r3, sp, #15
 5077 1ce8 0198     		ldr	r0, [sp, #4]
 5078 1cea 2521     		movs	r1, #37
 5079 1cec 1A46     		mov	r2, r3
 5080 1cee 0123     		movs	r3, #1
 5081 1cf0 FFF7FEFF 		bl	LSM303AGR_ACC_WriteReg
 5082 1cf4 0346     		mov	r3, r0
 5083 1cf6 002B     		cmp	r3, #0
 5084 1cf8 01D1     		bne	.L330
 5085              		.loc 1 1772 0
 5086 1cfa 0023     		movs	r3, #0
 5087 1cfc 00E0     		b	.L331
 5088              	.L330:
 5089              		.loc 1 1774 0
 5090 1cfe 0123     		movs	r3, #1
 5091              	.L331:
 5092              		.loc 1 1775 0
 5093 1d00 1846     		mov	r0, r3
 5094 1d02 05B0     		add	sp, sp, #20
 5095              		@ sp needed
 5096 1d04 5DF804FB 		ldr	pc, [sp], #4
 5097              		.cfi_endproc
 5098              	.LFE82:
 5099              		.size	LSM303AGR_ACC_W_Boot_on_INT2, .-LSM303AGR_ACC_W_Boot_on_INT2
 5100              		.align	2
 5101 1d08 AFF30080 		.p2align 4,,15
 5101      AFF30080 
 5102              		.global	LSM303AGR_ACC_R_Boot_on_INT2
 5103              		.thumb
 5104              		.thumb_func
 5105              		.type	LSM303AGR_ACC_R_Boot_on_INT2, %function
ARM GAS  /tmp/ccVYwGiK.s 			page 92


 5106              	LSM303AGR_ACC_R_Boot_on_INT2:
 5107              	.LFB83:
 5108              		.loc 1 1785 0
 5109              		.cfi_startproc
 5110              		@ args = 0, pretend = 0, frame = 8
 5111              		@ frame_needed = 0, uses_anonymous_args = 0
 5112 1d10 00B5     		push	{lr}
 5113              		.cfi_def_cfa_offset 4
 5114              		.cfi_offset 14, -4
 5115 1d12 83B0     		sub	sp, sp, #12
 5116              		.cfi_def_cfa_offset 16
 5117 1d14 0190     		str	r0, [sp, #4]
 5118 1d16 0091     		str	r1, [sp]
 5119              		.loc 1 1786 0
 5120 1d18 0198     		ldr	r0, [sp, #4]
 5121 1d1a 2521     		movs	r1, #37
 5122 1d1c 009A     		ldr	r2, [sp]
 5123 1d1e 0123     		movs	r3, #1
 5124 1d20 FFF7FEFF 		bl	LSM303AGR_ACC_ReadReg
 5125 1d24 0346     		mov	r3, r0
 5126 1d26 002B     		cmp	r3, #0
 5127 1d28 01D1     		bne	.L333
 5128              		.loc 1 1787 0
 5129 1d2a 0023     		movs	r3, #0
 5130 1d2c 07E0     		b	.L334
 5131              	.L333:
 5132              		.loc 1 1789 0
 5133 1d2e 009B     		ldr	r3, [sp]
 5134 1d30 1B78     		ldrb	r3, [r3]	@ zero_extendqisi2
 5135 1d32 03F01003 		and	r3, r3, #16
 5136 1d36 DAB2     		uxtb	r2, r3
 5137 1d38 009B     		ldr	r3, [sp]
 5138 1d3a 1A70     		strb	r2, [r3]
 5139              		.loc 1 1791 0
 5140 1d3c 0123     		movs	r3, #1
 5141              	.L334:
 5142              		.loc 1 1792 0
 5143 1d3e 1846     		mov	r0, r3
 5144 1d40 03B0     		add	sp, sp, #12
 5145              		@ sp needed
 5146 1d42 5DF804FB 		ldr	pc, [sp], #4
 5147              		.cfi_endproc
 5148              	.LFE83:
 5149              		.size	LSM303AGR_ACC_R_Boot_on_INT2, .-LSM303AGR_ACC_R_Boot_on_INT2
 5150 1d46 00BF     		.align	2
 5151 1d48 AFF30080 		.p2align 4,,15
 5151      AFF30080 
 5152              		.global	LSM303AGR_ACC_W_I2_on_INT2
 5153              		.thumb
 5154              		.thumb_func
 5155              		.type	LSM303AGR_ACC_W_I2_on_INT2, %function
 5156              	LSM303AGR_ACC_W_I2_on_INT2:
 5157              	.LFB84:
 5158              		.loc 1 1802 0
 5159              		.cfi_startproc
 5160              		@ args = 0, pretend = 0, frame = 16
 5161              		@ frame_needed = 0, uses_anonymous_args = 0
ARM GAS  /tmp/ccVYwGiK.s 			page 93


 5162 1d50 00B5     		push	{lr}
 5163              		.cfi_def_cfa_offset 4
 5164              		.cfi_offset 14, -4
 5165 1d52 85B0     		sub	sp, sp, #20
 5166              		.cfi_def_cfa_offset 24
 5167 1d54 0190     		str	r0, [sp, #4]
 5168 1d56 0B46     		mov	r3, r1
 5169 1d58 8DF80330 		strb	r3, [sp, #3]
 5170              		.loc 1 1805 0
 5171 1d5c 0DF10F03 		add	r3, sp, #15
 5172 1d60 0198     		ldr	r0, [sp, #4]
 5173 1d62 2521     		movs	r1, #37
 5174 1d64 1A46     		mov	r2, r3
 5175 1d66 0123     		movs	r3, #1
 5176 1d68 FFF7FEFF 		bl	LSM303AGR_ACC_ReadReg
 5177 1d6c 0346     		mov	r3, r0
 5178 1d6e 002B     		cmp	r3, #0
 5179 1d70 01D1     		bne	.L336
 5180              		.loc 1 1806 0
 5181 1d72 0023     		movs	r3, #0
 5182 1d74 1CE0     		b	.L339
 5183              	.L336:
 5184              		.loc 1 1808 0
 5185 1d76 9DF80F30 		ldrb	r3, [sp, #15]	@ zero_extendqisi2
 5186 1d7a 23F02003 		bic	r3, r3, #32
 5187 1d7e DBB2     		uxtb	r3, r3
 5188 1d80 8DF80F30 		strb	r3, [sp, #15]
 5189              		.loc 1 1809 0
 5190 1d84 9DF80F20 		ldrb	r2, [sp, #15]	@ zero_extendqisi2
 5191 1d88 9DF80330 		ldrb	r3, [sp, #3]
 5192 1d8c 1343     		orrs	r3, r3, r2
 5193 1d8e DBB2     		uxtb	r3, r3
 5194 1d90 8DF80F30 		strb	r3, [sp, #15]
 5195              		.loc 1 1811 0
 5196 1d94 0DF10F03 		add	r3, sp, #15
 5197 1d98 0198     		ldr	r0, [sp, #4]
 5198 1d9a 2521     		movs	r1, #37
 5199 1d9c 1A46     		mov	r2, r3
 5200 1d9e 0123     		movs	r3, #1
 5201 1da0 FFF7FEFF 		bl	LSM303AGR_ACC_WriteReg
 5202 1da4 0346     		mov	r3, r0
 5203 1da6 002B     		cmp	r3, #0
 5204 1da8 01D1     		bne	.L338
 5205              		.loc 1 1812 0
 5206 1daa 0023     		movs	r3, #0
 5207 1dac 00E0     		b	.L339
 5208              	.L338:
 5209              		.loc 1 1814 0
 5210 1dae 0123     		movs	r3, #1
 5211              	.L339:
 5212              		.loc 1 1815 0
 5213 1db0 1846     		mov	r0, r3
 5214 1db2 05B0     		add	sp, sp, #20
 5215              		@ sp needed
 5216 1db4 5DF804FB 		ldr	pc, [sp], #4
 5217              		.cfi_endproc
 5218              	.LFE84:
ARM GAS  /tmp/ccVYwGiK.s 			page 94


 5219              		.size	LSM303AGR_ACC_W_I2_on_INT2, .-LSM303AGR_ACC_W_I2_on_INT2
 5220              		.align	2
 5221 1db8 AFF30080 		.p2align 4,,15
 5221      AFF30080 
 5222              		.global	LSM303AGR_ACC_R_I2_on_INT2
 5223              		.thumb
 5224              		.thumb_func
 5225              		.type	LSM303AGR_ACC_R_I2_on_INT2, %function
 5226              	LSM303AGR_ACC_R_I2_on_INT2:
 5227              	.LFB85:
 5228              		.loc 1 1825 0
 5229              		.cfi_startproc
 5230              		@ args = 0, pretend = 0, frame = 8
 5231              		@ frame_needed = 0, uses_anonymous_args = 0
 5232 1dc0 00B5     		push	{lr}
 5233              		.cfi_def_cfa_offset 4
 5234              		.cfi_offset 14, -4
 5235 1dc2 83B0     		sub	sp, sp, #12
 5236              		.cfi_def_cfa_offset 16
 5237 1dc4 0190     		str	r0, [sp, #4]
 5238 1dc6 0091     		str	r1, [sp]
 5239              		.loc 1 1826 0
 5240 1dc8 0198     		ldr	r0, [sp, #4]
 5241 1dca 2521     		movs	r1, #37
 5242 1dcc 009A     		ldr	r2, [sp]
 5243 1dce 0123     		movs	r3, #1
 5244 1dd0 FFF7FEFF 		bl	LSM303AGR_ACC_ReadReg
 5245 1dd4 0346     		mov	r3, r0
 5246 1dd6 002B     		cmp	r3, #0
 5247 1dd8 01D1     		bne	.L341
 5248              		.loc 1 1827 0
 5249 1dda 0023     		movs	r3, #0
 5250 1ddc 07E0     		b	.L342
 5251              	.L341:
 5252              		.loc 1 1829 0
 5253 1dde 009B     		ldr	r3, [sp]
 5254 1de0 1B78     		ldrb	r3, [r3]	@ zero_extendqisi2
 5255 1de2 03F02003 		and	r3, r3, #32
 5256 1de6 DAB2     		uxtb	r2, r3
 5257 1de8 009B     		ldr	r3, [sp]
 5258 1dea 1A70     		strb	r2, [r3]
 5259              		.loc 1 1831 0
 5260 1dec 0123     		movs	r3, #1
 5261              	.L342:
 5262              		.loc 1 1832 0
 5263 1dee 1846     		mov	r0, r3
 5264 1df0 03B0     		add	sp, sp, #12
 5265              		@ sp needed
 5266 1df2 5DF804FB 		ldr	pc, [sp], #4
 5267              		.cfi_endproc
 5268              	.LFE85:
 5269              		.size	LSM303AGR_ACC_R_I2_on_INT2, .-LSM303AGR_ACC_R_I2_on_INT2
 5270 1df6 00BF     		.align	2
 5271 1df8 AFF30080 		.p2align 4,,15
 5271      AFF30080 
 5272              		.global	LSM303AGR_ACC_W_I2_on_INT1
 5273              		.thumb
ARM GAS  /tmp/ccVYwGiK.s 			page 95


 5274              		.thumb_func
 5275              		.type	LSM303AGR_ACC_W_I2_on_INT1, %function
 5276              	LSM303AGR_ACC_W_I2_on_INT1:
 5277              	.LFB86:
 5278              		.loc 1 1842 0
 5279              		.cfi_startproc
 5280              		@ args = 0, pretend = 0, frame = 16
 5281              		@ frame_needed = 0, uses_anonymous_args = 0
 5282 1e00 00B5     		push	{lr}
 5283              		.cfi_def_cfa_offset 4
 5284              		.cfi_offset 14, -4
 5285 1e02 85B0     		sub	sp, sp, #20
 5286              		.cfi_def_cfa_offset 24
 5287 1e04 0190     		str	r0, [sp, #4]
 5288 1e06 0B46     		mov	r3, r1
 5289 1e08 8DF80330 		strb	r3, [sp, #3]
 5290              		.loc 1 1845 0
 5291 1e0c 0DF10F03 		add	r3, sp, #15
 5292 1e10 0198     		ldr	r0, [sp, #4]
 5293 1e12 2521     		movs	r1, #37
 5294 1e14 1A46     		mov	r2, r3
 5295 1e16 0123     		movs	r3, #1
 5296 1e18 FFF7FEFF 		bl	LSM303AGR_ACC_ReadReg
 5297 1e1c 0346     		mov	r3, r0
 5298 1e1e 002B     		cmp	r3, #0
 5299 1e20 01D1     		bne	.L344
 5300              		.loc 1 1846 0
 5301 1e22 0023     		movs	r3, #0
 5302 1e24 1CE0     		b	.L347
 5303              	.L344:
 5304              		.loc 1 1848 0
 5305 1e26 9DF80F30 		ldrb	r3, [sp, #15]	@ zero_extendqisi2
 5306 1e2a 23F04003 		bic	r3, r3, #64
 5307 1e2e DBB2     		uxtb	r3, r3
 5308 1e30 8DF80F30 		strb	r3, [sp, #15]
 5309              		.loc 1 1849 0
 5310 1e34 9DF80F20 		ldrb	r2, [sp, #15]	@ zero_extendqisi2
 5311 1e38 9DF80330 		ldrb	r3, [sp, #3]
 5312 1e3c 1343     		orrs	r3, r3, r2
 5313 1e3e DBB2     		uxtb	r3, r3
 5314 1e40 8DF80F30 		strb	r3, [sp, #15]
 5315              		.loc 1 1851 0
 5316 1e44 0DF10F03 		add	r3, sp, #15
 5317 1e48 0198     		ldr	r0, [sp, #4]
 5318 1e4a 2521     		movs	r1, #37
 5319 1e4c 1A46     		mov	r2, r3
 5320 1e4e 0123     		movs	r3, #1
 5321 1e50 FFF7FEFF 		bl	LSM303AGR_ACC_WriteReg
 5322 1e54 0346     		mov	r3, r0
 5323 1e56 002B     		cmp	r3, #0
 5324 1e58 01D1     		bne	.L346
 5325              		.loc 1 1852 0
 5326 1e5a 0023     		movs	r3, #0
 5327 1e5c 00E0     		b	.L347
 5328              	.L346:
 5329              		.loc 1 1854 0
 5330 1e5e 0123     		movs	r3, #1
ARM GAS  /tmp/ccVYwGiK.s 			page 96


 5331              	.L347:
 5332              		.loc 1 1855 0
 5333 1e60 1846     		mov	r0, r3
 5334 1e62 05B0     		add	sp, sp, #20
 5335              		@ sp needed
 5336 1e64 5DF804FB 		ldr	pc, [sp], #4
 5337              		.cfi_endproc
 5338              	.LFE86:
 5339              		.size	LSM303AGR_ACC_W_I2_on_INT1, .-LSM303AGR_ACC_W_I2_on_INT1
 5340              		.align	2
 5341 1e68 AFF30080 		.p2align 4,,15
 5341      AFF30080 
 5342              		.global	LSM303AGR_ACC_R_I2_on_INT1
 5343              		.thumb
 5344              		.thumb_func
 5345              		.type	LSM303AGR_ACC_R_I2_on_INT1, %function
 5346              	LSM303AGR_ACC_R_I2_on_INT1:
 5347              	.LFB87:
 5348              		.loc 1 1865 0
 5349              		.cfi_startproc
 5350              		@ args = 0, pretend = 0, frame = 8
 5351              		@ frame_needed = 0, uses_anonymous_args = 0
 5352 1e70 00B5     		push	{lr}
 5353              		.cfi_def_cfa_offset 4
 5354              		.cfi_offset 14, -4
 5355 1e72 83B0     		sub	sp, sp, #12
 5356              		.cfi_def_cfa_offset 16
 5357 1e74 0190     		str	r0, [sp, #4]
 5358 1e76 0091     		str	r1, [sp]
 5359              		.loc 1 1866 0
 5360 1e78 0198     		ldr	r0, [sp, #4]
 5361 1e7a 2521     		movs	r1, #37
 5362 1e7c 009A     		ldr	r2, [sp]
 5363 1e7e 0123     		movs	r3, #1
 5364 1e80 FFF7FEFF 		bl	LSM303AGR_ACC_ReadReg
 5365 1e84 0346     		mov	r3, r0
 5366 1e86 002B     		cmp	r3, #0
 5367 1e88 01D1     		bne	.L349
 5368              		.loc 1 1867 0
 5369 1e8a 0023     		movs	r3, #0
 5370 1e8c 07E0     		b	.L350
 5371              	.L349:
 5372              		.loc 1 1869 0
 5373 1e8e 009B     		ldr	r3, [sp]
 5374 1e90 1B78     		ldrb	r3, [r3]	@ zero_extendqisi2
 5375 1e92 03F04003 		and	r3, r3, #64
 5376 1e96 DAB2     		uxtb	r2, r3
 5377 1e98 009B     		ldr	r3, [sp]
 5378 1e9a 1A70     		strb	r2, [r3]
 5379              		.loc 1 1871 0
 5380 1e9c 0123     		movs	r3, #1
 5381              	.L350:
 5382              		.loc 1 1872 0
 5383 1e9e 1846     		mov	r0, r3
 5384 1ea0 03B0     		add	sp, sp, #12
 5385              		@ sp needed
 5386 1ea2 5DF804FB 		ldr	pc, [sp], #4
ARM GAS  /tmp/ccVYwGiK.s 			page 97


 5387              		.cfi_endproc
 5388              	.LFE87:
 5389              		.size	LSM303AGR_ACC_R_I2_on_INT1, .-LSM303AGR_ACC_R_I2_on_INT1
 5390 1ea6 00BF     		.align	2
 5391 1ea8 AFF30080 		.p2align 4,,15
 5391      AFF30080 
 5392              		.global	LSM303AGR_ACC_W_Click_on_INT2
 5393              		.thumb
 5394              		.thumb_func
 5395              		.type	LSM303AGR_ACC_W_Click_on_INT2, %function
 5396              	LSM303AGR_ACC_W_Click_on_INT2:
 5397              	.LFB88:
 5398              		.loc 1 1882 0
 5399              		.cfi_startproc
 5400              		@ args = 0, pretend = 0, frame = 16
 5401              		@ frame_needed = 0, uses_anonymous_args = 0
 5402 1eb0 00B5     		push	{lr}
 5403              		.cfi_def_cfa_offset 4
 5404              		.cfi_offset 14, -4
 5405 1eb2 85B0     		sub	sp, sp, #20
 5406              		.cfi_def_cfa_offset 24
 5407 1eb4 0190     		str	r0, [sp, #4]
 5408 1eb6 0B46     		mov	r3, r1
 5409 1eb8 8DF80330 		strb	r3, [sp, #3]
 5410              		.loc 1 1885 0
 5411 1ebc 0DF10F03 		add	r3, sp, #15
 5412 1ec0 0198     		ldr	r0, [sp, #4]
 5413 1ec2 2521     		movs	r1, #37
 5414 1ec4 1A46     		mov	r2, r3
 5415 1ec6 0123     		movs	r3, #1
 5416 1ec8 FFF7FEFF 		bl	LSM303AGR_ACC_ReadReg
 5417 1ecc 0346     		mov	r3, r0
 5418 1ece 002B     		cmp	r3, #0
 5419 1ed0 01D1     		bne	.L352
 5420              		.loc 1 1886 0
 5421 1ed2 0023     		movs	r3, #0
 5422 1ed4 1CE0     		b	.L355
 5423              	.L352:
 5424              		.loc 1 1888 0
 5425 1ed6 9DF80F30 		ldrb	r3, [sp, #15]	@ zero_extendqisi2
 5426 1eda 03F07F03 		and	r3, r3, #127
 5427 1ede DBB2     		uxtb	r3, r3
 5428 1ee0 8DF80F30 		strb	r3, [sp, #15]
 5429              		.loc 1 1889 0
 5430 1ee4 9DF80F20 		ldrb	r2, [sp, #15]	@ zero_extendqisi2
 5431 1ee8 9DF80330 		ldrb	r3, [sp, #3]
 5432 1eec 1343     		orrs	r3, r3, r2
 5433 1eee DBB2     		uxtb	r3, r3
 5434 1ef0 8DF80F30 		strb	r3, [sp, #15]
 5435              		.loc 1 1891 0
 5436 1ef4 0DF10F03 		add	r3, sp, #15
 5437 1ef8 0198     		ldr	r0, [sp, #4]
 5438 1efa 2521     		movs	r1, #37
 5439 1efc 1A46     		mov	r2, r3
 5440 1efe 0123     		movs	r3, #1
 5441 1f00 FFF7FEFF 		bl	LSM303AGR_ACC_WriteReg
 5442 1f04 0346     		mov	r3, r0
ARM GAS  /tmp/ccVYwGiK.s 			page 98


 5443 1f06 002B     		cmp	r3, #0
 5444 1f08 01D1     		bne	.L354
 5445              		.loc 1 1892 0
 5446 1f0a 0023     		movs	r3, #0
 5447 1f0c 00E0     		b	.L355
 5448              	.L354:
 5449              		.loc 1 1894 0
 5450 1f0e 0123     		movs	r3, #1
 5451              	.L355:
 5452              		.loc 1 1895 0
 5453 1f10 1846     		mov	r0, r3
 5454 1f12 05B0     		add	sp, sp, #20
 5455              		@ sp needed
 5456 1f14 5DF804FB 		ldr	pc, [sp], #4
 5457              		.cfi_endproc
 5458              	.LFE88:
 5459              		.size	LSM303AGR_ACC_W_Click_on_INT2, .-LSM303AGR_ACC_W_Click_on_INT2
 5460              		.align	2
 5461 1f18 AFF30080 		.p2align 4,,15
 5461      AFF30080 
 5462              		.global	LSM303AGR_ACC_R_Click_on_INT2
 5463              		.thumb
 5464              		.thumb_func
 5465              		.type	LSM303AGR_ACC_R_Click_on_INT2, %function
 5466              	LSM303AGR_ACC_R_Click_on_INT2:
 5467              	.LFB89:
 5468              		.loc 1 1905 0
 5469              		.cfi_startproc
 5470              		@ args = 0, pretend = 0, frame = 8
 5471              		@ frame_needed = 0, uses_anonymous_args = 0
 5472 1f20 00B5     		push	{lr}
 5473              		.cfi_def_cfa_offset 4
 5474              		.cfi_offset 14, -4
 5475 1f22 83B0     		sub	sp, sp, #12
 5476              		.cfi_def_cfa_offset 16
 5477 1f24 0190     		str	r0, [sp, #4]
 5478 1f26 0091     		str	r1, [sp]
 5479              		.loc 1 1906 0
 5480 1f28 0198     		ldr	r0, [sp, #4]
 5481 1f2a 2521     		movs	r1, #37
 5482 1f2c 009A     		ldr	r2, [sp]
 5483 1f2e 0123     		movs	r3, #1
 5484 1f30 FFF7FEFF 		bl	LSM303AGR_ACC_ReadReg
 5485 1f34 0346     		mov	r3, r0
 5486 1f36 002B     		cmp	r3, #0
 5487 1f38 01D1     		bne	.L357
 5488              		.loc 1 1907 0
 5489 1f3a 0023     		movs	r3, #0
 5490 1f3c 07E0     		b	.L358
 5491              	.L357:
 5492              		.loc 1 1909 0
 5493 1f3e 009B     		ldr	r3, [sp]
 5494 1f40 1B78     		ldrb	r3, [r3]	@ zero_extendqisi2
 5495 1f42 23F07F03 		bic	r3, r3, #127
 5496 1f46 DAB2     		uxtb	r2, r3
 5497 1f48 009B     		ldr	r3, [sp]
 5498 1f4a 1A70     		strb	r2, [r3]
ARM GAS  /tmp/ccVYwGiK.s 			page 99


 5499              		.loc 1 1911 0
 5500 1f4c 0123     		movs	r3, #1
 5501              	.L358:
 5502              		.loc 1 1912 0
 5503 1f4e 1846     		mov	r0, r3
 5504 1f50 03B0     		add	sp, sp, #12
 5505              		@ sp needed
 5506 1f52 5DF804FB 		ldr	pc, [sp], #4
 5507              		.cfi_endproc
 5508              	.LFE89:
 5509              		.size	LSM303AGR_ACC_R_Click_on_INT2, .-LSM303AGR_ACC_R_Click_on_INT2
 5510 1f56 00BF     		.align	2
 5511 1f58 AFF30080 		.p2align 4,,15
 5511      AFF30080 
 5512              		.global	LSM303AGR_ACC_W_ReferenceVal
 5513              		.thumb
 5514              		.thumb_func
 5515              		.type	LSM303AGR_ACC_W_ReferenceVal, %function
 5516              	LSM303AGR_ACC_W_ReferenceVal:
 5517              	.LFB90:
 5518              		.loc 1 1922 0
 5519              		.cfi_startproc
 5520              		@ args = 0, pretend = 0, frame = 16
 5521              		@ frame_needed = 0, uses_anonymous_args = 0
 5522 1f60 00B5     		push	{lr}
 5523              		.cfi_def_cfa_offset 4
 5524              		.cfi_offset 14, -4
 5525 1f62 85B0     		sub	sp, sp, #20
 5526              		.cfi_def_cfa_offset 24
 5527 1f64 0190     		str	r0, [sp, #4]
 5528 1f66 0B46     		mov	r3, r1
 5529 1f68 8DF80330 		strb	r3, [sp, #3]
 5530              		.loc 1 1928 0
 5531 1f6c 0DF10F03 		add	r3, sp, #15
 5532 1f70 0198     		ldr	r0, [sp, #4]
 5533 1f72 2621     		movs	r1, #38
 5534 1f74 1A46     		mov	r2, r3
 5535 1f76 0123     		movs	r3, #1
 5536 1f78 FFF7FEFF 		bl	LSM303AGR_ACC_ReadReg
 5537 1f7c 0346     		mov	r3, r0
 5538 1f7e 002B     		cmp	r3, #0
 5539 1f80 01D1     		bne	.L360
 5540              		.loc 1 1929 0
 5541 1f82 0023     		movs	r3, #0
 5542 1f84 18E0     		b	.L363
 5543              	.L360:
 5544              		.loc 1 1931 0
 5545 1f86 0023     		movs	r3, #0
 5546 1f88 8DF80F30 		strb	r3, [sp, #15]
 5547              		.loc 1 1932 0
 5548 1f8c 9DF80F20 		ldrb	r2, [sp, #15]	@ zero_extendqisi2
 5549 1f90 9DF80330 		ldrb	r3, [sp, #3]
 5550 1f94 1343     		orrs	r3, r3, r2
 5551 1f96 DBB2     		uxtb	r3, r3
 5552 1f98 8DF80F30 		strb	r3, [sp, #15]
 5553              		.loc 1 1934 0
 5554 1f9c 0DF10F03 		add	r3, sp, #15
ARM GAS  /tmp/ccVYwGiK.s 			page 100


 5555 1fa0 0198     		ldr	r0, [sp, #4]
 5556 1fa2 2621     		movs	r1, #38
 5557 1fa4 1A46     		mov	r2, r3
 5558 1fa6 0123     		movs	r3, #1
 5559 1fa8 FFF7FEFF 		bl	LSM303AGR_ACC_WriteReg
 5560 1fac 0346     		mov	r3, r0
 5561 1fae 002B     		cmp	r3, #0
 5562 1fb0 01D1     		bne	.L362
 5563              		.loc 1 1935 0
 5564 1fb2 0023     		movs	r3, #0
 5565 1fb4 00E0     		b	.L363
 5566              	.L362:
 5567              		.loc 1 1937 0
 5568 1fb6 0123     		movs	r3, #1
 5569              	.L363:
 5570              		.loc 1 1938 0
 5571 1fb8 1846     		mov	r0, r3
 5572 1fba 05B0     		add	sp, sp, #20
 5573              		@ sp needed
 5574 1fbc 5DF804FB 		ldr	pc, [sp], #4
 5575              		.cfi_endproc
 5576              	.LFE90:
 5577              		.size	LSM303AGR_ACC_W_ReferenceVal, .-LSM303AGR_ACC_W_ReferenceVal
 5578              		.align	2
 5579              		.p2align 4,,15
 5580              		.global	LSM303AGR_ACC_R_ReferenceVal
 5581              		.thumb
 5582              		.thumb_func
 5583              		.type	LSM303AGR_ACC_R_ReferenceVal, %function
 5584              	LSM303AGR_ACC_R_ReferenceVal:
 5585              	.LFB91:
 5586              		.loc 1 1948 0
 5587              		.cfi_startproc
 5588              		@ args = 0, pretend = 0, frame = 8
 5589              		@ frame_needed = 0, uses_anonymous_args = 0
 5590 1fc0 00B5     		push	{lr}
 5591              		.cfi_def_cfa_offset 4
 5592              		.cfi_offset 14, -4
 5593 1fc2 83B0     		sub	sp, sp, #12
 5594              		.cfi_def_cfa_offset 16
 5595 1fc4 0190     		str	r0, [sp, #4]
 5596 1fc6 0091     		str	r1, [sp]
 5597              		.loc 1 1949 0
 5598 1fc8 0198     		ldr	r0, [sp, #4]
 5599 1fca 2621     		movs	r1, #38
 5600 1fcc 009A     		ldr	r2, [sp]
 5601 1fce 0123     		movs	r3, #1
 5602 1fd0 FFF7FEFF 		bl	LSM303AGR_ACC_ReadReg
 5603 1fd4 0346     		mov	r3, r0
 5604 1fd6 002B     		cmp	r3, #0
 5605 1fd8 01D1     		bne	.L365
 5606              		.loc 1 1950 0
 5607 1fda 0023     		movs	r3, #0
 5608 1fdc 08E0     		b	.L366
 5609              	.L365:
 5610              		.loc 1 1952 0
 5611 1fde 009B     		ldr	r3, [sp]
ARM GAS  /tmp/ccVYwGiK.s 			page 101


 5612 1fe0 1A78     		ldrb	r2, [r3]	@ zero_extendqisi2
 5613 1fe2 009B     		ldr	r3, [sp]
 5614 1fe4 1A70     		strb	r2, [r3]
 5615              		.loc 1 1953 0
 5616 1fe6 009B     		ldr	r3, [sp]
 5617 1fe8 1A78     		ldrb	r2, [r3]	@ zero_extendqisi2
 5618 1fea 009B     		ldr	r3, [sp]
 5619 1fec 1A70     		strb	r2, [r3]
 5620              		.loc 1 1955 0
 5621 1fee 0123     		movs	r3, #1
 5622              	.L366:
 5623              		.loc 1 1956 0
 5624 1ff0 1846     		mov	r0, r3
 5625 1ff2 03B0     		add	sp, sp, #12
 5626              		@ sp needed
 5627 1ff4 5DF804FB 		ldr	pc, [sp], #4
 5628              		.cfi_endproc
 5629              	.LFE91:
 5630              		.size	LSM303AGR_ACC_R_ReferenceVal, .-LSM303AGR_ACC_R_ReferenceVal
 5631              		.align	2
 5632 1ff8 AFF30080 		.p2align 4,,15
 5632      AFF30080 
 5633              		.global	LSM303AGR_ACC_R_XDataAvail
 5634              		.thumb
 5635              		.thumb_func
 5636              		.type	LSM303AGR_ACC_R_XDataAvail, %function
 5637              	LSM303AGR_ACC_R_XDataAvail:
 5638              	.LFB92:
 5639              		.loc 1 1966 0
 5640              		.cfi_startproc
 5641              		@ args = 0, pretend = 0, frame = 8
 5642              		@ frame_needed = 0, uses_anonymous_args = 0
 5643 2000 00B5     		push	{lr}
 5644              		.cfi_def_cfa_offset 4
 5645              		.cfi_offset 14, -4
 5646 2002 83B0     		sub	sp, sp, #12
 5647              		.cfi_def_cfa_offset 16
 5648 2004 0190     		str	r0, [sp, #4]
 5649 2006 0091     		str	r1, [sp]
 5650              		.loc 1 1967 0
 5651 2008 0198     		ldr	r0, [sp, #4]
 5652 200a 2721     		movs	r1, #39
 5653 200c 009A     		ldr	r2, [sp]
 5654 200e 0123     		movs	r3, #1
 5655 2010 FFF7FEFF 		bl	LSM303AGR_ACC_ReadReg
 5656 2014 0346     		mov	r3, r0
 5657 2016 002B     		cmp	r3, #0
 5658 2018 01D1     		bne	.L368
 5659              		.loc 1 1968 0
 5660 201a 0023     		movs	r3, #0
 5661 201c 07E0     		b	.L369
 5662              	.L368:
 5663              		.loc 1 1970 0
 5664 201e 009B     		ldr	r3, [sp]
 5665 2020 1B78     		ldrb	r3, [r3]	@ zero_extendqisi2
 5666 2022 03F00103 		and	r3, r3, #1
 5667 2026 DAB2     		uxtb	r2, r3
ARM GAS  /tmp/ccVYwGiK.s 			page 102


 5668 2028 009B     		ldr	r3, [sp]
 5669 202a 1A70     		strb	r2, [r3]
 5670              		.loc 1 1972 0
 5671 202c 0123     		movs	r3, #1
 5672              	.L369:
 5673              		.loc 1 1973 0
 5674 202e 1846     		mov	r0, r3
 5675 2030 03B0     		add	sp, sp, #12
 5676              		@ sp needed
 5677 2032 5DF804FB 		ldr	pc, [sp], #4
 5678              		.cfi_endproc
 5679              	.LFE92:
 5680              		.size	LSM303AGR_ACC_R_XDataAvail, .-LSM303AGR_ACC_R_XDataAvail
 5681 2036 00BF     		.align	2
 5682 2038 AFF30080 		.p2align 4,,15
 5682      AFF30080 
 5683              		.global	LSM303AGR_ACC_R_YDataAvail
 5684              		.thumb
 5685              		.thumb_func
 5686              		.type	LSM303AGR_ACC_R_YDataAvail, %function
 5687              	LSM303AGR_ACC_R_YDataAvail:
 5688              	.LFB93:
 5689              		.loc 1 1983 0
 5690              		.cfi_startproc
 5691              		@ args = 0, pretend = 0, frame = 8
 5692              		@ frame_needed = 0, uses_anonymous_args = 0
 5693 2040 00B5     		push	{lr}
 5694              		.cfi_def_cfa_offset 4
 5695              		.cfi_offset 14, -4
 5696 2042 83B0     		sub	sp, sp, #12
 5697              		.cfi_def_cfa_offset 16
 5698 2044 0190     		str	r0, [sp, #4]
 5699 2046 0091     		str	r1, [sp]
 5700              		.loc 1 1984 0
 5701 2048 0198     		ldr	r0, [sp, #4]
 5702 204a 2721     		movs	r1, #39
 5703 204c 009A     		ldr	r2, [sp]
 5704 204e 0123     		movs	r3, #1
 5705 2050 FFF7FEFF 		bl	LSM303AGR_ACC_ReadReg
 5706 2054 0346     		mov	r3, r0
 5707 2056 002B     		cmp	r3, #0
 5708 2058 01D1     		bne	.L371
 5709              		.loc 1 1985 0
 5710 205a 0023     		movs	r3, #0
 5711 205c 07E0     		b	.L372
 5712              	.L371:
 5713              		.loc 1 1987 0
 5714 205e 009B     		ldr	r3, [sp]
 5715 2060 1B78     		ldrb	r3, [r3]	@ zero_extendqisi2
 5716 2062 03F00203 		and	r3, r3, #2
 5717 2066 DAB2     		uxtb	r2, r3
 5718 2068 009B     		ldr	r3, [sp]
 5719 206a 1A70     		strb	r2, [r3]
 5720              		.loc 1 1989 0
 5721 206c 0123     		movs	r3, #1
 5722              	.L372:
 5723              		.loc 1 1990 0
ARM GAS  /tmp/ccVYwGiK.s 			page 103


 5724 206e 1846     		mov	r0, r3
 5725 2070 03B0     		add	sp, sp, #12
 5726              		@ sp needed
 5727 2072 5DF804FB 		ldr	pc, [sp], #4
 5728              		.cfi_endproc
 5729              	.LFE93:
 5730              		.size	LSM303AGR_ACC_R_YDataAvail, .-LSM303AGR_ACC_R_YDataAvail
 5731 2076 00BF     		.align	2
 5732 2078 AFF30080 		.p2align 4,,15
 5732      AFF30080 
 5733              		.global	LSM303AGR_ACC_R_ZDataAvail
 5734              		.thumb
 5735              		.thumb_func
 5736              		.type	LSM303AGR_ACC_R_ZDataAvail, %function
 5737              	LSM303AGR_ACC_R_ZDataAvail:
 5738              	.LFB94:
 5739              		.loc 1 2000 0
 5740              		.cfi_startproc
 5741              		@ args = 0, pretend = 0, frame = 8
 5742              		@ frame_needed = 0, uses_anonymous_args = 0
 5743 2080 00B5     		push	{lr}
 5744              		.cfi_def_cfa_offset 4
 5745              		.cfi_offset 14, -4
 5746 2082 83B0     		sub	sp, sp, #12
 5747              		.cfi_def_cfa_offset 16
 5748 2084 0190     		str	r0, [sp, #4]
 5749 2086 0091     		str	r1, [sp]
 5750              		.loc 1 2001 0
 5751 2088 0198     		ldr	r0, [sp, #4]
 5752 208a 2721     		movs	r1, #39
 5753 208c 009A     		ldr	r2, [sp]
 5754 208e 0123     		movs	r3, #1
 5755 2090 FFF7FEFF 		bl	LSM303AGR_ACC_ReadReg
 5756 2094 0346     		mov	r3, r0
 5757 2096 002B     		cmp	r3, #0
 5758 2098 01D1     		bne	.L374
 5759              		.loc 1 2002 0
 5760 209a 0023     		movs	r3, #0
 5761 209c 07E0     		b	.L375
 5762              	.L374:
 5763              		.loc 1 2004 0
 5764 209e 009B     		ldr	r3, [sp]
 5765 20a0 1B78     		ldrb	r3, [r3]	@ zero_extendqisi2
 5766 20a2 03F00403 		and	r3, r3, #4
 5767 20a6 DAB2     		uxtb	r2, r3
 5768 20a8 009B     		ldr	r3, [sp]
 5769 20aa 1A70     		strb	r2, [r3]
 5770              		.loc 1 2006 0
 5771 20ac 0123     		movs	r3, #1
 5772              	.L375:
 5773              		.loc 1 2007 0
 5774 20ae 1846     		mov	r0, r3
 5775 20b0 03B0     		add	sp, sp, #12
 5776              		@ sp needed
 5777 20b2 5DF804FB 		ldr	pc, [sp], #4
 5778              		.cfi_endproc
 5779              	.LFE94:
ARM GAS  /tmp/ccVYwGiK.s 			page 104


 5780              		.size	LSM303AGR_ACC_R_ZDataAvail, .-LSM303AGR_ACC_R_ZDataAvail
 5781 20b6 00BF     		.align	2
 5782 20b8 AFF30080 		.p2align 4,,15
 5782      AFF30080 
 5783              		.global	LSM303AGR_ACC_R_XYZDataAvail
 5784              		.thumb
 5785              		.thumb_func
 5786              		.type	LSM303AGR_ACC_R_XYZDataAvail, %function
 5787              	LSM303AGR_ACC_R_XYZDataAvail:
 5788              	.LFB95:
 5789              		.loc 1 2017 0
 5790              		.cfi_startproc
 5791              		@ args = 0, pretend = 0, frame = 8
 5792              		@ frame_needed = 0, uses_anonymous_args = 0
 5793 20c0 00B5     		push	{lr}
 5794              		.cfi_def_cfa_offset 4
 5795              		.cfi_offset 14, -4
 5796 20c2 83B0     		sub	sp, sp, #12
 5797              		.cfi_def_cfa_offset 16
 5798 20c4 0190     		str	r0, [sp, #4]
 5799 20c6 0091     		str	r1, [sp]
 5800              		.loc 1 2018 0
 5801 20c8 0198     		ldr	r0, [sp, #4]
 5802 20ca 2721     		movs	r1, #39
 5803 20cc 009A     		ldr	r2, [sp]
 5804 20ce 0123     		movs	r3, #1
 5805 20d0 FFF7FEFF 		bl	LSM303AGR_ACC_ReadReg
 5806 20d4 0346     		mov	r3, r0
 5807 20d6 002B     		cmp	r3, #0
 5808 20d8 01D1     		bne	.L377
 5809              		.loc 1 2019 0
 5810 20da 0023     		movs	r3, #0
 5811 20dc 07E0     		b	.L378
 5812              	.L377:
 5813              		.loc 1 2021 0
 5814 20de 009B     		ldr	r3, [sp]
 5815 20e0 1B78     		ldrb	r3, [r3]	@ zero_extendqisi2
 5816 20e2 03F00803 		and	r3, r3, #8
 5817 20e6 DAB2     		uxtb	r2, r3
 5818 20e8 009B     		ldr	r3, [sp]
 5819 20ea 1A70     		strb	r2, [r3]
 5820              		.loc 1 2023 0
 5821 20ec 0123     		movs	r3, #1
 5822              	.L378:
 5823              		.loc 1 2024 0
 5824 20ee 1846     		mov	r0, r3
 5825 20f0 03B0     		add	sp, sp, #12
 5826              		@ sp needed
 5827 20f2 5DF804FB 		ldr	pc, [sp], #4
 5828              		.cfi_endproc
 5829              	.LFE95:
 5830              		.size	LSM303AGR_ACC_R_XYZDataAvail, .-LSM303AGR_ACC_R_XYZDataAvail
 5831 20f6 00BF     		.align	2
 5832 20f8 AFF30080 		.p2align 4,,15
 5832      AFF30080 
 5833              		.global	LSM303AGR_ACC_R_XDataOverrun
 5834              		.thumb
ARM GAS  /tmp/ccVYwGiK.s 			page 105


 5835              		.thumb_func
 5836              		.type	LSM303AGR_ACC_R_XDataOverrun, %function
 5837              	LSM303AGR_ACC_R_XDataOverrun:
 5838              	.LFB96:
 5839              		.loc 1 2034 0
 5840              		.cfi_startproc
 5841              		@ args = 0, pretend = 0, frame = 8
 5842              		@ frame_needed = 0, uses_anonymous_args = 0
 5843 2100 00B5     		push	{lr}
 5844              		.cfi_def_cfa_offset 4
 5845              		.cfi_offset 14, -4
 5846 2102 83B0     		sub	sp, sp, #12
 5847              		.cfi_def_cfa_offset 16
 5848 2104 0190     		str	r0, [sp, #4]
 5849 2106 0091     		str	r1, [sp]
 5850              		.loc 1 2035 0
 5851 2108 0198     		ldr	r0, [sp, #4]
 5852 210a 2721     		movs	r1, #39
 5853 210c 009A     		ldr	r2, [sp]
 5854 210e 0123     		movs	r3, #1
 5855 2110 FFF7FEFF 		bl	LSM303AGR_ACC_ReadReg
 5856 2114 0346     		mov	r3, r0
 5857 2116 002B     		cmp	r3, #0
 5858 2118 01D1     		bne	.L380
 5859              		.loc 1 2036 0
 5860 211a 0023     		movs	r3, #0
 5861 211c 07E0     		b	.L381
 5862              	.L380:
 5863              		.loc 1 2038 0
 5864 211e 009B     		ldr	r3, [sp]
 5865 2120 1B78     		ldrb	r3, [r3]	@ zero_extendqisi2
 5866 2122 03F01003 		and	r3, r3, #16
 5867 2126 DAB2     		uxtb	r2, r3
 5868 2128 009B     		ldr	r3, [sp]
 5869 212a 1A70     		strb	r2, [r3]
 5870              		.loc 1 2040 0
 5871 212c 0123     		movs	r3, #1
 5872              	.L381:
 5873              		.loc 1 2041 0
 5874 212e 1846     		mov	r0, r3
 5875 2130 03B0     		add	sp, sp, #12
 5876              		@ sp needed
 5877 2132 5DF804FB 		ldr	pc, [sp], #4
 5878              		.cfi_endproc
 5879              	.LFE96:
 5880              		.size	LSM303AGR_ACC_R_XDataOverrun, .-LSM303AGR_ACC_R_XDataOverrun
 5881 2136 00BF     		.align	2
 5882 2138 AFF30080 		.p2align 4,,15
 5882      AFF30080 
 5883              		.global	LSM303AGR_ACC_R_YDataOverrun
 5884              		.thumb
 5885              		.thumb_func
 5886              		.type	LSM303AGR_ACC_R_YDataOverrun, %function
 5887              	LSM303AGR_ACC_R_YDataOverrun:
 5888              	.LFB97:
 5889              		.loc 1 2051 0
 5890              		.cfi_startproc
ARM GAS  /tmp/ccVYwGiK.s 			page 106


 5891              		@ args = 0, pretend = 0, frame = 8
 5892              		@ frame_needed = 0, uses_anonymous_args = 0
 5893 2140 00B5     		push	{lr}
 5894              		.cfi_def_cfa_offset 4
 5895              		.cfi_offset 14, -4
 5896 2142 83B0     		sub	sp, sp, #12
 5897              		.cfi_def_cfa_offset 16
 5898 2144 0190     		str	r0, [sp, #4]
 5899 2146 0091     		str	r1, [sp]
 5900              		.loc 1 2052 0
 5901 2148 0198     		ldr	r0, [sp, #4]
 5902 214a 2721     		movs	r1, #39
 5903 214c 009A     		ldr	r2, [sp]
 5904 214e 0123     		movs	r3, #1
 5905 2150 FFF7FEFF 		bl	LSM303AGR_ACC_ReadReg
 5906 2154 0346     		mov	r3, r0
 5907 2156 002B     		cmp	r3, #0
 5908 2158 01D1     		bne	.L383
 5909              		.loc 1 2053 0
 5910 215a 0023     		movs	r3, #0
 5911 215c 07E0     		b	.L384
 5912              	.L383:
 5913              		.loc 1 2055 0
 5914 215e 009B     		ldr	r3, [sp]
 5915 2160 1B78     		ldrb	r3, [r3]	@ zero_extendqisi2
 5916 2162 03F02003 		and	r3, r3, #32
 5917 2166 DAB2     		uxtb	r2, r3
 5918 2168 009B     		ldr	r3, [sp]
 5919 216a 1A70     		strb	r2, [r3]
 5920              		.loc 1 2057 0
 5921 216c 0123     		movs	r3, #1
 5922              	.L384:
 5923              		.loc 1 2058 0
 5924 216e 1846     		mov	r0, r3
 5925 2170 03B0     		add	sp, sp, #12
 5926              		@ sp needed
 5927 2172 5DF804FB 		ldr	pc, [sp], #4
 5928              		.cfi_endproc
 5929              	.LFE97:
 5930              		.size	LSM303AGR_ACC_R_YDataOverrun, .-LSM303AGR_ACC_R_YDataOverrun
 5931 2176 00BF     		.align	2
 5932 2178 AFF30080 		.p2align 4,,15
 5932      AFF30080 
 5933              		.global	LSM303AGR_ACC_R_ZDataOverrun
 5934              		.thumb
 5935              		.thumb_func
 5936              		.type	LSM303AGR_ACC_R_ZDataOverrun, %function
 5937              	LSM303AGR_ACC_R_ZDataOverrun:
 5938              	.LFB98:
 5939              		.loc 1 2068 0
 5940              		.cfi_startproc
 5941              		@ args = 0, pretend = 0, frame = 8
 5942              		@ frame_needed = 0, uses_anonymous_args = 0
 5943 2180 00B5     		push	{lr}
 5944              		.cfi_def_cfa_offset 4
 5945              		.cfi_offset 14, -4
 5946 2182 83B0     		sub	sp, sp, #12
ARM GAS  /tmp/ccVYwGiK.s 			page 107


 5947              		.cfi_def_cfa_offset 16
 5948 2184 0190     		str	r0, [sp, #4]
 5949 2186 0091     		str	r1, [sp]
 5950              		.loc 1 2069 0
 5951 2188 0198     		ldr	r0, [sp, #4]
 5952 218a 2721     		movs	r1, #39
 5953 218c 009A     		ldr	r2, [sp]
 5954 218e 0123     		movs	r3, #1
 5955 2190 FFF7FEFF 		bl	LSM303AGR_ACC_ReadReg
 5956 2194 0346     		mov	r3, r0
 5957 2196 002B     		cmp	r3, #0
 5958 2198 01D1     		bne	.L386
 5959              		.loc 1 2070 0
 5960 219a 0023     		movs	r3, #0
 5961 219c 07E0     		b	.L387
 5962              	.L386:
 5963              		.loc 1 2072 0
 5964 219e 009B     		ldr	r3, [sp]
 5965 21a0 1B78     		ldrb	r3, [r3]	@ zero_extendqisi2
 5966 21a2 03F04003 		and	r3, r3, #64
 5967 21a6 DAB2     		uxtb	r2, r3
 5968 21a8 009B     		ldr	r3, [sp]
 5969 21aa 1A70     		strb	r2, [r3]
 5970              		.loc 1 2074 0
 5971 21ac 0123     		movs	r3, #1
 5972              	.L387:
 5973              		.loc 1 2075 0
 5974 21ae 1846     		mov	r0, r3
 5975 21b0 03B0     		add	sp, sp, #12
 5976              		@ sp needed
 5977 21b2 5DF804FB 		ldr	pc, [sp], #4
 5978              		.cfi_endproc
 5979              	.LFE98:
 5980              		.size	LSM303AGR_ACC_R_ZDataOverrun, .-LSM303AGR_ACC_R_ZDataOverrun
 5981 21b6 00BF     		.align	2
 5982 21b8 AFF30080 		.p2align 4,,15
 5982      AFF30080 
 5983              		.global	LSM303AGR_ACC_R_XYZDataOverrun
 5984              		.thumb
 5985              		.thumb_func
 5986              		.type	LSM303AGR_ACC_R_XYZDataOverrun, %function
 5987              	LSM303AGR_ACC_R_XYZDataOverrun:
 5988              	.LFB99:
 5989              		.loc 1 2085 0
 5990              		.cfi_startproc
 5991              		@ args = 0, pretend = 0, frame = 8
 5992              		@ frame_needed = 0, uses_anonymous_args = 0
 5993 21c0 00B5     		push	{lr}
 5994              		.cfi_def_cfa_offset 4
 5995              		.cfi_offset 14, -4
 5996 21c2 83B0     		sub	sp, sp, #12
 5997              		.cfi_def_cfa_offset 16
 5998 21c4 0190     		str	r0, [sp, #4]
 5999 21c6 0091     		str	r1, [sp]
 6000              		.loc 1 2086 0
 6001 21c8 0198     		ldr	r0, [sp, #4]
 6002 21ca 2721     		movs	r1, #39
ARM GAS  /tmp/ccVYwGiK.s 			page 108


 6003 21cc 009A     		ldr	r2, [sp]
 6004 21ce 0123     		movs	r3, #1
 6005 21d0 FFF7FEFF 		bl	LSM303AGR_ACC_ReadReg
 6006 21d4 0346     		mov	r3, r0
 6007 21d6 002B     		cmp	r3, #0
 6008 21d8 01D1     		bne	.L389
 6009              		.loc 1 2087 0
 6010 21da 0023     		movs	r3, #0
 6011 21dc 07E0     		b	.L390
 6012              	.L389:
 6013              		.loc 1 2089 0
 6014 21de 009B     		ldr	r3, [sp]
 6015 21e0 1B78     		ldrb	r3, [r3]	@ zero_extendqisi2
 6016 21e2 23F07F03 		bic	r3, r3, #127
 6017 21e6 DAB2     		uxtb	r2, r3
 6018 21e8 009B     		ldr	r3, [sp]
 6019 21ea 1A70     		strb	r2, [r3]
 6020              		.loc 1 2091 0
 6021 21ec 0123     		movs	r3, #1
 6022              	.L390:
 6023              		.loc 1 2092 0
 6024 21ee 1846     		mov	r0, r3
 6025 21f0 03B0     		add	sp, sp, #12
 6026              		@ sp needed
 6027 21f2 5DF804FB 		ldr	pc, [sp], #4
 6028              		.cfi_endproc
 6029              	.LFE99:
 6030              		.size	LSM303AGR_ACC_R_XYZDataOverrun, .-LSM303AGR_ACC_R_XYZDataOverrun
 6031 21f6 00BF     		.align	2
 6032 21f8 AFF30080 		.p2align 4,,15
 6032      AFF30080 
 6033              		.global	LSM303AGR_ACC_W_FifoThreshold
 6034              		.thumb
 6035              		.thumb_func
 6036              		.type	LSM303AGR_ACC_W_FifoThreshold, %function
 6037              	LSM303AGR_ACC_W_FifoThreshold:
 6038              	.LFB100:
 6039              		.loc 1 2102 0
 6040              		.cfi_startproc
 6041              		@ args = 0, pretend = 0, frame = 16
 6042              		@ frame_needed = 0, uses_anonymous_args = 0
 6043 2200 00B5     		push	{lr}
 6044              		.cfi_def_cfa_offset 4
 6045              		.cfi_offset 14, -4
 6046 2202 85B0     		sub	sp, sp, #20
 6047              		.cfi_def_cfa_offset 24
 6048 2204 0190     		str	r0, [sp, #4]
 6049 2206 0B46     		mov	r3, r1
 6050 2208 8DF80330 		strb	r3, [sp, #3]
 6051              		.loc 1 2106 0
 6052 220c 9DF80330 		ldrb	r3, [sp, #3]
 6053 2210 03F01F03 		and	r3, r3, #31
 6054 2214 8DF80330 		strb	r3, [sp, #3]
 6055              		.loc 1 2108 0
 6056 2218 0DF10F03 		add	r3, sp, #15
 6057 221c 0198     		ldr	r0, [sp, #4]
 6058 221e 2E21     		movs	r1, #46
ARM GAS  /tmp/ccVYwGiK.s 			page 109


 6059 2220 1A46     		mov	r2, r3
 6060 2222 0123     		movs	r3, #1
 6061 2224 FFF7FEFF 		bl	LSM303AGR_ACC_ReadReg
 6062 2228 0346     		mov	r3, r0
 6063 222a 002B     		cmp	r3, #0
 6064 222c 01D1     		bne	.L392
 6065              		.loc 1 2109 0
 6066 222e 0023     		movs	r3, #0
 6067 2230 1CE0     		b	.L395
 6068              	.L392:
 6069              		.loc 1 2111 0
 6070 2232 9DF80F30 		ldrb	r3, [sp, #15]	@ zero_extendqisi2
 6071 2236 23F01F03 		bic	r3, r3, #31
 6072 223a DBB2     		uxtb	r3, r3
 6073 223c 8DF80F30 		strb	r3, [sp, #15]
 6074              		.loc 1 2112 0
 6075 2240 9DF80F20 		ldrb	r2, [sp, #15]	@ zero_extendqisi2
 6076 2244 9DF80330 		ldrb	r3, [sp, #3]
 6077 2248 1343     		orrs	r3, r3, r2
 6078 224a DBB2     		uxtb	r3, r3
 6079 224c 8DF80F30 		strb	r3, [sp, #15]
 6080              		.loc 1 2114 0
 6081 2250 0DF10F03 		add	r3, sp, #15
 6082 2254 0198     		ldr	r0, [sp, #4]
 6083 2256 2E21     		movs	r1, #46
 6084 2258 1A46     		mov	r2, r3
 6085 225a 0123     		movs	r3, #1
 6086 225c FFF7FEFF 		bl	LSM303AGR_ACC_WriteReg
 6087 2260 0346     		mov	r3, r0
 6088 2262 002B     		cmp	r3, #0
 6089 2264 01D1     		bne	.L394
 6090              		.loc 1 2115 0
 6091 2266 0023     		movs	r3, #0
 6092 2268 00E0     		b	.L395
 6093              	.L394:
 6094              		.loc 1 2117 0
 6095 226a 0123     		movs	r3, #1
 6096              	.L395:
 6097              		.loc 1 2118 0
 6098 226c 1846     		mov	r0, r3
 6099 226e 05B0     		add	sp, sp, #20
 6100              		@ sp needed
 6101 2270 5DF804FB 		ldr	pc, [sp], #4
 6102              		.cfi_endproc
 6103              	.LFE100:
 6104              		.size	LSM303AGR_ACC_W_FifoThreshold, .-LSM303AGR_ACC_W_FifoThreshold
 6105              		.align	2
 6106 2274 AFF30080 		.p2align 4,,15
 6106      AFF30080 
 6106      AFF30080 
 6107              		.global	LSM303AGR_ACC_R_FifoThreshold
 6108              		.thumb
 6109              		.thumb_func
 6110              		.type	LSM303AGR_ACC_R_FifoThreshold, %function
 6111              	LSM303AGR_ACC_R_FifoThreshold:
 6112              	.LFB101:
 6113              		.loc 1 2128 0
ARM GAS  /tmp/ccVYwGiK.s 			page 110


 6114              		.cfi_startproc
 6115              		@ args = 0, pretend = 0, frame = 8
 6116              		@ frame_needed = 0, uses_anonymous_args = 0
 6117 2280 00B5     		push	{lr}
 6118              		.cfi_def_cfa_offset 4
 6119              		.cfi_offset 14, -4
 6120 2282 83B0     		sub	sp, sp, #12
 6121              		.cfi_def_cfa_offset 16
 6122 2284 0190     		str	r0, [sp, #4]
 6123 2286 0091     		str	r1, [sp]
 6124              		.loc 1 2129 0
 6125 2288 0198     		ldr	r0, [sp, #4]
 6126 228a 2E21     		movs	r1, #46
 6127 228c 009A     		ldr	r2, [sp]
 6128 228e 0123     		movs	r3, #1
 6129 2290 FFF7FEFF 		bl	LSM303AGR_ACC_ReadReg
 6130 2294 0346     		mov	r3, r0
 6131 2296 002B     		cmp	r3, #0
 6132 2298 01D1     		bne	.L397
 6133              		.loc 1 2130 0
 6134 229a 0023     		movs	r3, #0
 6135 229c 0BE0     		b	.L398
 6136              	.L397:
 6137              		.loc 1 2132 0
 6138 229e 009B     		ldr	r3, [sp]
 6139 22a0 1B78     		ldrb	r3, [r3]	@ zero_extendqisi2
 6140 22a2 03F01F03 		and	r3, r3, #31
 6141 22a6 DAB2     		uxtb	r2, r3
 6142 22a8 009B     		ldr	r3, [sp]
 6143 22aa 1A70     		strb	r2, [r3]
 6144              		.loc 1 2133 0
 6145 22ac 009B     		ldr	r3, [sp]
 6146 22ae 1A78     		ldrb	r2, [r3]	@ zero_extendqisi2
 6147 22b0 009B     		ldr	r3, [sp]
 6148 22b2 1A70     		strb	r2, [r3]
 6149              		.loc 1 2135 0
 6150 22b4 0123     		movs	r3, #1
 6151              	.L398:
 6152              		.loc 1 2136 0
 6153 22b6 1846     		mov	r0, r3
 6154 22b8 03B0     		add	sp, sp, #12
 6155              		@ sp needed
 6156 22ba 5DF804FB 		ldr	pc, [sp], #4
 6157              		.cfi_endproc
 6158              	.LFE101:
 6159              		.size	LSM303AGR_ACC_R_FifoThreshold, .-LSM303AGR_ACC_R_FifoThreshold
 6160 22be 00BF     		.align	2
 6161              		.p2align 4,,15
 6162              		.global	LSM303AGR_ACC_W_TriggerSel
 6163              		.thumb
 6164              		.thumb_func
 6165              		.type	LSM303AGR_ACC_W_TriggerSel, %function
 6166              	LSM303AGR_ACC_W_TriggerSel:
 6167              	.LFB102:
 6168              		.loc 1 2146 0
 6169              		.cfi_startproc
 6170              		@ args = 0, pretend = 0, frame = 16
ARM GAS  /tmp/ccVYwGiK.s 			page 111


 6171              		@ frame_needed = 0, uses_anonymous_args = 0
 6172 22c0 00B5     		push	{lr}
 6173              		.cfi_def_cfa_offset 4
 6174              		.cfi_offset 14, -4
 6175 22c2 85B0     		sub	sp, sp, #20
 6176              		.cfi_def_cfa_offset 24
 6177 22c4 0190     		str	r0, [sp, #4]
 6178 22c6 0B46     		mov	r3, r1
 6179 22c8 8DF80330 		strb	r3, [sp, #3]
 6180              		.loc 1 2149 0
 6181 22cc 0DF10F03 		add	r3, sp, #15
 6182 22d0 0198     		ldr	r0, [sp, #4]
 6183 22d2 2E21     		movs	r1, #46
 6184 22d4 1A46     		mov	r2, r3
 6185 22d6 0123     		movs	r3, #1
 6186 22d8 FFF7FEFF 		bl	LSM303AGR_ACC_ReadReg
 6187 22dc 0346     		mov	r3, r0
 6188 22de 002B     		cmp	r3, #0
 6189 22e0 01D1     		bne	.L400
 6190              		.loc 1 2150 0
 6191 22e2 0023     		movs	r3, #0
 6192 22e4 1CE0     		b	.L403
 6193              	.L400:
 6194              		.loc 1 2152 0
 6195 22e6 9DF80F30 		ldrb	r3, [sp, #15]	@ zero_extendqisi2
 6196 22ea 23F02003 		bic	r3, r3, #32
 6197 22ee DBB2     		uxtb	r3, r3
 6198 22f0 8DF80F30 		strb	r3, [sp, #15]
 6199              		.loc 1 2153 0
 6200 22f4 9DF80F20 		ldrb	r2, [sp, #15]	@ zero_extendqisi2
 6201 22f8 9DF80330 		ldrb	r3, [sp, #3]
 6202 22fc 1343     		orrs	r3, r3, r2
 6203 22fe DBB2     		uxtb	r3, r3
 6204 2300 8DF80F30 		strb	r3, [sp, #15]
 6205              		.loc 1 2155 0
 6206 2304 0DF10F03 		add	r3, sp, #15
 6207 2308 0198     		ldr	r0, [sp, #4]
 6208 230a 2E21     		movs	r1, #46
 6209 230c 1A46     		mov	r2, r3
 6210 230e 0123     		movs	r3, #1
 6211 2310 FFF7FEFF 		bl	LSM303AGR_ACC_WriteReg
 6212 2314 0346     		mov	r3, r0
 6213 2316 002B     		cmp	r3, #0
 6214 2318 01D1     		bne	.L402
 6215              		.loc 1 2156 0
 6216 231a 0023     		movs	r3, #0
 6217 231c 00E0     		b	.L403
 6218              	.L402:
 6219              		.loc 1 2158 0
 6220 231e 0123     		movs	r3, #1
 6221              	.L403:
 6222              		.loc 1 2159 0
 6223 2320 1846     		mov	r0, r3
 6224 2322 05B0     		add	sp, sp, #20
 6225              		@ sp needed
 6226 2324 5DF804FB 		ldr	pc, [sp], #4
 6227              		.cfi_endproc
ARM GAS  /tmp/ccVYwGiK.s 			page 112


 6228              	.LFE102:
 6229              		.size	LSM303AGR_ACC_W_TriggerSel, .-LSM303AGR_ACC_W_TriggerSel
 6230              		.align	2
 6231 2328 AFF30080 		.p2align 4,,15
 6231      AFF30080 
 6232              		.global	LSM303AGR_ACC_R_TriggerSel
 6233              		.thumb
 6234              		.thumb_func
 6235              		.type	LSM303AGR_ACC_R_TriggerSel, %function
 6236              	LSM303AGR_ACC_R_TriggerSel:
 6237              	.LFB103:
 6238              		.loc 1 2169 0
 6239              		.cfi_startproc
 6240              		@ args = 0, pretend = 0, frame = 8
 6241              		@ frame_needed = 0, uses_anonymous_args = 0
 6242 2330 00B5     		push	{lr}
 6243              		.cfi_def_cfa_offset 4
 6244              		.cfi_offset 14, -4
 6245 2332 83B0     		sub	sp, sp, #12
 6246              		.cfi_def_cfa_offset 16
 6247 2334 0190     		str	r0, [sp, #4]
 6248 2336 0091     		str	r1, [sp]
 6249              		.loc 1 2170 0
 6250 2338 0198     		ldr	r0, [sp, #4]
 6251 233a 2E21     		movs	r1, #46
 6252 233c 009A     		ldr	r2, [sp]
 6253 233e 0123     		movs	r3, #1
 6254 2340 FFF7FEFF 		bl	LSM303AGR_ACC_ReadReg
 6255 2344 0346     		mov	r3, r0
 6256 2346 002B     		cmp	r3, #0
 6257 2348 01D1     		bne	.L405
 6258              		.loc 1 2171 0
 6259 234a 0023     		movs	r3, #0
 6260 234c 07E0     		b	.L406
 6261              	.L405:
 6262              		.loc 1 2173 0
 6263 234e 009B     		ldr	r3, [sp]
 6264 2350 1B78     		ldrb	r3, [r3]	@ zero_extendqisi2
 6265 2352 03F02003 		and	r3, r3, #32
 6266 2356 DAB2     		uxtb	r2, r3
 6267 2358 009B     		ldr	r3, [sp]
 6268 235a 1A70     		strb	r2, [r3]
 6269              		.loc 1 2175 0
 6270 235c 0123     		movs	r3, #1
 6271              	.L406:
 6272              		.loc 1 2176 0
 6273 235e 1846     		mov	r0, r3
 6274 2360 03B0     		add	sp, sp, #12
 6275              		@ sp needed
 6276 2362 5DF804FB 		ldr	pc, [sp], #4
 6277              		.cfi_endproc
 6278              	.LFE103:
 6279              		.size	LSM303AGR_ACC_R_TriggerSel, .-LSM303AGR_ACC_R_TriggerSel
 6280 2366 00BF     		.align	2
 6281 2368 AFF30080 		.p2align 4,,15
 6281      AFF30080 
 6282              		.global	LSM303AGR_ACC_W_FifoMode
ARM GAS  /tmp/ccVYwGiK.s 			page 113


 6283              		.thumb
 6284              		.thumb_func
 6285              		.type	LSM303AGR_ACC_W_FifoMode, %function
 6286              	LSM303AGR_ACC_W_FifoMode:
 6287              	.LFB104:
 6288              		.loc 1 2186 0
 6289              		.cfi_startproc
 6290              		@ args = 0, pretend = 0, frame = 16
 6291              		@ frame_needed = 0, uses_anonymous_args = 0
 6292 2370 00B5     		push	{lr}
 6293              		.cfi_def_cfa_offset 4
 6294              		.cfi_offset 14, -4
 6295 2372 85B0     		sub	sp, sp, #20
 6296              		.cfi_def_cfa_offset 24
 6297 2374 0190     		str	r0, [sp, #4]
 6298 2376 0B46     		mov	r3, r1
 6299 2378 8DF80330 		strb	r3, [sp, #3]
 6300              		.loc 1 2189 0
 6301 237c 0DF10F03 		add	r3, sp, #15
 6302 2380 0198     		ldr	r0, [sp, #4]
 6303 2382 2E21     		movs	r1, #46
 6304 2384 1A46     		mov	r2, r3
 6305 2386 0123     		movs	r3, #1
 6306 2388 FFF7FEFF 		bl	LSM303AGR_ACC_ReadReg
 6307 238c 0346     		mov	r3, r0
 6308 238e 002B     		cmp	r3, #0
 6309 2390 01D1     		bne	.L408
 6310              		.loc 1 2190 0
 6311 2392 0023     		movs	r3, #0
 6312 2394 1CE0     		b	.L411
 6313              	.L408:
 6314              		.loc 1 2192 0
 6315 2396 9DF80F30 		ldrb	r3, [sp, #15]	@ zero_extendqisi2
 6316 239a 03F03F03 		and	r3, r3, #63
 6317 239e DBB2     		uxtb	r3, r3
 6318 23a0 8DF80F30 		strb	r3, [sp, #15]
 6319              		.loc 1 2193 0
 6320 23a4 9DF80F20 		ldrb	r2, [sp, #15]	@ zero_extendqisi2
 6321 23a8 9DF80330 		ldrb	r3, [sp, #3]
 6322 23ac 1343     		orrs	r3, r3, r2
 6323 23ae DBB2     		uxtb	r3, r3
 6324 23b0 8DF80F30 		strb	r3, [sp, #15]
 6325              		.loc 1 2195 0
 6326 23b4 0DF10F03 		add	r3, sp, #15
 6327 23b8 0198     		ldr	r0, [sp, #4]
 6328 23ba 2E21     		movs	r1, #46
 6329 23bc 1A46     		mov	r2, r3
 6330 23be 0123     		movs	r3, #1
 6331 23c0 FFF7FEFF 		bl	LSM303AGR_ACC_WriteReg
 6332 23c4 0346     		mov	r3, r0
 6333 23c6 002B     		cmp	r3, #0
 6334 23c8 01D1     		bne	.L410
 6335              		.loc 1 2196 0
 6336 23ca 0023     		movs	r3, #0
 6337 23cc 00E0     		b	.L411
 6338              	.L410:
 6339              		.loc 1 2198 0
ARM GAS  /tmp/ccVYwGiK.s 			page 114


 6340 23ce 0123     		movs	r3, #1
 6341              	.L411:
 6342              		.loc 1 2199 0
 6343 23d0 1846     		mov	r0, r3
 6344 23d2 05B0     		add	sp, sp, #20
 6345              		@ sp needed
 6346 23d4 5DF804FB 		ldr	pc, [sp], #4
 6347              		.cfi_endproc
 6348              	.LFE104:
 6349              		.size	LSM303AGR_ACC_W_FifoMode, .-LSM303AGR_ACC_W_FifoMode
 6350              		.align	2
 6351 23d8 AFF30080 		.p2align 4,,15
 6351      AFF30080 
 6352              		.global	LSM303AGR_ACC_R_FifoMode
 6353              		.thumb
 6354              		.thumb_func
 6355              		.type	LSM303AGR_ACC_R_FifoMode, %function
 6356              	LSM303AGR_ACC_R_FifoMode:
 6357              	.LFB105:
 6358              		.loc 1 2209 0
 6359              		.cfi_startproc
 6360              		@ args = 0, pretend = 0, frame = 8
