ARM GAS  /tmp/ccVYwGiK.s 			page 1


   1              		.syntax unified
   2              		.cpu cortex-m4
   3              		.fpu softvfp
   4              		.eabi_attribute 20, 1
   5              		.eabi_attribute 21, 1
   6              		.eabi_attribute 23, 3
   7              		.eabi_attribute 24, 1
   8              		.eabi_attribute 25, 1
   9              		.eabi_attribute 26, 1
  10              		.eabi_attribute 30, 6
  11              		.eabi_attribute 34, 1
  12              		.eabi_attribute 18, 4
  13              		.thumb
  14              		.file	"LSM303AGR_ACC_driver.c"
  15              		.text
  16              	.Ltext0:
  17              		.cfi_sections	.debug_frame
  18              		.align	2
  19              		.p2align 4,,15
  20              		.global	LSM303AGR_ACC_WriteReg
  21              		.thumb
  22              		.thumb_func
  23              		.type	LSM303AGR_ACC_WriteReg, %function
  24              	LSM303AGR_ACC_WriteReg:
  25              	.LFB0:
  26              		.file 1 "../../../../../Drivers/BSP/Components/lsm303agr/LSM303AGR_ACC_driver.c"
  27              		.loc 1 67 0
  28              		.cfi_startproc
  29              		@ args = 0, pretend = 0, frame = 16
  30              		@ frame_needed = 0, uses_anonymous_args = 0
  31 0000 00B5     		push	{lr}
  32              		.cfi_def_cfa_offset 4
  33              		.cfi_offset 14, -4
  34 0002 85B0     		sub	sp, sp, #20
  35              		.cfi_def_cfa_offset 24
  36 0004 0390     		str	r0, [sp, #12]
  37 0006 0192     		str	r2, [sp, #4]
  38 0008 0A46     		mov	r2, r1
  39 000a 8DF80B20 		strb	r2, [sp, #11]
  40 000e ADF80830 		strh	r3, [sp, #8]	@ movhi
  41              		.loc 1 69 0
  42 0012 9DF80B20 		ldrb	r2, [sp, #11]	@ zero_extendqisi2
  43 0016 BDF80830 		ldrh	r3, [sp, #8]
  44 001a 0398     		ldr	r0, [sp, #12]
  45 001c 1146     		mov	r1, r2
  46 001e 019A     		ldr	r2, [sp, #4]
  47 0020 FFF7FEFF 		bl	Sensor_IO_Write
  48 0024 0346     		mov	r3, r0
  49 0026 002B     		cmp	r3, #0
  50 0028 01D0     		beq	.L2
  51              		.loc 1 71 0
  52 002a 0023     		movs	r3, #0
  53 002c 00E0     		b	.L3
  54              	.L2:
  55              		.loc 1 75 0
  56 002e 0123     		movs	r3, #1
  57              	.L3:
ARM GAS  /tmp/ccVYwGiK.s 			page 2


  58              		.loc 1 77 0
  59 0030 1846     		mov	r0, r3
  60 0032 05B0     		add	sp, sp, #20
  61              		@ sp needed
  62 0034 5DF804FB 		ldr	pc, [sp], #4
  63              		.cfi_endproc
  64              	.LFE0:
  65              		.size	LSM303AGR_ACC_WriteReg, .-LSM303AGR_ACC_WriteReg
  66              		.align	2
  67 0038 AFF30080 		.p2align 4,,15
  67      AFF30080 
  68              		.global	LSM303AGR_ACC_ReadReg
  69              		.thumb
  70              		.thumb_func
  71              		.type	LSM303AGR_ACC_ReadReg, %function
  72              	LSM303AGR_ACC_ReadReg:
  73              	.LFB1:
  74              		.loc 1 89 0
  75              		.cfi_startproc
  76              		@ args = 0, pretend = 0, frame = 16
  77              		@ frame_needed = 0, uses_anonymous_args = 0
  78 0040 00B5     		push	{lr}
  79              		.cfi_def_cfa_offset 4
  80              		.cfi_offset 14, -4
  81 0042 85B0     		sub	sp, sp, #20
  82              		.cfi_def_cfa_offset 24
  83 0044 0390     		str	r0, [sp, #12]
  84 0046 0192     		str	r2, [sp, #4]
  85 0048 0A46     		mov	r2, r1
  86 004a 8DF80B20 		strb	r2, [sp, #11]
  87 004e ADF80830 		strh	r3, [sp, #8]	@ movhi
  88              		.loc 1 91 0
  89 0052 9DF80B20 		ldrb	r2, [sp, #11]	@ zero_extendqisi2
  90 0056 BDF80830 		ldrh	r3, [sp, #8]
  91 005a 0398     		ldr	r0, [sp, #12]
  92 005c 1146     		mov	r1, r2
  93 005e 019A     		ldr	r2, [sp, #4]
  94 0060 FFF7FEFF 		bl	Sensor_IO_Read
  95 0064 0346     		mov	r3, r0
  96 0066 002B     		cmp	r3, #0
  97 0068 01D0     		beq	.L5
  98              		.loc 1 93 0
  99 006a 0023     		movs	r3, #0
 100 006c 00E0     		b	.L6
 101              	.L5:
 102              		.loc 1 97 0
 103 006e 0123     		movs	r3, #1
 104              	.L6:
 105              		.loc 1 99 0
 106 0070 1846     		mov	r0, r3
 107 0072 05B0     		add	sp, sp, #20
 108              		@ sp needed
 109 0074 5DF804FB 		ldr	pc, [sp], #4
 110              		.cfi_endproc
 111              	.LFE1:
 112              		.size	LSM303AGR_ACC_ReadReg, .-LSM303AGR_ACC_ReadReg
 113              		.align	2
ARM GAS  /tmp/ccVYwGiK.s 			page 3


 114 0078 AFF30080 		.p2align 4,,15
 114      AFF30080 
 115              		.global	LSM303AGR_ACC_R_WHO_AM_I
 116              		.thumb
 117              		.thumb_func
 118              		.type	LSM303AGR_ACC_R_WHO_AM_I, %function
 119              	LSM303AGR_ACC_R_WHO_AM_I:
 120              	.LFB2:
 121              		.loc 1 111 0
 122              		.cfi_startproc
 123              		@ args = 0, pretend = 0, frame = 8
 124              		@ frame_needed = 0, uses_anonymous_args = 0
 125 0080 00B5     		push	{lr}
 126              		.cfi_def_cfa_offset 4
 127              		.cfi_offset 14, -4
 128 0082 83B0     		sub	sp, sp, #12
 129              		.cfi_def_cfa_offset 16
 130 0084 0190     		str	r0, [sp, #4]
 131 0086 0091     		str	r1, [sp]
 132              		.loc 1 112 0
 133 0088 0198     		ldr	r0, [sp, #4]
 134 008a 0F21     		movs	r1, #15
 135 008c 009A     		ldr	r2, [sp]
 136 008e 0123     		movs	r3, #1
 137 0090 FFF7FEFF 		bl	LSM303AGR_ACC_ReadReg
 138 0094 0346     		mov	r3, r0
 139 0096 002B     		cmp	r3, #0
 140 0098 01D1     		bne	.L8
 141              		.loc 1 113 0
 142 009a 0023     		movs	r3, #0
 143 009c 08E0     		b	.L9
 144              	.L8:
 145              		.loc 1 115 0
 146 009e 009B     		ldr	r3, [sp]
 147 00a0 1A78     		ldrb	r2, [r3]	@ zero_extendqisi2
 148 00a2 009B     		ldr	r3, [sp]
 149 00a4 1A70     		strb	r2, [r3]
 150              		.loc 1 116 0
 151 00a6 009B     		ldr	r3, [sp]
 152 00a8 1A78     		ldrb	r2, [r3]	@ zero_extendqisi2
 153 00aa 009B     		ldr	r3, [sp]
 154 00ac 1A70     		strb	r2, [r3]
 155              		.loc 1 118 0
 156 00ae 0123     		movs	r3, #1
 157              	.L9:
 158              		.loc 1 119 0
 159 00b0 1846     		mov	r0, r3
 160 00b2 03B0     		add	sp, sp, #12
 161              		@ sp needed
 162 00b4 5DF804FB 		ldr	pc, [sp], #4
 163              		.cfi_endproc
 164              	.LFE2:
 165              		.size	LSM303AGR_ACC_R_WHO_AM_I, .-LSM303AGR_ACC_R_WHO_AM_I
 166              		.align	2
 167 00b8 AFF30080 		.p2align 4,,15
 167      AFF30080 
 168              		.global	LSM303AGR_ACC_W_BlockDataUpdate
ARM GAS  /tmp/ccVYwGiK.s 			page 4


 169              		.thumb
 170              		.thumb_func
 171              		.type	LSM303AGR_ACC_W_BlockDataUpdate, %function
 172              	LSM303AGR_ACC_W_BlockDataUpdate:
 173              	.LFB3:
 174              		.loc 1 129 0
 175              		.cfi_startproc
 176              		@ args = 0, pretend = 0, frame = 16
 177              		@ frame_needed = 0, uses_anonymous_args = 0
 178 00c0 00B5     		push	{lr}
 179              		.cfi_def_cfa_offset 4
 180              		.cfi_offset 14, -4
 181 00c2 85B0     		sub	sp, sp, #20
 182              		.cfi_def_cfa_offset 24
 183 00c4 0190     		str	r0, [sp, #4]
 184 00c6 0B46     		mov	r3, r1
 185 00c8 8DF80330 		strb	r3, [sp, #3]
 186              		.loc 1 132 0
 187 00cc 0DF10F03 		add	r3, sp, #15
 188 00d0 0198     		ldr	r0, [sp, #4]
 189 00d2 2321     		movs	r1, #35
 190 00d4 1A46     		mov	r2, r3
 191 00d6 0123     		movs	r3, #1
 192 00d8 FFF7FEFF 		bl	LSM303AGR_ACC_ReadReg
 193 00dc 0346     		mov	r3, r0
 194 00de 002B     		cmp	r3, #0
 195 00e0 01D1     		bne	.L11
 196              		.loc 1 133 0
 197 00e2 0023     		movs	r3, #0
 198 00e4 1CE0     		b	.L14
 199              	.L11:
 200              		.loc 1 135 0
 201 00e6 9DF80F30 		ldrb	r3, [sp, #15]	@ zero_extendqisi2
 202 00ea 03F07F03 		and	r3, r3, #127
 203 00ee DBB2     		uxtb	r3, r3
 204 00f0 8DF80F30 		strb	r3, [sp, #15]
 205              		.loc 1 136 0
 206 00f4 9DF80F20 		ldrb	r2, [sp, #15]	@ zero_extendqisi2
 207 00f8 9DF80330 		ldrb	r3, [sp, #3]
 208 00fc 1343     		orrs	r3, r3, r2
 209 00fe DBB2     		uxtb	r3, r3
 210 0100 8DF80F30 		strb	r3, [sp, #15]
 211              		.loc 1 138 0
 212 0104 0DF10F03 		add	r3, sp, #15
 213 0108 0198     		ldr	r0, [sp, #4]
 214 010a 2321     		movs	r1, #35
 215 010c 1A46     		mov	r2, r3
 216 010e 0123     		movs	r3, #1
 217 0110 FFF7FEFF 		bl	LSM303AGR_ACC_WriteReg
 218 0114 0346     		mov	r3, r0
 219 0116 002B     		cmp	r3, #0
 220 0118 01D1     		bne	.L13
 221              		.loc 1 139 0
 222 011a 0023     		movs	r3, #0
 223 011c 00E0     		b	.L14
 224              	.L13:
 225              		.loc 1 141 0
ARM GAS  /tmp/ccVYwGiK.s 			page 5


 226 011e 0123     		movs	r3, #1
 227              	.L14:
 228              		.loc 1 142 0
 229 0120 1846     		mov	r0, r3
 230 0122 05B0     		add	sp, sp, #20
 231              		@ sp needed
 232 0124 5DF804FB 		ldr	pc, [sp], #4
 233              		.cfi_endproc
 234              	.LFE3:
 235              		.size	LSM303AGR_ACC_W_BlockDataUpdate, .-LSM303AGR_ACC_W_BlockDataUpdate
 236              		.align	2
 237 0128 AFF30080 		.p2align 4,,15
 237      AFF30080 
 238              		.global	LSM303AGR_ACC_R_BlockDataUpdate
 239              		.thumb
 240              		.thumb_func
 241              		.type	LSM303AGR_ACC_R_BlockDataUpdate, %function
 242              	LSM303AGR_ACC_R_BlockDataUpdate:
 243              	.LFB4:
 244              		.loc 1 152 0
 245              		.cfi_startproc
 246              		@ args = 0, pretend = 0, frame = 8
 247              		@ frame_needed = 0, uses_anonymous_args = 0
 248 0130 00B5     		push	{lr}
 249              		.cfi_def_cfa_offset 4
 250              		.cfi_offset 14, -4
 251 0132 83B0     		sub	sp, sp, #12
 252              		.cfi_def_cfa_offset 16
 253 0134 0190     		str	r0, [sp, #4]
 254 0136 0091     		str	r1, [sp]
 255              		.loc 1 153 0
 256 0138 0198     		ldr	r0, [sp, #4]
 257 013a 2321     		movs	r1, #35
 258 013c 009A     		ldr	r2, [sp]
 259 013e 0123     		movs	r3, #1
 260 0140 FFF7FEFF 		bl	LSM303AGR_ACC_ReadReg
 261 0144 0346     		mov	r3, r0
 262 0146 002B     		cmp	r3, #0
 263 0148 01D1     		bne	.L16
 264              		.loc 1 154 0
 265 014a 0023     		movs	r3, #0
 266 014c 07E0     		b	.L17
 267              	.L16:
 268              		.loc 1 156 0
 269 014e 009B     		ldr	r3, [sp]
 270 0150 1B78     		ldrb	r3, [r3]	@ zero_extendqisi2
 271 0152 23F07F03 		bic	r3, r3, #127
 272 0156 DAB2     		uxtb	r2, r3
 273 0158 009B     		ldr	r3, [sp]
 274 015a 1A70     		strb	r2, [r3]
 275              		.loc 1 158 0
 276 015c 0123     		movs	r3, #1
 277              	.L17:
 278              		.loc 1 159 0
 279 015e 1846     		mov	r0, r3
 280 0160 03B0     		add	sp, sp, #12
 281              		@ sp needed
ARM GAS  /tmp/ccVYwGiK.s 			page 6


 282 0162 5DF804FB 		ldr	pc, [sp], #4
 283              		.cfi_endproc
 284              	.LFE4:
 285              		.size	LSM303AGR_ACC_R_BlockDataUpdate, .-LSM303AGR_ACC_R_BlockDataUpdate
 286 0166 00BF     		.align	2
 287 0168 AFF30080 		.p2align 4,,15
 287      AFF30080 
 288              		.global	LSM303AGR_ACC_W_FullScale
 289              		.thumb
 290              		.thumb_func
 291              		.type	LSM303AGR_ACC_W_FullScale, %function
 292              	LSM303AGR_ACC_W_FullScale:
 293              	.LFB5:
 294              		.loc 1 169 0
 295              		.cfi_startproc
 296              		@ args = 0, pretend = 0, frame = 16
 297              		@ frame_needed = 0, uses_anonymous_args = 0
 298 0170 00B5     		push	{lr}
 299              		.cfi_def_cfa_offset 4
 300              		.cfi_offset 14, -4
 301 0172 85B0     		sub	sp, sp, #20
 302              		.cfi_def_cfa_offset 24
 303 0174 0190     		str	r0, [sp, #4]
 304 0176 0B46     		mov	r3, r1
 305 0178 8DF80330 		strb	r3, [sp, #3]
 306              		.loc 1 172 0
 307 017c 0DF10F03 		add	r3, sp, #15
 308 0180 0198     		ldr	r0, [sp, #4]
 309 0182 2321     		movs	r1, #35
 310 0184 1A46     		mov	r2, r3
 311 0186 0123     		movs	r3, #1
 312 0188 FFF7FEFF 		bl	LSM303AGR_ACC_ReadReg
 313 018c 0346     		mov	r3, r0
 314 018e 002B     		cmp	r3, #0
 315 0190 01D1     		bne	.L19
 316              		.loc 1 173 0
 317 0192 0023     		movs	r3, #0
 318 0194 1CE0     		b	.L22
 319              	.L19:
 320              		.loc 1 175 0
 321 0196 9DF80F30 		ldrb	r3, [sp, #15]	@ zero_extendqisi2
 322 019a 23F03003 		bic	r3, r3, #48
 323 019e DBB2     		uxtb	r3, r3
 324 01a0 8DF80F30 		strb	r3, [sp, #15]
 325              		.loc 1 176 0
 326 01a4 9DF80F20 		ldrb	r2, [sp, #15]	@ zero_extendqisi2
 327 01a8 9DF80330 		ldrb	r3, [sp, #3]
 328 01ac 1343     		orrs	r3, r3, r2
 329 01ae DBB2     		uxtb	r3, r3
 330 01b0 8DF80F30 		strb	r3, [sp, #15]
 331              		.loc 1 178 0
 332 01b4 0DF10F03 		add	r3, sp, #15
 333 01b8 0198     		ldr	r0, [sp, #4]
 334 01ba 2321     		movs	r1, #35
 335 01bc 1A46     		mov	r2, r3
 336 01be 0123     		movs	r3, #1
 337 01c0 FFF7FEFF 		bl	LSM303AGR_ACC_WriteReg
ARM GAS  /tmp/ccVYwGiK.s 			page 7


 338 01c4 0346     		mov	r3, r0
 339 01c6 002B     		cmp	r3, #0
 340 01c8 01D1     		bne	.L21
 341              		.loc 1 179 0
 342 01ca 0023     		movs	r3, #0
 343 01cc 00E0     		b	.L22
 344              	.L21:
 345              		.loc 1 181 0
 346 01ce 0123     		movs	r3, #1
 347              	.L22:
 348              		.loc 1 182 0
 349 01d0 1846     		mov	r0, r3
 350 01d2 05B0     		add	sp, sp, #20
 351              		@ sp needed
 352 01d4 5DF804FB 		ldr	pc, [sp], #4
 353              		.cfi_endproc
 354              	.LFE5:
 355              		.size	LSM303AGR_ACC_W_FullScale, .-LSM303AGR_ACC_W_FullScale
 356              		.align	2
 357 01d8 AFF30080 		.p2align 4,,15
 357      AFF30080 
 358              		.global	LSM303AGR_ACC_R_FullScale
 359              		.thumb
 360              		.thumb_func
 361              		.type	LSM303AGR_ACC_R_FullScale, %function
 362              	LSM303AGR_ACC_R_FullScale:
 363              	.LFB6:
 364              		.loc 1 192 0
 365              		.cfi_startproc
 366              		@ args = 0, pretend = 0, frame = 8
 367              		@ frame_needed = 0, uses_anonymous_args = 0
 368 01e0 00B5     		push	{lr}
 369              		.cfi_def_cfa_offset 4
 370              		.cfi_offset 14, -4
 371 01e2 83B0     		sub	sp, sp, #12
 372              		.cfi_def_cfa_offset 16
 373 01e4 0190     		str	r0, [sp, #4]
 374 01e6 0091     		str	r1, [sp]
 375              		.loc 1 193 0
 376 01e8 0198     		ldr	r0, [sp, #4]
 377 01ea 2321     		movs	r1, #35
 378 01ec 009A     		ldr	r2, [sp]
 379 01ee 0123     		movs	r3, #1
 380 01f0 FFF7FEFF 		bl	LSM303AGR_ACC_ReadReg
 381 01f4 0346     		mov	r3, r0
 382 01f6 002B     		cmp	r3, #0
 383 01f8 01D1     		bne	.L24
 384              		.loc 1 194 0
 385 01fa 0023     		movs	r3, #0
 386 01fc 07E0     		b	.L25
 387              	.L24:
 388              		.loc 1 196 0
 389 01fe 009B     		ldr	r3, [sp]
 390 0200 1B78     		ldrb	r3, [r3]	@ zero_extendqisi2
 391 0202 03F03003 		and	r3, r3, #48
 392 0206 DAB2     		uxtb	r2, r3
 393 0208 009B     		ldr	r3, [sp]
ARM GAS  /tmp/ccVYwGiK.s 			page 8


 394 020a 1A70     		strb	r2, [r3]
 395              		.loc 1 198 0
 396 020c 0123     		movs	r3, #1
 397              	.L25:
 398              		.loc 1 199 0
 399 020e 1846     		mov	r0, r3
 400 0210 03B0     		add	sp, sp, #12
 401              		@ sp needed
 402 0212 5DF804FB 		ldr	pc, [sp], #4
 403              		.cfi_endproc
 404              	.LFE6:
 405              		.size	LSM303AGR_ACC_R_FullScale, .-LSM303AGR_ACC_R_FullScale
 406 0216 00BF     		.align	2
 407 0218 AFF30080 		.p2align 4,,15
 407      AFF30080 
 408              		.global	LSM303AGR_ACC_Get_Raw_Acceleration
 409              		.thumb
 410              		.thumb_func
 411              		.type	LSM303AGR_ACC_Get_Raw_Acceleration, %function
 412              	LSM303AGR_ACC_Get_Raw_Acceleration:
 413              	.LFB7:
 414              		.loc 1 209 0
 415              		.cfi_startproc
 416              		@ args = 0, pretend = 0, frame = 8
 417              		@ frame_needed = 0, uses_anonymous_args = 0
 418 0220 00B5     		push	{lr}
 419              		.cfi_def_cfa_offset 4
 420              		.cfi_offset 14, -4
 421 0222 83B0     		sub	sp, sp, #12
 422              		.cfi_def_cfa_offset 16
 423 0224 0190     		str	r0, [sp, #4]
 424 0226 0091     		str	r1, [sp]
 425              		.loc 1 210 0
 426 0228 0198     		ldr	r0, [sp, #4]
 427 022a 2821     		movs	r1, #40
 428 022c 009A     		ldr	r2, [sp]
 429 022e 0623     		movs	r3, #6
 430 0230 FFF7FEFF 		bl	LSM303AGR_ACC_ReadReg
 431 0234 0346     		mov	r3, r0
 432 0236 002B     		cmp	r3, #0
 433 0238 01D1     		bne	.L27
 434              		.loc 1 211 0
 435 023a 0023     		movs	r3, #0
 436 023c 00E0     		b	.L28
 437              	.L27:
 438              		.loc 1 213 0
 439 023e 0123     		movs	r3, #1
 440              	.L28:
 441              		.loc 1 214 0
 442 0240 1846     		mov	r0, r3
 443 0242 03B0     		add	sp, sp, #12
 444              		@ sp needed
 445 0244 5DF804FB 		ldr	pc, [sp], #4
 446              		.cfi_endproc
 447              	.LFE7:
 448              		.size	LSM303AGR_ACC_Get_Raw_Acceleration, .-LSM303AGR_ACC_Get_Raw_Acceleration
 449              		.global	LSM303AGR_ACC_Sensitivity_List
ARM GAS  /tmp/ccVYwGiK.s 			page 9


 450              		.section	.rodata
 451              		.align	3
 452              		.type	LSM303AGR_ACC_Sensitivity_List, %object
 453              		.size	LSM303AGR_ACC_Sensitivity_List, 96
 454              	LSM303AGR_ACC_Sensitivity_List:
 455 0000 D4030000 		.word	980
 456 0004 00000000 		.word	0
 457 0008 9E070000 		.word	1950
 458 000c 00000000 		.word	0
 459 0010 3C0F0000 		.word	3900
 460 0014 00000000 		.word	0
 461 0018 C82D0000 		.word	11720
 462 001c 00000000 		.word	0
 463 0020 3C0F0000 		.word	3900
 464 0024 00000000 		.word	0
 465 0028 8C1E0000 		.word	7820
 466 002c 00000000 		.word	0
 467 0030 0E3D0000 		.word	15630
 468 0034 00000000 		.word	0
 469 0038 34B70000 		.word	46900
 470 003c 00000000 		.word	0
 471 0040 0E3D0000 		.word	15630
 472 0044 00000000 		.word	0
 473 0048 1C7A0000 		.word	31260
 474 004c 00000000 		.word	0
 475 0050 38F40000 		.word	62520
 476 0054 00000000 		.word	0
 477 0058 BCDC0200 		.word	187580
 478 005c 00000000 		.word	0
 479              		.global	__aeabi_ldivmod
 480              		.text
 481              		.align	2
 482 0248 AFF30080 		.p2align 4,,15
 482      AFF30080 
 483              		.global	LSM303AGR_ACC_Get_Acceleration
 484              		.thumb
 485              		.thumb_func
 486              		.type	LSM303AGR_ACC_Get_Acceleration, %function
 487              	LSM303AGR_ACC_Get_Acceleration:
 488              	.LFB8:
 489              		.loc 1 254 0
 490              		.cfi_startproc
 491              		@ args = 0, pretend = 0, frame = 24
 492              		@ frame_needed = 0, uses_anonymous_args = 0
 493 0250 70B5     		push	{r4, r5, r6, lr}
 494              		.cfi_def_cfa_offset 16
 495              		.cfi_offset 4, -16
 496              		.cfi_offset 5, -12
 497              		.cfi_offset 6, -8
 498              		.cfi_offset 14, -4
 499 0252 86B0     		sub	sp, sp, #24
 500              		.cfi_def_cfa_offset 40
 501 0254 0190     		str	r0, [sp, #4]
 502 0256 0091     		str	r1, [sp]
 503              		.loc 1 256 0
 504 0258 0023     		movs	r3, #0
 505 025a 8DF81730 		strb	r3, [sp, #23]
ARM GAS  /tmp/ccVYwGiK.s 			page 10


 506 025e 0023     		movs	r3, #0
 507 0260 8DF81630 		strb	r3, [sp, #22]
 508 0264 0023     		movs	r3, #0
 509 0266 8DF81530 		strb	r3, [sp, #21]
 510              		.loc 1 262 0
 511 026a 0DF10A03 		add	r3, sp, #10
 512 026e 0198     		ldr	r0, [sp, #4]
 513 0270 1946     		mov	r1, r3
 514 0272 FFF7FEFF 		bl	LSM303AGR_ACC_R_HiRes
 515              		.loc 1 263 0
 516 0276 0DF10B03 		add	r3, sp, #11
 517 027a 0198     		ldr	r0, [sp, #4]
 518 027c 1946     		mov	r1, r3
 519 027e FFF7FEFF 		bl	LSM303AGR_ACC_R_LOWPWR_EN
 520              		.loc 1 265 0
 521 0282 9DF80B30 		ldrb	r3, [sp, #11]	@ zero_extendqisi2
 522 0286 082B     		cmp	r3, #8
 523 0288 0AD1     		bne	.L30
 524              		.loc 1 265 0 is_stmt 0 discriminator 1
 525 028a 9DF80A30 		ldrb	r3, [sp, #10]	@ zero_extendqisi2
 526 028e 002B     		cmp	r3, #0
 527 0290 06D1     		bne	.L30
 528              		.loc 1 268 0 is_stmt 1
 529 0292 0223     		movs	r3, #2
 530 0294 8DF81730 		strb	r3, [sp, #23]
 531              		.loc 1 269 0
 532 0298 0823     		movs	r3, #8
 533 029a 8DF81530 		strb	r3, [sp, #21]
 534 029e 1FE0     		b	.L31
 535              	.L30:
 536              		.loc 1 271 0
 537 02a0 9DF80B30 		ldrb	r3, [sp, #11]	@ zero_extendqisi2
 538 02a4 002B     		cmp	r3, #0
 539 02a6 0AD1     		bne	.L32
 540              		.loc 1 271 0 is_stmt 0 discriminator 1
 541 02a8 9DF80A30 		ldrb	r3, [sp, #10]	@ zero_extendqisi2
 542 02ac 002B     		cmp	r3, #0
 543 02ae 06D1     		bne	.L32
 544              		.loc 1 274 0 is_stmt 1
 545 02b0 0123     		movs	r3, #1
 546 02b2 8DF81730 		strb	r3, [sp, #23]
 547              		.loc 1 275 0
 548 02b6 0623     		movs	r3, #6
 549 02b8 8DF81530 		strb	r3, [sp, #21]
 550 02bc 10E0     		b	.L31
 551              	.L32:
 552              		.loc 1 277 0
 553 02be 9DF80B30 		ldrb	r3, [sp, #11]	@ zero_extendqisi2
 554 02c2 002B     		cmp	r3, #0
 555 02c4 0AD1     		bne	.L33
 556              		.loc 1 277 0 is_stmt 0 discriminator 1
 557 02c6 9DF80A30 		ldrb	r3, [sp, #10]	@ zero_extendqisi2
 558 02ca 082B     		cmp	r3, #8
 559 02cc 06D1     		bne	.L33
 560              		.loc 1 280 0 is_stmt 1
 561 02ce 0023     		movs	r3, #0
 562 02d0 8DF81730 		strb	r3, [sp, #23]
ARM GAS  /tmp/ccVYwGiK.s 			page 11


 563              		.loc 1 281 0
 564 02d4 0423     		movs	r3, #4
 565 02d6 8DF81530 		strb	r3, [sp, #21]
 566 02da 01E0     		b	.L31
 567              	.L33:
 568              		.loc 1 284 0
 569 02dc 0023     		movs	r3, #0
 570 02de B8E0     		b	.L41
 571              	.L31:
 572              		.loc 1 287 0
 573 02e0 0DF10903 		add	r3, sp, #9
 574 02e4 0198     		ldr	r0, [sp, #4]
 575 02e6 1946     		mov	r1, r3
 576 02e8 FFF7FEFF 		bl	LSM303AGR_ACC_R_FullScale
 577              		.loc 1 288 0
 578 02ec 9DF80930 		ldrb	r3, [sp, #9]	@ zero_extendqisi2
 579 02f0 102B     		cmp	r3, #16
 580 02f2 0DD0     		beq	.L36
 581 02f4 102B     		cmp	r3, #16
 582 02f6 02DC     		bgt	.L37
 583 02f8 002B     		cmp	r3, #0
 584 02fa 05D0     		beq	.L38
 585 02fc 14E0     		b	.L35
 586              	.L37:
 587 02fe 202B     		cmp	r3, #32
 588 0300 0AD0     		beq	.L39
 589 0302 302B     		cmp	r3, #48
 590 0304 0CD0     		beq	.L40
 591 0306 0FE0     		b	.L35
 592              	.L38:
 593              		.loc 1 291 0
 594 0308 0023     		movs	r3, #0
 595 030a 8DF81630 		strb	r3, [sp, #22]
 596              		.loc 1 292 0
 597 030e 0BE0     		b	.L35
 598              	.L36:
 599              		.loc 1 295 0
 600 0310 0123     		movs	r3, #1
 601 0312 8DF81630 		strb	r3, [sp, #22]
 602              		.loc 1 296 0
 603 0316 07E0     		b	.L35
 604              	.L39:
 605              		.loc 1 299 0
 606 0318 0223     		movs	r3, #2
 607 031a 8DF81630 		strb	r3, [sp, #22]
 608              		.loc 1 300 0
 609 031e 03E0     		b	.L35
 610              	.L40:
 611              		.loc 1 303 0
 612 0320 0323     		movs	r3, #3
 613 0322 8DF81630 		strb	r3, [sp, #22]
 614              		.loc 1 304 0
 615 0326 00BF     		nop
 616              	.L35:
 617              		.loc 1 308 0
 618 0328 03AB     		add	r3, sp, #12
 619 032a 0198     		ldr	r0, [sp, #4]
ARM GAS  /tmp/ccVYwGiK.s 			page 12


 620 032c 1946     		mov	r1, r3
 621 032e FFF7FEFF 		bl	LSM303AGR_ACC_Get_Raw_Acceleration
 622              		.loc 1 311 0
 623 0332 BDF80C30 		ldrh	r3, [sp, #12]
 624 0336 1AB2     		sxth	r2, r3
 625 0338 9DF81530 		ldrb	r3, [sp, #21]	@ zero_extendqisi2
 626 033c 42FA03F3 		asr	r3, r2, r3
 627 0340 1846     		mov	r0, r3
 628 0342 4FEAE071 		asr	r1, r0, #31
 629 0346 9DF81740 		ldrb	r4, [sp, #23]	@ zero_extendqisi2
 630 034a 9DF81630 		ldrb	r3, [sp, #22]	@ zero_extendqisi2
 631 034e 424A     		ldr	r2, .L42
 632 0350 A400     		lsls	r4, r4, #2
 633 0352 2344     		add	r3, r3, r4
 634 0354 DB00     		lsls	r3, r3, #3
 635 0356 1344     		add	r3, r3, r2
 636 0358 D3E90023 		ldrd	r2, [r3]
 637 035c 02FB01F5 		mul	r5, r2, r1
 638 0360 00FB03F4 		mul	r4, r0, r3
 639 0364 2C44     		add	r4, r4, r5
 640 0366 A0FB0223 		umull	r2, r3, r0, r2
 641 036a E118     		adds	r1, r4, r3
 642 036c 0B46     		mov	r3, r1
 643 036e 12F5FA72 		adds	r2, r2, #500
 644 0372 43F10003 		adc	r3, r3, #0
 645 0376 1046     		mov	r0, r2
 646 0378 1946     		mov	r1, r3
 647 037a 4FF47A72 		mov	r2, #1000
 648 037e 4FF00003 		mov	r3, #0
 649 0382 FFF7FEFF 		bl	__aeabi_ldivmod
 650 0386 0246     		mov	r2, r0
 651 0388 0B46     		mov	r3, r1
 652 038a 009B     		ldr	r3, [sp]
 653 038c 1A60     		str	r2, [r3]
 654              		.loc 1 312 0
 655 038e 009B     		ldr	r3, [sp]
 656 0390 1C1D     		adds	r4, r3, #4
 657 0392 BDF80E30 		ldrh	r3, [sp, #14]
 658 0396 1AB2     		sxth	r2, r3
 659 0398 9DF81530 		ldrb	r3, [sp, #21]	@ zero_extendqisi2
 660 039c 42FA03F3 		asr	r3, r2, r3
 661 03a0 1846     		mov	r0, r3
 662 03a2 4FEAE071 		asr	r1, r0, #31
 663 03a6 9DF81750 		ldrb	r5, [sp, #23]	@ zero_extendqisi2
 664 03aa 9DF81630 		ldrb	r3, [sp, #22]	@ zero_extendqisi2
 665 03ae 2A4A     		ldr	r2, .L42
 666 03b0 AD00     		lsls	r5, r5, #2
 667 03b2 2B44     		add	r3, r3, r5
 668 03b4 DB00     		lsls	r3, r3, #3
 669 03b6 1344     		add	r3, r3, r2
 670 03b8 D3E90023 		ldrd	r2, [r3]
 671 03bc 02FB01F6 		mul	r6, r2, r1
 672 03c0 00FB03F5 		mul	r5, r0, r3
 673 03c4 3544     		add	r5, r5, r6
 674 03c6 A0FB0223 		umull	r2, r3, r0, r2
 675 03ca E918     		adds	r1, r5, r3
 676 03cc 0B46     		mov	r3, r1
ARM GAS  /tmp/ccVYwGiK.s 			page 13


 677 03ce 12F5FA72 		adds	r2, r2, #500
 678 03d2 43F10003 		adc	r3, r3, #0
 679 03d6 1046     		mov	r0, r2
 680 03d8 1946     		mov	r1, r3
 681 03da 4FF47A72 		mov	r2, #1000
 682 03de 4FF00003 		mov	r3, #0
 683 03e2 FFF7FEFF 		bl	__aeabi_ldivmod
 684 03e6 0246     		mov	r2, r0
 685 03e8 0B46     		mov	r3, r1
 686 03ea 1346     		mov	r3, r2
 687 03ec 2360     		str	r3, [r4]
 688              		.loc 1 313 0
 689 03ee 009B     		ldr	r3, [sp]
 690 03f0 03F10804 		add	r4, r3, #8
 691 03f4 BDF81030 		ldrh	r3, [sp, #16]
 692 03f8 1AB2     		sxth	r2, r3
 693 03fa 9DF81530 		ldrb	r3, [sp, #21]	@ zero_extendqisi2
 694 03fe 42FA03F3 		asr	r3, r2, r3
 695 0402 1846     		mov	r0, r3
 696 0404 4FEAE071 		asr	r1, r0, #31
 697 0408 9DF81750 		ldrb	r5, [sp, #23]	@ zero_extendqisi2
 698 040c 9DF81630 		ldrb	r3, [sp, #22]	@ zero_extendqisi2
 699 0410 114A     		ldr	r2, .L42
 700 0412 AD00     		lsls	r5, r5, #2
 701 0414 2B44     		add	r3, r3, r5
 702 0416 DB00     		lsls	r3, r3, #3
 703 0418 1344     		add	r3, r3, r2
 704 041a D3E90023 		ldrd	r2, [r3]
 705 041e 02FB01F6 		mul	r6, r2, r1
 706 0422 00FB03F5 		mul	r5, r0, r3
 707 0426 3544     		add	r5, r5, r6
 708 0428 A0FB0223 		umull	r2, r3, r0, r2
 709 042c E918     		adds	r1, r5, r3
 710 042e 0B46     		mov	r3, r1
 711 0430 12F5FA72 		adds	r2, r2, #500
 712 0434 43F10003 		adc	r3, r3, #0
 713 0438 1046     		mov	r0, r2
 714 043a 1946     		mov	r1, r3
 715 043c 4FF47A72 		mov	r2, #1000
 716 0440 4FF00003 		mov	r3, #0
 717 0444 FFF7FEFF 		bl	__aeabi_ldivmod
 718 0448 0246     		mov	r2, r0
 719 044a 0B46     		mov	r3, r1
 720 044c 1346     		mov	r3, r2
 721 044e 2360     		str	r3, [r4]
 722              		.loc 1 315 0
 723 0450 0123     		movs	r3, #1
 724              	.L41:
 725              		.loc 1 316 0
 726 0452 1846     		mov	r0, r3
 727 0454 06B0     		add	sp, sp, #24
 728              		@ sp needed
 729 0456 70BD     		pop	{r4, r5, r6, pc}
 730              	.L43:
 731              		.align	2
 732              	.L42:
 733 0458 00000000 		.word	LSM303AGR_ACC_Sensitivity_List
ARM GAS  /tmp/ccVYwGiK.s 			page 14


 734              		.cfi_endproc
 735              	.LFE8:
 736              		.size	LSM303AGR_ACC_Get_Acceleration, .-LSM303AGR_ACC_Get_Acceleration
 737              		.align	2
 738 045c AFF30080 		.p2align 4,,15
 739              		.global	LSM303AGR_ACC_W_ODR
 740              		.thumb
 741              		.thumb_func
 742              		.type	LSM303AGR_ACC_W_ODR, %function
 743              	LSM303AGR_ACC_W_ODR:
 744              	.LFB9:
 745              		.loc 1 326 0
 746              		.cfi_startproc
 747              		@ args = 0, pretend = 0, frame = 16
 748              		@ frame_needed = 0, uses_anonymous_args = 0
 749 0460 00B5     		push	{lr}
 750              		.cfi_def_cfa_offset 4
 751              		.cfi_offset 14, -4
 752 0462 85B0     		sub	sp, sp, #20
 753              		.cfi_def_cfa_offset 24
 754 0464 0190     		str	r0, [sp, #4]
 755 0466 0B46     		mov	r3, r1
 756 0468 8DF80330 		strb	r3, [sp, #3]
 757              		.loc 1 329 0
 758 046c 0DF10F03 		add	r3, sp, #15
 759 0470 0198     		ldr	r0, [sp, #4]
 760 0472 2021     		movs	r1, #32
 761 0474 1A46     		mov	r2, r3
 762 0476 0123     		movs	r3, #1
 763 0478 FFF7FEFF 		bl	LSM303AGR_ACC_ReadReg
 764 047c 0346     		mov	r3, r0
 765 047e 002B     		cmp	r3, #0
 766 0480 01D1     		bne	.L45
 767              		.loc 1 330 0
 768 0482 0023     		movs	r3, #0
 769 0484 1CE0     		b	.L48
 770              	.L45:
 771              		.loc 1 332 0
 772 0486 9DF80F30 		ldrb	r3, [sp, #15]	@ zero_extendqisi2
 773 048a 03F00F03 		and	r3, r3, #15
 774 048e DBB2     		uxtb	r3, r3
 775 0490 8DF80F30 		strb	r3, [sp, #15]
 776              		.loc 1 333 0
 777 0494 9DF80F20 		ldrb	r2, [sp, #15]	@ zero_extendqisi2
 778 0498 9DF80330 		ldrb	r3, [sp, #3]
 779 049c 1343     		orrs	r3, r3, r2
 780 049e DBB2     		uxtb	r3, r3
 781 04a0 8DF80F30 		strb	r3, [sp, #15]
 782              		.loc 1 335 0
 783 04a4 0DF10F03 		add	r3, sp, #15
 784 04a8 0198     		ldr	r0, [sp, #4]
 785 04aa 2021     		movs	r1, #32
 786 04ac 1A46     		mov	r2, r3
 787 04ae 0123     		movs	r3, #1
 788 04b0 FFF7FEFF 		bl	LSM303AGR_ACC_WriteReg
 789 04b4 0346     		mov	r3, r0
 790 04b6 002B     		cmp	r3, #0
ARM GAS  /tmp/ccVYwGiK.s 			page 15


 791 04b8 01D1     		bne	.L47
 792              		.loc 1 336 0
 793 04ba 0023     		movs	r3, #0
 794 04bc 00E0     		b	.L48
 795              	.L47:
 796              		.loc 1 338 0
 797 04be 0123     		movs	r3, #1
 798              	.L48:
 799              		.loc 1 339 0
 800 04c0 1846     		mov	r0, r3
 801 04c2 05B0     		add	sp, sp, #20
 802              		@ sp needed
 803 04c4 5DF804FB 		ldr	pc, [sp], #4
 804              		.cfi_endproc
 805              	.LFE9:
 806              		.size	LSM303AGR_ACC_W_ODR, .-LSM303AGR_ACC_W_ODR
 807              		.align	2
 808 04c8 AFF30080 		.p2align 4,,15
 808      AFF30080 
 809              		.global	LSM303AGR_ACC_R_ODR
 810              		.thumb
 811              		.thumb_func
 812              		.type	LSM303AGR_ACC_R_ODR, %function
 813              	LSM303AGR_ACC_R_ODR:
 814              	.LFB10:
 815              		.loc 1 349 0
 816              		.cfi_startproc
 817              		@ args = 0, pretend = 0, frame = 8
 818              		@ frame_needed = 0, uses_anonymous_args = 0
 819 04d0 00B5     		push	{lr}
 820              		.cfi_def_cfa_offset 4
 821              		.cfi_offset 14, -4
 822 04d2 83B0     		sub	sp, sp, #12
 823              		.cfi_def_cfa_offset 16
 824 04d4 0190     		str	r0, [sp, #4]
 825 04d6 0091     		str	r1, [sp]
 826              		.loc 1 350 0
 827 04d8 0198     		ldr	r0, [sp, #4]
 828 04da 2021     		movs	r1, #32
 829 04dc 009A     		ldr	r2, [sp]
 830 04de 0123     		movs	r3, #1
 831 04e0 FFF7FEFF 		bl	LSM303AGR_ACC_ReadReg
 832 04e4 0346     		mov	r3, r0
 833 04e6 002B     		cmp	r3, #0
 834 04e8 01D1     		bne	.L50
 835              		.loc 1 351 0
 836 04ea 0023     		movs	r3, #0
 837 04ec 07E0     		b	.L51
 838              	.L50:
 839              		.loc 1 353 0
 840 04ee 009B     		ldr	r3, [sp]
 841 04f0 1B78     		ldrb	r3, [r3]	@ zero_extendqisi2
 842 04f2 23F00F03 		bic	r3, r3, #15
 843 04f6 DAB2     		uxtb	r2, r3
 844 04f8 009B     		ldr	r3, [sp]
 845 04fa 1A70     		strb	r2, [r3]
 846              		.loc 1 355 0
ARM GAS  /tmp/ccVYwGiK.s 			page 16


 847 04fc 0123     		movs	r3, #1
 848              	.L51:
 849              		.loc 1 356 0
 850 04fe 1846     		mov	r0, r3
 851 0500 03B0     		add	sp, sp, #12
 852              		@ sp needed
 853 0502 5DF804FB 		ldr	pc, [sp], #4
 854              		.cfi_endproc
 855              	.LFE10:
 856              		.size	LSM303AGR_ACC_R_ODR, .-LSM303AGR_ACC_R_ODR
 857 0506 00BF     		.align	2
 858 0508 AFF30080 		.p2align 4,,15
 858      AFF30080 
 859              		.global	LSM303AGR_ACC_R_x_data_avail
 860              		.thumb
 861              		.thumb_func
 862              		.type	LSM303AGR_ACC_R_x_data_avail, %function
 863              	LSM303AGR_ACC_R_x_data_avail:
 864              	.LFB11:
 865              		.loc 1 368 0
 866              		.cfi_startproc
 867              		@ args = 0, pretend = 0, frame = 8
 868              		@ frame_needed = 0, uses_anonymous_args = 0
 869 0510 00B5     		push	{lr}
 870              		.cfi_def_cfa_offset 4
 871              		.cfi_offset 14, -4
 872 0512 83B0     		sub	sp, sp, #12
 873              		.cfi_def_cfa_offset 16
 874 0514 0190     		str	r0, [sp, #4]
 875 0516 0091     		str	r1, [sp]
 876              		.loc 1 369 0
 877 0518 0198     		ldr	r0, [sp, #4]
 878 051a 0721     		movs	r1, #7
 879 051c 009A     		ldr	r2, [sp]
 880 051e 0123     		movs	r3, #1
 881 0520 FFF7FEFF 		bl	LSM303AGR_ACC_ReadReg
 882 0524 0346     		mov	r3, r0
 883 0526 002B     		cmp	r3, #0
 884 0528 01D1     		bne	.L53
 885              		.loc 1 370 0
 886 052a 0023     		movs	r3, #0
 887 052c 07E0     		b	.L54
 888              	.L53:
 889              		.loc 1 372 0
 890 052e 009B     		ldr	r3, [sp]
 891 0530 1B78     		ldrb	r3, [r3]	@ zero_extendqisi2
 892 0532 03F00103 		and	r3, r3, #1
 893 0536 DAB2     		uxtb	r2, r3
 894 0538 009B     		ldr	r3, [sp]
 895 053a 1A70     		strb	r2, [r3]
 896              		.loc 1 374 0
 897 053c 0123     		movs	r3, #1
 898              	.L54:
 899              		.loc 1 375 0
 900 053e 1846     		mov	r0, r3
 901 0540 03B0     		add	sp, sp, #12
 902              		@ sp needed
ARM GAS  /tmp/ccVYwGiK.s 			page 17


 903 0542 5DF804FB 		ldr	pc, [sp], #4
 904              		.cfi_endproc
 905              	.LFE11:
 906              		.size	LSM303AGR_ACC_R_x_data_avail, .-LSM303AGR_ACC_R_x_data_avail
 907 0546 00BF     		.align	2
 908 0548 AFF30080 		.p2align 4,,15
 908      AFF30080 
 909              		.global	LSM303AGR_ACC_R_y_data_avail
 910              		.thumb
 911              		.thumb_func
 912              		.type	LSM303AGR_ACC_R_y_data_avail, %function
 913              	LSM303AGR_ACC_R_y_data_avail:
 914              	.LFB12:
 915              		.loc 1 385 0
 916              		.cfi_startproc
 917              		@ args = 0, pretend = 0, frame = 8
 918              		@ frame_needed = 0, uses_anonymous_args = 0
 919 0550 00B5     		push	{lr}
 920              		.cfi_def_cfa_offset 4
 921              		.cfi_offset 14, -4
 922 0552 83B0     		sub	sp, sp, #12
 923              		.cfi_def_cfa_offset 16
 924 0554 0190     		str	r0, [sp, #4]
 925 0556 0091     		str	r1, [sp]
 926              		.loc 1 386 0
 927 0558 0198     		ldr	r0, [sp, #4]
 928 055a 0721     		movs	r1, #7
 929 055c 009A     		ldr	r2, [sp]
 930 055e 0123     		movs	r3, #1
 931 0560 FFF7FEFF 		bl	LSM303AGR_ACC_ReadReg
 932 0564 0346     		mov	r3, r0
 933 0566 002B     		cmp	r3, #0
 934 0568 01D1     		bne	.L56
 935              		.loc 1 387 0
 936 056a 0023     		movs	r3, #0
 937 056c 07E0     		b	.L57
 938              	.L56:
 939              		.loc 1 389 0
 940 056e 009B     		ldr	r3, [sp]
 941 0570 1B78     		ldrb	r3, [r3]	@ zero_extendqisi2
 942 0572 03F00203 		and	r3, r3, #2
 943 0576 DAB2     		uxtb	r2, r3
 944 0578 009B     		ldr	r3, [sp]
 945 057a 1A70     		strb	r2, [r3]
 946              		.loc 1 391 0
 947 057c 0123     		movs	r3, #1
 948              	.L57:
 949              		.loc 1 392 0
 950 057e 1846     		mov	r0, r3
 951 0580 03B0     		add	sp, sp, #12
 952              		@ sp needed
 953 0582 5DF804FB 		ldr	pc, [sp], #4
 954              		.cfi_endproc
 955              	.LFE12:
 956              		.size	LSM303AGR_ACC_R_y_data_avail, .-LSM303AGR_ACC_R_y_data_avail
 957 0586 00BF     		.align	2
 958 0588 AFF30080 		.p2align 4,,15
ARM GAS  /tmp/ccVYwGiK.s 			page 18


 958      AFF30080 
 959              		.global	LSM303AGR_ACC_R_z_data_avail
 960              		.thumb
 961              		.thumb_func
 962              		.type	LSM303AGR_ACC_R_z_data_avail, %function
 963              	LSM303AGR_ACC_R_z_data_avail:
 964              	.LFB13:
 965              		.loc 1 402 0
 966              		.cfi_startproc
 967              		@ args = 0, pretend = 0, frame = 8
 968              		@ frame_needed = 0, uses_anonymous_args = 0
 969 0590 00B5     		push	{lr}
 970              		.cfi_def_cfa_offset 4
 971              		.cfi_offset 14, -4
 972 0592 83B0     		sub	sp, sp, #12
 973              		.cfi_def_cfa_offset 16
 974 0594 0190     		str	r0, [sp, #4]
 975 0596 0091     		str	r1, [sp]
 976              		.loc 1 403 0
 977 0598 0198     		ldr	r0, [sp, #4]
 978 059a 0721     		movs	r1, #7
 979 059c 009A     		ldr	r2, [sp]
 980 059e 0123     		movs	r3, #1
 981 05a0 FFF7FEFF 		bl	LSM303AGR_ACC_ReadReg
 982 05a4 0346     		mov	r3, r0
 983 05a6 002B     		cmp	r3, #0
 984 05a8 01D1     		bne	.L59
 985              		.loc 1 404 0
 986 05aa 0023     		movs	r3, #0
 987 05ac 07E0     		b	.L60
 988              	.L59:
 989              		.loc 1 406 0
 990 05ae 009B     		ldr	r3, [sp]
 991 05b0 1B78     		ldrb	r3, [r3]	@ zero_extendqisi2
 992 05b2 03F00403 		and	r3, r3, #4
 993 05b6 DAB2     		uxtb	r2, r3
 994 05b8 009B     		ldr	r3, [sp]
 995 05ba 1A70     		strb	r2, [r3]
 996              		.loc 1 408 0
 997 05bc 0123     		movs	r3, #1
 998              	.L60:
 999              		.loc 1 409 0
 1000 05be 1846     		mov	r0, r3
 1001 05c0 03B0     		add	sp, sp, #12
 1002              		@ sp needed
 1003 05c2 5DF804FB 		ldr	pc, [sp], #4
 1004              		.cfi_endproc
 1005              	.LFE13:
 1006              		.size	LSM303AGR_ACC_R_z_data_avail, .-LSM303AGR_ACC_R_z_data_avail
 1007 05c6 00BF     		.align	2
 1008 05c8 AFF30080 		.p2align 4,,15
 1008      AFF30080 
 1009              		.global	LSM303AGR_ACC_R_xyz_data_avail
 1010              		.thumb
 1011              		.thumb_func
 1012              		.type	LSM303AGR_ACC_R_xyz_data_avail, %function
 1013              	LSM303AGR_ACC_R_xyz_data_avail:
ARM GAS  /tmp/ccVYwGiK.s 			page 19


 1014              	.LFB14:
 1015              		.loc 1 419 0
 1016              		.cfi_startproc
 1017              		@ args = 0, pretend = 0, frame = 8
 1018              		@ frame_needed = 0, uses_anonymous_args = 0
 1019 05d0 00B5     		push	{lr}
 1020              		.cfi_def_cfa_offset 4
 1021              		.cfi_offset 14, -4
 1022 05d2 83B0     		sub	sp, sp, #12
 1023              		.cfi_def_cfa_offset 16
 1024 05d4 0190     		str	r0, [sp, #4]
 1025 05d6 0091     		str	r1, [sp]
 1026              		.loc 1 420 0
 1027 05d8 0198     		ldr	r0, [sp, #4]
 1028 05da 0721     		movs	r1, #7
 1029 05dc 009A     		ldr	r2, [sp]
 1030 05de 0123     		movs	r3, #1
 1031 05e0 FFF7FEFF 		bl	LSM303AGR_ACC_ReadReg
 1032 05e4 0346     		mov	r3, r0
 1033 05e6 002B     		cmp	r3, #0
 1034 05e8 01D1     		bne	.L62
 1035              		.loc 1 421 0
 1036 05ea 0023     		movs	r3, #0
 1037 05ec 07E0     		b	.L63
 1038              	.L62:
 1039              		.loc 1 423 0
 1040 05ee 009B     		ldr	r3, [sp]
 1041 05f0 1B78     		ldrb	r3, [r3]	@ zero_extendqisi2
 1042 05f2 03F00803 		and	r3, r3, #8
 1043 05f6 DAB2     		uxtb	r2, r3
 1044 05f8 009B     		ldr	r3, [sp]
 1045 05fa 1A70     		strb	r2, [r3]
 1046              		.loc 1 425 0
 1047 05fc 0123     		movs	r3, #1
 1048              	.L63:
 1049              		.loc 1 426 0
 1050 05fe 1846     		mov	r0, r3
 1051 0600 03B0     		add	sp, sp, #12
 1052              		@ sp needed
 1053 0602 5DF804FB 		ldr	pc, [sp], #4
 1054              		.cfi_endproc
 1055              	.LFE14:
 1056              		.size	LSM303AGR_ACC_R_xyz_data_avail, .-LSM303AGR_ACC_R_xyz_data_avail
 1057 0606 00BF     		.align	2
 1058 0608 AFF30080 		.p2align 4,,15
 1058      AFF30080 
 1059              		.global	LSM303AGR_ACC_R_DataXOverrun
 1060              		.thumb
 1061              		.thumb_func
 1062              		.type	LSM303AGR_ACC_R_DataXOverrun, %function
 1063              	LSM303AGR_ACC_R_DataXOverrun:
 1064              	.LFB15:
 1065              		.loc 1 436 0
 1066              		.cfi_startproc
 1067              		@ args = 0, pretend = 0, frame = 8
 1068              		@ frame_needed = 0, uses_anonymous_args = 0
 1069 0610 00B5     		push	{lr}
ARM GAS  /tmp/ccVYwGiK.s 			page 20


 1070              		.cfi_def_cfa_offset 4
 1071              		.cfi_offset 14, -4
 1072 0612 83B0     		sub	sp, sp, #12
 1073              		.cfi_def_cfa_offset 16
 1074 0614 0190     		str	r0, [sp, #4]
 1075 0616 0091     		str	r1, [sp]
 1076              		.loc 1 437 0
 1077 0618 0198     		ldr	r0, [sp, #4]
 1078 061a 0721     		movs	r1, #7
 1079 061c 009A     		ldr	r2, [sp]
 1080 061e 0123     		movs	r3, #1
 1081 0620 FFF7FEFF 		bl	LSM303AGR_ACC_ReadReg
 1082 0624 0346     		mov	r3, r0
 1083 0626 002B     		cmp	r3, #0
 1084 0628 01D1     		bne	.L65
 1085              		.loc 1 438 0
 1086 062a 0023     		movs	r3, #0
 1087 062c 07E0     		b	.L66
 1088              	.L65:
 1089              		.loc 1 440 0
 1090 062e 009B     		ldr	r3, [sp]
 1091 0630 1B78     		ldrb	r3, [r3]	@ zero_extendqisi2
 1092 0632 03F01003 		and	r3, r3, #16
 1093 0636 DAB2     		uxtb	r2, r3
 1094 0638 009B     		ldr	r3, [sp]
 1095 063a 1A70     		strb	r2, [r3]
 1096              		.loc 1 442 0
 1097 063c 0123     		movs	r3, #1
 1098              	.L66:
 1099              		.loc 1 443 0
 1100 063e 1846     		mov	r0, r3
 1101 0640 03B0     		add	sp, sp, #12
 1102              		@ sp needed
 1103 0642 5DF804FB 		ldr	pc, [sp], #4
 1104              		.cfi_endproc
 1105              	.LFE15:
 1106              		.size	LSM303AGR_ACC_R_DataXOverrun, .-LSM303AGR_ACC_R_DataXOverrun
 1107 0646 00BF     		.align	2
 1108 0648 AFF30080 		.p2align 4,,15
 1108      AFF30080 
 1109              		.global	LSM303AGR_ACC_R_DataYOverrun
 1110              		.thumb
 1111              		.thumb_func
 1112              		.type	LSM303AGR_ACC_R_DataYOverrun, %function
 1113              	LSM303AGR_ACC_R_DataYOverrun:
 1114              	.LFB16:
 1115              		.loc 1 453 0
 1116              		.cfi_startproc
 1117              		@ args = 0, pretend = 0, frame = 8
 1118              		@ frame_needed = 0, uses_anonymous_args = 0
 1119 0650 00B5     		push	{lr}
 1120              		.cfi_def_cfa_offset 4
 1121              		.cfi_offset 14, -4
 1122 0652 83B0     		sub	sp, sp, #12
 1123              		.cfi_def_cfa_offset 16
 1124 0654 0190     		str	r0, [sp, #4]
 1125 0656 0091     		str	r1, [sp]
ARM GAS  /tmp/ccVYwGiK.s 			page 21


 1126              		.loc 1 454 0
 1127 0658 0198     		ldr	r0, [sp, #4]
 1128 065a 0721     		movs	r1, #7
 1129 065c 009A     		ldr	r2, [sp]
 1130 065e 0123     		movs	r3, #1
 1131 0660 FFF7FEFF 		bl	LSM303AGR_ACC_ReadReg
 1132 0664 0346     		mov	r3, r0
 1133 0666 002B     		cmp	r3, #0
 1134 0668 01D1     		bne	.L68
 1135              		.loc 1 455 0
 1136 066a 0023     		movs	r3, #0
 1137 066c 07E0     		b	.L69
 1138              	.L68:
 1139              		.loc 1 457 0
 1140 066e 009B     		ldr	r3, [sp]
 1141 0670 1B78     		ldrb	r3, [r3]	@ zero_extendqisi2
 1142 0672 03F02003 		and	r3, r3, #32
 1143 0676 DAB2     		uxtb	r2, r3
 1144 0678 009B     		ldr	r3, [sp]
 1145 067a 1A70     		strb	r2, [r3]
 1146              		.loc 1 459 0
 1147 067c 0123     		movs	r3, #1
 1148              	.L69:
 1149              		.loc 1 460 0
 1150 067e 1846     		mov	r0, r3
 1151 0680 03B0     		add	sp, sp, #12
 1152              		@ sp needed
 1153 0682 5DF804FB 		ldr	pc, [sp], #4
 1154              		.cfi_endproc
 1155              	.LFE16:
 1156              		.size	LSM303AGR_ACC_R_DataYOverrun, .-LSM303AGR_ACC_R_DataYOverrun
 1157 0686 00BF     		.align	2
 1158 0688 AFF30080 		.p2align 4,,15
 1158      AFF30080 
 1159              		.global	LSM303AGR_ACC_R_DataZOverrun
 1160              		.thumb
 1161              		.thumb_func
 1162              		.type	LSM303AGR_ACC_R_DataZOverrun, %function
 1163              	LSM303AGR_ACC_R_DataZOverrun:
 1164              	.LFB17:
 1165              		.loc 1 470 0
 1166              		.cfi_startproc
 1167              		@ args = 0, pretend = 0, frame = 8
 1168              		@ frame_needed = 0, uses_anonymous_args = 0
 1169 0690 00B5     		push	{lr}
 1170              		.cfi_def_cfa_offset 4
 1171              		.cfi_offset 14, -4
 1172 0692 83B0     		sub	sp, sp, #12
 1173              		.cfi_def_cfa_offset 16
 1174 0694 0190     		str	r0, [sp, #4]
 1175 0696 0091     		str	r1, [sp]
 1176              		.loc 1 471 0
 1177 0698 0198     		ldr	r0, [sp, #4]
 1178 069a 0721     		movs	r1, #7
 1179 069c 009A     		ldr	r2, [sp]
 1180 069e 0123     		movs	r3, #1
 1181 06a0 FFF7FEFF 		bl	LSM303AGR_ACC_ReadReg
ARM GAS  /tmp/ccVYwGiK.s 			page 22


 1182 06a4 0346     		mov	r3, r0
 1183 06a6 002B     		cmp	r3, #0
 1184 06a8 01D1     		bne	.L71
 1185              		.loc 1 472 0
 1186 06aa 0023     		movs	r3, #0
 1187 06ac 07E0     		b	.L72
 1188              	.L71:
 1189              		.loc 1 474 0
 1190 06ae 009B     		ldr	r3, [sp]
 1191 06b0 1B78     		ldrb	r3, [r3]	@ zero_extendqisi2
 1192 06b2 03F04003 		and	r3, r3, #64
 1193 06b6 DAB2     		uxtb	r2, r3
 1194 06b8 009B     		ldr	r3, [sp]
 1195 06ba 1A70     		strb	r2, [r3]
 1196              		.loc 1 476 0
 1197 06bc 0123     		movs	r3, #1
 1198              	.L72:
 1199              		.loc 1 477 0
 1200 06be 1846     		mov	r0, r3
 1201 06c0 03B0     		add	sp, sp, #12
 1202              		@ sp needed
 1203 06c2 5DF804FB 		ldr	pc, [sp], #4
 1204              		.cfi_endproc
 1205              	.LFE17:
 1206              		.size	LSM303AGR_ACC_R_DataZOverrun, .-LSM303AGR_ACC_R_DataZOverrun
 1207 06c6 00BF     		.align	2
 1208 06c8 AFF30080 		.p2align 4,,15
 1208      AFF30080 
 1209              		.global	LSM303AGR_ACC_R_DataXYZOverrun
 1210              		.thumb
 1211              		.thumb_func
 1212              		.type	LSM303AGR_ACC_R_DataXYZOverrun, %function
 1213              	LSM303AGR_ACC_R_DataXYZOverrun:
 1214              	.LFB18:
 1215              		.loc 1 487 0
 1216              		.cfi_startproc
 1217              		@ args = 0, pretend = 0, frame = 8
 1218              		@ frame_needed = 0, uses_anonymous_args = 0
 1219 06d0 00B5     		push	{lr}
 1220              		.cfi_def_cfa_offset 4
 1221              		.cfi_offset 14, -4
 1222 06d2 83B0     		sub	sp, sp, #12
 1223              		.cfi_def_cfa_offset 16
 1224 06d4 0190     		str	r0, [sp, #4]
 1225 06d6 0091     		str	r1, [sp]
 1226              		.loc 1 488 0
 1227 06d8 0198     		ldr	r0, [sp, #4]
 1228 06da 0721     		movs	r1, #7
 1229 06dc 009A     		ldr	r2, [sp]
 1230 06de 0123     		movs	r3, #1
 1231 06e0 FFF7FEFF 		bl	LSM303AGR_ACC_ReadReg
 1232 06e4 0346     		mov	r3, r0
 1233 06e6 002B     		cmp	r3, #0
 1234 06e8 01D1     		bne	.L74
 1235              		.loc 1 489 0
 1236 06ea 0023     		movs	r3, #0
 1237 06ec 07E0     		b	.L75
ARM GAS  /tmp/ccVYwGiK.s 			page 23


 1238              	.L74:
 1239              		.loc 1 491 0
 1240 06ee 009B     		ldr	r3, [sp]
 1241 06f0 1B78     		ldrb	r3, [r3]	@ zero_extendqisi2
 1242 06f2 23F07F03 		bic	r3, r3, #127
 1243 06f6 DAB2     		uxtb	r2, r3
 1244 06f8 009B     		ldr	r3, [sp]
 1245 06fa 1A70     		strb	r2, [r3]
 1246              		.loc 1 493 0
 1247 06fc 0123     		movs	r3, #1
 1248              	.L75:
 1249              		.loc 1 494 0
 1250 06fe 1846     		mov	r0, r3
 1251 0700 03B0     		add	sp, sp, #12
 1252              		@ sp needed
 1253 0702 5DF804FB 		ldr	pc, [sp], #4
 1254              		.cfi_endproc
 1255              	.LFE18:
 1256              		.size	LSM303AGR_ACC_R_DataXYZOverrun, .-LSM303AGR_ACC_R_DataXYZOverrun
 1257 0706 00BF     		.align	2
 1258 0708 AFF30080 		.p2align 4,,15
 1258      AFF30080 
 1259              		.global	LSM303AGR_ACC_R_int_counter
 1260              		.thumb
 1261              		.thumb_func
 1262              		.type	LSM303AGR_ACC_R_int_counter, %function
 1263              	LSM303AGR_ACC_R_int_counter:
 1264              	.LFB19:
 1265              		.loc 1 504 0
 1266              		.cfi_startproc
 1267              		@ args = 0, pretend = 0, frame = 8
 1268              		@ frame_needed = 0, uses_anonymous_args = 0
 1269 0710 00B5     		push	{lr}
 1270              		.cfi_def_cfa_offset 4
 1271              		.cfi_offset 14, -4
 1272 0712 83B0     		sub	sp, sp, #12
 1273              		.cfi_def_cfa_offset 16
 1274 0714 0190     		str	r0, [sp, #4]
 1275 0716 0091     		str	r1, [sp]
 1276              		.loc 1 505 0
 1277 0718 0198     		ldr	r0, [sp, #4]
 1278 071a 0E21     		movs	r1, #14
 1279 071c 009A     		ldr	r2, [sp]
 1280 071e 0123     		movs	r3, #1
 1281 0720 FFF7FEFF 		bl	LSM303AGR_ACC_ReadReg
 1282 0724 0346     		mov	r3, r0
 1283 0726 002B     		cmp	r3, #0
 1284 0728 01D1     		bne	.L77
 1285              		.loc 1 506 0
 1286 072a 0023     		movs	r3, #0
 1287 072c 08E0     		b	.L78
 1288              	.L77:
 1289              		.loc 1 508 0
 1290 072e 009B     		ldr	r3, [sp]
 1291 0730 1A78     		ldrb	r2, [r3]	@ zero_extendqisi2
 1292 0732 009B     		ldr	r3, [sp]
 1293 0734 1A70     		strb	r2, [r3]
ARM GAS  /tmp/ccVYwGiK.s 			page 24


 1294              		.loc 1 509 0
 1295 0736 009B     		ldr	r3, [sp]
 1296 0738 1A78     		ldrb	r2, [r3]	@ zero_extendqisi2
 1297 073a 009B     		ldr	r3, [sp]
 1298 073c 1A70     		strb	r2, [r3]
 1299              		.loc 1 511 0
 1300 073e 0123     		movs	r3, #1
 1301              	.L78:
 1302              		.loc 1 512 0
 1303 0740 1846     		mov	r0, r3
 1304 0742 03B0     		add	sp, sp, #12
 1305              		@ sp needed
 1306 0744 5DF804FB 		ldr	pc, [sp], #4
 1307              		.cfi_endproc
 1308              	.LFE19:
 1309              		.size	LSM303AGR_ACC_R_int_counter, .-LSM303AGR_ACC_R_int_counter
 1310              		.align	2
 1311 0748 AFF30080 		.p2align 4,,15
 1311      AFF30080 
 1312              		.global	LSM303AGR_ACC_W_TEMP_EN_bits
 1313              		.thumb
 1314              		.thumb_func
 1315              		.type	LSM303AGR_ACC_W_TEMP_EN_bits, %function
 1316              	LSM303AGR_ACC_W_TEMP_EN_bits:
 1317              	.LFB20:
 1318              		.loc 1 522 0
 1319              		.cfi_startproc
 1320              		@ args = 0, pretend = 0, frame = 16
 1321              		@ frame_needed = 0, uses_anonymous_args = 0
 1322 0750 00B5     		push	{lr}
 1323              		.cfi_def_cfa_offset 4
 1324              		.cfi_offset 14, -4
 1325 0752 85B0     		sub	sp, sp, #20
 1326              		.cfi_def_cfa_offset 24
 1327 0754 0190     		str	r0, [sp, #4]
 1328 0756 0B46     		mov	r3, r1
 1329 0758 8DF80330 		strb	r3, [sp, #3]
 1330              		.loc 1 525 0
 1331 075c 0DF10F03 		add	r3, sp, #15
 1332 0760 0198     		ldr	r0, [sp, #4]
 1333 0762 1F21     		movs	r1, #31
 1334 0764 1A46     		mov	r2, r3
 1335 0766 0123     		movs	r3, #1
 1336 0768 FFF7FEFF 		bl	LSM303AGR_ACC_ReadReg
 1337 076c 0346     		mov	r3, r0
 1338 076e 002B     		cmp	r3, #0
 1339 0770 01D1     		bne	.L80
 1340              		.loc 1 526 0
 1341 0772 0023     		movs	r3, #0
 1342 0774 1CE0     		b	.L83
 1343              	.L80:
 1344              		.loc 1 528 0
 1345 0776 9DF80F30 		ldrb	r3, [sp, #15]	@ zero_extendqisi2
 1346 077a 23F04003 		bic	r3, r3, #64
 1347 077e DBB2     		uxtb	r3, r3
 1348 0780 8DF80F30 		strb	r3, [sp, #15]
 1349              		.loc 1 529 0
ARM GAS  /tmp/ccVYwGiK.s 			page 25


 1350 0784 9DF80F20 		ldrb	r2, [sp, #15]	@ zero_extendqisi2
 1351 0788 9DF80330 		ldrb	r3, [sp, #3]
 1352 078c 1343     		orrs	r3, r3, r2
 1353 078e DBB2     		uxtb	r3, r3
 1354 0790 8DF80F30 		strb	r3, [sp, #15]
 1355              		.loc 1 531 0
 1356 0794 0DF10F03 		add	r3, sp, #15
 1357 0798 0198     		ldr	r0, [sp, #4]
 1358 079a 1F21     		movs	r1, #31
 1359 079c 1A46     		mov	r2, r3
 1360 079e 0123     		movs	r3, #1
 1361 07a0 FFF7FEFF 		bl	LSM303AGR_ACC_WriteReg
 1362 07a4 0346     		mov	r3, r0
 1363 07a6 002B     		cmp	r3, #0
 1364 07a8 01D1     		bne	.L82
 1365              		.loc 1 532 0
 1366 07aa 0023     		movs	r3, #0
 1367 07ac 00E0     		b	.L83
 1368              	.L82:
 1369              		.loc 1 534 0
 1370 07ae 0123     		movs	r3, #1
 1371              	.L83:
 1372              		.loc 1 535 0
 1373 07b0 1846     		mov	r0, r3
 1374 07b2 05B0     		add	sp, sp, #20
 1375              		@ sp needed
 1376 07b4 5DF804FB 		ldr	pc, [sp], #4
 1377              		.cfi_endproc
 1378              	.LFE20:
 1379              		.size	LSM303AGR_ACC_W_TEMP_EN_bits, .-LSM303AGR_ACC_W_TEMP_EN_bits
 1380              		.align	2
 1381 07b8 AFF30080 		.p2align 4,,15
 1381      AFF30080 
 1382              		.global	LSM303AGR_ACC_R_TEMP_EN_bits
 1383              		.thumb
 1384              		.thumb_func
 1385              		.type	LSM303AGR_ACC_R_TEMP_EN_bits, %function
 1386              	LSM303AGR_ACC_R_TEMP_EN_bits:
 1387              	.LFB21:
 1388              		.loc 1 545 0
 1389              		.cfi_startproc
 1390              		@ args = 0, pretend = 0, frame = 8
 1391              		@ frame_needed = 0, uses_anonymous_args = 0
 1392 07c0 00B5     		push	{lr}
 1393              		.cfi_def_cfa_offset 4
 1394              		.cfi_offset 14, -4
 1395 07c2 83B0     		sub	sp, sp, #12
 1396              		.cfi_def_cfa_offset 16
 1397 07c4 0190     		str	r0, [sp, #4]
 1398 07c6 0091     		str	r1, [sp]
 1399              		.loc 1 546 0
 1400 07c8 0198     		ldr	r0, [sp, #4]
 1401 07ca 1F21     		movs	r1, #31
 1402 07cc 009A     		ldr	r2, [sp]
 1403 07ce 0123     		movs	r3, #1
 1404 07d0 FFF7FEFF 		bl	LSM303AGR_ACC_ReadReg
 1405 07d4 0346     		mov	r3, r0
ARM GAS  /tmp/ccVYwGiK.s 			page 26


 1406 07d6 002B     		cmp	r3, #0
 1407 07d8 01D1     		bne	.L85
 1408              		.loc 1 547 0
 1409 07da 0023     		movs	r3, #0
 1410 07dc 07E0     		b	.L86
 1411              	.L85:
 1412              		.loc 1 549 0
 1413 07de 009B     		ldr	r3, [sp]
 1414 07e0 1B78     		ldrb	r3, [r3]	@ zero_extendqisi2
 1415 07e2 03F04003 		and	r3, r3, #64
 1416 07e6 DAB2     		uxtb	r2, r3
 1417 07e8 009B     		ldr	r3, [sp]
 1418 07ea 1A70     		strb	r2, [r3]
 1419              		.loc 1 551 0
 1420 07ec 0123     		movs	r3, #1
 1421              	.L86:
 1422              		.loc 1 552 0
 1423 07ee 1846     		mov	r0, r3
 1424 07f0 03B0     		add	sp, sp, #12
 1425              		@ sp needed
 1426 07f2 5DF804FB 		ldr	pc, [sp], #4
 1427              		.cfi_endproc
 1428              	.LFE21:
 1429              		.size	LSM303AGR_ACC_R_TEMP_EN_bits, .-LSM303AGR_ACC_R_TEMP_EN_bits
 1430 07f6 00BF     		.align	2
 1431 07f8 AFF30080 		.p2align 4,,15
 1431      AFF30080 
 1432              		.global	LSM303AGR_ACC_W_ADC_PD
 1433              		.thumb
 1434              		.thumb_func
 1435              		.type	LSM303AGR_ACC_W_ADC_PD, %function
 1436              	LSM303AGR_ACC_W_ADC_PD:
 1437              	.LFB22:
 1438              		.loc 1 562 0
 1439              		.cfi_startproc
 1440              		@ args = 0, pretend = 0, frame = 16
 1441              		@ frame_needed = 0, uses_anonymous_args = 0
 1442 0800 00B5     		push	{lr}
 1443              		.cfi_def_cfa_offset 4
 1444              		.cfi_offset 14, -4
 1445 0802 85B0     		sub	sp, sp, #20
 1446              		.cfi_def_cfa_offset 24
 1447 0804 0190     		str	r0, [sp, #4]
 1448 0806 0B46     		mov	r3, r1
 1449 0808 8DF80330 		strb	r3, [sp, #3]
 1450              		.loc 1 565 0
 1451 080c 0DF10F03 		add	r3, sp, #15
 1452 0810 0198     		ldr	r0, [sp, #4]
 1453 0812 1F21     		movs	r1, #31
 1454 0814 1A46     		mov	r2, r3
 1455 0816 0123     		movs	r3, #1
 1456 0818 FFF7FEFF 		bl	LSM303AGR_ACC_ReadReg
 1457 081c 0346     		mov	r3, r0
 1458 081e 002B     		cmp	r3, #0
 1459 0820 01D1     		bne	.L88
 1460              		.loc 1 566 0
 1461 0822 0023     		movs	r3, #0
ARM GAS  /tmp/ccVYwGiK.s 			page 27


 1462 0824 1CE0     		b	.L91
 1463              	.L88:
 1464              		.loc 1 568 0
 1465 0826 9DF80F30 		ldrb	r3, [sp, #15]	@ zero_extendqisi2
 1466 082a 03F07F03 		and	r3, r3, #127
 1467 082e DBB2     		uxtb	r3, r3
 1468 0830 8DF80F30 		strb	r3, [sp, #15]
 1469              		.loc 1 569 0
 1470 0834 9DF80F20 		ldrb	r2, [sp, #15]	@ zero_extendqisi2
 1471 0838 9DF80330 		ldrb	r3, [sp, #3]
 1472 083c 1343     		orrs	r3, r3, r2
 1473 083e DBB2     		uxtb	r3, r3
 1474 0840 8DF80F30 		strb	r3, [sp, #15]
 1475              		.loc 1 571 0
 1476 0844 0DF10F03 		add	r3, sp, #15
 1477 0848 0198     		ldr	r0, [sp, #4]
 1478 084a 1F21     		movs	r1, #31
 1479 084c 1A46     		mov	r2, r3
 1480 084e 0123     		movs	r3, #1
 1481 0850 FFF7FEFF 		bl	LSM303AGR_ACC_WriteReg
 1482 0854 0346     		mov	r3, r0
 1483 0856 002B     		cmp	r3, #0
 1484 0858 01D1     		bne	.L90
 1485              		.loc 1 572 0
 1486 085a 0023     		movs	r3, #0
 1487 085c 00E0     		b	.L91
 1488              	.L90:
 1489              		.loc 1 574 0
 1490 085e 0123     		movs	r3, #1
 1491              	.L91:
 1492              		.loc 1 575 0
 1493 0860 1846     		mov	r0, r3
 1494 0862 05B0     		add	sp, sp, #20
 1495              		@ sp needed
 1496 0864 5DF804FB 		ldr	pc, [sp], #4
 1497              		.cfi_endproc
 1498              	.LFE22:
 1499              		.size	LSM303AGR_ACC_W_ADC_PD, .-LSM303AGR_ACC_W_ADC_PD
 1500              		.align	2
 1501 0868 AFF30080 		.p2align 4,,15
 1501      AFF30080 
 1502              		.global	LSM303AGR_ACC_R_ADC_PD
 1503              		.thumb
 1504              		.thumb_func
 1505              		.type	LSM303AGR_ACC_R_ADC_PD, %function
 1506              	LSM303AGR_ACC_R_ADC_PD:
 1507              	.LFB23:
 1508              		.loc 1 585 0
 1509              		.cfi_startproc
 1510              		@ args = 0, pretend = 0, frame = 8
 1511              		@ frame_needed = 0, uses_anonymous_args = 0
 1512 0870 00B5     		push	{lr}
 1513              		.cfi_def_cfa_offset 4
 1514              		.cfi_offset 14, -4
 1515 0872 83B0     		sub	sp, sp, #12
 1516              		.cfi_def_cfa_offset 16
 1517 0874 0190     		str	r0, [sp, #4]
ARM GAS  /tmp/ccVYwGiK.s 			page 28


 1518 0876 0091     		str	r1, [sp]
 1519              		.loc 1 586 0
 1520 0878 0198     		ldr	r0, [sp, #4]
 1521 087a 1F21     		movs	r1, #31
 1522 087c 009A     		ldr	r2, [sp]
 1523 087e 0123     		movs	r3, #1
 1524 0880 FFF7FEFF 		bl	LSM303AGR_ACC_ReadReg
 1525 0884 0346     		mov	r3, r0
 1526 0886 002B     		cmp	r3, #0
 1527 0888 01D1     		bne	.L93
 1528              		.loc 1 587 0
 1529 088a 0023     		movs	r3, #0
 1530 088c 07E0     		b	.L94
 1531              	.L93:
 1532              		.loc 1 589 0
 1533 088e 009B     		ldr	r3, [sp]
 1534 0890 1B78     		ldrb	r3, [r3]	@ zero_extendqisi2
 1535 0892 23F07F03 		bic	r3, r3, #127
 1536 0896 DAB2     		uxtb	r2, r3
 1537 0898 009B     		ldr	r3, [sp]
 1538 089a 1A70     		strb	r2, [r3]
 1539              		.loc 1 591 0
 1540 089c 0123     		movs	r3, #1
 1541              	.L94:
 1542              		.loc 1 592 0
 1543 089e 1846     		mov	r0, r3
 1544 08a0 03B0     		add	sp, sp, #12
 1545              		@ sp needed
 1546 08a2 5DF804FB 		ldr	pc, [sp], #4
 1547              		.cfi_endproc
 1548              	.LFE23:
 1549              		.size	LSM303AGR_ACC_R_ADC_PD, .-LSM303AGR_ACC_R_ADC_PD
 1550 08a6 00BF     		.align	2
 1551 08a8 AFF30080 		.p2align 4,,15
 1551      AFF30080 
 1552              		.global	LSM303AGR_ACC_W_XEN
 1553              		.thumb
 1554              		.thumb_func
 1555              		.type	LSM303AGR_ACC_W_XEN, %function
 1556              	LSM303AGR_ACC_W_XEN:
 1557              	.LFB24:
 1558              		.loc 1 602 0
 1559              		.cfi_startproc
 1560              		@ args = 0, pretend = 0, frame = 16
 1561              		@ frame_needed = 0, uses_anonymous_args = 0
 1562 08b0 00B5     		push	{lr}
 1563              		.cfi_def_cfa_offset 4
 1564              		.cfi_offset 14, -4
 1565 08b2 85B0     		sub	sp, sp, #20
 1566              		.cfi_def_cfa_offset 24
 1567 08b4 0190     		str	r0, [sp, #4]
 1568 08b6 0B46     		mov	r3, r1
 1569 08b8 8DF80330 		strb	r3, [sp, #3]
 1570              		.loc 1 605 0
 1571 08bc 0DF10F03 		add	r3, sp, #15
 1572 08c0 0198     		ldr	r0, [sp, #4]
 1573 08c2 2021     		movs	r1, #32
ARM GAS  /tmp/ccVYwGiK.s 			page 29


 1574 08c4 1A46     		mov	r2, r3
 1575 08c6 0123     		movs	r3, #1
 1576 08c8 FFF7FEFF 		bl	LSM303AGR_ACC_ReadReg
 1577 08cc 0346     		mov	r3, r0
 1578 08ce 002B     		cmp	r3, #0
 1579 08d0 01D1     		bne	.L96
 1580              		.loc 1 606 0
 1581 08d2 0023     		movs	r3, #0
 1582 08d4 1CE0     		b	.L99
 1583              	.L96:
 1584              		.loc 1 608 0
 1585 08d6 9DF80F30 		ldrb	r3, [sp, #15]	@ zero_extendqisi2
 1586 08da 23F00103 		bic	r3, r3, #1
 1587 08de DBB2     		uxtb	r3, r3
 1588 08e0 8DF80F30 		strb	r3, [sp, #15]
 1589              		.loc 1 609 0
 1590 08e4 9DF80F20 		ldrb	r2, [sp, #15]	@ zero_extendqisi2
 1591 08e8 9DF80330 		ldrb	r3, [sp, #3]
 1592 08ec 1343     		orrs	r3, r3, r2
 1593 08ee DBB2     		uxtb	r3, r3
 1594 08f0 8DF80F30 		strb	r3, [sp, #15]
 1595              		.loc 1 611 0
 1596 08f4 0DF10F03 		add	r3, sp, #15
 1597 08f8 0198     		ldr	r0, [sp, #4]
 1598 08fa 2021     		movs	r1, #32
 1599 08fc 1A46     		mov	r2, r3
 1600 08fe 0123     		movs	r3, #1
 1601 0900 FFF7FEFF 		bl	LSM303AGR_ACC_WriteReg
 1602 0904 0346     		mov	r3, r0
 1603 0906 002B     		cmp	r3, #0
 1604 0908 01D1     		bne	.L98
 1605              		.loc 1 612 0
 1606 090a 0023     		movs	r3, #0
 1607 090c 00E0     		b	.L99
 1608              	.L98:
 1609              		.loc 1 614 0
 1610 090e 0123     		movs	r3, #1
 1611              	.L99:
 1612              		.loc 1 615 0
 1613 0910 1846     		mov	r0, r3
 1614 0912 05B0     		add	sp, sp, #20
 1615              		@ sp needed
 1616 0914 5DF804FB 		ldr	pc, [sp], #4
 1617              		.cfi_endproc
 1618              	.LFE24:
 1619              		.size	LSM303AGR_ACC_W_XEN, .-LSM303AGR_ACC_W_XEN
 1620              		.align	2
 1621 0918 AFF30080 		.p2align 4,,15
 1621      AFF30080 
 1622              		.global	LSM303AGR_ACC_R_XEN
 1623              		.thumb
 1624              		.thumb_func
 1625              		.type	LSM303AGR_ACC_R_XEN, %function
 1626              	LSM303AGR_ACC_R_XEN:
 1627              	.LFB25:
 1628              		.loc 1 625 0
 1629              		.cfi_startproc
ARM GAS  /tmp/ccVYwGiK.s 			page 30


 1630              		@ args = 0, pretend = 0, frame = 8
 1631              		@ frame_needed = 0, uses_anonymous_args = 0
 1632 0920 00B5     		push	{lr}
 1633              		.cfi_def_cfa_offset 4
 1634              		.cfi_offset 14, -4
 1635 0922 83B0     		sub	sp, sp, #12
 1636              		.cfi_def_cfa_offset 16
 1637 0924 0190     		str	r0, [sp, #4]
 1638 0926 0091     		str	r1, [sp]
 1639              		.loc 1 626 0
 1640 0928 0198     		ldr	r0, [sp, #4]
 1641 092a 2021     		movs	r1, #32
 1642 092c 009A     		ldr	r2, [sp]
 1643 092e 0123     		movs	r3, #1
 1644 0930 FFF7FEFF 		bl	LSM303AGR_ACC_ReadReg
 1645 0934 0346     		mov	r3, r0
 1646 0936 002B     		cmp	r3, #0
 1647 0938 01D1     		bne	.L101
 1648              		.loc 1 627 0
 1649 093a 0023     		movs	r3, #0
 1650 093c 07E0     		b	.L102
 1651              	.L101:
 1652              		.loc 1 629 0
 1653 093e 009B     		ldr	r3, [sp]
 1654 0940 1B78     		ldrb	r3, [r3]	@ zero_extendqisi2
 1655 0942 03F00103 		and	r3, r3, #1
 1656 0946 DAB2     		uxtb	r2, r3
 1657 0948 009B     		ldr	r3, [sp]
 1658 094a 1A70     		strb	r2, [r3]
 1659              		.loc 1 631 0
 1660 094c 0123     		movs	r3, #1
 1661              	.L102:
 1662              		.loc 1 632 0
 1663 094e 1846     		mov	r0, r3
 1664 0950 03B0     		add	sp, sp, #12
 1665              		@ sp needed
 1666 0952 5DF804FB 		ldr	pc, [sp], #4
 1667              		.cfi_endproc
 1668              	.LFE25:
 1669              		.size	LSM303AGR_ACC_R_XEN, .-LSM303AGR_ACC_R_XEN
 1670 0956 00BF     		.align	2
 1671 0958 AFF30080 		.p2align 4,,15
 1671      AFF30080 
 1672              		.global	LSM303AGR_ACC_W_YEN
 1673              		.thumb
 1674              		.thumb_func
 1675              		.type	LSM303AGR_ACC_W_YEN, %function
 1676              	LSM303AGR_ACC_W_YEN:
 1677              	.LFB26:
 1678              		.loc 1 642 0
 1679              		.cfi_startproc
 1680              		@ args = 0, pretend = 0, frame = 16
 1681              		@ frame_needed = 0, uses_anonymous_args = 0
 1682 0960 00B5     		push	{lr}
 1683              		.cfi_def_cfa_offset 4
 1684              		.cfi_offset 14, -4
 1685 0962 85B0     		sub	sp, sp, #20
ARM GAS  /tmp/ccVYwGiK.s 			page 31


 1686              		.cfi_def_cfa_offset 24
 1687 0964 0190     		str	r0, [sp, #4]
 1688 0966 0B46     		mov	r3, r1
 1689 0968 8DF80330 		strb	r3, [sp, #3]
 1690              		.loc 1 645 0
 1691 096c 0DF10F03 		add	r3, sp, #15
 1692 0970 0198     		ldr	r0, [sp, #4]
 1693 0972 2021     		movs	r1, #32
 1694 0974 1A46     		mov	r2, r3
 1695 0976 0123     		movs	r3, #1
 1696 0978 FFF7FEFF 		bl	LSM303AGR_ACC_ReadReg
 1697 097c 0346     		mov	r3, r0
 1698 097e 002B     		cmp	r3, #0
 1699 0980 01D1     		bne	.L104
 1700              		.loc 1 646 0
 1701 0982 0023     		movs	r3, #0
 1702 0984 1CE0     		b	.L107
 1703              	.L104:
 1704              		.loc 1 648 0
 1705 0986 9DF80F30 		ldrb	r3, [sp, #15]	@ zero_extendqisi2
 1706 098a 23F00203 		bic	r3, r3, #2
 1707 098e DBB2     		uxtb	r3, r3
 1708 0990 8DF80F30 		strb	r3, [sp, #15]
 1709              		.loc 1 649 0
 1710 0994 9DF80F20 		ldrb	r2, [sp, #15]	@ zero_extendqisi2
 1711 0998 9DF80330 		ldrb	r3, [sp, #3]
 1712 099c 1343     		orrs	r3, r3, r2
 1713 099e DBB2     		uxtb	r3, r3
 1714 09a0 8DF80F30 		strb	r3, [sp, #15]
 1715              		.loc 1 651 0
 1716 09a4 0DF10F03 		add	r3, sp, #15
 1717 09a8 0198     		ldr	r0, [sp, #4]
 1718 09aa 2021     		movs	r1, #32
 1719 09ac 1A46     		mov	r2, r3
 1720 09ae 0123     		movs	r3, #1
 1721 09b0 FFF7FEFF 		bl	LSM303AGR_ACC_WriteReg
 1722 09b4 0346     		mov	r3, r0
 1723 09b6 002B     		cmp	r3, #0
 1724 09b8 01D1     		bne	.L106
 1725              		.loc 1 652 0
 1726 09ba 0023     		movs	r3, #0
 1727 09bc 00E0     		b	.L107
 1728              	.L106:
 1729              		.loc 1 654 0
 1730 09be 0123     		movs	r3, #1
 1731              	.L107:
 1732              		.loc 1 655 0
 1733 09c0 1846     		mov	r0, r3
 1734 09c2 05B0     		add	sp, sp, #20
 1735              		@ sp needed
 1736 09c4 5DF804FB 		ldr	pc, [sp], #4
 1737              		.cfi_endproc
 1738              	.LFE26:
 1739              		.size	LSM303AGR_ACC_W_YEN, .-LSM303AGR_ACC_W_YEN
 1740              		.align	2
 1741 09c8 AFF30080 		.p2align 4,,15
 1741      AFF30080 
ARM GAS  /tmp/ccVYwGiK.s 			page 32


 1742              		.global	LSM303AGR_ACC_R_YEN
 1743              		.thumb
 1744              		.thumb_func
 1745              		.type	LSM303AGR_ACC_R_YEN, %function
 1746              	LSM303AGR_ACC_R_YEN:
 1747              	.LFB27:
 1748              		.loc 1 665 0
 1749              		.cfi_startproc
 1750              		@ args = 0, pretend = 0, frame = 8
 1751              		@ frame_needed = 0, uses_anonymous_args = 0
 1752 09d0 00B5     		push	{lr}
 1753              		.cfi_def_cfa_offset 4
 1754              		.cfi_offset 14, -4
 1755 09d2 83B0     		sub	sp, sp, #12
 1756              		.cfi_def_cfa_offset 16
 1757 09d4 0190     		str	r0, [sp, #4]
 1758 09d6 0091     		str	r1, [sp]
 1759              		.loc 1 666 0
 1760 09d8 0198     		ldr	r0, [sp, #4]
 1761 09da 2021     		movs	r1, #32
 1762 09dc 009A     		ldr	r2, [sp]
 1763 09de 0123     		movs	r3, #1
 1764 09e0 FFF7FEFF 		bl	LSM303AGR_ACC_ReadReg
 1765 09e4 0346     		mov	r3, r0
 1766 09e6 002B     		cmp	r3, #0
 1767 09e8 01D1     		bne	.L109
 1768              		.loc 1 667 0
 1769 09ea 0023     		movs	r3, #0
 1770 09ec 07E0     		b	.L110
 1771              	.L109:
 1772              		.loc 1 669 0
 1773 09ee 009B     		ldr	r3, [sp]
 1774 09f0 1B78     		ldrb	r3, [r3]	@ zero_extendqisi2
 1775 09f2 03F00203 		and	r3, r3, #2
 1776 09f6 DAB2     		uxtb	r2, r3
 1777 09f8 009B     		ldr	r3, [sp]
 1778 09fa 1A70     		strb	r2, [r3]
 1779              		.loc 1 671 0
 1780 09fc 0123     		movs	r3, #1
 1781              	.L110:
 1782              		.loc 1 672 0
 1783 09fe 1846     		mov	r0, r3
 1784 0a00 03B0     		add	sp, sp, #12
 1785              		@ sp needed
 1786 0a02 5DF804FB 		ldr	pc, [sp], #4
 1787              		.cfi_endproc
 1788              	.LFE27:
 1789              		.size	LSM303AGR_ACC_R_YEN, .-LSM303AGR_ACC_R_YEN
 1790 0a06 00BF     		.align	2
 1791 0a08 AFF30080 		.p2align 4,,15
 1791      AFF30080 
 1792              		.global	LSM303AGR_ACC_W_ZEN
 1793              		.thumb
 1794              		.thumb_func
 1795              		.type	LSM303AGR_ACC_W_ZEN, %function
 1796              	LSM303AGR_ACC_W_ZEN:
 1797              	.LFB28:
ARM GAS  /tmp/ccVYwGiK.s 			page 33


 1798              		.loc 1 682 0
 1799              		.cfi_startproc
 1800              		@ args = 0, pretend = 0, frame = 16
 1801              		@ frame_needed = 0, uses_anonymous_args = 0
 1802 0a10 00B5     		push	{lr}
 1803              		.cfi_def_cfa_offset 4
 1804              		.cfi_offset 14, -4
 1805 0a12 85B0     		sub	sp, sp, #20
 1806              		.cfi_def_cfa_offset 24
 1807 0a14 0190     		str	r0, [sp, #4]
 1808 0a16 0B46     		mov	r3, r1
 1809 0a18 8DF80330 		strb	r3, [sp, #3]
 1810              		.loc 1 685 0
 1811 0a1c 0DF10F03 		add	r3, sp, #15
 1812 0a20 0198     		ldr	r0, [sp, #4]
 1813 0a22 2021     		movs	r1, #32
 1814 0a24 1A46     		mov	r2, r3
 1815 0a26 0123     		movs	r3, #1
 1816 0a28 FFF7FEFF 		bl	LSM303AGR_ACC_ReadReg
 1817 0a2c 0346     		mov	r3, r0
 1818 0a2e 002B     		cmp	r3, #0
 1819 0a30 01D1     		bne	.L112
 1820              		.loc 1 686 0
 1821 0a32 0023     		movs	r3, #0
 1822 0a34 1CE0     		b	.L115
 1823              	.L112:
 1824              		.loc 1 688 0
 1825 0a36 9DF80F30 		ldrb	r3, [sp, #15]	@ zero_extendqisi2
 1826 0a3a 23F00403 		bic	r3, r3, #4
 1827 0a3e DBB2     		uxtb	r3, r3
 1828 0a40 8DF80F30 		strb	r3, [sp, #15]
 1829              		.loc 1 689 0
 1830 0a44 9DF80F20 		ldrb	r2, [sp, #15]	@ zero_extendqisi2
 1831 0a48 9DF80330 		ldrb	r3, [sp, #3]
 1832 0a4c 1343     		orrs	r3, r3, r2
 1833 0a4e DBB2     		uxtb	r3, r3
 1834 0a50 8DF80F30 		strb	r3, [sp, #15]
 1835              		.loc 1 691 0
 1836 0a54 0DF10F03 		add	r3, sp, #15
 1837 0a58 0198     		ldr	r0, [sp, #4]
 1838 0a5a 2021     		movs	r1, #32
 1839 0a5c 1A46     		mov	r2, r3
 1840 0a5e 0123     		movs	r3, #1
 1841 0a60 FFF7FEFF 		bl	LSM303AGR_ACC_WriteReg
 1842 0a64 0346     		mov	r3, r0
 1843 0a66 002B     		cmp	r3, #0
 1844 0a68 01D1     		bne	.L114
 1845              		.loc 1 692 0
 1846 0a6a 0023     		movs	r3, #0
 1847 0a6c 00E0     		b	.L115
 1848              	.L114:
 1849              		.loc 1 694 0
 1850 0a6e 0123     		movs	r3, #1
 1851              	.L115:
 1852              		.loc 1 695 0
 1853 0a70 1846     		mov	r0, r3
 1854 0a72 05B0     		add	sp, sp, #20
ARM GAS  /tmp/ccVYwGiK.s 			page 34


 1855              		@ sp needed
 1856 0a74 5DF804FB 		ldr	pc, [sp], #4
 1857              		.cfi_endproc
 1858              	.LFE28:
 1859              		.size	LSM303AGR_ACC_W_ZEN, .-LSM303AGR_ACC_W_ZEN
 1860              		.align	2
 1861 0a78 AFF30080 		.p2align 4,,15
 1861      AFF30080 
 1862              		.global	LSM303AGR_ACC_R_ZEN
 1863              		.thumb
 1864              		.thumb_func
 1865              		.type	LSM303AGR_ACC_R_ZEN, %function
 1866              	LSM303AGR_ACC_R_ZEN:
 1867              	.LFB29:
 1868              		.loc 1 705 0
 1869              		.cfi_startproc
 1870              		@ args = 0, pretend = 0, frame = 8
 1871              		@ frame_needed = 0, uses_anonymous_args = 0
 1872 0a80 00B5     		push	{lr}
 1873              		.cfi_def_cfa_offset 4
 1874              		.cfi_offset 14, -4
 1875 0a82 83B0     		sub	sp, sp, #12
 1876              		.cfi_def_cfa_offset 16
 1877 0a84 0190     		str	r0, [sp, #4]
 1878 0a86 0091     		str	r1, [sp]
 1879              		.loc 1 706 0
 1880 0a88 0198     		ldr	r0, [sp, #4]
 1881 0a8a 2021     		movs	r1, #32
 1882 0a8c 009A     		ldr	r2, [sp]
 1883 0a8e 0123     		movs	r3, #1
 1884 0a90 FFF7FEFF 		bl	LSM303AGR_ACC_ReadReg
 1885 0a94 0346     		mov	r3, r0
 1886 0a96 002B     		cmp	r3, #0
 1887 0a98 01D1     		bne	.L117
 1888              		.loc 1 707 0
 1889 0a9a 0023     		movs	r3, #0
 1890 0a9c 07E0     		b	.L118
 1891              	.L117:
 1892              		.loc 1 709 0
 1893 0a9e 009B     		ldr	r3, [sp]
 1894 0aa0 1B78     		ldrb	r3, [r3]	@ zero_extendqisi2
 1895 0aa2 03F00403 		and	r3, r3, #4
 1896 0aa6 DAB2     		uxtb	r2, r3
 1897 0aa8 009B     		ldr	r3, [sp]
 1898 0aaa 1A70     		strb	r2, [r3]
 1899              		.loc 1 711 0
 1900 0aac 0123     		movs	r3, #1
 1901              	.L118:
 1902              		.loc 1 712 0
 1903 0aae 1846     		mov	r0, r3
 1904 0ab0 03B0     		add	sp, sp, #12
 1905              		@ sp needed
 1906 0ab2 5DF804FB 		ldr	pc, [sp], #4
 1907              		.cfi_endproc
 1908              	.LFE29:
 1909              		.size	LSM303AGR_ACC_R_ZEN, .-LSM303AGR_ACC_R_ZEN
 1910 0ab6 00BF     		.align	2
ARM GAS  /tmp/ccVYwGiK.s 			page 35


 1911 0ab8 AFF30080 		.p2align 4,,15
 1911      AFF30080 
 1912              		.global	LSM303AGR_ACC_W_LOWPWR_EN
 1913              		.thumb
 1914              		.thumb_func
 1915              		.type	LSM303AGR_ACC_W_LOWPWR_EN, %function
 1916              	LSM303AGR_ACC_W_LOWPWR_EN:
 1917              	.LFB30:
 1918              		.loc 1 722 0
 1919              		.cfi_startproc
 1920              		@ args = 0, pretend = 0, frame = 16
 1921              		@ frame_needed = 0, uses_anonymous_args = 0
 1922 0ac0 00B5     		push	{lr}
 1923              		.cfi_def_cfa_offset 4
 1924              		.cfi_offset 14, -4
 1925 0ac2 85B0     		sub	sp, sp, #20
 1926              		.cfi_def_cfa_offset 24
 1927 0ac4 0190     		str	r0, [sp, #4]
 1928 0ac6 0B46     		mov	r3, r1
 1929 0ac8 8DF80330 		strb	r3, [sp, #3]
 1930              		.loc 1 725 0
 1931 0acc 0DF10F03 		add	r3, sp, #15
 1932 0ad0 0198     		ldr	r0, [sp, #4]
 1933 0ad2 2021     		movs	r1, #32
 1934 0ad4 1A46     		mov	r2, r3
 1935 0ad6 0123     		movs	r3, #1
 1936 0ad8 FFF7FEFF 		bl	LSM303AGR_ACC_ReadReg
 1937 0adc 0346     		mov	r3, r0
 1938 0ade 002B     		cmp	r3, #0
 1939 0ae0 01D1     		bne	.L120
 1940              		.loc 1 726 0
 1941 0ae2 0023     		movs	r3, #0
 1942 0ae4 1CE0     		b	.L123
 1943              	.L120:
 1944              		.loc 1 728 0
 1945 0ae6 9DF80F30 		ldrb	r3, [sp, #15]	@ zero_extendqisi2
 1946 0aea 23F00803 		bic	r3, r3, #8
 1947 0aee DBB2     		uxtb	r3, r3
 1948 0af0 8DF80F30 		strb	r3, [sp, #15]
 1949              		.loc 1 729 0
 1950 0af4 9DF80F20 		ldrb	r2, [sp, #15]	@ zero_extendqisi2
 1951 0af8 9DF80330 		ldrb	r3, [sp, #3]
 1952 0afc 1343     		orrs	r3, r3, r2
 1953 0afe DBB2     		uxtb	r3, r3
 1954 0b00 8DF80F30 		strb	r3, [sp, #15]
 1955              		.loc 1 731 0
 1956 0b04 0DF10F03 		add	r3, sp, #15
 1957 0b08 0198     		ldr	r0, [sp, #4]
 1958 0b0a 2021     		movs	r1, #32
 1959 0b0c 1A46     		mov	r2, r3
 1960 0b0e 0123     		movs	r3, #1
 1961 0b10 FFF7FEFF 		bl	LSM303AGR_ACC_WriteReg
 1962 0b14 0346     		mov	r3, r0
 1963 0b16 002B     		cmp	r3, #0
 1964 0b18 01D1     		bne	.L122
 1965              		.loc 1 732 0
 1966 0b1a 0023     		movs	r3, #0
ARM GAS  /tmp/ccVYwGiK.s 			page 36


 1967 0b1c 00E0     		b	.L123
 1968              	.L122:
 1969              		.loc 1 734 0
 1970 0b1e 0123     		movs	r3, #1
 1971              	.L123:
 1972              		.loc 1 735 0
 1973 0b20 1846     		mov	r0, r3
 1974 0b22 05B0     		add	sp, sp, #20
 1975              		@ sp needed
 1976 0b24 5DF804FB 		ldr	pc, [sp], #4
 1977              		.cfi_endproc
 1978              	.LFE30:
 1979              		.size	LSM303AGR_ACC_W_LOWPWR_EN, .-LSM303AGR_ACC_W_LOWPWR_EN
 1980              		.align	2
 1981 0b28 AFF30080 		.p2align 4,,15
 1981      AFF30080 
 1982              		.global	LSM303AGR_ACC_R_LOWPWR_EN
 1983              		.thumb
 1984              		.thumb_func
 1985              		.type	LSM303AGR_ACC_R_LOWPWR_EN, %function
 1986              	LSM303AGR_ACC_R_LOWPWR_EN:
 1987              	.LFB31:
 1988              		.loc 1 745 0
 1989              		.cfi_startproc
 1990              		@ args = 0, pretend = 0, frame = 8
 1991              		@ frame_needed = 0, uses_anonymous_args = 0
 1992 0b30 00B5     		push	{lr}
 1993              		.cfi_def_cfa_offset 4
 1994              		.cfi_offset 14, -4
 1995 0b32 83B0     		sub	sp, sp, #12
 1996              		.cfi_def_cfa_offset 16
 1997 0b34 0190     		str	r0, [sp, #4]
 1998 0b36 0091     		str	r1, [sp]
 1999              		.loc 1 746 0
 2000 0b38 0198     		ldr	r0, [sp, #4]
 2001 0b3a 2021     		movs	r1, #32
 2002 0b3c 009A     		ldr	r2, [sp]
 2003 0b3e 0123     		movs	r3, #1
 2004 0b40 FFF7FEFF 		bl	LSM303AGR_ACC_ReadReg
 2005 0b44 0346     		mov	r3, r0
 2006 0b46 002B     		cmp	r3, #0
 2007 0b48 01D1     		bne	.L125
 2008              		.loc 1 747 0
 2009 0b4a 0023     		movs	r3, #0
 2010 0b4c 07E0     		b	.L126
 2011              	.L125:
 2012              		.loc 1 749 0
 2013 0b4e 009B     		ldr	r3, [sp]
 2014 0b50 1B78     		ldrb	r3, [r3]	@ zero_extendqisi2
 2015 0b52 03F00803 		and	r3, r3, #8
 2016 0b56 DAB2     		uxtb	r2, r3
 2017 0b58 009B     		ldr	r3, [sp]
 2018 0b5a 1A70     		strb	r2, [r3]
 2019              		.loc 1 751 0
 2020 0b5c 0123     		movs	r3, #1
 2021              	.L126:
 2022              		.loc 1 752 0
ARM GAS  /tmp/ccVYwGiK.s 			page 37


 2023 0b5e 1846     		mov	r0, r3
 2024 0b60 03B0     		add	sp, sp, #12
 2025              		@ sp needed
 2026 0b62 5DF804FB 		ldr	pc, [sp], #4
 2027              		.cfi_endproc
 2028              	.LFE31:
 2029              		.size	LSM303AGR_ACC_R_LOWPWR_EN, .-LSM303AGR_ACC_R_LOWPWR_EN
 2030 0b66 00BF     		.align	2
 2031 0b68 AFF30080 		.p2align 4,,15
 2031      AFF30080 
 2032              		.global	LSM303AGR_ACC_W_hpf_aoi_en_int1
 2033              		.thumb
 2034              		.thumb_func
 2035              		.type	LSM303AGR_ACC_W_hpf_aoi_en_int1, %function
 2036              	LSM303AGR_ACC_W_hpf_aoi_en_int1:
 2037              	.LFB32:
 2038              		.loc 1 762 0
 2039              		.cfi_startproc
 2040              		@ args = 0, pretend = 0, frame = 16
 2041              		@ frame_needed = 0, uses_anonymous_args = 0
 2042 0b70 00B5     		push	{lr}
 2043              		.cfi_def_cfa_offset 4
 2044              		.cfi_offset 14, -4
 2045 0b72 85B0     		sub	sp, sp, #20
 2046              		.cfi_def_cfa_offset 24
 2047 0b74 0190     		str	r0, [sp, #4]
 2048 0b76 0B46     		mov	r3, r1
 2049 0b78 8DF80330 		strb	r3, [sp, #3]
 2050              		.loc 1 765 0
 2051 0b7c 0DF10F03 		add	r3, sp, #15
 2052 0b80 0198     		ldr	r0, [sp, #4]
 2053 0b82 2121     		movs	r1, #33
 2054 0b84 1A46     		mov	r2, r3
 2055 0b86 0123     		movs	r3, #1
 2056 0b88 FFF7FEFF 		bl	LSM303AGR_ACC_ReadReg
 2057 0b8c 0346     		mov	r3, r0
 2058 0b8e 002B     		cmp	r3, #0
 2059 0b90 01D1     		bne	.L128
 2060              		.loc 1 766 0
 2061 0b92 0023     		movs	r3, #0
 2062 0b94 1CE0     		b	.L131
 2063              	.L128:
 2064              		.loc 1 768 0
 2065 0b96 9DF80F30 		ldrb	r3, [sp, #15]	@ zero_extendqisi2
 2066 0b9a 23F00103 		bic	r3, r3, #1
 2067 0b9e DBB2     		uxtb	r3, r3
 2068 0ba0 8DF80F30 		strb	r3, [sp, #15]
 2069              		.loc 1 769 0
 2070 0ba4 9DF80F20 		ldrb	r2, [sp, #15]	@ zero_extendqisi2
 2071 0ba8 9DF80330 		ldrb	r3, [sp, #3]
 2072 0bac 1343     		orrs	r3, r3, r2
 2073 0bae DBB2     		uxtb	r3, r3
 2074 0bb0 8DF80F30 		strb	r3, [sp, #15]
 2075              		.loc 1 771 0
 2076 0bb4 0DF10F03 		add	r3, sp, #15
 2077 0bb8 0198     		ldr	r0, [sp, #4]
 2078 0bba 2121     		movs	r1, #33
ARM GAS  /tmp/ccVYwGiK.s 			page 38


 2079 0bbc 1A46     		mov	r2, r3
 2080 0bbe 0123     		movs	r3, #1
 2081 0bc0 FFF7FEFF 		bl	LSM303AGR_ACC_WriteReg
 2082 0bc4 0346     		mov	r3, r0
 2083 0bc6 002B     		cmp	r3, #0
 2084 0bc8 01D1     		bne	.L130
 2085              		.loc 1 772 0
 2086 0bca 0023     		movs	r3, #0
 2087 0bcc 00E0     		b	.L131
 2088              	.L130:
 2089              		.loc 1 774 0
 2090 0bce 0123     		movs	r3, #1
 2091              	.L131:
 2092              		.loc 1 775 0
 2093 0bd0 1846     		mov	r0, r3
 2094 0bd2 05B0     		add	sp, sp, #20
 2095              		@ sp needed
 2096 0bd4 5DF804FB 		ldr	pc, [sp], #4
 2097              		.cfi_endproc
 2098              	.LFE32:
 2099              		.size	LSM303AGR_ACC_W_hpf_aoi_en_int1, .-LSM303AGR_ACC_W_hpf_aoi_en_int1
 2100              		.align	2
 2101 0bd8 AFF30080 		.p2align 4,,15
 2101      AFF30080 
 2102              		.global	LSM303AGR_ACC_R_hpf_aoi_en_int1
 2103              		.thumb
 2104              		.thumb_func
 2105              		.type	LSM303AGR_ACC_R_hpf_aoi_en_int1, %function
 2106              	LSM303AGR_ACC_R_hpf_aoi_en_int1:
 2107              	.LFB33:
 2108              		.loc 1 785 0
 2109              		.cfi_startproc
 2110              		@ args = 0, pretend = 0, frame = 8
 2111              		@ frame_needed = 0, uses_anonymous_args = 0
 2112 0be0 00B5     		push	{lr}
 2113              		.cfi_def_cfa_offset 4
 2114              		.cfi_offset 14, -4
 2115 0be2 83B0     		sub	sp, sp, #12
 2116              		.cfi_def_cfa_offset 16
 2117 0be4 0190     		str	r0, [sp, #4]
 2118 0be6 0091     		str	r1, [sp]
 2119              		.loc 1 786 0
 2120 0be8 0198     		ldr	r0, [sp, #4]
 2121 0bea 2121     		movs	r1, #33
 2122 0bec 009A     		ldr	r2, [sp]
 2123 0bee 0123     		movs	r3, #1
 2124 0bf0 FFF7FEFF 		bl	LSM303AGR_ACC_ReadReg
 2125 0bf4 0346     		mov	r3, r0
 2126 0bf6 002B     		cmp	r3, #0
 2127 0bf8 01D1     		bne	.L133
 2128              		.loc 1 787 0
 2129 0bfa 0023     		movs	r3, #0
 2130 0bfc 07E0     		b	.L134
 2131              	.L133:
 2132              		.loc 1 789 0
 2133 0bfe 009B     		ldr	r3, [sp]
 2134 0c00 1B78     		ldrb	r3, [r3]	@ zero_extendqisi2
ARM GAS  /tmp/ccVYwGiK.s 			page 39


 2135 0c02 03F00103 		and	r3, r3, #1
 2136 0c06 DAB2     		uxtb	r2, r3
 2137 0c08 009B     		ldr	r3, [sp]
 2138 0c0a 1A70     		strb	r2, [r3]
 2139              		.loc 1 791 0
 2140 0c0c 0123     		movs	r3, #1
 2141              	.L134:
 2142              		.loc 1 792 0
 2143 0c0e 1846     		mov	r0, r3
 2144 0c10 03B0     		add	sp, sp, #12
 2145              		@ sp needed
 2146 0c12 5DF804FB 		ldr	pc, [sp], #4
 2147              		.cfi_endproc
 2148              	.LFE33:
 2149              		.size	LSM303AGR_ACC_R_hpf_aoi_en_int1, .-LSM303AGR_ACC_R_hpf_aoi_en_int1
 2150 0c16 00BF     		.align	2
 2151 0c18 AFF30080 		.p2align 4,,15
 2151      AFF30080 
 2152              		.global	LSM303AGR_ACC_W_hpf_aoi_en_int2
 2153              		.thumb
 2154              		.thumb_func
 2155              		.type	LSM303AGR_ACC_W_hpf_aoi_en_int2, %function
 2156              	LSM303AGR_ACC_W_hpf_aoi_en_int2:
 2157              	.LFB34:
 2158              		.loc 1 802 0
 2159              		.cfi_startproc
 2160              		@ args = 0, pretend = 0, frame = 16
 2161              		@ frame_needed = 0, uses_anonymous_args = 0
 2162 0c20 00B5     		push	{lr}
 2163              		.cfi_def_cfa_offset 4
 2164              		.cfi_offset 14, -4
 2165 0c22 85B0     		sub	sp, sp, #20
 2166              		.cfi_def_cfa_offset 24
 2167 0c24 0190     		str	r0, [sp, #4]
 2168 0c26 0B46     		mov	r3, r1
 2169 0c28 8DF80330 		strb	r3, [sp, #3]
 2170              		.loc 1 805 0
 2171 0c2c 0DF10F03 		add	r3, sp, #15
 2172 0c30 0198     		ldr	r0, [sp, #4]
 2173 0c32 2121     		movs	r1, #33
 2174 0c34 1A46     		mov	r2, r3
 2175 0c36 0123     		movs	r3, #1
 2176 0c38 FFF7FEFF 		bl	LSM303AGR_ACC_ReadReg
 2177 0c3c 0346     		mov	r3, r0
 2178 0c3e 002B     		cmp	r3, #0
 2179 0c40 01D1     		bne	.L136
 2180              		.loc 1 806 0
 2181 0c42 0023     		movs	r3, #0
 2182 0c44 1CE0     		b	.L139
 2183              	.L136:
 2184              		.loc 1 808 0
 2185 0c46 9DF80F30 		ldrb	r3, [sp, #15]	@ zero_extendqisi2
 2186 0c4a 23F00203 		bic	r3, r3, #2
 2187 0c4e DBB2     		uxtb	r3, r3
 2188 0c50 8DF80F30 		strb	r3, [sp, #15]
 2189              		.loc 1 809 0
 2190 0c54 9DF80F20 		ldrb	r2, [sp, #15]	@ zero_extendqisi2
ARM GAS  /tmp/ccVYwGiK.s 			page 40


 2191 0c58 9DF80330 		ldrb	r3, [sp, #3]
 2192 0c5c 1343     		orrs	r3, r3, r2
 2193 0c5e DBB2     		uxtb	r3, r3
 2194 0c60 8DF80F30 		strb	r3, [sp, #15]
 2195              		.loc 1 811 0
 2196 0c64 0DF10F03 		add	r3, sp, #15
 2197 0c68 0198     		ldr	r0, [sp, #4]
 2198 0c6a 2121     		movs	r1, #33
 2199 0c6c 1A46     		mov	r2, r3
 2200 0c6e 0123     		movs	r3, #1
 2201 0c70 FFF7FEFF 		bl	LSM303AGR_ACC_WriteReg
 2202 0c74 0346     		mov	r3, r0
 2203 0c76 002B     		cmp	r3, #0
 2204 0c78 01D1     		bne	.L138
 2205              		.loc 1 812 0
 2206 0c7a 0023     		movs	r3, #0
 2207 0c7c 00E0     		b	.L139
 2208              	.L138:
 2209              		.loc 1 814 0
 2210 0c7e 0123     		movs	r3, #1
 2211              	.L139:
 2212              		.loc 1 815 0
 2213 0c80 1846     		mov	r0, r3
 2214 0c82 05B0     		add	sp, sp, #20
 2215              		@ sp needed
 2216 0c84 5DF804FB 		ldr	pc, [sp], #4
 2217              		.cfi_endproc
 2218              	.LFE34:
 2219              		.size	LSM303AGR_ACC_W_hpf_aoi_en_int2, .-LSM303AGR_ACC_W_hpf_aoi_en_int2
 2220              		.align	2
 2221 0c88 AFF30080 		.p2align 4,,15
 2221      AFF30080 
 2222              		.global	LSM303AGR_ACC_R_hpf_aoi_en_int2
 2223              		.thumb
 2224              		.thumb_func
 2225              		.type	LSM303AGR_ACC_R_hpf_aoi_en_int2, %function
 2226              	LSM303AGR_ACC_R_hpf_aoi_en_int2:
 2227              	.LFB35:
 2228              		.loc 1 825 0
 2229              		.cfi_startproc
 2230              		@ args = 0, pretend = 0, frame = 8
 2231              		@ frame_needed = 0, uses_anonymous_args = 0
 2232 0c90 00B5     		push	{lr}
 2233              		.cfi_def_cfa_offset 4
 2234              		.cfi_offset 14, -4
 2235 0c92 83B0     		sub	sp, sp, #12
 2236              		.cfi_def_cfa_offset 16
 2237 0c94 0190     		str	r0, [sp, #4]
 2238 0c96 0091     		str	r1, [sp]
 2239              		.loc 1 826 0
 2240 0c98 0198     		ldr	r0, [sp, #4]
 2241 0c9a 2121     		movs	r1, #33
 2242 0c9c 009A     		ldr	r2, [sp]
 2243 0c9e 0123     		movs	r3, #1
 2244 0ca0 FFF7FEFF 		bl	LSM303AGR_ACC_ReadReg
 2245 0ca4 0346     		mov	r3, r0
 2246 0ca6 002B     		cmp	r3, #0
ARM GAS  /tmp/ccVYwGiK.s 			page 41


 2247 0ca8 01D1     		bne	.L141
 2248              		.loc 1 827 0
 2249 0caa 0023     		movs	r3, #0
 2250 0cac 07E0     		b	.L142
 2251              	.L141:
 2252              		.loc 1 829 0
 2253 0cae 009B     		ldr	r3, [sp]
 2254 0cb0 1B78     		ldrb	r3, [r3]	@ zero_extendqisi2
 2255 0cb2 03F00203 		and	r3, r3, #2
 2256 0cb6 DAB2     		uxtb	r2, r3
 2257 0cb8 009B     		ldr	r3, [sp]
 2258 0cba 1A70     		strb	r2, [r3]
 2259              		.loc 1 831 0
 2260 0cbc 0123     		movs	r3, #1
 2261              	.L142:
 2262              		.loc 1 832 0
 2263 0cbe 1846     		mov	r0, r3
 2264 0cc0 03B0     		add	sp, sp, #12
 2265              		@ sp needed
 2266 0cc2 5DF804FB 		ldr	pc, [sp], #4
 2267              		.cfi_endproc
 2268              	.LFE35:
 2269              		.size	LSM303AGR_ACC_R_hpf_aoi_en_int2, .-LSM303AGR_ACC_R_hpf_aoi_en_int2
 2270 0cc6 00BF     		.align	2
 2271 0cc8 AFF30080 		.p2align 4,,15
 2271      AFF30080 
 2272              		.global	LSM303AGR_ACC_W_hpf_click_en
 2273              		.thumb
 2274              		.thumb_func
 2275              		.type	LSM303AGR_ACC_W_hpf_click_en, %function
 2276              	LSM303AGR_ACC_W_hpf_click_en:
 2277              	.LFB36:
 2278              		.loc 1 842 0
 2279              		.cfi_startproc
 2280              		@ args = 0, pretend = 0, frame = 16
 2281              		@ frame_needed = 0, uses_anonymous_args = 0
 2282 0cd0 00B5     		push	{lr}
 2283              		.cfi_def_cfa_offset 4
 2284              		.cfi_offset 14, -4
 2285 0cd2 85B0     		sub	sp, sp, #20
 2286              		.cfi_def_cfa_offset 24
 2287 0cd4 0190     		str	r0, [sp, #4]
 2288 0cd6 0B46     		mov	r3, r1
 2289 0cd8 8DF80330 		strb	r3, [sp, #3]
 2290              		.loc 1 845 0
 2291 0cdc 0DF10F03 		add	r3, sp, #15
 2292 0ce0 0198     		ldr	r0, [sp, #4]
 2293 0ce2 2121     		movs	r1, #33
 2294 0ce4 1A46     		mov	r2, r3
 2295 0ce6 0123     		movs	r3, #1
 2296 0ce8 FFF7FEFF 		bl	LSM303AGR_ACC_ReadReg
 2297 0cec 0346     		mov	r3, r0
 2298 0cee 002B     		cmp	r3, #0
 2299 0cf0 01D1     		bne	.L144
 2300              		.loc 1 846 0
 2301 0cf2 0023     		movs	r3, #0
 2302 0cf4 1CE0     		b	.L147
ARM GAS  /tmp/ccVYwGiK.s 			page 42


 2303              	.L144:
 2304              		.loc 1 848 0
 2305 0cf6 9DF80F30 		ldrb	r3, [sp, #15]	@ zero_extendqisi2
 2306 0cfa 23F00403 		bic	r3, r3, #4
 2307 0cfe DBB2     		uxtb	r3, r3
 2308 0d00 8DF80F30 		strb	r3, [sp, #15]
 2309              		.loc 1 849 0
 2310 0d04 9DF80F20 		ldrb	r2, [sp, #15]	@ zero_extendqisi2
 2311 0d08 9DF80330 		ldrb	r3, [sp, #3]
 2312 0d0c 1343     		orrs	r3, r3, r2
 2313 0d0e DBB2     		uxtb	r3, r3
 2314 0d10 8DF80F30 		strb	r3, [sp, #15]
 2315              		.loc 1 851 0
 2316 0d14 0DF10F03 		add	r3, sp, #15
 2317 0d18 0198     		ldr	r0, [sp, #4]
 2318 0d1a 2121     		movs	r1, #33
 2319 0d1c 1A46     		mov	r2, r3
 2320 0d1e 0123     		movs	r3, #1
 2321 0d20 FFF7FEFF 		bl	LSM303AGR_ACC_WriteReg
 2322 0d24 0346     		mov	r3, r0
 2323 0d26 002B     		cmp	r3, #0
 2324 0d28 01D1     		bne	.L146
 2325              		.loc 1 852 0
 2326 0d2a 0023     		movs	r3, #0
 2327 0d2c 00E0     		b	.L147
 2328              	.L146:
 2329              		.loc 1 854 0
 2330 0d2e 0123     		movs	r3, #1
 2331              	.L147:
 2332              		.loc 1 855 0
 2333 0d30 1846     		mov	r0, r3
 2334 0d32 05B0     		add	sp, sp, #20
 2335              		@ sp needed
 2336 0d34 5DF804FB 		ldr	pc, [sp], #4
 2337              		.cfi_endproc
 2338              	.LFE36:
 2339              		.size	LSM303AGR_ACC_W_hpf_click_en, .-LSM303AGR_ACC_W_hpf_click_en
 2340              		.align	2
 2341 0d38 AFF30080 		.p2align 4,,15
 2341      AFF30080 
 2342              		.global	LSM303AGR_ACC_R_hpf_click_en
 2343              		.thumb
 2344              		.thumb_func
 2345              		.type	LSM303AGR_ACC_R_hpf_click_en, %function
 2346              	LSM303AGR_ACC_R_hpf_click_en:
 2347              	.LFB37:
 2348              		.loc 1 865 0
 2349              		.cfi_startproc
 2350              		@ args = 0, pretend = 0, frame = 8
 2351              		@ frame_needed = 0, uses_anonymous_args = 0
 2352 0d40 00B5     		push	{lr}
 2353              		.cfi_def_cfa_offset 4
 2354              		.cfi_offset 14, -4
 2355 0d42 83B0     		sub	sp, sp, #12
 2356              		.cfi_def_cfa_offset 16
 2357 0d44 0190     		str	r0, [sp, #4]
 2358 0d46 0091     		str	r1, [sp]
ARM GAS  /tmp/ccVYwGiK.s 			page 43


 2359              		.loc 1 866 0
 2360 0d48 0198     		ldr	r0, [sp, #4]
 2361 0d4a 2121     		movs	r1, #33
 2362 0d4c 009A     		ldr	r2, [sp]
 2363 0d4e 0123     		movs	r3, #1
 2364 0d50 FFF7FEFF 		bl	LSM303AGR_ACC_ReadReg
 2365 0d54 0346     		mov	r3, r0
 2366 0d56 002B     		cmp	r3, #0
 2367 0d58 01D1     		bne	.L149
 2368              		.loc 1 867 0
 2369 0d5a 0023     		movs	r3, #0
 2370 0d5c 07E0     		b	.L150
 2371              	.L149:
 2372              		.loc 1 869 0
 2373 0d5e 009B     		ldr	r3, [sp]
 2374 0d60 1B78     		ldrb	r3, [r3]	@ zero_extendqisi2
 2375 0d62 03F00403 		and	r3, r3, #4
 2376 0d66 DAB2     		uxtb	r2, r3
 2377 0d68 009B     		ldr	r3, [sp]
 2378 0d6a 1A70     		strb	r2, [r3]
 2379              		.loc 1 871 0
 2380 0d6c 0123     		movs	r3, #1
 2381              	.L150:
 2382              		.loc 1 872 0
 2383 0d6e 1846     		mov	r0, r3
 2384 0d70 03B0     		add	sp, sp, #12
 2385              		@ sp needed
 2386 0d72 5DF804FB 		ldr	pc, [sp], #4
 2387              		.cfi_endproc
 2388              	.LFE37:
 2389              		.size	LSM303AGR_ACC_R_hpf_click_en, .-LSM303AGR_ACC_R_hpf_click_en
 2390 0d76 00BF     		.align	2
 2391 0d78 AFF30080 		.p2align 4,,15
 2391      AFF30080 
 2392              		.global	LSM303AGR_ACC_W_Data_Filter
 2393              		.thumb
 2394              		.thumb_func
 2395              		.type	LSM303AGR_ACC_W_Data_Filter, %function
 2396              	LSM303AGR_ACC_W_Data_Filter:
 2397              	.LFB38:
 2398              		.loc 1 882 0
 2399              		.cfi_startproc
 2400              		@ args = 0, pretend = 0, frame = 16
 2401              		@ frame_needed = 0, uses_anonymous_args = 0
 2402 0d80 00B5     		push	{lr}
 2403              		.cfi_def_cfa_offset 4
 2404              		.cfi_offset 14, -4
 2405 0d82 85B0     		sub	sp, sp, #20
 2406              		.cfi_def_cfa_offset 24
 2407 0d84 0190     		str	r0, [sp, #4]
 2408 0d86 0B46     		mov	r3, r1
 2409 0d88 8DF80330 		strb	r3, [sp, #3]
 2410              		.loc 1 885 0
 2411 0d8c 0DF10F03 		add	r3, sp, #15
 2412 0d90 0198     		ldr	r0, [sp, #4]
 2413 0d92 2121     		movs	r1, #33
 2414 0d94 1A46     		mov	r2, r3
ARM GAS  /tmp/ccVYwGiK.s 			page 44


 2415 0d96 0123     		movs	r3, #1
 2416 0d98 FFF7FEFF 		bl	LSM303AGR_ACC_ReadReg
 2417 0d9c 0346     		mov	r3, r0
 2418 0d9e 002B     		cmp	r3, #0
 2419 0da0 01D1     		bne	.L152
 2420              		.loc 1 886 0
 2421 0da2 0023     		movs	r3, #0
 2422 0da4 1CE0     		b	.L155
 2423              	.L152:
 2424              		.loc 1 888 0
 2425 0da6 9DF80F30 		ldrb	r3, [sp, #15]	@ zero_extendqisi2
 2426 0daa 23F00803 		bic	r3, r3, #8
 2427 0dae DBB2     		uxtb	r3, r3
 2428 0db0 8DF80F30 		strb	r3, [sp, #15]
 2429              		.loc 1 889 0
 2430 0db4 9DF80F20 		ldrb	r2, [sp, #15]	@ zero_extendqisi2
 2431 0db8 9DF80330 		ldrb	r3, [sp, #3]
 2432 0dbc 1343     		orrs	r3, r3, r2
 2433 0dbe DBB2     		uxtb	r3, r3
 2434 0dc0 8DF80F30 		strb	r3, [sp, #15]
 2435              		.loc 1 891 0
 2436 0dc4 0DF10F03 		add	r3, sp, #15
 2437 0dc8 0198     		ldr	r0, [sp, #4]
 2438 0dca 2121     		movs	r1, #33
 2439 0dcc 1A46     		mov	r2, r3
 2440 0dce 0123     		movs	r3, #1
 2441 0dd0 FFF7FEFF 		bl	LSM303AGR_ACC_WriteReg
 2442 0dd4 0346     		mov	r3, r0
 2443 0dd6 002B     		cmp	r3, #0
 2444 0dd8 01D1     		bne	.L154
 2445              		.loc 1 892 0
 2446 0dda 0023     		movs	r3, #0
 2447 0ddc 00E0     		b	.L155
 2448              	.L154:
 2449              		.loc 1 894 0
 2450 0dde 0123     		movs	r3, #1
 2451              	.L155:
 2452              		.loc 1 895 0
 2453 0de0 1846     		mov	r0, r3
 2454 0de2 05B0     		add	sp, sp, #20
 2455              		@ sp needed
 2456 0de4 5DF804FB 		ldr	pc, [sp], #4
 2457              		.cfi_endproc
 2458              	.LFE38:
 2459              		.size	LSM303AGR_ACC_W_Data_Filter, .-LSM303AGR_ACC_W_Data_Filter
 2460              		.align	2
 2461 0de8 AFF30080 		.p2align 4,,15
 2461      AFF30080 
 2462              		.global	LSM303AGR_ACC_R_Data_Filter
 2463              		.thumb
 2464              		.thumb_func
 2465              		.type	LSM303AGR_ACC_R_Data_Filter, %function
 2466              	LSM303AGR_ACC_R_Data_Filter:
 2467              	.LFB39:
 2468              		.loc 1 905 0
 2469              		.cfi_startproc
 2470              		@ args = 0, pretend = 0, frame = 8
ARM GAS  /tmp/ccVYwGiK.s 			page 45


 2471              		@ frame_needed = 0, uses_anonymous_args = 0
 2472 0df0 00B5     		push	{lr}
 2473              		.cfi_def_cfa_offset 4
 2474              		.cfi_offset 14, -4
 2475 0df2 83B0     		sub	sp, sp, #12
 2476              		.cfi_def_cfa_offset 16
 2477 0df4 0190     		str	r0, [sp, #4]
 2478 0df6 0091     		str	r1, [sp]
 2479              		.loc 1 906 0
 2480 0df8 0198     		ldr	r0, [sp, #4]
 2481 0dfa 2121     		movs	r1, #33
 2482 0dfc 009A     		ldr	r2, [sp]
 2483 0dfe 0123     		movs	r3, #1
 2484 0e00 FFF7FEFF 		bl	LSM303AGR_ACC_ReadReg
 2485 0e04 0346     		mov	r3, r0
 2486 0e06 002B     		cmp	r3, #0
 2487 0e08 01D1     		bne	.L157
 2488              		.loc 1 907 0
 2489 0e0a 0023     		movs	r3, #0
 2490 0e0c 07E0     		b	.L158
 2491              	.L157:
 2492              		.loc 1 909 0
 2493 0e0e 009B     		ldr	r3, [sp]
 2494 0e10 1B78     		ldrb	r3, [r3]	@ zero_extendqisi2
 2495 0e12 03F00803 		and	r3, r3, #8
 2496 0e16 DAB2     		uxtb	r2, r3
 2497 0e18 009B     		ldr	r3, [sp]
 2498 0e1a 1A70     		strb	r2, [r3]
 2499              		.loc 1 911 0
 2500 0e1c 0123     		movs	r3, #1
 2501              	.L158:
 2502              		.loc 1 912 0
 2503 0e1e 1846     		mov	r0, r3
 2504 0e20 03B0     		add	sp, sp, #12
 2505              		@ sp needed
 2506 0e22 5DF804FB 		ldr	pc, [sp], #4
 2507              		.cfi_endproc
 2508              	.LFE39:
 2509              		.size	LSM303AGR_ACC_R_Data_Filter, .-LSM303AGR_ACC_R_Data_Filter
 2510 0e26 00BF     		.align	2
 2511 0e28 AFF30080 		.p2align 4,,15
 2511      AFF30080 
 2512              		.global	LSM303AGR_ACC_W_hpf_cutoff_freq
 2513              		.thumb
 2514              		.thumb_func
 2515              		.type	LSM303AGR_ACC_W_hpf_cutoff_freq, %function
 2516              	LSM303AGR_ACC_W_hpf_cutoff_freq:
 2517              	.LFB40:
 2518              		.loc 1 922 0
 2519              		.cfi_startproc
 2520              		@ args = 0, pretend = 0, frame = 16
 2521              		@ frame_needed = 0, uses_anonymous_args = 0
 2522 0e30 00B5     		push	{lr}
 2523              		.cfi_def_cfa_offset 4
 2524              		.cfi_offset 14, -4
 2525 0e32 85B0     		sub	sp, sp, #20
 2526              		.cfi_def_cfa_offset 24
ARM GAS  /tmp/ccVYwGiK.s 			page 46


 2527 0e34 0190     		str	r0, [sp, #4]
 2528 0e36 0B46     		mov	r3, r1
 2529 0e38 8DF80330 		strb	r3, [sp, #3]
 2530              		.loc 1 925 0
 2531 0e3c 0DF10F03 		add	r3, sp, #15
 2532 0e40 0198     		ldr	r0, [sp, #4]
 2533 0e42 2121     		movs	r1, #33
 2534 0e44 1A46     		mov	r2, r3
 2535 0e46 0123     		movs	r3, #1
 2536 0e48 FFF7FEFF 		bl	LSM303AGR_ACC_ReadReg
 2537 0e4c 0346     		mov	r3, r0
 2538 0e4e 002B     		cmp	r3, #0
 2539 0e50 01D1     		bne	.L160
 2540              		.loc 1 926 0
 2541 0e52 0023     		movs	r3, #0
 2542 0e54 1CE0     		b	.L163
 2543              	.L160:
 2544              		.loc 1 928 0
 2545 0e56 9DF80F30 		ldrb	r3, [sp, #15]	@ zero_extendqisi2
 2546 0e5a 23F03003 		bic	r3, r3, #48
 2547 0e5e DBB2     		uxtb	r3, r3
 2548 0e60 8DF80F30 		strb	r3, [sp, #15]
 2549              		.loc 1 929 0
 2550 0e64 9DF80F20 		ldrb	r2, [sp, #15]	@ zero_extendqisi2
 2551 0e68 9DF80330 		ldrb	r3, [sp, #3]
 2552 0e6c 1343     		orrs	r3, r3, r2
 2553 0e6e DBB2     		uxtb	r3, r3
 2554 0e70 8DF80F30 		strb	r3, [sp, #15]
 2555              		.loc 1 931 0
 2556 0e74 0DF10F03 		add	r3, sp, #15
 2557 0e78 0198     		ldr	r0, [sp, #4]
 2558 0e7a 2121     		movs	r1, #33
 2559 0e7c 1A46     		mov	r2, r3
 2560 0e7e 0123     		movs	r3, #1
 2561 0e80 FFF7FEFF 		bl	LSM303AGR_ACC_WriteReg
 2562 0e84 0346     		mov	r3, r0
 2563 0e86 002B     		cmp	r3, #0
 2564 0e88 01D1     		bne	.L162
 2565              		.loc 1 932 0
 2566 0e8a 0023     		movs	r3, #0
 2567 0e8c 00E0     		b	.L163
 2568              	.L162:
 2569              		.loc 1 934 0
 2570 0e8e 0123     		movs	r3, #1
 2571              	.L163:
 2572              		.loc 1 935 0
 2573 0e90 1846     		mov	r0, r3
 2574 0e92 05B0     		add	sp, sp, #20
 2575              		@ sp needed
 2576 0e94 5DF804FB 		ldr	pc, [sp], #4
 2577              		.cfi_endproc
 2578              	.LFE40:
 2579              		.size	LSM303AGR_ACC_W_hpf_cutoff_freq, .-LSM303AGR_ACC_W_hpf_cutoff_freq
 2580              		.align	2
 2581 0e98 AFF30080 		.p2align 4,,15
 2581      AFF30080 
 2582              		.global	LSM303AGR_ACC_R_hpf_cutoff_freq
ARM GAS  /tmp/ccVYwGiK.s 			page 47


 2583              		.thumb
 2584              		.thumb_func
 2585              		.type	LSM303AGR_ACC_R_hpf_cutoff_freq, %function
 2586              	LSM303AGR_ACC_R_hpf_cutoff_freq:
 2587              	.LFB41:
 2588              		.loc 1 945 0
 2589              		.cfi_startproc
 2590              		@ args = 0, pretend = 0, frame = 8
 2591              		@ frame_needed = 0, uses_anonymous_args = 0
 2592 0ea0 00B5     		push	{lr}
 2593              		.cfi_def_cfa_offset 4
 2594              		.cfi_offset 14, -4
 2595 0ea2 83B0     		sub	sp, sp, #12
 2596              		.cfi_def_cfa_offset 16
 2597 0ea4 0190     		str	r0, [sp, #4]
 2598 0ea6 0091     		str	r1, [sp]
 2599              		.loc 1 946 0
 2600 0ea8 0198     		ldr	r0, [sp, #4]
 2601 0eaa 2121     		movs	r1, #33
 2602 0eac 009A     		ldr	r2, [sp]
 2603 0eae 0123     		movs	r3, #1
 2604 0eb0 FFF7FEFF 		bl	LSM303AGR_ACC_ReadReg
 2605 0eb4 0346     		mov	r3, r0
 2606 0eb6 002B     		cmp	r3, #0
 2607 0eb8 01D1     		bne	.L165
 2608              		.loc 1 947 0
 2609 0eba 0023     		movs	r3, #0
 2610 0ebc 07E0     		b	.L166
 2611              	.L165:
 2612              		.loc 1 949 0
 2613 0ebe 009B     		ldr	r3, [sp]
 2614 0ec0 1B78     		ldrb	r3, [r3]	@ zero_extendqisi2
 2615 0ec2 03F03003 		and	r3, r3, #48
 2616 0ec6 DAB2     		uxtb	r2, r3
 2617 0ec8 009B     		ldr	r3, [sp]
 2618 0eca 1A70     		strb	r2, [r3]
 2619              		.loc 1 951 0
 2620 0ecc 0123     		movs	r3, #1
 2621              	.L166:
 2622              		.loc 1 952 0
 2623 0ece 1846     		mov	r0, r3
 2624 0ed0 03B0     		add	sp, sp, #12
 2625              		@ sp needed
 2626 0ed2 5DF804FB 		ldr	pc, [sp], #4
 2627              		.cfi_endproc
 2628              	.LFE41:
 2629              		.size	LSM303AGR_ACC_R_hpf_cutoff_freq, .-LSM303AGR_ACC_R_hpf_cutoff_freq
 2630 0ed6 00BF     		.align	2
 2631 0ed8 AFF30080 		.p2align 4,,15
 2631      AFF30080 
 2632              		.global	LSM303AGR_ACC_W_hpf_mode
 2633              		.thumb
 2634              		.thumb_func
 2635              		.type	LSM303AGR_ACC_W_hpf_mode, %function
 2636              	LSM303AGR_ACC_W_hpf_mode:
 2637              	.LFB42:
 2638              		.loc 1 962 0
ARM GAS  /tmp/ccVYwGiK.s 			page 48


 2639              		.cfi_startproc
 2640              		@ args = 0, pretend = 0, frame = 16
 2641              		@ frame_needed = 0, uses_anonymous_args = 0
 2642 0ee0 00B5     		push	{lr}
 2643              		.cfi_def_cfa_offset 4
 2644              		.cfi_offset 14, -4
 2645 0ee2 85B0     		sub	sp, sp, #20
 2646              		.cfi_def_cfa_offset 24
 2647 0ee4 0190     		str	r0, [sp, #4]
 2648 0ee6 0B46     		mov	r3, r1
 2649 0ee8 8DF80330 		strb	r3, [sp, #3]
 2650              		.loc 1 965 0
 2651 0eec 0DF10F03 		add	r3, sp, #15
 2652 0ef0 0198     		ldr	r0, [sp, #4]
 2653 0ef2 2121     		movs	r1, #33
 2654 0ef4 1A46     		mov	r2, r3
 2655 0ef6 0123     		movs	r3, #1
 2656 0ef8 FFF7FEFF 		bl	LSM303AGR_ACC_ReadReg
 2657 0efc 0346     		mov	r3, r0
 2658 0efe 002B     		cmp	r3, #0
 2659 0f00 01D1     		bne	.L168
 2660              		.loc 1 966 0
 2661 0f02 0023     		movs	r3, #0
 2662 0f04 1CE0     		b	.L171
 2663              	.L168:
 2664              		.loc 1 968 0
 2665 0f06 9DF80F30 		ldrb	r3, [sp, #15]	@ zero_extendqisi2
 2666 0f0a 03F03F03 		and	r3, r3, #63
 2667 0f0e DBB2     		uxtb	r3, r3
 2668 0f10 8DF80F30 		strb	r3, [sp, #15]
 2669              		.loc 1 969 0
 2670 0f14 9DF80F20 		ldrb	r2, [sp, #15]	@ zero_extendqisi2
 2671 0f18 9DF80330 		ldrb	r3, [sp, #3]
 2672 0f1c 1343     		orrs	r3, r3, r2
 2673 0f1e DBB2     		uxtb	r3, r3
 2674 0f20 8DF80F30 		strb	r3, [sp, #15]
 2675              		.loc 1 971 0
 2676 0f24 0DF10F03 		add	r3, sp, #15
 2677 0f28 0198     		ldr	r0, [sp, #4]
 2678 0f2a 2121     		movs	r1, #33
 2679 0f2c 1A46     		mov	r2, r3
 2680 0f2e 0123     		movs	r3, #1
 2681 0f30 FFF7FEFF 		bl	LSM303AGR_ACC_WriteReg
 2682 0f34 0346     		mov	r3, r0
 2683 0f36 002B     		cmp	r3, #0
 2684 0f38 01D1     		bne	.L170
 2685              		.loc 1 972 0
 2686 0f3a 0023     		movs	r3, #0
 2687 0f3c 00E0     		b	.L171
 2688              	.L170:
 2689              		.loc 1 974 0
 2690 0f3e 0123     		movs	r3, #1
 2691              	.L171:
 2692              		.loc 1 975 0
 2693 0f40 1846     		mov	r0, r3
 2694 0f42 05B0     		add	sp, sp, #20
 2695              		@ sp needed
ARM GAS  /tmp/ccVYwGiK.s 			page 49


 2696 0f44 5DF804FB 		ldr	pc, [sp], #4
 2697              		.cfi_endproc
 2698              	.LFE42:
 2699              		.size	LSM303AGR_ACC_W_hpf_mode, .-LSM303AGR_ACC_W_hpf_mode
 2700              		.align	2
 2701 0f48 AFF30080 		.p2align 4,,15
 2701      AFF30080 
 2702              		.global	LSM303AGR_ACC_R_hpf_mode
 2703              		.thumb
 2704              		.thumb_func
 2705              		.type	LSM303AGR_ACC_R_hpf_mode, %function
 2706              	LSM303AGR_ACC_R_hpf_mode:
 2707              	.LFB43:
 2708              		.loc 1 985 0
 2709              		.cfi_startproc
 2710              		@ args = 0, pretend = 0, frame = 8
 2711              		@ frame_needed = 0, uses_anonymous_args = 0
 2712 0f50 00B5     		push	{lr}
 2713              		.cfi_def_cfa_offset 4
 2714              		.cfi_offset 14, -4
 2715 0f52 83B0     		sub	sp, sp, #12
 2716              		.cfi_def_cfa_offset 16
 2717 0f54 0190     		str	r0, [sp, #4]
 2718 0f56 0091     		str	r1, [sp]
 2719              		.loc 1 986 0
 2720 0f58 0198     		ldr	r0, [sp, #4]
 2721 0f5a 2121     		movs	r1, #33
 2722 0f5c 009A     		ldr	r2, [sp]
 2723 0f5e 0123     		movs	r3, #1
 2724 0f60 FFF7FEFF 		bl	LSM303AGR_ACC_ReadReg
 2725 0f64 0346     		mov	r3, r0
 2726 0f66 002B     		cmp	r3, #0
 2727 0f68 01D1     		bne	.L173
 2728              		.loc 1 987 0
 2729 0f6a 0023     		movs	r3, #0
 2730 0f6c 07E0     		b	.L174
 2731              	.L173:
 2732              		.loc 1 989 0
 2733 0f6e 009B     		ldr	r3, [sp]
 2734 0f70 1B78     		ldrb	r3, [r3]	@ zero_extendqisi2
 2735 0f72 23F03F03 		bic	r3, r3, #63
 2736 0f76 DAB2     		uxtb	r2, r3
 2737 0f78 009B     		ldr	r3, [sp]
 2738 0f7a 1A70     		strb	r2, [r3]
 2739              		.loc 1 991 0
 2740 0f7c 0123     		movs	r3, #1
 2741              	.L174:
 2742              		.loc 1 992 0
 2743 0f7e 1846     		mov	r0, r3
 2744 0f80 03B0     		add	sp, sp, #12
 2745              		@ sp needed
 2746 0f82 5DF804FB 		ldr	pc, [sp], #4
 2747              		.cfi_endproc
 2748              	.LFE43:
 2749              		.size	LSM303AGR_ACC_R_hpf_mode, .-LSM303AGR_ACC_R_hpf_mode
 2750 0f86 00BF     		.align	2
 2751 0f88 AFF30080 		.p2align 4,,15
ARM GAS  /tmp/ccVYwGiK.s 			page 50


 2751      AFF30080 
 2752              		.global	LSM303AGR_ACC_W_FIFO_Overrun_on_INT1
 2753              		.thumb
 2754              		.thumb_func
 2755              		.type	LSM303AGR_ACC_W_FIFO_Overrun_on_INT1, %function
 2756              	LSM303AGR_ACC_W_FIFO_Overrun_on_INT1:
 2757              	.LFB44:
 2758              		.loc 1 1002 0
 2759              		.cfi_startproc
 2760              		@ args = 0, pretend = 0, frame = 16
 2761              		@ frame_needed = 0, uses_anonymous_args = 0
 2762 0f90 00B5     		push	{lr}
 2763              		.cfi_def_cfa_offset 4
 2764              		.cfi_offset 14, -4
 2765 0f92 85B0     		sub	sp, sp, #20
 2766              		.cfi_def_cfa_offset 24
 2767 0f94 0190     		str	r0, [sp, #4]
 2768 0f96 0B46     		mov	r3, r1
 2769 0f98 8DF80330 		strb	r3, [sp, #3]
 2770              		.loc 1 1005 0
 2771 0f9c 0DF10F03 		add	r3, sp, #15
 2772 0fa0 0198     		ldr	r0, [sp, #4]
 2773 0fa2 2221     		movs	r1, #34
 2774 0fa4 1A46     		mov	r2, r3
 2775 0fa6 0123     		movs	r3, #1
 2776 0fa8 FFF7FEFF 		bl	LSM303AGR_ACC_ReadReg
 2777 0fac 0346     		mov	r3, r0
 2778 0fae 002B     		cmp	r3, #0
 2779 0fb0 01D1     		bne	.L176
 2780              		.loc 1 1006 0
 2781 0fb2 0023     		movs	r3, #0
 2782 0fb4 1CE0     		b	.L179
 2783              	.L176:
 2784              		.loc 1 1008 0
 2785 0fb6 9DF80F30 		ldrb	r3, [sp, #15]	@ zero_extendqisi2
 2786 0fba 23F00203 		bic	r3, r3, #2
 2787 0fbe DBB2     		uxtb	r3, r3
 2788 0fc0 8DF80F30 		strb	r3, [sp, #15]
 2789              		.loc 1 1009 0
 2790 0fc4 9DF80F20 		ldrb	r2, [sp, #15]	@ zero_extendqisi2
 2791 0fc8 9DF80330 		ldrb	r3, [sp, #3]
 2792 0fcc 1343     		orrs	r3, r3, r2
 2793 0fce DBB2     		uxtb	r3, r3
 2794 0fd0 8DF80F30 		strb	r3, [sp, #15]
 2795              		.loc 1 1011 0
 2796 0fd4 0DF10F03 		add	r3, sp, #15
 2797 0fd8 0198     		ldr	r0, [sp, #4]
 2798 0fda 2221     		movs	r1, #34
 2799 0fdc 1A46     		mov	r2, r3
 2800 0fde 0123     		movs	r3, #1
 2801 0fe0 FFF7FEFF 		bl	LSM303AGR_ACC_WriteReg
 2802 0fe4 0346     		mov	r3, r0
 2803 0fe6 002B     		cmp	r3, #0
 2804 0fe8 01D1     		bne	.L178
 2805              		.loc 1 1012 0
 2806 0fea 0023     		movs	r3, #0
 2807 0fec 00E0     		b	.L179
ARM GAS  /tmp/ccVYwGiK.s 			page 51


 2808              	.L178:
 2809              		.loc 1 1014 0
 2810 0fee 0123     		movs	r3, #1
 2811              	.L179:
 2812              		.loc 1 1015 0
 2813 0ff0 1846     		mov	r0, r3
 2814 0ff2 05B0     		add	sp, sp, #20
 2815              		@ sp needed
 2816 0ff4 5DF804FB 		ldr	pc, [sp], #4
 2817              		.cfi_endproc
 2818              	.LFE44:
 2819              		.size	LSM303AGR_ACC_W_FIFO_Overrun_on_INT1, .-LSM303AGR_ACC_W_FIFO_Overrun_on_INT1
 2820              		.align	2
 2821 0ff8 AFF30080 		.p2align 4,,15
 2821      AFF30080 
 2822              		.global	LSM303AGR_ACC_R_FIFO_Overrun_on_INT1
 2823              		.thumb
 2824              		.thumb_func
 2825              		.type	LSM303AGR_ACC_R_FIFO_Overrun_on_INT1, %function
 2826              	LSM303AGR_ACC_R_FIFO_Overrun_on_INT1:
 2827              	.LFB45:
 2828              		.loc 1 1025 0
 2829              		.cfi_startproc
 2830              		@ args = 0, pretend = 0, frame = 8
 2831              		@ frame_needed = 0, uses_anonymous_args = 0
 2832 1000 00B5     		push	{lr}
 2833              		.cfi_def_cfa_offset 4
 2834              		.cfi_offset 14, -4
 2835 1002 83B0     		sub	sp, sp, #12
 2836              		.cfi_def_cfa_offset 16
 2837 1004 0190     		str	r0, [sp, #4]
 2838 1006 0091     		str	r1, [sp]
 2839              		.loc 1 1026 0
 2840 1008 0198     		ldr	r0, [sp, #4]
 2841 100a 2221     		movs	r1, #34
 2842 100c 009A     		ldr	r2, [sp]
 2843 100e 0123     		movs	r3, #1
 2844 1010 FFF7FEFF 		bl	LSM303AGR_ACC_ReadReg
 2845 1014 0346     		mov	r3, r0
 2846 1016 002B     		cmp	r3, #0
 2847 1018 01D1     		bne	.L181
 2848              		.loc 1 1027 0
 2849 101a 0023     		movs	r3, #0
 2850 101c 07E0     		b	.L182
 2851              	.L181:
 2852              		.loc 1 1029 0
 2853 101e 009B     		ldr	r3, [sp]
 2854 1020 1B78     		ldrb	r3, [r3]	@ zero_extendqisi2
 2855 1022 03F00203 		and	r3, r3, #2
 2856 1026 DAB2     		uxtb	r2, r3
 2857 1028 009B     		ldr	r3, [sp]
 2858 102a 1A70     		strb	r2, [r3]
 2859              		.loc 1 1031 0
 2860 102c 0123     		movs	r3, #1
 2861              	.L182:
 2862              		.loc 1 1032 0
 2863 102e 1846     		mov	r0, r3
ARM GAS  /tmp/ccVYwGiK.s 			page 52


 2864 1030 03B0     		add	sp, sp, #12
 2865              		@ sp needed
 2866 1032 5DF804FB 		ldr	pc, [sp], #4
 2867              		.cfi_endproc
 2868              	.LFE45:
 2869              		.size	LSM303AGR_ACC_R_FIFO_Overrun_on_INT1, .-LSM303AGR_ACC_R_FIFO_Overrun_on_INT1
 2870 1036 00BF     		.align	2
 2871 1038 AFF30080 		.p2align 4,,15
 2871      AFF30080 
 2872              		.global	LSM303AGR_ACC_W_FIFO_Watermark_on_INT1
 2873              		.thumb
 2874              		.thumb_func
 2875              		.type	LSM303AGR_ACC_W_FIFO_Watermark_on_INT1, %function
 2876              	LSM303AGR_ACC_W_FIFO_Watermark_on_INT1:
 2877              	.LFB46:
 2878              		.loc 1 1042 0
 2879              		.cfi_startproc
 2880              		@ args = 0, pretend = 0, frame = 16
 2881              		@ frame_needed = 0, uses_anonymous_args = 0
 2882 1040 00B5     		push	{lr}
 2883              		.cfi_def_cfa_offset 4
 2884              		.cfi_offset 14, -4
 2885 1042 85B0     		sub	sp, sp, #20
 2886              		.cfi_def_cfa_offset 24
 2887 1044 0190     		str	r0, [sp, #4]
 2888 1046 0B46     		mov	r3, r1
 2889 1048 8DF80330 		strb	r3, [sp, #3]
 2890              		.loc 1 1045 0
 2891 104c 0DF10F03 		add	r3, sp, #15
 2892 1050 0198     		ldr	r0, [sp, #4]
 2893 1052 2221     		movs	r1, #34
 2894 1054 1A46     		mov	r2, r3
 2895 1056 0123     		movs	r3, #1
 2896 1058 FFF7FEFF 		bl	LSM303AGR_ACC_ReadReg
 2897 105c 0346     		mov	r3, r0
 2898 105e 002B     		cmp	r3, #0
 2899 1060 01D1     		bne	.L184
 2900              		.loc 1 1046 0
 2901 1062 0023     		movs	r3, #0
 2902 1064 1CE0     		b	.L187
 2903              	.L184:
 2904              		.loc 1 1048 0
 2905 1066 9DF80F30 		ldrb	r3, [sp, #15]	@ zero_extendqisi2
 2906 106a 23F00403 		bic	r3, r3, #4
 2907 106e DBB2     		uxtb	r3, r3
 2908 1070 8DF80F30 		strb	r3, [sp, #15]
 2909              		.loc 1 1049 0
 2910 1074 9DF80F20 		ldrb	r2, [sp, #15]	@ zero_extendqisi2
 2911 1078 9DF80330 		ldrb	r3, [sp, #3]
 2912 107c 1343     		orrs	r3, r3, r2
 2913 107e DBB2     		uxtb	r3, r3
 2914 1080 8DF80F30 		strb	r3, [sp, #15]
 2915              		.loc 1 1051 0
 2916 1084 0DF10F03 		add	r3, sp, #15
 2917 1088 0198     		ldr	r0, [sp, #4]
 2918 108a 2221     		movs	r1, #34
 2919 108c 1A46     		mov	r2, r3
ARM GAS  /tmp/ccVYwGiK.s 			page 53


 2920 108e 0123     		movs	r3, #1
 2921 1090 FFF7FEFF 		bl	LSM303AGR_ACC_WriteReg
 2922 1094 0346     		mov	r3, r0
 2923 1096 002B     		cmp	r3, #0
 2924 1098 01D1     		bne	.L186
 2925              		.loc 1 1052 0
 2926 109a 0023     		movs	r3, #0
 2927 109c 00E0     		b	.L187
 2928              	.L186:
 2929              		.loc 1 1054 0
 2930 109e 0123     		movs	r3, #1
 2931              	.L187:
 2932              		.loc 1 1055 0
 2933 10a0 1846     		mov	r0, r3
 2934 10a2 05B0     		add	sp, sp, #20
 2935              		@ sp needed
 2936 10a4 5DF804FB 		ldr	pc, [sp], #4
 2937              		.cfi_endproc
 2938              	.LFE46:
 2939              		.size	LSM303AGR_ACC_W_FIFO_Watermark_on_INT1, .-LSM303AGR_ACC_W_FIFO_Watermark_on_INT1
 2940              		.align	2
 2941 10a8 AFF30080 		.p2align 4,,15
 2941      AFF30080 
 2942              		.global	LSM303AGR_ACC_R_FIFO_Watermark_on_INT1
 2943              		.thumb
 2944              		.thumb_func
 2945              		.type	LSM303AGR_ACC_R_FIFO_Watermark_on_INT1, %function
 2946              	LSM303AGR_ACC_R_FIFO_Watermark_on_INT1:
 2947              	.LFB47:
 2948              		.loc 1 1065 0
 2949              		.cfi_startproc
 2950              		@ args = 0, pretend = 0, frame = 8
 2951              		@ frame_needed = 0, uses_anonymous_args = 0
 2952 10b0 00B5     		push	{lr}
 2953              		.cfi_def_cfa_offset 4
 2954              		.cfi_offset 14, -4
 2955 10b2 83B0     		sub	sp, sp, #12
 2956              		.cfi_def_cfa_offset 16
 2957 10b4 0190     		str	r0, [sp, #4]
 2958 10b6 0091     		str	r1, [sp]
 2959              		.loc 1 1066 0
 2960 10b8 0198     		ldr	r0, [sp, #4]
 2961 10ba 2221     		movs	r1, #34
 2962 10bc 009A     		ldr	r2, [sp]
 2963 10be 0123     		movs	r3, #1
 2964 10c0 FFF7FEFF 		bl	LSM303AGR_ACC_ReadReg
 2965 10c4 0346     		mov	r3, r0
 2966 10c6 002B     		cmp	r3, #0
 2967 10c8 01D1     		bne	.L189
 2968              		.loc 1 1067 0
 2969 10ca 0023     		movs	r3, #0
 2970 10cc 07E0     		b	.L190
 2971              	.L189:
 2972              		.loc 1 1069 0
 2973 10ce 009B     		ldr	r3, [sp]
 2974 10d0 1B78     		ldrb	r3, [r3]	@ zero_extendqisi2
 2975 10d2 03F00403 		and	r3, r3, #4
ARM GAS  /tmp/ccVYwGiK.s 			page 54


 2976 10d6 DAB2     		uxtb	r2, r3
 2977 10d8 009B     		ldr	r3, [sp]
 2978 10da 1A70     		strb	r2, [r3]
 2979              		.loc 1 1071 0
 2980 10dc 0123     		movs	r3, #1
 2981              	.L190:
 2982              		.loc 1 1072 0
 2983 10de 1846     		mov	r0, r3
 2984 10e0 03B0     		add	sp, sp, #12
 2985              		@ sp needed
 2986 10e2 5DF804FB 		ldr	pc, [sp], #4
 2987              		.cfi_endproc
 2988              	.LFE47:
 2989              		.size	LSM303AGR_ACC_R_FIFO_Watermark_on_INT1, .-LSM303AGR_ACC_R_FIFO_Watermark_on_INT1
 2990 10e6 00BF     		.align	2
 2991 10e8 AFF30080 		.p2align 4,,15
 2991      AFF30080 
 2992              		.global	LSM303AGR_ACC_W_FIFO_DRDY2_on_INT1
 2993              		.thumb
 2994              		.thumb_func
 2995              		.type	LSM303AGR_ACC_W_FIFO_DRDY2_on_INT1, %function
 2996              	LSM303AGR_ACC_W_FIFO_DRDY2_on_INT1:
 2997              	.LFB48:
 2998              		.loc 1 1082 0
 2999              		.cfi_startproc
 3000              		@ args = 0, pretend = 0, frame = 16
 3001              		@ frame_needed = 0, uses_anonymous_args = 0
 3002 10f0 00B5     		push	{lr}
 3003              		.cfi_def_cfa_offset 4
 3004              		.cfi_offset 14, -4
 3005 10f2 85B0     		sub	sp, sp, #20
 3006              		.cfi_def_cfa_offset 24
 3007 10f4 0190     		str	r0, [sp, #4]
 3008 10f6 0B46     		mov	r3, r1
 3009 10f8 8DF80330 		strb	r3, [sp, #3]
 3010              		.loc 1 1085 0
 3011 10fc 0DF10F03 		add	r3, sp, #15
 3012 1100 0198     		ldr	r0, [sp, #4]
 3013 1102 2221     		movs	r1, #34
 3014 1104 1A46     		mov	r2, r3
 3015 1106 0123     		movs	r3, #1
 3016 1108 FFF7FEFF 		bl	LSM303AGR_ACC_ReadReg
 3017 110c 0346     		mov	r3, r0
 3018 110e 002B     		cmp	r3, #0
 3019 1110 01D1     		bne	.L192
 3020              		.loc 1 1086 0
 3021 1112 0023     		movs	r3, #0
 3022 1114 1CE0     		b	.L195
 3023              	.L192:
 3024              		.loc 1 1088 0
 3025 1116 9DF80F30 		ldrb	r3, [sp, #15]	@ zero_extendqisi2
 3026 111a 23F00803 		bic	r3, r3, #8
 3027 111e DBB2     		uxtb	r3, r3
 3028 1120 8DF80F30 		strb	r3, [sp, #15]
 3029              		.loc 1 1089 0
 3030 1124 9DF80F20 		ldrb	r2, [sp, #15]	@ zero_extendqisi2
 3031 1128 9DF80330 		ldrb	r3, [sp, #3]
ARM GAS  /tmp/ccVYwGiK.s 			page 55


 3032 112c 1343     		orrs	r3, r3, r2
 3033 112e DBB2     		uxtb	r3, r3
 3034 1130 8DF80F30 		strb	r3, [sp, #15]
 3035              		.loc 1 1091 0
 3036 1134 0DF10F03 		add	r3, sp, #15
 3037 1138 0198     		ldr	r0, [sp, #4]
 3038 113a 2221     		movs	r1, #34
 3039 113c 1A46     		mov	r2, r3
 3040 113e 0123     		movs	r3, #1
 3041 1140 FFF7FEFF 		bl	LSM303AGR_ACC_WriteReg
 3042 1144 0346     		mov	r3, r0
 3043 1146 002B     		cmp	r3, #0
 3044 1148 01D1     		bne	.L194
 3045              		.loc 1 1092 0
 3046 114a 0023     		movs	r3, #0
 3047 114c 00E0     		b	.L195
 3048              	.L194:
 3049              		.loc 1 1094 0
 3050 114e 0123     		movs	r3, #1
 3051              	.L195:
 3052              		.loc 1 1095 0
 3053 1150 1846     		mov	r0, r3
 3054 1152 05B0     		add	sp, sp, #20
 3055              		@ sp needed
 3056 1154 5DF804FB 		ldr	pc, [sp], #4
 3057              		.cfi_endproc
 3058              	.LFE48:
 3059              		.size	LSM303AGR_ACC_W_FIFO_DRDY2_on_INT1, .-LSM303AGR_ACC_W_FIFO_DRDY2_on_INT1
 3060              		.align	2
 3061 1158 AFF30080 		.p2align 4,,15
 3061      AFF30080 
 3062              		.global	LSM303AGR_ACC_R_FIFO_DRDY2_on_INT1
 3063              		.thumb
 3064              		.thumb_func
 3065              		.type	LSM303AGR_ACC_R_FIFO_DRDY2_on_INT1, %function
 3066              	LSM303AGR_ACC_R_FIFO_DRDY2_on_INT1:
 3067              	.LFB49:
 3068              		.loc 1 1105 0
 3069              		.cfi_startproc
 3070              		@ args = 0, pretend = 0, frame = 8
 3071              		@ frame_needed = 0, uses_anonymous_args = 0
 3072 1160 00B5     		push	{lr}
 3073              		.cfi_def_cfa_offset 4
 3074              		.cfi_offset 14, -4
 3075 1162 83B0     		sub	sp, sp, #12
 3076              		.cfi_def_cfa_offset 16
 3077 1164 0190     		str	r0, [sp, #4]
 3078 1166 0091     		str	r1, [sp]
 3079              		.loc 1 1106 0
 3080 1168 0198     		ldr	r0, [sp, #4]
 3081 116a 2221     		movs	r1, #34
 3082 116c 009A     		ldr	r2, [sp]
 3083 116e 0123     		movs	r3, #1
 3084 1170 FFF7FEFF 		bl	LSM303AGR_ACC_ReadReg
 3085 1174 0346     		mov	r3, r0
 3086 1176 002B     		cmp	r3, #0
 3087 1178 01D1     		bne	.L197
ARM GAS  /tmp/ccVYwGiK.s 			page 56


 3088              		.loc 1 1107 0
 3089 117a 0023     		movs	r3, #0
 3090 117c 07E0     		b	.L198
 3091              	.L197:
 3092              		.loc 1 1109 0
 3093 117e 009B     		ldr	r3, [sp]
 3094 1180 1B78     		ldrb	r3, [r3]	@ zero_extendqisi2
 3095 1182 03F00803 		and	r3, r3, #8
 3096 1186 DAB2     		uxtb	r2, r3
 3097 1188 009B     		ldr	r3, [sp]
 3098 118a 1A70     		strb	r2, [r3]
 3099              		.loc 1 1111 0
 3100 118c 0123     		movs	r3, #1
 3101              	.L198:
 3102              		.loc 1 1112 0
 3103 118e 1846     		mov	r0, r3
 3104 1190 03B0     		add	sp, sp, #12
 3105              		@ sp needed
 3106 1192 5DF804FB 		ldr	pc, [sp], #4
 3107              		.cfi_endproc
 3108              	.LFE49:
 3109              		.size	LSM303AGR_ACC_R_FIFO_DRDY2_on_INT1, .-LSM303AGR_ACC_R_FIFO_DRDY2_on_INT1
 3110 1196 00BF     		.align	2
 3111 1198 AFF30080 		.p2align 4,,15
 3111      AFF30080 
 3112              		.global	LSM303AGR_ACC_W_FIFO_DRDY1_on_INT1
 3113              		.thumb
 3114              		.thumb_func
 3115              		.type	LSM303AGR_ACC_W_FIFO_DRDY1_on_INT1, %function
 3116              	LSM303AGR_ACC_W_FIFO_DRDY1_on_INT1:
 3117              	.LFB50:
 3118              		.loc 1 1122 0
 3119              		.cfi_startproc
 3120              		@ args = 0, pretend = 0, frame = 16
 3121              		@ frame_needed = 0, uses_anonymous_args = 0
 3122 11a0 00B5     		push	{lr}
 3123              		.cfi_def_cfa_offset 4
 3124              		.cfi_offset 14, -4
 3125 11a2 85B0     		sub	sp, sp, #20
 3126              		.cfi_def_cfa_offset 24
 3127 11a4 0190     		str	r0, [sp, #4]
 3128 11a6 0B46     		mov	r3, r1
 3129 11a8 8DF80330 		strb	r3, [sp, #3]
 3130              		.loc 1 1125 0
 3131 11ac 0DF10F03 		add	r3, sp, #15
 3132 11b0 0198     		ldr	r0, [sp, #4]
 3133 11b2 2221     		movs	r1, #34
 3134 11b4 1A46     		mov	r2, r3
 3135 11b6 0123     		movs	r3, #1
 3136 11b8 FFF7FEFF 		bl	LSM303AGR_ACC_ReadReg
 3137 11bc 0346     		mov	r3, r0
 3138 11be 002B     		cmp	r3, #0
 3139 11c0 01D1     		bne	.L200
 3140              		.loc 1 1126 0
 3141 11c2 0023     		movs	r3, #0
 3142 11c4 1CE0     		b	.L203
 3143              	.L200:
ARM GAS  /tmp/ccVYwGiK.s 			page 57


 3144              		.loc 1 1128 0
 3145 11c6 9DF80F30 		ldrb	r3, [sp, #15]	@ zero_extendqisi2
 3146 11ca 23F01003 		bic	r3, r3, #16
 3147 11ce DBB2     		uxtb	r3, r3
 3148 11d0 8DF80F30 		strb	r3, [sp, #15]
 3149              		.loc 1 1129 0
 3150 11d4 9DF80F20 		ldrb	r2, [sp, #15]	@ zero_extendqisi2
 3151 11d8 9DF80330 		ldrb	r3, [sp, #3]
 3152 11dc 1343     		orrs	r3, r3, r2
 3153 11de DBB2     		uxtb	r3, r3
 3154 11e0 8DF80F30 		strb	r3, [sp, #15]
 3155              		.loc 1 1131 0
 3156 11e4 0DF10F03 		add	r3, sp, #15
 3157 11e8 0198     		ldr	r0, [sp, #4]
 3158 11ea 2221     		movs	r1, #34
 3159 11ec 1A46     		mov	r2, r3
 3160 11ee 0123     		movs	r3, #1
 3161 11f0 FFF7FEFF 		bl	LSM303AGR_ACC_WriteReg
 3162 11f4 0346     		mov	r3, r0
 3163 11f6 002B     		cmp	r3, #0
 3164 11f8 01D1     		bne	.L202
 3165              		.loc 1 1132 0
 3166 11fa 0023     		movs	r3, #0
 3167 11fc 00E0     		b	.L203
 3168              	.L202:
 3169              		.loc 1 1134 0
 3170 11fe 0123     		movs	r3, #1
 3171              	.L203:
 3172              		.loc 1 1135 0
 3173 1200 1846     		mov	r0, r3
 3174 1202 05B0     		add	sp, sp, #20
 3175              		@ sp needed
 3176 1204 5DF804FB 		ldr	pc, [sp], #4
 3177              		.cfi_endproc
 3178              	.LFE50:
 3179              		.size	LSM303AGR_ACC_W_FIFO_DRDY1_on_INT1, .-LSM303AGR_ACC_W_FIFO_DRDY1_on_INT1
 3180              		.align	2
 3181 1208 AFF30080 		.p2align 4,,15
 3181      AFF30080 
 3182              		.global	LSM303AGR_ACC_R_FIFO_DRDY1_on_INT1
 3183              		.thumb
 3184              		.thumb_func
 3185              		.type	LSM303AGR_ACC_R_FIFO_DRDY1_on_INT1, %function
 3186              	LSM303AGR_ACC_R_FIFO_DRDY1_on_INT1:
 3187              	.LFB51:
 3188              		.loc 1 1145 0
 3189              		.cfi_startproc
 3190              		@ args = 0, pretend = 0, frame = 8
 3191              		@ frame_needed = 0, uses_anonymous_args = 0
 3192 1210 00B5     		push	{lr}
 3193              		.cfi_def_cfa_offset 4
 3194              		.cfi_offset 14, -4
 3195 1212 83B0     		sub	sp, sp, #12
 3196              		.cfi_def_cfa_offset 16
 3197 1214 0190     		str	r0, [sp, #4]
 3198 1216 0091     		str	r1, [sp]
 3199              		.loc 1 1146 0
ARM GAS  /tmp/ccVYwGiK.s 			page 58


 3200 1218 0198     		ldr	r0, [sp, #4]
 3201 121a 2221     		movs	r1, #34
 3202 121c 009A     		ldr	r2, [sp]
 3203 121e 0123     		movs	r3, #1
 3204 1220 FFF7FEFF 		bl	LSM303AGR_ACC_ReadReg
 3205 1224 0346     		mov	r3, r0
 3206 1226 002B     		cmp	r3, #0
 3207 1228 01D1     		bne	.L205
 3208              		.loc 1 1147 0
 3209 122a 0023     		movs	r3, #0
 3210 122c 07E0     		b	.L206
 3211              	.L205:
 3212              		.loc 1 1149 0
 3213 122e 009B     		ldr	r3, [sp]
 3214 1230 1B78     		ldrb	r3, [r3]	@ zero_extendqisi2
 3215 1232 03F01003 		and	r3, r3, #16
 3216 1236 DAB2     		uxtb	r2, r3
 3217 1238 009B     		ldr	r3, [sp]
 3218 123a 1A70     		strb	r2, [r3]
 3219              		.loc 1 1151 0
 3220 123c 0123     		movs	r3, #1
 3221              	.L206:
 3222              		.loc 1 1152 0
 3223 123e 1846     		mov	r0, r3
 3224 1240 03B0     		add	sp, sp, #12
 3225              		@ sp needed
 3226 1242 5DF804FB 		ldr	pc, [sp], #4
 3227              		.cfi_endproc
 3228              	.LFE51:
 3229              		.size	LSM303AGR_ACC_R_FIFO_DRDY1_on_INT1, .-LSM303AGR_ACC_R_FIFO_DRDY1_on_INT1
 3230 1246 00BF     		.align	2
 3231 1248 AFF30080 		.p2align 4,,15
 3231      AFF30080 
 3232              		.global	LSM303AGR_ACC_W_FIFO_AOL2_on_INT1
 3233              		.thumb
 3234              		.thumb_func
 3235              		.type	LSM303AGR_ACC_W_FIFO_AOL2_on_INT1, %function
 3236              	LSM303AGR_ACC_W_FIFO_AOL2_on_INT1:
 3237              	.LFB52:
 3238              		.loc 1 1162 0
 3239              		.cfi_startproc
 3240              		@ args = 0, pretend = 0, frame = 16
 3241              		@ frame_needed = 0, uses_anonymous_args = 0
 3242 1250 00B5     		push	{lr}
 3243              		.cfi_def_cfa_offset 4
 3244              		.cfi_offset 14, -4
 3245 1252 85B0     		sub	sp, sp, #20
 3246              		.cfi_def_cfa_offset 24
 3247 1254 0190     		str	r0, [sp, #4]
 3248 1256 0B46     		mov	r3, r1
 3249 1258 8DF80330 		strb	r3, [sp, #3]
 3250              		.loc 1 1165 0
 3251 125c 0DF10F03 		add	r3, sp, #15
 3252 1260 0198     		ldr	r0, [sp, #4]
 3253 1262 2221     		movs	r1, #34
 3254 1264 1A46     		mov	r2, r3
 3255 1266 0123     		movs	r3, #1
ARM GAS  /tmp/ccVYwGiK.s 			page 59


 3256 1268 FFF7FEFF 		bl	LSM303AGR_ACC_ReadReg
 3257 126c 0346     		mov	r3, r0
 3258 126e 002B     		cmp	r3, #0
 3259 1270 01D1     		bne	.L208
 3260              		.loc 1 1166 0
 3261 1272 0023     		movs	r3, #0
 3262 1274 1CE0     		b	.L211
 3263              	.L208:
 3264              		.loc 1 1168 0
 3265 1276 9DF80F30 		ldrb	r3, [sp, #15]	@ zero_extendqisi2
 3266 127a 23F02003 		bic	r3, r3, #32
 3267 127e DBB2     		uxtb	r3, r3
 3268 1280 8DF80F30 		strb	r3, [sp, #15]
 3269              		.loc 1 1169 0
 3270 1284 9DF80F20 		ldrb	r2, [sp, #15]	@ zero_extendqisi2
 3271 1288 9DF80330 		ldrb	r3, [sp, #3]
 3272 128c 1343     		orrs	r3, r3, r2
 3273 128e DBB2     		uxtb	r3, r3
 3274 1290 8DF80F30 		strb	r3, [sp, #15]
 3275              		.loc 1 1171 0
 3276 1294 0DF10F03 		add	r3, sp, #15
 3277 1298 0198     		ldr	r0, [sp, #4]
 3278 129a 2221     		movs	r1, #34
 3279 129c 1A46     		mov	r2, r3
 3280 129e 0123     		movs	r3, #1
 3281 12a0 FFF7FEFF 		bl	LSM303AGR_ACC_WriteReg
 3282 12a4 0346     		mov	r3, r0
 3283 12a6 002B     		cmp	r3, #0
 3284 12a8 01D1     		bne	.L210
 3285              		.loc 1 1172 0
 3286 12aa 0023     		movs	r3, #0
 3287 12ac 00E0     		b	.L211
 3288              	.L210:
 3289              		.loc 1 1174 0
 3290 12ae 0123     		movs	r3, #1
 3291              	.L211:
 3292              		.loc 1 1175 0
 3293 12b0 1846     		mov	r0, r3
 3294 12b2 05B0     		add	sp, sp, #20
 3295              		@ sp needed
 3296 12b4 5DF804FB 		ldr	pc, [sp], #4
 3297              		.cfi_endproc
 3298              	.LFE52:
 3299              		.size	LSM303AGR_ACC_W_FIFO_AOL2_on_INT1, .-LSM303AGR_ACC_W_FIFO_AOL2_on_INT1
 3300              		.align	2
 3301 12b8 AFF30080 		.p2align 4,,15
 3301      AFF30080 
 3302              		.global	LSM303AGR_ACC_R_FIFO_AOL2_on_INT1
 3303              		.thumb
 3304              		.thumb_func
 3305              		.type	LSM303AGR_ACC_R_FIFO_AOL2_on_INT1, %function
 3306              	LSM303AGR_ACC_R_FIFO_AOL2_on_INT1:
 3307              	.LFB53:
 3308              		.loc 1 1185 0
 3309              		.cfi_startproc
 3310              		@ args = 0, pretend = 0, frame = 8
 3311              		@ frame_needed = 0, uses_anonymous_args = 0
ARM GAS  /tmp/ccVYwGiK.s 			page 60


 3312 12c0 00B5     		push	{lr}
 3313              		.cfi_def_cfa_offset 4
 3314              		.cfi_offset 14, -4
 3315 12c2 83B0     		sub	sp, sp, #12
 3316              		.cfi_def_cfa_offset 16
 3317 12c4 0190     		str	r0, [sp, #4]
 3318 12c6 0091     		str	r1, [sp]
 3319              		.loc 1 1186 0
 3320 12c8 0198     		ldr	r0, [sp, #4]
 3321 12ca 2221     		movs	r1, #34
 3322 12cc 009A     		ldr	r2, [sp]
 3323 12ce 0123     		movs	r3, #1
 3324 12d0 FFF7FEFF 		bl	LSM303AGR_ACC_ReadReg
 3325 12d4 0346     		mov	r3, r0
 3326 12d6 002B     		cmp	r3, #0
 3327 12d8 01D1     		bne	.L213
 3328              		.loc 1 1187 0
 3329 12da 0023     		movs	r3, #0
 3330 12dc 07E0     		b	.L214
 3331              	.L213:
 3332              		.loc 1 1189 0
 3333 12de 009B     		ldr	r3, [sp]
 3334 12e0 1B78     		ldrb	r3, [r3]	@ zero_extendqisi2
 3335 12e2 03F02003 		and	r3, r3, #32
 3336 12e6 DAB2     		uxtb	r2, r3
 3337 12e8 009B     		ldr	r3, [sp]
 3338 12ea 1A70     		strb	r2, [r3]
 3339              		.loc 1 1191 0
 3340 12ec 0123     		movs	r3, #1
 3341              	.L214:
 3342              		.loc 1 1192 0
 3343 12ee 1846     		mov	r0, r3
 3344 12f0 03B0     		add	sp, sp, #12
 3345              		@ sp needed
 3346 12f2 5DF804FB 		ldr	pc, [sp], #4
 3347              		.cfi_endproc
 3348              	.LFE53:
 3349              		.size	LSM303AGR_ACC_R_FIFO_AOL2_on_INT1, .-LSM303AGR_ACC_R_FIFO_AOL2_on_INT1
 3350 12f6 00BF     		.align	2
 3351 12f8 AFF30080 		.p2align 4,,15
 3351      AFF30080 
 3352              		.global	LSM303AGR_ACC_W_FIFO_AOL1_on_INT1
 3353              		.thumb
 3354              		.thumb_func
 3355              		.type	LSM303AGR_ACC_W_FIFO_AOL1_on_INT1, %function
 3356              	LSM303AGR_ACC_W_FIFO_AOL1_on_INT1:
 3357              	.LFB54:
 3358              		.loc 1 1202 0
 3359              		.cfi_startproc
 3360              		@ args = 0, pretend = 0, frame = 16
 3361              		@ frame_needed = 0, uses_anonymous_args = 0
 3362 1300 00B5     		push	{lr}
 3363              		.cfi_def_cfa_offset 4
 3364              		.cfi_offset 14, -4
 3365 1302 85B0     		sub	sp, sp, #20
 3366              		.cfi_def_cfa_offset 24
 3367 1304 0190     		str	r0, [sp, #4]
ARM GAS  /tmp/ccVYwGiK.s 			page 61


 3368 1306 0B46     		mov	r3, r1
 3369 1308 8DF80330 		strb	r3, [sp, #3]
 3370              		.loc 1 1205 0
 3371 130c 0DF10F03 		add	r3, sp, #15
 3372 1310 0198     		ldr	r0, [sp, #4]
 3373 1312 2221     		movs	r1, #34
 3374 1314 1A46     		mov	r2, r3
 3375 1316 0123     		movs	r3, #1
 3376 1318 FFF7FEFF 		bl	LSM303AGR_ACC_ReadReg
 3377 131c 0346     		mov	r3, r0
 3378 131e 002B     		cmp	r3, #0
 3379 1320 01D1     		bne	.L216
 3380              		.loc 1 1206 0
 3381 1322 0023     		movs	r3, #0
 3382 1324 1CE0     		b	.L219
 3383              	.L216:
 3384              		.loc 1 1208 0
 3385 1326 9DF80F30 		ldrb	r3, [sp, #15]	@ zero_extendqisi2
 3386 132a 23F04003 		bic	r3, r3, #64
 3387 132e DBB2     		uxtb	r3, r3
 3388 1330 8DF80F30 		strb	r3, [sp, #15]
 3389              		.loc 1 1209 0
 3390 1334 9DF80F20 		ldrb	r2, [sp, #15]	@ zero_extendqisi2
 3391 1338 9DF80330 		ldrb	r3, [sp, #3]
 3392 133c 1343     		orrs	r3, r3, r2
 3393 133e DBB2     		uxtb	r3, r3
 3394 1340 8DF80F30 		strb	r3, [sp, #15]
 3395              		.loc 1 1211 0
 3396 1344 0DF10F03 		add	r3, sp, #15
 3397 1348 0198     		ldr	r0, [sp, #4]
 3398 134a 2221     		movs	r1, #34
 3399 134c 1A46     		mov	r2, r3
 3400 134e 0123     		movs	r3, #1
 3401 1350 FFF7FEFF 		bl	LSM303AGR_ACC_WriteReg
 3402 1354 0346     		mov	r3, r0
 3403 1356 002B     		cmp	r3, #0
 3404 1358 01D1     		bne	.L218
 3405              		.loc 1 1212 0
 3406 135a 0023     		movs	r3, #0
 3407 135c 00E0     		b	.L219
 3408              	.L218:
 3409              		.loc 1 1214 0
 3410 135e 0123     		movs	r3, #1
 3411              	.L219:
 3412              		.loc 1 1215 0
 3413 1360 1846     		mov	r0, r3
 3414 1362 05B0     		add	sp, sp, #20
 3415              		@ sp needed
 3416 1364 5DF804FB 		ldr	pc, [sp], #4
 3417              		.cfi_endproc
 3418              	.LFE54:
 3419              		.size	LSM303AGR_ACC_W_FIFO_AOL1_on_INT1, .-LSM303AGR_ACC_W_FIFO_AOL1_on_INT1
 3420              		.align	2
 3421 1368 AFF30080 		.p2align 4,,15
 3421      AFF30080 
 3422              		.global	LSM303AGR_ACC_R_FIFO_AOL1_on_INT1
 3423              		.thumb
ARM GAS  /tmp/ccVYwGiK.s 			page 62


 3424              		.thumb_func
 3425              		.type	LSM303AGR_ACC_R_FIFO_AOL1_on_INT1, %function
 3426              	LSM303AGR_ACC_R_FIFO_AOL1_on_INT1:
 3427              	.LFB55:
 3428              		.loc 1 1225 0
 3429              		.cfi_startproc
 3430              		@ args = 0, pretend = 0, frame = 8
 3431              		@ frame_needed = 0, uses_anonymous_args = 0
 3432 1370 00B5     		push	{lr}
 3433              		.cfi_def_cfa_offset 4
 3434              		.cfi_offset 14, -4
 3435 1372 83B0     		sub	sp, sp, #12
 3436              		.cfi_def_cfa_offset 16
 3437 1374 0190     		str	r0, [sp, #4]
 3438 1376 0091     		str	r1, [sp]
 3439              		.loc 1 1226 0
 3440 1378 0198     		ldr	r0, [sp, #4]
 3441 137a 2221     		movs	r1, #34
 3442 137c 009A     		ldr	r2, [sp]
 3443 137e 0123     		movs	r3, #1
 3444 1380 FFF7FEFF 		bl	LSM303AGR_ACC_ReadReg
 3445 1384 0346     		mov	r3, r0
 3446 1386 002B     		cmp	r3, #0
 3447 1388 01D1     		bne	.L221
 3448              		.loc 1 1227 0
 3449 138a 0023     		movs	r3, #0
 3450 138c 07E0     		b	.L222
 3451              	.L221:
 3452              		.loc 1 1229 0
 3453 138e 009B     		ldr	r3, [sp]
 3454 1390 1B78     		ldrb	r3, [r3]	@ zero_extendqisi2
 3455 1392 03F04003 		and	r3, r3, #64
 3456 1396 DAB2     		uxtb	r2, r3
 3457 1398 009B     		ldr	r3, [sp]
 3458 139a 1A70     		strb	r2, [r3]
 3459              		.loc 1 1231 0
 3460 139c 0123     		movs	r3, #1
 3461              	.L222:
 3462              		.loc 1 1232 0
 3463 139e 1846     		mov	r0, r3
 3464 13a0 03B0     		add	sp, sp, #12
 3465              		@ sp needed
 3466 13a2 5DF804FB 		ldr	pc, [sp], #4
 3467              		.cfi_endproc
 3468              	.LFE55:
 3469              		.size	LSM303AGR_ACC_R_FIFO_AOL1_on_INT1, .-LSM303AGR_ACC_R_FIFO_AOL1_on_INT1
 3470 13a6 00BF     		.align	2
 3471 13a8 AFF30080 		.p2align 4,,15
 3471      AFF30080 
 3472              		.global	LSM303AGR_ACC_W_FIFO_Click_on_INT1
 3473              		.thumb
 3474              		.thumb_func
 3475              		.type	LSM303AGR_ACC_W_FIFO_Click_on_INT1, %function
 3476              	LSM303AGR_ACC_W_FIFO_Click_on_INT1:
 3477              	.LFB56:
 3478              		.loc 1 1242 0
 3479              		.cfi_startproc
ARM GAS  /tmp/ccVYwGiK.s 			page 63


 3480              		@ args = 0, pretend = 0, frame = 16
 3481              		@ frame_needed = 0, uses_anonymous_args = 0
 3482 13b0 00B5     		push	{lr}
 3483              		.cfi_def_cfa_offset 4
 3484              		.cfi_offset 14, -4
 3485 13b2 85B0     		sub	sp, sp, #20
 3486              		.cfi_def_cfa_offset 24
 3487 13b4 0190     		str	r0, [sp, #4]
 3488 13b6 0B46     		mov	r3, r1
 3489 13b8 8DF80330 		strb	r3, [sp, #3]
 3490              		.loc 1 1245 0
 3491 13bc 0DF10F03 		add	r3, sp, #15
 3492 13c0 0198     		ldr	r0, [sp, #4]
 3493 13c2 2221     		movs	r1, #34
 3494 13c4 1A46     		mov	r2, r3
 3495 13c6 0123     		movs	r3, #1
 3496 13c8 FFF7FEFF 		bl	LSM303AGR_ACC_ReadReg
 3497 13cc 0346     		mov	r3, r0
 3498 13ce 002B     		cmp	r3, #0
 3499 13d0 01D1     		bne	.L224
 3500              		.loc 1 1246 0
 3501 13d2 0023     		movs	r3, #0
 3502 13d4 1CE0     		b	.L227
 3503              	.L224:
 3504              		.loc 1 1248 0
 3505 13d6 9DF80F30 		ldrb	r3, [sp, #15]	@ zero_extendqisi2
 3506 13da 03F07F03 		and	r3, r3, #127
 3507 13de DBB2     		uxtb	r3, r3
 3508 13e0 8DF80F30 		strb	r3, [sp, #15]
 3509              		.loc 1 1249 0
 3510 13e4 9DF80F20 		ldrb	r2, [sp, #15]	@ zero_extendqisi2
 3511 13e8 9DF80330 		ldrb	r3, [sp, #3]
 3512 13ec 1343     		orrs	r3, r3, r2
 3513 13ee DBB2     		uxtb	r3, r3
 3514 13f0 8DF80F30 		strb	r3, [sp, #15]
 3515              		.loc 1 1251 0
 3516 13f4 0DF10F03 		add	r3, sp, #15
 3517 13f8 0198     		ldr	r0, [sp, #4]
 3518 13fa 2221     		movs	r1, #34
 3519 13fc 1A46     		mov	r2, r3
 3520 13fe 0123     		movs	r3, #1
 3521 1400 FFF7FEFF 		bl	LSM303AGR_ACC_WriteReg
 3522 1404 0346     		mov	r3, r0
 3523 1406 002B     		cmp	r3, #0
 3524 1408 01D1     		bne	.L226
 3525              		.loc 1 1252 0
 3526 140a 0023     		movs	r3, #0
 3527 140c 00E0     		b	.L227
 3528              	.L226:
 3529              		.loc 1 1254 0
 3530 140e 0123     		movs	r3, #1
 3531              	.L227:
 3532              		.loc 1 1255 0
 3533 1410 1846     		mov	r0, r3
 3534 1412 05B0     		add	sp, sp, #20
 3535              		@ sp needed
 3536 1414 5DF804FB 		ldr	pc, [sp], #4
ARM GAS  /tmp/ccVYwGiK.s 			page 64


 3537              		.cfi_endproc
 3538              	.LFE56:
 3539              		.size	LSM303AGR_ACC_W_FIFO_Click_on_INT1, .-LSM303AGR_ACC_W_FIFO_Click_on_INT1
 3540              		.align	2
 3541 1418 AFF30080 		.p2align 4,,15
 3541      AFF30080 
 3542              		.global	LSM303AGR_ACC_R_FIFO_Click_on_INT1
 3543              		.thumb
 3544              		.thumb_func
 3545              		.type	LSM303AGR_ACC_R_FIFO_Click_on_INT1, %function
 3546              	LSM303AGR_ACC_R_FIFO_Click_on_INT1:
 3547              	.LFB57:
 3548              		.loc 1 1265 0
 3549              		.cfi_startproc
 3550              		@ args = 0, pretend = 0, frame = 8
 3551              		@ frame_needed = 0, uses_anonymous_args = 0
 3552 1420 00B5     		push	{lr}
 3553              		.cfi_def_cfa_offset 4
 3554              		.cfi_offset 14, -4
 3555 1422 83B0     		sub	sp, sp, #12
 3556              		.cfi_def_cfa_offset 16
 3557 1424 0190     		str	r0, [sp, #4]
 3558 1426 0091     		str	r1, [sp]
 3559              		.loc 1 1266 0
 3560 1428 0198     		ldr	r0, [sp, #4]
 3561 142a 2221     		movs	r1, #34
 3562 142c 009A     		ldr	r2, [sp]
 3563 142e 0123     		movs	r3, #1
 3564 1430 FFF7FEFF 		bl	LSM303AGR_ACC_ReadReg
 3565 1434 0346     		mov	r3, r0
 3566 1436 002B     		cmp	r3, #0
 3567 1438 01D1     		bne	.L229
 3568              		.loc 1 1267 0
 3569 143a 0023     		movs	r3, #0
 3570 143c 07E0     		b	.L230
 3571              	.L229:
 3572              		.loc 1 1269 0
 3573 143e 009B     		ldr	r3, [sp]
 3574 1440 1B78     		ldrb	r3, [r3]	@ zero_extendqisi2
 3575 1442 23F07F03 		bic	r3, r3, #127
 3576 1446 DAB2     		uxtb	r2, r3
 3577 1448 009B     		ldr	r3, [sp]
 3578 144a 1A70     		strb	r2, [r3]
 3579              		.loc 1 1271 0
 3580 144c 0123     		movs	r3, #1
 3581              	.L230:
 3582              		.loc 1 1272 0
 3583 144e 1846     		mov	r0, r3
 3584 1450 03B0     		add	sp, sp, #12
 3585              		@ sp needed
 3586 1452 5DF804FB 		ldr	pc, [sp], #4
 3587              		.cfi_endproc
 3588              	.LFE57:
 3589              		.size	LSM303AGR_ACC_R_FIFO_Click_on_INT1, .-LSM303AGR_ACC_R_FIFO_Click_on_INT1
 3590 1456 00BF     		.align	2
 3591 1458 AFF30080 		.p2align 4,,15
 3591      AFF30080 
ARM GAS  /tmp/ccVYwGiK.s 			page 65


 3592              		.global	LSM303AGR_ACC_W_SPI_mode
 3593              		.thumb
 3594              		.thumb_func
 3595              		.type	LSM303AGR_ACC_W_SPI_mode, %function
 3596              	LSM303AGR_ACC_W_SPI_mode:
 3597              	.LFB58:
 3598              		.loc 1 1282 0
 3599              		.cfi_startproc
 3600              		@ args = 0, pretend = 0, frame = 16
 3601              		@ frame_needed = 0, uses_anonymous_args = 0
 3602 1460 00B5     		push	{lr}
 3603              		.cfi_def_cfa_offset 4
 3604              		.cfi_offset 14, -4
 3605 1462 85B0     		sub	sp, sp, #20
 3606              		.cfi_def_cfa_offset 24
 3607 1464 0190     		str	r0, [sp, #4]
 3608 1466 0B46     		mov	r3, r1
 3609 1468 8DF80330 		strb	r3, [sp, #3]
 3610              		.loc 1 1285 0
 3611 146c 0DF10F03 		add	r3, sp, #15
 3612 1470 0198     		ldr	r0, [sp, #4]
 3613 1472 2321     		movs	r1, #35
 3614 1474 1A46     		mov	r2, r3
 3615 1476 0123     		movs	r3, #1
 3616 1478 FFF7FEFF 		bl	LSM303AGR_ACC_ReadReg
 3617 147c 0346     		mov	r3, r0
 3618 147e 002B     		cmp	r3, #0
 3619 1480 01D1     		bne	.L232
 3620              		.loc 1 1286 0
 3621 1482 0023     		movs	r3, #0
 3622 1484 1CE0     		b	.L235
 3623              	.L232:
 3624              		.loc 1 1288 0
 3625 1486 9DF80F30 		ldrb	r3, [sp, #15]	@ zero_extendqisi2
 3626 148a 23F00103 		bic	r3, r3, #1
 3627 148e DBB2     		uxtb	r3, r3
 3628 1490 8DF80F30 		strb	r3, [sp, #15]
 3629              		.loc 1 1289 0
 3630 1494 9DF80F20 		ldrb	r2, [sp, #15]	@ zero_extendqisi2
 3631 1498 9DF80330 		ldrb	r3, [sp, #3]
 3632 149c 1343     		orrs	r3, r3, r2
 3633 149e DBB2     		uxtb	r3, r3
 3634 14a0 8DF80F30 		strb	r3, [sp, #15]
 3635              		.loc 1 1291 0
 3636 14a4 0DF10F03 		add	r3, sp, #15
 3637 14a8 0198     		ldr	r0, [sp, #4]
 3638 14aa 2321     		movs	r1, #35
 3639 14ac 1A46     		mov	r2, r3
 3640 14ae 0123     		movs	r3, #1
 3641 14b0 FFF7FEFF 		bl	LSM303AGR_ACC_WriteReg
 3642 14b4 0346     		mov	r3, r0
 3643 14b6 002B     		cmp	r3, #0
 3644 14b8 01D1     		bne	.L234
 3645              		.loc 1 1292 0
 3646 14ba 0023     		movs	r3, #0
 3647 14bc 00E0     		b	.L235
 3648              	.L234:
ARM GAS  /tmp/ccVYwGiK.s 			page 66


 3649              		.loc 1 1294 0
 3650 14be 0123     		movs	r3, #1
 3651              	.L235:
 3652              		.loc 1 1295 0
 3653 14c0 1846     		mov	r0, r3
 3654 14c2 05B0     		add	sp, sp, #20
 3655              		@ sp needed
 3656 14c4 5DF804FB 		ldr	pc, [sp], #4
 3657              		.cfi_endproc
 3658              	.LFE58:
 3659              		.size	LSM303AGR_ACC_W_SPI_mode, .-LSM303AGR_ACC_W_SPI_mode
 3660              		.align	2
 3661 14c8 AFF30080 		.p2align 4,,15
 3661      AFF30080 
 3662              		.global	LSM303AGR_ACC_R_SPI_mode
 3663              		.thumb
 3664              		.thumb_func
 3665              		.type	LSM303AGR_ACC_R_SPI_mode, %function
 3666              	LSM303AGR_ACC_R_SPI_mode:
 3667              	.LFB59:
 3668              		.loc 1 1305 0
 3669              		.cfi_startproc
 3670              		@ args = 0, pretend = 0, frame = 8
 3671              		@ frame_needed = 0, uses_anonymous_args = 0
 3672 14d0 00B5     		push	{lr}
 3673              		.cfi_def_cfa_offset 4
 3674              		.cfi_offset 14, -4
 3675 14d2 83B0     		sub	sp, sp, #12
 3676              		.cfi_def_cfa_offset 16
 3677 14d4 0190     		str	r0, [sp, #4]
 3678 14d6 0091     		str	r1, [sp]
 3679              		.loc 1 1306 0
 3680 14d8 0198     		ldr	r0, [sp, #4]
 3681 14da 2321     		movs	r1, #35
 3682 14dc 009A     		ldr	r2, [sp]
 3683 14de 0123     		movs	r3, #1
 3684 14e0 FFF7FEFF 		bl	LSM303AGR_ACC_ReadReg
 3685 14e4 0346     		mov	r3, r0
 3686 14e6 002B     		cmp	r3, #0
 3687 14e8 01D1     		bne	.L237
 3688              		.loc 1 1307 0
 3689 14ea 0023     		movs	r3, #0
 3690 14ec 07E0     		b	.L238
 3691              	.L237:
 3692              		.loc 1 1309 0
 3693 14ee 009B     		ldr	r3, [sp]
 3694 14f0 1B78     		ldrb	r3, [r3]	@ zero_extendqisi2
 3695 14f2 03F00103 		and	r3, r3, #1
 3696 14f6 DAB2     		uxtb	r2, r3
 3697 14f8 009B     		ldr	r3, [sp]
 3698 14fa 1A70     		strb	r2, [r3]
 3699              		.loc 1 1311 0
 3700 14fc 0123     		movs	r3, #1
 3701              	.L238:
 3702              		.loc 1 1312 0
 3703 14fe 1846     		mov	r0, r3
 3704 1500 03B0     		add	sp, sp, #12
ARM GAS  /tmp/ccVYwGiK.s 			page 67


 3705              		@ sp needed
 3706 1502 5DF804FB 		ldr	pc, [sp], #4
 3707              		.cfi_endproc
 3708              	.LFE59:
 3709              		.size	LSM303AGR_ACC_R_SPI_mode, .-LSM303AGR_ACC_R_SPI_mode
 3710 1506 00BF     		.align	2
 3711 1508 AFF30080 		.p2align 4,,15
 3711      AFF30080 
 3712              		.global	LSM303AGR_ACC_W_SelfTest
 3713              		.thumb
 3714              		.thumb_func
 3715              		.type	LSM303AGR_ACC_W_SelfTest, %function
 3716              	LSM303AGR_ACC_W_SelfTest:
 3717              	.LFB60:
 3718              		.loc 1 1322 0
 3719              		.cfi_startproc
 3720              		@ args = 0, pretend = 0, frame = 16
 3721              		@ frame_needed = 0, uses_anonymous_args = 0
 3722 1510 00B5     		push	{lr}
 3723              		.cfi_def_cfa_offset 4
 3724              		.cfi_offset 14, -4
 3725 1512 85B0     		sub	sp, sp, #20
 3726              		.cfi_def_cfa_offset 24
 3727 1514 0190     		str	r0, [sp, #4]
 3728 1516 0B46     		mov	r3, r1
 3729 1518 8DF80330 		strb	r3, [sp, #3]
 3730              		.loc 1 1325 0
 3731 151c 0DF10F03 		add	r3, sp, #15
 3732 1520 0198     		ldr	r0, [sp, #4]
 3733 1522 2321     		movs	r1, #35
 3734 1524 1A46     		mov	r2, r3
 3735 1526 0123     		movs	r3, #1
 3736 1528 FFF7FEFF 		bl	LSM303AGR_ACC_ReadReg
 3737 152c 0346     		mov	r3, r0
 3738 152e 002B     		cmp	r3, #0
 3739 1530 01D1     		bne	.L240
 3740              		.loc 1 1326 0
 3741 1532 0023     		movs	r3, #0
 3742 1534 1CE0     		b	.L243
 3743              	.L240:
 3744              		.loc 1 1328 0
 3745 1536 9DF80F30 		ldrb	r3, [sp, #15]	@ zero_extendqisi2
 3746 153a 23F00603 		bic	r3, r3, #6
 3747 153e DBB2     		uxtb	r3, r3
 3748 1540 8DF80F30 		strb	r3, [sp, #15]
 3749              		.loc 1 1329 0
 3750 1544 9DF80F20 		ldrb	r2, [sp, #15]	@ zero_extendqisi2
 3751 1548 9DF80330 		ldrb	r3, [sp, #3]
 3752 154c 1343     		orrs	r3, r3, r2
 3753 154e DBB2     		uxtb	r3, r3
 3754 1550 8DF80F30 		strb	r3, [sp, #15]
 3755              		.loc 1 1331 0
 3756 1554 0DF10F03 		add	r3, sp, #15
 3757 1558 0198     		ldr	r0, [sp, #4]
 3758 155a 2321     		movs	r1, #35
 3759 155c 1A46     		mov	r2, r3
 3760 155e 0123     		movs	r3, #1
ARM GAS  /tmp/ccVYwGiK.s 			page 68


 3761 1560 FFF7FEFF 		bl	LSM303AGR_ACC_WriteReg
 3762 1564 0346     		mov	r3, r0
 3763 1566 002B     		cmp	r3, #0
 3764 1568 01D1     		bne	.L242
 3765              		.loc 1 1332 0
 3766 156a 0023     		movs	r3, #0
 3767 156c 00E0     		b	.L243
 3768              	.L242:
 3769              		.loc 1 1334 0
 3770 156e 0123     		movs	r3, #1
 3771              	.L243:
 3772              		.loc 1 1335 0
 3773 1570 1846     		mov	r0, r3
 3774 1572 05B0     		add	sp, sp, #20
 3775              		@ sp needed
 3776 1574 5DF804FB 		ldr	pc, [sp], #4
 3777              		.cfi_endproc
 3778              	.LFE60:
 3779              		.size	LSM303AGR_ACC_W_SelfTest, .-LSM303AGR_ACC_W_SelfTest
 3780              		.align	2
 3781 1578 AFF30080 		.p2align 4,,15
 3781      AFF30080 
 3782              		.global	LSM303AGR_ACC_R_SelfTest
 3783              		.thumb
 3784              		.thumb_func
 3785              		.type	LSM303AGR_ACC_R_SelfTest, %function
 3786              	LSM303AGR_ACC_R_SelfTest:
 3787              	.LFB61:
 3788              		.loc 1 1345 0
 3789              		.cfi_startproc
 3790              		@ args = 0, pretend = 0, frame = 8
 3791              		@ frame_needed = 0, uses_anonymous_args = 0
 3792 1580 00B5     		push	{lr}
 3793              		.cfi_def_cfa_offset 4
 3794              		.cfi_offset 14, -4
 3795 1582 83B0     		sub	sp, sp, #12
 3796              		.cfi_def_cfa_offset 16
 3797 1584 0190     		str	r0, [sp, #4]
 3798 1586 0091     		str	r1, [sp]
 3799              		.loc 1 1346 0
 3800 1588 0198     		ldr	r0, [sp, #4]
 3801 158a 2321     		movs	r1, #35
 3802 158c 009A     		ldr	r2, [sp]
 3803 158e 0123     		movs	r3, #1
 3804 1590 FFF7FEFF 		bl	LSM303AGR_ACC_ReadReg
 3805 1594 0346     		mov	r3, r0
 3806 1596 002B     		cmp	r3, #0
 3807 1598 01D1     		bne	.L245
 3808              		.loc 1 1347 0
 3809 159a 0023     		movs	r3, #0
 3810 159c 07E0     		b	.L246
 3811              	.L245:
 3812              		.loc 1 1349 0
 3813 159e 009B     		ldr	r3, [sp]
 3814 15a0 1B78     		ldrb	r3, [r3]	@ zero_extendqisi2
 3815 15a2 03F00603 		and	r3, r3, #6
 3816 15a6 DAB2     		uxtb	r2, r3
ARM GAS  /tmp/ccVYwGiK.s 			page 69


 3817 15a8 009B     		ldr	r3, [sp]
 3818 15aa 1A70     		strb	r2, [r3]
 3819              		.loc 1 1351 0
 3820 15ac 0123     		movs	r3, #1
 3821              	.L246:
 3822              		.loc 1 1352 0
 3823 15ae 1846     		mov	r0, r3
 3824 15b0 03B0     		add	sp, sp, #12
 3825              		@ sp needed
 3826 15b2 5DF804FB 		ldr	pc, [sp], #4
 3827              		.cfi_endproc
 3828              	.LFE61:
 3829              		.size	LSM303AGR_ACC_R_SelfTest, .-LSM303AGR_ACC_R_SelfTest
 3830 15b6 00BF     		.align	2
 3831 15b8 AFF30080 		.p2align 4,,15
 3831      AFF30080 
 3832              		.global	LSM303AGR_ACC_W_HiRes
 3833              		.thumb
 3834              		.thumb_func
 3835              		.type	LSM303AGR_ACC_W_HiRes, %function
 3836              	LSM303AGR_ACC_W_HiRes:
 3837              	.LFB62:
 3838              		.loc 1 1362 0
 3839              		.cfi_startproc
 3840              		@ args = 0, pretend = 0, frame = 16
 3841              		@ frame_needed = 0, uses_anonymous_args = 0
 3842 15c0 00B5     		push	{lr}
 3843              		.cfi_def_cfa_offset 4
 3844              		.cfi_offset 14, -4
 3845 15c2 85B0     		sub	sp, sp, #20
 3846              		.cfi_def_cfa_offset 24
 3847 15c4 0190     		str	r0, [sp, #4]
 3848 15c6 0B46     		mov	r3, r1
 3849 15c8 8DF80330 		strb	r3, [sp, #3]
 3850              		.loc 1 1365 0
 3851 15cc 0DF10F03 		add	r3, sp, #15
 3852 15d0 0198     		ldr	r0, [sp, #4]
 3853 15d2 2321     		movs	r1, #35
 3854 15d4 1A46     		mov	r2, r3
 3855 15d6 0123     		movs	r3, #1
 3856 15d8 FFF7FEFF 		bl	LSM303AGR_ACC_ReadReg
 3857 15dc 0346     		mov	r3, r0
 3858 15de 002B     		cmp	r3, #0
 3859 15e0 01D1     		bne	.L248
 3860              		.loc 1 1366 0
 3861 15e2 0023     		movs	r3, #0
 3862 15e4 1CE0     		b	.L251
 3863              	.L248:
 3864              		.loc 1 1368 0
 3865 15e6 9DF80F30 		ldrb	r3, [sp, #15]	@ zero_extendqisi2
 3866 15ea 23F00803 		bic	r3, r3, #8
 3867 15ee DBB2     		uxtb	r3, r3
 3868 15f0 8DF80F30 		strb	r3, [sp, #15]
 3869              		.loc 1 1369 0
 3870 15f4 9DF80F20 		ldrb	r2, [sp, #15]	@ zero_extendqisi2
 3871 15f8 9DF80330 		ldrb	r3, [sp, #3]
 3872 15fc 1343     		orrs	r3, r3, r2
ARM GAS  /tmp/ccVYwGiK.s 			page 70


 3873 15fe DBB2     		uxtb	r3, r3
 3874 1600 8DF80F30 		strb	r3, [sp, #15]
 3875              		.loc 1 1371 0
 3876 1604 0DF10F03 		add	r3, sp, #15
 3877 1608 0198     		ldr	r0, [sp, #4]
 3878 160a 2321     		movs	r1, #35
 3879 160c 1A46     		mov	r2, r3
 3880 160e 0123     		movs	r3, #1
 3881 1610 FFF7FEFF 		bl	LSM303AGR_ACC_WriteReg
 3882 1614 0346     		mov	r3, r0
 3883 1616 002B     		cmp	r3, #0
 3884 1618 01D1     		bne	.L250
 3885              		.loc 1 1372 0
 3886 161a 0023     		movs	r3, #0
 3887 161c 00E0     		b	.L251
 3888              	.L250:
 3889              		.loc 1 1374 0
 3890 161e 0123     		movs	r3, #1
 3891              	.L251:
 3892              		.loc 1 1375 0
 3893 1620 1846     		mov	r0, r3
 3894 1622 05B0     		add	sp, sp, #20
 3895              		@ sp needed
 3896 1624 5DF804FB 		ldr	pc, [sp], #4
 3897              		.cfi_endproc
 3898              	.LFE62:
 3899              		.size	LSM303AGR_ACC_W_HiRes, .-LSM303AGR_ACC_W_HiRes
 3900              		.align	2
 3901 1628 AFF30080 		.p2align 4,,15
 3901      AFF30080 
 3902              		.global	LSM303AGR_ACC_R_HiRes
 3903              		.thumb
 3904              		.thumb_func
 3905              		.type	LSM303AGR_ACC_R_HiRes, %function
 3906              	LSM303AGR_ACC_R_HiRes:
 3907              	.LFB63:
 3908              		.loc 1 1385 0
 3909              		.cfi_startproc
 3910              		@ args = 0, pretend = 0, frame = 8
 3911              		@ frame_needed = 0, uses_anonymous_args = 0
 3912 1630 00B5     		push	{lr}
 3913              		.cfi_def_cfa_offset 4
 3914              		.cfi_offset 14, -4
 3915 1632 83B0     		sub	sp, sp, #12
 3916              		.cfi_def_cfa_offset 16
 3917 1634 0190     		str	r0, [sp, #4]
 3918 1636 0091     		str	r1, [sp]
 3919              		.loc 1 1386 0
 3920 1638 0198     		ldr	r0, [sp, #4]
 3921 163a 2321     		movs	r1, #35
 3922 163c 009A     		ldr	r2, [sp]
 3923 163e 0123     		movs	r3, #1
 3924 1640 FFF7FEFF 		bl	LSM303AGR_ACC_ReadReg
 3925 1644 0346     		mov	r3, r0
 3926 1646 002B     		cmp	r3, #0
 3927 1648 01D1     		bne	.L253
 3928              		.loc 1 1387 0
ARM GAS  /tmp/ccVYwGiK.s 			page 71


 3929 164a 0023     		movs	r3, #0
 3930 164c 07E0     		b	.L254
 3931              	.L253:
 3932              		.loc 1 1389 0
 3933 164e 009B     		ldr	r3, [sp]
 3934 1650 1B78     		ldrb	r3, [r3]	@ zero_extendqisi2
 3935 1652 03F00803 		and	r3, r3, #8
 3936 1656 DAB2     		uxtb	r2, r3
 3937 1658 009B     		ldr	r3, [sp]
 3938 165a 1A70     		strb	r2, [r3]
 3939              		.loc 1 1391 0
 3940 165c 0123     		movs	r3, #1
 3941              	.L254:
 3942              		.loc 1 1392 0
 3943 165e 1846     		mov	r0, r3
 3944 1660 03B0     		add	sp, sp, #12
 3945              		@ sp needed
 3946 1662 5DF804FB 		ldr	pc, [sp], #4
 3947              		.cfi_endproc
 3948              	.LFE63:
 3949              		.size	LSM303AGR_ACC_R_HiRes, .-LSM303AGR_ACC_R_HiRes
 3950 1666 00BF     		.align	2
 3951 1668 AFF30080 		.p2align 4,,15
 3951      AFF30080 
 3952              		.global	LSM303AGR_ACC_W_LittleBigEndian
 3953              		.thumb
 3954              		.thumb_func
 3955              		.type	LSM303AGR_ACC_W_LittleBigEndian, %function
 3956              	LSM303AGR_ACC_W_LittleBigEndian:
 3957              	.LFB64:
 3958              		.loc 1 1402 0
 3959              		.cfi_startproc
 3960              		@ args = 0, pretend = 0, frame = 16
 3961              		@ frame_needed = 0, uses_anonymous_args = 0
 3962 1670 00B5     		push	{lr}
 3963              		.cfi_def_cfa_offset 4
 3964              		.cfi_offset 14, -4
 3965 1672 85B0     		sub	sp, sp, #20
 3966              		.cfi_def_cfa_offset 24
 3967 1674 0190     		str	r0, [sp, #4]
 3968 1676 0B46     		mov	r3, r1
 3969 1678 8DF80330 		strb	r3, [sp, #3]
 3970              		.loc 1 1405 0
 3971 167c 0DF10F03 		add	r3, sp, #15
 3972 1680 0198     		ldr	r0, [sp, #4]
 3973 1682 2321     		movs	r1, #35
 3974 1684 1A46     		mov	r2, r3
 3975 1686 0123     		movs	r3, #1
 3976 1688 FFF7FEFF 		bl	LSM303AGR_ACC_ReadReg
 3977 168c 0346     		mov	r3, r0
 3978 168e 002B     		cmp	r3, #0
 3979 1690 01D1     		bne	.L256
 3980              		.loc 1 1406 0
 3981 1692 0023     		movs	r3, #0
 3982 1694 1CE0     		b	.L259
 3983              	.L256:
 3984              		.loc 1 1408 0
ARM GAS  /tmp/ccVYwGiK.s 			page 72


 3985 1696 9DF80F30 		ldrb	r3, [sp, #15]	@ zero_extendqisi2
 3986 169a 23F04003 		bic	r3, r3, #64
 3987 169e DBB2     		uxtb	r3, r3
 3988 16a0 8DF80F30 		strb	r3, [sp, #15]
 3989              		.loc 1 1409 0
 3990 16a4 9DF80F20 		ldrb	r2, [sp, #15]	@ zero_extendqisi2
 3991 16a8 9DF80330 		ldrb	r3, [sp, #3]
 3992 16ac 1343     		orrs	r3, r3, r2
 3993 16ae DBB2     		uxtb	r3, r3
 3994 16b0 8DF80F30 		strb	r3, [sp, #15]
 3995              		.loc 1 1411 0
 3996 16b4 0DF10F03 		add	r3, sp, #15
 3997 16b8 0198     		ldr	r0, [sp, #4]
 3998 16ba 2321     		movs	r1, #35
 3999 16bc 1A46     		mov	r2, r3
 4000 16be 0123     		movs	r3, #1
 4001 16c0 FFF7FEFF 		bl	LSM303AGR_ACC_WriteReg
 4002 16c4 0346     		mov	r3, r0
 4003 16c6 002B     		cmp	r3, #0
 4004 16c8 01D1     		bne	.L258
 4005              		.loc 1 1412 0
 4006 16ca 0023     		movs	r3, #0
 4007 16cc 00E0     		b	.L259
 4008              	.L258:
 4009              		.loc 1 1414 0
 4010 16ce 0123     		movs	r3, #1
 4011              	.L259:
 4012              		.loc 1 1415 0
 4013 16d0 1846     		mov	r0, r3
 4014 16d2 05B0     		add	sp, sp, #20
 4015              		@ sp needed
 4016 16d4 5DF804FB 		ldr	pc, [sp], #4
 4017              		.cfi_endproc
 4018              	.LFE64:
 4019              		.size	LSM303AGR_ACC_W_LittleBigEndian, .-LSM303AGR_ACC_W_LittleBigEndian
 4020              		.align	2
 4021 16d8 AFF30080 		.p2align 4,,15
 4021      AFF30080 
 4022              		.global	LSM303AGR_ACC_R_LittleBigEndian
 4023              		.thumb
 4024              		.thumb_func
 4025              		.type	LSM303AGR_ACC_R_LittleBigEndian, %function
 4026              	LSM303AGR_ACC_R_LittleBigEndian:
 4027              	.LFB65:
 4028              		.loc 1 1425 0
 4029              		.cfi_startproc
 4030              		@ args = 0, pretend = 0, frame = 8
 4031              		@ frame_needed = 0, uses_anonymous_args = 0
 4032 16e0 00B5     		push	{lr}
 4033              		.cfi_def_cfa_offset 4
 4034              		.cfi_offset 14, -4
 4035 16e2 83B0     		sub	sp, sp, #12
 4036              		.cfi_def_cfa_offset 16
 4037 16e4 0190     		str	r0, [sp, #4]
 4038 16e6 0091     		str	r1, [sp]
 4039              		.loc 1 1426 0
 4040 16e8 0198     		ldr	r0, [sp, #4]
ARM GAS  /tmp/ccVYwGiK.s 			page 73


 4041 16ea 2321     		movs	r1, #35
 4042 16ec 009A     		ldr	r2, [sp]
 4043 16ee 0123     		movs	r3, #1
 4044 16f0 FFF7FEFF 		bl	LSM303AGR_ACC_ReadReg
 4045 16f4 0346     		mov	r3, r0
 4046 16f6 002B     		cmp	r3, #0
 4047 16f8 01D1     		bne	.L261
 4048              		.loc 1 1427 0
 4049 16fa 0023     		movs	r3, #0
 4050 16fc 07E0     		b	.L262
 4051              	.L261:
 4052              		.loc 1 1429 0
 4053 16fe 009B     		ldr	r3, [sp]
 4054 1700 1B78     		ldrb	r3, [r3]	@ zero_extendqisi2
 4055 1702 03F04003 		and	r3, r3, #64
 4056 1706 DAB2     		uxtb	r2, r3
 4057 1708 009B     		ldr	r3, [sp]
 4058 170a 1A70     		strb	r2, [r3]
 4059              		.loc 1 1431 0
 4060 170c 0123     		movs	r3, #1
 4061              	.L262:
 4062              		.loc 1 1432 0
 4063 170e 1846     		mov	r0, r3
 4064 1710 03B0     		add	sp, sp, #12
 4065              		@ sp needed
 4066 1712 5DF804FB 		ldr	pc, [sp], #4
 4067              		.cfi_endproc
 4068              	.LFE65:
 4069              		.size	LSM303AGR_ACC_R_LittleBigEndian, .-LSM303AGR_ACC_R_LittleBigEndian
 4070 1716 00BF     		.align	2
 4071 1718 AFF30080 		.p2align 4,,15
 4071      AFF30080 
 4072              		.global	LSM303AGR_ACC_W_4D_on_INT2
 4073              		.thumb
 4074              		.thumb_func
 4075              		.type	LSM303AGR_ACC_W_4D_on_INT2, %function
 4076              	LSM303AGR_ACC_W_4D_on_INT2:
 4077              	.LFB66:
 4078              		.loc 1 1442 0
 4079              		.cfi_startproc
 4080              		@ args = 0, pretend = 0, frame = 16
 4081              		@ frame_needed = 0, uses_anonymous_args = 0
 4082 1720 00B5     		push	{lr}
 4083              		.cfi_def_cfa_offset 4
 4084              		.cfi_offset 14, -4
 4085 1722 85B0     		sub	sp, sp, #20
 4086              		.cfi_def_cfa_offset 24
 4087 1724 0190     		str	r0, [sp, #4]
 4088 1726 0B46     		mov	r3, r1
 4089 1728 8DF80330 		strb	r3, [sp, #3]
 4090              		.loc 1 1445 0
 4091 172c 0DF10F03 		add	r3, sp, #15
 4092 1730 0198     		ldr	r0, [sp, #4]
 4093 1732 2421     		movs	r1, #36
 4094 1734 1A46     		mov	r2, r3
 4095 1736 0123     		movs	r3, #1
 4096 1738 FFF7FEFF 		bl	LSM303AGR_ACC_ReadReg
ARM GAS  /tmp/ccVYwGiK.s 			page 74


 4097 173c 0346     		mov	r3, r0
 4098 173e 002B     		cmp	r3, #0
 4099 1740 01D1     		bne	.L264
 4100              		.loc 1 1446 0
 4101 1742 0023     		movs	r3, #0
 4102 1744 1CE0     		b	.L267
 4103              	.L264:
 4104              		.loc 1 1448 0
 4105 1746 9DF80F30 		ldrb	r3, [sp, #15]	@ zero_extendqisi2
 4106 174a 23F00103 		bic	r3, r3, #1
 4107 174e DBB2     		uxtb	r3, r3
 4108 1750 8DF80F30 		strb	r3, [sp, #15]
 4109              		.loc 1 1449 0
 4110 1754 9DF80F20 		ldrb	r2, [sp, #15]	@ zero_extendqisi2
 4111 1758 9DF80330 		ldrb	r3, [sp, #3]
 4112 175c 1343     		orrs	r3, r3, r2
 4113 175e DBB2     		uxtb	r3, r3
 4114 1760 8DF80F30 		strb	r3, [sp, #15]
 4115              		.loc 1 1451 0
 4116 1764 0DF10F03 		add	r3, sp, #15
 4117 1768 0198     		ldr	r0, [sp, #4]
 4118 176a 2421     		movs	r1, #36
 4119 176c 1A46     		mov	r2, r3
 4120 176e 0123     		movs	r3, #1
 4121 1770 FFF7FEFF 		bl	LSM303AGR_ACC_WriteReg
 4122 1774 0346     		mov	r3, r0
 4123 1776 002B     		cmp	r3, #0
 4124 1778 01D1     		bne	.L266
 4125              		.loc 1 1452 0
 4126 177a 0023     		movs	r3, #0
 4127 177c 00E0     		b	.L267
 4128              	.L266:
 4129              		.loc 1 1454 0
 4130 177e 0123     		movs	r3, #1
 4131              	.L267:
 4132              		.loc 1 1455 0
 4133 1780 1846     		mov	r0, r3
 4134 1782 05B0     		add	sp, sp, #20
 4135              		@ sp needed
 4136 1784 5DF804FB 		ldr	pc, [sp], #4
 4137              		.cfi_endproc
 4138              	.LFE66:
 4139              		.size	LSM303AGR_ACC_W_4D_on_INT2, .-LSM303AGR_ACC_W_4D_on_INT2
 4140              		.align	2
 4141 1788 AFF30080 		.p2align 4,,15
 4141      AFF30080 
 4142              		.global	LSM303AGR_ACC_R_4D_on_INT2
 4143              		.thumb
 4144              		.thumb_func
 4145              		.type	LSM303AGR_ACC_R_4D_on_INT2, %function
 4146              	LSM303AGR_ACC_R_4D_on_INT2:
 4147              	.LFB67:
 4148              		.loc 1 1465 0
 4149              		.cfi_startproc
 4150              		@ args = 0, pretend = 0, frame = 8
 4151              		@ frame_needed = 0, uses_anonymous_args = 0
 4152 1790 00B5     		push	{lr}
ARM GAS  /tmp/ccVYwGiK.s 			page 75


 4153              		.cfi_def_cfa_offset 4
 4154              		.cfi_offset 14, -4
 4155 1792 83B0     		sub	sp, sp, #12
 4156              		.cfi_def_cfa_offset 16
 4157 1794 0190     		str	r0, [sp, #4]
 4158 1796 0091     		str	r1, [sp]
 4159              		.loc 1 1466 0
 4160 1798 0198     		ldr	r0, [sp, #4]
 4161 179a 2421     		movs	r1, #36
 4162 179c 009A     		ldr	r2, [sp]
 4163 179e 0123     		movs	r3, #1
 4164 17a0 FFF7FEFF 		bl	LSM303AGR_ACC_ReadReg
 4165 17a4 0346     		mov	r3, r0
 4166 17a6 002B     		cmp	r3, #0
 4167 17a8 01D1     		bne	.L269
 4168              		.loc 1 1467 0
 4169 17aa 0023     		movs	r3, #0
 4170 17ac 07E0     		b	.L270
 4171              	.L269:
 4172              		.loc 1 1469 0
 4173 17ae 009B     		ldr	r3, [sp]
 4174 17b0 1B78     		ldrb	r3, [r3]	@ zero_extendqisi2
 4175 17b2 03F00103 		and	r3, r3, #1
 4176 17b6 DAB2     		uxtb	r2, r3
 4177 17b8 009B     		ldr	r3, [sp]
 4178 17ba 1A70     		strb	r2, [r3]
 4179              		.loc 1 1471 0
 4180 17bc 0123     		movs	r3, #1
 4181              	.L270:
 4182              		.loc 1 1472 0
 4183 17be 1846     		mov	r0, r3
 4184 17c0 03B0     		add	sp, sp, #12
 4185              		@ sp needed
 4186 17c2 5DF804FB 		ldr	pc, [sp], #4
 4187              		.cfi_endproc
 4188              	.LFE67:
 4189              		.size	LSM303AGR_ACC_R_4D_on_INT2, .-LSM303AGR_ACC_R_4D_on_INT2
 4190 17c6 00BF     		.align	2
 4191 17c8 AFF30080 		.p2align 4,,15
 4191      AFF30080 
 4192              		.global	LSM303AGR_ACC_W_LatchInterrupt_on_INT2
 4193              		.thumb
 4194              		.thumb_func
 4195              		.type	LSM303AGR_ACC_W_LatchInterrupt_on_INT2, %function
 4196              	LSM303AGR_ACC_W_LatchInterrupt_on_INT2:
 4197              	.LFB68:
 4198              		.loc 1 1482 0
 4199              		.cfi_startproc
 4200              		@ args = 0, pretend = 0, frame = 16
 4201              		@ frame_needed = 0, uses_anonymous_args = 0
 4202 17d0 00B5     		push	{lr}
 4203              		.cfi_def_cfa_offset 4
 4204              		.cfi_offset 14, -4
 4205 17d2 85B0     		sub	sp, sp, #20
 4206              		.cfi_def_cfa_offset 24
 4207 17d4 0190     		str	r0, [sp, #4]
 4208 17d6 0B46     		mov	r3, r1
ARM GAS  /tmp/ccVYwGiK.s 			page 76


 4209 17d8 8DF80330 		strb	r3, [sp, #3]
 4210              		.loc 1 1485 0
 4211 17dc 0DF10F03 		add	r3, sp, #15
 4212 17e0 0198     		ldr	r0, [sp, #4]
 4213 17e2 2421     		movs	r1, #36
 4214 17e4 1A46     		mov	r2, r3
 4215 17e6 0123     		movs	r3, #1
 4216 17e8 FFF7FEFF 		bl	LSM303AGR_ACC_ReadReg
 4217 17ec 0346     		mov	r3, r0
 4218 17ee 002B     		cmp	r3, #0
 4219 17f0 01D1     		bne	.L272
 4220              		.loc 1 1486 0
 4221 17f2 0023     		movs	r3, #0
 4222 17f4 1CE0     		b	.L275
 4223              	.L272:
 4224              		.loc 1 1488 0
 4225 17f6 9DF80F30 		ldrb	r3, [sp, #15]	@ zero_extendqisi2
 4226 17fa 23F00203 		bic	r3, r3, #2
 4227 17fe DBB2     		uxtb	r3, r3
 4228 1800 8DF80F30 		strb	r3, [sp, #15]
 4229              		.loc 1 1489 0
 4230 1804 9DF80F20 		ldrb	r2, [sp, #15]	@ zero_extendqisi2
 4231 1808 9DF80330 		ldrb	r3, [sp, #3]
 4232 180c 1343     		orrs	r3, r3, r2
 4233 180e DBB2     		uxtb	r3, r3
 4234 1810 8DF80F30 		strb	r3, [sp, #15]
 4235              		.loc 1 1491 0
 4236 1814 0DF10F03 		add	r3, sp, #15
 4237 1818 0198     		ldr	r0, [sp, #4]
 4238 181a 2421     		movs	r1, #36
 4239 181c 1A46     		mov	r2, r3
 4240 181e 0123     		movs	r3, #1
 4241 1820 FFF7FEFF 		bl	LSM303AGR_ACC_WriteReg
 4242 1824 0346     		mov	r3, r0
 4243 1826 002B     		cmp	r3, #0
 4244 1828 01D1     		bne	.L274
 4245              		.loc 1 1492 0
 4246 182a 0023     		movs	r3, #0
 4247 182c 00E0     		b	.L275
 4248              	.L274:
 4249              		.loc 1 1494 0
 4250 182e 0123     		movs	r3, #1
 4251              	.L275:
 4252              		.loc 1 1495 0
 4253 1830 1846     		mov	r0, r3
 4254 1832 05B0     		add	sp, sp, #20
 4255              		@ sp needed
 4256 1834 5DF804FB 		ldr	pc, [sp], #4
 4257              		.cfi_endproc
 4258              	.LFE68:
 4259              		.size	LSM303AGR_ACC_W_LatchInterrupt_on_INT2, .-LSM303AGR_ACC_W_LatchInterrupt_on_INT2
 4260              		.align	2
 4261 1838 AFF30080 		.p2align 4,,15
 4261      AFF30080 
 4262              		.global	LSM303AGR_ACC_R_LatchInterrupt_on_INT2
 4263              		.thumb
 4264              		.thumb_func
ARM GAS  /tmp/ccVYwGiK.s 			page 77


 4265              		.type	LSM303AGR_ACC_R_LatchInterrupt_on_INT2, %function
 4266              	LSM303AGR_ACC_R_LatchInterrupt_on_INT2:
 4267              	.LFB69:
 4268              		.loc 1 1505 0
 4269              		.cfi_startproc
 4270              		@ args = 0, pretend = 0, frame = 8
 4271              		@ frame_needed = 0, uses_anonymous_args = 0
 4272 1840 00B5     		push	{lr}
 4273              		.cfi_def_cfa_offset 4
 4274              		.cfi_offset 14, -4
 4275 1842 83B0     		sub	sp, sp, #12
 4276              		.cfi_def_cfa_offset 16
 4277 1844 0190     		str	r0, [sp, #4]
 4278 1846 0091     		str	r1, [sp]
 4279              		.loc 1 1506 0
 4280 1848 0198     		ldr	r0, [sp, #4]
 4281 184a 2421     		movs	r1, #36
 4282 184c 009A     		ldr	r2, [sp]
 4283 184e 0123     		movs	r3, #1
 4284 1850 FFF7FEFF 		bl	LSM303AGR_ACC_ReadReg
 4285 1854 0346     		mov	r3, r0
 4286 1856 002B     		cmp	r3, #0
 4287 1858 01D1     		bne	.L277
 4288              		.loc 1 1507 0
 4289 185a 0023     		movs	r3, #0
 4290 185c 07E0     		b	.L278
 4291              	.L277:
 4292              		.loc 1 1509 0
 4293 185e 009B     		ldr	r3, [sp]
 4294 1860 1B78     		ldrb	r3, [r3]	@ zero_extendqisi2
 4295 1862 03F00203 		and	r3, r3, #2
 4296 1866 DAB2     		uxtb	r2, r3
 4297 1868 009B     		ldr	r3, [sp]
 4298 186a 1A70     		strb	r2, [r3]
 4299              		.loc 1 1511 0
 4300 186c 0123     		movs	r3, #1
 4301              	.L278:
 4302              		.loc 1 1512 0
 4303 186e 1846     		mov	r0, r3
 4304 1870 03B0     		add	sp, sp, #12
 4305              		@ sp needed
 4306 1872 5DF804FB 		ldr	pc, [sp], #4
 4307              		.cfi_endproc
 4308              	.LFE69:
 4309              		.size	LSM303AGR_ACC_R_LatchInterrupt_on_INT2, .-LSM303AGR_ACC_R_LatchInterrupt_on_INT2
 4310 1876 00BF     		.align	2
 4311 1878 AFF30080 		.p2align 4,,15
 4311      AFF30080 
 4312              		.global	LSM303AGR_ACC_W_4D_on_INT1
 4313              		.thumb
 4314              		.thumb_func
 4315              		.type	LSM303AGR_ACC_W_4D_on_INT1, %function
 4316              	LSM303AGR_ACC_W_4D_on_INT1:
 4317              	.LFB70:
 4318              		.loc 1 1522 0
 4319              		.cfi_startproc
 4320              		@ args = 0, pretend = 0, frame = 16
ARM GAS  /tmp/ccVYwGiK.s 			page 78


 4321              		@ frame_needed = 0, uses_anonymous_args = 0
 4322 1880 00B5     		push	{lr}
 4323              		.cfi_def_cfa_offset 4
 4324              		.cfi_offset 14, -4
 4325 1882 85B0     		sub	sp, sp, #20
 4326              		.cfi_def_cfa_offset 24
 4327 1884 0190     		str	r0, [sp, #4]
 4328 1886 0B46     		mov	r3, r1
 4329 1888 8DF80330 		strb	r3, [sp, #3]
 4330              		.loc 1 1525 0
 4331 188c 0DF10F03 		add	r3, sp, #15
 4332 1890 0198     		ldr	r0, [sp, #4]
 4333 1892 2421     		movs	r1, #36
 4334 1894 1A46     		mov	r2, r3
 4335 1896 0123     		movs	r3, #1
 4336 1898 FFF7FEFF 		bl	LSM303AGR_ACC_ReadReg
 4337 189c 0346     		mov	r3, r0
 4338 189e 002B     		cmp	r3, #0
 4339 18a0 01D1     		bne	.L280
 4340              		.loc 1 1526 0
 4341 18a2 0023     		movs	r3, #0
 4342 18a4 1CE0     		b	.L283
 4343              	.L280:
 4344              		.loc 1 1528 0
 4345 18a6 9DF80F30 		ldrb	r3, [sp, #15]	@ zero_extendqisi2
 4346 18aa 23F00403 		bic	r3, r3, #4
 4347 18ae DBB2     		uxtb	r3, r3
 4348 18b0 8DF80F30 		strb	r3, [sp, #15]
 4349              		.loc 1 1529 0
 4350 18b4 9DF80F20 		ldrb	r2, [sp, #15]	@ zero_extendqisi2
 4351 18b8 9DF80330 		ldrb	r3, [sp, #3]
 4352 18bc 1343     		orrs	r3, r3, r2
 4353 18be DBB2     		uxtb	r3, r3
 4354 18c0 8DF80F30 		strb	r3, [sp, #15]
 4355              		.loc 1 1531 0
 4356 18c4 0DF10F03 		add	r3, sp, #15
 4357 18c8 0198     		ldr	r0, [sp, #4]
 4358 18ca 2421     		movs	r1, #36
 4359 18cc 1A46     		mov	r2, r3
 4360 18ce 0123     		movs	r3, #1
 4361 18d0 FFF7FEFF 		bl	LSM303AGR_ACC_WriteReg
 4362 18d4 0346     		mov	r3, r0
 4363 18d6 002B     		cmp	r3, #0
 4364 18d8 01D1     		bne	.L282
 4365              		.loc 1 1532 0
 4366 18da 0023     		movs	r3, #0
 4367 18dc 00E0     		b	.L283
 4368              	.L282:
 4369              		.loc 1 1534 0
 4370 18de 0123     		movs	r3, #1
 4371              	.L283:
 4372              		.loc 1 1535 0
 4373 18e0 1846     		mov	r0, r3
 4374 18e2 05B0     		add	sp, sp, #20
 4375              		@ sp needed
 4376 18e4 5DF804FB 		ldr	pc, [sp], #4
 4377              		.cfi_endproc
ARM GAS  /tmp/ccVYwGiK.s 			page 79


 4378              	.LFE70:
 4379              		.size	LSM303AGR_ACC_W_4D_on_INT1, .-LSM303AGR_ACC_W_4D_on_INT1
 4380              		.align	2
 4381 18e8 AFF30080 		.p2align 4,,15
 4381      AFF30080 
 4382              		.global	LSM303AGR_ACC_R_4D_on_INT1
 4383              		.thumb
 4384              		.thumb_func
 4385              		.type	LSM303AGR_ACC_R_4D_on_INT1, %function
 4386              	LSM303AGR_ACC_R_4D_on_INT1:
 4387              	.LFB71:
 4388              		.loc 1 1545 0
 4389              		.cfi_startproc
 4390              		@ args = 0, pretend = 0, frame = 8
 4391              		@ frame_needed = 0, uses_anonymous_args = 0
 4392 18f0 00B5     		push	{lr}
 4393              		.cfi_def_cfa_offset 4
 4394              		.cfi_offset 14, -4
 4395 18f2 83B0     		sub	sp, sp, #12
 4396              		.cfi_def_cfa_offset 16
 4397 18f4 0190     		str	r0, [sp, #4]
 4398 18f6 0091     		str	r1, [sp]
 4399              		.loc 1 1546 0
 4400 18f8 0198     		ldr	r0, [sp, #4]
 4401 18fa 2421     		movs	r1, #36
 4402 18fc 009A     		ldr	r2, [sp]
 4403 18fe 0123     		movs	r3, #1
 4404 1900 FFF7FEFF 		bl	LSM303AGR_ACC_ReadReg
 4405 1904 0346     		mov	r3, r0
 4406 1906 002B     		cmp	r3, #0
 4407 1908 01D1     		bne	.L285
 4408              		.loc 1 1547 0
 4409 190a 0023     		movs	r3, #0
 4410 190c 07E0     		b	.L286
 4411              	.L285:
 4412              		.loc 1 1549 0
 4413 190e 009B     		ldr	r3, [sp]
 4414 1910 1B78     		ldrb	r3, [r3]	@ zero_extendqisi2
 4415 1912 03F00403 		and	r3, r3, #4
 4416 1916 DAB2     		uxtb	r2, r3
 4417 1918 009B     		ldr	r3, [sp]
 4418 191a 1A70     		strb	r2, [r3]
 4419              		.loc 1 1551 0
 4420 191c 0123     		movs	r3, #1
 4421              	.L286:
 4422              		.loc 1 1552 0
 4423 191e 1846     		mov	r0, r3
 4424 1920 03B0     		add	sp, sp, #12
 4425              		@ sp needed
 4426 1922 5DF804FB 		ldr	pc, [sp], #4
 4427              		.cfi_endproc
 4428              	.LFE71:
 4429              		.size	LSM303AGR_ACC_R_4D_on_INT1, .-LSM303AGR_ACC_R_4D_on_INT1
 4430 1926 00BF     		.align	2
 4431 1928 AFF30080 		.p2align 4,,15
 4431      AFF30080 
 4432              		.global	LSM303AGR_ACC_W_LatchInterrupt_on_INT1
ARM GAS  /tmp/ccVYwGiK.s 			page 80


 4433              		.thumb
 4434              		.thumb_func
 4435              		.type	LSM303AGR_ACC_W_LatchInterrupt_on_INT1, %function
 4436              	LSM303AGR_ACC_W_LatchInterrupt_on_INT1:
 4437              	.LFB72:
 4438              		.loc 1 1562 0
 4439              		.cfi_startproc
 4440              		@ args = 0, pretend = 0, frame = 16
 4441              		@ frame_needed = 0, uses_anonymous_args = 0
 4442 1930 00B5     		push	{lr}
 4443              		.cfi_def_cfa_offset 4
 4444              		.cfi_offset 14, -4
 4445 1932 85B0     		sub	sp, sp, #20
 4446              		.cfi_def_cfa_offset 24
 4447 1934 0190     		str	r0, [sp, #4]
 4448 1936 0B46     		mov	r3, r1
 4449 1938 8DF80330 		strb	r3, [sp, #3]
 4450              		.loc 1 1565 0
 4451 193c 0DF10F03 		add	r3, sp, #15
 4452 1940 0198     		ldr	r0, [sp, #4]
 4453 1942 2421     		movs	r1, #36
 4454 1944 1A46     		mov	r2, r3
 4455 1946 0123     		movs	r3, #1
 4456 1948 FFF7FEFF 		bl	LSM303AGR_ACC_ReadReg
 4457 194c 0346     		mov	r3, r0
 4458 194e 002B     		cmp	r3, #0
 4459 1950 01D1     		bne	.L288
 4460              		.loc 1 1566 0
 4461 1952 0023     		movs	r3, #0
 4462 1954 1CE0     		b	.L291
 4463              	.L288:
 4464              		.loc 1 1568 0
 4465 1956 9DF80F30 		ldrb	r3, [sp, #15]	@ zero_extendqisi2
 4466 195a 23F00803 		bic	r3, r3, #8
 4467 195e DBB2     		uxtb	r3, r3
 4468 1960 8DF80F30 		strb	r3, [sp, #15]
 4469              		.loc 1 1569 0
 4470 1964 9DF80F20 		ldrb	r2, [sp, #15]	@ zero_extendqisi2
 4471 1968 9DF80330 		ldrb	r3, [sp, #3]
 4472 196c 1343     		orrs	r3, r3, r2
 4473 196e DBB2     		uxtb	r3, r3
 4474 1970 8DF80F30 		strb	r3, [sp, #15]
 4475              		.loc 1 1571 0
 4476 1974 0DF10F03 		add	r3, sp, #15
 4477 1978 0198     		ldr	r0, [sp, #4]
 4478 197a 2421     		movs	r1, #36
 4479 197c 1A46     		mov	r2, r3
 4480 197e 0123     		movs	r3, #1
 4481 1980 FFF7FEFF 		bl	LSM303AGR_ACC_WriteReg
 4482 1984 0346     		mov	r3, r0
 4483 1986 002B     		cmp	r3, #0
 4484 1988 01D1     		bne	.L290
 4485              		.loc 1 1572 0
 4486 198a 0023     		movs	r3, #0
 4487 198c 00E0     		b	.L291
 4488              	.L290:
 4489              		.loc 1 1574 0
ARM GAS  /tmp/ccVYwGiK.s 			page 81


 4490 198e 0123     		movs	r3, #1
 4491              	.L291:
 4492              		.loc 1 1575 0
 4493 1990 1846     		mov	r0, r3
 4494 1992 05B0     		add	sp, sp, #20
 4495              		@ sp needed
 4496 1994 5DF804FB 		ldr	pc, [sp], #4
 4497              		.cfi_endproc
 4498              	.LFE72:
 4499              		.size	LSM303AGR_ACC_W_LatchInterrupt_on_INT1, .-LSM303AGR_ACC_W_LatchInterrupt_on_INT1
 4500              		.align	2
 4501 1998 AFF30080 		.p2align 4,,15
 4501      AFF30080 
 4502              		.global	LSM303AGR_ACC_R_LatchInterrupt_on_INT1
 4503              		.thumb
 4504              		.thumb_func
 4505              		.type	LSM303AGR_ACC_R_LatchInterrupt_on_INT1, %function
 4506              	LSM303AGR_ACC_R_LatchInterrupt_on_INT1:
 4507              	.LFB73:
 4508              		.loc 1 1585 0
 4509              		.cfi_startproc
 4510              		@ args = 0, pretend = 0, frame = 8
 4511              		@ frame_needed = 0, uses_anonymous_args = 0
 4512 19a0 00B5     		push	{lr}
 4513              		.cfi_def_cfa_offset 4
 4514              		.cfi_offset 14, -4
 4515 19a2 83B0     		sub	sp, sp, #12
 4516              		.cfi_def_cfa_offset 16
 4517 19a4 0190     		str	r0, [sp, #4]
 4518 19a6 0091     		str	r1, [sp]
 4519              		.loc 1 1586 0
 4520 19a8 0198     		ldr	r0, [sp, #4]
 4521 19aa 2421     		movs	r1, #36
 4522 19ac 009A     		ldr	r2, [sp]
 4523 19ae 0123     		movs	r3, #1
 4524 19b0 FFF7FEFF 		bl	LSM303AGR_ACC_ReadReg
 4525 19b4 0346     		mov	r3, r0
 4526 19b6 002B     		cmp	r3, #0
 4527 19b8 01D1     		bne	.L293
 4528              		.loc 1 1587 0
 4529 19ba 0023     		movs	r3, #0
 4530 19bc 07E0     		b	.L294
 4531              	.L293:
 4532              		.loc 1 1589 0
 4533 19be 009B     		ldr	r3, [sp]
 4534 19c0 1B78     		ldrb	r3, [r3]	@ zero_extendqisi2
 4535 19c2 03F00803 		and	r3, r3, #8
 4536 19c6 DAB2     		uxtb	r2, r3
 4537 19c8 009B     		ldr	r3, [sp]
 4538 19ca 1A70     		strb	r2, [r3]
 4539              		.loc 1 1591 0
 4540 19cc 0123     		movs	r3, #1
 4541              	.L294:
 4542              		.loc 1 1592 0
 4543 19ce 1846     		mov	r0, r3
 4544 19d0 03B0     		add	sp, sp, #12
 4545              		@ sp needed
ARM GAS  /tmp/ccVYwGiK.s 			page 82


 4546 19d2 5DF804FB 		ldr	pc, [sp], #4
 4547              		.cfi_endproc
 4548              	.LFE73:
 4549              		.size	LSM303AGR_ACC_R_LatchInterrupt_on_INT1, .-LSM303AGR_ACC_R_LatchInterrupt_on_INT1
 4550 19d6 00BF     		.align	2
 4551 19d8 AFF30080 		.p2align 4,,15
 4551      AFF30080 
 4552              		.global	LSM303AGR_ACC_W_FIFO_EN
 4553              		.thumb
 4554              		.thumb_func
 4555              		.type	LSM303AGR_ACC_W_FIFO_EN, %function
 4556              	LSM303AGR_ACC_W_FIFO_EN:
 4557              	.LFB74:
 4558              		.loc 1 1602 0
 4559              		.cfi_startproc
 4560              		@ args = 0, pretend = 0, frame = 16
 4561              		@ frame_needed = 0, uses_anonymous_args = 0
 4562 19e0 00B5     		push	{lr}
 4563              		.cfi_def_cfa_offset 4
 4564              		.cfi_offset 14, -4
 4565 19e2 85B0     		sub	sp, sp, #20
 4566              		.cfi_def_cfa_offset 24
 4567 19e4 0190     		str	r0, [sp, #4]
 4568 19e6 0B46     		mov	r3, r1
 4569 19e8 8DF80330 		strb	r3, [sp, #3]
 4570              		.loc 1 1605 0
 4571 19ec 0DF10F03 		add	r3, sp, #15
 4572 19f0 0198     		ldr	r0, [sp, #4]
 4573 19f2 2421     		movs	r1, #36
 4574 19f4 1A46     		mov	r2, r3
 4575 19f6 0123     		movs	r3, #1
 4576 19f8 FFF7FEFF 		bl	LSM303AGR_ACC_ReadReg
 4577 19fc 0346     		mov	r3, r0
 4578 19fe 002B     		cmp	r3, #0
 4579 1a00 01D1     		bne	.L296
 4580              		.loc 1 1606 0
 4581 1a02 0023     		movs	r3, #0
 4582 1a04 1CE0     		b	.L299
 4583              	.L296:
 4584              		.loc 1 1608 0
 4585 1a06 9DF80F30 		ldrb	r3, [sp, #15]	@ zero_extendqisi2
 4586 1a0a 23F04003 		bic	r3, r3, #64
 4587 1a0e DBB2     		uxtb	r3, r3
 4588 1a10 8DF80F30 		strb	r3, [sp, #15]
 4589              		.loc 1 1609 0
 4590 1a14 9DF80F20 		ldrb	r2, [sp, #15]	@ zero_extendqisi2
 4591 1a18 9DF80330 		ldrb	r3, [sp, #3]
 4592 1a1c 1343     		orrs	r3, r3, r2
 4593 1a1e DBB2     		uxtb	r3, r3
 4594 1a20 8DF80F30 		strb	r3, [sp, #15]
 4595              		.loc 1 1611 0
 4596 1a24 0DF10F03 		add	r3, sp, #15
 4597 1a28 0198     		ldr	r0, [sp, #4]
 4598 1a2a 2421     		movs	r1, #36
 4599 1a2c 1A46     		mov	r2, r3
 4600 1a2e 0123     		movs	r3, #1
 4601 1a30 FFF7FEFF 		bl	LSM303AGR_ACC_WriteReg
ARM GAS  /tmp/ccVYwGiK.s 			page 83


 4602 1a34 0346     		mov	r3, r0
 4603 1a36 002B     		cmp	r3, #0
 4604 1a38 01D1     		bne	.L298
 4605              		.loc 1 1612 0
 4606 1a3a 0023     		movs	r3, #0
 4607 1a3c 00E0     		b	.L299
 4608              	.L298:
 4609              		.loc 1 1614 0
 4610 1a3e 0123     		movs	r3, #1
 4611              	.L299:
 4612              		.loc 1 1615 0
 4613 1a40 1846     		mov	r0, r3
 4614 1a42 05B0     		add	sp, sp, #20
 4615              		@ sp needed
 4616 1a44 5DF804FB 		ldr	pc, [sp], #4
 4617              		.cfi_endproc
 4618              	.LFE74:
 4619              		.size	LSM303AGR_ACC_W_FIFO_EN, .-LSM303AGR_ACC_W_FIFO_EN
 4620              		.align	2
 4621 1a48 AFF30080 		.p2align 4,,15
 4621      AFF30080 
 4622              		.global	LSM303AGR_ACC_R_FIFO_EN
 4623              		.thumb
 4624              		.thumb_func
 4625              		.type	LSM303AGR_ACC_R_FIFO_EN, %function
 4626              	LSM303AGR_ACC_R_FIFO_EN:
 4627              	.LFB75:
 4628              		.loc 1 1625 0
 4629              		.cfi_startproc
 4630              		@ args = 0, pretend = 0, frame = 8
 4631              		@ frame_needed = 0, uses_anonymous_args = 0
 4632 1a50 00B5     		push	{lr}
 4633              		.cfi_def_cfa_offset 4
 4634              		.cfi_offset 14, -4
 4635 1a52 83B0     		sub	sp, sp, #12
 4636              		.cfi_def_cfa_offset 16
 4637 1a54 0190     		str	r0, [sp, #4]
 4638 1a56 0091     		str	r1, [sp]
 4639              		.loc 1 1626 0
 4640 1a58 0198     		ldr	r0, [sp, #4]
 4641 1a5a 2421     		movs	r1, #36
 4642 1a5c 009A     		ldr	r2, [sp]
 4643 1a5e 0123     		movs	r3, #1
 4644 1a60 FFF7FEFF 		bl	LSM303AGR_ACC_ReadReg
 4645 1a64 0346     		mov	r3, r0
 4646 1a66 002B     		cmp	r3, #0
 4647 1a68 01D1     		bne	.L301
 4648              		.loc 1 1627 0
 4649 1a6a 0023     		movs	r3, #0
 4650 1a6c 07E0     		b	.L302
 4651              	.L301:
 4652              		.loc 1 1629 0
 4653 1a6e 009B     		ldr	r3, [sp]
 4654 1a70 1B78     		ldrb	r3, [r3]	@ zero_extendqisi2
 4655 1a72 03F04003 		and	r3, r3, #64
 4656 1a76 DAB2     		uxtb	r2, r3
 4657 1a78 009B     		ldr	r3, [sp]
ARM GAS  /tmp/ccVYwGiK.s 			page 84


 4658 1a7a 1A70     		strb	r2, [r3]
 4659              		.loc 1 1631 0
 4660 1a7c 0123     		movs	r3, #1
 4661              	.L302:
 4662              		.loc 1 1632 0
 4663 1a7e 1846     		mov	r0, r3
 4664 1a80 03B0     		add	sp, sp, #12
 4665              		@ sp needed
 4666 1a82 5DF804FB 		ldr	pc, [sp], #4
 4667              		.cfi_endproc
 4668              	.LFE75:
 4669              		.size	LSM303AGR_ACC_R_FIFO_EN, .-LSM303AGR_ACC_R_FIFO_EN
 4670 1a86 00BF     		.align	2
 4671 1a88 AFF30080 		.p2align 4,,15
 4671      AFF30080 
 4672              		.global	LSM303AGR_ACC_W_RebootMemory
 4673              		.thumb
 4674              		.thumb_func
 4675              		.type	LSM303AGR_ACC_W_RebootMemory, %function
 4676              	LSM303AGR_ACC_W_RebootMemory:
 4677              	.LFB76:
 4678              		.loc 1 1642 0
 4679              		.cfi_startproc
 4680              		@ args = 0, pretend = 0, frame = 16
 4681              		@ frame_needed = 0, uses_anonymous_args = 0
 4682 1a90 00B5     		push	{lr}
 4683              		.cfi_def_cfa_offset 4
 4684              		.cfi_offset 14, -4
 4685 1a92 85B0     		sub	sp, sp, #20
 4686              		.cfi_def_cfa_offset 24
 4687 1a94 0190     		str	r0, [sp, #4]
 4688 1a96 0B46     		mov	r3, r1
 4689 1a98 8DF80330 		strb	r3, [sp, #3]
 4690              		.loc 1 1645 0
 4691 1a9c 0DF10F03 		add	r3, sp, #15
 4692 1aa0 0198     		ldr	r0, [sp, #4]
 4693 1aa2 2421     		movs	r1, #36
 4694 1aa4 1A46     		mov	r2, r3
 4695 1aa6 0123     		movs	r3, #1
 4696 1aa8 FFF7FEFF 		bl	LSM303AGR_ACC_ReadReg
 4697 1aac 0346     		mov	r3, r0
 4698 1aae 002B     		cmp	r3, #0
 4699 1ab0 01D1     		bne	.L304
 4700              		.loc 1 1646 0
 4701 1ab2 0023     		movs	r3, #0
 4702 1ab4 1CE0     		b	.L307
 4703              	.L304:
 4704              		.loc 1 1648 0
 4705 1ab6 9DF80F30 		ldrb	r3, [sp, #15]	@ zero_extendqisi2
 4706 1aba 03F07F03 		and	r3, r3, #127
 4707 1abe DBB2     		uxtb	r3, r3
 4708 1ac0 8DF80F30 		strb	r3, [sp, #15]
 4709              		.loc 1 1649 0
 4710 1ac4 9DF80F20 		ldrb	r2, [sp, #15]	@ zero_extendqisi2
 4711 1ac8 9DF80330 		ldrb	r3, [sp, #3]
 4712 1acc 1343     		orrs	r3, r3, r2
 4713 1ace DBB2     		uxtb	r3, r3
ARM GAS  /tmp/ccVYwGiK.s 			page 85


 4714 1ad0 8DF80F30 		strb	r3, [sp, #15]
 4715              		.loc 1 1651 0
 4716 1ad4 0DF10F03 		add	r3, sp, #15
 4717 1ad8 0198     		ldr	r0, [sp, #4]
 4718 1ada 2421     		movs	r1, #36
 4719 1adc 1A46     		mov	r2, r3
 4720 1ade 0123     		movs	r3, #1
 4721 1ae0 FFF7FEFF 		bl	LSM303AGR_ACC_WriteReg
 4722 1ae4 0346     		mov	r3, r0
 4723 1ae6 002B     		cmp	r3, #0
 4724 1ae8 01D1     		bne	.L306
 4725              		.loc 1 1652 0
 4726 1aea 0023     		movs	r3, #0
 4727 1aec 00E0     		b	.L307
 4728              	.L306:
 4729              		.loc 1 1654 0
 4730 1aee 0123     		movs	r3, #1
 4731              	.L307:
 4732              		.loc 1 1655 0
 4733 1af0 1846     		mov	r0, r3
 4734 1af2 05B0     		add	sp, sp, #20
 4735              		@ sp needed
 4736 1af4 5DF804FB 		ldr	pc, [sp], #4
 4737              		.cfi_endproc
 4738              	.LFE76:
 4739              		.size	LSM303AGR_ACC_W_RebootMemory, .-LSM303AGR_ACC_W_RebootMemory
 4740              		.align	2
 4741 1af8 AFF30080 		.p2align 4,,15
 4741      AFF30080 
 4742              		.global	LSM303AGR_ACC_R_RebootMemory
 4743              		.thumb
 4744              		.thumb_func
 4745              		.type	LSM303AGR_ACC_R_RebootMemory, %function
 4746              	LSM303AGR_ACC_R_RebootMemory:
 4747              	.LFB77:
 4748              		.loc 1 1665 0
 4749              		.cfi_startproc
 4750              		@ args = 0, pretend = 0, frame = 8
 4751              		@ frame_needed = 0, uses_anonymous_args = 0
 4752 1b00 00B5     		push	{lr}
 4753              		.cfi_def_cfa_offset 4
 4754              		.cfi_offset 14, -4
 4755 1b02 83B0     		sub	sp, sp, #12
 4756              		.cfi_def_cfa_offset 16
 4757 1b04 0190     		str	r0, [sp, #4]
 4758 1b06 0091     		str	r1, [sp]
 4759              		.loc 1 1666 0
 4760 1b08 0198     		ldr	r0, [sp, #4]
 4761 1b0a 2421     		movs	r1, #36
 4762 1b0c 009A     		ldr	r2, [sp]
 4763 1b0e 0123     		movs	r3, #1
 4764 1b10 FFF7FEFF 		bl	LSM303AGR_ACC_ReadReg
 4765 1b14 0346     		mov	r3, r0
 4766 1b16 002B     		cmp	r3, #0
 4767 1b18 01D1     		bne	.L309
 4768              		.loc 1 1667 0
 4769 1b1a 0023     		movs	r3, #0
ARM GAS  /tmp/ccVYwGiK.s 			page 86


 4770 1b1c 07E0     		b	.L310
 4771              	.L309:
 4772              		.loc 1 1669 0
 4773 1b1e 009B     		ldr	r3, [sp]
 4774 1b20 1B78     		ldrb	r3, [r3]	@ zero_extendqisi2
 4775 1b22 23F07F03 		bic	r3, r3, #127
 4776 1b26 DAB2     		uxtb	r2, r3
 4777 1b28 009B     		ldr	r3, [sp]
 4778 1b2a 1A70     		strb	r2, [r3]
 4779              		.loc 1 1671 0
 4780 1b2c 0123     		movs	r3, #1
 4781              	.L310:
 4782              		.loc 1 1672 0
 4783 1b2e 1846     		mov	r0, r3
 4784 1b30 03B0     		add	sp, sp, #12
 4785              		@ sp needed
 4786 1b32 5DF804FB 		ldr	pc, [sp], #4
 4787              		.cfi_endproc
 4788              	.LFE77:
 4789              		.size	LSM303AGR_ACC_R_RebootMemory, .-LSM303AGR_ACC_R_RebootMemory
 4790 1b36 00BF     		.align	2
 4791 1b38 AFF30080 		.p2align 4,,15
 4791      AFF30080 
 4792              		.global	LSM303AGR_ACC_W_IntActive
 4793              		.thumb
 4794              		.thumb_func
 4795              		.type	LSM303AGR_ACC_W_IntActive, %function
 4796              	LSM303AGR_ACC_W_IntActive:
 4797              	.LFB78:
 4798              		.loc 1 1682 0
 4799              		.cfi_startproc
 4800              		@ args = 0, pretend = 0, frame = 16
 4801              		@ frame_needed = 0, uses_anonymous_args = 0
 4802 1b40 00B5     		push	{lr}
 4803              		.cfi_def_cfa_offset 4
 4804              		.cfi_offset 14, -4
 4805 1b42 85B0     		sub	sp, sp, #20
 4806              		.cfi_def_cfa_offset 24
 4807 1b44 0190     		str	r0, [sp, #4]
 4808 1b46 0B46     		mov	r3, r1
 4809 1b48 8DF80330 		strb	r3, [sp, #3]
 4810              		.loc 1 1685 0
 4811 1b4c 0DF10F03 		add	r3, sp, #15
 4812 1b50 0198     		ldr	r0, [sp, #4]
 4813 1b52 2521     		movs	r1, #37
 4814 1b54 1A46     		mov	r2, r3
 4815 1b56 0123     		movs	r3, #1
 4816 1b58 FFF7FEFF 		bl	LSM303AGR_ACC_ReadReg
 4817 1b5c 0346     		mov	r3, r0
 4818 1b5e 002B     		cmp	r3, #0
 4819 1b60 01D1     		bne	.L312
 4820              		.loc 1 1686 0
 4821 1b62 0023     		movs	r3, #0
 4822 1b64 1CE0     		b	.L315
 4823              	.L312:
 4824              		.loc 1 1688 0
 4825 1b66 9DF80F30 		ldrb	r3, [sp, #15]	@ zero_extendqisi2
ARM GAS  /tmp/ccVYwGiK.s 			page 87


 4826 1b6a 23F00203 		bic	r3, r3, #2
 4827 1b6e DBB2     		uxtb	r3, r3
 4828 1b70 8DF80F30 		strb	r3, [sp, #15]
 4829              		.loc 1 1689 0
 4830 1b74 9DF80F20 		ldrb	r2, [sp, #15]	@ zero_extendqisi2
 4831 1b78 9DF80330 		ldrb	r3, [sp, #3]
 4832 1b7c 1343     		orrs	r3, r3, r2
 4833 1b7e DBB2     		uxtb	r3, r3
 4834 1b80 8DF80F30 		strb	r3, [sp, #15]
 4835              		.loc 1 1691 0
 4836 1b84 0DF10F03 		add	r3, sp, #15
 4837 1b88 0198     		ldr	r0, [sp, #4]
 4838 1b8a 2521     		movs	r1, #37
 4839 1b8c 1A46     		mov	r2, r3
 4840 1b8e 0123     		movs	r3, #1
 4841 1b90 FFF7FEFF 		bl	LSM303AGR_ACC_WriteReg
 4842 1b94 0346     		mov	r3, r0
 4843 1b96 002B     		cmp	r3, #0
 4844 1b98 01D1     		bne	.L314
 4845              		.loc 1 1692 0
 4846 1b9a 0023     		movs	r3, #0
 4847 1b9c 00E0     		b	.L315
 4848              	.L314:
 4849              		.loc 1 1694 0
 4850 1b9e 0123     		movs	r3, #1
 4851              	.L315:
 4852              		.loc 1 1695 0
 4853 1ba0 1846     		mov	r0, r3
 4854 1ba2 05B0     		add	sp, sp, #20
 4855              		@ sp needed
 4856 1ba4 5DF804FB 		ldr	pc, [sp], #4
 4857              		.cfi_endproc
 4858              	.LFE78:
 4859              		.size	LSM303AGR_ACC_W_IntActive, .-LSM303AGR_ACC_W_IntActive
 4860              		.align	2
 4861 1ba8 AFF30080 		.p2align 4,,15
 4861      AFF30080 
 4862              		.global	LSM303AGR_ACC_R_IntActive
 4863              		.thumb
 4864              		.thumb_func
 4865              		.type	LSM303AGR_ACC_R_IntActive, %function
 4866              	LSM303AGR_ACC_R_IntActive:
 4867              	.LFB79:
 4868              		.loc 1 1705 0
 4869              		.cfi_startproc
 4870              		@ args = 0, pretend = 0, frame = 8
 4871              		@ frame_needed = 0, uses_anonymous_args = 0
 4872 1bb0 00B5     		push	{lr}
 4873              		.cfi_def_cfa_offset 4
 4874              		.cfi_offset 14, -4
 4875 1bb2 83B0     		sub	sp, sp, #12
 4876              		.cfi_def_cfa_offset 16
 4877 1bb4 0190     		str	r0, [sp, #4]
 4878 1bb6 0091     		str	r1, [sp]
 4879              		.loc 1 1706 0
 4880 1bb8 0198     		ldr	r0, [sp, #4]
 4881 1bba 2521     		movs	r1, #37
ARM GAS  /tmp/ccVYwGiK.s 			page 88


 4882 1bbc 009A     		ldr	r2, [sp]
 4883 1bbe 0123     		movs	r3, #1
 4884 1bc0 FFF7FEFF 		bl	LSM303AGR_ACC_ReadReg
 4885 1bc4 0346     		mov	r3, r0
 4886 1bc6 002B     		cmp	r3, #0
 4887 1bc8 01D1     		bne	.L317
 4888              		.loc 1 1707 0
 4889 1bca 0023     		movs	r3, #0
 4890 1bcc 07E0     		b	.L318
 4891              	.L317:
 4892              		.loc 1 1709 0
 4893 1bce 009B     		ldr	r3, [sp]
 4894 1bd0 1B78     		ldrb	r3, [r3]	@ zero_extendqisi2
 4895 1bd2 03F00203 		and	r3, r3, #2
 4896 1bd6 DAB2     		uxtb	r2, r3
 4897 1bd8 009B     		ldr	r3, [sp]
 4898 1bda 1A70     		strb	r2, [r3]
 4899              		.loc 1 1711 0
 4900 1bdc 0123     		movs	r3, #1
 4901              	.L318:
 4902              		.loc 1 1712 0
 4903 1bde 1846     		mov	r0, r3
 4904 1be0 03B0     		add	sp, sp, #12
 4905              		@ sp needed
 4906 1be2 5DF804FB 		ldr	pc, [sp], #4
 4907              		.cfi_endproc
 4908              	.LFE79:
 4909              		.size	LSM303AGR_ACC_R_IntActive, .-LSM303AGR_ACC_R_IntActive
 4910 1be6 00BF     		.align	2
 4911 1be8 AFF30080 		.p2align 4,,15
 4911      AFF30080 
 4912              		.global	LSM303AGR_ACC_W_P2_ACT
 4913              		.thumb
 4914              		.thumb_func
 4915              		.type	LSM303AGR_ACC_W_P2_ACT, %function
 4916              	LSM303AGR_ACC_W_P2_ACT:
 4917              	.LFB80:
 4918              		.loc 1 1722 0
 4919              		.cfi_startproc
 4920              		@ args = 0, pretend = 0, frame = 16
 4921              		@ frame_needed = 0, uses_anonymous_args = 0
 4922 1bf0 00B5     		push	{lr}
 4923              		.cfi_def_cfa_offset 4
 4924              		.cfi_offset 14, -4
 4925 1bf2 85B0     		sub	sp, sp, #20
 4926              		.cfi_def_cfa_offset 24
 4927 1bf4 0190     		str	r0, [sp, #4]
 4928 1bf6 0B46     		mov	r3, r1
 4929 1bf8 8DF80330 		strb	r3, [sp, #3]
 4930              		.loc 1 1725 0
 4931 1bfc 0DF10F03 		add	r3, sp, #15
 4932 1c00 0198     		ldr	r0, [sp, #4]
 4933 1c02 2521     		movs	r1, #37
 4934 1c04 1A46     		mov	r2, r3
 4935 1c06 0123     		movs	r3, #1
 4936 1c08 FFF7FEFF 		bl	LSM303AGR_ACC_ReadReg
 4937 1c0c 0346     		mov	r3, r0
ARM GAS  /tmp/ccVYwGiK.s 			page 89


 4938 1c0e 002B     		cmp	r3, #0
 4939 1c10 01D1     		bne	.L320
 4940              		.loc 1 1726 0
 4941 1c12 0023     		movs	r3, #0
 4942 1c14 1CE0     		b	.L323
 4943              	.L320:
 4944              		.loc 1 1728 0
 4945 1c16 9DF80F30 		ldrb	r3, [sp, #15]	@ zero_extendqisi2
 4946 1c1a 23F00803 		bic	r3, r3, #8
 4947 1c1e DBB2     		uxtb	r3, r3
 4948 1c20 8DF80F30 		strb	r3, [sp, #15]
 4949              		.loc 1 1729 0
 4950 1c24 9DF80F20 		ldrb	r2, [sp, #15]	@ zero_extendqisi2
 4951 1c28 9DF80330 		ldrb	r3, [sp, #3]
 4952 1c2c 1343     		orrs	r3, r3, r2
 4953 1c2e DBB2     		uxtb	r3, r3
 4954 1c30 8DF80F30 		strb	r3, [sp, #15]
 4955              		.loc 1 1731 0
 4956 1c34 0DF10F03 		add	r3, sp, #15
 4957 1c38 0198     		ldr	r0, [sp, #4]
 4958 1c3a 2521     		movs	r1, #37
 4959 1c3c 1A46     		mov	r2, r3
 4960 1c3e 0123     		movs	r3, #1
 4961 1c40 FFF7FEFF 		bl	LSM303AGR_ACC_WriteReg
 4962 1c44 0346     		mov	r3, r0
 4963 1c46 002B     		cmp	r3, #0
 4964 1c48 01D1     		bne	.L322
 4965              		.loc 1 1732 0
 4966 1c4a 0023     		movs	r3, #0
 4967 1c4c 00E0     		b	.L323
 4968              	.L322:
 4969              		.loc 1 1734 0
 4970 1c4e 0123     		movs	r3, #1
 4971              	.L323:
 4972              		.loc 1 1735 0
 4973 1c50 1846     		mov	r0, r3
 4974 1c52 05B0     		add	sp, sp, #20
 4975              		@ sp needed
 4976 1c54 5DF804FB 		ldr	pc, [sp], #4
 4977              		.cfi_endproc
 4978              	.LFE80:
 4979              		.size	LSM303AGR_ACC_W_P2_ACT, .-LSM303AGR_ACC_W_P2_ACT
 4980              		.align	2
 4981 1c58 AFF30080 		.p2align 4,,15
 4981      AFF30080 
 4982              		.global	LSM303AGR_ACC_R_P2_ACT
 4983              		.thumb
 4984              		.thumb_func
 4985              		.type	LSM303AGR_ACC_R_P2_ACT, %function
 4986              	LSM303AGR_ACC_R_P2_ACT:
 4987              	.LFB81:
 4988              		.loc 1 1745 0
 4989              		.cfi_startproc
 4990              		@ args = 0, pretend = 0, frame = 8
 4991              		@ frame_needed = 0, uses_anonymous_args = 0
 4992 1c60 00B5     		push	{lr}
 4993              		.cfi_def_cfa_offset 4
ARM GAS  /tmp/ccVYwGiK.s 			page 90


 4994              		.cfi_offset 14, -4
 4995 1c62 83B0     		sub	sp, sp, #12
 4996              		.cfi_def_cfa_offset 16
 4997 1c64 0190     		str	r0, [sp, #4]
 4998 1c66 0091     		str	r1, [sp]
 4999              		.loc 1 1746 0
 5000 1c68 0198     		ldr	r0, [sp, #4]
 5001 1c6a 2521     		movs	r1, #37
 5002 1c6c 009A     		ldr	r2, [sp]
 5003 1c6e 0123     		movs	r3, #1
 5004 1c70 FFF7FEFF 		bl	LSM303AGR_ACC_ReadReg
 5005 1c74 0346     		mov	r3, r0
 5006 1c76 002B     		cmp	r3, #0
 5007 1c78 01D1     		bne	.L325
 5008              		.loc 1 1747 0
 5009 1c7a 0023     		movs	r3, #0
 5010 1c7c 07E0     		b	.L326
 5011              	.L325:
 5012              		.loc 1 1749 0
 5013 1c7e 009B     		ldr	r3, [sp]
 5014 1c80 1B78     		ldrb	r3, [r3]	@ zero_extendqisi2
 5015 1c82 03F00803 		and	r3, r3, #8
 5016 1c86 DAB2     		uxtb	r2, r3
 5017 1c88 009B     		ldr	r3, [sp]
 5018 1c8a 1A70     		strb	r2, [r3]
 5019              		.loc 1 1751 0
 5020 1c8c 0123     		movs	r3, #1
 5021              	.L326:
 5022              		.loc 1 1752 0
 5023 1c8e 1846     		mov	r0, r3
 5024 1c90 03B0     		add	sp, sp, #12
 5025              		@ sp needed
 5026 1c92 5DF804FB 		ldr	pc, [sp], #4
 5027              		.cfi_endproc
 5028              	.LFE81:
 5029              		.size	LSM303AGR_ACC_R_P2_ACT, .-LSM303AGR_ACC_R_P2_ACT
 5030 1c96 00BF     		.align	2
 5031 1c98 AFF30080 		.p2align 4,,15
 5031      AFF30080 
 5032              		.global	LSM303AGR_ACC_W_Boot_on_INT2
 5033              		.thumb
 5034              		.thumb_func
 5035              		.type	LSM303AGR_ACC_W_Boot_on_INT2, %function
 5036              	LSM303AGR_ACC_W_Boot_on_INT2:
 5037              	.LFB82:
 5038              		.loc 1 1762 0
 5039              		.cfi_startproc
 5040              		@ args = 0, pretend = 0, frame = 16
 5041              		@ frame_needed = 0, uses_anonymous_args = 0
 5042 1ca0 00B5     		push	{lr}
 5043              		.cfi_def_cfa_offset 4
 5044              		.cfi_offset 14, -4
 5045 1ca2 85B0     		sub	sp, sp, #20
 5046              		.cfi_def_cfa_offset 24
 5047 1ca4 0190     		str	r0, [sp, #4]
 5048 1ca6 0B46     		mov	r3, r1
 5049 1ca8 8DF80330 		strb	r3, [sp, #3]
ARM GAS  /tmp/ccVYwGiK.s 			page 91


 5050              		.loc 1 1765 0
 5051 1cac 0DF10F03 		add	r3, sp, #15
 5052 1cb0 0198     		ldr	r0, [sp, #4]
 5053 1cb2 2521     		movs	r1, #37
 5054 1cb4 1A46     		mov	r2, r3
 5055 1cb6 0123     		movs	r3, #1
 5056 1cb8 FFF7FEFF 		bl	LSM303AGR_ACC_ReadReg
 5057 1cbc 0346     		mov	r3, r0
 5058 1cbe 002B     		cmp	r3, #0
 5059 1cc0 01D1     		bne	.L328
 5060              		.loc 1 1766 0
 5061 1cc2 0023     		movs	r3, #0
 5062 1cc4 1CE0     		b	.L331
 5063              	.L328:
 5064              		.loc 1 1768 0
 5065 1cc6 9DF80F30 		ldrb	r3, [sp, #15]	@ zero_extendqisi2
 5066 1cca 23F01003 		bic	r3, r3, #16
 5067 1cce DBB2     		uxtb	r3, r3
 5068 1cd0 8DF80F30 		strb	r3, [sp, #15]
 5069              		.loc 1 1769 0
 5070 1cd4 9DF80F20 		ldrb	r2, [sp, #15]	@ zero_extendqisi2
 5071 1cd8 9DF80330 		ldrb	r3, [sp, #3]
 5072 1cdc 1343     		orrs	r3, r3, r2
 5073 1cde DBB2     		uxtb	r3, r3
 5074 1ce0 8DF80F30 		strb	r3, [sp, #15]
 5075              		.loc 1 1771 0
 5076 1ce4 0DF10F03 		add	r3, sp, #15
 5077 1ce8 0198     		ldr	r0, [sp, #4]
 5078 1cea 2521     		movs	r1, #37
 5079 1cec 1A46     		mov	r2, r3
 5080 1cee 0123     		movs	r3, #1
 5081 1cf0 FFF7FEFF 		bl	LSM303AGR_ACC_WriteReg
 5082 1cf4 0346     		mov	r3, r0
 5083 1cf6 002B     		cmp	r3, #0
 5084 1cf8 01D1     		bne	.L330
 5085              		.loc 1 1772 0
 5086 1cfa 0023     		movs	r3, #0
 5087 1cfc 00E0     		b	.L331
 5088              	.L330:
 5089              		.loc 1 1774 0
 5090 1cfe 0123     		movs	r3, #1
 5091              	.L331:
 5092              		.loc 1 1775 0
 5093 1d00 1846     		mov	r0, r3
 5094 1d02 05B0     		add	sp, sp, #20
 5095              		@ sp needed
 5096 1d04 5DF804FB 		ldr	pc, [sp], #4
 5097              		.cfi_endproc
 5098              	.LFE82:
 5099              		.size	LSM303AGR_ACC_W_Boot_on_INT2, .-LSM303AGR_ACC_W_Boot_on_INT2
 5100              		.align	2
 5101 1d08 AFF30080 		.p2align 4,,15
 5101      AFF30080 
 5102              		.global	LSM303AGR_ACC_R_Boot_on_INT2
 5103              		.thumb
 5104              		.thumb_func
 5105              		.type	LSM303AGR_ACC_R_Boot_on_INT2, %function
ARM GAS  /tmp/ccVYwGiK.s 			page 92


 5106              	LSM303AGR_ACC_R_Boot_on_INT2:
 5107              	.LFB83:
 5108              		.loc 1 1785 0
 5109              		.cfi_startproc
 5110              		@ args = 0, pretend = 0, frame = 8
 5111              		@ frame_needed = 0, uses_anonymous_args = 0
 5112 1d10 00B5     		push	{lr}
 5113              		.cfi_def_cfa_offset 4
 5114              		.cfi_offset 14, -4
 5115 1d12 83B0     		sub	sp, sp, #12
 5116              		.cfi_def_cfa_offset 16
 5117 1d14 0190     		str	r0, [sp, #4]
 5118 1d16 0091     		str	r1, [sp]
 5119              		.loc 1 1786 0
 5120 1d18 0198     		ldr	r0, [sp, #4]
 5121 1d1a 2521     		movs	r1, #37
 5122 1d1c 009A     		ldr	r2, [sp]
 5123 1d1e 0123     		movs	r3, #1
 5124 1d20 FFF7FEFF 		bl	LSM303AGR_ACC_ReadReg
 5125 1d24 0346     		mov	r3, r0
 5126 1d26 002B     		cmp	r3, #0
 5127 1d28 01D1     		bne	.L333
 5128              		.loc 1 1787 0
 5129 1d2a 0023     		movs	r3, #0
 5130 1d2c 07E0     		b	.L334
 5131              	.L333:
 5132              		.loc 1 1789 0
 5133 1d2e 009B     		ldr	r3, [sp]
 5134 1d30 1B78     		ldrb	r3, [r3]	@ zero_extendqisi2
 5135 1d32 03F01003 		and	r3, r3, #16
 5136 1d36 DAB2     		uxtb	r2, r3
 5137 1d38 009B     		ldr	r3, [sp]
 5138 1d3a 1A70     		strb	r2, [r3]
 5139              		.loc 1 1791 0
 5140 1d3c 0123     		movs	r3, #1
 5141              	.L334:
 5142              		.loc 1 1792 0
 5143 1d3e 1846     		mov	r0, r3
 5144 1d40 03B0     		add	sp, sp, #12
 5145              		@ sp needed
 5146 1d42 5DF804FB 		ldr	pc, [sp], #4
 5147              		.cfi_endproc
 5148              	.LFE83:
 5149              		.size	LSM303AGR_ACC_R_Boot_on_INT2, .-LSM303AGR_ACC_R_Boot_on_INT2
 5150 1d46 00BF     		.align	2
 5151 1d48 AFF30080 		.p2align 4,,15
 5151      AFF30080 
 5152              		.global	LSM303AGR_ACC_W_I2_on_INT2
 5153              		.thumb
 5154              		.thumb_func
 5155              		.type	LSM303AGR_ACC_W_I2_on_INT2, %function
 5156              	LSM303AGR_ACC_W_I2_on_INT2:
 5157              	.LFB84:
 5158              		.loc 1 1802 0
 5159              		.cfi_startproc
 5160              		@ args = 0, pretend = 0, frame = 16
 5161              		@ frame_needed = 0, uses_anonymous_args = 0
ARM GAS  /tmp/ccVYwGiK.s 			page 93


 5162 1d50 00B5     		push	{lr}
 5163              		.cfi_def_cfa_offset 4
 5164              		.cfi_offset 14, -4
 5165 1d52 85B0     		sub	sp, sp, #20
 5166              		.cfi_def_cfa_offset 24
 5167 1d54 0190     		str	r0, [sp, #4]
 5168 1d56 0B46     		mov	r3, r1
 5169 1d58 8DF80330 		strb	r3, [sp, #3]
 5170              		.loc 1 1805 0
 5171 1d5c 0DF10F03 		add	r3, sp, #15
 5172 1d60 0198     		ldr	r0, [sp, #4]
 5173 1d62 2521     		movs	r1, #37
 5174 1d64 1A46     		mov	r2, r3
 5175 1d66 0123     		movs	r3, #1
 5176 1d68 FFF7FEFF 		bl	LSM303AGR_ACC_ReadReg
 5177 1d6c 0346     		mov	r3, r0
 5178 1d6e 002B     		cmp	r3, #0
 5179 1d70 01D1     		bne	.L336
 5180              		.loc 1 1806 0
 5181 1d72 0023     		movs	r3, #0
 5182 1d74 1CE0     		b	.L339
 5183              	.L336:
 5184              		.loc 1 1808 0
 5185 1d76 9DF80F30 		ldrb	r3, [sp, #15]	@ zero_extendqisi2
 5186 1d7a 23F02003 		bic	r3, r3, #32
 5187 1d7e DBB2     		uxtb	r3, r3
 5188 1d80 8DF80F30 		strb	r3, [sp, #15]
 5189              		.loc 1 1809 0
 5190 1d84 9DF80F20 		ldrb	r2, [sp, #15]	@ zero_extendqisi2
 5191 1d88 9DF80330 		ldrb	r3, [sp, #3]
 5192 1d8c 1343     		orrs	r3, r3, r2
 5193 1d8e DBB2     		uxtb	r3, r3
 5194 1d90 8DF80F30 		strb	r3, [sp, #15]
 5195              		.loc 1 1811 0
 5196 1d94 0DF10F03 		add	r3, sp, #15
 5197 1d98 0198     		ldr	r0, [sp, #4]
 5198 1d9a 2521     		movs	r1, #37
 5199 1d9c 1A46     		mov	r2, r3
 5200 1d9e 0123     		movs	r3, #1
 5201 1da0 FFF7FEFF 		bl	LSM303AGR_ACC_WriteReg
 5202 1da4 0346     		mov	r3, r0
 5203 1da6 002B     		cmp	r3, #0
 5204 1da8 01D1     		bne	.L338
 5205              		.loc 1 1812 0
 5206 1daa 0023     		movs	r3, #0
 5207 1dac 00E0     		b	.L339
 5208              	.L338:
 5209              		.loc 1 1814 0
 5210 1dae 0123     		movs	r3, #1
 5211              	.L339:
 5212              		.loc 1 1815 0
 5213 1db0 1846     		mov	r0, r3
 5214 1db2 05B0     		add	sp, sp, #20
 5215              		@ sp needed
 5216 1db4 5DF804FB 		ldr	pc, [sp], #4
 5217              		.cfi_endproc
 5218              	.LFE84:
ARM GAS  /tmp/ccVYwGiK.s 			page 94


 5219              		.size	LSM303AGR_ACC_W_I2_on_INT2, .-LSM303AGR_ACC_W_I2_on_INT2
 5220              		.align	2
 5221 1db8 AFF30080 		.p2align 4,,15
 5221      AFF30080 
 5222              		.global	LSM303AGR_ACC_R_I2_on_INT2
 5223              		.thumb
 5224              		.thumb_func
 5225              		.type	LSM303AGR_ACC_R_I2_on_INT2, %function
 5226              	LSM303AGR_ACC_R_I2_on_INT2:
 5227              	.LFB85:
 5228              		.loc 1 1825 0
 5229              		.cfi_startproc
 5230              		@ args = 0, pretend = 0, frame = 8
 5231              		@ frame_needed = 0, uses_anonymous_args = 0
 5232 1dc0 00B5     		push	{lr}
 5233              		.cfi_def_cfa_offset 4
 5234              		.cfi_offset 14, -4
 5235 1dc2 83B0     		sub	sp, sp, #12
 5236              		.cfi_def_cfa_offset 16
 5237 1dc4 0190     		str	r0, [sp, #4]
 5238 1dc6 0091     		str	r1, [sp]
 5239              		.loc 1 1826 0
 5240 1dc8 0198     		ldr	r0, [sp, #4]
 5241 1dca 2521     		movs	r1, #37
 5242 1dcc 009A     		ldr	r2, [sp]
 5243 1dce 0123     		movs	r3, #1
 5244 1dd0 FFF7FEFF 		bl	LSM303AGR_ACC_ReadReg
 5245 1dd4 0346     		mov	r3, r0
 5246 1dd6 002B     		cmp	r3, #0
 5247 1dd8 01D1     		bne	.L341
 5248              		.loc 1 1827 0
 5249 1dda 0023     		movs	r3, #0
 5250 1ddc 07E0     		b	.L342
 5251              	.L341:
 5252              		.loc 1 1829 0
 5253 1dde 009B     		ldr	r3, [sp]
 5254 1de0 1B78     		ldrb	r3, [r3]	@ zero_extendqisi2
 5255 1de2 03F02003 		and	r3, r3, #32
 5256 1de6 DAB2     		uxtb	r2, r3
 5257 1de8 009B     		ldr	r3, [sp]
 5258 1dea 1A70     		strb	r2, [r3]
 5259              		.loc 1 1831 0
 5260 1dec 0123     		movs	r3, #1
 5261              	.L342:
 5262              		.loc 1 1832 0
 5263 1dee 1846     		mov	r0, r3
 5264 1df0 03B0     		add	sp, sp, #12
 5265              		@ sp needed
 5266 1df2 5DF804FB 		ldr	pc, [sp], #4
 5267              		.cfi_endproc
 5268              	.LFE85:
 5269              		.size	LSM303AGR_ACC_R_I2_on_INT2, .-LSM303AGR_ACC_R_I2_on_INT2
 5270 1df6 00BF     		.align	2
 5271 1df8 AFF30080 		.p2align 4,,15
 5271      AFF30080 
 5272              		.global	LSM303AGR_ACC_W_I2_on_INT1
 5273              		.thumb
ARM GAS  /tmp/ccVYwGiK.s 			page 95


 5274              		.thumb_func
 5275              		.type	LSM303AGR_ACC_W_I2_on_INT1, %function
 5276              	LSM303AGR_ACC_W_I2_on_INT1:
 5277              	.LFB86:
 5278              		.loc 1 1842 0
 5279              		.cfi_startproc
 5280              		@ args = 0, pretend = 0, frame = 16
 5281              		@ frame_needed = 0, uses_anonymous_args = 0
 5282 1e00 00B5     		push	{lr}
 5283              		.cfi_def_cfa_offset 4
 5284              		.cfi_offset 14, -4
 5285 1e02 85B0     		sub	sp, sp, #20
 5286              		.cfi_def_cfa_offset 24
 5287 1e04 0190     		str	r0, [sp, #4]
 5288 1e06 0B46     		mov	r3, r1
 5289 1e08 8DF80330 		strb	r3, [sp, #3]
 5290              		.loc 1 1845 0
 5291 1e0c 0DF10F03 		add	r3, sp, #15
 5292 1e10 0198     		ldr	r0, [sp, #4]
 5293 1e12 2521     		movs	r1, #37
 5294 1e14 1A46     		mov	r2, r3
 5295 1e16 0123     		movs	r3, #1
 5296 1e18 FFF7FEFF 		bl	LSM303AGR_ACC_ReadReg
 5297 1e1c 0346     		mov	r3, r0
 5298 1e1e 002B     		cmp	r3, #0
 5299 1e20 01D1     		bne	.L344
 5300              		.loc 1 1846 0
 5301 1e22 0023     		movs	r3, #0
 5302 1e24 1CE0     		b	.L347
 5303              	.L344:
 5304              		.loc 1 1848 0
 5305 1e26 9DF80F30 		ldrb	r3, [sp, #15]	@ zero_extendqisi2
 5306 1e2a 23F04003 		bic	r3, r3, #64
 5307 1e2e DBB2     		uxtb	r3, r3
 5308 1e30 8DF80F30 		strb	r3, [sp, #15]
 5309              		.loc 1 1849 0
 5310 1e34 9DF80F20 		ldrb	r2, [sp, #15]	@ zero_extendqisi2
 5311 1e38 9DF80330 		ldrb	r3, [sp, #3]
 5312 1e3c 1343     		orrs	r3, r3, r2
 5313 1e3e DBB2     		uxtb	r3, r3
 5314 1e40 8DF80F30 		strb	r3, [sp, #15]
 5315              		.loc 1 1851 0
 5316 1e44 0DF10F03 		add	r3, sp, #15
 5317 1e48 0198     		ldr	r0, [sp, #4]
 5318 1e4a 2521     		movs	r1, #37
 5319 1e4c 1A46     		mov	r2, r3
 5320 1e4e 0123     		movs	r3, #1
 5321 1e50 FFF7FEFF 		bl	LSM303AGR_ACC_WriteReg
 5322 1e54 0346     		mov	r3, r0
 5323 1e56 002B     		cmp	r3, #0
 5324 1e58 01D1     		bne	.L346
 5325              		.loc 1 1852 0
 5326 1e5a 0023     		movs	r3, #0
 5327 1e5c 00E0     		b	.L347
 5328              	.L346:
 5329              		.loc 1 1854 0
 5330 1e5e 0123     		movs	r3, #1
ARM GAS  /tmp/ccVYwGiK.s 			page 96


 5331              	.L347:
 5332              		.loc 1 1855 0
 5333 1e60 1846     		mov	r0, r3
 5334 1e62 05B0     		add	sp, sp, #20
 5335              		@ sp needed
 5336 1e64 5DF804FB 		ldr	pc, [sp], #4
 5337              		.cfi_endproc
 5338              	.LFE86:
 5339              		.size	LSM303AGR_ACC_W_I2_on_INT1, .-LSM303AGR_ACC_W_I2_on_INT1
 5340              		.align	2
 5341 1e68 AFF30080 		.p2align 4,,15
 5341      AFF30080 
 5342              		.global	LSM303AGR_ACC_R_I2_on_INT1
 5343              		.thumb
 5344              		.thumb_func
 5345              		.type	LSM303AGR_ACC_R_I2_on_INT1, %function
 5346              	LSM303AGR_ACC_R_I2_on_INT1:
 5347              	.LFB87:
 5348              		.loc 1 1865 0
 5349              		.cfi_startproc
 5350              		@ args = 0, pretend = 0, frame = 8
 5351              		@ frame_needed = 0, uses_anonymous_args = 0
 5352 1e70 00B5     		push	{lr}
 5353              		.cfi_def_cfa_offset 4
 5354              		.cfi_offset 14, -4
 5355 1e72 83B0     		sub	sp, sp, #12
 5356              		.cfi_def_cfa_offset 16
 5357 1e74 0190     		str	r0, [sp, #4]
 5358 1e76 0091     		str	r1, [sp]
 5359              		.loc 1 1866 0
 5360 1e78 0198     		ldr	r0, [sp, #4]
 5361 1e7a 2521     		movs	r1, #37
 5362 1e7c 009A     		ldr	r2, [sp]
 5363 1e7e 0123     		movs	r3, #1
 5364 1e80 FFF7FEFF 		bl	LSM303AGR_ACC_ReadReg
 5365 1e84 0346     		mov	r3, r0
 5366 1e86 002B     		cmp	r3, #0
 5367 1e88 01D1     		bne	.L349
 5368              		.loc 1 1867 0
 5369 1e8a 0023     		movs	r3, #0
 5370 1e8c 07E0     		b	.L350
 5371              	.L349:
 5372              		.loc 1 1869 0
 5373 1e8e 009B     		ldr	r3, [sp]
 5374 1e90 1B78     		ldrb	r3, [r3]	@ zero_extendqisi2
 5375 1e92 03F04003 		and	r3, r3, #64
 5376 1e96 DAB2     		uxtb	r2, r3
 5377 1e98 009B     		ldr	r3, [sp]
 5378 1e9a 1A70     		strb	r2, [r3]
 5379              		.loc 1 1871 0
 5380 1e9c 0123     		movs	r3, #1
 5381              	.L350:
 5382              		.loc 1 1872 0
 5383 1e9e 1846     		mov	r0, r3
 5384 1ea0 03B0     		add	sp, sp, #12
 5385              		@ sp needed
 5386 1ea2 5DF804FB 		ldr	pc, [sp], #4
ARM GAS  /tmp/ccVYwGiK.s 			page 97


 5387              		.cfi_endproc
 5388              	.LFE87:
 5389              		.size	LSM303AGR_ACC_R_I2_on_INT1, .-LSM303AGR_ACC_R_I2_on_INT1
 5390 1ea6 00BF     		.align	2
 5391 1ea8 AFF30080 		.p2align 4,,15
 5391      AFF30080 
 5392              		.global	LSM303AGR_ACC_W_Click_on_INT2
 5393              		.thumb
 5394              		.thumb_func
 5395              		.type	LSM303AGR_ACC_W_Click_on_INT2, %function
 5396              	LSM303AGR_ACC_W_Click_on_INT2:
 5397              	.LFB88:
 5398              		.loc 1 1882 0
 5399              		.cfi_startproc
 5400              		@ args = 0, pretend = 0, frame = 16
 5401              		@ frame_needed = 0, uses_anonymous_args = 0
 5402 1eb0 00B5     		push	{lr}
 5403              		.cfi_def_cfa_offset 4
 5404              		.cfi_offset 14, -4
 5405 1eb2 85B0     		sub	sp, sp, #20
 5406              		.cfi_def_cfa_offset 24
 5407 1eb4 0190     		str	r0, [sp, #4]
 5408 1eb6 0B46     		mov	r3, r1
 5409 1eb8 8DF80330 		strb	r3, [sp, #3]
 5410              		.loc 1 1885 0
 5411 1ebc 0DF10F03 		add	r3, sp, #15
 5412 1ec0 0198     		ldr	r0, [sp, #4]
 5413 1ec2 2521     		movs	r1, #37
 5414 1ec4 1A46     		mov	r2, r3
 5415 1ec6 0123     		movs	r3, #1
 5416 1ec8 FFF7FEFF 		bl	LSM303AGR_ACC_ReadReg
 5417 1ecc 0346     		mov	r3, r0
 5418 1ece 002B     		cmp	r3, #0
 5419 1ed0 01D1     		bne	.L352
 5420              		.loc 1 1886 0
 5421 1ed2 0023     		movs	r3, #0
 5422 1ed4 1CE0     		b	.L355
 5423              	.L352:
 5424              		.loc 1 1888 0
 5425 1ed6 9DF80F30 		ldrb	r3, [sp, #15]	@ zero_extendqisi2
 5426 1eda 03F07F03 		and	r3, r3, #127
 5427 1ede DBB2     		uxtb	r3, r3
 5428 1ee0 8DF80F30 		strb	r3, [sp, #15]
 5429              		.loc 1 1889 0
 5430 1ee4 9DF80F20 		ldrb	r2, [sp, #15]	@ zero_extendqisi2
 5431 1ee8 9DF80330 		ldrb	r3, [sp, #3]
 5432 1eec 1343     		orrs	r3, r3, r2
 5433 1eee DBB2     		uxtb	r3, r3
 5434 1ef0 8DF80F30 		strb	r3, [sp, #15]
 5435              		.loc 1 1891 0
 5436 1ef4 0DF10F03 		add	r3, sp, #15
 5437 1ef8 0198     		ldr	r0, [sp, #4]
 5438 1efa 2521     		movs	r1, #37
 5439 1efc 1A46     		mov	r2, r3
 5440 1efe 0123     		movs	r3, #1
 5441 1f00 FFF7FEFF 		bl	LSM303AGR_ACC_WriteReg
 5442 1f04 0346     		mov	r3, r0
ARM GAS  /tmp/ccVYwGiK.s 			page 98


 5443 1f06 002B     		cmp	r3, #0
 5444 1f08 01D1     		bne	.L354
 5445              		.loc 1 1892 0
 5446 1f0a 0023     		movs	r3, #0
 5447 1f0c 00E0     		b	.L355
 5448              	.L354:
 5449              		.loc 1 1894 0
 5450 1f0e 0123     		movs	r3, #1
 5451              	.L355:
 5452              		.loc 1 1895 0
 5453 1f10 1846     		mov	r0, r3
 5454 1f12 05B0     		add	sp, sp, #20
 5455              		@ sp needed
 5456 1f14 5DF804FB 		ldr	pc, [sp], #4
 5457              		.cfi_endproc
 5458              	.LFE88:
 5459              		.size	LSM303AGR_ACC_W_Click_on_INT2, .-LSM303AGR_ACC_W_Click_on_INT2
 5460              		.align	2
 5461 1f18 AFF30080 		.p2align 4,,15
 5461      AFF30080 
 5462              		.global	LSM303AGR_ACC_R_Click_on_INT2
 5463              		.thumb
 5464              		.thumb_func
 5465              		.type	LSM303AGR_ACC_R_Click_on_INT2, %function
 5466              	LSM303AGR_ACC_R_Click_on_INT2:
 5467              	.LFB89:
 5468              		.loc 1 1905 0
 5469              		.cfi_startproc
 5470              		@ args = 0, pretend = 0, frame = 8
 5471              		@ frame_needed = 0, uses_anonymous_args = 0
 5472 1f20 00B5     		push	{lr}
 5473              		.cfi_def_cfa_offset 4
 5474              		.cfi_offset 14, -4
 5475 1f22 83B0     		sub	sp, sp, #12
 5476              		.cfi_def_cfa_offset 16
 5477 1f24 0190     		str	r0, [sp, #4]
 5478 1f26 0091     		str	r1, [sp]
 5479              		.loc 1 1906 0
 5480 1f28 0198     		ldr	r0, [sp, #4]
 5481 1f2a 2521     		movs	r1, #37
 5482 1f2c 009A     		ldr	r2, [sp]
 5483 1f2e 0123     		movs	r3, #1
 5484 1f30 FFF7FEFF 		bl	LSM303AGR_ACC_ReadReg
 5485 1f34 0346     		mov	r3, r0
 5486 1f36 002B     		cmp	r3, #0
 5487 1f38 01D1     		bne	.L357
 5488              		.loc 1 1907 0
 5489 1f3a 0023     		movs	r3, #0
 5490 1f3c 07E0     		b	.L358
 5491              	.L357:
 5492              		.loc 1 1909 0
 5493 1f3e 009B     		ldr	r3, [sp]
 5494 1f40 1B78     		ldrb	r3, [r3]	@ zero_extendqisi2
 5495 1f42 23F07F03 		bic	r3, r3, #127
 5496 1f46 DAB2     		uxtb	r2, r3
 5497 1f48 009B     		ldr	r3, [sp]
 5498 1f4a 1A70     		strb	r2, [r3]
ARM GAS  /tmp/ccVYwGiK.s 			page 99


 5499              		.loc 1 1911 0
 5500 1f4c 0123     		movs	r3, #1
 5501              	.L358:
 5502              		.loc 1 1912 0
 5503 1f4e 1846     		mov	r0, r3
 5504 1f50 03B0     		add	sp, sp, #12
 5505              		@ sp needed
 5506 1f52 5DF804FB 		ldr	pc, [sp], #4
 5507              		.cfi_endproc
 5508              	.LFE89:
 5509              		.size	LSM303AGR_ACC_R_Click_on_INT2, .-LSM303AGR_ACC_R_Click_on_INT2
 5510 1f56 00BF     		.align	2
 5511 1f58 AFF30080 		.p2align 4,,15
 5511      AFF30080 
 5512              		.global	LSM303AGR_ACC_W_ReferenceVal
 5513              		.thumb
 5514              		.thumb_func
 5515              		.type	LSM303AGR_ACC_W_ReferenceVal, %function
 5516              	LSM303AGR_ACC_W_ReferenceVal:
 5517              	.LFB90:
 5518              		.loc 1 1922 0
 5519              		.cfi_startproc
 5520              		@ args = 0, pretend = 0, frame = 16
 5521              		@ frame_needed = 0, uses_anonymous_args = 0
 5522 1f60 00B5     		push	{lr}
 5523              		.cfi_def_cfa_offset 4
 5524              		.cfi_offset 14, -4
 5525 1f62 85B0     		sub	sp, sp, #20
 5526              		.cfi_def_cfa_offset 24
 5527 1f64 0190     		str	r0, [sp, #4]
 5528 1f66 0B46     		mov	r3, r1
 5529 1f68 8DF80330 		strb	r3, [sp, #3]
 5530              		.loc 1 1928 0
 5531 1f6c 0DF10F03 		add	r3, sp, #15
 5532 1f70 0198     		ldr	r0, [sp, #4]
 5533 1f72 2621     		movs	r1, #38
 5534 1f74 1A46     		mov	r2, r3
 5535 1f76 0123     		movs	r3, #1
 5536 1f78 FFF7FEFF 		bl	LSM303AGR_ACC_ReadReg
 5537 1f7c 0346     		mov	r3, r0
 5538 1f7e 002B     		cmp	r3, #0
 5539 1f80 01D1     		bne	.L360
 5540              		.loc 1 1929 0
 5541 1f82 0023     		movs	r3, #0
 5542 1f84 18E0     		b	.L363
 5543              	.L360:
 5544              		.loc 1 1931 0
 5545 1f86 0023     		movs	r3, #0
 5546 1f88 8DF80F30 		strb	r3, [sp, #15]
 5547              		.loc 1 1932 0
 5548 1f8c 9DF80F20 		ldrb	r2, [sp, #15]	@ zero_extendqisi2
 5549 1f90 9DF80330 		ldrb	r3, [sp, #3]
 5550 1f94 1343     		orrs	r3, r3, r2
 5551 1f96 DBB2     		uxtb	r3, r3
 5552 1f98 8DF80F30 		strb	r3, [sp, #15]
 5553              		.loc 1 1934 0
 5554 1f9c 0DF10F03 		add	r3, sp, #15
ARM GAS  /tmp/ccVYwGiK.s 			page 100


 5555 1fa0 0198     		ldr	r0, [sp, #4]
 5556 1fa2 2621     		movs	r1, #38
 5557 1fa4 1A46     		mov	r2, r3
 5558 1fa6 0123     		movs	r3, #1
 5559 1fa8 FFF7FEFF 		bl	LSM303AGR_ACC_WriteReg
 5560 1fac 0346     		mov	r3, r0
 5561 1fae 002B     		cmp	r3, #0
 5562 1fb0 01D1     		bne	.L362
 5563              		.loc 1 1935 0
 5564 1fb2 0023     		movs	r3, #0
 5565 1fb4 00E0     		b	.L363
 5566              	.L362:
 5567              		.loc 1 1937 0
 5568 1fb6 0123     		movs	r3, #1
 5569              	.L363:
 5570              		.loc 1 1938 0
 5571 1fb8 1846     		mov	r0, r3
 5572 1fba 05B0     		add	sp, sp, #20
 5573              		@ sp needed
 5574 1fbc 5DF804FB 		ldr	pc, [sp], #4
 5575              		.cfi_endproc
 5576              	.LFE90:
 5577              		.size	LSM303AGR_ACC_W_ReferenceVal, .-LSM303AGR_ACC_W_ReferenceVal
 5578              		.align	2
 5579              		.p2align 4,,15
 5580              		.global	LSM303AGR_ACC_R_ReferenceVal
 5581              		.thumb
 5582              		.thumb_func
 5583              		.type	LSM303AGR_ACC_R_ReferenceVal, %function
 5584              	LSM303AGR_ACC_R_ReferenceVal:
 5585              	.LFB91:
 5586              		.loc 1 1948 0
 5587              		.cfi_startproc
 5588              		@ args = 0, pretend = 0, frame = 8
 5589              		@ frame_needed = 0, uses_anonymous_args = 0
 5590 1fc0 00B5     		push	{lr}
 5591              		.cfi_def_cfa_offset 4
 5592              		.cfi_offset 14, -4
 5593 1fc2 83B0     		sub	sp, sp, #12
 5594              		.cfi_def_cfa_offset 16
 5595 1fc4 0190     		str	r0, [sp, #4]
 5596 1fc6 0091     		str	r1, [sp]
 5597              		.loc 1 1949 0
 5598 1fc8 0198     		ldr	r0, [sp, #4]
 5599 1fca 2621     		movs	r1, #38
 5600 1fcc 009A     		ldr	r2, [sp]
 5601 1fce 0123     		movs	r3, #1
 5602 1fd0 FFF7FEFF 		bl	LSM303AGR_ACC_ReadReg
 5603 1fd4 0346     		mov	r3, r0
 5604 1fd6 002B     		cmp	r3, #0
 5605 1fd8 01D1     		bne	.L365
 5606              		.loc 1 1950 0
 5607 1fda 0023     		movs	r3, #0
 5608 1fdc 08E0     		b	.L366
 5609              	.L365:
 5610              		.loc 1 1952 0
 5611 1fde 009B     		ldr	r3, [sp]
ARM GAS  /tmp/ccVYwGiK.s 			page 101


 5612 1fe0 1A78     		ldrb	r2, [r3]	@ zero_extendqisi2
 5613 1fe2 009B     		ldr	r3, [sp]
 5614 1fe4 1A70     		strb	r2, [r3]
 5615              		.loc 1 1953 0
 5616 1fe6 009B     		ldr	r3, [sp]
 5617 1fe8 1A78     		ldrb	r2, [r3]	@ zero_extendqisi2
 5618 1fea 009B     		ldr	r3, [sp]
 5619 1fec 1A70     		strb	r2, [r3]
 5620              		.loc 1 1955 0
 5621 1fee 0123     		movs	r3, #1
 5622              	.L366:
 5623              		.loc 1 1956 0
 5624 1ff0 1846     		mov	r0, r3
 5625 1ff2 03B0     		add	sp, sp, #12
 5626              		@ sp needed
 5627 1ff4 5DF804FB 		ldr	pc, [sp], #4
 5628              		.cfi_endproc
 5629              	.LFE91:
 5630              		.size	LSM303AGR_ACC_R_ReferenceVal, .-LSM303AGR_ACC_R_ReferenceVal
 5631              		.align	2
 5632 1ff8 AFF30080 		.p2align 4,,15
 5632      AFF30080 
 5633              		.global	LSM303AGR_ACC_R_XDataAvail
 5634              		.thumb
 5635              		.thumb_func
 5636              		.type	LSM303AGR_ACC_R_XDataAvail, %function
 5637              	LSM303AGR_ACC_R_XDataAvail:
 5638              	.LFB92:
 5639              		.loc 1 1966 0
 5640              		.cfi_startproc
 5641              		@ args = 0, pretend = 0, frame = 8
 5642              		@ frame_needed = 0, uses_anonymous_args = 0
 5643 2000 00B5     		push	{lr}
 5644              		.cfi_def_cfa_offset 4
 5645              		.cfi_offset 14, -4
 5646 2002 83B0     		sub	sp, sp, #12
 5647              		.cfi_def_cfa_offset 16
 5648 2004 0190     		str	r0, [sp, #4]
 5649 2006 0091     		str	r1, [sp]
 5650              		.loc 1 1967 0
 5651 2008 0198     		ldr	r0, [sp, #4]
 5652 200a 2721     		movs	r1, #39
 5653 200c 009A     		ldr	r2, [sp]
 5654 200e 0123     		movs	r3, #1
 5655 2010 FFF7FEFF 		bl	LSM303AGR_ACC_ReadReg
 5656 2014 0346     		mov	r3, r0
 5657 2016 002B     		cmp	r3, #0
 5658 2018 01D1     		bne	.L368
 5659              		.loc 1 1968 0
 5660 201a 0023     		movs	r3, #0
 5661 201c 07E0     		b	.L369
 5662              	.L368:
 5663              		.loc 1 1970 0
 5664 201e 009B     		ldr	r3, [sp]
 5665 2020 1B78     		ldrb	r3, [r3]	@ zero_extendqisi2
 5666 2022 03F00103 		and	r3, r3, #1
 5667 2026 DAB2     		uxtb	r2, r3
ARM GAS  /tmp/ccVYwGiK.s 			page 102


 5668 2028 009B     		ldr	r3, [sp]
 5669 202a 1A70     		strb	r2, [r3]
 5670              		.loc 1 1972 0
 5671 202c 0123     		movs	r3, #1
 5672              	.L369:
 5673              		.loc 1 1973 0
 5674 202e 1846     		mov	r0, r3
 5675 2030 03B0     		add	sp, sp, #12
 5676              		@ sp needed
 5677 2032 5DF804FB 		ldr	pc, [sp], #4
 5678              		.cfi_endproc
 5679              	.LFE92:
 5680              		.size	LSM303AGR_ACC_R_XDataAvail, .-LSM303AGR_ACC_R_XDataAvail
 5681 2036 00BF     		.align	2
 5682 2038 AFF30080 		.p2align 4,,15
 5682      AFF30080 
 5683              		.global	LSM303AGR_ACC_R_YDataAvail
 5684              		.thumb
 5685              		.thumb_func
 5686              		.type	LSM303AGR_ACC_R_YDataAvail, %function
 5687              	LSM303AGR_ACC_R_YDataAvail:
 5688              	.LFB93:
 5689              		.loc 1 1983 0
 5690              		.cfi_startproc
 5691              		@ args = 0, pretend = 0, frame = 8
 5692              		@ frame_needed = 0, uses_anonymous_args = 0
 5693 2040 00B5     		push	{lr}
 5694              		.cfi_def_cfa_offset 4
 5695              		.cfi_offset 14, -4
 5696 2042 83B0     		sub	sp, sp, #12
 5697              		.cfi_def_cfa_offset 16
 5698 2044 0190     		str	r0, [sp, #4]
 5699 2046 0091     		str	r1, [sp]
 5700              		.loc 1 1984 0
 5701 2048 0198     		ldr	r0, [sp, #4]
 5702 204a 2721     		movs	r1, #39
 5703 204c 009A     		ldr	r2, [sp]
 5704 204e 0123     		movs	r3, #1
 5705 2050 FFF7FEFF 		bl	LSM303AGR_ACC_ReadReg
 5706 2054 0346     		mov	r3, r0
 5707 2056 002B     		cmp	r3, #0
 5708 2058 01D1     		bne	.L371
 5709              		.loc 1 1985 0
 5710 205a 0023     		movs	r3, #0
 5711 205c 07E0     		b	.L372
 5712              	.L371:
 5713              		.loc 1 1987 0
 5714 205e 009B     		ldr	r3, [sp]
 5715 2060 1B78     		ldrb	r3, [r3]	@ zero_extendqisi2
 5716 2062 03F00203 		and	r3, r3, #2
 5717 2066 DAB2     		uxtb	r2, r3
 5718 2068 009B     		ldr	r3, [sp]
 5719 206a 1A70     		strb	r2, [r3]
 5720              		.loc 1 1989 0
 5721 206c 0123     		movs	r3, #1
 5722              	.L372:
 5723              		.loc 1 1990 0
ARM GAS  /tmp/ccVYwGiK.s 			page 103


 5724 206e 1846     		mov	r0, r3
 5725 2070 03B0     		add	sp, sp, #12
 5726              		@ sp needed
 5727 2072 5DF804FB 		ldr	pc, [sp], #4
 5728              		.cfi_endproc
 5729              	.LFE93:
 5730              		.size	LSM303AGR_ACC_R_YDataAvail, .-LSM303AGR_ACC_R_YDataAvail
 5731 2076 00BF     		.align	2
 5732 2078 AFF30080 		.p2align 4,,15
 5732      AFF30080 
 5733              		.global	LSM303AGR_ACC_R_ZDataAvail
 5734              		.thumb
 5735              		.thumb_func
 5736              		.type	LSM303AGR_ACC_R_ZDataAvail, %function
 5737              	LSM303AGR_ACC_R_ZDataAvail:
 5738              	.LFB94:
 5739              		.loc 1 2000 0
 5740              		.cfi_startproc
 5741              		@ args = 0, pretend = 0, frame = 8
 5742              		@ frame_needed = 0, uses_anonymous_args = 0
 5743 2080 00B5     		push	{lr}
 5744              		.cfi_def_cfa_offset 4
 5745              		.cfi_offset 14, -4
 5746 2082 83B0     		sub	sp, sp, #12
 5747              		.cfi_def_cfa_offset 16
 5748 2084 0190     		str	r0, [sp, #4]
 5749 2086 0091     		str	r1, [sp]
 5750              		.loc 1 2001 0
 5751 2088 0198     		ldr	r0, [sp, #4]
 5752 208a 2721     		movs	r1, #39
 5753 208c 009A     		ldr	r2, [sp]
 5754 208e 0123     		movs	r3, #1
 5755 2090 FFF7FEFF 		bl	LSM303AGR_ACC_ReadReg
 5756 2094 0346     		mov	r3, r0
 5757 2096 002B     		cmp	r3, #0
 5758 2098 01D1     		bne	.L374
 5759              		.loc 1 2002 0
 5760 209a 0023     		movs	r3, #0
 5761 209c 07E0     		b	.L375
 5762              	.L374:
 5763              		.loc 1 2004 0
 5764 209e 009B     		ldr	r3, [sp]
 5765 20a0 1B78     		ldrb	r3, [r3]	@ zero_extendqisi2
 5766 20a2 03F00403 		and	r3, r3, #4
 5767 20a6 DAB2     		uxtb	r2, r3
 5768 20a8 009B     		ldr	r3, [sp]
 5769 20aa 1A70     		strb	r2, [r3]
 5770              		.loc 1 2006 0
 5771 20ac 0123     		movs	r3, #1
 5772              	.L375:
 5773              		.loc 1 2007 0
 5774 20ae 1846     		mov	r0, r3
 5775 20b0 03B0     		add	sp, sp, #12
 5776              		@ sp needed
 5777 20b2 5DF804FB 		ldr	pc, [sp], #4
 5778              		.cfi_endproc
 5779              	.LFE94:
ARM GAS  /tmp/ccVYwGiK.s 			page 104


 5780              		.size	LSM303AGR_ACC_R_ZDataAvail, .-LSM303AGR_ACC_R_ZDataAvail
 5781 20b6 00BF     		.align	2
 5782 20b8 AFF30080 		.p2align 4,,15
 5782      AFF30080 
 5783              		.global	LSM303AGR_ACC_R_XYZDataAvail
 5784              		.thumb
 5785              		.thumb_func
 5786              		.type	LSM303AGR_ACC_R_XYZDataAvail, %function
 5787              	LSM303AGR_ACC_R_XYZDataAvail:
 5788              	.LFB95:
 5789              		.loc 1 2017 0
 5790              		.cfi_startproc
 5791              		@ args = 0, pretend = 0, frame = 8
 5792              		@ frame_needed = 0, uses_anonymous_args = 0
 5793 20c0 00B5     		push	{lr}
 5794              		.cfi_def_cfa_offset 4
 5795              		.cfi_offset 14, -4
 5796 20c2 83B0     		sub	sp, sp, #12
 5797              		.cfi_def_cfa_offset 16
 5798 20c4 0190     		str	r0, [sp, #4]
 5799 20c6 0091     		str	r1, [sp]
 5800              		.loc 1 2018 0
 5801 20c8 0198     		ldr	r0, [sp, #4]
 5802 20ca 2721     		movs	r1, #39
 5803 20cc 009A     		ldr	r2, [sp]
 5804 20ce 0123     		movs	r3, #1
 5805 20d0 FFF7FEFF 		bl	LSM303AGR_ACC_ReadReg
 5806 20d4 0346     		mov	r3, r0
 5807 20d6 002B     		cmp	r3, #0
 5808 20d8 01D1     		bne	.L377
 5809              		.loc 1 2019 0
 5810 20da 0023     		movs	r3, #0
 5811 20dc 07E0     		b	.L378
 5812              	.L377:
 5813              		.loc 1 2021 0
 5814 20de 009B     		ldr	r3, [sp]
 5815 20e0 1B78     		ldrb	r3, [r3]	@ zero_extendqisi2
 5816 20e2 03F00803 		and	r3, r3, #8
 5817 20e6 DAB2     		uxtb	r2, r3
 5818 20e8 009B     		ldr	r3, [sp]
 5819 20ea 1A70     		strb	r2, [r3]
 5820              		.loc 1 2023 0
 5821 20ec 0123     		movs	r3, #1
 5822              	.L378:
 5823              		.loc 1 2024 0
 5824 20ee 1846     		mov	r0, r3
 5825 20f0 03B0     		add	sp, sp, #12
 5826              		@ sp needed
 5827 20f2 5DF804FB 		ldr	pc, [sp], #4
 5828              		.cfi_endproc
 5829              	.LFE95:
 5830              		.size	LSM303AGR_ACC_R_XYZDataAvail, .-LSM303AGR_ACC_R_XYZDataAvail
 5831 20f6 00BF     		.align	2
 5832 20f8 AFF30080 		.p2align 4,,15
 5832      AFF30080 
 5833              		.global	LSM303AGR_ACC_R_XDataOverrun
 5834              		.thumb
ARM GAS  /tmp/ccVYwGiK.s 			page 105


 5835              		.thumb_func
 5836              		.type	LSM303AGR_ACC_R_XDataOverrun, %function
 5837              	LSM303AGR_ACC_R_XDataOverrun:
 5838              	.LFB96:
 5839              		.loc 1 2034 0
 5840              		.cfi_startproc
 5841              		@ args = 0, pretend = 0, frame = 8
 5842              		@ frame_needed = 0, uses_anonymous_args = 0
 5843 2100 00B5     		push	{lr}
 5844              		.cfi_def_cfa_offset 4
 5845              		.cfi_offset 14, -4
 5846 2102 83B0     		sub	sp, sp, #12
 5847              		.cfi_def_cfa_offset 16
 5848 2104 0190     		str	r0, [sp, #4]
 5849 2106 0091     		str	r1, [sp]
 5850              		.loc 1 2035 0
 5851 2108 0198     		ldr	r0, [sp, #4]
 5852 210a 2721     		movs	r1, #39
 5853 210c 009A     		ldr	r2, [sp]
 5854 210e 0123     		movs	r3, #1
 5855 2110 FFF7FEFF 		bl	LSM303AGR_ACC_ReadReg
 5856 2114 0346     		mov	r3, r0
 5857 2116 002B     		cmp	r3, #0
 5858 2118 01D1     		bne	.L380
 5859              		.loc 1 2036 0
 5860 211a 0023     		movs	r3, #0
 5861 211c 07E0     		b	.L381
 5862              	.L380:
 5863              		.loc 1 2038 0
 5864 211e 009B     		ldr	r3, [sp]
 5865 2120 1B78     		ldrb	r3, [r3]	@ zero_extendqisi2
 5866 2122 03F01003 		and	r3, r3, #16
 5867 2126 DAB2     		uxtb	r2, r3
 5868 2128 009B     		ldr	r3, [sp]
 5869 212a 1A70     		strb	r2, [r3]
 5870              		.loc 1 2040 0
 5871 212c 0123     		movs	r3, #1
 5872              	.L381:
 5873              		.loc 1 2041 0
 5874 212e 1846     		mov	r0, r3
 5875 2130 03B0     		add	sp, sp, #12
 5876              		@ sp needed
 5877 2132 5DF804FB 		ldr	pc, [sp], #4
 5878              		.cfi_endproc
 5879              	.LFE96:
 5880              		.size	LSM303AGR_ACC_R_XDataOverrun, .-LSM303AGR_ACC_R_XDataOverrun
 5881 2136 00BF     		.align	2
 5882 2138 AFF30080 		.p2align 4,,15
 5882      AFF30080 
 5883              		.global	LSM303AGR_ACC_R_YDataOverrun
 5884              		.thumb
 5885              		.thumb_func
 5886              		.type	LSM303AGR_ACC_R_YDataOverrun, %function
 5887              	LSM303AGR_ACC_R_YDataOverrun:
 5888              	.LFB97:
 5889              		.loc 1 2051 0
 5890              		.cfi_startproc
ARM GAS  /tmp/ccVYwGiK.s 			page 106


 5891              		@ args = 0, pretend = 0, frame = 8
 5892              		@ frame_needed = 0, uses_anonymous_args = 0
 5893 2140 00B5     		push	{lr}
 5894              		.cfi_def_cfa_offset 4
 5895              		.cfi_offset 14, -4
 5896 2142 83B0     		sub	sp, sp, #12
 5897              		.cfi_def_cfa_offset 16
 5898 2144 0190     		str	r0, [sp, #4]
 5899 2146 0091     		str	r1, [sp]
 5900              		.loc 1 2052 0
 5901 2148 0198     		ldr	r0, [sp, #4]
 5902 214a 2721     		movs	r1, #39
 5903 214c 009A     		ldr	r2, [sp]
 5904 214e 0123     		movs	r3, #1
 5905 2150 FFF7FEFF 		bl	LSM303AGR_ACC_ReadReg
 5906 2154 0346     		mov	r3, r0
 5907 2156 002B     		cmp	r3, #0
 5908 2158 01D1     		bne	.L383
 5909              		.loc 1 2053 0
 5910 215a 0023     		movs	r3, #0
 5911 215c 07E0     		b	.L384
 5912              	.L383:
 5913              		.loc 1 2055 0
 5914 215e 009B     		ldr	r3, [sp]
 5915 2160 1B78     		ldrb	r3, [r3]	@ zero_extendqisi2
 5916 2162 03F02003 		and	r3, r3, #32
 5917 2166 DAB2     		uxtb	r2, r3
 5918 2168 009B     		ldr	r3, [sp]
 5919 216a 1A70     		strb	r2, [r3]
 5920              		.loc 1 2057 0
 5921 216c 0123     		movs	r3, #1
 5922              	.L384:
 5923              		.loc 1 2058 0
 5924 216e 1846     		mov	r0, r3
 5925 2170 03B0     		add	sp, sp, #12
 5926              		@ sp needed
 5927 2172 5DF804FB 		ldr	pc, [sp], #4
 5928              		.cfi_endproc
 5929              	.LFE97:
 5930              		.size	LSM303AGR_ACC_R_YDataOverrun, .-LSM303AGR_ACC_R_YDataOverrun
 5931 2176 00BF     		.align	2
 5932 2178 AFF30080 		.p2align 4,,15
 5932      AFF30080 
 5933              		.global	LSM303AGR_ACC_R_ZDataOverrun
 5934              		.thumb
 5935              		.thumb_func
 5936              		.type	LSM303AGR_ACC_R_ZDataOverrun, %function
 5937              	LSM303AGR_ACC_R_ZDataOverrun:
 5938              	.LFB98:
 5939              		.loc 1 2068 0
 5940              		.cfi_startproc
 5941              		@ args = 0, pretend = 0, frame = 8
 5942              		@ frame_needed = 0, uses_anonymous_args = 0
 5943 2180 00B5     		push	{lr}
 5944              		.cfi_def_cfa_offset 4
 5945              		.cfi_offset 14, -4
 5946 2182 83B0     		sub	sp, sp, #12
ARM GAS  /tmp/ccVYwGiK.s 			page 107


 5947              		.cfi_def_cfa_offset 16
 5948 2184 0190     		str	r0, [sp, #4]
 5949 2186 0091     		str	r1, [sp]
 5950              		.loc 1 2069 0
 5951 2188 0198     		ldr	r0, [sp, #4]
 5952 218a 2721     		movs	r1, #39
 5953 218c 009A     		ldr	r2, [sp]
 5954 218e 0123     		movs	r3, #1
 5955 2190 FFF7FEFF 		bl	LSM303AGR_ACC_ReadReg
 5956 2194 0346     		mov	r3, r0
 5957 2196 002B     		cmp	r3, #0
 5958 2198 01D1     		bne	.L386
 5959              		.loc 1 2070 0
 5960 219a 0023     		movs	r3, #0
 5961 219c 07E0     		b	.L387
 5962              	.L386:
 5963              		.loc 1 2072 0
 5964 219e 009B     		ldr	r3, [sp]
 5965 21a0 1B78     		ldrb	r3, [r3]	@ zero_extendqisi2
 5966 21a2 03F04003 		and	r3, r3, #64
 5967 21a6 DAB2     		uxtb	r2, r3
 5968 21a8 009B     		ldr	r3, [sp]
 5969 21aa 1A70     		strb	r2, [r3]
 5970              		.loc 1 2074 0
 5971 21ac 0123     		movs	r3, #1
 5972              	.L387:
 5973              		.loc 1 2075 0
 5974 21ae 1846     		mov	r0, r3
 5975 21b0 03B0     		add	sp, sp, #12
 5976              		@ sp needed
 5977 21b2 5DF804FB 		ldr	pc, [sp], #4
 5978              		.cfi_endproc
 5979              	.LFE98:
 5980              		.size	LSM303AGR_ACC_R_ZDataOverrun, .-LSM303AGR_ACC_R_ZDataOverrun
 5981 21b6 00BF     		.align	2
 5982 21b8 AFF30080 		.p2align 4,,15
 5982      AFF30080 
 5983              		.global	LSM303AGR_ACC_R_XYZDataOverrun
 5984              		.thumb
 5985              		.thumb_func
 5986              		.type	LSM303AGR_ACC_R_XYZDataOverrun, %function
 5987              	LSM303AGR_ACC_R_XYZDataOverrun:
 5988              	.LFB99:
 5989              		.loc 1 2085 0
 5990              		.cfi_startproc
 5991              		@ args = 0, pretend = 0, frame = 8
 5992              		@ frame_needed = 0, uses_anonymous_args = 0
 5993 21c0 00B5     		push	{lr}
 5994              		.cfi_def_cfa_offset 4
 5995              		.cfi_offset 14, -4
 5996 21c2 83B0     		sub	sp, sp, #12
 5997              		.cfi_def_cfa_offset 16
 5998 21c4 0190     		str	r0, [sp, #4]
 5999 21c6 0091     		str	r1, [sp]
 6000              		.loc 1 2086 0
 6001 21c8 0198     		ldr	r0, [sp, #4]
 6002 21ca 2721     		movs	r1, #39
ARM GAS  /tmp/ccVYwGiK.s 			page 108


 6003 21cc 009A     		ldr	r2, [sp]
 6004 21ce 0123     		movs	r3, #1
 6005 21d0 FFF7FEFF 		bl	LSM303AGR_ACC_ReadReg
 6006 21d4 0346     		mov	r3, r0
 6007 21d6 002B     		cmp	r3, #0
 6008 21d8 01D1     		bne	.L389
 6009              		.loc 1 2087 0
 6010 21da 0023     		movs	r3, #0
 6011 21dc 07E0     		b	.L390
 6012              	.L389:
 6013              		.loc 1 2089 0
 6014 21de 009B     		ldr	r3, [sp]
 6015 21e0 1B78     		ldrb	r3, [r3]	@ zero_extendqisi2
 6016 21e2 23F07F03 		bic	r3, r3, #127
 6017 21e6 DAB2     		uxtb	r2, r3
 6018 21e8 009B     		ldr	r3, [sp]
 6019 21ea 1A70     		strb	r2, [r3]
 6020              		.loc 1 2091 0
 6021 21ec 0123     		movs	r3, #1
 6022              	.L390:
 6023              		.loc 1 2092 0
 6024 21ee 1846     		mov	r0, r3
 6025 21f0 03B0     		add	sp, sp, #12
 6026              		@ sp needed
 6027 21f2 5DF804FB 		ldr	pc, [sp], #4
 6028              		.cfi_endproc
 6029              	.LFE99:
 6030              		.size	LSM303AGR_ACC_R_XYZDataOverrun, .-LSM303AGR_ACC_R_XYZDataOverrun
 6031 21f6 00BF     		.align	2
 6032 21f8 AFF30080 		.p2align 4,,15
 6032      AFF30080 
 6033              		.global	LSM303AGR_ACC_W_FifoThreshold
 6034              		.thumb
 6035              		.thumb_func
 6036              		.type	LSM303AGR_ACC_W_FifoThreshold, %function
 6037              	LSM303AGR_ACC_W_FifoThreshold:
 6038              	.LFB100:
 6039              		.loc 1 2102 0
 6040              		.cfi_startproc
 6041              		@ args = 0, pretend = 0, frame = 16
 6042              		@ frame_needed = 0, uses_anonymous_args = 0
 6043 2200 00B5     		push	{lr}
 6044              		.cfi_def_cfa_offset 4
 6045              		.cfi_offset 14, -4
 6046 2202 85B0     		sub	sp, sp, #20
 6047              		.cfi_def_cfa_offset 24
 6048 2204 0190     		str	r0, [sp, #4]
 6049 2206 0B46     		mov	r3, r1
 6050 2208 8DF80330 		strb	r3, [sp, #3]
 6051              		.loc 1 2106 0
 6052 220c 9DF80330 		ldrb	r3, [sp, #3]
 6053 2210 03F01F03 		and	r3, r3, #31
 6054 2214 8DF80330 		strb	r3, [sp, #3]
 6055              		.loc 1 2108 0
 6056 2218 0DF10F03 		add	r3, sp, #15
 6057 221c 0198     		ldr	r0, [sp, #4]
 6058 221e 2E21     		movs	r1, #46
ARM GAS  /tmp/ccVYwGiK.s 			page 109


 6059 2220 1A46     		mov	r2, r3
 6060 2222 0123     		movs	r3, #1
 6061 2224 FFF7FEFF 		bl	LSM303AGR_ACC_ReadReg
 6062 2228 0346     		mov	r3, r0
 6063 222a 002B     		cmp	r3, #0
 6064 222c 01D1     		bne	.L392
 6065              		.loc 1 2109 0
 6066 222e 0023     		movs	r3, #0
 6067 2230 1CE0     		b	.L395
 6068              	.L392:
 6069              		.loc 1 2111 0
 6070 2232 9DF80F30 		ldrb	r3, [sp, #15]	@ zero_extendqisi2
 6071 2236 23F01F03 		bic	r3, r3, #31
 6072 223a DBB2     		uxtb	r3, r3
 6073 223c 8DF80F30 		strb	r3, [sp, #15]
 6074              		.loc 1 2112 0
 6075 2240 9DF80F20 		ldrb	r2, [sp, #15]	@ zero_extendqisi2
 6076 2244 9DF80330 		ldrb	r3, [sp, #3]
 6077 2248 1343     		orrs	r3, r3, r2
 6078 224a DBB2     		uxtb	r3, r3
 6079 224c 8DF80F30 		strb	r3, [sp, #15]
 6080              		.loc 1 2114 0
 6081 2250 0DF10F03 		add	r3, sp, #15
 6082 2254 0198     		ldr	r0, [sp, #4]
 6083 2256 2E21     		movs	r1, #46
 6084 2258 1A46     		mov	r2, r3
 6085 225a 0123     		movs	r3, #1
 6086 225c FFF7FEFF 		bl	LSM303AGR_ACC_WriteReg
 6087 2260 0346     		mov	r3, r0
 6088 2262 002B     		cmp	r3, #0
 6089 2264 01D1     		bne	.L394
 6090              		.loc 1 2115 0
 6091 2266 0023     		movs	r3, #0
 6092 2268 00E0     		b	.L395
 6093              	.L394:
 6094              		.loc 1 2117 0
 6095 226a 0123     		movs	r3, #1
 6096              	.L395:
 6097              		.loc 1 2118 0
 6098 226c 1846     		mov	r0, r3
 6099 226e 05B0     		add	sp, sp, #20
 6100              		@ sp needed
 6101 2270 5DF804FB 		ldr	pc, [sp], #4
 6102              		.cfi_endproc
 6103              	.LFE100:
 6104              		.size	LSM303AGR_ACC_W_FifoThreshold, .-LSM303AGR_ACC_W_FifoThreshold
 6105              		.align	2
 6106 2274 AFF30080 		.p2align 4,,15
 6106      AFF30080 
 6106      AFF30080 
 6107              		.global	LSM303AGR_ACC_R_FifoThreshold
 6108              		.thumb
 6109              		.thumb_func
 6110              		.type	LSM303AGR_ACC_R_FifoThreshold, %function
 6111              	LSM303AGR_ACC_R_FifoThreshold:
 6112              	.LFB101:
 6113              		.loc 1 2128 0
ARM GAS  /tmp/ccVYwGiK.s 			page 110


 6114              		.cfi_startproc
 6115              		@ args = 0, pretend = 0, frame = 8
 6116              		@ frame_needed = 0, uses_anonymous_args = 0
 6117 2280 00B5     		push	{lr}
 6118              		.cfi_def_cfa_offset 4
 6119              		.cfi_offset 14, -4
 6120 2282 83B0     		sub	sp, sp, #12
 6121              		.cfi_def_cfa_offset 16
 6122 2284 0190     		str	r0, [sp, #4]
 6123 2286 0091     		str	r1, [sp]
 6124              		.loc 1 2129 0
 6125 2288 0198     		ldr	r0, [sp, #4]
 6126 228a 2E21     		movs	r1, #46
 6127 228c 009A     		ldr	r2, [sp]
 6128 228e 0123     		movs	r3, #1
 6129 2290 FFF7FEFF 		bl	LSM303AGR_ACC_ReadReg
 6130 2294 0346     		mov	r3, r0
 6131 2296 002B     		cmp	r3, #0
 6132 2298 01D1     		bne	.L397
 6133              		.loc 1 2130 0
 6134 229a 0023     		movs	r3, #0
 6135 229c 0BE0     		b	.L398
 6136              	.L397:
 6137              		.loc 1 2132 0
 6138 229e 009B     		ldr	r3, [sp]
 6139 22a0 1B78     		ldrb	r3, [r3]	@ zero_extendqisi2
 6140 22a2 03F01F03 		and	r3, r3, #31
 6141 22a6 DAB2     		uxtb	r2, r3
 6142 22a8 009B     		ldr	r3, [sp]
 6143 22aa 1A70     		strb	r2, [r3]
 6144              		.loc 1 2133 0
 6145 22ac 009B     		ldr	r3, [sp]
 6146 22ae 1A78     		ldrb	r2, [r3]	@ zero_extendqisi2
 6147 22b0 009B     		ldr	r3, [sp]
 6148 22b2 1A70     		strb	r2, [r3]
 6149              		.loc 1 2135 0
 6150 22b4 0123     		movs	r3, #1
 6151              	.L398:
 6152              		.loc 1 2136 0
 6153 22b6 1846     		mov	r0, r3
 6154 22b8 03B0     		add	sp, sp, #12
 6155              		@ sp needed
 6156 22ba 5DF804FB 		ldr	pc, [sp], #4
 6157              		.cfi_endproc
 6158              	.LFE101:
 6159              		.size	LSM303AGR_ACC_R_FifoThreshold, .-LSM303AGR_ACC_R_FifoThreshold
 6160 22be 00BF     		.align	2
 6161              		.p2align 4,,15
 6162              		.global	LSM303AGR_ACC_W_TriggerSel
 6163              		.thumb
 6164              		.thumb_func
 6165              		.type	LSM303AGR_ACC_W_TriggerSel, %function
 6166              	LSM303AGR_ACC_W_TriggerSel:
 6167              	.LFB102:
 6168              		.loc 1 2146 0
 6169              		.cfi_startproc
 6170              		@ args = 0, pretend = 0, frame = 16
ARM GAS  /tmp/ccVYwGiK.s 			page 111


 6171              		@ frame_needed = 0, uses_anonymous_args = 0
 6172 22c0 00B5     		push	{lr}
 6173              		.cfi_def_cfa_offset 4
 6174              		.cfi_offset 14, -4
 6175 22c2 85B0     		sub	sp, sp, #20
 6176              		.cfi_def_cfa_offset 24
 6177 22c4 0190     		str	r0, [sp, #4]
 6178 22c6 0B46     		mov	r3, r1
 6179 22c8 8DF80330 		strb	r3, [sp, #3]
 6180              		.loc 1 2149 0
 6181 22cc 0DF10F03 		add	r3, sp, #15
 6182 22d0 0198     		ldr	r0, [sp, #4]
 6183 22d2 2E21     		movs	r1, #46
 6184 22d4 1A46     		mov	r2, r3
 6185 22d6 0123     		movs	r3, #1
 6186 22d8 FFF7FEFF 		bl	LSM303AGR_ACC_ReadReg
 6187 22dc 0346     		mov	r3, r0
 6188 22de 002B     		cmp	r3, #0
 6189 22e0 01D1     		bne	.L400
 6190              		.loc 1 2150 0
 6191 22e2 0023     		movs	r3, #0
 6192 22e4 1CE0     		b	.L403
 6193              	.L400:
 6194              		.loc 1 2152 0
 6195 22e6 9DF80F30 		ldrb	r3, [sp, #15]	@ zero_extendqisi2
 6196 22ea 23F02003 		bic	r3, r3, #32
 6197 22ee DBB2     		uxtb	r3, r3
 6198 22f0 8DF80F30 		strb	r3, [sp, #15]
 6199              		.loc 1 2153 0
 6200 22f4 9DF80F20 		ldrb	r2, [sp, #15]	@ zero_extendqisi2
 6201 22f8 9DF80330 		ldrb	r3, [sp, #3]
 6202 22fc 1343     		orrs	r3, r3, r2
 6203 22fe DBB2     		uxtb	r3, r3
 6204 2300 8DF80F30 		strb	r3, [sp, #15]
 6205              		.loc 1 2155 0
 6206 2304 0DF10F03 		add	r3, sp, #15
 6207 2308 0198     		ldr	r0, [sp, #4]
 6208 230a 2E21     		movs	r1, #46
 6209 230c 1A46     		mov	r2, r3
 6210 230e 0123     		movs	r3, #1
 6211 2310 FFF7FEFF 		bl	LSM303AGR_ACC_WriteReg
 6212 2314 0346     		mov	r3, r0
 6213 2316 002B     		cmp	r3, #0
 6214 2318 01D1     		bne	.L402
 6215              		.loc 1 2156 0
 6216 231a 0023     		movs	r3, #0
 6217 231c 00E0     		b	.L403
 6218              	.L402:
 6219              		.loc 1 2158 0
 6220 231e 0123     		movs	r3, #1
 6221              	.L403:
 6222              		.loc 1 2159 0
 6223 2320 1846     		mov	r0, r3
 6224 2322 05B0     		add	sp, sp, #20
 6225              		@ sp needed
 6226 2324 5DF804FB 		ldr	pc, [sp], #4
 6227              		.cfi_endproc
ARM GAS  /tmp/ccVYwGiK.s 			page 112


 6228              	.LFE102:
 6229              		.size	LSM303AGR_ACC_W_TriggerSel, .-LSM303AGR_ACC_W_TriggerSel
 6230              		.align	2
 6231 2328 AFF30080 		.p2align 4,,15
 6231      AFF30080 
 6232              		.global	LSM303AGR_ACC_R_TriggerSel
 6233              		.thumb
 6234              		.thumb_func
 6235              		.type	LSM303AGR_ACC_R_TriggerSel, %function
 6236              	LSM303AGR_ACC_R_TriggerSel:
 6237              	.LFB103:
 6238              		.loc 1 2169 0
 6239              		.cfi_startproc
 6240              		@ args = 0, pretend = 0, frame = 8
 6241              		@ frame_needed = 0, uses_anonymous_args = 0
 6242 2330 00B5     		push	{lr}
 6243              		.cfi_def_cfa_offset 4
 6244              		.cfi_offset 14, -4
 6245 2332 83B0     		sub	sp, sp, #12
 6246              		.cfi_def_cfa_offset 16
 6247 2334 0190     		str	r0, [sp, #4]
 6248 2336 0091     		str	r1, [sp]
 6249              		.loc 1 2170 0
 6250 2338 0198     		ldr	r0, [sp, #4]
 6251 233a 2E21     		movs	r1, #46
 6252 233c 009A     		ldr	r2, [sp]
 6253 233e 0123     		movs	r3, #1
 6254 2340 FFF7FEFF 		bl	LSM303AGR_ACC_ReadReg
 6255 2344 0346     		mov	r3, r0
 6256 2346 002B     		cmp	r3, #0
 6257 2348 01D1     		bne	.L405
 6258              		.loc 1 2171 0
 6259 234a 0023     		movs	r3, #0
 6260 234c 07E0     		b	.L406
 6261              	.L405:
 6262              		.loc 1 2173 0
 6263 234e 009B     		ldr	r3, [sp]
 6264 2350 1B78     		ldrb	r3, [r3]	@ zero_extendqisi2
 6265 2352 03F02003 		and	r3, r3, #32
 6266 2356 DAB2     		uxtb	r2, r3
 6267 2358 009B     		ldr	r3, [sp]
 6268 235a 1A70     		strb	r2, [r3]
 6269              		.loc 1 2175 0
 6270 235c 0123     		movs	r3, #1
 6271              	.L406:
 6272              		.loc 1 2176 0
 6273 235e 1846     		mov	r0, r3
 6274 2360 03B0     		add	sp, sp, #12
 6275              		@ sp needed
 6276 2362 5DF804FB 		ldr	pc, [sp], #4
 6277              		.cfi_endproc
 6278              	.LFE103:
 6279              		.size	LSM303AGR_ACC_R_TriggerSel, .-LSM303AGR_ACC_R_TriggerSel
 6280 2366 00BF     		.align	2
 6281 2368 AFF30080 		.p2align 4,,15
 6281      AFF30080 
 6282              		.global	LSM303AGR_ACC_W_FifoMode
ARM GAS  /tmp/ccVYwGiK.s 			page 113


 6283              		.thumb
 6284              		.thumb_func
 6285              		.type	LSM303AGR_ACC_W_FifoMode, %function
 6286              	LSM303AGR_ACC_W_FifoMode:
 6287              	.LFB104:
 6288              		.loc 1 2186 0
 6289              		.cfi_startproc
 6290              		@ args = 0, pretend = 0, frame = 16
 6291              		@ frame_needed = 0, uses_anonymous_args = 0
 6292 2370 00B5     		push	{lr}
 6293              		.cfi_def_cfa_offset 4
 6294              		.cfi_offset 14, -4
 6295 2372 85B0     		sub	sp, sp, #20
 6296              		.cfi_def_cfa_offset 24
 6297 2374 0190     		str	r0, [sp, #4]
 6298 2376 0B46     		mov	r3, r1
 6299 2378 8DF80330 		strb	r3, [sp, #3]
 6300              		.loc 1 2189 0
 6301 237c 0DF10F03 		add	r3, sp, #15
 6302 2380 0198     		ldr	r0, [sp, #4]
 6303 2382 2E21     		movs	r1, #46
 6304 2384 1A46     		mov	r2, r3
 6305 2386 0123     		movs	r3, #1
 6306 2388 FFF7FEFF 		bl	LSM303AGR_ACC_ReadReg
 6307 238c 0346     		mov	r3, r0
 6308 238e 002B     		cmp	r3, #0
 6309 2390 01D1     		bne	.L408
 6310              		.loc 1 2190 0
 6311 2392 0023     		movs	r3, #0
 6312 2394 1CE0     		b	.L411
 6313              	.L408:
 6314              		.loc 1 2192 0
 6315 2396 9DF80F30 		ldrb	r3, [sp, #15]	@ zero_extendqisi2
 6316 239a 03F03F03 		and	r3, r3, #63
 6317 239e DBB2     		uxtb	r3, r3
 6318 23a0 8DF80F30 		strb	r3, [sp, #15]
 6319              		.loc 1 2193 0
 6320 23a4 9DF80F20 		ldrb	r2, [sp, #15]	@ zero_extendqisi2
 6321 23a8 9DF80330 		ldrb	r3, [sp, #3]
 6322 23ac 1343     		orrs	r3, r3, r2
 6323 23ae DBB2     		uxtb	r3, r3
 6324 23b0 8DF80F30 		strb	r3, [sp, #15]
 6325              		.loc 1 2195 0
 6326 23b4 0DF10F03 		add	r3, sp, #15
 6327 23b8 0198     		ldr	r0, [sp, #4]
 6328 23ba 2E21     		movs	r1, #46
 6329 23bc 1A46     		mov	r2, r3
 6330 23be 0123     		movs	r3, #1
 6331 23c0 FFF7FEFF 		bl	LSM303AGR_ACC_WriteReg
 6332 23c4 0346     		mov	r3, r0
 6333 23c6 002B     		cmp	r3, #0
 6334 23c8 01D1     		bne	.L410
 6335              		.loc 1 2196 0
 6336 23ca 0023     		movs	r3, #0
 6337 23cc 00E0     		b	.L411
 6338              	.L410:
 6339              		.loc 1 2198 0
ARM GAS  /tmp/ccVYwGiK.s 			page 114


 6340 23ce 0123     		movs	r3, #1
 6341              	.L411:
 6342              		.loc 1 2199 0
 6343 23d0 1846     		mov	r0, r3
 6344 23d2 05B0     		add	sp, sp, #20
 6345              		@ sp needed
 6346 23d4 5DF804FB 		ldr	pc, [sp], #4
 6347              		.cfi_endproc
 6348              	.LFE104:
 6349              		.size	LSM303AGR_ACC_W_FifoMode, .-LSM303AGR_ACC_W_FifoMode
 6350              		.align	2
 6351 23d8 AFF30080 		.p2align 4,,15
 6351      AFF30080 
 6352              		.global	LSM303AGR_ACC_R_FifoMode
 6353              		.thumb
 6354              		.thumb_func
 6355              		.type	LSM303AGR_ACC_R_FifoMode, %function
 6356              	LSM303AGR_ACC_R_FifoMode:
 6357              	.LFB105:
 6358              		.loc 1 2209 0
 6359              		.cfi_startproc
 6360              		@ args = 0, pretend = 0, frame = 8
 6361              		@ frame_needed = 0, uses_anonymous_args = 0
 6362 23e0 00B5     		push	{lr}
 6363              		.cfi_def_cfa_offset 4
 6364              		.cfi_offset 14, -4
 6365 23e2 83B0     		sub	sp, sp, #12
 6366              		.cfi_def_cfa_offset 16
 6367 23e4 0190     		str	r0, [sp, #4]
 6368 23e6 0091     		str	r1, [sp]
 6369              		.loc 1 2210 0
 6370 23e8 0198     		ldr	r0, [sp, #4]
 6371 23ea 2E21     		movs	r1, #46
 6372 23ec 009A     		ldr	r2, [sp]
 6373 23ee 0123     		movs	r3, #1
 6374 23f0 FFF7FEFF 		bl	LSM303AGR_ACC_ReadReg
 6375 23f4 0346     		mov	r3, r0
 6376 23f6 002B     		cmp	r3, #0
 6377 23f8 01D1     		bne	.L413
 6378              		.loc 1 2211 0
 6379 23fa 0023     		movs	r3, #0
 6380 23fc 07E0     		b	.L414
 6381              	.L413:
 6382              		.loc 1 2213 0
 6383 23fe 009B     		ldr	r3, [sp]
 6384 2400 1B78     		ldrb	r3, [r3]	@ zero_extendqisi2
 6385 2402 23F03F03 		bic	r3, r3, #63
 6386 2406 DAB2     		uxtb	r2, r3
 6387 2408 009B     		ldr	r3, [sp]
 6388 240a 1A70     		strb	r2, [r3]
 6389              		.loc 1 2215 0
 6390 240c 0123     		movs	r3, #1
 6391              	.L414:
 6392              		.loc 1 2216 0
 6393 240e 1846     		mov	r0, r3
 6394 2410 03B0     		add	sp, sp, #12
 6395              		@ sp needed
ARM GAS  /tmp/ccVYwGiK.s 			page 115


 6396 2412 5DF804FB 		ldr	pc, [sp], #4
 6397              		.cfi_endproc
 6398              	.LFE105:
 6399              		.size	LSM303AGR_ACC_R_FifoMode, .-LSM303AGR_ACC_R_FifoMode
 6400 2416 00BF     		.align	2
 6401 2418 AFF30080 		.p2align 4,,15
 6401      AFF30080 
 6402              		.global	LSM303AGR_ACC_R_FifoSamplesAvail
 6403              		.thumb
 6404              		.thumb_func
 6405              		.type	LSM303AGR_ACC_R_FifoSamplesAvail, %function
 6406              	LSM303AGR_ACC_R_FifoSamplesAvail:
 6407              	.LFB106:
 6408              		.loc 1 2226 0
 6409              		.cfi_startproc
 6410              		@ args = 0, pretend = 0, frame = 8
 6411              		@ frame_needed = 0, uses_anonymous_args = 0
 6412 2420 00B5     		push	{lr}
 6413              		.cfi_def_cfa_offset 4
 6414              		.cfi_offset 14, -4
 6415 2422 83B0     		sub	sp, sp, #12
 6416              		.cfi_def_cfa_offset 16
 6417 2424 0190     		str	r0, [sp, #4]
 6418 2426 0091     		str	r1, [sp]
 6419              		.loc 1 2227 0
 6420 2428 0198     		ldr	r0, [sp, #4]
 6421 242a 2F21     		movs	r1, #47
 6422 242c 009A     		ldr	r2, [sp]
 6423 242e 0123     		movs	r3, #1
 6424 2430 FFF7FEFF 		bl	LSM303AGR_ACC_ReadReg
 6425 2434 0346     		mov	r3, r0
 6426 2436 002B     		cmp	r3, #0
 6427 2438 01D1     		bne	.L416
 6428              		.loc 1 2228 0
 6429 243a 0023     		movs	r3, #0
 6430 243c 0BE0     		b	.L417
 6431              	.L416:
 6432              		.loc 1 2230 0
 6433 243e 009B     		ldr	r3, [sp]
 6434 2440 1B78     		ldrb	r3, [r3]	@ zero_extendqisi2
 6435 2442 03F01F03 		and	r3, r3, #31
 6436 2446 DAB2     		uxtb	r2, r3
 6437 2448 009B     		ldr	r3, [sp]
 6438 244a 1A70     		strb	r2, [r3]
 6439              		.loc 1 2231 0
 6440 244c 009B     		ldr	r3, [sp]
 6441 244e 1A78     		ldrb	r2, [r3]	@ zero_extendqisi2
 6442 2450 009B     		ldr	r3, [sp]
 6443 2452 1A70     		strb	r2, [r3]
 6444              		.loc 1 2233 0
 6445 2454 0123     		movs	r3, #1
 6446              	.L417:
 6447              		.loc 1 2234 0
 6448 2456 1846     		mov	r0, r3
 6449 2458 03B0     		add	sp, sp, #12
 6450              		@ sp needed
 6451 245a 5DF804FB 		ldr	pc, [sp], #4
ARM GAS  /tmp/ccVYwGiK.s 			page 116


 6452              		.cfi_endproc
 6453              	.LFE106:
 6454              		.size	LSM303AGR_ACC_R_FifoSamplesAvail, .-LSM303AGR_ACC_R_FifoSamplesAvail
 6455 245e 00BF     		.align	2
 6456              		.p2align 4,,15
 6457              		.global	LSM303AGR_ACC_R_FifoEmpty
 6458              		.thumb
 6459              		.thumb_func
 6460              		.type	LSM303AGR_ACC_R_FifoEmpty, %function
 6461              	LSM303AGR_ACC_R_FifoEmpty:
 6462              	.LFB107:
 6463              		.loc 1 2244 0
 6464              		.cfi_startproc
 6465              		@ args = 0, pretend = 0, frame = 8
 6466              		@ frame_needed = 0, uses_anonymous_args = 0
 6467 2460 00B5     		push	{lr}
 6468              		.cfi_def_cfa_offset 4
 6469              		.cfi_offset 14, -4
 6470 2462 83B0     		sub	sp, sp, #12
 6471              		.cfi_def_cfa_offset 16
 6472 2464 0190     		str	r0, [sp, #4]
 6473 2466 0091     		str	r1, [sp]
 6474              		.loc 1 2245 0
 6475 2468 0198     		ldr	r0, [sp, #4]
 6476 246a 2F21     		movs	r1, #47
 6477 246c 009A     		ldr	r2, [sp]
 6478 246e 0123     		movs	r3, #1
 6479 2470 FFF7FEFF 		bl	LSM303AGR_ACC_ReadReg
 6480 2474 0346     		mov	r3, r0
 6481 2476 002B     		cmp	r3, #0
 6482 2478 01D1     		bne	.L419
 6483              		.loc 1 2246 0
 6484 247a 0023     		movs	r3, #0
 6485 247c 07E0     		b	.L420
 6486              	.L419:
 6487              		.loc 1 2248 0
 6488 247e 009B     		ldr	r3, [sp]
 6489 2480 1B78     		ldrb	r3, [r3]	@ zero_extendqisi2
 6490 2482 03F02003 		and	r3, r3, #32
 6491 2486 DAB2     		uxtb	r2, r3
 6492 2488 009B     		ldr	r3, [sp]
 6493 248a 1A70     		strb	r2, [r3]
 6494              		.loc 1 2250 0
 6495 248c 0123     		movs	r3, #1
 6496              	.L420:
 6497              		.loc 1 2251 0
 6498 248e 1846     		mov	r0, r3
 6499 2490 03B0     		add	sp, sp, #12
 6500              		@ sp needed
 6501 2492 5DF804FB 		ldr	pc, [sp], #4
 6502              		.cfi_endproc
 6503              	.LFE107:
 6504              		.size	LSM303AGR_ACC_R_FifoEmpty, .-LSM303AGR_ACC_R_FifoEmpty
 6505 2496 00BF     		.align	2
 6506 2498 AFF30080 		.p2align 4,,15
 6506      AFF30080 
 6507              		.global	LSM303AGR_ACC_R_FifoOverrun
ARM GAS  /tmp/ccVYwGiK.s 			page 117


 6508              		.thumb
 6509              		.thumb_func
 6510              		.type	LSM303AGR_ACC_R_FifoOverrun, %function
 6511              	LSM303AGR_ACC_R_FifoOverrun:
 6512              	.LFB108:
 6513              		.loc 1 2261 0
 6514              		.cfi_startproc
 6515              		@ args = 0, pretend = 0, frame = 8
 6516              		@ frame_needed = 0, uses_anonymous_args = 0
 6517 24a0 00B5     		push	{lr}
 6518              		.cfi_def_cfa_offset 4
 6519              		.cfi_offset 14, -4
 6520 24a2 83B0     		sub	sp, sp, #12
 6521              		.cfi_def_cfa_offset 16
 6522 24a4 0190     		str	r0, [sp, #4]
 6523 24a6 0091     		str	r1, [sp]
 6524              		.loc 1 2262 0
 6525 24a8 0198     		ldr	r0, [sp, #4]
 6526 24aa 2F21     		movs	r1, #47
 6527 24ac 009A     		ldr	r2, [sp]
 6528 24ae 0123     		movs	r3, #1
 6529 24b0 FFF7FEFF 		bl	LSM303AGR_ACC_ReadReg
 6530 24b4 0346     		mov	r3, r0
 6531 24b6 002B     		cmp	r3, #0
 6532 24b8 01D1     		bne	.L422
 6533              		.loc 1 2263 0
 6534 24ba 0023     		movs	r3, #0
 6535 24bc 07E0     		b	.L423
 6536              	.L422:
 6537              		.loc 1 2265 0
 6538 24be 009B     		ldr	r3, [sp]
 6539 24c0 1B78     		ldrb	r3, [r3]	@ zero_extendqisi2
 6540 24c2 03F04003 		and	r3, r3, #64
 6541 24c6 DAB2     		uxtb	r2, r3
 6542 24c8 009B     		ldr	r3, [sp]
 6543 24ca 1A70     		strb	r2, [r3]
 6544              		.loc 1 2267 0
 6545 24cc 0123     		movs	r3, #1
 6546              	.L423:
 6547              		.loc 1 2268 0
 6548 24ce 1846     		mov	r0, r3
 6549 24d0 03B0     		add	sp, sp, #12
 6550              		@ sp needed
 6551 24d2 5DF804FB 		ldr	pc, [sp], #4
 6552              		.cfi_endproc
 6553              	.LFE108:
 6554              		.size	LSM303AGR_ACC_R_FifoOverrun, .-LSM303AGR_ACC_R_FifoOverrun
 6555 24d6 00BF     		.align	2
 6556 24d8 AFF30080 		.p2align 4,,15
 6556      AFF30080 
 6557              		.global	LSM303AGR_ACC_R_WatermarkLevel
 6558              		.thumb
 6559              		.thumb_func
 6560              		.type	LSM303AGR_ACC_R_WatermarkLevel, %function
 6561              	LSM303AGR_ACC_R_WatermarkLevel:
 6562              	.LFB109:
 6563              		.loc 1 2278 0
ARM GAS  /tmp/ccVYwGiK.s 			page 118


 6564              		.cfi_startproc
 6565              		@ args = 0, pretend = 0, frame = 8
 6566              		@ frame_needed = 0, uses_anonymous_args = 0
 6567 24e0 00B5     		push	{lr}
 6568              		.cfi_def_cfa_offset 4
 6569              		.cfi_offset 14, -4
 6570 24e2 83B0     		sub	sp, sp, #12
 6571              		.cfi_def_cfa_offset 16
 6572 24e4 0190     		str	r0, [sp, #4]
 6573 24e6 0091     		str	r1, [sp]
 6574              		.loc 1 2279 0
 6575 24e8 0198     		ldr	r0, [sp, #4]
 6576 24ea 2F21     		movs	r1, #47
 6577 24ec 009A     		ldr	r2, [sp]
 6578 24ee 0123     		movs	r3, #1
 6579 24f0 FFF7FEFF 		bl	LSM303AGR_ACC_ReadReg
 6580 24f4 0346     		mov	r3, r0
 6581 24f6 002B     		cmp	r3, #0
 6582 24f8 01D1     		bne	.L425
 6583              		.loc 1 2280 0
 6584 24fa 0023     		movs	r3, #0
 6585 24fc 07E0     		b	.L426
 6586              	.L425:
 6587              		.loc 1 2282 0
 6588 24fe 009B     		ldr	r3, [sp]
 6589 2500 1B78     		ldrb	r3, [r3]	@ zero_extendqisi2
 6590 2502 23F07F03 		bic	r3, r3, #127
 6591 2506 DAB2     		uxtb	r2, r3
 6592 2508 009B     		ldr	r3, [sp]
 6593 250a 1A70     		strb	r2, [r3]
 6594              		.loc 1 2284 0
 6595 250c 0123     		movs	r3, #1
 6596              	.L426:
 6597              		.loc 1 2285 0
 6598 250e 1846     		mov	r0, r3
 6599 2510 03B0     		add	sp, sp, #12
 6600              		@ sp needed
 6601 2512 5DF804FB 		ldr	pc, [sp], #4
 6602              		.cfi_endproc
 6603              	.LFE109:
 6604              		.size	LSM303AGR_ACC_R_WatermarkLevel, .-LSM303AGR_ACC_R_WatermarkLevel
 6605 2516 00BF     		.align	2
 6606 2518 AFF30080 		.p2align 4,,15
 6606      AFF30080 
 6607              		.global	LSM303AGR_ACC_W_Int1EnXLo
 6608              		.thumb
 6609              		.thumb_func
 6610              		.type	LSM303AGR_ACC_W_Int1EnXLo, %function
 6611              	LSM303AGR_ACC_W_Int1EnXLo:
 6612              	.LFB110:
 6613              		.loc 1 2295 0
 6614              		.cfi_startproc
 6615              		@ args = 0, pretend = 0, frame = 16
 6616              		@ frame_needed = 0, uses_anonymous_args = 0
 6617 2520 00B5     		push	{lr}
 6618              		.cfi_def_cfa_offset 4
 6619              		.cfi_offset 14, -4
ARM GAS  /tmp/ccVYwGiK.s 			page 119


 6620 2522 85B0     		sub	sp, sp, #20
 6621              		.cfi_def_cfa_offset 24
 6622 2524 0190     		str	r0, [sp, #4]
 6623 2526 0B46     		mov	r3, r1
 6624 2528 8DF80330 		strb	r3, [sp, #3]
 6625              		.loc 1 2298 0
 6626 252c 0DF10F03 		add	r3, sp, #15
 6627 2530 0198     		ldr	r0, [sp, #4]
 6628 2532 3021     		movs	r1, #48
 6629 2534 1A46     		mov	r2, r3
 6630 2536 0123     		movs	r3, #1
 6631 2538 FFF7FEFF 		bl	LSM303AGR_ACC_ReadReg
 6632 253c 0346     		mov	r3, r0
 6633 253e 002B     		cmp	r3, #0
 6634 2540 01D1     		bne	.L428
 6635              		.loc 1 2299 0
 6636 2542 0023     		movs	r3, #0
 6637 2544 1CE0     		b	.L431
 6638              	.L428:
 6639              		.loc 1 2301 0
 6640 2546 9DF80F30 		ldrb	r3, [sp, #15]	@ zero_extendqisi2
 6641 254a 23F00103 		bic	r3, r3, #1
 6642 254e DBB2     		uxtb	r3, r3
 6643 2550 8DF80F30 		strb	r3, [sp, #15]
 6644              		.loc 1 2302 0
 6645 2554 9DF80F20 		ldrb	r2, [sp, #15]	@ zero_extendqisi2
 6646 2558 9DF80330 		ldrb	r3, [sp, #3]
 6647 255c 1343     		orrs	r3, r3, r2
 6648 255e DBB2     		uxtb	r3, r3
 6649 2560 8DF80F30 		strb	r3, [sp, #15]
 6650              		.loc 1 2304 0
 6651 2564 0DF10F03 		add	r3, sp, #15
 6652 2568 0198     		ldr	r0, [sp, #4]
 6653 256a 3021     		movs	r1, #48
 6654 256c 1A46     		mov	r2, r3
 6655 256e 0123     		movs	r3, #1
 6656 2570 FFF7FEFF 		bl	LSM303AGR_ACC_WriteReg
 6657 2574 0346     		mov	r3, r0
 6658 2576 002B     		cmp	r3, #0
 6659 2578 01D1     		bne	.L430
 6660              		.loc 1 2305 0
 6661 257a 0023     		movs	r3, #0
 6662 257c 00E0     		b	.L431
 6663              	.L430:
 6664              		.loc 1 2307 0
 6665 257e 0123     		movs	r3, #1
 6666              	.L431:
 6667              		.loc 1 2308 0
 6668 2580 1846     		mov	r0, r3
 6669 2582 05B0     		add	sp, sp, #20
 6670              		@ sp needed
 6671 2584 5DF804FB 		ldr	pc, [sp], #4
 6672              		.cfi_endproc
 6673              	.LFE110:
 6674              		.size	LSM303AGR_ACC_W_Int1EnXLo, .-LSM303AGR_ACC_W_Int1EnXLo
 6675              		.align	2
 6676 2588 AFF30080 		.p2align 4,,15
ARM GAS  /tmp/ccVYwGiK.s 			page 120


 6676      AFF30080 
 6677              		.global	LSM303AGR_ACC_R_Int1EnXLo
 6678              		.thumb
 6679              		.thumb_func
 6680              		.type	LSM303AGR_ACC_R_Int1EnXLo, %function
 6681              	LSM303AGR_ACC_R_Int1EnXLo:
 6682              	.LFB111:
 6683              		.loc 1 2318 0
 6684              		.cfi_startproc
 6685              		@ args = 0, pretend = 0, frame = 8
 6686              		@ frame_needed = 0, uses_anonymous_args = 0
 6687 2590 00B5     		push	{lr}
 6688              		.cfi_def_cfa_offset 4
 6689              		.cfi_offset 14, -4
 6690 2592 83B0     		sub	sp, sp, #12
 6691              		.cfi_def_cfa_offset 16
 6692 2594 0190     		str	r0, [sp, #4]
 6693 2596 0091     		str	r1, [sp]
 6694              		.loc 1 2319 0
 6695 2598 0198     		ldr	r0, [sp, #4]
 6696 259a 3021     		movs	r1, #48
 6697 259c 009A     		ldr	r2, [sp]
 6698 259e 0123     		movs	r3, #1
 6699 25a0 FFF7FEFF 		bl	LSM303AGR_ACC_ReadReg
 6700 25a4 0346     		mov	r3, r0
 6701 25a6 002B     		cmp	r3, #0
 6702 25a8 01D1     		bne	.L433
 6703              		.loc 1 2320 0
 6704 25aa 0023     		movs	r3, #0
 6705 25ac 07E0     		b	.L434
 6706              	.L433:
 6707              		.loc 1 2322 0
 6708 25ae 009B     		ldr	r3, [sp]
 6709 25b0 1B78     		ldrb	r3, [r3]	@ zero_extendqisi2
 6710 25b2 03F00103 		and	r3, r3, #1
 6711 25b6 DAB2     		uxtb	r2, r3
 6712 25b8 009B     		ldr	r3, [sp]
 6713 25ba 1A70     		strb	r2, [r3]
 6714              		.loc 1 2324 0
 6715 25bc 0123     		movs	r3, #1
 6716              	.L434:
 6717              		.loc 1 2325 0
 6718 25be 1846     		mov	r0, r3
 6719 25c0 03B0     		add	sp, sp, #12
 6720              		@ sp needed
 6721 25c2 5DF804FB 		ldr	pc, [sp], #4
 6722              		.cfi_endproc
 6723              	.LFE111:
 6724              		.size	LSM303AGR_ACC_R_Int1EnXLo, .-LSM303AGR_ACC_R_Int1EnXLo
 6725 25c6 00BF     		.align	2
 6726 25c8 AFF30080 		.p2align 4,,15
 6726      AFF30080 
 6727              		.global	LSM303AGR_ACC_W_Int1EnXHi
 6728              		.thumb
 6729              		.thumb_func
 6730              		.type	LSM303AGR_ACC_W_Int1EnXHi, %function
 6731              	LSM303AGR_ACC_W_Int1EnXHi:
ARM GAS  /tmp/ccVYwGiK.s 			page 121


 6732              	.LFB112:
 6733              		.loc 1 2335 0
 6734              		.cfi_startproc
 6735              		@ args = 0, pretend = 0, frame = 16
 6736              		@ frame_needed = 0, uses_anonymous_args = 0
 6737 25d0 00B5     		push	{lr}
 6738              		.cfi_def_cfa_offset 4
 6739              		.cfi_offset 14, -4
 6740 25d2 85B0     		sub	sp, sp, #20
 6741              		.cfi_def_cfa_offset 24
 6742 25d4 0190     		str	r0, [sp, #4]
 6743 25d6 0B46     		mov	r3, r1
 6744 25d8 8DF80330 		strb	r3, [sp, #3]
 6745              		.loc 1 2338 0
 6746 25dc 0DF10F03 		add	r3, sp, #15
 6747 25e0 0198     		ldr	r0, [sp, #4]
 6748 25e2 3021     		movs	r1, #48
 6749 25e4 1A46     		mov	r2, r3
 6750 25e6 0123     		movs	r3, #1
 6751 25e8 FFF7FEFF 		bl	LSM303AGR_ACC_ReadReg
 6752 25ec 0346     		mov	r3, r0
 6753 25ee 002B     		cmp	r3, #0
 6754 25f0 01D1     		bne	.L436
 6755              		.loc 1 2339 0
 6756 25f2 0023     		movs	r3, #0
 6757 25f4 1CE0     		b	.L439
 6758              	.L436:
 6759              		.loc 1 2341 0
 6760 25f6 9DF80F30 		ldrb	r3, [sp, #15]	@ zero_extendqisi2
 6761 25fa 23F00203 		bic	r3, r3, #2
 6762 25fe DBB2     		uxtb	r3, r3
 6763 2600 8DF80F30 		strb	r3, [sp, #15]
 6764              		.loc 1 2342 0
 6765 2604 9DF80F20 		ldrb	r2, [sp, #15]	@ zero_extendqisi2
 6766 2608 9DF80330 		ldrb	r3, [sp, #3]
 6767 260c 1343     		orrs	r3, r3, r2
 6768 260e DBB2     		uxtb	r3, r3
 6769 2610 8DF80F30 		strb	r3, [sp, #15]
 6770              		.loc 1 2344 0
 6771 2614 0DF10F03 		add	r3, sp, #15
 6772 2618 0198     		ldr	r0, [sp, #4]
 6773 261a 3021     		movs	r1, #48
 6774 261c 1A46     		mov	r2, r3
 6775 261e 0123     		movs	r3, #1
 6776 2620 FFF7FEFF 		bl	LSM303AGR_ACC_WriteReg
 6777 2624 0346     		mov	r3, r0
 6778 2626 002B     		cmp	r3, #0
 6779 2628 01D1     		bne	.L438
 6780              		.loc 1 2345 0
 6781 262a 0023     		movs	r3, #0
 6782 262c 00E0     		b	.L439
 6783              	.L438:
 6784              		.loc 1 2347 0
 6785 262e 0123     		movs	r3, #1
 6786              	.L439:
 6787              		.loc 1 2348 0
 6788 2630 1846     		mov	r0, r3
ARM GAS  /tmp/ccVYwGiK.s 			page 122


 6789 2632 05B0     		add	sp, sp, #20
 6790              		@ sp needed
 6791 2634 5DF804FB 		ldr	pc, [sp], #4
 6792              		.cfi_endproc
 6793              	.LFE112:
 6794              		.size	LSM303AGR_ACC_W_Int1EnXHi, .-LSM303AGR_ACC_W_Int1EnXHi
 6795              		.align	2
 6796 2638 AFF30080 		.p2align 4,,15
 6796      AFF30080 
 6797              		.global	LSM303AGR_ACC_R_Int1EnXHi
 6798              		.thumb
 6799              		.thumb_func
 6800              		.type	LSM303AGR_ACC_R_Int1EnXHi, %function
 6801              	LSM303AGR_ACC_R_Int1EnXHi:
 6802              	.LFB113:
 6803              		.loc 1 2358 0
 6804              		.cfi_startproc
 6805              		@ args = 0, pretend = 0, frame = 8
 6806              		@ frame_needed = 0, uses_anonymous_args = 0
 6807 2640 00B5     		push	{lr}
 6808              		.cfi_def_cfa_offset 4
 6809              		.cfi_offset 14, -4
 6810 2642 83B0     		sub	sp, sp, #12
 6811              		.cfi_def_cfa_offset 16
 6812 2644 0190     		str	r0, [sp, #4]
 6813 2646 0091     		str	r1, [sp]
 6814              		.loc 1 2359 0
 6815 2648 0198     		ldr	r0, [sp, #4]
 6816 264a 3021     		movs	r1, #48
 6817 264c 009A     		ldr	r2, [sp]
 6818 264e 0123     		movs	r3, #1
 6819 2650 FFF7FEFF 		bl	LSM303AGR_ACC_ReadReg
 6820 2654 0346     		mov	r3, r0
 6821 2656 002B     		cmp	r3, #0
 6822 2658 01D1     		bne	.L441
 6823              		.loc 1 2360 0
 6824 265a 0023     		movs	r3, #0
 6825 265c 07E0     		b	.L442
 6826              	.L441:
 6827              		.loc 1 2362 0
 6828 265e 009B     		ldr	r3, [sp]
 6829 2660 1B78     		ldrb	r3, [r3]	@ zero_extendqisi2
 6830 2662 03F00203 		and	r3, r3, #2
 6831 2666 DAB2     		uxtb	r2, r3
 6832 2668 009B     		ldr	r3, [sp]
 6833 266a 1A70     		strb	r2, [r3]
 6834              		.loc 1 2364 0
 6835 266c 0123     		movs	r3, #1
 6836              	.L442:
 6837              		.loc 1 2365 0
 6838 266e 1846     		mov	r0, r3
 6839 2670 03B0     		add	sp, sp, #12
 6840              		@ sp needed
 6841 2672 5DF804FB 		ldr	pc, [sp], #4
 6842              		.cfi_endproc
 6843              	.LFE113:
 6844              		.size	LSM303AGR_ACC_R_Int1EnXHi, .-LSM303AGR_ACC_R_Int1EnXHi
ARM GAS  /tmp/ccVYwGiK.s 			page 123


 6845 2676 00BF     		.align	2
 6846 2678 AFF30080 		.p2align 4,,15
 6846      AFF30080 
 6847              		.global	LSM303AGR_ACC_W_Int1EnYLo
 6848              		.thumb
 6849              		.thumb_func
 6850              		.type	LSM303AGR_ACC_W_Int1EnYLo, %function
 6851              	LSM303AGR_ACC_W_Int1EnYLo:
 6852              	.LFB114:
 6853              		.loc 1 2375 0
 6854              		.cfi_startproc
 6855              		@ args = 0, pretend = 0, frame = 16
 6856              		@ frame_needed = 0, uses_anonymous_args = 0
 6857 2680 00B5     		push	{lr}
 6858              		.cfi_def_cfa_offset 4
 6859              		.cfi_offset 14, -4
 6860 2682 85B0     		sub	sp, sp, #20
 6861              		.cfi_def_cfa_offset 24
 6862 2684 0190     		str	r0, [sp, #4]
 6863 2686 0B46     		mov	r3, r1
 6864 2688 8DF80330 		strb	r3, [sp, #3]
 6865              		.loc 1 2378 0
 6866 268c 0DF10F03 		add	r3, sp, #15
 6867 2690 0198     		ldr	r0, [sp, #4]
 6868 2692 3021     		movs	r1, #48
 6869 2694 1A46     		mov	r2, r3
 6870 2696 0123     		movs	r3, #1
 6871 2698 FFF7FEFF 		bl	LSM303AGR_ACC_ReadReg
 6872 269c 0346     		mov	r3, r0
 6873 269e 002B     		cmp	r3, #0
 6874 26a0 01D1     		bne	.L444
 6875              		.loc 1 2379 0
 6876 26a2 0023     		movs	r3, #0
 6877 26a4 1CE0     		b	.L447
 6878              	.L444:
 6879              		.loc 1 2381 0
 6880 26a6 9DF80F30 		ldrb	r3, [sp, #15]	@ zero_extendqisi2
 6881 26aa 23F00403 		bic	r3, r3, #4
 6882 26ae DBB2     		uxtb	r3, r3
 6883 26b0 8DF80F30 		strb	r3, [sp, #15]
 6884              		.loc 1 2382 0
 6885 26b4 9DF80F20 		ldrb	r2, [sp, #15]	@ zero_extendqisi2
 6886 26b8 9DF80330 		ldrb	r3, [sp, #3]
 6887 26bc 1343     		orrs	r3, r3, r2
 6888 26be DBB2     		uxtb	r3, r3
 6889 26c0 8DF80F30 		strb	r3, [sp, #15]
 6890              		.loc 1 2384 0
 6891 26c4 0DF10F03 		add	r3, sp, #15
 6892 26c8 0198     		ldr	r0, [sp, #4]
 6893 26ca 3021     		movs	r1, #48
 6894 26cc 1A46     		mov	r2, r3
 6895 26ce 0123     		movs	r3, #1
 6896 26d0 FFF7FEFF 		bl	LSM303AGR_ACC_WriteReg
 6897 26d4 0346     		mov	r3, r0
 6898 26d6 002B     		cmp	r3, #0
 6899 26d8 01D1     		bne	.L446
 6900              		.loc 1 2385 0
ARM GAS  /tmp/ccVYwGiK.s 			page 124


 6901 26da 0023     		movs	r3, #0
 6902 26dc 00E0     		b	.L447
 6903              	.L446:
 6904              		.loc 1 2387 0
 6905 26de 0123     		movs	r3, #1
 6906              	.L447:
 6907              		.loc 1 2388 0
 6908 26e0 1846     		mov	r0, r3
 6909 26e2 05B0     		add	sp, sp, #20
 6910              		@ sp needed
 6911 26e4 5DF804FB 		ldr	pc, [sp], #4
 6912              		.cfi_endproc
 6913              	.LFE114:
 6914              		.size	LSM303AGR_ACC_W_Int1EnYLo, .-LSM303AGR_ACC_W_Int1EnYLo
 6915              		.align	2
 6916 26e8 AFF30080 		.p2align 4,,15
 6916      AFF30080 
 6917              		.global	LSM303AGR_ACC_R_Int1EnYLo
 6918              		.thumb
 6919              		.thumb_func
 6920              		.type	LSM303AGR_ACC_R_Int1EnYLo, %function
 6921              	LSM303AGR_ACC_R_Int1EnYLo:
 6922              	.LFB115:
 6923              		.loc 1 2398 0
 6924              		.cfi_startproc
 6925              		@ args = 0, pretend = 0, frame = 8
 6926              		@ frame_needed = 0, uses_anonymous_args = 0
 6927 26f0 00B5     		push	{lr}
 6928              		.cfi_def_cfa_offset 4
 6929              		.cfi_offset 14, -4
 6930 26f2 83B0     		sub	sp, sp, #12
 6931              		.cfi_def_cfa_offset 16
 6932 26f4 0190     		str	r0, [sp, #4]
 6933 26f6 0091     		str	r1, [sp]
 6934              		.loc 1 2399 0
 6935 26f8 0198     		ldr	r0, [sp, #4]
 6936 26fa 3021     		movs	r1, #48
 6937 26fc 009A     		ldr	r2, [sp]
 6938 26fe 0123     		movs	r3, #1
 6939 2700 FFF7FEFF 		bl	LSM303AGR_ACC_ReadReg
 6940 2704 0346     		mov	r3, r0
 6941 2706 002B     		cmp	r3, #0
 6942 2708 01D1     		bne	.L449
 6943              		.loc 1 2400 0
 6944 270a 0023     		movs	r3, #0
 6945 270c 07E0     		b	.L450
 6946              	.L449:
 6947              		.loc 1 2402 0
 6948 270e 009B     		ldr	r3, [sp]
 6949 2710 1B78     		ldrb	r3, [r3]	@ zero_extendqisi2
 6950 2712 03F00403 		and	r3, r3, #4
 6951 2716 DAB2     		uxtb	r2, r3
 6952 2718 009B     		ldr	r3, [sp]
 6953 271a 1A70     		strb	r2, [r3]
 6954              		.loc 1 2404 0
 6955 271c 0123     		movs	r3, #1
 6956              	.L450:
ARM GAS  /tmp/ccVYwGiK.s 			page 125


 6957              		.loc 1 2405 0
 6958 271e 1846     		mov	r0, r3
 6959 2720 03B0     		add	sp, sp, #12
 6960              		@ sp needed
 6961 2722 5DF804FB 		ldr	pc, [sp], #4
 6962              		.cfi_endproc
 6963              	.LFE115:
 6964              		.size	LSM303AGR_ACC_R_Int1EnYLo, .-LSM303AGR_ACC_R_Int1EnYLo
 6965 2726 00BF     		.align	2
 6966 2728 AFF30080 		.p2align 4,,15
 6966      AFF30080 
 6967              		.global	LSM303AGR_ACC_W_Int1EnYHi
 6968              		.thumb
 6969              		.thumb_func
 6970              		.type	LSM303AGR_ACC_W_Int1EnYHi, %function
 6971              	LSM303AGR_ACC_W_Int1EnYHi:
 6972              	.LFB116:
 6973              		.loc 1 2415 0
 6974              		.cfi_startproc
 6975              		@ args = 0, pretend = 0, frame = 16
 6976              		@ frame_needed = 0, uses_anonymous_args = 0
 6977 2730 00B5     		push	{lr}
 6978              		.cfi_def_cfa_offset 4
 6979              		.cfi_offset 14, -4
 6980 2732 85B0     		sub	sp, sp, #20
 6981              		.cfi_def_cfa_offset 24
 6982 2734 0190     		str	r0, [sp, #4]
 6983 2736 0B46     		mov	r3, r1
 6984 2738 8DF80330 		strb	r3, [sp, #3]
 6985              		.loc 1 2418 0
 6986 273c 0DF10F03 		add	r3, sp, #15
 6987 2740 0198     		ldr	r0, [sp, #4]
 6988 2742 3021     		movs	r1, #48
 6989 2744 1A46     		mov	r2, r3
 6990 2746 0123     		movs	r3, #1
 6991 2748 FFF7FEFF 		bl	LSM303AGR_ACC_ReadReg
 6992 274c 0346     		mov	r3, r0
 6993 274e 002B     		cmp	r3, #0
 6994 2750 01D1     		bne	.L452
 6995              		.loc 1 2419 0
 6996 2752 0023     		movs	r3, #0
 6997 2754 1CE0     		b	.L455
 6998              	.L452:
 6999              		.loc 1 2421 0
 7000 2756 9DF80F30 		ldrb	r3, [sp, #15]	@ zero_extendqisi2
 7001 275a 23F00803 		bic	r3, r3, #8
 7002 275e DBB2     		uxtb	r3, r3
 7003 2760 8DF80F30 		strb	r3, [sp, #15]
 7004              		.loc 1 2422 0
 7005 2764 9DF80F20 		ldrb	r2, [sp, #15]	@ zero_extendqisi2
 7006 2768 9DF80330 		ldrb	r3, [sp, #3]
 7007 276c 1343     		orrs	r3, r3, r2
 7008 276e DBB2     		uxtb	r3, r3
 7009 2770 8DF80F30 		strb	r3, [sp, #15]
 7010              		.loc 1 2424 0
 7011 2774 0DF10F03 		add	r3, sp, #15
 7012 2778 0198     		ldr	r0, [sp, #4]
ARM GAS  /tmp/ccVYwGiK.s 			page 126


 7013 277a 3021     		movs	r1, #48
 7014 277c 1A46     		mov	r2, r3
 7015 277e 0123     		movs	r3, #1
 7016 2780 FFF7FEFF 		bl	LSM303AGR_ACC_WriteReg
 7017 2784 0346     		mov	r3, r0
 7018 2786 002B     		cmp	r3, #0
 7019 2788 01D1     		bne	.L454
 7020              		.loc 1 2425 0
 7021 278a 0023     		movs	r3, #0
 7022 278c 00E0     		b	.L455
 7023              	.L454:
 7024              		.loc 1 2427 0
 7025 278e 0123     		movs	r3, #1
 7026              	.L455:
 7027              		.loc 1 2428 0
 7028 2790 1846     		mov	r0, r3
 7029 2792 05B0     		add	sp, sp, #20
 7030              		@ sp needed
 7031 2794 5DF804FB 		ldr	pc, [sp], #4
 7032              		.cfi_endproc
 7033              	.LFE116:
 7034              		.size	LSM303AGR_ACC_W_Int1EnYHi, .-LSM303AGR_ACC_W_Int1EnYHi
 7035              		.align	2
 7036 2798 AFF30080 		.p2align 4,,15
 7036      AFF30080 
 7037              		.global	LSM303AGR_ACC_R_Int1EnYHi
 7038              		.thumb
 7039              		.thumb_func
 7040              		.type	LSM303AGR_ACC_R_Int1EnYHi, %function
 7041              	LSM303AGR_ACC_R_Int1EnYHi:
 7042              	.LFB117:
 7043              		.loc 1 2438 0
 7044              		.cfi_startproc
 7045              		@ args = 0, pretend = 0, frame = 8
 7046              		@ frame_needed = 0, uses_anonymous_args = 0
 7047 27a0 00B5     		push	{lr}
 7048              		.cfi_def_cfa_offset 4
 7049              		.cfi_offset 14, -4
 7050 27a2 83B0     		sub	sp, sp, #12
 7051              		.cfi_def_cfa_offset 16
 7052 27a4 0190     		str	r0, [sp, #4]
 7053 27a6 0091     		str	r1, [sp]
 7054              		.loc 1 2439 0
 7055 27a8 0198     		ldr	r0, [sp, #4]
 7056 27aa 3021     		movs	r1, #48
 7057 27ac 009A     		ldr	r2, [sp]
 7058 27ae 0123     		movs	r3, #1
 7059 27b0 FFF7FEFF 		bl	LSM303AGR_ACC_ReadReg
 7060 27b4 0346     		mov	r3, r0
 7061 27b6 002B     		cmp	r3, #0
 7062 27b8 01D1     		bne	.L457
 7063              		.loc 1 2440 0
 7064 27ba 0023     		movs	r3, #0
 7065 27bc 07E0     		b	.L458
 7066              	.L457:
 7067              		.loc 1 2442 0
 7068 27be 009B     		ldr	r3, [sp]
ARM GAS  /tmp/ccVYwGiK.s 			page 127


 7069 27c0 1B78     		ldrb	r3, [r3]	@ zero_extendqisi2
 7070 27c2 03F00803 		and	r3, r3, #8
 7071 27c6 DAB2     		uxtb	r2, r3
 7072 27c8 009B     		ldr	r3, [sp]
 7073 27ca 1A70     		strb	r2, [r3]
 7074              		.loc 1 2444 0
 7075 27cc 0123     		movs	r3, #1
 7076              	.L458:
 7077              		.loc 1 2445 0
 7078 27ce 1846     		mov	r0, r3
 7079 27d0 03B0     		add	sp, sp, #12
 7080              		@ sp needed
 7081 27d2 5DF804FB 		ldr	pc, [sp], #4
 7082              		.cfi_endproc
 7083              	.LFE117:
 7084              		.size	LSM303AGR_ACC_R_Int1EnYHi, .-LSM303AGR_ACC_R_Int1EnYHi
 7085 27d6 00BF     		.align	2
 7086 27d8 AFF30080 		.p2align 4,,15
 7086      AFF30080 
 7087              		.global	LSM303AGR_ACC_W_Int1EnZLo
 7088              		.thumb
 7089              		.thumb_func
 7090              		.type	LSM303AGR_ACC_W_Int1EnZLo, %function
 7091              	LSM303AGR_ACC_W_Int1EnZLo:
 7092              	.LFB118:
 7093              		.loc 1 2455 0
 7094              		.cfi_startproc
 7095              		@ args = 0, pretend = 0, frame = 16
 7096              		@ frame_needed = 0, uses_anonymous_args = 0
 7097 27e0 00B5     		push	{lr}
 7098              		.cfi_def_cfa_offset 4
 7099              		.cfi_offset 14, -4
 7100 27e2 85B0     		sub	sp, sp, #20
 7101              		.cfi_def_cfa_offset 24
 7102 27e4 0190     		str	r0, [sp, #4]
 7103 27e6 0B46     		mov	r3, r1
 7104 27e8 8DF80330 		strb	r3, [sp, #3]
 7105              		.loc 1 2458 0
 7106 27ec 0DF10F03 		add	r3, sp, #15
 7107 27f0 0198     		ldr	r0, [sp, #4]
 7108 27f2 3021     		movs	r1, #48
 7109 27f4 1A46     		mov	r2, r3
 7110 27f6 0123     		movs	r3, #1
 7111 27f8 FFF7FEFF 		bl	LSM303AGR_ACC_ReadReg
 7112 27fc 0346     		mov	r3, r0
 7113 27fe 002B     		cmp	r3, #0
 7114 2800 01D1     		bne	.L460
 7115              		.loc 1 2459 0
 7116 2802 0023     		movs	r3, #0
 7117 2804 1CE0     		b	.L463
 7118              	.L460:
 7119              		.loc 1 2461 0
 7120 2806 9DF80F30 		ldrb	r3, [sp, #15]	@ zero_extendqisi2
 7121 280a 23F01003 		bic	r3, r3, #16
 7122 280e DBB2     		uxtb	r3, r3
 7123 2810 8DF80F30 		strb	r3, [sp, #15]
 7124              		.loc 1 2462 0
ARM GAS  /tmp/ccVYwGiK.s 			page 128


 7125 2814 9DF80F20 		ldrb	r2, [sp, #15]	@ zero_extendqisi2
 7126 2818 9DF80330 		ldrb	r3, [sp, #3]
 7127 281c 1343     		orrs	r3, r3, r2
 7128 281e DBB2     		uxtb	r3, r3
 7129 2820 8DF80F30 		strb	r3, [sp, #15]
 7130              		.loc 1 2464 0
 7131 2824 0DF10F03 		add	r3, sp, #15
 7132 2828 0198     		ldr	r0, [sp, #4]
 7133 282a 3021     		movs	r1, #48
 7134 282c 1A46     		mov	r2, r3
 7135 282e 0123     		movs	r3, #1
 7136 2830 FFF7FEFF 		bl	LSM303AGR_ACC_WriteReg
 7137 2834 0346     		mov	r3, r0
 7138 2836 002B     		cmp	r3, #0
 7139 2838 01D1     		bne	.L462
 7140              		.loc 1 2465 0
 7141 283a 0023     		movs	r3, #0
 7142 283c 00E0     		b	.L463
 7143              	.L462:
 7144              		.loc 1 2467 0
 7145 283e 0123     		movs	r3, #1
 7146              	.L463:
 7147              		.loc 1 2468 0
 7148 2840 1846     		mov	r0, r3
 7149 2842 05B0     		add	sp, sp, #20
 7150              		@ sp needed
 7151 2844 5DF804FB 		ldr	pc, [sp], #4
 7152              		.cfi_endproc
 7153              	.LFE118:
 7154              		.size	LSM303AGR_ACC_W_Int1EnZLo, .-LSM303AGR_ACC_W_Int1EnZLo
 7155              		.align	2
 7156 2848 AFF30080 		.p2align 4,,15
 7156      AFF30080 
 7157              		.global	LSM303AGR_ACC_R_Int1EnZLo
 7158              		.thumb
 7159              		.thumb_func
 7160              		.type	LSM303AGR_ACC_R_Int1EnZLo, %function
 7161              	LSM303AGR_ACC_R_Int1EnZLo:
 7162              	.LFB119:
 7163              		.loc 1 2478 0
 7164              		.cfi_startproc
 7165              		@ args = 0, pretend = 0, frame = 8
 7166              		@ frame_needed = 0, uses_anonymous_args = 0
 7167 2850 00B5     		push	{lr}
 7168              		.cfi_def_cfa_offset 4
 7169              		.cfi_offset 14, -4
 7170 2852 83B0     		sub	sp, sp, #12
 7171              		.cfi_def_cfa_offset 16
 7172 2854 0190     		str	r0, [sp, #4]
 7173 2856 0091     		str	r1, [sp]
 7174              		.loc 1 2479 0
 7175 2858 0198     		ldr	r0, [sp, #4]
 7176 285a 3021     		movs	r1, #48
 7177 285c 009A     		ldr	r2, [sp]
 7178 285e 0123     		movs	r3, #1
 7179 2860 FFF7FEFF 		bl	LSM303AGR_ACC_ReadReg
 7180 2864 0346     		mov	r3, r0
ARM GAS  /tmp/ccVYwGiK.s 			page 129


 7181 2866 002B     		cmp	r3, #0
 7182 2868 01D1     		bne	.L465
 7183              		.loc 1 2480 0
 7184 286a 0023     		movs	r3, #0
 7185 286c 07E0     		b	.L466
 7186              	.L465:
 7187              		.loc 1 2482 0
 7188 286e 009B     		ldr	r3, [sp]
 7189 2870 1B78     		ldrb	r3, [r3]	@ zero_extendqisi2
 7190 2872 03F01003 		and	r3, r3, #16
 7191 2876 DAB2     		uxtb	r2, r3
 7192 2878 009B     		ldr	r3, [sp]
 7193 287a 1A70     		strb	r2, [r3]
 7194              		.loc 1 2484 0
 7195 287c 0123     		movs	r3, #1
 7196              	.L466:
 7197              		.loc 1 2485 0
 7198 287e 1846     		mov	r0, r3
 7199 2880 03B0     		add	sp, sp, #12
 7200              		@ sp needed
 7201 2882 5DF804FB 		ldr	pc, [sp], #4
 7202              		.cfi_endproc
 7203              	.LFE119:
 7204              		.size	LSM303AGR_ACC_R_Int1EnZLo, .-LSM303AGR_ACC_R_Int1EnZLo
 7205 2886 00BF     		.align	2
 7206 2888 AFF30080 		.p2align 4,,15
 7206      AFF30080 
 7207              		.global	LSM303AGR_ACC_W_Int1EnZHi
 7208              		.thumb
 7209              		.thumb_func
 7210              		.type	LSM303AGR_ACC_W_Int1EnZHi, %function
 7211              	LSM303AGR_ACC_W_Int1EnZHi:
 7212              	.LFB120:
 7213              		.loc 1 2495 0
 7214              		.cfi_startproc
 7215              		@ args = 0, pretend = 0, frame = 16
 7216              		@ frame_needed = 0, uses_anonymous_args = 0
 7217 2890 00B5     		push	{lr}
 7218              		.cfi_def_cfa_offset 4
 7219              		.cfi_offset 14, -4
 7220 2892 85B0     		sub	sp, sp, #20
 7221              		.cfi_def_cfa_offset 24
 7222 2894 0190     		str	r0, [sp, #4]
 7223 2896 0B46     		mov	r3, r1
 7224 2898 8DF80330 		strb	r3, [sp, #3]
 7225              		.loc 1 2498 0
 7226 289c 0DF10F03 		add	r3, sp, #15
 7227 28a0 0198     		ldr	r0, [sp, #4]
 7228 28a2 3021     		movs	r1, #48
 7229 28a4 1A46     		mov	r2, r3
 7230 28a6 0123     		movs	r3, #1
 7231 28a8 FFF7FEFF 		bl	LSM303AGR_ACC_ReadReg
 7232 28ac 0346     		mov	r3, r0
 7233 28ae 002B     		cmp	r3, #0
 7234 28b0 01D1     		bne	.L468
 7235              		.loc 1 2499 0
 7236 28b2 0023     		movs	r3, #0
ARM GAS  /tmp/ccVYwGiK.s 			page 130


 7237 28b4 1CE0     		b	.L471
 7238              	.L468:
 7239              		.loc 1 2501 0
 7240 28b6 9DF80F30 		ldrb	r3, [sp, #15]	@ zero_extendqisi2
 7241 28ba 23F02003 		bic	r3, r3, #32
 7242 28be DBB2     		uxtb	r3, r3
 7243 28c0 8DF80F30 		strb	r3, [sp, #15]
 7244              		.loc 1 2502 0
 7245 28c4 9DF80F20 		ldrb	r2, [sp, #15]	@ zero_extendqisi2
 7246 28c8 9DF80330 		ldrb	r3, [sp, #3]
 7247 28cc 1343     		orrs	r3, r3, r2
 7248 28ce DBB2     		uxtb	r3, r3
 7249 28d0 8DF80F30 		strb	r3, [sp, #15]
 7250              		.loc 1 2504 0
 7251 28d4 0DF10F03 		add	r3, sp, #15
 7252 28d8 0198     		ldr	r0, [sp, #4]
 7253 28da 3021     		movs	r1, #48
 7254 28dc 1A46     		mov	r2, r3
 7255 28de 0123     		movs	r3, #1
 7256 28e0 FFF7FEFF 		bl	LSM303AGR_ACC_WriteReg
 7257 28e4 0346     		mov	r3, r0
 7258 28e6 002B     		cmp	r3, #0
 7259 28e8 01D1     		bne	.L470
 7260              		.loc 1 2505 0
 7261 28ea 0023     		movs	r3, #0
 7262 28ec 00E0     		b	.L471
 7263              	.L470:
 7264              		.loc 1 2507 0
 7265 28ee 0123     		movs	r3, #1
 7266              	.L471:
 7267              		.loc 1 2508 0
 7268 28f0 1846     		mov	r0, r3
 7269 28f2 05B0     		add	sp, sp, #20
 7270              		@ sp needed
 7271 28f4 5DF804FB 		ldr	pc, [sp], #4
 7272              		.cfi_endproc
 7273              	.LFE120:
 7274              		.size	LSM303AGR_ACC_W_Int1EnZHi, .-LSM303AGR_ACC_W_Int1EnZHi
 7275              		.align	2
 7276 28f8 AFF30080 		.p2align 4,,15
 7276      AFF30080 
 7277              		.global	LSM303AGR_ACC_R_Int1EnZHi
 7278              		.thumb
 7279              		.thumb_func
 7280              		.type	LSM303AGR_ACC_R_Int1EnZHi, %function
 7281              	LSM303AGR_ACC_R_Int1EnZHi:
 7282              	.LFB121:
 7283              		.loc 1 2518 0
 7284              		.cfi_startproc
 7285              		@ args = 0, pretend = 0, frame = 8
 7286              		@ frame_needed = 0, uses_anonymous_args = 0
 7287 2900 00B5     		push	{lr}
 7288              		.cfi_def_cfa_offset 4
 7289              		.cfi_offset 14, -4
 7290 2902 83B0     		sub	sp, sp, #12
 7291              		.cfi_def_cfa_offset 16
 7292 2904 0190     		str	r0, [sp, #4]
ARM GAS  /tmp/ccVYwGiK.s 			page 131


 7293 2906 0091     		str	r1, [sp]
 7294              		.loc 1 2519 0
 7295 2908 0198     		ldr	r0, [sp, #4]
 7296 290a 3021     		movs	r1, #48
 7297 290c 009A     		ldr	r2, [sp]
 7298 290e 0123     		movs	r3, #1
 7299 2910 FFF7FEFF 		bl	LSM303AGR_ACC_ReadReg
 7300 2914 0346     		mov	r3, r0
 7301 2916 002B     		cmp	r3, #0
 7302 2918 01D1     		bne	.L473
 7303              		.loc 1 2520 0
 7304 291a 0023     		movs	r3, #0
 7305 291c 07E0     		b	.L474
 7306              	.L473:
 7307              		.loc 1 2522 0
 7308 291e 009B     		ldr	r3, [sp]
 7309 2920 1B78     		ldrb	r3, [r3]	@ zero_extendqisi2
 7310 2922 03F02003 		and	r3, r3, #32
 7311 2926 DAB2     		uxtb	r2, r3
 7312 2928 009B     		ldr	r3, [sp]
 7313 292a 1A70     		strb	r2, [r3]
 7314              		.loc 1 2524 0
 7315 292c 0123     		movs	r3, #1
 7316              	.L474:
 7317              		.loc 1 2525 0
 7318 292e 1846     		mov	r0, r3
 7319 2930 03B0     		add	sp, sp, #12
 7320              		@ sp needed
 7321 2932 5DF804FB 		ldr	pc, [sp], #4
 7322              		.cfi_endproc
 7323              	.LFE121:
 7324              		.size	LSM303AGR_ACC_R_Int1EnZHi, .-LSM303AGR_ACC_R_Int1EnZHi
 7325 2936 00BF     		.align	2
 7326 2938 AFF30080 		.p2align 4,,15
 7326      AFF30080 
 7327              		.global	LSM303AGR_ACC_W_Int1_6D
 7328              		.thumb
 7329              		.thumb_func
 7330              		.type	LSM303AGR_ACC_W_Int1_6D, %function
 7331              	LSM303AGR_ACC_W_Int1_6D:
 7332              	.LFB122:
 7333              		.loc 1 2535 0
 7334              		.cfi_startproc
 7335              		@ args = 0, pretend = 0, frame = 16
 7336              		@ frame_needed = 0, uses_anonymous_args = 0
 7337 2940 00B5     		push	{lr}
 7338              		.cfi_def_cfa_offset 4
 7339              		.cfi_offset 14, -4
 7340 2942 85B0     		sub	sp, sp, #20
 7341              		.cfi_def_cfa_offset 24
 7342 2944 0190     		str	r0, [sp, #4]
 7343 2946 0B46     		mov	r3, r1
 7344 2948 8DF80330 		strb	r3, [sp, #3]
 7345              		.loc 1 2538 0
 7346 294c 0DF10F03 		add	r3, sp, #15
 7347 2950 0198     		ldr	r0, [sp, #4]
 7348 2952 3021     		movs	r1, #48
ARM GAS  /tmp/ccVYwGiK.s 			page 132


 7349 2954 1A46     		mov	r2, r3
 7350 2956 0123     		movs	r3, #1
 7351 2958 FFF7FEFF 		bl	LSM303AGR_ACC_ReadReg
 7352 295c 0346     		mov	r3, r0
 7353 295e 002B     		cmp	r3, #0
 7354 2960 01D1     		bne	.L476
 7355              		.loc 1 2539 0
 7356 2962 0023     		movs	r3, #0
 7357 2964 1CE0     		b	.L479
 7358              	.L476:
 7359              		.loc 1 2541 0
 7360 2966 9DF80F30 		ldrb	r3, [sp, #15]	@ zero_extendqisi2
 7361 296a 23F04003 		bic	r3, r3, #64
 7362 296e DBB2     		uxtb	r3, r3
 7363 2970 8DF80F30 		strb	r3, [sp, #15]
 7364              		.loc 1 2542 0
 7365 2974 9DF80F20 		ldrb	r2, [sp, #15]	@ zero_extendqisi2
 7366 2978 9DF80330 		ldrb	r3, [sp, #3]
 7367 297c 1343     		orrs	r3, r3, r2
 7368 297e DBB2     		uxtb	r3, r3
 7369 2980 8DF80F30 		strb	r3, [sp, #15]
 7370              		.loc 1 2544 0
 7371 2984 0DF10F03 		add	r3, sp, #15
 7372 2988 0198     		ldr	r0, [sp, #4]
 7373 298a 3021     		movs	r1, #48
 7374 298c 1A46     		mov	r2, r3
 7375 298e 0123     		movs	r3, #1
 7376 2990 FFF7FEFF 		bl	LSM303AGR_ACC_WriteReg
 7377 2994 0346     		mov	r3, r0
 7378 2996 002B     		cmp	r3, #0
 7379 2998 01D1     		bne	.L478
 7380              		.loc 1 2545 0
 7381 299a 0023     		movs	r3, #0
 7382 299c 00E0     		b	.L479
 7383              	.L478:
 7384              		.loc 1 2547 0
 7385 299e 0123     		movs	r3, #1
 7386              	.L479:
 7387              		.loc 1 2548 0
 7388 29a0 1846     		mov	r0, r3
 7389 29a2 05B0     		add	sp, sp, #20
 7390              		@ sp needed
 7391 29a4 5DF804FB 		ldr	pc, [sp], #4
 7392              		.cfi_endproc
 7393              	.LFE122:
 7394              		.size	LSM303AGR_ACC_W_Int1_6D, .-LSM303AGR_ACC_W_Int1_6D
 7395              		.align	2
 7396 29a8 AFF30080 		.p2align 4,,15
 7396      AFF30080 
 7397              		.global	LSM303AGR_ACC_R_Int1_6D
 7398              		.thumb
 7399              		.thumb_func
 7400              		.type	LSM303AGR_ACC_R_Int1_6D, %function
 7401              	LSM303AGR_ACC_R_Int1_6D:
 7402              	.LFB123:
 7403              		.loc 1 2558 0
 7404              		.cfi_startproc
ARM GAS  /tmp/ccVYwGiK.s 			page 133


 7405              		@ args = 0, pretend = 0, frame = 8
 7406              		@ frame_needed = 0, uses_anonymous_args = 0
 7407 29b0 00B5     		push	{lr}
 7408              		.cfi_def_cfa_offset 4
 7409              		.cfi_offset 14, -4
 7410 29b2 83B0     		sub	sp, sp, #12
 7411              		.cfi_def_cfa_offset 16
 7412 29b4 0190     		str	r0, [sp, #4]
 7413 29b6 0091     		str	r1, [sp]
 7414              		.loc 1 2559 0
 7415 29b8 0198     		ldr	r0, [sp, #4]
 7416 29ba 3021     		movs	r1, #48
 7417 29bc 009A     		ldr	r2, [sp]
 7418 29be 0123     		movs	r3, #1
 7419 29c0 FFF7FEFF 		bl	LSM303AGR_ACC_ReadReg
 7420 29c4 0346     		mov	r3, r0
 7421 29c6 002B     		cmp	r3, #0
 7422 29c8 01D1     		bne	.L481
 7423              		.loc 1 2560 0
 7424 29ca 0023     		movs	r3, #0
 7425 29cc 07E0     		b	.L482
 7426              	.L481:
 7427              		.loc 1 2562 0
 7428 29ce 009B     		ldr	r3, [sp]
 7429 29d0 1B78     		ldrb	r3, [r3]	@ zero_extendqisi2
 7430 29d2 03F04003 		and	r3, r3, #64
 7431 29d6 DAB2     		uxtb	r2, r3
 7432 29d8 009B     		ldr	r3, [sp]
 7433 29da 1A70     		strb	r2, [r3]
 7434              		.loc 1 2564 0
 7435 29dc 0123     		movs	r3, #1
 7436              	.L482:
 7437              		.loc 1 2565 0
 7438 29de 1846     		mov	r0, r3
 7439 29e0 03B0     		add	sp, sp, #12
 7440              		@ sp needed
 7441 29e2 5DF804FB 		ldr	pc, [sp], #4
 7442              		.cfi_endproc
 7443              	.LFE123:
 7444              		.size	LSM303AGR_ACC_R_Int1_6D, .-LSM303AGR_ACC_R_Int1_6D
 7445 29e6 00BF     		.align	2
 7446 29e8 AFF30080 		.p2align 4,,15
 7446      AFF30080 
 7447              		.global	LSM303AGR_ACC_W_Int1_AOI
 7448              		.thumb
 7449              		.thumb_func
 7450              		.type	LSM303AGR_ACC_W_Int1_AOI, %function
 7451              	LSM303AGR_ACC_W_Int1_AOI:
 7452              	.LFB124:
 7453              		.loc 1 2575 0
 7454              		.cfi_startproc
 7455              		@ args = 0, pretend = 0, frame = 16
 7456              		@ frame_needed = 0, uses_anonymous_args = 0
 7457 29f0 00B5     		push	{lr}
 7458              		.cfi_def_cfa_offset 4
 7459              		.cfi_offset 14, -4
 7460 29f2 85B0     		sub	sp, sp, #20
ARM GAS  /tmp/ccVYwGiK.s 			page 134


 7461              		.cfi_def_cfa_offset 24
 7462 29f4 0190     		str	r0, [sp, #4]
 7463 29f6 0B46     		mov	r3, r1
 7464 29f8 8DF80330 		strb	r3, [sp, #3]
 7465              		.loc 1 2578 0
 7466 29fc 0DF10F03 		add	r3, sp, #15
 7467 2a00 0198     		ldr	r0, [sp, #4]
 7468 2a02 3021     		movs	r1, #48
 7469 2a04 1A46     		mov	r2, r3
 7470 2a06 0123     		movs	r3, #1
 7471 2a08 FFF7FEFF 		bl	LSM303AGR_ACC_ReadReg
 7472 2a0c 0346     		mov	r3, r0
 7473 2a0e 002B     		cmp	r3, #0
 7474 2a10 01D1     		bne	.L484
 7475              		.loc 1 2579 0
 7476 2a12 0023     		movs	r3, #0
 7477 2a14 1CE0     		b	.L487
 7478              	.L484:
 7479              		.loc 1 2581 0
 7480 2a16 9DF80F30 		ldrb	r3, [sp, #15]	@ zero_extendqisi2
 7481 2a1a 03F07F03 		and	r3, r3, #127
 7482 2a1e DBB2     		uxtb	r3, r3
 7483 2a20 8DF80F30 		strb	r3, [sp, #15]
 7484              		.loc 1 2582 0
 7485 2a24 9DF80F20 		ldrb	r2, [sp, #15]	@ zero_extendqisi2
 7486 2a28 9DF80330 		ldrb	r3, [sp, #3]
 7487 2a2c 1343     		orrs	r3, r3, r2
 7488 2a2e DBB2     		uxtb	r3, r3
 7489 2a30 8DF80F30 		strb	r3, [sp, #15]
 7490              		.loc 1 2584 0
 7491 2a34 0DF10F03 		add	r3, sp, #15
 7492 2a38 0198     		ldr	r0, [sp, #4]
 7493 2a3a 3021     		movs	r1, #48
 7494 2a3c 1A46     		mov	r2, r3
 7495 2a3e 0123     		movs	r3, #1
 7496 2a40 FFF7FEFF 		bl	LSM303AGR_ACC_WriteReg
 7497 2a44 0346     		mov	r3, r0
 7498 2a46 002B     		cmp	r3, #0
 7499 2a48 01D1     		bne	.L486
 7500              		.loc 1 2585 0
 7501 2a4a 0023     		movs	r3, #0
 7502 2a4c 00E0     		b	.L487
 7503              	.L486:
 7504              		.loc 1 2587 0
 7505 2a4e 0123     		movs	r3, #1
 7506              	.L487:
 7507              		.loc 1 2588 0
 7508 2a50 1846     		mov	r0, r3
 7509 2a52 05B0     		add	sp, sp, #20
 7510              		@ sp needed
 7511 2a54 5DF804FB 		ldr	pc, [sp], #4
 7512              		.cfi_endproc
 7513              	.LFE124:
 7514              		.size	LSM303AGR_ACC_W_Int1_AOI, .-LSM303AGR_ACC_W_Int1_AOI
 7515              		.align	2
 7516 2a58 AFF30080 		.p2align 4,,15
 7516      AFF30080 
ARM GAS  /tmp/ccVYwGiK.s 			page 135


 7517              		.global	LSM303AGR_ACC_R_Int1_AOI
 7518              		.thumb
 7519              		.thumb_func
 7520              		.type	LSM303AGR_ACC_R_Int1_AOI, %function
 7521              	LSM303AGR_ACC_R_Int1_AOI:
 7522              	.LFB125:
 7523              		.loc 1 2598 0
 7524              		.cfi_startproc
 7525              		@ args = 0, pretend = 0, frame = 8
 7526              		@ frame_needed = 0, uses_anonymous_args = 0
 7527 2a60 00B5     		push	{lr}
 7528              		.cfi_def_cfa_offset 4
 7529              		.cfi_offset 14, -4
 7530 2a62 83B0     		sub	sp, sp, #12
 7531              		.cfi_def_cfa_offset 16
 7532 2a64 0190     		str	r0, [sp, #4]
 7533 2a66 0091     		str	r1, [sp]
 7534              		.loc 1 2599 0
 7535 2a68 0198     		ldr	r0, [sp, #4]
 7536 2a6a 3021     		movs	r1, #48
 7537 2a6c 009A     		ldr	r2, [sp]
 7538 2a6e 0123     		movs	r3, #1
 7539 2a70 FFF7FEFF 		bl	LSM303AGR_ACC_ReadReg
 7540 2a74 0346     		mov	r3, r0
 7541 2a76 002B     		cmp	r3, #0
 7542 2a78 01D1     		bne	.L489
 7543              		.loc 1 2600 0
 7544 2a7a 0023     		movs	r3, #0
 7545 2a7c 07E0     		b	.L490
 7546              	.L489:
 7547              		.loc 1 2602 0
 7548 2a7e 009B     		ldr	r3, [sp]
 7549 2a80 1B78     		ldrb	r3, [r3]	@ zero_extendqisi2
 7550 2a82 23F07F03 		bic	r3, r3, #127
 7551 2a86 DAB2     		uxtb	r2, r3
 7552 2a88 009B     		ldr	r3, [sp]
 7553 2a8a 1A70     		strb	r2, [r3]
 7554              		.loc 1 2604 0
 7555 2a8c 0123     		movs	r3, #1
 7556              	.L490:
 7557              		.loc 1 2605 0
 7558 2a8e 1846     		mov	r0, r3
 7559 2a90 03B0     		add	sp, sp, #12
 7560              		@ sp needed
 7561 2a92 5DF804FB 		ldr	pc, [sp], #4
 7562              		.cfi_endproc
 7563              	.LFE125:
 7564              		.size	LSM303AGR_ACC_R_Int1_AOI, .-LSM303AGR_ACC_R_Int1_AOI
 7565 2a96 00BF     		.align	2
 7566 2a98 AFF30080 		.p2align 4,,15
 7566      AFF30080 
 7567              		.global	LSM303AGR_ACC_W_Int2EnXLo
 7568              		.thumb
 7569              		.thumb_func
 7570              		.type	LSM303AGR_ACC_W_Int2EnXLo, %function
 7571              	LSM303AGR_ACC_W_Int2EnXLo:
 7572              	.LFB126:
ARM GAS  /tmp/ccVYwGiK.s 			page 136


 7573              		.loc 1 2615 0
 7574              		.cfi_startproc
 7575              		@ args = 0, pretend = 0, frame = 16
 7576              		@ frame_needed = 0, uses_anonymous_args = 0
 7577 2aa0 00B5     		push	{lr}
 7578              		.cfi_def_cfa_offset 4
 7579              		.cfi_offset 14, -4
 7580 2aa2 85B0     		sub	sp, sp, #20
 7581              		.cfi_def_cfa_offset 24
 7582 2aa4 0190     		str	r0, [sp, #4]
 7583 2aa6 0B46     		mov	r3, r1
 7584 2aa8 8DF80330 		strb	r3, [sp, #3]
 7585              		.loc 1 2618 0
 7586 2aac 0DF10F03 		add	r3, sp, #15
 7587 2ab0 0198     		ldr	r0, [sp, #4]
 7588 2ab2 3421     		movs	r1, #52
 7589 2ab4 1A46     		mov	r2, r3
 7590 2ab6 0123     		movs	r3, #1
 7591 2ab8 FFF7FEFF 		bl	LSM303AGR_ACC_ReadReg
 7592 2abc 0346     		mov	r3, r0
 7593 2abe 002B     		cmp	r3, #0
 7594 2ac0 01D1     		bne	.L492
 7595              		.loc 1 2619 0
 7596 2ac2 0023     		movs	r3, #0
 7597 2ac4 1CE0     		b	.L495
 7598              	.L492:
 7599              		.loc 1 2621 0
 7600 2ac6 9DF80F30 		ldrb	r3, [sp, #15]	@ zero_extendqisi2
 7601 2aca 23F00103 		bic	r3, r3, #1
 7602 2ace DBB2     		uxtb	r3, r3
 7603 2ad0 8DF80F30 		strb	r3, [sp, #15]
 7604              		.loc 1 2622 0
 7605 2ad4 9DF80F20 		ldrb	r2, [sp, #15]	@ zero_extendqisi2
 7606 2ad8 9DF80330 		ldrb	r3, [sp, #3]
 7607 2adc 1343     		orrs	r3, r3, r2
 7608 2ade DBB2     		uxtb	r3, r3
 7609 2ae0 8DF80F30 		strb	r3, [sp, #15]
 7610              		.loc 1 2624 0
 7611 2ae4 0DF10F03 		add	r3, sp, #15
 7612 2ae8 0198     		ldr	r0, [sp, #4]
 7613 2aea 3421     		movs	r1, #52
 7614 2aec 1A46     		mov	r2, r3
 7615 2aee 0123     		movs	r3, #1
 7616 2af0 FFF7FEFF 		bl	LSM303AGR_ACC_WriteReg
 7617 2af4 0346     		mov	r3, r0
 7618 2af6 002B     		cmp	r3, #0
 7619 2af8 01D1     		bne	.L494
 7620              		.loc 1 2625 0
 7621 2afa 0023     		movs	r3, #0
 7622 2afc 00E0     		b	.L495
 7623              	.L494:
 7624              		.loc 1 2627 0
 7625 2afe 0123     		movs	r3, #1
 7626              	.L495:
 7627              		.loc 1 2628 0
 7628 2b00 1846     		mov	r0, r3
 7629 2b02 05B0     		add	sp, sp, #20
ARM GAS  /tmp/ccVYwGiK.s 			page 137


 7630              		@ sp needed
 7631 2b04 5DF804FB 		ldr	pc, [sp], #4
 7632              		.cfi_endproc
 7633              	.LFE126:
 7634              		.size	LSM303AGR_ACC_W_Int2EnXLo, .-LSM303AGR_ACC_W_Int2EnXLo
 7635              		.align	2
 7636 2b08 AFF30080 		.p2align 4,,15
 7636      AFF30080 
 7637              		.global	LSM303AGR_ACC_R_Int2EnXLo
 7638              		.thumb
 7639              		.thumb_func
 7640              		.type	LSM303AGR_ACC_R_Int2EnXLo, %function
 7641              	LSM303AGR_ACC_R_Int2EnXLo:
 7642              	.LFB127:
 7643              		.loc 1 2638 0
 7644              		.cfi_startproc
 7645              		@ args = 0, pretend = 0, frame = 8
 7646              		@ frame_needed = 0, uses_anonymous_args = 0
 7647 2b10 00B5     		push	{lr}
 7648              		.cfi_def_cfa_offset 4
 7649              		.cfi_offset 14, -4
 7650 2b12 83B0     		sub	sp, sp, #12
 7651              		.cfi_def_cfa_offset 16
 7652 2b14 0190     		str	r0, [sp, #4]
 7653 2b16 0091     		str	r1, [sp]
 7654              		.loc 1 2639 0
 7655 2b18 0198     		ldr	r0, [sp, #4]
 7656 2b1a 3421     		movs	r1, #52
 7657 2b1c 009A     		ldr	r2, [sp]
 7658 2b1e 0123     		movs	r3, #1
 7659 2b20 FFF7FEFF 		bl	LSM303AGR_ACC_ReadReg
 7660 2b24 0346     		mov	r3, r0
 7661 2b26 002B     		cmp	r3, #0
 7662 2b28 01D1     		bne	.L497
 7663              		.loc 1 2640 0
 7664 2b2a 0023     		movs	r3, #0
 7665 2b2c 07E0     		b	.L498
 7666              	.L497:
 7667              		.loc 1 2642 0
 7668 2b2e 009B     		ldr	r3, [sp]
 7669 2b30 1B78     		ldrb	r3, [r3]	@ zero_extendqisi2
 7670 2b32 03F00103 		and	r3, r3, #1
 7671 2b36 DAB2     		uxtb	r2, r3
 7672 2b38 009B     		ldr	r3, [sp]
 7673 2b3a 1A70     		strb	r2, [r3]
 7674              		.loc 1 2644 0
 7675 2b3c 0123     		movs	r3, #1
 7676              	.L498:
 7677              		.loc 1 2645 0
 7678 2b3e 1846     		mov	r0, r3
 7679 2b40 03B0     		add	sp, sp, #12
 7680              		@ sp needed
 7681 2b42 5DF804FB 		ldr	pc, [sp], #4
 7682              		.cfi_endproc
 7683              	.LFE127:
 7684              		.size	LSM303AGR_ACC_R_Int2EnXLo, .-LSM303AGR_ACC_R_Int2EnXLo
 7685 2b46 00BF     		.align	2
ARM GAS  /tmp/ccVYwGiK.s 			page 138


 7686 2b48 AFF30080 		.p2align 4,,15
 7686      AFF30080 
 7687              		.global	LSM303AGR_ACC_W_Int2EnXHi
 7688              		.thumb
 7689              		.thumb_func
 7690              		.type	LSM303AGR_ACC_W_Int2EnXHi, %function
 7691              	LSM303AGR_ACC_W_Int2EnXHi:
 7692              	.LFB128:
 7693              		.loc 1 2655 0
 7694              		.cfi_startproc
 7695              		@ args = 0, pretend = 0, frame = 16
 7696              		@ frame_needed = 0, uses_anonymous_args = 0
 7697 2b50 00B5     		push	{lr}
 7698              		.cfi_def_cfa_offset 4
 7699              		.cfi_offset 14, -4
 7700 2b52 85B0     		sub	sp, sp, #20
 7701              		.cfi_def_cfa_offset 24
 7702 2b54 0190     		str	r0, [sp, #4]
 7703 2b56 0B46     		mov	r3, r1
 7704 2b58 8DF80330 		strb	r3, [sp, #3]
 7705              		.loc 1 2658 0
 7706 2b5c 0DF10F03 		add	r3, sp, #15
 7707 2b60 0198     		ldr	r0, [sp, #4]
 7708 2b62 3421     		movs	r1, #52
 7709 2b64 1A46     		mov	r2, r3
 7710 2b66 0123     		movs	r3, #1
 7711 2b68 FFF7FEFF 		bl	LSM303AGR_ACC_ReadReg
 7712 2b6c 0346     		mov	r3, r0
 7713 2b6e 002B     		cmp	r3, #0
 7714 2b70 01D1     		bne	.L500
 7715              		.loc 1 2659 0
 7716 2b72 0023     		movs	r3, #0
 7717 2b74 1CE0     		b	.L503
 7718              	.L500:
 7719              		.loc 1 2661 0
 7720 2b76 9DF80F30 		ldrb	r3, [sp, #15]	@ zero_extendqisi2
 7721 2b7a 23F00203 		bic	r3, r3, #2
 7722 2b7e DBB2     		uxtb	r3, r3
 7723 2b80 8DF80F30 		strb	r3, [sp, #15]
 7724              		.loc 1 2662 0
 7725 2b84 9DF80F20 		ldrb	r2, [sp, #15]	@ zero_extendqisi2
 7726 2b88 9DF80330 		ldrb	r3, [sp, #3]
 7727 2b8c 1343     		orrs	r3, r3, r2
 7728 2b8e DBB2     		uxtb	r3, r3
 7729 2b90 8DF80F30 		strb	r3, [sp, #15]
 7730              		.loc 1 2664 0
 7731 2b94 0DF10F03 		add	r3, sp, #15
 7732 2b98 0198     		ldr	r0, [sp, #4]
 7733 2b9a 3421     		movs	r1, #52
 7734 2b9c 1A46     		mov	r2, r3
 7735 2b9e 0123     		movs	r3, #1
 7736 2ba0 FFF7FEFF 		bl	LSM303AGR_ACC_WriteReg
 7737 2ba4 0346     		mov	r3, r0
 7738 2ba6 002B     		cmp	r3, #0
 7739 2ba8 01D1     		bne	.L502
 7740              		.loc 1 2665 0
 7741 2baa 0023     		movs	r3, #0
ARM GAS  /tmp/ccVYwGiK.s 			page 139


 7742 2bac 00E0     		b	.L503
 7743              	.L502:
 7744              		.loc 1 2667 0
 7745 2bae 0123     		movs	r3, #1
 7746              	.L503:
 7747              		.loc 1 2668 0
 7748 2bb0 1846     		mov	r0, r3
 7749 2bb2 05B0     		add	sp, sp, #20
 7750              		@ sp needed
 7751 2bb4 5DF804FB 		ldr	pc, [sp], #4
 7752              		.cfi_endproc
 7753              	.LFE128:
 7754              		.size	LSM303AGR_ACC_W_Int2EnXHi, .-LSM303AGR_ACC_W_Int2EnXHi
 7755              		.align	2
 7756 2bb8 AFF30080 		.p2align 4,,15
 7756      AFF30080 
 7757              		.global	LSM303AGR_ACC_R_Int2EnXHi
 7758              		.thumb
 7759              		.thumb_func
 7760              		.type	LSM303AGR_ACC_R_Int2EnXHi, %function
 7761              	LSM303AGR_ACC_R_Int2EnXHi:
 7762              	.LFB129:
 7763              		.loc 1 2678 0
 7764              		.cfi_startproc
 7765              		@ args = 0, pretend = 0, frame = 8
 7766              		@ frame_needed = 0, uses_anonymous_args = 0
 7767 2bc0 00B5     		push	{lr}
 7768              		.cfi_def_cfa_offset 4
 7769              		.cfi_offset 14, -4
 7770 2bc2 83B0     		sub	sp, sp, #12
 7771              		.cfi_def_cfa_offset 16
 7772 2bc4 0190     		str	r0, [sp, #4]
 7773 2bc6 0091     		str	r1, [sp]
 7774              		.loc 1 2679 0
 7775 2bc8 0198     		ldr	r0, [sp, #4]
 7776 2bca 3421     		movs	r1, #52
 7777 2bcc 009A     		ldr	r2, [sp]
 7778 2bce 0123     		movs	r3, #1
 7779 2bd0 FFF7FEFF 		bl	LSM303AGR_ACC_ReadReg
 7780 2bd4 0346     		mov	r3, r0
 7781 2bd6 002B     		cmp	r3, #0
 7782 2bd8 01D1     		bne	.L505
 7783              		.loc 1 2680 0
 7784 2bda 0023     		movs	r3, #0
 7785 2bdc 07E0     		b	.L506
 7786              	.L505:
 7787              		.loc 1 2682 0
 7788 2bde 009B     		ldr	r3, [sp]
 7789 2be0 1B78     		ldrb	r3, [r3]	@ zero_extendqisi2
 7790 2be2 03F00203 		and	r3, r3, #2
 7791 2be6 DAB2     		uxtb	r2, r3
 7792 2be8 009B     		ldr	r3, [sp]
 7793 2bea 1A70     		strb	r2, [r3]
 7794              		.loc 1 2684 0
 7795 2bec 0123     		movs	r3, #1
 7796              	.L506:
 7797              		.loc 1 2685 0
ARM GAS  /tmp/ccVYwGiK.s 			page 140


 7798 2bee 1846     		mov	r0, r3
 7799 2bf0 03B0     		add	sp, sp, #12
 7800              		@ sp needed
 7801 2bf2 5DF804FB 		ldr	pc, [sp], #4
 7802              		.cfi_endproc
 7803              	.LFE129:
 7804              		.size	LSM303AGR_ACC_R_Int2EnXHi, .-LSM303AGR_ACC_R_Int2EnXHi
 7805 2bf6 00BF     		.align	2
 7806 2bf8 AFF30080 		.p2align 4,,15
 7806      AFF30080 
 7807              		.global	LSM303AGR_ACC_W_Int2EnYLo
 7808              		.thumb
 7809              		.thumb_func
 7810              		.type	LSM303AGR_ACC_W_Int2EnYLo, %function
 7811              	LSM303AGR_ACC_W_Int2EnYLo:
 7812              	.LFB130:
 7813              		.loc 1 2695 0
 7814              		.cfi_startproc
 7815              		@ args = 0, pretend = 0, frame = 16
 7816              		@ frame_needed = 0, uses_anonymous_args = 0
 7817 2c00 00B5     		push	{lr}
 7818              		.cfi_def_cfa_offset 4
 7819              		.cfi_offset 14, -4
 7820 2c02 85B0     		sub	sp, sp, #20
 7821              		.cfi_def_cfa_offset 24
 7822 2c04 0190     		str	r0, [sp, #4]
 7823 2c06 0B46     		mov	r3, r1
 7824 2c08 8DF80330 		strb	r3, [sp, #3]
 7825              		.loc 1 2698 0
 7826 2c0c 0DF10F03 		add	r3, sp, #15
 7827 2c10 0198     		ldr	r0, [sp, #4]
 7828 2c12 3421     		movs	r1, #52
 7829 2c14 1A46     		mov	r2, r3
 7830 2c16 0123     		movs	r3, #1
 7831 2c18 FFF7FEFF 		bl	LSM303AGR_ACC_ReadReg
 7832 2c1c 0346     		mov	r3, r0
 7833 2c1e 002B     		cmp	r3, #0
 7834 2c20 01D1     		bne	.L508
 7835              		.loc 1 2699 0
 7836 2c22 0023     		movs	r3, #0
 7837 2c24 1CE0     		b	.L511
 7838              	.L508:
 7839              		.loc 1 2701 0
 7840 2c26 9DF80F30 		ldrb	r3, [sp, #15]	@ zero_extendqisi2
 7841 2c2a 23F00403 		bic	r3, r3, #4
 7842 2c2e DBB2     		uxtb	r3, r3
 7843 2c30 8DF80F30 		strb	r3, [sp, #15]
 7844              		.loc 1 2702 0
 7845 2c34 9DF80F20 		ldrb	r2, [sp, #15]	@ zero_extendqisi2
 7846 2c38 9DF80330 		ldrb	r3, [sp, #3]
 7847 2c3c 1343     		orrs	r3, r3, r2
 7848 2c3e DBB2     		uxtb	r3, r3
 7849 2c40 8DF80F30 		strb	r3, [sp, #15]
 7850              		.loc 1 2704 0
 7851 2c44 0DF10F03 		add	r3, sp, #15
 7852 2c48 0198     		ldr	r0, [sp, #4]
 7853 2c4a 3421     		movs	r1, #52
ARM GAS  /tmp/ccVYwGiK.s 			page 141


 7854 2c4c 1A46     		mov	r2, r3
 7855 2c4e 0123     		movs	r3, #1
 7856 2c50 FFF7FEFF 		bl	LSM303AGR_ACC_WriteReg
 7857 2c54 0346     		mov	r3, r0
 7858 2c56 002B     		cmp	r3, #0
 7859 2c58 01D1     		bne	.L510
 7860              		.loc 1 2705 0
 7861 2c5a 0023     		movs	r3, #0
 7862 2c5c 00E0     		b	.L511
 7863              	.L510:
 7864              		.loc 1 2707 0
 7865 2c5e 0123     		movs	r3, #1
 7866              	.L511:
 7867              		.loc 1 2708 0
 7868 2c60 1846     		mov	r0, r3
 7869 2c62 05B0     		add	sp, sp, #20
 7870              		@ sp needed
 7871 2c64 5DF804FB 		ldr	pc, [sp], #4
 7872              		.cfi_endproc
 7873              	.LFE130:
 7874              		.size	LSM303AGR_ACC_W_Int2EnYLo, .-LSM303AGR_ACC_W_Int2EnYLo
 7875              		.align	2
 7876 2c68 AFF30080 		.p2align 4,,15
 7876      AFF30080 
 7877              		.global	LSM303AGR_ACC_R_Int2EnYLo
 7878              		.thumb
 7879              		.thumb_func
 7880              		.type	LSM303AGR_ACC_R_Int2EnYLo, %function
 7881              	LSM303AGR_ACC_R_Int2EnYLo:
 7882              	.LFB131:
 7883              		.loc 1 2718 0
 7884              		.cfi_startproc
 7885              		@ args = 0, pretend = 0, frame = 8
 7886              		@ frame_needed = 0, uses_anonymous_args = 0
 7887 2c70 00B5     		push	{lr}
 7888              		.cfi_def_cfa_offset 4
 7889              		.cfi_offset 14, -4
 7890 2c72 83B0     		sub	sp, sp, #12
 7891              		.cfi_def_cfa_offset 16
 7892 2c74 0190     		str	r0, [sp, #4]
 7893 2c76 0091     		str	r1, [sp]
 7894              		.loc 1 2719 0
 7895 2c78 0198     		ldr	r0, [sp, #4]
 7896 2c7a 3421     		movs	r1, #52
 7897 2c7c 009A     		ldr	r2, [sp]
 7898 2c7e 0123     		movs	r3, #1
 7899 2c80 FFF7FEFF 		bl	LSM303AGR_ACC_ReadReg
 7900 2c84 0346     		mov	r3, r0
 7901 2c86 002B     		cmp	r3, #0
 7902 2c88 01D1     		bne	.L513
 7903              		.loc 1 2720 0
 7904 2c8a 0023     		movs	r3, #0
 7905 2c8c 07E0     		b	.L514
 7906              	.L513:
 7907              		.loc 1 2722 0
 7908 2c8e 009B     		ldr	r3, [sp]
 7909 2c90 1B78     		ldrb	r3, [r3]	@ zero_extendqisi2
ARM GAS  /tmp/ccVYwGiK.s 			page 142


 7910 2c92 03F00403 		and	r3, r3, #4
 7911 2c96 DAB2     		uxtb	r2, r3
 7912 2c98 009B     		ldr	r3, [sp]
 7913 2c9a 1A70     		strb	r2, [r3]
 7914              		.loc 1 2724 0
 7915 2c9c 0123     		movs	r3, #1
 7916              	.L514:
 7917              		.loc 1 2725 0
 7918 2c9e 1846     		mov	r0, r3
 7919 2ca0 03B0     		add	sp, sp, #12
 7920              		@ sp needed
 7921 2ca2 5DF804FB 		ldr	pc, [sp], #4
 7922              		.cfi_endproc
 7923              	.LFE131:
 7924              		.size	LSM303AGR_ACC_R_Int2EnYLo, .-LSM303AGR_ACC_R_Int2EnYLo
 7925 2ca6 00BF     		.align	2
 7926 2ca8 AFF30080 		.p2align 4,,15
 7926      AFF30080 
 7927              		.global	LSM303AGR_ACC_W_Int2EnYHi
 7928              		.thumb
 7929              		.thumb_func
 7930              		.type	LSM303AGR_ACC_W_Int2EnYHi, %function
 7931              	LSM303AGR_ACC_W_Int2EnYHi:
 7932              	.LFB132:
 7933              		.loc 1 2735 0
 7934              		.cfi_startproc
 7935              		@ args = 0, pretend = 0, frame = 16
 7936              		@ frame_needed = 0, uses_anonymous_args = 0
 7937 2cb0 00B5     		push	{lr}
 7938              		.cfi_def_cfa_offset 4
 7939              		.cfi_offset 14, -4
 7940 2cb2 85B0     		sub	sp, sp, #20
 7941              		.cfi_def_cfa_offset 24
 7942 2cb4 0190     		str	r0, [sp, #4]
 7943 2cb6 0B46     		mov	r3, r1
 7944 2cb8 8DF80330 		strb	r3, [sp, #3]
 7945              		.loc 1 2738 0
 7946 2cbc 0DF10F03 		add	r3, sp, #15
 7947 2cc0 0198     		ldr	r0, [sp, #4]
 7948 2cc2 3421     		movs	r1, #52
 7949 2cc4 1A46     		mov	r2, r3
 7950 2cc6 0123     		movs	r3, #1
 7951 2cc8 FFF7FEFF 		bl	LSM303AGR_ACC_ReadReg
 7952 2ccc 0346     		mov	r3, r0
 7953 2cce 002B     		cmp	r3, #0
 7954 2cd0 01D1     		bne	.L516
 7955              		.loc 1 2739 0
 7956 2cd2 0023     		movs	r3, #0
 7957 2cd4 1CE0     		b	.L519
 7958              	.L516:
 7959              		.loc 1 2741 0
 7960 2cd6 9DF80F30 		ldrb	r3, [sp, #15]	@ zero_extendqisi2
 7961 2cda 23F00803 		bic	r3, r3, #8
 7962 2cde DBB2     		uxtb	r3, r3
 7963 2ce0 8DF80F30 		strb	r3, [sp, #15]
 7964              		.loc 1 2742 0
 7965 2ce4 9DF80F20 		ldrb	r2, [sp, #15]	@ zero_extendqisi2
ARM GAS  /tmp/ccVYwGiK.s 			page 143


 7966 2ce8 9DF80330 		ldrb	r3, [sp, #3]
 7967 2cec 1343     		orrs	r3, r3, r2
 7968 2cee DBB2     		uxtb	r3, r3
 7969 2cf0 8DF80F30 		strb	r3, [sp, #15]
 7970              		.loc 1 2744 0
 7971 2cf4 0DF10F03 		add	r3, sp, #15
 7972 2cf8 0198     		ldr	r0, [sp, #4]
 7973 2cfa 3421     		movs	r1, #52
 7974 2cfc 1A46     		mov	r2, r3
 7975 2cfe 0123     		movs	r3, #1
 7976 2d00 FFF7FEFF 		bl	LSM303AGR_ACC_WriteReg
 7977 2d04 0346     		mov	r3, r0
 7978 2d06 002B     		cmp	r3, #0
 7979 2d08 01D1     		bne	.L518
 7980              		.loc 1 2745 0
 7981 2d0a 0023     		movs	r3, #0
 7982 2d0c 00E0     		b	.L519
 7983              	.L518:
 7984              		.loc 1 2747 0
 7985 2d0e 0123     		movs	r3, #1
 7986              	.L519:
 7987              		.loc 1 2748 0
 7988 2d10 1846     		mov	r0, r3
 7989 2d12 05B0     		add	sp, sp, #20
 7990              		@ sp needed
 7991 2d14 5DF804FB 		ldr	pc, [sp], #4
 7992              		.cfi_endproc
 7993              	.LFE132:
 7994              		.size	LSM303AGR_ACC_W_Int2EnYHi, .-LSM303AGR_ACC_W_Int2EnYHi
 7995              		.align	2
 7996 2d18 AFF30080 		.p2align 4,,15
 7996      AFF30080 
 7997              		.global	LSM303AGR_ACC_R_Int2EnYHi
 7998              		.thumb
 7999              		.thumb_func
 8000              		.type	LSM303AGR_ACC_R_Int2EnYHi, %function
 8001              	LSM303AGR_ACC_R_Int2EnYHi:
 8002              	.LFB133:
 8003              		.loc 1 2758 0
 8004              		.cfi_startproc
 8005              		@ args = 0, pretend = 0, frame = 8
 8006              		@ frame_needed = 0, uses_anonymous_args = 0
 8007 2d20 00B5     		push	{lr}
 8008              		.cfi_def_cfa_offset 4
 8009              		.cfi_offset 14, -4
 8010 2d22 83B0     		sub	sp, sp, #12
 8011              		.cfi_def_cfa_offset 16
 8012 2d24 0190     		str	r0, [sp, #4]
 8013 2d26 0091     		str	r1, [sp]
 8014              		.loc 1 2759 0
 8015 2d28 0198     		ldr	r0, [sp, #4]
 8016 2d2a 3421     		movs	r1, #52
 8017 2d2c 009A     		ldr	r2, [sp]
 8018 2d2e 0123     		movs	r3, #1
 8019 2d30 FFF7FEFF 		bl	LSM303AGR_ACC_ReadReg
 8020 2d34 0346     		mov	r3, r0
 8021 2d36 002B     		cmp	r3, #0
ARM GAS  /tmp/ccVYwGiK.s 			page 144


 8022 2d38 01D1     		bne	.L521
 8023              		.loc 1 2760 0
 8024 2d3a 0023     		movs	r3, #0
 8025 2d3c 07E0     		b	.L522
 8026              	.L521:
 8027              		.loc 1 2762 0
 8028 2d3e 009B     		ldr	r3, [sp]
 8029 2d40 1B78     		ldrb	r3, [r3]	@ zero_extendqisi2
 8030 2d42 03F00803 		and	r3, r3, #8
 8031 2d46 DAB2     		uxtb	r2, r3
 8032 2d48 009B     		ldr	r3, [sp]
 8033 2d4a 1A70     		strb	r2, [r3]
 8034              		.loc 1 2764 0
 8035 2d4c 0123     		movs	r3, #1
 8036              	.L522:
 8037              		.loc 1 2765 0
 8038 2d4e 1846     		mov	r0, r3
 8039 2d50 03B0     		add	sp, sp, #12
 8040              		@ sp needed
 8041 2d52 5DF804FB 		ldr	pc, [sp], #4
 8042              		.cfi_endproc
 8043              	.LFE133:
 8044              		.size	LSM303AGR_ACC_R_Int2EnYHi, .-LSM303AGR_ACC_R_Int2EnYHi
 8045 2d56 00BF     		.align	2
 8046 2d58 AFF30080 		.p2align 4,,15
 8046      AFF30080 
 8047              		.global	LSM303AGR_ACC_W_Int2EnZLo
 8048              		.thumb
 8049              		.thumb_func
 8050              		.type	LSM303AGR_ACC_W_Int2EnZLo, %function
 8051              	LSM303AGR_ACC_W_Int2EnZLo:
 8052              	.LFB134:
 8053              		.loc 1 2775 0
 8054              		.cfi_startproc
 8055              		@ args = 0, pretend = 0, frame = 16
 8056              		@ frame_needed = 0, uses_anonymous_args = 0
 8057 2d60 00B5     		push	{lr}
 8058              		.cfi_def_cfa_offset 4
 8059              		.cfi_offset 14, -4
 8060 2d62 85B0     		sub	sp, sp, #20
 8061              		.cfi_def_cfa_offset 24
 8062 2d64 0190     		str	r0, [sp, #4]
 8063 2d66 0B46     		mov	r3, r1
 8064 2d68 8DF80330 		strb	r3, [sp, #3]
 8065              		.loc 1 2778 0
 8066 2d6c 0DF10F03 		add	r3, sp, #15
 8067 2d70 0198     		ldr	r0, [sp, #4]
 8068 2d72 3421     		movs	r1, #52
 8069 2d74 1A46     		mov	r2, r3
 8070 2d76 0123     		movs	r3, #1
 8071 2d78 FFF7FEFF 		bl	LSM303AGR_ACC_ReadReg
 8072 2d7c 0346     		mov	r3, r0
 8073 2d7e 002B     		cmp	r3, #0
 8074 2d80 01D1     		bne	.L524
 8075              		.loc 1 2779 0
 8076 2d82 0023     		movs	r3, #0
 8077 2d84 1CE0     		b	.L527
ARM GAS  /tmp/ccVYwGiK.s 			page 145


 8078              	.L524:
 8079              		.loc 1 2781 0
 8080 2d86 9DF80F30 		ldrb	r3, [sp, #15]	@ zero_extendqisi2
 8081 2d8a 23F01003 		bic	r3, r3, #16
 8082 2d8e DBB2     		uxtb	r3, r3
 8083 2d90 8DF80F30 		strb	r3, [sp, #15]
 8084              		.loc 1 2782 0
 8085 2d94 9DF80F20 		ldrb	r2, [sp, #15]	@ zero_extendqisi2
 8086 2d98 9DF80330 		ldrb	r3, [sp, #3]
 8087 2d9c 1343     		orrs	r3, r3, r2
 8088 2d9e DBB2     		uxtb	r3, r3
 8089 2da0 8DF80F30 		strb	r3, [sp, #15]
 8090              		.loc 1 2784 0
 8091 2da4 0DF10F03 		add	r3, sp, #15
 8092 2da8 0198     		ldr	r0, [sp, #4]
 8093 2daa 3421     		movs	r1, #52
 8094 2dac 1A46     		mov	r2, r3
 8095 2dae 0123     		movs	r3, #1
 8096 2db0 FFF7FEFF 		bl	LSM303AGR_ACC_WriteReg
 8097 2db4 0346     		mov	r3, r0
 8098 2db6 002B     		cmp	r3, #0
 8099 2db8 01D1     		bne	.L526
 8100              		.loc 1 2785 0
 8101 2dba 0023     		movs	r3, #0
 8102 2dbc 00E0     		b	.L527
 8103              	.L526:
 8104              		.loc 1 2787 0
 8105 2dbe 0123     		movs	r3, #1
 8106              	.L527:
 8107              		.loc 1 2788 0
 8108 2dc0 1846     		mov	r0, r3
 8109 2dc2 05B0     		add	sp, sp, #20
 8110              		@ sp needed
 8111 2dc4 5DF804FB 		ldr	pc, [sp], #4
 8112              		.cfi_endproc
 8113              	.LFE134:
 8114              		.size	LSM303AGR_ACC_W_Int2EnZLo, .-LSM303AGR_ACC_W_Int2EnZLo
 8115              		.align	2
 8116 2dc8 AFF30080 		.p2align 4,,15
 8116      AFF30080 
 8117              		.global	LSM303AGR_ACC_R_Int2EnZLo
 8118              		.thumb
 8119              		.thumb_func
 8120              		.type	LSM303AGR_ACC_R_Int2EnZLo, %function
 8121              	LSM303AGR_ACC_R_Int2EnZLo:
 8122              	.LFB135:
 8123              		.loc 1 2798 0
 8124              		.cfi_startproc
 8125              		@ args = 0, pretend = 0, frame = 8
 8126              		@ frame_needed = 0, uses_anonymous_args = 0
 8127 2dd0 00B5     		push	{lr}
 8128              		.cfi_def_cfa_offset 4
 8129              		.cfi_offset 14, -4
 8130 2dd2 83B0     		sub	sp, sp, #12
 8131              		.cfi_def_cfa_offset 16
 8132 2dd4 0190     		str	r0, [sp, #4]
 8133 2dd6 0091     		str	r1, [sp]
ARM GAS  /tmp/ccVYwGiK.s 			page 146


 8134              		.loc 1 2799 0
 8135 2dd8 0198     		ldr	r0, [sp, #4]
 8136 2dda 3421     		movs	r1, #52
 8137 2ddc 009A     		ldr	r2, [sp]
 8138 2dde 0123     		movs	r3, #1
 8139 2de0 FFF7FEFF 		bl	LSM303AGR_ACC_ReadReg
 8140 2de4 0346     		mov	r3, r0
 8141 2de6 002B     		cmp	r3, #0
 8142 2de8 01D1     		bne	.L529
 8143              		.loc 1 2800 0
 8144 2dea 0023     		movs	r3, #0
 8145 2dec 07E0     		b	.L530
 8146              	.L529:
 8147              		.loc 1 2802 0
 8148 2dee 009B     		ldr	r3, [sp]
 8149 2df0 1B78     		ldrb	r3, [r3]	@ zero_extendqisi2
 8150 2df2 03F01003 		and	r3, r3, #16
 8151 2df6 DAB2     		uxtb	r2, r3
 8152 2df8 009B     		ldr	r3, [sp]
 8153 2dfa 1A70     		strb	r2, [r3]
 8154              		.loc 1 2804 0
 8155 2dfc 0123     		movs	r3, #1
 8156              	.L530:
 8157              		.loc 1 2805 0
 8158 2dfe 1846     		mov	r0, r3
 8159 2e00 03B0     		add	sp, sp, #12
 8160              		@ sp needed
 8161 2e02 5DF804FB 		ldr	pc, [sp], #4
 8162              		.cfi_endproc
 8163              	.LFE135:
 8164              		.size	LSM303AGR_ACC_R_Int2EnZLo, .-LSM303AGR_ACC_R_Int2EnZLo
 8165 2e06 00BF     		.align	2
 8166 2e08 AFF30080 		.p2align 4,,15
 8166      AFF30080 
 8167              		.global	LSM303AGR_ACC_W_Int2EnZHi
 8168              		.thumb
 8169              		.thumb_func
 8170              		.type	LSM303AGR_ACC_W_Int2EnZHi, %function
 8171              	LSM303AGR_ACC_W_Int2EnZHi:
 8172              	.LFB136:
 8173              		.loc 1 2815 0
 8174              		.cfi_startproc
 8175              		@ args = 0, pretend = 0, frame = 16
 8176              		@ frame_needed = 0, uses_anonymous_args = 0
 8177 2e10 00B5     		push	{lr}
 8178              		.cfi_def_cfa_offset 4
 8179              		.cfi_offset 14, -4
 8180 2e12 85B0     		sub	sp, sp, #20
 8181              		.cfi_def_cfa_offset 24
 8182 2e14 0190     		str	r0, [sp, #4]
 8183 2e16 0B46     		mov	r3, r1
 8184 2e18 8DF80330 		strb	r3, [sp, #3]
 8185              		.loc 1 2818 0
 8186 2e1c 0DF10F03 		add	r3, sp, #15
 8187 2e20 0198     		ldr	r0, [sp, #4]
 8188 2e22 3421     		movs	r1, #52
 8189 2e24 1A46     		mov	r2, r3
ARM GAS  /tmp/ccVYwGiK.s 			page 147


 8190 2e26 0123     		movs	r3, #1
 8191 2e28 FFF7FEFF 		bl	LSM303AGR_ACC_ReadReg
 8192 2e2c 0346     		mov	r3, r0
 8193 2e2e 002B     		cmp	r3, #0
 8194 2e30 01D1     		bne	.L532
 8195              		.loc 1 2819 0
 8196 2e32 0023     		movs	r3, #0
 8197 2e34 1CE0     		b	.L535
 8198              	.L532:
 8199              		.loc 1 2821 0
 8200 2e36 9DF80F30 		ldrb	r3, [sp, #15]	@ zero_extendqisi2
 8201 2e3a 23F02003 		bic	r3, r3, #32
 8202 2e3e DBB2     		uxtb	r3, r3
 8203 2e40 8DF80F30 		strb	r3, [sp, #15]
 8204              		.loc 1 2822 0
 8205 2e44 9DF80F20 		ldrb	r2, [sp, #15]	@ zero_extendqisi2
 8206 2e48 9DF80330 		ldrb	r3, [sp, #3]
 8207 2e4c 1343     		orrs	r3, r3, r2
 8208 2e4e DBB2     		uxtb	r3, r3
 8209 2e50 8DF80F30 		strb	r3, [sp, #15]
 8210              		.loc 1 2824 0
 8211 2e54 0DF10F03 		add	r3, sp, #15
 8212 2e58 0198     		ldr	r0, [sp, #4]
 8213 2e5a 3421     		movs	r1, #52
 8214 2e5c 1A46     		mov	r2, r3
 8215 2e5e 0123     		movs	r3, #1
 8216 2e60 FFF7FEFF 		bl	LSM303AGR_ACC_WriteReg
 8217 2e64 0346     		mov	r3, r0
 8218 2e66 002B     		cmp	r3, #0
 8219 2e68 01D1     		bne	.L534
 8220              		.loc 1 2825 0
 8221 2e6a 0023     		movs	r3, #0
 8222 2e6c 00E0     		b	.L535
 8223              	.L534:
 8224              		.loc 1 2827 0
 8225 2e6e 0123     		movs	r3, #1
 8226              	.L535:
 8227              		.loc 1 2828 0
 8228 2e70 1846     		mov	r0, r3
 8229 2e72 05B0     		add	sp, sp, #20
 8230              		@ sp needed
 8231 2e74 5DF804FB 		ldr	pc, [sp], #4
 8232              		.cfi_endproc
 8233              	.LFE136:
 8234              		.size	LSM303AGR_ACC_W_Int2EnZHi, .-LSM303AGR_ACC_W_Int2EnZHi
 8235              		.align	2
 8236 2e78 AFF30080 		.p2align 4,,15
 8236      AFF30080 
 8237              		.global	LSM303AGR_ACC_R_Int2EnZHi
 8238              		.thumb
 8239              		.thumb_func
 8240              		.type	LSM303AGR_ACC_R_Int2EnZHi, %function
 8241              	LSM303AGR_ACC_R_Int2EnZHi:
 8242              	.LFB137:
 8243              		.loc 1 2838 0
 8244              		.cfi_startproc
 8245              		@ args = 0, pretend = 0, frame = 8
ARM GAS  /tmp/ccVYwGiK.s 			page 148


 8246              		@ frame_needed = 0, uses_anonymous_args = 0
 8247 2e80 00B5     		push	{lr}
 8248              		.cfi_def_cfa_offset 4
 8249              		.cfi_offset 14, -4
 8250 2e82 83B0     		sub	sp, sp, #12
 8251              		.cfi_def_cfa_offset 16
 8252 2e84 0190     		str	r0, [sp, #4]
 8253 2e86 0091     		str	r1, [sp]
 8254              		.loc 1 2839 0
 8255 2e88 0198     		ldr	r0, [sp, #4]
 8256 2e8a 3421     		movs	r1, #52
 8257 2e8c 009A     		ldr	r2, [sp]
 8258 2e8e 0123     		movs	r3, #1
 8259 2e90 FFF7FEFF 		bl	LSM303AGR_ACC_ReadReg
 8260 2e94 0346     		mov	r3, r0
 8261 2e96 002B     		cmp	r3, #0
 8262 2e98 01D1     		bne	.L537
 8263              		.loc 1 2840 0
 8264 2e9a 0023     		movs	r3, #0
 8265 2e9c 07E0     		b	.L538
 8266              	.L537:
 8267              		.loc 1 2842 0
 8268 2e9e 009B     		ldr	r3, [sp]
 8269 2ea0 1B78     		ldrb	r3, [r3]	@ zero_extendqisi2
 8270 2ea2 03F02003 		and	r3, r3, #32
 8271 2ea6 DAB2     		uxtb	r2, r3
 8272 2ea8 009B     		ldr	r3, [sp]
 8273 2eaa 1A70     		strb	r2, [r3]
 8274              		.loc 1 2844 0
 8275 2eac 0123     		movs	r3, #1
 8276              	.L538:
 8277              		.loc 1 2845 0
 8278 2eae 1846     		mov	r0, r3
 8279 2eb0 03B0     		add	sp, sp, #12
 8280              		@ sp needed
 8281 2eb2 5DF804FB 		ldr	pc, [sp], #4
 8282              		.cfi_endproc
 8283              	.LFE137:
 8284              		.size	LSM303AGR_ACC_R_Int2EnZHi, .-LSM303AGR_ACC_R_Int2EnZHi
 8285 2eb6 00BF     		.align	2
 8286 2eb8 AFF30080 		.p2align 4,,15
 8286      AFF30080 
 8287              		.global	LSM303AGR_ACC_W_Int2_6D
 8288              		.thumb
 8289              		.thumb_func
 8290              		.type	LSM303AGR_ACC_W_Int2_6D, %function
 8291              	LSM303AGR_ACC_W_Int2_6D:
 8292              	.LFB138:
 8293              		.loc 1 2855 0
 8294              		.cfi_startproc
 8295              		@ args = 0, pretend = 0, frame = 16
 8296              		@ frame_needed = 0, uses_anonymous_args = 0
 8297 2ec0 00B5     		push	{lr}
 8298              		.cfi_def_cfa_offset 4
 8299              		.cfi_offset 14, -4
 8300 2ec2 85B0     		sub	sp, sp, #20
 8301              		.cfi_def_cfa_offset 24
ARM GAS  /tmp/ccVYwGiK.s 			page 149


 8302 2ec4 0190     		str	r0, [sp, #4]
 8303 2ec6 0B46     		mov	r3, r1
 8304 2ec8 8DF80330 		strb	r3, [sp, #3]
 8305              		.loc 1 2858 0
 8306 2ecc 0DF10F03 		add	r3, sp, #15
 8307 2ed0 0198     		ldr	r0, [sp, #4]
 8308 2ed2 3421     		movs	r1, #52
 8309 2ed4 1A46     		mov	r2, r3
 8310 2ed6 0123     		movs	r3, #1
 8311 2ed8 FFF7FEFF 		bl	LSM303AGR_ACC_ReadReg
 8312 2edc 0346     		mov	r3, r0
 8313 2ede 002B     		cmp	r3, #0
 8314 2ee0 01D1     		bne	.L540
 8315              		.loc 1 2859 0
 8316 2ee2 0023     		movs	r3, #0
 8317 2ee4 1CE0     		b	.L543
 8318              	.L540:
 8319              		.loc 1 2861 0
 8320 2ee6 9DF80F30 		ldrb	r3, [sp, #15]	@ zero_extendqisi2
 8321 2eea 23F04003 		bic	r3, r3, #64
 8322 2eee DBB2     		uxtb	r3, r3
 8323 2ef0 8DF80F30 		strb	r3, [sp, #15]
 8324              		.loc 1 2862 0
 8325 2ef4 9DF80F20 		ldrb	r2, [sp, #15]	@ zero_extendqisi2
 8326 2ef8 9DF80330 		ldrb	r3, [sp, #3]
 8327 2efc 1343     		orrs	r3, r3, r2
 8328 2efe DBB2     		uxtb	r3, r3
 8329 2f00 8DF80F30 		strb	r3, [sp, #15]
 8330              		.loc 1 2864 0
 8331 2f04 0DF10F03 		add	r3, sp, #15
 8332 2f08 0198     		ldr	r0, [sp, #4]
 8333 2f0a 3421     		movs	r1, #52
 8334 2f0c 1A46     		mov	r2, r3
 8335 2f0e 0123     		movs	r3, #1
 8336 2f10 FFF7FEFF 		bl	LSM303AGR_ACC_WriteReg
 8337 2f14 0346     		mov	r3, r0
 8338 2f16 002B     		cmp	r3, #0
 8339 2f18 01D1     		bne	.L542
 8340              		.loc 1 2865 0
 8341 2f1a 0023     		movs	r3, #0
 8342 2f1c 00E0     		b	.L543
 8343              	.L542:
 8344              		.loc 1 2867 0
 8345 2f1e 0123     		movs	r3, #1
 8346              	.L543:
 8347              		.loc 1 2868 0
 8348 2f20 1846     		mov	r0, r3
 8349 2f22 05B0     		add	sp, sp, #20
 8350              		@ sp needed
 8351 2f24 5DF804FB 		ldr	pc, [sp], #4
 8352              		.cfi_endproc
 8353              	.LFE138:
 8354              		.size	LSM303AGR_ACC_W_Int2_6D, .-LSM303AGR_ACC_W_Int2_6D
 8355              		.align	2
 8356 2f28 AFF30080 		.p2align 4,,15
 8356      AFF30080 
 8357              		.global	LSM303AGR_ACC_R_Int2_6D
ARM GAS  /tmp/ccVYwGiK.s 			page 150


 8358              		.thumb
 8359              		.thumb_func
 8360              		.type	LSM303AGR_ACC_R_Int2_6D, %function
 8361              	LSM303AGR_ACC_R_Int2_6D:
 8362              	.LFB139:
 8363              		.loc 1 2878 0
 8364              		.cfi_startproc
 8365              		@ args = 0, pretend = 0, frame = 8
 8366              		@ frame_needed = 0, uses_anonymous_args = 0
 8367 2f30 00B5     		push	{lr}
 8368              		.cfi_def_cfa_offset 4
 8369              		.cfi_offset 14, -4
 8370 2f32 83B0     		sub	sp, sp, #12
 8371              		.cfi_def_cfa_offset 16
 8372 2f34 0190     		str	r0, [sp, #4]
 8373 2f36 0091     		str	r1, [sp]
 8374              		.loc 1 2879 0
 8375 2f38 0198     		ldr	r0, [sp, #4]
 8376 2f3a 3421     		movs	r1, #52
 8377 2f3c 009A     		ldr	r2, [sp]
 8378 2f3e 0123     		movs	r3, #1
 8379 2f40 FFF7FEFF 		bl	LSM303AGR_ACC_ReadReg
 8380 2f44 0346     		mov	r3, r0
 8381 2f46 002B     		cmp	r3, #0
 8382 2f48 01D1     		bne	.L545
 8383              		.loc 1 2880 0
 8384 2f4a 0023     		movs	r3, #0
 8385 2f4c 07E0     		b	.L546
 8386              	.L545:
 8387              		.loc 1 2882 0
 8388 2f4e 009B     		ldr	r3, [sp]
 8389 2f50 1B78     		ldrb	r3, [r3]	@ zero_extendqisi2
 8390 2f52 03F04003 		and	r3, r3, #64
 8391 2f56 DAB2     		uxtb	r2, r3
 8392 2f58 009B     		ldr	r3, [sp]
 8393 2f5a 1A70     		strb	r2, [r3]
 8394              		.loc 1 2884 0
 8395 2f5c 0123     		movs	r3, #1
 8396              	.L546:
 8397              		.loc 1 2885 0
 8398 2f5e 1846     		mov	r0, r3
 8399 2f60 03B0     		add	sp, sp, #12
 8400              		@ sp needed
 8401 2f62 5DF804FB 		ldr	pc, [sp], #4
 8402              		.cfi_endproc
 8403              	.LFE139:
 8404              		.size	LSM303AGR_ACC_R_Int2_6D, .-LSM303AGR_ACC_R_Int2_6D
 8405 2f66 00BF     		.align	2
 8406 2f68 AFF30080 		.p2align 4,,15
 8406      AFF30080 
 8407              		.global	LSM303AGR_ACC_W_Int2_AOI
 8408              		.thumb
 8409              		.thumb_func
 8410              		.type	LSM303AGR_ACC_W_Int2_AOI, %function
 8411              	LSM303AGR_ACC_W_Int2_AOI:
 8412              	.LFB140:
 8413              		.loc 1 2895 0
ARM GAS  /tmp/ccVYwGiK.s 			page 151


 8414              		.cfi_startproc
 8415              		@ args = 0, pretend = 0, frame = 16
 8416              		@ frame_needed = 0, uses_anonymous_args = 0
 8417 2f70 00B5     		push	{lr}
 8418              		.cfi_def_cfa_offset 4
 8419              		.cfi_offset 14, -4
 8420 2f72 85B0     		sub	sp, sp, #20
 8421              		.cfi_def_cfa_offset 24
 8422 2f74 0190     		str	r0, [sp, #4]
 8423 2f76 0B46     		mov	r3, r1
 8424 2f78 8DF80330 		strb	r3, [sp, #3]
 8425              		.loc 1 2898 0
 8426 2f7c 0DF10F03 		add	r3, sp, #15
 8427 2f80 0198     		ldr	r0, [sp, #4]
 8428 2f82 3421     		movs	r1, #52
 8429 2f84 1A46     		mov	r2, r3
 8430 2f86 0123     		movs	r3, #1
 8431 2f88 FFF7FEFF 		bl	LSM303AGR_ACC_ReadReg
 8432 2f8c 0346     		mov	r3, r0
 8433 2f8e 002B     		cmp	r3, #0
 8434 2f90 01D1     		bne	.L548
 8435              		.loc 1 2899 0
 8436 2f92 0023     		movs	r3, #0
 8437 2f94 1CE0     		b	.L551
 8438              	.L548:
 8439              		.loc 1 2901 0
 8440 2f96 9DF80F30 		ldrb	r3, [sp, #15]	@ zero_extendqisi2
 8441 2f9a 03F07F03 		and	r3, r3, #127
 8442 2f9e DBB2     		uxtb	r3, r3
 8443 2fa0 8DF80F30 		strb	r3, [sp, #15]
 8444              		.loc 1 2902 0
 8445 2fa4 9DF80F20 		ldrb	r2, [sp, #15]	@ zero_extendqisi2
 8446 2fa8 9DF80330 		ldrb	r3, [sp, #3]
 8447 2fac 1343     		orrs	r3, r3, r2
 8448 2fae DBB2     		uxtb	r3, r3
 8449 2fb0 8DF80F30 		strb	r3, [sp, #15]
 8450              		.loc 1 2904 0
 8451 2fb4 0DF10F03 		add	r3, sp, #15
 8452 2fb8 0198     		ldr	r0, [sp, #4]
 8453 2fba 3421     		movs	r1, #52
 8454 2fbc 1A46     		mov	r2, r3
 8455 2fbe 0123     		movs	r3, #1
 8456 2fc0 FFF7FEFF 		bl	LSM303AGR_ACC_WriteReg
 8457 2fc4 0346     		mov	r3, r0
 8458 2fc6 002B     		cmp	r3, #0
 8459 2fc8 01D1     		bne	.L550
 8460              		.loc 1 2905 0
 8461 2fca 0023     		movs	r3, #0
 8462 2fcc 00E0     		b	.L551
 8463              	.L550:
 8464              		.loc 1 2907 0
 8465 2fce 0123     		movs	r3, #1
 8466              	.L551:
 8467              		.loc 1 2908 0
 8468 2fd0 1846     		mov	r0, r3
 8469 2fd2 05B0     		add	sp, sp, #20
 8470              		@ sp needed
ARM GAS  /tmp/ccVYwGiK.s 			page 152


 8471 2fd4 5DF804FB 		ldr	pc, [sp], #4
 8472              		.cfi_endproc
 8473              	.LFE140:
 8474              		.size	LSM303AGR_ACC_W_Int2_AOI, .-LSM303AGR_ACC_W_Int2_AOI
 8475              		.align	2
 8476 2fd8 AFF30080 		.p2align 4,,15
 8476      AFF30080 
 8477              		.global	LSM303AGR_ACC_R_Int2_AOI
 8478              		.thumb
 8479              		.thumb_func
 8480              		.type	LSM303AGR_ACC_R_Int2_AOI, %function
 8481              	LSM303AGR_ACC_R_Int2_AOI:
 8482              	.LFB141:
 8483              		.loc 1 2918 0
 8484              		.cfi_startproc
 8485              		@ args = 0, pretend = 0, frame = 8
 8486              		@ frame_needed = 0, uses_anonymous_args = 0
 8487 2fe0 00B5     		push	{lr}
 8488              		.cfi_def_cfa_offset 4
 8489              		.cfi_offset 14, -4
 8490 2fe2 83B0     		sub	sp, sp, #12
 8491              		.cfi_def_cfa_offset 16
 8492 2fe4 0190     		str	r0, [sp, #4]
 8493 2fe6 0091     		str	r1, [sp]
 8494              		.loc 1 2919 0
 8495 2fe8 0198     		ldr	r0, [sp, #4]
 8496 2fea 3421     		movs	r1, #52
 8497 2fec 009A     		ldr	r2, [sp]
 8498 2fee 0123     		movs	r3, #1
 8499 2ff0 FFF7FEFF 		bl	LSM303AGR_ACC_ReadReg
 8500 2ff4 0346     		mov	r3, r0
 8501 2ff6 002B     		cmp	r3, #0
 8502 2ff8 01D1     		bne	.L553
 8503              		.loc 1 2920 0
 8504 2ffa 0023     		movs	r3, #0
 8505 2ffc 07E0     		b	.L554
 8506              	.L553:
 8507              		.loc 1 2922 0
 8508 2ffe 009B     		ldr	r3, [sp]
 8509 3000 1B78     		ldrb	r3, [r3]	@ zero_extendqisi2
 8510 3002 23F07F03 		bic	r3, r3, #127
 8511 3006 DAB2     		uxtb	r2, r3
 8512 3008 009B     		ldr	r3, [sp]
 8513 300a 1A70     		strb	r2, [r3]
 8514              		.loc 1 2924 0
 8515 300c 0123     		movs	r3, #1
 8516              	.L554:
 8517              		.loc 1 2925 0
 8518 300e 1846     		mov	r0, r3
 8519 3010 03B0     		add	sp, sp, #12
 8520              		@ sp needed
 8521 3012 5DF804FB 		ldr	pc, [sp], #4
 8522              		.cfi_endproc
 8523              	.LFE141:
 8524              		.size	LSM303AGR_ACC_R_Int2_AOI, .-LSM303AGR_ACC_R_Int2_AOI
 8525 3016 00BF     		.align	2
 8526 3018 AFF30080 		.p2align 4,,15
ARM GAS  /tmp/ccVYwGiK.s 			page 153


 8526      AFF30080 
 8527              		.global	LSM303AGR_ACC_R_Int1_Xlo
 8528              		.thumb
 8529              		.thumb_func
 8530              		.type	LSM303AGR_ACC_R_Int1_Xlo, %function
 8531              	LSM303AGR_ACC_R_Int1_Xlo:
 8532              	.LFB142:
 8533              		.loc 1 2935 0
 8534              		.cfi_startproc
 8535              		@ args = 0, pretend = 0, frame = 8
 8536              		@ frame_needed = 0, uses_anonymous_args = 0
 8537 3020 00B5     		push	{lr}
 8538              		.cfi_def_cfa_offset 4
 8539              		.cfi_offset 14, -4
 8540 3022 83B0     		sub	sp, sp, #12
 8541              		.cfi_def_cfa_offset 16
 8542 3024 0190     		str	r0, [sp, #4]
 8543 3026 0091     		str	r1, [sp]
 8544              		.loc 1 2936 0
 8545 3028 0198     		ldr	r0, [sp, #4]
 8546 302a 3121     		movs	r1, #49
 8547 302c 009A     		ldr	r2, [sp]
 8548 302e 0123     		movs	r3, #1
 8549 3030 FFF7FEFF 		bl	LSM303AGR_ACC_ReadReg
 8550 3034 0346     		mov	r3, r0
 8551 3036 002B     		cmp	r3, #0
 8552 3038 01D1     		bne	.L556
 8553              		.loc 1 2937 0
 8554 303a 0023     		movs	r3, #0
 8555 303c 07E0     		b	.L557
 8556              	.L556:
 8557              		.loc 1 2939 0
 8558 303e 009B     		ldr	r3, [sp]
 8559 3040 1B78     		ldrb	r3, [r3]	@ zero_extendqisi2
 8560 3042 03F00103 		and	r3, r3, #1
 8561 3046 DAB2     		uxtb	r2, r3
 8562 3048 009B     		ldr	r3, [sp]
 8563 304a 1A70     		strb	r2, [r3]
 8564              		.loc 1 2941 0
 8565 304c 0123     		movs	r3, #1
 8566              	.L557:
 8567              		.loc 1 2942 0
 8568 304e 1846     		mov	r0, r3
 8569 3050 03B0     		add	sp, sp, #12
 8570              		@ sp needed
 8571 3052 5DF804FB 		ldr	pc, [sp], #4
 8572              		.cfi_endproc
 8573              	.LFE142:
 8574              		.size	LSM303AGR_ACC_R_Int1_Xlo, .-LSM303AGR_ACC_R_Int1_Xlo
 8575 3056 00BF     		.align	2
 8576 3058 AFF30080 		.p2align 4,,15
 8576      AFF30080 
 8577              		.global	LSM303AGR_ACC_R_Int1_XHi
 8578              		.thumb
 8579              		.thumb_func
 8580              		.type	LSM303AGR_ACC_R_Int1_XHi, %function
 8581              	LSM303AGR_ACC_R_Int1_XHi:
ARM GAS  /tmp/ccVYwGiK.s 			page 154


 8582              	.LFB143:
 8583              		.loc 1 2952 0
 8584              		.cfi_startproc
 8585              		@ args = 0, pretend = 0, frame = 8
 8586              		@ frame_needed = 0, uses_anonymous_args = 0
 8587 3060 00B5     		push	{lr}
 8588              		.cfi_def_cfa_offset 4
 8589              		.cfi_offset 14, -4
 8590 3062 83B0     		sub	sp, sp, #12
 8591              		.cfi_def_cfa_offset 16
 8592 3064 0190     		str	r0, [sp, #4]
 8593 3066 0091     		str	r1, [sp]
 8594              		.loc 1 2953 0
 8595 3068 0198     		ldr	r0, [sp, #4]
 8596 306a 3121     		movs	r1, #49
 8597 306c 009A     		ldr	r2, [sp]
 8598 306e 0123     		movs	r3, #1
 8599 3070 FFF7FEFF 		bl	LSM303AGR_ACC_ReadReg
 8600 3074 0346     		mov	r3, r0
 8601 3076 002B     		cmp	r3, #0
 8602 3078 01D1     		bne	.L559
 8603              		.loc 1 2954 0
 8604 307a 0023     		movs	r3, #0
 8605 307c 07E0     		b	.L560
 8606              	.L559:
 8607              		.loc 1 2956 0
 8608 307e 009B     		ldr	r3, [sp]
 8609 3080 1B78     		ldrb	r3, [r3]	@ zero_extendqisi2
 8610 3082 03F00203 		and	r3, r3, #2
 8611 3086 DAB2     		uxtb	r2, r3
 8612 3088 009B     		ldr	r3, [sp]
 8613 308a 1A70     		strb	r2, [r3]
 8614              		.loc 1 2958 0
 8615 308c 0123     		movs	r3, #1
 8616              	.L560:
 8617              		.loc 1 2959 0
 8618 308e 1846     		mov	r0, r3
 8619 3090 03B0     		add	sp, sp, #12
 8620              		@ sp needed
 8621 3092 5DF804FB 		ldr	pc, [sp], #4
 8622              		.cfi_endproc
 8623              	.LFE143:
 8624              		.size	LSM303AGR_ACC_R_Int1_XHi, .-LSM303AGR_ACC_R_Int1_XHi
 8625 3096 00BF     		.align	2
 8626 3098 AFF30080 		.p2align 4,,15
 8626      AFF30080 
 8627              		.global	LSM303AGR_ACC_R_Int1_YLo
 8628              		.thumb
 8629              		.thumb_func
 8630              		.type	LSM303AGR_ACC_R_Int1_YLo, %function
 8631              	LSM303AGR_ACC_R_Int1_YLo:
 8632              	.LFB144:
 8633              		.loc 1 2969 0
 8634              		.cfi_startproc
 8635              		@ args = 0, pretend = 0, frame = 8
 8636              		@ frame_needed = 0, uses_anonymous_args = 0
 8637 30a0 00B5     		push	{lr}
ARM GAS  /tmp/ccVYwGiK.s 			page 155


 8638              		.cfi_def_cfa_offset 4
 8639              		.cfi_offset 14, -4
 8640 30a2 83B0     		sub	sp, sp, #12
 8641              		.cfi_def_cfa_offset 16
 8642 30a4 0190     		str	r0, [sp, #4]
 8643 30a6 0091     		str	r1, [sp]
 8644              		.loc 1 2970 0
 8645 30a8 0198     		ldr	r0, [sp, #4]
 8646 30aa 3121     		movs	r1, #49
 8647 30ac 009A     		ldr	r2, [sp]
 8648 30ae 0123     		movs	r3, #1
 8649 30b0 FFF7FEFF 		bl	LSM303AGR_ACC_ReadReg
 8650 30b4 0346     		mov	r3, r0
 8651 30b6 002B     		cmp	r3, #0
 8652 30b8 01D1     		bne	.L562
 8653              		.loc 1 2971 0
 8654 30ba 0023     		movs	r3, #0
 8655 30bc 07E0     		b	.L563
 8656              	.L562:
 8657              		.loc 1 2973 0
 8658 30be 009B     		ldr	r3, [sp]
 8659 30c0 1B78     		ldrb	r3, [r3]	@ zero_extendqisi2
 8660 30c2 03F00403 		and	r3, r3, #4
 8661 30c6 DAB2     		uxtb	r2, r3
 8662 30c8 009B     		ldr	r3, [sp]
 8663 30ca 1A70     		strb	r2, [r3]
 8664              		.loc 1 2975 0
 8665 30cc 0123     		movs	r3, #1
 8666              	.L563:
 8667              		.loc 1 2976 0
 8668 30ce 1846     		mov	r0, r3
 8669 30d0 03B0     		add	sp, sp, #12
 8670              		@ sp needed
 8671 30d2 5DF804FB 		ldr	pc, [sp], #4
 8672              		.cfi_endproc
 8673              	.LFE144:
 8674              		.size	LSM303AGR_ACC_R_Int1_YLo, .-LSM303AGR_ACC_R_Int1_YLo
 8675 30d6 00BF     		.align	2
 8676 30d8 AFF30080 		.p2align 4,,15
 8676      AFF30080 
 8677              		.global	LSM303AGR_ACC_R_Int1_YHi
 8678              		.thumb
 8679              		.thumb_func
 8680              		.type	LSM303AGR_ACC_R_Int1_YHi, %function
 8681              	LSM303AGR_ACC_R_Int1_YHi:
 8682              	.LFB145:
 8683              		.loc 1 2986 0
 8684              		.cfi_startproc
 8685              		@ args = 0, pretend = 0, frame = 8
 8686              		@ frame_needed = 0, uses_anonymous_args = 0
 8687 30e0 00B5     		push	{lr}
 8688              		.cfi_def_cfa_offset 4
 8689              		.cfi_offset 14, -4
 8690 30e2 83B0     		sub	sp, sp, #12
 8691              		.cfi_def_cfa_offset 16
 8692 30e4 0190     		str	r0, [sp, #4]
 8693 30e6 0091     		str	r1, [sp]
ARM GAS  /tmp/ccVYwGiK.s 			page 156


 8694              		.loc 1 2987 0
 8695 30e8 0198     		ldr	r0, [sp, #4]
 8696 30ea 3121     		movs	r1, #49
 8697 30ec 009A     		ldr	r2, [sp]
 8698 30ee 0123     		movs	r3, #1
 8699 30f0 FFF7FEFF 		bl	LSM303AGR_ACC_ReadReg
 8700 30f4 0346     		mov	r3, r0
 8701 30f6 002B     		cmp	r3, #0
 8702 30f8 01D1     		bne	.L565
 8703              		.loc 1 2988 0
 8704 30fa 0023     		movs	r3, #0
 8705 30fc 07E0     		b	.L566
 8706              	.L565:
 8707              		.loc 1 2990 0
 8708 30fe 009B     		ldr	r3, [sp]
 8709 3100 1B78     		ldrb	r3, [r3]	@ zero_extendqisi2
 8710 3102 03F00803 		and	r3, r3, #8
 8711 3106 DAB2     		uxtb	r2, r3
 8712 3108 009B     		ldr	r3, [sp]
 8713 310a 1A70     		strb	r2, [r3]
 8714              		.loc 1 2992 0
 8715 310c 0123     		movs	r3, #1
 8716              	.L566:
 8717              		.loc 1 2993 0
 8718 310e 1846     		mov	r0, r3
 8719 3110 03B0     		add	sp, sp, #12
 8720              		@ sp needed
 8721 3112 5DF804FB 		ldr	pc, [sp], #4
 8722              		.cfi_endproc
 8723              	.LFE145:
 8724              		.size	LSM303AGR_ACC_R_Int1_YHi, .-LSM303AGR_ACC_R_Int1_YHi
 8725 3116 00BF     		.align	2
 8726 3118 AFF30080 		.p2align 4,,15
 8726      AFF30080 
 8727              		.global	LSM303AGR_ACC_R_Int1_Zlo
 8728              		.thumb
 8729              		.thumb_func
 8730              		.type	LSM303AGR_ACC_R_Int1_Zlo, %function
 8731              	LSM303AGR_ACC_R_Int1_Zlo:
 8732              	.LFB146:
 8733              		.loc 1 3003 0
 8734              		.cfi_startproc
 8735              		@ args = 0, pretend = 0, frame = 8
 8736              		@ frame_needed = 0, uses_anonymous_args = 0
 8737 3120 00B5     		push	{lr}
 8738              		.cfi_def_cfa_offset 4
 8739              		.cfi_offset 14, -4
 8740 3122 83B0     		sub	sp, sp, #12
 8741              		.cfi_def_cfa_offset 16
 8742 3124 0190     		str	r0, [sp, #4]
 8743 3126 0091     		str	r1, [sp]
 8744              		.loc 1 3004 0
 8745 3128 0198     		ldr	r0, [sp, #4]
 8746 312a 3121     		movs	r1, #49
 8747 312c 009A     		ldr	r2, [sp]
 8748 312e 0123     		movs	r3, #1
 8749 3130 FFF7FEFF 		bl	LSM303AGR_ACC_ReadReg
ARM GAS  /tmp/ccVYwGiK.s 			page 157


 8750 3134 0346     		mov	r3, r0
 8751 3136 002B     		cmp	r3, #0
 8752 3138 01D1     		bne	.L568
 8753              		.loc 1 3005 0
 8754 313a 0023     		movs	r3, #0
 8755 313c 07E0     		b	.L569
 8756              	.L568:
 8757              		.loc 1 3007 0
 8758 313e 009B     		ldr	r3, [sp]
 8759 3140 1B78     		ldrb	r3, [r3]	@ zero_extendqisi2
 8760 3142 03F01003 		and	r3, r3, #16
 8761 3146 DAB2     		uxtb	r2, r3
 8762 3148 009B     		ldr	r3, [sp]
 8763 314a 1A70     		strb	r2, [r3]
 8764              		.loc 1 3009 0
 8765 314c 0123     		movs	r3, #1
 8766              	.L569:
 8767              		.loc 1 3010 0
 8768 314e 1846     		mov	r0, r3
 8769 3150 03B0     		add	sp, sp, #12
 8770              		@ sp needed
 8771 3152 5DF804FB 		ldr	pc, [sp], #4
 8772              		.cfi_endproc
 8773              	.LFE146:
 8774              		.size	LSM303AGR_ACC_R_Int1_Zlo, .-LSM303AGR_ACC_R_Int1_Zlo
 8775 3156 00BF     		.align	2
 8776 3158 AFF30080 		.p2align 4,,15
 8776      AFF30080 
 8777              		.global	LSM303AGR_ACC_R_Int1_ZHi
 8778              		.thumb
 8779              		.thumb_func
 8780              		.type	LSM303AGR_ACC_R_Int1_ZHi, %function
 8781              	LSM303AGR_ACC_R_Int1_ZHi:
 8782              	.LFB147:
 8783              		.loc 1 3020 0
 8784              		.cfi_startproc
 8785              		@ args = 0, pretend = 0, frame = 8
 8786              		@ frame_needed = 0, uses_anonymous_args = 0
 8787 3160 00B5     		push	{lr}
 8788              		.cfi_def_cfa_offset 4
 8789              		.cfi_offset 14, -4
 8790 3162 83B0     		sub	sp, sp, #12
 8791              		.cfi_def_cfa_offset 16
 8792 3164 0190     		str	r0, [sp, #4]
 8793 3166 0091     		str	r1, [sp]
 8794              		.loc 1 3021 0
 8795 3168 0198     		ldr	r0, [sp, #4]
 8796 316a 3121     		movs	r1, #49
 8797 316c 009A     		ldr	r2, [sp]
 8798 316e 0123     		movs	r3, #1
 8799 3170 FFF7FEFF 		bl	LSM303AGR_ACC_ReadReg
 8800 3174 0346     		mov	r3, r0
 8801 3176 002B     		cmp	r3, #0
 8802 3178 01D1     		bne	.L571
 8803              		.loc 1 3022 0
 8804 317a 0023     		movs	r3, #0
 8805 317c 07E0     		b	.L572
ARM GAS  /tmp/ccVYwGiK.s 			page 158


 8806              	.L571:
 8807              		.loc 1 3024 0
 8808 317e 009B     		ldr	r3, [sp]
 8809 3180 1B78     		ldrb	r3, [r3]	@ zero_extendqisi2
 8810 3182 03F02003 		and	r3, r3, #32
 8811 3186 DAB2     		uxtb	r2, r3
 8812 3188 009B     		ldr	r3, [sp]
 8813 318a 1A70     		strb	r2, [r3]
 8814              		.loc 1 3026 0
 8815 318c 0123     		movs	r3, #1
 8816              	.L572:
 8817              		.loc 1 3027 0
 8818 318e 1846     		mov	r0, r3
 8819 3190 03B0     		add	sp, sp, #12
 8820              		@ sp needed
 8821 3192 5DF804FB 		ldr	pc, [sp], #4
 8822              		.cfi_endproc
 8823              	.LFE147:
 8824              		.size	LSM303AGR_ACC_R_Int1_ZHi, .-LSM303AGR_ACC_R_Int1_ZHi
 8825 3196 00BF     		.align	2
 8826 3198 AFF30080 		.p2align 4,,15
 8826      AFF30080 
 8827              		.global	LSM303AGR_ACC_R_Int1_IA
 8828              		.thumb
 8829              		.thumb_func
 8830              		.type	LSM303AGR_ACC_R_Int1_IA, %function
 8831              	LSM303AGR_ACC_R_Int1_IA:
 8832              	.LFB148:
 8833              		.loc 1 3037 0
 8834              		.cfi_startproc
 8835              		@ args = 0, pretend = 0, frame = 8
 8836              		@ frame_needed = 0, uses_anonymous_args = 0
 8837 31a0 00B5     		push	{lr}
 8838              		.cfi_def_cfa_offset 4
 8839              		.cfi_offset 14, -4
 8840 31a2 83B0     		sub	sp, sp, #12
 8841              		.cfi_def_cfa_offset 16
 8842 31a4 0190     		str	r0, [sp, #4]
 8843 31a6 0091     		str	r1, [sp]
 8844              		.loc 1 3038 0
 8845 31a8 0198     		ldr	r0, [sp, #4]
 8846 31aa 3121     		movs	r1, #49
 8847 31ac 009A     		ldr	r2, [sp]
 8848 31ae 0123     		movs	r3, #1
 8849 31b0 FFF7FEFF 		bl	LSM303AGR_ACC_ReadReg
 8850 31b4 0346     		mov	r3, r0
 8851 31b6 002B     		cmp	r3, #0
 8852 31b8 01D1     		bne	.L574
 8853              		.loc 1 3039 0
 8854 31ba 0023     		movs	r3, #0
 8855 31bc 07E0     		b	.L575
 8856              	.L574:
 8857              		.loc 1 3041 0
 8858 31be 009B     		ldr	r3, [sp]
 8859 31c0 1B78     		ldrb	r3, [r3]	@ zero_extendqisi2
 8860 31c2 03F04003 		and	r3, r3, #64
 8861 31c6 DAB2     		uxtb	r2, r3
ARM GAS  /tmp/ccVYwGiK.s 			page 159


 8862 31c8 009B     		ldr	r3, [sp]
 8863 31ca 1A70     		strb	r2, [r3]
 8864              		.loc 1 3043 0
 8865 31cc 0123     		movs	r3, #1
 8866              	.L575:
 8867              		.loc 1 3044 0
 8868 31ce 1846     		mov	r0, r3
 8869 31d0 03B0     		add	sp, sp, #12
 8870              		@ sp needed
 8871 31d2 5DF804FB 		ldr	pc, [sp], #4
 8872              		.cfi_endproc
 8873              	.LFE148:
 8874              		.size	LSM303AGR_ACC_R_Int1_IA, .-LSM303AGR_ACC_R_Int1_IA
 8875 31d6 00BF     		.align	2
 8876 31d8 AFF30080 		.p2align 4,,15
 8876      AFF30080 
 8877              		.global	LSM303AGR_ACC_R_Int2_Xlo
 8878              		.thumb
 8879              		.thumb_func
 8880              		.type	LSM303AGR_ACC_R_Int2_Xlo, %function
 8881              	LSM303AGR_ACC_R_Int2_Xlo:
 8882              	.LFB149:
 8883              		.loc 1 3054 0
 8884              		.cfi_startproc
 8885              		@ args = 0, pretend = 0, frame = 8
 8886              		@ frame_needed = 0, uses_anonymous_args = 0
 8887 31e0 00B5     		push	{lr}
 8888              		.cfi_def_cfa_offset 4
 8889              		.cfi_offset 14, -4
 8890 31e2 83B0     		sub	sp, sp, #12
 8891              		.cfi_def_cfa_offset 16
 8892 31e4 0190     		str	r0, [sp, #4]
 8893 31e6 0091     		str	r1, [sp]
 8894              		.loc 1 3055 0
 8895 31e8 0198     		ldr	r0, [sp, #4]
 8896 31ea 3521     		movs	r1, #53
 8897 31ec 009A     		ldr	r2, [sp]
 8898 31ee 0123     		movs	r3, #1
 8899 31f0 FFF7FEFF 		bl	LSM303AGR_ACC_ReadReg
 8900 31f4 0346     		mov	r3, r0
 8901 31f6 002B     		cmp	r3, #0
 8902 31f8 01D1     		bne	.L577
 8903              		.loc 1 3056 0
 8904 31fa 0023     		movs	r3, #0
 8905 31fc 07E0     		b	.L578
 8906              	.L577:
 8907              		.loc 1 3058 0
 8908 31fe 009B     		ldr	r3, [sp]
 8909 3200 1B78     		ldrb	r3, [r3]	@ zero_extendqisi2
 8910 3202 03F00103 		and	r3, r3, #1
 8911 3206 DAB2     		uxtb	r2, r3
 8912 3208 009B     		ldr	r3, [sp]
 8913 320a 1A70     		strb	r2, [r3]
 8914              		.loc 1 3060 0
 8915 320c 0123     		movs	r3, #1
 8916              	.L578:
 8917              		.loc 1 3061 0
ARM GAS  /tmp/ccVYwGiK.s 			page 160


 8918 320e 1846     		mov	r0, r3
 8919 3210 03B0     		add	sp, sp, #12
 8920              		@ sp needed
 8921 3212 5DF804FB 		ldr	pc, [sp], #4
 8922              		.cfi_endproc
 8923              	.LFE149:
 8924              		.size	LSM303AGR_ACC_R_Int2_Xlo, .-LSM303AGR_ACC_R_Int2_Xlo
 8925 3216 00BF     		.align	2
 8926 3218 AFF30080 		.p2align 4,,15
 8926      AFF30080 
 8927              		.global	LSM303AGR_ACC_R_Int2_XHi
 8928              		.thumb
 8929              		.thumb_func
 8930              		.type	LSM303AGR_ACC_R_Int2_XHi, %function
 8931              	LSM303AGR_ACC_R_Int2_XHi:
 8932              	.LFB150:
 8933              		.loc 1 3071 0
 8934              		.cfi_startproc
 8935              		@ args = 0, pretend = 0, frame = 8
 8936              		@ frame_needed = 0, uses_anonymous_args = 0
 8937 3220 00B5     		push	{lr}
 8938              		.cfi_def_cfa_offset 4
 8939              		.cfi_offset 14, -4
 8940 3222 83B0     		sub	sp, sp, #12
 8941              		.cfi_def_cfa_offset 16
 8942 3224 0190     		str	r0, [sp, #4]
 8943 3226 0091     		str	r1, [sp]
 8944              		.loc 1 3072 0
 8945 3228 0198     		ldr	r0, [sp, #4]
 8946 322a 3521     		movs	r1, #53
 8947 322c 009A     		ldr	r2, [sp]
 8948 322e 0123     		movs	r3, #1
 8949 3230 FFF7FEFF 		bl	LSM303AGR_ACC_ReadReg
 8950 3234 0346     		mov	r3, r0
 8951 3236 002B     		cmp	r3, #0
 8952 3238 01D1     		bne	.L580
 8953              		.loc 1 3073 0
 8954 323a 0023     		movs	r3, #0
 8955 323c 07E0     		b	.L581
 8956              	.L580:
 8957              		.loc 1 3075 0
 8958 323e 009B     		ldr	r3, [sp]
 8959 3240 1B78     		ldrb	r3, [r3]	@ zero_extendqisi2
 8960 3242 03F00203 		and	r3, r3, #2
 8961 3246 DAB2     		uxtb	r2, r3
 8962 3248 009B     		ldr	r3, [sp]
 8963 324a 1A70     		strb	r2, [r3]
 8964              		.loc 1 3077 0
 8965 324c 0123     		movs	r3, #1
 8966              	.L581:
 8967              		.loc 1 3078 0
 8968 324e 1846     		mov	r0, r3
 8969 3250 03B0     		add	sp, sp, #12
 8970              		@ sp needed
 8971 3252 5DF804FB 		ldr	pc, [sp], #4
 8972              		.cfi_endproc
 8973              	.LFE150:
ARM GAS  /tmp/ccVYwGiK.s 			page 161


 8974              		.size	LSM303AGR_ACC_R_Int2_XHi, .-LSM303AGR_ACC_R_Int2_XHi
 8975 3256 00BF     		.align	2
 8976 3258 AFF30080 		.p2align 4,,15
 8976      AFF30080 
 8977              		.global	LSM303AGR_ACC_R_Int2_YLo
 8978              		.thumb
 8979              		.thumb_func
 8980              		.type	LSM303AGR_ACC_R_Int2_YLo, %function
 8981              	LSM303AGR_ACC_R_Int2_YLo:
 8982              	.LFB151:
 8983              		.loc 1 3088 0
 8984              		.cfi_startproc
 8985              		@ args = 0, pretend = 0, frame = 8
 8986              		@ frame_needed = 0, uses_anonymous_args = 0
 8987 3260 00B5     		push	{lr}
 8988              		.cfi_def_cfa_offset 4
 8989              		.cfi_offset 14, -4
 8990 3262 83B0     		sub	sp, sp, #12
 8991              		.cfi_def_cfa_offset 16
 8992 3264 0190     		str	r0, [sp, #4]
 8993 3266 0091     		str	r1, [sp]
 8994              		.loc 1 3089 0
 8995 3268 0198     		ldr	r0, [sp, #4]
 8996 326a 3521     		movs	r1, #53
 8997 326c 009A     		ldr	r2, [sp]
 8998 326e 0123     		movs	r3, #1
 8999 3270 FFF7FEFF 		bl	LSM303AGR_ACC_ReadReg
 9000 3274 0346     		mov	r3, r0
 9001 3276 002B     		cmp	r3, #0
 9002 3278 01D1     		bne	.L583
 9003              		.loc 1 3090 0
 9004 327a 0023     		movs	r3, #0
 9005 327c 07E0     		b	.L584
 9006              	.L583:
 9007              		.loc 1 3092 0
 9008 327e 009B     		ldr	r3, [sp]
 9009 3280 1B78     		ldrb	r3, [r3]	@ zero_extendqisi2
 9010 3282 03F00403 		and	r3, r3, #4
 9011 3286 DAB2     		uxtb	r2, r3
 9012 3288 009B     		ldr	r3, [sp]
 9013 328a 1A70     		strb	r2, [r3]
 9014              		.loc 1 3094 0
 9015 328c 0123     		movs	r3, #1
 9016              	.L584:
 9017              		.loc 1 3095 0
 9018 328e 1846     		mov	r0, r3
 9019 3290 03B0     		add	sp, sp, #12
 9020              		@ sp needed
 9021 3292 5DF804FB 		ldr	pc, [sp], #4
 9022              		.cfi_endproc
 9023              	.LFE151:
 9024              		.size	LSM303AGR_ACC_R_Int2_YLo, .-LSM303AGR_ACC_R_Int2_YLo
 9025 3296 00BF     		.align	2
 9026 3298 AFF30080 		.p2align 4,,15
 9026      AFF30080 
 9027              		.global	LSM303AGR_ACC_R_Int2_YHi
 9028              		.thumb
ARM GAS  /tmp/ccVYwGiK.s 			page 162


 9029              		.thumb_func
 9030              		.type	LSM303AGR_ACC_R_Int2_YHi, %function
 9031              	LSM303AGR_ACC_R_Int2_YHi:
 9032              	.LFB152:
 9033              		.loc 1 3105 0
 9034              		.cfi_startproc
 9035              		@ args = 0, pretend = 0, frame = 8
 9036              		@ frame_needed = 0, uses_anonymous_args = 0
 9037 32a0 00B5     		push	{lr}
 9038              		.cfi_def_cfa_offset 4
 9039              		.cfi_offset 14, -4
 9040 32a2 83B0     		sub	sp, sp, #12
 9041              		.cfi_def_cfa_offset 16
 9042 32a4 0190     		str	r0, [sp, #4]
 9043 32a6 0091     		str	r1, [sp]
 9044              		.loc 1 3106 0
 9045 32a8 0198     		ldr	r0, [sp, #4]
 9046 32aa 3521     		movs	r1, #53
 9047 32ac 009A     		ldr	r2, [sp]
 9048 32ae 0123     		movs	r3, #1
 9049 32b0 FFF7FEFF 		bl	LSM303AGR_ACC_ReadReg
 9050 32b4 0346     		mov	r3, r0
 9051 32b6 002B     		cmp	r3, #0
 9052 32b8 01D1     		bne	.L586
 9053              		.loc 1 3107 0
 9054 32ba 0023     		movs	r3, #0
 9055 32bc 07E0     		b	.L587
 9056              	.L586:
 9057              		.loc 1 3109 0
 9058 32be 009B     		ldr	r3, [sp]
 9059 32c0 1B78     		ldrb	r3, [r3]	@ zero_extendqisi2
 9060 32c2 03F00803 		and	r3, r3, #8
 9061 32c6 DAB2     		uxtb	r2, r3
 9062 32c8 009B     		ldr	r3, [sp]
 9063 32ca 1A70     		strb	r2, [r3]
 9064              		.loc 1 3111 0
 9065 32cc 0123     		movs	r3, #1
 9066              	.L587:
 9067              		.loc 1 3112 0
 9068 32ce 1846     		mov	r0, r3
 9069 32d0 03B0     		add	sp, sp, #12
 9070              		@ sp needed
 9071 32d2 5DF804FB 		ldr	pc, [sp], #4
 9072              		.cfi_endproc
 9073              	.LFE152:
 9074              		.size	LSM303AGR_ACC_R_Int2_YHi, .-LSM303AGR_ACC_R_Int2_YHi
 9075 32d6 00BF     		.align	2
 9076 32d8 AFF30080 		.p2align 4,,15
 9076      AFF30080 
 9077              		.global	LSM303AGR_ACC_R_Int2_Zlo
 9078              		.thumb
 9079              		.thumb_func
 9080              		.type	LSM303AGR_ACC_R_Int2_Zlo, %function
 9081              	LSM303AGR_ACC_R_Int2_Zlo:
 9082              	.LFB153:
 9083              		.loc 1 3122 0
 9084              		.cfi_startproc
ARM GAS  /tmp/ccVYwGiK.s 			page 163


 9085              		@ args = 0, pretend = 0, frame = 8
 9086              		@ frame_needed = 0, uses_anonymous_args = 0
 9087 32e0 00B5     		push	{lr}
 9088              		.cfi_def_cfa_offset 4
 9089              		.cfi_offset 14, -4
 9090 32e2 83B0     		sub	sp, sp, #12
 9091              		.cfi_def_cfa_offset 16
 9092 32e4 0190     		str	r0, [sp, #4]
 9093 32e6 0091     		str	r1, [sp]
 9094              		.loc 1 3123 0
 9095 32e8 0198     		ldr	r0, [sp, #4]
 9096 32ea 3521     		movs	r1, #53
 9097 32ec 009A     		ldr	r2, [sp]
 9098 32ee 0123     		movs	r3, #1
 9099 32f0 FFF7FEFF 		bl	LSM303AGR_ACC_ReadReg
 9100 32f4 0346     		mov	r3, r0
 9101 32f6 002B     		cmp	r3, #0
 9102 32f8 01D1     		bne	.L589
 9103              		.loc 1 3124 0
 9104 32fa 0023     		movs	r3, #0
 9105 32fc 07E0     		b	.L590
 9106              	.L589:
 9107              		.loc 1 3126 0
 9108 32fe 009B     		ldr	r3, [sp]
 9109 3300 1B78     		ldrb	r3, [r3]	@ zero_extendqisi2
 9110 3302 03F01003 		and	r3, r3, #16
 9111 3306 DAB2     		uxtb	r2, r3
 9112 3308 009B     		ldr	r3, [sp]
 9113 330a 1A70     		strb	r2, [r3]
 9114              		.loc 1 3128 0
 9115 330c 0123     		movs	r3, #1
 9116              	.L590:
 9117              		.loc 1 3129 0
 9118 330e 1846     		mov	r0, r3
 9119 3310 03B0     		add	sp, sp, #12
 9120              		@ sp needed
 9121 3312 5DF804FB 		ldr	pc, [sp], #4
 9122              		.cfi_endproc
 9123              	.LFE153:
 9124              		.size	LSM303AGR_ACC_R_Int2_Zlo, .-LSM303AGR_ACC_R_Int2_Zlo
 9125 3316 00BF     		.align	2
 9126 3318 AFF30080 		.p2align 4,,15
 9126      AFF30080 
 9127              		.global	LSM303AGR_ACC_R_Int2_ZHi
 9128              		.thumb
 9129              		.thumb_func
 9130              		.type	LSM303AGR_ACC_R_Int2_ZHi, %function
 9131              	LSM303AGR_ACC_R_Int2_ZHi:
 9132              	.LFB154:
 9133              		.loc 1 3139 0
 9134              		.cfi_startproc
 9135              		@ args = 0, pretend = 0, frame = 8
 9136              		@ frame_needed = 0, uses_anonymous_args = 0
 9137 3320 00B5     		push	{lr}
 9138              		.cfi_def_cfa_offset 4
 9139              		.cfi_offset 14, -4
 9140 3322 83B0     		sub	sp, sp, #12
ARM GAS  /tmp/ccVYwGiK.s 			page 164


 9141              		.cfi_def_cfa_offset 16
 9142 3324 0190     		str	r0, [sp, #4]
 9143 3326 0091     		str	r1, [sp]
 9144              		.loc 1 3140 0
 9145 3328 0198     		ldr	r0, [sp, #4]
 9146 332a 3521     		movs	r1, #53
 9147 332c 009A     		ldr	r2, [sp]
 9148 332e 0123     		movs	r3, #1
 9149 3330 FFF7FEFF 		bl	LSM303AGR_ACC_ReadReg
 9150 3334 0346     		mov	r3, r0
 9151 3336 002B     		cmp	r3, #0
 9152 3338 01D1     		bne	.L592
 9153              		.loc 1 3141 0
 9154 333a 0023     		movs	r3, #0
 9155 333c 07E0     		b	.L593
 9156              	.L592:
 9157              		.loc 1 3143 0
 9158 333e 009B     		ldr	r3, [sp]
 9159 3340 1B78     		ldrb	r3, [r3]	@ zero_extendqisi2
 9160 3342 03F02003 		and	r3, r3, #32
 9161 3346 DAB2     		uxtb	r2, r3
 9162 3348 009B     		ldr	r3, [sp]
 9163 334a 1A70     		strb	r2, [r3]
 9164              		.loc 1 3145 0
 9165 334c 0123     		movs	r3, #1
 9166              	.L593:
 9167              		.loc 1 3146 0
 9168 334e 1846     		mov	r0, r3
 9169 3350 03B0     		add	sp, sp, #12
 9170              		@ sp needed
 9171 3352 5DF804FB 		ldr	pc, [sp], #4
 9172              		.cfi_endproc
 9173              	.LFE154:
 9174              		.size	LSM303AGR_ACC_R_Int2_ZHi, .-LSM303AGR_ACC_R_Int2_ZHi
 9175 3356 00BF     		.align	2
 9176 3358 AFF30080 		.p2align 4,,15
 9176      AFF30080 
 9177              		.global	LSM303AGR_ACC_R_Int2_IA
 9178              		.thumb
 9179              		.thumb_func
 9180              		.type	LSM303AGR_ACC_R_Int2_IA, %function
 9181              	LSM303AGR_ACC_R_Int2_IA:
 9182              	.LFB155:
 9183              		.loc 1 3156 0
 9184              		.cfi_startproc
 9185              		@ args = 0, pretend = 0, frame = 8
 9186              		@ frame_needed = 0, uses_anonymous_args = 0
 9187 3360 00B5     		push	{lr}
 9188              		.cfi_def_cfa_offset 4
 9189              		.cfi_offset 14, -4
 9190 3362 83B0     		sub	sp, sp, #12
 9191              		.cfi_def_cfa_offset 16
 9192 3364 0190     		str	r0, [sp, #4]
 9193 3366 0091     		str	r1, [sp]
 9194              		.loc 1 3157 0
 9195 3368 0198     		ldr	r0, [sp, #4]
 9196 336a 3521     		movs	r1, #53
ARM GAS  /tmp/ccVYwGiK.s 			page 165


 9197 336c 009A     		ldr	r2, [sp]
 9198 336e 0123     		movs	r3, #1
 9199 3370 FFF7FEFF 		bl	LSM303AGR_ACC_ReadReg
 9200 3374 0346     		mov	r3, r0
 9201 3376 002B     		cmp	r3, #0
 9202 3378 01D1     		bne	.L595
 9203              		.loc 1 3158 0
 9204 337a 0023     		movs	r3, #0
 9205 337c 07E0     		b	.L596
 9206              	.L595:
 9207              		.loc 1 3160 0
 9208 337e 009B     		ldr	r3, [sp]
 9209 3380 1B78     		ldrb	r3, [r3]	@ zero_extendqisi2
 9210 3382 03F04003 		and	r3, r3, #64
 9211 3386 DAB2     		uxtb	r2, r3
 9212 3388 009B     		ldr	r3, [sp]
 9213 338a 1A70     		strb	r2, [r3]
 9214              		.loc 1 3162 0
 9215 338c 0123     		movs	r3, #1
 9216              	.L596:
 9217              		.loc 1 3163 0
 9218 338e 1846     		mov	r0, r3
 9219 3390 03B0     		add	sp, sp, #12
 9220              		@ sp needed
 9221 3392 5DF804FB 		ldr	pc, [sp], #4
 9222              		.cfi_endproc
 9223              	.LFE155:
 9224              		.size	LSM303AGR_ACC_R_Int2_IA, .-LSM303AGR_ACC_R_Int2_IA
 9225 3396 00BF     		.align	2
 9226 3398 AFF30080 		.p2align 4,,15
 9226      AFF30080 
 9227              		.global	LSM303AGR_ACC_W_Int1_Threshold
 9228              		.thumb
 9229              		.thumb_func
 9230              		.type	LSM303AGR_ACC_W_Int1_Threshold, %function
 9231              	LSM303AGR_ACC_W_Int1_Threshold:
 9232              	.LFB156:
 9233              		.loc 1 3173 0
 9234              		.cfi_startproc
 9235              		@ args = 0, pretend = 0, frame = 16
 9236              		@ frame_needed = 0, uses_anonymous_args = 0
 9237 33a0 00B5     		push	{lr}
 9238              		.cfi_def_cfa_offset 4
 9239              		.cfi_offset 14, -4
 9240 33a2 85B0     		sub	sp, sp, #20
 9241              		.cfi_def_cfa_offset 24
 9242 33a4 0190     		str	r0, [sp, #4]
 9243 33a6 0B46     		mov	r3, r1
 9244 33a8 8DF80330 		strb	r3, [sp, #3]
 9245              		.loc 1 3177 0
 9246 33ac 9DF80330 		ldrb	r3, [sp, #3]
 9247 33b0 03F07F03 		and	r3, r3, #127
 9248 33b4 8DF80330 		strb	r3, [sp, #3]
 9249              		.loc 1 3179 0
 9250 33b8 0DF10F03 		add	r3, sp, #15
 9251 33bc 0198     		ldr	r0, [sp, #4]
 9252 33be 3221     		movs	r1, #50
ARM GAS  /tmp/ccVYwGiK.s 			page 166


 9253 33c0 1A46     		mov	r2, r3
 9254 33c2 0123     		movs	r3, #1
 9255 33c4 FFF7FEFF 		bl	LSM303AGR_ACC_ReadReg
 9256 33c8 0346     		mov	r3, r0
 9257 33ca 002B     		cmp	r3, #0
 9258 33cc 01D1     		bne	.L598
 9259              		.loc 1 3180 0
 9260 33ce 0023     		movs	r3, #0
 9261 33d0 1CE0     		b	.L601
 9262              	.L598:
 9263              		.loc 1 3182 0
 9264 33d2 9DF80F30 		ldrb	r3, [sp, #15]	@ zero_extendqisi2
 9265 33d6 23F07F03 		bic	r3, r3, #127
 9266 33da DBB2     		uxtb	r3, r3
 9267 33dc 8DF80F30 		strb	r3, [sp, #15]
 9268              		.loc 1 3183 0
 9269 33e0 9DF80F20 		ldrb	r2, [sp, #15]	@ zero_extendqisi2
 9270 33e4 9DF80330 		ldrb	r3, [sp, #3]
 9271 33e8 1343     		orrs	r3, r3, r2
 9272 33ea DBB2     		uxtb	r3, r3
 9273 33ec 8DF80F30 		strb	r3, [sp, #15]
 9274              		.loc 1 3185 0
 9275 33f0 0DF10F03 		add	r3, sp, #15
 9276 33f4 0198     		ldr	r0, [sp, #4]
 9277 33f6 3221     		movs	r1, #50
 9278 33f8 1A46     		mov	r2, r3
 9279 33fa 0123     		movs	r3, #1
 9280 33fc FFF7FEFF 		bl	LSM303AGR_ACC_WriteReg
 9281 3400 0346     		mov	r3, r0
 9282 3402 002B     		cmp	r3, #0
 9283 3404 01D1     		bne	.L600
 9284              		.loc 1 3186 0
 9285 3406 0023     		movs	r3, #0
 9286 3408 00E0     		b	.L601
 9287              	.L600:
 9288              		.loc 1 3188 0
 9289 340a 0123     		movs	r3, #1
 9290              	.L601:
 9291              		.loc 1 3189 0
 9292 340c 1846     		mov	r0, r3
 9293 340e 05B0     		add	sp, sp, #20
 9294              		@ sp needed
 9295 3410 5DF804FB 		ldr	pc, [sp], #4
 9296              		.cfi_endproc
 9297              	.LFE156:
 9298              		.size	LSM303AGR_ACC_W_Int1_Threshold, .-LSM303AGR_ACC_W_Int1_Threshold
 9299              		.align	2
 9300 3414 AFF30080 		.p2align 4,,15
 9300      AFF30080 
 9300      AFF30080 
 9301              		.global	LSM303AGR_ACC_R_Int1_Threshold
 9302              		.thumb
 9303              		.thumb_func
 9304              		.type	LSM303AGR_ACC_R_Int1_Threshold, %function
 9305              	LSM303AGR_ACC_R_Int1_Threshold:
 9306              	.LFB157:
 9307              		.loc 1 3199 0
ARM GAS  /tmp/ccVYwGiK.s 			page 167


 9308              		.cfi_startproc
 9309              		@ args = 0, pretend = 0, frame = 8
 9310              		@ frame_needed = 0, uses_anonymous_args = 0
 9311 3420 00B5     		push	{lr}
 9312              		.cfi_def_cfa_offset 4
 9313              		.cfi_offset 14, -4
 9314 3422 83B0     		sub	sp, sp, #12
 9315              		.cfi_def_cfa_offset 16
 9316 3424 0190     		str	r0, [sp, #4]
 9317 3426 0091     		str	r1, [sp]
 9318              		.loc 1 3200 0
 9319 3428 0198     		ldr	r0, [sp, #4]
 9320 342a 3221     		movs	r1, #50
 9321 342c 009A     		ldr	r2, [sp]
 9322 342e 0123     		movs	r3, #1
 9323 3430 FFF7FEFF 		bl	LSM303AGR_ACC_ReadReg
 9324 3434 0346     		mov	r3, r0
 9325 3436 002B     		cmp	r3, #0
 9326 3438 01D1     		bne	.L603
 9327              		.loc 1 3201 0
 9328 343a 0023     		movs	r3, #0
 9329 343c 0BE0     		b	.L604
 9330              	.L603:
 9331              		.loc 1 3203 0
 9332 343e 009B     		ldr	r3, [sp]
 9333 3440 1B78     		ldrb	r3, [r3]	@ zero_extendqisi2
 9334 3442 03F07F03 		and	r3, r3, #127
 9335 3446 DAB2     		uxtb	r2, r3
 9336 3448 009B     		ldr	r3, [sp]
 9337 344a 1A70     		strb	r2, [r3]
 9338              		.loc 1 3204 0
 9339 344c 009B     		ldr	r3, [sp]
 9340 344e 1A78     		ldrb	r2, [r3]	@ zero_extendqisi2
 9341 3450 009B     		ldr	r3, [sp]
 9342 3452 1A70     		strb	r2, [r3]
 9343              		.loc 1 3206 0
 9344 3454 0123     		movs	r3, #1
 9345              	.L604:
 9346              		.loc 1 3207 0
 9347 3456 1846     		mov	r0, r3
 9348 3458 03B0     		add	sp, sp, #12
 9349              		@ sp needed
 9350 345a 5DF804FB 		ldr	pc, [sp], #4
 9351              		.cfi_endproc
 9352              	.LFE157:
 9353              		.size	LSM303AGR_ACC_R_Int1_Threshold, .-LSM303AGR_ACC_R_Int1_Threshold
 9354 345e 00BF     		.align	2
 9355              		.p2align 4,,15
 9356              		.global	LSM303AGR_ACC_W_Int2_Threshold
 9357              		.thumb
 9358              		.thumb_func
 9359              		.type	LSM303AGR_ACC_W_Int2_Threshold, %function
 9360              	LSM303AGR_ACC_W_Int2_Threshold:
 9361              	.LFB158:
 9362              		.loc 1 3217 0
 9363              		.cfi_startproc
 9364              		@ args = 0, pretend = 0, frame = 16
ARM GAS  /tmp/ccVYwGiK.s 			page 168


 9365              		@ frame_needed = 0, uses_anonymous_args = 0
 9366 3460 00B5     		push	{lr}
 9367              		.cfi_def_cfa_offset 4
 9368              		.cfi_offset 14, -4
 9369 3462 85B0     		sub	sp, sp, #20
 9370              		.cfi_def_cfa_offset 24
 9371 3464 0190     		str	r0, [sp, #4]
 9372 3466 0B46     		mov	r3, r1
 9373 3468 8DF80330 		strb	r3, [sp, #3]
 9374              		.loc 1 3221 0
 9375 346c 9DF80330 		ldrb	r3, [sp, #3]
 9376 3470 03F07F03 		and	r3, r3, #127
 9377 3474 8DF80330 		strb	r3, [sp, #3]
 9378              		.loc 1 3223 0
 9379 3478 0DF10F03 		add	r3, sp, #15
 9380 347c 0198     		ldr	r0, [sp, #4]
 9381 347e 3621     		movs	r1, #54
 9382 3480 1A46     		mov	r2, r3
 9383 3482 0123     		movs	r3, #1
 9384 3484 FFF7FEFF 		bl	LSM303AGR_ACC_ReadReg
 9385 3488 0346     		mov	r3, r0
 9386 348a 002B     		cmp	r3, #0
 9387 348c 01D1     		bne	.L606
 9388              		.loc 1 3224 0
 9389 348e 0023     		movs	r3, #0
 9390 3490 1CE0     		b	.L609
 9391              	.L606:
 9392              		.loc 1 3226 0
 9393 3492 9DF80F30 		ldrb	r3, [sp, #15]	@ zero_extendqisi2
 9394 3496 23F07F03 		bic	r3, r3, #127
 9395 349a DBB2     		uxtb	r3, r3
 9396 349c 8DF80F30 		strb	r3, [sp, #15]
 9397              		.loc 1 3227 0
 9398 34a0 9DF80F20 		ldrb	r2, [sp, #15]	@ zero_extendqisi2
 9399 34a4 9DF80330 		ldrb	r3, [sp, #3]
 9400 34a8 1343     		orrs	r3, r3, r2
 9401 34aa DBB2     		uxtb	r3, r3
 9402 34ac 8DF80F30 		strb	r3, [sp, #15]
 9403              		.loc 1 3229 0
 9404 34b0 0DF10F03 		add	r3, sp, #15
 9405 34b4 0198     		ldr	r0, [sp, #4]
 9406 34b6 3621     		movs	r1, #54
 9407 34b8 1A46     		mov	r2, r3
 9408 34ba 0123     		movs	r3, #1
 9409 34bc FFF7FEFF 		bl	LSM303AGR_ACC_WriteReg
 9410 34c0 0346     		mov	r3, r0
 9411 34c2 002B     		cmp	r3, #0
 9412 34c4 01D1     		bne	.L608
 9413              		.loc 1 3230 0
 9414 34c6 0023     		movs	r3, #0
 9415 34c8 00E0     		b	.L609
 9416              	.L608:
 9417              		.loc 1 3232 0
 9418 34ca 0123     		movs	r3, #1
 9419              	.L609:
 9420              		.loc 1 3233 0
 9421 34cc 1846     		mov	r0, r3
ARM GAS  /tmp/ccVYwGiK.s 			page 169


 9422 34ce 05B0     		add	sp, sp, #20
 9423              		@ sp needed
 9424 34d0 5DF804FB 		ldr	pc, [sp], #4
 9425              		.cfi_endproc
 9426              	.LFE158:
 9427              		.size	LSM303AGR_ACC_W_Int2_Threshold, .-LSM303AGR_ACC_W_Int2_Threshold
 9428              		.align	2
 9429 34d4 AFF30080 		.p2align 4,,15
 9429      AFF30080 
 9429      AFF30080 
 9430              		.global	LSM303AGR_ACC_R_Int2_Threshold
 9431              		.thumb
 9432              		.thumb_func
 9433              		.type	LSM303AGR_ACC_R_Int2_Threshold, %function
 9434              	LSM303AGR_ACC_R_Int2_Threshold:
 9435              	.LFB159:
 9436              		.loc 1 3243 0
 9437              		.cfi_startproc
 9438              		@ args = 0, pretend = 0, frame = 8
 9439              		@ frame_needed = 0, uses_anonymous_args = 0
 9440 34e0 00B5     		push	{lr}
 9441              		.cfi_def_cfa_offset 4
 9442              		.cfi_offset 14, -4
 9443 34e2 83B0     		sub	sp, sp, #12
 9444              		.cfi_def_cfa_offset 16
 9445 34e4 0190     		str	r0, [sp, #4]
 9446 34e6 0091     		str	r1, [sp]
 9447              		.loc 1 3244 0
 9448 34e8 0198     		ldr	r0, [sp, #4]
 9449 34ea 3621     		movs	r1, #54
 9450 34ec 009A     		ldr	r2, [sp]
 9451 34ee 0123     		movs	r3, #1
 9452 34f0 FFF7FEFF 		bl	LSM303AGR_ACC_ReadReg
 9453 34f4 0346     		mov	r3, r0
 9454 34f6 002B     		cmp	r3, #0
 9455 34f8 01D1     		bne	.L611
 9456              		.loc 1 3245 0
 9457 34fa 0023     		movs	r3, #0
 9458 34fc 0BE0     		b	.L612
 9459              	.L611:
 9460              		.loc 1 3247 0
 9461 34fe 009B     		ldr	r3, [sp]
 9462 3500 1B78     		ldrb	r3, [r3]	@ zero_extendqisi2
 9463 3502 03F07F03 		and	r3, r3, #127
 9464 3506 DAB2     		uxtb	r2, r3
 9465 3508 009B     		ldr	r3, [sp]
 9466 350a 1A70     		strb	r2, [r3]
 9467              		.loc 1 3248 0
 9468 350c 009B     		ldr	r3, [sp]
 9469 350e 1A78     		ldrb	r2, [r3]	@ zero_extendqisi2
 9470 3510 009B     		ldr	r3, [sp]
 9471 3512 1A70     		strb	r2, [r3]
 9472              		.loc 1 3250 0
 9473 3514 0123     		movs	r3, #1
 9474              	.L612:
 9475              		.loc 1 3251 0
 9476 3516 1846     		mov	r0, r3
ARM GAS  /tmp/ccVYwGiK.s 			page 170


 9477 3518 03B0     		add	sp, sp, #12
 9478              		@ sp needed
 9479 351a 5DF804FB 		ldr	pc, [sp], #4
 9480              		.cfi_endproc
 9481              	.LFE159:
 9482              		.size	LSM303AGR_ACC_R_Int2_Threshold, .-LSM303AGR_ACC_R_Int2_Threshold
 9483 351e 00BF     		.align	2
 9484              		.p2align 4,,15
 9485              		.global	LSM303AGR_ACC_W_Int1_Duration
 9486              		.thumb
 9487              		.thumb_func
 9488              		.type	LSM303AGR_ACC_W_Int1_Duration, %function
 9489              	LSM303AGR_ACC_W_Int1_Duration:
 9490              	.LFB160:
 9491              		.loc 1 3261 0
 9492              		.cfi_startproc
 9493              		@ args = 0, pretend = 0, frame = 16
 9494              		@ frame_needed = 0, uses_anonymous_args = 0
 9495 3520 00B5     		push	{lr}
 9496              		.cfi_def_cfa_offset 4
 9497              		.cfi_offset 14, -4
 9498 3522 85B0     		sub	sp, sp, #20
 9499              		.cfi_def_cfa_offset 24
 9500 3524 0190     		str	r0, [sp, #4]
 9501 3526 0B46     		mov	r3, r1
 9502 3528 8DF80330 		strb	r3, [sp, #3]
 9503              		.loc 1 3265 0
 9504 352c 9DF80330 		ldrb	r3, [sp, #3]
 9505 3530 03F07F03 		and	r3, r3, #127
 9506 3534 8DF80330 		strb	r3, [sp, #3]
 9507              		.loc 1 3267 0
 9508 3538 0DF10F03 		add	r3, sp, #15
 9509 353c 0198     		ldr	r0, [sp, #4]
 9510 353e 3321     		movs	r1, #51
 9511 3540 1A46     		mov	r2, r3
 9512 3542 0123     		movs	r3, #1
 9513 3544 FFF7FEFF 		bl	LSM303AGR_ACC_ReadReg
 9514 3548 0346     		mov	r3, r0
 9515 354a 002B     		cmp	r3, #0
 9516 354c 01D1     		bne	.L614
 9517              		.loc 1 3268 0
 9518 354e 0023     		movs	r3, #0
 9519 3550 1CE0     		b	.L617
 9520              	.L614:
 9521              		.loc 1 3270 0
 9522 3552 9DF80F30 		ldrb	r3, [sp, #15]	@ zero_extendqisi2
 9523 3556 23F07F03 		bic	r3, r3, #127
 9524 355a DBB2     		uxtb	r3, r3
 9525 355c 8DF80F30 		strb	r3, [sp, #15]
 9526              		.loc 1 3271 0
 9527 3560 9DF80F20 		ldrb	r2, [sp, #15]	@ zero_extendqisi2
 9528 3564 9DF80330 		ldrb	r3, [sp, #3]
 9529 3568 1343     		orrs	r3, r3, r2
 9530 356a DBB2     		uxtb	r3, r3
 9531 356c 8DF80F30 		strb	r3, [sp, #15]
 9532              		.loc 1 3273 0
 9533 3570 0DF10F03 		add	r3, sp, #15
ARM GAS  /tmp/ccVYwGiK.s 			page 171


 9534 3574 0198     		ldr	r0, [sp, #4]
 9535 3576 3321     		movs	r1, #51
 9536 3578 1A46     		mov	r2, r3
 9537 357a 0123     		movs	r3, #1
 9538 357c FFF7FEFF 		bl	LSM303AGR_ACC_WriteReg
 9539 3580 0346     		mov	r3, r0
 9540 3582 002B     		cmp	r3, #0
 9541 3584 01D1     		bne	.L616
 9542              		.loc 1 3274 0
 9543 3586 0023     		movs	r3, #0
 9544 3588 00E0     		b	.L617
 9545              	.L616:
 9546              		.loc 1 3276 0
 9547 358a 0123     		movs	r3, #1
 9548              	.L617:
 9549              		.loc 1 3277 0
 9550 358c 1846     		mov	r0, r3
 9551 358e 05B0     		add	sp, sp, #20
 9552              		@ sp needed
 9553 3590 5DF804FB 		ldr	pc, [sp], #4
 9554              		.cfi_endproc
 9555              	.LFE160:
 9556              		.size	LSM303AGR_ACC_W_Int1_Duration, .-LSM303AGR_ACC_W_Int1_Duration
 9557              		.align	2
 9558 3594 AFF30080 		.p2align 4,,15
 9558      AFF30080 
 9558      AFF30080 
 9559              		.global	LSM303AGR_ACC_R_Int1_Duration
 9560              		.thumb
 9561              		.thumb_func
 9562              		.type	LSM303AGR_ACC_R_Int1_Duration, %function
 9563              	LSM303AGR_ACC_R_Int1_Duration:
 9564              	.LFB161:
 9565              		.loc 1 3287 0
 9566              		.cfi_startproc
 9567              		@ args = 0, pretend = 0, frame = 8
 9568              		@ frame_needed = 0, uses_anonymous_args = 0
 9569 35a0 00B5     		push	{lr}
 9570              		.cfi_def_cfa_offset 4
 9571              		.cfi_offset 14, -4
 9572 35a2 83B0     		sub	sp, sp, #12
 9573              		.cfi_def_cfa_offset 16
 9574 35a4 0190     		str	r0, [sp, #4]
 9575 35a6 0091     		str	r1, [sp]
 9576              		.loc 1 3288 0
 9577 35a8 0198     		ldr	r0, [sp, #4]
 9578 35aa 3321     		movs	r1, #51
 9579 35ac 009A     		ldr	r2, [sp]
 9580 35ae 0123     		movs	r3, #1
 9581 35b0 FFF7FEFF 		bl	LSM303AGR_ACC_ReadReg
 9582 35b4 0346     		mov	r3, r0
 9583 35b6 002B     		cmp	r3, #0
 9584 35b8 01D1     		bne	.L619
 9585              		.loc 1 3289 0
 9586 35ba 0023     		movs	r3, #0
 9587 35bc 0BE0     		b	.L620
 9588              	.L619:
ARM GAS  /tmp/ccVYwGiK.s 			page 172


 9589              		.loc 1 3291 0
 9590 35be 009B     		ldr	r3, [sp]
 9591 35c0 1B78     		ldrb	r3, [r3]	@ zero_extendqisi2
 9592 35c2 03F07F03 		and	r3, r3, #127
 9593 35c6 DAB2     		uxtb	r2, r3
 9594 35c8 009B     		ldr	r3, [sp]
 9595 35ca 1A70     		strb	r2, [r3]
 9596              		.loc 1 3292 0
 9597 35cc 009B     		ldr	r3, [sp]
 9598 35ce 1A78     		ldrb	r2, [r3]	@ zero_extendqisi2
 9599 35d0 009B     		ldr	r3, [sp]
 9600 35d2 1A70     		strb	r2, [r3]
 9601              		.loc 1 3294 0
 9602 35d4 0123     		movs	r3, #1
 9603              	.L620:
 9604              		.loc 1 3295 0
 9605 35d6 1846     		mov	r0, r3
 9606 35d8 03B0     		add	sp, sp, #12
 9607              		@ sp needed
 9608 35da 5DF804FB 		ldr	pc, [sp], #4
 9609              		.cfi_endproc
 9610              	.LFE161:
 9611              		.size	LSM303AGR_ACC_R_Int1_Duration, .-LSM303AGR_ACC_R_Int1_Duration
 9612 35de 00BF     		.align	2
 9613              		.p2align 4,,15
 9614              		.global	LSM303AGR_ACC_W_Int2_Duration
 9615              		.thumb
 9616              		.thumb_func
 9617              		.type	LSM303AGR_ACC_W_Int2_Duration, %function
 9618              	LSM303AGR_ACC_W_Int2_Duration:
 9619              	.LFB162:
 9620              		.loc 1 3305 0
 9621              		.cfi_startproc
 9622              		@ args = 0, pretend = 0, frame = 16
 9623              		@ frame_needed = 0, uses_anonymous_args = 0
 9624 35e0 00B5     		push	{lr}
 9625              		.cfi_def_cfa_offset 4
 9626              		.cfi_offset 14, -4
 9627 35e2 85B0     		sub	sp, sp, #20
 9628              		.cfi_def_cfa_offset 24
 9629 35e4 0190     		str	r0, [sp, #4]
 9630 35e6 0B46     		mov	r3, r1
 9631 35e8 8DF80330 		strb	r3, [sp, #3]
 9632              		.loc 1 3309 0
 9633 35ec 9DF80330 		ldrb	r3, [sp, #3]
 9634 35f0 03F07F03 		and	r3, r3, #127
 9635 35f4 8DF80330 		strb	r3, [sp, #3]
 9636              		.loc 1 3311 0
 9637 35f8 0DF10F03 		add	r3, sp, #15
 9638 35fc 0198     		ldr	r0, [sp, #4]
 9639 35fe 3721     		movs	r1, #55
 9640 3600 1A46     		mov	r2, r3
 9641 3602 0123     		movs	r3, #1
 9642 3604 FFF7FEFF 		bl	LSM303AGR_ACC_ReadReg
 9643 3608 0346     		mov	r3, r0
 9644 360a 002B     		cmp	r3, #0
 9645 360c 01D1     		bne	.L622
ARM GAS  /tmp/ccVYwGiK.s 			page 173


 9646              		.loc 1 3312 0
 9647 360e 0023     		movs	r3, #0
 9648 3610 1CE0     		b	.L625
 9649              	.L622:
 9650              		.loc 1 3314 0
 9651 3612 9DF80F30 		ldrb	r3, [sp, #15]	@ zero_extendqisi2
 9652 3616 23F07F03 		bic	r3, r3, #127
 9653 361a DBB2     		uxtb	r3, r3
 9654 361c 8DF80F30 		strb	r3, [sp, #15]
 9655              		.loc 1 3315 0
 9656 3620 9DF80F20 		ldrb	r2, [sp, #15]	@ zero_extendqisi2
 9657 3624 9DF80330 		ldrb	r3, [sp, #3]
 9658 3628 1343     		orrs	r3, r3, r2
 9659 362a DBB2     		uxtb	r3, r3
 9660 362c 8DF80F30 		strb	r3, [sp, #15]
 9661              		.loc 1 3317 0
 9662 3630 0DF10F03 		add	r3, sp, #15
 9663 3634 0198     		ldr	r0, [sp, #4]
 9664 3636 3721     		movs	r1, #55
 9665 3638 1A46     		mov	r2, r3
 9666 363a 0123     		movs	r3, #1
 9667 363c FFF7FEFF 		bl	LSM303AGR_ACC_WriteReg
 9668 3640 0346     		mov	r3, r0
 9669 3642 002B     		cmp	r3, #0
 9670 3644 01D1     		bne	.L624
 9671              		.loc 1 3318 0
 9672 3646 0023     		movs	r3, #0
 9673 3648 00E0     		b	.L625
 9674              	.L624:
 9675              		.loc 1 3320 0
 9676 364a 0123     		movs	r3, #1
 9677              	.L625:
 9678              		.loc 1 3321 0
 9679 364c 1846     		mov	r0, r3
 9680 364e 05B0     		add	sp, sp, #20
 9681              		@ sp needed
 9682 3650 5DF804FB 		ldr	pc, [sp], #4
 9683              		.cfi_endproc
 9684              	.LFE162:
 9685              		.size	LSM303AGR_ACC_W_Int2_Duration, .-LSM303AGR_ACC_W_Int2_Duration
 9686              		.align	2
 9687 3654 AFF30080 		.p2align 4,,15
 9687      AFF30080 
 9687      AFF30080 
 9688              		.global	LSM303AGR_ACC_R_Int2_Duration
 9689              		.thumb
 9690              		.thumb_func
 9691              		.type	LSM303AGR_ACC_R_Int2_Duration, %function
 9692              	LSM303AGR_ACC_R_Int2_Duration:
 9693              	.LFB163:
 9694              		.loc 1 3331 0
 9695              		.cfi_startproc
 9696              		@ args = 0, pretend = 0, frame = 8
 9697              		@ frame_needed = 0, uses_anonymous_args = 0
 9698 3660 00B5     		push	{lr}
 9699              		.cfi_def_cfa_offset 4
 9700              		.cfi_offset 14, -4
ARM GAS  /tmp/ccVYwGiK.s 			page 174


 9701 3662 83B0     		sub	sp, sp, #12
 9702              		.cfi_def_cfa_offset 16
 9703 3664 0190     		str	r0, [sp, #4]
 9704 3666 0091     		str	r1, [sp]
 9705              		.loc 1 3332 0
 9706 3668 0198     		ldr	r0, [sp, #4]
 9707 366a 3721     		movs	r1, #55
 9708 366c 009A     		ldr	r2, [sp]
 9709 366e 0123     		movs	r3, #1
 9710 3670 FFF7FEFF 		bl	LSM303AGR_ACC_ReadReg
 9711 3674 0346     		mov	r3, r0
 9712 3676 002B     		cmp	r3, #0
 9713 3678 01D1     		bne	.L627
 9714              		.loc 1 3333 0
 9715 367a 0023     		movs	r3, #0
 9716 367c 0BE0     		b	.L628
 9717              	.L627:
 9718              		.loc 1 3335 0
 9719 367e 009B     		ldr	r3, [sp]
 9720 3680 1B78     		ldrb	r3, [r3]	@ zero_extendqisi2
 9721 3682 03F07F03 		and	r3, r3, #127
 9722 3686 DAB2     		uxtb	r2, r3
 9723 3688 009B     		ldr	r3, [sp]
 9724 368a 1A70     		strb	r2, [r3]
 9725              		.loc 1 3336 0
 9726 368c 009B     		ldr	r3, [sp]
 9727 368e 1A78     		ldrb	r2, [r3]	@ zero_extendqisi2
 9728 3690 009B     		ldr	r3, [sp]
 9729 3692 1A70     		strb	r2, [r3]
 9730              		.loc 1 3338 0
 9731 3694 0123     		movs	r3, #1
 9732              	.L628:
 9733              		.loc 1 3339 0
 9734 3696 1846     		mov	r0, r3
 9735 3698 03B0     		add	sp, sp, #12
 9736              		@ sp needed
 9737 369a 5DF804FB 		ldr	pc, [sp], #4
 9738              		.cfi_endproc
 9739              	.LFE163:
 9740              		.size	LSM303AGR_ACC_R_Int2_Duration, .-LSM303AGR_ACC_R_Int2_Duration
 9741 369e 00BF     		.align	2
 9742              		.p2align 4,,15
 9743              		.global	LSM303AGR_ACC_W_XSingle
 9744              		.thumb
 9745              		.thumb_func
 9746              		.type	LSM303AGR_ACC_W_XSingle, %function
 9747              	LSM303AGR_ACC_W_XSingle:
 9748              	.LFB164:
 9749              		.loc 1 3349 0
 9750              		.cfi_startproc
 9751              		@ args = 0, pretend = 0, frame = 16
 9752              		@ frame_needed = 0, uses_anonymous_args = 0
 9753 36a0 00B5     		push	{lr}
 9754              		.cfi_def_cfa_offset 4
 9755              		.cfi_offset 14, -4
 9756 36a2 85B0     		sub	sp, sp, #20
 9757              		.cfi_def_cfa_offset 24
ARM GAS  /tmp/ccVYwGiK.s 			page 175


 9758 36a4 0190     		str	r0, [sp, #4]
 9759 36a6 0B46     		mov	r3, r1
 9760 36a8 8DF80330 		strb	r3, [sp, #3]
 9761              		.loc 1 3352 0
 9762 36ac 0DF10F03 		add	r3, sp, #15
 9763 36b0 0198     		ldr	r0, [sp, #4]
 9764 36b2 3821     		movs	r1, #56
 9765 36b4 1A46     		mov	r2, r3
 9766 36b6 0123     		movs	r3, #1
 9767 36b8 FFF7FEFF 		bl	LSM303AGR_ACC_ReadReg
 9768 36bc 0346     		mov	r3, r0
 9769 36be 002B     		cmp	r3, #0
 9770 36c0 01D1     		bne	.L630
 9771              		.loc 1 3353 0
 9772 36c2 0023     		movs	r3, #0
 9773 36c4 1CE0     		b	.L633
 9774              	.L630:
 9775              		.loc 1 3355 0
 9776 36c6 9DF80F30 		ldrb	r3, [sp, #15]	@ zero_extendqisi2
 9777 36ca 23F00103 		bic	r3, r3, #1
 9778 36ce DBB2     		uxtb	r3, r3
 9779 36d0 8DF80F30 		strb	r3, [sp, #15]
 9780              		.loc 1 3356 0
 9781 36d4 9DF80F20 		ldrb	r2, [sp, #15]	@ zero_extendqisi2
 9782 36d8 9DF80330 		ldrb	r3, [sp, #3]
 9783 36dc 1343     		orrs	r3, r3, r2
 9784 36de DBB2     		uxtb	r3, r3
 9785 36e0 8DF80F30 		strb	r3, [sp, #15]
 9786              		.loc 1 3358 0
 9787 36e4 0DF10F03 		add	r3, sp, #15
 9788 36e8 0198     		ldr	r0, [sp, #4]
 9789 36ea 3821     		movs	r1, #56
 9790 36ec 1A46     		mov	r2, r3
 9791 36ee 0123     		movs	r3, #1
 9792 36f0 FFF7FEFF 		bl	LSM303AGR_ACC_WriteReg
 9793 36f4 0346     		mov	r3, r0
 9794 36f6 002B     		cmp	r3, #0
 9795 36f8 01D1     		bne	.L632
 9796              		.loc 1 3359 0
 9797 36fa 0023     		movs	r3, #0
 9798 36fc 00E0     		b	.L633
 9799              	.L632:
 9800              		.loc 1 3361 0
 9801 36fe 0123     		movs	r3, #1
 9802              	.L633:
 9803              		.loc 1 3362 0
 9804 3700 1846     		mov	r0, r3
 9805 3702 05B0     		add	sp, sp, #20
 9806              		@ sp needed
 9807 3704 5DF804FB 		ldr	pc, [sp], #4
 9808              		.cfi_endproc
 9809              	.LFE164:
 9810              		.size	LSM303AGR_ACC_W_XSingle, .-LSM303AGR_ACC_W_XSingle
 9811              		.align	2
 9812 3708 AFF30080 		.p2align 4,,15
 9812      AFF30080 
 9813              		.global	LSM303AGR_ACC_R_XSingle
ARM GAS  /tmp/ccVYwGiK.s 			page 176


 9814              		.thumb
 9815              		.thumb_func
 9816              		.type	LSM303AGR_ACC_R_XSingle, %function
 9817              	LSM303AGR_ACC_R_XSingle:
 9818              	.LFB165:
 9819              		.loc 1 3372 0
 9820              		.cfi_startproc
 9821              		@ args = 0, pretend = 0, frame = 8
 9822              		@ frame_needed = 0, uses_anonymous_args = 0
 9823 3710 00B5     		push	{lr}
 9824              		.cfi_def_cfa_offset 4
 9825              		.cfi_offset 14, -4
 9826 3712 83B0     		sub	sp, sp, #12
 9827              		.cfi_def_cfa_offset 16
 9828 3714 0190     		str	r0, [sp, #4]
 9829 3716 0091     		str	r1, [sp]
 9830              		.loc 1 3373 0
 9831 3718 0198     		ldr	r0, [sp, #4]
 9832 371a 3821     		movs	r1, #56
 9833 371c 009A     		ldr	r2, [sp]
 9834 371e 0123     		movs	r3, #1
 9835 3720 FFF7FEFF 		bl	LSM303AGR_ACC_ReadReg
 9836 3724 0346     		mov	r3, r0
 9837 3726 002B     		cmp	r3, #0
 9838 3728 01D1     		bne	.L635
 9839              		.loc 1 3374 0
 9840 372a 0023     		movs	r3, #0
 9841 372c 07E0     		b	.L636
 9842              	.L635:
 9843              		.loc 1 3376 0
 9844 372e 009B     		ldr	r3, [sp]
 9845 3730 1B78     		ldrb	r3, [r3]	@ zero_extendqisi2
 9846 3732 03F00103 		and	r3, r3, #1
 9847 3736 DAB2     		uxtb	r2, r3
 9848 3738 009B     		ldr	r3, [sp]
 9849 373a 1A70     		strb	r2, [r3]
 9850              		.loc 1 3378 0
 9851 373c 0123     		movs	r3, #1
 9852              	.L636:
 9853              		.loc 1 3379 0
 9854 373e 1846     		mov	r0, r3
 9855 3740 03B0     		add	sp, sp, #12
 9856              		@ sp needed
 9857 3742 5DF804FB 		ldr	pc, [sp], #4
 9858              		.cfi_endproc
 9859              	.LFE165:
 9860              		.size	LSM303AGR_ACC_R_XSingle, .-LSM303AGR_ACC_R_XSingle
 9861 3746 00BF     		.align	2
 9862 3748 AFF30080 		.p2align 4,,15
 9862      AFF30080 
 9863              		.global	LSM303AGR_ACC_W_XDouble
 9864              		.thumb
 9865              		.thumb_func
 9866              		.type	LSM303AGR_ACC_W_XDouble, %function
 9867              	LSM303AGR_ACC_W_XDouble:
 9868              	.LFB166:
 9869              		.loc 1 3389 0
ARM GAS  /tmp/ccVYwGiK.s 			page 177


 9870              		.cfi_startproc
 9871              		@ args = 0, pretend = 0, frame = 16
 9872              		@ frame_needed = 0, uses_anonymous_args = 0
 9873 3750 00B5     		push	{lr}
 9874              		.cfi_def_cfa_offset 4
 9875              		.cfi_offset 14, -4
 9876 3752 85B0     		sub	sp, sp, #20
 9877              		.cfi_def_cfa_offset 24
 9878 3754 0190     		str	r0, [sp, #4]
 9879 3756 0B46     		mov	r3, r1
 9880 3758 8DF80330 		strb	r3, [sp, #3]
 9881              		.loc 1 3392 0
 9882 375c 0DF10F03 		add	r3, sp, #15
 9883 3760 0198     		ldr	r0, [sp, #4]
 9884 3762 3821     		movs	r1, #56
 9885 3764 1A46     		mov	r2, r3
 9886 3766 0123     		movs	r3, #1
 9887 3768 FFF7FEFF 		bl	LSM303AGR_ACC_ReadReg
 9888 376c 0346     		mov	r3, r0
 9889 376e 002B     		cmp	r3, #0
 9890 3770 01D1     		bne	.L638
 9891              		.loc 1 3393 0
 9892 3772 0023     		movs	r3, #0
 9893 3774 1CE0     		b	.L641
 9894              	.L638:
 9895              		.loc 1 3395 0
 9896 3776 9DF80F30 		ldrb	r3, [sp, #15]	@ zero_extendqisi2
 9897 377a 23F00203 		bic	r3, r3, #2
 9898 377e DBB2     		uxtb	r3, r3
 9899 3780 8DF80F30 		strb	r3, [sp, #15]
 9900              		.loc 1 3396 0
 9901 3784 9DF80F20 		ldrb	r2, [sp, #15]	@ zero_extendqisi2
 9902 3788 9DF80330 		ldrb	r3, [sp, #3]
 9903 378c 1343     		orrs	r3, r3, r2
 9904 378e DBB2     		uxtb	r3, r3
 9905 3790 8DF80F30 		strb	r3, [sp, #15]
 9906              		.loc 1 3398 0
 9907 3794 0DF10F03 		add	r3, sp, #15
 9908 3798 0198     		ldr	r0, [sp, #4]
 9909 379a 3821     		movs	r1, #56
 9910 379c 1A46     		mov	r2, r3
 9911 379e 0123     		movs	r3, #1
 9912 37a0 FFF7FEFF 		bl	LSM303AGR_ACC_WriteReg
 9913 37a4 0346     		mov	r3, r0
 9914 37a6 002B     		cmp	r3, #0
 9915 37a8 01D1     		bne	.L640
 9916              		.loc 1 3399 0
 9917 37aa 0023     		movs	r3, #0
 9918 37ac 00E0     		b	.L641
 9919              	.L640:
 9920              		.loc 1 3401 0
 9921 37ae 0123     		movs	r3, #1
 9922              	.L641:
 9923              		.loc 1 3402 0
 9924 37b0 1846     		mov	r0, r3
 9925 37b2 05B0     		add	sp, sp, #20
 9926              		@ sp needed
ARM GAS  /tmp/ccVYwGiK.s 			page 178


 9927 37b4 5DF804FB 		ldr	pc, [sp], #4
 9928              		.cfi_endproc
 9929              	.LFE166:
 9930              		.size	LSM303AGR_ACC_W_XDouble, .-LSM303AGR_ACC_W_XDouble
 9931              		.align	2
 9932 37b8 AFF30080 		.p2align 4,,15
 9932      AFF30080 
 9933              		.global	LSM303AGR_ACC_R_XDouble
 9934              		.thumb
 9935              		.thumb_func
 9936              		.type	LSM303AGR_ACC_R_XDouble, %function
 9937              	LSM303AGR_ACC_R_XDouble:
 9938              	.LFB167:
 9939              		.loc 1 3412 0
 9940              		.cfi_startproc
 9941              		@ args = 0, pretend = 0, frame = 8
 9942              		@ frame_needed = 0, uses_anonymous_args = 0
 9943 37c0 00B5     		push	{lr}
 9944              		.cfi_def_cfa_offset 4
 9945              		.cfi_offset 14, -4
 9946 37c2 83B0     		sub	sp, sp, #12
 9947              		.cfi_def_cfa_offset 16
 9948 37c4 0190     		str	r0, [sp, #4]
 9949 37c6 0091     		str	r1, [sp]
 9950              		.loc 1 3413 0
 9951 37c8 0198     		ldr	r0, [sp, #4]
 9952 37ca 3821     		movs	r1, #56
 9953 37cc 009A     		ldr	r2, [sp]
 9954 37ce 0123     		movs	r3, #1
 9955 37d0 FFF7FEFF 		bl	LSM303AGR_ACC_ReadReg
 9956 37d4 0346     		mov	r3, r0
 9957 37d6 002B     		cmp	r3, #0
 9958 37d8 01D1     		bne	.L643
 9959              		.loc 1 3414 0
 9960 37da 0023     		movs	r3, #0
 9961 37dc 07E0     		b	.L644
 9962              	.L643:
 9963              		.loc 1 3416 0
 9964 37de 009B     		ldr	r3, [sp]
 9965 37e0 1B78     		ldrb	r3, [r3]	@ zero_extendqisi2
 9966 37e2 03F00203 		and	r3, r3, #2
 9967 37e6 DAB2     		uxtb	r2, r3
 9968 37e8 009B     		ldr	r3, [sp]
 9969 37ea 1A70     		strb	r2, [r3]
 9970              		.loc 1 3418 0
 9971 37ec 0123     		movs	r3, #1
 9972              	.L644:
 9973              		.loc 1 3419 0
 9974 37ee 1846     		mov	r0, r3
 9975 37f0 03B0     		add	sp, sp, #12
 9976              		@ sp needed
 9977 37f2 5DF804FB 		ldr	pc, [sp], #4
 9978              		.cfi_endproc
 9979              	.LFE167:
 9980              		.size	LSM303AGR_ACC_R_XDouble, .-LSM303AGR_ACC_R_XDouble
 9981 37f6 00BF     		.align	2
 9982 37f8 AFF30080 		.p2align 4,,15
ARM GAS  /tmp/ccVYwGiK.s 			page 179


 9982      AFF30080 
 9983              		.global	LSM303AGR_ACC_W_YSingle
 9984              		.thumb
 9985              		.thumb_func
 9986              		.type	LSM303AGR_ACC_W_YSingle, %function
 9987              	LSM303AGR_ACC_W_YSingle:
 9988              	.LFB168:
 9989              		.loc 1 3429 0
 9990              		.cfi_startproc
 9991              		@ args = 0, pretend = 0, frame = 16
 9992              		@ frame_needed = 0, uses_anonymous_args = 0
 9993 3800 00B5     		push	{lr}
 9994              		.cfi_def_cfa_offset 4
 9995              		.cfi_offset 14, -4
 9996 3802 85B0     		sub	sp, sp, #20
 9997              		.cfi_def_cfa_offset 24
 9998 3804 0190     		str	r0, [sp, #4]
 9999 3806 0B46     		mov	r3, r1
 10000 3808 8DF80330 		strb	r3, [sp, #3]
 10001              		.loc 1 3432 0
 10002 380c 0DF10F03 		add	r3, sp, #15
 10003 3810 0198     		ldr	r0, [sp, #4]
 10004 3812 3821     		movs	r1, #56
 10005 3814 1A46     		mov	r2, r3
 10006 3816 0123     		movs	r3, #1
 10007 3818 FFF7FEFF 		bl	LSM303AGR_ACC_ReadReg
 10008 381c 0346     		mov	r3, r0
 10009 381e 002B     		cmp	r3, #0
 10010 3820 01D1     		bne	.L646
 10011              		.loc 1 3433 0
 10012 3822 0023     		movs	r3, #0
 10013 3824 1CE0     		b	.L649
 10014              	.L646:
 10015              		.loc 1 3435 0
 10016 3826 9DF80F30 		ldrb	r3, [sp, #15]	@ zero_extendqisi2
 10017 382a 23F00403 		bic	r3, r3, #4
 10018 382e DBB2     		uxtb	r3, r3
 10019 3830 8DF80F30 		strb	r3, [sp, #15]
 10020              		.loc 1 3436 0
 10021 3834 9DF80F20 		ldrb	r2, [sp, #15]	@ zero_extendqisi2
 10022 3838 9DF80330 		ldrb	r3, [sp, #3]
 10023 383c 1343     		orrs	r3, r3, r2
 10024 383e DBB2     		uxtb	r3, r3
 10025 3840 8DF80F30 		strb	r3, [sp, #15]
 10026              		.loc 1 3438 0
 10027 3844 0DF10F03 		add	r3, sp, #15
 10028 3848 0198     		ldr	r0, [sp, #4]
 10029 384a 3821     		movs	r1, #56
 10030 384c 1A46     		mov	r2, r3
 10031 384e 0123     		movs	r3, #1
 10032 3850 FFF7FEFF 		bl	LSM303AGR_ACC_WriteReg
 10033 3854 0346     		mov	r3, r0
 10034 3856 002B     		cmp	r3, #0
 10035 3858 01D1     		bne	.L648
 10036              		.loc 1 3439 0
 10037 385a 0023     		movs	r3, #0
 10038 385c 00E0     		b	.L649
ARM GAS  /tmp/ccVYwGiK.s 			page 180


 10039              	.L648:
 10040              		.loc 1 3441 0
 10041 385e 0123     		movs	r3, #1
 10042              	.L649:
 10043              		.loc 1 3442 0
 10044 3860 1846     		mov	r0, r3
 10045 3862 05B0     		add	sp, sp, #20
 10046              		@ sp needed
 10047 3864 5DF804FB 		ldr	pc, [sp], #4
 10048              		.cfi_endproc
 10049              	.LFE168:
 10050              		.size	LSM303AGR_ACC_W_YSingle, .-LSM303AGR_ACC_W_YSingle
 10051              		.align	2
 10052 3868 AFF30080 		.p2align 4,,15
 10052      AFF30080 
 10053              		.global	LSM303AGR_ACC_R_YSingle
 10054              		.thumb
 10055              		.thumb_func
 10056              		.type	LSM303AGR_ACC_R_YSingle, %function
 10057              	LSM303AGR_ACC_R_YSingle:
 10058              	.LFB169:
 10059              		.loc 1 3452 0
 10060              		.cfi_startproc
 10061              		@ args = 0, pretend = 0, frame = 8
 10062              		@ frame_needed = 0, uses_anonymous_args = 0
 10063 3870 00B5     		push	{lr}
 10064              		.cfi_def_cfa_offset 4
 10065              		.cfi_offset 14, -4
 10066 3872 83B0     		sub	sp, sp, #12
 10067              		.cfi_def_cfa_offset 16
 10068 3874 0190     		str	r0, [sp, #4]
 10069 3876 0091     		str	r1, [sp]
 10070              		.loc 1 3453 0
 10071 3878 0198     		ldr	r0, [sp, #4]
 10072 387a 3821     		movs	r1, #56
 10073 387c 009A     		ldr	r2, [sp]
 10074 387e 0123     		movs	r3, #1
 10075 3880 FFF7FEFF 		bl	LSM303AGR_ACC_ReadReg
 10076 3884 0346     		mov	r3, r0
 10077 3886 002B     		cmp	r3, #0
 10078 3888 01D1     		bne	.L651
 10079              		.loc 1 3454 0
 10080 388a 0023     		movs	r3, #0
 10081 388c 07E0     		b	.L652
 10082              	.L651:
 10083              		.loc 1 3456 0
 10084 388e 009B     		ldr	r3, [sp]
 10085 3890 1B78     		ldrb	r3, [r3]	@ zero_extendqisi2
 10086 3892 03F00403 		and	r3, r3, #4
 10087 3896 DAB2     		uxtb	r2, r3
 10088 3898 009B     		ldr	r3, [sp]
 10089 389a 1A70     		strb	r2, [r3]
 10090              		.loc 1 3458 0
 10091 389c 0123     		movs	r3, #1
 10092              	.L652:
 10093              		.loc 1 3459 0
 10094 389e 1846     		mov	r0, r3
ARM GAS  /tmp/ccVYwGiK.s 			page 181


 10095 38a0 03B0     		add	sp, sp, #12
 10096              		@ sp needed
 10097 38a2 5DF804FB 		ldr	pc, [sp], #4
 10098              		.cfi_endproc
 10099              	.LFE169:
 10100              		.size	LSM303AGR_ACC_R_YSingle, .-LSM303AGR_ACC_R_YSingle
 10101 38a6 00BF     		.align	2
 10102 38a8 AFF30080 		.p2align 4,,15
 10102      AFF30080 
 10103              		.global	LSM303AGR_ACC_W_YDouble
 10104              		.thumb
 10105              		.thumb_func
 10106              		.type	LSM303AGR_ACC_W_YDouble, %function
 10107              	LSM303AGR_ACC_W_YDouble:
 10108              	.LFB170:
 10109              		.loc 1 3469 0
 10110              		.cfi_startproc
 10111              		@ args = 0, pretend = 0, frame = 16
 10112              		@ frame_needed = 0, uses_anonymous_args = 0
 10113 38b0 00B5     		push	{lr}
 10114              		.cfi_def_cfa_offset 4
 10115              		.cfi_offset 14, -4
 10116 38b2 85B0     		sub	sp, sp, #20
 10117              		.cfi_def_cfa_offset 24
 10118 38b4 0190     		str	r0, [sp, #4]
 10119 38b6 0B46     		mov	r3, r1
 10120 38b8 8DF80330 		strb	r3, [sp, #3]
 10121              		.loc 1 3472 0
 10122 38bc 0DF10F03 		add	r3, sp, #15
 10123 38c0 0198     		ldr	r0, [sp, #4]
 10124 38c2 3821     		movs	r1, #56
 10125 38c4 1A46     		mov	r2, r3
 10126 38c6 0123     		movs	r3, #1
 10127 38c8 FFF7FEFF 		bl	LSM303AGR_ACC_ReadReg
 10128 38cc 0346     		mov	r3, r0
 10129 38ce 002B     		cmp	r3, #0
 10130 38d0 01D1     		bne	.L654
 10131              		.loc 1 3473 0
 10132 38d2 0023     		movs	r3, #0
 10133 38d4 1CE0     		b	.L657
 10134              	.L654:
 10135              		.loc 1 3475 0
 10136 38d6 9DF80F30 		ldrb	r3, [sp, #15]	@ zero_extendqisi2
 10137 38da 23F00803 		bic	r3, r3, #8
 10138 38de DBB2     		uxtb	r3, r3
 10139 38e0 8DF80F30 		strb	r3, [sp, #15]
 10140              		.loc 1 3476 0
 10141 38e4 9DF80F20 		ldrb	r2, [sp, #15]	@ zero_extendqisi2
 10142 38e8 9DF80330 		ldrb	r3, [sp, #3]
 10143 38ec 1343     		orrs	r3, r3, r2
 10144 38ee DBB2     		uxtb	r3, r3
 10145 38f0 8DF80F30 		strb	r3, [sp, #15]
 10146              		.loc 1 3478 0
 10147 38f4 0DF10F03 		add	r3, sp, #15
 10148 38f8 0198     		ldr	r0, [sp, #4]
 10149 38fa 3821     		movs	r1, #56
 10150 38fc 1A46     		mov	r2, r3
ARM GAS  /tmp/ccVYwGiK.s 			page 182


 10151 38fe 0123     		movs	r3, #1
 10152 3900 FFF7FEFF 		bl	LSM303AGR_ACC_WriteReg
 10153 3904 0346     		mov	r3, r0
 10154 3906 002B     		cmp	r3, #0
 10155 3908 01D1     		bne	.L656
 10156              		.loc 1 3479 0
 10157 390a 0023     		movs	r3, #0
 10158 390c 00E0     		b	.L657
 10159              	.L656:
 10160              		.loc 1 3481 0
 10161 390e 0123     		movs	r3, #1
 10162              	.L657:
 10163              		.loc 1 3482 0
 10164 3910 1846     		mov	r0, r3
 10165 3912 05B0     		add	sp, sp, #20
 10166              		@ sp needed
 10167 3914 5DF804FB 		ldr	pc, [sp], #4
 10168              		.cfi_endproc
 10169              	.LFE170:
 10170              		.size	LSM303AGR_ACC_W_YDouble, .-LSM303AGR_ACC_W_YDouble
 10171              		.align	2
 10172 3918 AFF30080 		.p2align 4,,15
 10172      AFF30080 
 10173              		.global	LSM303AGR_ACC_R_YDouble
 10174              		.thumb
 10175              		.thumb_func
 10176              		.type	LSM303AGR_ACC_R_YDouble, %function
 10177              	LSM303AGR_ACC_R_YDouble:
 10178              	.LFB171:
 10179              		.loc 1 3492 0
 10180              		.cfi_startproc
 10181              		@ args = 0, pretend = 0, frame = 8
 10182              		@ frame_needed = 0, uses_anonymous_args = 0
 10183 3920 00B5     		push	{lr}
 10184              		.cfi_def_cfa_offset 4
 10185              		.cfi_offset 14, -4
 10186 3922 83B0     		sub	sp, sp, #12
 10187              		.cfi_def_cfa_offset 16
 10188 3924 0190     		str	r0, [sp, #4]
 10189 3926 0091     		str	r1, [sp]
 10190              		.loc 1 3493 0
 10191 3928 0198     		ldr	r0, [sp, #4]
 10192 392a 3821     		movs	r1, #56
 10193 392c 009A     		ldr	r2, [sp]
 10194 392e 0123     		movs	r3, #1
 10195 3930 FFF7FEFF 		bl	LSM303AGR_ACC_ReadReg
 10196 3934 0346     		mov	r3, r0
 10197 3936 002B     		cmp	r3, #0
 10198 3938 01D1     		bne	.L659
 10199              		.loc 1 3494 0
 10200 393a 0023     		movs	r3, #0
 10201 393c 07E0     		b	.L660
 10202              	.L659:
 10203              		.loc 1 3496 0
 10204 393e 009B     		ldr	r3, [sp]
 10205 3940 1B78     		ldrb	r3, [r3]	@ zero_extendqisi2
 10206 3942 03F00803 		and	r3, r3, #8
ARM GAS  /tmp/ccVYwGiK.s 			page 183


 10207 3946 DAB2     		uxtb	r2, r3
 10208 3948 009B     		ldr	r3, [sp]
 10209 394a 1A70     		strb	r2, [r3]
 10210              		.loc 1 3498 0
 10211 394c 0123     		movs	r3, #1
 10212              	.L660:
 10213              		.loc 1 3499 0
 10214 394e 1846     		mov	r0, r3
 10215 3950 03B0     		add	sp, sp, #12
 10216              		@ sp needed
 10217 3952 5DF804FB 		ldr	pc, [sp], #4
 10218              		.cfi_endproc
 10219              	.LFE171:
 10220              		.size	LSM303AGR_ACC_R_YDouble, .-LSM303AGR_ACC_R_YDouble
 10221 3956 00BF     		.align	2
 10222 3958 AFF30080 		.p2align 4,,15
 10222      AFF30080 
 10223              		.global	LSM303AGR_ACC_W_ZSingle
 10224              		.thumb
 10225              		.thumb_func
 10226              		.type	LSM303AGR_ACC_W_ZSingle, %function
 10227              	LSM303AGR_ACC_W_ZSingle:
 10228              	.LFB172:
 10229              		.loc 1 3509 0
 10230              		.cfi_startproc
 10231              		@ args = 0, pretend = 0, frame = 16
 10232              		@ frame_needed = 0, uses_anonymous_args = 0
 10233 3960 00B5     		push	{lr}
 10234              		.cfi_def_cfa_offset 4
 10235              		.cfi_offset 14, -4
 10236 3962 85B0     		sub	sp, sp, #20
 10237              		.cfi_def_cfa_offset 24
 10238 3964 0190     		str	r0, [sp, #4]
 10239 3966 0B46     		mov	r3, r1
 10240 3968 8DF80330 		strb	r3, [sp, #3]
 10241              		.loc 1 3512 0
 10242 396c 0DF10F03 		add	r3, sp, #15
 10243 3970 0198     		ldr	r0, [sp, #4]
 10244 3972 3821     		movs	r1, #56
 10245 3974 1A46     		mov	r2, r3
 10246 3976 0123     		movs	r3, #1
 10247 3978 FFF7FEFF 		bl	LSM303AGR_ACC_ReadReg
 10248 397c 0346     		mov	r3, r0
 10249 397e 002B     		cmp	r3, #0
 10250 3980 01D1     		bne	.L662
 10251              		.loc 1 3513 0
 10252 3982 0023     		movs	r3, #0
 10253 3984 1CE0     		b	.L665
 10254              	.L662:
 10255              		.loc 1 3515 0
 10256 3986 9DF80F30 		ldrb	r3, [sp, #15]	@ zero_extendqisi2
 10257 398a 23F01003 		bic	r3, r3, #16
 10258 398e DBB2     		uxtb	r3, r3
 10259 3990 8DF80F30 		strb	r3, [sp, #15]
 10260              		.loc 1 3516 0
 10261 3994 9DF80F20 		ldrb	r2, [sp, #15]	@ zero_extendqisi2
 10262 3998 9DF80330 		ldrb	r3, [sp, #3]
ARM GAS  /tmp/ccVYwGiK.s 			page 184


 10263 399c 1343     		orrs	r3, r3, r2
 10264 399e DBB2     		uxtb	r3, r3
 10265 39a0 8DF80F30 		strb	r3, [sp, #15]
 10266              		.loc 1 3518 0
 10267 39a4 0DF10F03 		add	r3, sp, #15
 10268 39a8 0198     		ldr	r0, [sp, #4]
 10269 39aa 3821     		movs	r1, #56
 10270 39ac 1A46     		mov	r2, r3
 10271 39ae 0123     		movs	r3, #1
 10272 39b0 FFF7FEFF 		bl	LSM303AGR_ACC_WriteReg
 10273 39b4 0346     		mov	r3, r0
 10274 39b6 002B     		cmp	r3, #0
 10275 39b8 01D1     		bne	.L664
 10276              		.loc 1 3519 0
 10277 39ba 0023     		movs	r3, #0
 10278 39bc 00E0     		b	.L665
 10279              	.L664:
 10280              		.loc 1 3521 0
 10281 39be 0123     		movs	r3, #1
 10282              	.L665:
 10283              		.loc 1 3522 0
 10284 39c0 1846     		mov	r0, r3
 10285 39c2 05B0     		add	sp, sp, #20
 10286              		@ sp needed
 10287 39c4 5DF804FB 		ldr	pc, [sp], #4
 10288              		.cfi_endproc
 10289              	.LFE172:
 10290              		.size	LSM303AGR_ACC_W_ZSingle, .-LSM303AGR_ACC_W_ZSingle
 10291              		.align	2
 10292 39c8 AFF30080 		.p2align 4,,15
 10292      AFF30080 
 10293              		.global	LSM303AGR_ACC_R_ZSingle
 10294              		.thumb
 10295              		.thumb_func
 10296              		.type	LSM303AGR_ACC_R_ZSingle, %function
 10297              	LSM303AGR_ACC_R_ZSingle:
 10298              	.LFB173:
 10299              		.loc 1 3532 0
 10300              		.cfi_startproc
 10301              		@ args = 0, pretend = 0, frame = 8
 10302              		@ frame_needed = 0, uses_anonymous_args = 0
 10303 39d0 00B5     		push	{lr}
 10304              		.cfi_def_cfa_offset 4
 10305              		.cfi_offset 14, -4
 10306 39d2 83B0     		sub	sp, sp, #12
 10307              		.cfi_def_cfa_offset 16
 10308 39d4 0190     		str	r0, [sp, #4]
 10309 39d6 0091     		str	r1, [sp]
 10310              		.loc 1 3533 0
 10311 39d8 0198     		ldr	r0, [sp, #4]
 10312 39da 3821     		movs	r1, #56
 10313 39dc 009A     		ldr	r2, [sp]
 10314 39de 0123     		movs	r3, #1
 10315 39e0 FFF7FEFF 		bl	LSM303AGR_ACC_ReadReg
 10316 39e4 0346     		mov	r3, r0
 10317 39e6 002B     		cmp	r3, #0
 10318 39e8 01D1     		bne	.L667
ARM GAS  /tmp/ccVYwGiK.s 			page 185


 10319              		.loc 1 3534 0
 10320 39ea 0023     		movs	r3, #0
 10321 39ec 07E0     		b	.L668
 10322              	.L667:
 10323              		.loc 1 3536 0
 10324 39ee 009B     		ldr	r3, [sp]
 10325 39f0 1B78     		ldrb	r3, [r3]	@ zero_extendqisi2
 10326 39f2 03F01003 		and	r3, r3, #16
 10327 39f6 DAB2     		uxtb	r2, r3
 10328 39f8 009B     		ldr	r3, [sp]
 10329 39fa 1A70     		strb	r2, [r3]
 10330              		.loc 1 3538 0
 10331 39fc 0123     		movs	r3, #1
 10332              	.L668:
 10333              		.loc 1 3539 0
 10334 39fe 1846     		mov	r0, r3
 10335 3a00 03B0     		add	sp, sp, #12
 10336              		@ sp needed
 10337 3a02 5DF804FB 		ldr	pc, [sp], #4
 10338              		.cfi_endproc
 10339              	.LFE173:
 10340              		.size	LSM303AGR_ACC_R_ZSingle, .-LSM303AGR_ACC_R_ZSingle
 10341 3a06 00BF     		.align	2
 10342 3a08 AFF30080 		.p2align 4,,15
 10342      AFF30080 
 10343              		.global	LSM303AGR_ACC_W_ZDouble
 10344              		.thumb
 10345              		.thumb_func
 10346              		.type	LSM303AGR_ACC_W_ZDouble, %function
 10347              	LSM303AGR_ACC_W_ZDouble:
 10348              	.LFB174:
 10349              		.loc 1 3549 0
 10350              		.cfi_startproc
 10351              		@ args = 0, pretend = 0, frame = 16
 10352              		@ frame_needed = 0, uses_anonymous_args = 0
 10353 3a10 00B5     		push	{lr}
 10354              		.cfi_def_cfa_offset 4
 10355              		.cfi_offset 14, -4
 10356 3a12 85B0     		sub	sp, sp, #20
 10357              		.cfi_def_cfa_offset 24
 10358 3a14 0190     		str	r0, [sp, #4]
 10359 3a16 0B46     		mov	r3, r1
 10360 3a18 8DF80330 		strb	r3, [sp, #3]
 10361              		.loc 1 3552 0
 10362 3a1c 0DF10F03 		add	r3, sp, #15
 10363 3a20 0198     		ldr	r0, [sp, #4]
 10364 3a22 3821     		movs	r1, #56
 10365 3a24 1A46     		mov	r2, r3
 10366 3a26 0123     		movs	r3, #1
 10367 3a28 FFF7FEFF 		bl	LSM303AGR_ACC_ReadReg
 10368 3a2c 0346     		mov	r3, r0
 10369 3a2e 002B     		cmp	r3, #0
 10370 3a30 01D1     		bne	.L670
 10371              		.loc 1 3553 0
 10372 3a32 0023     		movs	r3, #0
 10373 3a34 1CE0     		b	.L673
 10374              	.L670:
ARM GAS  /tmp/ccVYwGiK.s 			page 186


 10375              		.loc 1 3555 0
 10376 3a36 9DF80F30 		ldrb	r3, [sp, #15]	@ zero_extendqisi2
 10377 3a3a 23F02003 		bic	r3, r3, #32
 10378 3a3e DBB2     		uxtb	r3, r3
 10379 3a40 8DF80F30 		strb	r3, [sp, #15]
 10380              		.loc 1 3556 0
 10381 3a44 9DF80F20 		ldrb	r2, [sp, #15]	@ zero_extendqisi2
 10382 3a48 9DF80330 		ldrb	r3, [sp, #3]
 10383 3a4c 1343     		orrs	r3, r3, r2
 10384 3a4e DBB2     		uxtb	r3, r3
 10385 3a50 8DF80F30 		strb	r3, [sp, #15]
 10386              		.loc 1 3558 0
 10387 3a54 0DF10F03 		add	r3, sp, #15
 10388 3a58 0198     		ldr	r0, [sp, #4]
 10389 3a5a 3821     		movs	r1, #56
 10390 3a5c 1A46     		mov	r2, r3
 10391 3a5e 0123     		movs	r3, #1
 10392 3a60 FFF7FEFF 		bl	LSM303AGR_ACC_WriteReg
 10393 3a64 0346     		mov	r3, r0
 10394 3a66 002B     		cmp	r3, #0
 10395 3a68 01D1     		bne	.L672
 10396              		.loc 1 3559 0
 10397 3a6a 0023     		movs	r3, #0
 10398 3a6c 00E0     		b	.L673
 10399              	.L672:
 10400              		.loc 1 3561 0
 10401 3a6e 0123     		movs	r3, #1
 10402              	.L673:
 10403              		.loc 1 3562 0
 10404 3a70 1846     		mov	r0, r3
 10405 3a72 05B0     		add	sp, sp, #20
 10406              		@ sp needed
 10407 3a74 5DF804FB 		ldr	pc, [sp], #4
 10408              		.cfi_endproc
 10409              	.LFE174:
 10410              		.size	LSM303AGR_ACC_W_ZDouble, .-LSM303AGR_ACC_W_ZDouble
 10411              		.align	2
 10412 3a78 AFF30080 		.p2align 4,,15
 10412      AFF30080 
 10413              		.global	LSM303AGR_ACC_R_ZDouble
 10414              		.thumb
 10415              		.thumb_func
 10416              		.type	LSM303AGR_ACC_R_ZDouble, %function
 10417              	LSM303AGR_ACC_R_ZDouble:
 10418              	.LFB175:
 10419              		.loc 1 3572 0
 10420              		.cfi_startproc
 10421              		@ args = 0, pretend = 0, frame = 8
 10422              		@ frame_needed = 0, uses_anonymous_args = 0
 10423 3a80 00B5     		push	{lr}
 10424              		.cfi_def_cfa_offset 4
 10425              		.cfi_offset 14, -4
 10426 3a82 83B0     		sub	sp, sp, #12
 10427              		.cfi_def_cfa_offset 16
 10428 3a84 0190     		str	r0, [sp, #4]
 10429 3a86 0091     		str	r1, [sp]
 10430              		.loc 1 3573 0
ARM GAS  /tmp/ccVYwGiK.s 			page 187


 10431 3a88 0198     		ldr	r0, [sp, #4]
 10432 3a8a 3821     		movs	r1, #56
 10433 3a8c 009A     		ldr	r2, [sp]
 10434 3a8e 0123     		movs	r3, #1
 10435 3a90 FFF7FEFF 		bl	LSM303AGR_ACC_ReadReg
 10436 3a94 0346     		mov	r3, r0
 10437 3a96 002B     		cmp	r3, #0
 10438 3a98 01D1     		bne	.L675
 10439              		.loc 1 3574 0
 10440 3a9a 0023     		movs	r3, #0
 10441 3a9c 07E0     		b	.L676
 10442              	.L675:
 10443              		.loc 1 3576 0
 10444 3a9e 009B     		ldr	r3, [sp]
 10445 3aa0 1B78     		ldrb	r3, [r3]	@ zero_extendqisi2
 10446 3aa2 03F02003 		and	r3, r3, #32
 10447 3aa6 DAB2     		uxtb	r2, r3
 10448 3aa8 009B     		ldr	r3, [sp]
 10449 3aaa 1A70     		strb	r2, [r3]
 10450              		.loc 1 3578 0
 10451 3aac 0123     		movs	r3, #1
 10452              	.L676:
 10453              		.loc 1 3579 0
 10454 3aae 1846     		mov	r0, r3
 10455 3ab0 03B0     		add	sp, sp, #12
 10456              		@ sp needed
 10457 3ab2 5DF804FB 		ldr	pc, [sp], #4
 10458              		.cfi_endproc
 10459              	.LFE175:
 10460              		.size	LSM303AGR_ACC_R_ZDouble, .-LSM303AGR_ACC_R_ZDouble
 10461 3ab6 00BF     		.align	2
 10462 3ab8 AFF30080 		.p2align 4,,15
 10462      AFF30080 
 10463              		.global	LSM303AGR_ACC_R_ClickX
 10464              		.thumb
 10465              		.thumb_func
 10466              		.type	LSM303AGR_ACC_R_ClickX, %function
 10467              	LSM303AGR_ACC_R_ClickX:
 10468              	.LFB176:
 10469              		.loc 1 3589 0
 10470              		.cfi_startproc
 10471              		@ args = 0, pretend = 0, frame = 8
 10472              		@ frame_needed = 0, uses_anonymous_args = 0
 10473 3ac0 00B5     		push	{lr}
 10474              		.cfi_def_cfa_offset 4
 10475              		.cfi_offset 14, -4
 10476 3ac2 83B0     		sub	sp, sp, #12
 10477              		.cfi_def_cfa_offset 16
 10478 3ac4 0190     		str	r0, [sp, #4]
 10479 3ac6 0091     		str	r1, [sp]
 10480              		.loc 1 3590 0
 10481 3ac8 0198     		ldr	r0, [sp, #4]
 10482 3aca 3921     		movs	r1, #57
 10483 3acc 009A     		ldr	r2, [sp]
 10484 3ace 0123     		movs	r3, #1
 10485 3ad0 FFF7FEFF 		bl	LSM303AGR_ACC_ReadReg
 10486 3ad4 0346     		mov	r3, r0
ARM GAS  /tmp/ccVYwGiK.s 			page 188


 10487 3ad6 002B     		cmp	r3, #0
 10488 3ad8 01D1     		bne	.L678
 10489              		.loc 1 3591 0
 10490 3ada 0023     		movs	r3, #0
 10491 3adc 07E0     		b	.L679
 10492              	.L678:
 10493              		.loc 1 3593 0
 10494 3ade 009B     		ldr	r3, [sp]
 10495 3ae0 1B78     		ldrb	r3, [r3]	@ zero_extendqisi2
 10496 3ae2 03F00103 		and	r3, r3, #1
 10497 3ae6 DAB2     		uxtb	r2, r3
 10498 3ae8 009B     		ldr	r3, [sp]
 10499 3aea 1A70     		strb	r2, [r3]
 10500              		.loc 1 3595 0
 10501 3aec 0123     		movs	r3, #1
 10502              	.L679:
 10503              		.loc 1 3596 0
 10504 3aee 1846     		mov	r0, r3
 10505 3af0 03B0     		add	sp, sp, #12
 10506              		@ sp needed
 10507 3af2 5DF804FB 		ldr	pc, [sp], #4
 10508              		.cfi_endproc
 10509              	.LFE176:
 10510              		.size	LSM303AGR_ACC_R_ClickX, .-LSM303AGR_ACC_R_ClickX
 10511 3af6 00BF     		.align	2
 10512 3af8 AFF30080 		.p2align 4,,15
 10512      AFF30080 
 10513              		.global	LSM303AGR_ACC_R_ClickY
 10514              		.thumb
 10515              		.thumb_func
 10516              		.type	LSM303AGR_ACC_R_ClickY, %function
 10517              	LSM303AGR_ACC_R_ClickY:
 10518              	.LFB177:
 10519              		.loc 1 3606 0
 10520              		.cfi_startproc
 10521              		@ args = 0, pretend = 0, frame = 8
 10522              		@ frame_needed = 0, uses_anonymous_args = 0
 10523 3b00 00B5     		push	{lr}
 10524              		.cfi_def_cfa_offset 4
 10525              		.cfi_offset 14, -4
 10526 3b02 83B0     		sub	sp, sp, #12
 10527              		.cfi_def_cfa_offset 16
 10528 3b04 0190     		str	r0, [sp, #4]
 10529 3b06 0091     		str	r1, [sp]
 10530              		.loc 1 3607 0
 10531 3b08 0198     		ldr	r0, [sp, #4]
 10532 3b0a 3921     		movs	r1, #57
 10533 3b0c 009A     		ldr	r2, [sp]
 10534 3b0e 0123     		movs	r3, #1
 10535 3b10 FFF7FEFF 		bl	LSM303AGR_ACC_ReadReg
 10536 3b14 0346     		mov	r3, r0
 10537 3b16 002B     		cmp	r3, #0
 10538 3b18 01D1     		bne	.L681
 10539              		.loc 1 3608 0
 10540 3b1a 0023     		movs	r3, #0
 10541 3b1c 07E0     		b	.L682
 10542              	.L681:
ARM GAS  /tmp/ccVYwGiK.s 			page 189


 10543              		.loc 1 3610 0
 10544 3b1e 009B     		ldr	r3, [sp]
 10545 3b20 1B78     		ldrb	r3, [r3]	@ zero_extendqisi2
 10546 3b22 03F00203 		and	r3, r3, #2
 10547 3b26 DAB2     		uxtb	r2, r3
 10548 3b28 009B     		ldr	r3, [sp]
 10549 3b2a 1A70     		strb	r2, [r3]
 10550              		.loc 1 3612 0
 10551 3b2c 0123     		movs	r3, #1
 10552              	.L682:
 10553              		.loc 1 3613 0
 10554 3b2e 1846     		mov	r0, r3
 10555 3b30 03B0     		add	sp, sp, #12
 10556              		@ sp needed
 10557 3b32 5DF804FB 		ldr	pc, [sp], #4
 10558              		.cfi_endproc
 10559              	.LFE177:
 10560              		.size	LSM303AGR_ACC_R_ClickY, .-LSM303AGR_ACC_R_ClickY
 10561 3b36 00BF     		.align	2
 10562 3b38 AFF30080 		.p2align 4,,15
 10562      AFF30080 
 10563              		.global	LSM303AGR_ACC_R_ClickZ
 10564              		.thumb
 10565              		.thumb_func
 10566              		.type	LSM303AGR_ACC_R_ClickZ, %function
 10567              	LSM303AGR_ACC_R_ClickZ:
 10568              	.LFB178:
 10569              		.loc 1 3623 0
 10570              		.cfi_startproc
 10571              		@ args = 0, pretend = 0, frame = 8
 10572              		@ frame_needed = 0, uses_anonymous_args = 0
 10573 3b40 00B5     		push	{lr}
 10574              		.cfi_def_cfa_offset 4
 10575              		.cfi_offset 14, -4
 10576 3b42 83B0     		sub	sp, sp, #12
 10577              		.cfi_def_cfa_offset 16
 10578 3b44 0190     		str	r0, [sp, #4]
 10579 3b46 0091     		str	r1, [sp]
 10580              		.loc 1 3624 0
 10581 3b48 0198     		ldr	r0, [sp, #4]
 10582 3b4a 3921     		movs	r1, #57
 10583 3b4c 009A     		ldr	r2, [sp]
 10584 3b4e 0123     		movs	r3, #1
 10585 3b50 FFF7FEFF 		bl	LSM303AGR_ACC_ReadReg
 10586 3b54 0346     		mov	r3, r0
 10587 3b56 002B     		cmp	r3, #0
 10588 3b58 01D1     		bne	.L684
 10589              		.loc 1 3625 0
 10590 3b5a 0023     		movs	r3, #0
 10591 3b5c 07E0     		b	.L685
 10592              	.L684:
 10593              		.loc 1 3627 0
 10594 3b5e 009B     		ldr	r3, [sp]
 10595 3b60 1B78     		ldrb	r3, [r3]	@ zero_extendqisi2
 10596 3b62 03F00403 		and	r3, r3, #4
 10597 3b66 DAB2     		uxtb	r2, r3
 10598 3b68 009B     		ldr	r3, [sp]
ARM GAS  /tmp/ccVYwGiK.s 			page 190


 10599 3b6a 1A70     		strb	r2, [r3]
 10600              		.loc 1 3629 0
 10601 3b6c 0123     		movs	r3, #1
 10602              	.L685:
 10603              		.loc 1 3630 0
 10604 3b6e 1846     		mov	r0, r3
 10605 3b70 03B0     		add	sp, sp, #12
 10606              		@ sp needed
 10607 3b72 5DF804FB 		ldr	pc, [sp], #4
 10608              		.cfi_endproc
 10609              	.LFE178:
 10610              		.size	LSM303AGR_ACC_R_ClickZ, .-LSM303AGR_ACC_R_ClickZ
 10611 3b76 00BF     		.align	2
 10612 3b78 AFF30080 		.p2align 4,,15
 10612      AFF30080 
 10613              		.global	LSM303AGR_ACC_R_ClickSign
 10614              		.thumb
 10615              		.thumb_func
 10616              		.type	LSM303AGR_ACC_R_ClickSign, %function
 10617              	LSM303AGR_ACC_R_ClickSign:
 10618              	.LFB179:
 10619              		.loc 1 3640 0
 10620              		.cfi_startproc
 10621              		@ args = 0, pretend = 0, frame = 8
 10622              		@ frame_needed = 0, uses_anonymous_args = 0
 10623 3b80 00B5     		push	{lr}
 10624              		.cfi_def_cfa_offset 4
 10625              		.cfi_offset 14, -4
 10626 3b82 83B0     		sub	sp, sp, #12
 10627              		.cfi_def_cfa_offset 16
 10628 3b84 0190     		str	r0, [sp, #4]
 10629 3b86 0091     		str	r1, [sp]
 10630              		.loc 1 3641 0
 10631 3b88 0198     		ldr	r0, [sp, #4]
 10632 3b8a 3921     		movs	r1, #57
 10633 3b8c 009A     		ldr	r2, [sp]
 10634 3b8e 0123     		movs	r3, #1
 10635 3b90 FFF7FEFF 		bl	LSM303AGR_ACC_ReadReg
 10636 3b94 0346     		mov	r3, r0
 10637 3b96 002B     		cmp	r3, #0
 10638 3b98 01D1     		bne	.L687
 10639              		.loc 1 3642 0
 10640 3b9a 0023     		movs	r3, #0
 10641 3b9c 07E0     		b	.L688
 10642              	.L687:
 10643              		.loc 1 3644 0
 10644 3b9e 009B     		ldr	r3, [sp]
 10645 3ba0 1B78     		ldrb	r3, [r3]	@ zero_extendqisi2
 10646 3ba2 03F00803 		and	r3, r3, #8
 10647 3ba6 DAB2     		uxtb	r2, r3
 10648 3ba8 009B     		ldr	r3, [sp]
 10649 3baa 1A70     		strb	r2, [r3]
 10650              		.loc 1 3646 0
 10651 3bac 0123     		movs	r3, #1
 10652              	.L688:
 10653              		.loc 1 3647 0
 10654 3bae 1846     		mov	r0, r3
ARM GAS  /tmp/ccVYwGiK.s 			page 191


 10655 3bb0 03B0     		add	sp, sp, #12
 10656              		@ sp needed
 10657 3bb2 5DF804FB 		ldr	pc, [sp], #4
 10658              		.cfi_endproc
 10659              	.LFE179:
 10660              		.size	LSM303AGR_ACC_R_ClickSign, .-LSM303AGR_ACC_R_ClickSign
 10661 3bb6 00BF     		.align	2
 10662 3bb8 AFF30080 		.p2align 4,,15
 10662      AFF30080 
 10663              		.global	LSM303AGR_ACC_R_SingleCLICK
 10664              		.thumb
 10665              		.thumb_func
 10666              		.type	LSM303AGR_ACC_R_SingleCLICK, %function
 10667              	LSM303AGR_ACC_R_SingleCLICK:
 10668              	.LFB180:
 10669              		.loc 1 3657 0
 10670              		.cfi_startproc
 10671              		@ args = 0, pretend = 0, frame = 8
 10672              		@ frame_needed = 0, uses_anonymous_args = 0
 10673 3bc0 00B5     		push	{lr}
 10674              		.cfi_def_cfa_offset 4
 10675              		.cfi_offset 14, -4
 10676 3bc2 83B0     		sub	sp, sp, #12
 10677              		.cfi_def_cfa_offset 16
 10678 3bc4 0190     		str	r0, [sp, #4]
 10679 3bc6 0091     		str	r1, [sp]
 10680              		.loc 1 3658 0
 10681 3bc8 0198     		ldr	r0, [sp, #4]
 10682 3bca 3921     		movs	r1, #57
 10683 3bcc 009A     		ldr	r2, [sp]
 10684 3bce 0123     		movs	r3, #1
 10685 3bd0 FFF7FEFF 		bl	LSM303AGR_ACC_ReadReg
 10686 3bd4 0346     		mov	r3, r0
 10687 3bd6 002B     		cmp	r3, #0
 10688 3bd8 01D1     		bne	.L690
 10689              		.loc 1 3659 0
 10690 3bda 0023     		movs	r3, #0
 10691 3bdc 07E0     		b	.L691
 10692              	.L690:
 10693              		.loc 1 3661 0
 10694 3bde 009B     		ldr	r3, [sp]
 10695 3be0 1B78     		ldrb	r3, [r3]	@ zero_extendqisi2
 10696 3be2 03F01003 		and	r3, r3, #16
 10697 3be6 DAB2     		uxtb	r2, r3
 10698 3be8 009B     		ldr	r3, [sp]
 10699 3bea 1A70     		strb	r2, [r3]
 10700              		.loc 1 3663 0
 10701 3bec 0123     		movs	r3, #1
 10702              	.L691:
 10703              		.loc 1 3664 0
 10704 3bee 1846     		mov	r0, r3
 10705 3bf0 03B0     		add	sp, sp, #12
 10706              		@ sp needed
 10707 3bf2 5DF804FB 		ldr	pc, [sp], #4
 10708              		.cfi_endproc
 10709              	.LFE180:
 10710              		.size	LSM303AGR_ACC_R_SingleCLICK, .-LSM303AGR_ACC_R_SingleCLICK
ARM GAS  /tmp/ccVYwGiK.s 			page 192


 10711 3bf6 00BF     		.align	2
 10712 3bf8 AFF30080 		.p2align 4,,15
 10712      AFF30080 
 10713              		.global	LSM303AGR_ACC_R_DoubleCLICK
 10714              		.thumb
 10715              		.thumb_func
 10716              		.type	LSM303AGR_ACC_R_DoubleCLICK, %function
 10717              	LSM303AGR_ACC_R_DoubleCLICK:
 10718              	.LFB181:
 10719              		.loc 1 3674 0
 10720              		.cfi_startproc
 10721              		@ args = 0, pretend = 0, frame = 8
 10722              		@ frame_needed = 0, uses_anonymous_args = 0
 10723 3c00 00B5     		push	{lr}
 10724              		.cfi_def_cfa_offset 4
 10725              		.cfi_offset 14, -4
 10726 3c02 83B0     		sub	sp, sp, #12
 10727              		.cfi_def_cfa_offset 16
 10728 3c04 0190     		str	r0, [sp, #4]
 10729 3c06 0091     		str	r1, [sp]
 10730              		.loc 1 3675 0
 10731 3c08 0198     		ldr	r0, [sp, #4]
 10732 3c0a 3921     		movs	r1, #57
 10733 3c0c 009A     		ldr	r2, [sp]
 10734 3c0e 0123     		movs	r3, #1
 10735 3c10 FFF7FEFF 		bl	LSM303AGR_ACC_ReadReg
 10736 3c14 0346     		mov	r3, r0
 10737 3c16 002B     		cmp	r3, #0
 10738 3c18 01D1     		bne	.L693
 10739              		.loc 1 3676 0
 10740 3c1a 0023     		movs	r3, #0
 10741 3c1c 07E0     		b	.L694
 10742              	.L693:
 10743              		.loc 1 3678 0
 10744 3c1e 009B     		ldr	r3, [sp]
 10745 3c20 1B78     		ldrb	r3, [r3]	@ zero_extendqisi2
 10746 3c22 03F02003 		and	r3, r3, #32
 10747 3c26 DAB2     		uxtb	r2, r3
 10748 3c28 009B     		ldr	r3, [sp]
 10749 3c2a 1A70     		strb	r2, [r3]
 10750              		.loc 1 3680 0
 10751 3c2c 0123     		movs	r3, #1
 10752              	.L694:
 10753              		.loc 1 3681 0
 10754 3c2e 1846     		mov	r0, r3
 10755 3c30 03B0     		add	sp, sp, #12
 10756              		@ sp needed
 10757 3c32 5DF804FB 		ldr	pc, [sp], #4
 10758              		.cfi_endproc
 10759              	.LFE181:
 10760              		.size	LSM303AGR_ACC_R_DoubleCLICK, .-LSM303AGR_ACC_R_DoubleCLICK
 10761 3c36 00BF     		.align	2
 10762 3c38 AFF30080 		.p2align 4,,15
 10762      AFF30080 
 10763              		.global	LSM303AGR_ACC_R_CLICK_IA
 10764              		.thumb
 10765              		.thumb_func
ARM GAS  /tmp/ccVYwGiK.s 			page 193


 10766              		.type	LSM303AGR_ACC_R_CLICK_IA, %function
 10767              	LSM303AGR_ACC_R_CLICK_IA:
 10768              	.LFB182:
 10769              		.loc 1 3691 0
 10770              		.cfi_startproc
 10771              		@ args = 0, pretend = 0, frame = 8
 10772              		@ frame_needed = 0, uses_anonymous_args = 0
 10773 3c40 00B5     		push	{lr}
 10774              		.cfi_def_cfa_offset 4
 10775              		.cfi_offset 14, -4
 10776 3c42 83B0     		sub	sp, sp, #12
 10777              		.cfi_def_cfa_offset 16
 10778 3c44 0190     		str	r0, [sp, #4]
 10779 3c46 0091     		str	r1, [sp]
 10780              		.loc 1 3692 0
 10781 3c48 0198     		ldr	r0, [sp, #4]
 10782 3c4a 3921     		movs	r1, #57
 10783 3c4c 009A     		ldr	r2, [sp]
 10784 3c4e 0123     		movs	r3, #1
 10785 3c50 FFF7FEFF 		bl	LSM303AGR_ACC_ReadReg
 10786 3c54 0346     		mov	r3, r0
 10787 3c56 002B     		cmp	r3, #0
 10788 3c58 01D1     		bne	.L696
 10789              		.loc 1 3693 0
 10790 3c5a 0023     		movs	r3, #0
 10791 3c5c 07E0     		b	.L697
 10792              	.L696:
 10793              		.loc 1 3695 0
 10794 3c5e 009B     		ldr	r3, [sp]
 10795 3c60 1B78     		ldrb	r3, [r3]	@ zero_extendqisi2
 10796 3c62 03F04003 		and	r3, r3, #64
 10797 3c66 DAB2     		uxtb	r2, r3
 10798 3c68 009B     		ldr	r3, [sp]
 10799 3c6a 1A70     		strb	r2, [r3]
 10800              		.loc 1 3697 0
 10801 3c6c 0123     		movs	r3, #1
 10802              	.L697:
 10803              		.loc 1 3698 0
 10804 3c6e 1846     		mov	r0, r3
 10805 3c70 03B0     		add	sp, sp, #12
 10806              		@ sp needed
 10807 3c72 5DF804FB 		ldr	pc, [sp], #4
 10808              		.cfi_endproc
 10809              	.LFE182:
 10810              		.size	LSM303AGR_ACC_R_CLICK_IA, .-LSM303AGR_ACC_R_CLICK_IA
 10811 3c76 00BF     		.align	2
 10812 3c78 AFF30080 		.p2align 4,,15
 10812      AFF30080 
 10813              		.global	LSM303AGR_ACC_W_ClickThreshold
 10814              		.thumb
 10815              		.thumb_func
 10816              		.type	LSM303AGR_ACC_W_ClickThreshold, %function
 10817              	LSM303AGR_ACC_W_ClickThreshold:
 10818              	.LFB183:
 10819              		.loc 1 3708 0
 10820              		.cfi_startproc
 10821              		@ args = 0, pretend = 0, frame = 16
ARM GAS  /tmp/ccVYwGiK.s 			page 194


 10822              		@ frame_needed = 0, uses_anonymous_args = 0
 10823 3c80 00B5     		push	{lr}
 10824              		.cfi_def_cfa_offset 4
 10825              		.cfi_offset 14, -4
 10826 3c82 85B0     		sub	sp, sp, #20
 10827              		.cfi_def_cfa_offset 24
 10828 3c84 0190     		str	r0, [sp, #4]
 10829 3c86 0B46     		mov	r3, r1
 10830 3c88 8DF80330 		strb	r3, [sp, #3]
 10831              		.loc 1 3712 0
 10832 3c8c 9DF80330 		ldrb	r3, [sp, #3]
 10833 3c90 03F07F03 		and	r3, r3, #127
 10834 3c94 8DF80330 		strb	r3, [sp, #3]
 10835              		.loc 1 3714 0
 10836 3c98 0DF10F03 		add	r3, sp, #15
 10837 3c9c 0198     		ldr	r0, [sp, #4]
 10838 3c9e 3A21     		movs	r1, #58
 10839 3ca0 1A46     		mov	r2, r3
 10840 3ca2 0123     		movs	r3, #1
 10841 3ca4 FFF7FEFF 		bl	LSM303AGR_ACC_ReadReg
 10842 3ca8 0346     		mov	r3, r0
 10843 3caa 002B     		cmp	r3, #0
 10844 3cac 01D1     		bne	.L699
 10845              		.loc 1 3715 0
 10846 3cae 0023     		movs	r3, #0
 10847 3cb0 1CE0     		b	.L702
 10848              	.L699:
 10849              		.loc 1 3717 0
 10850 3cb2 9DF80F30 		ldrb	r3, [sp, #15]	@ zero_extendqisi2
 10851 3cb6 23F07F03 		bic	r3, r3, #127
 10852 3cba DBB2     		uxtb	r3, r3
 10853 3cbc 8DF80F30 		strb	r3, [sp, #15]
 10854              		.loc 1 3718 0
 10855 3cc0 9DF80F20 		ldrb	r2, [sp, #15]	@ zero_extendqisi2
 10856 3cc4 9DF80330 		ldrb	r3, [sp, #3]
 10857 3cc8 1343     		orrs	r3, r3, r2
 10858 3cca DBB2     		uxtb	r3, r3
 10859 3ccc 8DF80F30 		strb	r3, [sp, #15]
 10860              		.loc 1 3720 0
 10861 3cd0 0DF10F03 		add	r3, sp, #15
 10862 3cd4 0198     		ldr	r0, [sp, #4]
 10863 3cd6 3A21     		movs	r1, #58
 10864 3cd8 1A46     		mov	r2, r3
 10865 3cda 0123     		movs	r3, #1
 10866 3cdc FFF7FEFF 		bl	LSM303AGR_ACC_WriteReg
 10867 3ce0 0346     		mov	r3, r0
 10868 3ce2 002B     		cmp	r3, #0
 10869 3ce4 01D1     		bne	.L701
 10870              		.loc 1 3721 0
 10871 3ce6 0023     		movs	r3, #0
 10872 3ce8 00E0     		b	.L702
 10873              	.L701:
 10874              		.loc 1 3723 0
 10875 3cea 0123     		movs	r3, #1
 10876              	.L702:
 10877              		.loc 1 3724 0
 10878 3cec 1846     		mov	r0, r3
ARM GAS  /tmp/ccVYwGiK.s 			page 195


 10879 3cee 05B0     		add	sp, sp, #20
 10880              		@ sp needed
 10881 3cf0 5DF804FB 		ldr	pc, [sp], #4
 10882              		.cfi_endproc
 10883              	.LFE183:
 10884              		.size	LSM303AGR_ACC_W_ClickThreshold, .-LSM303AGR_ACC_W_ClickThreshold
 10885              		.align	2
 10886 3cf4 AFF30080 		.p2align 4,,15
 10886      AFF30080 
 10886      AFF30080 
 10887              		.global	LSM303AGR_ACC_R_ClickThreshold
 10888              		.thumb
 10889              		.thumb_func
 10890              		.type	LSM303AGR_ACC_R_ClickThreshold, %function
 10891              	LSM303AGR_ACC_R_ClickThreshold:
 10892              	.LFB184:
 10893              		.loc 1 3734 0
 10894              		.cfi_startproc
 10895              		@ args = 0, pretend = 0, frame = 8
 10896              		@ frame_needed = 0, uses_anonymous_args = 0
 10897 3d00 00B5     		push	{lr}
 10898              		.cfi_def_cfa_offset 4
 10899              		.cfi_offset 14, -4
 10900 3d02 83B0     		sub	sp, sp, #12
 10901              		.cfi_def_cfa_offset 16
 10902 3d04 0190     		str	r0, [sp, #4]
 10903 3d06 0091     		str	r1, [sp]
 10904              		.loc 1 3735 0
 10905 3d08 0198     		ldr	r0, [sp, #4]
 10906 3d0a 3A21     		movs	r1, #58
 10907 3d0c 009A     		ldr	r2, [sp]
 10908 3d0e 0123     		movs	r3, #1
 10909 3d10 FFF7FEFF 		bl	LSM303AGR_ACC_ReadReg
 10910 3d14 0346     		mov	r3, r0
 10911 3d16 002B     		cmp	r3, #0
 10912 3d18 01D1     		bne	.L704
 10913              		.loc 1 3736 0
 10914 3d1a 0023     		movs	r3, #0
 10915 3d1c 0BE0     		b	.L705
 10916              	.L704:
 10917              		.loc 1 3738 0
 10918 3d1e 009B     		ldr	r3, [sp]
 10919 3d20 1B78     		ldrb	r3, [r3]	@ zero_extendqisi2
 10920 3d22 03F07F03 		and	r3, r3, #127
 10921 3d26 DAB2     		uxtb	r2, r3
 10922 3d28 009B     		ldr	r3, [sp]
 10923 3d2a 1A70     		strb	r2, [r3]
 10924              		.loc 1 3739 0
 10925 3d2c 009B     		ldr	r3, [sp]
 10926 3d2e 1A78     		ldrb	r2, [r3]	@ zero_extendqisi2
 10927 3d30 009B     		ldr	r3, [sp]
 10928 3d32 1A70     		strb	r2, [r3]
 10929              		.loc 1 3741 0
 10930 3d34 0123     		movs	r3, #1
 10931              	.L705:
 10932              		.loc 1 3742 0
 10933 3d36 1846     		mov	r0, r3
ARM GAS  /tmp/ccVYwGiK.s 			page 196


 10934 3d38 03B0     		add	sp, sp, #12
 10935              		@ sp needed
 10936 3d3a 5DF804FB 		ldr	pc, [sp], #4
 10937              		.cfi_endproc
 10938              	.LFE184:
 10939              		.size	LSM303AGR_ACC_R_ClickThreshold, .-LSM303AGR_ACC_R_ClickThreshold
 10940 3d3e 00BF     		.align	2
 10941              		.p2align 4,,15
 10942              		.global	LSM303AGR_ACC_W_ClickTimeLimit
 10943              		.thumb
 10944              		.thumb_func
 10945              		.type	LSM303AGR_ACC_W_ClickTimeLimit, %function
 10946              	LSM303AGR_ACC_W_ClickTimeLimit:
 10947              	.LFB185:
 10948              		.loc 1 3752 0
 10949              		.cfi_startproc
 10950              		@ args = 0, pretend = 0, frame = 16
 10951              		@ frame_needed = 0, uses_anonymous_args = 0
 10952 3d40 00B5     		push	{lr}
 10953              		.cfi_def_cfa_offset 4
 10954              		.cfi_offset 14, -4
 10955 3d42 85B0     		sub	sp, sp, #20
 10956              		.cfi_def_cfa_offset 24
 10957 3d44 0190     		str	r0, [sp, #4]
 10958 3d46 0B46     		mov	r3, r1
 10959 3d48 8DF80330 		strb	r3, [sp, #3]
 10960              		.loc 1 3756 0
 10961 3d4c 9DF80330 		ldrb	r3, [sp, #3]
 10962 3d50 03F07F03 		and	r3, r3, #127
 10963 3d54 8DF80330 		strb	r3, [sp, #3]
 10964              		.loc 1 3758 0
 10965 3d58 0DF10F03 		add	r3, sp, #15
 10966 3d5c 0198     		ldr	r0, [sp, #4]
 10967 3d5e 3B21     		movs	r1, #59
 10968 3d60 1A46     		mov	r2, r3
 10969 3d62 0123     		movs	r3, #1
 10970 3d64 FFF7FEFF 		bl	LSM303AGR_ACC_ReadReg
 10971 3d68 0346     		mov	r3, r0
 10972 3d6a 002B     		cmp	r3, #0
 10973 3d6c 01D1     		bne	.L707
 10974              		.loc 1 3759 0
 10975 3d6e 0023     		movs	r3, #0
 10976 3d70 1CE0     		b	.L710
 10977              	.L707:
 10978              		.loc 1 3761 0
 10979 3d72 9DF80F30 		ldrb	r3, [sp, #15]	@ zero_extendqisi2
 10980 3d76 23F07F03 		bic	r3, r3, #127
 10981 3d7a DBB2     		uxtb	r3, r3
 10982 3d7c 8DF80F30 		strb	r3, [sp, #15]
 10983              		.loc 1 3762 0
 10984 3d80 9DF80F20 		ldrb	r2, [sp, #15]	@ zero_extendqisi2
 10985 3d84 9DF80330 		ldrb	r3, [sp, #3]
 10986 3d88 1343     		orrs	r3, r3, r2
 10987 3d8a DBB2     		uxtb	r3, r3
 10988 3d8c 8DF80F30 		strb	r3, [sp, #15]
 10989              		.loc 1 3764 0
 10990 3d90 0DF10F03 		add	r3, sp, #15
ARM GAS  /tmp/ccVYwGiK.s 			page 197


 10991 3d94 0198     		ldr	r0, [sp, #4]
 10992 3d96 3B21     		movs	r1, #59
 10993 3d98 1A46     		mov	r2, r3
 10994 3d9a 0123     		movs	r3, #1
 10995 3d9c FFF7FEFF 		bl	LSM303AGR_ACC_WriteReg
 10996 3da0 0346     		mov	r3, r0
 10997 3da2 002B     		cmp	r3, #0
 10998 3da4 01D1     		bne	.L709
 10999              		.loc 1 3765 0
 11000 3da6 0023     		movs	r3, #0
 11001 3da8 00E0     		b	.L710
 11002              	.L709:
 11003              		.loc 1 3767 0
 11004 3daa 0123     		movs	r3, #1
 11005              	.L710:
 11006              		.loc 1 3768 0
 11007 3dac 1846     		mov	r0, r3
 11008 3dae 05B0     		add	sp, sp, #20
 11009              		@ sp needed
 11010 3db0 5DF804FB 		ldr	pc, [sp], #4
 11011              		.cfi_endproc
 11012              	.LFE185:
 11013              		.size	LSM303AGR_ACC_W_ClickTimeLimit, .-LSM303AGR_ACC_W_ClickTimeLimit
 11014              		.align	2
 11015 3db4 AFF30080 		.p2align 4,,15
 11015      AFF30080 
 11015      AFF30080 
 11016              		.global	LSM303AGR_ACC_R_ClickTimeLimit
 11017              		.thumb
 11018              		.thumb_func
 11019              		.type	LSM303AGR_ACC_R_ClickTimeLimit, %function
 11020              	LSM303AGR_ACC_R_ClickTimeLimit:
 11021              	.LFB186:
 11022              		.loc 1 3778 0
 11023              		.cfi_startproc
 11024              		@ args = 0, pretend = 0, frame = 8
 11025              		@ frame_needed = 0, uses_anonymous_args = 0
 11026 3dc0 00B5     		push	{lr}
 11027              		.cfi_def_cfa_offset 4
 11028              		.cfi_offset 14, -4
 11029 3dc2 83B0     		sub	sp, sp, #12
 11030              		.cfi_def_cfa_offset 16
 11031 3dc4 0190     		str	r0, [sp, #4]
 11032 3dc6 0091     		str	r1, [sp]
 11033              		.loc 1 3779 0
 11034 3dc8 0198     		ldr	r0, [sp, #4]
 11035 3dca 3B21     		movs	r1, #59
 11036 3dcc 009A     		ldr	r2, [sp]
 11037 3dce 0123     		movs	r3, #1
 11038 3dd0 FFF7FEFF 		bl	LSM303AGR_ACC_ReadReg
 11039 3dd4 0346     		mov	r3, r0
 11040 3dd6 002B     		cmp	r3, #0
 11041 3dd8 01D1     		bne	.L712
 11042              		.loc 1 3780 0
 11043 3dda 0023     		movs	r3, #0
 11044 3ddc 0BE0     		b	.L713
 11045              	.L712:
ARM GAS  /tmp/ccVYwGiK.s 			page 198


 11046              		.loc 1 3782 0
 11047 3dde 009B     		ldr	r3, [sp]
 11048 3de0 1B78     		ldrb	r3, [r3]	@ zero_extendqisi2
 11049 3de2 03F07F03 		and	r3, r3, #127
 11050 3de6 DAB2     		uxtb	r2, r3
 11051 3de8 009B     		ldr	r3, [sp]
 11052 3dea 1A70     		strb	r2, [r3]
 11053              		.loc 1 3783 0
 11054 3dec 009B     		ldr	r3, [sp]
 11055 3dee 1A78     		ldrb	r2, [r3]	@ zero_extendqisi2
 11056 3df0 009B     		ldr	r3, [sp]
 11057 3df2 1A70     		strb	r2, [r3]
 11058              		.loc 1 3785 0
 11059 3df4 0123     		movs	r3, #1
 11060              	.L713:
 11061              		.loc 1 3786 0
 11062 3df6 1846     		mov	r0, r3
 11063 3df8 03B0     		add	sp, sp, #12
 11064              		@ sp needed
 11065 3dfa 5DF804FB 		ldr	pc, [sp], #4
 11066              		.cfi_endproc
 11067              	.LFE186:
 11068              		.size	LSM303AGR_ACC_R_ClickTimeLimit, .-LSM303AGR_ACC_R_ClickTimeLimit
 11069 3dfe 00BF     		.align	2
 11070              		.p2align 4,,15
 11071              		.global	LSM303AGR_ACC_W_ClickTimeLatency
 11072              		.thumb
 11073              		.thumb_func
 11074              		.type	LSM303AGR_ACC_W_ClickTimeLatency, %function
 11075              	LSM303AGR_ACC_W_ClickTimeLatency:
 11076              	.LFB187:
 11077              		.loc 1 3796 0
 11078              		.cfi_startproc
 11079              		@ args = 0, pretend = 0, frame = 16
 11080              		@ frame_needed = 0, uses_anonymous_args = 0
 11081 3e00 00B5     		push	{lr}
 11082              		.cfi_def_cfa_offset 4
 11083              		.cfi_offset 14, -4
 11084 3e02 85B0     		sub	sp, sp, #20
 11085              		.cfi_def_cfa_offset 24
 11086 3e04 0190     		str	r0, [sp, #4]
 11087 3e06 0B46     		mov	r3, r1
 11088 3e08 8DF80330 		strb	r3, [sp, #3]
 11089              		.loc 1 3802 0
 11090 3e0c 0DF10F03 		add	r3, sp, #15
 11091 3e10 0198     		ldr	r0, [sp, #4]
 11092 3e12 3C21     		movs	r1, #60
 11093 3e14 1A46     		mov	r2, r3
 11094 3e16 0123     		movs	r3, #1
 11095 3e18 FFF7FEFF 		bl	LSM303AGR_ACC_ReadReg
 11096 3e1c 0346     		mov	r3, r0
 11097 3e1e 002B     		cmp	r3, #0
 11098 3e20 01D1     		bne	.L715
 11099              		.loc 1 3803 0
 11100 3e22 0023     		movs	r3, #0
 11101 3e24 18E0     		b	.L718
 11102              	.L715:
ARM GAS  /tmp/ccVYwGiK.s 			page 199


 11103              		.loc 1 3805 0
 11104 3e26 0023     		movs	r3, #0
 11105 3e28 8DF80F30 		strb	r3, [sp, #15]
 11106              		.loc 1 3806 0
 11107 3e2c 9DF80F20 		ldrb	r2, [sp, #15]	@ zero_extendqisi2
 11108 3e30 9DF80330 		ldrb	r3, [sp, #3]
 11109 3e34 1343     		orrs	r3, r3, r2
 11110 3e36 DBB2     		uxtb	r3, r3
 11111 3e38 8DF80F30 		strb	r3, [sp, #15]
 11112              		.loc 1 3808 0
 11113 3e3c 0DF10F03 		add	r3, sp, #15
 11114 3e40 0198     		ldr	r0, [sp, #4]
 11115 3e42 3C21     		movs	r1, #60
 11116 3e44 1A46     		mov	r2, r3
 11117 3e46 0123     		movs	r3, #1
 11118 3e48 FFF7FEFF 		bl	LSM303AGR_ACC_WriteReg
 11119 3e4c 0346     		mov	r3, r0
 11120 3e4e 002B     		cmp	r3, #0
 11121 3e50 01D1     		bne	.L717
 11122              		.loc 1 3809 0
 11123 3e52 0023     		movs	r3, #0
 11124 3e54 00E0     		b	.L718
 11125              	.L717:
 11126              		.loc 1 3811 0
 11127 3e56 0123     		movs	r3, #1
 11128              	.L718:
 11129              		.loc 1 3812 0
 11130 3e58 1846     		mov	r0, r3
 11131 3e5a 05B0     		add	sp, sp, #20
 11132              		@ sp needed
 11133 3e5c 5DF804FB 		ldr	pc, [sp], #4
 11134              		.cfi_endproc
 11135              	.LFE187:
 11136              		.size	LSM303AGR_ACC_W_ClickTimeLatency, .-LSM303AGR_ACC_W_ClickTimeLatency
 11137              		.align	2
 11138              		.p2align 4,,15
 11139              		.global	LSM303AGR_ACC_R_ClickTimeLatency
 11140              		.thumb
 11141              		.thumb_func
 11142              		.type	LSM303AGR_ACC_R_ClickTimeLatency, %function
 11143              	LSM303AGR_ACC_R_ClickTimeLatency:
 11144              	.LFB188:
 11145              		.loc 1 3822 0
 11146              		.cfi_startproc
 11147              		@ args = 0, pretend = 0, frame = 8
 11148              		@ frame_needed = 0, uses_anonymous_args = 0
 11149 3e60 00B5     		push	{lr}
 11150              		.cfi_def_cfa_offset 4
 11151              		.cfi_offset 14, -4
 11152 3e62 83B0     		sub	sp, sp, #12
 11153              		.cfi_def_cfa_offset 16
 11154 3e64 0190     		str	r0, [sp, #4]
 11155 3e66 0091     		str	r1, [sp]
 11156              		.loc 1 3823 0
 11157 3e68 0198     		ldr	r0, [sp, #4]
 11158 3e6a 3C21     		movs	r1, #60
 11159 3e6c 009A     		ldr	r2, [sp]
ARM GAS  /tmp/ccVYwGiK.s 			page 200


 11160 3e6e 0123     		movs	r3, #1
 11161 3e70 FFF7FEFF 		bl	LSM303AGR_ACC_ReadReg
 11162 3e74 0346     		mov	r3, r0
 11163 3e76 002B     		cmp	r3, #0
 11164 3e78 01D1     		bne	.L720
 11165              		.loc 1 3824 0
 11166 3e7a 0023     		movs	r3, #0
 11167 3e7c 08E0     		b	.L721
 11168              	.L720:
 11169              		.loc 1 3826 0
 11170 3e7e 009B     		ldr	r3, [sp]
 11171 3e80 1A78     		ldrb	r2, [r3]	@ zero_extendqisi2
 11172 3e82 009B     		ldr	r3, [sp]
 11173 3e84 1A70     		strb	r2, [r3]
 11174              		.loc 1 3827 0
 11175 3e86 009B     		ldr	r3, [sp]
 11176 3e88 1A78     		ldrb	r2, [r3]	@ zero_extendqisi2
 11177 3e8a 009B     		ldr	r3, [sp]
 11178 3e8c 1A70     		strb	r2, [r3]
 11179              		.loc 1 3829 0
 11180 3e8e 0123     		movs	r3, #1
 11181              	.L721:
 11182              		.loc 1 3830 0
 11183 3e90 1846     		mov	r0, r3
 11184 3e92 03B0     		add	sp, sp, #12
 11185              		@ sp needed
 11186 3e94 5DF804FB 		ldr	pc, [sp], #4
 11187              		.cfi_endproc
 11188              	.LFE188:
 11189              		.size	LSM303AGR_ACC_R_ClickTimeLatency, .-LSM303AGR_ACC_R_ClickTimeLatency
 11190              		.align	2
 11191 3e98 AFF30080 		.p2align 4,,15
 11191      AFF30080 
 11192              		.global	LSM303AGR_ACC_W_ClickTimeWindow
 11193              		.thumb
 11194              		.thumb_func
 11195              		.type	LSM303AGR_ACC_W_ClickTimeWindow, %function
 11196              	LSM303AGR_ACC_W_ClickTimeWindow:
 11197              	.LFB189:
 11198              		.loc 1 3840 0
 11199              		.cfi_startproc
 11200              		@ args = 0, pretend = 0, frame = 16
 11201              		@ frame_needed = 0, uses_anonymous_args = 0
 11202 3ea0 00B5     		push	{lr}
 11203              		.cfi_def_cfa_offset 4
 11204              		.cfi_offset 14, -4
 11205 3ea2 85B0     		sub	sp, sp, #20
 11206              		.cfi_def_cfa_offset 24
 11207 3ea4 0190     		str	r0, [sp, #4]
 11208 3ea6 0B46     		mov	r3, r1
 11209 3ea8 8DF80330 		strb	r3, [sp, #3]
 11210              		.loc 1 3846 0
 11211 3eac 0DF10F03 		add	r3, sp, #15
 11212 3eb0 0198     		ldr	r0, [sp, #4]
 11213 3eb2 3D21     		movs	r1, #61
 11214 3eb4 1A46     		mov	r2, r3
 11215 3eb6 0123     		movs	r3, #1
ARM GAS  /tmp/ccVYwGiK.s 			page 201


 11216 3eb8 FFF7FEFF 		bl	LSM303AGR_ACC_ReadReg
 11217 3ebc 0346     		mov	r3, r0
 11218 3ebe 002B     		cmp	r3, #0
 11219 3ec0 01D1     		bne	.L723
 11220              		.loc 1 3847 0
 11221 3ec2 0023     		movs	r3, #0
 11222 3ec4 18E0     		b	.L726
 11223              	.L723:
 11224              		.loc 1 3849 0
 11225 3ec6 0023     		movs	r3, #0
 11226 3ec8 8DF80F30 		strb	r3, [sp, #15]
 11227              		.loc 1 3850 0
 11228 3ecc 9DF80F20 		ldrb	r2, [sp, #15]	@ zero_extendqisi2
 11229 3ed0 9DF80330 		ldrb	r3, [sp, #3]
 11230 3ed4 1343     		orrs	r3, r3, r2
 11231 3ed6 DBB2     		uxtb	r3, r3
 11232 3ed8 8DF80F30 		strb	r3, [sp, #15]
 11233              		.loc 1 3852 0
 11234 3edc 0DF10F03 		add	r3, sp, #15
 11235 3ee0 0198     		ldr	r0, [sp, #4]
 11236 3ee2 3D21     		movs	r1, #61
 11237 3ee4 1A46     		mov	r2, r3
 11238 3ee6 0123     		movs	r3, #1
 11239 3ee8 FFF7FEFF 		bl	LSM303AGR_ACC_WriteReg
 11240 3eec 0346     		mov	r3, r0
 11241 3eee 002B     		cmp	r3, #0
 11242 3ef0 01D1     		bne	.L725
 11243              		.loc 1 3853 0
 11244 3ef2 0023     		movs	r3, #0
 11245 3ef4 00E0     		b	.L726
 11246              	.L725:
 11247              		.loc 1 3855 0
 11248 3ef6 0123     		movs	r3, #1
 11249              	.L726:
 11250              		.loc 1 3856 0
 11251 3ef8 1846     		mov	r0, r3
 11252 3efa 05B0     		add	sp, sp, #20
 11253              		@ sp needed
 11254 3efc 5DF804FB 		ldr	pc, [sp], #4
 11255              		.cfi_endproc
 11256              	.LFE189:
 11257              		.size	LSM303AGR_ACC_W_ClickTimeWindow, .-LSM303AGR_ACC_W_ClickTimeWindow
 11258              		.align	2
 11259              		.p2align 4,,15
 11260              		.global	LSM303AGR_ACC_R_ClickTimeWindow
 11261              		.thumb
 11262              		.thumb_func
 11263              		.type	LSM303AGR_ACC_R_ClickTimeWindow, %function
 11264              	LSM303AGR_ACC_R_ClickTimeWindow:
 11265              	.LFB190:
 11266              		.loc 1 3866 0
 11267              		.cfi_startproc
 11268              		@ args = 0, pretend = 0, frame = 8
 11269              		@ frame_needed = 0, uses_anonymous_args = 0
 11270 3f00 00B5     		push	{lr}
 11271              		.cfi_def_cfa_offset 4
 11272              		.cfi_offset 14, -4
ARM GAS  /tmp/ccVYwGiK.s 			page 202


 11273 3f02 83B0     		sub	sp, sp, #12
 11274              		.cfi_def_cfa_offset 16
 11275 3f04 0190     		str	r0, [sp, #4]
 11276 3f06 0091     		str	r1, [sp]
 11277              		.loc 1 3867 0
 11278 3f08 0198     		ldr	r0, [sp, #4]
 11279 3f0a 3D21     		movs	r1, #61
 11280 3f0c 009A     		ldr	r2, [sp]
 11281 3f0e 0123     		movs	r3, #1
 11282 3f10 FFF7FEFF 		bl	LSM303AGR_ACC_ReadReg
 11283 3f14 0346     		mov	r3, r0
 11284 3f16 002B     		cmp	r3, #0
 11285 3f18 01D1     		bne	.L728
 11286              		.loc 1 3868 0
 11287 3f1a 0023     		movs	r3, #0
 11288 3f1c 08E0     		b	.L729
 11289              	.L728:
 11290              		.loc 1 3870 0
 11291 3f1e 009B     		ldr	r3, [sp]
 11292 3f20 1A78     		ldrb	r2, [r3]	@ zero_extendqisi2
 11293 3f22 009B     		ldr	r3, [sp]
 11294 3f24 1A70     		strb	r2, [r3]
 11295              		.loc 1 3871 0
 11296 3f26 009B     		ldr	r3, [sp]
 11297 3f28 1A78     		ldrb	r2, [r3]	@ zero_extendqisi2
 11298 3f2a 009B     		ldr	r3, [sp]
 11299 3f2c 1A70     		strb	r2, [r3]
 11300              		.loc 1 3873 0
 11301 3f2e 0123     		movs	r3, #1
 11302              	.L729:
 11303              		.loc 1 3874 0
 11304 3f30 1846     		mov	r0, r3
 11305 3f32 03B0     		add	sp, sp, #12
 11306              		@ sp needed
 11307 3f34 5DF804FB 		ldr	pc, [sp], #4
 11308              		.cfi_endproc
 11309              	.LFE190:
 11310              		.size	LSM303AGR_ACC_R_ClickTimeWindow, .-LSM303AGR_ACC_R_ClickTimeWindow
 11311              		.align	2
 11312 3f38 AFF30080 		.p2align 4,,15
 11312      AFF30080 
 11313              		.global	LSM303AGR_ACC_Get_Voltage_ADC
 11314              		.thumb
 11315              		.thumb_func
 11316              		.type	LSM303AGR_ACC_Get_Voltage_ADC, %function
 11317              	LSM303AGR_ACC_Get_Voltage_ADC:
 11318              	.LFB191:
 11319              		.loc 1 3884 0
 11320              		.cfi_startproc
 11321              		@ args = 0, pretend = 0, frame = 16
 11322              		@ frame_needed = 0, uses_anonymous_args = 0
 11323 3f40 00B5     		push	{lr}
 11324              		.cfi_def_cfa_offset 4
 11325              		.cfi_offset 14, -4
 11326 3f42 85B0     		sub	sp, sp, #20
 11327              		.cfi_def_cfa_offset 24
 11328 3f44 0190     		str	r0, [sp, #4]
ARM GAS  /tmp/ccVYwGiK.s 			page 203


 11329 3f46 0091     		str	r1, [sp]
 11330              		.loc 1 3888 0
 11331 3f48 0223     		movs	r3, #2
 11332 3f4a 8DF80C30 		strb	r3, [sp, #12]
 11333              		.loc 1 3890 0
 11334 3f4e 0023     		movs	r3, #0
 11335 3f50 8DF80D30 		strb	r3, [sp, #13]
 11336              		.loc 1 3891 0
 11337 3f54 0023     		movs	r3, #0
 11338 3f56 8DF80F30 		strb	r3, [sp, #15]
 11339 3f5a 2BE0     		b	.L731
 11340              	.L736:
 11341              		.loc 1 3893 0
 11342 3f5c 0023     		movs	r3, #0
 11343 3f5e 8DF80E30 		strb	r3, [sp, #14]
 11344 3f62 1CE0     		b	.L732
 11345              	.L735:
 11346              		.loc 1 3895 0
 11347 3f64 9DF80D30 		ldrb	r3, [sp, #13]
 11348 3f68 0833     		adds	r3, r3, #8
 11349 3f6a DAB2     		uxtb	r2, r3
 11350 3f6c 9DF80D30 		ldrb	r3, [sp, #13]	@ zero_extendqisi2
 11351 3f70 0099     		ldr	r1, [sp]
 11352 3f72 0B44     		add	r3, r3, r1
 11353 3f74 0198     		ldr	r0, [sp, #4]
 11354 3f76 1146     		mov	r1, r2
 11355 3f78 1A46     		mov	r2, r3
 11356 3f7a 0123     		movs	r3, #1
 11357 3f7c FFF7FEFF 		bl	LSM303AGR_ACC_ReadReg
 11358 3f80 0346     		mov	r3, r0
 11359 3f82 002B     		cmp	r3, #0
 11360 3f84 01D1     		bne	.L733
 11361              		.loc 1 3896 0
 11362 3f86 0023     		movs	r3, #0
 11363 3f88 19E0     		b	.L734
 11364              	.L733:
 11365              		.loc 1 3897 0
 11366 3f8a 9DF80D30 		ldrb	r3, [sp, #13]	@ zero_extendqisi2
 11367 3f8e 0133     		adds	r3, r3, #1
 11368 3f90 8DF80D30 		strb	r3, [sp, #13]
 11369              		.loc 1 3893 0
 11370 3f94 9DF80E30 		ldrb	r3, [sp, #14]	@ zero_extendqisi2
 11371 3f98 0133     		adds	r3, r3, #1
 11372 3f9a 8DF80E30 		strb	r3, [sp, #14]
 11373              	.L732:
 11374              		.loc 1 3893 0 is_stmt 0 discriminator 1
 11375 3f9e 9DF80E20 		ldrb	r2, [sp, #14]	@ zero_extendqisi2
 11376 3fa2 9DF80C30 		ldrb	r3, [sp, #12]	@ zero_extendqisi2
 11377 3fa6 9A42     		cmp	r2, r3
 11378 3fa8 DCD3     		bcc	.L735
 11379              		.loc 1 3891 0 is_stmt 1
 11380 3faa 9DF80F30 		ldrb	r3, [sp, #15]	@ zero_extendqisi2
 11381 3fae 0133     		adds	r3, r3, #1
 11382 3fb0 8DF80F30 		strb	r3, [sp, #15]
 11383              	.L731:
 11384              		.loc 1 3891 0 is_stmt 0 discriminator 1
 11385 3fb4 9DF80F30 		ldrb	r3, [sp, #15]	@ zero_extendqisi2
ARM GAS  /tmp/ccVYwGiK.s 			page 204


 11386 3fb8 022B     		cmp	r3, #2
 11387 3fba CFD9     		bls	.L736
 11388              		.loc 1 3901 0 is_stmt 1
 11389 3fbc 0123     		movs	r3, #1
 11390              	.L734:
 11391              		.loc 1 3902 0
 11392 3fbe 1846     		mov	r0, r3
 11393 3fc0 05B0     		add	sp, sp, #20
 11394              		@ sp needed
 11395 3fc2 5DF804FB 		ldr	pc, [sp], #4
 11396              		.cfi_endproc
 11397              	.LFE191:
 11398              		.size	LSM303AGR_ACC_Get_Voltage_ADC, .-LSM303AGR_ACC_Get_Voltage_ADC
 11399              	.Letext0:
 11400              		.file 2 "../../../../../Drivers/BSP/Components/lsm303agr/LSM303AGR_ACC_driver.h"
 11401 3fc6 00BFAFF3 		.section	.debug_info,"",%progbits
 11401      0080AFF3 
 11401      0080
 11402              	.Ldebug_info0:
 11403 0000 FF3E0000 		.4byte	0x3eff
 11404 0004 0400     		.2byte	0x4
 11405 0006 00000000 		.4byte	.Ldebug_abbrev0
 11406 000a 04       		.byte	0x4
 11407 000b 01       		.uleb128 0x1
 11408 000c 95260000 		.4byte	.LASF500
 11409 0010 01       		.byte	0x1
 11410 0011 81200000 		.4byte	.LASF501
 11411 0015 B2130000 		.4byte	.LASF502
 11412 0019 00000000 		.4byte	.Ltext0
 11413 001d C63F0000 		.4byte	.Letext0-.Ltext0
 11414 0021 00000000 		.4byte	.Ldebug_line0
 11415 0025 02       		.uleb128 0x2
 11416 0026 01       		.byte	0x1
 11417 0027 06       		.byte	0x6
 11418 0028 0F2F0000 		.4byte	.LASF0
 11419 002c 02       		.uleb128 0x2
 11420 002d 01       		.byte	0x1
 11421 002e 08       		.byte	0x8
 11422 002f C42A0000 		.4byte	.LASF1
 11423 0033 02       		.uleb128 0x2
 11424 0034 02       		.byte	0x2
 11425 0035 05       		.byte	0x5
 11426 0036 AA220000 		.4byte	.LASF2
 11427 003a 02       		.uleb128 0x2
 11428 003b 02       		.byte	0x2
 11429 003c 07       		.byte	0x7
 11430 003d 5B2F0000 		.4byte	.LASF3
 11431 0041 02       		.uleb128 0x2
 11432 0042 04       		.byte	0x4
 11433 0043 05       		.byte	0x5
 11434 0044 37230000 		.4byte	.LASF4
 11435 0048 02       		.uleb128 0x2
 11436 0049 04       		.byte	0x4
 11437 004a 07       		.byte	0x7
 11438 004b F8280000 		.4byte	.LASF5
 11439 004f 02       		.uleb128 0x2
 11440 0050 08       		.byte	0x8
ARM GAS  /tmp/ccVYwGiK.s 			page 205


 11441 0051 05       		.byte	0x5
 11442 0052 98190000 		.4byte	.LASF6
 11443 0056 02       		.uleb128 0x2
 11444 0057 08       		.byte	0x8
 11445 0058 07       		.byte	0x7
 11446 0059 6A0C0000 		.4byte	.LASF7
 11447 005d 03       		.uleb128 0x3
 11448 005e 04       		.byte	0x4
 11449 005f 05       		.byte	0x5
 11450 0060 696E7400 		.ascii	"int\000"
 11451 0064 02       		.uleb128 0x2
 11452 0065 04       		.byte	0x4
 11453 0066 07       		.byte	0x7
 11454 0067 63030000 		.4byte	.LASF8
 11455 006b 04       		.uleb128 0x4
 11456 006c 9D1A0000 		.4byte	.LASF9
 11457 0070 02       		.byte	0x2
 11458 0071 38       		.byte	0x38
 11459 0072 2C000000 		.4byte	0x2c
 11460 0076 04       		.uleb128 0x4
 11461 0077 83040000 		.4byte	.LASF10
 11462 007b 02       		.byte	0x2
 11463 007c 39       		.byte	0x39
 11464 007d 3A000000 		.4byte	0x3a
 11465 0081 04       		.uleb128 0x4
 11466 0082 8F260000 		.4byte	.LASF11
 11467 0086 02       		.byte	0x2
 11468 0087 3C       		.byte	0x3c
 11469 0088 33000000 		.4byte	0x33
 11470 008c 05       		.uleb128 0x5
 11471 008d 06       		.byte	0x6
 11472 008e 02       		.byte	0x2
 11473 008f 46       		.byte	0x46
 11474 0090 AB000000 		.4byte	0xab
 11475 0094 06       		.uleb128 0x6
 11476 0095 EC000000 		.4byte	.LASF12
 11477 0099 02       		.byte	0x2
 11478 009a 48       		.byte	0x48
 11479 009b AB000000 		.4byte	0xab
 11480 009f 06       		.uleb128 0x6
 11481 00a0 F80C0000 		.4byte	.LASF13
 11482 00a4 02       		.byte	0x2
 11483 00a5 49       		.byte	0x49
 11484 00a6 C2000000 		.4byte	0xc2
 11485 00aa 00       		.byte	0
 11486 00ab 07       		.uleb128 0x7
 11487 00ac 81000000 		.4byte	0x81
 11488 00b0 BB000000 		.4byte	0xbb
 11489 00b4 08       		.uleb128 0x8
 11490 00b5 BB000000 		.4byte	0xbb
 11491 00b9 02       		.byte	0x2
 11492 00ba 00       		.byte	0
 11493 00bb 02       		.uleb128 0x2
 11494 00bc 04       		.byte	0x4
 11495 00bd 07       		.byte	0x7
 11496 00be DA280000 		.4byte	.LASF14
 11497 00c2 07       		.uleb128 0x7
ARM GAS  /tmp/ccVYwGiK.s 			page 206


 11498 00c3 6B000000 		.4byte	0x6b
 11499 00c7 D2000000 		.4byte	0xd2
 11500 00cb 08       		.uleb128 0x8
 11501 00cc BB000000 		.4byte	0xbb
 11502 00d0 05       		.byte	0x5
 11503 00d1 00       		.byte	0
 11504 00d2 04       		.uleb128 0x4
 11505 00d3 191F0000 		.4byte	.LASF15
 11506 00d7 02       		.byte	0x2
 11507 00d8 4A       		.byte	0x4a
 11508 00d9 8C000000 		.4byte	0x8c
 11509 00dd 09       		.uleb128 0x9
 11510 00de 01       		.byte	0x1
 11511 00df 02       		.byte	0x2
 11512 00e0 59       		.byte	0x59
 11513 00e1 F2000000 		.4byte	0xf2
 11514 00e5 0A       		.uleb128 0xa
 11515 00e6 602C0000 		.4byte	.LASF16
 11516 00ea 01       		.sleb128 1
 11517 00eb 0A       		.uleb128 0xa
 11518 00ec 46050000 		.4byte	.LASF17
 11519 00f0 00       		.sleb128 0
 11520 00f1 00       		.byte	0
 11521 00f2 04       		.uleb128 0x4
 11522 00f3 5D200000 		.4byte	.LASF18
 11523 00f7 02       		.byte	0x2
 11524 00f8 5C       		.byte	0x5c
 11525 00f9 DD000000 		.4byte	0xdd
 11526 00fd 09       		.uleb128 0x9
 11527 00fe 01       		.byte	0x1
 11528 00ff 02       		.byte	0x2
 11529 0100 BB       		.byte	0xbb
 11530 0101 13010000 		.4byte	0x113
 11531 0105 0A       		.uleb128 0xa
 11532 0106 CA1E0000 		.4byte	.LASF19
 11533 010a 00       		.sleb128 0
 11534 010b 0A       		.uleb128 0xa
 11535 010c DA070000 		.4byte	.LASF20
 11536 0110 8001     		.sleb128 128
 11537 0112 00       		.byte	0
 11538 0113 04       		.uleb128 0x4
 11539 0114 C6280000 		.4byte	.LASF21
 11540 0118 02       		.byte	0x2
 11541 0119 BE       		.byte	0xbe
 11542 011a FD000000 		.4byte	0xfd
 11543 011e 09       		.uleb128 0x9
 11544 011f 01       		.byte	0x1
 11545 0120 02       		.byte	0x2
 11546 0121 CB       		.byte	0xcb
 11547 0122 3F010000 		.4byte	0x13f
 11548 0126 0A       		.uleb128 0xa
 11549 0127 A3000000 		.4byte	.LASF22
 11550 012b 00       		.sleb128 0
 11551 012c 0A       		.uleb128 0xa
 11552 012d 56060000 		.4byte	.LASF23
 11553 0131 10       		.sleb128 16
 11554 0132 0A       		.uleb128 0xa
ARM GAS  /tmp/ccVYwGiK.s 			page 207


 11555 0133 08150000 		.4byte	.LASF24
 11556 0137 20       		.sleb128 32
 11557 0138 0A       		.uleb128 0xa
 11558 0139 36150000 		.4byte	.LASF25
 11559 013d 30       		.sleb128 48
 11560 013e 00       		.byte	0
 11561 013f 04       		.uleb128 0x4
 11562 0140 481C0000 		.4byte	.LASF26
 11563 0144 02       		.byte	0x2
 11564 0145 D0       		.byte	0xd0
 11565 0146 1E010000 		.4byte	0x11e
 11566 014a 09       		.uleb128 0x9
 11567 014b 01       		.byte	0x1
 11568 014c 02       		.byte	0x2
 11569 014d E5       		.byte	0xe5
 11570 014e 95010000 		.4byte	0x195
 11571 0152 0A       		.uleb128 0xa
 11572 0153 94130000 		.4byte	.LASF27
 11573 0157 00       		.sleb128 0
 11574 0158 0A       		.uleb128 0xa
 11575 0159 DB080000 		.4byte	.LASF28
 11576 015d 10       		.sleb128 16
 11577 015e 0A       		.uleb128 0xa
 11578 015f FA2D0000 		.4byte	.LASF29
 11579 0163 20       		.sleb128 32
 11580 0164 0A       		.uleb128 0xa
 11581 0165 BF170000 		.4byte	.LASF30
 11582 0169 30       		.sleb128 48
 11583 016a 0A       		.uleb128 0xa
 11584 016b 0B0A0000 		.4byte	.LASF31
 11585 016f C000     		.sleb128 64
 11586 0171 0A       		.uleb128 0xa
 11587 0172 0C120000 		.4byte	.LASF32
 11588 0176 D000     		.sleb128 80
 11589 0178 0A       		.uleb128 0xa
 11590 0179 B7000000 		.4byte	.LASF33
 11591 017d E000     		.sleb128 96
 11592 017f 0A       		.uleb128 0xa
 11593 0180 7E0F0000 		.4byte	.LASF34
 11594 0184 F000     		.sleb128 112
 11595 0186 0A       		.uleb128 0xa
 11596 0187 821B0000 		.4byte	.LASF35
 11597 018b 8001     		.sleb128 128
 11598 018d 0A       		.uleb128 0xa
 11599 018e 86270000 		.4byte	.LASF36
 11600 0192 9001     		.sleb128 144
 11601 0194 00       		.byte	0
 11602 0195 04       		.uleb128 0x4
 11603 0196 E1020000 		.4byte	.LASF37
 11604 019a 02       		.byte	0x2
 11605 019b F0       		.byte	0xf0
 11606 019c 4A010000 		.4byte	0x14a
 11607 01a0 09       		.uleb128 0x9
 11608 01a1 01       		.byte	0x1
 11609 01a2 02       		.byte	0x2
 11610 01a3 FF       		.byte	0xff
 11611 01a4 B5010000 		.4byte	0x1b5
ARM GAS  /tmp/ccVYwGiK.s 			page 208


 11612 01a8 0A       		.uleb128 0xa
 11613 01a9 AA1E0000 		.4byte	.LASF38
 11614 01ad 00       		.sleb128 0
 11615 01ae 0A       		.uleb128 0xa
 11616 01af E62C0000 		.4byte	.LASF39
 11617 01b3 01       		.sleb128 1
 11618 01b4 00       		.byte	0
 11619 01b5 0B       		.uleb128 0xb
 11620 01b6 3F280000 		.4byte	.LASF40
 11621 01ba 02       		.byte	0x2
 11622 01bb 0201     		.2byte	0x102
 11623 01bd A0010000 		.4byte	0x1a0
 11624 01c1 0C       		.uleb128 0xc
 11625 01c2 01       		.byte	0x1
 11626 01c3 02       		.byte	0x2
 11627 01c4 0E01     		.2byte	0x10e
 11628 01c6 D7010000 		.4byte	0x1d7
 11629 01ca 0A       		.uleb128 0xa
 11630 01cb EF040000 		.4byte	.LASF41
 11631 01cf 00       		.sleb128 0
 11632 01d0 0A       		.uleb128 0xa
 11633 01d1 6F180000 		.4byte	.LASF42
 11634 01d5 02       		.sleb128 2
 11635 01d6 00       		.byte	0
 11636 01d7 0B       		.uleb128 0xb
 11637 01d8 60080000 		.4byte	.LASF43
 11638 01dc 02       		.byte	0x2
 11639 01dd 1101     		.2byte	0x111
 11640 01df C1010000 		.4byte	0x1c1
 11641 01e3 0C       		.uleb128 0xc
 11642 01e4 01       		.byte	0x1
 11643 01e5 02       		.byte	0x2
 11644 01e6 1D01     		.2byte	0x11d
 11645 01e8 F9010000 		.4byte	0x1f9
 11646 01ec 0A       		.uleb128 0xa
 11647 01ed F4310000 		.4byte	.LASF44
 11648 01f1 00       		.sleb128 0
 11649 01f2 0A       		.uleb128 0xa
 11650 01f3 66160000 		.4byte	.LASF45
 11651 01f7 04       		.sleb128 4
 11652 01f8 00       		.byte	0
 11653 01f9 0B       		.uleb128 0xb
 11654 01fa 0C2A0000 		.4byte	.LASF46
 11655 01fe 02       		.byte	0x2
 11656 01ff 2001     		.2byte	0x120
 11657 0201 E3010000 		.4byte	0x1e3
 11658 0205 0C       		.uleb128 0xc
 11659 0206 01       		.byte	0x1
 11660 0207 02       		.byte	0x2
 11661 0208 2C01     		.2byte	0x12c
 11662 020a 1B020000 		.4byte	0x21b
 11663 020e 0A       		.uleb128 0xa
 11664 020f 60040000 		.4byte	.LASF47
 11665 0213 00       		.sleb128 0
 11666 0214 0A       		.uleb128 0xa
 11667 0215 091B0000 		.4byte	.LASF48
 11668 0219 08       		.sleb128 8
ARM GAS  /tmp/ccVYwGiK.s 			page 209


 11669 021a 00       		.byte	0
 11670 021b 0B       		.uleb128 0xb
 11671 021c 9D240000 		.4byte	.LASF49
 11672 0220 02       		.byte	0x2
 11673 0221 2F01     		.2byte	0x12f
 11674 0223 05020000 		.4byte	0x205
 11675 0227 0C       		.uleb128 0xc
 11676 0228 01       		.byte	0x1
 11677 0229 02       		.byte	0x2
 11678 022a 3B01     		.2byte	0x13b
 11679 022c 3D020000 		.4byte	0x23d
 11680 0230 0A       		.uleb128 0xa
 11681 0231 78010000 		.4byte	.LASF50
 11682 0235 00       		.sleb128 0
 11683 0236 0A       		.uleb128 0xa
 11684 0237 D1090000 		.4byte	.LASF51
 11685 023b 10       		.sleb128 16
 11686 023c 00       		.byte	0
 11687 023d 0B       		.uleb128 0xb
 11688 023e 181A0000 		.4byte	.LASF52
 11689 0242 02       		.byte	0x2
 11690 0243 3E01     		.2byte	0x13e
 11691 0245 27020000 		.4byte	0x227
 11692 0249 0C       		.uleb128 0xc
 11693 024a 01       		.byte	0x1
 11694 024b 02       		.byte	0x2
 11695 024c 4A01     		.2byte	0x14a
 11696 024e 5F020000 		.4byte	0x25f
 11697 0252 0A       		.uleb128 0xa
 11698 0253 A4080000 		.4byte	.LASF53
 11699 0257 00       		.sleb128 0
 11700 0258 0A       		.uleb128 0xa
 11701 0259 66200000 		.4byte	.LASF54
 11702 025d 20       		.sleb128 32
 11703 025e 00       		.byte	0
 11704 025f 0B       		.uleb128 0xb
 11705 0260 A8060000 		.4byte	.LASF55
 11706 0264 02       		.byte	0x2
 11707 0265 4D01     		.2byte	0x14d
 11708 0267 49020000 		.4byte	0x249
 11709 026b 0C       		.uleb128 0xc
 11710 026c 01       		.byte	0x1
 11711 026d 02       		.byte	0x2
 11712 026e 5901     		.2byte	0x159
 11713 0270 82020000 		.4byte	0x282
 11714 0274 0A       		.uleb128 0xa
 11715 0275 2D2E0000 		.4byte	.LASF56
 11716 0279 00       		.sleb128 0
 11717 027a 0A       		.uleb128 0xa
 11718 027b A2310000 		.4byte	.LASF57
 11719 027f C000     		.sleb128 64
 11720 0281 00       		.byte	0
 11721 0282 0B       		.uleb128 0xb
 11722 0283 E3280000 		.4byte	.LASF58
 11723 0287 02       		.byte	0x2
 11724 0288 5C01     		.2byte	0x15c
 11725 028a 6B020000 		.4byte	0x26b
ARM GAS  /tmp/ccVYwGiK.s 			page 210


 11726 028e 0C       		.uleb128 0xc
 11727 028f 01       		.byte	0x1
 11728 0290 02       		.byte	0x2
 11729 0291 6801     		.2byte	0x168
 11730 0293 A5020000 		.4byte	0x2a5
 11731 0297 0A       		.uleb128 0xa
 11732 0298 3E210000 		.4byte	.LASF59
 11733 029c 00       		.sleb128 0
 11734 029d 0A       		.uleb128 0xa
 11735 029e 8E150000 		.4byte	.LASF60
 11736 02a2 8001     		.sleb128 128
 11737 02a4 00       		.byte	0
 11738 02a5 0B       		.uleb128 0xb
 11739 02a6 77230000 		.4byte	.LASF61
 11740 02aa 02       		.byte	0x2
 11741 02ab 6B01     		.2byte	0x16b
 11742 02ad 8E020000 		.4byte	0x28e
 11743 02b1 0C       		.uleb128 0xc
 11744 02b2 01       		.byte	0x1
 11745 02b3 02       		.byte	0x2
 11746 02b4 8101     		.2byte	0x181
 11747 02b6 C8020000 		.4byte	0x2c8
 11748 02ba 0A       		.uleb128 0xa
 11749 02bb 79190000 		.4byte	.LASF62
 11750 02bf 00       		.sleb128 0
 11751 02c0 0A       		.uleb128 0xa
 11752 02c1 48160000 		.4byte	.LASF63
 11753 02c5 C000     		.sleb128 64
 11754 02c7 00       		.byte	0
 11755 02c8 0B       		.uleb128 0xb
 11756 02c9 D7040000 		.4byte	.LASF64
 11757 02cd 02       		.byte	0x2
 11758 02ce 8401     		.2byte	0x184
 11759 02d0 B1020000 		.4byte	0x2b1
 11760 02d4 0C       		.uleb128 0xc
 11761 02d5 01       		.byte	0x1
 11762 02d6 02       		.byte	0x2
 11763 02d7 9101     		.2byte	0x191
 11764 02d9 EB020000 		.4byte	0x2eb
 11765 02dd 0A       		.uleb128 0xa
 11766 02de 721C0000 		.4byte	.LASF65
 11767 02e2 00       		.sleb128 0
 11768 02e3 0A       		.uleb128 0xa
 11769 02e4 AA210000 		.4byte	.LASF66
 11770 02e8 8001     		.sleb128 128
 11771 02ea 00       		.byte	0
 11772 02eb 0B       		.uleb128 0xb
 11773 02ec 60090000 		.4byte	.LASF67
 11774 02f0 02       		.byte	0x2
 11775 02f1 9401     		.2byte	0x194
 11776 02f3 D4020000 		.4byte	0x2d4
 11777 02f7 0C       		.uleb128 0xc
 11778 02f8 01       		.byte	0x1
 11779 02f9 02       		.byte	0x2
 11780 02fa A101     		.2byte	0x1a1
 11781 02fc 0D030000 		.4byte	0x30d
 11782 0300 0A       		.uleb128 0xa
ARM GAS  /tmp/ccVYwGiK.s 			page 211


 11783 0301 D51A0000 		.4byte	.LASF68
 11784 0305 00       		.sleb128 0
 11785 0306 0A       		.uleb128 0xa
 11786 0307 2E1C0000 		.4byte	.LASF69
 11787 030b 01       		.sleb128 1
 11788 030c 00       		.byte	0
 11789 030d 0B       		.uleb128 0xb
 11790 030e 342F0000 		.4byte	.LASF70
 11791 0312 02       		.byte	0x2
 11792 0313 A401     		.2byte	0x1a4
 11793 0315 F7020000 		.4byte	0x2f7
 11794 0319 0C       		.uleb128 0xc
 11795 031a 01       		.byte	0x1
 11796 031b 02       		.byte	0x2
 11797 031c B101     		.2byte	0x1b1
 11798 031e 2F030000 		.4byte	0x32f
 11799 0322 0A       		.uleb128 0xa
 11800 0323 DE2B0000 		.4byte	.LASF71
 11801 0327 00       		.sleb128 0
 11802 0328 0A       		.uleb128 0xa
 11803 0329 B6140000 		.4byte	.LASF72
 11804 032d 02       		.sleb128 2
 11805 032e 00       		.byte	0
 11806 032f 0B       		.uleb128 0xb
 11807 0330 681D0000 		.4byte	.LASF73
 11808 0334 02       		.byte	0x2
 11809 0335 B401     		.2byte	0x1b4
 11810 0337 19030000 		.4byte	0x319
 11811 033b 0C       		.uleb128 0xc
 11812 033c 01       		.byte	0x1
 11813 033d 02       		.byte	0x2
 11814 033e C101     		.2byte	0x1c1
 11815 0340 51030000 		.4byte	0x351
 11816 0344 0A       		.uleb128 0xa
 11817 0345 89080000 		.4byte	.LASF74
 11818 0349 00       		.sleb128 0
 11819 034a 0A       		.uleb128 0xa
 11820 034b 27070000 		.4byte	.LASF75
 11821 034f 04       		.sleb128 4
 11822 0350 00       		.byte	0
 11823 0351 0B       		.uleb128 0xb
 11824 0352 F50A0000 		.4byte	.LASF76
 11825 0356 02       		.byte	0x2
 11826 0357 C401     		.2byte	0x1c4
 11827 0359 3B030000 		.4byte	0x33b
 11828 035d 0C       		.uleb128 0xc
 11829 035e 01       		.byte	0x1
 11830 035f 02       		.byte	0x2
 11831 0360 D101     		.2byte	0x1d1
 11832 0362 73030000 		.4byte	0x373
 11833 0366 0A       		.uleb128 0xa
 11834 0367 6D0A0000 		.4byte	.LASF77
 11835 036b 00       		.sleb128 0
 11836 036c 0A       		.uleb128 0xa
 11837 036d 36300000 		.4byte	.LASF78
 11838 0371 08       		.sleb128 8
 11839 0372 00       		.byte	0
ARM GAS  /tmp/ccVYwGiK.s 			page 212


 11840 0373 0B       		.uleb128 0xb
 11841 0374 690F0000 		.4byte	.LASF79
 11842 0378 02       		.byte	0x2
 11843 0379 D401     		.2byte	0x1d4
 11844 037b 5D030000 		.4byte	0x35d
 11845 037f 0C       		.uleb128 0xc
 11846 0380 01       		.byte	0x1
 11847 0381 02       		.byte	0x2
 11848 0382 E101     		.2byte	0x1e1
 11849 0384 95030000 		.4byte	0x395
 11850 0388 0A       		.uleb128 0xa
 11851 0389 F71C0000 		.4byte	.LASF80
 11852 038d 00       		.sleb128 0
 11853 038e 0A       		.uleb128 0xa
 11854 038f B9010000 		.4byte	.LASF81
 11855 0393 01       		.sleb128 1
 11856 0394 00       		.byte	0
 11857 0395 0B       		.uleb128 0xb
 11858 0396 FA0D0000 		.4byte	.LASF82
 11859 039a 02       		.byte	0x2
 11860 039b E401     		.2byte	0x1e4
 11861 039d 7F030000 		.4byte	0x37f
 11862 03a1 0C       		.uleb128 0xc
 11863 03a2 01       		.byte	0x1
 11864 03a3 02       		.byte	0x2
 11865 03a4 F101     		.2byte	0x1f1
 11866 03a6 B7030000 		.4byte	0x3b7
 11867 03aa 0A       		.uleb128 0xa
 11868 03ab 91280000 		.4byte	.LASF83
 11869 03af 00       		.sleb128 0
 11870 03b0 0A       		.uleb128 0xa
 11871 03b1 DD0F0000 		.4byte	.LASF84
 11872 03b5 02       		.sleb128 2
 11873 03b6 00       		.byte	0
 11874 03b7 0B       		.uleb128 0xb
 11875 03b8 6F220000 		.4byte	.LASF85
 11876 03bc 02       		.byte	0x2
 11877 03bd F401     		.2byte	0x1f4
 11878 03bf A1030000 		.4byte	0x3a1
 11879 03c3 0C       		.uleb128 0xc
 11880 03c4 01       		.byte	0x1
 11881 03c5 02       		.byte	0x2
 11882 03c6 0102     		.2byte	0x201
 11883 03c8 D9030000 		.4byte	0x3d9
 11884 03cc 0A       		.uleb128 0xa
 11885 03cd A7020000 		.4byte	.LASF86
 11886 03d1 00       		.sleb128 0
 11887 03d2 0A       		.uleb128 0xa
 11888 03d3 D5010000 		.4byte	.LASF87
 11889 03d7 04       		.sleb128 4
 11890 03d8 00       		.byte	0
 11891 03d9 0B       		.uleb128 0xb
 11892 03da B72F0000 		.4byte	.LASF88
 11893 03de 02       		.byte	0x2
 11894 03df 0402     		.2byte	0x204
 11895 03e1 C3030000 		.4byte	0x3c3
 11896 03e5 0C       		.uleb128 0xc
ARM GAS  /tmp/ccVYwGiK.s 			page 213


 11897 03e6 01       		.byte	0x1
 11898 03e7 02       		.byte	0x2
 11899 03e8 1102     		.2byte	0x211
 11900 03ea FB030000 		.4byte	0x3fb
 11901 03ee 0A       		.uleb128 0xa
 11902 03ef FD190000 		.4byte	.LASF89
 11903 03f3 00       		.sleb128 0
 11904 03f4 0A       		.uleb128 0xa
 11905 03f5 212A0000 		.4byte	.LASF90
 11906 03f9 08       		.sleb128 8
 11907 03fa 00       		.byte	0
 11908 03fb 0B       		.uleb128 0xb
 11909 03fc E51E0000 		.4byte	.LASF91
 11910 0400 02       		.byte	0x2
 11911 0401 1402     		.2byte	0x214
 11912 0403 E5030000 		.4byte	0x3e5
 11913 0407 0C       		.uleb128 0xc
 11914 0408 01       		.byte	0x1
 11915 0409 02       		.byte	0x2
 11916 040a 2102     		.2byte	0x221
 11917 040c 29040000 		.4byte	0x429
 11918 0410 0A       		.uleb128 0xa
 11919 0411 8C310000 		.4byte	.LASF92
 11920 0415 00       		.sleb128 0
 11921 0416 0A       		.uleb128 0xa
 11922 0417 D6270000 		.4byte	.LASF93
 11923 041b 10       		.sleb128 16
 11924 041c 0A       		.uleb128 0xa
 11925 041d 62010000 		.4byte	.LASF94
 11926 0421 20       		.sleb128 32
 11927 0422 0A       		.uleb128 0xa
 11928 0423 A12E0000 		.4byte	.LASF95
 11929 0427 30       		.sleb128 48
 11930 0428 00       		.byte	0
 11931 0429 0B       		.uleb128 0xb
 11932 042a FD1B0000 		.4byte	.LASF96
 11933 042e 02       		.byte	0x2
 11934 042f 2602     		.2byte	0x226
 11935 0431 07040000 		.4byte	0x407
 11936 0435 0C       		.uleb128 0xc
 11937 0436 01       		.byte	0x1
 11938 0437 02       		.byte	0x2
 11939 0438 3302     		.2byte	0x233
 11940 043a 5A040000 		.4byte	0x45a
 11941 043e 0A       		.uleb128 0xa
 11942 043f F0100000 		.4byte	.LASF97
 11943 0443 00       		.sleb128 0
 11944 0444 0A       		.uleb128 0xa
 11945 0445 E8150000 		.4byte	.LASF98
 11946 0449 C000     		.sleb128 64
 11947 044b 0A       		.uleb128 0xa
 11948 044c C6020000 		.4byte	.LASF99
 11949 0450 8001     		.sleb128 128
 11950 0452 0A       		.uleb128 0xa
 11951 0453 7C1A0000 		.4byte	.LASF100
 11952 0457 C001     		.sleb128 192
 11953 0459 00       		.byte	0
ARM GAS  /tmp/ccVYwGiK.s 			page 214


 11954 045a 0B       		.uleb128 0xb
 11955 045b 44170000 		.4byte	.LASF101
 11956 045f 02       		.byte	0x2
 11957 0460 3802     		.2byte	0x238
 11958 0462 35040000 		.4byte	0x435
 11959 0466 0C       		.uleb128 0xc
 11960 0467 01       		.byte	0x1
 11961 0468 02       		.byte	0x2
 11962 0469 4502     		.2byte	0x245
 11963 046b 7C040000 		.4byte	0x47c
 11964 046f 0A       		.uleb128 0xa
 11965 0470 19000000 		.4byte	.LASF102
 11966 0474 00       		.sleb128 0
 11967 0475 0A       		.uleb128 0xa
 11968 0476 80320000 		.4byte	.LASF103
 11969 047a 02       		.sleb128 2
 11970 047b 00       		.byte	0
 11971 047c 0B       		.uleb128 0xb
 11972 047d BE160000 		.4byte	.LASF104
 11973 0481 02       		.byte	0x2
 11974 0482 4802     		.2byte	0x248
 11975 0484 66040000 		.4byte	0x466
 11976 0488 0C       		.uleb128 0xc
 11977 0489 01       		.byte	0x1
 11978 048a 02       		.byte	0x2
 11979 048b 5502     		.2byte	0x255
 11980 048d 9E040000 		.4byte	0x49e
 11981 0491 0A       		.uleb128 0xa
 11982 0492 762A0000 		.4byte	.LASF105
 11983 0496 00       		.sleb128 0
 11984 0497 0A       		.uleb128 0xa
 11985 0498 CF2F0000 		.4byte	.LASF106
 11986 049c 04       		.sleb128 4
 11987 049d 00       		.byte	0
 11988 049e 0B       		.uleb128 0xb
 11989 049f 4C030000 		.4byte	.LASF107
 11990 04a3 02       		.byte	0x2
 11991 04a4 5802     		.2byte	0x258
 11992 04a6 88040000 		.4byte	0x488
 11993 04aa 0C       		.uleb128 0xc
 11994 04ab 01       		.byte	0x1
 11995 04ac 02       		.byte	0x2
 11996 04ad 6502     		.2byte	0x265
 11997 04af C0040000 		.4byte	0x4c0
 11998 04b3 0A       		.uleb128 0xa
 11999 04b4 822F0000 		.4byte	.LASF108
 12000 04b8 00       		.sleb128 0
 12001 04b9 0A       		.uleb128 0xa
 12002 04ba BC1C0000 		.4byte	.LASF109
 12003 04be 08       		.sleb128 8
 12004 04bf 00       		.byte	0
 12005 04c0 0B       		.uleb128 0xb
 12006 04c1 32240000 		.4byte	.LASF110
 12007 04c5 02       		.byte	0x2
 12008 04c6 6802     		.2byte	0x268
 12009 04c8 AA040000 		.4byte	0x4aa
 12010 04cc 0C       		.uleb128 0xc
ARM GAS  /tmp/ccVYwGiK.s 			page 215


 12011 04cd 01       		.byte	0x1
 12012 04ce 02       		.byte	0x2
 12013 04cf 7502     		.2byte	0x275
 12014 04d1 E2040000 		.4byte	0x4e2
 12015 04d5 0A       		.uleb128 0xa
 12016 04d6 C5230000 		.4byte	.LASF111
 12017 04da 00       		.sleb128 0
 12018 04db 0A       		.uleb128 0xa
 12019 04dc A70D0000 		.4byte	.LASF112
 12020 04e0 10       		.sleb128 16
 12021 04e1 00       		.byte	0
 12022 04e2 0B       		.uleb128 0xb
 12023 04e3 130F0000 		.4byte	.LASF113
 12024 04e7 02       		.byte	0x2
 12025 04e8 7802     		.2byte	0x278
 12026 04ea CC040000 		.4byte	0x4cc
 12027 04ee 0C       		.uleb128 0xc
 12028 04ef 01       		.byte	0x1
 12029 04f0 02       		.byte	0x2
 12030 04f1 8502     		.2byte	0x285
 12031 04f3 04050000 		.4byte	0x504
 12032 04f7 0A       		.uleb128 0xa
 12033 04f8 83160000 		.4byte	.LASF114
 12034 04fc 00       		.sleb128 0
 12035 04fd 0A       		.uleb128 0xa
 12036 04fe AC1F0000 		.4byte	.LASF115
 12037 0502 20       		.sleb128 32
 12038 0503 00       		.byte	0
 12039 0504 0B       		.uleb128 0xb
 12040 0505 58170000 		.4byte	.LASF116
 12041 0509 02       		.byte	0x2
 12042 050a 8802     		.2byte	0x288
 12043 050c EE040000 		.4byte	0x4ee
 12044 0510 0C       		.uleb128 0xc
 12045 0511 01       		.byte	0x1
 12046 0512 02       		.byte	0x2
 12047 0513 9502     		.2byte	0x295
 12048 0515 27050000 		.4byte	0x527
 12049 0519 0A       		.uleb128 0xa
 12050 051a 23040000 		.4byte	.LASF117
 12051 051e 00       		.sleb128 0
 12052 051f 0A       		.uleb128 0xa
 12053 0520 96100000 		.4byte	.LASF118
 12054 0524 C000     		.sleb128 64
 12055 0526 00       		.byte	0
 12056 0527 0B       		.uleb128 0xb
 12057 0528 45020000 		.4byte	.LASF119
 12058 052c 02       		.byte	0x2
 12059 052d 9802     		.2byte	0x298
 12060 052f 10050000 		.4byte	0x510
 12061 0533 0C       		.uleb128 0xc
 12062 0534 01       		.byte	0x1
 12063 0535 02       		.byte	0x2
 12064 0536 A502     		.2byte	0x2a5
 12065 0538 4A050000 		.4byte	0x54a
 12066 053c 0A       		.uleb128 0xa
 12067 053d C6180000 		.4byte	.LASF120
ARM GAS  /tmp/ccVYwGiK.s 			page 216


 12068 0541 00       		.sleb128 0
 12069 0542 0A       		.uleb128 0xa
 12070 0543 E1030000 		.4byte	.LASF121
 12071 0547 8001     		.sleb128 128
 12072 0549 00       		.byte	0
 12073 054a 0B       		.uleb128 0xb
 12074 054b 00000000 		.4byte	.LASF122
 12075 054f 02       		.byte	0x2
 12076 0550 A802     		.2byte	0x2a8
 12077 0552 33050000 		.4byte	0x533
 12078 0556 0C       		.uleb128 0xc
 12079 0557 01       		.byte	0x1
 12080 0558 02       		.byte	0x2
 12081 0559 B502     		.2byte	0x2b5
 12082 055b 6C050000 		.4byte	0x56c
 12083 055f 0A       		.uleb128 0xa
 12084 0560 2A1E0000 		.4byte	.LASF123
 12085 0564 00       		.sleb128 0
 12086 0565 0A       		.uleb128 0xa
 12087 0566 D2000000 		.4byte	.LASF124
 12088 056a 01       		.sleb128 1
 12089 056b 00       		.byte	0
 12090 056c 0B       		.uleb128 0xb
 12091 056d BA1D0000 		.4byte	.LASF125
 12092 0571 02       		.byte	0x2
 12093 0572 B802     		.2byte	0x2b8
 12094 0574 56050000 		.4byte	0x556
 12095 0578 0C       		.uleb128 0xc
 12096 0579 01       		.byte	0x1
 12097 057a 02       		.byte	0x2
 12098 057b C502     		.2byte	0x2c5
 12099 057d 9A050000 		.4byte	0x59a
 12100 0581 0A       		.uleb128 0xa
 12101 0582 5B0E0000 		.4byte	.LASF126
 12102 0586 00       		.sleb128 0
 12103 0587 0A       		.uleb128 0xa
 12104 0588 97090000 		.4byte	.LASF127
 12105 058c 02       		.sleb128 2
 12106 058d 0A       		.uleb128 0xa
 12107 058e B4090000 		.4byte	.LASF128
 12108 0592 04       		.sleb128 4
 12109 0593 0A       		.uleb128 0xa
 12110 0594 DA0D0000 		.4byte	.LASF129
 12111 0598 06       		.sleb128 6
 12112 0599 00       		.byte	0
 12113 059a 0B       		.uleb128 0xb
 12114 059b 31170000 		.4byte	.LASF130
 12115 059f 02       		.byte	0x2
 12116 05a0 CA02     		.2byte	0x2ca
 12117 05a2 78050000 		.4byte	0x578
 12118 05a6 0C       		.uleb128 0xc
 12119 05a7 01       		.byte	0x1
 12120 05a8 02       		.byte	0x2
 12121 05a9 D702     		.2byte	0x2d7
 12122 05ab BC050000 		.4byte	0x5bc
 12123 05af 0A       		.uleb128 0xa
 12124 05b0 AB230000 		.4byte	.LASF131
ARM GAS  /tmp/ccVYwGiK.s 			page 217


 12125 05b4 00       		.sleb128 0
 12126 05b5 0A       		.uleb128 0xa
 12127 05b6 80140000 		.4byte	.LASF132
 12128 05ba 08       		.sleb128 8
 12129 05bb 00       		.byte	0
 12130 05bc 0B       		.uleb128 0xb
 12131 05bd BF0E0000 		.4byte	.LASF133
 12132 05c1 02       		.byte	0x2
 12133 05c2 DA02     		.2byte	0x2da
 12134 05c4 A6050000 		.4byte	0x5a6
 12135 05c8 0C       		.uleb128 0xc
 12136 05c9 01       		.byte	0x1
 12137 05ca 02       		.byte	0x2
 12138 05cb E702     		.2byte	0x2e7
 12139 05cd DF050000 		.4byte	0x5df
 12140 05d1 0A       		.uleb128 0xa
 12141 05d2 4D0D0000 		.4byte	.LASF134
 12142 05d6 00       		.sleb128 0
 12143 05d7 0A       		.uleb128 0xa
 12144 05d8 2E320000 		.4byte	.LASF135
 12145 05dc C000     		.sleb128 64
 12146 05de 00       		.byte	0
 12147 05df 0B       		.uleb128 0xb
 12148 05e0 93020000 		.4byte	.LASF136
 12149 05e4 02       		.byte	0x2
 12150 05e5 EA02     		.2byte	0x2ea
 12151 05e7 C8050000 		.4byte	0x5c8
 12152 05eb 0C       		.uleb128 0xc
 12153 05ec 01       		.byte	0x1
 12154 05ed 02       		.byte	0x2
 12155 05ee F702     		.2byte	0x2f7
 12156 05f0 01060000 		.4byte	0x601
 12157 05f4 0A       		.uleb128 0xa
 12158 05f5 0B160000 		.4byte	.LASF137
 12159 05f9 00       		.sleb128 0
 12160 05fa 0A       		.uleb128 0xa
 12161 05fb BF2B0000 		.4byte	.LASF138
 12162 05ff 01       		.sleb128 1
 12163 0600 00       		.byte	0
 12164 0601 0B       		.uleb128 0xb
 12165 0602 0D2B0000 		.4byte	.LASF139
 12166 0606 02       		.byte	0x2
 12167 0607 FA02     		.2byte	0x2fa
 12168 0609 EB050000 		.4byte	0x5eb
 12169 060d 0C       		.uleb128 0xc
 12170 060e 01       		.byte	0x1
 12171 060f 02       		.byte	0x2
 12172 0610 0703     		.2byte	0x307
 12173 0612 23060000 		.4byte	0x623
 12174 0616 0A       		.uleb128 0xa
 12175 0617 E3210000 		.4byte	.LASF140
 12176 061b 00       		.sleb128 0
 12177 061c 0A       		.uleb128 0xa
 12178 061d 12170000 		.4byte	.LASF141
 12179 0621 02       		.sleb128 2
 12180 0622 00       		.byte	0
 12181 0623 0B       		.uleb128 0xb
ARM GAS  /tmp/ccVYwGiK.s 			page 218


 12182 0624 BD310000 		.4byte	.LASF142
 12183 0628 02       		.byte	0x2
 12184 0629 0A03     		.2byte	0x30a
 12185 062b 0D060000 		.4byte	0x60d
 12186 062f 0C       		.uleb128 0xc
 12187 0630 01       		.byte	0x1
 12188 0631 02       		.byte	0x2
 12189 0632 1703     		.2byte	0x317
 12190 0634 45060000 		.4byte	0x645
 12191 0638 0A       		.uleb128 0xa
 12192 0639 77090000 		.4byte	.LASF143
 12193 063d 00       		.sleb128 0
 12194 063e 0A       		.uleb128 0xa
 12195 063f 7C1D0000 		.4byte	.LASF144
 12196 0643 04       		.sleb128 4
 12197 0644 00       		.byte	0
 12198 0645 0B       		.uleb128 0xb
 12199 0646 3B2A0000 		.4byte	.LASF145
 12200 064a 02       		.byte	0x2
 12201 064b 1A03     		.2byte	0x31a
 12202 064d 2F060000 		.4byte	0x62f
 12203 0651 0C       		.uleb128 0xc
 12204 0652 01       		.byte	0x1
 12205 0653 02       		.byte	0x2
 12206 0654 2703     		.2byte	0x327
 12207 0656 67060000 		.4byte	0x667
 12208 065a 0A       		.uleb128 0xa
 12209 065b D9160000 		.4byte	.LASF146
 12210 065f 00       		.sleb128 0
 12211 0660 0A       		.uleb128 0xa
 12212 0661 E3060000 		.4byte	.LASF147
 12213 0665 08       		.sleb128 8
 12214 0666 00       		.byte	0
 12215 0667 0B       		.uleb128 0xb
 12216 0668 A7070000 		.4byte	.LASF148
 12217 066c 02       		.byte	0x2
 12218 066d 2A03     		.2byte	0x32a
 12219 066f 51060000 		.4byte	0x651
 12220 0673 0C       		.uleb128 0xc
 12221 0674 01       		.byte	0x1
 12222 0675 02       		.byte	0x2
 12223 0676 3703     		.2byte	0x337
 12224 0678 8A060000 		.4byte	0x68a
 12225 067c 0A       		.uleb128 0xa
 12226 067d EC090000 		.4byte	.LASF149
 12227 0681 00       		.sleb128 0
 12228 0682 0A       		.uleb128 0xa
 12229 0683 890D0000 		.4byte	.LASF150
 12230 0687 C000     		.sleb128 64
 12231 0689 00       		.byte	0
 12232 068a 0B       		.uleb128 0xb
 12233 068b 3B000000 		.4byte	.LASF151
 12234 068f 02       		.byte	0x2
 12235 0690 3A03     		.2byte	0x33a
 12236 0692 73060000 		.4byte	0x673
 12237 0696 0C       		.uleb128 0xc
 12238 0697 01       		.byte	0x1
ARM GAS  /tmp/ccVYwGiK.s 			page 219


 12239 0698 02       		.byte	0x2
 12240 0699 4703     		.2byte	0x347
 12241 069b AD060000 		.4byte	0x6ad
 12242 069f 0A       		.uleb128 0xa
 12243 06a0 F3000000 		.4byte	.LASF152
 12244 06a4 00       		.sleb128 0
 12245 06a5 0A       		.uleb128 0xa
 12246 06a6 D0140000 		.4byte	.LASF153
 12247 06aa 8001     		.sleb128 128
 12248 06ac 00       		.byte	0
 12249 06ad 0B       		.uleb128 0xb
 12250 06ae F9250000 		.4byte	.LASF154
 12251 06b2 02       		.byte	0x2
 12252 06b3 4A03     		.2byte	0x34a
 12253 06b5 96060000 		.4byte	0x696
 12254 06b9 0C       		.uleb128 0xc
 12255 06ba 01       		.byte	0x1
 12256 06bb 02       		.byte	0x2
 12257 06bc 5703     		.2byte	0x357
 12258 06be CF060000 		.4byte	0x6cf
 12259 06c2 0A       		.uleb128 0xa
 12260 06c3 542A0000 		.4byte	.LASF155
 12261 06c7 00       		.sleb128 0
 12262 06c8 0A       		.uleb128 0xa
 12263 06c9 BF030000 		.4byte	.LASF156
 12264 06cd 02       		.sleb128 2
 12265 06ce 00       		.byte	0
 12266 06cf 0B       		.uleb128 0xb
 12267 06d0 330D0000 		.4byte	.LASF157
 12268 06d4 02       		.byte	0x2
 12269 06d5 5A03     		.2byte	0x35a
 12270 06d7 B9060000 		.4byte	0x6b9
 12271 06db 0C       		.uleb128 0xc
 12272 06dc 01       		.byte	0x1
 12273 06dd 02       		.byte	0x2
 12274 06de 6703     		.2byte	0x367
 12275 06e0 F1060000 		.4byte	0x6f1
 12276 06e4 0A       		.uleb128 0xa
 12277 06e5 FE0B0000 		.4byte	.LASF158
 12278 06e9 00       		.sleb128 0
 12279 06ea 0A       		.uleb128 0xa
 12280 06eb 8E230000 		.4byte	.LASF159
 12281 06ef 08       		.sleb128 8
 12282 06f0 00       		.byte	0
 12283 06f1 0B       		.uleb128 0xb
 12284 06f2 DE0A0000 		.4byte	.LASF160
 12285 06f6 02       		.byte	0x2
 12286 06f7 6A03     		.2byte	0x36a
 12287 06f9 DB060000 		.4byte	0x6db
 12288 06fd 0C       		.uleb128 0xc
 12289 06fe 01       		.byte	0x1
 12290 06ff 02       		.byte	0x2
 12291 0700 7703     		.2byte	0x377
 12292 0702 13070000 		.4byte	0x713
 12293 0706 0A       		.uleb128 0xa
 12294 0707 26010000 		.4byte	.LASF161
 12295 070b 00       		.sleb128 0
ARM GAS  /tmp/ccVYwGiK.s 			page 220


 12296 070c 0A       		.uleb128 0xa
 12297 070d EA140000 		.4byte	.LASF162
 12298 0711 10       		.sleb128 16
 12299 0712 00       		.byte	0
 12300 0713 0B       		.uleb128 0xb
 12301 0714 882C0000 		.4byte	.LASF163
 12302 0718 02       		.byte	0x2
 12303 0719 7A03     		.2byte	0x37a
 12304 071b FD060000 		.4byte	0x6fd
 12305 071f 0C       		.uleb128 0xc
 12306 0720 01       		.byte	0x1
 12307 0721 02       		.byte	0x2
 12308 0722 8703     		.2byte	0x387
 12309 0724 35070000 		.4byte	0x735
 12310 0728 0A       		.uleb128 0xa
 12311 0729 F3010000 		.4byte	.LASF164
 12312 072d 00       		.sleb128 0
 12313 072e 0A       		.uleb128 0xa
 12314 072f 10080000 		.4byte	.LASF165
 12315 0733 20       		.sleb128 32
 12316 0734 00       		.byte	0
 12317 0735 0B       		.uleb128 0xb
 12318 0736 D20E0000 		.4byte	.LASF166
 12319 073a 02       		.byte	0x2
 12320 073b 8A03     		.2byte	0x38a
 12321 073d 1F070000 		.4byte	0x71f
 12322 0741 0C       		.uleb128 0xc
 12323 0742 01       		.byte	0x1
 12324 0743 02       		.byte	0x2
 12325 0744 9703     		.2byte	0x397
 12326 0746 58070000 		.4byte	0x758
 12327 074a 0A       		.uleb128 0xa
 12328 074b D0290000 		.4byte	.LASF167
 12329 074f 00       		.sleb128 0
 12330 0750 0A       		.uleb128 0xa
 12331 0751 972D0000 		.4byte	.LASF168
 12332 0755 C000     		.sleb128 64
 12333 0757 00       		.byte	0
 12334 0758 0B       		.uleb128 0xb
 12335 0759 B72E0000 		.4byte	.LASF169
 12336 075d 02       		.byte	0x2
 12337 075e 9A03     		.2byte	0x39a
 12338 0760 41070000 		.4byte	0x741
 12339 0764 0C       		.uleb128 0xc
 12340 0765 01       		.byte	0x1
 12341 0766 02       		.byte	0x2
 12342 0767 A703     		.2byte	0x3a7
 12343 0769 7B070000 		.4byte	0x77b
 12344 076d 0A       		.uleb128 0xa
 12345 076e 27120000 		.4byte	.LASF170
 12346 0772 00       		.sleb128 0
 12347 0773 0A       		.uleb128 0xa
 12348 0774 BF0C0000 		.4byte	.LASF171
 12349 0778 8001     		.sleb128 128
 12350 077a 00       		.byte	0
 12351 077b 0B       		.uleb128 0xb
 12352 077c 2D1A0000 		.4byte	.LASF172
ARM GAS  /tmp/ccVYwGiK.s 			page 221


 12353 0780 02       		.byte	0x2
 12354 0781 AA03     		.2byte	0x3aa
 12355 0783 64070000 		.4byte	0x764
 12356 0787 0C       		.uleb128 0xc
 12357 0788 01       		.byte	0x1
 12358 0789 02       		.byte	0x2
 12359 078a C203     		.2byte	0x3c2
 12360 078c 9D070000 		.4byte	0x79d
 12361 0790 0A       		.uleb128 0xa
 12362 0791 14130000 		.4byte	.LASF173
 12363 0795 00       		.sleb128 0
 12364 0796 0A       		.uleb128 0xa
 12365 0797 F4070000 		.4byte	.LASF174
 12366 079b 01       		.sleb128 1
 12367 079c 00       		.byte	0
 12368 079d 0B       		.uleb128 0xb
 12369 079e 75080000 		.4byte	.LASF175
 12370 07a2 02       		.byte	0x2
 12371 07a3 C503     		.2byte	0x3c5
 12372 07a5 87070000 		.4byte	0x787
 12373 07a9 0C       		.uleb128 0xc
 12374 07aa 01       		.byte	0x1
 12375 07ab 02       		.byte	0x2
 12376 07ac D103     		.2byte	0x3d1
 12377 07ae BF070000 		.4byte	0x7bf
 12378 07b2 0A       		.uleb128 0xa
 12379 07b3 F91E0000 		.4byte	.LASF176
 12380 07b7 00       		.sleb128 0
 12381 07b8 0A       		.uleb128 0xa
 12382 07b9 731E0000 		.4byte	.LASF177
 12383 07bd 02       		.sleb128 2
 12384 07be 00       		.byte	0
 12385 07bf 0B       		.uleb128 0xb
 12386 07c0 B02A0000 		.4byte	.LASF178
 12387 07c4 02       		.byte	0x2
 12388 07c5 D403     		.2byte	0x3d4
 12389 07c7 A9070000 		.4byte	0x7a9
 12390 07cb 0C       		.uleb128 0xc
 12391 07cc 01       		.byte	0x1
 12392 07cd 02       		.byte	0x2
 12393 07ce E003     		.2byte	0x3e0
 12394 07d0 E1070000 		.4byte	0x7e1
 12395 07d4 0A       		.uleb128 0xa
 12396 07d5 76100000 		.4byte	.LASF179
 12397 07d9 00       		.sleb128 0
 12398 07da 0A       		.uleb128 0xa
 12399 07db 53000000 		.4byte	.LASF180
 12400 07df 04       		.sleb128 4
 12401 07e0 00       		.byte	0
 12402 07e1 0B       		.uleb128 0xb
 12403 07e2 1B190000 		.4byte	.LASF181
 12404 07e6 02       		.byte	0x2
 12405 07e7 E303     		.2byte	0x3e3
 12406 07e9 CB070000 		.4byte	0x7cb
 12407 07ed 0C       		.uleb128 0xc
 12408 07ee 01       		.byte	0x1
 12409 07ef 02       		.byte	0x2
ARM GAS  /tmp/ccVYwGiK.s 			page 222


 12410 07f0 EF03     		.2byte	0x3ef
 12411 07f2 03080000 		.4byte	0x803
 12412 07f6 0A       		.uleb128 0xa
 12413 07f7 3B200000 		.4byte	.LASF182
 12414 07fb 00       		.sleb128 0
 12415 07fc 0A       		.uleb128 0xa
 12416 07fd 42040000 		.4byte	.LASF183
 12417 0801 08       		.sleb128 8
 12418 0802 00       		.byte	0
 12419 0803 0B       		.uleb128 0xb
 12420 0804 090B0000 		.4byte	.LASF184
 12421 0808 02       		.byte	0x2
 12422 0809 F203     		.2byte	0x3f2
 12423 080b ED070000 		.4byte	0x7ed
 12424 080f 0C       		.uleb128 0xc
 12425 0810 01       		.byte	0x1
 12426 0811 02       		.byte	0x2
 12427 0812 FE03     		.2byte	0x3fe
 12428 0814 25080000 		.4byte	0x825
 12429 0818 0A       		.uleb128 0xa
 12430 0819 99140000 		.4byte	.LASF185
 12431 081d 00       		.sleb128 0
 12432 081e 0A       		.uleb128 0xa
 12433 081f 25280000 		.4byte	.LASF186
 12434 0823 10       		.sleb128 16
 12435 0824 00       		.byte	0
 12436 0825 0B       		.uleb128 0xb
 12437 0826 C60D0000 		.4byte	.LASF187
 12438 082a 02       		.byte	0x2
 12439 082b 0104     		.2byte	0x401
 12440 082d 0F080000 		.4byte	0x80f
 12441 0831 0C       		.uleb128 0xc
 12442 0832 01       		.byte	0x1
 12443 0833 02       		.byte	0x2
 12444 0834 0D04     		.2byte	0x40d
 12445 0836 47080000 		.4byte	0x847
 12446 083a 0A       		.uleb128 0xa
 12447 083b B6300000 		.4byte	.LASF188
 12448 083f 00       		.sleb128 0
 12449 0840 0A       		.uleb128 0xa
 12450 0841 681B0000 		.4byte	.LASF189
 12451 0845 20       		.sleb128 32
 12452 0846 00       		.byte	0
 12453 0847 0B       		.uleb128 0xb
 12454 0848 6E2F0000 		.4byte	.LASF190
 12455 084c 02       		.byte	0x2
 12456 084d 1004     		.2byte	0x410
 12457 084f 31080000 		.4byte	0x831
 12458 0853 0C       		.uleb128 0xc
 12459 0854 01       		.byte	0x1
 12460 0855 02       		.byte	0x2
 12461 0856 1C04     		.2byte	0x41c
 12462 0858 6A080000 		.4byte	0x86a
 12463 085c 0A       		.uleb128 0xa
 12464 085d 2B100000 		.4byte	.LASF191
 12465 0861 00       		.sleb128 0
 12466 0862 0A       		.uleb128 0xa
ARM GAS  /tmp/ccVYwGiK.s 			page 223


 12467 0863 51130000 		.4byte	.LASF192
 12468 0867 C000     		.sleb128 64
 12469 0869 00       		.byte	0
 12470 086a 0B       		.uleb128 0xb
 12471 086b CE1D0000 		.4byte	.LASF193
 12472 086f 02       		.byte	0x2
 12473 0870 1F04     		.2byte	0x41f
 12474 0872 53080000 		.4byte	0x853
 12475 0876 0C       		.uleb128 0xc
 12476 0877 01       		.byte	0x1
 12477 0878 02       		.byte	0x2
 12478 0879 2B04     		.2byte	0x42b
 12479 087b 8D080000 		.4byte	0x88d
 12480 087f 0A       		.uleb128 0xa
 12481 0880 72280000 		.4byte	.LASF194
 12482 0884 00       		.sleb128 0
 12483 0885 0A       		.uleb128 0xa
 12484 0886 121C0000 		.4byte	.LASF195
 12485 088a 8001     		.sleb128 128
 12486 088c 00       		.byte	0
 12487 088d 0B       		.uleb128 0xb
 12488 088e FD0E0000 		.4byte	.LASF196
 12489 0892 02       		.byte	0x2
 12490 0893 2E04     		.2byte	0x42e
 12491 0895 76080000 		.4byte	0x876
 12492 0899 0C       		.uleb128 0xc
 12493 089a 01       		.byte	0x1
 12494 089b 02       		.byte	0x2
 12495 089c 4504     		.2byte	0x445
 12496 089e AF080000 		.4byte	0x8af
 12497 08a2 0A       		.uleb128 0xa
 12498 08a3 BC0B0000 		.4byte	.LASF197
 12499 08a7 00       		.sleb128 0
 12500 08a8 0A       		.uleb128 0xa
 12501 08a9 DD0B0000 		.4byte	.LASF198
 12502 08ad 20       		.sleb128 32
 12503 08ae 00       		.byte	0
 12504 08af 0B       		.uleb128 0xb
 12505 08b0 4E0B0000 		.4byte	.LASF199
 12506 08b4 02       		.byte	0x2
 12507 08b5 4804     		.2byte	0x448
 12508 08b7 99080000 		.4byte	0x899
 12509 08bb 0C       		.uleb128 0xc
 12510 08bc 01       		.byte	0x1
 12511 08bd 02       		.byte	0x2
 12512 08be 5504     		.2byte	0x455
 12513 08c0 E0080000 		.4byte	0x8e0
 12514 08c4 0A       		.uleb128 0xa
 12515 08c5 C8320000 		.4byte	.LASF200
 12516 08c9 00       		.sleb128 0
 12517 08ca 0A       		.uleb128 0xa
 12518 08cb 6F000000 		.4byte	.LASF201
 12519 08cf C000     		.sleb128 64
 12520 08d1 0A       		.uleb128 0xa
 12521 08d2 431F0000 		.4byte	.LASF202
 12522 08d6 8001     		.sleb128 128
 12523 08d8 0A       		.uleb128 0xa
ARM GAS  /tmp/ccVYwGiK.s 			page 224


 12524 08d9 5D020000 		.4byte	.LASF203
 12525 08dd C001     		.sleb128 192
 12526 08df 00       		.byte	0
 12527 08e0 0B       		.uleb128 0xb
 12528 08e1 94070000 		.4byte	.LASF204
 12529 08e5 02       		.byte	0x2
 12530 08e6 5A04     		.2byte	0x45a
 12531 08e8 BB080000 		.4byte	0x8bb
 12532 08ec 0C       		.uleb128 0xc
 12533 08ed 01       		.byte	0x1
 12534 08ee 02       		.byte	0x2
 12535 08ef 7104     		.2byte	0x471
 12536 08f1 02090000 		.4byte	0x902
 12537 08f5 0A       		.uleb128 0xa
 12538 08f6 0C1E0000 		.4byte	.LASF205
 12539 08fa 00       		.sleb128 0
 12540 08fb 0A       		.uleb128 0xa
 12541 08fc 100E0000 		.4byte	.LASF206
 12542 0900 20       		.sleb128 32
 12543 0901 00       		.byte	0
 12544 0902 0B       		.uleb128 0xb
 12545 0903 0F280000 		.4byte	.LASF207
 12546 0907 02       		.byte	0x2
 12547 0908 7404     		.2byte	0x474
 12548 090a EC080000 		.4byte	0x8ec
 12549 090e 0C       		.uleb128 0xc
 12550 090f 01       		.byte	0x1
 12551 0910 02       		.byte	0x2
 12552 0911 8004     		.2byte	0x480
 12553 0913 25090000 		.4byte	0x925
 12554 0917 0A       		.uleb128 0xa
 12555 0918 D7050000 		.4byte	.LASF208
 12556 091c 00       		.sleb128 0
 12557 091d 0A       		.uleb128 0xa
 12558 091e 88060000 		.4byte	.LASF209
 12559 0922 C000     		.sleb128 64
 12560 0924 00       		.byte	0
 12561 0925 0B       		.uleb128 0xb
 12562 0926 530A0000 		.4byte	.LASF210
 12563 092a 02       		.byte	0x2
 12564 092b 8304     		.2byte	0x483
 12565 092d 0E090000 		.4byte	0x90e
 12566 0931 0C       		.uleb128 0xc
 12567 0932 01       		.byte	0x1
 12568 0933 02       		.byte	0x2
 12569 0934 8F04     		.2byte	0x48f
 12570 0936 48090000 		.4byte	0x948
 12571 093a 0A       		.uleb128 0xa
 12572 093b 83330000 		.4byte	.LASF211
 12573 093f 00       		.sleb128 0
 12574 0940 0A       		.uleb128 0xa
 12575 0941 BC040000 		.4byte	.LASF212
 12576 0945 8001     		.sleb128 128
 12577 0947 00       		.byte	0
 12578 0948 0B       		.uleb128 0xb
 12579 0949 681A0000 		.4byte	.LASF213
 12580 094d 02       		.byte	0x2
ARM GAS  /tmp/ccVYwGiK.s 			page 225


 12581 094e 9204     		.2byte	0x492
 12582 0950 31090000 		.4byte	0x931
 12583 0954 0C       		.uleb128 0xc
 12584 0955 01       		.byte	0x1
 12585 0956 02       		.byte	0x2
 12586 0957 9E04     		.2byte	0x49e
 12587 0959 6A090000 		.4byte	0x96a
 12588 095d 0A       		.uleb128 0xa
 12589 095e 4B2E0000 		.4byte	.LASF214
 12590 0962 00       		.sleb128 0
 12591 0963 0A       		.uleb128 0xa
 12592 0964 45090000 		.4byte	.LASF215
 12593 0968 01       		.sleb128 1
 12594 0969 00       		.byte	0
 12595 096a 0B       		.uleb128 0xb
 12596 096b 62230000 		.4byte	.LASF216
 12597 096f 02       		.byte	0x2
 12598 0970 A104     		.2byte	0x4a1
 12599 0972 54090000 		.4byte	0x954
 12600 0976 0C       		.uleb128 0xc
 12601 0977 01       		.byte	0x1
 12602 0978 02       		.byte	0x2
 12603 0979 B004     		.2byte	0x4b0
 12604 097b 8C090000 		.4byte	0x98c
 12605 097f 0A       		.uleb128 0xa
 12606 0980 262B0000 		.4byte	.LASF217
 12607 0984 00       		.sleb128 0
 12608 0985 0A       		.uleb128 0xa
 12609 0986 6D2C0000 		.4byte	.LASF218
 12610 098a 02       		.sleb128 2
 12611 098b 00       		.byte	0
 12612 098c 0B       		.uleb128 0xb
 12613 098d 70030000 		.4byte	.LASF219
 12614 0991 02       		.byte	0x2
 12615 0992 B304     		.2byte	0x4b3
 12616 0994 76090000 		.4byte	0x976
 12617 0998 0C       		.uleb128 0xc
 12618 0999 01       		.byte	0x1
 12619 099a 02       		.byte	0x2
 12620 099b C204     		.2byte	0x4c2
 12621 099d AE090000 		.4byte	0x9ae
 12622 09a1 0A       		.uleb128 0xa
 12623 09a2 0F100000 		.4byte	.LASF220
 12624 09a6 00       		.sleb128 0
 12625 09a7 0A       		.uleb128 0xa
 12626 09a8 E3120000 		.4byte	.LASF221
 12627 09ac 04       		.sleb128 4
 12628 09ad 00       		.byte	0
 12629 09ae 0B       		.uleb128 0xb
 12630 09af 750B0000 		.4byte	.LASF222
 12631 09b3 02       		.byte	0x2
 12632 09b4 C504     		.2byte	0x4c5
 12633 09b6 98090000 		.4byte	0x998
 12634 09ba 0C       		.uleb128 0xc
 12635 09bb 01       		.byte	0x1
 12636 09bc 02       		.byte	0x2
 12637 09bd D404     		.2byte	0x4d4
ARM GAS  /tmp/ccVYwGiK.s 			page 226


 12638 09bf D0090000 		.4byte	0x9d0
 12639 09c3 0A       		.uleb128 0xa
 12640 09c4 852E0000 		.4byte	.LASF223
 12641 09c8 00       		.sleb128 0
 12642 09c9 0A       		.uleb128 0xa
 12643 09ca 2A090000 		.4byte	.LASF224
 12644 09ce 08       		.sleb128 8
 12645 09cf 00       		.byte	0
 12646 09d0 0B       		.uleb128 0xb
 12647 09d1 B4240000 		.4byte	.LASF225
 12648 09d5 02       		.byte	0x2
 12649 09d6 D704     		.2byte	0x4d7
 12650 09d8 BA090000 		.4byte	0x9ba
 12651 09dc 0C       		.uleb128 0xc
 12652 09dd 01       		.byte	0x1
 12653 09de 02       		.byte	0x2
 12654 09df E604     		.2byte	0x4e6
 12655 09e1 F2090000 		.4byte	0x9f2
 12656 09e5 0A       		.uleb128 0xa
 12657 09e6 172C0000 		.4byte	.LASF226
 12658 09ea 00       		.sleb128 0
 12659 09eb 0A       		.uleb128 0xa
 12660 09ec 31030000 		.4byte	.LASF227
 12661 09f0 10       		.sleb128 16
 12662 09f1 00       		.byte	0
 12663 09f2 0B       		.uleb128 0xb
 12664 09f3 4B2C0000 		.4byte	.LASF228
 12665 09f7 02       		.byte	0x2
 12666 09f8 E904     		.2byte	0x4e9
 12667 09fa DC090000 		.4byte	0x9dc
 12668 09fe 0C       		.uleb128 0xc
 12669 09ff 01       		.byte	0x1
 12670 0a00 02       		.byte	0x2
 12671 0a01 F804     		.2byte	0x4f8
 12672 0a03 140A0000 		.4byte	0xa14
 12673 0a07 0A       		.uleb128 0xa
 12674 0a08 A2160000 		.4byte	.LASF229
 12675 0a0c 00       		.sleb128 0
 12676 0a0d 0A       		.uleb128 0xa
 12677 0a0e BA1A0000 		.4byte	.LASF230
 12678 0a12 20       		.sleb128 32
 12679 0a13 00       		.byte	0
 12680 0a14 0B       		.uleb128 0xb
 12681 0a15 F7110000 		.4byte	.LASF231
 12682 0a19 02       		.byte	0x2
 12683 0a1a FB04     		.2byte	0x4fb
 12684 0a1c FE090000 		.4byte	0x9fe
 12685 0a20 0C       		.uleb128 0xc
 12686 0a21 01       		.byte	0x1
 12687 0a22 02       		.byte	0x2
 12688 0a23 0A05     		.2byte	0x50a
 12689 0a25 370A0000 		.4byte	0xa37
 12690 0a29 0A       		.uleb128 0xa
 12691 0a2a 44140000 		.4byte	.LASF232
 12692 0a2e 00       		.sleb128 0
 12693 0a2f 0A       		.uleb128 0xa
 12694 0a30 C2080000 		.4byte	.LASF233
ARM GAS  /tmp/ccVYwGiK.s 			page 227


 12695 0a34 C000     		.sleb128 64
 12696 0a36 00       		.byte	0
 12697 0a37 0B       		.uleb128 0xb
 12698 0a38 AC0E0000 		.4byte	.LASF234
 12699 0a3c 02       		.byte	0x2
 12700 0a3d 0D05     		.2byte	0x50d
 12701 0a3f 200A0000 		.4byte	0xa20
 12702 0a43 0C       		.uleb128 0xc
 12703 0a44 01       		.byte	0x1
 12704 0a45 02       		.byte	0x2
 12705 0a46 1C05     		.2byte	0x51c
 12706 0a48 5A0A0000 		.4byte	0xa5a
 12707 0a4c 0A       		.uleb128 0xa
 12708 0a4d A22F0000 		.4byte	.LASF235
 12709 0a51 00       		.sleb128 0
 12710 0a52 0A       		.uleb128 0xa
 12711 0a53 0A290000 		.4byte	.LASF236
 12712 0a57 8001     		.sleb128 128
 12713 0a59 00       		.byte	0
 12714 0a5a 0B       		.uleb128 0xb
 12715 0a5b A2300000 		.4byte	.LASF237
 12716 0a5f 02       		.byte	0x2
 12717 0a60 1F05     		.2byte	0x51f
 12718 0a62 430A0000 		.4byte	0xa43
 12719 0a66 0C       		.uleb128 0xc
 12720 0a67 01       		.byte	0x1
 12721 0a68 02       		.byte	0x2
 12722 0a69 2E05     		.2byte	0x52e
 12723 0a6b 7C0A0000 		.4byte	0xa7c
 12724 0a6f 0A       		.uleb128 0xa
 12725 0a70 94210000 		.4byte	.LASF238
 12726 0a74 00       		.sleb128 0
 12727 0a75 0A       		.uleb128 0xa
 12728 0a76 D22A0000 		.4byte	.LASF239
 12729 0a7a 01       		.sleb128 1
 12730 0a7b 00       		.byte	0
 12731 0a7c 0B       		.uleb128 0xb
 12732 0a7d D0060000 		.4byte	.LASF240
 12733 0a81 02       		.byte	0x2
 12734 0a82 3105     		.2byte	0x531
 12735 0a84 660A0000 		.4byte	0xa66
 12736 0a88 0C       		.uleb128 0xc
 12737 0a89 01       		.byte	0x1
 12738 0a8a 02       		.byte	0x2
 12739 0a8b 3E05     		.2byte	0x53e
 12740 0a8d 9E0A0000 		.4byte	0xa9e
 12741 0a91 0A       		.uleb128 0xa
 12742 0a92 4A0F0000 		.4byte	.LASF241
 12743 0a96 00       		.sleb128 0
 12744 0a97 0A       		.uleb128 0xa
 12745 0a98 12330000 		.4byte	.LASF242
 12746 0a9c 02       		.sleb128 2
 12747 0a9d 00       		.byte	0
 12748 0a9e 0B       		.uleb128 0xb
 12749 0a9f 81130000 		.4byte	.LASF243
 12750 0aa3 02       		.byte	0x2
 12751 0aa4 4105     		.2byte	0x541
ARM GAS  /tmp/ccVYwGiK.s 			page 228


 12752 0aa6 880A0000 		.4byte	0xa88
 12753 0aaa 0C       		.uleb128 0xc
 12754 0aab 01       		.byte	0x1
 12755 0aac 02       		.byte	0x2
 12756 0aad 4E05     		.2byte	0x54e
 12757 0aaf C00A0000 		.4byte	0xac0
 12758 0ab3 0A       		.uleb128 0xa
 12759 0ab4 F90F0000 		.4byte	.LASF244
 12760 0ab8 00       		.sleb128 0
 12761 0ab9 0A       		.uleb128 0xa
 12762 0aba 80210000 		.4byte	.LASF245
 12763 0abe 04       		.sleb128 4
 12764 0abf 00       		.byte	0
 12765 0ac0 0B       		.uleb128 0xb
 12766 0ac1 04250000 		.4byte	.LASF246
 12767 0ac5 02       		.byte	0x2
 12768 0ac6 5105     		.2byte	0x551
 12769 0ac8 AA0A0000 		.4byte	0xaaa
 12770 0acc 0C       		.uleb128 0xc
 12771 0acd 01       		.byte	0x1
 12772 0ace 02       		.byte	0x2
 12773 0acf 5E05     		.2byte	0x55e
 12774 0ad1 E20A0000 		.4byte	0xae2
 12775 0ad5 0A       		.uleb128 0xa
 12776 0ad6 392D0000 		.4byte	.LASF247
 12777 0ada 00       		.sleb128 0
 12778 0adb 0A       		.uleb128 0xa
 12779 0adc 80110000 		.4byte	.LASF248
 12780 0ae0 08       		.sleb128 8
 12781 0ae1 00       		.byte	0
 12782 0ae2 0B       		.uleb128 0xb
 12783 0ae3 43060000 		.4byte	.LASF249
 12784 0ae7 02       		.byte	0x2
 12785 0ae8 6105     		.2byte	0x561
 12786 0aea CC0A0000 		.4byte	0xacc
 12787 0aee 0C       		.uleb128 0xc
 12788 0aef 01       		.byte	0x1
 12789 0af0 02       		.byte	0x2
 12790 0af1 6E05     		.2byte	0x56e
 12791 0af3 040B0000 		.4byte	0xb04
 12792 0af7 0A       		.uleb128 0xa
 12793 0af8 C92D0000 		.4byte	.LASF250
 12794 0afc 00       		.sleb128 0
 12795 0afd 0A       		.uleb128 0xa
 12796 0afe 53330000 		.4byte	.LASF251
 12797 0b02 10       		.sleb128 16
 12798 0b03 00       		.byte	0
 12799 0b04 0B       		.uleb128 0xb
 12800 0b05 EA0E0000 		.4byte	.LASF252
 12801 0b09 02       		.byte	0x2
 12802 0b0a 7105     		.2byte	0x571
 12803 0b0c EE0A0000 		.4byte	0xaee
 12804 0b10 0C       		.uleb128 0xc
 12805 0b11 01       		.byte	0x1
 12806 0b12 02       		.byte	0x2
 12807 0b13 7E05     		.2byte	0x57e
 12808 0b15 260B0000 		.4byte	0xb26
ARM GAS  /tmp/ccVYwGiK.s 			page 229


 12809 0b19 0A       		.uleb128 0xa
 12810 0b1a 20290000 		.4byte	.LASF253
 12811 0b1e 00       		.sleb128 0
 12812 0b1f 0A       		.uleb128 0xa
 12813 0b20 1F0B0000 		.4byte	.LASF254
 12814 0b24 20       		.sleb128 32
 12815 0b25 00       		.byte	0
 12816 0b26 0B       		.uleb128 0xb
 12817 0b27 332C0000 		.4byte	.LASF255
 12818 0b2b 02       		.byte	0x2
 12819 0b2c 8105     		.2byte	0x581
 12820 0b2e 100B0000 		.4byte	0xb10
 12821 0b32 0C       		.uleb128 0xc
 12822 0b33 01       		.byte	0x1
 12823 0b34 02       		.byte	0x2
 12824 0b35 8E05     		.2byte	0x58e
 12825 0b37 490B0000 		.4byte	0xb49
 12826 0b3b 0A       		.uleb128 0xa
 12827 0b3c E5230000 		.4byte	.LASF256
 12828 0b40 00       		.sleb128 0
 12829 0b41 0A       		.uleb128 0xa
 12830 0b42 B52D0000 		.4byte	.LASF257
 12831 0b46 C000     		.sleb128 64
 12832 0b48 00       		.byte	0
 12833 0b49 0B       		.uleb128 0xb
 12834 0b4a 0B180000 		.4byte	.LASF258
 12835 0b4e 02       		.byte	0x2
 12836 0b4f 9105     		.2byte	0x591
 12837 0b51 320B0000 		.4byte	0xb32
 12838 0b55 0C       		.uleb128 0xc
 12839 0b56 01       		.byte	0x1
 12840 0b57 02       		.byte	0x2
 12841 0b58 B805     		.2byte	0x5b8
 12842 0b5a 6B0B0000 		.4byte	0xb6b
 12843 0b5e 0A       		.uleb128 0xa
 12844 0b5f 500C0000 		.4byte	.LASF259
 12845 0b63 00       		.sleb128 0
 12846 0b64 0A       		.uleb128 0xa
 12847 0b65 9E1B0000 		.4byte	.LASF260
 12848 0b69 01       		.sleb128 1
 12849 0b6a 00       		.byte	0
 12850 0b6b 0B       		.uleb128 0xb
 12851 0b6c EC2F0000 		.4byte	.LASF261
 12852 0b70 02       		.byte	0x2
 12853 0b71 BB05     		.2byte	0x5bb
 12854 0b73 550B0000 		.4byte	0xb55
 12855 0b77 0C       		.uleb128 0xc
 12856 0b78 01       		.byte	0x1
 12857 0b79 02       		.byte	0x2
 12858 0b7a C805     		.2byte	0x5c8
 12859 0b7c 8D0B0000 		.4byte	0xb8d
 12860 0b80 0A       		.uleb128 0xa
 12861 0b81 CA1F0000 		.4byte	.LASF262
 12862 0b85 00       		.sleb128 0
 12863 0b86 0A       		.uleb128 0xa
 12864 0b87 8A0B0000 		.4byte	.LASF263
 12865 0b8b 02       		.sleb128 2
ARM GAS  /tmp/ccVYwGiK.s 			page 230


 12866 0b8c 00       		.byte	0
 12867 0b8d 0B       		.uleb128 0xb
 12868 0b8e 6D320000 		.4byte	.LASF264
 12869 0b92 02       		.byte	0x2
 12870 0b93 CB05     		.2byte	0x5cb
 12871 0b95 770B0000 		.4byte	0xb77
 12872 0b99 0C       		.uleb128 0xc
 12873 0b9a 01       		.byte	0x1
 12874 0b9b 02       		.byte	0x2
 12875 0b9c D805     		.2byte	0x5d8
 12876 0b9e AF0B0000 		.4byte	0xbaf
 12877 0ba2 0A       		.uleb128 0xa
 12878 0ba3 26330000 		.4byte	.LASF265
 12879 0ba7 00       		.sleb128 0
 12880 0ba8 0A       		.uleb128 0xa
 12881 0ba9 48270000 		.4byte	.LASF266
 12882 0bad 04       		.sleb128 4
 12883 0bae 00       		.byte	0
 12884 0baf 0B       		.uleb128 0xb
 12885 0bb0 F3300000 		.4byte	.LASF267
 12886 0bb4 02       		.byte	0x2
 12887 0bb5 DB05     		.2byte	0x5db
 12888 0bb7 990B0000 		.4byte	0xb99
 12889 0bbb 0C       		.uleb128 0xc
 12890 0bbc 01       		.byte	0x1
 12891 0bbd 02       		.byte	0x2
 12892 0bbe E805     		.2byte	0x5e8
 12893 0bc0 D10B0000 		.4byte	0xbd1
 12894 0bc4 0A       		.uleb128 0xa
 12895 0bc5 E6180000 		.4byte	.LASF268
 12896 0bc9 00       		.sleb128 0
 12897 0bca 0A       		.uleb128 0xa
 12898 0bcb D9170000 		.4byte	.LASF269
 12899 0bcf 08       		.sleb128 8
 12900 0bd0 00       		.byte	0
 12901 0bd1 0B       		.uleb128 0xb
 12902 0bd2 482F0000 		.4byte	.LASF270
 12903 0bd6 02       		.byte	0x2
 12904 0bd7 EB05     		.2byte	0x5eb
 12905 0bd9 BB0B0000 		.4byte	0xbbb
 12906 0bdd 0C       		.uleb128 0xc
 12907 0bde 01       		.byte	0x1
 12908 0bdf 02       		.byte	0x2
 12909 0be0 F805     		.2byte	0x5f8
 12910 0be2 F30B0000 		.4byte	0xbf3
 12911 0be6 0A       		.uleb128 0xa
 12912 0be7 36220000 		.4byte	.LASF271
 12913 0beb 00       		.sleb128 0
 12914 0bec 0A       		.uleb128 0xa
 12915 0bed E0320000 		.4byte	.LASF272
 12916 0bf1 10       		.sleb128 16
 12917 0bf2 00       		.byte	0
 12918 0bf3 0B       		.uleb128 0xb
 12919 0bf4 B4220000 		.4byte	.LASF273
 12920 0bf8 02       		.byte	0x2
 12921 0bf9 FB05     		.2byte	0x5fb
 12922 0bfb DD0B0000 		.4byte	0xbdd
ARM GAS  /tmp/ccVYwGiK.s 			page 231


 12923 0bff 0C       		.uleb128 0xc
 12924 0c00 01       		.byte	0x1
 12925 0c01 02       		.byte	0x2
 12926 0c02 0806     		.2byte	0x608
 12927 0c04 150C0000 		.4byte	0xc15
 12928 0c08 0A       		.uleb128 0xa
 12929 0c09 09110000 		.4byte	.LASF274
 12930 0c0d 00       		.sleb128 0
 12931 0c0e 0A       		.uleb128 0xa
 12932 0c0f 1E230000 		.4byte	.LASF275
 12933 0c13 20       		.sleb128 32
 12934 0c14 00       		.byte	0
 12935 0c15 0B       		.uleb128 0xb
 12936 0c16 C4050000 		.4byte	.LASF276
 12937 0c1a 02       		.byte	0x2
 12938 0c1b 0B06     		.2byte	0x60b
 12939 0c1d FF0B0000 		.4byte	0xbff
 12940 0c21 0C       		.uleb128 0xc
 12941 0c22 01       		.byte	0x1
 12942 0c23 02       		.byte	0x2
 12943 0c24 1806     		.2byte	0x618
 12944 0c26 370C0000 		.4byte	0xc37
 12945 0c2a 0A       		.uleb128 0xa
 12946 0c2b 5E1E0000 		.4byte	.LASF277
 12947 0c2f 00       		.sleb128 0
 12948 0c30 0A       		.uleb128 0xa
 12949 0c31 40330000 		.4byte	.LASF278
 12950 0c35 01       		.sleb128 1
 12951 0c36 00       		.byte	0
 12952 0c37 0B       		.uleb128 0xb
 12953 0c38 E7250000 		.4byte	.LASF279
 12954 0c3c 02       		.byte	0x2
 12955 0c3d 1B06     		.2byte	0x61b
 12956 0c3f 210C0000 		.4byte	0xc21
 12957 0c43 0C       		.uleb128 0xc
 12958 0c44 01       		.byte	0x1
 12959 0c45 02       		.byte	0x2
 12960 0c46 2706     		.2byte	0x627
 12961 0c48 590C0000 		.4byte	0xc59
 12962 0c4c 0A       		.uleb128 0xa
 12963 0c4d 390B0000 		.4byte	.LASF280
 12964 0c51 00       		.sleb128 0
 12965 0c52 0A       		.uleb128 0xa
 12966 0c53 E21D0000 		.4byte	.LASF281
 12967 0c57 02       		.sleb128 2
 12968 0c58 00       		.byte	0
 12969 0c59 0B       		.uleb128 0xb
 12970 0c5a 11060000 		.4byte	.LASF282
 12971 0c5e 02       		.byte	0x2
 12972 0c5f 2A06     		.2byte	0x62a
 12973 0c61 430C0000 		.4byte	0xc43
 12974 0c65 0C       		.uleb128 0xc
 12975 0c66 01       		.byte	0x1
 12976 0c67 02       		.byte	0x2
 12977 0c68 3606     		.2byte	0x636
 12978 0c6a 7B0C0000 		.4byte	0xc7b
 12979 0c6e 0A       		.uleb128 0xa
ARM GAS  /tmp/ccVYwGiK.s 			page 232


 12980 0c6f 43260000 		.4byte	.LASF283
 12981 0c73 00       		.sleb128 0
 12982 0c74 0A       		.uleb128 0xa
 12983 0c75 BD060000 		.4byte	.LASF284
 12984 0c79 04       		.sleb128 4
 12985 0c7a 00       		.byte	0
 12986 0c7b 0B       		.uleb128 0xb
 12987 0c7c B71B0000 		.4byte	.LASF285
 12988 0c80 02       		.byte	0x2
 12989 0c81 3906     		.2byte	0x639
 12990 0c83 650C0000 		.4byte	0xc65
 12991 0c87 0C       		.uleb128 0xc
 12992 0c88 01       		.byte	0x1
 12993 0c89 02       		.byte	0x2
 12994 0c8a 4506     		.2byte	0x645
 12995 0c8c 9D0C0000 		.4byte	0xc9d
 12996 0c90 0A       		.uleb128 0xa
 12997 0c91 67330000 		.4byte	.LASF286
 12998 0c95 00       		.sleb128 0
 12999 0c96 0A       		.uleb128 0xa
 13000 0c97 6D0D0000 		.4byte	.LASF287
 13001 0c9b 08       		.sleb128 8
 13002 0c9c 00       		.byte	0
 13003 0c9d 0B       		.uleb128 0xb
 13004 0c9e 901C0000 		.4byte	.LASF288
 13005 0ca2 02       		.byte	0x2
 13006 0ca3 4806     		.2byte	0x648
 13007 0ca5 870C0000 		.4byte	0xc87
 13008 0ca9 0C       		.uleb128 0xc
 13009 0caa 01       		.byte	0x1
 13010 0cab 02       		.byte	0x2
 13011 0cac 5406     		.2byte	0x654
 13012 0cae BF0C0000 		.4byte	0xcbf
 13013 0cb2 0A       		.uleb128 0xa
 13014 0cb3 6A060000 		.4byte	.LASF289
 13015 0cb7 00       		.sleb128 0
 13016 0cb8 0A       		.uleb128 0xa
 13017 0cb9 A22B0000 		.4byte	.LASF290
 13018 0cbd 10       		.sleb128 16
 13019 0cbe 00       		.byte	0
 13020 0cbf 0B       		.uleb128 0xb
 13021 0cc0 A51C0000 		.4byte	.LASF291
 13022 0cc4 02       		.byte	0x2
 13023 0cc5 5706     		.2byte	0x657
 13024 0cc7 A90C0000 		.4byte	0xca9
 13025 0ccb 0C       		.uleb128 0xc
 13026 0ccc 01       		.byte	0x1
 13027 0ccd 02       		.byte	0x2
 13028 0cce 6306     		.2byte	0x663
 13029 0cd0 E10C0000 		.4byte	0xce1
 13030 0cd4 0A       		.uleb128 0xa
 13031 0cd5 D6310000 		.4byte	.LASF292
 13032 0cd9 00       		.sleb128 0
 13033 0cda 0A       		.uleb128 0xa
 13034 0cdb A2030000 		.4byte	.LASF293
 13035 0cdf 20       		.sleb128 32
 13036 0ce0 00       		.byte	0
ARM GAS  /tmp/ccVYwGiK.s 			page 233


 13037 0ce1 0B       		.uleb128 0xb
 13038 0ce2 FA050000 		.4byte	.LASF294
 13039 0ce6 02       		.byte	0x2
 13040 0ce7 6606     		.2byte	0x666
 13041 0ce9 CB0C0000 		.4byte	0xccb
 13042 0ced 0C       		.uleb128 0xc
 13043 0cee 01       		.byte	0x1
 13044 0cef 02       		.byte	0x2
 13045 0cf0 7206     		.2byte	0x672
 13046 0cf2 040D0000 		.4byte	0xd04
 13047 0cf6 0A       		.uleb128 0xa
 13048 0cf7 340C0000 		.4byte	.LASF295
 13049 0cfb 00       		.sleb128 0
 13050 0cfc 0A       		.uleb128 0xa
 13051 0cfd 7A070000 		.4byte	.LASF296
 13052 0d01 C000     		.sleb128 64
 13053 0d03 00       		.byte	0
 13054 0d04 0B       		.uleb128 0xb
 13055 0d05 36290000 		.4byte	.LASF297
 13056 0d09 02       		.byte	0x2
 13057 0d0a 7506     		.2byte	0x675
 13058 0d0c ED0C0000 		.4byte	0xced
 13059 0d10 0D       		.uleb128 0xd
 13060 0d11 43190000 		.4byte	.LASF300
 13061 0d15 01       		.byte	0x1
 13062 0d16 42       		.byte	0x42
 13063 0d17 F2000000 		.4byte	0xf2
 13064 0d1b 00000000 		.4byte	.LFB0
 13065 0d1f 38000000 		.4byte	.LFE0-.LFB0
 13066 0d23 01       		.uleb128 0x1
 13067 0d24 9C       		.byte	0x9c
 13068 0d25 620D0000 		.4byte	0xd62
 13069 0d29 0E       		.uleb128 0xe
 13070 0d2a 5B1F0000 		.4byte	.LASF298
 13071 0d2e 01       		.byte	0x1
 13072 0d2f 42       		.byte	0x42
 13073 0d30 620D0000 		.4byte	0xd62
 13074 0d34 02       		.uleb128 0x2
 13075 0d35 91       		.byte	0x91
 13076 0d36 74       		.sleb128 -12
 13077 0d37 0F       		.uleb128 0xf
 13078 0d38 52656700 		.ascii	"Reg\000"
 13079 0d3c 01       		.byte	0x1
 13080 0d3d 42       		.byte	0x42
 13081 0d3e 6B000000 		.4byte	0x6b
 13082 0d42 02       		.uleb128 0x2
 13083 0d43 91       		.byte	0x91
 13084 0d44 73       		.sleb128 -13
 13085 0d45 0E       		.uleb128 0xe
 13086 0d46 462C0000 		.4byte	.LASF299
 13087 0d4a 01       		.byte	0x1
 13088 0d4b 42       		.byte	0x42
 13089 0d4c 640D0000 		.4byte	0xd64
 13090 0d50 02       		.uleb128 0x2
 13091 0d51 91       		.byte	0x91
 13092 0d52 6C       		.sleb128 -20
 13093 0d53 0F       		.uleb128 0xf
ARM GAS  /tmp/ccVYwGiK.s 			page 234


 13094 0d54 6C656E00 		.ascii	"len\000"
 13095 0d58 01       		.byte	0x1
 13096 0d59 42       		.byte	0x42
 13097 0d5a 76000000 		.4byte	0x76
 13098 0d5e 02       		.uleb128 0x2
 13099 0d5f 91       		.byte	0x91
 13100 0d60 70       		.sleb128 -16
 13101 0d61 00       		.byte	0
 13102 0d62 10       		.uleb128 0x10
 13103 0d63 04       		.byte	0x4
 13104 0d64 11       		.uleb128 0x11
 13105 0d65 04       		.byte	0x4
 13106 0d66 6B000000 		.4byte	0x6b
 13107 0d6a 0D       		.uleb128 0xd
 13108 0d6b 6B130000 		.4byte	.LASF301
 13109 0d6f 01       		.byte	0x1
 13110 0d70 58       		.byte	0x58
 13111 0d71 F2000000 		.4byte	0xf2
 13112 0d75 40000000 		.4byte	.LFB1
 13113 0d79 38000000 		.4byte	.LFE1-.LFB1
 13114 0d7d 01       		.uleb128 0x1
 13115 0d7e 9C       		.byte	0x9c
 13116 0d7f BC0D0000 		.4byte	0xdbc
 13117 0d83 0E       		.uleb128 0xe
 13118 0d84 5B1F0000 		.4byte	.LASF298
 13119 0d88 01       		.byte	0x1
 13120 0d89 58       		.byte	0x58
 13121 0d8a 620D0000 		.4byte	0xd62
 13122 0d8e 02       		.uleb128 0x2
 13123 0d8f 91       		.byte	0x91
 13124 0d90 74       		.sleb128 -12
 13125 0d91 0F       		.uleb128 0xf
 13126 0d92 52656700 		.ascii	"Reg\000"
 13127 0d96 01       		.byte	0x1
 13128 0d97 58       		.byte	0x58
 13129 0d98 6B000000 		.4byte	0x6b
 13130 0d9c 02       		.uleb128 0x2
 13131 0d9d 91       		.byte	0x91
 13132 0d9e 73       		.sleb128 -13
 13133 0d9f 0E       		.uleb128 0xe
 13134 0da0 462C0000 		.4byte	.LASF299
 13135 0da4 01       		.byte	0x1
 13136 0da5 58       		.byte	0x58
 13137 0da6 640D0000 		.4byte	0xd64
 13138 0daa 02       		.uleb128 0x2
 13139 0dab 91       		.byte	0x91
 13140 0dac 6C       		.sleb128 -20
 13141 0dad 0F       		.uleb128 0xf
 13142 0dae 6C656E00 		.ascii	"len\000"
 13143 0db2 01       		.byte	0x1
 13144 0db3 58       		.byte	0x58
 13145 0db4 76000000 		.4byte	0x76
 13146 0db8 02       		.uleb128 0x2
 13147 0db9 91       		.byte	0x91
 13148 0dba 70       		.sleb128 -16
 13149 0dbb 00       		.byte	0
 13150 0dbc 0D       		.uleb128 0xd
ARM GAS  /tmp/ccVYwGiK.s 			page 235


 13151 0dbd F9160000 		.4byte	.LASF302
 13152 0dc1 01       		.byte	0x1
 13153 0dc2 6E       		.byte	0x6e
 13154 0dc3 F2000000 		.4byte	0xf2
 13155 0dc7 80000000 		.4byte	.LFB2
 13156 0dcb 38000000 		.4byte	.LFE2-.LFB2
 13157 0dcf 01       		.uleb128 0x1
 13158 0dd0 9C       		.byte	0x9c
 13159 0dd1 F20D0000 		.4byte	0xdf2
 13160 0dd5 0E       		.uleb128 0xe
 13161 0dd6 5B1F0000 		.4byte	.LASF298
 13162 0dda 01       		.byte	0x1
 13163 0ddb 6E       		.byte	0x6e
 13164 0ddc 620D0000 		.4byte	0xd62
 13165 0de0 02       		.uleb128 0x2
 13166 0de1 91       		.byte	0x91
 13167 0de2 74       		.sleb128 -12
 13168 0de3 0E       		.uleb128 0xe
 13169 0de4 A60E0000 		.4byte	.LASF303
 13170 0de8 01       		.byte	0x1
 13171 0de9 6E       		.byte	0x6e
 13172 0dea 640D0000 		.4byte	0xd64
 13173 0dee 02       		.uleb128 0x2
 13174 0def 91       		.byte	0x91
 13175 0df0 70       		.sleb128 -16
 13176 0df1 00       		.byte	0
 13177 0df2 0D       		.uleb128 0xd
 13178 0df3 23060000 		.4byte	.LASF304
 13179 0df7 01       		.byte	0x1
 13180 0df8 80       		.byte	0x80
 13181 0df9 F2000000 		.4byte	0xf2
 13182 0dfd C0000000 		.4byte	.LFB3
 13183 0e01 68000000 		.4byte	.LFE3-.LFB3
 13184 0e05 01       		.uleb128 0x1
 13185 0e06 9C       		.byte	0x9c
 13186 0e07 360E0000 		.4byte	0xe36
 13187 0e0b 0E       		.uleb128 0xe
 13188 0e0c 5B1F0000 		.4byte	.LASF298
 13189 0e10 01       		.byte	0x1
 13190 0e11 80       		.byte	0x80
 13191 0e12 620D0000 		.4byte	0xd62
 13192 0e16 02       		.uleb128 0x2
 13193 0e17 91       		.byte	0x91
 13194 0e18 6C       		.sleb128 -20
 13195 0e19 0E       		.uleb128 0xe
 13196 0e1a 600F0000 		.4byte	.LASF305
 13197 0e1e 01       		.byte	0x1
 13198 0e1f 80       		.byte	0x80
 13199 0e20 13010000 		.4byte	0x113
 13200 0e24 02       		.uleb128 0x2
 13201 0e25 91       		.byte	0x91
 13202 0e26 6B       		.sleb128 -21
 13203 0e27 12       		.uleb128 0x12
 13204 0e28 A60E0000 		.4byte	.LASF303
 13205 0e2c 01       		.byte	0x1
 13206 0e2d 82       		.byte	0x82
 13207 0e2e 6B000000 		.4byte	0x6b
ARM GAS  /tmp/ccVYwGiK.s 			page 236


 13208 0e32 02       		.uleb128 0x2
 13209 0e33 91       		.byte	0x91
 13210 0e34 77       		.sleb128 -9
 13211 0e35 00       		.byte	0
 13212 0e36 0D       		.uleb128 0xd
 13213 0e37 DD190000 		.4byte	.LASF306
 13214 0e3b 01       		.byte	0x1
 13215 0e3c 97       		.byte	0x97
 13216 0e3d F2000000 		.4byte	0xf2
 13217 0e41 30010000 		.4byte	.LFB4
 13218 0e45 36000000 		.4byte	.LFE4-.LFB4
 13219 0e49 01       		.uleb128 0x1
 13220 0e4a 9C       		.byte	0x9c
 13221 0e4b 6C0E0000 		.4byte	0xe6c
 13222 0e4f 0E       		.uleb128 0xe
 13223 0e50 5B1F0000 		.4byte	.LASF298
 13224 0e54 01       		.byte	0x1
 13225 0e55 97       		.byte	0x97
 13226 0e56 620D0000 		.4byte	0xd62
 13227 0e5a 02       		.uleb128 0x2
 13228 0e5b 91       		.byte	0x91
 13229 0e5c 74       		.sleb128 -12
 13230 0e5d 0E       		.uleb128 0xe
 13231 0e5e A60E0000 		.4byte	.LASF303
 13232 0e62 01       		.byte	0x1
 13233 0e63 97       		.byte	0x97
 13234 0e64 6C0E0000 		.4byte	0xe6c
 13235 0e68 02       		.uleb128 0x2
 13236 0e69 91       		.byte	0x91
 13237 0e6a 70       		.sleb128 -16
 13238 0e6b 00       		.byte	0
 13239 0e6c 11       		.uleb128 0x11
 13240 0e6d 04       		.byte	0x4
 13241 0e6e 13010000 		.4byte	0x113
 13242 0e72 0D       		.uleb128 0xd
 13243 0e73 2C050000 		.4byte	.LASF307
 13244 0e77 01       		.byte	0x1
 13245 0e78 A8       		.byte	0xa8
 13246 0e79 F2000000 		.4byte	0xf2
 13247 0e7d 70010000 		.4byte	.LFB5
 13248 0e81 68000000 		.4byte	.LFE5-.LFB5
 13249 0e85 01       		.uleb128 0x1
 13250 0e86 9C       		.byte	0x9c
 13251 0e87 B60E0000 		.4byte	0xeb6
 13252 0e8b 0E       		.uleb128 0xe
 13253 0e8c 5B1F0000 		.4byte	.LASF298
 13254 0e90 01       		.byte	0x1
 13255 0e91 A8       		.byte	0xa8
 13256 0e92 620D0000 		.4byte	0xd62
 13257 0e96 02       		.uleb128 0x2
 13258 0e97 91       		.byte	0x91
 13259 0e98 6C       		.sleb128 -20
 13260 0e99 0E       		.uleb128 0xe
 13261 0e9a 600F0000 		.4byte	.LASF305
 13262 0e9e 01       		.byte	0x1
 13263 0e9f A8       		.byte	0xa8
 13264 0ea0 3F010000 		.4byte	0x13f
ARM GAS  /tmp/ccVYwGiK.s 			page 237


 13265 0ea4 02       		.uleb128 0x2
 13266 0ea5 91       		.byte	0x91
 13267 0ea6 6B       		.sleb128 -21
 13268 0ea7 12       		.uleb128 0x12
 13269 0ea8 A60E0000 		.4byte	.LASF303
 13270 0eac 01       		.byte	0x1
 13271 0ead AA       		.byte	0xaa
 13272 0eae 6B000000 		.4byte	0x6b
 13273 0eb2 02       		.uleb128 0x2
 13274 0eb3 91       		.byte	0x91
 13275 0eb4 77       		.sleb128 -9
 13276 0eb5 00       		.byte	0
 13277 0eb6 0D       		.uleb128 0xd
 13278 0eb7 66210000 		.4byte	.LASF308
 13279 0ebb 01       		.byte	0x1
 13280 0ebc BF       		.byte	0xbf
 13281 0ebd F2000000 		.4byte	0xf2
 13282 0ec1 E0010000 		.4byte	.LFB6
 13283 0ec5 36000000 		.4byte	.LFE6-.LFB6
 13284 0ec9 01       		.uleb128 0x1
 13285 0eca 9C       		.byte	0x9c
 13286 0ecb EC0E0000 		.4byte	0xeec
 13287 0ecf 0E       		.uleb128 0xe
 13288 0ed0 5B1F0000 		.4byte	.LASF298
 13289 0ed4 01       		.byte	0x1
 13290 0ed5 BF       		.byte	0xbf
 13291 0ed6 620D0000 		.4byte	0xd62
 13292 0eda 02       		.uleb128 0x2
 13293 0edb 91       		.byte	0x91
 13294 0edc 74       		.sleb128 -12
 13295 0edd 0E       		.uleb128 0xe
 13296 0ede A60E0000 		.4byte	.LASF303
 13297 0ee2 01       		.byte	0x1
 13298 0ee3 BF       		.byte	0xbf
 13299 0ee4 EC0E0000 		.4byte	0xeec
 13300 0ee8 02       		.uleb128 0x2
 13301 0ee9 91       		.byte	0x91
 13302 0eea 70       		.sleb128 -16
 13303 0eeb 00       		.byte	0
 13304 0eec 11       		.uleb128 0x11
 13305 0eed 04       		.byte	0x4
 13306 0eee 3F010000 		.4byte	0x13f
 13307 0ef2 0D       		.uleb128 0xd
 13308 0ef3 4B150000 		.4byte	.LASF309
 13309 0ef7 01       		.byte	0x1
 13310 0ef8 D0       		.byte	0xd0
 13311 0ef9 F2000000 		.4byte	0xf2
 13312 0efd 20020000 		.4byte	.LFB7
 13313 0f01 28000000 		.4byte	.LFE7-.LFB7
 13314 0f05 01       		.uleb128 0x1
 13315 0f06 9C       		.byte	0x9c
 13316 0f07 280F0000 		.4byte	0xf28
 13317 0f0b 0E       		.uleb128 0xe
 13318 0f0c 5B1F0000 		.4byte	.LASF298
 13319 0f10 01       		.byte	0x1
 13320 0f11 D0       		.byte	0xd0
 13321 0f12 620D0000 		.4byte	0xd62
ARM GAS  /tmp/ccVYwGiK.s 			page 238


 13322 0f16 02       		.uleb128 0x2
 13323 0f17 91       		.byte	0x91
 13324 0f18 74       		.sleb128 -12
 13325 0f19 0E       		.uleb128 0xe
 13326 0f1a 2C0F0000 		.4byte	.LASF310
 13327 0f1e 01       		.byte	0x1
 13328 0f1f D0       		.byte	0xd0
 13329 0f20 640D0000 		.4byte	0xd64
 13330 0f24 02       		.uleb128 0x2
 13331 0f25 91       		.byte	0x91
 13332 0f26 70       		.sleb128 -16
 13333 0f27 00       		.byte	0
 13334 0f28 0D       		.uleb128 0xd
 13335 0f29 50220000 		.4byte	.LASF311
 13336 0f2d 01       		.byte	0x1
 13337 0f2e FD       		.byte	0xfd
 13338 0f2f F2000000 		.4byte	0xf2
 13339 0f33 50020000 		.4byte	.LFB8
 13340 0f37 0C020000 		.4byte	.LFE8-.LFB8
 13341 0f3b 01       		.uleb128 0x1
 13342 0f3c 9C       		.byte	0x9c
 13343 0f3d C30F0000 		.4byte	0xfc3
 13344 0f41 0E       		.uleb128 0xe
 13345 0f42 5B1F0000 		.4byte	.LASF298
 13346 0f46 01       		.byte	0x1
 13347 0f47 FD       		.byte	0xfd
 13348 0f48 620D0000 		.4byte	0xd62
 13349 0f4c 02       		.uleb128 0x2
 13350 0f4d 91       		.byte	0x91
 13351 0f4e 5C       		.sleb128 -36
 13352 0f4f 0E       		.uleb128 0xe
 13353 0f50 2C0F0000 		.4byte	.LASF310
 13354 0f54 01       		.byte	0x1
 13355 0f55 FD       		.byte	0xfd
 13356 0f56 C30F0000 		.4byte	0xfc3
 13357 0f5a 02       		.uleb128 0x2
 13358 0f5b 91       		.byte	0x91
 13359 0f5c 58       		.sleb128 -40
 13360 0f5d 12       		.uleb128 0x12
 13361 0f5e 79270000 		.4byte	.LASF312
 13362 0f62 01       		.byte	0x1
 13363 0f63 FF       		.byte	0xff
 13364 0f64 D2000000 		.4byte	0xd2
 13365 0f68 02       		.uleb128 0x2
 13366 0f69 91       		.byte	0x91
 13367 0f6a 64       		.sleb128 -28
 13368 0f6b 13       		.uleb128 0x13
 13369 0f6c 5E210000 		.4byte	.LASF313
 13370 0f70 01       		.byte	0x1
 13371 0f71 0001     		.2byte	0x100
 13372 0f73 6B000000 		.4byte	0x6b
 13373 0f77 02       		.uleb128 0x2
 13374 0f78 91       		.byte	0x91
 13375 0f79 6F       		.sleb128 -17
 13376 0f7a 13       		.uleb128 0x13
 13377 0f7b 15200000 		.4byte	.LASF314
 13378 0f7f 01       		.byte	0x1
ARM GAS  /tmp/ccVYwGiK.s 			page 239


 13379 0f80 0001     		.2byte	0x100
 13380 0f82 6B000000 		.4byte	0x6b
 13381 0f86 02       		.uleb128 0x2
 13382 0f87 91       		.byte	0x91
 13383 0f88 6E       		.sleb128 -18
 13384 0f89 13       		.uleb128 0x13
 13385 0f8a 330B0000 		.4byte	.LASF315
 13386 0f8e 01       		.byte	0x1
 13387 0f8f 0001     		.2byte	0x100
 13388 0f91 6B000000 		.4byte	0x6b
 13389 0f95 02       		.uleb128 0x2
 13390 0f96 91       		.byte	0x91
 13391 0f97 6D       		.sleb128 -19
 13392 0f98 14       		.uleb128 0x14
 13393 0f99 6C7000   		.ascii	"lp\000"
 13394 0f9c 01       		.byte	0x1
 13395 0f9d 0101     		.2byte	0x101
 13396 0f9f 73030000 		.4byte	0x373
 13397 0fa3 02       		.uleb128 0x2
 13398 0fa4 91       		.byte	0x91
 13399 0fa5 63       		.sleb128 -29
 13400 0fa6 14       		.uleb128 0x14
 13401 0fa7 687200   		.ascii	"hr\000"
 13402 0faa 01       		.byte	0x1
 13403 0fab 0201     		.2byte	0x102
 13404 0fad BC050000 		.4byte	0x5bc
 13405 0fb1 02       		.uleb128 0x2
 13406 0fb2 91       		.byte	0x91
 13407 0fb3 62       		.sleb128 -30
 13408 0fb4 14       		.uleb128 0x14
 13409 0fb5 667300   		.ascii	"fs\000"
 13410 0fb8 01       		.byte	0x1
 13411 0fb9 0301     		.2byte	0x103
 13412 0fbb 3F010000 		.4byte	0x13f
 13413 0fbf 02       		.uleb128 0x2
 13414 0fc0 91       		.byte	0x91
 13415 0fc1 61       		.sleb128 -31
 13416 0fc2 00       		.byte	0
 13417 0fc3 11       		.uleb128 0x11
 13418 0fc4 04       		.byte	0x4
 13419 0fc5 5D000000 		.4byte	0x5d
 13420 0fc9 15       		.uleb128 0x15
 13421 0fca F0240000 		.4byte	.LASF316
 13422 0fce 01       		.byte	0x1
 13423 0fcf 4501     		.2byte	0x145
 13424 0fd1 F2000000 		.4byte	0xf2
 13425 0fd5 60040000 		.4byte	.LFB9
 13426 0fd9 68000000 		.4byte	.LFE9-.LFB9
 13427 0fdd 01       		.uleb128 0x1
 13428 0fde 9C       		.byte	0x9c
 13429 0fdf 11100000 		.4byte	0x1011
 13430 0fe3 16       		.uleb128 0x16
 13431 0fe4 5B1F0000 		.4byte	.LASF298
 13432 0fe8 01       		.byte	0x1
 13433 0fe9 4501     		.2byte	0x145
 13434 0feb 620D0000 		.4byte	0xd62
 13435 0fef 02       		.uleb128 0x2
ARM GAS  /tmp/ccVYwGiK.s 			page 240


 13436 0ff0 91       		.byte	0x91
 13437 0ff1 6C       		.sleb128 -20
 13438 0ff2 16       		.uleb128 0x16
 13439 0ff3 600F0000 		.4byte	.LASF305
 13440 0ff7 01       		.byte	0x1
 13441 0ff8 4501     		.2byte	0x145
 13442 0ffa 95010000 		.4byte	0x195
 13443 0ffe 02       		.uleb128 0x2
 13444 0fff 91       		.byte	0x91
 13445 1000 6B       		.sleb128 -21
 13446 1001 13       		.uleb128 0x13
 13447 1002 A60E0000 		.4byte	.LASF303
 13448 1006 01       		.byte	0x1
 13449 1007 4701     		.2byte	0x147
 13450 1009 6B000000 		.4byte	0x6b
 13451 100d 02       		.uleb128 0x2
 13452 100e 91       		.byte	0x91
 13453 100f 77       		.sleb128 -9
 13454 1010 00       		.byte	0
 13455 1011 15       		.uleb128 0x15
 13456 1012 AB170000 		.4byte	.LASF317
 13457 1016 01       		.byte	0x1
 13458 1017 5C01     		.2byte	0x15c
 13459 1019 F2000000 		.4byte	0xf2
 13460 101d D0040000 		.4byte	.LFB10
 13461 1021 36000000 		.4byte	.LFE10-.LFB10
 13462 1025 01       		.uleb128 0x1
 13463 1026 9C       		.byte	0x9c
 13464 1027 4A100000 		.4byte	0x104a
 13465 102b 16       		.uleb128 0x16
 13466 102c 5B1F0000 		.4byte	.LASF298
 13467 1030 01       		.byte	0x1
 13468 1031 5C01     		.2byte	0x15c
 13469 1033 620D0000 		.4byte	0xd62
 13470 1037 02       		.uleb128 0x2
 13471 1038 91       		.byte	0x91
 13472 1039 74       		.sleb128 -12
 13473 103a 16       		.uleb128 0x16
 13474 103b A60E0000 		.4byte	.LASF303
 13475 103f 01       		.byte	0x1
 13476 1040 5C01     		.2byte	0x15c
 13477 1042 4A100000 		.4byte	0x104a
 13478 1046 02       		.uleb128 0x2
 13479 1047 91       		.byte	0x91
 13480 1048 70       		.sleb128 -16
 13481 1049 00       		.byte	0
 13482 104a 11       		.uleb128 0x11
 13483 104b 04       		.byte	0x4
 13484 104c 95010000 		.4byte	0x195
 13485 1050 15       		.uleb128 0x15
 13486 1051 2B160000 		.4byte	.LASF318
 13487 1055 01       		.byte	0x1
 13488 1056 6F01     		.2byte	0x16f
 13489 1058 F2000000 		.4byte	0xf2
 13490 105c 10050000 		.4byte	.LFB11
 13491 1060 36000000 		.4byte	.LFE11-.LFB11
 13492 1064 01       		.uleb128 0x1
ARM GAS  /tmp/ccVYwGiK.s 			page 241


 13493 1065 9C       		.byte	0x9c
 13494 1066 89100000 		.4byte	0x1089
 13495 106a 16       		.uleb128 0x16
 13496 106b 5B1F0000 		.4byte	.LASF298
 13497 106f 01       		.byte	0x1
 13498 1070 6F01     		.2byte	0x16f
 13499 1072 620D0000 		.4byte	0xd62
 13500 1076 02       		.uleb128 0x2
 13501 1077 91       		.byte	0x91
 13502 1078 74       		.sleb128 -12
 13503 1079 16       		.uleb128 0x16
 13504 107a A60E0000 		.4byte	.LASF303
 13505 107e 01       		.byte	0x1
 13506 107f 6F01     		.2byte	0x16f
 13507 1081 89100000 		.4byte	0x1089
 13508 1085 02       		.uleb128 0x2
 13509 1086 91       		.byte	0x91
 13510 1087 70       		.sleb128 -16
 13511 1088 00       		.byte	0
 13512 1089 11       		.uleb128 0x11
 13513 108a 04       		.byte	0x4
 13514 108b B5010000 		.4byte	0x1b5
 13515 108f 15       		.uleb128 0x15
 13516 1090 58260000 		.4byte	.LASF319
 13517 1094 01       		.byte	0x1
 13518 1095 8001     		.2byte	0x180
 13519 1097 F2000000 		.4byte	0xf2
 13520 109b 50050000 		.4byte	.LFB12
 13521 109f 36000000 		.4byte	.LFE12-.LFB12
 13522 10a3 01       		.uleb128 0x1
 13523 10a4 9C       		.byte	0x9c
 13524 10a5 C8100000 		.4byte	0x10c8
 13525 10a9 16       		.uleb128 0x16
 13526 10aa 5B1F0000 		.4byte	.LASF298
 13527 10ae 01       		.byte	0x1
 13528 10af 8001     		.2byte	0x180
 13529 10b1 620D0000 		.4byte	0xd62
 13530 10b5 02       		.uleb128 0x2
 13531 10b6 91       		.byte	0x91
 13532 10b7 74       		.sleb128 -12
 13533 10b8 16       		.uleb128 0x16
 13534 10b9 A60E0000 		.4byte	.LASF303
 13535 10bd 01       		.byte	0x1
 13536 10be 8001     		.2byte	0x180
 13537 10c0 C8100000 		.4byte	0x10c8
 13538 10c4 02       		.uleb128 0x2
 13539 10c5 91       		.byte	0x91
 13540 10c6 70       		.sleb128 -16
 13541 10c7 00       		.byte	0
 13542 10c8 11       		.uleb128 0x11
 13543 10c9 04       		.byte	0x4
 13544 10ca D7010000 		.4byte	0x1d7
 13545 10ce 15       		.uleb128 0x15
 13546 10cf 85030000 		.4byte	.LASF320
 13547 10d3 01       		.byte	0x1
 13548 10d4 9101     		.2byte	0x191
 13549 10d6 F2000000 		.4byte	0xf2
ARM GAS  /tmp/ccVYwGiK.s 			page 242


 13550 10da 90050000 		.4byte	.LFB13
 13551 10de 36000000 		.4byte	.LFE13-.LFB13
 13552 10e2 01       		.uleb128 0x1
 13553 10e3 9C       		.byte	0x9c
 13554 10e4 07110000 		.4byte	0x1107
 13555 10e8 16       		.uleb128 0x16
 13556 10e9 5B1F0000 		.4byte	.LASF298
 13557 10ed 01       		.byte	0x1
 13558 10ee 9101     		.2byte	0x191
 13559 10f0 620D0000 		.4byte	0xd62
 13560 10f4 02       		.uleb128 0x2
 13561 10f5 91       		.byte	0x91
 13562 10f6 74       		.sleb128 -12
 13563 10f7 16       		.uleb128 0x16
 13564 10f8 A60E0000 		.4byte	.LASF303
 13565 10fc 01       		.byte	0x1
 13566 10fd 9101     		.2byte	0x191
 13567 10ff 07110000 		.4byte	0x1107
 13568 1103 02       		.uleb128 0x2
 13569 1104 91       		.byte	0x91
 13570 1105 70       		.sleb128 -16
 13571 1106 00       		.byte	0
 13572 1107 11       		.uleb128 0x11
 13573 1108 04       		.byte	0x4
 13574 1109 F9010000 		.4byte	0x1f9
 13575 110d 15       		.uleb128 0x15
 13576 110e C9150000 		.4byte	.LASF321
 13577 1112 01       		.byte	0x1
 13578 1113 A201     		.2byte	0x1a2
 13579 1115 F2000000 		.4byte	0xf2
 13580 1119 D0050000 		.4byte	.LFB14
 13581 111d 36000000 		.4byte	.LFE14-.LFB14
 13582 1121 01       		.uleb128 0x1
 13583 1122 9C       		.byte	0x9c
 13584 1123 46110000 		.4byte	0x1146
 13585 1127 16       		.uleb128 0x16
 13586 1128 5B1F0000 		.4byte	.LASF298
 13587 112c 01       		.byte	0x1
 13588 112d A201     		.2byte	0x1a2
 13589 112f 620D0000 		.4byte	0xd62
 13590 1133 02       		.uleb128 0x2
 13591 1134 91       		.byte	0x91
 13592 1135 74       		.sleb128 -12
 13593 1136 16       		.uleb128 0x16
 13594 1137 A60E0000 		.4byte	.LASF303
 13595 113b 01       		.byte	0x1
 13596 113c A201     		.2byte	0x1a2
 13597 113e 46110000 		.4byte	0x1146
 13598 1142 02       		.uleb128 0x2
 13599 1143 91       		.byte	0x91
 13600 1144 70       		.sleb128 -16
 13601 1145 00       		.byte	0
 13602 1146 11       		.uleb128 0x11
 13603 1147 04       		.byte	0x4
 13604 1148 1B020000 		.4byte	0x21b
 13605 114c 15       		.uleb128 0x15
 13606 114d 76020000 		.4byte	.LASF322
ARM GAS  /tmp/ccVYwGiK.s 			page 243


 13607 1151 01       		.byte	0x1
 13608 1152 B301     		.2byte	0x1b3
 13609 1154 F2000000 		.4byte	0xf2
 13610 1158 10060000 		.4byte	.LFB15
 13611 115c 36000000 		.4byte	.LFE15-.LFB15
 13612 1160 01       		.uleb128 0x1
 13613 1161 9C       		.byte	0x9c
 13614 1162 85110000 		.4byte	0x1185
 13615 1166 16       		.uleb128 0x16
 13616 1167 5B1F0000 		.4byte	.LASF298
 13617 116b 01       		.byte	0x1
 13618 116c B301     		.2byte	0x1b3
 13619 116e 620D0000 		.4byte	0xd62
 13620 1172 02       		.uleb128 0x2
 13621 1173 91       		.byte	0x91
 13622 1174 74       		.sleb128 -12
 13623 1175 16       		.uleb128 0x16
 13624 1176 A60E0000 		.4byte	.LASF303
 13625 117a 01       		.byte	0x1
 13626 117b B301     		.2byte	0x1b3
 13627 117d 85110000 		.4byte	0x1185
 13628 1181 02       		.uleb128 0x2
 13629 1182 91       		.byte	0x91
 13630 1183 70       		.sleb128 -16
 13631 1184 00       		.byte	0
 13632 1185 11       		.uleb128 0x11
 13633 1186 04       		.byte	0x4
 13634 1187 3D020000 		.4byte	0x23d
 13635 118b 15       		.uleb128 0x15
 13636 118c 34130000 		.4byte	.LASF323
 13637 1190 01       		.byte	0x1
 13638 1191 C401     		.2byte	0x1c4
 13639 1193 F2000000 		.4byte	0xf2
 13640 1197 50060000 		.4byte	.LFB16
 13641 119b 36000000 		.4byte	.LFE16-.LFB16
 13642 119f 01       		.uleb128 0x1
 13643 11a0 9C       		.byte	0x9c
 13644 11a1 C4110000 		.4byte	0x11c4
 13645 11a5 16       		.uleb128 0x16
 13646 11a6 5B1F0000 		.4byte	.LASF298
 13647 11aa 01       		.byte	0x1
 13648 11ab C401     		.2byte	0x1c4
 13649 11ad 620D0000 		.4byte	0xd62
 13650 11b1 02       		.uleb128 0x2
 13651 11b2 91       		.byte	0x91
 13652 11b3 74       		.sleb128 -12
 13653 11b4 16       		.uleb128 0x16
 13654 11b5 A60E0000 		.4byte	.LASF303
 13655 11b9 01       		.byte	0x1
 13656 11ba C401     		.2byte	0x1c4
 13657 11bc C4110000 		.4byte	0x11c4
 13658 11c0 02       		.uleb128 0x2
 13659 11c1 91       		.byte	0x91
 13660 11c2 70       		.sleb128 -16
 13661 11c3 00       		.byte	0
 13662 11c4 11       		.uleb128 0x11
 13663 11c5 04       		.byte	0x4
ARM GAS  /tmp/ccVYwGiK.s 			page 244


 13664 11c6 5F020000 		.4byte	0x25f
 13665 11ca 15       		.uleb128 0x15
 13666 11cb 85300000 		.4byte	.LASF324
 13667 11cf 01       		.byte	0x1
 13668 11d0 D501     		.2byte	0x1d5
 13669 11d2 F2000000 		.4byte	0xf2
 13670 11d6 90060000 		.4byte	.LFB17
 13671 11da 36000000 		.4byte	.LFE17-.LFB17
 13672 11de 01       		.uleb128 0x1
 13673 11df 9C       		.byte	0x9c
 13674 11e0 03120000 		.4byte	0x1203
 13675 11e4 16       		.uleb128 0x16
 13676 11e5 5B1F0000 		.4byte	.LASF298
 13677 11e9 01       		.byte	0x1
 13678 11ea D501     		.2byte	0x1d5
 13679 11ec 620D0000 		.4byte	0xd62
 13680 11f0 02       		.uleb128 0x2
 13681 11f1 91       		.byte	0x91
 13682 11f2 74       		.sleb128 -12
 13683 11f3 16       		.uleb128 0x16
 13684 11f4 A60E0000 		.4byte	.LASF303
 13685 11f8 01       		.byte	0x1
 13686 11f9 D501     		.2byte	0x1d5
 13687 11fb 03120000 		.4byte	0x1203
 13688 11ff 02       		.uleb128 0x2
 13689 1200 91       		.byte	0x91
 13690 1201 70       		.sleb128 -16
 13691 1202 00       		.byte	0
 13692 1203 11       		.uleb128 0x11
 13693 1204 04       		.byte	0x4
 13694 1205 82020000 		.4byte	0x282
 13695 1209 15       		.uleb128 0x15
 13696 120a 51050000 		.4byte	.LASF325
 13697 120e 01       		.byte	0x1
 13698 120f E601     		.2byte	0x1e6
 13699 1211 F2000000 		.4byte	0xf2
 13700 1215 D0060000 		.4byte	.LFB18
 13701 1219 36000000 		.4byte	.LFE18-.LFB18
 13702 121d 01       		.uleb128 0x1
 13703 121e 9C       		.byte	0x9c
 13704 121f 42120000 		.4byte	0x1242
 13705 1223 16       		.uleb128 0x16
 13706 1224 5B1F0000 		.4byte	.LASF298
 13707 1228 01       		.byte	0x1
 13708 1229 E601     		.2byte	0x1e6
 13709 122b 620D0000 		.4byte	0xd62
 13710 122f 02       		.uleb128 0x2
 13711 1230 91       		.byte	0x91
 13712 1231 74       		.sleb128 -12
 13713 1232 16       		.uleb128 0x16
 13714 1233 A60E0000 		.4byte	.LASF303
 13715 1237 01       		.byte	0x1
 13716 1238 E601     		.2byte	0x1e6
 13717 123a 42120000 		.4byte	0x1242
 13718 123e 02       		.uleb128 0x2
 13719 123f 91       		.byte	0x91
 13720 1240 70       		.sleb128 -16
ARM GAS  /tmp/ccVYwGiK.s 			page 245


 13721 1241 00       		.byte	0
 13722 1242 11       		.uleb128 0x11
 13723 1243 04       		.byte	0x4
 13724 1244 A5020000 		.4byte	0x2a5
 13725 1248 15       		.uleb128 0x15
 13726 1249 5E070000 		.4byte	.LASF326
 13727 124d 01       		.byte	0x1
 13728 124e F701     		.2byte	0x1f7
 13729 1250 F2000000 		.4byte	0xf2
 13730 1254 10070000 		.4byte	.LFB19
 13731 1258 38000000 		.4byte	.LFE19-.LFB19
 13732 125c 01       		.uleb128 0x1
 13733 125d 9C       		.byte	0x9c
 13734 125e 81120000 		.4byte	0x1281
 13735 1262 16       		.uleb128 0x16
 13736 1263 5B1F0000 		.4byte	.LASF298
 13737 1267 01       		.byte	0x1
 13738 1268 F701     		.2byte	0x1f7
 13739 126a 620D0000 		.4byte	0xd62
 13740 126e 02       		.uleb128 0x2
 13741 126f 91       		.byte	0x91
 13742 1270 74       		.sleb128 -12
 13743 1271 16       		.uleb128 0x16
 13744 1272 A60E0000 		.4byte	.LASF303
 13745 1276 01       		.byte	0x1
 13746 1277 F701     		.2byte	0x1f7
 13747 1279 640D0000 		.4byte	0xd64
 13748 127d 02       		.uleb128 0x2
 13749 127e 91       		.byte	0x91
 13750 127f 70       		.sleb128 -16
 13751 1280 00       		.byte	0
 13752 1281 15       		.uleb128 0x15
 13753 1282 3E0E0000 		.4byte	.LASF327
 13754 1286 01       		.byte	0x1
 13755 1287 0902     		.2byte	0x209
 13756 1289 F2000000 		.4byte	0xf2
 13757 128d 50070000 		.4byte	.LFB20
 13758 1291 68000000 		.4byte	.LFE20-.LFB20
 13759 1295 01       		.uleb128 0x1
 13760 1296 9C       		.byte	0x9c
 13761 1297 C9120000 		.4byte	0x12c9
 13762 129b 16       		.uleb128 0x16
 13763 129c 5B1F0000 		.4byte	.LASF298
 13764 12a0 01       		.byte	0x1
 13765 12a1 0902     		.2byte	0x209
 13766 12a3 620D0000 		.4byte	0xd62
 13767 12a7 02       		.uleb128 0x2
 13768 12a8 91       		.byte	0x91
 13769 12a9 6C       		.sleb128 -20
 13770 12aa 16       		.uleb128 0x16
 13771 12ab 600F0000 		.4byte	.LASF305
 13772 12af 01       		.byte	0x1
 13773 12b0 0902     		.2byte	0x209
 13774 12b2 C8020000 		.4byte	0x2c8
 13775 12b6 02       		.uleb128 0x2
 13776 12b7 91       		.byte	0x91
 13777 12b8 6B       		.sleb128 -21
ARM GAS  /tmp/ccVYwGiK.s 			page 246


 13778 12b9 13       		.uleb128 0x13
 13779 12ba A60E0000 		.4byte	.LASF303
 13780 12be 01       		.byte	0x1
 13781 12bf 0B02     		.2byte	0x20b
 13782 12c1 6B000000 		.4byte	0x6b
 13783 12c5 02       		.uleb128 0x2
 13784 12c6 91       		.byte	0x91
 13785 12c7 77       		.sleb128 -9
 13786 12c8 00       		.byte	0
 13787 12c9 15       		.uleb128 0x15
 13788 12ca F5020000 		.4byte	.LASF328
 13789 12ce 01       		.byte	0x1
 13790 12cf 2002     		.2byte	0x220
 13791 12d1 F2000000 		.4byte	0xf2
 13792 12d5 C0070000 		.4byte	.LFB21
 13793 12d9 36000000 		.4byte	.LFE21-.LFB21
 13794 12dd 01       		.uleb128 0x1
 13795 12de 9C       		.byte	0x9c
 13796 12df 02130000 		.4byte	0x1302
 13797 12e3 16       		.uleb128 0x16
 13798 12e4 5B1F0000 		.4byte	.LASF298
 13799 12e8 01       		.byte	0x1
 13800 12e9 2002     		.2byte	0x220
 13801 12eb 620D0000 		.4byte	0xd62
 13802 12ef 02       		.uleb128 0x2
 13803 12f0 91       		.byte	0x91
 13804 12f1 74       		.sleb128 -12
 13805 12f2 16       		.uleb128 0x16
 13806 12f3 A60E0000 		.4byte	.LASF303
 13807 12f7 01       		.byte	0x1
 13808 12f8 2002     		.2byte	0x220
 13809 12fa 02130000 		.4byte	0x1302
 13810 12fe 02       		.uleb128 0x2
 13811 12ff 91       		.byte	0x91
 13812 1300 70       		.sleb128 -16
 13813 1301 00       		.byte	0
 13814 1302 11       		.uleb128 0x11
 13815 1303 04       		.byte	0x4
 13816 1304 C8020000 		.4byte	0x2c8
 13817 1308 15       		.uleb128 0x15
 13818 1309 F51D0000 		.4byte	.LASF329
 13819 130d 01       		.byte	0x1
 13820 130e 3102     		.2byte	0x231
 13821 1310 F2000000 		.4byte	0xf2
 13822 1314 00080000 		.4byte	.LFB22
 13823 1318 68000000 		.4byte	.LFE22-.LFB22
 13824 131c 01       		.uleb128 0x1
 13825 131d 9C       		.byte	0x9c
 13826 131e 50130000 		.4byte	0x1350
 13827 1322 16       		.uleb128 0x16
 13828 1323 5B1F0000 		.4byte	.LASF298
 13829 1327 01       		.byte	0x1
 13830 1328 3102     		.2byte	0x231
 13831 132a 620D0000 		.4byte	0xd62
 13832 132e 02       		.uleb128 0x2
 13833 132f 91       		.byte	0x91
 13834 1330 6C       		.sleb128 -20
ARM GAS  /tmp/ccVYwGiK.s 			page 247


 13835 1331 16       		.uleb128 0x16
 13836 1332 600F0000 		.4byte	.LASF305
 13837 1336 01       		.byte	0x1
 13838 1337 3102     		.2byte	0x231
 13839 1339 EB020000 		.4byte	0x2eb
 13840 133d 02       		.uleb128 0x2
 13841 133e 91       		.byte	0x91
 13842 133f 6B       		.sleb128 -21
 13843 1340 13       		.uleb128 0x13
 13844 1341 A60E0000 		.4byte	.LASF303
 13845 1345 01       		.byte	0x1
 13846 1346 3302     		.2byte	0x233
 13847 1348 6B000000 		.4byte	0x6b
 13848 134c 02       		.uleb128 0x2
 13849 134d 91       		.byte	0x91
 13850 134e 77       		.sleb128 -9
 13851 134f 00       		.byte	0
 13852 1350 15       		.uleb128 0x15
 13853 1351 81290000 		.4byte	.LASF330
 13854 1355 01       		.byte	0x1
 13855 1356 4802     		.2byte	0x248
 13856 1358 F2000000 		.4byte	0xf2
 13857 135c 70080000 		.4byte	.LFB23
 13858 1360 36000000 		.4byte	.LFE23-.LFB23
 13859 1364 01       		.uleb128 0x1
 13860 1365 9C       		.byte	0x9c
 13861 1366 89130000 		.4byte	0x1389
 13862 136a 16       		.uleb128 0x16
 13863 136b 5B1F0000 		.4byte	.LASF298
 13864 136f 01       		.byte	0x1
 13865 1370 4802     		.2byte	0x248
 13866 1372 620D0000 		.4byte	0xd62
 13867 1376 02       		.uleb128 0x2
 13868 1377 91       		.byte	0x91
 13869 1378 74       		.sleb128 -12
 13870 1379 16       		.uleb128 0x16
 13871 137a A60E0000 		.4byte	.LASF303
 13872 137e 01       		.byte	0x1
 13873 137f 4802     		.2byte	0x248
 13874 1381 89130000 		.4byte	0x1389
 13875 1385 02       		.uleb128 0x2
 13876 1386 91       		.byte	0x91
 13877 1387 70       		.sleb128 -16
 13878 1388 00       		.byte	0
 13879 1389 11       		.uleb128 0x11
 13880 138a 04       		.byte	0x4
 13881 138b EB020000 		.4byte	0x2eb
 13882 138f 15       		.uleb128 0x15
 13883 1390 2F190000 		.4byte	.LASF331
 13884 1394 01       		.byte	0x1
 13885 1395 5902     		.2byte	0x259
 13886 1397 F2000000 		.4byte	0xf2
 13887 139b B0080000 		.4byte	.LFB24
 13888 139f 68000000 		.4byte	.LFE24-.LFB24
 13889 13a3 01       		.uleb128 0x1
 13890 13a4 9C       		.byte	0x9c
 13891 13a5 D7130000 		.4byte	0x13d7
ARM GAS  /tmp/ccVYwGiK.s 			page 248


 13892 13a9 16       		.uleb128 0x16
 13893 13aa 5B1F0000 		.4byte	.LASF298
 13894 13ae 01       		.byte	0x1
 13895 13af 5902     		.2byte	0x259
 13896 13b1 620D0000 		.4byte	0xd62
 13897 13b5 02       		.uleb128 0x2
 13898 13b6 91       		.byte	0x91
 13899 13b7 6C       		.sleb128 -20
 13900 13b8 16       		.uleb128 0x16
 13901 13b9 600F0000 		.4byte	.LASF305
 13902 13bd 01       		.byte	0x1
 13903 13be 5902     		.2byte	0x259
 13904 13c0 0D030000 		.4byte	0x30d
 13905 13c4 02       		.uleb128 0x2
 13906 13c5 91       		.byte	0x91
 13907 13c6 6B       		.sleb128 -21
 13908 13c7 13       		.uleb128 0x13
 13909 13c8 A60E0000 		.4byte	.LASF303
 13910 13cc 01       		.byte	0x1
 13911 13cd 5B02     		.2byte	0x25b
 13912 13cf 6B000000 		.4byte	0x6b
 13913 13d3 02       		.uleb128 0x2
 13914 13d4 91       		.byte	0x91
 13915 13d5 77       		.sleb128 -9
 13916 13d6 00       		.byte	0
 13917 13d7 15       		.uleb128 0x15
 13918 13d8 610B0000 		.4byte	.LASF332
 13919 13dc 01       		.byte	0x1
 13920 13dd 7002     		.2byte	0x270
 13921 13df F2000000 		.4byte	0xf2
 13922 13e3 20090000 		.4byte	.LFB25
 13923 13e7 36000000 		.4byte	.LFE25-.LFB25
 13924 13eb 01       		.uleb128 0x1
 13925 13ec 9C       		.byte	0x9c
 13926 13ed 10140000 		.4byte	0x1410
 13927 13f1 16       		.uleb128 0x16
 13928 13f2 5B1F0000 		.4byte	.LASF298
 13929 13f6 01       		.byte	0x1
 13930 13f7 7002     		.2byte	0x270
 13931 13f9 620D0000 		.4byte	0xd62
 13932 13fd 02       		.uleb128 0x2
 13933 13fe 91       		.byte	0x91
 13934 13ff 74       		.sleb128 -12
 13935 1400 16       		.uleb128 0x16
 13936 1401 A60E0000 		.4byte	.LASF303
 13937 1405 01       		.byte	0x1
 13938 1406 7002     		.2byte	0x270
 13939 1408 10140000 		.4byte	0x1410
 13940 140c 02       		.uleb128 0x2
 13941 140d 91       		.byte	0x91
 13942 140e 70       		.sleb128 -16
 13943 140f 00       		.byte	0
 13944 1410 11       		.uleb128 0x11
 13945 1411 04       		.byte	0x4
 13946 1412 0D030000 		.4byte	0x30d
 13947 1416 15       		.uleb128 0x15
 13948 1417 4F2D0000 		.4byte	.LASF333
ARM GAS  /tmp/ccVYwGiK.s 			page 249


 13949 141b 01       		.byte	0x1
 13950 141c 8102     		.2byte	0x281
 13951 141e F2000000 		.4byte	0xf2
 13952 1422 60090000 		.4byte	.LFB26
 13953 1426 68000000 		.4byte	.LFE26-.LFB26
 13954 142a 01       		.uleb128 0x1
 13955 142b 9C       		.byte	0x9c
 13956 142c 5E140000 		.4byte	0x145e
 13957 1430 16       		.uleb128 0x16
 13958 1431 5B1F0000 		.4byte	.LASF298
 13959 1435 01       		.byte	0x1
 13960 1436 8102     		.2byte	0x281
 13961 1438 620D0000 		.4byte	0xd62
 13962 143c 02       		.uleb128 0x2
 13963 143d 91       		.byte	0x91
 13964 143e 6C       		.sleb128 -20
 13965 143f 16       		.uleb128 0x16
 13966 1440 600F0000 		.4byte	.LASF305
 13967 1444 01       		.byte	0x1
 13968 1445 8102     		.2byte	0x281
 13969 1447 2F030000 		.4byte	0x32f
 13970 144b 02       		.uleb128 0x2
 13971 144c 91       		.byte	0x91
 13972 144d 6B       		.sleb128 -21
 13973 144e 13       		.uleb128 0x13
 13974 144f A60E0000 		.4byte	.LASF303
 13975 1453 01       		.byte	0x1
 13976 1454 8302     		.2byte	0x283
 13977 1456 6B000000 		.4byte	0x6b
 13978 145a 02       		.uleb128 0x2
 13979 145b 91       		.byte	0x91
 13980 145c 77       		.sleb128 -9
 13981 145d 00       		.byte	0
 13982 145e 15       		.uleb128 0x15
 13983 145f 01200000 		.4byte	.LASF334
 13984 1463 01       		.byte	0x1
 13985 1464 9802     		.2byte	0x298
 13986 1466 F2000000 		.4byte	0xf2
 13987 146a D0090000 		.4byte	.LFB27
 13988 146e 36000000 		.4byte	.LFE27-.LFB27
 13989 1472 01       		.uleb128 0x1
 13990 1473 9C       		.byte	0x9c
 13991 1474 97140000 		.4byte	0x1497
 13992 1478 16       		.uleb128 0x16
 13993 1479 5B1F0000 		.4byte	.LASF298
 13994 147d 01       		.byte	0x1
 13995 147e 9802     		.2byte	0x298
 13996 1480 620D0000 		.4byte	0xd62
 13997 1484 02       		.uleb128 0x2
 13998 1485 91       		.byte	0x91
 13999 1486 74       		.sleb128 -12
 14000 1487 16       		.uleb128 0x16
 14001 1488 A60E0000 		.4byte	.LASF303
 14002 148c 01       		.byte	0x1
 14003 148d 9802     		.2byte	0x298
 14004 148f 97140000 		.4byte	0x1497
 14005 1493 02       		.uleb128 0x2
ARM GAS  /tmp/ccVYwGiK.s 			page 250


 14006 1494 91       		.byte	0x91
 14007 1495 70       		.sleb128 -16
 14008 1496 00       		.byte	0
 14009 1497 11       		.uleb128 0x11
 14010 1498 04       		.byte	0x4
 14011 1499 2F030000 		.4byte	0x32f
 14012 149d 15       		.uleb128 0x15
 14013 149e 2A0E0000 		.4byte	.LASF335
 14014 14a2 01       		.byte	0x1
 14015 14a3 A902     		.2byte	0x2a9
 14016 14a5 F2000000 		.4byte	0xf2
 14017 14a9 100A0000 		.4byte	.LFB28
 14018 14ad 68000000 		.4byte	.LFE28-.LFB28
 14019 14b1 01       		.uleb128 0x1
 14020 14b2 9C       		.byte	0x9c
 14021 14b3 E5140000 		.4byte	0x14e5
 14022 14b7 16       		.uleb128 0x16
 14023 14b8 5B1F0000 		.4byte	.LASF298
 14024 14bc 01       		.byte	0x1
 14025 14bd A902     		.2byte	0x2a9
 14026 14bf 620D0000 		.4byte	0xd62
 14027 14c3 02       		.uleb128 0x2
 14028 14c4 91       		.byte	0x91
 14029 14c5 6C       		.sleb128 -20
 14030 14c6 16       		.uleb128 0x16
 14031 14c7 600F0000 		.4byte	.LASF305
 14032 14cb 01       		.byte	0x1
 14033 14cc A902     		.2byte	0x2a9
 14034 14ce 51030000 		.4byte	0x351
 14035 14d2 02       		.uleb128 0x2
 14036 14d3 91       		.byte	0x91
 14037 14d4 6B       		.sleb128 -21
 14038 14d5 13       		.uleb128 0x13
 14039 14d6 A60E0000 		.4byte	.LASF303
 14040 14da 01       		.byte	0x1
 14041 14db AB02     		.2byte	0x2ab
 14042 14dd 6B000000 		.4byte	0x6b
 14043 14e1 02       		.uleb128 0x2
 14044 14e2 91       		.byte	0x91
 14045 14e3 77       		.sleb128 -9
 14046 14e4 00       		.byte	0
 14047 14e5 15       		.uleb128 0x15
 14048 14e6 12010000 		.4byte	.LASF336
 14049 14ea 01       		.byte	0x1
 14050 14eb C002     		.2byte	0x2c0
 14051 14ed F2000000 		.4byte	0xf2
 14052 14f1 800A0000 		.4byte	.LFB29
 14053 14f5 36000000 		.4byte	.LFE29-.LFB29
 14054 14f9 01       		.uleb128 0x1
 14055 14fa 9C       		.byte	0x9c
 14056 14fb 1E150000 		.4byte	0x151e
 14057 14ff 16       		.uleb128 0x16
 14058 1500 5B1F0000 		.4byte	.LASF298
 14059 1504 01       		.byte	0x1
 14060 1505 C002     		.2byte	0x2c0
 14061 1507 620D0000 		.4byte	0xd62
 14062 150b 02       		.uleb128 0x2
ARM GAS  /tmp/ccVYwGiK.s 			page 251


 14063 150c 91       		.byte	0x91
 14064 150d 74       		.sleb128 -12
 14065 150e 16       		.uleb128 0x16
 14066 150f A60E0000 		.4byte	.LASF303
 14067 1513 01       		.byte	0x1
 14068 1514 C002     		.2byte	0x2c0
 14069 1516 1E150000 		.4byte	0x151e
 14070 151a 02       		.uleb128 0x2
 14071 151b 91       		.byte	0x91
 14072 151c 70       		.sleb128 -16
 14073 151d 00       		.byte	0
 14074 151e 11       		.uleb128 0x11
 14075 151f 04       		.byte	0x4
 14076 1520 51030000 		.4byte	0x351
 14077 1524 15       		.uleb128 0x15
 14078 1525 022D0000 		.4byte	.LASF337
 14079 1529 01       		.byte	0x1
 14080 152a D102     		.2byte	0x2d1
 14081 152c F2000000 		.4byte	0xf2
 14082 1530 C00A0000 		.4byte	.LFB30
 14083 1534 68000000 		.4byte	.LFE30-.LFB30
 14084 1538 01       		.uleb128 0x1
 14085 1539 9C       		.byte	0x9c
 14086 153a 6C150000 		.4byte	0x156c
 14087 153e 16       		.uleb128 0x16
 14088 153f 5B1F0000 		.4byte	.LASF298
 14089 1543 01       		.byte	0x1
 14090 1544 D102     		.2byte	0x2d1
 14091 1546 620D0000 		.4byte	0xd62
 14092 154a 02       		.uleb128 0x2
 14093 154b 91       		.byte	0x91
 14094 154c 6C       		.sleb128 -20
 14095 154d 16       		.uleb128 0x16
 14096 154e 600F0000 		.4byte	.LASF305
 14097 1552 01       		.byte	0x1
 14098 1553 D102     		.2byte	0x2d1
 14099 1555 73030000 		.4byte	0x373
 14100 1559 02       		.uleb128 0x2
 14101 155a 91       		.byte	0x91
 14102 155b 6B       		.sleb128 -21
 14103 155c 13       		.uleb128 0x13
 14104 155d A60E0000 		.4byte	.LASF303
 14105 1561 01       		.byte	0x1
 14106 1562 D302     		.2byte	0x2d3
 14107 1564 6B000000 		.4byte	0x6b
 14108 1568 02       		.uleb128 0x2
 14109 1569 91       		.byte	0x91
 14110 156a 77       		.sleb128 -9
 14111 156b 00       		.byte	0
 14112 156c 15       		.uleb128 0x15
 14113 156d E7220000 		.4byte	.LASF338
 14114 1571 01       		.byte	0x1
 14115 1572 E802     		.2byte	0x2e8
 14116 1574 F2000000 		.4byte	0xf2
 14117 1578 300B0000 		.4byte	.LFB31
 14118 157c 36000000 		.4byte	.LFE31-.LFB31
 14119 1580 01       		.uleb128 0x1
ARM GAS  /tmp/ccVYwGiK.s 			page 252


 14120 1581 9C       		.byte	0x9c
 14121 1582 A5150000 		.4byte	0x15a5
 14122 1586 16       		.uleb128 0x16
 14123 1587 5B1F0000 		.4byte	.LASF298
 14124 158b 01       		.byte	0x1
 14125 158c E802     		.2byte	0x2e8
 14126 158e 620D0000 		.4byte	0xd62
 14127 1592 02       		.uleb128 0x2
 14128 1593 91       		.byte	0x91
 14129 1594 74       		.sleb128 -12
 14130 1595 16       		.uleb128 0x16
 14131 1596 A60E0000 		.4byte	.LASF303
 14132 159a 01       		.byte	0x1
 14133 159b E802     		.2byte	0x2e8
 14134 159d A5150000 		.4byte	0x15a5
 14135 15a1 02       		.uleb128 0x2
 14136 15a2 91       		.byte	0x91
 14137 15a3 70       		.sleb128 -16
 14138 15a4 00       		.byte	0
 14139 15a5 11       		.uleb128 0x11
 14140 15a6 04       		.byte	0x4
 14141 15a7 73030000 		.4byte	0x373
 14142 15ab 15       		.uleb128 0x15
 14143 15ac CF2E0000 		.4byte	.LASF339
 14144 15b0 01       		.byte	0x1
 14145 15b1 F902     		.2byte	0x2f9
 14146 15b3 F2000000 		.4byte	0xf2
 14147 15b7 700B0000 		.4byte	.LFB32
 14148 15bb 68000000 		.4byte	.LFE32-.LFB32
 14149 15bf 01       		.uleb128 0x1
 14150 15c0 9C       		.byte	0x9c
 14151 15c1 F3150000 		.4byte	0x15f3
 14152 15c5 16       		.uleb128 0x16
 14153 15c6 5B1F0000 		.4byte	.LASF298
 14154 15ca 01       		.byte	0x1
 14155 15cb F902     		.2byte	0x2f9
 14156 15cd 620D0000 		.4byte	0xd62
 14157 15d1 02       		.uleb128 0x2
 14158 15d2 91       		.byte	0x91
 14159 15d3 6C       		.sleb128 -20
 14160 15d4 16       		.uleb128 0x16
 14161 15d5 600F0000 		.4byte	.LASF305
 14162 15d9 01       		.byte	0x1
 14163 15da F902     		.2byte	0x2f9
 14164 15dc 95030000 		.4byte	0x395
 14165 15e0 02       		.uleb128 0x2
 14166 15e1 91       		.byte	0x91
 14167 15e2 6B       		.sleb128 -21
 14168 15e3 13       		.uleb128 0x13
 14169 15e4 A60E0000 		.4byte	.LASF303
 14170 15e8 01       		.byte	0x1
 14171 15e9 FB02     		.2byte	0x2fb
 14172 15eb 6B000000 		.4byte	0x6b
 14173 15ef 02       		.uleb128 0x2
 14174 15f0 91       		.byte	0x91
 14175 15f1 77       		.sleb128 -9
 14176 15f2 00       		.byte	0
ARM GAS  /tmp/ccVYwGiK.s 			page 253


 14177 15f3 15       		.uleb128 0x15
 14178 15f4 FE200000 		.4byte	.LASF340
 14179 15f8 01       		.byte	0x1
 14180 15f9 1003     		.2byte	0x310
 14181 15fb F2000000 		.4byte	0xf2
 14182 15ff E00B0000 		.4byte	.LFB33
 14183 1603 36000000 		.4byte	.LFE33-.LFB33
 14184 1607 01       		.uleb128 0x1
 14185 1608 9C       		.byte	0x9c
 14186 1609 2C160000 		.4byte	0x162c
 14187 160d 16       		.uleb128 0x16
 14188 160e 5B1F0000 		.4byte	.LASF298
 14189 1612 01       		.byte	0x1
 14190 1613 1003     		.2byte	0x310
 14191 1615 620D0000 		.4byte	0xd62
 14192 1619 02       		.uleb128 0x2
 14193 161a 91       		.byte	0x91
 14194 161b 74       		.sleb128 -12
 14195 161c 16       		.uleb128 0x16
 14196 161d A60E0000 		.4byte	.LASF303
 14197 1621 01       		.byte	0x1
 14198 1622 1003     		.2byte	0x310
 14199 1624 2C160000 		.4byte	0x162c
 14200 1628 02       		.uleb128 0x2
 14201 1629 91       		.byte	0x91
 14202 162a 70       		.sleb128 -16
 14203 162b 00       		.byte	0
 14204 162c 11       		.uleb128 0x11
 14205 162d 04       		.byte	0x4
 14206 162e 95030000 		.4byte	0x395
 14207 1632 15       		.uleb128 0x15
 14208 1633 EF2E0000 		.4byte	.LASF341
 14209 1637 01       		.byte	0x1
 14210 1638 2103     		.2byte	0x321
 14211 163a F2000000 		.4byte	0xf2
 14212 163e 200C0000 		.4byte	.LFB34
 14213 1642 68000000 		.4byte	.LFE34-.LFB34
 14214 1646 01       		.uleb128 0x1
 14215 1647 9C       		.byte	0x9c
 14216 1648 7A160000 		.4byte	0x167a
 14217 164c 16       		.uleb128 0x16
 14218 164d 5B1F0000 		.4byte	.LASF298
 14219 1651 01       		.byte	0x1
 14220 1652 2103     		.2byte	0x321
 14221 1654 620D0000 		.4byte	0xd62
 14222 1658 02       		.uleb128 0x2
 14223 1659 91       		.byte	0x91
 14224 165a 6C       		.sleb128 -20
 14225 165b 16       		.uleb128 0x16
 14226 165c 600F0000 		.4byte	.LASF305
 14227 1660 01       		.byte	0x1
 14228 1661 2103     		.2byte	0x321
 14229 1663 B7030000 		.4byte	0x3b7
 14230 1667 02       		.uleb128 0x2
 14231 1668 91       		.byte	0x91
 14232 1669 6B       		.sleb128 -21
 14233 166a 13       		.uleb128 0x13
ARM GAS  /tmp/ccVYwGiK.s 			page 254


 14234 166b A60E0000 		.4byte	.LASF303
 14235 166f 01       		.byte	0x1
 14236 1670 2303     		.2byte	0x323
 14237 1672 6B000000 		.4byte	0x6b
 14238 1676 02       		.uleb128 0x2
 14239 1677 91       		.byte	0x91
 14240 1678 77       		.sleb128 -9
 14241 1679 00       		.byte	0
 14242 167a 15       		.uleb128 0x15
 14243 167b 1E210000 		.4byte	.LASF342
 14244 167f 01       		.byte	0x1
 14245 1680 3803     		.2byte	0x338
 14246 1682 F2000000 		.4byte	0xf2
 14247 1686 900C0000 		.4byte	.LFB35
 14248 168a 36000000 		.4byte	.LFE35-.LFB35
 14249 168e 01       		.uleb128 0x1
 14250 168f 9C       		.byte	0x9c
 14251 1690 B3160000 		.4byte	0x16b3
 14252 1694 16       		.uleb128 0x16
 14253 1695 5B1F0000 		.4byte	.LASF298
 14254 1699 01       		.byte	0x1
 14255 169a 3803     		.2byte	0x338
 14256 169c 620D0000 		.4byte	0xd62
 14257 16a0 02       		.uleb128 0x2
 14258 16a1 91       		.byte	0x91
 14259 16a2 74       		.sleb128 -12
 14260 16a3 16       		.uleb128 0x16
 14261 16a4 A60E0000 		.4byte	.LASF303
 14262 16a8 01       		.byte	0x1
 14263 16a9 3803     		.2byte	0x338
 14264 16ab B3160000 		.4byte	0x16b3
 14265 16af 02       		.uleb128 0x2
 14266 16b0 91       		.byte	0x91
 14267 16b1 70       		.sleb128 -16
 14268 16b2 00       		.byte	0
 14269 16b3 11       		.uleb128 0x11
 14270 16b4 04       		.byte	0x4
 14271 16b5 B7030000 		.4byte	0x3b7
 14272 16b9 15       		.uleb128 0x15
 14273 16ba E41F0000 		.4byte	.LASF343
 14274 16be 01       		.byte	0x1
 14275 16bf 4903     		.2byte	0x349
 14276 16c1 F2000000 		.4byte	0xf2
 14277 16c5 D00C0000 		.4byte	.LFB36
 14278 16c9 68000000 		.4byte	.LFE36-.LFB36
 14279 16cd 01       		.uleb128 0x1
 14280 16ce 9C       		.byte	0x9c
 14281 16cf 01170000 		.4byte	0x1701
 14282 16d3 16       		.uleb128 0x16
 14283 16d4 5B1F0000 		.4byte	.LASF298
 14284 16d8 01       		.byte	0x1
 14285 16d9 4903     		.2byte	0x349
 14286 16db 620D0000 		.4byte	0xd62
 14287 16df 02       		.uleb128 0x2
 14288 16e0 91       		.byte	0x91
 14289 16e1 6C       		.sleb128 -20
 14290 16e2 16       		.uleb128 0x16
ARM GAS  /tmp/ccVYwGiK.s 			page 255


 14291 16e3 600F0000 		.4byte	.LASF305
 14292 16e7 01       		.byte	0x1
 14293 16e8 4903     		.2byte	0x349
 14294 16ea D9030000 		.4byte	0x3d9
 14295 16ee 02       		.uleb128 0x2
 14296 16ef 91       		.byte	0x91
 14297 16f0 6B       		.sleb128 -21
 14298 16f1 13       		.uleb128 0x13
 14299 16f2 A60E0000 		.4byte	.LASF303
 14300 16f6 01       		.byte	0x1
 14301 16f7 4B03     		.2byte	0x34b
 14302 16f9 6B000000 		.4byte	0x6b
 14303 16fd 02       		.uleb128 0x2
 14304 16fe 91       		.byte	0x91
 14305 16ff 77       		.sleb128 -9
 14306 1700 00       		.byte	0
 14307 1701 15       		.uleb128 0x15
 14308 1702 15240000 		.4byte	.LASF344
 14309 1706 01       		.byte	0x1
 14310 1707 6003     		.2byte	0x360
 14311 1709 F2000000 		.4byte	0xf2
 14312 170d 400D0000 		.4byte	.LFB37
 14313 1711 36000000 		.4byte	.LFE37-.LFB37
 14314 1715 01       		.uleb128 0x1
 14315 1716 9C       		.byte	0x9c
 14316 1717 3A170000 		.4byte	0x173a
 14317 171b 16       		.uleb128 0x16
 14318 171c 5B1F0000 		.4byte	.LASF298
 14319 1720 01       		.byte	0x1
 14320 1721 6003     		.2byte	0x360
 14321 1723 620D0000 		.4byte	0xd62
 14322 1727 02       		.uleb128 0x2
 14323 1728 91       		.byte	0x91
 14324 1729 74       		.sleb128 -12
 14325 172a 16       		.uleb128 0x16
 14326 172b A60E0000 		.4byte	.LASF303
 14327 172f 01       		.byte	0x1
 14328 1730 6003     		.2byte	0x360
 14329 1732 3A170000 		.4byte	0x173a
 14330 1736 02       		.uleb128 0x2
 14331 1737 91       		.byte	0x91
 14332 1738 70       		.sleb128 -16
 14333 1739 00       		.byte	0
 14334 173a 11       		.uleb128 0x11
 14335 173b 04       		.byte	0x4
 14336 173c D9030000 		.4byte	0x3d9
 14337 1740 15       		.uleb128 0x15
 14338 1741 CB250000 		.4byte	.LASF345
 14339 1745 01       		.byte	0x1
 14340 1746 7103     		.2byte	0x371
 14341 1748 F2000000 		.4byte	0xf2
 14342 174c 800D0000 		.4byte	.LFB38
 14343 1750 68000000 		.4byte	.LFE38-.LFB38
 14344 1754 01       		.uleb128 0x1
 14345 1755 9C       		.byte	0x9c
 14346 1756 88170000 		.4byte	0x1788
 14347 175a 16       		.uleb128 0x16
ARM GAS  /tmp/ccVYwGiK.s 			page 256


 14348 175b 5B1F0000 		.4byte	.LASF298
 14349 175f 01       		.byte	0x1
 14350 1760 7103     		.2byte	0x371
 14351 1762 620D0000 		.4byte	0xd62
 14352 1766 02       		.uleb128 0x2
 14353 1767 91       		.byte	0x91
 14354 1768 6C       		.sleb128 -20
 14355 1769 16       		.uleb128 0x16
 14356 176a 600F0000 		.4byte	.LASF305
 14357 176e 01       		.byte	0x1
 14358 176f 7103     		.2byte	0x371
 14359 1771 FB030000 		.4byte	0x3fb
 14360 1775 02       		.uleb128 0x2
 14361 1776 91       		.byte	0x91
 14362 1777 6B       		.sleb128 -21
 14363 1778 13       		.uleb128 0x13
 14364 1779 A60E0000 		.4byte	.LASF303
 14365 177d 01       		.byte	0x1
 14366 177e 7303     		.2byte	0x373
 14367 1780 6B000000 		.4byte	0x6b
 14368 1784 02       		.uleb128 0x2
 14369 1785 91       		.byte	0x91
 14370 1786 77       		.sleb128 -9
 14371 1787 00       		.byte	0
 14372 1788 15       		.uleb128 0x15
 14373 1789 942A0000 		.4byte	.LASF346
 14374 178d 01       		.byte	0x1
 14375 178e 8803     		.2byte	0x388
 14376 1790 F2000000 		.4byte	0xf2
 14377 1794 F00D0000 		.4byte	.LFB39
 14378 1798 36000000 		.4byte	.LFE39-.LFB39
 14379 179c 01       		.uleb128 0x1
 14380 179d 9C       		.byte	0x9c
 14381 179e C1170000 		.4byte	0x17c1
 14382 17a2 16       		.uleb128 0x16
 14383 17a3 5B1F0000 		.4byte	.LASF298
 14384 17a7 01       		.byte	0x1
 14385 17a8 8803     		.2byte	0x388
 14386 17aa 620D0000 		.4byte	0xd62
 14387 17ae 02       		.uleb128 0x2
 14388 17af 91       		.byte	0x91
 14389 17b0 74       		.sleb128 -12
 14390 17b1 16       		.uleb128 0x16
 14391 17b2 A60E0000 		.4byte	.LASF303
 14392 17b6 01       		.byte	0x1
 14393 17b7 8803     		.2byte	0x388
 14394 17b9 C1170000 		.4byte	0x17c1
 14395 17bd 02       		.uleb128 0x2
 14396 17be 91       		.byte	0x91
 14397 17bf 70       		.sleb128 -16
 14398 17c0 00       		.byte	0
 14399 17c1 11       		.uleb128 0x11
 14400 17c2 04       		.byte	0x4
 14401 17c3 FB030000 		.4byte	0x3fb
 14402 17c7 15       		.uleb128 0x15
 14403 17c8 481A0000 		.4byte	.LASF347
 14404 17cc 01       		.byte	0x1
ARM GAS  /tmp/ccVYwGiK.s 			page 257


 14405 17cd 9903     		.2byte	0x399
 14406 17cf F2000000 		.4byte	0xf2
 14407 17d3 300E0000 		.4byte	.LFB40
 14408 17d7 68000000 		.4byte	.LFE40-.LFB40
 14409 17db 01       		.uleb128 0x1
 14410 17dc 9C       		.byte	0x9c
 14411 17dd 0F180000 		.4byte	0x180f
 14412 17e1 16       		.uleb128 0x16
 14413 17e2 5B1F0000 		.4byte	.LASF298
 14414 17e6 01       		.byte	0x1
 14415 17e7 9903     		.2byte	0x399
 14416 17e9 620D0000 		.4byte	0xd62
 14417 17ed 02       		.uleb128 0x2
 14418 17ee 91       		.byte	0x91
 14419 17ef 6C       		.sleb128 -20
 14420 17f0 16       		.uleb128 0x16
 14421 17f1 600F0000 		.4byte	.LASF305
 14422 17f5 01       		.byte	0x1
 14423 17f6 9903     		.2byte	0x399
 14424 17f8 29040000 		.4byte	0x429
 14425 17fc 02       		.uleb128 0x2
 14426 17fd 91       		.byte	0x91
 14427 17fe 6B       		.sleb128 -21
 14428 17ff 13       		.uleb128 0x13
 14429 1800 A60E0000 		.4byte	.LASF303
 14430 1804 01       		.byte	0x1
 14431 1805 9B03     		.2byte	0x39b
 14432 1807 6B000000 		.4byte	0x6b
 14433 180b 02       		.uleb128 0x2
 14434 180c 91       		.byte	0x91
 14435 180d 77       		.sleb128 -9
 14436 180e 00       		.byte	0
 14437 180f 15       		.uleb128 0x15
 14438 1810 481D0000 		.4byte	.LASF348
 14439 1814 01       		.byte	0x1
 14440 1815 B003     		.2byte	0x3b0
 14441 1817 F2000000 		.4byte	0xf2
 14442 181b A00E0000 		.4byte	.LFB41
 14443 181f 36000000 		.4byte	.LFE41-.LFB41
 14444 1823 01       		.uleb128 0x1
 14445 1824 9C       		.byte	0x9c
 14446 1825 48180000 		.4byte	0x1848
 14447 1829 16       		.uleb128 0x16
 14448 182a 5B1F0000 		.4byte	.LASF298
 14449 182e 01       		.byte	0x1
 14450 182f B003     		.2byte	0x3b0
 14451 1831 620D0000 		.4byte	0xd62
 14452 1835 02       		.uleb128 0x2
 14453 1836 91       		.byte	0x91
 14454 1837 74       		.sleb128 -12
 14455 1838 16       		.uleb128 0x16
 14456 1839 A60E0000 		.4byte	.LASF303
 14457 183d 01       		.byte	0x1
 14458 183e B003     		.2byte	0x3b0
 14459 1840 48180000 		.4byte	0x1848
 14460 1844 02       		.uleb128 0x2
 14461 1845 91       		.byte	0x91
ARM GAS  /tmp/ccVYwGiK.s 			page 258


 14462 1846 70       		.sleb128 -16
 14463 1847 00       		.byte	0
 14464 1848 11       		.uleb128 0x11
 14465 1849 04       		.byte	0x4
 14466 184a 29040000 		.4byte	0x429
 14467 184e 15       		.uleb128 0x15
 14468 184f 9A250000 		.4byte	.LASF349
 14469 1853 01       		.byte	0x1
 14470 1854 C103     		.2byte	0x3c1
 14471 1856 F2000000 		.4byte	0xf2
 14472 185a E00E0000 		.4byte	.LFB42
 14473 185e 68000000 		.4byte	.LFE42-.LFB42
 14474 1862 01       		.uleb128 0x1
 14475 1863 9C       		.byte	0x9c
 14476 1864 96180000 		.4byte	0x1896
 14477 1868 16       		.uleb128 0x16
 14478 1869 5B1F0000 		.4byte	.LASF298
 14479 186d 01       		.byte	0x1
 14480 186e C103     		.2byte	0x3c1
 14481 1870 620D0000 		.4byte	0xd62
 14482 1874 02       		.uleb128 0x2
 14483 1875 91       		.byte	0x91
 14484 1876 6C       		.sleb128 -20
 14485 1877 16       		.uleb128 0x16
 14486 1878 600F0000 		.4byte	.LASF305
 14487 187c 01       		.byte	0x1
 14488 187d C103     		.2byte	0x3c1
 14489 187f 5A040000 		.4byte	0x45a
 14490 1883 02       		.uleb128 0x2
 14491 1884 91       		.byte	0x91
 14492 1885 6B       		.sleb128 -21
 14493 1886 13       		.uleb128 0x13
 14494 1887 A60E0000 		.4byte	.LASF303
 14495 188b 01       		.byte	0x1
 14496 188c C303     		.2byte	0x3c3
 14497 188e 6B000000 		.4byte	0x6b
 14498 1892 02       		.uleb128 0x2
 14499 1893 91       		.byte	0x91
 14500 1894 77       		.sleb128 -9
 14501 1895 00       		.byte	0
 14502 1896 15       		.uleb128 0x15
 14503 1897 2A1F0000 		.4byte	.LASF350
 14504 189b 01       		.byte	0x1
 14505 189c D803     		.2byte	0x3d8
 14506 189e F2000000 		.4byte	0xf2
 14507 18a2 500F0000 		.4byte	.LFB43
 14508 18a6 36000000 		.4byte	.LFE43-.LFB43
 14509 18aa 01       		.uleb128 0x1
 14510 18ab 9C       		.byte	0x9c
 14511 18ac CF180000 		.4byte	0x18cf
 14512 18b0 16       		.uleb128 0x16
 14513 18b1 5B1F0000 		.4byte	.LASF298
 14514 18b5 01       		.byte	0x1
 14515 18b6 D803     		.2byte	0x3d8
 14516 18b8 620D0000 		.4byte	0xd62
 14517 18bc 02       		.uleb128 0x2
 14518 18bd 91       		.byte	0x91
ARM GAS  /tmp/ccVYwGiK.s 			page 259


 14519 18be 74       		.sleb128 -12
 14520 18bf 16       		.uleb128 0x16
 14521 18c0 A60E0000 		.4byte	.LASF303
 14522 18c4 01       		.byte	0x1
 14523 18c5 D803     		.2byte	0x3d8
 14524 18c7 CF180000 		.4byte	0x18cf
 14525 18cb 02       		.uleb128 0x2
 14526 18cc 91       		.byte	0x91
 14527 18cd 70       		.sleb128 -16
 14528 18ce 00       		.byte	0
 14529 18cf 11       		.uleb128 0x11
 14530 18d0 04       		.byte	0x4
 14531 18d1 5A040000 		.4byte	0x45a
 14532 18d5 15       		.uleb128 0x15
 14533 18d6 02070000 		.4byte	.LASF351
 14534 18da 01       		.byte	0x1
 14535 18db E903     		.2byte	0x3e9
 14536 18dd F2000000 		.4byte	0xf2
 14537 18e1 900F0000 		.4byte	.LFB44
 14538 18e5 68000000 		.4byte	.LFE44-.LFB44
 14539 18e9 01       		.uleb128 0x1
 14540 18ea 9C       		.byte	0x9c
 14541 18eb 1D190000 		.4byte	0x191d
 14542 18ef 16       		.uleb128 0x16
 14543 18f0 5B1F0000 		.4byte	.LASF298
 14544 18f4 01       		.byte	0x1
 14545 18f5 E903     		.2byte	0x3e9
 14546 18f7 620D0000 		.4byte	0xd62
 14547 18fb 02       		.uleb128 0x2
 14548 18fc 91       		.byte	0x91
 14549 18fd 6C       		.sleb128 -20
 14550 18fe 16       		.uleb128 0x16
 14551 18ff 600F0000 		.4byte	.LASF305
 14552 1903 01       		.byte	0x1
 14553 1904 E903     		.2byte	0x3e9
 14554 1906 7C040000 		.4byte	0x47c
 14555 190a 02       		.uleb128 0x2
 14556 190b 91       		.byte	0x91
 14557 190c 6B       		.sleb128 -21
 14558 190d 13       		.uleb128 0x13
 14559 190e A60E0000 		.4byte	.LASF303
 14560 1912 01       		.byte	0x1
 14561 1913 EB03     		.2byte	0x3eb
 14562 1915 6B000000 		.4byte	0x6b
 14563 1919 02       		.uleb128 0x2
 14564 191a 91       		.byte	0x91
 14565 191b 77       		.sleb128 -9
 14566 191c 00       		.byte	0
 14567 191d 15       		.uleb128 0x15
 14568 191e 85220000 		.4byte	.LASF352
 14569 1922 01       		.byte	0x1
 14570 1923 0004     		.2byte	0x400
 14571 1925 F2000000 		.4byte	0xf2
 14572 1929 00100000 		.4byte	.LFB45
 14573 192d 36000000 		.4byte	.LFE45-.LFB45
 14574 1931 01       		.uleb128 0x1
 14575 1932 9C       		.byte	0x9c
ARM GAS  /tmp/ccVYwGiK.s 			page 260


 14576 1933 56190000 		.4byte	0x1956
 14577 1937 16       		.uleb128 0x16
 14578 1938 5B1F0000 		.4byte	.LASF298
 14579 193c 01       		.byte	0x1
 14580 193d 0004     		.2byte	0x400
 14581 193f 620D0000 		.4byte	0xd62
 14582 1943 02       		.uleb128 0x2
 14583 1944 91       		.byte	0x91
 14584 1945 74       		.sleb128 -12
 14585 1946 16       		.uleb128 0x16
 14586 1947 A60E0000 		.4byte	.LASF303
 14587 194b 01       		.byte	0x1
 14588 194c 0004     		.2byte	0x400
 14589 194e 56190000 		.4byte	0x1956
 14590 1952 02       		.uleb128 0x2
 14591 1953 91       		.byte	0x91
 14592 1954 70       		.sleb128 -16
 14593 1955 00       		.byte	0
 14594 1956 11       		.uleb128 0x11
 14595 1957 04       		.byte	0x4
 14596 1958 7C040000 		.4byte	0x47c
 14597 195c 15       		.uleb128 0x15
 14598 195d E62A0000 		.4byte	.LASF353
 14599 1961 01       		.byte	0x1
 14600 1962 1104     		.2byte	0x411
 14601 1964 F2000000 		.4byte	0xf2
 14602 1968 40100000 		.4byte	.LFB46
 14603 196c 68000000 		.4byte	.LFE46-.LFB46
 14604 1970 01       		.uleb128 0x1
 14605 1971 9C       		.byte	0x9c
 14606 1972 A4190000 		.4byte	0x19a4
 14607 1976 16       		.uleb128 0x16
 14608 1977 5B1F0000 		.4byte	.LASF298
 14609 197b 01       		.byte	0x1
 14610 197c 1104     		.2byte	0x411
 14611 197e 620D0000 		.4byte	0xd62
 14612 1982 02       		.uleb128 0x2
 14613 1983 91       		.byte	0x91
 14614 1984 6C       		.sleb128 -20
 14615 1985 16       		.uleb128 0x16
 14616 1986 600F0000 		.4byte	.LASF305
 14617 198a 01       		.byte	0x1
 14618 198b 1104     		.2byte	0x411
 14619 198d 9E040000 		.4byte	0x49e
 14620 1991 02       		.uleb128 0x2
 14621 1992 91       		.byte	0x91
 14622 1993 6B       		.sleb128 -21
 14623 1994 13       		.uleb128 0x13
 14624 1995 A60E0000 		.4byte	.LASF303
 14625 1999 01       		.byte	0x1
 14626 199a 1304     		.2byte	0x413
 14627 199c 6B000000 		.4byte	0x6b
 14628 19a0 02       		.uleb128 0x2
 14629 19a1 91       		.byte	0x91
 14630 19a2 77       		.sleb128 -9
 14631 19a3 00       		.byte	0
 14632 19a4 15       		.uleb128 0x15
ARM GAS  /tmp/ccVYwGiK.s 			page 261


 14633 19a5 C9240000 		.4byte	.LASF354
 14634 19a9 01       		.byte	0x1
 14635 19aa 2804     		.2byte	0x428
 14636 19ac F2000000 		.4byte	0xf2
 14637 19b0 B0100000 		.4byte	.LFB47
 14638 19b4 36000000 		.4byte	.LFE47-.LFB47
 14639 19b8 01       		.uleb128 0x1
 14640 19b9 9C       		.byte	0x9c
 14641 19ba DD190000 		.4byte	0x19dd
 14642 19be 16       		.uleb128 0x16
 14643 19bf 5B1F0000 		.4byte	.LASF298
 14644 19c3 01       		.byte	0x1
 14645 19c4 2804     		.2byte	0x428
 14646 19c6 620D0000 		.4byte	0xd62
 14647 19ca 02       		.uleb128 0x2
 14648 19cb 91       		.byte	0x91
 14649 19cc 74       		.sleb128 -12
 14650 19cd 16       		.uleb128 0x16
 14651 19ce A60E0000 		.4byte	.LASF303
 14652 19d2 01       		.byte	0x1
 14653 19d3 2804     		.2byte	0x428
 14654 19d5 DD190000 		.4byte	0x19dd
 14655 19d9 02       		.uleb128 0x2
 14656 19da 91       		.byte	0x91
 14657 19db 70       		.sleb128 -16
 14658 19dc 00       		.byte	0
 14659 19dd 11       		.uleb128 0x11
 14660 19de 04       		.byte	0x4
 14661 19df 9E040000 		.4byte	0x49e
 14662 19e3 15       		.uleb128 0x15
 14663 19e4 BA0F0000 		.4byte	.LASF355
 14664 19e8 01       		.byte	0x1
 14665 19e9 3904     		.2byte	0x439
 14666 19eb F2000000 		.4byte	0xf2
 14667 19ef F0100000 		.4byte	.LFB48
 14668 19f3 68000000 		.4byte	.LFE48-.LFB48
 14669 19f7 01       		.uleb128 0x1
 14670 19f8 9C       		.byte	0x9c
 14671 19f9 2B1A0000 		.4byte	0x1a2b
 14672 19fd 16       		.uleb128 0x16
 14673 19fe 5B1F0000 		.4byte	.LASF298
 14674 1a02 01       		.byte	0x1
 14675 1a03 3904     		.2byte	0x439
 14676 1a05 620D0000 		.4byte	0xd62
 14677 1a09 02       		.uleb128 0x2
 14678 1a0a 91       		.byte	0x91
 14679 1a0b 6C       		.sleb128 -20
 14680 1a0c 16       		.uleb128 0x16
 14681 1a0d 600F0000 		.4byte	.LASF305
 14682 1a11 01       		.byte	0x1
 14683 1a12 3904     		.2byte	0x439
 14684 1a14 C0040000 		.4byte	0x4c0
 14685 1a18 02       		.uleb128 0x2
 14686 1a19 91       		.byte	0x91
 14687 1a1a 6B       		.sleb128 -21
 14688 1a1b 13       		.uleb128 0x13
 14689 1a1c A60E0000 		.4byte	.LASF303
ARM GAS  /tmp/ccVYwGiK.s 			page 262


 14690 1a20 01       		.byte	0x1
 14691 1a21 3B04     		.2byte	0x43b
 14692 1a23 6B000000 		.4byte	0x6b
 14693 1a27 02       		.uleb128 0x2
 14694 1a28 91       		.byte	0x91
 14695 1a29 77       		.sleb128 -9
 14696 1a2a 00       		.byte	0
 14697 1a2b 15       		.uleb128 0x15
 14698 1a2c CD100000 		.4byte	.LASF356
 14699 1a30 01       		.byte	0x1
 14700 1a31 5004     		.2byte	0x450
 14701 1a33 F2000000 		.4byte	0xf2
 14702 1a37 60110000 		.4byte	.LFB49
 14703 1a3b 36000000 		.4byte	.LFE49-.LFB49
 14704 1a3f 01       		.uleb128 0x1
 14705 1a40 9C       		.byte	0x9c
 14706 1a41 641A0000 		.4byte	0x1a64
 14707 1a45 16       		.uleb128 0x16
 14708 1a46 5B1F0000 		.4byte	.LASF298
 14709 1a4a 01       		.byte	0x1
 14710 1a4b 5004     		.2byte	0x450
 14711 1a4d 620D0000 		.4byte	0xd62
 14712 1a51 02       		.uleb128 0x2
 14713 1a52 91       		.byte	0x91
 14714 1a53 74       		.sleb128 -12
 14715 1a54 16       		.uleb128 0x16
 14716 1a55 A60E0000 		.4byte	.LASF303
 14717 1a59 01       		.byte	0x1
 14718 1a5a 5004     		.2byte	0x450
 14719 1a5c 641A0000 		.4byte	0x1a64
 14720 1a60 02       		.uleb128 0x2
 14721 1a61 91       		.byte	0x91
 14722 1a62 70       		.sleb128 -16
 14723 1a63 00       		.byte	0
 14724 1a64 11       		.uleb128 0x11
 14725 1a65 04       		.byte	0x4
 14726 1a66 C0040000 		.4byte	0x4c0
 14727 1a6a 15       		.uleb128 0x15
 14728 1a6b 96010000 		.4byte	.LASF357
 14729 1a6f 01       		.byte	0x1
 14730 1a70 6104     		.2byte	0x461
 14731 1a72 F2000000 		.4byte	0xf2
 14732 1a76 A0110000 		.4byte	.LFB50
 14733 1a7a 68000000 		.4byte	.LFE50-.LFB50
 14734 1a7e 01       		.uleb128 0x1
 14735 1a7f 9C       		.byte	0x9c
 14736 1a80 B21A0000 		.4byte	0x1ab2
 14737 1a84 16       		.uleb128 0x16
 14738 1a85 5B1F0000 		.4byte	.LASF298
 14739 1a89 01       		.byte	0x1
 14740 1a8a 6104     		.2byte	0x461
 14741 1a8c 620D0000 		.4byte	0xd62
 14742 1a90 02       		.uleb128 0x2
 14743 1a91 91       		.byte	0x91
 14744 1a92 6C       		.sleb128 -20
 14745 1a93 16       		.uleb128 0x16
 14746 1a94 600F0000 		.4byte	.LASF305
ARM GAS  /tmp/ccVYwGiK.s 			page 263


 14747 1a98 01       		.byte	0x1
 14748 1a99 6104     		.2byte	0x461
 14749 1a9b E2040000 		.4byte	0x4e2
 14750 1a9f 02       		.uleb128 0x2
 14751 1aa0 91       		.byte	0x91
 14752 1aa1 6B       		.sleb128 -21
 14753 1aa2 13       		.uleb128 0x13
 14754 1aa3 A60E0000 		.4byte	.LASF303
 14755 1aa7 01       		.byte	0x1
 14756 1aa8 6304     		.2byte	0x463
 14757 1aaa 6B000000 		.4byte	0x6b
 14758 1aae 02       		.uleb128 0x2
 14759 1aaf 91       		.byte	0x91
 14760 1ab0 77       		.sleb128 -9
 14761 1ab1 00       		.byte	0
 14762 1ab2 15       		.uleb128 0x15
 14763 1ab3 890A0000 		.4byte	.LASF358
 14764 1ab7 01       		.byte	0x1
 14765 1ab8 7804     		.2byte	0x478
 14766 1aba F2000000 		.4byte	0xf2
 14767 1abe 10120000 		.4byte	.LFB51
 14768 1ac2 36000000 		.4byte	.LFE51-.LFB51
 14769 1ac6 01       		.uleb128 0x1
 14770 1ac7 9C       		.byte	0x9c
 14771 1ac8 EB1A0000 		.4byte	0x1aeb
 14772 1acc 16       		.uleb128 0x16
 14773 1acd 5B1F0000 		.4byte	.LASF298
 14774 1ad1 01       		.byte	0x1
 14775 1ad2 7804     		.2byte	0x478
 14776 1ad4 620D0000 		.4byte	0xd62
 14777 1ad8 02       		.uleb128 0x2
 14778 1ad9 91       		.byte	0x91
 14779 1ada 74       		.sleb128 -12
 14780 1adb 16       		.uleb128 0x16
 14781 1adc A60E0000 		.4byte	.LASF303
 14782 1ae0 01       		.byte	0x1
 14783 1ae1 7804     		.2byte	0x478
 14784 1ae3 EB1A0000 		.4byte	0x1aeb
 14785 1ae7 02       		.uleb128 0x2
 14786 1ae8 91       		.byte	0x91
 14787 1ae9 70       		.sleb128 -16
 14788 1aea 00       		.byte	0
 14789 1aeb 11       		.uleb128 0x11
 14790 1aec 04       		.byte	0x4
 14791 1aed E2040000 		.4byte	0x4e2
 14792 1af1 15       		.uleb128 0x15
 14793 1af2 40230000 		.4byte	.LASF359
 14794 1af6 01       		.byte	0x1
 14795 1af7 8904     		.2byte	0x489
 14796 1af9 F2000000 		.4byte	0xf2
 14797 1afd 50120000 		.4byte	.LFB52
 14798 1b01 68000000 		.4byte	.LFE52-.LFB52
 14799 1b05 01       		.uleb128 0x1
 14800 1b06 9C       		.byte	0x9c
 14801 1b07 391B0000 		.4byte	0x1b39
 14802 1b0b 16       		.uleb128 0x16
 14803 1b0c 5B1F0000 		.4byte	.LASF298
ARM GAS  /tmp/ccVYwGiK.s 			page 264


 14804 1b10 01       		.byte	0x1
 14805 1b11 8904     		.2byte	0x489
 14806 1b13 620D0000 		.4byte	0xd62
 14807 1b17 02       		.uleb128 0x2
 14808 1b18 91       		.byte	0x91
 14809 1b19 6C       		.sleb128 -20
 14810 1b1a 16       		.uleb128 0x16
 14811 1b1b 600F0000 		.4byte	.LASF305
 14812 1b1f 01       		.byte	0x1
 14813 1b20 8904     		.2byte	0x489
 14814 1b22 04050000 		.4byte	0x504
 14815 1b26 02       		.uleb128 0x2
 14816 1b27 91       		.byte	0x91
 14817 1b28 6B       		.sleb128 -21
 14818 1b29 13       		.uleb128 0x13
 14819 1b2a A60E0000 		.4byte	.LASF303
 14820 1b2e 01       		.byte	0x1
 14821 1b2f 8B04     		.2byte	0x48b
 14822 1b31 6B000000 		.4byte	0x6b
 14823 1b35 02       		.uleb128 0x2
 14824 1b36 91       		.byte	0x91
 14825 1b37 77       		.sleb128 -9
 14826 1b38 00       		.byte	0
 14827 1b39 15       		.uleb128 0x15
 14828 1b3a 70170000 		.4byte	.LASF360
 14829 1b3e 01       		.byte	0x1
 14830 1b3f A004     		.2byte	0x4a0
 14831 1b41 F2000000 		.4byte	0xf2
 14832 1b45 C0120000 		.4byte	.LFB53
 14833 1b49 36000000 		.4byte	.LFE53-.LFB53
 14834 1b4d 01       		.uleb128 0x1
 14835 1b4e 9C       		.byte	0x9c
 14836 1b4f 721B0000 		.4byte	0x1b72
 14837 1b53 16       		.uleb128 0x16
 14838 1b54 5B1F0000 		.4byte	.LASF298
 14839 1b58 01       		.byte	0x1
 14840 1b59 A004     		.2byte	0x4a0
 14841 1b5b 620D0000 		.4byte	0xd62
 14842 1b5f 02       		.uleb128 0x2
 14843 1b60 91       		.byte	0x91
 14844 1b61 74       		.sleb128 -12
 14845 1b62 16       		.uleb128 0x16
 14846 1b63 A60E0000 		.4byte	.LASF303
 14847 1b67 01       		.byte	0x1
 14848 1b68 A004     		.2byte	0x4a0
 14849 1b6a 721B0000 		.4byte	0x1b72
 14850 1b6e 02       		.uleb128 0x2
 14851 1b6f 91       		.byte	0x91
 14852 1b70 70       		.sleb128 -16
 14853 1b71 00       		.byte	0
 14854 1b72 11       		.uleb128 0x11
 14855 1b73 04       		.byte	0x4
 14856 1b74 04050000 		.4byte	0x504
 14857 1b78 15       		.uleb128 0x15
 14858 1b79 5E140000 		.4byte	.LASF361
 14859 1b7d 01       		.byte	0x1
 14860 1b7e B104     		.2byte	0x4b1
ARM GAS  /tmp/ccVYwGiK.s 			page 265


 14861 1b80 F2000000 		.4byte	0xf2
 14862 1b84 00130000 		.4byte	.LFB54
 14863 1b88 68000000 		.4byte	.LFE54-.LFB54
 14864 1b8c 01       		.uleb128 0x1
 14865 1b8d 9C       		.byte	0x9c
 14866 1b8e C01B0000 		.4byte	0x1bc0
 14867 1b92 16       		.uleb128 0x16
 14868 1b93 5B1F0000 		.4byte	.LASF298
 14869 1b97 01       		.byte	0x1
 14870 1b98 B104     		.2byte	0x4b1
 14871 1b9a 620D0000 		.4byte	0xd62
 14872 1b9e 02       		.uleb128 0x2
 14873 1b9f 91       		.byte	0x91
 14874 1ba0 6C       		.sleb128 -20
 14875 1ba1 16       		.uleb128 0x16
 14876 1ba2 600F0000 		.4byte	.LASF305
 14877 1ba6 01       		.byte	0x1
 14878 1ba7 B104     		.2byte	0x4b1
 14879 1ba9 27050000 		.4byte	0x527
 14880 1bad 02       		.uleb128 0x2
 14881 1bae 91       		.byte	0x91
 14882 1baf 6B       		.sleb128 -21
 14883 1bb0 13       		.uleb128 0x13
 14884 1bb1 A60E0000 		.4byte	.LASF303
 14885 1bb5 01       		.byte	0x1
 14886 1bb6 B304     		.2byte	0x4b3
 14887 1bb8 6B000000 		.4byte	0x6b
 14888 1bbc 02       		.uleb128 0x2
 14889 1bbd 91       		.byte	0x91
 14890 1bbe 77       		.sleb128 -9
 14891 1bbf 00       		.byte	0
 14892 1bc0 15       		.uleb128 0x15
 14893 1bc1 4B320000 		.4byte	.LASF362
 14894 1bc5 01       		.byte	0x1
 14895 1bc6 C804     		.2byte	0x4c8
 14896 1bc8 F2000000 		.4byte	0xf2
 14897 1bcc 70130000 		.4byte	.LFB55
 14898 1bd0 36000000 		.4byte	.LFE55-.LFB55
 14899 1bd4 01       		.uleb128 0x1
 14900 1bd5 9C       		.byte	0x9c
 14901 1bd6 F91B0000 		.4byte	0x1bf9
 14902 1bda 16       		.uleb128 0x16
 14903 1bdb 5B1F0000 		.4byte	.LASF298
 14904 1bdf 01       		.byte	0x1
 14905 1be0 C804     		.2byte	0x4c8
 14906 1be2 620D0000 		.4byte	0xd62
 14907 1be6 02       		.uleb128 0x2
 14908 1be7 91       		.byte	0x91
 14909 1be8 74       		.sleb128 -12
 14910 1be9 16       		.uleb128 0x16
 14911 1bea A60E0000 		.4byte	.LASF303
 14912 1bee 01       		.byte	0x1
 14913 1bef C804     		.2byte	0x4c8
 14914 1bf1 F91B0000 		.4byte	0x1bf9
 14915 1bf5 02       		.uleb128 0x2
 14916 1bf6 91       		.byte	0x91
 14917 1bf7 70       		.sleb128 -16
ARM GAS  /tmp/ccVYwGiK.s 			page 266


 14918 1bf8 00       		.byte	0
 14919 1bf9 11       		.uleb128 0x11
 14920 1bfa 04       		.byte	0x4
 14921 1bfb 27050000 		.4byte	0x527
 14922 1bff 15       		.uleb128 0x15
 14923 1c00 00040000 		.4byte	.LASF363
 14924 1c04 01       		.byte	0x1
 14925 1c05 D904     		.2byte	0x4d9
 14926 1c07 F2000000 		.4byte	0xf2
 14927 1c0b B0130000 		.4byte	.LFB56
 14928 1c0f 68000000 		.4byte	.LFE56-.LFB56
 14929 1c13 01       		.uleb128 0x1
 14930 1c14 9C       		.byte	0x9c
 14931 1c15 471C0000 		.4byte	0x1c47
 14932 1c19 16       		.uleb128 0x16
 14933 1c1a 5B1F0000 		.4byte	.LASF298
 14934 1c1e 01       		.byte	0x1
 14935 1c1f D904     		.2byte	0x4d9
 14936 1c21 620D0000 		.4byte	0xd62
 14937 1c25 02       		.uleb128 0x2
 14938 1c26 91       		.byte	0x91
 14939 1c27 6C       		.sleb128 -20
 14940 1c28 16       		.uleb128 0x16
 14941 1c29 600F0000 		.4byte	.LASF305
 14942 1c2d 01       		.byte	0x1
 14943 1c2e D904     		.2byte	0x4d9
 14944 1c30 4A050000 		.4byte	0x54a
 14945 1c34 02       		.uleb128 0x2
 14946 1c35 91       		.byte	0x91
 14947 1c36 6B       		.sleb128 -21
 14948 1c37 13       		.uleb128 0x13
 14949 1c38 A60E0000 		.4byte	.LASF303
 14950 1c3c 01       		.byte	0x1
 14951 1c3d DB04     		.2byte	0x4db
 14952 1c3f 6B000000 		.4byte	0x6b
 14953 1c43 02       		.uleb128 0x2
 14954 1c44 91       		.byte	0x91
 14955 1c45 77       		.sleb128 -9
 14956 1c46 00       		.byte	0
 14957 1c47 15       		.uleb128 0x15
 14958 1c48 EC270000 		.4byte	.LASF364
 14959 1c4c 01       		.byte	0x1
 14960 1c4d F004     		.2byte	0x4f0
 14961 1c4f F2000000 		.4byte	0xf2
 14962 1c53 20140000 		.4byte	.LFB57
 14963 1c57 36000000 		.4byte	.LFE57-.LFB57
 14964 1c5b 01       		.uleb128 0x1
 14965 1c5c 9C       		.byte	0x9c
 14966 1c5d 801C0000 		.4byte	0x1c80
 14967 1c61 16       		.uleb128 0x16
 14968 1c62 5B1F0000 		.4byte	.LASF298
 14969 1c66 01       		.byte	0x1
 14970 1c67 F004     		.2byte	0x4f0
 14971 1c69 620D0000 		.4byte	0xd62
 14972 1c6d 02       		.uleb128 0x2
 14973 1c6e 91       		.byte	0x91
 14974 1c6f 74       		.sleb128 -12
ARM GAS  /tmp/ccVYwGiK.s 			page 267


 14975 1c70 16       		.uleb128 0x16
 14976 1c71 A60E0000 		.4byte	.LASF303
 14977 1c75 01       		.byte	0x1
 14978 1c76 F004     		.2byte	0x4f0
 14979 1c78 801C0000 		.4byte	0x1c80
 14980 1c7c 02       		.uleb128 0x2
 14981 1c7d 91       		.byte	0x91
 14982 1c7e 70       		.sleb128 -16
 14983 1c7f 00       		.byte	0
 14984 1c80 11       		.uleb128 0x11
 14985 1c81 04       		.byte	0x4
 14986 1c82 4A050000 		.4byte	0x54a
 14987 1c86 15       		.uleb128 0x15
 14988 1c87 A3270000 		.4byte	.LASF365
 14989 1c8b 01       		.byte	0x1
 14990 1c8c 0105     		.2byte	0x501
 14991 1c8e F2000000 		.4byte	0xf2
 14992 1c92 60140000 		.4byte	.LFB58
 14993 1c96 68000000 		.4byte	.LFE58-.LFB58
 14994 1c9a 01       		.uleb128 0x1
 14995 1c9b 9C       		.byte	0x9c
 14996 1c9c CE1C0000 		.4byte	0x1cce
 14997 1ca0 16       		.uleb128 0x16
 14998 1ca1 5B1F0000 		.4byte	.LASF298
 14999 1ca5 01       		.byte	0x1
 15000 1ca6 0105     		.2byte	0x501
 15001 1ca8 620D0000 		.4byte	0xd62
 15002 1cac 02       		.uleb128 0x2
 15003 1cad 91       		.byte	0x91
 15004 1cae 6C       		.sleb128 -20
 15005 1caf 16       		.uleb128 0x16
 15006 1cb0 600F0000 		.4byte	.LASF305
 15007 1cb4 01       		.byte	0x1
 15008 1cb5 0105     		.2byte	0x501
 15009 1cb7 6C050000 		.4byte	0x56c
 15010 1cbb 02       		.uleb128 0x2
 15011 1cbc 91       		.byte	0x91
 15012 1cbd 6B       		.sleb128 -21
 15013 1cbe 13       		.uleb128 0x13
 15014 1cbf A60E0000 		.4byte	.LASF303
 15015 1cc3 01       		.byte	0x1
 15016 1cc4 0305     		.2byte	0x503
 15017 1cc6 6B000000 		.4byte	0x6b
 15018 1cca 02       		.uleb128 0x2
 15019 1ccb 91       		.byte	0x91
 15020 1ccc 77       		.sleb128 -9
 15021 1ccd 00       		.byte	0
 15022 1cce 15       		.uleb128 0x15
 15023 1ccf 281B0000 		.4byte	.LASF366
 15024 1cd3 01       		.byte	0x1
 15025 1cd4 1805     		.2byte	0x518
 15026 1cd6 F2000000 		.4byte	0xf2
 15027 1cda D0140000 		.4byte	.LFB59
 15028 1cde 36000000 		.4byte	.LFE59-.LFB59
 15029 1ce2 01       		.uleb128 0x1
 15030 1ce3 9C       		.byte	0x9c
 15031 1ce4 071D0000 		.4byte	0x1d07
ARM GAS  /tmp/ccVYwGiK.s 			page 268


 15032 1ce8 16       		.uleb128 0x16
 15033 1ce9 5B1F0000 		.4byte	.LASF298
 15034 1ced 01       		.byte	0x1
 15035 1cee 1805     		.2byte	0x518
 15036 1cf0 620D0000 		.4byte	0xd62
 15037 1cf4 02       		.uleb128 0x2
 15038 1cf5 91       		.byte	0x91
 15039 1cf6 74       		.sleb128 -12
 15040 1cf7 16       		.uleb128 0x16
 15041 1cf8 A60E0000 		.4byte	.LASF303
 15042 1cfc 01       		.byte	0x1
 15043 1cfd 1805     		.2byte	0x518
 15044 1cff 071D0000 		.4byte	0x1d07
 15045 1d03 02       		.uleb128 0x2
 15046 1d04 91       		.byte	0x91
 15047 1d05 70       		.sleb128 -16
 15048 1d06 00       		.byte	0
 15049 1d07 11       		.uleb128 0x11
 15050 1d08 04       		.byte	0x4
 15051 1d09 6C050000 		.4byte	0x56c
 15052 1d0d 15       		.uleb128 0x15
 15053 1d0e F01A0000 		.4byte	.LASF367
 15054 1d12 01       		.byte	0x1
 15055 1d13 2905     		.2byte	0x529
 15056 1d15 F2000000 		.4byte	0xf2
 15057 1d19 10150000 		.4byte	.LFB60
 15058 1d1d 68000000 		.4byte	.LFE60-.LFB60
 15059 1d21 01       		.uleb128 0x1
 15060 1d22 9C       		.byte	0x9c
 15061 1d23 551D0000 		.4byte	0x1d55
 15062 1d27 16       		.uleb128 0x16
 15063 1d28 5B1F0000 		.4byte	.LASF298
 15064 1d2c 01       		.byte	0x1
 15065 1d2d 2905     		.2byte	0x529
 15066 1d2f 620D0000 		.4byte	0xd62
 15067 1d33 02       		.uleb128 0x2
 15068 1d34 91       		.byte	0x91
 15069 1d35 6C       		.sleb128 -20
 15070 1d36 16       		.uleb128 0x16
 15071 1d37 600F0000 		.4byte	.LASF305
 15072 1d3b 01       		.byte	0x1
 15073 1d3c 2905     		.2byte	0x529
 15074 1d3e 9A050000 		.4byte	0x59a
 15075 1d42 02       		.uleb128 0x2
 15076 1d43 91       		.byte	0x91
 15077 1d44 6B       		.sleb128 -21
 15078 1d45 13       		.uleb128 0x13
 15079 1d46 A60E0000 		.4byte	.LASF303
 15080 1d4a 01       		.byte	0x1
 15081 1d4b 2B05     		.2byte	0x52b
 15082 1d4d 6B000000 		.4byte	0x6b
 15083 1d51 02       		.uleb128 0x2
 15084 1d52 91       		.byte	0x91
 15085 1d53 77       		.sleb128 -9
 15086 1d54 00       		.byte	0
 15087 1d55 15       		.uleb128 0x15
 15088 1d56 15320000 		.4byte	.LASF368
ARM GAS  /tmp/ccVYwGiK.s 			page 269


 15089 1d5a 01       		.byte	0x1
 15090 1d5b 4005     		.2byte	0x540
 15091 1d5d F2000000 		.4byte	0xf2
 15092 1d61 80150000 		.4byte	.LFB61
 15093 1d65 36000000 		.4byte	.LFE61-.LFB61
 15094 1d69 01       		.uleb128 0x1
 15095 1d6a 9C       		.byte	0x9c
 15096 1d6b 8E1D0000 		.4byte	0x1d8e
 15097 1d6f 16       		.uleb128 0x16
 15098 1d70 5B1F0000 		.4byte	.LASF298
 15099 1d74 01       		.byte	0x1
 15100 1d75 4005     		.2byte	0x540
 15101 1d77 620D0000 		.4byte	0xd62
 15102 1d7b 02       		.uleb128 0x2
 15103 1d7c 91       		.byte	0x91
 15104 1d7d 74       		.sleb128 -12
 15105 1d7e 16       		.uleb128 0x16
 15106 1d7f A60E0000 		.4byte	.LASF303
 15107 1d83 01       		.byte	0x1
 15108 1d84 4005     		.2byte	0x540
 15109 1d86 8E1D0000 		.4byte	0x1d8e
 15110 1d8a 02       		.uleb128 0x2
 15111 1d8b 91       		.byte	0x91
 15112 1d8c 70       		.sleb128 -16
 15113 1d8d 00       		.byte	0
 15114 1d8e 11       		.uleb128 0x11
 15115 1d8f 04       		.byte	0x4
 15116 1d90 9A050000 		.4byte	0x59a
 15117 1d94 15       		.uleb128 0x15
 15118 1d95 250A0000 		.4byte	.LASF369
 15119 1d99 01       		.byte	0x1
 15120 1d9a 5105     		.2byte	0x551
 15121 1d9c F2000000 		.4byte	0xf2
 15122 1da0 C0150000 		.4byte	.LFB62
 15123 1da4 68000000 		.4byte	.LFE62-.LFB62
 15124 1da8 01       		.uleb128 0x1
 15125 1da9 9C       		.byte	0x9c
 15126 1daa DC1D0000 		.4byte	0x1ddc
 15127 1dae 16       		.uleb128 0x16
 15128 1daf 5B1F0000 		.4byte	.LASF298
 15129 1db3 01       		.byte	0x1
 15130 1db4 5105     		.2byte	0x551
 15131 1db6 620D0000 		.4byte	0xd62
 15132 1dba 02       		.uleb128 0x2
 15133 1dbb 91       		.byte	0x91
 15134 1dbc 6C       		.sleb128 -20
 15135 1dbd 16       		.uleb128 0x16
 15136 1dbe 600F0000 		.4byte	.LASF305
 15137 1dc2 01       		.byte	0x1
 15138 1dc3 5105     		.2byte	0x551
 15139 1dc5 BC050000 		.4byte	0x5bc
 15140 1dc9 02       		.uleb128 0x2
 15141 1dca 91       		.byte	0x91
 15142 1dcb 6B       		.sleb128 -21
 15143 1dcc 13       		.uleb128 0x13
 15144 1dcd A60E0000 		.4byte	.LASF303
 15145 1dd1 01       		.byte	0x1
ARM GAS  /tmp/ccVYwGiK.s 			page 270


 15146 1dd2 5305     		.2byte	0x553
 15147 1dd4 6B000000 		.4byte	0x6b
 15148 1dd8 02       		.uleb128 0x2
 15149 1dd9 91       		.byte	0x91
 15150 1dda 77       		.sleb128 -9
 15151 1ddb 00       		.byte	0
 15152 1ddc 15       		.uleb128 0x15
 15153 1ddd FE120000 		.4byte	.LASF370
 15154 1de1 01       		.byte	0x1
 15155 1de2 6805     		.2byte	0x568
 15156 1de4 F2000000 		.4byte	0xf2
 15157 1de8 30160000 		.4byte	.LFB63
 15158 1dec 36000000 		.4byte	.LFE63-.LFB63
 15159 1df0 01       		.uleb128 0x1
 15160 1df1 9C       		.byte	0x9c
 15161 1df2 151E0000 		.4byte	0x1e15
 15162 1df6 16       		.uleb128 0x16
 15163 1df7 5B1F0000 		.4byte	.LASF298
 15164 1dfb 01       		.byte	0x1
 15165 1dfc 6805     		.2byte	0x568
 15166 1dfe 620D0000 		.4byte	0xd62
 15167 1e02 02       		.uleb128 0x2
 15168 1e03 91       		.byte	0x91
 15169 1e04 74       		.sleb128 -12
 15170 1e05 16       		.uleb128 0x16
 15171 1e06 A60E0000 		.4byte	.LASF303
 15172 1e0a 01       		.byte	0x1
 15173 1e0b 6805     		.2byte	0x568
 15174 1e0d 151E0000 		.4byte	0x1e15
 15175 1e11 02       		.uleb128 0x2
 15176 1e12 91       		.byte	0x91
 15177 1e13 70       		.sleb128 -16
 15178 1e14 00       		.byte	0
 15179 1e15 11       		.uleb128 0x11
 15180 1e16 04       		.byte	0x4
 15181 1e17 BC050000 		.4byte	0x5bc
 15182 1e1b 15       		.uleb128 0x15
 15183 1e1c D3300000 		.4byte	.LASF371
 15184 1e20 01       		.byte	0x1
 15185 1e21 7905     		.2byte	0x579
 15186 1e23 F2000000 		.4byte	0xf2
 15187 1e27 70160000 		.4byte	.LFB64
 15188 1e2b 68000000 		.4byte	.LFE64-.LFB64
 15189 1e2f 01       		.uleb128 0x1
 15190 1e30 9C       		.byte	0x9c
 15191 1e31 631E0000 		.4byte	0x1e63
 15192 1e35 16       		.uleb128 0x16
 15193 1e36 5B1F0000 		.4byte	.LASF298
 15194 1e3a 01       		.byte	0x1
 15195 1e3b 7905     		.2byte	0x579
 15196 1e3d 620D0000 		.4byte	0xd62
 15197 1e41 02       		.uleb128 0x2
 15198 1e42 91       		.byte	0x91
 15199 1e43 6C       		.sleb128 -20
 15200 1e44 16       		.uleb128 0x16
 15201 1e45 600F0000 		.4byte	.LASF305
 15202 1e49 01       		.byte	0x1
ARM GAS  /tmp/ccVYwGiK.s 			page 271


 15203 1e4a 7905     		.2byte	0x579
 15204 1e4c DF050000 		.4byte	0x5df
 15205 1e50 02       		.uleb128 0x2
 15206 1e51 91       		.byte	0x91
 15207 1e52 6B       		.sleb128 -21
 15208 1e53 13       		.uleb128 0x13
 15209 1e54 A60E0000 		.4byte	.LASF303
 15210 1e58 01       		.byte	0x1
 15211 1e59 7B05     		.2byte	0x57b
 15212 1e5b 6B000000 		.4byte	0x6b
 15213 1e5f 02       		.uleb128 0x2
 15214 1e60 91       		.byte	0x91
 15215 1e61 77       		.sleb128 -9
 15216 1e62 00       		.byte	0
 15217 1e63 15       		.uleb128 0x15
 15218 1e64 C7220000 		.4byte	.LASF372
 15219 1e68 01       		.byte	0x1
 15220 1e69 9005     		.2byte	0x590
 15221 1e6b F2000000 		.4byte	0xf2
 15222 1e6f E0160000 		.4byte	.LFB65
 15223 1e73 36000000 		.4byte	.LFE65-.LFB65
 15224 1e77 01       		.uleb128 0x1
 15225 1e78 9C       		.byte	0x9c
 15226 1e79 9C1E0000 		.4byte	0x1e9c
 15227 1e7d 16       		.uleb128 0x16
 15228 1e7e 5B1F0000 		.4byte	.LASF298
 15229 1e82 01       		.byte	0x1
 15230 1e83 9005     		.2byte	0x590
 15231 1e85 620D0000 		.4byte	0xd62
 15232 1e89 02       		.uleb128 0x2
 15233 1e8a 91       		.byte	0x91
 15234 1e8b 74       		.sleb128 -12
 15235 1e8c 16       		.uleb128 0x16
 15236 1e8d A60E0000 		.4byte	.LASF303
 15237 1e91 01       		.byte	0x1
 15238 1e92 9005     		.2byte	0x590
 15239 1e94 9C1E0000 		.4byte	0x1e9c
 15240 1e98 02       		.uleb128 0x2
 15241 1e99 91       		.byte	0x91
 15242 1e9a 70       		.sleb128 -16
 15243 1e9b 00       		.byte	0
 15244 1e9c 11       		.uleb128 0x11
 15245 1e9d 04       		.byte	0x4
 15246 1e9e DF050000 		.4byte	0x5df
 15247 1ea2 15       		.uleb128 0x15
 15248 1ea3 94120000 		.4byte	.LASF373
 15249 1ea7 01       		.byte	0x1
 15250 1ea8 A105     		.2byte	0x5a1
 15251 1eaa F2000000 		.4byte	0xf2
 15252 1eae 20170000 		.4byte	.LFB66
 15253 1eb2 68000000 		.4byte	.LFE66-.LFB66
 15254 1eb6 01       		.uleb128 0x1
 15255 1eb7 9C       		.byte	0x9c
 15256 1eb8 EA1E0000 		.4byte	0x1eea
 15257 1ebc 16       		.uleb128 0x16
 15258 1ebd 5B1F0000 		.4byte	.LASF298
 15259 1ec1 01       		.byte	0x1
ARM GAS  /tmp/ccVYwGiK.s 			page 272


 15260 1ec2 A105     		.2byte	0x5a1
 15261 1ec4 620D0000 		.4byte	0xd62
 15262 1ec8 02       		.uleb128 0x2
 15263 1ec9 91       		.byte	0x91
 15264 1eca 6C       		.sleb128 -20
 15265 1ecb 16       		.uleb128 0x16
 15266 1ecc 600F0000 		.4byte	.LASF305
 15267 1ed0 01       		.byte	0x1
 15268 1ed1 A105     		.2byte	0x5a1
 15269 1ed3 01060000 		.4byte	0x601
 15270 1ed7 02       		.uleb128 0x2
 15271 1ed8 91       		.byte	0x91
 15272 1ed9 6B       		.sleb128 -21
 15273 1eda 13       		.uleb128 0x13
 15274 1edb A60E0000 		.4byte	.LASF303
 15275 1edf 01       		.byte	0x1
 15276 1ee0 A305     		.2byte	0x5a3
 15277 1ee2 6B000000 		.4byte	0x6b
 15278 1ee6 02       		.uleb128 0x2
 15279 1ee7 91       		.byte	0x91
 15280 1ee8 77       		.sleb128 -9
 15281 1ee9 00       		.byte	0
 15282 1eea 15       		.uleb128 0x15
 15283 1eeb 00190000 		.4byte	.LASF374
 15284 1eef 01       		.byte	0x1
 15285 1ef0 B805     		.2byte	0x5b8
 15286 1ef2 F2000000 		.4byte	0xf2
 15287 1ef6 90170000 		.4byte	.LFB67
 15288 1efa 36000000 		.4byte	.LFE67-.LFB67
 15289 1efe 01       		.uleb128 0x1
 15290 1eff 9C       		.byte	0x9c
 15291 1f00 231F0000 		.4byte	0x1f23
 15292 1f04 16       		.uleb128 0x16
 15293 1f05 5B1F0000 		.4byte	.LASF298
 15294 1f09 01       		.byte	0x1
 15295 1f0a B805     		.2byte	0x5b8
 15296 1f0c 620D0000 		.4byte	0xd62
 15297 1f10 02       		.uleb128 0x2
 15298 1f11 91       		.byte	0x91
 15299 1f12 74       		.sleb128 -12
 15300 1f13 16       		.uleb128 0x16
 15301 1f14 A60E0000 		.4byte	.LASF303
 15302 1f18 01       		.byte	0x1
 15303 1f19 B805     		.2byte	0x5b8
 15304 1f1b 231F0000 		.4byte	0x1f23
 15305 1f1f 02       		.uleb128 0x2
 15306 1f20 91       		.byte	0x91
 15307 1f21 70       		.sleb128 -16
 15308 1f22 00       		.byte	0
 15309 1f23 11       		.uleb128 0x11
 15310 1f24 04       		.byte	0x4
 15311 1f25 01060000 		.4byte	0x601
 15312 1f29 15       		.uleb128 0x15
 15313 1f2a A1320000 		.4byte	.LASF375
 15314 1f2e 01       		.byte	0x1
 15315 1f2f C905     		.2byte	0x5c9
 15316 1f31 F2000000 		.4byte	0xf2
ARM GAS  /tmp/ccVYwGiK.s 			page 273


 15317 1f35 D0170000 		.4byte	.LFB68
 15318 1f39 68000000 		.4byte	.LFE68-.LFB68
 15319 1f3d 01       		.uleb128 0x1
 15320 1f3e 9C       		.byte	0x9c
 15321 1f3f 711F0000 		.4byte	0x1f71
 15322 1f43 16       		.uleb128 0x16
 15323 1f44 5B1F0000 		.4byte	.LASF298
 15324 1f48 01       		.byte	0x1
 15325 1f49 C905     		.2byte	0x5c9
 15326 1f4b 620D0000 		.4byte	0xd62
 15327 1f4f 02       		.uleb128 0x2
 15328 1f50 91       		.byte	0x91
 15329 1f51 6C       		.sleb128 -20
 15330 1f52 16       		.uleb128 0x16
 15331 1f53 600F0000 		.4byte	.LASF305
 15332 1f57 01       		.byte	0x1
 15333 1f58 C905     		.2byte	0x5c9
 15334 1f5a 23060000 		.4byte	0x623
 15335 1f5e 02       		.uleb128 0x2
 15336 1f5f 91       		.byte	0x91
 15337 1f60 6B       		.sleb128 -21
 15338 1f61 13       		.uleb128 0x13
 15339 1f62 A60E0000 		.4byte	.LASF303
 15340 1f66 01       		.byte	0x1
 15341 1f67 CB05     		.2byte	0x5cb
 15342 1f69 6B000000 		.4byte	0x6b
 15343 1f6d 02       		.uleb128 0x2
 15344 1f6e 91       		.byte	0x91
 15345 1f6f 77       		.sleb128 -9
 15346 1f70 00       		.byte	0
 15347 1f71 15       		.uleb128 0x15
 15348 1f72 411B0000 		.4byte	.LASF376
 15349 1f76 01       		.byte	0x1
 15350 1f77 E005     		.2byte	0x5e0
 15351 1f79 F2000000 		.4byte	0xf2
 15352 1f7d 40180000 		.4byte	.LFB69
 15353 1f81 36000000 		.4byte	.LFE69-.LFB69
 15354 1f85 01       		.uleb128 0x1
 15355 1f86 9C       		.byte	0x9c
 15356 1f87 AA1F0000 		.4byte	0x1faa
 15357 1f8b 16       		.uleb128 0x16
 15358 1f8c 5B1F0000 		.4byte	.LASF298
 15359 1f90 01       		.byte	0x1
 15360 1f91 E005     		.2byte	0x5e0
 15361 1f93 620D0000 		.4byte	0xd62
 15362 1f97 02       		.uleb128 0x2
 15363 1f98 91       		.byte	0x91
 15364 1f99 74       		.sleb128 -12
 15365 1f9a 16       		.uleb128 0x16
 15366 1f9b A60E0000 		.4byte	.LASF303
 15367 1f9f 01       		.byte	0x1
 15368 1fa0 E005     		.2byte	0x5e0
 15369 1fa2 AA1F0000 		.4byte	0x1faa
 15370 1fa6 02       		.uleb128 0x2
 15371 1fa7 91       		.byte	0x91
 15372 1fa8 70       		.sleb128 -16
 15373 1fa9 00       		.byte	0
ARM GAS  /tmp/ccVYwGiK.s 			page 274


 15374 1faa 11       		.uleb128 0x11
 15375 1fab 04       		.byte	0x4
 15376 1fac 23060000 		.4byte	0x623
 15377 1fb0 15       		.uleb128 0x15
 15378 1fb1 79120000 		.4byte	.LASF377
 15379 1fb5 01       		.byte	0x1
 15380 1fb6 F105     		.2byte	0x5f1
 15381 1fb8 F2000000 		.4byte	0xf2
 15382 1fbc 80180000 		.4byte	.LFB70
 15383 1fc0 68000000 		.4byte	.LFE70-.LFB70
 15384 1fc4 01       		.uleb128 0x1
 15385 1fc5 9C       		.byte	0x9c
 15386 1fc6 F81F0000 		.4byte	0x1ff8
 15387 1fca 16       		.uleb128 0x16
 15388 1fcb 5B1F0000 		.4byte	.LASF298
 15389 1fcf 01       		.byte	0x1
 15390 1fd0 F105     		.2byte	0x5f1
 15391 1fd2 620D0000 		.4byte	0xd62
 15392 1fd6 02       		.uleb128 0x2
 15393 1fd7 91       		.byte	0x91
 15394 1fd8 6C       		.sleb128 -20
 15395 1fd9 16       		.uleb128 0x16
 15396 1fda 600F0000 		.4byte	.LASF305
 15397 1fde 01       		.byte	0x1
 15398 1fdf F105     		.2byte	0x5f1
 15399 1fe1 45060000 		.4byte	0x645
 15400 1fe5 02       		.uleb128 0x2
 15401 1fe6 91       		.byte	0x91
 15402 1fe7 6B       		.sleb128 -21
 15403 1fe8 13       		.uleb128 0x13
 15404 1fe9 A60E0000 		.4byte	.LASF303
 15405 1fed 01       		.byte	0x1
 15406 1fee F305     		.2byte	0x5f3
 15407 1ff0 6B000000 		.4byte	0x6b
 15408 1ff4 02       		.uleb128 0x2
 15409 1ff5 91       		.byte	0x91
 15410 1ff6 77       		.sleb128 -9
 15411 1ff7 00       		.byte	0
 15412 1ff8 15       		.uleb128 0x15
 15413 1ff9 8F1E0000 		.4byte	.LASF378
 15414 1ffd 01       		.byte	0x1
 15415 1ffe 0806     		.2byte	0x608
 15416 2000 F2000000 		.4byte	0xf2
 15417 2004 F0180000 		.4byte	.LFB71
 15418 2008 36000000 		.4byte	.LFE71-.LFB71
 15419 200c 01       		.uleb128 0x1
 15420 200d 9C       		.byte	0x9c
 15421 200e 31200000 		.4byte	0x2031
 15422 2012 16       		.uleb128 0x16
 15423 2013 5B1F0000 		.4byte	.LASF298
 15424 2017 01       		.byte	0x1
 15425 2018 0806     		.2byte	0x608
 15426 201a 620D0000 		.4byte	0xd62
 15427 201e 02       		.uleb128 0x2
 15428 201f 91       		.byte	0x91
 15429 2020 74       		.sleb128 -12
 15430 2021 16       		.uleb128 0x16
ARM GAS  /tmp/ccVYwGiK.s 			page 275


 15431 2022 A60E0000 		.4byte	.LASF303
 15432 2026 01       		.byte	0x1
 15433 2027 0806     		.2byte	0x608
 15434 2029 31200000 		.4byte	0x2031
 15435 202d 02       		.uleb128 0x2
 15436 202e 91       		.byte	0x91
 15437 202f 70       		.sleb128 -16
 15438 2030 00       		.byte	0
 15439 2031 11       		.uleb128 0x11
 15440 2032 04       		.byte	0x4
 15441 2033 45060000 		.4byte	0x645
 15442 2037 15       		.uleb128 0x15
 15443 2038 BF2C0000 		.4byte	.LASF379
 15444 203c 01       		.byte	0x1
 15445 203d 1906     		.2byte	0x619
 15446 203f F2000000 		.4byte	0xf2
 15447 2043 30190000 		.4byte	.LFB72
 15448 2047 68000000 		.4byte	.LFE72-.LFB72
 15449 204b 01       		.uleb128 0x1
 15450 204c 9C       		.byte	0x9c
 15451 204d 7F200000 		.4byte	0x207f
 15452 2051 16       		.uleb128 0x16
 15453 2052 5B1F0000 		.4byte	.LASF298
 15454 2056 01       		.byte	0x1
 15455 2057 1906     		.2byte	0x619
 15456 2059 620D0000 		.4byte	0xd62
 15457 205d 02       		.uleb128 0x2
 15458 205e 91       		.byte	0x91
 15459 205f 6C       		.sleb128 -20
 15460 2060 16       		.uleb128 0x16
 15461 2061 600F0000 		.4byte	.LASF305
 15462 2065 01       		.byte	0x1
 15463 2066 1906     		.2byte	0x619
 15464 2068 67060000 		.4byte	0x667
 15465 206c 02       		.uleb128 0x2
 15466 206d 91       		.byte	0x91
 15467 206e 6B       		.sleb128 -21
 15468 206f 13       		.uleb128 0x13
 15469 2070 A60E0000 		.4byte	.LASF303
 15470 2074 01       		.byte	0x1
 15471 2075 1B06     		.2byte	0x61b
 15472 2077 6B000000 		.4byte	0x6b
 15473 207b 02       		.uleb128 0x2
 15474 207c 91       		.byte	0x91
 15475 207d 77       		.sleb128 -9
 15476 207e 00       		.byte	0
 15477 207f 15       		.uleb128 0x15
 15478 2080 622B0000 		.4byte	.LASF380
 15479 2084 01       		.byte	0x1
 15480 2085 3006     		.2byte	0x630
 15481 2087 F2000000 		.4byte	0xf2
 15482 208b A0190000 		.4byte	.LFB73
 15483 208f 36000000 		.4byte	.LFE73-.LFB73
 15484 2093 01       		.uleb128 0x1
 15485 2094 9C       		.byte	0x9c
 15486 2095 B8200000 		.4byte	0x20b8
 15487 2099 16       		.uleb128 0x16
ARM GAS  /tmp/ccVYwGiK.s 			page 276


 15488 209a 5B1F0000 		.4byte	.LASF298
 15489 209e 01       		.byte	0x1
 15490 209f 3006     		.2byte	0x630
 15491 20a1 620D0000 		.4byte	0xd62
 15492 20a5 02       		.uleb128 0x2
 15493 20a6 91       		.byte	0x91
 15494 20a7 74       		.sleb128 -12
 15495 20a8 16       		.uleb128 0x16
 15496 20a9 A60E0000 		.4byte	.LASF303
 15497 20ad 01       		.byte	0x1
 15498 20ae 3006     		.2byte	0x630
 15499 20b0 B8200000 		.4byte	0x20b8
 15500 20b4 02       		.uleb128 0x2
 15501 20b5 91       		.byte	0x91
 15502 20b6 70       		.sleb128 -16
 15503 20b7 00       		.byte	0
 15504 20b8 11       		.uleb128 0x11
 15505 20b9 04       		.byte	0x4
 15506 20ba 67060000 		.4byte	0x667
 15507 20be 15       		.uleb128 0x15
 15508 20bf 38180000 		.4byte	.LASF381
 15509 20c3 01       		.byte	0x1
 15510 20c4 4106     		.2byte	0x641
 15511 20c6 F2000000 		.4byte	0xf2
 15512 20ca E0190000 		.4byte	.LFB74
 15513 20ce 68000000 		.4byte	.LFE74-.LFB74
 15514 20d2 01       		.uleb128 0x1
 15515 20d3 9C       		.byte	0x9c
 15516 20d4 06210000 		.4byte	0x2106
 15517 20d8 16       		.uleb128 0x16
 15518 20d9 5B1F0000 		.4byte	.LASF298
 15519 20dd 01       		.byte	0x1
 15520 20de 4106     		.2byte	0x641
 15521 20e0 620D0000 		.4byte	0xd62
 15522 20e4 02       		.uleb128 0x2
 15523 20e5 91       		.byte	0x91
 15524 20e6 6C       		.sleb128 -20
 15525 20e7 16       		.uleb128 0x16
 15526 20e8 600F0000 		.4byte	.LASF305
 15527 20ec 01       		.byte	0x1
 15528 20ed 4106     		.2byte	0x641
 15529 20ef 8A060000 		.4byte	0x68a
 15530 20f3 02       		.uleb128 0x2
 15531 20f4 91       		.byte	0x91
 15532 20f5 6B       		.sleb128 -21
 15533 20f6 13       		.uleb128 0x13
 15534 20f7 A60E0000 		.4byte	.LASF303
 15535 20fb 01       		.byte	0x1
 15536 20fc 4306     		.2byte	0x643
 15537 20fe 6B000000 		.4byte	0x6b
 15538 2102 02       		.uleb128 0x2
 15539 2103 91       		.byte	0x91
 15540 2104 77       		.sleb128 -9
 15541 2105 00       		.byte	0
 15542 2106 15       		.uleb128 0x15
 15543 2107 E00C0000 		.4byte	.LASF382
 15544 210b 01       		.byte	0x1
ARM GAS  /tmp/ccVYwGiK.s 			page 277


 15545 210c 5806     		.2byte	0x658
 15546 210e F2000000 		.4byte	0xf2
 15547 2112 501A0000 		.4byte	.LFB75
 15548 2116 36000000 		.4byte	.LFE75-.LFB75
 15549 211a 01       		.uleb128 0x1
 15550 211b 9C       		.byte	0x9c
 15551 211c 3F210000 		.4byte	0x213f
 15552 2120 16       		.uleb128 0x16
 15553 2121 5B1F0000 		.4byte	.LASF298
 15554 2125 01       		.byte	0x1
 15555 2126 5806     		.2byte	0x658
 15556 2128 620D0000 		.4byte	0xd62
 15557 212c 02       		.uleb128 0x2
 15558 212d 91       		.byte	0x91
 15559 212e 74       		.sleb128 -12
 15560 212f 16       		.uleb128 0x16
 15561 2130 A60E0000 		.4byte	.LASF303
 15562 2134 01       		.byte	0x1
 15563 2135 5806     		.2byte	0x658
 15564 2137 3F210000 		.4byte	0x213f
 15565 213b 02       		.uleb128 0x2
 15566 213c 91       		.byte	0x91
 15567 213d 70       		.sleb128 -16
 15568 213e 00       		.byte	0
 15569 213f 11       		.uleb128 0x11
 15570 2140 04       		.byte	0x4
 15571 2141 8A060000 		.4byte	0x68a
 15572 2145 15       		.uleb128 0x15
 15573 2146 06310000 		.4byte	.LASF383
 15574 214a 01       		.byte	0x1
 15575 214b 6906     		.2byte	0x669
 15576 214d F2000000 		.4byte	0xf2
 15577 2151 901A0000 		.4byte	.LFB76
 15578 2155 68000000 		.4byte	.LFE76-.LFB76
 15579 2159 01       		.uleb128 0x1
 15580 215a 9C       		.byte	0x9c
 15581 215b 8D210000 		.4byte	0x218d
 15582 215f 16       		.uleb128 0x16
 15583 2160 5B1F0000 		.4byte	.LASF298
 15584 2164 01       		.byte	0x1
 15585 2165 6906     		.2byte	0x669
 15586 2167 620D0000 		.4byte	0xd62
 15587 216b 02       		.uleb128 0x2
 15588 216c 91       		.byte	0x91
 15589 216d 6C       		.sleb128 -20
 15590 216e 16       		.uleb128 0x16
 15591 216f 600F0000 		.4byte	.LASF305
 15592 2173 01       		.byte	0x1
 15593 2174 6906     		.2byte	0x669
 15594 2176 AD060000 		.4byte	0x6ad
 15595 217a 02       		.uleb128 0x2
 15596 217b 91       		.byte	0x91
 15597 217c 6B       		.sleb128 -21
 15598 217d 13       		.uleb128 0x13
 15599 217e A60E0000 		.4byte	.LASF303
 15600 2182 01       		.byte	0x1
 15601 2183 6B06     		.2byte	0x66b
ARM GAS  /tmp/ccVYwGiK.s 			page 278


 15602 2185 6B000000 		.4byte	0x6b
 15603 2189 02       		.uleb128 0x2
 15604 218a 91       		.byte	0x91
 15605 218b 77       		.sleb128 -9
 15606 218c 00       		.byte	0
 15607 218d 15       		.uleb128 0x15
 15608 218e 45010000 		.4byte	.LASF384
 15609 2192 01       		.byte	0x1
 15610 2193 8006     		.2byte	0x680
 15611 2195 F2000000 		.4byte	0xf2
 15612 2199 001B0000 		.4byte	.LFB77
 15613 219d 36000000 		.4byte	.LFE77-.LFB77
 15614 21a1 01       		.uleb128 0x1
 15615 21a2 9C       		.byte	0x9c
 15616 21a3 C6210000 		.4byte	0x21c6
 15617 21a7 16       		.uleb128 0x16
 15618 21a8 5B1F0000 		.4byte	.LASF298
 15619 21ac 01       		.byte	0x1
 15620 21ad 8006     		.2byte	0x680
 15621 21af 620D0000 		.4byte	0xd62
 15622 21b3 02       		.uleb128 0x2
 15623 21b4 91       		.byte	0x91
 15624 21b5 74       		.sleb128 -12
 15625 21b6 16       		.uleb128 0x16
 15626 21b7 A60E0000 		.4byte	.LASF303
 15627 21bb 01       		.byte	0x1
 15628 21bc 8006     		.2byte	0x680
 15629 21be C6210000 		.4byte	0x21c6
 15630 21c2 02       		.uleb128 0x2
 15631 21c3 91       		.byte	0x91
 15632 21c4 70       		.sleb128 -16
 15633 21c5 00       		.byte	0
 15634 21c6 11       		.uleb128 0x11
 15635 21c7 04       		.byte	0x4
 15636 21c8 AD060000 		.4byte	0x6ad
 15637 21cc 15       		.uleb128 0x15
 15638 21cd 23310000 		.4byte	.LASF385
 15639 21d1 01       		.byte	0x1
 15640 21d2 9106     		.2byte	0x691
 15641 21d4 F2000000 		.4byte	0xf2
 15642 21d8 401B0000 		.4byte	.LFB78
 15643 21dc 68000000 		.4byte	.LFE78-.LFB78
 15644 21e0 01       		.uleb128 0x1
 15645 21e1 9C       		.byte	0x9c
 15646 21e2 14220000 		.4byte	0x2214
 15647 21e6 16       		.uleb128 0x16
 15648 21e7 5B1F0000 		.4byte	.LASF298
 15649 21eb 01       		.byte	0x1
 15650 21ec 9106     		.2byte	0x691
 15651 21ee 620D0000 		.4byte	0xd62
 15652 21f2 02       		.uleb128 0x2
 15653 21f3 91       		.byte	0x91
 15654 21f4 6C       		.sleb128 -20
 15655 21f5 16       		.uleb128 0x16
 15656 21f6 600F0000 		.4byte	.LASF305
 15657 21fa 01       		.byte	0x1
 15658 21fb 9106     		.2byte	0x691
ARM GAS  /tmp/ccVYwGiK.s 			page 279


 15659 21fd CF060000 		.4byte	0x6cf
 15660 2201 02       		.uleb128 0x2
 15661 2202 91       		.byte	0x91
 15662 2203 6B       		.sleb128 -21
 15663 2204 13       		.uleb128 0x13
 15664 2205 A60E0000 		.4byte	.LASF303
 15665 2209 01       		.byte	0x1
 15666 220a 9306     		.2byte	0x693
 15667 220c 6B000000 		.4byte	0x6b
 15668 2210 02       		.uleb128 0x2
 15669 2211 91       		.byte	0x91
 15670 2212 77       		.sleb128 -9
 15671 2213 00       		.byte	0
 15672 2214 15       		.uleb128 0x15
 15673 2215 AA050000 		.4byte	.LASF386
 15674 2219 01       		.byte	0x1
 15675 221a A806     		.2byte	0x6a8
 15676 221c F2000000 		.4byte	0xf2
 15677 2220 B01B0000 		.4byte	.LFB79
 15678 2224 36000000 		.4byte	.LFE79-.LFB79
 15679 2228 01       		.uleb128 0x1
 15680 2229 9C       		.byte	0x9c
 15681 222a 4D220000 		.4byte	0x224d
 15682 222e 16       		.uleb128 0x16
 15683 222f 5B1F0000 		.4byte	.LASF298
 15684 2233 01       		.byte	0x1
 15685 2234 A806     		.2byte	0x6a8
 15686 2236 620D0000 		.4byte	0xd62
 15687 223a 02       		.uleb128 0x2
 15688 223b 91       		.byte	0x91
 15689 223c 74       		.sleb128 -12
 15690 223d 16       		.uleb128 0x16
 15691 223e A60E0000 		.4byte	.LASF303
 15692 2242 01       		.byte	0x1
 15693 2243 A806     		.2byte	0x6a8
 15694 2245 4D220000 		.4byte	0x224d
 15695 2249 02       		.uleb128 0x2
 15696 224a 91       		.byte	0x91
 15697 224b 70       		.sleb128 -16
 15698 224c 00       		.byte	0
 15699 224d 11       		.uleb128 0x11
 15700 224e 04       		.byte	0x4
 15701 224f CF060000 		.4byte	0x6cf
 15702 2253 15       		.uleb128 0x15
 15703 2254 83250000 		.4byte	.LASF387
 15704 2258 01       		.byte	0x1
 15705 2259 B906     		.2byte	0x6b9
 15706 225b F2000000 		.4byte	0xf2
 15707 225f F01B0000 		.4byte	.LFB80
 15708 2263 68000000 		.4byte	.LFE80-.LFB80
 15709 2267 01       		.uleb128 0x1
 15710 2268 9C       		.byte	0x9c
 15711 2269 9B220000 		.4byte	0x229b
 15712 226d 16       		.uleb128 0x16
 15713 226e 5B1F0000 		.4byte	.LASF298
 15714 2272 01       		.byte	0x1
 15715 2273 B906     		.2byte	0x6b9
ARM GAS  /tmp/ccVYwGiK.s 			page 280


 15716 2275 620D0000 		.4byte	0xd62
 15717 2279 02       		.uleb128 0x2
 15718 227a 91       		.byte	0x91
 15719 227b 6C       		.sleb128 -20
 15720 227c 16       		.uleb128 0x16
 15721 227d 600F0000 		.4byte	.LASF305
 15722 2281 01       		.byte	0x1
 15723 2282 B906     		.2byte	0x6b9
 15724 2284 F1060000 		.4byte	0x6f1
 15725 2288 02       		.uleb128 0x2
 15726 2289 91       		.byte	0x91
 15727 228a 6B       		.sleb128 -21
 15728 228b 13       		.uleb128 0x13
 15729 228c A60E0000 		.4byte	.LASF303
 15730 2290 01       		.byte	0x1
 15731 2291 BB06     		.2byte	0x6bb
 15732 2293 6B000000 		.4byte	0x6b
 15733 2297 02       		.uleb128 0x2
 15734 2298 91       		.byte	0x91
 15735 2299 77       		.sleb128 -9
 15736 229a 00       		.byte	0
 15737 229b 15       		.uleb128 0x15
 15738 229c 5B1C0000 		.4byte	.LASF388
 15739 22a0 01       		.byte	0x1
 15740 22a1 D006     		.2byte	0x6d0
 15741 22a3 F2000000 		.4byte	0xf2
 15742 22a7 601C0000 		.4byte	.LFB81
 15743 22ab 36000000 		.4byte	.LFE81-.LFB81
 15744 22af 01       		.uleb128 0x1
 15745 22b0 9C       		.byte	0x9c
 15746 22b1 D4220000 		.4byte	0x22d4
 15747 22b5 16       		.uleb128 0x16
 15748 22b6 5B1F0000 		.4byte	.LASF298
 15749 22ba 01       		.byte	0x1
 15750 22bb D006     		.2byte	0x6d0
 15751 22bd 620D0000 		.4byte	0xd62
 15752 22c1 02       		.uleb128 0x2
 15753 22c2 91       		.byte	0x91
 15754 22c3 74       		.sleb128 -12
 15755 22c4 16       		.uleb128 0x16
 15756 22c5 A60E0000 		.4byte	.LASF303
 15757 22c9 01       		.byte	0x1
 15758 22ca D006     		.2byte	0x6d0
 15759 22cc D4220000 		.4byte	0x22d4
 15760 22d0 02       		.uleb128 0x2
 15761 22d1 91       		.byte	0x91
 15762 22d2 70       		.sleb128 -16
 15763 22d3 00       		.byte	0
 15764 22d4 11       		.uleb128 0x11
 15765 22d5 04       		.byte	0x4
 15766 22d6 F1060000 		.4byte	0x6f1
 15767 22da 15       		.uleb128 0x15
 15768 22db 2F250000 		.4byte	.LASF389
 15769 22df 01       		.byte	0x1
 15770 22e0 E106     		.2byte	0x6e1
 15771 22e2 F2000000 		.4byte	0xf2
 15772 22e6 A01C0000 		.4byte	.LFB82
ARM GAS  /tmp/ccVYwGiK.s 			page 281


 15773 22ea 68000000 		.4byte	.LFE82-.LFB82
 15774 22ee 01       		.uleb128 0x1
 15775 22ef 9C       		.byte	0x9c
 15776 22f0 22230000 		.4byte	0x2322
 15777 22f4 16       		.uleb128 0x16
 15778 22f5 5B1F0000 		.4byte	.LASF298
 15779 22f9 01       		.byte	0x1
 15780 22fa E106     		.2byte	0x6e1
 15781 22fc 620D0000 		.4byte	0xd62
 15782 2300 02       		.uleb128 0x2
 15783 2301 91       		.byte	0x91
 15784 2302 6C       		.sleb128 -20
 15785 2303 16       		.uleb128 0x16
 15786 2304 600F0000 		.4byte	.LASF305
 15787 2308 01       		.byte	0x1
 15788 2309 E106     		.2byte	0x6e1
 15789 230b 13070000 		.4byte	0x713
 15790 230f 02       		.uleb128 0x2
 15791 2310 91       		.byte	0x91
 15792 2311 6B       		.sleb128 -21
 15793 2312 13       		.uleb128 0x13
 15794 2313 A60E0000 		.4byte	.LASF303
 15795 2317 01       		.byte	0x1
 15796 2318 E306     		.2byte	0x6e3
 15797 231a 6B000000 		.4byte	0x6b
 15798 231e 02       		.uleb128 0x2
 15799 231f 91       		.byte	0x91
 15800 2320 77       		.sleb128 -9
 15801 2321 00       		.byte	0
 15802 2322 15       		.uleb128 0x15
 15803 2323 EF290000 		.4byte	.LASF390
 15804 2327 01       		.byte	0x1
 15805 2328 F806     		.2byte	0x6f8
 15806 232a F2000000 		.4byte	0xf2
 15807 232e 101D0000 		.4byte	.LFB83
 15808 2332 36000000 		.4byte	.LFE83-.LFB83
 15809 2336 01       		.uleb128 0x1
 15810 2337 9C       		.byte	0x9c
 15811 2338 5B230000 		.4byte	0x235b
 15812 233c 16       		.uleb128 0x16
 15813 233d 5B1F0000 		.4byte	.LASF298
 15814 2341 01       		.byte	0x1
 15815 2342 F806     		.2byte	0x6f8
 15816 2344 620D0000 		.4byte	0xd62
 15817 2348 02       		.uleb128 0x2
 15818 2349 91       		.byte	0x91
 15819 234a 74       		.sleb128 -12
 15820 234b 16       		.uleb128 0x16
 15821 234c A60E0000 		.4byte	.LASF303
 15822 2350 01       		.byte	0x1
 15823 2351 F806     		.2byte	0x6f8
 15824 2353 5B230000 		.4byte	0x235b
 15825 2357 02       		.uleb128 0x2
 15826 2358 91       		.byte	0x91
 15827 2359 70       		.sleb128 -16
 15828 235a 00       		.byte	0
 15829 235b 11       		.uleb128 0x11
ARM GAS  /tmp/ccVYwGiK.s 			page 282


 15830 235c 04       		.byte	0x4
 15831 235d 13070000 		.4byte	0x713
 15832 2361 15       		.uleb128 0x15
 15833 2362 0F090000 		.4byte	.LASF391
 15834 2366 01       		.byte	0x1
 15835 2367 0907     		.2byte	0x709
 15836 2369 F2000000 		.4byte	0xf2
 15837 236d 501D0000 		.4byte	.LFB84
 15838 2371 68000000 		.4byte	.LFE84-.LFB84
 15839 2375 01       		.uleb128 0x1
 15840 2376 9C       		.byte	0x9c
 15841 2377 A9230000 		.4byte	0x23a9
 15842 237b 16       		.uleb128 0x16
 15843 237c 5B1F0000 		.4byte	.LASF298
 15844 2380 01       		.byte	0x1
 15845 2381 0907     		.2byte	0x709
 15846 2383 620D0000 		.4byte	0xd62
 15847 2387 02       		.uleb128 0x2
 15848 2388 91       		.byte	0x91
 15849 2389 6C       		.sleb128 -20
 15850 238a 16       		.uleb128 0x16
 15851 238b 600F0000 		.4byte	.LASF305
 15852 238f 01       		.byte	0x1
 15853 2390 0907     		.2byte	0x709
 15854 2392 35070000 		.4byte	0x735
 15855 2396 02       		.uleb128 0x2
 15856 2397 91       		.byte	0x91
 15857 2398 6B       		.sleb128 -21
 15858 2399 13       		.uleb128 0x13
 15859 239a A60E0000 		.4byte	.LASF303
 15860 239e 01       		.byte	0x1
 15861 239f 0B07     		.2byte	0x70b
 15862 23a1 6B000000 		.4byte	0x6b
 15863 23a5 02       		.uleb128 0x2
 15864 23a6 91       		.byte	0x91
 15865 23a7 77       		.sleb128 -9
 15866 23a8 00       		.byte	0
 15867 23a9 15       		.uleb128 0x15
 15868 23aa 1B220000 		.4byte	.LASF392
 15869 23ae 01       		.byte	0x1
 15870 23af 2007     		.2byte	0x720
 15871 23b1 F2000000 		.4byte	0xf2
 15872 23b5 C01D0000 		.4byte	.LFB85
 15873 23b9 36000000 		.4byte	.LFE85-.LFB85
 15874 23bd 01       		.uleb128 0x1
 15875 23be 9C       		.byte	0x9c
 15876 23bf E2230000 		.4byte	0x23e2
 15877 23c3 16       		.uleb128 0x16
 15878 23c4 5B1F0000 		.4byte	.LASF298
 15879 23c8 01       		.byte	0x1
 15880 23c9 2007     		.2byte	0x720
 15881 23cb 620D0000 		.4byte	0xd62
 15882 23cf 02       		.uleb128 0x2
 15883 23d0 91       		.byte	0x91
 15884 23d1 74       		.sleb128 -12
 15885 23d2 16       		.uleb128 0x16
 15886 23d3 A60E0000 		.4byte	.LASF303
ARM GAS  /tmp/ccVYwGiK.s 			page 283


 15887 23d7 01       		.byte	0x1
 15888 23d8 2007     		.2byte	0x720
 15889 23da E2230000 		.4byte	0x23e2
 15890 23de 02       		.uleb128 0x2
 15891 23df 91       		.byte	0x91
 15892 23e0 70       		.sleb128 -16
 15893 23e1 00       		.byte	0
 15894 23e2 11       		.uleb128 0x11
 15895 23e3 04       		.byte	0x4
 15896 23e4 35070000 		.4byte	0x735
 15897 23e8 15       		.uleb128 0x15
 15898 23e9 F4080000 		.4byte	.LASF393
 15899 23ed 01       		.byte	0x1
 15900 23ee 3107     		.2byte	0x731
 15901 23f0 F2000000 		.4byte	0xf2
 15902 23f4 001E0000 		.4byte	.LFB86
 15903 23f8 68000000 		.4byte	.LFE86-.LFB86
 15904 23fc 01       		.uleb128 0x1
 15905 23fd 9C       		.byte	0x9c
 15906 23fe 30240000 		.4byte	0x2430
 15907 2402 16       		.uleb128 0x16
 15908 2403 5B1F0000 		.4byte	.LASF298
 15909 2407 01       		.byte	0x1
 15910 2408 3107     		.2byte	0x731
 15911 240a 620D0000 		.4byte	0xd62
 15912 240e 02       		.uleb128 0x2
 15913 240f 91       		.byte	0x91
 15914 2410 6C       		.sleb128 -20
 15915 2411 16       		.uleb128 0x16
 15916 2412 600F0000 		.4byte	.LASF305
 15917 2416 01       		.byte	0x1
 15918 2417 3107     		.2byte	0x731
 15919 2419 58070000 		.4byte	0x758
 15920 241d 02       		.uleb128 0x2
 15921 241e 91       		.byte	0x91
 15922 241f 6B       		.sleb128 -21
 15923 2420 13       		.uleb128 0x13
 15924 2421 A60E0000 		.4byte	.LASF303
 15925 2425 01       		.byte	0x1
 15926 2426 3307     		.2byte	0x733
 15927 2428 6B000000 		.4byte	0x6b
 15928 242c 02       		.uleb128 0x2
 15929 242d 91       		.byte	0x91
 15930 242e 77       		.sleb128 -9
 15931 242f 00       		.byte	0
 15932 2430 15       		.uleb128 0x15
 15933 2431 DF2D0000 		.4byte	.LASF394
 15934 2435 01       		.byte	0x1
 15935 2436 4807     		.2byte	0x748
 15936 2438 F2000000 		.4byte	0xf2
 15937 243c 701E0000 		.4byte	.LFB87
 15938 2440 36000000 		.4byte	.LFE87-.LFB87
 15939 2444 01       		.uleb128 0x1
 15940 2445 9C       		.byte	0x9c
 15941 2446 69240000 		.4byte	0x2469
 15942 244a 16       		.uleb128 0x16
 15943 244b 5B1F0000 		.4byte	.LASF298
ARM GAS  /tmp/ccVYwGiK.s 			page 284


 15944 244f 01       		.byte	0x1
 15945 2450 4807     		.2byte	0x748
 15946 2452 620D0000 		.4byte	0xd62
 15947 2456 02       		.uleb128 0x2
 15948 2457 91       		.byte	0x91
 15949 2458 74       		.sleb128 -12
 15950 2459 16       		.uleb128 0x16
 15951 245a A60E0000 		.4byte	.LASF303
 15952 245e 01       		.byte	0x1
 15953 245f 4807     		.2byte	0x748
 15954 2461 69240000 		.4byte	0x2469
 15955 2465 02       		.uleb128 0x2
 15956 2466 91       		.byte	0x91
 15957 2467 70       		.sleb128 -16
 15958 2468 00       		.byte	0
 15959 2469 11       		.uleb128 0x11
 15960 246a 04       		.byte	0x4
 15961 246b 58070000 		.4byte	0x758
 15962 246f 15       		.uleb128 0x15
 15963 2470 62110000 		.4byte	.LASF395
 15964 2474 01       		.byte	0x1
 15965 2475 5907     		.2byte	0x759
 15966 2477 F2000000 		.4byte	0xf2
 15967 247b B01E0000 		.4byte	.LFB88
 15968 247f 68000000 		.4byte	.LFE88-.LFB88
 15969 2483 01       		.uleb128 0x1
 15970 2484 9C       		.byte	0x9c
 15971 2485 B7240000 		.4byte	0x24b7
 15972 2489 16       		.uleb128 0x16
 15973 248a 5B1F0000 		.4byte	.LASF298
 15974 248e 01       		.byte	0x1
 15975 248f 5907     		.2byte	0x759
 15976 2491 620D0000 		.4byte	0xd62
 15977 2495 02       		.uleb128 0x2
 15978 2496 91       		.byte	0x91
 15979 2497 6C       		.sleb128 -20
 15980 2498 16       		.uleb128 0x16
 15981 2499 600F0000 		.4byte	.LASF305
 15982 249d 01       		.byte	0x1
 15983 249e 5907     		.2byte	0x759
 15984 24a0 7B070000 		.4byte	0x77b
 15985 24a4 02       		.uleb128 0x2
 15986 24a5 91       		.byte	0x91
 15987 24a6 6B       		.sleb128 -21
 15988 24a7 13       		.uleb128 0x13
 15989 24a8 A60E0000 		.4byte	.LASF303
 15990 24ac 01       		.byte	0x1
 15991 24ad 5B07     		.2byte	0x75b
 15992 24af 6B000000 		.4byte	0x6b
 15993 24b3 02       		.uleb128 0x2
 15994 24b4 91       		.byte	0x91
 15995 24b5 77       		.sleb128 -9
 15996 24b6 00       		.byte	0
 15997 24b7 15       		.uleb128 0x15
 15998 24b8 B2290000 		.4byte	.LASF396
 15999 24bc 01       		.byte	0x1
 16000 24bd 7007     		.2byte	0x770
ARM GAS  /tmp/ccVYwGiK.s 			page 285


 16001 24bf F2000000 		.4byte	0xf2
 16002 24c3 201F0000 		.4byte	.LFB89
 16003 24c7 36000000 		.4byte	.LFE89-.LFB89
 16004 24cb 01       		.uleb128 0x1
 16005 24cc 9C       		.byte	0x9c
 16006 24cd F0240000 		.4byte	0x24f0
 16007 24d1 16       		.uleb128 0x16
 16008 24d2 5B1F0000 		.4byte	.LASF298
 16009 24d6 01       		.byte	0x1
 16010 24d7 7007     		.2byte	0x770
 16011 24d9 620D0000 		.4byte	0xd62
 16012 24dd 02       		.uleb128 0x2
 16013 24de 91       		.byte	0x91
 16014 24df 74       		.sleb128 -12
 16015 24e0 16       		.uleb128 0x16
 16016 24e1 A60E0000 		.4byte	.LASF303
 16017 24e5 01       		.byte	0x1
 16018 24e6 7007     		.2byte	0x770
 16019 24e8 F0240000 		.4byte	0x24f0
 16020 24ec 02       		.uleb128 0x2
 16021 24ed 91       		.byte	0x91
 16022 24ee 70       		.sleb128 -16
 16023 24ef 00       		.byte	0
 16024 24f0 11       		.uleb128 0x11
 16025 24f1 04       		.byte	0x4
 16026 24f2 7B070000 		.4byte	0x77b
 16027 24f6 15       		.uleb128 0x15
 16028 24f7 01230000 		.4byte	.LASF397
 16029 24fb 01       		.byte	0x1
 16030 24fc 8107     		.2byte	0x781
 16031 24fe F2000000 		.4byte	0xf2
 16032 2502 601F0000 		.4byte	.LFB90
 16033 2506 60000000 		.4byte	.LFE90-.LFB90
 16034 250a 01       		.uleb128 0x1
 16035 250b 9C       		.byte	0x9c
 16036 250c 3E250000 		.4byte	0x253e
 16037 2510 16       		.uleb128 0x16
 16038 2511 5B1F0000 		.4byte	.LASF298
 16039 2515 01       		.byte	0x1
 16040 2516 8107     		.2byte	0x781
 16041 2518 620D0000 		.4byte	0xd62
 16042 251c 02       		.uleb128 0x2
 16043 251d 91       		.byte	0x91
 16044 251e 6C       		.sleb128 -20
 16045 251f 16       		.uleb128 0x16
 16046 2520 600F0000 		.4byte	.LASF305
 16047 2524 01       		.byte	0x1
 16048 2525 8107     		.2byte	0x781
 16049 2527 6B000000 		.4byte	0x6b
 16050 252b 02       		.uleb128 0x2
 16051 252c 91       		.byte	0x91
 16052 252d 6B       		.sleb128 -21
 16053 252e 13       		.uleb128 0x13
 16054 252f A60E0000 		.4byte	.LASF303
 16055 2533 01       		.byte	0x1
 16056 2534 8307     		.2byte	0x783
 16057 2536 6B000000 		.4byte	0x6b
ARM GAS  /tmp/ccVYwGiK.s 			page 286


 16058 253a 02       		.uleb128 0x2
 16059 253b 91       		.byte	0x91
 16060 253c 77       		.sleb128 -9
 16061 253d 00       		.byte	0
 16062 253e 15       		.uleb128 0x15
 16063 253f 1C2D0000 		.4byte	.LASF398
 16064 2543 01       		.byte	0x1
 16065 2544 9B07     		.2byte	0x79b
 16066 2546 F2000000 		.4byte	0xf2
 16067 254a C01F0000 		.4byte	.LFB91
 16068 254e 38000000 		.4byte	.LFE91-.LFB91
 16069 2552 01       		.uleb128 0x1
 16070 2553 9C       		.byte	0x9c
 16071 2554 77250000 		.4byte	0x2577
 16072 2558 16       		.uleb128 0x16
 16073 2559 5B1F0000 		.4byte	.LASF298
 16074 255d 01       		.byte	0x1
 16075 255e 9B07     		.2byte	0x79b
 16076 2560 620D0000 		.4byte	0xd62
 16077 2564 02       		.uleb128 0x2
 16078 2565 91       		.byte	0x91
 16079 2566 74       		.sleb128 -12
 16080 2567 16       		.uleb128 0x16
 16081 2568 A60E0000 		.4byte	.LASF303
 16082 256c 01       		.byte	0x1
 16083 256d 9B07     		.2byte	0x79b
 16084 256f 640D0000 		.4byte	0xd64
 16085 2573 02       		.uleb128 0x2
 16086 2574 91       		.byte	0x91
 16087 2575 70       		.sleb128 -16
 16088 2576 00       		.byte	0
 16089 2577 15       		.uleb128 0x15
 16090 2578 180D0000 		.4byte	.LASF399
 16091 257c 01       		.byte	0x1
 16092 257d AD07     		.2byte	0x7ad
 16093 257f F2000000 		.4byte	0xf2
 16094 2583 00200000 		.4byte	.LFB92
 16095 2587 36000000 		.4byte	.LFE92-.LFB92
 16096 258b 01       		.uleb128 0x1
 16097 258c 9C       		.byte	0x9c
 16098 258d B0250000 		.4byte	0x25b0
 16099 2591 16       		.uleb128 0x16
 16100 2592 5B1F0000 		.4byte	.LASF298
 16101 2596 01       		.byte	0x1
 16102 2597 AD07     		.2byte	0x7ad
 16103 2599 620D0000 		.4byte	0xd62
 16104 259d 02       		.uleb128 0x2
 16105 259e 91       		.byte	0x91
 16106 259f 74       		.sleb128 -12
 16107 25a0 16       		.uleb128 0x16
 16108 25a1 A60E0000 		.4byte	.LASF303
 16109 25a5 01       		.byte	0x1
 16110 25a6 AD07     		.2byte	0x7ad
 16111 25a8 B0250000 		.4byte	0x25b0
 16112 25ac 02       		.uleb128 0x2
 16113 25ad 91       		.byte	0x91
 16114 25ae 70       		.sleb128 -16
ARM GAS  /tmp/ccVYwGiK.s 			page 287


 16115 25af 00       		.byte	0
 16116 25b0 11       		.uleb128 0x11
 16117 25b1 04       		.byte	0x4
 16118 25b2 9D070000 		.4byte	0x79d
 16119 25b6 15       		.uleb128 0x15
 16120 25b7 141D0000 		.4byte	.LASF400
 16121 25bb 01       		.byte	0x1
 16122 25bc BE07     		.2byte	0x7be
 16123 25be F2000000 		.4byte	0xf2
 16124 25c2 40200000 		.4byte	.LFB93
 16125 25c6 36000000 		.4byte	.LFE93-.LFB93
 16126 25ca 01       		.uleb128 0x1
 16127 25cb 9C       		.byte	0x9c
 16128 25cc EF250000 		.4byte	0x25ef
 16129 25d0 16       		.uleb128 0x16
 16130 25d1 5B1F0000 		.4byte	.LASF298
 16131 25d5 01       		.byte	0x1
 16132 25d6 BE07     		.2byte	0x7be
 16133 25d8 620D0000 		.4byte	0xd62
 16134 25dc 02       		.uleb128 0x2
 16135 25dd 91       		.byte	0x91
 16136 25de 74       		.sleb128 -12
 16137 25df 16       		.uleb128 0x16
 16138 25e0 A60E0000 		.4byte	.LASF303
 16139 25e4 01       		.byte	0x1
 16140 25e5 BE07     		.2byte	0x7be
 16141 25e7 EF250000 		.4byte	0x25ef
 16142 25eb 02       		.uleb128 0x2
 16143 25ec 91       		.byte	0x91
 16144 25ed 70       		.sleb128 -16
 16145 25ee 00       		.byte	0
 16146 25ef 11       		.uleb128 0x11
 16147 25f0 04       		.byte	0x4
 16148 25f1 BF070000 		.4byte	0x7bf
 16149 25f5 15       		.uleb128 0x15
 16150 25f6 632D0000 		.4byte	.LASF401
 16151 25fa 01       		.byte	0x1
 16152 25fb CF07     		.2byte	0x7cf
 16153 25fd F2000000 		.4byte	0xf2
 16154 2601 80200000 		.4byte	.LFB94
 16155 2605 36000000 		.4byte	.LFE94-.LFB94
 16156 2609 01       		.uleb128 0x1
 16157 260a 9C       		.byte	0x9c
 16158 260b 2E260000 		.4byte	0x262e
 16159 260f 16       		.uleb128 0x16
 16160 2610 5B1F0000 		.4byte	.LASF298
 16161 2614 01       		.byte	0x1
 16162 2615 CF07     		.2byte	0x7cf
 16163 2617 620D0000 		.4byte	0xd62
 16164 261b 02       		.uleb128 0x2
 16165 261c 91       		.byte	0x91
 16166 261d 74       		.sleb128 -12
 16167 261e 16       		.uleb128 0x16
 16168 261f A60E0000 		.4byte	.LASF303
 16169 2623 01       		.byte	0x1
 16170 2624 CF07     		.2byte	0x7cf
 16171 2626 2E260000 		.4byte	0x262e
ARM GAS  /tmp/ccVYwGiK.s 			page 288


 16172 262a 02       		.uleb128 0x2
 16173 262b 91       		.byte	0x91
 16174 262c 70       		.sleb128 -16
 16175 262d 00       		.byte	0
 16176 262e 11       		.uleb128 0x11
 16177 262f 04       		.byte	0x4
 16178 2630 E1070000 		.4byte	0x7e1
 16179 2634 15       		.uleb128 0x15
 16180 2635 E1200000 		.4byte	.LASF402
 16181 2639 01       		.byte	0x1
 16182 263a E007     		.2byte	0x7e0
 16183 263c F2000000 		.4byte	0xf2
 16184 2640 C0200000 		.4byte	.LFB95
 16185 2644 36000000 		.4byte	.LFE95-.LFB95
 16186 2648 01       		.uleb128 0x1
 16187 2649 9C       		.byte	0x9c
 16188 264a 6D260000 		.4byte	0x266d
 16189 264e 16       		.uleb128 0x16
 16190 264f 5B1F0000 		.4byte	.LASF298
 16191 2653 01       		.byte	0x1
 16192 2654 E007     		.2byte	0x7e0
 16193 2656 620D0000 		.4byte	0xd62
 16194 265a 02       		.uleb128 0x2
 16195 265b 91       		.byte	0x91
 16196 265c 74       		.sleb128 -12
 16197 265d 16       		.uleb128 0x16
 16198 265e A60E0000 		.4byte	.LASF303
 16199 2662 01       		.byte	0x1
 16200 2663 E007     		.2byte	0x7e0
 16201 2665 6D260000 		.4byte	0x266d
 16202 2669 02       		.uleb128 0x2
 16203 266a 91       		.byte	0x91
 16204 266b 70       		.sleb128 -16
 16205 266c 00       		.byte	0
 16206 266d 11       		.uleb128 0x11
 16207 266e 04       		.byte	0x4
 16208 266f 03080000 		.4byte	0x803
 16209 2673 15       		.uleb128 0x15
 16210 2674 A6190000 		.4byte	.LASF403
 16211 2678 01       		.byte	0x1
 16212 2679 F107     		.2byte	0x7f1
 16213 267b F2000000 		.4byte	0xf2
 16214 267f 00210000 		.4byte	.LFB96
 16215 2683 36000000 		.4byte	.LFE96-.LFB96
 16216 2687 01       		.uleb128 0x1
 16217 2688 9C       		.byte	0x9c
 16218 2689 AC260000 		.4byte	0x26ac
 16219 268d 16       		.uleb128 0x16
 16220 268e 5B1F0000 		.4byte	.LASF298
 16221 2692 01       		.byte	0x1
 16222 2693 F107     		.2byte	0x7f1
 16223 2695 620D0000 		.4byte	0xd62
 16224 2699 02       		.uleb128 0x2
 16225 269a 91       		.byte	0x91
 16226 269b 74       		.sleb128 -12
 16227 269c 16       		.uleb128 0x16
 16228 269d A60E0000 		.4byte	.LASF303
ARM GAS  /tmp/ccVYwGiK.s 			page 289


 16229 26a1 01       		.byte	0x1
 16230 26a2 F107     		.2byte	0x7f1
 16231 26a4 AC260000 		.4byte	0x26ac
 16232 26a8 02       		.uleb128 0x2
 16233 26a9 91       		.byte	0x91
 16234 26aa 70       		.sleb128 -16
 16235 26ab 00       		.byte	0
 16236 26ac 11       		.uleb128 0x11
 16237 26ad 04       		.byte	0x4
 16238 26ae 25080000 		.4byte	0x825
 16239 26b2 15       		.uleb128 0x15
 16240 26b3 57310000 		.4byte	.LASF404
 16241 26b7 01       		.byte	0x1
 16242 26b8 0208     		.2byte	0x802
 16243 26ba F2000000 		.4byte	0xf2
 16244 26be 40210000 		.4byte	.LFB97
 16245 26c2 36000000 		.4byte	.LFE97-.LFB97
 16246 26c6 01       		.uleb128 0x1
 16247 26c7 9C       		.byte	0x9c
 16248 26c8 EB260000 		.4byte	0x26eb
 16249 26cc 16       		.uleb128 0x16
 16250 26cd 5B1F0000 		.4byte	.LASF298
 16251 26d1 01       		.byte	0x1
 16252 26d2 0208     		.2byte	0x802
 16253 26d4 620D0000 		.4byte	0xd62
 16254 26d8 02       		.uleb128 0x2
 16255 26d9 91       		.byte	0x91
 16256 26da 74       		.sleb128 -12
 16257 26db 16       		.uleb128 0x16
 16258 26dc A60E0000 		.4byte	.LASF303
 16259 26e0 01       		.byte	0x1
 16260 26e1 0208     		.2byte	0x802
 16261 26e3 EB260000 		.4byte	0x26eb
 16262 26e7 02       		.uleb128 0x2
 16263 26e8 91       		.byte	0x91
 16264 26e9 70       		.sleb128 -16
 16265 26ea 00       		.byte	0
 16266 26eb 11       		.uleb128 0x11
 16267 26ec 04       		.byte	0x4
 16268 26ed 47080000 		.4byte	0x847
 16269 26f1 15       		.uleb128 0x15
 16270 26f2 41070000 		.4byte	.LASF405
 16271 26f6 01       		.byte	0x1
 16272 26f7 1308     		.2byte	0x813
 16273 26f9 F2000000 		.4byte	0xf2
 16274 26fd 80210000 		.4byte	.LFB98
 16275 2701 36000000 		.4byte	.LFE98-.LFB98
 16276 2705 01       		.uleb128 0x1
 16277 2706 9C       		.byte	0x9c
 16278 2707 2A270000 		.4byte	0x272a
 16279 270b 16       		.uleb128 0x16
 16280 270c 5B1F0000 		.4byte	.LASF298
 16281 2710 01       		.byte	0x1
 16282 2711 1308     		.2byte	0x813
 16283 2713 620D0000 		.4byte	0xd62
 16284 2717 02       		.uleb128 0x2
 16285 2718 91       		.byte	0x91
ARM GAS  /tmp/ccVYwGiK.s 			page 290


 16286 2719 74       		.sleb128 -12
 16287 271a 16       		.uleb128 0x16
 16288 271b A60E0000 		.4byte	.LASF303
 16289 271f 01       		.byte	0x1
 16290 2720 1308     		.2byte	0x813
 16291 2722 2A270000 		.4byte	0x272a
 16292 2726 02       		.uleb128 0x2
 16293 2727 91       		.byte	0x91
 16294 2728 70       		.sleb128 -16
 16295 2729 00       		.byte	0
 16296 272a 11       		.uleb128 0x11
 16297 272b 04       		.byte	0x4
 16298 272c 6A080000 		.4byte	0x86a
 16299 2730 15       		.uleb128 0x15
 16300 2731 50180000 		.4byte	.LASF406
 16301 2735 01       		.byte	0x1
 16302 2736 2408     		.2byte	0x824
 16303 2738 F2000000 		.4byte	0xf2
 16304 273c C0210000 		.4byte	.LFB99
 16305 2740 36000000 		.4byte	.LFE99-.LFB99
 16306 2744 01       		.uleb128 0x1
 16307 2745 9C       		.byte	0x9c
 16308 2746 69270000 		.4byte	0x2769
 16309 274a 16       		.uleb128 0x16
 16310 274b 5B1F0000 		.4byte	.LASF298
 16311 274f 01       		.byte	0x1
 16312 2750 2408     		.2byte	0x824
 16313 2752 620D0000 		.4byte	0xd62
 16314 2756 02       		.uleb128 0x2
 16315 2757 91       		.byte	0x91
 16316 2758 74       		.sleb128 -12
 16317 2759 16       		.uleb128 0x16
 16318 275a A60E0000 		.4byte	.LASF303
 16319 275e 01       		.byte	0x1
 16320 275f 2408     		.2byte	0x824
 16321 2761 69270000 		.4byte	0x2769
 16322 2765 02       		.uleb128 0x2
 16323 2766 91       		.byte	0x91
 16324 2767 70       		.sleb128 -16
 16325 2768 00       		.byte	0
 16326 2769 11       		.uleb128 0x11
 16327 276a 04       		.byte	0x4
 16328 276b 8D080000 		.4byte	0x88d
 16329 276f 15       		.uleb128 0x15
 16330 2770 65250000 		.4byte	.LASF407
 16331 2774 01       		.byte	0x1
 16332 2775 3508     		.2byte	0x835
 16333 2777 F2000000 		.4byte	0xf2
 16334 277b 00220000 		.4byte	.LFB100
 16335 277f 74000000 		.4byte	.LFE100-.LFB100
 16336 2783 01       		.uleb128 0x1
 16337 2784 9C       		.byte	0x9c
 16338 2785 B7270000 		.4byte	0x27b7
 16339 2789 16       		.uleb128 0x16
 16340 278a 5B1F0000 		.4byte	.LASF298
 16341 278e 01       		.byte	0x1
 16342 278f 3508     		.2byte	0x835
ARM GAS  /tmp/ccVYwGiK.s 			page 291


 16343 2791 620D0000 		.4byte	0xd62
 16344 2795 02       		.uleb128 0x2
 16345 2796 91       		.byte	0x91
 16346 2797 6C       		.sleb128 -20
 16347 2798 16       		.uleb128 0x16
 16348 2799 600F0000 		.4byte	.LASF305
 16349 279d 01       		.byte	0x1
 16350 279e 3508     		.2byte	0x835
 16351 27a0 6B000000 		.4byte	0x6b
 16352 27a4 02       		.uleb128 0x2
 16353 27a5 91       		.byte	0x91
 16354 27a6 6B       		.sleb128 -21
 16355 27a7 13       		.uleb128 0x13
 16356 27a8 A60E0000 		.4byte	.LASF303
 16357 27ac 01       		.byte	0x1
 16358 27ad 3708     		.2byte	0x837
 16359 27af 6B000000 		.4byte	0x6b
 16360 27b3 02       		.uleb128 0x2
 16361 27b4 91       		.byte	0x91
 16362 27b5 77       		.sleb128 -9
 16363 27b6 00       		.byte	0
 16364 27b7 15       		.uleb128 0x15
 16365 27b8 85000000 		.4byte	.LASF408
 16366 27bc 01       		.byte	0x1
 16367 27bd 4F08     		.2byte	0x84f
 16368 27bf F2000000 		.4byte	0xf2
 16369 27c3 80220000 		.4byte	.LFB101
 16370 27c7 3E000000 		.4byte	.LFE101-.LFB101
 16371 27cb 01       		.uleb128 0x1
 16372 27cc 9C       		.byte	0x9c
 16373 27cd F0270000 		.4byte	0x27f0
 16374 27d1 16       		.uleb128 0x16
 16375 27d2 5B1F0000 		.4byte	.LASF298
 16376 27d6 01       		.byte	0x1
 16377 27d7 4F08     		.2byte	0x84f
 16378 27d9 620D0000 		.4byte	0xd62
 16379 27dd 02       		.uleb128 0x2
 16380 27de 91       		.byte	0x91
 16381 27df 74       		.sleb128 -12
 16382 27e0 16       		.uleb128 0x16
 16383 27e1 A60E0000 		.4byte	.LASF303
 16384 27e5 01       		.byte	0x1
 16385 27e6 4F08     		.2byte	0x84f
 16386 27e8 640D0000 		.4byte	0xd64
 16387 27ec 02       		.uleb128 0x2
 16388 27ed 91       		.byte	0x91
 16389 27ee 70       		.sleb128 -16
 16390 27ef 00       		.byte	0
 16391 27f0 15       		.uleb128 0x15
 16392 27f1 28260000 		.4byte	.LASF409
 16393 27f5 01       		.byte	0x1
 16394 27f6 6108     		.2byte	0x861
 16395 27f8 F2000000 		.4byte	0xf2
 16396 27fc C0220000 		.4byte	.LFB102
 16397 2800 68000000 		.4byte	.LFE102-.LFB102
 16398 2804 01       		.uleb128 0x1
 16399 2805 9C       		.byte	0x9c
ARM GAS  /tmp/ccVYwGiK.s 			page 292


 16400 2806 38280000 		.4byte	0x2838
 16401 280a 16       		.uleb128 0x16
 16402 280b 5B1F0000 		.4byte	.LASF298
 16403 280f 01       		.byte	0x1
 16404 2810 6108     		.2byte	0x861
 16405 2812 620D0000 		.4byte	0xd62
 16406 2816 02       		.uleb128 0x2
 16407 2817 91       		.byte	0x91
 16408 2818 6C       		.sleb128 -20
 16409 2819 16       		.uleb128 0x16
 16410 281a 600F0000 		.4byte	.LASF305
 16411 281e 01       		.byte	0x1
 16412 281f 6108     		.2byte	0x861
 16413 2821 AF080000 		.4byte	0x8af
 16414 2825 02       		.uleb128 0x2
 16415 2826 91       		.byte	0x91
 16416 2827 6B       		.sleb128 -21
 16417 2828 13       		.uleb128 0x13
 16418 2829 A60E0000 		.4byte	.LASF303
 16419 282d 01       		.byte	0x1
 16420 282e 6308     		.2byte	0x863
 16421 2830 6B000000 		.4byte	0x6b
 16422 2834 02       		.uleb128 0x2
 16423 2835 91       		.byte	0x91
 16424 2836 77       		.sleb128 -9
 16425 2837 00       		.byte	0
 16426 2838 15       		.uleb128 0x15
 16427 2839 70050000 		.4byte	.LASF410
 16428 283d 01       		.byte	0x1
 16429 283e 7808     		.2byte	0x878
 16430 2840 F2000000 		.4byte	0xf2
 16431 2844 30230000 		.4byte	.LFB103
 16432 2848 36000000 		.4byte	.LFE103-.LFB103
 16433 284c 01       		.uleb128 0x1
 16434 284d 9C       		.byte	0x9c
 16435 284e 71280000 		.4byte	0x2871
 16436 2852 16       		.uleb128 0x16
 16437 2853 5B1F0000 		.4byte	.LASF298
 16438 2857 01       		.byte	0x1
 16439 2858 7808     		.2byte	0x878
 16440 285a 620D0000 		.4byte	0xd62
 16441 285e 02       		.uleb128 0x2
 16442 285f 91       		.byte	0x91
 16443 2860 74       		.sleb128 -12
 16444 2861 16       		.uleb128 0x16
 16445 2862 A60E0000 		.4byte	.LASF303
 16446 2866 01       		.byte	0x1
 16447 2867 7808     		.2byte	0x878
 16448 2869 71280000 		.4byte	0x2871
 16449 286d 02       		.uleb128 0x2
 16450 286e 91       		.byte	0x91
 16451 286f 70       		.sleb128 -16
 16452 2870 00       		.byte	0
 16453 2871 11       		.uleb128 0x11
 16454 2872 04       		.byte	0x4
 16455 2873 AF080000 		.4byte	0x8af
 16456 2877 15       		.uleb128 0x15
ARM GAS  /tmp/ccVYwGiK.s 			page 293


 16457 2878 2F1D0000 		.4byte	.LASF411
 16458 287c 01       		.byte	0x1
 16459 287d 8908     		.2byte	0x889
 16460 287f F2000000 		.4byte	0xf2
 16461 2883 70230000 		.4byte	.LFB104
 16462 2887 68000000 		.4byte	.LFE104-.LFB104
 16463 288b 01       		.uleb128 0x1
 16464 288c 9C       		.byte	0x9c
 16465 288d BF280000 		.4byte	0x28bf
 16466 2891 16       		.uleb128 0x16
 16467 2892 5B1F0000 		.4byte	.LASF298
 16468 2896 01       		.byte	0x1
 16469 2897 8908     		.2byte	0x889
 16470 2899 620D0000 		.4byte	0xd62
 16471 289d 02       		.uleb128 0x2
 16472 289e 91       		.byte	0x91
 16473 289f 6C       		.sleb128 -20
 16474 28a0 16       		.uleb128 0x16
 16475 28a1 600F0000 		.4byte	.LASF305
 16476 28a5 01       		.byte	0x1
 16477 28a6 8908     		.2byte	0x889
 16478 28a8 E0080000 		.4byte	0x8e0
 16479 28ac 02       		.uleb128 0x2
 16480 28ad 91       		.byte	0x91
 16481 28ae 6B       		.sleb128 -21
 16482 28af 13       		.uleb128 0x13
 16483 28b0 A60E0000 		.4byte	.LASF303
 16484 28b4 01       		.byte	0x1
 16485 28b5 8B08     		.2byte	0x88b
 16486 28b7 6B000000 		.4byte	0x6b
 16487 28bb 02       		.uleb128 0x2
 16488 28bc 91       		.byte	0x91
 16489 28bd 77       		.sleb128 -9
 16490 28be 00       		.byte	0
 16491 28bf 15       		.uleb128 0x15
 16492 28c0 8D0E0000 		.4byte	.LASF412
 16493 28c4 01       		.byte	0x1
 16494 28c5 A008     		.2byte	0x8a0
 16495 28c7 F2000000 		.4byte	0xf2
 16496 28cb E0230000 		.4byte	.LFB105
 16497 28cf 36000000 		.4byte	.LFE105-.LFB105
 16498 28d3 01       		.uleb128 0x1
 16499 28d4 9C       		.byte	0x9c
 16500 28d5 F8280000 		.4byte	0x28f8
 16501 28d9 16       		.uleb128 0x16
 16502 28da 5B1F0000 		.4byte	.LASF298
 16503 28de 01       		.byte	0x1
 16504 28df A008     		.2byte	0x8a0
 16505 28e1 620D0000 		.4byte	0xd62
 16506 28e5 02       		.uleb128 0x2
 16507 28e6 91       		.byte	0x91
 16508 28e7 74       		.sleb128 -12
 16509 28e8 16       		.uleb128 0x16
 16510 28e9 A60E0000 		.4byte	.LASF303
 16511 28ed 01       		.byte	0x1
 16512 28ee A008     		.2byte	0x8a0
 16513 28f0 F8280000 		.4byte	0x28f8
ARM GAS  /tmp/ccVYwGiK.s 			page 294


 16514 28f4 02       		.uleb128 0x2
 16515 28f5 91       		.byte	0x91
 16516 28f6 70       		.sleb128 -16
 16517 28f7 00       		.byte	0
 16518 28f8 11       		.uleb128 0x11
 16519 28f9 04       		.byte	0x4
 16520 28fa E0080000 		.4byte	0x8e0
 16521 28fe 15       		.uleb128 0x15
 16522 28ff 8C180000 		.4byte	.LASF413
 16523 2903 01       		.byte	0x1
 16524 2904 B108     		.2byte	0x8b1
 16525 2906 F2000000 		.4byte	0xf2
 16526 290a 20240000 		.4byte	.LFB106
 16527 290e 3E000000 		.4byte	.LFE106-.LFB106
 16528 2912 01       		.uleb128 0x1
 16529 2913 9C       		.byte	0x9c
 16530 2914 37290000 		.4byte	0x2937
 16531 2918 16       		.uleb128 0x16
 16532 2919 5B1F0000 		.4byte	.LASF298
 16533 291d 01       		.byte	0x1
 16534 291e B108     		.2byte	0x8b1
 16535 2920 620D0000 		.4byte	0xd62
 16536 2924 02       		.uleb128 0x2
 16537 2925 91       		.byte	0x91
 16538 2926 74       		.sleb128 -12
 16539 2927 16       		.uleb128 0x16
 16540 2928 A60E0000 		.4byte	.LASF303
 16541 292c 01       		.byte	0x1
 16542 292d B108     		.2byte	0x8b1
 16543 292f 640D0000 		.4byte	0xd64
 16544 2933 02       		.uleb128 0x2
 16545 2934 91       		.byte	0x91
 16546 2935 70       		.sleb128 -16
 16547 2936 00       		.byte	0
 16548 2937 15       		.uleb128 0x15
 16549 2938 C40A0000 		.4byte	.LASF414
 16550 293c 01       		.byte	0x1
 16551 293d C308     		.2byte	0x8c3
 16552 293f F2000000 		.4byte	0xf2
 16553 2943 60240000 		.4byte	.LFB107
 16554 2947 36000000 		.4byte	.LFE107-.LFB107
 16555 294b 01       		.uleb128 0x1
 16556 294c 9C       		.byte	0x9c
 16557 294d 70290000 		.4byte	0x2970
 16558 2951 16       		.uleb128 0x16
 16559 2952 5B1F0000 		.4byte	.LASF298
 16560 2956 01       		.byte	0x1
 16561 2957 C308     		.2byte	0x8c3
 16562 2959 620D0000 		.4byte	0xd62
 16563 295d 02       		.uleb128 0x2
 16564 295e 91       		.byte	0x91
 16565 295f 74       		.sleb128 -12
 16566 2960 16       		.uleb128 0x16
 16567 2961 A60E0000 		.4byte	.LASF303
 16568 2965 01       		.byte	0x1
 16569 2966 C308     		.2byte	0x8c3
 16570 2968 70290000 		.4byte	0x2970
ARM GAS  /tmp/ccVYwGiK.s 			page 295


 16571 296c 02       		.uleb128 0x2
 16572 296d 91       		.byte	0x91
 16573 296e 70       		.sleb128 -16
 16574 296f 00       		.byte	0
 16575 2970 11       		.uleb128 0x11
 16576 2971 04       		.byte	0x4
 16577 2972 02090000 		.4byte	0x902
 16578 2976 15       		.uleb128 0x15
 16579 2977 10050000 		.4byte	.LASF415
 16580 297b 01       		.byte	0x1
 16581 297c D408     		.2byte	0x8d4
 16582 297e F2000000 		.4byte	0xf2
 16583 2982 A0240000 		.4byte	.LFB108
 16584 2986 36000000 		.4byte	.LFE108-.LFB108
 16585 298a 01       		.uleb128 0x1
 16586 298b 9C       		.byte	0x9c
 16587 298c AF290000 		.4byte	0x29af
 16588 2990 16       		.uleb128 0x16
 16589 2991 5B1F0000 		.4byte	.LASF298
 16590 2995 01       		.byte	0x1
 16591 2996 D408     		.2byte	0x8d4
 16592 2998 620D0000 		.4byte	0xd62
 16593 299c 02       		.uleb128 0x2
 16594 299d 91       		.byte	0x91
 16595 299e 74       		.sleb128 -12
 16596 299f 16       		.uleb128 0x16
 16597 29a0 A60E0000 		.4byte	.LASF303
 16598 29a4 01       		.byte	0x1
 16599 29a5 D408     		.2byte	0x8d4
 16600 29a7 AF290000 		.4byte	0x29af
 16601 29ab 02       		.uleb128 0x2
 16602 29ac 91       		.byte	0x91
 16603 29ad 70       		.sleb128 -16
 16604 29ae 00       		.byte	0
 16605 29af 11       		.uleb128 0x11
 16606 29b0 04       		.byte	0x4
 16607 29b1 25090000 		.4byte	0x925
 16608 29b5 15       		.uleb128 0x15
 16609 29b6 8B050000 		.4byte	.LASF416
 16610 29ba 01       		.byte	0x1
 16611 29bb E508     		.2byte	0x8e5
 16612 29bd F2000000 		.4byte	0xf2
 16613 29c1 E0240000 		.4byte	.LFB109
 16614 29c5 36000000 		.4byte	.LFE109-.LFB109
 16615 29c9 01       		.uleb128 0x1
 16616 29ca 9C       		.byte	0x9c
 16617 29cb EE290000 		.4byte	0x29ee
 16618 29cf 16       		.uleb128 0x16
 16619 29d0 5B1F0000 		.4byte	.LASF298
 16620 29d4 01       		.byte	0x1
 16621 29d5 E508     		.2byte	0x8e5
 16622 29d7 620D0000 		.4byte	0xd62
 16623 29db 02       		.uleb128 0x2
 16624 29dc 91       		.byte	0x91
 16625 29dd 74       		.sleb128 -12
 16626 29de 16       		.uleb128 0x16
 16627 29df A60E0000 		.4byte	.LASF303
ARM GAS  /tmp/ccVYwGiK.s 			page 296


 16628 29e3 01       		.byte	0x1
 16629 29e4 E508     		.2byte	0x8e5
 16630 29e6 EE290000 		.4byte	0x29ee
 16631 29ea 02       		.uleb128 0x2
 16632 29eb 91       		.byte	0x91
 16633 29ec 70       		.sleb128 -16
 16634 29ed 00       		.byte	0
 16635 29ee 11       		.uleb128 0x11
 16636 29ef 04       		.byte	0x4
 16637 29f0 48090000 		.4byte	0x948
 16638 29f4 15       		.uleb128 0x15
 16639 29f5 BC270000 		.4byte	.LASF417
 16640 29f9 01       		.byte	0x1
 16641 29fa F608     		.2byte	0x8f6
 16642 29fc F2000000 		.4byte	0xf2
 16643 2a00 20250000 		.4byte	.LFB110
 16644 2a04 68000000 		.4byte	.LFE110-.LFB110
 16645 2a08 01       		.uleb128 0x1
 16646 2a09 9C       		.byte	0x9c
 16647 2a0a 3C2A0000 		.4byte	0x2a3c
 16648 2a0e 16       		.uleb128 0x16
 16649 2a0f 5B1F0000 		.4byte	.LASF298
 16650 2a13 01       		.byte	0x1
 16651 2a14 F608     		.2byte	0x8f6
 16652 2a16 620D0000 		.4byte	0xd62
 16653 2a1a 02       		.uleb128 0x2
 16654 2a1b 91       		.byte	0x91
 16655 2a1c 6C       		.sleb128 -20
 16656 2a1d 16       		.uleb128 0x16
 16657 2a1e 600F0000 		.4byte	.LASF305
 16658 2a22 01       		.byte	0x1
 16659 2a23 F608     		.2byte	0x8f6
 16660 2a25 6A090000 		.4byte	0x96a
 16661 2a29 02       		.uleb128 0x2
 16662 2a2a 91       		.byte	0x91
 16663 2a2b 6B       		.sleb128 -21
 16664 2a2c 13       		.uleb128 0x13
 16665 2a2d A60E0000 		.4byte	.LASF303
 16666 2a31 01       		.byte	0x1
 16667 2a32 F808     		.2byte	0x8f8
 16668 2a34 6B000000 		.4byte	0x6b
 16669 2a38 02       		.uleb128 0x2
 16670 2a39 91       		.byte	0x91
 16671 2a3a 77       		.sleb128 -9
 16672 2a3b 00       		.byte	0
 16673 2a3c 15       		.uleb128 0x15
 16674 2a3d 441E0000 		.4byte	.LASF418
 16675 2a41 01       		.byte	0x1
 16676 2a42 0D09     		.2byte	0x90d
 16677 2a44 F2000000 		.4byte	0xf2
 16678 2a48 90250000 		.4byte	.LFB111
 16679 2a4c 36000000 		.4byte	.LFE111-.LFB111
 16680 2a50 01       		.uleb128 0x1
 16681 2a51 9C       		.byte	0x9c
 16682 2a52 752A0000 		.4byte	0x2a75
 16683 2a56 16       		.uleb128 0x16
 16684 2a57 5B1F0000 		.4byte	.LASF298
ARM GAS  /tmp/ccVYwGiK.s 			page 297


 16685 2a5b 01       		.byte	0x1
 16686 2a5c 0D09     		.2byte	0x90d
 16687 2a5e 620D0000 		.4byte	0xd62
 16688 2a62 02       		.uleb128 0x2
 16689 2a63 91       		.byte	0x91
 16690 2a64 74       		.sleb128 -12
 16691 2a65 16       		.uleb128 0x16
 16692 2a66 A60E0000 		.4byte	.LASF303
 16693 2a6a 01       		.byte	0x1
 16694 2a6b 0D09     		.2byte	0x90d
 16695 2a6d 752A0000 		.4byte	0x2a75
 16696 2a71 02       		.uleb128 0x2
 16697 2a72 91       		.byte	0x91
 16698 2a73 70       		.sleb128 -16
 16699 2a74 00       		.byte	0
 16700 2a75 11       		.uleb128 0x11
 16701 2a76 04       		.byte	0x4
 16702 2a77 6A090000 		.4byte	0x96a
 16703 2a7b 15       		.uleb128 0x15
 16704 2a7c C3190000 		.4byte	.LASF419
 16705 2a80 01       		.byte	0x1
 16706 2a81 1E09     		.2byte	0x91e
 16707 2a83 F2000000 		.4byte	0xf2
 16708 2a87 D0250000 		.4byte	.LFB112
 16709 2a8b 68000000 		.4byte	.LFE112-.LFB112
 16710 2a8f 01       		.uleb128 0x1
 16711 2a90 9C       		.byte	0x9c
 16712 2a91 C32A0000 		.4byte	0x2ac3
 16713 2a95 16       		.uleb128 0x16
 16714 2a96 5B1F0000 		.4byte	.LASF298
 16715 2a9a 01       		.byte	0x1
 16716 2a9b 1E09     		.2byte	0x91e
 16717 2a9d 620D0000 		.4byte	0xd62
 16718 2aa1 02       		.uleb128 0x2
 16719 2aa2 91       		.byte	0x91
 16720 2aa3 6C       		.sleb128 -20
 16721 2aa4 16       		.uleb128 0x16
 16722 2aa5 600F0000 		.4byte	.LASF305
 16723 2aa9 01       		.byte	0x1
 16724 2aaa 1E09     		.2byte	0x91e
 16725 2aac 8C090000 		.4byte	0x98c
 16726 2ab0 02       		.uleb128 0x2
 16727 2ab1 91       		.byte	0x91
 16728 2ab2 6B       		.sleb128 -21
 16729 2ab3 13       		.uleb128 0x13
 16730 2ab4 A60E0000 		.4byte	.LASF303
 16731 2ab8 01       		.byte	0x1
 16732 2ab9 2009     		.2byte	0x920
 16733 2abb 6B000000 		.4byte	0x6b
 16734 2abf 02       		.uleb128 0x2
 16735 2ac0 91       		.byte	0x91
 16736 2ac1 77       		.sleb128 -9
 16737 2ac2 00       		.byte	0
 16738 2ac3 15       		.uleb128 0x15
 16739 2ac4 2B020000 		.4byte	.LASF420
 16740 2ac8 01       		.byte	0x1
 16741 2ac9 3509     		.2byte	0x935
ARM GAS  /tmp/ccVYwGiK.s 			page 298


 16742 2acb F2000000 		.4byte	0xf2
 16743 2acf 40260000 		.4byte	.LFB113
 16744 2ad3 36000000 		.4byte	.LFE113-.LFB113
 16745 2ad7 01       		.uleb128 0x1
 16746 2ad8 9C       		.byte	0x9c
 16747 2ad9 FC2A0000 		.4byte	0x2afc
 16748 2add 16       		.uleb128 0x16
 16749 2ade 5B1F0000 		.4byte	.LASF298
 16750 2ae2 01       		.byte	0x1
 16751 2ae3 3509     		.2byte	0x935
 16752 2ae5 620D0000 		.4byte	0xd62
 16753 2ae9 02       		.uleb128 0x2
 16754 2aea 91       		.byte	0x91
 16755 2aeb 74       		.sleb128 -12
 16756 2aec 16       		.uleb128 0x16
 16757 2aed A60E0000 		.4byte	.LASF303
 16758 2af1 01       		.byte	0x1
 16759 2af2 3509     		.2byte	0x935
 16760 2af4 FC2A0000 		.4byte	0x2afc
 16761 2af8 02       		.uleb128 0x2
 16762 2af9 91       		.byte	0x91
 16763 2afa 70       		.sleb128 -16
 16764 2afb 00       		.byte	0
 16765 2afc 11       		.uleb128 0x11
 16766 2afd 04       		.byte	0x4
 16767 2afe 8C090000 		.4byte	0x98c
 16768 2b02 15       		.uleb128 0x15
 16769 2b03 C0070000 		.4byte	.LASF421
 16770 2b07 01       		.byte	0x1
 16771 2b08 4609     		.2byte	0x946
 16772 2b0a F2000000 		.4byte	0xf2
 16773 2b0e 80260000 		.4byte	.LFB114
 16774 2b12 68000000 		.4byte	.LFE114-.LFB114
 16775 2b16 01       		.uleb128 0x1
 16776 2b17 9C       		.byte	0x9c
 16777 2b18 4A2B0000 		.4byte	0x2b4a
 16778 2b1c 16       		.uleb128 0x16
 16779 2b1d 5B1F0000 		.4byte	.LASF298
 16780 2b21 01       		.byte	0x1
 16781 2b22 4609     		.2byte	0x946
 16782 2b24 620D0000 		.4byte	0xd62
 16783 2b28 02       		.uleb128 0x2
 16784 2b29 91       		.byte	0x91
 16785 2b2a 6C       		.sleb128 -20
 16786 2b2b 16       		.uleb128 0x16
 16787 2b2c 600F0000 		.4byte	.LASF305
 16788 2b30 01       		.byte	0x1
 16789 2b31 4609     		.2byte	0x946
 16790 2b33 AE090000 		.4byte	0x9ae
 16791 2b37 02       		.uleb128 0x2
 16792 2b38 91       		.byte	0x91
 16793 2b39 6B       		.sleb128 -21
 16794 2b3a 13       		.uleb128 0x13
 16795 2b3b A60E0000 		.4byte	.LASF303
 16796 2b3f 01       		.byte	0x1
 16797 2b40 4809     		.2byte	0x948
 16798 2b42 6B000000 		.4byte	0x6b
ARM GAS  /tmp/ccVYwGiK.s 			page 299


 16799 2b46 02       		.uleb128 0x2
 16800 2b47 91       		.byte	0x91
 16801 2b48 77       		.sleb128 -9
 16802 2b49 00       		.byte	0
 16803 2b4a 15       		.uleb128 0x15
 16804 2b4b C9120000 		.4byte	.LASF422
 16805 2b4f 01       		.byte	0x1
 16806 2b50 5D09     		.2byte	0x95d
 16807 2b52 F2000000 		.4byte	0xf2
 16808 2b56 F0260000 		.4byte	.LFB115
 16809 2b5a 36000000 		.4byte	.LFE115-.LFB115
 16810 2b5e 01       		.uleb128 0x1
 16811 2b5f 9C       		.byte	0x9c
 16812 2b60 832B0000 		.4byte	0x2b83
 16813 2b64 16       		.uleb128 0x16
 16814 2b65 5B1F0000 		.4byte	.LASF298
 16815 2b69 01       		.byte	0x1
 16816 2b6a 5D09     		.2byte	0x95d
 16817 2b6c 620D0000 		.4byte	0xd62
 16818 2b70 02       		.uleb128 0x2
 16819 2b71 91       		.byte	0x91
 16820 2b72 74       		.sleb128 -12
 16821 2b73 16       		.uleb128 0x16
 16822 2b74 A60E0000 		.4byte	.LASF303
 16823 2b78 01       		.byte	0x1
 16824 2b79 5D09     		.2byte	0x95d
 16825 2b7b 832B0000 		.4byte	0x2b83
 16826 2b7f 02       		.uleb128 0x2
 16827 2b80 91       		.byte	0x91
 16828 2b81 70       		.sleb128 -16
 16829 2b82 00       		.byte	0
 16830 2b83 11       		.uleb128 0x11
 16831 2b84 04       		.byte	0x4
 16832 2b85 AE090000 		.4byte	0x9ae
 16833 2b89 15       		.uleb128 0x15
 16834 2b8a 1E180000 		.4byte	.LASF423
 16835 2b8e 01       		.byte	0x1
 16836 2b8f 6E09     		.2byte	0x96e
 16837 2b91 F2000000 		.4byte	0xf2
 16838 2b95 30270000 		.4byte	.LFB116
 16839 2b99 68000000 		.4byte	.LFE116-.LFB116
 16840 2b9d 01       		.uleb128 0x1
 16841 2b9e 9C       		.byte	0x9c
 16842 2b9f D12B0000 		.4byte	0x2bd1
 16843 2ba3 16       		.uleb128 0x16
 16844 2ba4 5B1F0000 		.4byte	.LASF298
 16845 2ba8 01       		.byte	0x1
 16846 2ba9 6E09     		.2byte	0x96e
 16847 2bab 620D0000 		.4byte	0xd62
 16848 2baf 02       		.uleb128 0x2
 16849 2bb0 91       		.byte	0x91
 16850 2bb1 6C       		.sleb128 -20
 16851 2bb2 16       		.uleb128 0x16
 16852 2bb3 600F0000 		.4byte	.LASF305
 16853 2bb7 01       		.byte	0x1
 16854 2bb8 6E09     		.2byte	0x96e
 16855 2bba D0090000 		.4byte	0x9d0
ARM GAS  /tmp/ccVYwGiK.s 			page 300


 16856 2bbe 02       		.uleb128 0x2
 16857 2bbf 91       		.byte	0x91
 16858 2bc0 6B       		.sleb128 -21
 16859 2bc1 13       		.uleb128 0x13
 16860 2bc2 A60E0000 		.4byte	.LASF303
 16861 2bc6 01       		.byte	0x1
 16862 2bc7 7009     		.2byte	0x970
 16863 2bc9 6B000000 		.4byte	0x6b
 16864 2bcd 02       		.uleb128 0x2
 16865 2bce 91       		.byte	0x91
 16866 2bcf 77       		.sleb128 -9
 16867 2bd0 00       		.byte	0
 16868 2bd1 15       		.uleb128 0x15
 16869 2bd2 64240000 		.4byte	.LASF424
 16870 2bd6 01       		.byte	0x1
 16871 2bd7 8509     		.2byte	0x985
 16872 2bd9 F2000000 		.4byte	0xf2
 16873 2bdd A0270000 		.4byte	.LFB117
 16874 2be1 36000000 		.4byte	.LFE117-.LFB117
 16875 2be5 01       		.uleb128 0x1
 16876 2be6 9C       		.byte	0x9c
 16877 2be7 0A2C0000 		.4byte	0x2c0a
 16878 2beb 16       		.uleb128 0x16
 16879 2bec 5B1F0000 		.4byte	.LASF298
 16880 2bf0 01       		.byte	0x1
 16881 2bf1 8509     		.2byte	0x985
 16882 2bf3 620D0000 		.4byte	0xd62
 16883 2bf7 02       		.uleb128 0x2
 16884 2bf8 91       		.byte	0x91
 16885 2bf9 74       		.sleb128 -12
 16886 2bfa 16       		.uleb128 0x16
 16887 2bfb A60E0000 		.4byte	.LASF303
 16888 2bff 01       		.byte	0x1
 16889 2c00 8509     		.2byte	0x985
 16890 2c02 0A2C0000 		.4byte	0x2c0a
 16891 2c06 02       		.uleb128 0x2
 16892 2c07 91       		.byte	0x91
 16893 2c08 70       		.sleb128 -16
 16894 2c09 00       		.byte	0
 16895 2c0a 11       		.uleb128 0x11
 16896 2c0b 04       		.byte	0x4
 16897 2c0c D0090000 		.4byte	0x9d0
 16898 2c10 15       		.uleb128 0x15
 16899 2c11 67290000 		.4byte	.LASF425
 16900 2c15 01       		.byte	0x1
 16901 2c16 9609     		.2byte	0x996
 16902 2c18 F2000000 		.4byte	0xf2
 16903 2c1c E0270000 		.4byte	.LFB118
 16904 2c20 68000000 		.4byte	.LFE118-.LFB118
 16905 2c24 01       		.uleb128 0x1
 16906 2c25 9C       		.byte	0x9c
 16907 2c26 582C0000 		.4byte	0x2c58
 16908 2c2a 16       		.uleb128 0x16
 16909 2c2b 5B1F0000 		.4byte	.LASF298
 16910 2c2f 01       		.byte	0x1
 16911 2c30 9609     		.2byte	0x996
 16912 2c32 620D0000 		.4byte	0xd62
ARM GAS  /tmp/ccVYwGiK.s 			page 301


 16913 2c36 02       		.uleb128 0x2
 16914 2c37 91       		.byte	0x91
 16915 2c38 6C       		.sleb128 -20
 16916 2c39 16       		.uleb128 0x16
 16917 2c3a 600F0000 		.4byte	.LASF305
 16918 2c3e 01       		.byte	0x1
 16919 2c3f 9609     		.2byte	0x996
 16920 2c41 F2090000 		.4byte	0x9f2
 16921 2c45 02       		.uleb128 0x2
 16922 2c46 91       		.byte	0x91
 16923 2c47 6B       		.sleb128 -21
 16924 2c48 13       		.uleb128 0x13
 16925 2c49 A60E0000 		.4byte	.LASF303
 16926 2c4d 01       		.byte	0x1
 16927 2c4e 9809     		.2byte	0x998
 16928 2c50 6B000000 		.4byte	0x6b
 16929 2c54 02       		.uleb128 0x2
 16930 2c55 91       		.byte	0x91
 16931 2c56 77       		.sleb128 -9
 16932 2c57 00       		.byte	0
 16933 2c58 15       		.uleb128 0x15
 16934 2c59 AF120000 		.4byte	.LASF426
 16935 2c5d 01       		.byte	0x1
 16936 2c5e AD09     		.2byte	0x9ad
 16937 2c60 F2000000 		.4byte	0xf2
 16938 2c64 50280000 		.4byte	.LFB119
 16939 2c68 36000000 		.4byte	.LFE119-.LFB119
 16940 2c6c 01       		.uleb128 0x1
 16941 2c6d 9C       		.byte	0x9c
 16942 2c6e 912C0000 		.4byte	0x2c91
 16943 2c72 16       		.uleb128 0x16
 16944 2c73 5B1F0000 		.4byte	.LASF298
 16945 2c77 01       		.byte	0x1
 16946 2c78 AD09     		.2byte	0x9ad
 16947 2c7a 620D0000 		.4byte	0xd62
 16948 2c7e 02       		.uleb128 0x2
 16949 2c7f 91       		.byte	0x91
 16950 2c80 74       		.sleb128 -12
 16951 2c81 16       		.uleb128 0x16
 16952 2c82 A60E0000 		.4byte	.LASF303
 16953 2c86 01       		.byte	0x1
 16954 2c87 AD09     		.2byte	0x9ad
 16955 2c89 912C0000 		.4byte	0x2c91
 16956 2c8d 02       		.uleb128 0x2
 16957 2c8e 91       		.byte	0x91
 16958 2c8f 70       		.sleb128 -16
 16959 2c90 00       		.byte	0
 16960 2c91 11       		.uleb128 0x11
 16961 2c92 04       		.byte	0x4
 16962 2c93 F2090000 		.4byte	0x9f2
 16963 2c97 15       		.uleb128 0x15
 16964 2c98 2E080000 		.4byte	.LASF427
 16965 2c9c 01       		.byte	0x1
 16966 2c9d BE09     		.2byte	0x9be
 16967 2c9f F2000000 		.4byte	0xf2
 16968 2ca3 90280000 		.4byte	.LFB120
 16969 2ca7 68000000 		.4byte	.LFE120-.LFB120
ARM GAS  /tmp/ccVYwGiK.s 			page 302


 16970 2cab 01       		.uleb128 0x1
 16971 2cac 9C       		.byte	0x9c
 16972 2cad DF2C0000 		.4byte	0x2cdf
 16973 2cb1 16       		.uleb128 0x16
 16974 2cb2 5B1F0000 		.4byte	.LASF298
 16975 2cb6 01       		.byte	0x1
 16976 2cb7 BE09     		.2byte	0x9be
 16977 2cb9 620D0000 		.4byte	0xd62
 16978 2cbd 02       		.uleb128 0x2
 16979 2cbe 91       		.byte	0x91
 16980 2cbf 6C       		.sleb128 -20
 16981 2cc0 16       		.uleb128 0x16
 16982 2cc1 600F0000 		.4byte	.LASF305
 16983 2cc5 01       		.byte	0x1
 16984 2cc6 BE09     		.2byte	0x9be
 16985 2cc8 140A0000 		.4byte	0xa14
 16986 2ccc 02       		.uleb128 0x2
 16987 2ccd 91       		.byte	0x91
 16988 2cce 6B       		.sleb128 -21
 16989 2ccf 13       		.uleb128 0x13
 16990 2cd0 A60E0000 		.4byte	.LASF303
 16991 2cd4 01       		.byte	0x1
 16992 2cd5 C009     		.2byte	0x9c0
 16993 2cd7 6B000000 		.4byte	0x6b
 16994 2cdb 02       		.uleb128 0x2
 16995 2cdc 91       		.byte	0x91
 16996 2cdd 77       		.sleb128 -9
 16997 2cde 00       		.byte	0
 16998 2cdf 15       		.uleb128 0x15
 16999 2ce0 A2040000 		.4byte	.LASF428
 17000 2ce4 01       		.byte	0x1
 17001 2ce5 D509     		.2byte	0x9d5
 17002 2ce7 F2000000 		.4byte	0xf2
 17003 2ceb 00290000 		.4byte	.LFB121
 17004 2cef 36000000 		.4byte	.LFE121-.LFB121
 17005 2cf3 01       		.uleb128 0x1
 17006 2cf4 9C       		.byte	0x9c
 17007 2cf5 182D0000 		.4byte	0x2d18
 17008 2cf9 16       		.uleb128 0x16
 17009 2cfa 5B1F0000 		.4byte	.LASF298
 17010 2cfe 01       		.byte	0x1
 17011 2cff D509     		.2byte	0x9d5
 17012 2d01 620D0000 		.4byte	0xd62
 17013 2d05 02       		.uleb128 0x2
 17014 2d06 91       		.byte	0x91
 17015 2d07 74       		.sleb128 -12
 17016 2d08 16       		.uleb128 0x16
 17017 2d09 A60E0000 		.4byte	.LASF303
 17018 2d0d 01       		.byte	0x1
 17019 2d0e D509     		.2byte	0x9d5
 17020 2d10 182D0000 		.4byte	0x2d18
 17021 2d14 02       		.uleb128 0x2
 17022 2d15 91       		.byte	0x91
 17023 2d16 70       		.sleb128 -16
 17024 2d17 00       		.byte	0
 17025 2d18 11       		.uleb128 0x11
 17026 2d19 04       		.byte	0x4
ARM GAS  /tmp/ccVYwGiK.s 			page 303


 17027 2d1a 140A0000 		.4byte	0xa14
 17028 2d1e 15       		.uleb128 0x15
 17029 2d1f 17250000 		.4byte	.LASF429
 17030 2d23 01       		.byte	0x1
 17031 2d24 E609     		.2byte	0x9e6
 17032 2d26 F2000000 		.4byte	0xf2
 17033 2d2a 40290000 		.4byte	.LFB122
 17034 2d2e 68000000 		.4byte	.LFE122-.LFB122
 17035 2d32 01       		.uleb128 0x1
 17036 2d33 9C       		.byte	0x9c
 17037 2d34 662D0000 		.4byte	0x2d66
 17038 2d38 16       		.uleb128 0x16
 17039 2d39 5B1F0000 		.4byte	.LASF298
 17040 2d3d 01       		.byte	0x1
 17041 2d3e E609     		.2byte	0x9e6
 17042 2d40 620D0000 		.4byte	0xd62
 17043 2d44 02       		.uleb128 0x2
 17044 2d45 91       		.byte	0x91
 17045 2d46 6C       		.sleb128 -20
 17046 2d47 16       		.uleb128 0x16
 17047 2d48 600F0000 		.4byte	.LASF305
 17048 2d4c 01       		.byte	0x1
 17049 2d4d E609     		.2byte	0x9e6
 17050 2d4f 370A0000 		.4byte	0xa37
 17051 2d53 02       		.uleb128 0x2
 17052 2d54 91       		.byte	0x91
 17053 2d55 6B       		.sleb128 -21
 17054 2d56 13       		.uleb128 0x13
 17055 2d57 A60E0000 		.4byte	.LASF303
 17056 2d5b 01       		.byte	0x1
 17057 2d5c E809     		.2byte	0x9e8
 17058 2d5e 6B000000 		.4byte	0x6b
 17059 2d62 02       		.uleb128 0x2
 17060 2d63 91       		.byte	0x91
 17061 2d64 77       		.sleb128 -9
 17062 2d65 00       		.byte	0
 17063 2d66 15       		.uleb128 0x15
 17064 2d67 74310000 		.4byte	.LASF430
 17065 2d6b 01       		.byte	0x1
 17066 2d6c FD09     		.2byte	0x9fd
 17067 2d6e F2000000 		.4byte	0xf2
 17068 2d72 B0290000 		.4byte	.LFB123
 17069 2d76 36000000 		.4byte	.LFE123-.LFB123
 17070 2d7a 01       		.uleb128 0x1
 17071 2d7b 9C       		.byte	0x9c
 17072 2d7c 9F2D0000 		.4byte	0x2d9f
 17073 2d80 16       		.uleb128 0x16
 17074 2d81 5B1F0000 		.4byte	.LASF298
 17075 2d85 01       		.byte	0x1
 17076 2d86 FD09     		.2byte	0x9fd
 17077 2d88 620D0000 		.4byte	0xd62
 17078 2d8c 02       		.uleb128 0x2
 17079 2d8d 91       		.byte	0x91
 17080 2d8e 74       		.sleb128 -12
 17081 2d8f 16       		.uleb128 0x16
 17082 2d90 A60E0000 		.4byte	.LASF303
 17083 2d94 01       		.byte	0x1
ARM GAS  /tmp/ccVYwGiK.s 			page 304


 17084 2d95 FD09     		.2byte	0x9fd
 17085 2d97 9F2D0000 		.4byte	0x2d9f
 17086 2d9b 02       		.uleb128 0x2
 17087 2d9c 91       		.byte	0x91
 17088 2d9d 70       		.sleb128 -16
 17089 2d9e 00       		.byte	0
 17090 2d9f 11       		.uleb128 0x11
 17091 2da0 04       		.byte	0x4
 17092 2da1 370A0000 		.4byte	0xa37
 17093 2da5 15       		.uleb128 0x15
 17094 2da6 A30B0000 		.4byte	.LASF431
 17095 2daa 01       		.byte	0x1
 17096 2dab 0E0A     		.2byte	0xa0e
 17097 2dad F2000000 		.4byte	0xf2
 17098 2db1 F0290000 		.4byte	.LFB124
 17099 2db5 68000000 		.4byte	.LFE124-.LFB124
 17100 2db9 01       		.uleb128 0x1
 17101 2dba 9C       		.byte	0x9c
 17102 2dbb ED2D0000 		.4byte	0x2ded
 17103 2dbf 16       		.uleb128 0x16
 17104 2dc0 5B1F0000 		.4byte	.LASF298
 17105 2dc4 01       		.byte	0x1
 17106 2dc5 0E0A     		.2byte	0xa0e
 17107 2dc7 620D0000 		.4byte	0xd62
 17108 2dcb 02       		.uleb128 0x2
 17109 2dcc 91       		.byte	0x91
 17110 2dcd 6C       		.sleb128 -20
 17111 2dce 16       		.uleb128 0x16
 17112 2dcf 600F0000 		.4byte	.LASF305
 17113 2dd3 01       		.byte	0x1
 17114 2dd4 0E0A     		.2byte	0xa0e
 17115 2dd6 5A0A0000 		.4byte	0xa5a
 17116 2dda 02       		.uleb128 0x2
 17117 2ddb 91       		.byte	0x91
 17118 2ddc 6B       		.sleb128 -21
 17119 2ddd 13       		.uleb128 0x13
 17120 2dde A60E0000 		.4byte	.LASF303
 17121 2de2 01       		.byte	0x1
 17122 2de3 100A     		.2byte	0xa10
 17123 2de5 6B000000 		.4byte	0x6b
 17124 2de9 02       		.uleb128 0x2
 17125 2dea 91       		.byte	0x91
 17126 2deb 77       		.sleb128 -9
 17127 2dec 00       		.byte	0
 17128 2ded 15       		.uleb128 0x15
 17129 2dee F9320000 		.4byte	.LASF432
 17130 2df2 01       		.byte	0x1
 17131 2df3 250A     		.2byte	0xa25
 17132 2df5 F2000000 		.4byte	0xf2
 17133 2df9 602A0000 		.4byte	.LFB125
 17134 2dfd 36000000 		.4byte	.LFE125-.LFB125
 17135 2e01 01       		.uleb128 0x1
 17136 2e02 9C       		.byte	0x9c
 17137 2e03 262E0000 		.4byte	0x2e26
 17138 2e07 16       		.uleb128 0x16
 17139 2e08 5B1F0000 		.4byte	.LASF298
 17140 2e0c 01       		.byte	0x1
ARM GAS  /tmp/ccVYwGiK.s 			page 305


 17141 2e0d 250A     		.2byte	0xa25
 17142 2e0f 620D0000 		.4byte	0xd62
 17143 2e13 02       		.uleb128 0x2
 17144 2e14 91       		.byte	0x91
 17145 2e15 74       		.sleb128 -12
 17146 2e16 16       		.uleb128 0x16
 17147 2e17 A60E0000 		.4byte	.LASF303
 17148 2e1b 01       		.byte	0x1
 17149 2e1c 250A     		.2byte	0xa25
 17150 2e1e 262E0000 		.4byte	0x2e26
 17151 2e22 02       		.uleb128 0x2
 17152 2e23 91       		.byte	0x91
 17153 2e24 70       		.sleb128 -16
 17154 2e25 00       		.byte	0
 17155 2e26 11       		.uleb128 0x11
 17156 2e27 04       		.byte	0x4
 17157 2e28 5A0A0000 		.4byte	0xa5a
 17158 2e2c 15       		.uleb128 0x15
 17159 2e2d 1C150000 		.4byte	.LASF433
 17160 2e31 01       		.byte	0x1
 17161 2e32 360A     		.2byte	0xa36
 17162 2e34 F2000000 		.4byte	0xf2
 17163 2e38 A02A0000 		.4byte	.LFB126
 17164 2e3c 68000000 		.4byte	.LFE126-.LFB126
 17165 2e40 01       		.uleb128 0x1
 17166 2e41 9C       		.byte	0x9c
 17167 2e42 742E0000 		.4byte	0x2e74
 17168 2e46 16       		.uleb128 0x16
 17169 2e47 5B1F0000 		.4byte	.LASF298
 17170 2e4b 01       		.byte	0x1
 17171 2e4c 360A     		.2byte	0xa36
 17172 2e4e 620D0000 		.4byte	0xd62
 17173 2e52 02       		.uleb128 0x2
 17174 2e53 91       		.byte	0x91
 17175 2e54 6C       		.sleb128 -20
 17176 2e55 16       		.uleb128 0x16
 17177 2e56 600F0000 		.4byte	.LASF305
 17178 2e5a 01       		.byte	0x1
 17179 2e5b 360A     		.2byte	0xa36
 17180 2e5d 6A090000 		.4byte	0x96a
 17181 2e61 02       		.uleb128 0x2
 17182 2e62 91       		.byte	0x91
 17183 2e63 6B       		.sleb128 -21
 17184 2e64 13       		.uleb128 0x13
 17185 2e65 A60E0000 		.4byte	.LASF303
 17186 2e69 01       		.byte	0x1
 17187 2e6a 380A     		.2byte	0xa38
 17188 2e6c 6B000000 		.4byte	0x6b
 17189 2e70 02       		.uleb128 0x2
 17190 2e71 91       		.byte	0x91
 17191 2e72 77       		.sleb128 -9
 17192 2e73 00       		.byte	0
 17193 2e74 15       		.uleb128 0x15
 17194 2e75 FE0C0000 		.4byte	.LASF434
 17195 2e79 01       		.byte	0x1
 17196 2e7a 4D0A     		.2byte	0xa4d
 17197 2e7c F2000000 		.4byte	0xf2
ARM GAS  /tmp/ccVYwGiK.s 			page 306


 17198 2e80 102B0000 		.4byte	.LFB127
 17199 2e84 36000000 		.4byte	.LFE127-.LFB127
 17200 2e88 01       		.uleb128 0x1
 17201 2e89 9C       		.byte	0x9c
 17202 2e8a AD2E0000 		.4byte	0x2ead
 17203 2e8e 16       		.uleb128 0x16
 17204 2e8f 5B1F0000 		.4byte	.LASF298
 17205 2e93 01       		.byte	0x1
 17206 2e94 4D0A     		.2byte	0xa4d
 17207 2e96 620D0000 		.4byte	0xd62
 17208 2e9a 02       		.uleb128 0x2
 17209 2e9b 91       		.byte	0x91
 17210 2e9c 74       		.sleb128 -12
 17211 2e9d 16       		.uleb128 0x16
 17212 2e9e A60E0000 		.4byte	.LASF303
 17213 2ea2 01       		.byte	0x1
 17214 2ea3 4D0A     		.2byte	0xa4d
 17215 2ea5 752A0000 		.4byte	0x2a75
 17216 2ea9 02       		.uleb128 0x2
 17217 2eaa 91       		.byte	0x91
 17218 2eab 70       		.sleb128 -16
 17219 2eac 00       		.byte	0
 17220 2ead 15       		.uleb128 0x15
 17221 2eae C91B0000 		.4byte	.LASF435
 17222 2eb2 01       		.byte	0x1
 17223 2eb3 5E0A     		.2byte	0xa5e
 17224 2eb5 F2000000 		.4byte	0xf2
 17225 2eb9 502B0000 		.4byte	.LFB128
 17226 2ebd 68000000 		.4byte	.LFE128-.LFB128
 17227 2ec1 01       		.uleb128 0x1
 17228 2ec2 9C       		.byte	0x9c
 17229 2ec3 F52E0000 		.4byte	0x2ef5
 17230 2ec7 16       		.uleb128 0x16
 17231 2ec8 5B1F0000 		.4byte	.LASF298
 17232 2ecc 01       		.byte	0x1
 17233 2ecd 5E0A     		.2byte	0xa5e
 17234 2ecf 620D0000 		.4byte	0xd62
 17235 2ed3 02       		.uleb128 0x2
 17236 2ed4 91       		.byte	0x91
 17237 2ed5 6C       		.sleb128 -20
 17238 2ed6 16       		.uleb128 0x16
 17239 2ed7 600F0000 		.4byte	.LASF305
 17240 2edb 01       		.byte	0x1
 17241 2edc 5E0A     		.2byte	0xa5e
 17242 2ede 8C090000 		.4byte	0x98c
 17243 2ee2 02       		.uleb128 0x2
 17244 2ee3 91       		.byte	0x91
 17245 2ee4 6B       		.sleb128 -21
 17246 2ee5 13       		.uleb128 0x13
 17247 2ee6 A60E0000 		.4byte	.LASF303
 17248 2eea 01       		.byte	0x1
 17249 2eeb 600A     		.2byte	0xa60
 17250 2eed 6B000000 		.4byte	0x6b
 17251 2ef1 02       		.uleb128 0x2
 17252 2ef2 91       		.byte	0x91
 17253 2ef3 77       		.sleb128 -9
 17254 2ef4 00       		.byte	0
ARM GAS  /tmp/ccVYwGiK.s 			page 307


 17255 2ef5 15       		.uleb128 0x15
 17256 2ef6 3D310000 		.4byte	.LASF436
 17257 2efa 01       		.byte	0x1
 17258 2efb 750A     		.2byte	0xa75
 17259 2efd F2000000 		.4byte	0xf2
 17260 2f01 C02B0000 		.4byte	.LFB129
 17261 2f05 36000000 		.4byte	.LFE129-.LFB129
 17262 2f09 01       		.uleb128 0x1
 17263 2f0a 9C       		.byte	0x9c
 17264 2f0b 2E2F0000 		.4byte	0x2f2e
 17265 2f0f 16       		.uleb128 0x16
 17266 2f10 5B1F0000 		.4byte	.LASF298
 17267 2f14 01       		.byte	0x1
 17268 2f15 750A     		.2byte	0xa75
 17269 2f17 620D0000 		.4byte	0xd62
 17270 2f1b 02       		.uleb128 0x2
 17271 2f1c 91       		.byte	0x91
 17272 2f1d 74       		.sleb128 -12
 17273 2f1e 16       		.uleb128 0x16
 17274 2f1f A60E0000 		.4byte	.LASF303
 17275 2f23 01       		.byte	0x1
 17276 2f24 750A     		.2byte	0xa75
 17277 2f26 FC2A0000 		.4byte	0x2afc
 17278 2f2a 02       		.uleb128 0x2
 17279 2f2b 91       		.byte	0x91
 17280 2f2c 70       		.sleb128 -16
 17281 2f2d 00       		.byte	0
 17282 2f2e 15       		.uleb128 0x15
 17283 2f2f 98290000 		.4byte	.LASF437
 17284 2f33 01       		.byte	0x1
 17285 2f34 860A     		.2byte	0xa86
 17286 2f36 F2000000 		.4byte	0xf2
 17287 2f3a 002C0000 		.4byte	.LFB130
 17288 2f3e 68000000 		.4byte	.LFE130-.LFB130
 17289 2f42 01       		.uleb128 0x1
 17290 2f43 9C       		.byte	0x9c
 17291 2f44 762F0000 		.4byte	0x2f76
 17292 2f48 16       		.uleb128 0x16
 17293 2f49 5B1F0000 		.4byte	.LASF298
 17294 2f4d 01       		.byte	0x1
 17295 2f4e 860A     		.2byte	0xa86
 17296 2f50 620D0000 		.4byte	0xd62
 17297 2f54 02       		.uleb128 0x2
 17298 2f55 91       		.byte	0x91
 17299 2f56 6C       		.sleb128 -20
 17300 2f57 16       		.uleb128 0x16
 17301 2f58 600F0000 		.4byte	.LASF305
 17302 2f5c 01       		.byte	0x1
 17303 2f5d 860A     		.2byte	0xa86
 17304 2f5f AE090000 		.4byte	0x9ae
 17305 2f63 02       		.uleb128 0x2
 17306 2f64 91       		.byte	0x91
 17307 2f65 6B       		.sleb128 -21
 17308 2f66 13       		.uleb128 0x13
 17309 2f67 A60E0000 		.4byte	.LASF303
 17310 2f6b 01       		.byte	0x1
 17311 2f6c 880A     		.2byte	0xa88
ARM GAS  /tmp/ccVYwGiK.s 			page 308


 17312 2f6e 6B000000 		.4byte	0x6b
 17313 2f72 02       		.uleb128 0x2
 17314 2f73 91       		.byte	0x91
 17315 2f74 77       		.sleb128 -9
 17316 2f75 00       		.byte	0
 17317 2f76 15       		.uleb128 0x15
 17318 2f77 921F0000 		.4byte	.LASF438
 17319 2f7b 01       		.byte	0x1
 17320 2f7c 9D0A     		.2byte	0xa9d
 17321 2f7e F2000000 		.4byte	0xf2
 17322 2f82 702C0000 		.4byte	.LFB131
 17323 2f86 36000000 		.4byte	.LFE131-.LFB131
 17324 2f8a 01       		.uleb128 0x1
 17325 2f8b 9C       		.byte	0x9c
 17326 2f8c AF2F0000 		.4byte	0x2faf
 17327 2f90 16       		.uleb128 0x16
 17328 2f91 5B1F0000 		.4byte	.LASF298
 17329 2f95 01       		.byte	0x1
 17330 2f96 9D0A     		.2byte	0xa9d
 17331 2f98 620D0000 		.4byte	0xd62
 17332 2f9c 02       		.uleb128 0x2
 17333 2f9d 91       		.byte	0x91
 17334 2f9e 74       		.sleb128 -12
 17335 2f9f 16       		.uleb128 0x16
 17336 2fa0 A60E0000 		.4byte	.LASF303
 17337 2fa4 01       		.byte	0x1
 17338 2fa5 9D0A     		.2byte	0xa9d
 17339 2fa7 832B0000 		.4byte	0x2b83
 17340 2fab 02       		.uleb128 0x2
 17341 2fac 91       		.byte	0x91
 17342 2fad 70       		.sleb128 -16
 17343 2fae 00       		.byte	0
 17344 2faf 15       		.uleb128 0x15
 17345 2fb0 E31B0000 		.4byte	.LASF439
 17346 2fb4 01       		.byte	0x1
 17347 2fb5 AE0A     		.2byte	0xaae
 17348 2fb7 F2000000 		.4byte	0xf2
 17349 2fbb B02C0000 		.4byte	.LFB132
 17350 2fbf 68000000 		.4byte	.LFE132-.LFB132
 17351 2fc3 01       		.uleb128 0x1
 17352 2fc4 9C       		.byte	0x9c
 17353 2fc5 F72F0000 		.4byte	0x2ff7
 17354 2fc9 16       		.uleb128 0x16
 17355 2fca 5B1F0000 		.4byte	.LASF298
 17356 2fce 01       		.byte	0x1
 17357 2fcf AE0A     		.2byte	0xaae
 17358 2fd1 620D0000 		.4byte	0xd62
 17359 2fd5 02       		.uleb128 0x2
 17360 2fd6 91       		.byte	0x91
 17361 2fd7 6C       		.sleb128 -20
 17362 2fd8 16       		.uleb128 0x16
 17363 2fd9 600F0000 		.4byte	.LASF305
 17364 2fdd 01       		.byte	0x1
 17365 2fde AE0A     		.2byte	0xaae
 17366 2fe0 D0090000 		.4byte	0x9d0
 17367 2fe4 02       		.uleb128 0x2
 17368 2fe5 91       		.byte	0x91
ARM GAS  /tmp/ccVYwGiK.s 			page 309


 17369 2fe6 6B       		.sleb128 -21
 17370 2fe7 13       		.uleb128 0x13
 17371 2fe8 A60E0000 		.4byte	.LASF303
 17372 2fec 01       		.byte	0x1
 17373 2fed B00A     		.2byte	0xab0
 17374 2fef 6B000000 		.4byte	0x6b
 17375 2ff3 02       		.uleb128 0x2
 17376 2ff4 91       		.byte	0x91
 17377 2ff5 77       		.sleb128 -9
 17378 2ff6 00       		.byte	0
 17379 2ff7 15       		.uleb128 0x15
 17380 2ff8 94110000 		.4byte	.LASF440
 17381 2ffc 01       		.byte	0x1
 17382 2ffd C50A     		.2byte	0xac5
 17383 2fff F2000000 		.4byte	0xf2
 17384 3003 202D0000 		.4byte	.LFB133
 17385 3007 36000000 		.4byte	.LFE133-.LFB133
 17386 300b 01       		.uleb128 0x1
 17387 300c 9C       		.byte	0x9c
 17388 300d 30300000 		.4byte	0x3030
 17389 3011 16       		.uleb128 0x16
 17390 3012 5B1F0000 		.4byte	.LASF298
 17391 3016 01       		.byte	0x1
 17392 3017 C50A     		.2byte	0xac5
 17393 3019 620D0000 		.4byte	0xd62
 17394 301d 02       		.uleb128 0x2
 17395 301e 91       		.byte	0x91
 17396 301f 74       		.sleb128 -12
 17397 3020 16       		.uleb128 0x16
 17398 3021 A60E0000 		.4byte	.LASF303
 17399 3025 01       		.byte	0x1
 17400 3026 C50A     		.2byte	0xac5
 17401 3028 0A2C0000 		.4byte	0x2c0a
 17402 302c 02       		.uleb128 0x2
 17403 302d 91       		.byte	0x91
 17404 302e 70       		.sleb128 -16
 17405 302f 00       		.byte	0
 17406 3030 15       		.uleb128 0x15
 17407 3031 75260000 		.4byte	.LASF441
 17408 3035 01       		.byte	0x1
 17409 3036 D60A     		.2byte	0xad6
 17410 3038 F2000000 		.4byte	0xf2
 17411 303c 602D0000 		.4byte	.LFB134
 17412 3040 68000000 		.4byte	.LFE134-.LFB134
 17413 3044 01       		.uleb128 0x1
 17414 3045 9C       		.byte	0x9c
 17415 3046 78300000 		.4byte	0x3078
 17416 304a 16       		.uleb128 0x16
 17417 304b 5B1F0000 		.4byte	.LASF298
 17418 304f 01       		.byte	0x1
 17419 3050 D60A     		.2byte	0xad6
 17420 3052 620D0000 		.4byte	0xd62
 17421 3056 02       		.uleb128 0x2
 17422 3057 91       		.byte	0x91
 17423 3058 6C       		.sleb128 -20
 17424 3059 16       		.uleb128 0x16
 17425 305a 600F0000 		.4byte	.LASF305
ARM GAS  /tmp/ccVYwGiK.s 			page 310


 17426 305e 01       		.byte	0x1
 17427 305f D60A     		.2byte	0xad6
 17428 3061 F2090000 		.4byte	0x9f2
 17429 3065 02       		.uleb128 0x2
 17430 3066 91       		.byte	0x91
 17431 3067 6B       		.sleb128 -21
 17432 3068 13       		.uleb128 0x13
 17433 3069 A60E0000 		.4byte	.LASF303
 17434 306d 01       		.byte	0x1
 17435 306e D80A     		.2byte	0xad8
 17436 3070 6B000000 		.4byte	0x6b
 17437 3074 02       		.uleb128 0x2
 17438 3075 91       		.byte	0x91
 17439 3076 77       		.sleb128 -9
 17440 3077 00       		.byte	0
 17441 3078 15       		.uleb128 0x15
 17442 3079 FB230000 		.4byte	.LASF442
 17443 307d 01       		.byte	0x1
 17444 307e ED0A     		.2byte	0xaed
 17445 3080 F2000000 		.4byte	0xf2
 17446 3084 D02D0000 		.4byte	.LFB135
 17447 3088 36000000 		.4byte	.LFE135-.LFB135
 17448 308c 01       		.uleb128 0x1
 17449 308d 9C       		.byte	0x9c
 17450 308e B1300000 		.4byte	0x30b1
 17451 3092 16       		.uleb128 0x16
 17452 3093 5B1F0000 		.4byte	.LASF298
 17453 3097 01       		.byte	0x1
 17454 3098 ED0A     		.2byte	0xaed
 17455 309a 620D0000 		.4byte	0xd62
 17456 309e 02       		.uleb128 0x2
 17457 309f 91       		.byte	0x91
 17458 30a0 74       		.sleb128 -12
 17459 30a1 16       		.uleb128 0x16
 17460 30a2 A60E0000 		.4byte	.LASF303
 17461 30a6 01       		.byte	0x1
 17462 30a7 ED0A     		.2byte	0xaed
 17463 30a9 912C0000 		.4byte	0x2c91
 17464 30ad 02       		.uleb128 0x2
 17465 30ae 91       		.byte	0x91
 17466 30af 70       		.sleb128 -16
 17467 30b0 00       		.byte	0
 17468 30b1 15       		.uleb128 0x15
 17469 30b2 51300000 		.4byte	.LASF443
 17470 30b6 01       		.byte	0x1
 17471 30b7 FE0A     		.2byte	0xafe
 17472 30b9 F2000000 		.4byte	0xf2
 17473 30bd 102E0000 		.4byte	.LFB136
 17474 30c1 68000000 		.4byte	.LFE136-.LFB136
 17475 30c5 01       		.uleb128 0x1
 17476 30c6 9C       		.byte	0x9c
 17477 30c7 F9300000 		.4byte	0x30f9
 17478 30cb 16       		.uleb128 0x16
 17479 30cc 5B1F0000 		.4byte	.LASF298
 17480 30d0 01       		.byte	0x1
 17481 30d1 FE0A     		.2byte	0xafe
 17482 30d3 620D0000 		.4byte	0xd62
ARM GAS  /tmp/ccVYwGiK.s 			page 311


 17483 30d7 02       		.uleb128 0x2
 17484 30d8 91       		.byte	0x91
 17485 30d9 6C       		.sleb128 -20
 17486 30da 16       		.uleb128 0x16
 17487 30db 600F0000 		.4byte	.LASF305
 17488 30df 01       		.byte	0x1
 17489 30e0 FE0A     		.2byte	0xafe
 17490 30e2 140A0000 		.4byte	0xa14
 17491 30e6 02       		.uleb128 0x2
 17492 30e7 91       		.byte	0x91
 17493 30e8 6B       		.sleb128 -21
 17494 30e9 13       		.uleb128 0x13
 17495 30ea A60E0000 		.4byte	.LASF303
 17496 30ee 01       		.byte	0x1
 17497 30ef 000B     		.2byte	0xb00
 17498 30f1 6B000000 		.4byte	0x6b
 17499 30f5 02       		.uleb128 0x2
 17500 30f6 91       		.byte	0x91
 17501 30f7 77       		.sleb128 -9
 17502 30f8 00       		.byte	0
 17503 30f9 15       		.uleb128 0x15
 17504 30fa 0E260000 		.4byte	.LASF444
 17505 30fe 01       		.byte	0x1
 17506 30ff 150B     		.2byte	0xb15
 17507 3101 F2000000 		.4byte	0xf2
 17508 3105 802E0000 		.4byte	.LFB137
 17509 3109 36000000 		.4byte	.LFE137-.LFB137
 17510 310d 01       		.uleb128 0x1
 17511 310e 9C       		.byte	0x9c
 17512 310f 32310000 		.4byte	0x3132
 17513 3113 16       		.uleb128 0x16
 17514 3114 5B1F0000 		.4byte	.LASF298
 17515 3118 01       		.byte	0x1
 17516 3119 150B     		.2byte	0xb15
 17517 311b 620D0000 		.4byte	0xd62
 17518 311f 02       		.uleb128 0x2
 17519 3120 91       		.byte	0x91
 17520 3121 74       		.sleb128 -12
 17521 3122 16       		.uleb128 0x16
 17522 3123 A60E0000 		.4byte	.LASF303
 17523 3127 01       		.byte	0x1
 17524 3128 150B     		.2byte	0xb15
 17525 312a 182D0000 		.4byte	0x2d18
 17526 312e 02       		.uleb128 0x2
 17527 312f 91       		.byte	0x91
 17528 3130 70       		.sleb128 -16
 17529 3131 00       		.byte	0
 17530 3132 15       		.uleb128 0x15
 17531 3133 AC0A0000 		.4byte	.LASF445
 17532 3137 01       		.byte	0x1
 17533 3138 260B     		.2byte	0xb26
 17534 313a F2000000 		.4byte	0xf2
 17535 313e C02E0000 		.4byte	.LFB138
 17536 3142 68000000 		.4byte	.LFE138-.LFB138
 17537 3146 01       		.uleb128 0x1
 17538 3147 9C       		.byte	0x9c
 17539 3148 7A310000 		.4byte	0x317a
ARM GAS  /tmp/ccVYwGiK.s 			page 312


 17540 314c 16       		.uleb128 0x16
 17541 314d 5B1F0000 		.4byte	.LASF298
 17542 3151 01       		.byte	0x1
 17543 3152 260B     		.2byte	0xb26
 17544 3154 620D0000 		.4byte	0xd62
 17545 3158 02       		.uleb128 0x2
 17546 3159 91       		.byte	0x91
 17547 315a 6C       		.sleb128 -20
 17548 315b 16       		.uleb128 0x16
 17549 315c 600F0000 		.4byte	.LASF305
 17550 3160 01       		.byte	0x1
 17551 3161 260B     		.2byte	0xb26
 17552 3163 370A0000 		.4byte	0xa37
 17553 3167 02       		.uleb128 0x2
 17554 3168 91       		.byte	0x91
 17555 3169 6B       		.sleb128 -21
 17556 316a 13       		.uleb128 0x13
 17557 316b A60E0000 		.4byte	.LASF303
 17558 316f 01       		.byte	0x1
 17559 3170 280B     		.2byte	0xb28
 17560 3172 6B000000 		.4byte	0x6b
 17561 3176 02       		.uleb128 0x2
 17562 3177 91       		.byte	0x91
 17563 3178 77       		.sleb128 -9
 17564 3179 00       		.byte	0
 17565 317a 15       		.uleb128 0x15
 17566 317b 03220000 		.4byte	.LASF446
 17567 317f 01       		.byte	0x1
 17568 3180 3D0B     		.2byte	0xb3d
 17569 3182 F2000000 		.4byte	0xf2
 17570 3186 302F0000 		.4byte	.LFB139
 17571 318a 36000000 		.4byte	.LFE139-.LFB139
 17572 318e 01       		.uleb128 0x1
 17573 318f 9C       		.byte	0x9c
 17574 3190 B3310000 		.4byte	0x31b3
 17575 3194 16       		.uleb128 0x16
 17576 3195 5B1F0000 		.4byte	.LASF298
 17577 3199 01       		.byte	0x1
 17578 319a 3D0B     		.2byte	0xb3d
 17579 319c 620D0000 		.4byte	0xd62
 17580 31a0 02       		.uleb128 0x2
 17581 31a1 91       		.byte	0x91
 17582 31a2 74       		.sleb128 -12
 17583 31a3 16       		.uleb128 0x16
 17584 31a4 A60E0000 		.4byte	.LASF303
 17585 31a8 01       		.byte	0x1
 17586 31a9 3D0B     		.2byte	0xb3d
 17587 31ab 9F2D0000 		.4byte	0x2d9f
 17588 31af 02       		.uleb128 0x2
 17589 31b0 91       		.byte	0x91
 17590 31b1 70       		.sleb128 -16
 17591 31b2 00       		.byte	0
 17592 31b3 15       		.uleb128 0x15
 17593 31b4 7E2D0000 		.4byte	.LASF447
 17594 31b8 01       		.byte	0x1
 17595 31b9 4E0B     		.2byte	0xb4e
 17596 31bb F2000000 		.4byte	0xf2
ARM GAS  /tmp/ccVYwGiK.s 			page 313


 17597 31bf 702F0000 		.4byte	.LFB140
 17598 31c3 68000000 		.4byte	.LFE140-.LFB140
 17599 31c7 01       		.uleb128 0x1
 17600 31c8 9C       		.byte	0x9c
 17601 31c9 FB310000 		.4byte	0x31fb
 17602 31cd 16       		.uleb128 0x16
 17603 31ce 5B1F0000 		.4byte	.LASF298
 17604 31d2 01       		.byte	0x1
 17605 31d3 4E0B     		.2byte	0xb4e
 17606 31d5 620D0000 		.4byte	0xd62
 17607 31d9 02       		.uleb128 0x2
 17608 31da 91       		.byte	0x91
 17609 31db 6C       		.sleb128 -20
 17610 31dc 16       		.uleb128 0x16
 17611 31dd 600F0000 		.4byte	.LASF305
 17612 31e1 01       		.byte	0x1
 17613 31e2 4E0B     		.2byte	0xb4e
 17614 31e4 5A0A0000 		.4byte	0xa5a
 17615 31e8 02       		.uleb128 0x2
 17616 31e9 91       		.byte	0x91
 17617 31ea 6B       		.sleb128 -21
 17618 31eb 13       		.uleb128 0x13
 17619 31ec A60E0000 		.4byte	.LASF303
 17620 31f0 01       		.byte	0x1
 17621 31f1 500B     		.2byte	0xb50
 17622 31f3 6B000000 		.4byte	0x6b
 17623 31f7 02       		.uleb128 0x2
 17624 31f8 91       		.byte	0x91
 17625 31f9 77       		.sleb128 -9
 17626 31fa 00       		.byte	0
 17627 31fb 15       		.uleb128 0x15
 17628 31fc C8200000 		.4byte	.LASF448
 17629 3200 01       		.byte	0x1
 17630 3201 650B     		.2byte	0xb65
 17631 3203 F2000000 		.4byte	0xf2
 17632 3207 E02F0000 		.4byte	.LFB141
 17633 320b 36000000 		.4byte	.LFE141-.LFB141
 17634 320f 01       		.uleb128 0x1
 17635 3210 9C       		.byte	0x9c
 17636 3211 34320000 		.4byte	0x3234
 17637 3215 16       		.uleb128 0x16
 17638 3216 5B1F0000 		.4byte	.LASF298
 17639 321a 01       		.byte	0x1
 17640 321b 650B     		.2byte	0xb65
 17641 321d 620D0000 		.4byte	0xd62
 17642 3221 02       		.uleb128 0x2
 17643 3222 91       		.byte	0x91
 17644 3223 74       		.sleb128 -12
 17645 3224 16       		.uleb128 0x16
 17646 3225 A60E0000 		.4byte	.LASF303
 17647 3229 01       		.byte	0x1
 17648 322a 650B     		.2byte	0xb65
 17649 322c 262E0000 		.4byte	0x2e26
 17650 3230 02       		.uleb128 0x2
 17651 3231 91       		.byte	0x91
 17652 3232 70       		.sleb128 -16
 17653 3233 00       		.byte	0
ARM GAS  /tmp/ccVYwGiK.s 			page 314


 17654 3234 15       		.uleb128 0x15
 17655 3235 DE110000 		.4byte	.LASF449
 17656 3239 01       		.byte	0x1
 17657 323a 760B     		.2byte	0xb76
 17658 323c F2000000 		.4byte	0xf2
 17659 3240 20300000 		.4byte	.LFB142
 17660 3244 36000000 		.4byte	.LFE142-.LFB142
 17661 3248 01       		.uleb128 0x1
 17662 3249 9C       		.byte	0x9c
 17663 324a 6D320000 		.4byte	0x326d
 17664 324e 16       		.uleb128 0x16
 17665 324f 5B1F0000 		.4byte	.LASF298
 17666 3253 01       		.byte	0x1
 17667 3254 760B     		.2byte	0xb76
 17668 3256 620D0000 		.4byte	0xd62
 17669 325a 02       		.uleb128 0x2
 17670 325b 91       		.byte	0x91
 17671 325c 74       		.sleb128 -12
 17672 325d 16       		.uleb128 0x16
 17673 325e A60E0000 		.4byte	.LASF303
 17674 3262 01       		.byte	0x1
 17675 3263 760B     		.2byte	0xb76
 17676 3265 6D320000 		.4byte	0x326d
 17677 3269 02       		.uleb128 0x2
 17678 326a 91       		.byte	0x91
 17679 326b 70       		.sleb128 -16
 17680 326c 00       		.byte	0
 17681 326d 11       		.uleb128 0x11
 17682 326e 04       		.byte	0x4
 17683 326f 7C0A0000 		.4byte	0xa7c
 17684 3273 15       		.uleb128 0x15
 17685 3274 F2170000 		.4byte	.LASF450
 17686 3278 01       		.byte	0x1
 17687 3279 870B     		.2byte	0xb87
 17688 327b F2000000 		.4byte	0xf2
 17689 327f 60300000 		.4byte	.LFB143
 17690 3283 36000000 		.4byte	.LFE143-.LFB143
 17691 3287 01       		.uleb128 0x1
 17692 3288 9C       		.byte	0x9c
 17693 3289 AC320000 		.4byte	0x32ac
 17694 328d 16       		.uleb128 0x16
 17695 328e 5B1F0000 		.4byte	.LASF298
 17696 3292 01       		.byte	0x1
 17697 3293 870B     		.2byte	0xb87
 17698 3295 620D0000 		.4byte	0xd62
 17699 3299 02       		.uleb128 0x2
 17700 329a 91       		.byte	0x91
 17701 329b 74       		.sleb128 -12
 17702 329c 16       		.uleb128 0x16
 17703 329d A60E0000 		.4byte	.LASF303
 17704 32a1 01       		.byte	0x1
 17705 32a2 870B     		.2byte	0xb87
 17706 32a4 AC320000 		.4byte	0x32ac
 17707 32a8 02       		.uleb128 0x2
 17708 32a9 91       		.byte	0x91
 17709 32aa 70       		.sleb128 -16
 17710 32ab 00       		.byte	0
ARM GAS  /tmp/ccVYwGiK.s 			page 315


 17711 32ac 11       		.uleb128 0x11
 17712 32ad 04       		.byte	0x4
 17713 32ae 9E0A0000 		.4byte	0xa9e
 17714 32b2 15       		.uleb128 0x15
 17715 32b3 AE110000 		.4byte	.LASF451
 17716 32b7 01       		.byte	0x1
 17717 32b8 980B     		.2byte	0xb98
 17718 32ba F2000000 		.4byte	0xf2
 17719 32be A0300000 		.4byte	.LFB144
 17720 32c2 36000000 		.4byte	.LFE144-.LFB144
 17721 32c6 01       		.uleb128 0x1
 17722 32c7 9C       		.byte	0x9c
 17723 32c8 EB320000 		.4byte	0x32eb
 17724 32cc 16       		.uleb128 0x16
 17725 32cd 5B1F0000 		.4byte	.LASF298
 17726 32d1 01       		.byte	0x1
 17727 32d2 980B     		.2byte	0xb98
 17728 32d4 620D0000 		.4byte	0xd62
 17729 32d8 02       		.uleb128 0x2
 17730 32d9 91       		.byte	0x91
 17731 32da 74       		.sleb128 -12
 17732 32db 16       		.uleb128 0x16
 17733 32dc A60E0000 		.4byte	.LASF303
 17734 32e0 01       		.byte	0x1
 17735 32e1 980B     		.2byte	0xb98
 17736 32e3 EB320000 		.4byte	0x32eb
 17737 32e7 02       		.uleb128 0x2
 17738 32e8 91       		.byte	0x91
 17739 32e9 70       		.sleb128 -16
 17740 32ea 00       		.byte	0
 17741 32eb 11       		.uleb128 0x11
 17742 32ec 04       		.byte	0x4
 17743 32ed C00A0000 		.4byte	0xac0
 17744 32f1 15       		.uleb128 0x15
 17745 32f2 92170000 		.4byte	.LASF452
 17746 32f6 01       		.byte	0x1
 17747 32f7 A90B     		.2byte	0xba9
 17748 32f9 F2000000 		.4byte	0xf2
 17749 32fd E0300000 		.4byte	.LFB145
 17750 3301 36000000 		.4byte	.LFE145-.LFB145
 17751 3305 01       		.uleb128 0x1
 17752 3306 9C       		.byte	0x9c
 17753 3307 2A330000 		.4byte	0x332a
 17754 330b 16       		.uleb128 0x16
 17755 330c 5B1F0000 		.4byte	.LASF298
 17756 3310 01       		.byte	0x1
 17757 3311 A90B     		.2byte	0xba9
 17758 3313 620D0000 		.4byte	0xd62
 17759 3317 02       		.uleb128 0x2
 17760 3318 91       		.byte	0x91
 17761 3319 74       		.sleb128 -12
 17762 331a 16       		.uleb128 0x16
 17763 331b A60E0000 		.4byte	.LASF303
 17764 331f 01       		.byte	0x1
 17765 3320 A90B     		.2byte	0xba9
 17766 3322 2A330000 		.4byte	0x332a
 17767 3326 02       		.uleb128 0x2
ARM GAS  /tmp/ccVYwGiK.s 			page 316


 17768 3327 91       		.byte	0x91
 17769 3328 70       		.sleb128 -16
 17770 3329 00       		.byte	0
 17771 332a 11       		.uleb128 0x11
 17772 332b 04       		.byte	0x4
 17773 332c E20A0000 		.4byte	0xae2
 17774 3330 15       		.uleb128 0x15
 17775 3331 892B0000 		.4byte	.LASF453
 17776 3335 01       		.byte	0x1
 17777 3336 BA0B     		.2byte	0xbba
 17778 3338 F2000000 		.4byte	0xf2
 17779 333c 20310000 		.4byte	.LFB146
 17780 3340 36000000 		.4byte	.LFE146-.LFB146
 17781 3344 01       		.uleb128 0x1
 17782 3345 9C       		.byte	0x9c
 17783 3346 69330000 		.4byte	0x3369
 17784 334a 16       		.uleb128 0x16
 17785 334b 5B1F0000 		.4byte	.LASF298
 17786 334f 01       		.byte	0x1
 17787 3350 BA0B     		.2byte	0xbba
 17788 3352 620D0000 		.4byte	0xd62
 17789 3356 02       		.uleb128 0x2
 17790 3357 91       		.byte	0x91
 17791 3358 74       		.sleb128 -12
 17792 3359 16       		.uleb128 0x16
 17793 335a A60E0000 		.4byte	.LASF303
 17794 335e 01       		.byte	0x1
 17795 335f BA0B     		.2byte	0xbba
 17796 3361 69330000 		.4byte	0x3369
 17797 3365 02       		.uleb128 0x2
 17798 3366 91       		.byte	0x91
 17799 3367 70       		.sleb128 -16
 17800 3368 00       		.byte	0
 17801 3369 11       		.uleb128 0x11
 17802 336a 04       		.byte	0x4
 17803 336b 040B0000 		.4byte	0xb04
 17804 336f 15       		.uleb128 0x15
 17805 3370 AD180000 		.4byte	.LASF454
 17806 3374 01       		.byte	0x1
 17807 3375 CB0B     		.2byte	0xbcb
 17808 3377 F2000000 		.4byte	0xf2
 17809 337b 60310000 		.4byte	.LFB147
 17810 337f 36000000 		.4byte	.LFE147-.LFB147
 17811 3383 01       		.uleb128 0x1
 17812 3384 9C       		.byte	0x9c
 17813 3385 A8330000 		.4byte	0x33a8
 17814 3389 16       		.uleb128 0x16
 17815 338a 5B1F0000 		.4byte	.LASF298
 17816 338e 01       		.byte	0x1
 17817 338f CB0B     		.2byte	0xbcb
 17818 3391 620D0000 		.4byte	0xd62
 17819 3395 02       		.uleb128 0x2
 17820 3396 91       		.byte	0x91
 17821 3397 74       		.sleb128 -12
 17822 3398 16       		.uleb128 0x16
 17823 3399 A60E0000 		.4byte	.LASF303
 17824 339d 01       		.byte	0x1
ARM GAS  /tmp/ccVYwGiK.s 			page 317


 17825 339e CB0B     		.2byte	0xbcb
 17826 33a0 A8330000 		.4byte	0x33a8
 17827 33a4 02       		.uleb128 0x2
 17828 33a5 91       		.byte	0x91
 17829 33a6 70       		.sleb128 -16
 17830 33a7 00       		.byte	0
 17831 33a8 11       		.uleb128 0x11
 17832 33a9 04       		.byte	0x4
 17833 33aa 260B0000 		.4byte	0xb26
 17834 33ae 15       		.uleb128 0x15
 17835 33af 3B0A0000 		.4byte	.LASF455
 17836 33b3 01       		.byte	0x1
 17837 33b4 DC0B     		.2byte	0xbdc
 17838 33b6 F2000000 		.4byte	0xf2
 17839 33ba A0310000 		.4byte	.LFB148
 17840 33be 36000000 		.4byte	.LFE148-.LFB148
 17841 33c2 01       		.uleb128 0x1
 17842 33c3 9C       		.byte	0x9c
 17843 33c4 E7330000 		.4byte	0x33e7
 17844 33c8 16       		.uleb128 0x16
 17845 33c9 5B1F0000 		.4byte	.LASF298
 17846 33cd 01       		.byte	0x1
 17847 33ce DC0B     		.2byte	0xbdc
 17848 33d0 620D0000 		.4byte	0xd62
 17849 33d4 02       		.uleb128 0x2
 17850 33d5 91       		.byte	0x91
 17851 33d6 74       		.sleb128 -12
 17852 33d7 16       		.uleb128 0x16
 17853 33d8 A60E0000 		.4byte	.LASF303
 17854 33dc 01       		.byte	0x1
 17855 33dd DC0B     		.2byte	0xbdc
 17856 33df E7330000 		.4byte	0x33e7
 17857 33e3 02       		.uleb128 0x2
 17858 33e4 91       		.byte	0x91
 17859 33e5 70       		.sleb128 -16
 17860 33e6 00       		.byte	0
 17861 33e7 11       		.uleb128 0x11
 17862 33e8 04       		.byte	0x4
 17863 33e9 490B0000 		.4byte	0xb49
 17864 33ed 15       		.uleb128 0x15
 17865 33ee 4B240000 		.4byte	.LASF456
 17866 33f2 01       		.byte	0x1
 17867 33f3 ED0B     		.2byte	0xbed
 17868 33f5 F2000000 		.4byte	0xf2
 17869 33f9 E0310000 		.4byte	.LFB149
 17870 33fd 36000000 		.4byte	.LFE149-.LFB149
 17871 3401 01       		.uleb128 0x1
 17872 3402 9C       		.byte	0x9c
 17873 3403 26340000 		.4byte	0x3426
 17874 3407 16       		.uleb128 0x16
 17875 3408 5B1F0000 		.4byte	.LASF298
 17876 340c 01       		.byte	0x1
 17877 340d ED0B     		.2byte	0xbed
 17878 340f 620D0000 		.4byte	0xd62
 17879 3413 02       		.uleb128 0x2
 17880 3414 91       		.byte	0x91
 17881 3415 74       		.sleb128 -12
ARM GAS  /tmp/ccVYwGiK.s 			page 318


 17882 3416 16       		.uleb128 0x16
 17883 3417 A60E0000 		.4byte	.LASF303
 17884 341b 01       		.byte	0x1
 17885 341c ED0B     		.2byte	0xbed
 17886 341e 6D320000 		.4byte	0x326d
 17887 3422 02       		.uleb128 0x2
 17888 3423 91       		.byte	0x91
 17889 3424 70       		.sleb128 -16
 17890 3425 00       		.byte	0
 17891 3426 15       		.uleb128 0x15
 17892 3427 B4100000 		.4byte	.LASF457
 17893 342b 01       		.byte	0x1
 17894 342c FE0B     		.2byte	0xbfe
 17895 342e F2000000 		.4byte	0xf2
 17896 3432 20320000 		.4byte	.LFB150
 17897 3436 36000000 		.4byte	.LFE150-.LFB150
 17898 343a 01       		.uleb128 0x1
 17899 343b 9C       		.byte	0x9c
 17900 343c 5F340000 		.4byte	0x345f
 17901 3440 16       		.uleb128 0x16
 17902 3441 5B1F0000 		.4byte	.LASF298
 17903 3445 01       		.byte	0x1
 17904 3446 FE0B     		.2byte	0xbfe
 17905 3448 620D0000 		.4byte	0xd62
 17906 344c 02       		.uleb128 0x2
 17907 344d 91       		.byte	0x91
 17908 344e 74       		.sleb128 -12
 17909 344f 16       		.uleb128 0x16
 17910 3450 A60E0000 		.4byte	.LASF303
 17911 3454 01       		.byte	0x1
 17912 3455 FE0B     		.2byte	0xbfe
 17913 3457 AC320000 		.4byte	0x32ac
 17914 345b 02       		.uleb128 0x2
 17915 345c 91       		.byte	0x91
 17916 345d 70       		.sleb128 -16
 17917 345e 00       		.byte	0
 17918 345f 15       		.uleb128 0x15
 17919 3460 12020000 		.4byte	.LASF458
 17920 3464 01       		.byte	0x1
 17921 3465 0F0C     		.2byte	0xc0f
 17922 3467 F2000000 		.4byte	0xf2
 17923 346b 60320000 		.4byte	.LFB151
 17924 346f 36000000 		.4byte	.LFE151-.LFB151
 17925 3473 01       		.uleb128 0x1
 17926 3474 9C       		.byte	0x9c
 17927 3475 98340000 		.4byte	0x3498
 17928 3479 16       		.uleb128 0x16
 17929 347a 5B1F0000 		.4byte	.LASF298
 17930 347e 01       		.byte	0x1
 17931 347f 0F0C     		.2byte	0xc0f
 17932 3481 620D0000 		.4byte	0xd62
 17933 3485 02       		.uleb128 0x2
 17934 3486 91       		.byte	0x91
 17935 3487 74       		.sleb128 -12
 17936 3488 16       		.uleb128 0x16
 17937 3489 A60E0000 		.4byte	.LASF303
 17938 348d 01       		.byte	0x1
ARM GAS  /tmp/ccVYwGiK.s 			page 319


 17939 348e 0F0C     		.2byte	0xc0f
 17940 3490 EB320000 		.4byte	0x32eb
 17941 3494 02       		.uleb128 0x2
 17942 3495 91       		.byte	0x91
 17943 3496 70       		.sleb128 -16
 17944 3497 00       		.byte	0
 17945 3498 15       		.uleb128 0x15
 17946 3499 4C250000 		.4byte	.LASF459
 17947 349d 01       		.byte	0x1
 17948 349e 200C     		.2byte	0xc20
 17949 34a0 F2000000 		.4byte	0xf2
 17950 34a4 A0320000 		.4byte	.LFB152
 17951 34a8 36000000 		.4byte	.LFE152-.LFB152
 17952 34ac 01       		.uleb128 0x1
 17953 34ad 9C       		.byte	0x9c
 17954 34ae D1340000 		.4byte	0x34d1
 17955 34b2 16       		.uleb128 0x16
 17956 34b3 5B1F0000 		.4byte	.LASF298
 17957 34b7 01       		.byte	0x1
 17958 34b8 200C     		.2byte	0xc20
 17959 34ba 620D0000 		.4byte	0xd62
 17960 34be 02       		.uleb128 0x2
 17961 34bf 91       		.byte	0x91
 17962 34c0 74       		.sleb128 -12
 17963 34c1 16       		.uleb128 0x16
 17964 34c2 A60E0000 		.4byte	.LASF303
 17965 34c6 01       		.byte	0x1
 17966 34c7 200C     		.2byte	0xc20
 17967 34c9 2A330000 		.4byte	0x332a
 17968 34cd 02       		.uleb128 0x2
 17969 34ce 91       		.byte	0x91
 17970 34cf 70       		.sleb128 -16
 17971 34d0 00       		.byte	0
 17972 34d1 15       		.uleb128 0x15
 17973 34d2 142E0000 		.4byte	.LASF460
 17974 34d6 01       		.byte	0x1
 17975 34d7 310C     		.2byte	0xc31
 17976 34d9 F2000000 		.4byte	0xf2
 17977 34dd E0320000 		.4byte	.LFB153
 17978 34e1 36000000 		.4byte	.LFE153-.LFB153
 17979 34e5 01       		.uleb128 0x1
 17980 34e6 9C       		.byte	0x9c
 17981 34e7 0A350000 		.4byte	0x350a
 17982 34eb 16       		.uleb128 0x16
 17983 34ec 5B1F0000 		.4byte	.LASF298
 17984 34f0 01       		.byte	0x1
 17985 34f1 310C     		.2byte	0xc31
 17986 34f3 620D0000 		.4byte	0xd62
 17987 34f7 02       		.uleb128 0x2
 17988 34f8 91       		.byte	0x91
 17989 34f9 74       		.sleb128 -12
 17990 34fa 16       		.uleb128 0x16
 17991 34fb A60E0000 		.4byte	.LASF303
 17992 34ff 01       		.byte	0x1
 17993 3500 310C     		.2byte	0xc31
 17994 3502 69330000 		.4byte	0x3369
 17995 3506 02       		.uleb128 0x2
ARM GAS  /tmp/ccVYwGiK.s 			page 320


 17996 3507 91       		.byte	0x91
 17997 3508 70       		.sleb128 -16
 17998 3509 00       		.byte	0
 17999 350a 15       		.uleb128 0x15
 18000 350b 89040000 		.4byte	.LASF461
 18001 350f 01       		.byte	0x1
 18002 3510 420C     		.2byte	0xc42
 18003 3512 F2000000 		.4byte	0xf2
 18004 3516 20330000 		.4byte	.LFB154
 18005 351a 36000000 		.4byte	.LFE154-.LFB154
 18006 351e 01       		.uleb128 0x1
 18007 351f 9C       		.byte	0x9c
 18008 3520 43350000 		.4byte	0x3543
 18009 3524 16       		.uleb128 0x16
 18010 3525 5B1F0000 		.4byte	.LASF298
 18011 3529 01       		.byte	0x1
 18012 352a 420C     		.2byte	0xc42
 18013 352c 620D0000 		.4byte	0xd62
 18014 3530 02       		.uleb128 0x2
 18015 3531 91       		.byte	0x91
 18016 3532 74       		.sleb128 -12
 18017 3533 16       		.uleb128 0x16
 18018 3534 A60E0000 		.4byte	.LASF303
 18019 3538 01       		.byte	0x1
 18020 3539 420C     		.2byte	0xc42
 18021 353b A8330000 		.4byte	0x33a8
 18022 353f 02       		.uleb128 0x2
 18023 3540 91       		.byte	0x91
 18024 3541 70       		.sleb128 -16
 18025 3542 00       		.byte	0
 18026 3543 15       		.uleb128 0x15
 18027 3544 AE280000 		.4byte	.LASF462
 18028 3548 01       		.byte	0x1
 18029 3549 530C     		.2byte	0xc53
 18030 354b F2000000 		.4byte	0xf2
 18031 354f 60330000 		.4byte	.LFB155
 18032 3553 36000000 		.4byte	.LFE155-.LFB155
 18033 3557 01       		.uleb128 0x1
 18034 3558 9C       		.byte	0x9c
 18035 3559 7C350000 		.4byte	0x357c
 18036 355d 16       		.uleb128 0x16
 18037 355e 5B1F0000 		.4byte	.LASF298
 18038 3562 01       		.byte	0x1
 18039 3563 530C     		.2byte	0xc53
 18040 3565 620D0000 		.4byte	0xd62
 18041 3569 02       		.uleb128 0x2
 18042 356a 91       		.byte	0x91
 18043 356b 74       		.sleb128 -12
 18044 356c 16       		.uleb128 0x16
 18045 356d A60E0000 		.4byte	.LASF303
 18046 3571 01       		.byte	0x1
 18047 3572 530C     		.2byte	0xc53
 18048 3574 E7330000 		.4byte	0x33e7
 18049 3578 02       		.uleb128 0x2
 18050 3579 91       		.byte	0x91
 18051 357a 70       		.sleb128 -16
 18052 357b 00       		.byte	0
ARM GAS  /tmp/ccVYwGiK.s 			page 321


 18053 357c 15       		.uleb128 0x15
 18054 357d 12030000 		.4byte	.LASF463
 18055 3581 01       		.byte	0x1
 18056 3582 640C     		.2byte	0xc64
 18057 3584 F2000000 		.4byte	0xf2
 18058 3588 A0330000 		.4byte	.LFB156
 18059 358c 74000000 		.4byte	.LFE156-.LFB156
 18060 3590 01       		.uleb128 0x1
 18061 3591 9C       		.byte	0x9c
 18062 3592 C4350000 		.4byte	0x35c4
 18063 3596 16       		.uleb128 0x16
 18064 3597 5B1F0000 		.4byte	.LASF298
 18065 359b 01       		.byte	0x1
 18066 359c 640C     		.2byte	0xc64
 18067 359e 620D0000 		.4byte	0xd62
 18068 35a2 02       		.uleb128 0x2
 18069 35a3 91       		.byte	0x91
 18070 35a4 6C       		.sleb128 -20
 18071 35a5 16       		.uleb128 0x16
 18072 35a6 600F0000 		.4byte	.LASF305
 18073 35aa 01       		.byte	0x1
 18074 35ab 640C     		.2byte	0xc64
 18075 35ad 6B000000 		.4byte	0x6b
 18076 35b1 02       		.uleb128 0x2
 18077 35b2 91       		.byte	0x91
 18078 35b3 6B       		.sleb128 -21
 18079 35b4 13       		.uleb128 0x13
 18080 35b5 A60E0000 		.4byte	.LASF303
 18081 35b9 01       		.byte	0x1
 18082 35ba 660C     		.2byte	0xc66
 18083 35bc 6B000000 		.4byte	0x6b
 18084 35c0 02       		.uleb128 0x2
 18085 35c1 91       		.byte	0x91
 18086 35c2 77       		.sleb128 -9
 18087 35c3 00       		.byte	0
 18088 35c4 15       		.uleb128 0x15
 18089 35c5 53280000 		.4byte	.LASF464
 18090 35c9 01       		.byte	0x1
 18091 35ca 7E0C     		.2byte	0xc7e
 18092 35cc F2000000 		.4byte	0xf2
 18093 35d0 20340000 		.4byte	.LFB157
 18094 35d4 3E000000 		.4byte	.LFE157-.LFB157
 18095 35d8 01       		.uleb128 0x1
 18096 35d9 9C       		.byte	0x9c
 18097 35da FD350000 		.4byte	0x35fd
 18098 35de 16       		.uleb128 0x16
 18099 35df 5B1F0000 		.4byte	.LASF298
 18100 35e3 01       		.byte	0x1
 18101 35e4 7E0C     		.2byte	0xc7e
 18102 35e6 620D0000 		.4byte	0xd62
 18103 35ea 02       		.uleb128 0x2
 18104 35eb 91       		.byte	0x91
 18105 35ec 74       		.sleb128 -12
 18106 35ed 16       		.uleb128 0x16
 18107 35ee A60E0000 		.4byte	.LASF303
 18108 35f2 01       		.byte	0x1
 18109 35f3 7E0C     		.2byte	0xc7e
ARM GAS  /tmp/ccVYwGiK.s 			page 322


 18110 35f5 640D0000 		.4byte	0xd64
 18111 35f9 02       		.uleb128 0x2
 18112 35fa 91       		.byte	0x91
 18113 35fb 70       		.sleb128 -16
 18114 35fc 00       		.byte	0
 18115 35fd 15       		.uleb128 0x15
 18116 35fe FF2F0000 		.4byte	.LASF465
 18117 3602 01       		.byte	0x1
 18118 3603 900C     		.2byte	0xc90
 18119 3605 F2000000 		.4byte	0xf2
 18120 3609 60340000 		.4byte	.LFB158
 18121 360d 74000000 		.4byte	.LFE158-.LFB158
 18122 3611 01       		.uleb128 0x1
 18123 3612 9C       		.byte	0x9c
 18124 3613 45360000 		.4byte	0x3645
 18125 3617 16       		.uleb128 0x16
 18126 3618 5B1F0000 		.4byte	.LASF298
 18127 361c 01       		.byte	0x1
 18128 361d 900C     		.2byte	0xc90
 18129 361f 620D0000 		.4byte	0xd62
 18130 3623 02       		.uleb128 0x2
 18131 3624 91       		.byte	0x91
 18132 3625 6C       		.sleb128 -20
 18133 3626 16       		.uleb128 0x16
 18134 3627 600F0000 		.4byte	.LASF305
 18135 362b 01       		.byte	0x1
 18136 362c 900C     		.2byte	0xc90
 18137 362e 6B000000 		.4byte	0x6b
 18138 3632 02       		.uleb128 0x2
 18139 3633 91       		.byte	0x91
 18140 3634 6B       		.sleb128 -21
 18141 3635 13       		.uleb128 0x13
 18142 3636 A60E0000 		.4byte	.LASF303
 18143 363a 01       		.byte	0x1
 18144 363b 920C     		.2byte	0xc92
 18145 363d 6B000000 		.4byte	0x6b
 18146 3641 02       		.uleb128 0x2
 18147 3642 91       		.byte	0x91
 18148 3643 77       		.sleb128 -9
 18149 3644 00       		.byte	0
 18150 3645 15       		.uleb128 0x15
 18151 3646 A00C0000 		.4byte	.LASF466
 18152 364a 01       		.byte	0x1
 18153 364b AA0C     		.2byte	0xcaa
 18154 364d F2000000 		.4byte	0xf2
 18155 3651 E0340000 		.4byte	.LFB159
 18156 3655 3E000000 		.4byte	.LFE159-.LFB159
 18157 3659 01       		.uleb128 0x1
 18158 365a 9C       		.byte	0x9c
 18159 365b 7E360000 		.4byte	0x367e
 18160 365f 16       		.uleb128 0x16
 18161 3660 5B1F0000 		.4byte	.LASF298
 18162 3664 01       		.byte	0x1
 18163 3665 AA0C     		.2byte	0xcaa
 18164 3667 620D0000 		.4byte	0xd62
 18165 366b 02       		.uleb128 0x2
 18166 366c 91       		.byte	0x91
ARM GAS  /tmp/ccVYwGiK.s 			page 323


 18167 366d 74       		.sleb128 -12
 18168 366e 16       		.uleb128 0x16
 18169 366f A60E0000 		.4byte	.LASF303
 18170 3673 01       		.byte	0x1
 18171 3674 AA0C     		.2byte	0xcaa
 18172 3676 640D0000 		.4byte	0xd64
 18173 367a 02       		.uleb128 0x2
 18174 367b 91       		.byte	0x91
 18175 367c 70       		.sleb128 -16
 18176 367d 00       		.byte	0
 18177 367e 15       		.uleb128 0x15
 18178 367f 1D200000 		.4byte	.LASF467
 18179 3683 01       		.byte	0x1
 18180 3684 BC0C     		.2byte	0xcbc
 18181 3686 F2000000 		.4byte	0xf2
 18182 368a 20350000 		.4byte	.LFB160
 18183 368e 74000000 		.4byte	.LFE160-.LFB160
 18184 3692 01       		.uleb128 0x1
 18185 3693 9C       		.byte	0x9c
 18186 3694 C6360000 		.4byte	0x36c6
 18187 3698 16       		.uleb128 0x16
 18188 3699 5B1F0000 		.4byte	.LASF298
 18189 369d 01       		.byte	0x1
 18190 369e BC0C     		.2byte	0xcbc
 18191 36a0 620D0000 		.4byte	0xd62
 18192 36a4 02       		.uleb128 0x2
 18193 36a5 91       		.byte	0x91
 18194 36a6 6C       		.sleb128 -20
 18195 36a7 16       		.uleb128 0x16
 18196 36a8 600F0000 		.4byte	.LASF305
 18197 36ac 01       		.byte	0x1
 18198 36ad BC0C     		.2byte	0xcbc
 18199 36af 6B000000 		.4byte	0x6b
 18200 36b3 02       		.uleb128 0x2
 18201 36b4 91       		.byte	0x91
 18202 36b5 6B       		.sleb128 -21
 18203 36b6 13       		.uleb128 0x13
 18204 36b7 A60E0000 		.4byte	.LASF303
 18205 36bb 01       		.byte	0x1
 18206 36bc BE0C     		.2byte	0xcbe
 18207 36be 6B000000 		.4byte	0x6b
 18208 36c2 02       		.uleb128 0x2
 18209 36c3 91       		.byte	0x91
 18210 36c4 77       		.sleb128 -9
 18211 36c5 00       		.byte	0
 18212 36c6 15       		.uleb128 0x15
 18213 36c7 672E0000 		.4byte	.LASF468
 18214 36cb 01       		.byte	0x1
 18215 36cc D60C     		.2byte	0xcd6
 18216 36ce F2000000 		.4byte	0xf2
 18217 36d2 A0350000 		.4byte	.LFB161
 18218 36d6 3E000000 		.4byte	.LFE161-.LFB161
 18219 36da 01       		.uleb128 0x1
 18220 36db 9C       		.byte	0x9c
 18221 36dc FF360000 		.4byte	0x36ff
 18222 36e0 16       		.uleb128 0x16
 18223 36e1 5B1F0000 		.4byte	.LASF298
ARM GAS  /tmp/ccVYwGiK.s 			page 324


 18224 36e5 01       		.byte	0x1
 18225 36e6 D60C     		.2byte	0xcd6
 18226 36e8 620D0000 		.4byte	0xd62
 18227 36ec 02       		.uleb128 0x2
 18228 36ed 91       		.byte	0x91
 18229 36ee 74       		.sleb128 -12
 18230 36ef 16       		.uleb128 0x16
 18231 36f0 A60E0000 		.4byte	.LASF303
 18232 36f4 01       		.byte	0x1
 18233 36f5 D60C     		.2byte	0xcd6
 18234 36f7 640D0000 		.4byte	0xd64
 18235 36fb 02       		.uleb128 0x2
 18236 36fc 91       		.byte	0x91
 18237 36fd 70       		.sleb128 -16
 18238 36fe 00       		.byte	0
 18239 36ff 15       		.uleb128 0x15
 18240 3700 F92B0000 		.4byte	.LASF469
 18241 3704 01       		.byte	0x1
 18242 3705 E80C     		.2byte	0xce8
 18243 3707 F2000000 		.4byte	0xf2
 18244 370b E0350000 		.4byte	.LFB162
 18245 370f 74000000 		.4byte	.LFE162-.LFB162
 18246 3713 01       		.uleb128 0x1
 18247 3714 9C       		.byte	0x9c
 18248 3715 47370000 		.4byte	0x3747
 18249 3719 16       		.uleb128 0x16
 18250 371a 5B1F0000 		.4byte	.LASF298
 18251 371e 01       		.byte	0x1
 18252 371f E80C     		.2byte	0xce8
 18253 3721 620D0000 		.4byte	0xd62
 18254 3725 02       		.uleb128 0x2
 18255 3726 91       		.byte	0x91
 18256 3727 6C       		.sleb128 -20
 18257 3728 16       		.uleb128 0x16
 18258 3729 600F0000 		.4byte	.LASF305
 18259 372d 01       		.byte	0x1
 18260 372e E80C     		.2byte	0xce8
 18261 3730 6B000000 		.4byte	0x6b
 18262 3734 02       		.uleb128 0x2
 18263 3735 91       		.byte	0x91
 18264 3736 6B       		.sleb128 -21
 18265 3737 13       		.uleb128 0x13
 18266 3738 A60E0000 		.4byte	.LASF303
 18267 373c 01       		.byte	0x1
 18268 373d EA0C     		.2byte	0xcea
 18269 373f 6B000000 		.4byte	0x6b
 18270 3743 02       		.uleb128 0x2
 18271 3744 91       		.byte	0x91
 18272 3745 77       		.sleb128 -9
 18273 3746 00       		.byte	0
 18274 3747 15       		.uleb128 0x15
 18275 3748 44110000 		.4byte	.LASF470
 18276 374c 01       		.byte	0x1
 18277 374d 020D     		.2byte	0xd02
 18278 374f F2000000 		.4byte	0xf2
 18279 3753 60360000 		.4byte	.LFB163
 18280 3757 3E000000 		.4byte	.LFE163-.LFB163
ARM GAS  /tmp/ccVYwGiK.s 			page 325


 18281 375b 01       		.uleb128 0x1
 18282 375c 9C       		.byte	0x9c
 18283 375d 80370000 		.4byte	0x3780
 18284 3761 16       		.uleb128 0x16
 18285 3762 5B1F0000 		.4byte	.LASF298
 18286 3766 01       		.byte	0x1
 18287 3767 020D     		.2byte	0xd02
 18288 3769 620D0000 		.4byte	0xd62
 18289 376d 02       		.uleb128 0x2
 18290 376e 91       		.byte	0x91
 18291 376f 74       		.sleb128 -12
 18292 3770 16       		.uleb128 0x16
 18293 3771 A60E0000 		.4byte	.LASF303
 18294 3775 01       		.byte	0x1
 18295 3776 020D     		.2byte	0xd02
 18296 3778 640D0000 		.4byte	0xd64
 18297 377c 02       		.uleb128 0x2
 18298 377d 91       		.byte	0x91
 18299 377e 70       		.sleb128 -16
 18300 377f 00       		.byte	0
 18301 3780 15       		.uleb128 0x15
 18302 3781 1C0C0000 		.4byte	.LASF471
 18303 3785 01       		.byte	0x1
 18304 3786 140D     		.2byte	0xd14
 18305 3788 F2000000 		.4byte	0xf2
 18306 378c A0360000 		.4byte	.LFB164
 18307 3790 68000000 		.4byte	.LFE164-.LFB164
 18308 3794 01       		.uleb128 0x1
 18309 3795 9C       		.byte	0x9c
 18310 3796 C8370000 		.4byte	0x37c8
 18311 379a 16       		.uleb128 0x16
 18312 379b 5B1F0000 		.4byte	.LASF298
 18313 379f 01       		.byte	0x1
 18314 37a0 140D     		.2byte	0xd14
 18315 37a2 620D0000 		.4byte	0xd62
 18316 37a6 02       		.uleb128 0x2
 18317 37a7 91       		.byte	0x91
 18318 37a8 6C       		.sleb128 -20
 18319 37a9 16       		.uleb128 0x16
 18320 37aa 600F0000 		.4byte	.LASF305
 18321 37ae 01       		.byte	0x1
 18322 37af 140D     		.2byte	0xd14
 18323 37b1 6B0B0000 		.4byte	0xb6b
 18324 37b5 02       		.uleb128 0x2
 18325 37b6 91       		.byte	0x91
 18326 37b7 6B       		.sleb128 -21
 18327 37b8 13       		.uleb128 0x13
 18328 37b9 A60E0000 		.4byte	.LASF303
 18329 37bd 01       		.byte	0x1
 18330 37be 160D     		.2byte	0xd16
 18331 37c0 6B000000 		.4byte	0x6b
 18332 37c4 02       		.uleb128 0x2
 18333 37c5 91       		.byte	0x91
 18334 37c6 77       		.sleb128 -9
 18335 37c7 00       		.byte	0
 18336 37c8 15       		.uleb128 0x15
 18337 37c9 7A1F0000 		.4byte	.LASF472
ARM GAS  /tmp/ccVYwGiK.s 			page 326


 18338 37cd 01       		.byte	0x1
 18339 37ce 2B0D     		.2byte	0xd2b
 18340 37d0 F2000000 		.4byte	0xf2
 18341 37d4 10370000 		.4byte	.LFB165
 18342 37d8 36000000 		.4byte	.LFE165-.LFB165
 18343 37dc 01       		.uleb128 0x1
 18344 37dd 9C       		.byte	0x9c
 18345 37de 01380000 		.4byte	0x3801
 18346 37e2 16       		.uleb128 0x16
 18347 37e3 5B1F0000 		.4byte	.LASF298
 18348 37e7 01       		.byte	0x1
 18349 37e8 2B0D     		.2byte	0xd2b
 18350 37ea 620D0000 		.4byte	0xd62
 18351 37ee 02       		.uleb128 0x2
 18352 37ef 91       		.byte	0x91
 18353 37f0 74       		.sleb128 -12
 18354 37f1 16       		.uleb128 0x16
 18355 37f2 A60E0000 		.4byte	.LASF303
 18356 37f6 01       		.byte	0x1
 18357 37f7 2B0D     		.2byte	0xd2b
 18358 37f9 01380000 		.4byte	0x3801
 18359 37fd 02       		.uleb128 0x2
 18360 37fe 91       		.byte	0x91
 18361 37ff 70       		.sleb128 -16
 18362 3800 00       		.byte	0
 18363 3801 11       		.uleb128 0x11
 18364 3802 04       		.byte	0x4
 18365 3803 6B0B0000 		.4byte	0xb6b
 18366 3807 15       		.uleb128 0x15
 18367 3808 61270000 		.4byte	.LASF473
 18368 380c 01       		.byte	0x1
 18369 380d 3C0D     		.2byte	0xd3c
 18370 380f F2000000 		.4byte	0xf2
 18371 3813 50370000 		.4byte	.LFB166
 18372 3817 68000000 		.4byte	.LFE166-.LFB166
 18373 381b 01       		.uleb128 0x1
 18374 381c 9C       		.byte	0x9c
 18375 381d 4F380000 		.4byte	0x384f
 18376 3821 16       		.uleb128 0x16
 18377 3822 5B1F0000 		.4byte	.LASF298
 18378 3826 01       		.byte	0x1
 18379 3827 3C0D     		.2byte	0xd3c
 18380 3829 620D0000 		.4byte	0xd62
 18381 382d 02       		.uleb128 0x2
 18382 382e 91       		.byte	0x91
 18383 382f 6C       		.sleb128 -20
 18384 3830 16       		.uleb128 0x16
 18385 3831 600F0000 		.4byte	.LASF305
 18386 3835 01       		.byte	0x1
 18387 3836 3C0D     		.2byte	0xd3c
 18388 3838 8D0B0000 		.4byte	0xb8d
 18389 383c 02       		.uleb128 0x2
 18390 383d 91       		.byte	0x91
 18391 383e 6B       		.sleb128 -21
 18392 383f 13       		.uleb128 0x13
 18393 3840 A60E0000 		.4byte	.LASF303
 18394 3844 01       		.byte	0x1
ARM GAS  /tmp/ccVYwGiK.s 			page 327


 18395 3845 3E0D     		.2byte	0xd3e
 18396 3847 6B000000 		.4byte	0x6b
 18397 384b 02       		.uleb128 0x2
 18398 384c 91       		.byte	0x91
 18399 384d 77       		.sleb128 -9
 18400 384e 00       		.byte	0
 18401 384f 15       		.uleb128 0x15
 18402 3850 621F0000 		.4byte	.LASF474
 18403 3854 01       		.byte	0x1
 18404 3855 530D     		.2byte	0xd53
 18405 3857 F2000000 		.4byte	0xf2
 18406 385b C0370000 		.4byte	.LFB167
 18407 385f 36000000 		.4byte	.LFE167-.LFB167
 18408 3863 01       		.uleb128 0x1
 18409 3864 9C       		.byte	0x9c
 18410 3865 88380000 		.4byte	0x3888
 18411 3869 16       		.uleb128 0x16
 18412 386a 5B1F0000 		.4byte	.LASF298
 18413 386e 01       		.byte	0x1
 18414 386f 530D     		.2byte	0xd53
 18415 3871 620D0000 		.4byte	0xd62
 18416 3875 02       		.uleb128 0x2
 18417 3876 91       		.byte	0x91
 18418 3877 74       		.sleb128 -12
 18419 3878 16       		.uleb128 0x16
 18420 3879 A60E0000 		.4byte	.LASF303
 18421 387d 01       		.byte	0x1
 18422 387e 530D     		.2byte	0xd53
 18423 3880 88380000 		.4byte	0x3888
 18424 3884 02       		.uleb128 0x2
 18425 3885 91       		.byte	0x91
 18426 3886 70       		.sleb128 -16
 18427 3887 00       		.byte	0
 18428 3888 11       		.uleb128 0x11
 18429 3889 04       		.byte	0x4
 18430 388a 8D0B0000 		.4byte	0xb8d
 18431 388e 15       		.uleb128 0x15
 18432 388f 4F290000 		.4byte	.LASF475
 18433 3893 01       		.byte	0x1
 18434 3894 640D     		.2byte	0xd64
 18435 3896 F2000000 		.4byte	0xf2
 18436 389a 00380000 		.4byte	.LFB168
 18437 389e 68000000 		.4byte	.LFE168-.LFB168
 18438 38a2 01       		.uleb128 0x1
 18439 38a3 9C       		.byte	0x9c
 18440 38a4 D6380000 		.4byte	0x38d6
 18441 38a8 16       		.uleb128 0x16
 18442 38a9 5B1F0000 		.4byte	.LASF298
 18443 38ad 01       		.byte	0x1
 18444 38ae 640D     		.2byte	0xd64
 18445 38b0 620D0000 		.4byte	0xd62
 18446 38b4 02       		.uleb128 0x2
 18447 38b5 91       		.byte	0x91
 18448 38b6 6C       		.sleb128 -20
 18449 38b7 16       		.uleb128 0x16
 18450 38b8 600F0000 		.4byte	.LASF305
 18451 38bc 01       		.byte	0x1
ARM GAS  /tmp/ccVYwGiK.s 			page 328


 18452 38bd 640D     		.2byte	0xd64
 18453 38bf AF0B0000 		.4byte	0xbaf
 18454 38c3 02       		.uleb128 0x2
 18455 38c4 91       		.byte	0x91
 18456 38c5 6B       		.sleb128 -21
 18457 38c6 13       		.uleb128 0x13
 18458 38c7 A60E0000 		.4byte	.LASF303
 18459 38cb 01       		.byte	0x1
 18460 38cc 660D     		.2byte	0xd66
 18461 38ce 6B000000 		.4byte	0x6b
 18462 38d2 02       		.uleb128 0x2
 18463 38d3 91       		.byte	0x91
 18464 38d4 77       		.sleb128 -9
 18465 38d5 00       		.byte	0
 18466 38d6 15       		.uleb128 0x15
 18467 38d7 61120000 		.4byte	.LASF476
 18468 38db 01       		.byte	0x1
 18469 38dc 7B0D     		.2byte	0xd7b
 18470 38de F2000000 		.4byte	0xf2
 18471 38e2 70380000 		.4byte	.LFB169
 18472 38e6 36000000 		.4byte	.LFE169-.LFB169
 18473 38ea 01       		.uleb128 0x1
 18474 38eb 9C       		.byte	0x9c
 18475 38ec 0F390000 		.4byte	0x390f
 18476 38f0 16       		.uleb128 0x16
 18477 38f1 5B1F0000 		.4byte	.LASF298
 18478 38f5 01       		.byte	0x1
 18479 38f6 7B0D     		.2byte	0xd7b
 18480 38f8 620D0000 		.4byte	0xd62
 18481 38fc 02       		.uleb128 0x2
 18482 38fd 91       		.byte	0x91
 18483 38fe 74       		.sleb128 -12
 18484 38ff 16       		.uleb128 0x16
 18485 3900 A60E0000 		.4byte	.LASF303
 18486 3904 01       		.byte	0x1
 18487 3905 7B0D     		.2byte	0xd7b
 18488 3907 0F390000 		.4byte	0x390f
 18489 390b 02       		.uleb128 0x2
 18490 390c 91       		.byte	0x91
 18491 390d 70       		.sleb128 -16
 18492 390e 00       		.byte	0
 18493 390f 11       		.uleb128 0x11
 18494 3910 04       		.byte	0x4
 18495 3911 AF0B0000 		.4byte	0xbaf
 18496 3915 15       		.uleb128 0x15
 18497 3916 A21A0000 		.4byte	.LASF477
 18498 391a 01       		.byte	0x1
 18499 391b 8C0D     		.2byte	0xd8c
 18500 391d F2000000 		.4byte	0xf2
 18501 3921 B0380000 		.4byte	.LFB170
 18502 3925 68000000 		.4byte	.LFE170-.LFB170
 18503 3929 01       		.uleb128 0x1
 18504 392a 9C       		.byte	0x9c
 18505 392b 5D390000 		.4byte	0x395d
 18506 392f 16       		.uleb128 0x16
 18507 3930 5B1F0000 		.4byte	.LASF298
 18508 3934 01       		.byte	0x1
ARM GAS  /tmp/ccVYwGiK.s 			page 329


 18509 3935 8C0D     		.2byte	0xd8c
 18510 3937 620D0000 		.4byte	0xd62
 18511 393b 02       		.uleb128 0x2
 18512 393c 91       		.byte	0x91
 18513 393d 6C       		.sleb128 -20
 18514 393e 16       		.uleb128 0x16
 18515 393f 600F0000 		.4byte	.LASF305
 18516 3943 01       		.byte	0x1
 18517 3944 8C0D     		.2byte	0xd8c
 18518 3946 D10B0000 		.4byte	0xbd1
 18519 394a 02       		.uleb128 0x2
 18520 394b 91       		.byte	0x91
 18521 394c 6B       		.sleb128 -21
 18522 394d 13       		.uleb128 0x13
 18523 394e A60E0000 		.4byte	.LASF303
 18524 3952 01       		.byte	0x1
 18525 3953 8E0D     		.2byte	0xd8e
 18526 3955 6B000000 		.4byte	0x6b
 18527 3959 02       		.uleb128 0x2
 18528 395a 91       		.byte	0x91
 18529 395b 77       		.sleb128 -9
 18530 395c 00       		.byte	0
 18531 395d 15       		.uleb128 0x15
 18532 395e 48080000 		.4byte	.LASF478
 18533 3962 01       		.byte	0x1
 18534 3963 A30D     		.2byte	0xda3
 18535 3965 F2000000 		.4byte	0xf2
 18536 3969 20390000 		.4byte	.LFB171
 18537 396d 36000000 		.4byte	.LFE171-.LFB171
 18538 3971 01       		.uleb128 0x1
 18539 3972 9C       		.byte	0x9c
 18540 3973 96390000 		.4byte	0x3996
 18541 3977 16       		.uleb128 0x16
 18542 3978 5B1F0000 		.4byte	.LASF298
 18543 397c 01       		.byte	0x1
 18544 397d A30D     		.2byte	0xda3
 18545 397f 620D0000 		.4byte	0xd62
 18546 3983 02       		.uleb128 0x2
 18547 3984 91       		.byte	0x91
 18548 3985 74       		.sleb128 -12
 18549 3986 16       		.uleb128 0x16
 18550 3987 A60E0000 		.4byte	.LASF303
 18551 398b 01       		.byte	0x1
 18552 398c A30D     		.2byte	0xda3
 18553 398e 96390000 		.4byte	0x3996
 18554 3992 02       		.uleb128 0x2
 18555 3993 91       		.byte	0x91
 18556 3994 70       		.sleb128 -16
 18557 3995 00       		.byte	0
 18558 3996 11       		.uleb128 0x11
 18559 3997 04       		.byte	0x4
 18560 3998 D10B0000 		.4byte	0xbd1
 18561 399c 15       		.uleb128 0x15
 18562 399d 49120000 		.4byte	.LASF479
 18563 39a1 01       		.byte	0x1
 18564 39a2 B40D     		.2byte	0xdb4
 18565 39a4 F2000000 		.4byte	0xf2
ARM GAS  /tmp/ccVYwGiK.s 			page 330


 18566 39a8 60390000 		.4byte	.LFB172
 18567 39ac 68000000 		.4byte	.LFE172-.LFB172
 18568 39b0 01       		.uleb128 0x1
 18569 39b1 9C       		.byte	0x9c
 18570 39b2 E4390000 		.4byte	0x39e4
 18571 39b6 16       		.uleb128 0x16
 18572 39b7 5B1F0000 		.4byte	.LASF298
 18573 39bb 01       		.byte	0x1
 18574 39bc B40D     		.2byte	0xdb4
 18575 39be 620D0000 		.4byte	0xd62
 18576 39c2 02       		.uleb128 0x2
 18577 39c3 91       		.byte	0x91
 18578 39c4 6C       		.sleb128 -20
 18579 39c5 16       		.uleb128 0x16
 18580 39c6 600F0000 		.4byte	.LASF305
 18581 39ca 01       		.byte	0x1
 18582 39cb B40D     		.2byte	0xdb4
 18583 39cd F30B0000 		.4byte	0xbf3
 18584 39d1 02       		.uleb128 0x2
 18585 39d2 91       		.byte	0x91
 18586 39d3 6B       		.sleb128 -21
 18587 39d4 13       		.uleb128 0x13
 18588 39d5 A60E0000 		.4byte	.LASF303
 18589 39d9 01       		.byte	0x1
 18590 39da B60D     		.2byte	0xdb6
 18591 39dc 6B000000 		.4byte	0x6b
 18592 39e0 02       		.uleb128 0x2
 18593 39e1 91       		.byte	0x91
 18594 39e2 77       		.sleb128 -9
 18595 39e3 00       		.byte	0
 18596 39e4 15       		.uleb128 0x15
 18597 39e5 1E300000 		.4byte	.LASF480
 18598 39e9 01       		.byte	0x1
 18599 39ea CB0D     		.2byte	0xdcb
 18600 39ec F2000000 		.4byte	0xf2
 18601 39f0 D0390000 		.4byte	.LFB173
 18602 39f4 36000000 		.4byte	.LFE173-.LFB173
 18603 39f8 01       		.uleb128 0x1
 18604 39f9 9C       		.byte	0x9c
 18605 39fa 1D3A0000 		.4byte	0x3a1d
 18606 39fe 16       		.uleb128 0x16
 18607 39ff 5B1F0000 		.4byte	.LASF298
 18608 3a03 01       		.byte	0x1
 18609 3a04 CB0D     		.2byte	0xdcb
 18610 3a06 620D0000 		.4byte	0xd62
 18611 3a0a 02       		.uleb128 0x2
 18612 3a0b 91       		.byte	0x91
 18613 3a0c 74       		.sleb128 -12
 18614 3a0d 16       		.uleb128 0x16
 18615 3a0e A60E0000 		.4byte	.LASF303
 18616 3a12 01       		.byte	0x1
 18617 3a13 CB0D     		.2byte	0xdcb
 18618 3a15 1D3A0000 		.4byte	0x3a1d
 18619 3a19 02       		.uleb128 0x2
 18620 3a1a 91       		.byte	0x91
 18621 3a1b 70       		.sleb128 -16
 18622 3a1c 00       		.byte	0
ARM GAS  /tmp/ccVYwGiK.s 			page 331


 18623 3a1d 11       		.uleb128 0x11
 18624 3a1e 04       		.byte	0x4
 18625 3a1f F30B0000 		.4byte	0xbf3
 18626 3a23 15       		.uleb128 0x15
 18627 3a24 750E0000 		.4byte	.LASF481
 18628 3a28 01       		.byte	0x1
 18629 3a29 DC0D     		.2byte	0xddc
 18630 3a2b F2000000 		.4byte	0xf2
 18631 3a2f 103A0000 		.4byte	.LFB174
 18632 3a33 68000000 		.4byte	.LFE174-.LFB174
 18633 3a37 01       		.uleb128 0x1
 18634 3a38 9C       		.byte	0x9c
 18635 3a39 6B3A0000 		.4byte	0x3a6b
 18636 3a3d 16       		.uleb128 0x16
 18637 3a3e 5B1F0000 		.4byte	.LASF298
 18638 3a42 01       		.byte	0x1
 18639 3a43 DC0D     		.2byte	0xddc
 18640 3a45 620D0000 		.4byte	0xd62
 18641 3a49 02       		.uleb128 0x2
 18642 3a4a 91       		.byte	0x91
 18643 3a4b 6C       		.sleb128 -20
 18644 3a4c 16       		.uleb128 0x16
 18645 3a4d 600F0000 		.4byte	.LASF305
 18646 3a51 01       		.byte	0x1
 18647 3a52 DC0D     		.2byte	0xddc
 18648 3a54 150C0000 		.4byte	0xc15
 18649 3a58 02       		.uleb128 0x2
 18650 3a59 91       		.byte	0x91
 18651 3a5a 6B       		.sleb128 -21
 18652 3a5b 13       		.uleb128 0x13
 18653 3a5c A60E0000 		.4byte	.LASF303
 18654 3a60 01       		.byte	0x1
 18655 3a61 DE0D     		.2byte	0xdde
 18656 3a63 6B000000 		.4byte	0x6b
 18657 3a67 02       		.uleb128 0x2
 18658 3a68 91       		.byte	0x91
 18659 3a69 77       		.sleb128 -9
 18660 3a6a 00       		.byte	0
 18661 3a6b 15       		.uleb128 0x15
 18662 3a6c B3250000 		.4byte	.LASF482
 18663 3a70 01       		.byte	0x1
 18664 3a71 F30D     		.2byte	0xdf3
 18665 3a73 F2000000 		.4byte	0xf2
 18666 3a77 803A0000 		.4byte	.LFB175
 18667 3a7b 36000000 		.4byte	.LFE175-.LFB175
 18668 3a7f 01       		.uleb128 0x1
 18669 3a80 9C       		.byte	0x9c
 18670 3a81 A43A0000 		.4byte	0x3aa4
 18671 3a85 16       		.uleb128 0x16
 18672 3a86 5B1F0000 		.4byte	.LASF298
 18673 3a8a 01       		.byte	0x1
 18674 3a8b F30D     		.2byte	0xdf3
 18675 3a8d 620D0000 		.4byte	0xd62
 18676 3a91 02       		.uleb128 0x2
 18677 3a92 91       		.byte	0x91
 18678 3a93 74       		.sleb128 -12
 18679 3a94 16       		.uleb128 0x16
ARM GAS  /tmp/ccVYwGiK.s 			page 332


 18680 3a95 A60E0000 		.4byte	.LASF303
 18681 3a99 01       		.byte	0x1
 18682 3a9a F30D     		.2byte	0xdf3
 18683 3a9c A43A0000 		.4byte	0x3aa4
 18684 3aa0 02       		.uleb128 0x2
 18685 3aa1 91       		.byte	0x91
 18686 3aa2 70       		.sleb128 -16
 18687 3aa3 00       		.byte	0
 18688 3aa4 11       		.uleb128 0x11
 18689 3aa5 04       		.byte	0x4
 18690 3aa6 150C0000 		.4byte	0xc15
 18691 3aaa 15       		.uleb128 0x15
 18692 3aab 48100000 		.4byte	.LASF483
 18693 3aaf 01       		.byte	0x1
 18694 3ab0 040E     		.2byte	0xe04
 18695 3ab2 F2000000 		.4byte	0xf2
 18696 3ab6 C03A0000 		.4byte	.LFB176
 18697 3aba 36000000 		.4byte	.LFE176-.LFB176
 18698 3abe 01       		.uleb128 0x1
 18699 3abf 9C       		.byte	0x9c
 18700 3ac0 E33A0000 		.4byte	0x3ae3
 18701 3ac4 16       		.uleb128 0x16
 18702 3ac5 5B1F0000 		.4byte	.LASF298
 18703 3ac9 01       		.byte	0x1
 18704 3aca 040E     		.2byte	0xe04
 18705 3acc 620D0000 		.4byte	0xd62
 18706 3ad0 02       		.uleb128 0x2
 18707 3ad1 91       		.byte	0x91
 18708 3ad2 74       		.sleb128 -12
 18709 3ad3 16       		.uleb128 0x16
 18710 3ad4 A60E0000 		.4byte	.LASF303
 18711 3ad8 01       		.byte	0x1
 18712 3ad9 040E     		.2byte	0xe04
 18713 3adb E33A0000 		.4byte	0x3ae3
 18714 3adf 02       		.uleb128 0x2
 18715 3ae0 91       		.byte	0x91
 18716 3ae1 70       		.sleb128 -16
 18717 3ae2 00       		.byte	0
 18718 3ae3 11       		.uleb128 0x11
 18719 3ae4 04       		.byte	0x4
 18720 3ae5 370C0000 		.4byte	0xc37
 18721 3ae9 15       		.uleb128 0x15
 18722 3aea 5F100000 		.4byte	.LASF484
 18723 3aee 01       		.byte	0x1
 18724 3aef 150E     		.2byte	0xe15
 18725 3af1 F2000000 		.4byte	0xf2
 18726 3af5 003B0000 		.4byte	.LFB177
 18727 3af9 36000000 		.4byte	.LFE177-.LFB177
 18728 3afd 01       		.uleb128 0x1
 18729 3afe 9C       		.byte	0x9c
 18730 3aff 223B0000 		.4byte	0x3b22
 18731 3b03 16       		.uleb128 0x16
 18732 3b04 5B1F0000 		.4byte	.LASF298
 18733 3b08 01       		.byte	0x1
 18734 3b09 150E     		.2byte	0xe15
 18735 3b0b 620D0000 		.4byte	0xd62
 18736 3b0f 02       		.uleb128 0x2
ARM GAS  /tmp/ccVYwGiK.s 			page 333


 18737 3b10 91       		.byte	0x91
 18738 3b11 74       		.sleb128 -12
 18739 3b12 16       		.uleb128 0x16
 18740 3b13 A60E0000 		.4byte	.LASF303
 18741 3b17 01       		.byte	0x1
 18742 3b18 150E     		.2byte	0xe15
 18743 3b1a 223B0000 		.4byte	0x3b22
 18744 3b1e 02       		.uleb128 0x2
 18745 3b1f 91       		.byte	0x91
 18746 3b20 70       		.sleb128 -16
 18747 3b21 00       		.byte	0
 18748 3b22 11       		.uleb128 0x11
 18749 3b23 04       		.byte	0x4
 18750 3b24 590C0000 		.4byte	0xc59
 18751 3b28 15       		.uleb128 0x15
 18752 3b29 C7110000 		.4byte	.LASF485
 18753 3b2d 01       		.byte	0x1
 18754 3b2e 260E     		.2byte	0xe26
 18755 3b30 F2000000 		.4byte	0xf2
 18756 3b34 403B0000 		.4byte	.LFB178
 18757 3b38 36000000 		.4byte	.LFE178-.LFB178
 18758 3b3c 01       		.uleb128 0x1
 18759 3b3d 9C       		.byte	0x9c
 18760 3b3e 613B0000 		.4byte	0x3b61
 18761 3b42 16       		.uleb128 0x16
 18762 3b43 5B1F0000 		.4byte	.LASF298
 18763 3b47 01       		.byte	0x1
 18764 3b48 260E     		.2byte	0xe26
 18765 3b4a 620D0000 		.4byte	0xd62
 18766 3b4e 02       		.uleb128 0x2
 18767 3b4f 91       		.byte	0x91
 18768 3b50 74       		.sleb128 -12
 18769 3b51 16       		.uleb128 0x16
 18770 3b52 A60E0000 		.4byte	.LASF303
 18771 3b56 01       		.byte	0x1
 18772 3b57 260E     		.2byte	0xe26
 18773 3b59 613B0000 		.4byte	0x3b61
 18774 3b5d 02       		.uleb128 0x2
 18775 3b5e 91       		.byte	0x91
 18776 3b5f 70       		.sleb128 -16
 18777 3b60 00       		.byte	0
 18778 3b61 11       		.uleb128 0x11
 18779 3b62 04       		.byte	0x4
 18780 3b63 7B0C0000 		.4byte	0xc7b
 18781 3b67 15       		.uleb128 0x15
 18782 3b68 6B300000 		.4byte	.LASF486
 18783 3b6c 01       		.byte	0x1
 18784 3b6d 370E     		.2byte	0xe37
 18785 3b6f F2000000 		.4byte	0xf2
 18786 3b73 803B0000 		.4byte	.LFB179
 18787 3b77 36000000 		.4byte	.LFE179-.LFB179
 18788 3b7b 01       		.uleb128 0x1
 18789 3b7c 9C       		.byte	0x9c
 18790 3b7d A03B0000 		.4byte	0x3ba0
 18791 3b81 16       		.uleb128 0x16
 18792 3b82 5B1F0000 		.4byte	.LASF298
 18793 3b86 01       		.byte	0x1
ARM GAS  /tmp/ccVYwGiK.s 			page 334


 18794 3b87 370E     		.2byte	0xe37
 18795 3b89 620D0000 		.4byte	0xd62
 18796 3b8d 02       		.uleb128 0x2
 18797 3b8e 91       		.byte	0x91
 18798 3b8f 74       		.sleb128 -12
 18799 3b90 16       		.uleb128 0x16
 18800 3b91 A60E0000 		.4byte	.LASF303
 18801 3b95 01       		.byte	0x1
 18802 3b96 370E     		.2byte	0xe37
 18803 3b98 A03B0000 		.4byte	0x3ba0
 18804 3b9c 02       		.uleb128 0x2
 18805 3b9d 91       		.byte	0x91
 18806 3b9e 70       		.sleb128 -16
 18807 3b9f 00       		.byte	0
 18808 3ba0 11       		.uleb128 0x11
 18809 3ba1 04       		.byte	0x4
 18810 3ba2 9D0C0000 		.4byte	0xc9d
 18811 3ba6 15       		.uleb128 0x15
 18812 3ba7 C7210000 		.4byte	.LASF487
 18813 3bab 01       		.byte	0x1
 18814 3bac 480E     		.2byte	0xe48
 18815 3bae F2000000 		.4byte	0xf2
 18816 3bb2 C03B0000 		.4byte	.LFB180
 18817 3bb6 36000000 		.4byte	.LFE180-.LFB180
 18818 3bba 01       		.uleb128 0x1
 18819 3bbb 9C       		.byte	0x9c
 18820 3bbc DF3B0000 		.4byte	0x3bdf
 18821 3bc0 16       		.uleb128 0x16
 18822 3bc1 5B1F0000 		.4byte	.LASF298
 18823 3bc5 01       		.byte	0x1
 18824 3bc6 480E     		.2byte	0xe48
 18825 3bc8 620D0000 		.4byte	0xd62
 18826 3bcc 02       		.uleb128 0x2
 18827 3bcd 91       		.byte	0x91
 18828 3bce 74       		.sleb128 -12
 18829 3bcf 16       		.uleb128 0x16
 18830 3bd0 A60E0000 		.4byte	.LASF303
 18831 3bd4 01       		.byte	0x1
 18832 3bd5 480E     		.2byte	0xe48
 18833 3bd7 DF3B0000 		.4byte	0x3bdf
 18834 3bdb 02       		.uleb128 0x2
 18835 3bdc 91       		.byte	0x91
 18836 3bdd 70       		.sleb128 -16
 18837 3bde 00       		.byte	0
 18838 3bdf 11       		.uleb128 0x11
 18839 3be0 04       		.byte	0x4
 18840 3be1 BF0C0000 		.4byte	0xcbf
 18841 3be5 15       		.uleb128 0x15
 18842 3be6 DB1C0000 		.4byte	.LASF488
 18843 3bea 01       		.byte	0x1
 18844 3beb 590E     		.2byte	0xe59
 18845 3bed F2000000 		.4byte	0xf2
 18846 3bf1 003C0000 		.4byte	.LFB181
 18847 3bf5 36000000 		.4byte	.LFE181-.LFB181
 18848 3bf9 01       		.uleb128 0x1
 18849 3bfa 9C       		.byte	0x9c
 18850 3bfb 1E3C0000 		.4byte	0x3c1e
ARM GAS  /tmp/ccVYwGiK.s 			page 335


 18851 3bff 16       		.uleb128 0x16
 18852 3c00 5B1F0000 		.4byte	.LASF298
 18853 3c04 01       		.byte	0x1
 18854 3c05 590E     		.2byte	0xe59
 18855 3c07 620D0000 		.4byte	0xd62
 18856 3c0b 02       		.uleb128 0x2
 18857 3c0c 91       		.byte	0x91
 18858 3c0d 74       		.sleb128 -12
 18859 3c0e 16       		.uleb128 0x16
 18860 3c0f A60E0000 		.4byte	.LASF303
 18861 3c13 01       		.byte	0x1
 18862 3c14 590E     		.2byte	0xe59
 18863 3c16 1E3C0000 		.4byte	0x3c1e
 18864 3c1a 02       		.uleb128 0x2
 18865 3c1b 91       		.byte	0x91
 18866 3c1c 70       		.sleb128 -16
 18867 3c1d 00       		.byte	0
 18868 3c1e 11       		.uleb128 0x11
 18869 3c1f 04       		.byte	0x4
 18870 3c20 E10C0000 		.4byte	0xce1
 18871 3c24 15       		.uleb128 0x15
 18872 3c25 1B2F0000 		.4byte	.LASF489
 18873 3c29 01       		.byte	0x1
 18874 3c2a 6A0E     		.2byte	0xe6a
 18875 3c2c F2000000 		.4byte	0xf2
 18876 3c30 403C0000 		.4byte	.LFB182
 18877 3c34 36000000 		.4byte	.LFE182-.LFB182
 18878 3c38 01       		.uleb128 0x1
 18879 3c39 9C       		.byte	0x9c
 18880 3c3a 5D3C0000 		.4byte	0x3c5d
 18881 3c3e 16       		.uleb128 0x16
 18882 3c3f 5B1F0000 		.4byte	.LASF298
 18883 3c43 01       		.byte	0x1
 18884 3c44 6A0E     		.2byte	0xe6a
 18885 3c46 620D0000 		.4byte	0xd62
 18886 3c4a 02       		.uleb128 0x2
 18887 3c4b 91       		.byte	0x91
 18888 3c4c 74       		.sleb128 -12
 18889 3c4d 16       		.uleb128 0x16
 18890 3c4e A60E0000 		.4byte	.LASF303
 18891 3c52 01       		.byte	0x1
 18892 3c53 6A0E     		.2byte	0xe6a
 18893 3c55 5D3C0000 		.4byte	0x3c5d
 18894 3c59 02       		.uleb128 0x2
 18895 3c5a 91       		.byte	0x91
 18896 3c5b 70       		.sleb128 -16
 18897 3c5c 00       		.byte	0
 18898 3c5d 11       		.uleb128 0x11
 18899 3c5e 04       		.byte	0x4
 18900 3c5f 040D0000 		.4byte	0xd04
 18901 3c63 15       		.uleb128 0x15
 18902 3c64 5A190000 		.4byte	.LASF490
 18903 3c68 01       		.byte	0x1
 18904 3c69 7B0E     		.2byte	0xe7b
 18905 3c6b F2000000 		.4byte	0xf2
 18906 3c6f 803C0000 		.4byte	.LFB183
 18907 3c73 74000000 		.4byte	.LFE183-.LFB183
ARM GAS  /tmp/ccVYwGiK.s 			page 336


 18908 3c77 01       		.uleb128 0x1
 18909 3c78 9C       		.byte	0x9c
 18910 3c79 AB3C0000 		.4byte	0x3cab
 18911 3c7d 16       		.uleb128 0x16
 18912 3c7e 5B1F0000 		.4byte	.LASF298
 18913 3c82 01       		.byte	0x1
 18914 3c83 7B0E     		.2byte	0xe7b
 18915 3c85 620D0000 		.4byte	0xd62
 18916 3c89 02       		.uleb128 0x2
 18917 3c8a 91       		.byte	0x91
 18918 3c8b 6C       		.sleb128 -20
 18919 3c8c 16       		.uleb128 0x16
 18920 3c8d 600F0000 		.4byte	.LASF305
 18921 3c91 01       		.byte	0x1
 18922 3c92 7B0E     		.2byte	0xe7b
 18923 3c94 6B000000 		.4byte	0x6b
 18924 3c98 02       		.uleb128 0x2
 18925 3c99 91       		.byte	0x91
 18926 3c9a 6B       		.sleb128 -21
 18927 3c9b 13       		.uleb128 0x13
 18928 3c9c A60E0000 		.4byte	.LASF303
 18929 3ca0 01       		.byte	0x1
 18930 3ca1 7D0E     		.2byte	0xe7d
 18931 3ca3 6B000000 		.4byte	0x6b
 18932 3ca7 02       		.uleb128 0x2
 18933 3ca8 91       		.byte	0x91
 18934 3ca9 77       		.sleb128 -9
 18935 3caa 00       		.byte	0
 18936 3cab 15       		.uleb128 0x15
 18937 3cac 9B1D0000 		.4byte	.LASF491
 18938 3cb0 01       		.byte	0x1
 18939 3cb1 950E     		.2byte	0xe95
 18940 3cb3 F2000000 		.4byte	0xf2
 18941 3cb7 003D0000 		.4byte	.LFB184
 18942 3cbb 3E000000 		.4byte	.LFE184-.LFB184
 18943 3cbf 01       		.uleb128 0x1
 18944 3cc0 9C       		.byte	0x9c
 18945 3cc1 E43C0000 		.4byte	0x3ce4
 18946 3cc5 16       		.uleb128 0x16
 18947 3cc6 5B1F0000 		.4byte	.LASF298
 18948 3cca 01       		.byte	0x1
 18949 3ccb 950E     		.2byte	0xe95
 18950 3ccd 620D0000 		.4byte	0xd62
 18951 3cd1 02       		.uleb128 0x2
 18952 3cd2 91       		.byte	0x91
 18953 3cd3 74       		.sleb128 -12
 18954 3cd4 16       		.uleb128 0x16
 18955 3cd5 A60E0000 		.4byte	.LASF303
 18956 3cd9 01       		.byte	0x1
 18957 3cda 950E     		.2byte	0xe95
 18958 3cdc 640D0000 		.4byte	0xd64
 18959 3ce0 02       		.uleb128 0x2
 18960 3ce1 91       		.byte	0x91
 18961 3ce2 70       		.sleb128 -16
 18962 3ce3 00       		.byte	0
 18963 3ce4 15       		.uleb128 0x15
 18964 3ce5 810C0000 		.4byte	.LASF492
ARM GAS  /tmp/ccVYwGiK.s 			page 337


 18965 3ce9 01       		.byte	0x1
 18966 3cea A70E     		.2byte	0xea7
 18967 3cec F2000000 		.4byte	0xf2
 18968 3cf0 403D0000 		.4byte	.LFB185
 18969 3cf4 74000000 		.4byte	.LFE185-.LFB185
 18970 3cf8 01       		.uleb128 0x1
 18971 3cf9 9C       		.byte	0x9c
 18972 3cfa 2C3D0000 		.4byte	0x3d2c
 18973 3cfe 16       		.uleb128 0x16
 18974 3cff 5B1F0000 		.4byte	.LASF298
 18975 3d03 01       		.byte	0x1
 18976 3d04 A70E     		.2byte	0xea7
 18977 3d06 620D0000 		.4byte	0xd62
 18978 3d0a 02       		.uleb128 0x2
 18979 3d0b 91       		.byte	0x91
 18980 3d0c 6C       		.sleb128 -20
 18981 3d0d 16       		.uleb128 0x16
 18982 3d0e 600F0000 		.4byte	.LASF305
 18983 3d12 01       		.byte	0x1
 18984 3d13 A70E     		.2byte	0xea7
 18985 3d15 6B000000 		.4byte	0x6b
 18986 3d19 02       		.uleb128 0x2
 18987 3d1a 91       		.byte	0x91
 18988 3d1b 6B       		.sleb128 -21
 18989 3d1c 13       		.uleb128 0x13
 18990 3d1d A60E0000 		.4byte	.LASF303
 18991 3d21 01       		.byte	0x1
 18992 3d22 A90E     		.2byte	0xea9
 18993 3d24 6B000000 		.4byte	0x6b
 18994 3d28 02       		.uleb128 0x2
 18995 3d29 91       		.byte	0x91
 18996 3d2a 77       		.sleb128 -9
 18997 3d2b 00       		.byte	0
 18998 3d2c 15       		.uleb128 0x15
 18999 3d2d A02C0000 		.4byte	.LASF493
 19000 3d31 01       		.byte	0x1
 19001 3d32 C10E     		.2byte	0xec1
 19002 3d34 F2000000 		.4byte	0xf2
 19003 3d38 C03D0000 		.4byte	.LFB186
 19004 3d3c 3E000000 		.4byte	.LFE186-.LFB186
 19005 3d40 01       		.uleb128 0x1
 19006 3d41 9C       		.byte	0x9c
 19007 3d42 653D0000 		.4byte	0x3d65
 19008 3d46 16       		.uleb128 0x16
 19009 3d47 5B1F0000 		.4byte	.LASF298
 19010 3d4b 01       		.byte	0x1
 19011 3d4c C10E     		.2byte	0xec1
 19012 3d4e 620D0000 		.4byte	0xd62
 19013 3d52 02       		.uleb128 0x2
 19014 3d53 91       		.byte	0x91
 19015 3d54 74       		.sleb128 -12
 19016 3d55 16       		.uleb128 0x16
 19017 3d56 A60E0000 		.4byte	.LASF303
 19018 3d5a 01       		.byte	0x1
 19019 3d5b C10E     		.2byte	0xec1
 19020 3d5d 640D0000 		.4byte	0xd64
 19021 3d61 02       		.uleb128 0x2
ARM GAS  /tmp/ccVYwGiK.s 			page 338


 19022 3d62 91       		.byte	0x91
 19023 3d63 70       		.sleb128 -16
 19024 3d64 00       		.byte	0
 19025 3d65 15       		.uleb128 0x15
 19026 3d66 990F0000 		.4byte	.LASF494
 19027 3d6a 01       		.byte	0x1
 19028 3d6b D30E     		.2byte	0xed3
 19029 3d6d F2000000 		.4byte	0xf2
 19030 3d71 003E0000 		.4byte	.LFB187
 19031 3d75 60000000 		.4byte	.LFE187-.LFB187
 19032 3d79 01       		.uleb128 0x1
 19033 3d7a 9C       		.byte	0x9c
 19034 3d7b AD3D0000 		.4byte	0x3dad
 19035 3d7f 16       		.uleb128 0x16
 19036 3d80 5B1F0000 		.4byte	.LASF298
 19037 3d84 01       		.byte	0x1
 19038 3d85 D30E     		.2byte	0xed3
 19039 3d87 620D0000 		.4byte	0xd62
 19040 3d8b 02       		.uleb128 0x2
 19041 3d8c 91       		.byte	0x91
 19042 3d8d 6C       		.sleb128 -20
 19043 3d8e 16       		.uleb128 0x16
 19044 3d8f 600F0000 		.4byte	.LASF305
 19045 3d93 01       		.byte	0x1
 19046 3d94 D30E     		.2byte	0xed3
 19047 3d96 6B000000 		.4byte	0x6b
 19048 3d9a 02       		.uleb128 0x2
 19049 3d9b 91       		.byte	0x91
 19050 3d9c 6B       		.sleb128 -21
 19051 3d9d 13       		.uleb128 0x13
 19052 3d9e A60E0000 		.4byte	.LASF303
 19053 3da2 01       		.byte	0x1
 19054 3da3 D50E     		.2byte	0xed5
 19055 3da5 6B000000 		.4byte	0x6b
 19056 3da9 02       		.uleb128 0x2
 19057 3daa 91       		.byte	0x91
 19058 3dab 77       		.sleb128 -9
 19059 3dac 00       		.byte	0
 19060 3dad 15       		.uleb128 0x15
 19061 3dae 23110000 		.4byte	.LASF495
 19062 3db2 01       		.byte	0x1
 19063 3db3 ED0E     		.2byte	0xeed
 19064 3db5 F2000000 		.4byte	0xf2
 19065 3db9 603E0000 		.4byte	.LFB188
 19066 3dbd 38000000 		.4byte	.LFE188-.LFB188
 19067 3dc1 01       		.uleb128 0x1
 19068 3dc2 9C       		.byte	0x9c
 19069 3dc3 E63D0000 		.4byte	0x3de6
 19070 3dc7 16       		.uleb128 0x16
 19071 3dc8 5B1F0000 		.4byte	.LASF298
 19072 3dcc 01       		.byte	0x1
 19073 3dcd ED0E     		.2byte	0xeed
 19074 3dcf 620D0000 		.4byte	0xd62
 19075 3dd3 02       		.uleb128 0x2
 19076 3dd4 91       		.byte	0x91
 19077 3dd5 74       		.sleb128 -12
 19078 3dd6 16       		.uleb128 0x16
ARM GAS  /tmp/ccVYwGiK.s 			page 339


 19079 3dd7 A60E0000 		.4byte	.LASF303
 19080 3ddb 01       		.byte	0x1
 19081 3ddc ED0E     		.2byte	0xeed
 19082 3dde 640D0000 		.4byte	0xd64
 19083 3de2 02       		.uleb128 0x2
 19084 3de3 91       		.byte	0x91
 19085 3de4 70       		.sleb128 -16
 19086 3de5 00       		.byte	0
 19087 3de6 15       		.uleb128 0x15
 19088 3de7 6E150000 		.4byte	.LASF496
 19089 3deb 01       		.byte	0x1
 19090 3dec FF0E     		.2byte	0xeff
 19091 3dee F2000000 		.4byte	0xf2
 19092 3df2 A03E0000 		.4byte	.LFB189
 19093 3df6 60000000 		.4byte	.LFE189-.LFB189
 19094 3dfa 01       		.uleb128 0x1
 19095 3dfb 9C       		.byte	0x9c
 19096 3dfc 2E3E0000 		.4byte	0x3e2e
 19097 3e00 16       		.uleb128 0x16
 19098 3e01 5B1F0000 		.4byte	.LASF298
 19099 3e05 01       		.byte	0x1
 19100 3e06 FF0E     		.2byte	0xeff
 19101 3e08 620D0000 		.4byte	0xd62
 19102 3e0c 02       		.uleb128 0x2
 19103 3e0d 91       		.byte	0x91
 19104 3e0e 6C       		.sleb128 -20
 19105 3e0f 16       		.uleb128 0x16
 19106 3e10 600F0000 		.4byte	.LASF305
 19107 3e14 01       		.byte	0x1
 19108 3e15 FF0E     		.2byte	0xeff
 19109 3e17 6B000000 		.4byte	0x6b
 19110 3e1b 02       		.uleb128 0x2
 19111 3e1c 91       		.byte	0x91
 19112 3e1d 6B       		.sleb128 -21
 19113 3e1e 13       		.uleb128 0x13
 19114 3e1f A60E0000 		.4byte	.LASF303
 19115 3e23 01       		.byte	0x1
 19116 3e24 010F     		.2byte	0xf01
 19117 3e26 6B000000 		.4byte	0x6b
 19118 3e2a 02       		.uleb128 0x2
 19119 3e2b 91       		.byte	0x91
 19120 3e2c 77       		.sleb128 -9
 19121 3e2d 00       		.byte	0
 19122 3e2e 15       		.uleb128 0x15
 19123 3e2f 422B0000 		.4byte	.LASF497
 19124 3e33 01       		.byte	0x1
 19125 3e34 190F     		.2byte	0xf19
 19126 3e36 F2000000 		.4byte	0xf2
 19127 3e3a 003F0000 		.4byte	.LFB190
 19128 3e3e 38000000 		.4byte	.LFE190-.LFB190
 19129 3e42 01       		.uleb128 0x1
 19130 3e43 9C       		.byte	0x9c
 19131 3e44 673E0000 		.4byte	0x3e67
 19132 3e48 16       		.uleb128 0x16
 19133 3e49 5B1F0000 		.4byte	.LASF298
 19134 3e4d 01       		.byte	0x1
 19135 3e4e 190F     		.2byte	0xf19
ARM GAS  /tmp/ccVYwGiK.s 			page 340


 19136 3e50 620D0000 		.4byte	0xd62
 19137 3e54 02       		.uleb128 0x2
 19138 3e55 91       		.byte	0x91
 19139 3e56 74       		.sleb128 -12
 19140 3e57 16       		.uleb128 0x16
 19141 3e58 A60E0000 		.4byte	.LASF303
 19142 3e5c 01       		.byte	0x1
 19143 3e5d 190F     		.2byte	0xf19
 19144 3e5f 640D0000 		.4byte	0xd64
 19145 3e63 02       		.uleb128 0x2
 19146 3e64 91       		.byte	0x91
 19147 3e65 70       		.sleb128 -16
 19148 3e66 00       		.byte	0
 19149 3e67 15       		.uleb128 0x15
 19150 3e68 AB150000 		.4byte	.LASF498
 19151 3e6c 01       		.byte	0x1
 19152 3e6d 2B0F     		.2byte	0xf2b
 19153 3e6f F2000000 		.4byte	0xf2
 19154 3e73 403F0000 		.4byte	.LFB191
 19155 3e77 86000000 		.4byte	.LFE191-.LFB191
 19156 3e7b 01       		.uleb128 0x1
 19157 3e7c 9C       		.byte	0x9c
 19158 3e7d D63E0000 		.4byte	0x3ed6
 19159 3e81 16       		.uleb128 0x16
 19160 3e82 5B1F0000 		.4byte	.LASF298
 19161 3e86 01       		.byte	0x1
 19162 3e87 2B0F     		.2byte	0xf2b
 19163 3e89 620D0000 		.4byte	0xd62
 19164 3e8d 02       		.uleb128 0x2
 19165 3e8e 91       		.byte	0x91
 19166 3e8f 6C       		.sleb128 -20
 19167 3e90 16       		.uleb128 0x16
 19168 3e91 2C0F0000 		.4byte	.LASF310
 19169 3e95 01       		.byte	0x1
 19170 3e96 2B0F     		.2byte	0xf2b
 19171 3e98 640D0000 		.4byte	0xd64
 19172 3e9c 02       		.uleb128 0x2
 19173 3e9d 91       		.byte	0x91
 19174 3e9e 68       		.sleb128 -24
 19175 3e9f 14       		.uleb128 0x14
 19176 3ea0 6900     		.ascii	"i\000"
 19177 3ea2 01       		.byte	0x1
 19178 3ea3 2D0F     		.2byte	0xf2d
 19179 3ea5 6B000000 		.4byte	0x6b
 19180 3ea9 02       		.uleb128 0x2
 19181 3eaa 91       		.byte	0x91
 19182 3eab 77       		.sleb128 -9
 19183 3eac 14       		.uleb128 0x14
 19184 3ead 6A00     		.ascii	"j\000"
 19185 3eaf 01       		.byte	0x1
 19186 3eb0 2D0F     		.2byte	0xf2d
 19187 3eb2 6B000000 		.4byte	0x6b
 19188 3eb6 02       		.uleb128 0x2
 19189 3eb7 91       		.byte	0x91
 19190 3eb8 76       		.sleb128 -10
 19191 3eb9 14       		.uleb128 0x14
 19192 3eba 6B00     		.ascii	"k\000"
ARM GAS  /tmp/ccVYwGiK.s 			page 341


 19193 3ebc 01       		.byte	0x1
 19194 3ebd 2D0F     		.2byte	0xf2d
 19195 3ebf 6B000000 		.4byte	0x6b
 19196 3ec3 02       		.uleb128 0x2
 19197 3ec4 91       		.byte	0x91
 19198 3ec5 75       		.sleb128 -11
 19199 3ec6 13       		.uleb128 0x13
 19200 3ec7 310F0000 		.4byte	.LASF499
 19201 3ecb 01       		.byte	0x1
 19202 3ecc 2E0F     		.2byte	0xf2e
 19203 3ece 6B000000 		.4byte	0x6b
 19204 3ed2 02       		.uleb128 0x2
 19205 3ed3 91       		.byte	0x91
 19206 3ed4 74       		.sleb128 -12
 19207 3ed5 00       		.byte	0
 19208 3ed6 07       		.uleb128 0x7
 19209 3ed7 4F000000 		.4byte	0x4f
 19210 3edb EC3E0000 		.4byte	0x3eec
 19211 3edf 08       		.uleb128 0x8
 19212 3ee0 BB000000 		.4byte	0xbb
 19213 3ee4 02       		.byte	0x2
 19214 3ee5 08       		.uleb128 0x8
 19215 3ee6 BB000000 		.4byte	0xbb
 19216 3eea 03       		.byte	0x3
 19217 3eeb 00       		.byte	0
 19218 3eec 17       		.uleb128 0x17
 19219 3eed 7E240000 		.4byte	.LASF503
 19220 3ef1 01       		.byte	0x1
 19221 3ef2 E3       		.byte	0xe3
 19222 3ef3 FD3E0000 		.4byte	0x3efd
 19223 3ef7 05       		.uleb128 0x5
 19224 3ef8 03       		.byte	0x3
 19225 3ef9 00000000 		.4byte	LSM303AGR_ACC_Sensitivity_List
 19226 3efd 18       		.uleb128 0x18
 19227 3efe D63E0000 		.4byte	0x3ed6
 19228 3f02 00       		.byte	0
 19229              		.section	.debug_abbrev,"",%progbits
 19230              	.Ldebug_abbrev0:
 19231 0000 01       		.uleb128 0x1
 19232 0001 11       		.uleb128 0x11
 19233 0002 01       		.byte	0x1
 19234 0003 25       		.uleb128 0x25
 19235 0004 0E       		.uleb128 0xe
 19236 0005 13       		.uleb128 0x13
 19237 0006 0B       		.uleb128 0xb
 19238 0007 03       		.uleb128 0x3
 19239 0008 0E       		.uleb128 0xe
 19240 0009 1B       		.uleb128 0x1b
 19241 000a 0E       		.uleb128 0xe
 19242 000b 11       		.uleb128 0x11
 19243 000c 01       		.uleb128 0x1
 19244 000d 12       		.uleb128 0x12
 19245 000e 06       		.uleb128 0x6
 19246 000f 10       		.uleb128 0x10
 19247 0010 17       		.uleb128 0x17
 19248 0011 00       		.byte	0
 19249 0012 00       		.byte	0
ARM GAS  /tmp/ccVYwGiK.s 			page 342


 19250 0013 02       		.uleb128 0x2
 19251 0014 24       		.uleb128 0x24
 19252 0015 00       		.byte	0
 19253 0016 0B       		.uleb128 0xb
 19254 0017 0B       		.uleb128 0xb
 19255 0018 3E       		.uleb128 0x3e
 19256 0019 0B       		.uleb128 0xb
 19257 001a 03       		.uleb128 0x3
 19258 001b 0E       		.uleb128 0xe
 19259 001c 00       		.byte	0
 19260 001d 00       		.byte	0
 19261 001e 03       		.uleb128 0x3
 19262 001f 24       		.uleb128 0x24
 19263 0020 00       		.byte	0
 19264 0021 0B       		.uleb128 0xb
 19265 0022 0B       		.uleb128 0xb
 19266 0023 3E       		.uleb128 0x3e
 19267 0024 0B       		.uleb128 0xb
 19268 0025 03       		.uleb128 0x3
 19269 0026 08       		.uleb128 0x8
 19270 0027 00       		.byte	0
 19271 0028 00       		.byte	0
 19272 0029 04       		.uleb128 0x4
 19273 002a 16       		.uleb128 0x16
 19274 002b 00       		.byte	0
 19275 002c 03       		.uleb128 0x3
 19276 002d 0E       		.uleb128 0xe
 19277 002e 3A       		.uleb128 0x3a
 19278 002f 0B       		.uleb128 0xb
 19279 0030 3B       		.uleb128 0x3b
 19280 0031 0B       		.uleb128 0xb
 19281 0032 49       		.uleb128 0x49
 19282 0033 13       		.uleb128 0x13
 19283 0034 00       		.byte	0
 19284 0035 00       		.byte	0
 19285 0036 05       		.uleb128 0x5
 19286 0037 17       		.uleb128 0x17
 19287 0038 01       		.byte	0x1
 19288 0039 0B       		.uleb128 0xb
 19289 003a 0B       		.uleb128 0xb
 19290 003b 3A       		.uleb128 0x3a
 19291 003c 0B       		.uleb128 0xb
 19292 003d 3B       		.uleb128 0x3b
 19293 003e 0B       		.uleb128 0xb
 19294 003f 01       		.uleb128 0x1
 19295 0040 13       		.uleb128 0x13
 19296 0041 00       		.byte	0
 19297 0042 00       		.byte	0
 19298 0043 06       		.uleb128 0x6
 19299 0044 0D       		.uleb128 0xd
 19300 0045 00       		.byte	0
 19301 0046 03       		.uleb128 0x3
 19302 0047 0E       		.uleb128 0xe
 19303 0048 3A       		.uleb128 0x3a
 19304 0049 0B       		.uleb128 0xb
 19305 004a 3B       		.uleb128 0x3b
 19306 004b 0B       		.uleb128 0xb
ARM GAS  /tmp/ccVYwGiK.s 			page 343


 19307 004c 49       		.uleb128 0x49
 19308 004d 13       		.uleb128 0x13
 19309 004e 00       		.byte	0
 19310 004f 00       		.byte	0
 19311 0050 07       		.uleb128 0x7
 19312 0051 01       		.uleb128 0x1
 19313 0052 01       		.byte	0x1
 19314 0053 49       		.uleb128 0x49
 19315 0054 13       		.uleb128 0x13
 19316 0055 01       		.uleb128 0x1
 19317 0056 13       		.uleb128 0x13
 19318 0057 00       		.byte	0
 19319 0058 00       		.byte	0
 19320 0059 08       		.uleb128 0x8
 19321 005a 21       		.uleb128 0x21
 19322 005b 00       		.byte	0
 19323 005c 49       		.uleb128 0x49
 19324 005d 13       		.uleb128 0x13
 19325 005e 2F       		.uleb128 0x2f
 19326 005f 0B       		.uleb128 0xb
 19327 0060 00       		.byte	0
 19328 0061 00       		.byte	0
 19329 0062 09       		.uleb128 0x9
 19330 0063 04       		.uleb128 0x4
 19331 0064 01       		.byte	0x1
 19332 0065 0B       		.uleb128 0xb
 19333 0066 0B       		.uleb128 0xb
 19334 0067 3A       		.uleb128 0x3a
 19335 0068 0B       		.uleb128 0xb
 19336 0069 3B       		.uleb128 0x3b
 19337 006a 0B       		.uleb128 0xb
 19338 006b 01       		.uleb128 0x1
 19339 006c 13       		.uleb128 0x13
 19340 006d 00       		.byte	0
 19341 006e 00       		.byte	0
 19342 006f 0A       		.uleb128 0xa
 19343 0070 28       		.uleb128 0x28
 19344 0071 00       		.byte	0
 19345 0072 03       		.uleb128 0x3
 19346 0073 0E       		.uleb128 0xe
 19347 0074 1C       		.uleb128 0x1c
 19348 0075 0D       		.uleb128 0xd
 19349 0076 00       		.byte	0
 19350 0077 00       		.byte	0
 19351 0078 0B       		.uleb128 0xb
 19352 0079 16       		.uleb128 0x16
 19353 007a 00       		.byte	0
 19354 007b 03       		.uleb128 0x3
 19355 007c 0E       		.uleb128 0xe
 19356 007d 3A       		.uleb128 0x3a
 19357 007e 0B       		.uleb128 0xb
 19358 007f 3B       		.uleb128 0x3b
 19359 0080 05       		.uleb128 0x5
 19360 0081 49       		.uleb128 0x49
 19361 0082 13       		.uleb128 0x13
 19362 0083 00       		.byte	0
 19363 0084 00       		.byte	0
ARM GAS  /tmp/ccVYwGiK.s 			page 344


 19364 0085 0C       		.uleb128 0xc
 19365 0086 04       		.uleb128 0x4
 19366 0087 01       		.byte	0x1
 19367 0088 0B       		.uleb128 0xb
 19368 0089 0B       		.uleb128 0xb
 19369 008a 3A       		.uleb128 0x3a
 19370 008b 0B       		.uleb128 0xb
 19371 008c 3B       		.uleb128 0x3b
 19372 008d 05       		.uleb128 0x5
 19373 008e 01       		.uleb128 0x1
 19374 008f 13       		.uleb128 0x13
 19375 0090 00       		.byte	0
 19376 0091 00       		.byte	0
 19377 0092 0D       		.uleb128 0xd
 19378 0093 2E       		.uleb128 0x2e
 19379 0094 01       		.byte	0x1
 19380 0095 3F       		.uleb128 0x3f
 19381 0096 19       		.uleb128 0x19
 19382 0097 03       		.uleb128 0x3
 19383 0098 0E       		.uleb128 0xe
 19384 0099 3A       		.uleb128 0x3a
 19385 009a 0B       		.uleb128 0xb
 19386 009b 3B       		.uleb128 0x3b
 19387 009c 0B       		.uleb128 0xb
 19388 009d 27       		.uleb128 0x27
 19389 009e 19       		.uleb128 0x19
 19390 009f 49       		.uleb128 0x49
 19391 00a0 13       		.uleb128 0x13
 19392 00a1 11       		.uleb128 0x11
 19393 00a2 01       		.uleb128 0x1
 19394 00a3 12       		.uleb128 0x12
 19395 00a4 06       		.uleb128 0x6
 19396 00a5 40       		.uleb128 0x40
 19397 00a6 18       		.uleb128 0x18
 19398 00a7 9642     		.uleb128 0x2116
 19399 00a9 19       		.uleb128 0x19
 19400 00aa 01       		.uleb128 0x1
 19401 00ab 13       		.uleb128 0x13
 19402 00ac 00       		.byte	0
 19403 00ad 00       		.byte	0
 19404 00ae 0E       		.uleb128 0xe
 19405 00af 05       		.uleb128 0x5
 19406 00b0 00       		.byte	0
 19407 00b1 03       		.uleb128 0x3
 19408 00b2 0E       		.uleb128 0xe
 19409 00b3 3A       		.uleb128 0x3a
 19410 00b4 0B       		.uleb128 0xb
 19411 00b5 3B       		.uleb128 0x3b
 19412 00b6 0B       		.uleb128 0xb
 19413 00b7 49       		.uleb128 0x49
 19414 00b8 13       		.uleb128 0x13
 19415 00b9 02       		.uleb128 0x2
 19416 00ba 18       		.uleb128 0x18
 19417 00bb 00       		.byte	0
 19418 00bc 00       		.byte	0
 19419 00bd 0F       		.uleb128 0xf
 19420 00be 05       		.uleb128 0x5
ARM GAS  /tmp/ccVYwGiK.s 			page 345


 19421 00bf 00       		.byte	0
 19422 00c0 03       		.uleb128 0x3
 19423 00c1 08       		.uleb128 0x8
 19424 00c2 3A       		.uleb128 0x3a
 19425 00c3 0B       		.uleb128 0xb
 19426 00c4 3B       		.uleb128 0x3b
 19427 00c5 0B       		.uleb128 0xb
 19428 00c6 49       		.uleb128 0x49
 19429 00c7 13       		.uleb128 0x13
 19430 00c8 02       		.uleb128 0x2
 19431 00c9 18       		.uleb128 0x18
 19432 00ca 00       		.byte	0
 19433 00cb 00       		.byte	0
 19434 00cc 10       		.uleb128 0x10
 19435 00cd 0F       		.uleb128 0xf
 19436 00ce 00       		.byte	0
 19437 00cf 0B       		.uleb128 0xb
 19438 00d0 0B       		.uleb128 0xb
 19439 00d1 00       		.byte	0
 19440 00d2 00       		.byte	0
 19441 00d3 11       		.uleb128 0x11
 19442 00d4 0F       		.uleb128 0xf
 19443 00d5 00       		.byte	0
 19444 00d6 0B       		.uleb128 0xb
 19445 00d7 0B       		.uleb128 0xb
 19446 00d8 49       		.uleb128 0x49
 19447 00d9 13       		.uleb128 0x13
 19448 00da 00       		.byte	0
 19449 00db 00       		.byte	0
 19450 00dc 12       		.uleb128 0x12
 19451 00dd 34       		.uleb128 0x34
 19452 00de 00       		.byte	0
 19453 00df 03       		.uleb128 0x3
 19454 00e0 0E       		.uleb128 0xe
 19455 00e1 3A       		.uleb128 0x3a
 19456 00e2 0B       		.uleb128 0xb
 19457 00e3 3B       		.uleb128 0x3b
 19458 00e4 0B       		.uleb128 0xb
 19459 00e5 49       		.uleb128 0x49
 19460 00e6 13       		.uleb128 0x13
 19461 00e7 02       		.uleb128 0x2
 19462 00e8 18       		.uleb128 0x18
 19463 00e9 00       		.byte	0
 19464 00ea 00       		.byte	0
 19465 00eb 13       		.uleb128 0x13
 19466 00ec 34       		.uleb128 0x34
 19467 00ed 00       		.byte	0
 19468 00ee 03       		.uleb128 0x3
 19469 00ef 0E       		.uleb128 0xe
 19470 00f0 3A       		.uleb128 0x3a
 19471 00f1 0B       		.uleb128 0xb
 19472 00f2 3B       		.uleb128 0x3b
 19473 00f3 05       		.uleb128 0x5
 19474 00f4 49       		.uleb128 0x49
 19475 00f5 13       		.uleb128 0x13
 19476 00f6 02       		.uleb128 0x2
 19477 00f7 18       		.uleb128 0x18
ARM GAS  /tmp/ccVYwGiK.s 			page 346


 19478 00f8 00       		.byte	0
 19479 00f9 00       		.byte	0
 19480 00fa 14       		.uleb128 0x14
 19481 00fb 34       		.uleb128 0x34
 19482 00fc 00       		.byte	0
 19483 00fd 03       		.uleb128 0x3
 19484 00fe 08       		.uleb128 0x8
 19485 00ff 3A       		.uleb128 0x3a
 19486 0100 0B       		.uleb128 0xb
 19487 0101 3B       		.uleb128 0x3b
 19488 0102 05       		.uleb128 0x5
 19489 0103 49       		.uleb128 0x49
 19490 0104 13       		.uleb128 0x13
 19491 0105 02       		.uleb128 0x2
 19492 0106 18       		.uleb128 0x18
 19493 0107 00       		.byte	0
 19494 0108 00       		.byte	0
 19495 0109 15       		.uleb128 0x15
 19496 010a 2E       		.uleb128 0x2e
 19497 010b 01       		.byte	0x1
 19498 010c 3F       		.uleb128 0x3f
 19499 010d 19       		.uleb128 0x19
 19500 010e 03       		.uleb128 0x3
 19501 010f 0E       		.uleb128 0xe
 19502 0110 3A       		.uleb128 0x3a
 19503 0111 0B       		.uleb128 0xb
 19504 0112 3B       		.uleb128 0x3b
 19505 0113 05       		.uleb128 0x5
 19506 0114 27       		.uleb128 0x27
 19507 0115 19       		.uleb128 0x19
 19508 0116 49       		.uleb128 0x49
 19509 0117 13       		.uleb128 0x13
 19510 0118 11       		.uleb128 0x11
 19511 0119 01       		.uleb128 0x1
 19512 011a 12       		.uleb128 0x12
 19513 011b 06       		.uleb128 0x6
 19514 011c 40       		.uleb128 0x40
 19515 011d 18       		.uleb128 0x18
 19516 011e 9642     		.uleb128 0x2116
 19517 0120 19       		.uleb128 0x19
 19518 0121 01       		.uleb128 0x1
 19519 0122 13       		.uleb128 0x13
 19520 0123 00       		.byte	0
 19521 0124 00       		.byte	0
 19522 0125 16       		.uleb128 0x16
 19523 0126 05       		.uleb128 0x5
 19524 0127 00       		.byte	0
 19525 0128 03       		.uleb128 0x3
 19526 0129 0E       		.uleb128 0xe
 19527 012a 3A       		.uleb128 0x3a
 19528 012b 0B       		.uleb128 0xb
 19529 012c 3B       		.uleb128 0x3b
 19530 012d 05       		.uleb128 0x5
 19531 012e 49       		.uleb128 0x49
 19532 012f 13       		.uleb128 0x13
 19533 0130 02       		.uleb128 0x2
 19534 0131 18       		.uleb128 0x18
ARM GAS  /tmp/ccVYwGiK.s 			page 347


 19535 0132 00       		.byte	0
 19536 0133 00       		.byte	0
 19537 0134 17       		.uleb128 0x17
 19538 0135 34       		.uleb128 0x34
 19539 0136 00       		.byte	0
 19540 0137 03       		.uleb128 0x3
 19541 0138 0E       		.uleb128 0xe
 19542 0139 3A       		.uleb128 0x3a
 19543 013a 0B       		.uleb128 0xb
 19544 013b 3B       		.uleb128 0x3b
 19545 013c 0B       		.uleb128 0xb
 19546 013d 49       		.uleb128 0x49
 19547 013e 13       		.uleb128 0x13
 19548 013f 3F       		.uleb128 0x3f
 19549 0140 19       		.uleb128 0x19
 19550 0141 02       		.uleb128 0x2
 19551 0142 18       		.uleb128 0x18
 19552 0143 00       		.byte	0
 19553 0144 00       		.byte	0
 19554 0145 18       		.uleb128 0x18
 19555 0146 26       		.uleb128 0x26
 19556 0147 00       		.byte	0
 19557 0148 49       		.uleb128 0x49
 19558 0149 13       		.uleb128 0x13
 19559 014a 00       		.byte	0
 19560 014b 00       		.byte	0
 19561 014c 00       		.byte	0
 19562              		.section	.debug_aranges,"",%progbits
 19563 0000 1C000000 		.4byte	0x1c
 19564 0004 0200     		.2byte	0x2
 19565 0006 00000000 		.4byte	.Ldebug_info0
 19566 000a 04       		.byte	0x4
 19567 000b 00       		.byte	0
 19568 000c 0000     		.2byte	0
 19569 000e 0000     		.2byte	0
 19570 0010 00000000 		.4byte	.Ltext0
 19571 0014 C63F0000 		.4byte	.Letext0-.Ltext0
 19572 0018 00000000 		.4byte	0
 19573 001c 00000000 		.4byte	0
 19574              		.section	.debug_line,"",%progbits
 19575              	.Ldebug_line0:
 19576 0000 BD070000 		.section	.debug_str,"MS",%progbits,1
 19576      02007700 
 19576      00000201 
 19576      FB0E0D00 
 19576      01010101 
 19577              	.LASF122:
 19578 0000 4C534D33 		.ascii	"LSM303AGR_ACC_I1_CLICK_t\000"
 19578      30334147 
 19578      525F4143 
 19578      435F4931 
 19578      5F434C49 
 19579              	.LASF102:
 19580 0019 4C534D33 		.ascii	"LSM303AGR_ACC_I1_OVERRUN_DISABLED\000"
 19580      30334147 
 19580      525F4143 
 19580      435F4931 
ARM GAS  /tmp/ccVYwGiK.s 			page 348


 19580      5F4F5645 
 19581              	.LASF151:
 19582 003b 4C534D33 		.ascii	"LSM303AGR_ACC_FIFO_EN_t\000"
 19582      30334147 
 19582      525F4143 
 19582      435F4649 
 19582      464F5F45 
 19583              	.LASF180:
 19584 0053 4C534D33 		.ascii	"LSM303AGR_ACC_ZDA_AVAILABLE\000"
 19584      30334147 
 19584      525F4143 
 19584      435F5A44 
 19584      415F4156 
 19585              	.LASF201:
 19586 006f 4C534D33 		.ascii	"LSM303AGR_ACC_FM_FIFO\000"
 19586      30334147 
 19586      525F4143 
 19586      435F464D 
 19586      5F464946 
 19587              	.LASF408:
 19588 0085 4C534D33 		.ascii	"LSM303AGR_ACC_R_FifoThreshold\000"
 19588      30334147 
 19588      525F4143 
 19588      435F525F 
 19588      4669666F 
 19589              	.LASF22:
 19590 00a3 4C534D33 		.ascii	"LSM303AGR_ACC_FS_2G\000"
 19590      30334147 
 19590      525F4143 
 19590      435F4653 
 19590      5F324700 
 19591              	.LASF33:
 19592 00b7 4C534D33 		.ascii	"LSM303AGR_ACC_ODR_DO_200Hz\000"
 19592      30334147 
 19592      525F4143 
 19592      435F4F44 
 19592      525F444F 
 19593              	.LASF124:
 19594 00d2 4C534D33 		.ascii	"LSM303AGR_ACC_SIM_3_WIRES\000"
 19594      30334147 
 19594      525F4143 
 19594      435F5349 
 19594      4D5F335F 
 19595              	.LASF12:
 19596 00ec 69313662 		.ascii	"i16bit\000"
 19596      697400
 19597              	.LASF152:
 19598 00f3 4C534D33 		.ascii	"LSM303AGR_ACC_BOOT_NORMAL_MODE\000"
 19598      30334147 
 19598      525F4143 
 19598      435F424F 
 19598      4F545F4E 
 19599              	.LASF336:
 19600 0112 4C534D33 		.ascii	"LSM303AGR_ACC_R_ZEN\000"
 19600      30334147 
 19600      525F4143 
 19600      435F525F 
ARM GAS  /tmp/ccVYwGiK.s 			page 349


 19600      5A454E00 
 19601              	.LASF161:
 19602 0126 4C534D33 		.ascii	"LSM303AGR_ACC_BOOT_I1_DISABLED\000"
 19602      30334147 
 19602      525F4143 
 19602      435F424F 
 19602      4F545F49 
 19603              	.LASF384:
 19604 0145 4C534D33 		.ascii	"LSM303AGR_ACC_R_RebootMemory\000"
 19604      30334147 
 19604      525F4143 
 19604      435F525F 
 19604      5265626F 
 19605              	.LASF94:
 19606 0162 4C534D33 		.ascii	"LSM303AGR_ACC_HPCF_10\000"
 19606      30334147 
 19606      525F4143 
 19606      435F4850 
 19606      43465F31 
 19607              	.LASF50:
 19608 0178 4C534D33 		.ascii	"LSM303AGR_ACC_1OR__NO_OVERRUN\000"
 19608      30334147 
 19608      525F4143 
 19608      435F314F 
 19608      525F5F4E 
 19609              	.LASF357:
 19610 0196 4C534D33 		.ascii	"LSM303AGR_ACC_W_FIFO_DRDY1_on_INT1\000"
 19610      30334147 
 19610      525F4143 
 19610      435F575F 
 19610      4649464F 
 19611              	.LASF81:
 19612 01b9 4C534D33 		.ascii	"LSM303AGR_ACC_HPIS1_ENABLED\000"
 19612      30334147 
 19612      525F4143 
 19612      435F4850 
 19612      4953315F 
 19613              	.LASF87:
 19614 01d5 4C534D33 		.ascii	"LSM303AGR_ACC_HPCLICK_ENABLED\000"
 19614      30334147 
 19614      525F4143 
 19614      435F4850 
 19614      434C4943 
 19615              	.LASF164:
 19616 01f3 4C534D33 		.ascii	"LSM303AGR_ACC_I2_INT2_DISABLED\000"
 19616      30334147 
 19616      525F4143 
 19616      435F4932 
 19616      5F494E54 
 19617              	.LASF458:
 19618 0212 4C534D33 		.ascii	"LSM303AGR_ACC_R_Int2_YLo\000"
 19618      30334147 
 19618      525F4143 
 19618      435F525F 
 19618      496E7432 
 19619              	.LASF420:
 19620 022b 4C534D33 		.ascii	"LSM303AGR_ACC_R_Int1EnXHi\000"
ARM GAS  /tmp/ccVYwGiK.s 			page 350


 19620      30334147 
 19620      525F4143 
 19620      435F525F 
 19620      496E7431 
 19621              	.LASF119:
 19622 0245 4C534D33 		.ascii	"LSM303AGR_ACC_I1_AOI1_t\000"
 19622      30334147 
 19622      525F4143 
 19622      435F4931 
 19622      5F414F49 
 19623              	.LASF203:
 19624 025d 4C534D33 		.ascii	"LSM303AGR_ACC_FM_TRIGGER\000"
 19624      30334147 
 19624      525F4143 
 19624      435F464D 
 19624      5F545249 
 19625              	.LASF322:
 19626 0276 4C534D33 		.ascii	"LSM303AGR_ACC_R_DataXOverrun\000"
 19626      30334147 
 19626      525F4143 
 19626      435F525F 
 19626      44617461 
 19627              	.LASF136:
 19628 0293 4C534D33 		.ascii	"LSM303AGR_ACC_BLE_t\000"
 19628      30334147 
 19628      525F4143 
 19628      435F424C 
 19628      455F7400 
 19629              	.LASF86:
 19630 02a7 4C534D33 		.ascii	"LSM303AGR_ACC_HPCLICK_DISABLED\000"
 19630      30334147 
 19630      525F4143 
 19630      435F4850 
 19630      434C4943 
 19631              	.LASF99:
 19632 02c6 4C534D33 		.ascii	"LSM303AGR_ACC_HPM_NORMAL_2\000"
 19632      30334147 
 19632      525F4143 
 19632      435F4850 
 19632      4D5F4E4F 
 19633              	.LASF37:
 19634 02e1 4C534D33 		.ascii	"LSM303AGR_ACC_ODR_t\000"
 19634      30334147 
 19634      525F4143 
 19634      435F4F44 
 19634      525F7400 
 19635              	.LASF328:
 19636 02f5 4C534D33 		.ascii	"LSM303AGR_ACC_R_TEMP_EN_bits\000"
 19636      30334147 
 19636      525F4143 
 19636      435F525F 
 19636      54454D50 
 19637              	.LASF463:
 19638 0312 4C534D33 		.ascii	"LSM303AGR_ACC_W_Int1_Threshold\000"
 19638      30334147 
 19638      525F4143 
 19638      435F575F 
ARM GAS  /tmp/ccVYwGiK.s 			page 351


 19638      496E7431 
 19639              	.LASF227:
 19640 0331 4C534D33 		.ascii	"LSM303AGR_ACC_ZLIE_ENABLED\000"
 19640      30334147 
 19640      525F4143 
 19640      435F5A4C 
 19640      49455F45 
 19641              	.LASF107:
 19642 034c 4C534D33 		.ascii	"LSM303AGR_ACC_I1_WTM_t\000"
 19642      30334147 
 19642      525F4143 
 19642      435F4931 
 19642      5F57544D 
 19643              	.LASF8:
 19644 0363 756E7369 		.ascii	"unsigned int\000"
 19644      676E6564 
 19644      20696E74 
 19644      00
 19645              	.LASF219:
 19646 0370 4C534D33 		.ascii	"LSM303AGR_ACC_XHIE_t\000"
 19646      30334147 
 19646      525F4143 
 19646      435F5848 
 19646      49455F74 
 19647              	.LASF320:
 19648 0385 4C534D33 		.ascii	"LSM303AGR_ACC_R_z_data_avail\000"
 19648      30334147 
 19648      525F4143 
 19648      435F525F 
 19648      7A5F6461 
 19649              	.LASF293:
 19650 03a2 4C534D33 		.ascii	"LSM303AGR_ACC_DCLICK_ENABLED\000"
 19650      30334147 
 19650      525F4143 
 19650      435F4443 
 19650      4C49434B 
 19651              	.LASF156:
 19652 03bf 4C534D33 		.ascii	"LSM303AGR_ACC_H_LACTIVE_ACTIVE_LO\000"
 19652      30334147 
 19652      525F4143 
 19652      435F485F 
 19652      4C414354 
 19653              	.LASF121:
 19654 03e1 4C534D33 		.ascii	"LSM303AGR_ACC_I1_CLICK_ENABLED\000"
 19654      30334147 
 19654      525F4143 
 19654      435F4931 
 19654      5F434C49 
 19655              	.LASF363:
 19656 0400 4C534D33 		.ascii	"LSM303AGR_ACC_W_FIFO_Click_on_INT1\000"
 19656      30334147 
 19656      525F4143 
 19656      435F575F 
 19656      4649464F 
 19657              	.LASF117:
 19658 0423 4C534D33 		.ascii	"LSM303AGR_ACC_I1_AOI1_DISABLED\000"
 19658      30334147 
ARM GAS  /tmp/ccVYwGiK.s 			page 352


 19658      525F4143 
 19658      435F4931 
 19658      5F414F49 
 19659              	.LASF183:
 19660 0442 4C534D33 		.ascii	"LSM303AGR_ACC_ZYXDA_AVAILABLE\000"
 19660      30334147 
 19660      525F4143 
 19660      435F5A59 
 19660      5844415F 
 19661              	.LASF47:
 19662 0460 4C534D33 		.ascii	"LSM303AGR_ACC_321DA__NOT_AVAILABLE\000"
 19662      30334147 
 19662      525F4143 
 19662      435F3332 
 19662      3144415F 
 19663              	.LASF10:
 19664 0483 7531365F 		.ascii	"u16_t\000"
 19664      7400
 19665              	.LASF461:
 19666 0489 4C534D33 		.ascii	"LSM303AGR_ACC_R_Int2_ZHi\000"
 19666      30334147 
 19666      525F4143 
 19666      435F525F 
 19666      496E7432 
 19667              	.LASF428:
 19668 04a2 4C534D33 		.ascii	"LSM303AGR_ACC_R_Int1EnZHi\000"
 19668      30334147 
 19668      525F4143 
 19668      435F525F 
 19668      496E7431 
 19669              	.LASF212:
 19670 04bc 4C534D33 		.ascii	"LSM303AGR_ACC_WTM_OVERFLOW\000"
 19670      30334147 
 19670      525F4143 
 19670      435F5754 
 19670      4D5F4F56 
 19671              	.LASF64:
 19672 04d7 4C534D33 		.ascii	"LSM303AGR_ACC_TEMP_EN_t\000"
 19672      30334147 
 19672      525F4143 
 19672      435F5445 
 19672      4D505F45 
 19673              	.LASF41:
 19674 04ef 4C534D33 		.ascii	"LSM303AGR_ACC_2DA__NOT_AVAILABLE\000"
 19674      30334147 
 19674      525F4143 
 19674      435F3244 
 19674      415F5F4E 
 19675              	.LASF415:
 19676 0510 4C534D33 		.ascii	"LSM303AGR_ACC_R_FifoOverrun\000"
 19676      30334147 
 19676      525F4143 
 19676      435F525F 
 19676      4669666F 
 19677              	.LASF307:
 19678 052c 4C534D33 		.ascii	"LSM303AGR_ACC_W_FullScale\000"
 19678      30334147 
ARM GAS  /tmp/ccVYwGiK.s 			page 353


 19678      525F4143 
 19678      435F575F 
 19678      46756C6C 
 19679              	.LASF17:
 19680 0546 4D454D53 		.ascii	"MEMS_ERROR\000"
 19680      5F455252 
 19680      4F5200
 19681              	.LASF325:
 19682 0551 4C534D33 		.ascii	"LSM303AGR_ACC_R_DataXYZOverrun\000"
 19682      30334147 
 19682      525F4143 
 19682      435F525F 
 19682      44617461 
 19683              	.LASF410:
 19684 0570 4C534D33 		.ascii	"LSM303AGR_ACC_R_TriggerSel\000"
 19684      30334147 
 19684      525F4143 
 19684      435F525F 
 19684      54726967 
 19685              	.LASF416:
 19686 058b 4C534D33 		.ascii	"LSM303AGR_ACC_R_WatermarkLevel\000"
 19686      30334147 
 19686      525F4143 
 19686      435F525F 
 19686      57617465 
 19687              	.LASF386:
 19688 05aa 4C534D33 		.ascii	"LSM303AGR_ACC_R_IntActive\000"
 19688      30334147 
 19688      525F4143 
 19688      435F525F 
 19688      496E7441 
 19689              	.LASF276:
 19690 05c4 4C534D33 		.ascii	"LSM303AGR_ACC_ZD_t\000"
 19690      30334147 
 19690      525F4143 
 19690      435F5A44 
 19690      5F7400
 19691              	.LASF208:
 19692 05d7 4C534D33 		.ascii	"LSM303AGR_ACC_OVRN_FIFO_NO_OVERRUN\000"
 19692      30334147 
 19692      525F4143 
 19692      435F4F56 
 19692      524E5F46 
 19693              	.LASF294:
 19694 05fa 4C534D33 		.ascii	"LSM303AGR_ACC_DCLICK_t\000"
 19694      30334147 
 19694      525F4143 
 19694      435F4443 
 19694      4C49434B 
 19695              	.LASF282:
 19696 0611 4C534D33 		.ascii	"LSM303AGR_ACC_Y_t\000"
 19696      30334147 
 19696      525F4143 
 19696      435F595F 
 19696      7400
 19697              	.LASF304:
 19698 0623 4C534D33 		.ascii	"LSM303AGR_ACC_W_BlockDataUpdate\000"
ARM GAS  /tmp/ccVYwGiK.s 			page 354


 19698      30334147 
 19698      525F4143 
 19698      435F575F 
 19698      426C6F63 
 19699              	.LASF249:
 19700 0643 4C534D33 		.ascii	"LSM303AGR_ACC_YH_t\000"
 19700      30334147 
 19700      525F4143 
 19700      435F5948 
 19700      5F7400
 19701              	.LASF23:
 19702 0656 4C534D33 		.ascii	"LSM303AGR_ACC_FS_4G\000"
 19702      30334147 
 19702      525F4143 
 19702      435F4653 
 19702      5F344700 
 19703              	.LASF289:
 19704 066a 4C534D33 		.ascii	"LSM303AGR_ACC_SCLICK_DISABLED\000"
 19704      30334147 
 19704      525F4143 
 19704      435F5343 
 19704      4C49434B 
 19705              	.LASF209:
 19706 0688 4C534D33 		.ascii	"LSM303AGR_ACC_OVRN_FIFO_OVERRUN\000"
 19706      30334147 
 19706      525F4143 
 19706      435F4F56 
 19706      524E5F46 
 19707              	.LASF55:
 19708 06a8 4C534D33 		.ascii	"LSM303AGR_ACC_2OR__t\000"
 19708      30334147 
 19708      525F4143 
 19708      435F324F 
 19708      525F5F74 
 19709              	.LASF284:
 19710 06bd 4C534D33 		.ascii	"LSM303AGR_ACC_Z_UP\000"
 19710      30334147 
 19710      525F4143 
 19710      435F5A5F 
 19710      555000
 19711              	.LASF240:
 19712 06d0 4C534D33 		.ascii	"LSM303AGR_ACC_XL_t\000"
 19712      30334147 
 19712      525F4143 
 19712      435F584C 
 19712      5F7400
 19713              	.LASF147:
 19714 06e3 4C534D33 		.ascii	"LSM303AGR_ACC_LIR_INT1_ENABLED\000"
 19714      30334147 
 19714      525F4143 
 19714      435F4C49 
 19714      525F494E 
 19715              	.LASF351:
 19716 0702 4C534D33 		.ascii	"LSM303AGR_ACC_W_FIFO_Overrun_on_INT1\000"
 19716      30334147 
 19716      525F4143 
 19716      435F575F 
ARM GAS  /tmp/ccVYwGiK.s 			page 355


 19716      4649464F 
 19717              	.LASF75:
 19718 0727 4C534D33 		.ascii	"LSM303AGR_ACC_ZEN_ENABLED\000"
 19718      30334147 
 19718      525F4143 
 19718      435F5A45 
 19718      4E5F454E 
 19719              	.LASF405:
 19720 0741 4C534D33 		.ascii	"LSM303AGR_ACC_R_ZDataOverrun\000"
 19720      30334147 
 19720      525F4143 
 19720      435F525F 
 19720      5A446174 
 19721              	.LASF326:
 19722 075e 4C534D33 		.ascii	"LSM303AGR_ACC_R_int_counter\000"
 19722      30334147 
 19722      525F4143 
 19722      435F525F 
 19722      696E745F 
 19723              	.LASF296:
 19724 077a 4C534D33 		.ascii	"LSM303AGR_ACC_CLICK_IA_UP\000"
 19724      30334147 
 19724      525F4143 
 19724      435F434C 
 19724      49434B5F 
 19725              	.LASF204:
 19726 0794 4C534D33 		.ascii	"LSM303AGR_ACC_FM_t\000"
 19726      30334147 
 19726      525F4143 
 19726      435F464D 
 19726      5F7400
 19727              	.LASF148:
 19728 07a7 4C534D33 		.ascii	"LSM303AGR_ACC_LIR_INT1_t\000"
 19728      30334147 
 19728      525F4143 
 19728      435F4C49 
 19728      525F494E 
 19729              	.LASF421:
 19730 07c0 4C534D33 		.ascii	"LSM303AGR_ACC_W_Int1EnYLo\000"
 19730      30334147 
 19730      525F4143 
 19730      435F575F 
 19730      496E7431 
 19731              	.LASF20:
 19732 07da 4C534D33 		.ascii	"LSM303AGR_ACC_BDU_ENABLED\000"
 19732      30334147 
 19732      525F4143 
 19732      435F4244 
 19732      555F454E 
 19733              	.LASF174:
 19734 07f4 4C534D33 		.ascii	"LSM303AGR_ACC_XDA_AVAILABLE\000"
 19734      30334147 
 19734      525F4143 
 19734      435F5844 
 19734      415F4156 
 19735              	.LASF165:
 19736 0810 4C534D33 		.ascii	"LSM303AGR_ACC_I2_INT2_ENABLED\000"
ARM GAS  /tmp/ccVYwGiK.s 			page 356


 19736      30334147 
 19736      525F4143 
 19736      435F4932 
 19736      5F494E54 
 19737              	.LASF427:
 19738 082e 4C534D33 		.ascii	"LSM303AGR_ACC_W_Int1EnZHi\000"
 19738      30334147 
 19738      525F4143 
 19738      435F575F 
 19738      496E7431 
 19739              	.LASF478:
 19740 0848 4C534D33 		.ascii	"LSM303AGR_ACC_R_YDouble\000"
 19740      30334147 
 19740      525F4143 
 19740      435F525F 
 19740      59446F75 
 19741              	.LASF43:
 19742 0860 4C534D33 		.ascii	"LSM303AGR_ACC_2DA__t\000"
 19742      30334147 
 19742      525F4143 
 19742      435F3244 
 19742      415F5F74 
 19743              	.LASF175:
 19744 0875 4C534D33 		.ascii	"LSM303AGR_ACC_XDA_t\000"
 19744      30334147 
 19744      525F4143 
 19744      435F5844 
 19744      415F7400 
 19745              	.LASF74:
 19746 0889 4C534D33 		.ascii	"LSM303AGR_ACC_ZEN_DISABLED\000"
 19746      30334147 
 19746      525F4143 
 19746      435F5A45 
 19746      4E5F4449 
 19747              	.LASF53:
 19748 08a4 4C534D33 		.ascii	"LSM303AGR_ACC_2OR__NO_OVERRUN\000"
 19748      30334147 
 19748      525F4143 
 19748      435F324F 
 19748      525F5F4E 
 19749              	.LASF233:
 19750 08c2 4C534D33 		.ascii	"LSM303AGR_ACC_6D_ENABLED\000"
 19750      30334147 
 19750      525F4143 
 19750      435F3644 
 19750      5F454E41 
 19751              	.LASF28:
 19752 08db 4C534D33 		.ascii	"LSM303AGR_ACC_ODR_DO_1Hz\000"
 19752      30334147 
 19752      525F4143 
 19752      435F4F44 
 19752      525F444F 
 19753              	.LASF393:
 19754 08f4 4C534D33 		.ascii	"LSM303AGR_ACC_W_I2_on_INT1\000"
 19754      30334147 
 19754      525F4143 
 19754      435F575F 
ARM GAS  /tmp/ccVYwGiK.s 			page 357


 19754      49325F6F 
 19755              	.LASF391:
 19756 090f 4C534D33 		.ascii	"LSM303AGR_ACC_W_I2_on_INT2\000"
 19756      30334147 
 19756      525F4143 
 19756      435F575F 
 19756      49325F6F 
 19757              	.LASF224:
 19758 092a 4C534D33 		.ascii	"LSM303AGR_ACC_YHIE_ENABLED\000"
 19758      30334147 
 19758      525F4143 
 19758      435F5948 
 19758      49455F45 
 19759              	.LASF215:
 19760 0945 4C534D33 		.ascii	"LSM303AGR_ACC_XLIE_ENABLED\000"
 19760      30334147 
 19760      525F4143 
 19760      435F584C 
 19760      49455F45 
 19761              	.LASF67:
 19762 0960 4C534D33 		.ascii	"LSM303AGR_ACC_ADC_PD_t\000"
 19762      30334147 
 19762      525F4143 
 19762      435F4144 
 19762      435F5044 
 19763              	.LASF143:
 19764 0977 4C534D33 		.ascii	"LSM303AGR_ACC_D4D_INT1_DISABLED\000"
 19764      30334147 
 19764      525F4143 
 19764      435F4434 
 19764      445F494E 
 19765              	.LASF127:
 19766 0997 4C534D33 		.ascii	"LSM303AGR_ACC_ST_SELF_TEST_0\000"
 19766      30334147 
 19766      525F4143 
 19766      435F5354 
 19766      5F53454C 
 19767              	.LASF128:
 19768 09b4 4C534D33 		.ascii	"LSM303AGR_ACC_ST_SELF_TEST_1\000"
 19768      30334147 
 19768      525F4143 
 19768      435F5354 
 19768      5F53454C 
 19769              	.LASF51:
 19770 09d1 4C534D33 		.ascii	"LSM303AGR_ACC_1OR__OVERRUN\000"
 19770      30334147 
 19770      525F4143 
 19770      435F314F 
 19770      525F5F4F 
 19771              	.LASF149:
 19772 09ec 4C534D33 		.ascii	"LSM303AGR_ACC_FIFO_EN_DISABLED\000"
 19772      30334147 
 19772      525F4143 
 19772      435F4649 
 19772      464F5F45 
 19773              	.LASF31:
 19774 0a0b 4C534D33 		.ascii	"LSM303AGR_ACC_ODR_DO_50Hz\000"
ARM GAS  /tmp/ccVYwGiK.s 			page 358


 19774      30334147 
 19774      525F4143 
 19774      435F4F44 
 19774      525F444F 
 19775              	.LASF369:
 19776 0a25 4C534D33 		.ascii	"LSM303AGR_ACC_W_HiRes\000"
 19776      30334147 
 19776      525F4143 
 19776      435F575F 
 19776      48695265 
 19777              	.LASF455:
 19778 0a3b 4C534D33 		.ascii	"LSM303AGR_ACC_R_Int1_IA\000"
 19778      30334147 
 19778      525F4143 
 19778      435F525F 
 19778      496E7431 
 19779              	.LASF210:
 19780 0a53 4C534D33 		.ascii	"LSM303AGR_ACC_OVRN_FIFO_t\000"
 19780      30334147 
 19780      525F4143 
 19780      435F4F56 
 19780      524E5F46 
 19781              	.LASF77:
 19782 0a6d 4C534D33 		.ascii	"LSM303AGR_ACC_LPEN_DISABLED\000"
 19782      30334147 
 19782      525F4143 
 19782      435F4C50 
 19782      454E5F44 
 19783              	.LASF358:
 19784 0a89 4C534D33 		.ascii	"LSM303AGR_ACC_R_FIFO_DRDY1_on_INT1\000"
 19784      30334147 
 19784      525F4143 
 19784      435F525F 
 19784      4649464F 
 19785              	.LASF445:
 19786 0aac 4C534D33 		.ascii	"LSM303AGR_ACC_W_Int2_6D\000"
 19786      30334147 
 19786      525F4143 
 19786      435F575F 
 19786      496E7432 
 19787              	.LASF414:
 19788 0ac4 4C534D33 		.ascii	"LSM303AGR_ACC_R_FifoEmpty\000"
 19788      30334147 
 19788      525F4143 
 19788      435F525F 
 19788      4669666F 
 19789              	.LASF160:
 19790 0ade 4C534D33 		.ascii	"LSM303AGR_ACC_P2_ACT_t\000"
 19790      30334147 
 19790      525F4143 
 19790      435F5032 
 19790      5F414354 
 19791              	.LASF76:
 19792 0af5 4C534D33 		.ascii	"LSM303AGR_ACC_ZEN_t\000"
 19792      30334147 
 19792      525F4143 
 19792      435F5A45 
ARM GAS  /tmp/ccVYwGiK.s 			page 359


 19792      4E5F7400 
 19793              	.LASF184:
 19794 0b09 4C534D33 		.ascii	"LSM303AGR_ACC_ZYXDA_t\000"
 19794      30334147 
 19794      525F4143 
 19794      435F5A59 
 19794      5844415F 
 19795              	.LASF254:
 19796 0b1f 4C534D33 		.ascii	"LSM303AGR_ACC_ZH_UP\000"
 19796      30334147 
 19796      525F4143 
 19796      435F5A48 
 19796      5F555000 
 19797              	.LASF315:
 19798 0b33 73686966 		.ascii	"shift\000"
 19798      7400
 19799              	.LASF280:
 19800 0b39 4C534D33 		.ascii	"LSM303AGR_ACC_Y_DOWN\000"
 19800      30334147 
 19800      525F4143 
 19800      435F595F 
 19800      444F574E 
 19801              	.LASF199:
 19802 0b4e 4C534D33 		.ascii	"LSM303AGR_ACC_TR_t\000"
 19802      30334147 
 19802      525F4143 
 19802      435F5452 
 19802      5F7400
 19803              	.LASF332:
 19804 0b61 4C534D33 		.ascii	"LSM303AGR_ACC_R_XEN\000"
 19804      30334147 
 19804      525F4143 
 19804      435F525F 
 19804      58454E00 
 19805              	.LASF222:
 19806 0b75 4C534D33 		.ascii	"LSM303AGR_ACC_YLIE_t\000"
 19806      30334147 
 19806      525F4143 
 19806      435F594C 
 19806      49455F74 
 19807              	.LASF263:
 19808 0b8a 4C534D33 		.ascii	"LSM303AGR_ACC_XD_ENABLED\000"
 19808      30334147 
 19808      525F4143 
 19808      435F5844 
 19808      5F454E41 
 19809              	.LASF431:
 19810 0ba3 4C534D33 		.ascii	"LSM303AGR_ACC_W_Int1_AOI\000"
 19810      30334147 
 19810      525F4143 
 19810      435F575F 
 19810      496E7431 
 19811              	.LASF197:
 19812 0bbc 4C534D33 		.ascii	"LSM303AGR_ACC_TR_TRIGGER_ON_INT1\000"
 19812      30334147 
 19812      525F4143 
 19812      435F5452 
ARM GAS  /tmp/ccVYwGiK.s 			page 360


 19812      5F545249 
 19813              	.LASF198:
 19814 0bdd 4C534D33 		.ascii	"LSM303AGR_ACC_TR_TRIGGER_ON_INT2\000"
 19814      30334147 
 19814      525F4143 
 19814      435F5452 
 19814      5F545249 
 19815              	.LASF158:
 19816 0bfe 4C534D33 		.ascii	"LSM303AGR_ACC_P2_ACT_DISABLED\000"
 19816      30334147 
 19816      525F4143 
 19816      435F5032 
 19816      5F414354 
 19817              	.LASF471:
 19818 0c1c 4C534D33 		.ascii	"LSM303AGR_ACC_W_XSingle\000"
 19818      30334147 
 19818      525F4143 
 19818      435F575F 
 19818      5853696E 
 19819              	.LASF295:
 19820 0c34 4C534D33 		.ascii	"LSM303AGR_ACC_CLICK_IA_DOWN\000"
 19820      30334147 
 19820      525F4143 
 19820      435F434C 
 19820      49434B5F 
 19821              	.LASF259:
 19822 0c50 4C534D33 		.ascii	"LSM303AGR_ACC_XS_DISABLED\000"
 19822      30334147 
 19822      525F4143 
 19822      435F5853 
 19822      5F444953 
 19823              	.LASF7:
 19824 0c6a 6C6F6E67 		.ascii	"long long unsigned int\000"
 19824      206C6F6E 
 19824      6720756E 
 19824      7369676E 
 19824      65642069 
 19825              	.LASF492:
 19826 0c81 4C534D33 		.ascii	"LSM303AGR_ACC_W_ClickTimeLimit\000"
 19826      30334147 
 19826      525F4143 
 19826      435F575F 
 19826      436C6963 
 19827              	.LASF466:
 19828 0ca0 4C534D33 		.ascii	"LSM303AGR_ACC_R_Int2_Threshold\000"
 19828      30334147 
 19828      525F4143 
 19828      435F525F 
 19828      496E7432 
 19829              	.LASF171:
 19830 0cbf 4C534D33 		.ascii	"LSM303AGR_ACC_I2_CLICKEN_ENABLED\000"
 19830      30334147 
 19830      525F4143 
 19830      435F4932 
 19830      5F434C49 
 19831              	.LASF382:
 19832 0ce0 4C534D33 		.ascii	"LSM303AGR_ACC_R_FIFO_EN\000"
ARM GAS  /tmp/ccVYwGiK.s 			page 361


 19832      30334147 
 19832      525F4143 
 19832      435F525F 
 19832      4649464F 
 19833              	.LASF13:
 19834 0cf8 75386269 		.ascii	"u8bit\000"
 19834      7400
 19835              	.LASF434:
 19836 0cfe 4C534D33 		.ascii	"LSM303AGR_ACC_R_Int2EnXLo\000"
 19836      30334147 
 19836      525F4143 
 19836      435F525F 
 19836      496E7432 
 19837              	.LASF399:
 19838 0d18 4C534D33 		.ascii	"LSM303AGR_ACC_R_XDataAvail\000"
 19838      30334147 
 19838      525F4143 
 19838      435F525F 
 19838      58446174 
 19839              	.LASF157:
 19840 0d33 4C534D33 		.ascii	"LSM303AGR_ACC_H_LACTIVE_t\000"
 19840      30334147 
 19840      525F4143 
 19840      435F485F 
 19840      4C414354 
 19841              	.LASF134:
 19842 0d4d 4C534D33 		.ascii	"LSM303AGR_ACC_BLE_LITTLE_ENDIAN\000"
 19842      30334147 
 19842      525F4143 
 19842      435F424C 
 19842      455F4C49 
 19843              	.LASF287:
 19844 0d6d 4C534D33 		.ascii	"LSM303AGR_ACC_SIGN_NEGATIVE\000"
 19844      30334147 
 19844      525F4143 
 19844      435F5349 
 19844      474E5F4E 
 19845              	.LASF150:
 19846 0d89 4C534D33 		.ascii	"LSM303AGR_ACC_FIFO_EN_ENABLED\000"
 19846      30334147 
 19846      525F4143 
 19846      435F4649 
 19846      464F5F45 
 19847              	.LASF112:
 19848 0da7 4C534D33 		.ascii	"LSM303AGR_ACC_I1_DRDY1_ENABLED\000"
 19848      30334147 
 19848      525F4143 
 19848      435F4931 
 19848      5F445244 
 19849              	.LASF187:
 19850 0dc6 4C534D33 		.ascii	"LSM303AGR_ACC_XOR_t\000"
 19850      30334147 
 19850      525F4143 
 19850      435F584F 
 19850      525F7400 
 19851              	.LASF129:
 19852 0dda 4C534D33 		.ascii	"LSM303AGR_ACC_ST_NOT_APPLICABLE\000"
ARM GAS  /tmp/ccVYwGiK.s 			page 362


 19852      30334147 
 19852      525F4143 
 19852      435F5354 
 19852      5F4E4F54 
 19853              	.LASF82:
 19854 0dfa 4C534D33 		.ascii	"LSM303AGR_ACC_HPIS1_t\000"
 19854      30334147 
 19854      525F4143 
 19854      435F4850 
 19854      4953315F 
 19855              	.LASF206:
 19856 0e10 4C534D33 		.ascii	"LSM303AGR_ACC_EMPTY_EMPTY\000"
 19856      30334147 
 19856      525F4143 
 19856      435F454D 
 19856      5054595F 
 19857              	.LASF335:
 19858 0e2a 4C534D33 		.ascii	"LSM303AGR_ACC_W_ZEN\000"
 19858      30334147 
 19858      525F4143 
 19858      435F575F 
 19858      5A454E00 
 19859              	.LASF327:
 19860 0e3e 4C534D33 		.ascii	"LSM303AGR_ACC_W_TEMP_EN_bits\000"
 19860      30334147 
 19860      525F4143 
 19860      435F575F 
 19860      54454D50 
 19861              	.LASF126:
 19862 0e5b 4C534D33 		.ascii	"LSM303AGR_ACC_ST_DISABLED\000"
 19862      30334147 
 19862      525F4143 
 19862      435F5354 
 19862      5F444953 
 19863              	.LASF481:
 19864 0e75 4C534D33 		.ascii	"LSM303AGR_ACC_W_ZDouble\000"
 19864      30334147 
 19864      525F4143 
 19864      435F575F 
 19864      5A446F75 
 19865              	.LASF412:
 19866 0e8d 4C534D33 		.ascii	"LSM303AGR_ACC_R_FifoMode\000"
 19866      30334147 
 19866      525F4143 
 19866      435F525F 
 19866      4669666F 
 19867              	.LASF303:
 19868 0ea6 76616C75 		.ascii	"value\000"
 19868      6500
 19869              	.LASF234:
 19870 0eac 4C534D33 		.ascii	"LSM303AGR_ACC_6D_t\000"
 19870      30334147 
 19870      525F4143 
 19870      435F3644 
 19870      5F7400
 19871              	.LASF133:
 19872 0ebf 4C534D33 		.ascii	"LSM303AGR_ACC_HR_t\000"
ARM GAS  /tmp/ccVYwGiK.s 			page 363


 19872      30334147 
 19872      525F4143 
 19872      435F4852 
 19872      5F7400
 19873              	.LASF166:
 19874 0ed2 4C534D33 		.ascii	"LSM303AGR_ACC_I2_INT2_t\000"
 19874      30334147 
 19874      525F4143 
 19874      435F4932 
 19874      5F494E54 
 19875              	.LASF252:
 19876 0eea 4C534D33 		.ascii	"LSM303AGR_ACC_ZL_t\000"
 19876      30334147 
 19876      525F4143 
 19876      435F5A4C 
 19876      5F7400
 19877              	.LASF196:
 19878 0efd 4C534D33 		.ascii	"LSM303AGR_ACC_ZYXOR_t\000"
 19878      30334147 
 19878      525F4143 
 19878      435F5A59 
 19878      584F525F 
 19879              	.LASF113:
 19880 0f13 4C534D33 		.ascii	"LSM303AGR_ACC_I1_DRDY1_t\000"
 19880      30334147 
 19880      525F4143 
 19880      435F4931 
 19880      5F445244 
 19881              	.LASF310:
 19882 0f2c 62756666 		.ascii	"buff\000"
 19882      00
 19883              	.LASF499:
 19884 0f31 6E756D62 		.ascii	"numberOfByteForDimension\000"
 19884      65724F66 
 19884      42797465 
 19884      466F7244 
 19884      696D656E 
 19885              	.LASF241:
 19886 0f4a 4C534D33 		.ascii	"LSM303AGR_ACC_XH_DOWN\000"
 19886      30334147 
 19886      525F4143 
 19886      435F5848 
 19886      5F444F57 
 19887              	.LASF305:
 19888 0f60 6E657756 		.ascii	"newValue\000"
 19888      616C7565 
 19888      00
 19889              	.LASF79:
 19890 0f69 4C534D33 		.ascii	"LSM303AGR_ACC_LPEN_t\000"
 19890      30334147 
 19890      525F4143 
 19890      435F4C50 
 19890      454E5F74 
 19891              	.LASF34:
 19892 0f7e 4C534D33 		.ascii	"LSM303AGR_ACC_ODR_DO_400Hz\000"
 19892      30334147 
 19892      525F4143 
ARM GAS  /tmp/ccVYwGiK.s 			page 364


 19892      435F4F44 
 19892      525F444F 
 19893              	.LASF494:
 19894 0f99 4C534D33 		.ascii	"LSM303AGR_ACC_W_ClickTimeLatency\000"
 19894      30334147 
 19894      525F4143 
 19894      435F575F 
 19894      436C6963 
 19895              	.LASF355:
 19896 0fba 4C534D33 		.ascii	"LSM303AGR_ACC_W_FIFO_DRDY2_on_INT1\000"
 19896      30334147 
 19896      525F4143 
 19896      435F575F 
 19896      4649464F 
 19897              	.LASF84:
 19898 0fdd 4C534D33 		.ascii	"LSM303AGR_ACC_HPIS2_ENABLED\000"
 19898      30334147 
 19898      525F4143 
 19898      435F4850 
 19898      4953325F 
 19899              	.LASF244:
 19900 0ff9 4C534D33 		.ascii	"LSM303AGR_ACC_YL_DOWN\000"
 19900      30334147 
 19900      525F4143 
 19900      435F594C 
 19900      5F444F57 
 19901              	.LASF220:
 19902 100f 4C534D33 		.ascii	"LSM303AGR_ACC_YLIE_DISABLED\000"
 19902      30334147 
 19902      525F4143 
 19902      435F594C 
 19902      49455F44 
 19903              	.LASF191:
 19904 102b 4C534D33 		.ascii	"LSM303AGR_ACC_ZOR_NO_OVERRUN\000"
 19904      30334147 
 19904      525F4143 
 19904      435F5A4F 
 19904      525F4E4F 
 19905              	.LASF483:
 19906 1048 4C534D33 		.ascii	"LSM303AGR_ACC_R_ClickX\000"
 19906      30334147 
 19906      525F4143 
 19906      435F525F 
 19906      436C6963 
 19907              	.LASF484:
 19908 105f 4C534D33 		.ascii	"LSM303AGR_ACC_R_ClickY\000"
 19908      30334147 
 19908      525F4143 
 19908      435F525F 
 19908      436C6963 
 19909              	.LASF179:
 19910 1076 4C534D33 		.ascii	"LSM303AGR_ACC_ZDA_NOT_AVAILABLE\000"
 19910      30334147 
 19910      525F4143 
 19910      435F5A44 
 19910      415F4E4F 
 19911              	.LASF118:
ARM GAS  /tmp/ccVYwGiK.s 			page 365


 19912 1096 4C534D33 		.ascii	"LSM303AGR_ACC_I1_AOI1_ENABLED\000"
 19912      30334147 
 19912      525F4143 
 19912      435F4931 
 19912      5F414F49 
 19913              	.LASF457:
 19914 10b4 4C534D33 		.ascii	"LSM303AGR_ACC_R_Int2_XHi\000"
 19914      30334147 
 19914      525F4143 
 19914      435F525F 
 19914      496E7432 
 19915              	.LASF356:
 19916 10cd 4C534D33 		.ascii	"LSM303AGR_ACC_R_FIFO_DRDY2_on_INT1\000"
 19916      30334147 
 19916      525F4143 
 19916      435F525F 
 19916      4649464F 
 19917              	.LASF97:
 19918 10f0 4C534D33 		.ascii	"LSM303AGR_ACC_HPM_NORMAL\000"
 19918      30334147 
 19918      525F4143 
 19918      435F4850 
 19918      4D5F4E4F 
 19919              	.LASF274:
 19920 1109 4C534D33 		.ascii	"LSM303AGR_ACC_ZD_DISABLED\000"
 19920      30334147 
 19920      525F4143 
 19920      435F5A44 
 19920      5F444953 
 19921              	.LASF495:
 19922 1123 4C534D33 		.ascii	"LSM303AGR_ACC_R_ClickTimeLatency\000"
 19922      30334147 
 19922      525F4143 
 19922      435F525F 
 19922      436C6963 
 19923              	.LASF470:
 19924 1144 4C534D33 		.ascii	"LSM303AGR_ACC_R_Int2_Duration\000"
 19924      30334147 
 19924      525F4143 
 19924      435F525F 
 19924      496E7432 
 19925              	.LASF395:
 19926 1162 4C534D33 		.ascii	"LSM303AGR_ACC_W_Click_on_INT2\000"
 19926      30334147 
 19926      525F4143 
 19926      435F575F 
 19926      436C6963 
 19927              	.LASF248:
 19928 1180 4C534D33 		.ascii	"LSM303AGR_ACC_YH_UP\000"
 19928      30334147 
 19928      525F4143 
 19928      435F5948 
 19928      5F555000 
 19929              	.LASF440:
 19930 1194 4C534D33 		.ascii	"LSM303AGR_ACC_R_Int2EnYHi\000"
 19930      30334147 
 19930      525F4143 
ARM GAS  /tmp/ccVYwGiK.s 			page 366


 19930      435F525F 
 19930      496E7432 
 19931              	.LASF451:
 19932 11ae 4C534D33 		.ascii	"LSM303AGR_ACC_R_Int1_YLo\000"
 19932      30334147 
 19932      525F4143 
 19932      435F525F 
 19932      496E7431 
 19933              	.LASF485:
 19934 11c7 4C534D33 		.ascii	"LSM303AGR_ACC_R_ClickZ\000"
 19934      30334147 
 19934      525F4143 
 19934      435F525F 
 19934      436C6963 
 19935              	.LASF449:
 19936 11de 4C534D33 		.ascii	"LSM303AGR_ACC_R_Int1_Xlo\000"
 19936      30334147 
 19936      525F4143 
 19936      435F525F 
 19936      496E7431 
 19937              	.LASF231:
 19938 11f7 4C534D33 		.ascii	"LSM303AGR_ACC_ZHIE_t\000"
 19938      30334147 
 19938      525F4143 
 19938      435F5A48 
 19938      49455F74 
 19939              	.LASF32:
 19940 120c 4C534D33 		.ascii	"LSM303AGR_ACC_ODR_DO_100Hz\000"
 19940      30334147 
 19940      525F4143 
 19940      435F4F44 
 19940      525F444F 
 19941              	.LASF170:
 19942 1227 4C534D33 		.ascii	"LSM303AGR_ACC_I2_CLICKEN_DISABLED\000"
 19942      30334147 
 19942      525F4143 
 19942      435F4932 
 19942      5F434C49 
 19943              	.LASF479:
 19944 1249 4C534D33 		.ascii	"LSM303AGR_ACC_W_ZSingle\000"
 19944      30334147 
 19944      525F4143 
 19944      435F575F 
 19944      5A53696E 
 19945              	.LASF476:
 19946 1261 4C534D33 		.ascii	"LSM303AGR_ACC_R_YSingle\000"
 19946      30334147 
 19946      525F4143 
 19946      435F525F 
 19946      5953696E 
 19947              	.LASF377:
 19948 1279 4C534D33 		.ascii	"LSM303AGR_ACC_W_4D_on_INT1\000"
 19948      30334147 
 19948      525F4143 
 19948      435F575F 
 19948      34445F6F 
 19949              	.LASF373:
ARM GAS  /tmp/ccVYwGiK.s 			page 367


 19950 1294 4C534D33 		.ascii	"LSM303AGR_ACC_W_4D_on_INT2\000"
 19950      30334147 
 19950      525F4143 
 19950      435F575F 
 19950      34445F6F 
 19951              	.LASF426:
 19952 12af 4C534D33 		.ascii	"LSM303AGR_ACC_R_Int1EnZLo\000"
 19952      30334147 
 19952      525F4143 
 19952      435F525F 
 19952      496E7431 
 19953              	.LASF422:
 19954 12c9 4C534D33 		.ascii	"LSM303AGR_ACC_R_Int1EnYLo\000"
 19954      30334147 
 19954      525F4143 
 19954      435F525F 
 19954      496E7431 
 19955              	.LASF221:
 19956 12e3 4C534D33 		.ascii	"LSM303AGR_ACC_YLIE_ENABLED\000"
 19956      30334147 
 19956      525F4143 
 19956      435F594C 
 19956      49455F45 
 19957              	.LASF370:
 19958 12fe 4C534D33 		.ascii	"LSM303AGR_ACC_R_HiRes\000"
 19958      30334147 
 19958      525F4143 
 19958      435F525F 
 19958      48695265 
 19959              	.LASF173:
 19960 1314 4C534D33 		.ascii	"LSM303AGR_ACC_XDA_NOT_AVAILABLE\000"
 19960      30334147 
 19960      525F4143 
 19960      435F5844 
 19960      415F4E4F 
 19961              	.LASF323:
 19962 1334 4C534D33 		.ascii	"LSM303AGR_ACC_R_DataYOverrun\000"
 19962      30334147 
 19962      525F4143 
 19962      435F525F 
 19962      44617461 
 19963              	.LASF192:
 19964 1351 4C534D33 		.ascii	"LSM303AGR_ACC_ZOR_OVERRUN\000"
 19964      30334147 
 19964      525F4143 
 19964      435F5A4F 
 19964      525F4F56 
 19965              	.LASF301:
 19966 136b 4C534D33 		.ascii	"LSM303AGR_ACC_ReadReg\000"
 19966      30334147 
 19966      525F4143 
 19966      435F5265 
 19966      61645265 
 19967              	.LASF243:
 19968 1381 4C534D33 		.ascii	"LSM303AGR_ACC_XH_t\000"
 19968      30334147 
 19968      525F4143 
ARM GAS  /tmp/ccVYwGiK.s 			page 368


 19968      435F5848 
 19968      5F7400
 19969              	.LASF27:
 19970 1394 4C534D33 		.ascii	"LSM303AGR_ACC_ODR_DO_PWR_DOWN\000"
 19970      30334147 
 19970      525F4143 
 19970      435F4F44 
 19970      525F444F 
 19971              	.LASF502:
 19972 13b2 2F752F65 		.ascii	"/u/elawton2/p442-submissions/sensortile/reference/b"
 19972      6C617774 
 19972      6F6E322F 
 19972      70343432 
 19972      2D737562 
 19973 13e5 6C75656D 		.ascii	"luemicrosystem2/BlueMicrosystem2_V2.2.0/Projects/Mu"
 19973      6963726F 
 19973      73797374 
 19973      656D322F 
 19973      426C7565 
 19974 1418 6C74692F 		.ascii	"lti/Applications/BlueMicrosystem2/bluechibi\000"
 19974      4170706C 
 19974      69636174 
 19974      696F6E73 
 19974      2F426C75 
 19975              	.LASF232:
 19976 1444 4C534D33 		.ascii	"LSM303AGR_ACC_6D_DISABLED\000"
 19976      30334147 
 19976      525F4143 
 19976      435F3644 
 19976      5F444953 
 19977              	.LASF361:
 19978 145e 4C534D33 		.ascii	"LSM303AGR_ACC_W_FIFO_AOL1_on_INT1\000"
 19978      30334147 
 19978      525F4143 
 19978      435F575F 
 19978      4649464F 
 19979              	.LASF132:
 19980 1480 4C534D33 		.ascii	"LSM303AGR_ACC_HR_ENABLED\000"
 19980      30334147 
 19980      525F4143 
 19980      435F4852 
 19980      5F454E41 
 19981              	.LASF185:
 19982 1499 4C534D33 		.ascii	"LSM303AGR_ACC_XOR_NO_OVERRUN\000"
 19982      30334147 
 19982      525F4143 
 19982      435F584F 
 19982      525F4E4F 
 19983              	.LASF72:
 19984 14b6 4C534D33 		.ascii	"LSM303AGR_ACC_YEN_ENABLED\000"
 19984      30334147 
 19984      525F4143 
 19984      435F5945 
 19984      4E5F454E 
 19985              	.LASF153:
 19986 14d0 4C534D33 		.ascii	"LSM303AGR_ACC_BOOT_REBOOT\000"
 19986      30334147 
ARM GAS  /tmp/ccVYwGiK.s 			page 369


 19986      525F4143 
 19986      435F424F 
 19986      4F545F52 
 19987              	.LASF162:
 19988 14ea 4C534D33 		.ascii	"LSM303AGR_ACC_BOOT_I1_ENABLED\000"
 19988      30334147 
 19988      525F4143 
 19988      435F424F 
 19988      4F545F49 
 19989              	.LASF24:
 19990 1508 4C534D33 		.ascii	"LSM303AGR_ACC_FS_8G\000"
 19990      30334147 
 19990      525F4143 
 19990      435F4653 
 19990      5F384700 
 19991              	.LASF433:
 19992 151c 4C534D33 		.ascii	"LSM303AGR_ACC_W_Int2EnXLo\000"
 19992      30334147 
 19992      525F4143 
 19992      435F575F 
 19992      496E7432 
 19993              	.LASF25:
 19994 1536 4C534D33 		.ascii	"LSM303AGR_ACC_FS_16G\000"
 19994      30334147 
 19994      525F4143 
 19994      435F4653 
 19994      5F313647 
 19995              	.LASF309:
 19996 154b 4C534D33 		.ascii	"LSM303AGR_ACC_Get_Raw_Acceleration\000"
 19996      30334147 
 19996      525F4143 
 19996      435F4765 
 19996      745F5261 
 19997              	.LASF496:
 19998 156e 4C534D33 		.ascii	"LSM303AGR_ACC_W_ClickTimeWindow\000"
 19998      30334147 
 19998      525F4143 
 19998      435F575F 
 19998      436C6963 
 19999              	.LASF60:
 20000 158e 4C534D33 		.ascii	"LSM303AGR_ACC_321OR__OVERRUN\000"
 20000      30334147 
 20000      525F4143 
 20000      435F3332 
 20000      314F525F 
 20001              	.LASF498:
 20002 15ab 4C534D33 		.ascii	"LSM303AGR_ACC_Get_Voltage_ADC\000"
 20002      30334147 
 20002      525F4143 
 20002      435F4765 
 20002      745F566F 
 20003              	.LASF321:
 20004 15c9 4C534D33 		.ascii	"LSM303AGR_ACC_R_xyz_data_avail\000"
 20004      30334147 
 20004      525F4143 
 20004      435F525F 
 20004      78797A5F 
ARM GAS  /tmp/ccVYwGiK.s 			page 370


 20005              	.LASF98:
 20006 15e8 4C534D33 		.ascii	"LSM303AGR_ACC_HPM_REFERENCE_SIGNAL\000"
 20006      30334147 
 20006      525F4143 
 20006      435F4850 
 20006      4D5F5245 
 20007              	.LASF137:
 20008 160b 4C534D33 		.ascii	"LSM303AGR_ACC_D4D_INT2_DISABLED\000"
 20008      30334147 
 20008      525F4143 
 20008      435F4434 
 20008      445F494E 
 20009              	.LASF318:
 20010 162b 4C534D33 		.ascii	"LSM303AGR_ACC_R_x_data_avail\000"
 20010      30334147 
 20010      525F4143 
 20010      435F525F 
 20010      785F6461 
 20011              	.LASF63:
 20012 1648 4C534D33 		.ascii	"LSM303AGR_ACC_TEMP_EN_ENABLED\000"
 20012      30334147 
 20012      525F4143 
 20012      435F5445 
 20012      4D505F45 
 20013              	.LASF45:
 20014 1666 4C534D33 		.ascii	"LSM303AGR_ACC_3DA__AVAILABLE\000"
 20014      30334147 
 20014      525F4143 
 20014      435F3344 
 20014      415F5F41 
 20015              	.LASF114:
 20016 1683 4C534D33 		.ascii	"LSM303AGR_ACC_I1_AOI2_DISABLED\000"
 20016      30334147 
 20016      525F4143 
 20016      435F4931 
 20016      5F414F49 
 20017              	.LASF229:
 20018 16a2 4C534D33 		.ascii	"LSM303AGR_ACC_ZHIE_DISABLED\000"
 20018      30334147 
 20018      525F4143 
 20018      435F5A48 
 20018      49455F44 
 20019              	.LASF104:
 20020 16be 4C534D33 		.ascii	"LSM303AGR_ACC_I1_OVERRUN_t\000"
 20020      30334147 
 20020      525F4143 
 20020      435F4931 
 20020      5F4F5645 
 20021              	.LASF146:
 20022 16d9 4C534D33 		.ascii	"LSM303AGR_ACC_LIR_INT1_DISABLED\000"
 20022      30334147 
 20022      525F4143 
 20022      435F4C49 
 20022      525F494E 
 20023              	.LASF302:
 20024 16f9 4C534D33 		.ascii	"LSM303AGR_ACC_R_WHO_AM_I\000"
 20024      30334147 
ARM GAS  /tmp/ccVYwGiK.s 			page 371


 20024      525F4143 
 20024      435F525F 
 20024      57484F5F 
 20025              	.LASF141:
 20026 1712 4C534D33 		.ascii	"LSM303AGR_ACC_LIR_INT2_ENABLED\000"
 20026      30334147 
 20026      525F4143 
 20026      435F4C49 
 20026      525F494E 
 20027              	.LASF130:
 20028 1731 4C534D33 		.ascii	"LSM303AGR_ACC_ST_t\000"
 20028      30334147 
 20028      525F4143 
 20028      435F5354 
 20028      5F7400
 20029              	.LASF101:
 20030 1744 4C534D33 		.ascii	"LSM303AGR_ACC_HPM_t\000"
 20030      30334147 
 20030      525F4143 
 20030      435F4850 
 20030      4D5F7400 
 20031              	.LASF116:
 20032 1758 4C534D33 		.ascii	"LSM303AGR_ACC_I1_AOI2_t\000"
 20032      30334147 
 20032      525F4143 
 20032      435F4931 
 20032      5F414F49 
 20033              	.LASF360:
 20034 1770 4C534D33 		.ascii	"LSM303AGR_ACC_R_FIFO_AOL2_on_INT1\000"
 20034      30334147 
 20034      525F4143 
 20034      435F525F 
 20034      4649464F 
 20035              	.LASF452:
 20036 1792 4C534D33 		.ascii	"LSM303AGR_ACC_R_Int1_YHi\000"
 20036      30334147 
 20036      525F4143 
 20036      435F525F 
 20036      496E7431 
 20037              	.LASF317:
 20038 17ab 4C534D33 		.ascii	"LSM303AGR_ACC_R_ODR\000"
 20038      30334147 
 20038      525F4143 
 20038      435F525F 
 20038      4F445200 
 20039              	.LASF30:
 20040 17bf 4C534D33 		.ascii	"LSM303AGR_ACC_ODR_DO_25Hz\000"
 20040      30334147 
 20040      525F4143 
 20040      435F4F44 
 20040      525F444F 
 20041              	.LASF269:
 20042 17d9 4C534D33 		.ascii	"LSM303AGR_ACC_YD_ENABLED\000"
 20042      30334147 
 20042      525F4143 
 20042      435F5944 
 20042      5F454E41 
ARM GAS  /tmp/ccVYwGiK.s 			page 372


 20043              	.LASF450:
 20044 17f2 4C534D33 		.ascii	"LSM303AGR_ACC_R_Int1_XHi\000"
 20044      30334147 
 20044      525F4143 
 20044      435F525F 
 20044      496E7431 
 20045              	.LASF258:
 20046 180b 4C534D33 		.ascii	"LSM303AGR_ACC_IA_t\000"
 20046      30334147 
 20046      525F4143 
 20046      435F4941 
 20046      5F7400
 20047              	.LASF423:
 20048 181e 4C534D33 		.ascii	"LSM303AGR_ACC_W_Int1EnYHi\000"
 20048      30334147 
 20048      525F4143 
 20048      435F575F 
 20048      496E7431 
 20049              	.LASF381:
 20050 1838 4C534D33 		.ascii	"LSM303AGR_ACC_W_FIFO_EN\000"
 20050      30334147 
 20050      525F4143 
 20050      435F575F 
 20050      4649464F 
 20051              	.LASF406:
 20052 1850 4C534D33 		.ascii	"LSM303AGR_ACC_R_XYZDataOverrun\000"
 20052      30334147 
 20052      525F4143 
 20052      435F525F 
 20052      58595A44 
 20053              	.LASF42:
 20054 186f 4C534D33 		.ascii	"LSM303AGR_ACC_2DA__AVAILABLE\000"
 20054      30334147 
 20054      525F4143 
 20054      435F3244 
 20054      415F5F41 
 20055              	.LASF413:
 20056 188c 4C534D33 		.ascii	"LSM303AGR_ACC_R_FifoSamplesAvail\000"
 20056      30334147 
 20056      525F4143 
 20056      435F525F 
 20056      4669666F 
 20057              	.LASF454:
 20058 18ad 4C534D33 		.ascii	"LSM303AGR_ACC_R_Int1_ZHi\000"
 20058      30334147 
 20058      525F4143 
 20058      435F525F 
 20058      496E7431 
 20059              	.LASF120:
 20060 18c6 4C534D33 		.ascii	"LSM303AGR_ACC_I1_CLICK_DISABLED\000"
 20060      30334147 
 20060      525F4143 
 20060      435F4931 
 20060      5F434C49 
 20061              	.LASF268:
 20062 18e6 4C534D33 		.ascii	"LSM303AGR_ACC_YD_DISABLED\000"
 20062      30334147 
ARM GAS  /tmp/ccVYwGiK.s 			page 373


 20062      525F4143 
 20062      435F5944 
 20062      5F444953 
 20063              	.LASF374:
 20064 1900 4C534D33 		.ascii	"LSM303AGR_ACC_R_4D_on_INT2\000"
 20064      30334147 
 20064      525F4143 
 20064      435F525F 
 20064      34445F6F 
 20065              	.LASF181:
 20066 191b 4C534D33 		.ascii	"LSM303AGR_ACC_ZDA_t\000"
 20066      30334147 
 20066      525F4143 
 20066      435F5A44 
 20066      415F7400 
 20067              	.LASF331:
 20068 192f 4C534D33 		.ascii	"LSM303AGR_ACC_W_XEN\000"
 20068      30334147 
 20068      525F4143 
 20068      435F575F 
 20068      58454E00 
 20069              	.LASF300:
 20070 1943 4C534D33 		.ascii	"LSM303AGR_ACC_WriteReg\000"
 20070      30334147 
 20070      525F4143 
 20070      435F5772 
 20070      69746552 
 20071              	.LASF490:
 20072 195a 4C534D33 		.ascii	"LSM303AGR_ACC_W_ClickThreshold\000"
 20072      30334147 
 20072      525F4143 
 20072      435F575F 
 20072      436C6963 
 20073              	.LASF62:
 20074 1979 4C534D33 		.ascii	"LSM303AGR_ACC_TEMP_EN_DISABLED\000"
 20074      30334147 
 20074      525F4143 
 20074      435F5445 
 20074      4D505F45 
 20075              	.LASF6:
 20076 1998 6C6F6E67 		.ascii	"long long int\000"
 20076      206C6F6E 
 20076      6720696E 
 20076      7400
 20077              	.LASF403:
 20078 19a6 4C534D33 		.ascii	"LSM303AGR_ACC_R_XDataOverrun\000"
 20078      30334147 
 20078      525F4143 
 20078      435F525F 
 20078      58446174 
 20079              	.LASF419:
 20080 19c3 4C534D33 		.ascii	"LSM303AGR_ACC_W_Int1EnXHi\000"
 20080      30334147 
 20080      525F4143 
 20080      435F575F 
 20080      496E7431 
 20081              	.LASF306:
ARM GAS  /tmp/ccVYwGiK.s 			page 374


 20082 19dd 4C534D33 		.ascii	"LSM303AGR_ACC_R_BlockDataUpdate\000"
 20082      30334147 
 20082      525F4143 
 20082      435F525F 
 20082      426C6F63 
 20083              	.LASF89:
 20084 19fd 4C534D33 		.ascii	"LSM303AGR_ACC_FDS_BYPASSED\000"
 20084      30334147 
 20084      525F4143 
 20084      435F4644 
 20084      535F4259 
 20085              	.LASF52:
 20086 1a18 4C534D33 		.ascii	"LSM303AGR_ACC_1OR__t\000"
 20086      30334147 
 20086      525F4143 
 20086      435F314F 
 20086      525F5F74 
 20087              	.LASF172:
 20088 1a2d 4C534D33 		.ascii	"LSM303AGR_ACC_I2_CLICKEN_t\000"
 20088      30334147 
 20088      525F4143 
 20088      435F4932 
 20088      5F434C49 
 20089              	.LASF347:
 20090 1a48 4C534D33 		.ascii	"LSM303AGR_ACC_W_hpf_cutoff_freq\000"
 20090      30334147 
 20090      525F4143 
 20090      435F575F 
 20090      6870665F 
 20091              	.LASF213:
 20092 1a68 4C534D33 		.ascii	"LSM303AGR_ACC_WTM_t\000"
 20092      30334147 
 20092      525F4143 
 20092      435F5754 
 20092      4D5F7400 
 20093              	.LASF100:
 20094 1a7c 4C534D33 		.ascii	"LSM303AGR_ACC_HPM_AUTORST_ON_INT\000"
 20094      30334147 
 20094      525F4143 
 20094      435F4850 
 20094      4D5F4155 
 20095              	.LASF9:
 20096 1a9d 75385F74 		.ascii	"u8_t\000"
 20096      00
 20097              	.LASF477:
 20098 1aa2 4C534D33 		.ascii	"LSM303AGR_ACC_W_YDouble\000"
 20098      30334147 
 20098      525F4143 
 20098      435F575F 
 20098      59446F75 
 20099              	.LASF230:
 20100 1aba 4C534D33 		.ascii	"LSM303AGR_ACC_ZHIE_ENABLED\000"
 20100      30334147 
 20100      525F4143 
 20100      435F5A48 
 20100      49455F45 
 20101              	.LASF68:
ARM GAS  /tmp/ccVYwGiK.s 			page 375


 20102 1ad5 4C534D33 		.ascii	"LSM303AGR_ACC_XEN_DISABLED\000"
 20102      30334147 
 20102      525F4143 
 20102      435F5845 
 20102      4E5F4449 
 20103              	.LASF367:
 20104 1af0 4C534D33 		.ascii	"LSM303AGR_ACC_W_SelfTest\000"
 20104      30334147 
 20104      525F4143 
 20104      435F575F 
 20104      53656C66 
 20105              	.LASF48:
 20106 1b09 4C534D33 		.ascii	"LSM303AGR_ACC_321DA__AVAILABLE\000"
 20106      30334147 
 20106      525F4143 
 20106      435F3332 
 20106      3144415F 
 20107              	.LASF366:
 20108 1b28 4C534D33 		.ascii	"LSM303AGR_ACC_R_SPI_mode\000"
 20108      30334147 
 20108      525F4143 
 20108      435F525F 
 20108      5350495F 
 20109              	.LASF376:
 20110 1b41 4C534D33 		.ascii	"LSM303AGR_ACC_R_LatchInterrupt_on_INT2\000"
 20110      30334147 
 20110      525F4143 
 20110      435F525F 
 20110      4C617463 
 20111              	.LASF189:
 20112 1b68 4C534D33 		.ascii	"LSM303AGR_ACC_YOR_OVERRUN\000"
 20112      30334147 
 20112      525F4143 
 20112      435F594F 
 20112      525F4F56 
 20113              	.LASF35:
 20114 1b82 4C534D33 		.ascii	"LSM303AGR_ACC_ODR_DO_1_6KHz\000"
 20114      30334147 
 20114      525F4143 
 20114      435F4F44 
 20114      525F444F 
 20115              	.LASF260:
 20116 1b9e 4C534D33 		.ascii	"LSM303AGR_ACC_XS_ENABLED\000"
 20116      30334147 
 20116      525F4143 
 20116      435F5853 
 20116      5F454E41 
 20117              	.LASF285:
 20118 1bb7 4C534D33 		.ascii	"LSM303AGR_ACC_Z_t\000"
 20118      30334147 
 20118      525F4143 
 20118      435F5A5F 
 20118      7400
 20119              	.LASF435:
 20120 1bc9 4C534D33 		.ascii	"LSM303AGR_ACC_W_Int2EnXHi\000"
 20120      30334147 
 20120      525F4143 
ARM GAS  /tmp/ccVYwGiK.s 			page 376


 20120      435F575F 
 20120      496E7432 
 20121              	.LASF439:
 20122 1be3 4C534D33 		.ascii	"LSM303AGR_ACC_W_Int2EnYHi\000"
 20122      30334147 
 20122      525F4143 
 20122      435F575F 
 20122      496E7432 
 20123              	.LASF96:
 20124 1bfd 4C534D33 		.ascii	"LSM303AGR_ACC_HPCF_t\000"
 20124      30334147 
 20124      525F4143 
 20124      435F4850 
 20124      43465F74 
 20125              	.LASF195:
 20126 1c12 4C534D33 		.ascii	"LSM303AGR_ACC_ZYXOR_OVERRUN\000"
 20126      30334147 
 20126      525F4143 
 20126      435F5A59 
 20126      584F525F 
 20127              	.LASF69:
 20128 1c2e 4C534D33 		.ascii	"LSM303AGR_ACC_XEN_ENABLED\000"
 20128      30334147 
 20128      525F4143 
 20128      435F5845 
 20128      4E5F454E 
 20129              	.LASF26:
 20130 1c48 4C534D33 		.ascii	"LSM303AGR_ACC_FS_t\000"
 20130      30334147 
 20130      525F4143 
 20130      435F4653 
 20130      5F7400
 20131              	.LASF388:
 20132 1c5b 4C534D33 		.ascii	"LSM303AGR_ACC_R_P2_ACT\000"
 20132      30334147 
 20132      525F4143 
 20132      435F525F 
 20132      50325F41 
 20133              	.LASF65:
 20134 1c72 4C534D33 		.ascii	"LSM303AGR_ACC_ADC_PD_DISABLED\000"
 20134      30334147 
 20134      525F4143 
 20134      435F4144 
 20134      435F5044 
 20135              	.LASF288:
 20136 1c90 4C534D33 		.ascii	"LSM303AGR_ACC_SIGN_t\000"
 20136      30334147 
 20136      525F4143 
 20136      435F5349 
 20136      474E5F74 
 20137              	.LASF291:
 20138 1ca5 4C534D33 		.ascii	"LSM303AGR_ACC_SCLICK_t\000"
 20138      30334147 
 20138      525F4143 
 20138      435F5343 
 20138      4C49434B 
 20139              	.LASF109:
ARM GAS  /tmp/ccVYwGiK.s 			page 377


 20140 1cbc 4C534D33 		.ascii	"LSM303AGR_ACC_I1_DRDY2_ENABLED\000"
 20140      30334147 
 20140      525F4143 
 20140      435F4931 
 20140      5F445244 
 20141              	.LASF488:
 20142 1cdb 4C534D33 		.ascii	"LSM303AGR_ACC_R_DoubleCLICK\000"
 20142      30334147 
 20142      525F4143 
 20142      435F525F 
 20142      446F7562 
 20143              	.LASF80:
 20144 1cf7 4C534D33 		.ascii	"LSM303AGR_ACC_HPIS1_DISABLED\000"
 20144      30334147 
 20144      525F4143 
 20144      435F4850 
 20144      4953315F 
 20145              	.LASF400:
 20146 1d14 4C534D33 		.ascii	"LSM303AGR_ACC_R_YDataAvail\000"
 20146      30334147 
 20146      525F4143 
 20146      435F525F 
 20146      59446174 
 20147              	.LASF411:
 20148 1d2f 4C534D33 		.ascii	"LSM303AGR_ACC_W_FifoMode\000"
 20148      30334147 
 20148      525F4143 
 20148      435F575F 
 20148      4669666F 
 20149              	.LASF348:
 20150 1d48 4C534D33 		.ascii	"LSM303AGR_ACC_R_hpf_cutoff_freq\000"
 20150      30334147 
 20150      525F4143 
 20150      435F525F 
 20150      6870665F 
 20151              	.LASF73:
 20152 1d68 4C534D33 		.ascii	"LSM303AGR_ACC_YEN_t\000"
 20152      30334147 
 20152      525F4143 
 20152      435F5945 
 20152      4E5F7400 
 20153              	.LASF144:
 20154 1d7c 4C534D33 		.ascii	"LSM303AGR_ACC_D4D_INT1_ENABLED\000"
 20154      30334147 
 20154      525F4143 
 20154      435F4434 
 20154      445F494E 
 20155              	.LASF491:
 20156 1d9b 4C534D33 		.ascii	"LSM303AGR_ACC_R_ClickThreshold\000"
 20156      30334147 
 20156      525F4143 
 20156      435F525F 
 20156      436C6963 
 20157              	.LASF125:
 20158 1dba 4C534D33 		.ascii	"LSM303AGR_ACC_SIM_t\000"
 20158      30334147 
 20158      525F4143 
ARM GAS  /tmp/ccVYwGiK.s 			page 378


 20158      435F5349 
 20158      4D5F7400 
 20159              	.LASF193:
 20160 1dce 4C534D33 		.ascii	"LSM303AGR_ACC_ZOR_t\000"
 20160      30334147 
 20160      525F4143 
 20160      435F5A4F 
 20160      525F7400 
 20161              	.LASF281:
 20162 1de2 4C534D33 		.ascii	"LSM303AGR_ACC_Y_UP\000"
 20162      30334147 
 20162      525F4143 
 20162      435F595F 
 20162      555000
 20163              	.LASF329:
 20164 1df5 4C534D33 		.ascii	"LSM303AGR_ACC_W_ADC_PD\000"
 20164      30334147 
 20164      525F4143 
 20164      435F575F 
 20164      4144435F 
 20165              	.LASF205:
 20166 1e0c 4C534D33 		.ascii	"LSM303AGR_ACC_EMPTY_NOT_EMPTY\000"
 20166      30334147 
 20166      525F4143 
 20166      435F454D 
 20166      5054595F 
 20167              	.LASF123:
 20168 1e2a 4C534D33 		.ascii	"LSM303AGR_ACC_SIM_4_WIRES\000"
 20168      30334147 
 20168      525F4143 
 20168      435F5349 
 20168      4D5F345F 
 20169              	.LASF418:
 20170 1e44 4C534D33 		.ascii	"LSM303AGR_ACC_R_Int1EnXLo\000"
 20170      30334147 
 20170      525F4143 
 20170      435F525F 
 20170      496E7431 
 20171              	.LASF277:
 20172 1e5e 4C534D33 		.ascii	"LSM303AGR_ACC_X_DOWN\000"
 20172      30334147 
 20172      525F4143 
 20172      435F585F 
 20172      444F574E 
 20173              	.LASF177:
 20174 1e73 4C534D33 		.ascii	"LSM303AGR_ACC_YDA_AVAILABLE\000"
 20174      30334147 
 20174      525F4143 
 20174      435F5944 
 20174      415F4156 
 20175              	.LASF378:
 20176 1e8f 4C534D33 		.ascii	"LSM303AGR_ACC_R_4D_on_INT1\000"
 20176      30334147 
 20176      525F4143 
 20176      435F525F 
 20176      34445F6F 
 20177              	.LASF38:
ARM GAS  /tmp/ccVYwGiK.s 			page 379


 20178 1eaa 4C534D33 		.ascii	"LSM303AGR_ACC_1DA_NOT_AVAILABLE\000"
 20178      30334147 
 20178      525F4143 
 20178      435F3144 
 20178      415F4E4F 
 20179              	.LASF19:
 20180 1eca 4C534D33 		.ascii	"LSM303AGR_ACC_BDU_DISABLED\000"
 20180      30334147 
 20180      525F4143 
 20180      435F4244 
 20180      555F4449 
 20181              	.LASF91:
 20182 1ee5 4C534D33 		.ascii	"LSM303AGR_ACC_FDS_t\000"
 20182      30334147 
 20182      525F4143 
 20182      435F4644 
 20182      535F7400 
 20183              	.LASF176:
 20184 1ef9 4C534D33 		.ascii	"LSM303AGR_ACC_YDA_NOT_AVAILABLE\000"
 20184      30334147 
 20184      525F4143 
 20184      435F5944 
 20184      415F4E4F 
 20185              	.LASF15:
 20186 1f19 54797065 		.ascii	"Type3Axis16bit_U\000"
 20186      33417869 
 20186      73313662 
 20186      69745F55 
 20186      00
 20187              	.LASF350:
 20188 1f2a 4C534D33 		.ascii	"LSM303AGR_ACC_R_hpf_mode\000"
 20188      30334147 
 20188      525F4143 
 20188      435F525F 
 20188      6870665F 
 20189              	.LASF202:
 20190 1f43 4C534D33 		.ascii	"LSM303AGR_ACC_FM_STREAM\000"
 20190      30334147 
 20190      525F4143 
 20190      435F464D 
 20190      5F535452 
 20191              	.LASF298:
 20192 1f5b 68616E64 		.ascii	"handle\000"
 20192      6C6500
 20193              	.LASF474:
 20194 1f62 4C534D33 		.ascii	"LSM303AGR_ACC_R_XDouble\000"
 20194      30334147 
 20194      525F4143 
 20194      435F525F 
 20194      58446F75 
 20195              	.LASF472:
 20196 1f7a 4C534D33 		.ascii	"LSM303AGR_ACC_R_XSingle\000"
 20196      30334147 
 20196      525F4143 
 20196      435F525F 
 20196      5853696E 
 20197              	.LASF438:
ARM GAS  /tmp/ccVYwGiK.s 			page 380


 20198 1f92 4C534D33 		.ascii	"LSM303AGR_ACC_R_Int2EnYLo\000"
 20198      30334147 
 20198      525F4143 
 20198      435F525F 
 20198      496E7432 
 20199              	.LASF115:
 20200 1fac 4C534D33 		.ascii	"LSM303AGR_ACC_I1_AOI2_ENABLED\000"
 20200      30334147 
 20200      525F4143 
 20200      435F4931 
 20200      5F414F49 
 20201              	.LASF262:
 20202 1fca 4C534D33 		.ascii	"LSM303AGR_ACC_XD_DISABLED\000"
 20202      30334147 
 20202      525F4143 
 20202      435F5844 
 20202      5F444953 
 20203              	.LASF343:
 20204 1fe4 4C534D33 		.ascii	"LSM303AGR_ACC_W_hpf_click_en\000"
 20204      30334147 
 20204      525F4143 
 20204      435F575F 
 20204      6870665F 
 20205              	.LASF334:
 20206 2001 4C534D33 		.ascii	"LSM303AGR_ACC_R_YEN\000"
 20206      30334147 
 20206      525F4143 
 20206      435F525F 
 20206      59454E00 
 20207              	.LASF314:
 20208 2015 66735F6D 		.ascii	"fs_mode\000"
 20208      6F646500 
 20209              	.LASF467:
 20210 201d 4C534D33 		.ascii	"LSM303AGR_ACC_W_Int1_Duration\000"
 20210      30334147 
 20210      525F4143 
 20210      435F575F 
 20210      496E7431 
 20211              	.LASF182:
 20212 203b 4C534D33 		.ascii	"LSM303AGR_ACC_ZYXDA_NOT_AVAILABLE\000"
 20212      30334147 
 20212      525F4143 
 20212      435F5A59 
 20212      5844415F 
 20213              	.LASF18:
 20214 205d 73746174 		.ascii	"status_t\000"
 20214      75735F74 
 20214      00
 20215              	.LASF54:
 20216 2066 4C534D33 		.ascii	"LSM303AGR_ACC_2OR__OVERRUN\000"
 20216      30334147 
 20216      525F4143 
 20216      435F324F 
 20216      525F5F4F 
 20217              	.LASF501:
 20218 2081 2E2E2F2E 		.ascii	"../../../../../Drivers/BSP/Components/lsm303agr/LSM"
 20218      2E2F2E2E 
ARM GAS  /tmp/ccVYwGiK.s 			page 381


 20218      2F2E2E2F 
 20218      2E2E2F44 
 20218      72697665 
 20219 20b4 33303341 		.ascii	"303AGR_ACC_driver.c\000"
 20219      47525F41 
 20219      43435F64 
 20219      72697665 
 20219      722E6300 
 20220              	.LASF448:
 20221 20c8 4C534D33 		.ascii	"LSM303AGR_ACC_R_Int2_AOI\000"
 20221      30334147 
 20221      525F4143 
 20221      435F525F 
 20221      496E7432 
 20222              	.LASF402:
 20223 20e1 4C534D33 		.ascii	"LSM303AGR_ACC_R_XYZDataAvail\000"
 20223      30334147 
 20223      525F4143 
 20223      435F525F 
 20223      58595A44 
 20224              	.LASF340:
 20225 20fe 4C534D33 		.ascii	"LSM303AGR_ACC_R_hpf_aoi_en_int1\000"
 20225      30334147 
 20225      525F4143 
 20225      435F525F 
 20225      6870665F 
 20226              	.LASF342:
 20227 211e 4C534D33 		.ascii	"LSM303AGR_ACC_R_hpf_aoi_en_int2\000"
 20227      30334147 
 20227      525F4143 
 20227      435F525F 
 20227      6870665F 
 20228              	.LASF59:
 20229 213e 4C534D33 		.ascii	"LSM303AGR_ACC_321OR__NO_OVERRUN\000"
 20229      30334147 
 20229      525F4143 
 20229      435F3332 
 20229      314F525F 
 20230              	.LASF313:
 20231 215e 6F705F6D 		.ascii	"op_mode\000"
 20231      6F646500 
 20232              	.LASF308:
 20233 2166 4C534D33 		.ascii	"LSM303AGR_ACC_R_FullScale\000"
 20233      30334147 
 20233      525F4143 
 20233      435F525F 
 20233      46756C6C 
 20234              	.LASF245:
 20235 2180 4C534D33 		.ascii	"LSM303AGR_ACC_YL_UP\000"
 20235      30334147 
 20235      525F4143 
 20235      435F594C 
 20235      5F555000 
 20236              	.LASF238:
 20237 2194 4C534D33 		.ascii	"LSM303AGR_ACC_XL_DOWN\000"
 20237      30334147 
 20237      525F4143 
ARM GAS  /tmp/ccVYwGiK.s 			page 382


 20237      435F584C 
 20237      5F444F57 
 20238              	.LASF66:
 20239 21aa 4C534D33 		.ascii	"LSM303AGR_ACC_ADC_PD_ENABLED\000"
 20239      30334147 
 20239      525F4143 
 20239      435F4144 
 20239      435F5044 
 20240              	.LASF487:
 20241 21c7 4C534D33 		.ascii	"LSM303AGR_ACC_R_SingleCLICK\000"
 20241      30334147 
 20241      525F4143 
 20241      435F525F 
 20241      53696E67 
 20242              	.LASF140:
 20243 21e3 4C534D33 		.ascii	"LSM303AGR_ACC_LIR_INT2_DISABLED\000"
 20243      30334147 
 20243      525F4143 
 20243      435F4C49 
 20243      525F494E 
 20244              	.LASF446:
 20245 2203 4C534D33 		.ascii	"LSM303AGR_ACC_R_Int2_6D\000"
 20245      30334147 
 20245      525F4143 
 20245      435F525F 
 20245      496E7432 
 20246              	.LASF392:
 20247 221b 4C534D33 		.ascii	"LSM303AGR_ACC_R_I2_on_INT2\000"
 20247      30334147 
 20247      525F4143 
 20247      435F525F 
 20247      49325F6F 
 20248              	.LASF271:
 20249 2236 4C534D33 		.ascii	"LSM303AGR_ACC_ZS_DISABLED\000"
 20249      30334147 
 20249      525F4143 
 20249      435F5A53 
 20249      5F444953 
 20250              	.LASF311:
 20251 2250 4C534D33 		.ascii	"LSM303AGR_ACC_Get_Acceleration\000"
 20251      30334147 
 20251      525F4143 
 20251      435F4765 
 20251      745F4163 
 20252              	.LASF85:
 20253 226f 4C534D33 		.ascii	"LSM303AGR_ACC_HPIS2_t\000"
 20253      30334147 
 20253      525F4143 
 20253      435F4850 
 20253      4953325F 
 20254              	.LASF352:
 20255 2285 4C534D33 		.ascii	"LSM303AGR_ACC_R_FIFO_Overrun_on_INT1\000"
 20255      30334147 
 20255      525F4143 
 20255      435F525F 
 20255      4649464F 
 20256              	.LASF2:
ARM GAS  /tmp/ccVYwGiK.s 			page 383


 20257 22aa 73686F72 		.ascii	"short int\000"
 20257      7420696E 
 20257      7400
 20258              	.LASF273:
 20259 22b4 4C534D33 		.ascii	"LSM303AGR_ACC_ZS_t\000"
 20259      30334147 
 20259      525F4143 
 20259      435F5A53 
 20259      5F7400
 20260              	.LASF372:
 20261 22c7 4C534D33 		.ascii	"LSM303AGR_ACC_R_LittleBigEndian\000"
 20261      30334147 
 20261      525F4143 
 20261      435F525F 
 20261      4C697474 
 20262              	.LASF338:
 20263 22e7 4C534D33 		.ascii	"LSM303AGR_ACC_R_LOWPWR_EN\000"
 20263      30334147 
 20263      525F4143 
 20263      435F525F 
 20263      4C4F5750 
 20264              	.LASF397:
 20265 2301 4C534D33 		.ascii	"LSM303AGR_ACC_W_ReferenceVal\000"
 20265      30334147 
 20265      525F4143 
 20265      435F575F 
 20265      52656665 
 20266              	.LASF275:
 20267 231e 4C534D33 		.ascii	"LSM303AGR_ACC_ZD_ENABLED\000"
 20267      30334147 
 20267      525F4143 
 20267      435F5A44 
 20267      5F454E41 
 20268              	.LASF4:
 20269 2337 6C6F6E67 		.ascii	"long int\000"
 20269      20696E74 
 20269      00
 20270              	.LASF359:
 20271 2340 4C534D33 		.ascii	"LSM303AGR_ACC_W_FIFO_AOL2_on_INT1\000"
 20271      30334147 
 20271      525F4143 
 20271      435F575F 
 20271      4649464F 
 20272              	.LASF216:
 20273 2362 4C534D33 		.ascii	"LSM303AGR_ACC_XLIE_t\000"
 20273      30334147 
 20273      525F4143 
 20273      435F584C 
 20273      49455F74 
 20274              	.LASF61:
 20275 2377 4C534D33 		.ascii	"LSM303AGR_ACC_321OR__t\000"
 20275      30334147 
 20275      525F4143 
 20275      435F3332 
 20275      314F525F 
 20276              	.LASF159:
 20277 238e 4C534D33 		.ascii	"LSM303AGR_ACC_P2_ACT_ENABLED\000"
ARM GAS  /tmp/ccVYwGiK.s 			page 384


 20277      30334147 
 20277      525F4143 
 20277      435F5032 
 20277      5F414354 
 20278              	.LASF131:
 20279 23ab 4C534D33 		.ascii	"LSM303AGR_ACC_HR_DISABLED\000"
 20279      30334147 
 20279      525F4143 
 20279      435F4852 
 20279      5F444953 
 20280              	.LASF111:
 20281 23c5 4C534D33 		.ascii	"LSM303AGR_ACC_I1_DRDY1_DISABLED\000"
 20281      30334147 
 20281      525F4143 
 20281      435F4931 
 20281      5F445244 
 20282              	.LASF256:
 20283 23e5 4C534D33 		.ascii	"LSM303AGR_ACC_IA_DOWN\000"
 20283      30334147 
 20283      525F4143 
 20283      435F4941 
 20283      5F444F57 
 20284              	.LASF442:
 20285 23fb 4C534D33 		.ascii	"LSM303AGR_ACC_R_Int2EnZLo\000"
 20285      30334147 
 20285      525F4143 
 20285      435F525F 
 20285      496E7432 
 20286              	.LASF344:
 20287 2415 4C534D33 		.ascii	"LSM303AGR_ACC_R_hpf_click_en\000"
 20287      30334147 
 20287      525F4143 
 20287      435F525F 
 20287      6870665F 
 20288              	.LASF110:
 20289 2432 4C534D33 		.ascii	"LSM303AGR_ACC_I1_DRDY2_t\000"
 20289      30334147 
 20289      525F4143 
 20289      435F4931 
 20289      5F445244 
 20290              	.LASF456:
 20291 244b 4C534D33 		.ascii	"LSM303AGR_ACC_R_Int2_Xlo\000"
 20291      30334147 
 20291      525F4143 
 20291      435F525F 
 20291      496E7432 
 20292              	.LASF424:
 20293 2464 4C534D33 		.ascii	"LSM303AGR_ACC_R_Int1EnYHi\000"
 20293      30334147 
 20293      525F4143 
 20293      435F525F 
 20293      496E7431 
 20294              	.LASF503:
 20295 247e 4C534D33 		.ascii	"LSM303AGR_ACC_Sensitivity_List\000"
 20295      30334147 
 20295      525F4143 
 20295      435F5365 
ARM GAS  /tmp/ccVYwGiK.s 			page 385


 20295      6E736974 
 20296              	.LASF49:
 20297 249d 4C534D33 		.ascii	"LSM303AGR_ACC_321DA__t\000"
 20297      30334147 
 20297      525F4143 
 20297      435F3332 
 20297      3144415F 
 20298              	.LASF225:
 20299 24b4 4C534D33 		.ascii	"LSM303AGR_ACC_YHIE_t\000"
 20299      30334147 
 20299      525F4143 
 20299      435F5948 
 20299      49455F74 
 20300              	.LASF354:
 20301 24c9 4C534D33 		.ascii	"LSM303AGR_ACC_R_FIFO_Watermark_on_INT1\000"
 20301      30334147 
 20301      525F4143 
 20301      435F525F 
 20301      4649464F 
 20302              	.LASF316:
 20303 24f0 4C534D33 		.ascii	"LSM303AGR_ACC_W_ODR\000"
 20303      30334147 
 20303      525F4143 
 20303      435F575F 
 20303      4F445200 
 20304              	.LASF246:
 20305 2504 4C534D33 		.ascii	"LSM303AGR_ACC_YL_t\000"
 20305      30334147 
 20305      525F4143 
 20305      435F594C 
 20305      5F7400
 20306              	.LASF429:
 20307 2517 4C534D33 		.ascii	"LSM303AGR_ACC_W_Int1_6D\000"
 20307      30334147 
 20307      525F4143 
 20307      435F575F 
 20307      496E7431 
 20308              	.LASF389:
 20309 252f 4C534D33 		.ascii	"LSM303AGR_ACC_W_Boot_on_INT2\000"
 20309      30334147 
 20309      525F4143 
 20309      435F575F 
 20309      426F6F74 
 20310              	.LASF459:
 20311 254c 4C534D33 		.ascii	"LSM303AGR_ACC_R_Int2_YHi\000"
 20311      30334147 
 20311      525F4143 
 20311      435F525F 
 20311      496E7432 
 20312              	.LASF407:
 20313 2565 4C534D33 		.ascii	"LSM303AGR_ACC_W_FifoThreshold\000"
 20313      30334147 
 20313      525F4143 
 20313      435F575F 
 20313      4669666F 
 20314              	.LASF387:
 20315 2583 4C534D33 		.ascii	"LSM303AGR_ACC_W_P2_ACT\000"
ARM GAS  /tmp/ccVYwGiK.s 			page 386


 20315      30334147 
 20315      525F4143 
 20315      435F575F 
 20315      50325F41 
 20316              	.LASF349:
 20317 259a 4C534D33 		.ascii	"LSM303AGR_ACC_W_hpf_mode\000"
 20317      30334147 
 20317      525F4143 
 20317      435F575F 
 20317      6870665F 
 20318              	.LASF482:
 20319 25b3 4C534D33 		.ascii	"LSM303AGR_ACC_R_ZDouble\000"
 20319      30334147 
 20319      525F4143 
 20319      435F525F 
 20319      5A446F75 
 20320              	.LASF345:
 20321 25cb 4C534D33 		.ascii	"LSM303AGR_ACC_W_Data_Filter\000"
 20321      30334147 
 20321      525F4143 
 20321      435F575F 
 20321      44617461 
 20322              	.LASF279:
 20323 25e7 4C534D33 		.ascii	"LSM303AGR_ACC_X_t\000"
 20323      30334147 
 20323      525F4143 
 20323      435F585F 
 20323      7400
 20324              	.LASF154:
 20325 25f9 4C534D33 		.ascii	"LSM303AGR_ACC_BOOT_t\000"
 20325      30334147 
 20325      525F4143 
 20325      435F424F 
 20325      4F545F74 
 20326              	.LASF444:
 20327 260e 4C534D33 		.ascii	"LSM303AGR_ACC_R_Int2EnZHi\000"
 20327      30334147 
 20327      525F4143 
 20327      435F525F 
 20327      496E7432 
 20328              	.LASF409:
 20329 2628 4C534D33 		.ascii	"LSM303AGR_ACC_W_TriggerSel\000"
 20329      30334147 
 20329      525F4143 
 20329      435F575F 
 20329      54726967 
 20330              	.LASF283:
 20331 2643 4C534D33 		.ascii	"LSM303AGR_ACC_Z_DOWN\000"
 20331      30334147 
 20331      525F4143 
 20331      435F5A5F 
 20331      444F574E 
 20332              	.LASF319:
 20333 2658 4C534D33 		.ascii	"LSM303AGR_ACC_R_y_data_avail\000"
 20333      30334147 
 20333      525F4143 
 20333      435F525F 
ARM GAS  /tmp/ccVYwGiK.s 			page 387


 20333      795F6461 
 20334              	.LASF441:
 20335 2675 4C534D33 		.ascii	"LSM303AGR_ACC_W_Int2EnZLo\000"
 20335      30334147 
 20335      525F4143 
 20335      435F575F 
 20335      496E7432 
 20336              	.LASF11:
 20337 268f 6931365F 		.ascii	"i16_t\000"
 20337      7400
 20338              	.LASF500:
 20339 2695 474E5520 		.ascii	"GNU C 4.8.4 20140526 (release) [ARM/embedded-4_8-br"
 20339      4320342E 
 20339      382E3420 
 20339      32303134 
 20339      30353236 
 20340 26c8 616E6368 		.ascii	"anch revision 211358] -mcpu=cortex-m4 -mno-thumb-in"
 20340      20726576 
 20340      6973696F 
 20340      6E203231 
 20340      31333538 
 20341 26fb 74657277 		.ascii	"terwork -mthumb -ggdb -O0 -std=c99 -fomit-frame-poi"
 20341      6F726B20 
 20341      2D6D7468 
 20341      756D6220 
 20341      2D676764 
 20342 272e 6E746572 		.ascii	"nter -falign-functions=16\000"
 20342      202D6661 
 20342      6C69676E 
 20342      2D66756E 
 20342      6374696F 
 20343              	.LASF266:
 20344 2748 4C534D33 		.ascii	"LSM303AGR_ACC_YS_ENABLED\000"
 20344      30334147 
 20344      525F4143 
 20344      435F5953 
 20344      5F454E41 
 20345              	.LASF473:
 20346 2761 4C534D33 		.ascii	"LSM303AGR_ACC_W_XDouble\000"
 20346      30334147 
 20346      525F4143 
 20346      435F575F 
 20346      58446F75 
 20347              	.LASF312:
 20348 2779 7261775F 		.ascii	"raw_data_tmp\000"
 20348      64617461 
 20348      5F746D70 
 20348      00
 20349              	.LASF36:
 20350 2786 4C534D33 		.ascii	"LSM303AGR_ACC_ODR_DO_1_25KHz\000"
 20350      30334147 
 20350      525F4143 
 20350      435F4F44 
 20350      525F444F 
 20351              	.LASF365:
 20352 27a3 4C534D33 		.ascii	"LSM303AGR_ACC_W_SPI_mode\000"
 20352      30334147 
ARM GAS  /tmp/ccVYwGiK.s 			page 388


 20352      525F4143 
 20352      435F575F 
 20352      5350495F 
 20353              	.LASF417:
 20354 27bc 4C534D33 		.ascii	"LSM303AGR_ACC_W_Int1EnXLo\000"
 20354      30334147 
 20354      525F4143 
 20354      435F575F 
 20354      496E7431 
 20355              	.LASF93:
 20356 27d6 4C534D33 		.ascii	"LSM303AGR_ACC_HPCF_01\000"
 20356      30334147 
 20356      525F4143 
 20356      435F4850 
 20356      43465F30 
 20357              	.LASF364:
 20358 27ec 4C534D33 		.ascii	"LSM303AGR_ACC_R_FIFO_Click_on_INT1\000"
 20358      30334147 
 20358      525F4143 
 20358      435F525F 
 20358      4649464F 
 20359              	.LASF207:
 20360 280f 4C534D33 		.ascii	"LSM303AGR_ACC_EMPTY_t\000"
 20360      30334147 
 20360      525F4143 
 20360      435F454D 
 20360      5054595F 
 20361              	.LASF186:
 20362 2825 4C534D33 		.ascii	"LSM303AGR_ACC_XOR_OVERRUN\000"
 20362      30334147 
 20362      525F4143 
 20362      435F584F 
 20362      525F4F56 
 20363              	.LASF40:
 20364 283f 4C534D33 		.ascii	"LSM303AGR_ACC_1DA_t\000"
 20364      30334147 
 20364      525F4143 
 20364      435F3144 
 20364      415F7400 
 20365              	.LASF464:
 20366 2853 4C534D33 		.ascii	"LSM303AGR_ACC_R_Int1_Threshold\000"
 20366      30334147 
 20366      525F4143 
 20366      435F525F 
 20366      496E7431 
 20367              	.LASF194:
 20368 2872 4C534D33 		.ascii	"LSM303AGR_ACC_ZYXOR_NO_OVERRUN\000"
 20368      30334147 
 20368      525F4143 
 20368      435F5A59 
 20368      584F525F 
 20369              	.LASF83:
 20370 2891 4C534D33 		.ascii	"LSM303AGR_ACC_HPIS2_DISABLED\000"
 20370      30334147 
 20370      525F4143 
 20370      435F4850 
 20370      4953325F 
ARM GAS  /tmp/ccVYwGiK.s 			page 389


 20371              	.LASF462:
 20372 28ae 4C534D33 		.ascii	"LSM303AGR_ACC_R_Int2_IA\000"
 20372      30334147 
 20372      525F4143 
 20372      435F525F 
 20372      496E7432 
 20373              	.LASF21:
 20374 28c6 4C534D33 		.ascii	"LSM303AGR_ACC_BDU_t\000"
 20374      30334147 
 20374      525F4143 
 20374      435F4244 
 20374      555F7400 
 20375              	.LASF14:
 20376 28da 73697A65 		.ascii	"sizetype\000"
 20376      74797065 
 20376      00
 20377              	.LASF58:
 20378 28e3 4C534D33 		.ascii	"LSM303AGR_ACC_3OR__t\000"
 20378      30334147 
 20378      525F4143 
 20378      435F334F 
 20378      525F5F74 
 20379              	.LASF5:
 20380 28f8 6C6F6E67 		.ascii	"long unsigned int\000"
 20380      20756E73 
 20380      69676E65 
 20380      6420696E 
 20380      7400
 20381              	.LASF236:
 20382 290a 4C534D33 		.ascii	"LSM303AGR_ACC_AOI_AND\000"
 20382      30334147 
 20382      525F4143 
 20382      435F414F 
 20382      495F414E 
 20383              	.LASF253:
 20384 2920 4C534D33 		.ascii	"LSM303AGR_ACC_ZH_DOWN\000"
 20384      30334147 
 20384      525F4143 
 20384      435F5A48 
 20384      5F444F57 
 20385              	.LASF297:
 20386 2936 4C534D33 		.ascii	"LSM303AGR_ACC_CLICK_IA_t\000"
 20386      30334147 
 20386      525F4143 
 20386      435F434C 
 20386      49434B5F 
 20387              	.LASF475:
 20388 294f 4C534D33 		.ascii	"LSM303AGR_ACC_W_YSingle\000"
 20388      30334147 
 20388      525F4143 
 20388      435F575F 
 20388      5953696E 
 20389              	.LASF425:
 20390 2967 4C534D33 		.ascii	"LSM303AGR_ACC_W_Int1EnZLo\000"
 20390      30334147 
 20390      525F4143 
 20390      435F575F 
ARM GAS  /tmp/ccVYwGiK.s 			page 390


 20390      496E7431 
 20391              	.LASF330:
 20392 2981 4C534D33 		.ascii	"LSM303AGR_ACC_R_ADC_PD\000"
 20392      30334147 
 20392      525F4143 
 20392      435F525F 
 20392      4144435F 
 20393              	.LASF437:
 20394 2998 4C534D33 		.ascii	"LSM303AGR_ACC_W_Int2EnYLo\000"
 20394      30334147 
 20394      525F4143 
 20394      435F575F 
 20394      496E7432 
 20395              	.LASF396:
 20396 29b2 4C534D33 		.ascii	"LSM303AGR_ACC_R_Click_on_INT2\000"
 20396      30334147 
 20396      525F4143 
 20396      435F525F 
 20396      436C6963 
 20397              	.LASF167:
 20398 29d0 4C534D33 		.ascii	"LSM303AGR_ACC_I2_INT1_DISABLED\000"
 20398      30334147 
 20398      525F4143 
 20398      435F4932 
 20398      5F494E54 
 20399              	.LASF390:
 20400 29ef 4C534D33 		.ascii	"LSM303AGR_ACC_R_Boot_on_INT2\000"
 20400      30334147 
 20400      525F4143 
 20400      435F525F 
 20400      426F6F74 
 20401              	.LASF46:
 20402 2a0c 4C534D33 		.ascii	"LSM303AGR_ACC_3DA__t\000"
 20402      30334147 
 20402      525F4143 
 20402      435F3344 
 20402      415F5F74 
 20403              	.LASF90:
 20404 2a21 4C534D33 		.ascii	"LSM303AGR_ACC_FDS_ENABLED\000"
 20404      30334147 
 20404      525F4143 
 20404      435F4644 
 20404      535F454E 
 20405              	.LASF145:
 20406 2a3b 4C534D33 		.ascii	"LSM303AGR_ACC_D4D_INT1_t\000"
 20406      30334147 
 20406      525F4143 
 20406      435F4434 
 20406      445F494E 
 20407              	.LASF155:
 20408 2a54 4C534D33 		.ascii	"LSM303AGR_ACC_H_LACTIVE_ACTIVE_HI\000"
 20408      30334147 
 20408      525F4143 
 20408      435F485F 
 20408      4C414354 
 20409              	.LASF105:
 20410 2a76 4C534D33 		.ascii	"LSM303AGR_ACC_I1_WTM_DISABLED\000"
ARM GAS  /tmp/ccVYwGiK.s 			page 391


 20410      30334147 
 20410      525F4143 
 20410      435F4931 
 20410      5F57544D 
 20411              	.LASF346:
 20412 2a94 4C534D33 		.ascii	"LSM303AGR_ACC_R_Data_Filter\000"
 20412      30334147 
 20412      525F4143 
 20412      435F525F 
 20412      44617461 
 20413              	.LASF178:
 20414 2ab0 4C534D33 		.ascii	"LSM303AGR_ACC_YDA_t\000"
 20414      30334147 
 20414      525F4143 
 20414      435F5944 
 20414      415F7400 
 20415              	.LASF1:
 20416 2ac4 756E7369 		.ascii	"unsigned char\000"
 20416      676E6564 
 20416      20636861 
 20416      7200
 20417              	.LASF239:
 20418 2ad2 4C534D33 		.ascii	"LSM303AGR_ACC_XL_UP\000"
 20418      30334147 
 20418      525F4143 
 20418      435F584C 
 20418      5F555000 
 20419              	.LASF353:
 20420 2ae6 4C534D33 		.ascii	"LSM303AGR_ACC_W_FIFO_Watermark_on_INT1\000"
 20420      30334147 
 20420      525F4143 
 20420      435F575F 
 20420      4649464F 
 20421              	.LASF139:
 20422 2b0d 4C534D33 		.ascii	"LSM303AGR_ACC_D4D_INT2_t\000"
 20422      30334147 
 20422      525F4143 
 20422      435F4434 
 20422      445F494E 
 20423              	.LASF217:
 20424 2b26 4C534D33 		.ascii	"LSM303AGR_ACC_XHIE_DISABLED\000"
 20424      30334147 
 20424      525F4143 
 20424      435F5848 
 20424      49455F44 
 20425              	.LASF497:
 20426 2b42 4C534D33 		.ascii	"LSM303AGR_ACC_R_ClickTimeWindow\000"
 20426      30334147 
 20426      525F4143 
 20426      435F525F 
 20426      436C6963 
 20427              	.LASF380:
 20428 2b62 4C534D33 		.ascii	"LSM303AGR_ACC_R_LatchInterrupt_on_INT1\000"
 20428      30334147 
 20428      525F4143 
 20428      435F525F 
 20428      4C617463 
ARM GAS  /tmp/ccVYwGiK.s 			page 392


 20429              	.LASF453:
 20430 2b89 4C534D33 		.ascii	"LSM303AGR_ACC_R_Int1_Zlo\000"
 20430      30334147 
 20430      525F4143 
 20430      435F525F 
 20430      496E7431 
 20431              	.LASF290:
 20432 2ba2 4C534D33 		.ascii	"LSM303AGR_ACC_SCLICK_ENABLED\000"
 20432      30334147 
 20432      525F4143 
 20432      435F5343 
 20432      4C49434B 
 20433              	.LASF138:
 20434 2bbf 4C534D33 		.ascii	"LSM303AGR_ACC_D4D_INT2_ENABLED\000"
 20434      30334147 
 20434      525F4143 
 20434      435F4434 
 20434      445F494E 
 20435              	.LASF71:
 20436 2bde 4C534D33 		.ascii	"LSM303AGR_ACC_YEN_DISABLED\000"
 20436      30334147 
 20436      525F4143 
 20436      435F5945 
 20436      4E5F4449 
 20437              	.LASF469:
 20438 2bf9 4C534D33 		.ascii	"LSM303AGR_ACC_W_Int2_Duration\000"
 20438      30334147 
 20438      525F4143 
 20438      435F575F 
 20438      496E7432 
 20439              	.LASF226:
 20440 2c17 4C534D33 		.ascii	"LSM303AGR_ACC_ZLIE_DISABLED\000"
 20440      30334147 
 20440      525F4143 
 20440      435F5A4C 
 20440      49455F44 
 20441              	.LASF255:
 20442 2c33 4C534D33 		.ascii	"LSM303AGR_ACC_ZH_t\000"
 20442      30334147 
 20442      525F4143 
 20442      435F5A48 
 20442      5F7400
 20443              	.LASF299:
 20444 2c46 42756670 		.ascii	"Bufp\000"
 20444      00
 20445              	.LASF228:
 20446 2c4b 4C534D33 		.ascii	"LSM303AGR_ACC_ZLIE_t\000"
 20446      30334147 
 20446      525F4143 
 20446      435F5A4C 
 20446      49455F74 
 20447              	.LASF16:
 20448 2c60 4D454D53 		.ascii	"MEMS_SUCCESS\000"
 20448      5F535543 
 20448      43455353 
 20448      00
 20449              	.LASF218:
ARM GAS  /tmp/ccVYwGiK.s 			page 393


 20450 2c6d 4C534D33 		.ascii	"LSM303AGR_ACC_XHIE_ENABLED\000"
 20450      30334147 
 20450      525F4143 
 20450      435F5848 
 20450      49455F45 
 20451              	.LASF163:
 20452 2c88 4C534D33 		.ascii	"LSM303AGR_ACC_BOOT_I1_t\000"
 20452      30334147 
 20452      525F4143 
 20452      435F424F 
 20452      4F545F49 
 20453              	.LASF493:
 20454 2ca0 4C534D33 		.ascii	"LSM303AGR_ACC_R_ClickTimeLimit\000"
 20454      30334147 
 20454      525F4143 
 20454      435F525F 
 20454      436C6963 
 20455              	.LASF379:
 20456 2cbf 4C534D33 		.ascii	"LSM303AGR_ACC_W_LatchInterrupt_on_INT1\000"
 20456      30334147 
 20456      525F4143 
 20456      435F575F 
 20456      4C617463 
 20457              	.LASF39:
 20458 2ce6 4C534D33 		.ascii	"LSM303AGR_ACC_1DA_AVAILABLE\000"
 20458      30334147 
 20458      525F4143 
 20458      435F3144 
 20458      415F4156 
 20459              	.LASF337:
 20460 2d02 4C534D33 		.ascii	"LSM303AGR_ACC_W_LOWPWR_EN\000"
 20460      30334147 
 20460      525F4143 
 20460      435F575F 
 20460      4C4F5750 
 20461              	.LASF398:
 20462 2d1c 4C534D33 		.ascii	"LSM303AGR_ACC_R_ReferenceVal\000"
 20462      30334147 
 20462      525F4143 
 20462      435F525F 
 20462      52656665 
 20463              	.LASF247:
 20464 2d39 4C534D33 		.ascii	"LSM303AGR_ACC_YH_DOWN\000"
 20464      30334147 
 20464      525F4143 
 20464      435F5948 
 20464      5F444F57 
 20465              	.LASF333:
 20466 2d4f 4C534D33 		.ascii	"LSM303AGR_ACC_W_YEN\000"
 20466      30334147 
 20466      525F4143 
 20466      435F575F 
 20466      59454E00 
 20467              	.LASF401:
 20468 2d63 4C534D33 		.ascii	"LSM303AGR_ACC_R_ZDataAvail\000"
 20468      30334147 
 20468      525F4143 
ARM GAS  /tmp/ccVYwGiK.s 			page 394


 20468      435F525F 
 20468      5A446174 
 20469              	.LASF447:
 20470 2d7e 4C534D33 		.ascii	"LSM303AGR_ACC_W_Int2_AOI\000"
 20470      30334147 
 20470      525F4143 
 20470      435F575F 
 20470      496E7432 
 20471              	.LASF168:
 20472 2d97 4C534D33 		.ascii	"LSM303AGR_ACC_I2_INT1_ENABLED\000"
 20472      30334147 
 20472      525F4143 
 20472      435F4932 
 20472      5F494E54 
 20473              	.LASF257:
 20474 2db5 4C534D33 		.ascii	"LSM303AGR_ACC_IA_UP\000"
 20474      30334147 
 20474      525F4143 
 20474      435F4941 
 20474      5F555000 
 20475              	.LASF250:
 20476 2dc9 4C534D33 		.ascii	"LSM303AGR_ACC_ZL_DOWN\000"
 20476      30334147 
 20476      525F4143 
 20476      435F5A4C 
 20476      5F444F57 
 20477              	.LASF394:
 20478 2ddf 4C534D33 		.ascii	"LSM303AGR_ACC_R_I2_on_INT1\000"
 20478      30334147 
 20478      525F4143 
 20478      435F525F 
 20478      49325F6F 
 20479              	.LASF29:
 20480 2dfa 4C534D33 		.ascii	"LSM303AGR_ACC_ODR_DO_10Hz\000"
 20480      30334147 
 20480      525F4143 
 20480      435F4F44 
 20480      525F444F 
 20481              	.LASF460:
 20482 2e14 4C534D33 		.ascii	"LSM303AGR_ACC_R_Int2_Zlo\000"
 20482      30334147 
 20482      525F4143 
 20482      435F525F 
 20482      496E7432 
 20483              	.LASF56:
 20484 2e2d 4C534D33 		.ascii	"LSM303AGR_ACC_3OR__NO_OVERRUN\000"
 20484      30334147 
 20484      525F4143 
 20484      435F334F 
 20484      525F5F4E 
 20485              	.LASF214:
 20486 2e4b 4C534D33 		.ascii	"LSM303AGR_ACC_XLIE_DISABLED\000"
 20486      30334147 
 20486      525F4143 
 20486      435F584C 
 20486      49455F44 
 20487              	.LASF468:
ARM GAS  /tmp/ccVYwGiK.s 			page 395


 20488 2e67 4C534D33 		.ascii	"LSM303AGR_ACC_R_Int1_Duration\000"
 20488      30334147 
 20488      525F4143 
 20488      435F525F 
 20488      496E7431 
 20489              	.LASF223:
 20490 2e85 4C534D33 		.ascii	"LSM303AGR_ACC_YHIE_DISABLED\000"
 20490      30334147 
 20490      525F4143 
 20490      435F5948 
 20490      49455F44 
 20491              	.LASF95:
 20492 2ea1 4C534D33 		.ascii	"LSM303AGR_ACC_HPCF_11\000"
 20492      30334147 
 20492      525F4143 
 20492      435F4850 
 20492      43465F31 
 20493              	.LASF169:
 20494 2eb7 4C534D33 		.ascii	"LSM303AGR_ACC_I2_INT1_t\000"
 20494      30334147 
 20494      525F4143 
 20494      435F4932 
 20494      5F494E54 
 20495              	.LASF339:
 20496 2ecf 4C534D33 		.ascii	"LSM303AGR_ACC_W_hpf_aoi_en_int1\000"
 20496      30334147 
 20496      525F4143 
 20496      435F575F 
 20496      6870665F 
 20497              	.LASF341:
 20498 2eef 4C534D33 		.ascii	"LSM303AGR_ACC_W_hpf_aoi_en_int2\000"
 20498      30334147 
 20498      525F4143 
 20498      435F575F 
 20498      6870665F 
 20499              	.LASF0:
 20500 2f0f 7369676E 		.ascii	"signed char\000"
 20500      65642063 
 20500      68617200 
 20501              	.LASF489:
 20502 2f1b 4C534D33 		.ascii	"LSM303AGR_ACC_R_CLICK_IA\000"
 20502      30334147 
 20502      525F4143 
 20502      435F525F 
 20502      434C4943 
 20503              	.LASF70:
 20504 2f34 4C534D33 		.ascii	"LSM303AGR_ACC_XEN_t\000"
 20504      30334147 
 20504      525F4143 
 20504      435F5845 
 20504      4E5F7400 
 20505              	.LASF270:
 20506 2f48 4C534D33 		.ascii	"LSM303AGR_ACC_YD_t\000"
 20506      30334147 
 20506      525F4143 
 20506      435F5944 
 20506      5F7400
ARM GAS  /tmp/ccVYwGiK.s 			page 396


 20507              	.LASF3:
 20508 2f5b 73686F72 		.ascii	"short unsigned int\000"
 20508      7420756E 
 20508      7369676E 
 20508      65642069 
 20508      6E7400
 20509              	.LASF190:
 20510 2f6e 4C534D33 		.ascii	"LSM303AGR_ACC_YOR_t\000"
 20510      30334147 
 20510      525F4143 
 20510      435F594F 
 20510      525F7400 
 20511              	.LASF108:
 20512 2f82 4C534D33 		.ascii	"LSM303AGR_ACC_I1_DRDY2_DISABLED\000"
 20512      30334147 
 20512      525F4143 
 20512      435F4931 
 20512      5F445244 
 20513              	.LASF235:
 20514 2fa2 4C534D33 		.ascii	"LSM303AGR_ACC_AOI_OR\000"
 20514      30334147 
 20514      525F4143 
 20514      435F414F 
 20514      495F4F52 
 20515              	.LASF88:
 20516 2fb7 4C534D33 		.ascii	"LSM303AGR_ACC_HPCLICK_t\000"
 20516      30334147 
 20516      525F4143 
 20516      435F4850 
 20516      434C4943 
 20517              	.LASF106:
 20518 2fcf 4C534D33 		.ascii	"LSM303AGR_ACC_I1_WTM_ENABLED\000"
 20518      30334147 
 20518      525F4143 
 20518      435F4931 
 20518      5F57544D 
 20519              	.LASF261:
 20520 2fec 4C534D33 		.ascii	"LSM303AGR_ACC_XS_t\000"
 20520      30334147 
 20520      525F4143 
 20520      435F5853 
 20520      5F7400
 20521              	.LASF465:
 20522 2fff 4C534D33 		.ascii	"LSM303AGR_ACC_W_Int2_Threshold\000"
 20522      30334147 
 20522      525F4143 
 20522      435F575F 
 20522      496E7432 
 20523              	.LASF480:
 20524 301e 4C534D33 		.ascii	"LSM303AGR_ACC_R_ZSingle\000"
 20524      30334147 
 20524      525F4143 
 20524      435F525F 
 20524      5A53696E 
 20525              	.LASF78:
 20526 3036 4C534D33 		.ascii	"LSM303AGR_ACC_LPEN_ENABLED\000"
 20526      30334147 
ARM GAS  /tmp/ccVYwGiK.s 			page 397


 20526      525F4143 
 20526      435F4C50 
 20526      454E5F45 
 20527              	.LASF443:
 20528 3051 4C534D33 		.ascii	"LSM303AGR_ACC_W_Int2EnZHi\000"
 20528      30334147 
 20528      525F4143 
 20528      435F575F 
 20528      496E7432 
 20529              	.LASF486:
 20530 306b 4C534D33 		.ascii	"LSM303AGR_ACC_R_ClickSign\000"
 20530      30334147 
 20530      525F4143 
 20530      435F525F 
 20530      436C6963 
 20531              	.LASF324:
 20532 3085 4C534D33 		.ascii	"LSM303AGR_ACC_R_DataZOverrun\000"
 20532      30334147 
 20532      525F4143 
 20532      435F525F 
 20532      44617461 
 20533              	.LASF237:
 20534 30a2 4C534D33 		.ascii	"LSM303AGR_ACC_AOI_t\000"
 20534      30334147 
 20534      525F4143 
 20534      435F414F 
 20534      495F7400 
 20535              	.LASF188:
 20536 30b6 4C534D33 		.ascii	"LSM303AGR_ACC_YOR_NO_OVERRUN\000"
 20536      30334147 
 20536      525F4143 
 20536      435F594F 
 20536      525F4E4F 
 20537              	.LASF371:
 20538 30d3 4C534D33 		.ascii	"LSM303AGR_ACC_W_LittleBigEndian\000"
 20538      30334147 
 20538      525F4143 
 20538      435F575F 
 20538      4C697474 
 20539              	.LASF267:
 20540 30f3 4C534D33 		.ascii	"LSM303AGR_ACC_YS_t\000"
 20540      30334147 
 20540      525F4143 
 20540      435F5953 
 20540      5F7400
 20541              	.LASF383:
 20542 3106 4C534D33 		.ascii	"LSM303AGR_ACC_W_RebootMemory\000"
 20542      30334147 
 20542      525F4143 
 20542      435F575F 
 20542      5265626F 
 20543              	.LASF385:
 20544 3123 4C534D33 		.ascii	"LSM303AGR_ACC_W_IntActive\000"
 20544      30334147 
 20544      525F4143 
 20544      435F575F 
 20544      496E7441 
ARM GAS  /tmp/ccVYwGiK.s 			page 398


 20545              	.LASF436:
 20546 313d 4C534D33 		.ascii	"LSM303AGR_ACC_R_Int2EnXHi\000"
 20546      30334147 
 20546      525F4143 
 20546      435F525F 
 20546      496E7432 
 20547              	.LASF404:
 20548 3157 4C534D33 		.ascii	"LSM303AGR_ACC_R_YDataOverrun\000"
 20548      30334147 
 20548      525F4143 
 20548      435F525F 
 20548      59446174 
 20549              	.LASF430:
 20550 3174 4C534D33 		.ascii	"LSM303AGR_ACC_R_Int1_6D\000"
 20550      30334147 
 20550      525F4143 
 20550      435F525F 
 20550      496E7431 
 20551              	.LASF92:
 20552 318c 4C534D33 		.ascii	"LSM303AGR_ACC_HPCF_00\000"
 20552      30334147 
 20552      525F4143 
 20552      435F4850 
 20552      43465F30 
 20553              	.LASF57:
 20554 31a2 4C534D33 		.ascii	"LSM303AGR_ACC_3OR__OVERRUN\000"
 20554      30334147 
 20554      525F4143 
 20554      435F334F 
 20554      525F5F4F 
 20555              	.LASF142:
 20556 31bd 4C534D33 		.ascii	"LSM303AGR_ACC_LIR_INT2_t\000"
 20556      30334147 
 20556      525F4143 
 20556      435F4C49 
 20556      525F494E 
 20557              	.LASF292:
 20558 31d6 4C534D33 		.ascii	"LSM303AGR_ACC_DCLICK_DISABLED\000"
 20558      30334147 
 20558      525F4143 
 20558      435F4443 
 20558      4C49434B 
 20559              	.LASF44:
 20560 31f4 4C534D33 		.ascii	"LSM303AGR_ACC_3DA__NOT_AVAILABLE\000"
 20560      30334147 
 20560      525F4143 
 20560      435F3344 
 20560      415F5F4E 
 20561              	.LASF368:
 20562 3215 4C534D33 		.ascii	"LSM303AGR_ACC_R_SelfTest\000"
 20562      30334147 
 20562      525F4143 
 20562      435F525F 
 20562      53656C66 
 20563              	.LASF135:
 20564 322e 4C534D33 		.ascii	"LSM303AGR_ACC_BLE_BIG_ENDIAN\000"
 20564      30334147 
ARM GAS  /tmp/ccVYwGiK.s 			page 399


 20564      525F4143 
 20564      435F424C 
 20564      455F4249 
 20565              	.LASF362:
 20566 324b 4C534D33 		.ascii	"LSM303AGR_ACC_R_FIFO_AOL1_on_INT1\000"
 20566      30334147 
 20566      525F4143 
 20566      435F525F 
 20566      4649464F 
 20567              	.LASF264:
 20568 326d 4C534D33 		.ascii	"LSM303AGR_ACC_XD_t\000"
 20568      30334147 
 20568      525F4143 
 20568      435F5844 
 20568      5F7400
 20569              	.LASF103:
 20570 3280 4C534D33 		.ascii	"LSM303AGR_ACC_I1_OVERRUN_ENABLED\000"
 20570      30334147 
 20570      525F4143 
 20570      435F4931 
 20570      5F4F5645 
 20571              	.LASF375:
 20572 32a1 4C534D33 		.ascii	"LSM303AGR_ACC_W_LatchInterrupt_on_INT2\000"
 20572      30334147 
 20572      525F4143 
 20572      435F575F 
 20572      4C617463 
 20573              	.LASF200:
 20574 32c8 4C534D33 		.ascii	"LSM303AGR_ACC_FM_BYPASS\000"
 20574      30334147 
 20574      525F4143 
 20574      435F464D 
 20574      5F425950 
 20575              	.LASF272:
 20576 32e0 4C534D33 		.ascii	"LSM303AGR_ACC_ZS_ENABLED\000"
 20576      30334147 
 20576      525F4143 
 20576      435F5A53 
 20576      5F454E41 
 20577              	.LASF432:
 20578 32f9 4C534D33 		.ascii	"LSM303AGR_ACC_R_Int1_AOI\000"
 20578      30334147 
 20578      525F4143 
 20578      435F525F 
 20578      496E7431 
 20579              	.LASF242:
 20580 3312 4C534D33 		.ascii	"LSM303AGR_ACC_XH_UP\000"
 20580      30334147 
 20580      525F4143 
 20580      435F5848 
 20580      5F555000 
 20581              	.LASF265:
 20582 3326 4C534D33 		.ascii	"LSM303AGR_ACC_YS_DISABLED\000"
 20582      30334147 
 20582      525F4143 
 20582      435F5953 
 20582      5F444953 
ARM GAS  /tmp/ccVYwGiK.s 			page 400


 20583              	.LASF278:
 20584 3340 4C534D33 		.ascii	"LSM303AGR_ACC_X_UP\000"
 20584      30334147 
 20584      525F4143 
 20584      435F585F 
 20584      555000
 20585              	.LASF251:
 20586 3353 4C534D33 		.ascii	"LSM303AGR_ACC_ZL_UP\000"
 20586      30334147 
 20586      525F4143 
 20586      435F5A4C 
 20586      5F555000 
 20587              	.LASF286:
 20588 3367 4C534D33 		.ascii	"LSM303AGR_ACC_SIGN_POSITIVE\000"
 20588      30334147 
 20588      525F4143 
 20588      435F5349 
 20588      474E5F50 
 20589              	.LASF211:
 20590 3383 4C534D33 		.ascii	"LSM303AGR_ACC_WTM_NORMAL\000"
 20590      30334147 
 20590      525F4143 
 20590      435F5754 
 20590      4D5F4E4F 
 20591              		.ident	"GCC: (GNU Tools for ARM Embedded Processors) 4.8.4 20140526 (release) [ARM/embedded-4_8-br
ARM GAS  /tmp/ccVYwGiK.s 			page 401


DEFINED SYMBOLS
                            *ABS*:00000000 LSM303AGR_ACC_driver.c
     /tmp/ccVYwGiK.s:18     .text:00000000 $t
     /tmp/ccVYwGiK.s:24     .text:00000000 LSM303AGR_ACC_WriteReg
     /tmp/ccVYwGiK.s:72     .text:00000040 LSM303AGR_ACC_ReadReg
     /tmp/ccVYwGiK.s:119    .text:00000080 LSM303AGR_ACC_R_WHO_AM_I
     /tmp/ccVYwGiK.s:172    .text:000000c0 LSM303AGR_ACC_W_BlockDataUpdate
     /tmp/ccVYwGiK.s:242    .text:00000130 LSM303AGR_ACC_R_BlockDataUpdate
     /tmp/ccVYwGiK.s:292    .text:00000170 LSM303AGR_ACC_W_FullScale
     /tmp/ccVYwGiK.s:362    .text:000001e0 LSM303AGR_ACC_R_FullScale
     /tmp/ccVYwGiK.s:412    .text:00000220 LSM303AGR_ACC_Get_Raw_Acceleration
     /tmp/ccVYwGiK.s:454    .rodata:00000000 LSM303AGR_ACC_Sensitivity_List
     /tmp/ccVYwGiK.s:451    .rodata:00000000 $d
     /tmp/ccVYwGiK.s:487    .text:00000250 LSM303AGR_ACC_Get_Acceleration
     /tmp/ccVYwGiK.s:3906   .text:00001630 LSM303AGR_ACC_R_HiRes
     /tmp/ccVYwGiK.s:1986   .text:00000b30 LSM303AGR_ACC_R_LOWPWR_EN
     /tmp/ccVYwGiK.s:733    .text:00000458 $d
     /tmp/ccVYwGiK.s:737    .text:0000045c $t
     /tmp/ccVYwGiK.s:743    .text:00000460 LSM303AGR_ACC_W_ODR
     /tmp/ccVYwGiK.s:813    .text:000004d0 LSM303AGR_ACC_R_ODR
     /tmp/ccVYwGiK.s:863    .text:00000510 LSM303AGR_ACC_R_x_data_avail
     /tmp/ccVYwGiK.s:913    .text:00000550 LSM303AGR_ACC_R_y_data_avail
     /tmp/ccVYwGiK.s:963    .text:00000590 LSM303AGR_ACC_R_z_data_avail
     /tmp/ccVYwGiK.s:1013   .text:000005d0 LSM303AGR_ACC_R_xyz_data_avail
     /tmp/ccVYwGiK.s:1063   .text:00000610 LSM303AGR_ACC_R_DataXOverrun
     /tmp/ccVYwGiK.s:1113   .text:00000650 LSM303AGR_ACC_R_DataYOverrun
     /tmp/ccVYwGiK.s:1163   .text:00000690 LSM303AGR_ACC_R_DataZOverrun
     /tmp/ccVYwGiK.s:1213   .text:000006d0 LSM303AGR_ACC_R_DataXYZOverrun
     /tmp/ccVYwGiK.s:1263   .text:00000710 LSM303AGR_ACC_R_int_counter
     /tmp/ccVYwGiK.s:1316   .text:00000750 LSM303AGR_ACC_W_TEMP_EN_bits
     /tmp/ccVYwGiK.s:1386   .text:000007c0 LSM303AGR_ACC_R_TEMP_EN_bits
     /tmp/ccVYwGiK.s:1436   .text:00000800 LSM303AGR_ACC_W_ADC_PD
     /tmp/ccVYwGiK.s:1506   .text:00000870 LSM303AGR_ACC_R_ADC_PD
     /tmp/ccVYwGiK.s:1556   .text:000008b0 LSM303AGR_ACC_W_XEN
     /tmp/ccVYwGiK.s:1626   .text:00000920 LSM303AGR_ACC_R_XEN
     /tmp/ccVYwGiK.s:1676   .text:00000960 LSM303AGR_ACC_W_YEN
     /tmp/ccVYwGiK.s:1746   .text:000009d0 LSM303AGR_ACC_R_YEN
     /tmp/ccVYwGiK.s:1796   .text:00000a10 LSM303AGR_ACC_W_ZEN
     /tmp/ccVYwGiK.s:1866   .text:00000a80 LSM303AGR_ACC_R_ZEN
     /tmp/ccVYwGiK.s:1916   .text:00000ac0 LSM303AGR_ACC_W_LOWPWR_EN
     /tmp/ccVYwGiK.s:2036   .text:00000b70 LSM303AGR_ACC_W_hpf_aoi_en_int1
     /tmp/ccVYwGiK.s:2106   .text:00000be0 LSM303AGR_ACC_R_hpf_aoi_en_int1
     /tmp/ccVYwGiK.s:2156   .text:00000c20 LSM303AGR_ACC_W_hpf_aoi_en_int2
     /tmp/ccVYwGiK.s:2226   .text:00000c90 LSM303AGR_ACC_R_hpf_aoi_en_int2
     /tmp/ccVYwGiK.s:2276   .text:00000cd0 LSM303AGR_ACC_W_hpf_click_en
     /tmp/ccVYwGiK.s:2346   .text:00000d40 LSM303AGR_ACC_R_hpf_click_en
     /tmp/ccVYwGiK.s:2396   .text:00000d80 LSM303AGR_ACC_W_Data_Filter
     /tmp/ccVYwGiK.s:2466   .text:00000df0 LSM303AGR_ACC_R_Data_Filter
     /tmp/ccVYwGiK.s:2516   .text:00000e30 LSM303AGR_ACC_W_hpf_cutoff_freq
     /tmp/ccVYwGiK.s:2586   .text:00000ea0 LSM303AGR_ACC_R_hpf_cutoff_freq
     /tmp/ccVYwGiK.s:2636   .text:00000ee0 LSM303AGR_ACC_W_hpf_mode
     /tmp/ccVYwGiK.s:2706   .text:00000f50 LSM303AGR_ACC_R_hpf_mode
     /tmp/ccVYwGiK.s:2756   .text:00000f90 LSM303AGR_ACC_W_FIFO_Overrun_on_INT1
     /tmp/ccVYwGiK.s:2826   .text:00001000 LSM303AGR_ACC_R_FIFO_Overrun_on_INT1
     /tmp/ccVYwGiK.s:2876   .text:00001040 LSM303AGR_ACC_W_FIFO_Watermark_on_INT1
     /tmp/ccVYwGiK.s:2946   .text:000010b0 LSM303AGR_ACC_R_FIFO_Watermark_on_INT1
     /tmp/ccVYwGiK.s:2996   .text:000010f0 LSM303AGR_ACC_W_FIFO_DRDY2_on_INT1
ARM GAS  /tmp/ccVYwGiK.s 			page 402


     /tmp/ccVYwGiK.s:3066   .text:00001160 LSM303AGR_ACC_R_FIFO_DRDY2_on_INT1
     /tmp/ccVYwGiK.s:3116   .text:000011a0 LSM303AGR_ACC_W_FIFO_DRDY1_on_INT1
     /tmp/ccVYwGiK.s:3186   .text:00001210 LSM303AGR_ACC_R_FIFO_DRDY1_on_INT1
     /tmp/ccVYwGiK.s:3236   .text:00001250 LSM303AGR_ACC_W_FIFO_AOL2_on_INT1
     /tmp/ccVYwGiK.s:3306   .text:000012c0 LSM303AGR_ACC_R_FIFO_AOL2_on_INT1
     /tmp/ccVYwGiK.s:3356   .text:00001300 LSM303AGR_ACC_W_FIFO_AOL1_on_INT1
     /tmp/ccVYwGiK.s:3426   .text:00001370 LSM303AGR_ACC_R_FIFO_AOL1_on_INT1
     /tmp/ccVYwGiK.s:3476   .text:000013b0 LSM303AGR_ACC_W_FIFO_Click_on_INT1
     /tmp/ccVYwGiK.s:3546   .text:00001420 LSM303AGR_ACC_R_FIFO_Click_on_INT1
     /tmp/ccVYwGiK.s:3596   .text:00001460 LSM303AGR_ACC_W_SPI_mode
     /tmp/ccVYwGiK.s:3666   .text:000014d0 LSM303AGR_ACC_R_SPI_mode
     /tmp/ccVYwGiK.s:3716   .text:00001510 LSM303AGR_ACC_W_SelfTest
     /tmp/ccVYwGiK.s:3786   .text:00001580 LSM303AGR_ACC_R_SelfTest
     /tmp/ccVYwGiK.s:3836   .text:000015c0 LSM303AGR_ACC_W_HiRes
     /tmp/ccVYwGiK.s:3956   .text:00001670 LSM303AGR_ACC_W_LittleBigEndian
     /tmp/ccVYwGiK.s:4026   .text:000016e0 LSM303AGR_ACC_R_LittleBigEndian
     /tmp/ccVYwGiK.s:4076   .text:00001720 LSM303AGR_ACC_W_4D_on_INT2
     /tmp/ccVYwGiK.s:4146   .text:00001790 LSM303AGR_ACC_R_4D_on_INT2
     /tmp/ccVYwGiK.s:4196   .text:000017d0 LSM303AGR_ACC_W_LatchInterrupt_on_INT2
     /tmp/ccVYwGiK.s:4266   .text:00001840 LSM303AGR_ACC_R_LatchInterrupt_on_INT2
     /tmp/ccVYwGiK.s:4316   .text:00001880 LSM303AGR_ACC_W_4D_on_INT1
     /tmp/ccVYwGiK.s:4386   .text:000018f0 LSM303AGR_ACC_R_4D_on_INT1
     /tmp/ccVYwGiK.s:4436   .text:00001930 LSM303AGR_ACC_W_LatchInterrupt_on_INT1
     /tmp/ccVYwGiK.s:4506   .text:000019a0 LSM303AGR_ACC_R_LatchInterrupt_on_INT1
     /tmp/ccVYwGiK.s:4556   .text:000019e0 LSM303AGR_ACC_W_FIFO_EN
     /tmp/ccVYwGiK.s:4626   .text:00001a50 LSM303AGR_ACC_R_FIFO_EN
     /tmp/ccVYwGiK.s:4676   .text:00001a90 LSM303AGR_ACC_W_RebootMemory
     /tmp/ccVYwGiK.s:4746   .text:00001b00 LSM303AGR_ACC_R_RebootMemory
     /tmp/ccVYwGiK.s:4796   .text:00001b40 LSM303AGR_ACC_W_IntActive
     /tmp/ccVYwGiK.s:4866   .text:00001bb0 LSM303AGR_ACC_R_IntActive
     /tmp/ccVYwGiK.s:4916   .text:00001bf0 LSM303AGR_ACC_W_P2_ACT
     /tmp/ccVYwGiK.s:4986   .text:00001c60 LSM303AGR_ACC_R_P2_ACT
     /tmp/ccVYwGiK.s:5036   .text:00001ca0 LSM303AGR_ACC_W_Boot_on_INT2
     /tmp/ccVYwGiK.s:5106   .text:00001d10 LSM303AGR_ACC_R_Boot_on_INT2
     /tmp/ccVYwGiK.s:5156   .text:00001d50 LSM303AGR_ACC_W_I2_on_INT2
     /tmp/ccVYwGiK.s:5226   .text:00001dc0 LSM303AGR_ACC_R_I2_on_INT2
     /tmp/ccVYwGiK.s:5276   .text:00001e00 LSM303AGR_ACC_W_I2_on_INT1
     /tmp/ccVYwGiK.s:5346   .text:00001e70 LSM303AGR_ACC_R_I2_on_INT1
     /tmp/ccVYwGiK.s:5396   .text:00001eb0 LSM303AGR_ACC_W_Click_on_INT2
     /tmp/ccVYwGiK.s:5466   .text:00001f20 LSM303AGR_ACC_R_Click_on_INT2
     /tmp/ccVYwGiK.s:5516   .text:00001f60 LSM303AGR_ACC_W_ReferenceVal
     /tmp/ccVYwGiK.s:5584   .text:00001fc0 LSM303AGR_ACC_R_ReferenceVal
     /tmp/ccVYwGiK.s:5637   .text:00002000 LSM303AGR_ACC_R_XDataAvail
     /tmp/ccVYwGiK.s:5687   .text:00002040 LSM303AGR_ACC_R_YDataAvail
     /tmp/ccVYwGiK.s:5737   .text:00002080 LSM303AGR_ACC_R_ZDataAvail
     /tmp/ccVYwGiK.s:5787   .text:000020c0 LSM303AGR_ACC_R_XYZDataAvail
     /tmp/ccVYwGiK.s:5837   .text:00002100 LSM303AGR_ACC_R_XDataOverrun
     /tmp/ccVYwGiK.s:5887   .text:00002140 LSM303AGR_ACC_R_YDataOverrun
     /tmp/ccVYwGiK.s:5937   .text:00002180 LSM303AGR_ACC_R_ZDataOverrun
     /tmp/ccVYwGiK.s:5987   .text:000021c0 LSM303AGR_ACC_R_XYZDataOverrun
     /tmp/ccVYwGiK.s:6037   .text:00002200 LSM303AGR_ACC_W_FifoThreshold
     /tmp/ccVYwGiK.s:6111   .text:00002280 LSM303AGR_ACC_R_FifoThreshold
     /tmp/ccVYwGiK.s:6166   .text:000022c0 LSM303AGR_ACC_W_TriggerSel
     /tmp/ccVYwGiK.s:6236   .text:00002330 LSM303AGR_ACC_R_TriggerSel
     /tmp/ccVYwGiK.s:6286   .text:00002370 LSM303AGR_ACC_W_FifoMode
     /tmp/ccVYwGiK.s:6356   .text:000023e0 LSM303AGR_ACC_R_FifoMode
     /tmp/ccVYwGiK.s:6406   .text:00002420 LSM303AGR_ACC_R_FifoSamplesAvail
ARM GAS  /tmp/ccVYwGiK.s 			page 403


     /tmp/ccVYwGiK.s:6461   .text:00002460 LSM303AGR_ACC_R_FifoEmpty
     /tmp/ccVYwGiK.s:6511   .text:000024a0 LSM303AGR_ACC_R_FifoOverrun
     /tmp/ccVYwGiK.s:6561   .text:000024e0 LSM303AGR_ACC_R_WatermarkLevel
     /tmp/ccVYwGiK.s:6611   .text:00002520 LSM303AGR_ACC_W_Int1EnXLo
     /tmp/ccVYwGiK.s:6681   .text:00002590 LSM303AGR_ACC_R_Int1EnXLo
     /tmp/ccVYwGiK.s:6731   .text:000025d0 LSM303AGR_ACC_W_Int1EnXHi
     /tmp/ccVYwGiK.s:6801   .text:00002640 LSM303AGR_ACC_R_Int1EnXHi
     /tmp/ccVYwGiK.s:6851   .text:00002680 LSM303AGR_ACC_W_Int1EnYLo
     /tmp/ccVYwGiK.s:6921   .text:000026f0 LSM303AGR_ACC_R_Int1EnYLo
     /tmp/ccVYwGiK.s:6971   .text:00002730 LSM303AGR_ACC_W_Int1EnYHi
     /tmp/ccVYwGiK.s:7041   .text:000027a0 LSM303AGR_ACC_R_Int1EnYHi
     /tmp/ccVYwGiK.s:7091   .text:000027e0 LSM303AGR_ACC_W_Int1EnZLo
     /tmp/ccVYwGiK.s:7161   .text:00002850 LSM303AGR_ACC_R_Int1EnZLo
     /tmp/ccVYwGiK.s:7211   .text:00002890 LSM303AGR_ACC_W_Int1EnZHi
     /tmp/ccVYwGiK.s:7281   .text:00002900 LSM303AGR_ACC_R_Int1EnZHi
     /tmp/ccVYwGiK.s:7331   .text:00002940 LSM303AGR_ACC_W_Int1_6D
     /tmp/ccVYwGiK.s:7401   .text:000029b0 LSM303AGR_ACC_R_Int1_6D
     /tmp/ccVYwGiK.s:7451   .text:000029f0 LSM303AGR_ACC_W_Int1_AOI
     /tmp/ccVYwGiK.s:7521   .text:00002a60 LSM303AGR_ACC_R_Int1_AOI
     /tmp/ccVYwGiK.s:7571   .text:00002aa0 LSM303AGR_ACC_W_Int2EnXLo
     /tmp/ccVYwGiK.s:7641   .text:00002b10 LSM303AGR_ACC_R_Int2EnXLo
     /tmp/ccVYwGiK.s:7691   .text:00002b50 LSM303AGR_ACC_W_Int2EnXHi
     /tmp/ccVYwGiK.s:7761   .text:00002bc0 LSM303AGR_ACC_R_Int2EnXHi
     /tmp/ccVYwGiK.s:7811   .text:00002c00 LSM303AGR_ACC_W_Int2EnYLo
     /tmp/ccVYwGiK.s:7881   .text:00002c70 LSM303AGR_ACC_R_Int2EnYLo
     /tmp/ccVYwGiK.s:7931   .text:00002cb0 LSM303AGR_ACC_W_Int2EnYHi
     /tmp/ccVYwGiK.s:8001   .text:00002d20 LSM303AGR_ACC_R_Int2EnYHi
     /tmp/ccVYwGiK.s:8051   .text:00002d60 LSM303AGR_ACC_W_Int2EnZLo
     /tmp/ccVYwGiK.s:8121   .text:00002dd0 LSM303AGR_ACC_R_Int2EnZLo
     /tmp/ccVYwGiK.s:8171   .text:00002e10 LSM303AGR_ACC_W_Int2EnZHi
     /tmp/ccVYwGiK.s:8241   .text:00002e80 LSM303AGR_ACC_R_Int2EnZHi
     /tmp/ccVYwGiK.s:8291   .text:00002ec0 LSM303AGR_ACC_W_Int2_6D
     /tmp/ccVYwGiK.s:8361   .text:00002f30 LSM303AGR_ACC_R_Int2_6D
     /tmp/ccVYwGiK.s:8411   .text:00002f70 LSM303AGR_ACC_W_Int2_AOI
     /tmp/ccVYwGiK.s:8481   .text:00002fe0 LSM303AGR_ACC_R_Int2_AOI
     /tmp/ccVYwGiK.s:8531   .text:00003020 LSM303AGR_ACC_R_Int1_Xlo
     /tmp/ccVYwGiK.s:8581   .text:00003060 LSM303AGR_ACC_R_Int1_XHi
     /tmp/ccVYwGiK.s:8631   .text:000030a0 LSM303AGR_ACC_R_Int1_YLo
     /tmp/ccVYwGiK.s:8681   .text:000030e0 LSM303AGR_ACC_R_Int1_YHi
     /tmp/ccVYwGiK.s:8731   .text:00003120 LSM303AGR_ACC_R_Int1_Zlo
     /tmp/ccVYwGiK.s:8781   .text:00003160 LSM303AGR_ACC_R_Int1_ZHi
     /tmp/ccVYwGiK.s:8831   .text:000031a0 LSM303AGR_ACC_R_Int1_IA
     /tmp/ccVYwGiK.s:8881   .text:000031e0 LSM303AGR_ACC_R_Int2_Xlo
     /tmp/ccVYwGiK.s:8931   .text:00003220 LSM303AGR_ACC_R_Int2_XHi
     /tmp/ccVYwGiK.s:8981   .text:00003260 LSM303AGR_ACC_R_Int2_YLo
     /tmp/ccVYwGiK.s:9031   .text:000032a0 LSM303AGR_ACC_R_Int2_YHi
     /tmp/ccVYwGiK.s:9081   .text:000032e0 LSM303AGR_ACC_R_Int2_Zlo
     /tmp/ccVYwGiK.s:9131   .text:00003320 LSM303AGR_ACC_R_Int2_ZHi
     /tmp/ccVYwGiK.s:9181   .text:00003360 LSM303AGR_ACC_R_Int2_IA
     /tmp/ccVYwGiK.s:9231   .text:000033a0 LSM303AGR_ACC_W_Int1_Threshold
     /tmp/ccVYwGiK.s:9305   .text:00003420 LSM303AGR_ACC_R_Int1_Threshold
     /tmp/ccVYwGiK.s:9360   .text:00003460 LSM303AGR_ACC_W_Int2_Threshold
     /tmp/ccVYwGiK.s:9434   .text:000034e0 LSM303AGR_ACC_R_Int2_Threshold
     /tmp/ccVYwGiK.s:9489   .text:00003520 LSM303AGR_ACC_W_Int1_Duration
     /tmp/ccVYwGiK.s:9563   .text:000035a0 LSM303AGR_ACC_R_Int1_Duration
     /tmp/ccVYwGiK.s:9618   .text:000035e0 LSM303AGR_ACC_W_Int2_Duration
     /tmp/ccVYwGiK.s:9692   .text:00003660 LSM303AGR_ACC_R_Int2_Duration
ARM GAS  /tmp/ccVYwGiK.s 			page 404


     /tmp/ccVYwGiK.s:9747   .text:000036a0 LSM303AGR_ACC_W_XSingle
     /tmp/ccVYwGiK.s:9817   .text:00003710 LSM303AGR_ACC_R_XSingle
     /tmp/ccVYwGiK.s:9867   .text:00003750 LSM303AGR_ACC_W_XDouble
     /tmp/ccVYwGiK.s:9937   .text:000037c0 LSM303AGR_ACC_R_XDouble
     /tmp/ccVYwGiK.s:9987   .text:00003800 LSM303AGR_ACC_W_YSingle
     /tmp/ccVYwGiK.s:10057  .text:00003870 LSM303AGR_ACC_R_YSingle
     /tmp/ccVYwGiK.s:10107  .text:000038b0 LSM303AGR_ACC_W_YDouble
     /tmp/ccVYwGiK.s:10177  .text:00003920 LSM303AGR_ACC_R_YDouble
     /tmp/ccVYwGiK.s:10227  .text:00003960 LSM303AGR_ACC_W_ZSingle
     /tmp/ccVYwGiK.s:10297  .text:000039d0 LSM303AGR_ACC_R_ZSingle
     /tmp/ccVYwGiK.s:10347  .text:00003a10 LSM303AGR_ACC_W_ZDouble
     /tmp/ccVYwGiK.s:10417  .text:00003a80 LSM303AGR_ACC_R_ZDouble
     /tmp/ccVYwGiK.s:10467  .text:00003ac0 LSM303AGR_ACC_R_ClickX
     /tmp/ccVYwGiK.s:10517  .text:00003b00 LSM303AGR_ACC_R_ClickY
     /tmp/ccVYwGiK.s:10567  .text:00003b40 LSM303AGR_ACC_R_ClickZ
     /tmp/ccVYwGiK.s:10617  .text:00003b80 LSM303AGR_ACC_R_ClickSign
     /tmp/ccVYwGiK.s:10667  .text:00003bc0 LSM303AGR_ACC_R_SingleCLICK
     /tmp/ccVYwGiK.s:10717  .text:00003c00 LSM303AGR_ACC_R_DoubleCLICK
     /tmp/ccVYwGiK.s:10767  .text:00003c40 LSM303AGR_ACC_R_CLICK_IA
     /tmp/ccVYwGiK.s:10817  .text:00003c80 LSM303AGR_ACC_W_ClickThreshold
     /tmp/ccVYwGiK.s:10891  .text:00003d00 LSM303AGR_ACC_R_ClickThreshold
     /tmp/ccVYwGiK.s:10946  .text:00003d40 LSM303AGR_ACC_W_ClickTimeLimit
     /tmp/ccVYwGiK.s:11020  .text:00003dc0 LSM303AGR_ACC_R_ClickTimeLimit
     /tmp/ccVYwGiK.s:11075  .text:00003e00 LSM303AGR_ACC_W_ClickTimeLatency
     /tmp/ccVYwGiK.s:11143  .text:00003e60 LSM303AGR_ACC_R_ClickTimeLatency
     /tmp/ccVYwGiK.s:11196  .text:00003ea0 LSM303AGR_ACC_W_ClickTimeWindow
     /tmp/ccVYwGiK.s:11264  .text:00003f00 LSM303AGR_ACC_R_ClickTimeWindow
     /tmp/ccVYwGiK.s:11317  .text:00003f40 LSM303AGR_ACC_Get_Voltage_ADC
                     .debug_frame:00000010 $d

UNDEFINED SYMBOLS
Sensor_IO_Write
Sensor_IO_Read
__aeabi_ldivmod
