ARM GAS  /tmp/ccNUhamC.s 			page 1


   1              		.syntax unified
   2              		.cpu cortex-m4
   3              		.fpu softvfp
   4              		.eabi_attribute 20, 1
   5              		.eabi_attribute 21, 1
   6              		.eabi_attribute 23, 3
   7              		.eabi_attribute 24, 1
   8              		.eabi_attribute 25, 1
   9              		.eabi_attribute 26, 1
  10              		.eabi_attribute 30, 6
  11              		.eabi_attribute 34, 1
  12              		.eabi_attribute 18, 4
  13              		.thumb
  14              		.file	"LSM303AGR_MAG_driver.c"
  15              		.text
  16              	.Ltext0:
  17              		.cfi_sections	.debug_frame
  18              		.align	2
  19              		.p2align 4,,15
  20              		.global	LSM303AGR_MAG_WriteReg
  21              		.thumb
  22              		.thumb_func
  23              		.type	LSM303AGR_MAG_WriteReg, %function
  24              	LSM303AGR_MAG_WriteReg:
  25              	.LFB0:
  26              		.file 1 "../../../../../Drivers/BSP/Components/lsm303agr/LSM303AGR_MAG_driver.c"
  27              		.loc 1 67 0
  28              		.cfi_startproc
  29              		@ args = 0, pretend = 0, frame = 16
  30              		@ frame_needed = 0, uses_anonymous_args = 0
  31 0000 00B5     		push	{lr}
  32              		.cfi_def_cfa_offset 4
  33              		.cfi_offset 14, -4
  34 0002 85B0     		sub	sp, sp, #20
  35              		.cfi_def_cfa_offset 24
  36 0004 0390     		str	r0, [sp, #12]
  37 0006 0192     		str	r2, [sp, #4]
  38 0008 0A46     		mov	r2, r1
  39 000a 8DF80B20 		strb	r2, [sp, #11]
  40 000e ADF80830 		strh	r3, [sp, #8]	@ movhi
  41              		.loc 1 69 0
  42 0012 9DF80B20 		ldrb	r2, [sp, #11]	@ zero_extendqisi2
  43 0016 BDF80830 		ldrh	r3, [sp, #8]
  44 001a 0398     		ldr	r0, [sp, #12]
  45 001c 1146     		mov	r1, r2
  46 001e 019A     		ldr	r2, [sp, #4]
  47 0020 FFF7FEFF 		bl	Sensor_IO_Write
  48 0024 0346     		mov	r3, r0
  49 0026 002B     		cmp	r3, #0
  50 0028 01D0     		beq	.L2
  51              		.loc 1 71 0
  52 002a 0023     		movs	r3, #0
  53 002c 00E0     		b	.L3
  54              	.L2:
  55              		.loc 1 75 0
  56 002e 0123     		movs	r3, #1
  57              	.L3:
ARM GAS  /tmp/ccNUhamC.s 			page 2


  58              		.loc 1 77 0
  59 0030 1846     		mov	r0, r3
  60 0032 05B0     		add	sp, sp, #20
  61              		@ sp needed
  62 0034 5DF804FB 		ldr	pc, [sp], #4
  63              		.cfi_endproc
  64              	.LFE0:
  65              		.size	LSM303AGR_MAG_WriteReg, .-LSM303AGR_MAG_WriteReg
  66              		.align	2
  67 0038 AFF30080 		.p2align 4,,15
  67      AFF30080 
  68              		.global	LSM303AGR_MAG_ReadReg
  69              		.thumb
  70              		.thumb_func
  71              		.type	LSM303AGR_MAG_ReadReg, %function
  72              	LSM303AGR_MAG_ReadReg:
  73              	.LFB1:
  74              		.loc 1 89 0
  75              		.cfi_startproc
  76              		@ args = 0, pretend = 0, frame = 16
  77              		@ frame_needed = 0, uses_anonymous_args = 0
  78 0040 00B5     		push	{lr}
  79              		.cfi_def_cfa_offset 4
  80              		.cfi_offset 14, -4
  81 0042 85B0     		sub	sp, sp, #20
  82              		.cfi_def_cfa_offset 24
  83 0044 0390     		str	r0, [sp, #12]
  84 0046 0192     		str	r2, [sp, #4]
  85 0048 0A46     		mov	r2, r1
  86 004a 8DF80B20 		strb	r2, [sp, #11]
  87 004e ADF80830 		strh	r3, [sp, #8]	@ movhi
  88              		.loc 1 91 0
  89 0052 9DF80B20 		ldrb	r2, [sp, #11]	@ zero_extendqisi2
  90 0056 BDF80830 		ldrh	r3, [sp, #8]
  91 005a 0398     		ldr	r0, [sp, #12]
  92 005c 1146     		mov	r1, r2
  93 005e 019A     		ldr	r2, [sp, #4]
  94 0060 FFF7FEFF 		bl	Sensor_IO_Read
  95 0064 0346     		mov	r3, r0
  96 0066 002B     		cmp	r3, #0
  97 0068 01D0     		beq	.L5
  98              		.loc 1 93 0
  99 006a 0023     		movs	r3, #0
 100 006c 00E0     		b	.L6
 101              	.L5:
 102              		.loc 1 97 0
 103 006e 0123     		movs	r3, #1
 104              	.L6:
 105              		.loc 1 99 0
 106 0070 1846     		mov	r0, r3
 107 0072 05B0     		add	sp, sp, #20
 108              		@ sp needed
 109 0074 5DF804FB 		ldr	pc, [sp], #4
 110              		.cfi_endproc
 111              	.LFE1:
 112              		.size	LSM303AGR_MAG_ReadReg, .-LSM303AGR_MAG_ReadReg
 113              		.align	2
ARM GAS  /tmp/ccNUhamC.s 			page 3


 114 0078 AFF30080 		.p2align 4,,15
 114      AFF30080 
 115              		.global	LSM303AGR_MAG_R_WHO_AM_I
 116              		.thumb
 117              		.thumb_func
 118              		.type	LSM303AGR_MAG_R_WHO_AM_I, %function
 119              	LSM303AGR_MAG_R_WHO_AM_I:
 120              	.LFB2:
 121              		.loc 1 111 0
 122              		.cfi_startproc
 123              		@ args = 0, pretend = 0, frame = 8
 124              		@ frame_needed = 0, uses_anonymous_args = 0
 125 0080 00B5     		push	{lr}
 126              		.cfi_def_cfa_offset 4
 127              		.cfi_offset 14, -4
 128 0082 83B0     		sub	sp, sp, #12
 129              		.cfi_def_cfa_offset 16
 130 0084 0190     		str	r0, [sp, #4]
 131 0086 0091     		str	r1, [sp]
 132              		.loc 1 112 0
 133 0088 0198     		ldr	r0, [sp, #4]
 134 008a 4F21     		movs	r1, #79
 135 008c 009A     		ldr	r2, [sp]
 136 008e 0123     		movs	r3, #1
 137 0090 FFF7FEFF 		bl	LSM303AGR_MAG_ReadReg
 138 0094 0346     		mov	r3, r0
 139 0096 002B     		cmp	r3, #0
 140 0098 01D1     		bne	.L8
 141              		.loc 1 113 0
 142 009a 0023     		movs	r3, #0
 143 009c 08E0     		b	.L9
 144              	.L8:
 145              		.loc 1 115 0
 146 009e 009B     		ldr	r3, [sp]
 147 00a0 1A78     		ldrb	r2, [r3]	@ zero_extendqisi2
 148 00a2 009B     		ldr	r3, [sp]
 149 00a4 1A70     		strb	r2, [r3]
 150              		.loc 1 116 0
 151 00a6 009B     		ldr	r3, [sp]
 152 00a8 1A78     		ldrb	r2, [r3]	@ zero_extendqisi2
 153 00aa 009B     		ldr	r3, [sp]
 154 00ac 1A70     		strb	r2, [r3]
 155              		.loc 1 118 0
 156 00ae 0123     		movs	r3, #1
 157              	.L9:
 158              		.loc 1 119 0
 159 00b0 1846     		mov	r0, r3
 160 00b2 03B0     		add	sp, sp, #12
 161              		@ sp needed
 162 00b4 5DF804FB 		ldr	pc, [sp], #4
 163              		.cfi_endproc
 164              	.LFE2:
 165              		.size	LSM303AGR_MAG_R_WHO_AM_I, .-LSM303AGR_MAG_R_WHO_AM_I
 166              		.align	2
 167 00b8 AFF30080 		.p2align 4,,15
 167      AFF30080 
 168              		.global	LSM303AGR_MAG_W_BDU
ARM GAS  /tmp/ccNUhamC.s 			page 4


 169              		.thumb
 170              		.thumb_func
 171              		.type	LSM303AGR_MAG_W_BDU, %function
 172              	LSM303AGR_MAG_W_BDU:
 173              	.LFB3:
 174              		.loc 1 129 0
 175              		.cfi_startproc
 176              		@ args = 0, pretend = 0, frame = 16
 177              		@ frame_needed = 0, uses_anonymous_args = 0
 178 00c0 00B5     		push	{lr}
 179              		.cfi_def_cfa_offset 4
 180              		.cfi_offset 14, -4
 181 00c2 85B0     		sub	sp, sp, #20
 182              		.cfi_def_cfa_offset 24
 183 00c4 0190     		str	r0, [sp, #4]
 184 00c6 0B46     		mov	r3, r1
 185 00c8 8DF80330 		strb	r3, [sp, #3]
 186              		.loc 1 132 0
 187 00cc 0DF10F03 		add	r3, sp, #15
 188 00d0 0198     		ldr	r0, [sp, #4]
 189 00d2 6221     		movs	r1, #98
 190 00d4 1A46     		mov	r2, r3
 191 00d6 0123     		movs	r3, #1
 192 00d8 FFF7FEFF 		bl	LSM303AGR_MAG_ReadReg
 193 00dc 0346     		mov	r3, r0
 194 00de 002B     		cmp	r3, #0
 195 00e0 01D1     		bne	.L11
 196              		.loc 1 133 0
 197 00e2 0023     		movs	r3, #0
 198 00e4 1CE0     		b	.L14
 199              	.L11:
 200              		.loc 1 135 0
 201 00e6 9DF80F30 		ldrb	r3, [sp, #15]	@ zero_extendqisi2
 202 00ea 23F01003 		bic	r3, r3, #16
 203 00ee DBB2     		uxtb	r3, r3
 204 00f0 8DF80F30 		strb	r3, [sp, #15]
 205              		.loc 1 136 0
 206 00f4 9DF80F20 		ldrb	r2, [sp, #15]	@ zero_extendqisi2
 207 00f8 9DF80330 		ldrb	r3, [sp, #3]
 208 00fc 1343     		orrs	r3, r3, r2
 209 00fe DBB2     		uxtb	r3, r3
 210 0100 8DF80F30 		strb	r3, [sp, #15]
 211              		.loc 1 138 0
 212 0104 0DF10F03 		add	r3, sp, #15
 213 0108 0198     		ldr	r0, [sp, #4]
 214 010a 6221     		movs	r1, #98
 215 010c 1A46     		mov	r2, r3
 216 010e 0123     		movs	r3, #1
 217 0110 FFF7FEFF 		bl	LSM303AGR_MAG_WriteReg
 218 0114 0346     		mov	r3, r0
 219 0116 002B     		cmp	r3, #0
 220 0118 01D1     		bne	.L13
 221              		.loc 1 139 0
 222 011a 0023     		movs	r3, #0
 223 011c 00E0     		b	.L14
 224              	.L13:
 225              		.loc 1 141 0
ARM GAS  /tmp/ccNUhamC.s 			page 5


 226 011e 0123     		movs	r3, #1
 227              	.L14:
 228              		.loc 1 142 0
 229 0120 1846     		mov	r0, r3
 230 0122 05B0     		add	sp, sp, #20
 231              		@ sp needed
 232 0124 5DF804FB 		ldr	pc, [sp], #4
 233              		.cfi_endproc
 234              	.LFE3:
 235              		.size	LSM303AGR_MAG_W_BDU, .-LSM303AGR_MAG_W_BDU
 236              		.align	2
 237 0128 AFF30080 		.p2align 4,,15
 237      AFF30080 
 238              		.global	LSM303AGR_MAG_R_BDU
 239              		.thumb
 240              		.thumb_func
 241              		.type	LSM303AGR_MAG_R_BDU, %function
 242              	LSM303AGR_MAG_R_BDU:
 243              	.LFB4:
 244              		.loc 1 152 0
 245              		.cfi_startproc
 246              		@ args = 0, pretend = 0, frame = 8
 247              		@ frame_needed = 0, uses_anonymous_args = 0
 248 0130 00B5     		push	{lr}
 249              		.cfi_def_cfa_offset 4
 250              		.cfi_offset 14, -4
 251 0132 83B0     		sub	sp, sp, #12
 252              		.cfi_def_cfa_offset 16
 253 0134 0190     		str	r0, [sp, #4]
 254 0136 0091     		str	r1, [sp]
 255              		.loc 1 153 0
 256 0138 0198     		ldr	r0, [sp, #4]
 257 013a 6221     		movs	r1, #98
 258 013c 009A     		ldr	r2, [sp]
 259 013e 0123     		movs	r3, #1
 260 0140 FFF7FEFF 		bl	LSM303AGR_MAG_ReadReg
 261 0144 0346     		mov	r3, r0
 262 0146 002B     		cmp	r3, #0
 263 0148 01D1     		bne	.L16
 264              		.loc 1 154 0
 265 014a 0023     		movs	r3, #0
 266 014c 07E0     		b	.L17
 267              	.L16:
 268              		.loc 1 156 0
 269 014e 009B     		ldr	r3, [sp]
 270 0150 1B78     		ldrb	r3, [r3]	@ zero_extendqisi2
 271 0152 03F01003 		and	r3, r3, #16
 272 0156 DAB2     		uxtb	r2, r3
 273 0158 009B     		ldr	r3, [sp]
 274 015a 1A70     		strb	r2, [r3]
 275              		.loc 1 158 0
 276 015c 0123     		movs	r3, #1
 277              	.L17:
 278              		.loc 1 159 0
 279 015e 1846     		mov	r0, r3
 280 0160 03B0     		add	sp, sp, #12
 281              		@ sp needed
ARM GAS  /tmp/ccNUhamC.s 			page 6


 282 0162 5DF804FB 		ldr	pc, [sp], #4
 283              		.cfi_endproc
 284              	.LFE4:
 285              		.size	LSM303AGR_MAG_R_BDU, .-LSM303AGR_MAG_R_BDU
 286 0166 00BF     		.align	2
 287 0168 AFF30080 		.p2align 4,,15
 287      AFF30080 
 288              		.global	LSM303AGR_MAG_W_MD
 289              		.thumb
 290              		.thumb_func
 291              		.type	LSM303AGR_MAG_W_MD, %function
 292              	LSM303AGR_MAG_W_MD:
 293              	.LFB5:
 294              		.loc 1 169 0
 295              		.cfi_startproc
 296              		@ args = 0, pretend = 0, frame = 16
 297              		@ frame_needed = 0, uses_anonymous_args = 0
 298 0170 00B5     		push	{lr}
 299              		.cfi_def_cfa_offset 4
 300              		.cfi_offset 14, -4
 301 0172 85B0     		sub	sp, sp, #20
 302              		.cfi_def_cfa_offset 24
 303 0174 0190     		str	r0, [sp, #4]
 304 0176 0B46     		mov	r3, r1
 305 0178 8DF80330 		strb	r3, [sp, #3]
 306              		.loc 1 172 0
 307 017c 0DF10F03 		add	r3, sp, #15
 308 0180 0198     		ldr	r0, [sp, #4]
 309 0182 6021     		movs	r1, #96
 310 0184 1A46     		mov	r2, r3
 311 0186 0123     		movs	r3, #1
 312 0188 FFF7FEFF 		bl	LSM303AGR_MAG_ReadReg
 313 018c 0346     		mov	r3, r0
 314 018e 002B     		cmp	r3, #0
 315 0190 01D1     		bne	.L19
 316              		.loc 1 173 0
 317 0192 0023     		movs	r3, #0
 318 0194 1CE0     		b	.L22
 319              	.L19:
 320              		.loc 1 175 0
 321 0196 9DF80F30 		ldrb	r3, [sp, #15]	@ zero_extendqisi2
 322 019a 23F00303 		bic	r3, r3, #3
 323 019e DBB2     		uxtb	r3, r3
 324 01a0 8DF80F30 		strb	r3, [sp, #15]
 325              		.loc 1 176 0
 326 01a4 9DF80F20 		ldrb	r2, [sp, #15]	@ zero_extendqisi2
 327 01a8 9DF80330 		ldrb	r3, [sp, #3]
 328 01ac 1343     		orrs	r3, r3, r2
 329 01ae DBB2     		uxtb	r3, r3
 330 01b0 8DF80F30 		strb	r3, [sp, #15]
 331              		.loc 1 178 0
 332 01b4 0DF10F03 		add	r3, sp, #15
 333 01b8 0198     		ldr	r0, [sp, #4]
 334 01ba 6021     		movs	r1, #96
 335 01bc 1A46     		mov	r2, r3
 336 01be 0123     		movs	r3, #1
 337 01c0 FFF7FEFF 		bl	LSM303AGR_MAG_WriteReg
ARM GAS  /tmp/ccNUhamC.s 			page 7


 338 01c4 0346     		mov	r3, r0
 339 01c6 002B     		cmp	r3, #0
 340 01c8 01D1     		bne	.L21
 341              		.loc 1 179 0
 342 01ca 0023     		movs	r3, #0
 343 01cc 00E0     		b	.L22
 344              	.L21:
 345              		.loc 1 181 0
 346 01ce 0123     		movs	r3, #1
 347              	.L22:
 348              		.loc 1 182 0
 349 01d0 1846     		mov	r0, r3
 350 01d2 05B0     		add	sp, sp, #20
 351              		@ sp needed
 352 01d4 5DF804FB 		ldr	pc, [sp], #4
 353              		.cfi_endproc
 354              	.LFE5:
 355              		.size	LSM303AGR_MAG_W_MD, .-LSM303AGR_MAG_W_MD
 356              		.align	2
 357 01d8 AFF30080 		.p2align 4,,15
 357      AFF30080 
 358              		.global	LSM303AGR_MAG_R_MD
 359              		.thumb
 360              		.thumb_func
 361              		.type	LSM303AGR_MAG_R_MD, %function
 362              	LSM303AGR_MAG_R_MD:
 363              	.LFB6:
 364              		.loc 1 192 0
 365              		.cfi_startproc
 366              		@ args = 0, pretend = 0, frame = 8
 367              		@ frame_needed = 0, uses_anonymous_args = 0
 368 01e0 00B5     		push	{lr}
 369              		.cfi_def_cfa_offset 4
 370              		.cfi_offset 14, -4
 371 01e2 83B0     		sub	sp, sp, #12
 372              		.cfi_def_cfa_offset 16
 373 01e4 0190     		str	r0, [sp, #4]
 374 01e6 0091     		str	r1, [sp]
 375              		.loc 1 193 0
 376 01e8 0198     		ldr	r0, [sp, #4]
 377 01ea 6021     		movs	r1, #96
 378 01ec 009A     		ldr	r2, [sp]
 379 01ee 0123     		movs	r3, #1
 380 01f0 FFF7FEFF 		bl	LSM303AGR_MAG_ReadReg
 381 01f4 0346     		mov	r3, r0
 382 01f6 002B     		cmp	r3, #0
 383 01f8 01D1     		bne	.L24
 384              		.loc 1 194 0
 385 01fa 0023     		movs	r3, #0
 386 01fc 07E0     		b	.L25
 387              	.L24:
 388              		.loc 1 196 0
 389 01fe 009B     		ldr	r3, [sp]
 390 0200 1B78     		ldrb	r3, [r3]	@ zero_extendqisi2
 391 0202 03F00303 		and	r3, r3, #3
 392 0206 DAB2     		uxtb	r2, r3
 393 0208 009B     		ldr	r3, [sp]
ARM GAS  /tmp/ccNUhamC.s 			page 8


 394 020a 1A70     		strb	r2, [r3]
 395              		.loc 1 198 0
 396 020c 0123     		movs	r3, #1
 397              	.L25:
 398              		.loc 1 199 0
 399 020e 1846     		mov	r0, r3
 400 0210 03B0     		add	sp, sp, #12
 401              		@ sp needed
 402 0212 5DF804FB 		ldr	pc, [sp], #4
 403              		.cfi_endproc
 404              	.LFE6:
 405              		.size	LSM303AGR_MAG_R_MD, .-LSM303AGR_MAG_R_MD
 406 0216 00BF     		.align	2
 407 0218 AFF30080 		.p2align 4,,15
 407      AFF30080 
 408              		.global	LSM303AGR_MAG_Get_Raw_Magnetic
 409              		.thumb
 410              		.thumb_func
 411              		.type	LSM303AGR_MAG_Get_Raw_Magnetic, %function
 412              	LSM303AGR_MAG_Get_Raw_Magnetic:
 413              	.LFB7:
 414              		.loc 1 209 0
 415              		.cfi_startproc
 416              		@ args = 0, pretend = 0, frame = 8
 417              		@ frame_needed = 0, uses_anonymous_args = 0
 418 0220 00B5     		push	{lr}
 419              		.cfi_def_cfa_offset 4
 420              		.cfi_offset 14, -4
 421 0222 83B0     		sub	sp, sp, #12
 422              		.cfi_def_cfa_offset 16
 423 0224 0190     		str	r0, [sp, #4]
 424 0226 0091     		str	r1, [sp]
 425              		.loc 1 210 0
 426 0228 0198     		ldr	r0, [sp, #4]
 427 022a 6821     		movs	r1, #104
 428 022c 009A     		ldr	r2, [sp]
 429 022e 0623     		movs	r3, #6
 430 0230 FFF7FEFF 		bl	LSM303AGR_MAG_ReadReg
 431 0234 0346     		mov	r3, r0
 432 0236 002B     		cmp	r3, #0
 433 0238 01D1     		bne	.L27
 434              		.loc 1 211 0
 435 023a 0023     		movs	r3, #0
 436 023c 00E0     		b	.L28
 437              	.L27:
 438              		.loc 1 213 0
 439 023e 0123     		movs	r3, #1
 440              	.L28:
 441              		.loc 1 214 0
 442 0240 1846     		mov	r0, r3
 443 0242 03B0     		add	sp, sp, #12
 444              		@ sp needed
 445 0244 5DF804FB 		ldr	pc, [sp], #4
 446              		.cfi_endproc
 447              	.LFE7:
 448              		.size	LSM303AGR_MAG_Get_Raw_Magnetic, .-LSM303AGR_MAG_Get_Raw_Magnetic
 449              		.align	2
ARM GAS  /tmp/ccNUhamC.s 			page 9


 450 0248 AFF30080 		.p2align 4,,15
 450      AFF30080 
 451              		.global	LSM303AGR_MAG_Get_Magnetic
 452              		.thumb
 453              		.thumb_func
 454              		.type	LSM303AGR_MAG_Get_Magnetic, %function
 455              	LSM303AGR_MAG_Get_Magnetic:
 456              	.LFB8:
 457              		.loc 1 225 0
 458              		.cfi_startproc
 459              		@ args = 0, pretend = 0, frame = 16
 460              		@ frame_needed = 0, uses_anonymous_args = 0
 461 0250 00B5     		push	{lr}
 462              		.cfi_def_cfa_offset 4
 463              		.cfi_offset 14, -4
 464 0252 85B0     		sub	sp, sp, #20
 465              		.cfi_def_cfa_offset 24
 466 0254 0190     		str	r0, [sp, #4]
 467 0256 0091     		str	r1, [sp]
 468              		.loc 1 229 0
 469 0258 02AB     		add	r3, sp, #8
 470 025a 0198     		ldr	r0, [sp, #4]
 471 025c 1946     		mov	r1, r3
 472 025e FFF7FEFF 		bl	LSM303AGR_MAG_Get_Raw_Magnetic
 473              		.loc 1 232 0
 474 0262 BDF80830 		ldrh	r3, [sp, #8]
 475 0266 1AB2     		sxth	r2, r3
 476 0268 1346     		mov	r3, r2
 477 026a 1B01     		lsls	r3, r3, #4
 478 026c 9B1A     		subs	r3, r3, r2
 479 026e 164A     		ldr	r2, .L31
 480 0270 82FB0302 		smull	r0, r2, r2, r3
 481 0274 9210     		asrs	r2, r2, #2
 482 0276 DB17     		asrs	r3, r3, #31
 483 0278 D21A     		subs	r2, r2, r3
 484 027a 009B     		ldr	r3, [sp]
 485 027c 1A60     		str	r2, [r3]
 486              		.loc 1 233 0
 487 027e 009B     		ldr	r3, [sp]
 488 0280 191D     		adds	r1, r3, #4
 489 0282 BDF80A30 		ldrh	r3, [sp, #10]
 490 0286 1AB2     		sxth	r2, r3
 491 0288 1346     		mov	r3, r2
 492 028a 1B01     		lsls	r3, r3, #4
 493 028c 9B1A     		subs	r3, r3, r2
 494 028e 0E4A     		ldr	r2, .L31
 495 0290 82FB0302 		smull	r0, r2, r2, r3
 496 0294 9210     		asrs	r2, r2, #2
 497 0296 DB17     		asrs	r3, r3, #31
 498 0298 D31A     		subs	r3, r2, r3
 499 029a 0B60     		str	r3, [r1]
 500              		.loc 1 234 0
 501 029c 009B     		ldr	r3, [sp]
 502 029e 03F10801 		add	r1, r3, #8
 503 02a2 BDF80C30 		ldrh	r3, [sp, #12]
 504 02a6 1AB2     		sxth	r2, r3
 505 02a8 1346     		mov	r3, r2
ARM GAS  /tmp/ccNUhamC.s 			page 10


 506 02aa 1B01     		lsls	r3, r3, #4
 507 02ac 9B1A     		subs	r3, r3, r2
 508 02ae 064A     		ldr	r2, .L31
 509 02b0 82FB0302 		smull	r0, r2, r2, r3
 510 02b4 9210     		asrs	r2, r2, #2
 511 02b6 DB17     		asrs	r3, r3, #31
 512 02b8 D31A     		subs	r3, r2, r3
 513 02ba 0B60     		str	r3, [r1]
 514              		.loc 1 236 0
 515 02bc 0123     		movs	r3, #1
 516              		.loc 1 237 0
 517 02be 1846     		mov	r0, r3
 518 02c0 05B0     		add	sp, sp, #20
 519              		@ sp needed
 520 02c2 5DF804FB 		ldr	pc, [sp], #4
 521              	.L32:
 522 02c6 00BF     		.align	2
 523              	.L31:
 524 02c8 67666666 		.word	1717986919
 525              		.cfi_endproc
 526              	.LFE8:
 527              		.size	LSM303AGR_MAG_Get_Magnetic, .-LSM303AGR_MAG_Get_Magnetic
 528              		.align	2
 529 02cc AFF30080 		.p2align 4,,15
 530              		.global	LSM303AGR_MAG_W_ODR
 531              		.thumb
 532              		.thumb_func
 533              		.type	LSM303AGR_MAG_W_ODR, %function
 534              	LSM303AGR_MAG_W_ODR:
 535              	.LFB9:
 536              		.loc 1 247 0
 537              		.cfi_startproc
 538              		@ args = 0, pretend = 0, frame = 16
 539              		@ frame_needed = 0, uses_anonymous_args = 0
 540 02d0 00B5     		push	{lr}
 541              		.cfi_def_cfa_offset 4
 542              		.cfi_offset 14, -4
 543 02d2 85B0     		sub	sp, sp, #20
 544              		.cfi_def_cfa_offset 24
 545 02d4 0190     		str	r0, [sp, #4]
 546 02d6 0B46     		mov	r3, r1
 547 02d8 8DF80330 		strb	r3, [sp, #3]
 548              		.loc 1 250 0
 549 02dc 0DF10F03 		add	r3, sp, #15
 550 02e0 0198     		ldr	r0, [sp, #4]
 551 02e2 6021     		movs	r1, #96
 552 02e4 1A46     		mov	r2, r3
 553 02e6 0123     		movs	r3, #1
 554 02e8 FFF7FEFF 		bl	LSM303AGR_MAG_ReadReg
 555 02ec 0346     		mov	r3, r0
 556 02ee 002B     		cmp	r3, #0
 557 02f0 01D1     		bne	.L34
 558              		.loc 1 251 0
 559 02f2 0023     		movs	r3, #0
 560 02f4 1CE0     		b	.L37
 561              	.L34:
 562              		.loc 1 253 0
ARM GAS  /tmp/ccNUhamC.s 			page 11


 563 02f6 9DF80F30 		ldrb	r3, [sp, #15]	@ zero_extendqisi2
 564 02fa 23F00C03 		bic	r3, r3, #12
 565 02fe DBB2     		uxtb	r3, r3
 566 0300 8DF80F30 		strb	r3, [sp, #15]
 567              		.loc 1 254 0
 568 0304 9DF80F20 		ldrb	r2, [sp, #15]	@ zero_extendqisi2
 569 0308 9DF80330 		ldrb	r3, [sp, #3]
 570 030c 1343     		orrs	r3, r3, r2
 571 030e DBB2     		uxtb	r3, r3
 572 0310 8DF80F30 		strb	r3, [sp, #15]
 573              		.loc 1 256 0
 574 0314 0DF10F03 		add	r3, sp, #15
 575 0318 0198     		ldr	r0, [sp, #4]
 576 031a 6021     		movs	r1, #96
 577 031c 1A46     		mov	r2, r3
 578 031e 0123     		movs	r3, #1
 579 0320 FFF7FEFF 		bl	LSM303AGR_MAG_WriteReg
 580 0324 0346     		mov	r3, r0
 581 0326 002B     		cmp	r3, #0
 582 0328 01D1     		bne	.L36
 583              		.loc 1 257 0
 584 032a 0023     		movs	r3, #0
 585 032c 00E0     		b	.L37
 586              	.L36:
 587              		.loc 1 259 0
 588 032e 0123     		movs	r3, #1
 589              	.L37:
 590              		.loc 1 260 0
 591 0330 1846     		mov	r0, r3
 592 0332 05B0     		add	sp, sp, #20
 593              		@ sp needed
 594 0334 5DF804FB 		ldr	pc, [sp], #4
 595              		.cfi_endproc
 596              	.LFE9:
 597              		.size	LSM303AGR_MAG_W_ODR, .-LSM303AGR_MAG_W_ODR
 598              		.align	2
 599 0338 AFF30080 		.p2align 4,,15
 599      AFF30080 
 600              		.global	LSM303AGR_MAG_R_ODR
 601              		.thumb
 602              		.thumb_func
 603              		.type	LSM303AGR_MAG_R_ODR, %function
 604              	LSM303AGR_MAG_R_ODR:
 605              	.LFB10:
 606              		.loc 1 270 0
 607              		.cfi_startproc
 608              		@ args = 0, pretend = 0, frame = 8
 609              		@ frame_needed = 0, uses_anonymous_args = 0
 610 0340 00B5     		push	{lr}
 611              		.cfi_def_cfa_offset 4
 612              		.cfi_offset 14, -4
 613 0342 83B0     		sub	sp, sp, #12
 614              		.cfi_def_cfa_offset 16
 615 0344 0190     		str	r0, [sp, #4]
 616 0346 0091     		str	r1, [sp]
 617              		.loc 1 271 0
 618 0348 0198     		ldr	r0, [sp, #4]
ARM GAS  /tmp/ccNUhamC.s 			page 12


 619 034a 6021     		movs	r1, #96
 620 034c 009A     		ldr	r2, [sp]
 621 034e 0123     		movs	r3, #1
 622 0350 FFF7FEFF 		bl	LSM303AGR_MAG_ReadReg
 623 0354 0346     		mov	r3, r0
 624 0356 002B     		cmp	r3, #0
 625 0358 01D1     		bne	.L39
 626              		.loc 1 272 0
 627 035a 0023     		movs	r3, #0
 628 035c 07E0     		b	.L40
 629              	.L39:
 630              		.loc 1 274 0
 631 035e 009B     		ldr	r3, [sp]
 632 0360 1B78     		ldrb	r3, [r3]	@ zero_extendqisi2
 633 0362 03F00C03 		and	r3, r3, #12
 634 0366 DAB2     		uxtb	r2, r3
 635 0368 009B     		ldr	r3, [sp]
 636 036a 1A70     		strb	r2, [r3]
 637              		.loc 1 276 0
 638 036c 0123     		movs	r3, #1
 639              	.L40:
 640              		.loc 1 277 0
 641 036e 1846     		mov	r0, r3
 642 0370 03B0     		add	sp, sp, #12
 643              		@ sp needed
 644 0372 5DF804FB 		ldr	pc, [sp], #4
 645              		.cfi_endproc
 646              	.LFE10:
 647              		.size	LSM303AGR_MAG_R_ODR, .-LSM303AGR_MAG_R_ODR
 648 0376 00BF     		.align	2
 649 0378 AFF30080 		.p2align 4,,15
 649      AFF30080 
 650              		.global	LSM303AGR_MAG_W_OFF_X_L
 651              		.thumb
 652              		.thumb_func
 653              		.type	LSM303AGR_MAG_W_OFF_X_L, %function
 654              	LSM303AGR_MAG_W_OFF_X_L:
 655              	.LFB11:
 656              		.loc 1 289 0
 657              		.cfi_startproc
 658              		@ args = 0, pretend = 0, frame = 16
 659              		@ frame_needed = 0, uses_anonymous_args = 0
 660 0380 00B5     		push	{lr}
 661              		.cfi_def_cfa_offset 4
 662              		.cfi_offset 14, -4
 663 0382 85B0     		sub	sp, sp, #20
 664              		.cfi_def_cfa_offset 24
 665 0384 0190     		str	r0, [sp, #4]
 666 0386 0B46     		mov	r3, r1
 667 0388 8DF80330 		strb	r3, [sp, #3]
 668              		.loc 1 295 0
 669 038c 0DF10F03 		add	r3, sp, #15
 670 0390 0198     		ldr	r0, [sp, #4]
 671 0392 4521     		movs	r1, #69
 672 0394 1A46     		mov	r2, r3
 673 0396 0123     		movs	r3, #1
 674 0398 FFF7FEFF 		bl	LSM303AGR_MAG_ReadReg
ARM GAS  /tmp/ccNUhamC.s 			page 13


 675 039c 0346     		mov	r3, r0
 676 039e 002B     		cmp	r3, #0
 677 03a0 01D1     		bne	.L42
 678              		.loc 1 296 0
 679 03a2 0023     		movs	r3, #0
 680 03a4 18E0     		b	.L45
 681              	.L42:
 682              		.loc 1 298 0
 683 03a6 0023     		movs	r3, #0
 684 03a8 8DF80F30 		strb	r3, [sp, #15]
 685              		.loc 1 299 0
 686 03ac 9DF80F20 		ldrb	r2, [sp, #15]	@ zero_extendqisi2
 687 03b0 9DF80330 		ldrb	r3, [sp, #3]
 688 03b4 1343     		orrs	r3, r3, r2
 689 03b6 DBB2     		uxtb	r3, r3
 690 03b8 8DF80F30 		strb	r3, [sp, #15]
 691              		.loc 1 301 0
 692 03bc 0DF10F03 		add	r3, sp, #15
 693 03c0 0198     		ldr	r0, [sp, #4]
 694 03c2 4521     		movs	r1, #69
 695 03c4 1A46     		mov	r2, r3
 696 03c6 0123     		movs	r3, #1
 697 03c8 FFF7FEFF 		bl	LSM303AGR_MAG_WriteReg
 698 03cc 0346     		mov	r3, r0
 699 03ce 002B     		cmp	r3, #0
 700 03d0 01D1     		bne	.L44
 701              		.loc 1 302 0
 702 03d2 0023     		movs	r3, #0
 703 03d4 00E0     		b	.L45
 704              	.L44:
 705              		.loc 1 304 0
 706 03d6 0123     		movs	r3, #1
 707              	.L45:
 708              		.loc 1 305 0
 709 03d8 1846     		mov	r0, r3
 710 03da 05B0     		add	sp, sp, #20
 711              		@ sp needed
 712 03dc 5DF804FB 		ldr	pc, [sp], #4
 713              		.cfi_endproc
 714              	.LFE11:
 715              		.size	LSM303AGR_MAG_W_OFF_X_L, .-LSM303AGR_MAG_W_OFF_X_L
 716              		.align	2
 717              		.p2align 4,,15
 718              		.global	LSM303AGR_MAG_R_OFF_X_L
 719              		.thumb
 720              		.thumb_func
 721              		.type	LSM303AGR_MAG_R_OFF_X_L, %function
 722              	LSM303AGR_MAG_R_OFF_X_L:
 723              	.LFB12:
 724              		.loc 1 315 0
 725              		.cfi_startproc
 726              		@ args = 0, pretend = 0, frame = 8
 727              		@ frame_needed = 0, uses_anonymous_args = 0
 728 03e0 00B5     		push	{lr}
 729              		.cfi_def_cfa_offset 4
 730              		.cfi_offset 14, -4
 731 03e2 83B0     		sub	sp, sp, #12
ARM GAS  /tmp/ccNUhamC.s 			page 14


 732              		.cfi_def_cfa_offset 16
 733 03e4 0190     		str	r0, [sp, #4]
 734 03e6 0091     		str	r1, [sp]
 735              		.loc 1 316 0
 736 03e8 0198     		ldr	r0, [sp, #4]
 737 03ea 4521     		movs	r1, #69
 738 03ec 009A     		ldr	r2, [sp]
 739 03ee 0123     		movs	r3, #1
 740 03f0 FFF7FEFF 		bl	LSM303AGR_MAG_ReadReg
 741 03f4 0346     		mov	r3, r0
 742 03f6 002B     		cmp	r3, #0
 743 03f8 01D1     		bne	.L47
 744              		.loc 1 317 0
 745 03fa 0023     		movs	r3, #0
 746 03fc 08E0     		b	.L48
 747              	.L47:
 748              		.loc 1 319 0
 749 03fe 009B     		ldr	r3, [sp]
 750 0400 1A78     		ldrb	r2, [r3]	@ zero_extendqisi2
 751 0402 009B     		ldr	r3, [sp]
 752 0404 1A70     		strb	r2, [r3]
 753              		.loc 1 320 0
 754 0406 009B     		ldr	r3, [sp]
 755 0408 1A78     		ldrb	r2, [r3]	@ zero_extendqisi2
 756 040a 009B     		ldr	r3, [sp]
 757 040c 1A70     		strb	r2, [r3]
 758              		.loc 1 322 0
 759 040e 0123     		movs	r3, #1
 760              	.L48:
 761              		.loc 1 323 0
 762 0410 1846     		mov	r0, r3
 763 0412 03B0     		add	sp, sp, #12
 764              		@ sp needed
 765 0414 5DF804FB 		ldr	pc, [sp], #4
 766              		.cfi_endproc
 767              	.LFE12:
 768              		.size	LSM303AGR_MAG_R_OFF_X_L, .-LSM303AGR_MAG_R_OFF_X_L
 769              		.align	2
 770 0418 AFF30080 		.p2align 4,,15
 770      AFF30080 
 771              		.global	LSM303AGR_MAG_W_OFF_X_H
 772              		.thumb
 773              		.thumb_func
 774              		.type	LSM303AGR_MAG_W_OFF_X_H, %function
 775              	LSM303AGR_MAG_W_OFF_X_H:
 776              	.LFB13:
 777              		.loc 1 333 0
 778              		.cfi_startproc
 779              		@ args = 0, pretend = 0, frame = 16
 780              		@ frame_needed = 0, uses_anonymous_args = 0
 781 0420 00B5     		push	{lr}
 782              		.cfi_def_cfa_offset 4
 783              		.cfi_offset 14, -4
 784 0422 85B0     		sub	sp, sp, #20
 785              		.cfi_def_cfa_offset 24
 786 0424 0190     		str	r0, [sp, #4]
 787 0426 0B46     		mov	r3, r1
ARM GAS  /tmp/ccNUhamC.s 			page 15


 788 0428 8DF80330 		strb	r3, [sp, #3]
 789              		.loc 1 339 0
 790 042c 0DF10F03 		add	r3, sp, #15
 791 0430 0198     		ldr	r0, [sp, #4]
 792 0432 4621     		movs	r1, #70
 793 0434 1A46     		mov	r2, r3
 794 0436 0123     		movs	r3, #1
 795 0438 FFF7FEFF 		bl	LSM303AGR_MAG_ReadReg
 796 043c 0346     		mov	r3, r0
 797 043e 002B     		cmp	r3, #0
 798 0440 01D1     		bne	.L50
 799              		.loc 1 340 0
 800 0442 0023     		movs	r3, #0
 801 0444 18E0     		b	.L53
 802              	.L50:
 803              		.loc 1 342 0
 804 0446 0023     		movs	r3, #0
 805 0448 8DF80F30 		strb	r3, [sp, #15]
 806              		.loc 1 343 0
 807 044c 9DF80F20 		ldrb	r2, [sp, #15]	@ zero_extendqisi2
 808 0450 9DF80330 		ldrb	r3, [sp, #3]
 809 0454 1343     		orrs	r3, r3, r2
 810 0456 DBB2     		uxtb	r3, r3
 811 0458 8DF80F30 		strb	r3, [sp, #15]
 812              		.loc 1 345 0
 813 045c 0DF10F03 		add	r3, sp, #15
 814 0460 0198     		ldr	r0, [sp, #4]
 815 0462 4621     		movs	r1, #70
 816 0464 1A46     		mov	r2, r3
 817 0466 0123     		movs	r3, #1
 818 0468 FFF7FEFF 		bl	LSM303AGR_MAG_WriteReg
 819 046c 0346     		mov	r3, r0
 820 046e 002B     		cmp	r3, #0
 821 0470 01D1     		bne	.L52
 822              		.loc 1 346 0
 823 0472 0023     		movs	r3, #0
 824 0474 00E0     		b	.L53
 825              	.L52:
 826              		.loc 1 348 0
 827 0476 0123     		movs	r3, #1
 828              	.L53:
 829              		.loc 1 349 0
 830 0478 1846     		mov	r0, r3
 831 047a 05B0     		add	sp, sp, #20
 832              		@ sp needed
 833 047c 5DF804FB 		ldr	pc, [sp], #4
 834              		.cfi_endproc
 835              	.LFE13:
 836              		.size	LSM303AGR_MAG_W_OFF_X_H, .-LSM303AGR_MAG_W_OFF_X_H
 837              		.align	2
 838              		.p2align 4,,15
 839              		.global	LSM303AGR_MAG_R_OFF_X_H
 840              		.thumb
 841              		.thumb_func
 842              		.type	LSM303AGR_MAG_R_OFF_X_H, %function
 843              	LSM303AGR_MAG_R_OFF_X_H:
 844              	.LFB14:
ARM GAS  /tmp/ccNUhamC.s 			page 16


 845              		.loc 1 359 0
 846              		.cfi_startproc
 847              		@ args = 0, pretend = 0, frame = 8
 848              		@ frame_needed = 0, uses_anonymous_args = 0
 849 0480 00B5     		push	{lr}
 850              		.cfi_def_cfa_offset 4
 851              		.cfi_offset 14, -4
 852 0482 83B0     		sub	sp, sp, #12
 853              		.cfi_def_cfa_offset 16
 854 0484 0190     		str	r0, [sp, #4]
 855 0486 0091     		str	r1, [sp]
 856              		.loc 1 360 0
 857 0488 0198     		ldr	r0, [sp, #4]
 858 048a 4621     		movs	r1, #70
 859 048c 009A     		ldr	r2, [sp]
 860 048e 0123     		movs	r3, #1
 861 0490 FFF7FEFF 		bl	LSM303AGR_MAG_ReadReg
 862 0494 0346     		mov	r3, r0
 863 0496 002B     		cmp	r3, #0
 864 0498 01D1     		bne	.L55
 865              		.loc 1 361 0
 866 049a 0023     		movs	r3, #0
 867 049c 08E0     		b	.L56
 868              	.L55:
 869              		.loc 1 363 0
 870 049e 009B     		ldr	r3, [sp]
 871 04a0 1A78     		ldrb	r2, [r3]	@ zero_extendqisi2
 872 04a2 009B     		ldr	r3, [sp]
 873 04a4 1A70     		strb	r2, [r3]
 874              		.loc 1 364 0
 875 04a6 009B     		ldr	r3, [sp]
 876 04a8 1A78     		ldrb	r2, [r3]	@ zero_extendqisi2
 877 04aa 009B     		ldr	r3, [sp]
 878 04ac 1A70     		strb	r2, [r3]
 879              		.loc 1 366 0
 880 04ae 0123     		movs	r3, #1
 881              	.L56:
 882              		.loc 1 367 0
 883 04b0 1846     		mov	r0, r3
 884 04b2 03B0     		add	sp, sp, #12
 885              		@ sp needed
 886 04b4 5DF804FB 		ldr	pc, [sp], #4
 887              		.cfi_endproc
 888              	.LFE14:
 889              		.size	LSM303AGR_MAG_R_OFF_X_H, .-LSM303AGR_MAG_R_OFF_X_H
 890              		.align	2
 891 04b8 AFF30080 		.p2align 4,,15
 891      AFF30080 
 892              		.global	LSM303AGR_MAG_W_OFF_Y_L
 893              		.thumb
 894              		.thumb_func
 895              		.type	LSM303AGR_MAG_W_OFF_Y_L, %function
 896              	LSM303AGR_MAG_W_OFF_Y_L:
 897              	.LFB15:
 898              		.loc 1 377 0
 899              		.cfi_startproc
 900              		@ args = 0, pretend = 0, frame = 16
ARM GAS  /tmp/ccNUhamC.s 			page 17


 901              		@ frame_needed = 0, uses_anonymous_args = 0
 902 04c0 00B5     		push	{lr}
 903              		.cfi_def_cfa_offset 4
 904              		.cfi_offset 14, -4
 905 04c2 85B0     		sub	sp, sp, #20
 906              		.cfi_def_cfa_offset 24
 907 04c4 0190     		str	r0, [sp, #4]
 908 04c6 0B46     		mov	r3, r1
 909 04c8 8DF80330 		strb	r3, [sp, #3]
 910              		.loc 1 383 0
 911 04cc 0DF10F03 		add	r3, sp, #15
 912 04d0 0198     		ldr	r0, [sp, #4]
 913 04d2 4721     		movs	r1, #71
 914 04d4 1A46     		mov	r2, r3
 915 04d6 0123     		movs	r3, #1
 916 04d8 FFF7FEFF 		bl	LSM303AGR_MAG_ReadReg
 917 04dc 0346     		mov	r3, r0
 918 04de 002B     		cmp	r3, #0
 919 04e0 01D1     		bne	.L58
 920              		.loc 1 384 0
 921 04e2 0023     		movs	r3, #0
 922 04e4 18E0     		b	.L61
 923              	.L58:
 924              		.loc 1 386 0
 925 04e6 0023     		movs	r3, #0
 926 04e8 8DF80F30 		strb	r3, [sp, #15]
 927              		.loc 1 387 0
 928 04ec 9DF80F20 		ldrb	r2, [sp, #15]	@ zero_extendqisi2
 929 04f0 9DF80330 		ldrb	r3, [sp, #3]
 930 04f4 1343     		orrs	r3, r3, r2
 931 04f6 DBB2     		uxtb	r3, r3
 932 04f8 8DF80F30 		strb	r3, [sp, #15]
 933              		.loc 1 389 0
 934 04fc 0DF10F03 		add	r3, sp, #15
 935 0500 0198     		ldr	r0, [sp, #4]
 936 0502 4721     		movs	r1, #71
 937 0504 1A46     		mov	r2, r3
 938 0506 0123     		movs	r3, #1
 939 0508 FFF7FEFF 		bl	LSM303AGR_MAG_WriteReg
 940 050c 0346     		mov	r3, r0
 941 050e 002B     		cmp	r3, #0
 942 0510 01D1     		bne	.L60
 943              		.loc 1 390 0
 944 0512 0023     		movs	r3, #0
 945 0514 00E0     		b	.L61
 946              	.L60:
 947              		.loc 1 392 0
 948 0516 0123     		movs	r3, #1
 949              	.L61:
 950              		.loc 1 393 0
 951 0518 1846     		mov	r0, r3
 952 051a 05B0     		add	sp, sp, #20
 953              		@ sp needed
 954 051c 5DF804FB 		ldr	pc, [sp], #4
 955              		.cfi_endproc
 956              	.LFE15:
 957              		.size	LSM303AGR_MAG_W_OFF_Y_L, .-LSM303AGR_MAG_W_OFF_Y_L
ARM GAS  /tmp/ccNUhamC.s 			page 18


 958              		.align	2
 959              		.p2align 4,,15
 960              		.global	LSM303AGR_MAG_R_OFF_Y_L
 961              		.thumb
 962              		.thumb_func
 963              		.type	LSM303AGR_MAG_R_OFF_Y_L, %function
 964              	LSM303AGR_MAG_R_OFF_Y_L:
 965              	.LFB16:
 966              		.loc 1 403 0
 967              		.cfi_startproc
 968              		@ args = 0, pretend = 0, frame = 8
 969              		@ frame_needed = 0, uses_anonymous_args = 0
 970 0520 00B5     		push	{lr}
 971              		.cfi_def_cfa_offset 4
 972              		.cfi_offset 14, -4
 973 0522 83B0     		sub	sp, sp, #12
 974              		.cfi_def_cfa_offset 16
 975 0524 0190     		str	r0, [sp, #4]
 976 0526 0091     		str	r1, [sp]
 977              		.loc 1 404 0
 978 0528 0198     		ldr	r0, [sp, #4]
 979 052a 4721     		movs	r1, #71
 980 052c 009A     		ldr	r2, [sp]
 981 052e 0123     		movs	r3, #1
 982 0530 FFF7FEFF 		bl	LSM303AGR_MAG_ReadReg
 983 0534 0346     		mov	r3, r0
 984 0536 002B     		cmp	r3, #0
 985 0538 01D1     		bne	.L63
 986              		.loc 1 405 0
 987 053a 0023     		movs	r3, #0
 988 053c 08E0     		b	.L64
 989              	.L63:
 990              		.loc 1 407 0
 991 053e 009B     		ldr	r3, [sp]
 992 0540 1A78     		ldrb	r2, [r3]	@ zero_extendqisi2
 993 0542 009B     		ldr	r3, [sp]
 994 0544 1A70     		strb	r2, [r3]
 995              		.loc 1 408 0
 996 0546 009B     		ldr	r3, [sp]
 997 0548 1A78     		ldrb	r2, [r3]	@ zero_extendqisi2
 998 054a 009B     		ldr	r3, [sp]
 999 054c 1A70     		strb	r2, [r3]
 1000              		.loc 1 410 0
 1001 054e 0123     		movs	r3, #1
 1002              	.L64:
 1003              		.loc 1 411 0
 1004 0550 1846     		mov	r0, r3
 1005 0552 03B0     		add	sp, sp, #12
 1006              		@ sp needed
 1007 0554 5DF804FB 		ldr	pc, [sp], #4
 1008              		.cfi_endproc
 1009              	.LFE16:
 1010              		.size	LSM303AGR_MAG_R_OFF_Y_L, .-LSM303AGR_MAG_R_OFF_Y_L
 1011              		.align	2
 1012 0558 AFF30080 		.p2align 4,,15
 1012      AFF30080 
 1013              		.global	LSM303AGR_MAG_W_OFF_Y_H
ARM GAS  /tmp/ccNUhamC.s 			page 19


 1014              		.thumb
 1015              		.thumb_func
 1016              		.type	LSM303AGR_MAG_W_OFF_Y_H, %function
 1017              	LSM303AGR_MAG_W_OFF_Y_H:
 1018              	.LFB17:
 1019              		.loc 1 421 0
 1020              		.cfi_startproc
 1021              		@ args = 0, pretend = 0, frame = 16
 1022              		@ frame_needed = 0, uses_anonymous_args = 0
 1023 0560 00B5     		push	{lr}
 1024              		.cfi_def_cfa_offset 4
 1025              		.cfi_offset 14, -4
 1026 0562 85B0     		sub	sp, sp, #20
 1027              		.cfi_def_cfa_offset 24
 1028 0564 0190     		str	r0, [sp, #4]
 1029 0566 0B46     		mov	r3, r1
 1030 0568 8DF80330 		strb	r3, [sp, #3]
 1031              		.loc 1 427 0
 1032 056c 0DF10F03 		add	r3, sp, #15
 1033 0570 0198     		ldr	r0, [sp, #4]
 1034 0572 4821     		movs	r1, #72
 1035 0574 1A46     		mov	r2, r3
 1036 0576 0123     		movs	r3, #1
 1037 0578 FFF7FEFF 		bl	LSM303AGR_MAG_ReadReg
 1038 057c 0346     		mov	r3, r0
 1039 057e 002B     		cmp	r3, #0
 1040 0580 01D1     		bne	.L66
 1041              		.loc 1 428 0
 1042 0582 0023     		movs	r3, #0
 1043 0584 18E0     		b	.L69
 1044              	.L66:
 1045              		.loc 1 430 0
 1046 0586 0023     		movs	r3, #0
 1047 0588 8DF80F30 		strb	r3, [sp, #15]
 1048              		.loc 1 431 0
 1049 058c 9DF80F20 		ldrb	r2, [sp, #15]	@ zero_extendqisi2
 1050 0590 9DF80330 		ldrb	r3, [sp, #3]
 1051 0594 1343     		orrs	r3, r3, r2
 1052 0596 DBB2     		uxtb	r3, r3
 1053 0598 8DF80F30 		strb	r3, [sp, #15]
 1054              		.loc 1 433 0
 1055 059c 0DF10F03 		add	r3, sp, #15
 1056 05a0 0198     		ldr	r0, [sp, #4]
 1057 05a2 4821     		movs	r1, #72
 1058 05a4 1A46     		mov	r2, r3
 1059 05a6 0123     		movs	r3, #1
 1060 05a8 FFF7FEFF 		bl	LSM303AGR_MAG_WriteReg
 1061 05ac 0346     		mov	r3, r0
 1062 05ae 002B     		cmp	r3, #0
 1063 05b0 01D1     		bne	.L68
 1064              		.loc 1 434 0
 1065 05b2 0023     		movs	r3, #0
 1066 05b4 00E0     		b	.L69
 1067              	.L68:
 1068              		.loc 1 436 0
 1069 05b6 0123     		movs	r3, #1
 1070              	.L69:
ARM GAS  /tmp/ccNUhamC.s 			page 20


 1071              		.loc 1 437 0
 1072 05b8 1846     		mov	r0, r3
 1073 05ba 05B0     		add	sp, sp, #20
 1074              		@ sp needed
 1075 05bc 5DF804FB 		ldr	pc, [sp], #4
 1076              		.cfi_endproc
 1077              	.LFE17:
 1078              		.size	LSM303AGR_MAG_W_OFF_Y_H, .-LSM303AGR_MAG_W_OFF_Y_H
 1079              		.align	2
 1080              		.p2align 4,,15
 1081              		.global	LSM303AGR_MAG_R_OFF_Y_H
 1082              		.thumb
 1083              		.thumb_func
 1084              		.type	LSM303AGR_MAG_R_OFF_Y_H, %function
 1085              	LSM303AGR_MAG_R_OFF_Y_H:
 1086              	.LFB18:
 1087              		.loc 1 447 0
 1088              		.cfi_startproc
 1089              		@ args = 0, pretend = 0, frame = 8
 1090              		@ frame_needed = 0, uses_anonymous_args = 0
 1091 05c0 00B5     		push	{lr}
 1092              		.cfi_def_cfa_offset 4
 1093              		.cfi_offset 14, -4
 1094 05c2 83B0     		sub	sp, sp, #12
 1095              		.cfi_def_cfa_offset 16
 1096 05c4 0190     		str	r0, [sp, #4]
 1097 05c6 0091     		str	r1, [sp]
 1098              		.loc 1 448 0
 1099 05c8 0198     		ldr	r0, [sp, #4]
 1100 05ca 4821     		movs	r1, #72
 1101 05cc 009A     		ldr	r2, [sp]
 1102 05ce 0123     		movs	r3, #1
 1103 05d0 FFF7FEFF 		bl	LSM303AGR_MAG_ReadReg
 1104 05d4 0346     		mov	r3, r0
 1105 05d6 002B     		cmp	r3, #0
 1106 05d8 01D1     		bne	.L71
 1107              		.loc 1 449 0
 1108 05da 0023     		movs	r3, #0
 1109 05dc 08E0     		b	.L72
 1110              	.L71:
 1111              		.loc 1 451 0
 1112 05de 009B     		ldr	r3, [sp]
 1113 05e0 1A78     		ldrb	r2, [r3]	@ zero_extendqisi2
 1114 05e2 009B     		ldr	r3, [sp]
 1115 05e4 1A70     		strb	r2, [r3]
 1116              		.loc 1 452 0
 1117 05e6 009B     		ldr	r3, [sp]
 1118 05e8 1A78     		ldrb	r2, [r3]	@ zero_extendqisi2
 1119 05ea 009B     		ldr	r3, [sp]
 1120 05ec 1A70     		strb	r2, [r3]
 1121              		.loc 1 454 0
 1122 05ee 0123     		movs	r3, #1
 1123              	.L72:
 1124              		.loc 1 455 0
 1125 05f0 1846     		mov	r0, r3
 1126 05f2 03B0     		add	sp, sp, #12
 1127              		@ sp needed
ARM GAS  /tmp/ccNUhamC.s 			page 21


 1128 05f4 5DF804FB 		ldr	pc, [sp], #4
 1129              		.cfi_endproc
 1130              	.LFE18:
 1131              		.size	LSM303AGR_MAG_R_OFF_Y_H, .-LSM303AGR_MAG_R_OFF_Y_H
 1132              		.align	2
 1133 05f8 AFF30080 		.p2align 4,,15
 1133      AFF30080 
 1134              		.global	LSM303AGR_MAG_W_OFF_Z_L
 1135              		.thumb
 1136              		.thumb_func
 1137              		.type	LSM303AGR_MAG_W_OFF_Z_L, %function
 1138              	LSM303AGR_MAG_W_OFF_Z_L:
 1139              	.LFB19:
 1140              		.loc 1 465 0
 1141              		.cfi_startproc
 1142              		@ args = 0, pretend = 0, frame = 16
 1143              		@ frame_needed = 0, uses_anonymous_args = 0
 1144 0600 00B5     		push	{lr}
 1145              		.cfi_def_cfa_offset 4
 1146              		.cfi_offset 14, -4
 1147 0602 85B0     		sub	sp, sp, #20
 1148              		.cfi_def_cfa_offset 24
 1149 0604 0190     		str	r0, [sp, #4]
 1150 0606 0B46     		mov	r3, r1
 1151 0608 8DF80330 		strb	r3, [sp, #3]
 1152              		.loc 1 471 0
 1153 060c 0DF10F03 		add	r3, sp, #15
 1154 0610 0198     		ldr	r0, [sp, #4]
 1155 0612 4921     		movs	r1, #73
 1156 0614 1A46     		mov	r2, r3
 1157 0616 0123     		movs	r3, #1
 1158 0618 FFF7FEFF 		bl	LSM303AGR_MAG_ReadReg
 1159 061c 0346     		mov	r3, r0
 1160 061e 002B     		cmp	r3, #0
 1161 0620 01D1     		bne	.L74
 1162              		.loc 1 472 0
 1163 0622 0023     		movs	r3, #0
 1164 0624 18E0     		b	.L77
 1165              	.L74:
 1166              		.loc 1 474 0
 1167 0626 0023     		movs	r3, #0
 1168 0628 8DF80F30 		strb	r3, [sp, #15]
 1169              		.loc 1 475 0
 1170 062c 9DF80F20 		ldrb	r2, [sp, #15]	@ zero_extendqisi2
 1171 0630 9DF80330 		ldrb	r3, [sp, #3]
 1172 0634 1343     		orrs	r3, r3, r2
 1173 0636 DBB2     		uxtb	r3, r3
 1174 0638 8DF80F30 		strb	r3, [sp, #15]
 1175              		.loc 1 477 0
 1176 063c 0DF10F03 		add	r3, sp, #15
 1177 0640 0198     		ldr	r0, [sp, #4]
 1178 0642 4921     		movs	r1, #73
 1179 0644 1A46     		mov	r2, r3
 1180 0646 0123     		movs	r3, #1
 1181 0648 FFF7FEFF 		bl	LSM303AGR_MAG_WriteReg
 1182 064c 0346     		mov	r3, r0
 1183 064e 002B     		cmp	r3, #0
ARM GAS  /tmp/ccNUhamC.s 			page 22


 1184 0650 01D1     		bne	.L76
 1185              		.loc 1 478 0
 1186 0652 0023     		movs	r3, #0
 1187 0654 00E0     		b	.L77
 1188              	.L76:
 1189              		.loc 1 480 0
 1190 0656 0123     		movs	r3, #1
 1191              	.L77:
 1192              		.loc 1 481 0
 1193 0658 1846     		mov	r0, r3
 1194 065a 05B0     		add	sp, sp, #20
 1195              		@ sp needed
 1196 065c 5DF804FB 		ldr	pc, [sp], #4
 1197              		.cfi_endproc
 1198              	.LFE19:
 1199              		.size	LSM303AGR_MAG_W_OFF_Z_L, .-LSM303AGR_MAG_W_OFF_Z_L
 1200              		.align	2
 1201              		.p2align 4,,15
 1202              		.global	LSM303AGR_MAG_R_OFF_Z_L
 1203              		.thumb
 1204              		.thumb_func
 1205              		.type	LSM303AGR_MAG_R_OFF_Z_L, %function
 1206              	LSM303AGR_MAG_R_OFF_Z_L:
 1207              	.LFB20:
 1208              		.loc 1 491 0
 1209              		.cfi_startproc
 1210              		@ args = 0, pretend = 0, frame = 8
 1211              		@ frame_needed = 0, uses_anonymous_args = 0
 1212 0660 00B5     		push	{lr}
 1213              		.cfi_def_cfa_offset 4
 1214              		.cfi_offset 14, -4
 1215 0662 83B0     		sub	sp, sp, #12
 1216              		.cfi_def_cfa_offset 16
 1217 0664 0190     		str	r0, [sp, #4]
 1218 0666 0091     		str	r1, [sp]
 1219              		.loc 1 492 0
 1220 0668 0198     		ldr	r0, [sp, #4]
 1221 066a 4921     		movs	r1, #73
 1222 066c 009A     		ldr	r2, [sp]
 1223 066e 0123     		movs	r3, #1
 1224 0670 FFF7FEFF 		bl	LSM303AGR_MAG_ReadReg
 1225 0674 0346     		mov	r3, r0
 1226 0676 002B     		cmp	r3, #0
 1227 0678 01D1     		bne	.L79
 1228              		.loc 1 493 0
 1229 067a 0023     		movs	r3, #0
 1230 067c 08E0     		b	.L80
 1231              	.L79:
 1232              		.loc 1 495 0
 1233 067e 009B     		ldr	r3, [sp]
 1234 0680 1A78     		ldrb	r2, [r3]	@ zero_extendqisi2
 1235 0682 009B     		ldr	r3, [sp]
 1236 0684 1A70     		strb	r2, [r3]
 1237              		.loc 1 496 0
 1238 0686 009B     		ldr	r3, [sp]
 1239 0688 1A78     		ldrb	r2, [r3]	@ zero_extendqisi2
 1240 068a 009B     		ldr	r3, [sp]
ARM GAS  /tmp/ccNUhamC.s 			page 23


 1241 068c 1A70     		strb	r2, [r3]
 1242              		.loc 1 498 0
 1243 068e 0123     		movs	r3, #1
 1244              	.L80:
 1245              		.loc 1 499 0
 1246 0690 1846     		mov	r0, r3
 1247 0692 03B0     		add	sp, sp, #12
 1248              		@ sp needed
 1249 0694 5DF804FB 		ldr	pc, [sp], #4
 1250              		.cfi_endproc
 1251              	.LFE20:
 1252              		.size	LSM303AGR_MAG_R_OFF_Z_L, .-LSM303AGR_MAG_R_OFF_Z_L
 1253              		.align	2
 1254 0698 AFF30080 		.p2align 4,,15
 1254      AFF30080 
 1255              		.global	LSM303AGR_MAG_W_OFF_Z_H
 1256              		.thumb
 1257              		.thumb_func
 1258              		.type	LSM303AGR_MAG_W_OFF_Z_H, %function
 1259              	LSM303AGR_MAG_W_OFF_Z_H:
 1260              	.LFB21:
 1261              		.loc 1 509 0
 1262              		.cfi_startproc
 1263              		@ args = 0, pretend = 0, frame = 16
 1264              		@ frame_needed = 0, uses_anonymous_args = 0
 1265 06a0 00B5     		push	{lr}
 1266              		.cfi_def_cfa_offset 4
 1267              		.cfi_offset 14, -4
 1268 06a2 85B0     		sub	sp, sp, #20
 1269              		.cfi_def_cfa_offset 24
 1270 06a4 0190     		str	r0, [sp, #4]
 1271 06a6 0B46     		mov	r3, r1
 1272 06a8 8DF80330 		strb	r3, [sp, #3]
 1273              		.loc 1 515 0
 1274 06ac 0DF10F03 		add	r3, sp, #15
 1275 06b0 0198     		ldr	r0, [sp, #4]
 1276 06b2 4A21     		movs	r1, #74
 1277 06b4 1A46     		mov	r2, r3
 1278 06b6 0123     		movs	r3, #1
 1279 06b8 FFF7FEFF 		bl	LSM303AGR_MAG_ReadReg
 1280 06bc 0346     		mov	r3, r0
 1281 06be 002B     		cmp	r3, #0
 1282 06c0 01D1     		bne	.L82
 1283              		.loc 1 516 0
 1284 06c2 0023     		movs	r3, #0
 1285 06c4 18E0     		b	.L85
 1286              	.L82:
 1287              		.loc 1 518 0
 1288 06c6 0023     		movs	r3, #0
 1289 06c8 8DF80F30 		strb	r3, [sp, #15]
 1290              		.loc 1 519 0
 1291 06cc 9DF80F20 		ldrb	r2, [sp, #15]	@ zero_extendqisi2
 1292 06d0 9DF80330 		ldrb	r3, [sp, #3]
 1293 06d4 1343     		orrs	r3, r3, r2
 1294 06d6 DBB2     		uxtb	r3, r3
 1295 06d8 8DF80F30 		strb	r3, [sp, #15]
 1296              		.loc 1 521 0
ARM GAS  /tmp/ccNUhamC.s 			page 24


 1297 06dc 0DF10F03 		add	r3, sp, #15
 1298 06e0 0198     		ldr	r0, [sp, #4]
 1299 06e2 4A21     		movs	r1, #74
 1300 06e4 1A46     		mov	r2, r3
 1301 06e6 0123     		movs	r3, #1
 1302 06e8 FFF7FEFF 		bl	LSM303AGR_MAG_WriteReg
 1303 06ec 0346     		mov	r3, r0
 1304 06ee 002B     		cmp	r3, #0
 1305 06f0 01D1     		bne	.L84
 1306              		.loc 1 522 0
 1307 06f2 0023     		movs	r3, #0
 1308 06f4 00E0     		b	.L85
 1309              	.L84:
 1310              		.loc 1 524 0
 1311 06f6 0123     		movs	r3, #1
 1312              	.L85:
 1313              		.loc 1 525 0
 1314 06f8 1846     		mov	r0, r3
 1315 06fa 05B0     		add	sp, sp, #20
 1316              		@ sp needed
 1317 06fc 5DF804FB 		ldr	pc, [sp], #4
 1318              		.cfi_endproc
 1319              	.LFE21:
 1320              		.size	LSM303AGR_MAG_W_OFF_Z_H, .-LSM303AGR_MAG_W_OFF_Z_H
 1321              		.align	2
 1322              		.p2align 4,,15
 1323              		.global	LSM303AGR_MAG_Get_MagOff
 1324              		.thumb
 1325              		.thumb_func
 1326              		.type	LSM303AGR_MAG_Get_MagOff, %function
 1327              	LSM303AGR_MAG_Get_MagOff:
 1328              	.LFB22:
 1329              		.loc 1 535 0
 1330              		.cfi_startproc
 1331              		@ args = 0, pretend = 0, frame = 24
 1332              		@ frame_needed = 0, uses_anonymous_args = 0
 1333 0700 00B5     		push	{lr}
 1334              		.cfi_def_cfa_offset 4
 1335              		.cfi_offset 14, -4
 1336 0702 87B0     		sub	sp, sp, #28
 1337              		.cfi_def_cfa_offset 32
 1338 0704 0390     		str	r0, [sp, #12]
 1339 0706 0291     		str	r1, [sp, #8]
 1340 0708 0192     		str	r2, [sp, #4]
 1341 070a 0093     		str	r3, [sp]
 1342              		.loc 1 539 0
 1343 070c 0DF11703 		add	r3, sp, #23
 1344 0710 0398     		ldr	r0, [sp, #12]
 1345 0712 1946     		mov	r1, r3
 1346 0714 FFF7FEFF 		bl	LSM303AGR_MAG_R_OFF_X_L
 1347              		.loc 1 540 0
 1348 0718 0DF11603 		add	r3, sp, #22
 1349 071c 0398     		ldr	r0, [sp, #12]
 1350 071e 1946     		mov	r1, r3
 1351 0720 FFF7FEFF 		bl	LSM303AGR_MAG_R_OFF_X_H
 1352              		.loc 1 541 0
 1353 0724 9DF81630 		ldrb	r3, [sp, #22]	@ zero_extendqisi2
ARM GAS  /tmp/ccNUhamC.s 			page 25


 1354 0728 1B02     		lsls	r3, r3, #8
 1355 072a 9AB2     		uxth	r2, r3
 1356 072c 9DF81730 		ldrb	r3, [sp, #23]	@ zero_extendqisi2
 1357 0730 1343     		orrs	r3, r3, r2
 1358 0732 9BB2     		uxth	r3, r3
 1359 0734 9AB2     		uxth	r2, r3
 1360 0736 029B     		ldr	r3, [sp, #8]
 1361 0738 1A80     		strh	r2, [r3]	@ movhi
 1362              		.loc 1 544 0
 1363 073a 0DF11703 		add	r3, sp, #23
 1364 073e 0398     		ldr	r0, [sp, #12]
 1365 0740 1946     		mov	r1, r3
 1366 0742 FFF7FEFF 		bl	LSM303AGR_MAG_R_OFF_Y_L
 1367              		.loc 1 545 0
 1368 0746 0DF11603 		add	r3, sp, #22
 1369 074a 0398     		ldr	r0, [sp, #12]
 1370 074c 1946     		mov	r1, r3
 1371 074e FFF7FEFF 		bl	LSM303AGR_MAG_R_OFF_Y_H
 1372              		.loc 1 546 0
 1373 0752 9DF81630 		ldrb	r3, [sp, #22]	@ zero_extendqisi2
 1374 0756 1B02     		lsls	r3, r3, #8
 1375 0758 9AB2     		uxth	r2, r3
 1376 075a 9DF81730 		ldrb	r3, [sp, #23]	@ zero_extendqisi2
 1377 075e 1343     		orrs	r3, r3, r2
 1378 0760 9BB2     		uxth	r3, r3
 1379 0762 9AB2     		uxth	r2, r3
 1380 0764 019B     		ldr	r3, [sp, #4]
 1381 0766 1A80     		strh	r2, [r3]	@ movhi
 1382              		.loc 1 549 0
 1383 0768 0DF11703 		add	r3, sp, #23
 1384 076c 0398     		ldr	r0, [sp, #12]
 1385 076e 1946     		mov	r1, r3
 1386 0770 FFF7FEFF 		bl	LSM303AGR_MAG_R_OFF_Z_L
 1387              		.loc 1 550 0
 1388 0774 0DF11603 		add	r3, sp, #22
 1389 0778 0398     		ldr	r0, [sp, #12]
 1390 077a 1946     		mov	r1, r3
 1391 077c FFF7FEFF 		bl	LSM303AGR_MAG_R_OFF_Z_H
 1392              		.loc 1 551 0
 1393 0780 9DF81630 		ldrb	r3, [sp, #22]	@ zero_extendqisi2
 1394 0784 1B02     		lsls	r3, r3, #8
 1395 0786 9AB2     		uxth	r2, r3
 1396 0788 9DF81730 		ldrb	r3, [sp, #23]	@ zero_extendqisi2
 1397 078c 1343     		orrs	r3, r3, r2
 1398 078e 9BB2     		uxth	r3, r3
 1399 0790 9AB2     		uxth	r2, r3
 1400 0792 009B     		ldr	r3, [sp]
 1401 0794 1A80     		strh	r2, [r3]	@ movhi
 1402              		.loc 1 553 0
 1403 0796 0123     		movs	r3, #1
 1404              		.loc 1 554 0
 1405 0798 1846     		mov	r0, r3
 1406 079a 07B0     		add	sp, sp, #28
 1407              		@ sp needed
 1408 079c 5DF804FB 		ldr	pc, [sp], #4
 1409              		.cfi_endproc
 1410              	.LFE22:
ARM GAS  /tmp/ccNUhamC.s 			page 26


 1411              		.size	LSM303AGR_MAG_Get_MagOff, .-LSM303AGR_MAG_Get_MagOff
 1412              		.align	2
 1413              		.p2align 4,,15
 1414              		.global	LSM303AGR_MAG_Set_MagOff
 1415              		.thumb
 1416              		.thumb_func
 1417              		.type	LSM303AGR_MAG_Set_MagOff, %function
 1418              	LSM303AGR_MAG_Set_MagOff:
 1419              	.LFB23:
 1420              		.loc 1 564 0
 1421              		.cfi_startproc
 1422              		@ args = 0, pretend = 0, frame = 16
 1423              		@ frame_needed = 0, uses_anonymous_args = 0
 1424 07a0 00B5     		push	{lr}
 1425              		.cfi_def_cfa_offset 4
 1426              		.cfi_offset 14, -4
 1427 07a2 85B0     		sub	sp, sp, #20
 1428              		.cfi_def_cfa_offset 24
 1429 07a4 0390     		str	r0, [sp, #12]
 1430 07a6 ADF80A10 		strh	r1, [sp, #10]	@ movhi
 1431 07aa ADF80820 		strh	r2, [sp, #8]	@ movhi
 1432 07ae ADF80630 		strh	r3, [sp, #6]	@ movhi
 1433              		.loc 1 566 0
 1434 07b2 BDF80A30 		ldrh	r3, [sp, #10]	@ movhi
 1435 07b6 DBB2     		uxtb	r3, r3
 1436 07b8 0398     		ldr	r0, [sp, #12]
 1437 07ba 1946     		mov	r1, r3
 1438 07bc FFF7FEFF 		bl	LSM303AGR_MAG_W_OFF_X_L
 1439              		.loc 1 567 0
 1440 07c0 BDF80A30 		ldrh	r3, [sp, #10]
 1441 07c4 1B0A     		lsrs	r3, r3, #8
 1442 07c6 9BB2     		uxth	r3, r3
 1443 07c8 DBB2     		uxtb	r3, r3
 1444 07ca 0398     		ldr	r0, [sp, #12]
 1445 07cc 1946     		mov	r1, r3
 1446 07ce FFF7FEFF 		bl	LSM303AGR_MAG_W_OFF_X_H
 1447              		.loc 1 570 0
 1448 07d2 BDF80830 		ldrh	r3, [sp, #8]	@ movhi
 1449 07d6 DBB2     		uxtb	r3, r3
 1450 07d8 0398     		ldr	r0, [sp, #12]
 1451 07da 1946     		mov	r1, r3
 1452 07dc FFF7FEFF 		bl	LSM303AGR_MAG_W_OFF_Y_L
 1453              		.loc 1 571 0
 1454 07e0 BDF80830 		ldrh	r3, [sp, #8]
 1455 07e4 1B0A     		lsrs	r3, r3, #8
 1456 07e6 9BB2     		uxth	r3, r3
 1457 07e8 DBB2     		uxtb	r3, r3
 1458 07ea 0398     		ldr	r0, [sp, #12]
 1459 07ec 1946     		mov	r1, r3
 1460 07ee FFF7FEFF 		bl	LSM303AGR_MAG_W_OFF_Y_H
 1461              		.loc 1 574 0
 1462 07f2 BDF80630 		ldrh	r3, [sp, #6]	@ movhi
 1463 07f6 DBB2     		uxtb	r3, r3
 1464 07f8 0398     		ldr	r0, [sp, #12]
 1465 07fa 1946     		mov	r1, r3
 1466 07fc FFF7FEFF 		bl	LSM303AGR_MAG_W_OFF_Z_L
 1467              		.loc 1 575 0
ARM GAS  /tmp/ccNUhamC.s 			page 27


 1468 0800 BDF80630 		ldrh	r3, [sp, #6]
 1469 0804 1B0A     		lsrs	r3, r3, #8
 1470 0806 9BB2     		uxth	r3, r3
 1471 0808 DBB2     		uxtb	r3, r3
 1472 080a 0398     		ldr	r0, [sp, #12]
 1473 080c 1946     		mov	r1, r3
 1474 080e FFF7FEFF 		bl	LSM303AGR_MAG_W_OFF_Z_H
 1475              		.loc 1 577 0
 1476 0812 0123     		movs	r3, #1
 1477              		.loc 1 578 0
 1478 0814 1846     		mov	r0, r3
 1479 0816 05B0     		add	sp, sp, #20
 1480              		@ sp needed
 1481 0818 5DF804FB 		ldr	pc, [sp], #4
 1482              		.cfi_endproc
 1483              	.LFE23:
 1484              		.size	LSM303AGR_MAG_Set_MagOff, .-LSM303AGR_MAG_Set_MagOff
 1485              		.align	2
 1486 081c AFF30080 		.p2align 4,,15
 1487              		.global	LSM303AGR_MAG_R_OFF_Z_H
 1488              		.thumb
 1489              		.thumb_func
 1490              		.type	LSM303AGR_MAG_R_OFF_Z_H, %function
 1491              	LSM303AGR_MAG_R_OFF_Z_H:
 1492              	.LFB24:
 1493              		.loc 1 588 0
 1494              		.cfi_startproc
 1495              		@ args = 0, pretend = 0, frame = 8
 1496              		@ frame_needed = 0, uses_anonymous_args = 0
 1497 0820 00B5     		push	{lr}
 1498              		.cfi_def_cfa_offset 4
 1499              		.cfi_offset 14, -4
 1500 0822 83B0     		sub	sp, sp, #12
 1501              		.cfi_def_cfa_offset 16
 1502 0824 0190     		str	r0, [sp, #4]
 1503 0826 0091     		str	r1, [sp]
 1504              		.loc 1 589 0
 1505 0828 0198     		ldr	r0, [sp, #4]
 1506 082a 4A21     		movs	r1, #74
 1507 082c 009A     		ldr	r2, [sp]
 1508 082e 0123     		movs	r3, #1
 1509 0830 FFF7FEFF 		bl	LSM303AGR_MAG_ReadReg
 1510 0834 0346     		mov	r3, r0
 1511 0836 002B     		cmp	r3, #0
 1512 0838 01D1     		bne	.L91
 1513              		.loc 1 590 0
 1514 083a 0023     		movs	r3, #0
 1515 083c 08E0     		b	.L92
 1516              	.L91:
 1517              		.loc 1 592 0
 1518 083e 009B     		ldr	r3, [sp]
 1519 0840 1A78     		ldrb	r2, [r3]	@ zero_extendqisi2
 1520 0842 009B     		ldr	r3, [sp]
 1521 0844 1A70     		strb	r2, [r3]
 1522              		.loc 1 593 0
 1523 0846 009B     		ldr	r3, [sp]
 1524 0848 1A78     		ldrb	r2, [r3]	@ zero_extendqisi2
ARM GAS  /tmp/ccNUhamC.s 			page 28


 1525 084a 009B     		ldr	r3, [sp]
 1526 084c 1A70     		strb	r2, [r3]
 1527              		.loc 1 595 0
 1528 084e 0123     		movs	r3, #1
 1529              	.L92:
 1530              		.loc 1 596 0
 1531 0850 1846     		mov	r0, r3
 1532 0852 03B0     		add	sp, sp, #12
 1533              		@ sp needed
 1534 0854 5DF804FB 		ldr	pc, [sp], #4
 1535              		.cfi_endproc
 1536              	.LFE24:
 1537              		.size	LSM303AGR_MAG_R_OFF_Z_H, .-LSM303AGR_MAG_R_OFF_Z_H
 1538              		.align	2
 1539 0858 AFF30080 		.p2align 4,,15
 1539      AFF30080 
 1540              		.global	LSM303AGR_MAG_W_LP
 1541              		.thumb
 1542              		.thumb_func
 1543              		.type	LSM303AGR_MAG_W_LP, %function
 1544              	LSM303AGR_MAG_W_LP:
 1545              	.LFB25:
 1546              		.loc 1 606 0
 1547              		.cfi_startproc
 1548              		@ args = 0, pretend = 0, frame = 16
 1549              		@ frame_needed = 0, uses_anonymous_args = 0
 1550 0860 00B5     		push	{lr}
 1551              		.cfi_def_cfa_offset 4
 1552              		.cfi_offset 14, -4
 1553 0862 85B0     		sub	sp, sp, #20
 1554              		.cfi_def_cfa_offset 24
 1555 0864 0190     		str	r0, [sp, #4]
 1556 0866 0B46     		mov	r3, r1
 1557 0868 8DF80330 		strb	r3, [sp, #3]
 1558              		.loc 1 609 0
 1559 086c 0DF10F03 		add	r3, sp, #15
 1560 0870 0198     		ldr	r0, [sp, #4]
 1561 0872 6021     		movs	r1, #96
 1562 0874 1A46     		mov	r2, r3
 1563 0876 0123     		movs	r3, #1
 1564 0878 FFF7FEFF 		bl	LSM303AGR_MAG_ReadReg
 1565 087c 0346     		mov	r3, r0
 1566 087e 002B     		cmp	r3, #0
 1567 0880 01D1     		bne	.L94
 1568              		.loc 1 610 0
 1569 0882 0023     		movs	r3, #0
 1570 0884 1CE0     		b	.L97
 1571              	.L94:
 1572              		.loc 1 612 0
 1573 0886 9DF80F30 		ldrb	r3, [sp, #15]	@ zero_extendqisi2
 1574 088a 23F01003 		bic	r3, r3, #16
 1575 088e DBB2     		uxtb	r3, r3
 1576 0890 8DF80F30 		strb	r3, [sp, #15]
 1577              		.loc 1 613 0
 1578 0894 9DF80F20 		ldrb	r2, [sp, #15]	@ zero_extendqisi2
 1579 0898 9DF80330 		ldrb	r3, [sp, #3]
 1580 089c 1343     		orrs	r3, r3, r2
ARM GAS  /tmp/ccNUhamC.s 			page 29


 1581 089e DBB2     		uxtb	r3, r3
 1582 08a0 8DF80F30 		strb	r3, [sp, #15]
 1583              		.loc 1 615 0
 1584 08a4 0DF10F03 		add	r3, sp, #15
 1585 08a8 0198     		ldr	r0, [sp, #4]
 1586 08aa 6021     		movs	r1, #96
 1587 08ac 1A46     		mov	r2, r3
 1588 08ae 0123     		movs	r3, #1
 1589 08b0 FFF7FEFF 		bl	LSM303AGR_MAG_WriteReg
 1590 08b4 0346     		mov	r3, r0
 1591 08b6 002B     		cmp	r3, #0
 1592 08b8 01D1     		bne	.L96
 1593              		.loc 1 616 0
 1594 08ba 0023     		movs	r3, #0
 1595 08bc 00E0     		b	.L97
 1596              	.L96:
 1597              		.loc 1 618 0
 1598 08be 0123     		movs	r3, #1
 1599              	.L97:
 1600              		.loc 1 619 0
 1601 08c0 1846     		mov	r0, r3
 1602 08c2 05B0     		add	sp, sp, #20
 1603              		@ sp needed
 1604 08c4 5DF804FB 		ldr	pc, [sp], #4
 1605              		.cfi_endproc
 1606              	.LFE25:
 1607              		.size	LSM303AGR_MAG_W_LP, .-LSM303AGR_MAG_W_LP
 1608              		.align	2
 1609 08c8 AFF30080 		.p2align 4,,15
 1609      AFF30080 
 1610              		.global	LSM303AGR_MAG_R_LP
 1611              		.thumb
 1612              		.thumb_func
 1613              		.type	LSM303AGR_MAG_R_LP, %function
 1614              	LSM303AGR_MAG_R_LP:
 1615              	.LFB26:
 1616              		.loc 1 629 0
 1617              		.cfi_startproc
 1618              		@ args = 0, pretend = 0, frame = 8
 1619              		@ frame_needed = 0, uses_anonymous_args = 0
 1620 08d0 00B5     		push	{lr}
 1621              		.cfi_def_cfa_offset 4
 1622              		.cfi_offset 14, -4
 1623 08d2 83B0     		sub	sp, sp, #12
 1624              		.cfi_def_cfa_offset 16
 1625 08d4 0190     		str	r0, [sp, #4]
 1626 08d6 0091     		str	r1, [sp]
 1627              		.loc 1 630 0
 1628 08d8 0198     		ldr	r0, [sp, #4]
 1629 08da 6021     		movs	r1, #96
 1630 08dc 009A     		ldr	r2, [sp]
 1631 08de 0123     		movs	r3, #1
 1632 08e0 FFF7FEFF 		bl	LSM303AGR_MAG_ReadReg
 1633 08e4 0346     		mov	r3, r0
 1634 08e6 002B     		cmp	r3, #0
 1635 08e8 01D1     		bne	.L99
 1636              		.loc 1 631 0
ARM GAS  /tmp/ccNUhamC.s 			page 30


 1637 08ea 0023     		movs	r3, #0
 1638 08ec 07E0     		b	.L100
 1639              	.L99:
 1640              		.loc 1 633 0
 1641 08ee 009B     		ldr	r3, [sp]
 1642 08f0 1B78     		ldrb	r3, [r3]	@ zero_extendqisi2
 1643 08f2 03F01003 		and	r3, r3, #16
 1644 08f6 DAB2     		uxtb	r2, r3
 1645 08f8 009B     		ldr	r3, [sp]
 1646 08fa 1A70     		strb	r2, [r3]
 1647              		.loc 1 635 0
 1648 08fc 0123     		movs	r3, #1
 1649              	.L100:
 1650              		.loc 1 636 0
 1651 08fe 1846     		mov	r0, r3
 1652 0900 03B0     		add	sp, sp, #12
 1653              		@ sp needed
 1654 0902 5DF804FB 		ldr	pc, [sp], #4
 1655              		.cfi_endproc
 1656              	.LFE26:
 1657              		.size	LSM303AGR_MAG_R_LP, .-LSM303AGR_MAG_R_LP
 1658 0906 00BF     		.align	2
 1659 0908 AFF30080 		.p2align 4,,15
 1659      AFF30080 
 1660              		.global	LSM303AGR_MAG_W_SOFT_RST
 1661              		.thumb
 1662              		.thumb_func
 1663              		.type	LSM303AGR_MAG_W_SOFT_RST, %function
 1664              	LSM303AGR_MAG_W_SOFT_RST:
 1665              	.LFB27:
 1666              		.loc 1 646 0
 1667              		.cfi_startproc
 1668              		@ args = 0, pretend = 0, frame = 16
 1669              		@ frame_needed = 0, uses_anonymous_args = 0
 1670 0910 00B5     		push	{lr}
 1671              		.cfi_def_cfa_offset 4
 1672              		.cfi_offset 14, -4
 1673 0912 85B0     		sub	sp, sp, #20
 1674              		.cfi_def_cfa_offset 24
 1675 0914 0190     		str	r0, [sp, #4]
 1676 0916 0B46     		mov	r3, r1
 1677 0918 8DF80330 		strb	r3, [sp, #3]
 1678              		.loc 1 649 0
 1679 091c 0DF10F03 		add	r3, sp, #15
 1680 0920 0198     		ldr	r0, [sp, #4]
 1681 0922 6021     		movs	r1, #96
 1682 0924 1A46     		mov	r2, r3
 1683 0926 0123     		movs	r3, #1
 1684 0928 FFF7FEFF 		bl	LSM303AGR_MAG_ReadReg
 1685 092c 0346     		mov	r3, r0
 1686 092e 002B     		cmp	r3, #0
 1687 0930 01D1     		bne	.L102
 1688              		.loc 1 650 0
 1689 0932 0023     		movs	r3, #0
 1690 0934 1CE0     		b	.L105
 1691              	.L102:
 1692              		.loc 1 652 0
ARM GAS  /tmp/ccNUhamC.s 			page 31


 1693 0936 9DF80F30 		ldrb	r3, [sp, #15]	@ zero_extendqisi2
 1694 093a 23F02003 		bic	r3, r3, #32
 1695 093e DBB2     		uxtb	r3, r3
 1696 0940 8DF80F30 		strb	r3, [sp, #15]
 1697              		.loc 1 653 0
 1698 0944 9DF80F20 		ldrb	r2, [sp, #15]	@ zero_extendqisi2
 1699 0948 9DF80330 		ldrb	r3, [sp, #3]
 1700 094c 1343     		orrs	r3, r3, r2
 1701 094e DBB2     		uxtb	r3, r3
 1702 0950 8DF80F30 		strb	r3, [sp, #15]
 1703              		.loc 1 655 0
 1704 0954 0DF10F03 		add	r3, sp, #15
 1705 0958 0198     		ldr	r0, [sp, #4]
 1706 095a 6021     		movs	r1, #96
 1707 095c 1A46     		mov	r2, r3
 1708 095e 0123     		movs	r3, #1
 1709 0960 FFF7FEFF 		bl	LSM303AGR_MAG_WriteReg
 1710 0964 0346     		mov	r3, r0
 1711 0966 002B     		cmp	r3, #0
 1712 0968 01D1     		bne	.L104
 1713              		.loc 1 656 0
 1714 096a 0023     		movs	r3, #0
 1715 096c 00E0     		b	.L105
 1716              	.L104:
 1717              		.loc 1 658 0
 1718 096e 0123     		movs	r3, #1
 1719              	.L105:
 1720              		.loc 1 659 0
 1721 0970 1846     		mov	r0, r3
 1722 0972 05B0     		add	sp, sp, #20
 1723              		@ sp needed
 1724 0974 5DF804FB 		ldr	pc, [sp], #4
 1725              		.cfi_endproc
 1726              	.LFE27:
 1727              		.size	LSM303AGR_MAG_W_SOFT_RST, .-LSM303AGR_MAG_W_SOFT_RST
 1728              		.align	2
 1729 0978 AFF30080 		.p2align 4,,15
 1729      AFF30080 
 1730              		.global	LSM303AGR_MAG_R_SOFT_RST
 1731              		.thumb
 1732              		.thumb_func
 1733              		.type	LSM303AGR_MAG_R_SOFT_RST, %function
 1734              	LSM303AGR_MAG_R_SOFT_RST:
 1735              	.LFB28:
 1736              		.loc 1 669 0
 1737              		.cfi_startproc
 1738              		@ args = 0, pretend = 0, frame = 8
 1739              		@ frame_needed = 0, uses_anonymous_args = 0
 1740 0980 00B5     		push	{lr}
 1741              		.cfi_def_cfa_offset 4
 1742              		.cfi_offset 14, -4
 1743 0982 83B0     		sub	sp, sp, #12
 1744              		.cfi_def_cfa_offset 16
 1745 0984 0190     		str	r0, [sp, #4]
 1746 0986 0091     		str	r1, [sp]
 1747              		.loc 1 670 0
 1748 0988 0198     		ldr	r0, [sp, #4]
ARM GAS  /tmp/ccNUhamC.s 			page 32


 1749 098a 6021     		movs	r1, #96
 1750 098c 009A     		ldr	r2, [sp]
 1751 098e 0123     		movs	r3, #1
 1752 0990 FFF7FEFF 		bl	LSM303AGR_MAG_ReadReg
 1753 0994 0346     		mov	r3, r0
 1754 0996 002B     		cmp	r3, #0
 1755 0998 01D1     		bne	.L107
 1756              		.loc 1 671 0
 1757 099a 0023     		movs	r3, #0
 1758 099c 07E0     		b	.L108
 1759              	.L107:
 1760              		.loc 1 673 0
 1761 099e 009B     		ldr	r3, [sp]
 1762 09a0 1B78     		ldrb	r3, [r3]	@ zero_extendqisi2
 1763 09a2 03F02003 		and	r3, r3, #32
 1764 09a6 DAB2     		uxtb	r2, r3
 1765 09a8 009B     		ldr	r3, [sp]
 1766 09aa 1A70     		strb	r2, [r3]
 1767              		.loc 1 675 0
 1768 09ac 0123     		movs	r3, #1
 1769              	.L108:
 1770              		.loc 1 676 0
 1771 09ae 1846     		mov	r0, r3
 1772 09b0 03B0     		add	sp, sp, #12
 1773              		@ sp needed
 1774 09b2 5DF804FB 		ldr	pc, [sp], #4
 1775              		.cfi_endproc
 1776              	.LFE28:
 1777              		.size	LSM303AGR_MAG_R_SOFT_RST, .-LSM303AGR_MAG_R_SOFT_RST
 1778 09b6 00BF     		.align	2
 1779 09b8 AFF30080 		.p2align 4,,15
 1779      AFF30080 
 1780              		.global	LSM303AGR_MAG_W_LPF
 1781              		.thumb
 1782              		.thumb_func
 1783              		.type	LSM303AGR_MAG_W_LPF, %function
 1784              	LSM303AGR_MAG_W_LPF:
 1785              	.LFB29:
 1786              		.loc 1 686 0
 1787              		.cfi_startproc
 1788              		@ args = 0, pretend = 0, frame = 16
 1789              		@ frame_needed = 0, uses_anonymous_args = 0
 1790 09c0 00B5     		push	{lr}
 1791              		.cfi_def_cfa_offset 4
 1792              		.cfi_offset 14, -4
 1793 09c2 85B0     		sub	sp, sp, #20
 1794              		.cfi_def_cfa_offset 24
 1795 09c4 0190     		str	r0, [sp, #4]
 1796 09c6 0B46     		mov	r3, r1
 1797 09c8 8DF80330 		strb	r3, [sp, #3]
 1798              		.loc 1 689 0
 1799 09cc 0DF10F03 		add	r3, sp, #15
 1800 09d0 0198     		ldr	r0, [sp, #4]
 1801 09d2 6121     		movs	r1, #97
 1802 09d4 1A46     		mov	r2, r3
 1803 09d6 0123     		movs	r3, #1
 1804 09d8 FFF7FEFF 		bl	LSM303AGR_MAG_ReadReg
ARM GAS  /tmp/ccNUhamC.s 			page 33


 1805 09dc 0346     		mov	r3, r0
 1806 09de 002B     		cmp	r3, #0
 1807 09e0 01D1     		bne	.L110
 1808              		.loc 1 690 0
 1809 09e2 0023     		movs	r3, #0
 1810 09e4 1CE0     		b	.L113
 1811              	.L110:
 1812              		.loc 1 692 0
 1813 09e6 9DF80F30 		ldrb	r3, [sp, #15]	@ zero_extendqisi2
 1814 09ea 23F00103 		bic	r3, r3, #1
 1815 09ee DBB2     		uxtb	r3, r3
 1816 09f0 8DF80F30 		strb	r3, [sp, #15]
 1817              		.loc 1 693 0
 1818 09f4 9DF80F20 		ldrb	r2, [sp, #15]	@ zero_extendqisi2
 1819 09f8 9DF80330 		ldrb	r3, [sp, #3]
 1820 09fc 1343     		orrs	r3, r3, r2
 1821 09fe DBB2     		uxtb	r3, r3
 1822 0a00 8DF80F30 		strb	r3, [sp, #15]
 1823              		.loc 1 695 0
 1824 0a04 0DF10F03 		add	r3, sp, #15
 1825 0a08 0198     		ldr	r0, [sp, #4]
 1826 0a0a 6121     		movs	r1, #97
 1827 0a0c 1A46     		mov	r2, r3
 1828 0a0e 0123     		movs	r3, #1
 1829 0a10 FFF7FEFF 		bl	LSM303AGR_MAG_WriteReg
 1830 0a14 0346     		mov	r3, r0
 1831 0a16 002B     		cmp	r3, #0
 1832 0a18 01D1     		bne	.L112
 1833              		.loc 1 696 0
 1834 0a1a 0023     		movs	r3, #0
 1835 0a1c 00E0     		b	.L113
 1836              	.L112:
 1837              		.loc 1 698 0
 1838 0a1e 0123     		movs	r3, #1
 1839              	.L113:
 1840              		.loc 1 699 0
 1841 0a20 1846     		mov	r0, r3
 1842 0a22 05B0     		add	sp, sp, #20
 1843              		@ sp needed
 1844 0a24 5DF804FB 		ldr	pc, [sp], #4
 1845              		.cfi_endproc
 1846              	.LFE29:
 1847              		.size	LSM303AGR_MAG_W_LPF, .-LSM303AGR_MAG_W_LPF
 1848              		.align	2
 1849 0a28 AFF30080 		.p2align 4,,15
 1849      AFF30080 
 1850              		.global	LSM303AGR_MAG_R_LPF
 1851              		.thumb
 1852              		.thumb_func
 1853              		.type	LSM303AGR_MAG_R_LPF, %function
 1854              	LSM303AGR_MAG_R_LPF:
 1855              	.LFB30:
 1856              		.loc 1 709 0
 1857              		.cfi_startproc
 1858              		@ args = 0, pretend = 0, frame = 8
 1859              		@ frame_needed = 0, uses_anonymous_args = 0
 1860 0a30 00B5     		push	{lr}
ARM GAS  /tmp/ccNUhamC.s 			page 34


 1861              		.cfi_def_cfa_offset 4
 1862              		.cfi_offset 14, -4
 1863 0a32 83B0     		sub	sp, sp, #12
 1864              		.cfi_def_cfa_offset 16
 1865 0a34 0190     		str	r0, [sp, #4]
 1866 0a36 0091     		str	r1, [sp]
 1867              		.loc 1 710 0
 1868 0a38 0198     		ldr	r0, [sp, #4]
 1869 0a3a 6121     		movs	r1, #97
 1870 0a3c 009A     		ldr	r2, [sp]
 1871 0a3e 0123     		movs	r3, #1
 1872 0a40 FFF7FEFF 		bl	LSM303AGR_MAG_ReadReg
 1873 0a44 0346     		mov	r3, r0
 1874 0a46 002B     		cmp	r3, #0
 1875 0a48 01D1     		bne	.L115
 1876              		.loc 1 711 0
 1877 0a4a 0023     		movs	r3, #0
 1878 0a4c 07E0     		b	.L116
 1879              	.L115:
 1880              		.loc 1 713 0
 1881 0a4e 009B     		ldr	r3, [sp]
 1882 0a50 1B78     		ldrb	r3, [r3]	@ zero_extendqisi2
 1883 0a52 03F00103 		and	r3, r3, #1
 1884 0a56 DAB2     		uxtb	r2, r3
 1885 0a58 009B     		ldr	r3, [sp]
 1886 0a5a 1A70     		strb	r2, [r3]
 1887              		.loc 1 715 0
 1888 0a5c 0123     		movs	r3, #1
 1889              	.L116:
 1890              		.loc 1 716 0
 1891 0a5e 1846     		mov	r0, r3
 1892 0a60 03B0     		add	sp, sp, #12
 1893              		@ sp needed
 1894 0a62 5DF804FB 		ldr	pc, [sp], #4
 1895              		.cfi_endproc
 1896              	.LFE30:
 1897              		.size	LSM303AGR_MAG_R_LPF, .-LSM303AGR_MAG_R_LPF
 1898 0a66 00BF     		.align	2
 1899 0a68 AFF30080 		.p2align 4,,15
 1899      AFF30080 
 1900              		.global	LSM303AGR_MAG_W_OFF_CANC
 1901              		.thumb
 1902              		.thumb_func
 1903              		.type	LSM303AGR_MAG_W_OFF_CANC, %function
 1904              	LSM303AGR_MAG_W_OFF_CANC:
 1905              	.LFB31:
 1906              		.loc 1 726 0
 1907              		.cfi_startproc
 1908              		@ args = 0, pretend = 0, frame = 16
 1909              		@ frame_needed = 0, uses_anonymous_args = 0
 1910 0a70 00B5     		push	{lr}
 1911              		.cfi_def_cfa_offset 4
 1912              		.cfi_offset 14, -4
 1913 0a72 85B0     		sub	sp, sp, #20
 1914              		.cfi_def_cfa_offset 24
 1915 0a74 0190     		str	r0, [sp, #4]
 1916 0a76 0B46     		mov	r3, r1
ARM GAS  /tmp/ccNUhamC.s 			page 35


 1917 0a78 8DF80330 		strb	r3, [sp, #3]
 1918              		.loc 1 729 0
 1919 0a7c 0DF10F03 		add	r3, sp, #15
 1920 0a80 0198     		ldr	r0, [sp, #4]
 1921 0a82 6121     		movs	r1, #97
 1922 0a84 1A46     		mov	r2, r3
 1923 0a86 0123     		movs	r3, #1
 1924 0a88 FFF7FEFF 		bl	LSM303AGR_MAG_ReadReg
 1925 0a8c 0346     		mov	r3, r0
 1926 0a8e 002B     		cmp	r3, #0
 1927 0a90 01D1     		bne	.L118
 1928              		.loc 1 730 0
 1929 0a92 0023     		movs	r3, #0
 1930 0a94 1CE0     		b	.L121
 1931              	.L118:
 1932              		.loc 1 732 0
 1933 0a96 9DF80F30 		ldrb	r3, [sp, #15]	@ zero_extendqisi2
 1934 0a9a 23F00203 		bic	r3, r3, #2
 1935 0a9e DBB2     		uxtb	r3, r3
 1936 0aa0 8DF80F30 		strb	r3, [sp, #15]
 1937              		.loc 1 733 0
 1938 0aa4 9DF80F20 		ldrb	r2, [sp, #15]	@ zero_extendqisi2
 1939 0aa8 9DF80330 		ldrb	r3, [sp, #3]
 1940 0aac 1343     		orrs	r3, r3, r2
 1941 0aae DBB2     		uxtb	r3, r3
 1942 0ab0 8DF80F30 		strb	r3, [sp, #15]
 1943              		.loc 1 735 0
 1944 0ab4 0DF10F03 		add	r3, sp, #15
 1945 0ab8 0198     		ldr	r0, [sp, #4]
 1946 0aba 6121     		movs	r1, #97
 1947 0abc 1A46     		mov	r2, r3
 1948 0abe 0123     		movs	r3, #1
 1949 0ac0 FFF7FEFF 		bl	LSM303AGR_MAG_WriteReg
 1950 0ac4 0346     		mov	r3, r0
 1951 0ac6 002B     		cmp	r3, #0
 1952 0ac8 01D1     		bne	.L120
 1953              		.loc 1 736 0
 1954 0aca 0023     		movs	r3, #0
 1955 0acc 00E0     		b	.L121
 1956              	.L120:
 1957              		.loc 1 738 0
 1958 0ace 0123     		movs	r3, #1
 1959              	.L121:
 1960              		.loc 1 739 0
 1961 0ad0 1846     		mov	r0, r3
 1962 0ad2 05B0     		add	sp, sp, #20
 1963              		@ sp needed
 1964 0ad4 5DF804FB 		ldr	pc, [sp], #4
 1965              		.cfi_endproc
 1966              	.LFE31:
 1967              		.size	LSM303AGR_MAG_W_OFF_CANC, .-LSM303AGR_MAG_W_OFF_CANC
 1968              		.align	2
 1969 0ad8 AFF30080 		.p2align 4,,15
 1969      AFF30080 
 1970              		.global	LSM303AGR_MAG_R_OFF_CANC
 1971              		.thumb
 1972              		.thumb_func
ARM GAS  /tmp/ccNUhamC.s 			page 36


 1973              		.type	LSM303AGR_MAG_R_OFF_CANC, %function
 1974              	LSM303AGR_MAG_R_OFF_CANC:
 1975              	.LFB32:
 1976              		.loc 1 749 0
 1977              		.cfi_startproc
 1978              		@ args = 0, pretend = 0, frame = 8
 1979              		@ frame_needed = 0, uses_anonymous_args = 0
 1980 0ae0 00B5     		push	{lr}
 1981              		.cfi_def_cfa_offset 4
 1982              		.cfi_offset 14, -4
 1983 0ae2 83B0     		sub	sp, sp, #12
 1984              		.cfi_def_cfa_offset 16
 1985 0ae4 0190     		str	r0, [sp, #4]
 1986 0ae6 0091     		str	r1, [sp]
 1987              		.loc 1 750 0
 1988 0ae8 0198     		ldr	r0, [sp, #4]
 1989 0aea 6121     		movs	r1, #97
 1990 0aec 009A     		ldr	r2, [sp]
 1991 0aee 0123     		movs	r3, #1
 1992 0af0 FFF7FEFF 		bl	LSM303AGR_MAG_ReadReg
 1993 0af4 0346     		mov	r3, r0
 1994 0af6 002B     		cmp	r3, #0
 1995 0af8 01D1     		bne	.L123
 1996              		.loc 1 751 0
 1997 0afa 0023     		movs	r3, #0
 1998 0afc 07E0     		b	.L124
 1999              	.L123:
 2000              		.loc 1 753 0
 2001 0afe 009B     		ldr	r3, [sp]
 2002 0b00 1B78     		ldrb	r3, [r3]	@ zero_extendqisi2
 2003 0b02 03F00203 		and	r3, r3, #2
 2004 0b06 DAB2     		uxtb	r2, r3
 2005 0b08 009B     		ldr	r3, [sp]
 2006 0b0a 1A70     		strb	r2, [r3]
 2007              		.loc 1 755 0
 2008 0b0c 0123     		movs	r3, #1
 2009              	.L124:
 2010              		.loc 1 756 0
 2011 0b0e 1846     		mov	r0, r3
 2012 0b10 03B0     		add	sp, sp, #12
 2013              		@ sp needed
 2014 0b12 5DF804FB 		ldr	pc, [sp], #4
 2015              		.cfi_endproc
 2016              	.LFE32:
 2017              		.size	LSM303AGR_MAG_R_OFF_CANC, .-LSM303AGR_MAG_R_OFF_CANC
 2018 0b16 00BF     		.align	2
 2019 0b18 AFF30080 		.p2align 4,,15
 2019      AFF30080 
 2020              		.global	LSM303AGR_MAG_W_SET_FREQ
 2021              		.thumb
 2022              		.thumb_func
 2023              		.type	LSM303AGR_MAG_W_SET_FREQ, %function
 2024              	LSM303AGR_MAG_W_SET_FREQ:
 2025              	.LFB33:
 2026              		.loc 1 766 0
 2027              		.cfi_startproc
 2028              		@ args = 0, pretend = 0, frame = 16
ARM GAS  /tmp/ccNUhamC.s 			page 37


 2029              		@ frame_needed = 0, uses_anonymous_args = 0
 2030 0b20 00B5     		push	{lr}
 2031              		.cfi_def_cfa_offset 4
 2032              		.cfi_offset 14, -4
 2033 0b22 85B0     		sub	sp, sp, #20
 2034              		.cfi_def_cfa_offset 24
 2035 0b24 0190     		str	r0, [sp, #4]
 2036 0b26 0B46     		mov	r3, r1
 2037 0b28 8DF80330 		strb	r3, [sp, #3]
 2038              		.loc 1 769 0
 2039 0b2c 0DF10F03 		add	r3, sp, #15
 2040 0b30 0198     		ldr	r0, [sp, #4]
 2041 0b32 6121     		movs	r1, #97
 2042 0b34 1A46     		mov	r2, r3
 2043 0b36 0123     		movs	r3, #1
 2044 0b38 FFF7FEFF 		bl	LSM303AGR_MAG_ReadReg
 2045 0b3c 0346     		mov	r3, r0
 2046 0b3e 002B     		cmp	r3, #0
 2047 0b40 01D1     		bne	.L126
 2048              		.loc 1 770 0
 2049 0b42 0023     		movs	r3, #0
 2050 0b44 1CE0     		b	.L129
 2051              	.L126:
 2052              		.loc 1 772 0
 2053 0b46 9DF80F30 		ldrb	r3, [sp, #15]	@ zero_extendqisi2
 2054 0b4a 23F00403 		bic	r3, r3, #4
 2055 0b4e DBB2     		uxtb	r3, r3
 2056 0b50 8DF80F30 		strb	r3, [sp, #15]
 2057              		.loc 1 773 0
 2058 0b54 9DF80F20 		ldrb	r2, [sp, #15]	@ zero_extendqisi2
 2059 0b58 9DF80330 		ldrb	r3, [sp, #3]
 2060 0b5c 1343     		orrs	r3, r3, r2
 2061 0b5e DBB2     		uxtb	r3, r3
 2062 0b60 8DF80F30 		strb	r3, [sp, #15]
 2063              		.loc 1 775 0
 2064 0b64 0DF10F03 		add	r3, sp, #15
 2065 0b68 0198     		ldr	r0, [sp, #4]
 2066 0b6a 6121     		movs	r1, #97
 2067 0b6c 1A46     		mov	r2, r3
 2068 0b6e 0123     		movs	r3, #1
 2069 0b70 FFF7FEFF 		bl	LSM303AGR_MAG_WriteReg
 2070 0b74 0346     		mov	r3, r0
 2071 0b76 002B     		cmp	r3, #0
 2072 0b78 01D1     		bne	.L128
 2073              		.loc 1 776 0
 2074 0b7a 0023     		movs	r3, #0
 2075 0b7c 00E0     		b	.L129
 2076              	.L128:
 2077              		.loc 1 778 0
 2078 0b7e 0123     		movs	r3, #1
 2079              	.L129:
 2080              		.loc 1 779 0
 2081 0b80 1846     		mov	r0, r3
 2082 0b82 05B0     		add	sp, sp, #20
 2083              		@ sp needed
 2084 0b84 5DF804FB 		ldr	pc, [sp], #4
 2085              		.cfi_endproc
ARM GAS  /tmp/ccNUhamC.s 			page 38


 2086              	.LFE33:
 2087              		.size	LSM303AGR_MAG_W_SET_FREQ, .-LSM303AGR_MAG_W_SET_FREQ
 2088              		.align	2
 2089 0b88 AFF30080 		.p2align 4,,15
 2089      AFF30080 
 2090              		.global	LSM303AGR_MAG_R_SET_FREQ
 2091              		.thumb
 2092              		.thumb_func
 2093              		.type	LSM303AGR_MAG_R_SET_FREQ, %function
 2094              	LSM303AGR_MAG_R_SET_FREQ:
 2095              	.LFB34:
 2096              		.loc 1 789 0
 2097              		.cfi_startproc
 2098              		@ args = 0, pretend = 0, frame = 8
 2099              		@ frame_needed = 0, uses_anonymous_args = 0
 2100 0b90 00B5     		push	{lr}
 2101              		.cfi_def_cfa_offset 4
 2102              		.cfi_offset 14, -4
 2103 0b92 83B0     		sub	sp, sp, #12
 2104              		.cfi_def_cfa_offset 16
 2105 0b94 0190     		str	r0, [sp, #4]
 2106 0b96 0091     		str	r1, [sp]
 2107              		.loc 1 790 0
 2108 0b98 0198     		ldr	r0, [sp, #4]
 2109 0b9a 6121     		movs	r1, #97
 2110 0b9c 009A     		ldr	r2, [sp]
 2111 0b9e 0123     		movs	r3, #1
 2112 0ba0 FFF7FEFF 		bl	LSM303AGR_MAG_ReadReg
 2113 0ba4 0346     		mov	r3, r0
 2114 0ba6 002B     		cmp	r3, #0
 2115 0ba8 01D1     		bne	.L131
 2116              		.loc 1 791 0
 2117 0baa 0023     		movs	r3, #0
 2118 0bac 07E0     		b	.L132
 2119              	.L131:
 2120              		.loc 1 793 0
 2121 0bae 009B     		ldr	r3, [sp]
 2122 0bb0 1B78     		ldrb	r3, [r3]	@ zero_extendqisi2
 2123 0bb2 03F00403 		and	r3, r3, #4
 2124 0bb6 DAB2     		uxtb	r2, r3
 2125 0bb8 009B     		ldr	r3, [sp]
 2126 0bba 1A70     		strb	r2, [r3]
 2127              		.loc 1 795 0
 2128 0bbc 0123     		movs	r3, #1
 2129              	.L132:
 2130              		.loc 1 796 0
 2131 0bbe 1846     		mov	r0, r3
 2132 0bc0 03B0     		add	sp, sp, #12
 2133              		@ sp needed
 2134 0bc2 5DF804FB 		ldr	pc, [sp], #4
 2135              		.cfi_endproc
 2136              	.LFE34:
 2137              		.size	LSM303AGR_MAG_R_SET_FREQ, .-LSM303AGR_MAG_R_SET_FREQ
 2138 0bc6 00BF     		.align	2
 2139 0bc8 AFF30080 		.p2align 4,,15
 2139      AFF30080 
 2140              		.global	LSM303AGR_MAG_W_INT_ON_DATAOFF
ARM GAS  /tmp/ccNUhamC.s 			page 39


 2141              		.thumb
 2142              		.thumb_func
 2143              		.type	LSM303AGR_MAG_W_INT_ON_DATAOFF, %function
 2144              	LSM303AGR_MAG_W_INT_ON_DATAOFF:
 2145              	.LFB35:
 2146              		.loc 1 806 0
 2147              		.cfi_startproc
 2148              		@ args = 0, pretend = 0, frame = 16
 2149              		@ frame_needed = 0, uses_anonymous_args = 0
 2150 0bd0 00B5     		push	{lr}
 2151              		.cfi_def_cfa_offset 4
 2152              		.cfi_offset 14, -4
 2153 0bd2 85B0     		sub	sp, sp, #20
 2154              		.cfi_def_cfa_offset 24
 2155 0bd4 0190     		str	r0, [sp, #4]
 2156 0bd6 0B46     		mov	r3, r1
 2157 0bd8 8DF80330 		strb	r3, [sp, #3]
 2158              		.loc 1 809 0
 2159 0bdc 0DF10F03 		add	r3, sp, #15
 2160 0be0 0198     		ldr	r0, [sp, #4]
 2161 0be2 6121     		movs	r1, #97
 2162 0be4 1A46     		mov	r2, r3
 2163 0be6 0123     		movs	r3, #1
 2164 0be8 FFF7FEFF 		bl	LSM303AGR_MAG_ReadReg
 2165 0bec 0346     		mov	r3, r0
 2166 0bee 002B     		cmp	r3, #0
 2167 0bf0 01D1     		bne	.L134
 2168              		.loc 1 810 0
 2169 0bf2 0023     		movs	r3, #0
 2170 0bf4 1CE0     		b	.L137
 2171              	.L134:
 2172              		.loc 1 812 0
 2173 0bf6 9DF80F30 		ldrb	r3, [sp, #15]	@ zero_extendqisi2
 2174 0bfa 23F00803 		bic	r3, r3, #8
 2175 0bfe DBB2     		uxtb	r3, r3
 2176 0c00 8DF80F30 		strb	r3, [sp, #15]
 2177              		.loc 1 813 0
 2178 0c04 9DF80F20 		ldrb	r2, [sp, #15]	@ zero_extendqisi2
 2179 0c08 9DF80330 		ldrb	r3, [sp, #3]
 2180 0c0c 1343     		orrs	r3, r3, r2
 2181 0c0e DBB2     		uxtb	r3, r3
 2182 0c10 8DF80F30 		strb	r3, [sp, #15]
 2183              		.loc 1 815 0
 2184 0c14 0DF10F03 		add	r3, sp, #15
 2185 0c18 0198     		ldr	r0, [sp, #4]
 2186 0c1a 6121     		movs	r1, #97
 2187 0c1c 1A46     		mov	r2, r3
 2188 0c1e 0123     		movs	r3, #1
 2189 0c20 FFF7FEFF 		bl	LSM303AGR_MAG_WriteReg
 2190 0c24 0346     		mov	r3, r0
 2191 0c26 002B     		cmp	r3, #0
 2192 0c28 01D1     		bne	.L136
 2193              		.loc 1 816 0
 2194 0c2a 0023     		movs	r3, #0
 2195 0c2c 00E0     		b	.L137
 2196              	.L136:
 2197              		.loc 1 818 0
ARM GAS  /tmp/ccNUhamC.s 			page 40


 2198 0c2e 0123     		movs	r3, #1
 2199              	.L137:
 2200              		.loc 1 819 0
 2201 0c30 1846     		mov	r0, r3
 2202 0c32 05B0     		add	sp, sp, #20
 2203              		@ sp needed
 2204 0c34 5DF804FB 		ldr	pc, [sp], #4
 2205              		.cfi_endproc
 2206              	.LFE35:
 2207              		.size	LSM303AGR_MAG_W_INT_ON_DATAOFF, .-LSM303AGR_MAG_W_INT_ON_DATAOFF
 2208              		.align	2
 2209 0c38 AFF30080 		.p2align 4,,15
 2209      AFF30080 
 2210              		.global	LSM303AGR_MAG_R_INT_ON_DATAOFF
 2211              		.thumb
 2212              		.thumb_func
 2213              		.type	LSM303AGR_MAG_R_INT_ON_DATAOFF, %function
 2214              	LSM303AGR_MAG_R_INT_ON_DATAOFF:
 2215              	.LFB36:
 2216              		.loc 1 829 0
 2217              		.cfi_startproc
 2218              		@ args = 0, pretend = 0, frame = 8
 2219              		@ frame_needed = 0, uses_anonymous_args = 0
 2220 0c40 00B5     		push	{lr}
 2221              		.cfi_def_cfa_offset 4
 2222              		.cfi_offset 14, -4
 2223 0c42 83B0     		sub	sp, sp, #12
 2224              		.cfi_def_cfa_offset 16
 2225 0c44 0190     		str	r0, [sp, #4]
 2226 0c46 0091     		str	r1, [sp]
 2227              		.loc 1 830 0
 2228 0c48 0198     		ldr	r0, [sp, #4]
 2229 0c4a 6121     		movs	r1, #97
 2230 0c4c 009A     		ldr	r2, [sp]
 2231 0c4e 0123     		movs	r3, #1
 2232 0c50 FFF7FEFF 		bl	LSM303AGR_MAG_ReadReg
 2233 0c54 0346     		mov	r3, r0
 2234 0c56 002B     		cmp	r3, #0
 2235 0c58 01D1     		bne	.L139
 2236              		.loc 1 831 0
 2237 0c5a 0023     		movs	r3, #0
 2238 0c5c 07E0     		b	.L140
 2239              	.L139:
 2240              		.loc 1 833 0
 2241 0c5e 009B     		ldr	r3, [sp]
 2242 0c60 1B78     		ldrb	r3, [r3]	@ zero_extendqisi2
 2243 0c62 03F00803 		and	r3, r3, #8
 2244 0c66 DAB2     		uxtb	r2, r3
 2245 0c68 009B     		ldr	r3, [sp]
 2246 0c6a 1A70     		strb	r2, [r3]
 2247              		.loc 1 835 0
 2248 0c6c 0123     		movs	r3, #1
 2249              	.L140:
 2250              		.loc 1 836 0
 2251 0c6e 1846     		mov	r0, r3
 2252 0c70 03B0     		add	sp, sp, #12
 2253              		@ sp needed
ARM GAS  /tmp/ccNUhamC.s 			page 41


 2254 0c72 5DF804FB 		ldr	pc, [sp], #4
 2255              		.cfi_endproc
 2256              	.LFE36:
 2257              		.size	LSM303AGR_MAG_R_INT_ON_DATAOFF, .-LSM303AGR_MAG_R_INT_ON_DATAOFF
 2258 0c76 00BF     		.align	2
 2259 0c78 AFF30080 		.p2align 4,,15
 2259      AFF30080 
 2260              		.global	LSM303AGR_MAG_W_INT_MAG
 2261              		.thumb
 2262              		.thumb_func
 2263              		.type	LSM303AGR_MAG_W_INT_MAG, %function
 2264              	LSM303AGR_MAG_W_INT_MAG:
 2265              	.LFB37:
 2266              		.loc 1 846 0
 2267              		.cfi_startproc
 2268              		@ args = 0, pretend = 0, frame = 16
 2269              		@ frame_needed = 0, uses_anonymous_args = 0
 2270 0c80 00B5     		push	{lr}
 2271              		.cfi_def_cfa_offset 4
 2272              		.cfi_offset 14, -4
 2273 0c82 85B0     		sub	sp, sp, #20
 2274              		.cfi_def_cfa_offset 24
 2275 0c84 0190     		str	r0, [sp, #4]
 2276 0c86 0B46     		mov	r3, r1
 2277 0c88 8DF80330 		strb	r3, [sp, #3]
 2278              		.loc 1 849 0
 2279 0c8c 0DF10F03 		add	r3, sp, #15
 2280 0c90 0198     		ldr	r0, [sp, #4]
 2281 0c92 6221     		movs	r1, #98
 2282 0c94 1A46     		mov	r2, r3
 2283 0c96 0123     		movs	r3, #1
 2284 0c98 FFF7FEFF 		bl	LSM303AGR_MAG_ReadReg
 2285 0c9c 0346     		mov	r3, r0
 2286 0c9e 002B     		cmp	r3, #0
 2287 0ca0 01D1     		bne	.L142
 2288              		.loc 1 850 0
 2289 0ca2 0023     		movs	r3, #0
 2290 0ca4 1CE0     		b	.L145
 2291              	.L142:
 2292              		.loc 1 852 0
 2293 0ca6 9DF80F30 		ldrb	r3, [sp, #15]	@ zero_extendqisi2
 2294 0caa 23F00103 		bic	r3, r3, #1
 2295 0cae DBB2     		uxtb	r3, r3
 2296 0cb0 8DF80F30 		strb	r3, [sp, #15]
 2297              		.loc 1 853 0
 2298 0cb4 9DF80F20 		ldrb	r2, [sp, #15]	@ zero_extendqisi2
 2299 0cb8 9DF80330 		ldrb	r3, [sp, #3]
 2300 0cbc 1343     		orrs	r3, r3, r2
 2301 0cbe DBB2     		uxtb	r3, r3
 2302 0cc0 8DF80F30 		strb	r3, [sp, #15]
 2303              		.loc 1 855 0
 2304 0cc4 0DF10F03 		add	r3, sp, #15
 2305 0cc8 0198     		ldr	r0, [sp, #4]
 2306 0cca 6221     		movs	r1, #98
 2307 0ccc 1A46     		mov	r2, r3
 2308 0cce 0123     		movs	r3, #1
 2309 0cd0 FFF7FEFF 		bl	LSM303AGR_MAG_WriteReg
ARM GAS  /tmp/ccNUhamC.s 			page 42


 2310 0cd4 0346     		mov	r3, r0
 2311 0cd6 002B     		cmp	r3, #0
 2312 0cd8 01D1     		bne	.L144
 2313              		.loc 1 856 0
 2314 0cda 0023     		movs	r3, #0
 2315 0cdc 00E0     		b	.L145
 2316              	.L144:
 2317              		.loc 1 858 0
 2318 0cde 0123     		movs	r3, #1
 2319              	.L145:
 2320              		.loc 1 859 0
 2321 0ce0 1846     		mov	r0, r3
 2322 0ce2 05B0     		add	sp, sp, #20
 2323              		@ sp needed
 2324 0ce4 5DF804FB 		ldr	pc, [sp], #4
 2325              		.cfi_endproc
 2326              	.LFE37:
 2327              		.size	LSM303AGR_MAG_W_INT_MAG, .-LSM303AGR_MAG_W_INT_MAG
 2328              		.align	2
 2329 0ce8 AFF30080 		.p2align 4,,15
 2329      AFF30080 
 2330              		.global	LSM303AGR_MAG_R_INT_MAG
 2331              		.thumb
 2332              		.thumb_func
 2333              		.type	LSM303AGR_MAG_R_INT_MAG, %function
 2334              	LSM303AGR_MAG_R_INT_MAG:
 2335              	.LFB38:
 2336              		.loc 1 869 0
 2337              		.cfi_startproc
 2338              		@ args = 0, pretend = 0, frame = 8
 2339              		@ frame_needed = 0, uses_anonymous_args = 0
 2340 0cf0 00B5     		push	{lr}
 2341              		.cfi_def_cfa_offset 4
 2342              		.cfi_offset 14, -4
 2343 0cf2 83B0     		sub	sp, sp, #12
 2344              		.cfi_def_cfa_offset 16
 2345 0cf4 0190     		str	r0, [sp, #4]
 2346 0cf6 0091     		str	r1, [sp]
 2347              		.loc 1 870 0
 2348 0cf8 0198     		ldr	r0, [sp, #4]
 2349 0cfa 6221     		movs	r1, #98
 2350 0cfc 009A     		ldr	r2, [sp]
 2351 0cfe 0123     		movs	r3, #1
 2352 0d00 FFF7FEFF 		bl	LSM303AGR_MAG_ReadReg
 2353 0d04 0346     		mov	r3, r0
 2354 0d06 002B     		cmp	r3, #0
 2355 0d08 01D1     		bne	.L147
 2356              		.loc 1 871 0
 2357 0d0a 0023     		movs	r3, #0
 2358 0d0c 07E0     		b	.L148
 2359              	.L147:
 2360              		.loc 1 873 0
 2361 0d0e 009B     		ldr	r3, [sp]
 2362 0d10 1B78     		ldrb	r3, [r3]	@ zero_extendqisi2
 2363 0d12 03F00103 		and	r3, r3, #1
 2364 0d16 DAB2     		uxtb	r2, r3
 2365 0d18 009B     		ldr	r3, [sp]
ARM GAS  /tmp/ccNUhamC.s 			page 43


 2366 0d1a 1A70     		strb	r2, [r3]
 2367              		.loc 1 875 0
 2368 0d1c 0123     		movs	r3, #1
 2369              	.L148:
 2370              		.loc 1 876 0
 2371 0d1e 1846     		mov	r0, r3
 2372 0d20 03B0     		add	sp, sp, #12
 2373              		@ sp needed
 2374 0d22 5DF804FB 		ldr	pc, [sp], #4
 2375              		.cfi_endproc
 2376              	.LFE38:
 2377              		.size	LSM303AGR_MAG_R_INT_MAG, .-LSM303AGR_MAG_R_INT_MAG
 2378 0d26 00BF     		.align	2
 2379 0d28 AFF30080 		.p2align 4,,15
 2379      AFF30080 
 2380              		.global	LSM303AGR_MAG_W_ST
 2381              		.thumb
 2382              		.thumb_func
 2383              		.type	LSM303AGR_MAG_W_ST, %function
 2384              	LSM303AGR_MAG_W_ST:
 2385              	.LFB39:
 2386              		.loc 1 886 0
 2387              		.cfi_startproc
 2388              		@ args = 0, pretend = 0, frame = 16
 2389              		@ frame_needed = 0, uses_anonymous_args = 0
 2390 0d30 00B5     		push	{lr}
 2391              		.cfi_def_cfa_offset 4
 2392              		.cfi_offset 14, -4
 2393 0d32 85B0     		sub	sp, sp, #20
 2394              		.cfi_def_cfa_offset 24
 2395 0d34 0190     		str	r0, [sp, #4]
 2396 0d36 0B46     		mov	r3, r1
 2397 0d38 8DF80330 		strb	r3, [sp, #3]
 2398              		.loc 1 889 0
 2399 0d3c 0DF10F03 		add	r3, sp, #15
 2400 0d40 0198     		ldr	r0, [sp, #4]
 2401 0d42 6221     		movs	r1, #98
 2402 0d44 1A46     		mov	r2, r3
 2403 0d46 0123     		movs	r3, #1
 2404 0d48 FFF7FEFF 		bl	LSM303AGR_MAG_ReadReg
 2405 0d4c 0346     		mov	r3, r0
 2406 0d4e 002B     		cmp	r3, #0
 2407 0d50 01D1     		bne	.L150
 2408              		.loc 1 890 0
 2409 0d52 0023     		movs	r3, #0
 2410 0d54 1CE0     		b	.L153
 2411              	.L150:
 2412              		.loc 1 892 0
 2413 0d56 9DF80F30 		ldrb	r3, [sp, #15]	@ zero_extendqisi2
 2414 0d5a 23F00203 		bic	r3, r3, #2
 2415 0d5e DBB2     		uxtb	r3, r3
 2416 0d60 8DF80F30 		strb	r3, [sp, #15]
 2417              		.loc 1 893 0
 2418 0d64 9DF80F20 		ldrb	r2, [sp, #15]	@ zero_extendqisi2
 2419 0d68 9DF80330 		ldrb	r3, [sp, #3]
 2420 0d6c 1343     		orrs	r3, r3, r2
 2421 0d6e DBB2     		uxtb	r3, r3
ARM GAS  /tmp/ccNUhamC.s 			page 44


 2422 0d70 8DF80F30 		strb	r3, [sp, #15]
 2423              		.loc 1 895 0
 2424 0d74 0DF10F03 		add	r3, sp, #15
 2425 0d78 0198     		ldr	r0, [sp, #4]
 2426 0d7a 6221     		movs	r1, #98
 2427 0d7c 1A46     		mov	r2, r3
 2428 0d7e 0123     		movs	r3, #1
 2429 0d80 FFF7FEFF 		bl	LSM303AGR_MAG_WriteReg
 2430 0d84 0346     		mov	r3, r0
 2431 0d86 002B     		cmp	r3, #0
 2432 0d88 01D1     		bne	.L152
 2433              		.loc 1 896 0
 2434 0d8a 0023     		movs	r3, #0
 2435 0d8c 00E0     		b	.L153
 2436              	.L152:
 2437              		.loc 1 898 0
 2438 0d8e 0123     		movs	r3, #1
 2439              	.L153:
 2440              		.loc 1 899 0
 2441 0d90 1846     		mov	r0, r3
 2442 0d92 05B0     		add	sp, sp, #20
 2443              		@ sp needed
 2444 0d94 5DF804FB 		ldr	pc, [sp], #4
 2445              		.cfi_endproc
 2446              	.LFE39:
 2447              		.size	LSM303AGR_MAG_W_ST, .-LSM303AGR_MAG_W_ST
 2448              		.align	2
 2449 0d98 AFF30080 		.p2align 4,,15
 2449      AFF30080 
 2450              		.global	LSM303AGR_MAG_R_ST
 2451              		.thumb
 2452              		.thumb_func
 2453              		.type	LSM303AGR_MAG_R_ST, %function
 2454              	LSM303AGR_MAG_R_ST:
 2455              	.LFB40:
 2456              		.loc 1 909 0
 2457              		.cfi_startproc
 2458              		@ args = 0, pretend = 0, frame = 8
 2459              		@ frame_needed = 0, uses_anonymous_args = 0
 2460 0da0 00B5     		push	{lr}
 2461              		.cfi_def_cfa_offset 4
 2462              		.cfi_offset 14, -4
 2463 0da2 83B0     		sub	sp, sp, #12
 2464              		.cfi_def_cfa_offset 16
 2465 0da4 0190     		str	r0, [sp, #4]
 2466 0da6 0091     		str	r1, [sp]
 2467              		.loc 1 910 0
 2468 0da8 0198     		ldr	r0, [sp, #4]
 2469 0daa 6221     		movs	r1, #98
 2470 0dac 009A     		ldr	r2, [sp]
 2471 0dae 0123     		movs	r3, #1
 2472 0db0 FFF7FEFF 		bl	LSM303AGR_MAG_ReadReg
 2473 0db4 0346     		mov	r3, r0
 2474 0db6 002B     		cmp	r3, #0
 2475 0db8 01D1     		bne	.L155
 2476              		.loc 1 911 0
 2477 0dba 0023     		movs	r3, #0
ARM GAS  /tmp/ccNUhamC.s 			page 45


 2478 0dbc 07E0     		b	.L156
 2479              	.L155:
 2480              		.loc 1 913 0
 2481 0dbe 009B     		ldr	r3, [sp]
 2482 0dc0 1B78     		ldrb	r3, [r3]	@ zero_extendqisi2
 2483 0dc2 03F00203 		and	r3, r3, #2
 2484 0dc6 DAB2     		uxtb	r2, r3
 2485 0dc8 009B     		ldr	r3, [sp]
 2486 0dca 1A70     		strb	r2, [r3]
 2487              		.loc 1 915 0
 2488 0dcc 0123     		movs	r3, #1
 2489              	.L156:
 2490              		.loc 1 916 0
 2491 0dce 1846     		mov	r0, r3
 2492 0dd0 03B0     		add	sp, sp, #12
 2493              		@ sp needed
 2494 0dd2 5DF804FB 		ldr	pc, [sp], #4
 2495              		.cfi_endproc
 2496              	.LFE40:
 2497              		.size	LSM303AGR_MAG_R_ST, .-LSM303AGR_MAG_R_ST
 2498 0dd6 00BF     		.align	2
 2499 0dd8 AFF30080 		.p2align 4,,15
 2499      AFF30080 
 2500              		.global	LSM303AGR_MAG_W_BLE
 2501              		.thumb
 2502              		.thumb_func
 2503              		.type	LSM303AGR_MAG_W_BLE, %function
 2504              	LSM303AGR_MAG_W_BLE:
 2505              	.LFB41:
 2506              		.loc 1 926 0
 2507              		.cfi_startproc
 2508              		@ args = 0, pretend = 0, frame = 16
 2509              		@ frame_needed = 0, uses_anonymous_args = 0
 2510 0de0 00B5     		push	{lr}
 2511              		.cfi_def_cfa_offset 4
 2512              		.cfi_offset 14, -4
 2513 0de2 85B0     		sub	sp, sp, #20
 2514              		.cfi_def_cfa_offset 24
 2515 0de4 0190     		str	r0, [sp, #4]
 2516 0de6 0B46     		mov	r3, r1
 2517 0de8 8DF80330 		strb	r3, [sp, #3]
 2518              		.loc 1 929 0
 2519 0dec 0DF10F03 		add	r3, sp, #15
 2520 0df0 0198     		ldr	r0, [sp, #4]
 2521 0df2 6221     		movs	r1, #98
 2522 0df4 1A46     		mov	r2, r3
 2523 0df6 0123     		movs	r3, #1
 2524 0df8 FFF7FEFF 		bl	LSM303AGR_MAG_ReadReg
 2525 0dfc 0346     		mov	r3, r0
 2526 0dfe 002B     		cmp	r3, #0
 2527 0e00 01D1     		bne	.L158
 2528              		.loc 1 930 0
 2529 0e02 0023     		movs	r3, #0
 2530 0e04 1CE0     		b	.L161
 2531              	.L158:
 2532              		.loc 1 932 0
 2533 0e06 9DF80F30 		ldrb	r3, [sp, #15]	@ zero_extendqisi2
ARM GAS  /tmp/ccNUhamC.s 			page 46


 2534 0e0a 23F00803 		bic	r3, r3, #8
 2535 0e0e DBB2     		uxtb	r3, r3
 2536 0e10 8DF80F30 		strb	r3, [sp, #15]
 2537              		.loc 1 933 0
 2538 0e14 9DF80F20 		ldrb	r2, [sp, #15]	@ zero_extendqisi2
 2539 0e18 9DF80330 		ldrb	r3, [sp, #3]
 2540 0e1c 1343     		orrs	r3, r3, r2
 2541 0e1e DBB2     		uxtb	r3, r3
 2542 0e20 8DF80F30 		strb	r3, [sp, #15]
 2543              		.loc 1 935 0
 2544 0e24 0DF10F03 		add	r3, sp, #15
 2545 0e28 0198     		ldr	r0, [sp, #4]
 2546 0e2a 6221     		movs	r1, #98
 2547 0e2c 1A46     		mov	r2, r3
 2548 0e2e 0123     		movs	r3, #1
 2549 0e30 FFF7FEFF 		bl	LSM303AGR_MAG_WriteReg
 2550 0e34 0346     		mov	r3, r0
 2551 0e36 002B     		cmp	r3, #0
 2552 0e38 01D1     		bne	.L160
 2553              		.loc 1 936 0
 2554 0e3a 0023     		movs	r3, #0
 2555 0e3c 00E0     		b	.L161
 2556              	.L160:
 2557              		.loc 1 938 0
 2558 0e3e 0123     		movs	r3, #1
 2559              	.L161:
 2560              		.loc 1 939 0
 2561 0e40 1846     		mov	r0, r3
 2562 0e42 05B0     		add	sp, sp, #20
 2563              		@ sp needed
 2564 0e44 5DF804FB 		ldr	pc, [sp], #4
 2565              		.cfi_endproc
 2566              	.LFE41:
 2567              		.size	LSM303AGR_MAG_W_BLE, .-LSM303AGR_MAG_W_BLE
 2568              		.align	2
 2569 0e48 AFF30080 		.p2align 4,,15
 2569      AFF30080 
 2570              		.global	LSM303AGR_MAG_R_BLE
 2571              		.thumb
 2572              		.thumb_func
 2573              		.type	LSM303AGR_MAG_R_BLE, %function
 2574              	LSM303AGR_MAG_R_BLE:
 2575              	.LFB42:
 2576              		.loc 1 949 0
 2577              		.cfi_startproc
 2578              		@ args = 0, pretend = 0, frame = 8
 2579              		@ frame_needed = 0, uses_anonymous_args = 0
 2580 0e50 00B5     		push	{lr}
 2581              		.cfi_def_cfa_offset 4
 2582              		.cfi_offset 14, -4
 2583 0e52 83B0     		sub	sp, sp, #12
 2584              		.cfi_def_cfa_offset 16
 2585 0e54 0190     		str	r0, [sp, #4]
 2586 0e56 0091     		str	r1, [sp]
 2587              		.loc 1 950 0
 2588 0e58 0198     		ldr	r0, [sp, #4]
 2589 0e5a 6221     		movs	r1, #98
ARM GAS  /tmp/ccNUhamC.s 			page 47


 2590 0e5c 009A     		ldr	r2, [sp]
 2591 0e5e 0123     		movs	r3, #1
 2592 0e60 FFF7FEFF 		bl	LSM303AGR_MAG_ReadReg
 2593 0e64 0346     		mov	r3, r0
 2594 0e66 002B     		cmp	r3, #0
 2595 0e68 01D1     		bne	.L163
 2596              		.loc 1 951 0
 2597 0e6a 0023     		movs	r3, #0
 2598 0e6c 07E0     		b	.L164
 2599              	.L163:
 2600              		.loc 1 953 0
 2601 0e6e 009B     		ldr	r3, [sp]
 2602 0e70 1B78     		ldrb	r3, [r3]	@ zero_extendqisi2
 2603 0e72 03F00803 		and	r3, r3, #8
 2604 0e76 DAB2     		uxtb	r2, r3
 2605 0e78 009B     		ldr	r3, [sp]
 2606 0e7a 1A70     		strb	r2, [r3]
 2607              		.loc 1 955 0
 2608 0e7c 0123     		movs	r3, #1
 2609              	.L164:
 2610              		.loc 1 956 0
 2611 0e7e 1846     		mov	r0, r3
 2612 0e80 03B0     		add	sp, sp, #12
 2613              		@ sp needed
 2614 0e82 5DF804FB 		ldr	pc, [sp], #4
 2615              		.cfi_endproc
 2616              	.LFE42:
 2617              		.size	LSM303AGR_MAG_R_BLE, .-LSM303AGR_MAG_R_BLE
 2618 0e86 00BF     		.align	2
 2619 0e88 AFF30080 		.p2align 4,,15
 2619      AFF30080 
 2620              		.global	LSM303AGR_MAG_W_I2C_DIS
 2621              		.thumb
 2622              		.thumb_func
 2623              		.type	LSM303AGR_MAG_W_I2C_DIS, %function
 2624              	LSM303AGR_MAG_W_I2C_DIS:
 2625              	.LFB43:
 2626              		.loc 1 966 0
 2627              		.cfi_startproc
 2628              		@ args = 0, pretend = 0, frame = 16
 2629              		@ frame_needed = 0, uses_anonymous_args = 0
 2630 0e90 00B5     		push	{lr}
 2631              		.cfi_def_cfa_offset 4
 2632              		.cfi_offset 14, -4
 2633 0e92 85B0     		sub	sp, sp, #20
 2634              		.cfi_def_cfa_offset 24
 2635 0e94 0190     		str	r0, [sp, #4]
 2636 0e96 0B46     		mov	r3, r1
 2637 0e98 8DF80330 		strb	r3, [sp, #3]
 2638              		.loc 1 969 0
 2639 0e9c 0DF10F03 		add	r3, sp, #15
 2640 0ea0 0198     		ldr	r0, [sp, #4]
 2641 0ea2 6221     		movs	r1, #98
 2642 0ea4 1A46     		mov	r2, r3
 2643 0ea6 0123     		movs	r3, #1
 2644 0ea8 FFF7FEFF 		bl	LSM303AGR_MAG_ReadReg
 2645 0eac 0346     		mov	r3, r0
ARM GAS  /tmp/ccNUhamC.s 			page 48


 2646 0eae 002B     		cmp	r3, #0
 2647 0eb0 01D1     		bne	.L166
 2648              		.loc 1 970 0
 2649 0eb2 0023     		movs	r3, #0
 2650 0eb4 1CE0     		b	.L169
 2651              	.L166:
 2652              		.loc 1 972 0
 2653 0eb6 9DF80F30 		ldrb	r3, [sp, #15]	@ zero_extendqisi2
 2654 0eba 23F02003 		bic	r3, r3, #32
 2655 0ebe DBB2     		uxtb	r3, r3
 2656 0ec0 8DF80F30 		strb	r3, [sp, #15]
 2657              		.loc 1 973 0
 2658 0ec4 9DF80F20 		ldrb	r2, [sp, #15]	@ zero_extendqisi2
 2659 0ec8 9DF80330 		ldrb	r3, [sp, #3]
 2660 0ecc 1343     		orrs	r3, r3, r2
 2661 0ece DBB2     		uxtb	r3, r3
 2662 0ed0 8DF80F30 		strb	r3, [sp, #15]
 2663              		.loc 1 975 0
 2664 0ed4 0DF10F03 		add	r3, sp, #15
 2665 0ed8 0198     		ldr	r0, [sp, #4]
 2666 0eda 6221     		movs	r1, #98
 2667 0edc 1A46     		mov	r2, r3
 2668 0ede 0123     		movs	r3, #1
 2669 0ee0 FFF7FEFF 		bl	LSM303AGR_MAG_WriteReg
 2670 0ee4 0346     		mov	r3, r0
 2671 0ee6 002B     		cmp	r3, #0
 2672 0ee8 01D1     		bne	.L168
 2673              		.loc 1 976 0
 2674 0eea 0023     		movs	r3, #0
 2675 0eec 00E0     		b	.L169
 2676              	.L168:
 2677              		.loc 1 978 0
 2678 0eee 0123     		movs	r3, #1
 2679              	.L169:
 2680              		.loc 1 979 0
 2681 0ef0 1846     		mov	r0, r3
 2682 0ef2 05B0     		add	sp, sp, #20
 2683              		@ sp needed
 2684 0ef4 5DF804FB 		ldr	pc, [sp], #4
 2685              		.cfi_endproc
 2686              	.LFE43:
 2687              		.size	LSM303AGR_MAG_W_I2C_DIS, .-LSM303AGR_MAG_W_I2C_DIS
 2688              		.align	2
 2689 0ef8 AFF30080 		.p2align 4,,15
 2689      AFF30080 
 2690              		.global	LSM303AGR_MAG_R_I2C_DIS
 2691              		.thumb
 2692              		.thumb_func
 2693              		.type	LSM303AGR_MAG_R_I2C_DIS, %function
 2694              	LSM303AGR_MAG_R_I2C_DIS:
 2695              	.LFB44:
 2696              		.loc 1 989 0
 2697              		.cfi_startproc
 2698              		@ args = 0, pretend = 0, frame = 8
 2699              		@ frame_needed = 0, uses_anonymous_args = 0
 2700 0f00 00B5     		push	{lr}
 2701              		.cfi_def_cfa_offset 4
ARM GAS  /tmp/ccNUhamC.s 			page 49


 2702              		.cfi_offset 14, -4
 2703 0f02 83B0     		sub	sp, sp, #12
 2704              		.cfi_def_cfa_offset 16
 2705 0f04 0190     		str	r0, [sp, #4]
 2706 0f06 0091     		str	r1, [sp]
 2707              		.loc 1 990 0
 2708 0f08 0198     		ldr	r0, [sp, #4]
 2709 0f0a 6221     		movs	r1, #98
 2710 0f0c 009A     		ldr	r2, [sp]
 2711 0f0e 0123     		movs	r3, #1
 2712 0f10 FFF7FEFF 		bl	LSM303AGR_MAG_ReadReg
 2713 0f14 0346     		mov	r3, r0
 2714 0f16 002B     		cmp	r3, #0
 2715 0f18 01D1     		bne	.L171
 2716              		.loc 1 991 0
 2717 0f1a 0023     		movs	r3, #0
 2718 0f1c 07E0     		b	.L172
 2719              	.L171:
 2720              		.loc 1 993 0
 2721 0f1e 009B     		ldr	r3, [sp]
 2722 0f20 1B78     		ldrb	r3, [r3]	@ zero_extendqisi2
 2723 0f22 03F02003 		and	r3, r3, #32
 2724 0f26 DAB2     		uxtb	r2, r3
 2725 0f28 009B     		ldr	r3, [sp]
 2726 0f2a 1A70     		strb	r2, [r3]
 2727              		.loc 1 995 0
 2728 0f2c 0123     		movs	r3, #1
 2729              	.L172:
 2730              		.loc 1 996 0
 2731 0f2e 1846     		mov	r0, r3
 2732 0f30 03B0     		add	sp, sp, #12
 2733              		@ sp needed
 2734 0f32 5DF804FB 		ldr	pc, [sp], #4
 2735              		.cfi_endproc
 2736              	.LFE44:
 2737              		.size	LSM303AGR_MAG_R_I2C_DIS, .-LSM303AGR_MAG_R_I2C_DIS
 2738 0f36 00BF     		.align	2
 2739 0f38 AFF30080 		.p2align 4,,15
 2739      AFF30080 
 2740              		.global	LSM303AGR_MAG_W_INT_MAG_PIN
 2741              		.thumb
 2742              		.thumb_func
 2743              		.type	LSM303AGR_MAG_W_INT_MAG_PIN, %function
 2744              	LSM303AGR_MAG_W_INT_MAG_PIN:
 2745              	.LFB45:
 2746              		.loc 1 1006 0
 2747              		.cfi_startproc
 2748              		@ args = 0, pretend = 0, frame = 16
 2749              		@ frame_needed = 0, uses_anonymous_args = 0
 2750 0f40 00B5     		push	{lr}
 2751              		.cfi_def_cfa_offset 4
 2752              		.cfi_offset 14, -4
 2753 0f42 85B0     		sub	sp, sp, #20
 2754              		.cfi_def_cfa_offset 24
 2755 0f44 0190     		str	r0, [sp, #4]
 2756 0f46 0B46     		mov	r3, r1
 2757 0f48 8DF80330 		strb	r3, [sp, #3]
ARM GAS  /tmp/ccNUhamC.s 			page 50


 2758              		.loc 1 1009 0
 2759 0f4c 0DF10F03 		add	r3, sp, #15
 2760 0f50 0198     		ldr	r0, [sp, #4]
 2761 0f52 6221     		movs	r1, #98
 2762 0f54 1A46     		mov	r2, r3
 2763 0f56 0123     		movs	r3, #1
 2764 0f58 FFF7FEFF 		bl	LSM303AGR_MAG_ReadReg
 2765 0f5c 0346     		mov	r3, r0
 2766 0f5e 002B     		cmp	r3, #0
 2767 0f60 01D1     		bne	.L174
 2768              		.loc 1 1010 0
 2769 0f62 0023     		movs	r3, #0
 2770 0f64 1CE0     		b	.L177
 2771              	.L174:
 2772              		.loc 1 1012 0
 2773 0f66 9DF80F30 		ldrb	r3, [sp, #15]	@ zero_extendqisi2
 2774 0f6a 23F04003 		bic	r3, r3, #64
 2775 0f6e DBB2     		uxtb	r3, r3
 2776 0f70 8DF80F30 		strb	r3, [sp, #15]
 2777              		.loc 1 1013 0
 2778 0f74 9DF80F20 		ldrb	r2, [sp, #15]	@ zero_extendqisi2
 2779 0f78 9DF80330 		ldrb	r3, [sp, #3]
 2780 0f7c 1343     		orrs	r3, r3, r2
 2781 0f7e DBB2     		uxtb	r3, r3
 2782 0f80 8DF80F30 		strb	r3, [sp, #15]
 2783              		.loc 1 1015 0
 2784 0f84 0DF10F03 		add	r3, sp, #15
 2785 0f88 0198     		ldr	r0, [sp, #4]
 2786 0f8a 6221     		movs	r1, #98
 2787 0f8c 1A46     		mov	r2, r3
 2788 0f8e 0123     		movs	r3, #1
 2789 0f90 FFF7FEFF 		bl	LSM303AGR_MAG_WriteReg
 2790 0f94 0346     		mov	r3, r0
 2791 0f96 002B     		cmp	r3, #0
 2792 0f98 01D1     		bne	.L176
 2793              		.loc 1 1016 0
 2794 0f9a 0023     		movs	r3, #0
 2795 0f9c 00E0     		b	.L177
 2796              	.L176:
 2797              		.loc 1 1018 0
 2798 0f9e 0123     		movs	r3, #1
 2799              	.L177:
 2800              		.loc 1 1019 0
 2801 0fa0 1846     		mov	r0, r3
 2802 0fa2 05B0     		add	sp, sp, #20
 2803              		@ sp needed
 2804 0fa4 5DF804FB 		ldr	pc, [sp], #4
 2805              		.cfi_endproc
 2806              	.LFE45:
 2807              		.size	LSM303AGR_MAG_W_INT_MAG_PIN, .-LSM303AGR_MAG_W_INT_MAG_PIN
 2808              		.align	2
 2809 0fa8 AFF30080 		.p2align 4,,15
 2809      AFF30080 
 2810              		.global	LSM303AGR_MAG_R_INT_MAG_PIN
 2811              		.thumb
 2812              		.thumb_func
 2813              		.type	LSM303AGR_MAG_R_INT_MAG_PIN, %function
ARM GAS  /tmp/ccNUhamC.s 			page 51


 2814              	LSM303AGR_MAG_R_INT_MAG_PIN:
 2815              	.LFB46:
 2816              		.loc 1 1029 0
 2817              		.cfi_startproc
 2818              		@ args = 0, pretend = 0, frame = 8
 2819              		@ frame_needed = 0, uses_anonymous_args = 0
 2820 0fb0 00B5     		push	{lr}
 2821              		.cfi_def_cfa_offset 4
 2822              		.cfi_offset 14, -4
 2823 0fb2 83B0     		sub	sp, sp, #12
 2824              		.cfi_def_cfa_offset 16
 2825 0fb4 0190     		str	r0, [sp, #4]
 2826 0fb6 0091     		str	r1, [sp]
 2827              		.loc 1 1030 0
 2828 0fb8 0198     		ldr	r0, [sp, #4]
 2829 0fba 6221     		movs	r1, #98
 2830 0fbc 009A     		ldr	r2, [sp]
 2831 0fbe 0123     		movs	r3, #1
 2832 0fc0 FFF7FEFF 		bl	LSM303AGR_MAG_ReadReg
 2833 0fc4 0346     		mov	r3, r0
 2834 0fc6 002B     		cmp	r3, #0
 2835 0fc8 01D1     		bne	.L179
 2836              		.loc 1 1031 0
 2837 0fca 0023     		movs	r3, #0
 2838 0fcc 07E0     		b	.L180
 2839              	.L179:
 2840              		.loc 1 1033 0
 2841 0fce 009B     		ldr	r3, [sp]
 2842 0fd0 1B78     		ldrb	r3, [r3]	@ zero_extendqisi2
 2843 0fd2 03F04003 		and	r3, r3, #64
 2844 0fd6 DAB2     		uxtb	r2, r3
 2845 0fd8 009B     		ldr	r3, [sp]
 2846 0fda 1A70     		strb	r2, [r3]
 2847              		.loc 1 1035 0
 2848 0fdc 0123     		movs	r3, #1
 2849              	.L180:
 2850              		.loc 1 1036 0
 2851 0fde 1846     		mov	r0, r3
 2852 0fe0 03B0     		add	sp, sp, #12
 2853              		@ sp needed
 2854 0fe2 5DF804FB 		ldr	pc, [sp], #4
 2855              		.cfi_endproc
 2856              	.LFE46:
 2857              		.size	LSM303AGR_MAG_R_INT_MAG_PIN, .-LSM303AGR_MAG_R_INT_MAG_PIN
 2858 0fe6 00BF     		.align	2
 2859 0fe8 AFF30080 		.p2align 4,,15
 2859      AFF30080 
 2860              		.global	LSM303AGR_MAG_W_IEN
 2861              		.thumb
 2862              		.thumb_func
 2863              		.type	LSM303AGR_MAG_W_IEN, %function
 2864              	LSM303AGR_MAG_W_IEN:
 2865              	.LFB47:
 2866              		.loc 1 1046 0
 2867              		.cfi_startproc
 2868              		@ args = 0, pretend = 0, frame = 16
 2869              		@ frame_needed = 0, uses_anonymous_args = 0
ARM GAS  /tmp/ccNUhamC.s 			page 52


 2870 0ff0 00B5     		push	{lr}
 2871              		.cfi_def_cfa_offset 4
 2872              		.cfi_offset 14, -4
 2873 0ff2 85B0     		sub	sp, sp, #20
 2874              		.cfi_def_cfa_offset 24
 2875 0ff4 0190     		str	r0, [sp, #4]
 2876 0ff6 0B46     		mov	r3, r1
 2877 0ff8 8DF80330 		strb	r3, [sp, #3]
 2878              		.loc 1 1049 0
 2879 0ffc 0DF10F03 		add	r3, sp, #15
 2880 1000 0198     		ldr	r0, [sp, #4]
 2881 1002 6321     		movs	r1, #99
 2882 1004 1A46     		mov	r2, r3
 2883 1006 0123     		movs	r3, #1
 2884 1008 FFF7FEFF 		bl	LSM303AGR_MAG_ReadReg
 2885 100c 0346     		mov	r3, r0
 2886 100e 002B     		cmp	r3, #0
 2887 1010 01D1     		bne	.L182
 2888              		.loc 1 1050 0
 2889 1012 0023     		movs	r3, #0
 2890 1014 1CE0     		b	.L185
 2891              	.L182:
 2892              		.loc 1 1052 0
 2893 1016 9DF80F30 		ldrb	r3, [sp, #15]	@ zero_extendqisi2
 2894 101a 23F00103 		bic	r3, r3, #1
 2895 101e DBB2     		uxtb	r3, r3
 2896 1020 8DF80F30 		strb	r3, [sp, #15]
 2897              		.loc 1 1053 0
 2898 1024 9DF80F20 		ldrb	r2, [sp, #15]	@ zero_extendqisi2
 2899 1028 9DF80330 		ldrb	r3, [sp, #3]
 2900 102c 1343     		orrs	r3, r3, r2
 2901 102e DBB2     		uxtb	r3, r3
 2902 1030 8DF80F30 		strb	r3, [sp, #15]
 2903              		.loc 1 1055 0
 2904 1034 0DF10F03 		add	r3, sp, #15
 2905 1038 0198     		ldr	r0, [sp, #4]
 2906 103a 6321     		movs	r1, #99
 2907 103c 1A46     		mov	r2, r3
 2908 103e 0123     		movs	r3, #1
 2909 1040 FFF7FEFF 		bl	LSM303AGR_MAG_WriteReg
 2910 1044 0346     		mov	r3, r0
 2911 1046 002B     		cmp	r3, #0
 2912 1048 01D1     		bne	.L184
 2913              		.loc 1 1056 0
 2914 104a 0023     		movs	r3, #0
 2915 104c 00E0     		b	.L185
 2916              	.L184:
 2917              		.loc 1 1058 0
 2918 104e 0123     		movs	r3, #1
 2919              	.L185:
 2920              		.loc 1 1059 0
 2921 1050 1846     		mov	r0, r3
 2922 1052 05B0     		add	sp, sp, #20
 2923              		@ sp needed
 2924 1054 5DF804FB 		ldr	pc, [sp], #4
 2925              		.cfi_endproc
 2926              	.LFE47:
ARM GAS  /tmp/ccNUhamC.s 			page 53


 2927              		.size	LSM303AGR_MAG_W_IEN, .-LSM303AGR_MAG_W_IEN
 2928              		.align	2
 2929 1058 AFF30080 		.p2align 4,,15
 2929      AFF30080 
 2930              		.global	LSM303AGR_MAG_R_IEN
 2931              		.thumb
 2932              		.thumb_func
 2933              		.type	LSM303AGR_MAG_R_IEN, %function
 2934              	LSM303AGR_MAG_R_IEN:
 2935              	.LFB48:
 2936              		.loc 1 1069 0
 2937              		.cfi_startproc
 2938              		@ args = 0, pretend = 0, frame = 8
 2939              		@ frame_needed = 0, uses_anonymous_args = 0
 2940 1060 00B5     		push	{lr}
 2941              		.cfi_def_cfa_offset 4
 2942              		.cfi_offset 14, -4
 2943 1062 83B0     		sub	sp, sp, #12
 2944              		.cfi_def_cfa_offset 16
 2945 1064 0190     		str	r0, [sp, #4]
 2946 1066 0091     		str	r1, [sp]
 2947              		.loc 1 1070 0
 2948 1068 0198     		ldr	r0, [sp, #4]
 2949 106a 6321     		movs	r1, #99
 2950 106c 009A     		ldr	r2, [sp]
 2951 106e 0123     		movs	r3, #1
 2952 1070 FFF7FEFF 		bl	LSM303AGR_MAG_ReadReg
 2953 1074 0346     		mov	r3, r0
 2954 1076 002B     		cmp	r3, #0
 2955 1078 01D1     		bne	.L187
 2956              		.loc 1 1071 0
 2957 107a 0023     		movs	r3, #0
 2958 107c 07E0     		b	.L188
 2959              	.L187:
 2960              		.loc 1 1073 0
 2961 107e 009B     		ldr	r3, [sp]
 2962 1080 1B78     		ldrb	r3, [r3]	@ zero_extendqisi2
 2963 1082 03F00103 		and	r3, r3, #1
 2964 1086 DAB2     		uxtb	r2, r3
 2965 1088 009B     		ldr	r3, [sp]
 2966 108a 1A70     		strb	r2, [r3]
 2967              		.loc 1 1075 0
 2968 108c 0123     		movs	r3, #1
 2969              	.L188:
 2970              		.loc 1 1076 0
 2971 108e 1846     		mov	r0, r3
 2972 1090 03B0     		add	sp, sp, #12
 2973              		@ sp needed
 2974 1092 5DF804FB 		ldr	pc, [sp], #4
 2975              		.cfi_endproc
 2976              	.LFE48:
 2977              		.size	LSM303AGR_MAG_R_IEN, .-LSM303AGR_MAG_R_IEN
 2978 1096 00BF     		.align	2
 2979 1098 AFF30080 		.p2align 4,,15
 2979      AFF30080 
 2980              		.global	LSM303AGR_MAG_W_IEL
 2981              		.thumb
ARM GAS  /tmp/ccNUhamC.s 			page 54


 2982              		.thumb_func
 2983              		.type	LSM303AGR_MAG_W_IEL, %function
 2984              	LSM303AGR_MAG_W_IEL:
 2985              	.LFB49:
 2986              		.loc 1 1086 0
 2987              		.cfi_startproc
 2988              		@ args = 0, pretend = 0, frame = 16
 2989              		@ frame_needed = 0, uses_anonymous_args = 0
 2990 10a0 00B5     		push	{lr}
 2991              		.cfi_def_cfa_offset 4
 2992              		.cfi_offset 14, -4
 2993 10a2 85B0     		sub	sp, sp, #20
 2994              		.cfi_def_cfa_offset 24
 2995 10a4 0190     		str	r0, [sp, #4]
 2996 10a6 0B46     		mov	r3, r1
 2997 10a8 8DF80330 		strb	r3, [sp, #3]
 2998              		.loc 1 1089 0
 2999 10ac 0DF10F03 		add	r3, sp, #15
 3000 10b0 0198     		ldr	r0, [sp, #4]
 3001 10b2 6321     		movs	r1, #99
 3002 10b4 1A46     		mov	r2, r3
 3003 10b6 0123     		movs	r3, #1
 3004 10b8 FFF7FEFF 		bl	LSM303AGR_MAG_ReadReg
 3005 10bc 0346     		mov	r3, r0
 3006 10be 002B     		cmp	r3, #0
 3007 10c0 01D1     		bne	.L190
 3008              		.loc 1 1090 0
 3009 10c2 0023     		movs	r3, #0
 3010 10c4 1CE0     		b	.L193
 3011              	.L190:
 3012              		.loc 1 1092 0
 3013 10c6 9DF80F30 		ldrb	r3, [sp, #15]	@ zero_extendqisi2
 3014 10ca 23F00203 		bic	r3, r3, #2
 3015 10ce DBB2     		uxtb	r3, r3
 3016 10d0 8DF80F30 		strb	r3, [sp, #15]
 3017              		.loc 1 1093 0
 3018 10d4 9DF80F20 		ldrb	r2, [sp, #15]	@ zero_extendqisi2
 3019 10d8 9DF80330 		ldrb	r3, [sp, #3]
 3020 10dc 1343     		orrs	r3, r3, r2
 3021 10de DBB2     		uxtb	r3, r3
 3022 10e0 8DF80F30 		strb	r3, [sp, #15]
 3023              		.loc 1 1095 0
 3024 10e4 0DF10F03 		add	r3, sp, #15
 3025 10e8 0198     		ldr	r0, [sp, #4]
 3026 10ea 6321     		movs	r1, #99
 3027 10ec 1A46     		mov	r2, r3
 3028 10ee 0123     		movs	r3, #1
 3029 10f0 FFF7FEFF 		bl	LSM303AGR_MAG_WriteReg
 3030 10f4 0346     		mov	r3, r0
 3031 10f6 002B     		cmp	r3, #0
 3032 10f8 01D1     		bne	.L192
 3033              		.loc 1 1096 0
 3034 10fa 0023     		movs	r3, #0
 3035 10fc 00E0     		b	.L193
 3036              	.L192:
 3037              		.loc 1 1098 0
 3038 10fe 0123     		movs	r3, #1
ARM GAS  /tmp/ccNUhamC.s 			page 55


 3039              	.L193:
 3040              		.loc 1 1099 0
 3041 1100 1846     		mov	r0, r3
 3042 1102 05B0     		add	sp, sp, #20
 3043              		@ sp needed
 3044 1104 5DF804FB 		ldr	pc, [sp], #4
 3045              		.cfi_endproc
 3046              	.LFE49:
 3047              		.size	LSM303AGR_MAG_W_IEL, .-LSM303AGR_MAG_W_IEL
 3048              		.align	2
 3049 1108 AFF30080 		.p2align 4,,15
 3049      AFF30080 
 3050              		.global	LSM303AGR_MAG_R_IEL
 3051              		.thumb
 3052              		.thumb_func
 3053              		.type	LSM303AGR_MAG_R_IEL, %function
 3054              	LSM303AGR_MAG_R_IEL:
 3055              	.LFB50:
 3056              		.loc 1 1109 0
 3057              		.cfi_startproc
 3058              		@ args = 0, pretend = 0, frame = 8
 3059              		@ frame_needed = 0, uses_anonymous_args = 0
 3060 1110 00B5     		push	{lr}
 3061              		.cfi_def_cfa_offset 4
 3062              		.cfi_offset 14, -4
 3063 1112 83B0     		sub	sp, sp, #12
 3064              		.cfi_def_cfa_offset 16
 3065 1114 0190     		str	r0, [sp, #4]
 3066 1116 0091     		str	r1, [sp]
 3067              		.loc 1 1110 0
 3068 1118 0198     		ldr	r0, [sp, #4]
 3069 111a 6321     		movs	r1, #99
 3070 111c 009A     		ldr	r2, [sp]
 3071 111e 0123     		movs	r3, #1
 3072 1120 FFF7FEFF 		bl	LSM303AGR_MAG_ReadReg
 3073 1124 0346     		mov	r3, r0
 3074 1126 002B     		cmp	r3, #0
 3075 1128 01D1     		bne	.L195
 3076              		.loc 1 1111 0
 3077 112a 0023     		movs	r3, #0
 3078 112c 07E0     		b	.L196
 3079              	.L195:
 3080              		.loc 1 1113 0
 3081 112e 009B     		ldr	r3, [sp]
 3082 1130 1B78     		ldrb	r3, [r3]	@ zero_extendqisi2
 3083 1132 03F00203 		and	r3, r3, #2
 3084 1136 DAB2     		uxtb	r2, r3
 3085 1138 009B     		ldr	r3, [sp]
 3086 113a 1A70     		strb	r2, [r3]
 3087              		.loc 1 1115 0
 3088 113c 0123     		movs	r3, #1
 3089              	.L196:
 3090              		.loc 1 1116 0
 3091 113e 1846     		mov	r0, r3
 3092 1140 03B0     		add	sp, sp, #12
 3093              		@ sp needed
 3094 1142 5DF804FB 		ldr	pc, [sp], #4
ARM GAS  /tmp/ccNUhamC.s 			page 56


 3095              		.cfi_endproc
 3096              	.LFE50:
 3097              		.size	LSM303AGR_MAG_R_IEL, .-LSM303AGR_MAG_R_IEL
 3098 1146 00BF     		.align	2
 3099 1148 AFF30080 		.p2align 4,,15
 3099      AFF30080 
 3100              		.global	LSM303AGR_MAG_W_IEA
 3101              		.thumb
 3102              		.thumb_func
 3103              		.type	LSM303AGR_MAG_W_IEA, %function
 3104              	LSM303AGR_MAG_W_IEA:
 3105              	.LFB51:
 3106              		.loc 1 1126 0
 3107              		.cfi_startproc
 3108              		@ args = 0, pretend = 0, frame = 16
 3109              		@ frame_needed = 0, uses_anonymous_args = 0
 3110 1150 00B5     		push	{lr}
 3111              		.cfi_def_cfa_offset 4
 3112              		.cfi_offset 14, -4
 3113 1152 85B0     		sub	sp, sp, #20
 3114              		.cfi_def_cfa_offset 24
 3115 1154 0190     		str	r0, [sp, #4]
 3116 1156 0B46     		mov	r3, r1
 3117 1158 8DF80330 		strb	r3, [sp, #3]
 3118              		.loc 1 1129 0
 3119 115c 0DF10F03 		add	r3, sp, #15
 3120 1160 0198     		ldr	r0, [sp, #4]
 3121 1162 6321     		movs	r1, #99
 3122 1164 1A46     		mov	r2, r3
 3123 1166 0123     		movs	r3, #1
 3124 1168 FFF7FEFF 		bl	LSM303AGR_MAG_ReadReg
 3125 116c 0346     		mov	r3, r0
 3126 116e 002B     		cmp	r3, #0
 3127 1170 01D1     		bne	.L198
 3128              		.loc 1 1130 0
 3129 1172 0023     		movs	r3, #0
 3130 1174 1CE0     		b	.L201
 3131              	.L198:
 3132              		.loc 1 1132 0
 3133 1176 9DF80F30 		ldrb	r3, [sp, #15]	@ zero_extendqisi2
 3134 117a 23F00403 		bic	r3, r3, #4
 3135 117e DBB2     		uxtb	r3, r3
 3136 1180 8DF80F30 		strb	r3, [sp, #15]
 3137              		.loc 1 1133 0
 3138 1184 9DF80F20 		ldrb	r2, [sp, #15]	@ zero_extendqisi2
 3139 1188 9DF80330 		ldrb	r3, [sp, #3]
 3140 118c 1343     		orrs	r3, r3, r2
 3141 118e DBB2     		uxtb	r3, r3
 3142 1190 8DF80F30 		strb	r3, [sp, #15]
 3143              		.loc 1 1135 0
 3144 1194 0DF10F03 		add	r3, sp, #15
 3145 1198 0198     		ldr	r0, [sp, #4]
 3146 119a 6321     		movs	r1, #99
 3147 119c 1A46     		mov	r2, r3
 3148 119e 0123     		movs	r3, #1
 3149 11a0 FFF7FEFF 		bl	LSM303AGR_MAG_WriteReg
 3150 11a4 0346     		mov	r3, r0
ARM GAS  /tmp/ccNUhamC.s 			page 57


 3151 11a6 002B     		cmp	r3, #0
 3152 11a8 01D1     		bne	.L200
 3153              		.loc 1 1136 0
 3154 11aa 0023     		movs	r3, #0
 3155 11ac 00E0     		b	.L201
 3156              	.L200:
 3157              		.loc 1 1138 0
 3158 11ae 0123     		movs	r3, #1
 3159              	.L201:
 3160              		.loc 1 1139 0
 3161 11b0 1846     		mov	r0, r3
 3162 11b2 05B0     		add	sp, sp, #20
 3163              		@ sp needed
 3164 11b4 5DF804FB 		ldr	pc, [sp], #4
 3165              		.cfi_endproc
 3166              	.LFE51:
 3167              		.size	LSM303AGR_MAG_W_IEA, .-LSM303AGR_MAG_W_IEA
 3168              		.align	2
 3169 11b8 AFF30080 		.p2align 4,,15
 3169      AFF30080 
 3170              		.global	LSM303AGR_MAG_R_IEA
 3171              		.thumb
 3172              		.thumb_func
 3173              		.type	LSM303AGR_MAG_R_IEA, %function
 3174              	LSM303AGR_MAG_R_IEA:
 3175              	.LFB52:
 3176              		.loc 1 1149 0
 3177              		.cfi_startproc
 3178              		@ args = 0, pretend = 0, frame = 8
 3179              		@ frame_needed = 0, uses_anonymous_args = 0
 3180 11c0 00B5     		push	{lr}
 3181              		.cfi_def_cfa_offset 4
 3182              		.cfi_offset 14, -4
 3183 11c2 83B0     		sub	sp, sp, #12
 3184              		.cfi_def_cfa_offset 16
 3185 11c4 0190     		str	r0, [sp, #4]
 3186 11c6 0091     		str	r1, [sp]
 3187              		.loc 1 1150 0
 3188 11c8 0198     		ldr	r0, [sp, #4]
 3189 11ca 6321     		movs	r1, #99
 3190 11cc 009A     		ldr	r2, [sp]
 3191 11ce 0123     		movs	r3, #1
 3192 11d0 FFF7FEFF 		bl	LSM303AGR_MAG_ReadReg
 3193 11d4 0346     		mov	r3, r0
 3194 11d6 002B     		cmp	r3, #0
 3195 11d8 01D1     		bne	.L203
 3196              		.loc 1 1151 0
 3197 11da 0023     		movs	r3, #0
 3198 11dc 07E0     		b	.L204
 3199              	.L203:
 3200              		.loc 1 1153 0
 3201 11de 009B     		ldr	r3, [sp]
 3202 11e0 1B78     		ldrb	r3, [r3]	@ zero_extendqisi2
 3203 11e2 03F00403 		and	r3, r3, #4
 3204 11e6 DAB2     		uxtb	r2, r3
 3205 11e8 009B     		ldr	r3, [sp]
 3206 11ea 1A70     		strb	r2, [r3]
ARM GAS  /tmp/ccNUhamC.s 			page 58


 3207              		.loc 1 1155 0
 3208 11ec 0123     		movs	r3, #1
 3209              	.L204:
 3210              		.loc 1 1156 0
 3211 11ee 1846     		mov	r0, r3
 3212 11f0 03B0     		add	sp, sp, #12
 3213              		@ sp needed
 3214 11f2 5DF804FB 		ldr	pc, [sp], #4
 3215              		.cfi_endproc
 3216              	.LFE52:
 3217              		.size	LSM303AGR_MAG_R_IEA, .-LSM303AGR_MAG_R_IEA
 3218 11f6 00BF     		.align	2
 3219 11f8 AFF30080 		.p2align 4,,15
 3219      AFF30080 
 3220              		.global	LSM303AGR_MAG_W_ZIEN
 3221              		.thumb
 3222              		.thumb_func
 3223              		.type	LSM303AGR_MAG_W_ZIEN, %function
 3224              	LSM303AGR_MAG_W_ZIEN:
 3225              	.LFB53:
 3226              		.loc 1 1166 0
 3227              		.cfi_startproc
 3228              		@ args = 0, pretend = 0, frame = 16
 3229              		@ frame_needed = 0, uses_anonymous_args = 0
 3230 1200 00B5     		push	{lr}
 3231              		.cfi_def_cfa_offset 4
 3232              		.cfi_offset 14, -4
 3233 1202 85B0     		sub	sp, sp, #20
 3234              		.cfi_def_cfa_offset 24
 3235 1204 0190     		str	r0, [sp, #4]
 3236 1206 0B46     		mov	r3, r1
 3237 1208 8DF80330 		strb	r3, [sp, #3]
 3238              		.loc 1 1169 0
 3239 120c 0DF10F03 		add	r3, sp, #15
 3240 1210 0198     		ldr	r0, [sp, #4]
 3241 1212 6321     		movs	r1, #99
 3242 1214 1A46     		mov	r2, r3
 3243 1216 0123     		movs	r3, #1
 3244 1218 FFF7FEFF 		bl	LSM303AGR_MAG_ReadReg
 3245 121c 0346     		mov	r3, r0
 3246 121e 002B     		cmp	r3, #0
 3247 1220 01D1     		bne	.L206
 3248              		.loc 1 1170 0
 3249 1222 0023     		movs	r3, #0
 3250 1224 1CE0     		b	.L209
 3251              	.L206:
 3252              		.loc 1 1172 0
 3253 1226 9DF80F30 		ldrb	r3, [sp, #15]	@ zero_extendqisi2
 3254 122a 23F02003 		bic	r3, r3, #32
 3255 122e DBB2     		uxtb	r3, r3
 3256 1230 8DF80F30 		strb	r3, [sp, #15]
 3257              		.loc 1 1173 0
 3258 1234 9DF80F20 		ldrb	r2, [sp, #15]	@ zero_extendqisi2
 3259 1238 9DF80330 		ldrb	r3, [sp, #3]
 3260 123c 1343     		orrs	r3, r3, r2
 3261 123e DBB2     		uxtb	r3, r3
 3262 1240 8DF80F30 		strb	r3, [sp, #15]
ARM GAS  /tmp/ccNUhamC.s 			page 59


 3263              		.loc 1 1175 0
 3264 1244 0DF10F03 		add	r3, sp, #15
 3265 1248 0198     		ldr	r0, [sp, #4]
 3266 124a 6321     		movs	r1, #99
 3267 124c 1A46     		mov	r2, r3
 3268 124e 0123     		movs	r3, #1
 3269 1250 FFF7FEFF 		bl	LSM303AGR_MAG_WriteReg
 3270 1254 0346     		mov	r3, r0
 3271 1256 002B     		cmp	r3, #0
 3272 1258 01D1     		bne	.L208
 3273              		.loc 1 1176 0
 3274 125a 0023     		movs	r3, #0
 3275 125c 00E0     		b	.L209
 3276              	.L208:
 3277              		.loc 1 1178 0
 3278 125e 0123     		movs	r3, #1
 3279              	.L209:
 3280              		.loc 1 1179 0
 3281 1260 1846     		mov	r0, r3
 3282 1262 05B0     		add	sp, sp, #20
 3283              		@ sp needed
 3284 1264 5DF804FB 		ldr	pc, [sp], #4
 3285              		.cfi_endproc
 3286              	.LFE53:
 3287              		.size	LSM303AGR_MAG_W_ZIEN, .-LSM303AGR_MAG_W_ZIEN
 3288              		.align	2
 3289 1268 AFF30080 		.p2align 4,,15
 3289      AFF30080 
 3290              		.global	LSM303AGR_MAG_R_ZIEN
 3291              		.thumb
 3292              		.thumb_func
 3293              		.type	LSM303AGR_MAG_R_ZIEN, %function
 3294              	LSM303AGR_MAG_R_ZIEN:
 3295              	.LFB54:
 3296              		.loc 1 1189 0
 3297              		.cfi_startproc
 3298              		@ args = 0, pretend = 0, frame = 8
 3299              		@ frame_needed = 0, uses_anonymous_args = 0
 3300 1270 00B5     		push	{lr}
 3301              		.cfi_def_cfa_offset 4
 3302              		.cfi_offset 14, -4
 3303 1272 83B0     		sub	sp, sp, #12
 3304              		.cfi_def_cfa_offset 16
 3305 1274 0190     		str	r0, [sp, #4]
 3306 1276 0091     		str	r1, [sp]
 3307              		.loc 1 1190 0
 3308 1278 0198     		ldr	r0, [sp, #4]
 3309 127a 6321     		movs	r1, #99
 3310 127c 009A     		ldr	r2, [sp]
 3311 127e 0123     		movs	r3, #1
 3312 1280 FFF7FEFF 		bl	LSM303AGR_MAG_ReadReg
 3313 1284 0346     		mov	r3, r0
 3314 1286 002B     		cmp	r3, #0
 3315 1288 01D1     		bne	.L211
 3316              		.loc 1 1191 0
 3317 128a 0023     		movs	r3, #0
 3318 128c 07E0     		b	.L212
ARM GAS  /tmp/ccNUhamC.s 			page 60


 3319              	.L211:
 3320              		.loc 1 1193 0
 3321 128e 009B     		ldr	r3, [sp]
 3322 1290 1B78     		ldrb	r3, [r3]	@ zero_extendqisi2
 3323 1292 03F02003 		and	r3, r3, #32
 3324 1296 DAB2     		uxtb	r2, r3
 3325 1298 009B     		ldr	r3, [sp]
 3326 129a 1A70     		strb	r2, [r3]
 3327              		.loc 1 1195 0
 3328 129c 0123     		movs	r3, #1
 3329              	.L212:
 3330              		.loc 1 1196 0
 3331 129e 1846     		mov	r0, r3
 3332 12a0 03B0     		add	sp, sp, #12
 3333              		@ sp needed
 3334 12a2 5DF804FB 		ldr	pc, [sp], #4
 3335              		.cfi_endproc
 3336              	.LFE54:
 3337              		.size	LSM303AGR_MAG_R_ZIEN, .-LSM303AGR_MAG_R_ZIEN
 3338 12a6 00BF     		.align	2
 3339 12a8 AFF30080 		.p2align 4,,15
 3339      AFF30080 
 3340              		.global	LSM303AGR_MAG_W_YIEN
 3341              		.thumb
 3342              		.thumb_func
 3343              		.type	LSM303AGR_MAG_W_YIEN, %function
 3344              	LSM303AGR_MAG_W_YIEN:
 3345              	.LFB55:
 3346              		.loc 1 1206 0
 3347              		.cfi_startproc
 3348              		@ args = 0, pretend = 0, frame = 16
 3349              		@ frame_needed = 0, uses_anonymous_args = 0
 3350 12b0 00B5     		push	{lr}
 3351              		.cfi_def_cfa_offset 4
 3352              		.cfi_offset 14, -4
 3353 12b2 85B0     		sub	sp, sp, #20
 3354              		.cfi_def_cfa_offset 24
 3355 12b4 0190     		str	r0, [sp, #4]
 3356 12b6 0B46     		mov	r3, r1
 3357 12b8 8DF80330 		strb	r3, [sp, #3]
 3358              		.loc 1 1209 0
 3359 12bc 0DF10F03 		add	r3, sp, #15
 3360 12c0 0198     		ldr	r0, [sp, #4]
 3361 12c2 6321     		movs	r1, #99
 3362 12c4 1A46     		mov	r2, r3
 3363 12c6 0123     		movs	r3, #1
 3364 12c8 FFF7FEFF 		bl	LSM303AGR_MAG_ReadReg
 3365 12cc 0346     		mov	r3, r0
 3366 12ce 002B     		cmp	r3, #0
 3367 12d0 01D1     		bne	.L214
 3368              		.loc 1 1210 0
 3369 12d2 0023     		movs	r3, #0
 3370 12d4 1CE0     		b	.L217
 3371              	.L214:
 3372              		.loc 1 1212 0
 3373 12d6 9DF80F30 		ldrb	r3, [sp, #15]	@ zero_extendqisi2
 3374 12da 23F04003 		bic	r3, r3, #64
ARM GAS  /tmp/ccNUhamC.s 			page 61


 3375 12de DBB2     		uxtb	r3, r3
 3376 12e0 8DF80F30 		strb	r3, [sp, #15]
 3377              		.loc 1 1213 0
 3378 12e4 9DF80F20 		ldrb	r2, [sp, #15]	@ zero_extendqisi2
 3379 12e8 9DF80330 		ldrb	r3, [sp, #3]
 3380 12ec 1343     		orrs	r3, r3, r2
 3381 12ee DBB2     		uxtb	r3, r3
 3382 12f0 8DF80F30 		strb	r3, [sp, #15]
 3383              		.loc 1 1215 0
 3384 12f4 0DF10F03 		add	r3, sp, #15
 3385 12f8 0198     		ldr	r0, [sp, #4]
 3386 12fa 6321     		movs	r1, #99
 3387 12fc 1A46     		mov	r2, r3
 3388 12fe 0123     		movs	r3, #1
 3389 1300 FFF7FEFF 		bl	LSM303AGR_MAG_WriteReg
 3390 1304 0346     		mov	r3, r0
 3391 1306 002B     		cmp	r3, #0
 3392 1308 01D1     		bne	.L216
 3393              		.loc 1 1216 0
 3394 130a 0023     		movs	r3, #0
 3395 130c 00E0     		b	.L217
 3396              	.L216:
 3397              		.loc 1 1218 0
 3398 130e 0123     		movs	r3, #1
 3399              	.L217:
 3400              		.loc 1 1219 0
 3401 1310 1846     		mov	r0, r3
 3402 1312 05B0     		add	sp, sp, #20
 3403              		@ sp needed
 3404 1314 5DF804FB 		ldr	pc, [sp], #4
 3405              		.cfi_endproc
 3406              	.LFE55:
 3407              		.size	LSM303AGR_MAG_W_YIEN, .-LSM303AGR_MAG_W_YIEN
 3408              		.align	2
 3409 1318 AFF30080 		.p2align 4,,15
 3409      AFF30080 
 3410              		.global	LSM303AGR_MAG_R_YIEN
 3411              		.thumb
 3412              		.thumb_func
 3413              		.type	LSM303AGR_MAG_R_YIEN, %function
 3414              	LSM303AGR_MAG_R_YIEN:
 3415              	.LFB56:
 3416              		.loc 1 1229 0
 3417              		.cfi_startproc
 3418              		@ args = 0, pretend = 0, frame = 8
 3419              		@ frame_needed = 0, uses_anonymous_args = 0
 3420 1320 00B5     		push	{lr}
 3421              		.cfi_def_cfa_offset 4
 3422              		.cfi_offset 14, -4
 3423 1322 83B0     		sub	sp, sp, #12
 3424              		.cfi_def_cfa_offset 16
 3425 1324 0190     		str	r0, [sp, #4]
 3426 1326 0091     		str	r1, [sp]
 3427              		.loc 1 1230 0
 3428 1328 0198     		ldr	r0, [sp, #4]
 3429 132a 6321     		movs	r1, #99
 3430 132c 009A     		ldr	r2, [sp]
ARM GAS  /tmp/ccNUhamC.s 			page 62


 3431 132e 0123     		movs	r3, #1
 3432 1330 FFF7FEFF 		bl	LSM303AGR_MAG_ReadReg
 3433 1334 0346     		mov	r3, r0
 3434 1336 002B     		cmp	r3, #0
 3435 1338 01D1     		bne	.L219
 3436              		.loc 1 1231 0
 3437 133a 0023     		movs	r3, #0
 3438 133c 07E0     		b	.L220
 3439              	.L219:
 3440              		.loc 1 1233 0
 3441 133e 009B     		ldr	r3, [sp]
 3442 1340 1B78     		ldrb	r3, [r3]	@ zero_extendqisi2
 3443 1342 03F04003 		and	r3, r3, #64
 3444 1346 DAB2     		uxtb	r2, r3
 3445 1348 009B     		ldr	r3, [sp]
 3446 134a 1A70     		strb	r2, [r3]
 3447              		.loc 1 1235 0
 3448 134c 0123     		movs	r3, #1
 3449              	.L220:
 3450              		.loc 1 1236 0
 3451 134e 1846     		mov	r0, r3
 3452 1350 03B0     		add	sp, sp, #12
 3453              		@ sp needed
 3454 1352 5DF804FB 		ldr	pc, [sp], #4
 3455              		.cfi_endproc
 3456              	.LFE56:
 3457              		.size	LSM303AGR_MAG_R_YIEN, .-LSM303AGR_MAG_R_YIEN
 3458 1356 00BF     		.align	2
 3459 1358 AFF30080 		.p2align 4,,15
 3459      AFF30080 
 3460              		.global	LSM303AGR_MAG_W_XIEN
 3461              		.thumb
 3462              		.thumb_func
 3463              		.type	LSM303AGR_MAG_W_XIEN, %function
 3464              	LSM303AGR_MAG_W_XIEN:
 3465              	.LFB57:
 3466              		.loc 1 1246 0
 3467              		.cfi_startproc
 3468              		@ args = 0, pretend = 0, frame = 16
 3469              		@ frame_needed = 0, uses_anonymous_args = 0
 3470 1360 00B5     		push	{lr}
 3471              		.cfi_def_cfa_offset 4
 3472              		.cfi_offset 14, -4
 3473 1362 85B0     		sub	sp, sp, #20
 3474              		.cfi_def_cfa_offset 24
 3475 1364 0190     		str	r0, [sp, #4]
 3476 1366 0B46     		mov	r3, r1
 3477 1368 8DF80330 		strb	r3, [sp, #3]
 3478              		.loc 1 1249 0
 3479 136c 0DF10F03 		add	r3, sp, #15
 3480 1370 0198     		ldr	r0, [sp, #4]
 3481 1372 6321     		movs	r1, #99
 3482 1374 1A46     		mov	r2, r3
 3483 1376 0123     		movs	r3, #1
 3484 1378 FFF7FEFF 		bl	LSM303AGR_MAG_ReadReg
 3485 137c 0346     		mov	r3, r0
 3486 137e 002B     		cmp	r3, #0
ARM GAS  /tmp/ccNUhamC.s 			page 63


 3487 1380 01D1     		bne	.L222
 3488              		.loc 1 1250 0
 3489 1382 0023     		movs	r3, #0
 3490 1384 1CE0     		b	.L225
 3491              	.L222:
 3492              		.loc 1 1252 0
 3493 1386 9DF80F30 		ldrb	r3, [sp, #15]	@ zero_extendqisi2
 3494 138a 03F07F03 		and	r3, r3, #127
 3495 138e DBB2     		uxtb	r3, r3
 3496 1390 8DF80F30 		strb	r3, [sp, #15]
 3497              		.loc 1 1253 0
 3498 1394 9DF80F20 		ldrb	r2, [sp, #15]	@ zero_extendqisi2
 3499 1398 9DF80330 		ldrb	r3, [sp, #3]
 3500 139c 1343     		orrs	r3, r3, r2
 3501 139e DBB2     		uxtb	r3, r3
 3502 13a0 8DF80F30 		strb	r3, [sp, #15]
 3503              		.loc 1 1255 0
 3504 13a4 0DF10F03 		add	r3, sp, #15
 3505 13a8 0198     		ldr	r0, [sp, #4]
 3506 13aa 6321     		movs	r1, #99
 3507 13ac 1A46     		mov	r2, r3
 3508 13ae 0123     		movs	r3, #1
 3509 13b0 FFF7FEFF 		bl	LSM303AGR_MAG_WriteReg
 3510 13b4 0346     		mov	r3, r0
 3511 13b6 002B     		cmp	r3, #0
 3512 13b8 01D1     		bne	.L224
 3513              		.loc 1 1256 0
 3514 13ba 0023     		movs	r3, #0
 3515 13bc 00E0     		b	.L225
 3516              	.L224:
 3517              		.loc 1 1258 0
 3518 13be 0123     		movs	r3, #1
 3519              	.L225:
 3520              		.loc 1 1259 0
 3521 13c0 1846     		mov	r0, r3
 3522 13c2 05B0     		add	sp, sp, #20
 3523              		@ sp needed
 3524 13c4 5DF804FB 		ldr	pc, [sp], #4
 3525              		.cfi_endproc
 3526              	.LFE57:
 3527              		.size	LSM303AGR_MAG_W_XIEN, .-LSM303AGR_MAG_W_XIEN
 3528              		.align	2
 3529 13c8 AFF30080 		.p2align 4,,15
 3529      AFF30080 
 3530              		.global	LSM303AGR_MAG_R_XIEN
 3531              		.thumb
 3532              		.thumb_func
 3533              		.type	LSM303AGR_MAG_R_XIEN, %function
 3534              	LSM303AGR_MAG_R_XIEN:
 3535              	.LFB58:
 3536              		.loc 1 1269 0
 3537              		.cfi_startproc
 3538              		@ args = 0, pretend = 0, frame = 8
 3539              		@ frame_needed = 0, uses_anonymous_args = 0
 3540 13d0 00B5     		push	{lr}
 3541              		.cfi_def_cfa_offset 4
 3542              		.cfi_offset 14, -4
ARM GAS  /tmp/ccNUhamC.s 			page 64


 3543 13d2 83B0     		sub	sp, sp, #12
 3544              		.cfi_def_cfa_offset 16
 3545 13d4 0190     		str	r0, [sp, #4]
 3546 13d6 0091     		str	r1, [sp]
 3547              		.loc 1 1270 0
 3548 13d8 0198     		ldr	r0, [sp, #4]
 3549 13da 6321     		movs	r1, #99
 3550 13dc 009A     		ldr	r2, [sp]
 3551 13de 0123     		movs	r3, #1
 3552 13e0 FFF7FEFF 		bl	LSM303AGR_MAG_ReadReg
 3553 13e4 0346     		mov	r3, r0
 3554 13e6 002B     		cmp	r3, #0
 3555 13e8 01D1     		bne	.L227
 3556              		.loc 1 1271 0
 3557 13ea 0023     		movs	r3, #0
 3558 13ec 07E0     		b	.L228
 3559              	.L227:
 3560              		.loc 1 1273 0
 3561 13ee 009B     		ldr	r3, [sp]
 3562 13f0 1B78     		ldrb	r3, [r3]	@ zero_extendqisi2
 3563 13f2 23F07F03 		bic	r3, r3, #127
 3564 13f6 DAB2     		uxtb	r2, r3
 3565 13f8 009B     		ldr	r3, [sp]
 3566 13fa 1A70     		strb	r2, [r3]
 3567              		.loc 1 1275 0
 3568 13fc 0123     		movs	r3, #1
 3569              	.L228:
 3570              		.loc 1 1276 0
 3571 13fe 1846     		mov	r0, r3
 3572 1400 03B0     		add	sp, sp, #12
 3573              		@ sp needed
 3574 1402 5DF804FB 		ldr	pc, [sp], #4
 3575              		.cfi_endproc
 3576              	.LFE58:
 3577              		.size	LSM303AGR_MAG_R_XIEN, .-LSM303AGR_MAG_R_XIEN
 3578 1406 00BF     		.align	2
 3579 1408 AFF30080 		.p2align 4,,15
 3579      AFF30080 
 3580              		.global	LSM303AGR_MAG_R_INT
 3581              		.thumb
 3582              		.thumb_func
 3583              		.type	LSM303AGR_MAG_R_INT, %function
 3584              	LSM303AGR_MAG_R_INT:
 3585              	.LFB59:
 3586              		.loc 1 1286 0
 3587              		.cfi_startproc
 3588              		@ args = 0, pretend = 0, frame = 8
 3589              		@ frame_needed = 0, uses_anonymous_args = 0
 3590 1410 00B5     		push	{lr}
 3591              		.cfi_def_cfa_offset 4
 3592              		.cfi_offset 14, -4
 3593 1412 83B0     		sub	sp, sp, #12
 3594              		.cfi_def_cfa_offset 16
 3595 1414 0190     		str	r0, [sp, #4]
 3596 1416 0091     		str	r1, [sp]
 3597              		.loc 1 1287 0
 3598 1418 0198     		ldr	r0, [sp, #4]
ARM GAS  /tmp/ccNUhamC.s 			page 65


 3599 141a 6421     		movs	r1, #100
 3600 141c 009A     		ldr	r2, [sp]
 3601 141e 0123     		movs	r3, #1
 3602 1420 FFF7FEFF 		bl	LSM303AGR_MAG_ReadReg
 3603 1424 0346     		mov	r3, r0
 3604 1426 002B     		cmp	r3, #0
 3605 1428 01D1     		bne	.L230
 3606              		.loc 1 1288 0
 3607 142a 0023     		movs	r3, #0
 3608 142c 07E0     		b	.L231
 3609              	.L230:
 3610              		.loc 1 1290 0
 3611 142e 009B     		ldr	r3, [sp]
 3612 1430 1B78     		ldrb	r3, [r3]	@ zero_extendqisi2
 3613 1432 03F00103 		and	r3, r3, #1
 3614 1436 DAB2     		uxtb	r2, r3
 3615 1438 009B     		ldr	r3, [sp]
 3616 143a 1A70     		strb	r2, [r3]
 3617              		.loc 1 1292 0
 3618 143c 0123     		movs	r3, #1
 3619              	.L231:
 3620              		.loc 1 1293 0
 3621 143e 1846     		mov	r0, r3
 3622 1440 03B0     		add	sp, sp, #12
 3623              		@ sp needed
 3624 1442 5DF804FB 		ldr	pc, [sp], #4
 3625              		.cfi_endproc
 3626              	.LFE59:
 3627              		.size	LSM303AGR_MAG_R_INT, .-LSM303AGR_MAG_R_INT
 3628 1446 00BF     		.align	2
 3629 1448 AFF30080 		.p2align 4,,15
 3629      AFF30080 
 3630              		.global	LSM303AGR_MAG_R_MROI
 3631              		.thumb
 3632              		.thumb_func
 3633              		.type	LSM303AGR_MAG_R_MROI, %function
 3634              	LSM303AGR_MAG_R_MROI:
 3635              	.LFB60:
 3636              		.loc 1 1303 0
 3637              		.cfi_startproc
 3638              		@ args = 0, pretend = 0, frame = 8
 3639              		@ frame_needed = 0, uses_anonymous_args = 0
 3640 1450 00B5     		push	{lr}
 3641              		.cfi_def_cfa_offset 4
 3642              		.cfi_offset 14, -4
 3643 1452 83B0     		sub	sp, sp, #12
 3644              		.cfi_def_cfa_offset 16
 3645 1454 0190     		str	r0, [sp, #4]
 3646 1456 0091     		str	r1, [sp]
 3647              		.loc 1 1304 0
 3648 1458 0198     		ldr	r0, [sp, #4]
 3649 145a 6421     		movs	r1, #100
 3650 145c 009A     		ldr	r2, [sp]
 3651 145e 0123     		movs	r3, #1
 3652 1460 FFF7FEFF 		bl	LSM303AGR_MAG_ReadReg
 3653 1464 0346     		mov	r3, r0
 3654 1466 002B     		cmp	r3, #0
ARM GAS  /tmp/ccNUhamC.s 			page 66


 3655 1468 01D1     		bne	.L233
 3656              		.loc 1 1305 0
 3657 146a 0023     		movs	r3, #0
 3658 146c 07E0     		b	.L234
 3659              	.L233:
 3660              		.loc 1 1307 0
 3661 146e 009B     		ldr	r3, [sp]
 3662 1470 1B78     		ldrb	r3, [r3]	@ zero_extendqisi2
 3663 1472 03F00203 		and	r3, r3, #2
 3664 1476 DAB2     		uxtb	r2, r3
 3665 1478 009B     		ldr	r3, [sp]
 3666 147a 1A70     		strb	r2, [r3]
 3667              		.loc 1 1309 0
 3668 147c 0123     		movs	r3, #1
 3669              	.L234:
 3670              		.loc 1 1310 0
 3671 147e 1846     		mov	r0, r3
 3672 1480 03B0     		add	sp, sp, #12
 3673              		@ sp needed
 3674 1482 5DF804FB 		ldr	pc, [sp], #4
 3675              		.cfi_endproc
 3676              	.LFE60:
 3677              		.size	LSM303AGR_MAG_R_MROI, .-LSM303AGR_MAG_R_MROI
 3678 1486 00BF     		.align	2
 3679 1488 AFF30080 		.p2align 4,,15
 3679      AFF30080 
 3680              		.global	LSM303AGR_MAG_R_N_TH_S_Z
 3681              		.thumb
 3682              		.thumb_func
 3683              		.type	LSM303AGR_MAG_R_N_TH_S_Z, %function
 3684              	LSM303AGR_MAG_R_N_TH_S_Z:
 3685              	.LFB61:
 3686              		.loc 1 1320 0
 3687              		.cfi_startproc
 3688              		@ args = 0, pretend = 0, frame = 8
 3689              		@ frame_needed = 0, uses_anonymous_args = 0
 3690 1490 00B5     		push	{lr}
 3691              		.cfi_def_cfa_offset 4
 3692              		.cfi_offset 14, -4
 3693 1492 83B0     		sub	sp, sp, #12
 3694              		.cfi_def_cfa_offset 16
 3695 1494 0190     		str	r0, [sp, #4]
 3696 1496 0091     		str	r1, [sp]
 3697              		.loc 1 1321 0
 3698 1498 0198     		ldr	r0, [sp, #4]
 3699 149a 6421     		movs	r1, #100
 3700 149c 009A     		ldr	r2, [sp]
 3701 149e 0123     		movs	r3, #1
 3702 14a0 FFF7FEFF 		bl	LSM303AGR_MAG_ReadReg
 3703 14a4 0346     		mov	r3, r0
 3704 14a6 002B     		cmp	r3, #0
 3705 14a8 01D1     		bne	.L236
 3706              		.loc 1 1322 0
 3707 14aa 0023     		movs	r3, #0
 3708 14ac 07E0     		b	.L237
 3709              	.L236:
 3710              		.loc 1 1324 0
ARM GAS  /tmp/ccNUhamC.s 			page 67


 3711 14ae 009B     		ldr	r3, [sp]
 3712 14b0 1B78     		ldrb	r3, [r3]	@ zero_extendqisi2
 3713 14b2 03F00403 		and	r3, r3, #4
 3714 14b6 DAB2     		uxtb	r2, r3
 3715 14b8 009B     		ldr	r3, [sp]
 3716 14ba 1A70     		strb	r2, [r3]
 3717              		.loc 1 1326 0
 3718 14bc 0123     		movs	r3, #1
 3719              	.L237:
 3720              		.loc 1 1327 0
 3721 14be 1846     		mov	r0, r3
 3722 14c0 03B0     		add	sp, sp, #12
 3723              		@ sp needed
 3724 14c2 5DF804FB 		ldr	pc, [sp], #4
 3725              		.cfi_endproc
 3726              	.LFE61:
 3727              		.size	LSM303AGR_MAG_R_N_TH_S_Z, .-LSM303AGR_MAG_R_N_TH_S_Z
 3728 14c6 00BF     		.align	2
 3729 14c8 AFF30080 		.p2align 4,,15
 3729      AFF30080 
 3730              		.global	LSM303AGR_MAG_R_N_TH_S_Y
 3731              		.thumb
 3732              		.thumb_func
 3733              		.type	LSM303AGR_MAG_R_N_TH_S_Y, %function
 3734              	LSM303AGR_MAG_R_N_TH_S_Y:
 3735              	.LFB62:
 3736              		.loc 1 1337 0
 3737              		.cfi_startproc
 3738              		@ args = 0, pretend = 0, frame = 8
 3739              		@ frame_needed = 0, uses_anonymous_args = 0
 3740 14d0 00B5     		push	{lr}
 3741              		.cfi_def_cfa_offset 4
 3742              		.cfi_offset 14, -4
 3743 14d2 83B0     		sub	sp, sp, #12
 3744              		.cfi_def_cfa_offset 16
 3745 14d4 0190     		str	r0, [sp, #4]
 3746 14d6 0091     		str	r1, [sp]
 3747              		.loc 1 1338 0
 3748 14d8 0198     		ldr	r0, [sp, #4]
 3749 14da 6421     		movs	r1, #100
 3750 14dc 009A     		ldr	r2, [sp]
 3751 14de 0123     		movs	r3, #1
 3752 14e0 FFF7FEFF 		bl	LSM303AGR_MAG_ReadReg
 3753 14e4 0346     		mov	r3, r0
 3754 14e6 002B     		cmp	r3, #0
 3755 14e8 01D1     		bne	.L239
 3756              		.loc 1 1339 0
 3757 14ea 0023     		movs	r3, #0
 3758 14ec 07E0     		b	.L240
 3759              	.L239:
 3760              		.loc 1 1341 0
 3761 14ee 009B     		ldr	r3, [sp]
 3762 14f0 1B78     		ldrb	r3, [r3]	@ zero_extendqisi2
 3763 14f2 03F00803 		and	r3, r3, #8
 3764 14f6 DAB2     		uxtb	r2, r3
 3765 14f8 009B     		ldr	r3, [sp]
 3766 14fa 1A70     		strb	r2, [r3]
ARM GAS  /tmp/ccNUhamC.s 			page 68


 3767              		.loc 1 1343 0
 3768 14fc 0123     		movs	r3, #1
 3769              	.L240:
 3770              		.loc 1 1344 0
 3771 14fe 1846     		mov	r0, r3
 3772 1500 03B0     		add	sp, sp, #12
 3773              		@ sp needed
 3774 1502 5DF804FB 		ldr	pc, [sp], #4
 3775              		.cfi_endproc
 3776              	.LFE62:
 3777              		.size	LSM303AGR_MAG_R_N_TH_S_Y, .-LSM303AGR_MAG_R_N_TH_S_Y
 3778 1506 00BF     		.align	2
 3779 1508 AFF30080 		.p2align 4,,15
 3779      AFF30080 
 3780              		.global	LSM303AGR_MAG_R_N_TH_S_X
 3781              		.thumb
 3782              		.thumb_func
 3783              		.type	LSM303AGR_MAG_R_N_TH_S_X, %function
 3784              	LSM303AGR_MAG_R_N_TH_S_X:
 3785              	.LFB63:
 3786              		.loc 1 1354 0
 3787              		.cfi_startproc
 3788              		@ args = 0, pretend = 0, frame = 8
 3789              		@ frame_needed = 0, uses_anonymous_args = 0
 3790 1510 00B5     		push	{lr}
 3791              		.cfi_def_cfa_offset 4
 3792              		.cfi_offset 14, -4
 3793 1512 83B0     		sub	sp, sp, #12
 3794              		.cfi_def_cfa_offset 16
 3795 1514 0190     		str	r0, [sp, #4]
 3796 1516 0091     		str	r1, [sp]
 3797              		.loc 1 1355 0
 3798 1518 0198     		ldr	r0, [sp, #4]
 3799 151a 6421     		movs	r1, #100
 3800 151c 009A     		ldr	r2, [sp]
 3801 151e 0123     		movs	r3, #1
 3802 1520 FFF7FEFF 		bl	LSM303AGR_MAG_ReadReg
 3803 1524 0346     		mov	r3, r0
 3804 1526 002B     		cmp	r3, #0
 3805 1528 01D1     		bne	.L242
 3806              		.loc 1 1356 0
 3807 152a 0023     		movs	r3, #0
 3808 152c 07E0     		b	.L243
 3809              	.L242:
 3810              		.loc 1 1358 0
 3811 152e 009B     		ldr	r3, [sp]
 3812 1530 1B78     		ldrb	r3, [r3]	@ zero_extendqisi2
 3813 1532 03F01003 		and	r3, r3, #16
 3814 1536 DAB2     		uxtb	r2, r3
 3815 1538 009B     		ldr	r3, [sp]
 3816 153a 1A70     		strb	r2, [r3]
 3817              		.loc 1 1360 0
 3818 153c 0123     		movs	r3, #1
 3819              	.L243:
 3820              		.loc 1 1361 0
 3821 153e 1846     		mov	r0, r3
 3822 1540 03B0     		add	sp, sp, #12
ARM GAS  /tmp/ccNUhamC.s 			page 69


 3823              		@ sp needed
 3824 1542 5DF804FB 		ldr	pc, [sp], #4
 3825              		.cfi_endproc
 3826              	.LFE63:
 3827              		.size	LSM303AGR_MAG_R_N_TH_S_X, .-LSM303AGR_MAG_R_N_TH_S_X
 3828 1546 00BF     		.align	2
 3829 1548 AFF30080 		.p2align 4,,15
 3829      AFF30080 
 3830              		.global	LSM303AGR_MAG_R_P_TH_S_Z
 3831              		.thumb
 3832              		.thumb_func
 3833              		.type	LSM303AGR_MAG_R_P_TH_S_Z, %function
 3834              	LSM303AGR_MAG_R_P_TH_S_Z:
 3835              	.LFB64:
 3836              		.loc 1 1371 0
 3837              		.cfi_startproc
 3838              		@ args = 0, pretend = 0, frame = 8
 3839              		@ frame_needed = 0, uses_anonymous_args = 0
 3840 1550 00B5     		push	{lr}
 3841              		.cfi_def_cfa_offset 4
 3842              		.cfi_offset 14, -4
 3843 1552 83B0     		sub	sp, sp, #12
 3844              		.cfi_def_cfa_offset 16
 3845 1554 0190     		str	r0, [sp, #4]
 3846 1556 0091     		str	r1, [sp]
 3847              		.loc 1 1372 0
 3848 1558 0198     		ldr	r0, [sp, #4]
 3849 155a 6421     		movs	r1, #100
 3850 155c 009A     		ldr	r2, [sp]
 3851 155e 0123     		movs	r3, #1
 3852 1560 FFF7FEFF 		bl	LSM303AGR_MAG_ReadReg
 3853 1564 0346     		mov	r3, r0
 3854 1566 002B     		cmp	r3, #0
 3855 1568 01D1     		bne	.L245
 3856              		.loc 1 1373 0
 3857 156a 0023     		movs	r3, #0
 3858 156c 07E0     		b	.L246
 3859              	.L245:
 3860              		.loc 1 1375 0
 3861 156e 009B     		ldr	r3, [sp]
 3862 1570 1B78     		ldrb	r3, [r3]	@ zero_extendqisi2
 3863 1572 03F02003 		and	r3, r3, #32
 3864 1576 DAB2     		uxtb	r2, r3
 3865 1578 009B     		ldr	r3, [sp]
 3866 157a 1A70     		strb	r2, [r3]
 3867              		.loc 1 1377 0
 3868 157c 0123     		movs	r3, #1
 3869              	.L246:
 3870              		.loc 1 1378 0
 3871 157e 1846     		mov	r0, r3
 3872 1580 03B0     		add	sp, sp, #12
 3873              		@ sp needed
 3874 1582 5DF804FB 		ldr	pc, [sp], #4
 3875              		.cfi_endproc
 3876              	.LFE64:
 3877              		.size	LSM303AGR_MAG_R_P_TH_S_Z, .-LSM303AGR_MAG_R_P_TH_S_Z
 3878 1586 00BF     		.align	2
ARM GAS  /tmp/ccNUhamC.s 			page 70


 3879 1588 AFF30080 		.p2align 4,,15
 3879      AFF30080 
 3880              		.global	LSM303AGR_MAG_R_P_TH_S_Y
 3881              		.thumb
 3882              		.thumb_func
 3883              		.type	LSM303AGR_MAG_R_P_TH_S_Y, %function
 3884              	LSM303AGR_MAG_R_P_TH_S_Y:
 3885              	.LFB65:
 3886              		.loc 1 1388 0
 3887              		.cfi_startproc
 3888              		@ args = 0, pretend = 0, frame = 8
 3889              		@ frame_needed = 0, uses_anonymous_args = 0
 3890 1590 00B5     		push	{lr}
 3891              		.cfi_def_cfa_offset 4
 3892              		.cfi_offset 14, -4
 3893 1592 83B0     		sub	sp, sp, #12
 3894              		.cfi_def_cfa_offset 16
 3895 1594 0190     		str	r0, [sp, #4]
 3896 1596 0091     		str	r1, [sp]
 3897              		.loc 1 1389 0
 3898 1598 0198     		ldr	r0, [sp, #4]
 3899 159a 6421     		movs	r1, #100
 3900 159c 009A     		ldr	r2, [sp]
 3901 159e 0123     		movs	r3, #1
 3902 15a0 FFF7FEFF 		bl	LSM303AGR_MAG_ReadReg
 3903 15a4 0346     		mov	r3, r0
 3904 15a6 002B     		cmp	r3, #0
 3905 15a8 01D1     		bne	.L248
 3906              		.loc 1 1390 0
 3907 15aa 0023     		movs	r3, #0
 3908 15ac 07E0     		b	.L249
 3909              	.L248:
 3910              		.loc 1 1392 0
 3911 15ae 009B     		ldr	r3, [sp]
 3912 15b0 1B78     		ldrb	r3, [r3]	@ zero_extendqisi2
 3913 15b2 03F04003 		and	r3, r3, #64
 3914 15b6 DAB2     		uxtb	r2, r3
 3915 15b8 009B     		ldr	r3, [sp]
 3916 15ba 1A70     		strb	r2, [r3]
 3917              		.loc 1 1394 0
 3918 15bc 0123     		movs	r3, #1
 3919              	.L249:
 3920              		.loc 1 1395 0
 3921 15be 1846     		mov	r0, r3
 3922 15c0 03B0     		add	sp, sp, #12
 3923              		@ sp needed
 3924 15c2 5DF804FB 		ldr	pc, [sp], #4
 3925              		.cfi_endproc
 3926              	.LFE65:
 3927              		.size	LSM303AGR_MAG_R_P_TH_S_Y, .-LSM303AGR_MAG_R_P_TH_S_Y
 3928 15c6 00BF     		.align	2
 3929 15c8 AFF30080 		.p2align 4,,15
 3929      AFF30080 
 3930              		.global	LSM303AGR_MAG_R_P_TH_S_X
 3931              		.thumb
 3932              		.thumb_func
 3933              		.type	LSM303AGR_MAG_R_P_TH_S_X, %function
ARM GAS  /tmp/ccNUhamC.s 			page 71


 3934              	LSM303AGR_MAG_R_P_TH_S_X:
 3935              	.LFB66:
 3936              		.loc 1 1405 0
 3937              		.cfi_startproc
 3938              		@ args = 0, pretend = 0, frame = 8
 3939              		@ frame_needed = 0, uses_anonymous_args = 0
 3940 15d0 00B5     		push	{lr}
 3941              		.cfi_def_cfa_offset 4
 3942              		.cfi_offset 14, -4
 3943 15d2 83B0     		sub	sp, sp, #12
 3944              		.cfi_def_cfa_offset 16
 3945 15d4 0190     		str	r0, [sp, #4]
 3946 15d6 0091     		str	r1, [sp]
 3947              		.loc 1 1406 0
 3948 15d8 0198     		ldr	r0, [sp, #4]
 3949 15da 6421     		movs	r1, #100
 3950 15dc 009A     		ldr	r2, [sp]
 3951 15de 0123     		movs	r3, #1
 3952 15e0 FFF7FEFF 		bl	LSM303AGR_MAG_ReadReg
 3953 15e4 0346     		mov	r3, r0
 3954 15e6 002B     		cmp	r3, #0
 3955 15e8 01D1     		bne	.L251
 3956              		.loc 1 1407 0
 3957 15ea 0023     		movs	r3, #0
 3958 15ec 07E0     		b	.L252
 3959              	.L251:
 3960              		.loc 1 1409 0
 3961 15ee 009B     		ldr	r3, [sp]
 3962 15f0 1B78     		ldrb	r3, [r3]	@ zero_extendqisi2
 3963 15f2 23F07F03 		bic	r3, r3, #127
 3964 15f6 DAB2     		uxtb	r2, r3
 3965 15f8 009B     		ldr	r3, [sp]
 3966 15fa 1A70     		strb	r2, [r3]
 3967              		.loc 1 1411 0
 3968 15fc 0123     		movs	r3, #1
 3969              	.L252:
 3970              		.loc 1 1412 0
 3971 15fe 1846     		mov	r0, r3
 3972 1600 03B0     		add	sp, sp, #12
 3973              		@ sp needed
 3974 1602 5DF804FB 		ldr	pc, [sp], #4
 3975              		.cfi_endproc
 3976              	.LFE66:
 3977              		.size	LSM303AGR_MAG_R_P_TH_S_X, .-LSM303AGR_MAG_R_P_TH_S_X
 3978 1606 00BF     		.align	2
 3979 1608 AFF30080 		.p2align 4,,15
 3979      AFF30080 
 3980              		.global	LSM303AGR_MAG_R_XDA
 3981              		.thumb
 3982              		.thumb_func
 3983              		.type	LSM303AGR_MAG_R_XDA, %function
 3984              	LSM303AGR_MAG_R_XDA:
 3985              	.LFB67:
 3986              		.loc 1 1422 0
 3987              		.cfi_startproc
 3988              		@ args = 0, pretend = 0, frame = 8
 3989              		@ frame_needed = 0, uses_anonymous_args = 0
ARM GAS  /tmp/ccNUhamC.s 			page 72


 3990 1610 00B5     		push	{lr}
 3991              		.cfi_def_cfa_offset 4
 3992              		.cfi_offset 14, -4
 3993 1612 83B0     		sub	sp, sp, #12
 3994              		.cfi_def_cfa_offset 16
 3995 1614 0190     		str	r0, [sp, #4]
 3996 1616 0091     		str	r1, [sp]
 3997              		.loc 1 1423 0
 3998 1618 0198     		ldr	r0, [sp, #4]
 3999 161a 6721     		movs	r1, #103
 4000 161c 009A     		ldr	r2, [sp]
 4001 161e 0123     		movs	r3, #1
 4002 1620 FFF7FEFF 		bl	LSM303AGR_MAG_ReadReg
 4003 1624 0346     		mov	r3, r0
 4004 1626 002B     		cmp	r3, #0
 4005 1628 01D1     		bne	.L254
 4006              		.loc 1 1424 0
 4007 162a 0023     		movs	r3, #0
 4008 162c 07E0     		b	.L255
 4009              	.L254:
 4010              		.loc 1 1426 0
 4011 162e 009B     		ldr	r3, [sp]
 4012 1630 1B78     		ldrb	r3, [r3]	@ zero_extendqisi2
 4013 1632 03F00103 		and	r3, r3, #1
 4014 1636 DAB2     		uxtb	r2, r3
 4015 1638 009B     		ldr	r3, [sp]
 4016 163a 1A70     		strb	r2, [r3]
 4017              		.loc 1 1428 0
 4018 163c 0123     		movs	r3, #1
 4019              	.L255:
 4020              		.loc 1 1429 0
 4021 163e 1846     		mov	r0, r3
 4022 1640 03B0     		add	sp, sp, #12
 4023              		@ sp needed
 4024 1642 5DF804FB 		ldr	pc, [sp], #4
 4025              		.cfi_endproc
 4026              	.LFE67:
 4027              		.size	LSM303AGR_MAG_R_XDA, .-LSM303AGR_MAG_R_XDA
 4028 1646 00BF     		.align	2
 4029 1648 AFF30080 		.p2align 4,,15
 4029      AFF30080 
 4030              		.global	LSM303AGR_MAG_R_YDA
 4031              		.thumb
 4032              		.thumb_func
 4033              		.type	LSM303AGR_MAG_R_YDA, %function
 4034              	LSM303AGR_MAG_R_YDA:
 4035              	.LFB68:
 4036              		.loc 1 1439 0
 4037              		.cfi_startproc
 4038              		@ args = 0, pretend = 0, frame = 8
 4039              		@ frame_needed = 0, uses_anonymous_args = 0
 4040 1650 00B5     		push	{lr}
 4041              		.cfi_def_cfa_offset 4
 4042              		.cfi_offset 14, -4
 4043 1652 83B0     		sub	sp, sp, #12
 4044              		.cfi_def_cfa_offset 16
 4045 1654 0190     		str	r0, [sp, #4]
ARM GAS  /tmp/ccNUhamC.s 			page 73


 4046 1656 0091     		str	r1, [sp]
 4047              		.loc 1 1440 0
 4048 1658 0198     		ldr	r0, [sp, #4]
 4049 165a 6721     		movs	r1, #103
 4050 165c 009A     		ldr	r2, [sp]
 4051 165e 0123     		movs	r3, #1
 4052 1660 FFF7FEFF 		bl	LSM303AGR_MAG_ReadReg
 4053 1664 0346     		mov	r3, r0
 4054 1666 002B     		cmp	r3, #0
 4055 1668 01D1     		bne	.L257
 4056              		.loc 1 1441 0
 4057 166a 0023     		movs	r3, #0
 4058 166c 07E0     		b	.L258
 4059              	.L257:
 4060              		.loc 1 1443 0
 4061 166e 009B     		ldr	r3, [sp]
 4062 1670 1B78     		ldrb	r3, [r3]	@ zero_extendqisi2
 4063 1672 03F00203 		and	r3, r3, #2
 4064 1676 DAB2     		uxtb	r2, r3
 4065 1678 009B     		ldr	r3, [sp]
 4066 167a 1A70     		strb	r2, [r3]
 4067              		.loc 1 1445 0
 4068 167c 0123     		movs	r3, #1
 4069              	.L258:
 4070              		.loc 1 1446 0
 4071 167e 1846     		mov	r0, r3
 4072 1680 03B0     		add	sp, sp, #12
 4073              		@ sp needed
 4074 1682 5DF804FB 		ldr	pc, [sp], #4
 4075              		.cfi_endproc
 4076              	.LFE68:
 4077              		.size	LSM303AGR_MAG_R_YDA, .-LSM303AGR_MAG_R_YDA
 4078 1686 00BF     		.align	2
 4079 1688 AFF30080 		.p2align 4,,15
 4079      AFF30080 
 4080              		.global	LSM303AGR_MAG_R_ZDA
 4081              		.thumb
 4082              		.thumb_func
 4083              		.type	LSM303AGR_MAG_R_ZDA, %function
 4084              	LSM303AGR_MAG_R_ZDA:
 4085              	.LFB69:
 4086              		.loc 1 1456 0
 4087              		.cfi_startproc
 4088              		@ args = 0, pretend = 0, frame = 8
 4089              		@ frame_needed = 0, uses_anonymous_args = 0
 4090 1690 00B5     		push	{lr}
 4091              		.cfi_def_cfa_offset 4
 4092              		.cfi_offset 14, -4
 4093 1692 83B0     		sub	sp, sp, #12
 4094              		.cfi_def_cfa_offset 16
 4095 1694 0190     		str	r0, [sp, #4]
 4096 1696 0091     		str	r1, [sp]
 4097              		.loc 1 1457 0
 4098 1698 0198     		ldr	r0, [sp, #4]
 4099 169a 6721     		movs	r1, #103
 4100 169c 009A     		ldr	r2, [sp]
 4101 169e 0123     		movs	r3, #1
ARM GAS  /tmp/ccNUhamC.s 			page 74


 4102 16a0 FFF7FEFF 		bl	LSM303AGR_MAG_ReadReg
 4103 16a4 0346     		mov	r3, r0
 4104 16a6 002B     		cmp	r3, #0
 4105 16a8 01D1     		bne	.L260
 4106              		.loc 1 1458 0
 4107 16aa 0023     		movs	r3, #0
 4108 16ac 07E0     		b	.L261
 4109              	.L260:
 4110              		.loc 1 1460 0
 4111 16ae 009B     		ldr	r3, [sp]
 4112 16b0 1B78     		ldrb	r3, [r3]	@ zero_extendqisi2
 4113 16b2 03F00403 		and	r3, r3, #4
 4114 16b6 DAB2     		uxtb	r2, r3
 4115 16b8 009B     		ldr	r3, [sp]
 4116 16ba 1A70     		strb	r2, [r3]
 4117              		.loc 1 1462 0
 4118 16bc 0123     		movs	r3, #1
 4119              	.L261:
 4120              		.loc 1 1463 0
 4121 16be 1846     		mov	r0, r3
 4122 16c0 03B0     		add	sp, sp, #12
 4123              		@ sp needed
 4124 16c2 5DF804FB 		ldr	pc, [sp], #4
 4125              		.cfi_endproc
 4126              	.LFE69:
 4127              		.size	LSM303AGR_MAG_R_ZDA, .-LSM303AGR_MAG_R_ZDA
 4128 16c6 00BF     		.align	2
 4129 16c8 AFF30080 		.p2align 4,,15
 4129      AFF30080 
 4130              		.global	LSM303AGR_MAG_R_ZYXDA
 4131              		.thumb
 4132              		.thumb_func
 4133              		.type	LSM303AGR_MAG_R_ZYXDA, %function
 4134              	LSM303AGR_MAG_R_ZYXDA:
 4135              	.LFB70:
 4136              		.loc 1 1473 0
 4137              		.cfi_startproc
 4138              		@ args = 0, pretend = 0, frame = 8
 4139              		@ frame_needed = 0, uses_anonymous_args = 0
 4140 16d0 00B5     		push	{lr}
 4141              		.cfi_def_cfa_offset 4
 4142              		.cfi_offset 14, -4
 4143 16d2 83B0     		sub	sp, sp, #12
 4144              		.cfi_def_cfa_offset 16
 4145 16d4 0190     		str	r0, [sp, #4]
 4146 16d6 0091     		str	r1, [sp]
 4147              		.loc 1 1474 0
 4148 16d8 0198     		ldr	r0, [sp, #4]
 4149 16da 6721     		movs	r1, #103
 4150 16dc 009A     		ldr	r2, [sp]
 4151 16de 0123     		movs	r3, #1
 4152 16e0 FFF7FEFF 		bl	LSM303AGR_MAG_ReadReg
 4153 16e4 0346     		mov	r3, r0
 4154 16e6 002B     		cmp	r3, #0
 4155 16e8 01D1     		bne	.L263
 4156              		.loc 1 1475 0
 4157 16ea 0023     		movs	r3, #0
ARM GAS  /tmp/ccNUhamC.s 			page 75


 4158 16ec 07E0     		b	.L264
 4159              	.L263:
 4160              		.loc 1 1477 0
 4161 16ee 009B     		ldr	r3, [sp]
 4162 16f0 1B78     		ldrb	r3, [r3]	@ zero_extendqisi2
 4163 16f2 03F00803 		and	r3, r3, #8
 4164 16f6 DAB2     		uxtb	r2, r3
 4165 16f8 009B     		ldr	r3, [sp]
 4166 16fa 1A70     		strb	r2, [r3]
 4167              		.loc 1 1479 0
 4168 16fc 0123     		movs	r3, #1
 4169              	.L264:
 4170              		.loc 1 1480 0
 4171 16fe 1846     		mov	r0, r3
 4172 1700 03B0     		add	sp, sp, #12
 4173              		@ sp needed
 4174 1702 5DF804FB 		ldr	pc, [sp], #4
 4175              		.cfi_endproc
 4176              	.LFE70:
 4177              		.size	LSM303AGR_MAG_R_ZYXDA, .-LSM303AGR_MAG_R_ZYXDA
 4178 1706 00BF     		.align	2
 4179 1708 AFF30080 		.p2align 4,,15
 4179      AFF30080 
 4180              		.global	LSM303AGR_MAG_R_XOR
 4181              		.thumb
 4182              		.thumb_func
 4183              		.type	LSM303AGR_MAG_R_XOR, %function
 4184              	LSM303AGR_MAG_R_XOR:
 4185              	.LFB71:
 4186              		.loc 1 1490 0
 4187              		.cfi_startproc
 4188              		@ args = 0, pretend = 0, frame = 8
 4189              		@ frame_needed = 0, uses_anonymous_args = 0
 4190 1710 00B5     		push	{lr}
 4191              		.cfi_def_cfa_offset 4
 4192              		.cfi_offset 14, -4
 4193 1712 83B0     		sub	sp, sp, #12
 4194              		.cfi_def_cfa_offset 16
 4195 1714 0190     		str	r0, [sp, #4]
 4196 1716 0091     		str	r1, [sp]
 4197              		.loc 1 1491 0
 4198 1718 0198     		ldr	r0, [sp, #4]
 4199 171a 6721     		movs	r1, #103
 4200 171c 009A     		ldr	r2, [sp]
 4201 171e 0123     		movs	r3, #1
 4202 1720 FFF7FEFF 		bl	LSM303AGR_MAG_ReadReg
 4203 1724 0346     		mov	r3, r0
 4204 1726 002B     		cmp	r3, #0
 4205 1728 01D1     		bne	.L266
 4206              		.loc 1 1492 0
 4207 172a 0023     		movs	r3, #0
 4208 172c 07E0     		b	.L267
 4209              	.L266:
 4210              		.loc 1 1494 0
 4211 172e 009B     		ldr	r3, [sp]
 4212 1730 1B78     		ldrb	r3, [r3]	@ zero_extendqisi2
 4213 1732 03F01003 		and	r3, r3, #16
ARM GAS  /tmp/ccNUhamC.s 			page 76


 4214 1736 DAB2     		uxtb	r2, r3
 4215 1738 009B     		ldr	r3, [sp]
 4216 173a 1A70     		strb	r2, [r3]
 4217              		.loc 1 1496 0
 4218 173c 0123     		movs	r3, #1
 4219              	.L267:
 4220              		.loc 1 1497 0
 4221 173e 1846     		mov	r0, r3
 4222 1740 03B0     		add	sp, sp, #12
 4223              		@ sp needed
 4224 1742 5DF804FB 		ldr	pc, [sp], #4
 4225              		.cfi_endproc
 4226              	.LFE71:
 4227              		.size	LSM303AGR_MAG_R_XOR, .-LSM303AGR_MAG_R_XOR
 4228 1746 00BF     		.align	2
 4229 1748 AFF30080 		.p2align 4,,15
 4229      AFF30080 
 4230              		.global	LSM303AGR_MAG_R_YOR
 4231              		.thumb
 4232              		.thumb_func
 4233              		.type	LSM303AGR_MAG_R_YOR, %function
 4234              	LSM303AGR_MAG_R_YOR:
 4235              	.LFB72:
 4236              		.loc 1 1507 0
 4237              		.cfi_startproc
 4238              		@ args = 0, pretend = 0, frame = 8
 4239              		@ frame_needed = 0, uses_anonymous_args = 0
 4240 1750 00B5     		push	{lr}
 4241              		.cfi_def_cfa_offset 4
 4242              		.cfi_offset 14, -4
 4243 1752 83B0     		sub	sp, sp, #12
 4244              		.cfi_def_cfa_offset 16
 4245 1754 0190     		str	r0, [sp, #4]
 4246 1756 0091     		str	r1, [sp]
 4247              		.loc 1 1508 0
 4248 1758 0198     		ldr	r0, [sp, #4]
 4249 175a 6721     		movs	r1, #103
 4250 175c 009A     		ldr	r2, [sp]
 4251 175e 0123     		movs	r3, #1
 4252 1760 FFF7FEFF 		bl	LSM303AGR_MAG_ReadReg
 4253 1764 0346     		mov	r3, r0
 4254 1766 002B     		cmp	r3, #0
 4255 1768 01D1     		bne	.L269
 4256              		.loc 1 1509 0
 4257 176a 0023     		movs	r3, #0
 4258 176c 07E0     		b	.L270
 4259              	.L269:
 4260              		.loc 1 1511 0
 4261 176e 009B     		ldr	r3, [sp]
 4262 1770 1B78     		ldrb	r3, [r3]	@ zero_extendqisi2
 4263 1772 03F02003 		and	r3, r3, #32
 4264 1776 DAB2     		uxtb	r2, r3
 4265 1778 009B     		ldr	r3, [sp]
 4266 177a 1A70     		strb	r2, [r3]
 4267              		.loc 1 1513 0
 4268 177c 0123     		movs	r3, #1
 4269              	.L270:
ARM GAS  /tmp/ccNUhamC.s 			page 77


 4270              		.loc 1 1514 0
 4271 177e 1846     		mov	r0, r3
 4272 1780 03B0     		add	sp, sp, #12
 4273              		@ sp needed
 4274 1782 5DF804FB 		ldr	pc, [sp], #4
 4275              		.cfi_endproc
 4276              	.LFE72:
 4277              		.size	LSM303AGR_MAG_R_YOR, .-LSM303AGR_MAG_R_YOR
 4278 1786 00BF     		.align	2
 4279 1788 AFF30080 		.p2align 4,,15
 4279      AFF30080 
 4280              		.global	LSM303AGR_MAG_R_ZOR
 4281              		.thumb
 4282              		.thumb_func
 4283              		.type	LSM303AGR_MAG_R_ZOR, %function
 4284              	LSM303AGR_MAG_R_ZOR:
 4285              	.LFB73:
 4286              		.loc 1 1524 0
 4287              		.cfi_startproc
 4288              		@ args = 0, pretend = 0, frame = 8
 4289              		@ frame_needed = 0, uses_anonymous_args = 0
 4290 1790 00B5     		push	{lr}
 4291              		.cfi_def_cfa_offset 4
 4292              		.cfi_offset 14, -4
 4293 1792 83B0     		sub	sp, sp, #12
 4294              		.cfi_def_cfa_offset 16
 4295 1794 0190     		str	r0, [sp, #4]
 4296 1796 0091     		str	r1, [sp]
 4297              		.loc 1 1525 0
 4298 1798 0198     		ldr	r0, [sp, #4]
 4299 179a 6721     		movs	r1, #103
 4300 179c 009A     		ldr	r2, [sp]
 4301 179e 0123     		movs	r3, #1
 4302 17a0 FFF7FEFF 		bl	LSM303AGR_MAG_ReadReg
 4303 17a4 0346     		mov	r3, r0
 4304 17a6 002B     		cmp	r3, #0
 4305 17a8 01D1     		bne	.L272
 4306              		.loc 1 1526 0
 4307 17aa 0023     		movs	r3, #0
 4308 17ac 07E0     		b	.L273
 4309              	.L272:
 4310              		.loc 1 1528 0
 4311 17ae 009B     		ldr	r3, [sp]
 4312 17b0 1B78     		ldrb	r3, [r3]	@ zero_extendqisi2
 4313 17b2 03F04003 		and	r3, r3, #64
 4314 17b6 DAB2     		uxtb	r2, r3
 4315 17b8 009B     		ldr	r3, [sp]
 4316 17ba 1A70     		strb	r2, [r3]
 4317              		.loc 1 1530 0
 4318 17bc 0123     		movs	r3, #1
 4319              	.L273:
 4320              		.loc 1 1531 0
 4321 17be 1846     		mov	r0, r3
 4322 17c0 03B0     		add	sp, sp, #12
 4323              		@ sp needed
 4324 17c2 5DF804FB 		ldr	pc, [sp], #4
 4325              		.cfi_endproc
ARM GAS  /tmp/ccNUhamC.s 			page 78


 4326              	.LFE73:
 4327              		.size	LSM303AGR_MAG_R_ZOR, .-LSM303AGR_MAG_R_ZOR
 4328 17c6 00BF     		.align	2
 4329 17c8 AFF30080 		.p2align 4,,15
 4329      AFF30080 
 4330              		.global	LSM303AGR_MAG_R_ZYXOR
 4331              		.thumb
 4332              		.thumb_func
 4333              		.type	LSM303AGR_MAG_R_ZYXOR, %function
 4334              	LSM303AGR_MAG_R_ZYXOR:
 4335              	.LFB74:
 4336              		.loc 1 1541 0
 4337              		.cfi_startproc
 4338              		@ args = 0, pretend = 0, frame = 8
 4339              		@ frame_needed = 0, uses_anonymous_args = 0
 4340 17d0 00B5     		push	{lr}
 4341              		.cfi_def_cfa_offset 4
 4342              		.cfi_offset 14, -4
 4343 17d2 83B0     		sub	sp, sp, #12
 4344              		.cfi_def_cfa_offset 16
 4345 17d4 0190     		str	r0, [sp, #4]
 4346 17d6 0091     		str	r1, [sp]
 4347              		.loc 1 1542 0
 4348 17d8 0198     		ldr	r0, [sp, #4]
 4349 17da 6721     		movs	r1, #103
 4350 17dc 009A     		ldr	r2, [sp]
 4351 17de 0123     		movs	r3, #1
 4352 17e0 FFF7FEFF 		bl	LSM303AGR_MAG_ReadReg
 4353 17e4 0346     		mov	r3, r0
 4354 17e6 002B     		cmp	r3, #0
 4355 17e8 01D1     		bne	.L275
 4356              		.loc 1 1543 0
 4357 17ea 0023     		movs	r3, #0
 4358 17ec 07E0     		b	.L276
 4359              	.L275:
 4360              		.loc 1 1545 0
 4361 17ee 009B     		ldr	r3, [sp]
 4362 17f0 1B78     		ldrb	r3, [r3]	@ zero_extendqisi2
 4363 17f2 23F07F03 		bic	r3, r3, #127
 4364 17f6 DAB2     		uxtb	r2, r3
 4365 17f8 009B     		ldr	r3, [sp]
 4366 17fa 1A70     		strb	r2, [r3]
 4367              		.loc 1 1547 0
 4368 17fc 0123     		movs	r3, #1
 4369              	.L276:
 4370              		.loc 1 1548 0
 4371 17fe 1846     		mov	r0, r3
 4372 1800 03B0     		add	sp, sp, #12
 4373              		@ sp needed
 4374 1802 5DF804FB 		ldr	pc, [sp], #4
 4375              		.cfi_endproc
 4376              	.LFE74:
 4377              		.size	LSM303AGR_MAG_R_ZYXOR, .-LSM303AGR_MAG_R_ZYXOR
 4378 1806 00BF     		.align	2
 4379 1808 AFF30080 		.p2align 4,,15
 4379      AFF30080 
 4380              		.global	LSM303AGR_MAG_Get_IntThreshld
ARM GAS  /tmp/ccNUhamC.s 			page 79


 4381              		.thumb
 4382              		.thumb_func
 4383              		.type	LSM303AGR_MAG_Get_IntThreshld, %function
 4384              	LSM303AGR_MAG_Get_IntThreshld:
 4385              	.LFB75:
 4386              		.loc 1 1559 0
 4387              		.cfi_startproc
 4388              		@ args = 0, pretend = 0, frame = 16
 4389              		@ frame_needed = 0, uses_anonymous_args = 0
 4390 1810 00B5     		push	{lr}
 4391              		.cfi_def_cfa_offset 4
 4392              		.cfi_offset 14, -4
 4393 1812 85B0     		sub	sp, sp, #20
 4394              		.cfi_def_cfa_offset 24
 4395 1814 0190     		str	r0, [sp, #4]
 4396 1816 0091     		str	r1, [sp]
 4397              		.loc 1 1563 0
 4398 1818 0223     		movs	r3, #2
 4399 181a 8DF80C30 		strb	r3, [sp, #12]
 4400              		.loc 1 1565 0
 4401 181e 0023     		movs	r3, #0
 4402 1820 8DF80D30 		strb	r3, [sp, #13]
 4403              		.loc 1 1566 0
 4404 1824 0023     		movs	r3, #0
 4405 1826 8DF80F30 		strb	r3, [sp, #15]
 4406 182a 2BE0     		b	.L278
 4407              	.L283:
 4408              		.loc 1 1568 0
 4409 182c 0023     		movs	r3, #0
 4410 182e 8DF80E30 		strb	r3, [sp, #14]
 4411 1832 1CE0     		b	.L279
 4412              	.L282:
 4413              		.loc 1 1570 0
 4414 1834 9DF80D30 		ldrb	r3, [sp, #13]
 4415 1838 6533     		adds	r3, r3, #101
 4416 183a DAB2     		uxtb	r2, r3
 4417 183c 9DF80D30 		ldrb	r3, [sp, #13]	@ zero_extendqisi2
 4418 1840 0099     		ldr	r1, [sp]
 4419 1842 0B44     		add	r3, r3, r1
 4420 1844 0198     		ldr	r0, [sp, #4]
 4421 1846 1146     		mov	r1, r2
 4422 1848 1A46     		mov	r2, r3
 4423 184a 0123     		movs	r3, #1
 4424 184c FFF7FEFF 		bl	LSM303AGR_MAG_ReadReg
 4425 1850 0346     		mov	r3, r0
 4426 1852 002B     		cmp	r3, #0
 4427 1854 01D1     		bne	.L280
 4428              		.loc 1 1571 0
 4429 1856 0023     		movs	r3, #0
 4430 1858 19E0     		b	.L281
 4431              	.L280:
 4432              		.loc 1 1572 0
 4433 185a 9DF80D30 		ldrb	r3, [sp, #13]	@ zero_extendqisi2
 4434 185e 0133     		adds	r3, r3, #1
 4435 1860 8DF80D30 		strb	r3, [sp, #13]
 4436              		.loc 1 1568 0
 4437 1864 9DF80E30 		ldrb	r3, [sp, #14]	@ zero_extendqisi2
ARM GAS  /tmp/ccNUhamC.s 			page 80


 4438 1868 0133     		adds	r3, r3, #1
 4439 186a 8DF80E30 		strb	r3, [sp, #14]
 4440              	.L279:
 4441              		.loc 1 1568 0 is_stmt 0 discriminator 1
 4442 186e 9DF80E20 		ldrb	r2, [sp, #14]	@ zero_extendqisi2
 4443 1872 9DF80C30 		ldrb	r3, [sp, #12]	@ zero_extendqisi2
 4444 1876 9A42     		cmp	r2, r3
 4445 1878 DCD3     		bcc	.L282
 4446              		.loc 1 1566 0 is_stmt 1
 4447 187a 9DF80F30 		ldrb	r3, [sp, #15]	@ zero_extendqisi2
 4448 187e 0133     		adds	r3, r3, #1
 4449 1880 8DF80F30 		strb	r3, [sp, #15]
 4450              	.L278:
 4451              		.loc 1 1566 0 is_stmt 0 discriminator 1
 4452 1884 9DF80F30 		ldrb	r3, [sp, #15]	@ zero_extendqisi2
 4453 1888 002B     		cmp	r3, #0
 4454 188a CFD0     		beq	.L283
 4455              		.loc 1 1576 0 is_stmt 1
 4456 188c 0123     		movs	r3, #1
 4457              	.L281:
 4458              		.loc 1 1577 0
 4459 188e 1846     		mov	r0, r3
 4460 1890 05B0     		add	sp, sp, #20
 4461              		@ sp needed
 4462 1892 5DF804FB 		ldr	pc, [sp], #4
 4463              		.cfi_endproc
 4464              	.LFE75:
 4465              		.size	LSM303AGR_MAG_Get_IntThreshld, .-LSM303AGR_MAG_Get_IntThreshld
 4466 1896 00BF     		.align	2
 4467 1898 AFF30080 		.p2align 4,,15
 4467      AFF30080 
 4468              		.global	LSM303AGR_MAG_Set_IntThreshld
 4469              		.thumb
 4470              		.thumb_func
 4471              		.type	LSM303AGR_MAG_Set_IntThreshld, %function
 4472              	LSM303AGR_MAG_Set_IntThreshld:
 4473              	.LFB76:
 4474              		.loc 1 1587 0
 4475              		.cfi_startproc
 4476              		@ args = 0, pretend = 0, frame = 16
 4477              		@ frame_needed = 0, uses_anonymous_args = 0
 4478 18a0 00B5     		push	{lr}
 4479              		.cfi_def_cfa_offset 4
 4480              		.cfi_offset 14, -4
 4481 18a2 85B0     		sub	sp, sp, #20
 4482              		.cfi_def_cfa_offset 24
 4483 18a4 0190     		str	r0, [sp, #4]
 4484 18a6 0091     		str	r1, [sp]
 4485              		.loc 1 1591 0
 4486 18a8 0223     		movs	r3, #2
 4487 18aa 8DF80C30 		strb	r3, [sp, #12]
 4488              		.loc 1 1593 0
 4489 18ae 0023     		movs	r3, #0
 4490 18b0 8DF80D30 		strb	r3, [sp, #13]
 4491              		.loc 1 1594 0
 4492 18b4 0023     		movs	r3, #0
 4493 18b6 8DF80F30 		strb	r3, [sp, #15]
ARM GAS  /tmp/ccNUhamC.s 			page 81


 4494 18ba 2BE0     		b	.L285
 4495              	.L290:
 4496              		.loc 1 1596 0
 4497 18bc 0023     		movs	r3, #0
 4498 18be 8DF80E30 		strb	r3, [sp, #14]
 4499 18c2 1CE0     		b	.L286
 4500              	.L289:
 4501              		.loc 1 1598 0
 4502 18c4 9DF80D30 		ldrb	r3, [sp, #13]
 4503 18c8 6533     		adds	r3, r3, #101
 4504 18ca DAB2     		uxtb	r2, r3
 4505 18cc 9DF80D30 		ldrb	r3, [sp, #13]	@ zero_extendqisi2
 4506 18d0 0099     		ldr	r1, [sp]
 4507 18d2 0B44     		add	r3, r3, r1
 4508 18d4 0198     		ldr	r0, [sp, #4]
 4509 18d6 1146     		mov	r1, r2
 4510 18d8 1A46     		mov	r2, r3
 4511 18da 0123     		movs	r3, #1
 4512 18dc FFF7FEFF 		bl	LSM303AGR_MAG_WriteReg
 4513 18e0 0346     		mov	r3, r0
 4514 18e2 002B     		cmp	r3, #0
 4515 18e4 01D1     		bne	.L287
 4516              		.loc 1 1599 0
 4517 18e6 0023     		movs	r3, #0
 4518 18e8 19E0     		b	.L288
 4519              	.L287:
 4520              		.loc 1 1600 0
 4521 18ea 9DF80D30 		ldrb	r3, [sp, #13]	@ zero_extendqisi2
 4522 18ee 0133     		adds	r3, r3, #1
 4523 18f0 8DF80D30 		strb	r3, [sp, #13]
 4524              		.loc 1 1596 0
 4525 18f4 9DF80E30 		ldrb	r3, [sp, #14]	@ zero_extendqisi2
 4526 18f8 0133     		adds	r3, r3, #1
 4527 18fa 8DF80E30 		strb	r3, [sp, #14]
 4528              	.L286:
 4529              		.loc 1 1596 0 is_stmt 0 discriminator 1
 4530 18fe 9DF80E20 		ldrb	r2, [sp, #14]	@ zero_extendqisi2
 4531 1902 9DF80C30 		ldrb	r3, [sp, #12]	@ zero_extendqisi2
 4532 1906 9A42     		cmp	r2, r3
 4533 1908 DCD3     		bcc	.L289
 4534              		.loc 1 1594 0 is_stmt 1
 4535 190a 9DF80F30 		ldrb	r3, [sp, #15]	@ zero_extendqisi2
 4536 190e 0133     		adds	r3, r3, #1
 4537 1910 8DF80F30 		strb	r3, [sp, #15]
 4538              	.L285:
 4539              		.loc 1 1594 0 is_stmt 0 discriminator 1
 4540 1914 9DF80F30 		ldrb	r3, [sp, #15]	@ zero_extendqisi2
 4541 1918 002B     		cmp	r3, #0
 4542 191a CFD0     		beq	.L290
 4543              		.loc 1 1604 0 is_stmt 1
 4544 191c 0123     		movs	r3, #1
 4545              	.L288:
 4546              		.loc 1 1605 0
 4547 191e 1846     		mov	r0, r3
 4548 1920 05B0     		add	sp, sp, #20
 4549              		@ sp needed
 4550 1922 5DF804FB 		ldr	pc, [sp], #4
ARM GAS  /tmp/ccNUhamC.s 			page 82


 4551              		.cfi_endproc
 4552              	.LFE76:
 4553              		.size	LSM303AGR_MAG_Set_IntThreshld, .-LSM303AGR_MAG_Set_IntThreshld
 4554              	.Letext0:
 4555              		.file 2 "../../../../../Drivers/BSP/Components/lsm303agr/LSM303AGR_MAG_driver.h"