ARM GAS  /tmp/ccvV0fnY.s 			page 1


   1              		.syntax unified
   2              		.cpu cortex-m4
   3              		.fpu softvfp
   4              		.eabi_attribute 20, 1
   5              		.eabi_attribute 21, 1
   6              		.eabi_attribute 23, 3
   7              		.eabi_attribute 24, 1
   8              		.eabi_attribute 25, 1
   9              		.eabi_attribute 26, 1
  10              		.eabi_attribute 30, 6
  11              		.eabi_attribute 34, 1
  12              		.eabi_attribute 18, 4
  13              		.thumb
  14              		.file	"LSM6DSM_ACC_GYRO_driver.c"
  15              		.text
  16              	.Ltext0:
  17              		.cfi_sections	.debug_frame
  18              		.align	2
  19              		.p2align 4,,15
  20              		.thumb
  21              		.thumb_func
  22              		.type	LSM6DSM_ACC_GYRO_ReadReg, %function
  23              	LSM6DSM_ACC_GYRO_ReadReg:
  24              	.LFB0:
  25              		.file 1 "../../../../../Drivers/BSP/Components/lsm6dsm/LSM6DSM_ACC_GYRO_driver.c"
  26              		.loc 1 54 0
  27              		.cfi_startproc
  28              		@ args = 0, pretend = 0, frame = 16
  29              		@ frame_needed = 0, uses_anonymous_args = 0
  30 0000 00B5     		push	{lr}
  31              		.cfi_def_cfa_offset 4
  32              		.cfi_offset 14, -4
  33 0002 85B0     		sub	sp, sp, #20
  34              		.cfi_def_cfa_offset 24
  35 0004 0390     		str	r0, [sp, #12]
  36 0006 0B46     		mov	r3, r1
  37 0008 0192     		str	r2, [sp, #4]
  38 000a 8DF80B30 		strb	r3, [sp, #11]
  39              		.loc 1 56 0
  40 000e 9DF80B30 		ldrb	r3, [sp, #11]	@ zero_extendqisi2
  41 0012 0398     		ldr	r0, [sp, #12]
  42 0014 1946     		mov	r1, r3
  43 0016 019A     		ldr	r2, [sp, #4]
  44 0018 0123     		movs	r3, #1
  45 001a FFF7FEFF 		bl	Sensor_IO_Read
  46 001e 0346     		mov	r3, r0
  47 0020 002B     		cmp	r3, #0
  48 0022 01D0     		beq	.L2
  49              		.loc 1 58 0
  50 0024 0023     		movs	r3, #0
  51 0026 00E0     		b	.L3
  52              	.L2:
  53              		.loc 1 62 0
  54 0028 0123     		movs	r3, #1
  55              	.L3:
  56              		.loc 1 64 0
  57 002a 1846     		mov	r0, r3
ARM GAS  /tmp/ccvV0fnY.s 			page 2


  58 002c 05B0     		add	sp, sp, #20
  59              		@ sp needed
  60 002e 5DF804FB 		ldr	pc, [sp], #4
  61              		.cfi_endproc
  62              	.LFE0:
  63              		.size	LSM6DSM_ACC_GYRO_ReadReg, .-LSM6DSM_ACC_GYRO_ReadReg
  64 0032 00BF     		.align	2
  65 0034 AFF30080 		.p2align 4,,15
  65      AFF30080 
  65      AFF30080 
  66              		.thumb
  67              		.thumb_func
  68              		.type	LSM6DSM_ACC_GYRO_WriteReg, %function
  69              	LSM6DSM_ACC_GYRO_WriteReg:
  70              	.LFB1:
  71              		.loc 1 75 0
  72              		.cfi_startproc
  73              		@ args = 0, pretend = 0, frame = 8
  74              		@ frame_needed = 0, uses_anonymous_args = 0
  75 0040 00B5     		push	{lr}
  76              		.cfi_def_cfa_offset 4
  77              		.cfi_offset 14, -4
  78 0042 83B0     		sub	sp, sp, #12
  79              		.cfi_def_cfa_offset 16
  80 0044 0190     		str	r0, [sp, #4]
  81 0046 1346     		mov	r3, r2
  82 0048 0A46     		mov	r2, r1
  83 004a 8DF80320 		strb	r2, [sp, #3]
  84 004e 8DF80230 		strb	r3, [sp, #2]
  85              		.loc 1 77 0
  86 0052 9DF80320 		ldrb	r2, [sp, #3]	@ zero_extendqisi2
  87 0056 0DF10203 		add	r3, sp, #2
  88 005a 0198     		ldr	r0, [sp, #4]
  89 005c 1146     		mov	r1, r2
  90 005e 1A46     		mov	r2, r3
  91 0060 0123     		movs	r3, #1
  92 0062 FFF7FEFF 		bl	Sensor_IO_Write
  93 0066 0346     		mov	r3, r0
  94 0068 002B     		cmp	r3, #0
  95 006a 01D0     		beq	.L5
  96              		.loc 1 79 0
  97 006c 0023     		movs	r3, #0
  98 006e 00E0     		b	.L6
  99              	.L5:
 100              		.loc 1 83 0
 101 0070 0123     		movs	r3, #1
 102              	.L6:
 103              		.loc 1 85 0
 104 0072 1846     		mov	r0, r3
 105 0074 03B0     		add	sp, sp, #12
 106              		@ sp needed
 107 0076 5DF804FB 		ldr	pc, [sp], #4
 108              		.cfi_endproc
 109              	.LFE1:
 110              		.size	LSM6DSM_ACC_GYRO_WriteReg, .-LSM6DSM_ACC_GYRO_WriteReg
 111 007a 00BF     		.align	2
 112 007c AFF30080 		.p2align 4,,15
ARM GAS  /tmp/ccvV0fnY.s 			page 3


 113              		.global	LSM6DSM_ACC_GYRO_WriteMem
 114              		.thumb
 115              		.thumb_func
 116              		.type	LSM6DSM_ACC_GYRO_WriteMem, %function
 117              	LSM6DSM_ACC_GYRO_WriteMem:
 118              	.LFB2:
 119              		.loc 1 97 0
 120              		.cfi_startproc
 121              		@ args = 0, pretend = 0, frame = 16
 122              		@ frame_needed = 0, uses_anonymous_args = 0
 123 0080 00B5     		push	{lr}
 124              		.cfi_def_cfa_offset 4
 125              		.cfi_offset 14, -4
 126 0082 85B0     		sub	sp, sp, #20
 127              		.cfi_def_cfa_offset 24
 128 0084 0390     		str	r0, [sp, #12]
 129 0086 0192     		str	r2, [sp, #4]
 130 0088 0A46     		mov	r2, r1
 131 008a 8DF80B20 		strb	r2, [sp, #11]
 132 008e ADF80830 		strh	r3, [sp, #8]	@ movhi
 133              		.loc 1 99 0
 134 0092 9DF80B20 		ldrb	r2, [sp, #11]	@ zero_extendqisi2
 135 0096 BDF80830 		ldrh	r3, [sp, #8]
 136 009a 0398     		ldr	r0, [sp, #12]
 137 009c 1146     		mov	r1, r2
 138 009e 019A     		ldr	r2, [sp, #4]
 139 00a0 FFF7FEFF 		bl	Sensor_IO_Write
 140 00a4 0346     		mov	r3, r0
 141 00a6 002B     		cmp	r3, #0
 142 00a8 01D0     		beq	.L8
 143              		.loc 1 101 0
 144 00aa 0023     		movs	r3, #0
 145 00ac 00E0     		b	.L9
 146              	.L8:
 147              		.loc 1 105 0
 148 00ae 0123     		movs	r3, #1
 149              	.L9:
 150              		.loc 1 107 0
 151 00b0 1846     		mov	r0, r3
 152 00b2 05B0     		add	sp, sp, #20
 153              		@ sp needed
 154 00b4 5DF804FB 		ldr	pc, [sp], #4
 155              		.cfi_endproc
 156              	.LFE2:
 157              		.size	LSM6DSM_ACC_GYRO_WriteMem, .-LSM6DSM_ACC_GYRO_WriteMem
 158              		.align	2
 159 00b8 AFF30080 		.p2align 4,,15
 159      AFF30080 
 160              		.global	LSM6DSM_ACC_GYRO_ReadMem
 161              		.thumb
 162              		.thumb_func
 163              		.type	LSM6DSM_ACC_GYRO_ReadMem, %function
 164              	LSM6DSM_ACC_GYRO_ReadMem:
 165              	.LFB3:
 166              		.loc 1 119 0
 167              		.cfi_startproc
 168              		@ args = 0, pretend = 0, frame = 16
ARM GAS  /tmp/ccvV0fnY.s 			page 4


 169              		@ frame_needed = 0, uses_anonymous_args = 0
 170 00c0 00B5     		push	{lr}
 171              		.cfi_def_cfa_offset 4
 172              		.cfi_offset 14, -4
 173 00c2 85B0     		sub	sp, sp, #20
 174              		.cfi_def_cfa_offset 24
 175 00c4 0390     		str	r0, [sp, #12]
 176 00c6 0192     		str	r2, [sp, #4]
 177 00c8 0A46     		mov	r2, r1
 178 00ca 8DF80B20 		strb	r2, [sp, #11]
 179 00ce ADF80830 		strh	r3, [sp, #8]	@ movhi
 180              		.loc 1 121 0
 181 00d2 9DF80B20 		ldrb	r2, [sp, #11]	@ zero_extendqisi2
 182 00d6 BDF80830 		ldrh	r3, [sp, #8]
 183 00da 0398     		ldr	r0, [sp, #12]
 184 00dc 1146     		mov	r1, r2
 185 00de 019A     		ldr	r2, [sp, #4]
 186 00e0 FFF7FEFF 		bl	Sensor_IO_Read
 187 00e4 0346     		mov	r3, r0
 188 00e6 002B     		cmp	r3, #0
 189 00e8 01D0     		beq	.L11
 190              		.loc 1 123 0
 191 00ea 0023     		movs	r3, #0
 192 00ec 00E0     		b	.L12
 193              	.L11:
 194              		.loc 1 127 0
 195 00ee 0123     		movs	r3, #1
 196              	.L12:
 197              		.loc 1 129 0
 198 00f0 1846     		mov	r0, r3
 199 00f2 05B0     		add	sp, sp, #20
 200              		@ sp needed
 201 00f4 5DF804FB 		ldr	pc, [sp], #4
 202              		.cfi_endproc
 203              	.LFE3:
 204              		.size	LSM6DSM_ACC_GYRO_ReadMem, .-LSM6DSM_ACC_GYRO_ReadMem
 205              		.align	2
 206 00f8 AFF30080 		.p2align 4,,15
 206      AFF30080 
 207              		.global	LSM6DSM_ACC_GYRO_SwapHighLowByte
 208              		.thumb
 209              		.thumb_func
 210              		.type	LSM6DSM_ACC_GYRO_SwapHighLowByte, %function
 211              	LSM6DSM_ACC_GYRO_SwapHighLowByte:
 212              	.LFB4:
 213              		.loc 1 145 0
 214              		.cfi_startproc
 215              		@ args = 0, pretend = 0, frame = 24
 216              		@ frame_needed = 0, uses_anonymous_args = 0
 217              		@ link register save eliminated.
 218 0100 86B0     		sub	sp, sp, #24
 219              		.cfi_def_cfa_offset 24
 220 0102 0190     		str	r0, [sp, #4]
 221 0104 1346     		mov	r3, r2
 222 0106 0A46     		mov	r2, r1
 223 0108 8DF80320 		strb	r2, [sp, #3]
 224 010c 8DF80230 		strb	r3, [sp, #2]
ARM GAS  /tmp/ccvV0fnY.s 			page 5


 225              		.loc 1 150 0
 226 0110 9DF80320 		ldrb	r2, [sp, #3]	@ zero_extendqisi2
 227 0114 9DF80230 		ldrb	r3, [sp, #2]	@ zero_extendqisi2
 228 0118 B2FBF3F3 		udiv	r3, r2, r3
 229 011c 8DF81530 		strb	r3, [sp, #21]
 230              		.loc 1 152 0
 231 0120 0023     		movs	r3, #0
 232 0122 8DF81730 		strb	r3, [sp, #23]
 233 0126 4AE0     		b	.L14
 234              	.L19:
 235              		.loc 1 154 0
 236 0128 0023     		movs	r3, #0
 237 012a 8DF81630 		strb	r3, [sp, #22]
 238 012e 16E0     		b	.L15
 239              	.L16:
 240              		.loc 1 155 0 discriminator 2
 241 0130 9DF81630 		ldrb	r3, [sp, #22]	@ zero_extendqisi2
 242 0134 9DF81610 		ldrb	r1, [sp, #22]	@ zero_extendqisi2
 243 0138 9DF81720 		ldrb	r2, [sp, #23]	@ zero_extendqisi2
 244 013c 9DF81500 		ldrb	r0, [sp, #21]	@ zero_extendqisi2
 245 0140 00FB02F2 		mul	r2, r0, r2
 246 0144 0A44     		add	r2, r2, r1
 247 0146 0199     		ldr	r1, [sp, #4]
 248 0148 0A44     		add	r2, r2, r1
 249 014a 1278     		ldrb	r2, [r2]	@ zero_extendqisi2
 250 014c 06A9     		add	r1, sp, #24
 251 014e 0B44     		add	r3, r3, r1
 252 0150 03F8102C 		strb	r2, [r3, #-16]
 253              		.loc 1 154 0 discriminator 2
 254 0154 9DF81630 		ldrb	r3, [sp, #22]	@ zero_extendqisi2
 255 0158 0133     		adds	r3, r3, #1
 256 015a 8DF81630 		strb	r3, [sp, #22]
 257              	.L15:
 258              		.loc 1 154 0 is_stmt 0 discriminator 1
 259 015e 9DF81620 		ldrb	r2, [sp, #22]	@ zero_extendqisi2
 260 0162 9DF81530 		ldrb	r3, [sp, #21]	@ zero_extendqisi2
 261 0166 9A42     		cmp	r2, r3
 262 0168 E2D3     		bcc	.L16
 263              		.loc 1 156 0 is_stmt 1
 264 016a 0023     		movs	r3, #0
 265 016c 8DF81630 		strb	r3, [sp, #22]
 266 0170 1AE0     		b	.L17
 267              	.L18:
 268              		.loc 1 157 0 discriminator 2
 269 0172 9DF81730 		ldrb	r3, [sp, #23]	@ zero_extendqisi2
 270 0176 9DF81520 		ldrb	r2, [sp, #21]	@ zero_extendqisi2
 271 017a 02FB03F3 		mul	r3, r2, r3
 272 017e 1A46     		mov	r2, r3
 273 0180 9DF81630 		ldrb	r3, [sp, #22]	@ zero_extendqisi2
 274 0184 1344     		add	r3, r3, r2
 275 0186 019A     		ldr	r2, [sp, #4]
 276 0188 1344     		add	r3, r3, r2
 277 018a 9DF81510 		ldrb	r1, [sp, #21]	@ zero_extendqisi2
 278 018e 9DF81620 		ldrb	r2, [sp, #22]	@ zero_extendqisi2
 279 0192 8A1A     		subs	r2, r1, r2
 280 0194 013A     		subs	r2, r2, #1
 281 0196 02A9     		add	r1, sp, #8
ARM GAS  /tmp/ccvV0fnY.s 			page 6


 282 0198 0A44     		add	r2, r2, r1
 283 019a 1278     		ldrb	r2, [r2]	@ zero_extendqisi2
 284 019c 1A70     		strb	r2, [r3]
 285              		.loc 1 156 0 discriminator 2
 286 019e 9DF81630 		ldrb	r3, [sp, #22]	@ zero_extendqisi2
 287 01a2 0133     		adds	r3, r3, #1
 288 01a4 8DF81630 		strb	r3, [sp, #22]
 289              	.L17:
 290              		.loc 1 156 0 is_stmt 0 discriminator 1
 291 01a8 9DF81620 		ldrb	r2, [sp, #22]	@ zero_extendqisi2
 292 01ac 9DF81530 		ldrb	r3, [sp, #21]	@ zero_extendqisi2
 293 01b0 9A42     		cmp	r2, r3
 294 01b2 DED3     		bcc	.L18
 295              		.loc 1 152 0 is_stmt 1
 296 01b4 9DF81730 		ldrb	r3, [sp, #23]	@ zero_extendqisi2
 297 01b8 0133     		adds	r3, r3, #1
 298 01ba 8DF81730 		strb	r3, [sp, #23]
 299              	.L14:
 300              		.loc 1 152 0 is_stmt 0 discriminator 1
 301 01be 9DF81720 		ldrb	r2, [sp, #23]	@ zero_extendqisi2
 302 01c2 9DF80230 		ldrb	r3, [sp, #2]	@ zero_extendqisi2
 303 01c6 9A42     		cmp	r2, r3
 304 01c8 AED3     		bcc	.L19
 305              		.loc 1 159 0 is_stmt 1
 306 01ca 06B0     		add	sp, sp, #24
 307              		@ sp needed
 308 01cc 7047     		bx	lr
 309              		.cfi_endproc
 310              	.LFE4:
 311              		.size	LSM6DSM_ACC_GYRO_SwapHighLowByte, .-LSM6DSM_ACC_GYRO_SwapHighLowByte
 312 01ce 00BF     		.align	2
 313              		.p2align 4,,15
 314              		.global	LSM6DSM_ACC_GYRO_W_EmbeddedAccess
 315              		.thumb
 316              		.thumb_func
 317              		.type	LSM6DSM_ACC_GYRO_W_EmbeddedAccess, %function
 318              	LSM6DSM_ACC_GYRO_W_EmbeddedAccess:
 319              	.LFB5:
 320              		.loc 1 171 0
 321              		.cfi_startproc
 322              		@ args = 0, pretend = 0, frame = 16
 323              		@ frame_needed = 0, uses_anonymous_args = 0
 324 01d0 00B5     		push	{lr}
 325              		.cfi_def_cfa_offset 4
 326              		.cfi_offset 14, -4
 327 01d2 85B0     		sub	sp, sp, #20
 328              		.cfi_def_cfa_offset 24
 329 01d4 0190     		str	r0, [sp, #4]
 330 01d6 0B46     		mov	r3, r1
 331 01d8 8DF80330 		strb	r3, [sp, #3]
 332              		.loc 1 174 0
 333 01dc 0DF10F03 		add	r3, sp, #15
 334 01e0 0198     		ldr	r0, [sp, #4]
 335 01e2 0121     		movs	r1, #1
 336 01e4 1A46     		mov	r2, r3
 337 01e6 FFF70BFF 		bl	LSM6DSM_ACC_GYRO_ReadReg
 338 01ea 0346     		mov	r3, r0
ARM GAS  /tmp/ccvV0fnY.s 			page 7


 339 01ec 002B     		cmp	r3, #0
 340 01ee 01D1     		bne	.L21
 341              		.loc 1 175 0
 342 01f0 0023     		movs	r3, #0
 343 01f2 1BE0     		b	.L24
 344              	.L21:
 345              		.loc 1 177 0
 346 01f4 9DF80F30 		ldrb	r3, [sp, #15]	@ zero_extendqisi2
 347 01f8 03F07F03 		and	r3, r3, #127
 348 01fc DBB2     		uxtb	r3, r3
 349 01fe 8DF80F30 		strb	r3, [sp, #15]
 350              		.loc 1 178 0
 351 0202 9DF80F20 		ldrb	r2, [sp, #15]	@ zero_extendqisi2
 352 0206 9DF80330 		ldrb	r3, [sp, #3]
 353 020a 1343     		orrs	r3, r3, r2
 354 020c DBB2     		uxtb	r3, r3
 355 020e 8DF80F30 		strb	r3, [sp, #15]
 356              		.loc 1 180 0
 357 0212 9DF80F30 		ldrb	r3, [sp, #15]	@ zero_extendqisi2
 358 0216 0198     		ldr	r0, [sp, #4]
 359 0218 0121     		movs	r1, #1
 360 021a 1A46     		mov	r2, r3
 361 021c FFF710FF 		bl	LSM6DSM_ACC_GYRO_WriteReg
 362 0220 0346     		mov	r3, r0
 363 0222 002B     		cmp	r3, #0
 364 0224 01D1     		bne	.L23
 365              		.loc 1 181 0
 366 0226 0023     		movs	r3, #0
 367 0228 00E0     		b	.L24
 368              	.L23:
 369              		.loc 1 183 0
 370 022a 0123     		movs	r3, #1
 371              	.L24:
 372              		.loc 1 184 0
 373 022c 1846     		mov	r0, r3
 374 022e 05B0     		add	sp, sp, #20
 375              		@ sp needed
 376 0230 5DF804FB 		ldr	pc, [sp], #4
 377              		.cfi_endproc
 378              	.LFE5:
 379              		.size	LSM6DSM_ACC_GYRO_W_EmbeddedAccess, .-LSM6DSM_ACC_GYRO_W_EmbeddedAccess
 380              		.align	2
 381 0234 AFF30080 		.p2align 4,,15
 381      AFF30080 
 381      AFF30080 
 382              		.global	LSM6DSM_ACC_GYRO_R_EmbeddedAccess
 383              		.thumb
 384              		.thumb_func
 385              		.type	LSM6DSM_ACC_GYRO_R_EmbeddedAccess, %function
 386              	LSM6DSM_ACC_GYRO_R_EmbeddedAccess:
 387              	.LFB6:
 388              		.loc 1 195 0
 389              		.cfi_startproc
 390              		@ args = 0, pretend = 0, frame = 8
 391              		@ frame_needed = 0, uses_anonymous_args = 0
 392 0240 00B5     		push	{lr}
 393              		.cfi_def_cfa_offset 4
ARM GAS  /tmp/ccvV0fnY.s 			page 8


 394              		.cfi_offset 14, -4
 395 0242 83B0     		sub	sp, sp, #12
 396              		.cfi_def_cfa_offset 16
 397 0244 0190     		str	r0, [sp, #4]
 398 0246 0091     		str	r1, [sp]
 399              		.loc 1 196 0
 400 0248 0198     		ldr	r0, [sp, #4]
 401 024a 0121     		movs	r1, #1
 402 024c 009A     		ldr	r2, [sp]
 403 024e FFF7D7FE 		bl	LSM6DSM_ACC_GYRO_ReadReg
 404 0252 0346     		mov	r3, r0
 405 0254 002B     		cmp	r3, #0
 406 0256 01D1     		bne	.L26
 407              		.loc 1 197 0
 408 0258 0023     		movs	r3, #0
 409 025a 07E0     		b	.L27
 410              	.L26:
 411              		.loc 1 199 0
 412 025c 009B     		ldr	r3, [sp]
 413 025e 1B78     		ldrb	r3, [r3]	@ zero_extendqisi2
 414 0260 23F07F03 		bic	r3, r3, #127
 415 0264 DAB2     		uxtb	r2, r3
 416 0266 009B     		ldr	r3, [sp]
 417 0268 1A70     		strb	r2, [r3]
 418              		.loc 1 201 0
 419 026a 0123     		movs	r3, #1
 420              	.L27:
 421              		.loc 1 202 0
 422 026c 1846     		mov	r0, r3
 423 026e 03B0     		add	sp, sp, #12
 424              		@ sp needed
 425 0270 5DF804FB 		ldr	pc, [sp], #4
 426              		.cfi_endproc
 427              	.LFE6:
 428              		.size	LSM6DSM_ACC_GYRO_R_EmbeddedAccess, .-LSM6DSM_ACC_GYRO_R_EmbeddedAccess
 429              		.align	2
 430 0274 AFF30080 		.p2align 4,,15
 430      AFF30080 
 430      AFF30080 
 431              		.global	LSM6DSM_ACC_GYRO_W_SYNC_RES_RATIO
 432              		.thumb
 433              		.thumb_func
 434              		.type	LSM6DSM_ACC_GYRO_W_SYNC_RES_RATIO, %function
 435              	LSM6DSM_ACC_GYRO_W_SYNC_RES_RATIO:
 436              	.LFB7:
 437              		.loc 1 212 0
 438              		.cfi_startproc
 439              		@ args = 0, pretend = 0, frame = 16
 440              		@ frame_needed = 0, uses_anonymous_args = 0
 441 0280 00B5     		push	{lr}
 442              		.cfi_def_cfa_offset 4
 443              		.cfi_offset 14, -4
 444 0282 85B0     		sub	sp, sp, #20
 445              		.cfi_def_cfa_offset 24
 446 0284 0190     		str	r0, [sp, #4]
 447 0286 0B46     		mov	r3, r1
 448 0288 8DF80330 		strb	r3, [sp, #3]
ARM GAS  /tmp/ccvV0fnY.s 			page 9


 449              		.loc 1 215 0
 450 028c 0DF10F03 		add	r3, sp, #15
 451 0290 0198     		ldr	r0, [sp, #4]
 452 0292 0521     		movs	r1, #5
 453 0294 1A46     		mov	r2, r3
 454 0296 FFF7B3FE 		bl	LSM6DSM_ACC_GYRO_ReadReg
 455 029a 0346     		mov	r3, r0
 456 029c 002B     		cmp	r3, #0
 457 029e 01D1     		bne	.L29
 458              		.loc 1 216 0
 459 02a0 0023     		movs	r3, #0
 460 02a2 1BE0     		b	.L32
 461              	.L29:
 462              		.loc 1 218 0
 463 02a4 9DF80F30 		ldrb	r3, [sp, #15]	@ zero_extendqisi2
 464 02a8 23F00303 		bic	r3, r3, #3
 465 02ac DBB2     		uxtb	r3, r3
 466 02ae 8DF80F30 		strb	r3, [sp, #15]
 467              		.loc 1 219 0
 468 02b2 9DF80F20 		ldrb	r2, [sp, #15]	@ zero_extendqisi2
 469 02b6 9DF80330 		ldrb	r3, [sp, #3]
 470 02ba 1343     		orrs	r3, r3, r2
 471 02bc DBB2     		uxtb	r3, r3
 472 02be 8DF80F30 		strb	r3, [sp, #15]
 473              		.loc 1 221 0
 474 02c2 9DF80F30 		ldrb	r3, [sp, #15]	@ zero_extendqisi2
 475 02c6 0198     		ldr	r0, [sp, #4]
 476 02c8 0521     		movs	r1, #5
 477 02ca 1A46     		mov	r2, r3
 478 02cc FFF7B8FE 		bl	LSM6DSM_ACC_GYRO_WriteReg
 479 02d0 0346     		mov	r3, r0
 480 02d2 002B     		cmp	r3, #0
 481 02d4 01D1     		bne	.L31
 482              		.loc 1 222 0
 483 02d6 0023     		movs	r3, #0
 484 02d8 00E0     		b	.L32
 485              	.L31:
 486              		.loc 1 224 0
 487 02da 0123     		movs	r3, #1
 488              	.L32:
 489              		.loc 1 225 0
 490 02dc 1846     		mov	r0, r3
 491 02de 05B0     		add	sp, sp, #20
 492              		@ sp needed
 493 02e0 5DF804FB 		ldr	pc, [sp], #4
 494              		.cfi_endproc
 495              	.LFE7:
 496              		.size	LSM6DSM_ACC_GYRO_W_SYNC_RES_RATIO, .-LSM6DSM_ACC_GYRO_W_SYNC_RES_RATIO
 497              		.align	2
 498 02e4 AFF30080 		.p2align 4,,15
 498      AFF30080 
 498      AFF30080 
 499              		.global	LSM6DSM_ACC_GYRO_R_SYNC_RES_RATIO
 500              		.thumb
 501              		.thumb_func
 502              		.type	LSM6DSM_ACC_GYRO_R_SYNC_RES_RATIO, %function
 503              	LSM6DSM_ACC_GYRO_R_SYNC_RES_RATIO:
ARM GAS  /tmp/ccvV0fnY.s 			page 10


 504              	.LFB8:
 505              		.loc 1 236 0
 506              		.cfi_startproc
 507              		@ args = 0, pretend = 0, frame = 8
 508              		@ frame_needed = 0, uses_anonymous_args = 0
 509 02f0 00B5     		push	{lr}
 510              		.cfi_def_cfa_offset 4
 511              		.cfi_offset 14, -4
 512 02f2 83B0     		sub	sp, sp, #12
 513              		.cfi_def_cfa_offset 16
 514 02f4 0190     		str	r0, [sp, #4]
 515 02f6 0091     		str	r1, [sp]
 516              		.loc 1 237 0
 517 02f8 0198     		ldr	r0, [sp, #4]
 518 02fa 0521     		movs	r1, #5
 519 02fc 009A     		ldr	r2, [sp]
 520 02fe FFF77FFE 		bl	LSM6DSM_ACC_GYRO_ReadReg
 521 0302 0346     		mov	r3, r0
 522 0304 002B     		cmp	r3, #0
 523 0306 01D1     		bne	.L34
 524              		.loc 1 238 0
 525 0308 0023     		movs	r3, #0
 526 030a 07E0     		b	.L35
 527              	.L34:
 528              		.loc 1 240 0
 529 030c 009B     		ldr	r3, [sp]
 530 030e 1B78     		ldrb	r3, [r3]	@ zero_extendqisi2
 531 0310 03F00303 		and	r3, r3, #3
 532 0314 DAB2     		uxtb	r2, r3
 533 0316 009B     		ldr	r3, [sp]
 534 0318 1A70     		strb	r2, [r3]
 535              		.loc 1 242 0
 536 031a 0123     		movs	r3, #1
 537              	.L35:
 538              		.loc 1 243 0
 539 031c 1846     		mov	r0, r3
 540 031e 03B0     		add	sp, sp, #12
 541              		@ sp needed
 542 0320 5DF804FB 		ldr	pc, [sp], #4
 543              		.cfi_endproc
 544              	.LFE8:
 545              		.size	LSM6DSM_ACC_GYRO_R_SYNC_RES_RATIO, .-LSM6DSM_ACC_GYRO_R_SYNC_RES_RATIO
 546              		.align	2
 547 0324 AFF30080 		.p2align 4,,15
 547      AFF30080 
 547      AFF30080 
 548              		.global	LSM6DSM_ACC_GYRO_W_Stamping_Time_Frame
 549              		.thumb
 550              		.thumb_func
 551              		.type	LSM6DSM_ACC_GYRO_W_Stamping_Time_Frame, %function
 552              	LSM6DSM_ACC_GYRO_W_Stamping_Time_Frame:
 553              	.LFB9:
 554              		.loc 1 253 0
 555              		.cfi_startproc
 556              		@ args = 0, pretend = 0, frame = 16
 557              		@ frame_needed = 0, uses_anonymous_args = 0
 558 0330 00B5     		push	{lr}
ARM GAS  /tmp/ccvV0fnY.s 			page 11


 559              		.cfi_def_cfa_offset 4
 560              		.cfi_offset 14, -4
 561 0332 85B0     		sub	sp, sp, #20
 562              		.cfi_def_cfa_offset 24
 563 0334 0190     		str	r0, [sp, #4]
 564 0336 0B46     		mov	r3, r1
 565 0338 8DF80330 		strb	r3, [sp, #3]
 566              		.loc 1 259 0
 567 033c 0DF10F03 		add	r3, sp, #15
 568 0340 0198     		ldr	r0, [sp, #4]
 569 0342 0421     		movs	r1, #4
 570 0344 1A46     		mov	r2, r3
 571 0346 FFF75BFE 		bl	LSM6DSM_ACC_GYRO_ReadReg
 572 034a 0346     		mov	r3, r0
 573 034c 002B     		cmp	r3, #0
 574 034e 01D1     		bne	.L37
 575              		.loc 1 260 0
 576 0350 0023     		movs	r3, #0
 577 0352 17E0     		b	.L40
 578              	.L37:
 579              		.loc 1 262 0
 580 0354 0023     		movs	r3, #0
 581 0356 8DF80F30 		strb	r3, [sp, #15]
 582              		.loc 1 263 0
 583 035a 9DF80F20 		ldrb	r2, [sp, #15]	@ zero_extendqisi2
 584 035e 9DF80330 		ldrb	r3, [sp, #3]
 585 0362 1343     		orrs	r3, r3, r2
 586 0364 DBB2     		uxtb	r3, r3
 587 0366 8DF80F30 		strb	r3, [sp, #15]
 588              		.loc 1 265 0
 589 036a 9DF80F30 		ldrb	r3, [sp, #15]	@ zero_extendqisi2
 590 036e 0198     		ldr	r0, [sp, #4]
 591 0370 0421     		movs	r1, #4
 592 0372 1A46     		mov	r2, r3
 593 0374 FFF764FE 		bl	LSM6DSM_ACC_GYRO_WriteReg
 594 0378 0346     		mov	r3, r0
 595 037a 002B     		cmp	r3, #0
 596 037c 01D1     		bne	.L39
 597              		.loc 1 266 0
 598 037e 0023     		movs	r3, #0
 599 0380 00E0     		b	.L40
 600              	.L39:
 601              		.loc 1 268 0
 602 0382 0123     		movs	r3, #1
 603              	.L40:
 604              		.loc 1 269 0
 605 0384 1846     		mov	r0, r3
 606 0386 05B0     		add	sp, sp, #20
 607              		@ sp needed
 608 0388 5DF804FB 		ldr	pc, [sp], #4
 609              		.cfi_endproc
 610              	.LFE9:
 611              		.size	LSM6DSM_ACC_GYRO_W_Stamping_Time_Frame, .-LSM6DSM_ACC_GYRO_W_Stamping_Time_Frame
 612              		.align	2
 613 038c AFF30080 		.p2align 4,,15
 614              		.global	LSM6DSM_ACC_GYRO_R_Stamping_Time_Frame
 615              		.thumb
ARM GAS  /tmp/ccvV0fnY.s 			page 12


 616              		.thumb_func
 617              		.type	LSM6DSM_ACC_GYRO_R_Stamping_Time_Frame, %function
 618              	LSM6DSM_ACC_GYRO_R_Stamping_Time_Frame:
 619              	.LFB10:
 620              		.loc 1 280 0
 621              		.cfi_startproc
 622              		@ args = 0, pretend = 0, frame = 8
 623              		@ frame_needed = 0, uses_anonymous_args = 0
 624 0390 00B5     		push	{lr}
 625              		.cfi_def_cfa_offset 4
 626              		.cfi_offset 14, -4
 627 0392 83B0     		sub	sp, sp, #12
 628              		.cfi_def_cfa_offset 16
 629 0394 0190     		str	r0, [sp, #4]
 630 0396 0091     		str	r1, [sp]
 631              		.loc 1 281 0
 632 0398 0198     		ldr	r0, [sp, #4]
 633 039a 0421     		movs	r1, #4
 634 039c 009A     		ldr	r2, [sp]
 635 039e FFF72FFE 		bl	LSM6DSM_ACC_GYRO_ReadReg
 636 03a2 0346     		mov	r3, r0
 637 03a4 002B     		cmp	r3, #0
 638 03a6 01D1     		bne	.L42
 639              		.loc 1 282 0
 640 03a8 0023     		movs	r3, #0
 641 03aa 08E0     		b	.L43
 642              	.L42:
 643              		.loc 1 284 0
 644 03ac 009B     		ldr	r3, [sp]
 645 03ae 1A78     		ldrb	r2, [r3]	@ zero_extendqisi2
 646 03b0 009B     		ldr	r3, [sp]
 647 03b2 1A70     		strb	r2, [r3]
 648              		.loc 1 285 0
 649 03b4 009B     		ldr	r3, [sp]
 650 03b6 1A78     		ldrb	r2, [r3]	@ zero_extendqisi2
 651 03b8 009B     		ldr	r3, [sp]
 652 03ba 1A70     		strb	r2, [r3]
 653              		.loc 1 287 0
 654 03bc 0123     		movs	r3, #1
 655              	.L43:
 656              		.loc 1 288 0
 657 03be 1846     		mov	r0, r3
 658 03c0 03B0     		add	sp, sp, #12
 659              		@ sp needed
 660 03c2 5DF804FB 		ldr	pc, [sp], #4
 661              		.cfi_endproc
 662              	.LFE10:
 663              		.size	LSM6DSM_ACC_GYRO_R_Stamping_Time_Frame, .-LSM6DSM_ACC_GYRO_R_Stamping_Time_Frame
 664 03c6 00BF     		.align	2
 665 03c8 AFF30080 		.p2align 4,,15
 665      AFF30080 
 666              		.global	LSM6DSM_ACC_GYRO_W_FIFO_Watermark
 667              		.thumb
 668              		.thumb_func
 669              		.type	LSM6DSM_ACC_GYRO_W_FIFO_Watermark, %function
 670              	LSM6DSM_ACC_GYRO_W_FIFO_Watermark:
 671              	.LFB11:
ARM GAS  /tmp/ccvV0fnY.s 			page 13


 672              		.loc 1 298 0
 673              		.cfi_startproc
 674              		@ args = 0, pretend = 0, frame = 16
 675              		@ frame_needed = 0, uses_anonymous_args = 0
 676 03d0 00B5     		push	{lr}
 677              		.cfi_def_cfa_offset 4
 678              		.cfi_offset 14, -4
 679 03d2 85B0     		sub	sp, sp, #20
 680              		.cfi_def_cfa_offset 24
 681 03d4 0190     		str	r0, [sp, #4]
 682 03d6 0B46     		mov	r3, r1
 683 03d8 ADF80230 		strh	r3, [sp, #2]	@ movhi
 684              		.loc 1 302 0
 685 03dc BDF80230 		ldrh	r3, [sp, #2]	@ movhi
 686 03e0 8DF80F30 		strb	r3, [sp, #15]
 687              		.loc 1 303 0
 688 03e4 BDF80230 		ldrh	r3, [sp, #2]
 689 03e8 1B0A     		lsrs	r3, r3, #8
 690 03ea 9BB2     		uxth	r3, r3
 691 03ec 8DF80E30 		strb	r3, [sp, #14]
 692              		.loc 1 309 0
 693 03f0 0DF10D03 		add	r3, sp, #13
 694 03f4 0198     		ldr	r0, [sp, #4]
 695 03f6 0621     		movs	r1, #6
 696 03f8 1A46     		mov	r2, r3
 697 03fa FFF701FE 		bl	LSM6DSM_ACC_GYRO_ReadReg
 698 03fe 0346     		mov	r3, r0
 699 0400 002B     		cmp	r3, #0
 700 0402 01D1     		bne	.L45
 701              		.loc 1 310 0
 702 0404 0023     		movs	r3, #0
 703 0406 44E0     		b	.L50
 704              	.L45:
 705              		.loc 1 312 0
 706 0408 0023     		movs	r3, #0
 707 040a 8DF80D30 		strb	r3, [sp, #13]
 708              		.loc 1 313 0
 709 040e 9DF80D20 		ldrb	r2, [sp, #13]	@ zero_extendqisi2
 710 0412 9DF80F30 		ldrb	r3, [sp, #15]
 711 0416 1343     		orrs	r3, r3, r2
 712 0418 DBB2     		uxtb	r3, r3
 713 041a 8DF80D30 		strb	r3, [sp, #13]
 714              		.loc 1 315 0
 715 041e 9DF80D30 		ldrb	r3, [sp, #13]	@ zero_extendqisi2
 716 0422 0198     		ldr	r0, [sp, #4]
 717 0424 0621     		movs	r1, #6
 718 0426 1A46     		mov	r2, r3
 719 0428 FFF70AFE 		bl	LSM6DSM_ACC_GYRO_WriteReg
 720 042c 0346     		mov	r3, r0
 721 042e 002B     		cmp	r3, #0
 722 0430 01D1     		bne	.L47
 723              		.loc 1 316 0
 724 0432 0023     		movs	r3, #0
 725 0434 2DE0     		b	.L50
 726              	.L47:
 727              		.loc 1 320 0
 728 0436 9DF80E30 		ldrb	r3, [sp, #14]
ARM GAS  /tmp/ccvV0fnY.s 			page 14


 729 043a 03F00703 		and	r3, r3, #7
 730 043e 8DF80E30 		strb	r3, [sp, #14]
 731              		.loc 1 322 0
 732 0442 0DF10D03 		add	r3, sp, #13
 733 0446 0198     		ldr	r0, [sp, #4]
 734 0448 0721     		movs	r1, #7
 735 044a 1A46     		mov	r2, r3
 736 044c FFF7D8FD 		bl	LSM6DSM_ACC_GYRO_ReadReg
 737 0450 0346     		mov	r3, r0
 738 0452 002B     		cmp	r3, #0
 739 0454 01D1     		bne	.L48
 740              		.loc 1 323 0
 741 0456 0023     		movs	r3, #0
 742 0458 1BE0     		b	.L50
 743              	.L48:
 744              		.loc 1 325 0
 745 045a 9DF80D30 		ldrb	r3, [sp, #13]	@ zero_extendqisi2
 746 045e 23F00703 		bic	r3, r3, #7
 747 0462 DBB2     		uxtb	r3, r3
 748 0464 8DF80D30 		strb	r3, [sp, #13]
 749              		.loc 1 326 0
 750 0468 9DF80D20 		ldrb	r2, [sp, #13]	@ zero_extendqisi2
 751 046c 9DF80E30 		ldrb	r3, [sp, #14]
 752 0470 1343     		orrs	r3, r3, r2
 753 0472 DBB2     		uxtb	r3, r3
 754 0474 8DF80D30 		strb	r3, [sp, #13]
 755              		.loc 1 328 0
 756 0478 9DF80D30 		ldrb	r3, [sp, #13]	@ zero_extendqisi2
 757 047c 0198     		ldr	r0, [sp, #4]
 758 047e 0721     		movs	r1, #7
 759 0480 1A46     		mov	r2, r3
 760 0482 FFF7DDFD 		bl	LSM6DSM_ACC_GYRO_WriteReg
 761 0486 0346     		mov	r3, r0
 762 0488 002B     		cmp	r3, #0
 763 048a 01D1     		bne	.L49
 764              		.loc 1 329 0
 765 048c 0023     		movs	r3, #0
 766 048e 00E0     		b	.L50
 767              	.L49:
 768              		.loc 1 331 0
 769 0490 0123     		movs	r3, #1
 770              	.L50:
 771              		.loc 1 332 0
 772 0492 1846     		mov	r0, r3
 773 0494 05B0     		add	sp, sp, #20
 774              		@ sp needed
 775 0496 5DF804FB 		ldr	pc, [sp], #4
 776              		.cfi_endproc
 777              	.LFE11:
 778              		.size	LSM6DSM_ACC_GYRO_W_FIFO_Watermark, .-LSM6DSM_ACC_GYRO_W_FIFO_Watermark
 779 049a 00BF     		.align	2
 780 049c AFF30080 		.p2align 4,,15
 781              		.global	LSM6DSM_ACC_GYRO_R_FIFO_Watermark
 782              		.thumb
 783              		.thumb_func
 784              		.type	LSM6DSM_ACC_GYRO_R_FIFO_Watermark, %function
 785              	LSM6DSM_ACC_GYRO_R_FIFO_Watermark:
ARM GAS  /tmp/ccvV0fnY.s 			page 15


 786              	.LFB12:
 787              		.loc 1 343 0
 788              		.cfi_startproc
 789              		@ args = 0, pretend = 0, frame = 16
 790              		@ frame_needed = 0, uses_anonymous_args = 0
 791 04a0 00B5     		push	{lr}
 792              		.cfi_def_cfa_offset 4
 793              		.cfi_offset 14, -4
 794 04a2 85B0     		sub	sp, sp, #20
 795              		.cfi_def_cfa_offset 24
 796 04a4 0190     		str	r0, [sp, #4]
 797 04a6 0091     		str	r1, [sp]
 798              		.loc 1 347 0
 799 04a8 0DF10E03 		add	r3, sp, #14
 800 04ac 0198     		ldr	r0, [sp, #4]
 801 04ae 0621     		movs	r1, #6
 802 04b0 1A46     		mov	r2, r3
 803 04b2 FFF7A5FD 		bl	LSM6DSM_ACC_GYRO_ReadReg
 804 04b6 0346     		mov	r3, r0
 805 04b8 002B     		cmp	r3, #0
 806 04ba 01D1     		bne	.L52
 807              		.loc 1 348 0
 808 04bc 0023     		movs	r3, #0
 809 04be 2AE0     		b	.L55
 810              	.L52:
 811              		.loc 1 350 0
 812 04c0 9DF80E30 		ldrb	r3, [sp, #14]	@ zero_extendqisi2
 813 04c4 8DF80E30 		strb	r3, [sp, #14]
 814              		.loc 1 351 0
 815 04c8 9DF80E30 		ldrb	r3, [sp, #14]	@ zero_extendqisi2
 816 04cc 8DF80E30 		strb	r3, [sp, #14]
 817              		.loc 1 354 0
 818 04d0 0DF10F03 		add	r3, sp, #15
 819 04d4 0198     		ldr	r0, [sp, #4]
 820 04d6 0721     		movs	r1, #7
 821 04d8 1A46     		mov	r2, r3
 822 04da FFF791FD 		bl	LSM6DSM_ACC_GYRO_ReadReg
 823 04de 0346     		mov	r3, r0
 824 04e0 002B     		cmp	r3, #0
 825 04e2 01D1     		bne	.L54
 826              		.loc 1 355 0
 827 04e4 0023     		movs	r3, #0
 828 04e6 16E0     		b	.L55
 829              	.L54:
 830              		.loc 1 357 0
 831 04e8 9DF80F30 		ldrb	r3, [sp, #15]	@ zero_extendqisi2
 832 04ec 03F00703 		and	r3, r3, #7
 833 04f0 DBB2     		uxtb	r3, r3
 834 04f2 8DF80F30 		strb	r3, [sp, #15]
 835              		.loc 1 358 0
 836 04f6 9DF80F30 		ldrb	r3, [sp, #15]	@ zero_extendqisi2
 837 04fa 8DF80F30 		strb	r3, [sp, #15]
 838              		.loc 1 360 0
 839 04fe 9DF80F30 		ldrb	r3, [sp, #15]	@ zero_extendqisi2
 840 0502 1B02     		lsls	r3, r3, #8
 841 0504 9AB2     		uxth	r2, r3
 842 0506 9DF80E30 		ldrb	r3, [sp, #14]	@ zero_extendqisi2
ARM GAS  /tmp/ccvV0fnY.s 			page 16


 843 050a 1343     		orrs	r3, r3, r2
 844 050c 9BB2     		uxth	r3, r3
 845 050e 9AB2     		uxth	r2, r3
 846 0510 009B     		ldr	r3, [sp]
 847 0512 1A80     		strh	r2, [r3]	@ movhi
 848              		.loc 1 362 0
 849 0514 0123     		movs	r3, #1
 850              	.L55:
 851              		.loc 1 363 0
 852 0516 1846     		mov	r0, r3
 853 0518 05B0     		add	sp, sp, #20
 854              		@ sp needed
 855 051a 5DF804FB 		ldr	pc, [sp], #4
 856              		.cfi_endproc
 857              	.LFE12:
 858              		.size	LSM6DSM_ACC_GYRO_R_FIFO_Watermark, .-LSM6DSM_ACC_GYRO_R_FIFO_Watermark
 859 051e 00BF     		.align	2
 860              		.p2align 4,,15
 861              		.global	LSM6DSM_ACC_GYRO_W_FIFO_TEMP
 862              		.thumb
 863              		.thumb_func
 864              		.type	LSM6DSM_ACC_GYRO_W_FIFO_TEMP, %function
 865              	LSM6DSM_ACC_GYRO_W_FIFO_TEMP:
 866              	.LFB13:
 867              		.loc 1 373 0
 868              		.cfi_startproc
 869              		@ args = 0, pretend = 0, frame = 16
 870              		@ frame_needed = 0, uses_anonymous_args = 0
 871 0520 00B5     		push	{lr}
 872              		.cfi_def_cfa_offset 4
 873              		.cfi_offset 14, -4
 874 0522 85B0     		sub	sp, sp, #20
 875              		.cfi_def_cfa_offset 24
 876 0524 0190     		str	r0, [sp, #4]
 877 0526 0B46     		mov	r3, r1
 878 0528 8DF80330 		strb	r3, [sp, #3]
 879              		.loc 1 376 0
 880 052c 0DF10F03 		add	r3, sp, #15
 881 0530 0198     		ldr	r0, [sp, #4]
 882 0532 0721     		movs	r1, #7
 883 0534 1A46     		mov	r2, r3
 884 0536 FFF763FD 		bl	LSM6DSM_ACC_GYRO_ReadReg
 885 053a 0346     		mov	r3, r0
 886 053c 002B     		cmp	r3, #0
 887 053e 01D1     		bne	.L57
 888              		.loc 1 377 0
 889 0540 0023     		movs	r3, #0
 890 0542 1BE0     		b	.L60
 891              	.L57:
 892              		.loc 1 379 0
 893 0544 9DF80F30 		ldrb	r3, [sp, #15]	@ zero_extendqisi2
 894 0548 23F00803 		bic	r3, r3, #8
 895 054c DBB2     		uxtb	r3, r3
 896 054e 8DF80F30 		strb	r3, [sp, #15]
 897              		.loc 1 380 0
 898 0552 9DF80F20 		ldrb	r2, [sp, #15]	@ zero_extendqisi2
 899 0556 9DF80330 		ldrb	r3, [sp, #3]
ARM GAS  /tmp/ccvV0fnY.s 			page 17


 900 055a 1343     		orrs	r3, r3, r2
 901 055c DBB2     		uxtb	r3, r3
 902 055e 8DF80F30 		strb	r3, [sp, #15]
 903              		.loc 1 382 0
 904 0562 9DF80F30 		ldrb	r3, [sp, #15]	@ zero_extendqisi2
 905 0566 0198     		ldr	r0, [sp, #4]
 906 0568 0721     		movs	r1, #7
 907 056a 1A46     		mov	r2, r3
 908 056c FFF768FD 		bl	LSM6DSM_ACC_GYRO_WriteReg
 909 0570 0346     		mov	r3, r0
 910 0572 002B     		cmp	r3, #0
 911 0574 01D1     		bne	.L59
 912              		.loc 1 383 0
 913 0576 0023     		movs	r3, #0
 914 0578 00E0     		b	.L60
 915              	.L59:
 916              		.loc 1 385 0
 917 057a 0123     		movs	r3, #1
 918              	.L60:
 919              		.loc 1 386 0
 920 057c 1846     		mov	r0, r3
 921 057e 05B0     		add	sp, sp, #20
 922              		@ sp needed
 923 0580 5DF804FB 		ldr	pc, [sp], #4
 924              		.cfi_endproc
 925              	.LFE13:
 926              		.size	LSM6DSM_ACC_GYRO_W_FIFO_TEMP, .-LSM6DSM_ACC_GYRO_W_FIFO_TEMP
 927              		.align	2
 928 0584 AFF30080 		.p2align 4,,15
 928      AFF30080 
 928      AFF30080 
 929              		.global	LSM6DSM_ACC_GYRO_R_FIFO_TEMP
 930              		.thumb
 931              		.thumb_func
 932              		.type	LSM6DSM_ACC_GYRO_R_FIFO_TEMP, %function
 933              	LSM6DSM_ACC_GYRO_R_FIFO_TEMP:
 934              	.LFB14:
 935              		.loc 1 397 0
 936              		.cfi_startproc
 937              		@ args = 0, pretend = 0, frame = 8
 938              		@ frame_needed = 0, uses_anonymous_args = 0
 939 0590 00B5     		push	{lr}
 940              		.cfi_def_cfa_offset 4
 941              		.cfi_offset 14, -4
 942 0592 83B0     		sub	sp, sp, #12
 943              		.cfi_def_cfa_offset 16
 944 0594 0190     		str	r0, [sp, #4]
 945 0596 0091     		str	r1, [sp]
 946              		.loc 1 398 0
 947 0598 0198     		ldr	r0, [sp, #4]
 948 059a 0721     		movs	r1, #7
 949 059c 009A     		ldr	r2, [sp]
 950 059e FFF72FFD 		bl	LSM6DSM_ACC_GYRO_ReadReg
 951 05a2 0346     		mov	r3, r0
 952 05a4 002B     		cmp	r3, #0
 953 05a6 01D1     		bne	.L62
 954              		.loc 1 399 0
ARM GAS  /tmp/ccvV0fnY.s 			page 18


 955 05a8 0023     		movs	r3, #0
 956 05aa 07E0     		b	.L63
 957              	.L62:
 958              		.loc 1 401 0
 959 05ac 009B     		ldr	r3, [sp]
 960 05ae 1B78     		ldrb	r3, [r3]	@ zero_extendqisi2
 961 05b0 03F00803 		and	r3, r3, #8
 962 05b4 DAB2     		uxtb	r2, r3
 963 05b6 009B     		ldr	r3, [sp]
 964 05b8 1A70     		strb	r2, [r3]
 965              		.loc 1 403 0
 966 05ba 0123     		movs	r3, #1
 967              	.L63:
 968              		.loc 1 404 0
 969 05bc 1846     		mov	r0, r3
 970 05be 03B0     		add	sp, sp, #12
 971              		@ sp needed
 972 05c0 5DF804FB 		ldr	pc, [sp], #4
 973              		.cfi_endproc
 974              	.LFE14:
 975              		.size	LSM6DSM_ACC_GYRO_R_FIFO_TEMP, .-LSM6DSM_ACC_GYRO_R_FIFO_TEMP
 976              		.align	2
 977 05c4 AFF30080 		.p2align 4,,15
 977      AFF30080 
 977      AFF30080 
 978              		.global	LSM6DSM_ACC_GYRO_W_TIM_PEDO_FIFO_Write_En
 979              		.thumb
 980              		.thumb_func
 981              		.type	LSM6DSM_ACC_GYRO_W_TIM_PEDO_FIFO_Write_En, %function
 982              	LSM6DSM_ACC_GYRO_W_TIM_PEDO_FIFO_Write_En:
 983              	.LFB15:
 984              		.loc 1 414 0
 985              		.cfi_startproc
 986              		@ args = 0, pretend = 0, frame = 16
 987              		@ frame_needed = 0, uses_anonymous_args = 0
 988 05d0 00B5     		push	{lr}
 989              		.cfi_def_cfa_offset 4
 990              		.cfi_offset 14, -4
 991 05d2 85B0     		sub	sp, sp, #20
 992              		.cfi_def_cfa_offset 24
 993 05d4 0190     		str	r0, [sp, #4]
 994 05d6 0B46     		mov	r3, r1
 995 05d8 8DF80330 		strb	r3, [sp, #3]
 996              		.loc 1 417 0
 997 05dc 0DF10F03 		add	r3, sp, #15
 998 05e0 0198     		ldr	r0, [sp, #4]
 999 05e2 0721     		movs	r1, #7
 1000 05e4 1A46     		mov	r2, r3
 1001 05e6 FFF70BFD 		bl	LSM6DSM_ACC_GYRO_ReadReg
 1002 05ea 0346     		mov	r3, r0
 1003 05ec 002B     		cmp	r3, #0
 1004 05ee 01D1     		bne	.L65
 1005              		.loc 1 418 0
 1006 05f0 0023     		movs	r3, #0
 1007 05f2 1BE0     		b	.L68
 1008              	.L65:
 1009              		.loc 1 420 0
ARM GAS  /tmp/ccvV0fnY.s 			page 19


 1010 05f4 9DF80F30 		ldrb	r3, [sp, #15]	@ zero_extendqisi2
 1011 05f8 23F04003 		bic	r3, r3, #64
 1012 05fc DBB2     		uxtb	r3, r3
 1013 05fe 8DF80F30 		strb	r3, [sp, #15]
 1014              		.loc 1 421 0
 1015 0602 9DF80F20 		ldrb	r2, [sp, #15]	@ zero_extendqisi2
 1016 0606 9DF80330 		ldrb	r3, [sp, #3]
 1017 060a 1343     		orrs	r3, r3, r2
 1018 060c DBB2     		uxtb	r3, r3
 1019 060e 8DF80F30 		strb	r3, [sp, #15]
 1020              		.loc 1 423 0
 1021 0612 9DF80F30 		ldrb	r3, [sp, #15]	@ zero_extendqisi2
 1022 0616 0198     		ldr	r0, [sp, #4]
 1023 0618 0721     		movs	r1, #7
 1024 061a 1A46     		mov	r2, r3
 1025 061c FFF710FD 		bl	LSM6DSM_ACC_GYRO_WriteReg
 1026 0620 0346     		mov	r3, r0
 1027 0622 002B     		cmp	r3, #0
 1028 0624 01D1     		bne	.L67
 1029              		.loc 1 424 0
 1030 0626 0023     		movs	r3, #0
 1031 0628 00E0     		b	.L68
 1032              	.L67:
 1033              		.loc 1 426 0
 1034 062a 0123     		movs	r3, #1
 1035              	.L68:
 1036              		.loc 1 427 0
 1037 062c 1846     		mov	r0, r3
 1038 062e 05B0     		add	sp, sp, #20
 1039              		@ sp needed
 1040 0630 5DF804FB 		ldr	pc, [sp], #4
 1041              		.cfi_endproc
 1042              	.LFE15:
 1043              		.size	LSM6DSM_ACC_GYRO_W_TIM_PEDO_FIFO_Write_En, .-LSM6DSM_ACC_GYRO_W_TIM_PEDO_FIFO_Write_En
 1044              		.align	2
 1045 0634 AFF30080 		.p2align 4,,15
 1045      AFF30080 
 1045      AFF30080 
 1046              		.global	LSM6DSM_ACC_GYRO_R_TIM_PEDO_FIFO_Write_En
 1047              		.thumb
 1048              		.thumb_func
 1049              		.type	LSM6DSM_ACC_GYRO_R_TIM_PEDO_FIFO_Write_En, %function
 1050              	LSM6DSM_ACC_GYRO_R_TIM_PEDO_FIFO_Write_En:
 1051              	.LFB16:
 1052              		.loc 1 438 0
 1053              		.cfi_startproc
 1054              		@ args = 0, pretend = 0, frame = 8
 1055              		@ frame_needed = 0, uses_anonymous_args = 0
 1056 0640 00B5     		push	{lr}
 1057              		.cfi_def_cfa_offset 4
 1058              		.cfi_offset 14, -4
 1059 0642 83B0     		sub	sp, sp, #12
 1060              		.cfi_def_cfa_offset 16
 1061 0644 0190     		str	r0, [sp, #4]
 1062 0646 0091     		str	r1, [sp]
 1063              		.loc 1 439 0
 1064 0648 0198     		ldr	r0, [sp, #4]
ARM GAS  /tmp/ccvV0fnY.s 			page 20


 1065 064a 0721     		movs	r1, #7
 1066 064c 009A     		ldr	r2, [sp]
 1067 064e FFF7D7FC 		bl	LSM6DSM_ACC_GYRO_ReadReg
 1068 0652 0346     		mov	r3, r0
 1069 0654 002B     		cmp	r3, #0
 1070 0656 01D1     		bne	.L70
 1071              		.loc 1 440 0
 1072 0658 0023     		movs	r3, #0
 1073 065a 07E0     		b	.L71
 1074              	.L70:
 1075              		.loc 1 442 0
 1076 065c 009B     		ldr	r3, [sp]
 1077 065e 1B78     		ldrb	r3, [r3]	@ zero_extendqisi2
 1078 0660 03F04003 		and	r3, r3, #64
 1079 0664 DAB2     		uxtb	r2, r3
 1080 0666 009B     		ldr	r3, [sp]
 1081 0668 1A70     		strb	r2, [r3]
 1082              		.loc 1 444 0
 1083 066a 0123     		movs	r3, #1
 1084              	.L71:
 1085              		.loc 1 445 0
 1086 066c 1846     		mov	r0, r3
 1087 066e 03B0     		add	sp, sp, #12
 1088              		@ sp needed
 1089 0670 5DF804FB 		ldr	pc, [sp], #4
 1090              		.cfi_endproc
 1091              	.LFE16:
 1092              		.size	LSM6DSM_ACC_GYRO_R_TIM_PEDO_FIFO_Write_En, .-LSM6DSM_ACC_GYRO_R_TIM_PEDO_FIFO_Write_En
 1093              		.align	2
 1094 0674 AFF30080 		.p2align 4,,15
 1094      AFF30080 
 1094      AFF30080 
 1095              		.global	LSM6DSM_ACC_GYRO_W_TIM_PEDO_FIFO_En
 1096              		.thumb
 1097              		.thumb_func
 1098              		.type	LSM6DSM_ACC_GYRO_W_TIM_PEDO_FIFO_En, %function
 1099              	LSM6DSM_ACC_GYRO_W_TIM_PEDO_FIFO_En:
 1100              	.LFB17:
 1101              		.loc 1 454 0
 1102              		.cfi_startproc
 1103              		@ args = 0, pretend = 0, frame = 16
 1104              		@ frame_needed = 0, uses_anonymous_args = 0
 1105 0680 00B5     		push	{lr}
 1106              		.cfi_def_cfa_offset 4
 1107              		.cfi_offset 14, -4
 1108 0682 85B0     		sub	sp, sp, #20
 1109              		.cfi_def_cfa_offset 24
 1110 0684 0190     		str	r0, [sp, #4]
 1111 0686 0B46     		mov	r3, r1
 1112 0688 8DF80330 		strb	r3, [sp, #3]
 1113              		.loc 1 457 0
 1114 068c 0DF10F03 		add	r3, sp, #15
 1115 0690 0198     		ldr	r0, [sp, #4]
 1116 0692 0721     		movs	r1, #7
 1117 0694 1A46     		mov	r2, r3
 1118 0696 FFF7B3FC 		bl	LSM6DSM_ACC_GYRO_ReadReg
 1119 069a 0346     		mov	r3, r0
ARM GAS  /tmp/ccvV0fnY.s 			page 21


 1120 069c 002B     		cmp	r3, #0
 1121 069e 01D1     		bne	.L73
 1122              		.loc 1 458 0
 1123 06a0 0023     		movs	r3, #0
 1124 06a2 1BE0     		b	.L76
 1125              	.L73:
 1126              		.loc 1 460 0
 1127 06a4 9DF80F30 		ldrb	r3, [sp, #15]	@ zero_extendqisi2
 1128 06a8 03F07F03 		and	r3, r3, #127
 1129 06ac DBB2     		uxtb	r3, r3
 1130 06ae 8DF80F30 		strb	r3, [sp, #15]
 1131              		.loc 1 461 0
 1132 06b2 9DF80F20 		ldrb	r2, [sp, #15]	@ zero_extendqisi2
 1133 06b6 9DF80330 		ldrb	r3, [sp, #3]
 1134 06ba 1343     		orrs	r3, r3, r2
 1135 06bc DBB2     		uxtb	r3, r3
 1136 06be 8DF80F30 		strb	r3, [sp, #15]
 1137              		.loc 1 463 0
 1138 06c2 9DF80F30 		ldrb	r3, [sp, #15]	@ zero_extendqisi2
 1139 06c6 0198     		ldr	r0, [sp, #4]
 1140 06c8 0721     		movs	r1, #7
 1141 06ca 1A46     		mov	r2, r3
 1142 06cc FFF7B8FC 		bl	LSM6DSM_ACC_GYRO_WriteReg
 1143 06d0 0346     		mov	r3, r0
 1144 06d2 002B     		cmp	r3, #0
 1145 06d4 01D1     		bne	.L75
 1146              		.loc 1 464 0
 1147 06d6 0023     		movs	r3, #0
 1148 06d8 00E0     		b	.L76
 1149              	.L75:
 1150              		.loc 1 466 0
 1151 06da 0123     		movs	r3, #1
 1152              	.L76:
 1153              		.loc 1 467 0
 1154 06dc 1846     		mov	r0, r3
 1155 06de 05B0     		add	sp, sp, #20
 1156              		@ sp needed
 1157 06e0 5DF804FB 		ldr	pc, [sp], #4
 1158              		.cfi_endproc
 1159              	.LFE17:
 1160              		.size	LSM6DSM_ACC_GYRO_W_TIM_PEDO_FIFO_En, .-LSM6DSM_ACC_GYRO_W_TIM_PEDO_FIFO_En
 1161              		.align	2
 1162 06e4 AFF30080 		.p2align 4,,15
 1162      AFF30080 
 1162      AFF30080 
 1163              		.global	LSM6DSM_ACC_GYRO_R_TIM_PEDO_FIFO_En
 1164              		.thumb
 1165              		.thumb_func
 1166              		.type	LSM6DSM_ACC_GYRO_R_TIM_PEDO_FIFO_En, %function
 1167              	LSM6DSM_ACC_GYRO_R_TIM_PEDO_FIFO_En:
 1168              	.LFB18:
 1169              		.loc 1 478 0
 1170              		.cfi_startproc
 1171              		@ args = 0, pretend = 0, frame = 8
 1172              		@ frame_needed = 0, uses_anonymous_args = 0
 1173 06f0 00B5     		push	{lr}
 1174              		.cfi_def_cfa_offset 4
ARM GAS  /tmp/ccvV0fnY.s 			page 22


 1175              		.cfi_offset 14, -4
 1176 06f2 83B0     		sub	sp, sp, #12
 1177              		.cfi_def_cfa_offset 16
 1178 06f4 0190     		str	r0, [sp, #4]
 1179 06f6 0091     		str	r1, [sp]
 1180              		.loc 1 479 0
 1181 06f8 0198     		ldr	r0, [sp, #4]
 1182 06fa 0721     		movs	r1, #7
 1183 06fc 009A     		ldr	r2, [sp]
 1184 06fe FFF77FFC 		bl	LSM6DSM_ACC_GYRO_ReadReg
 1185 0702 0346     		mov	r3, r0
 1186 0704 002B     		cmp	r3, #0
 1187 0706 01D1     		bne	.L78
 1188              		.loc 1 480 0
 1189 0708 0023     		movs	r3, #0
 1190 070a 07E0     		b	.L79
 1191              	.L78:
 1192              		.loc 1 482 0
 1193 070c 009B     		ldr	r3, [sp]
 1194 070e 1B78     		ldrb	r3, [r3]	@ zero_extendqisi2
 1195 0710 23F07F03 		bic	r3, r3, #127
 1196 0714 DAB2     		uxtb	r2, r3
 1197 0716 009B     		ldr	r3, [sp]
 1198 0718 1A70     		strb	r2, [r3]
 1199              		.loc 1 484 0
 1200 071a 0123     		movs	r3, #1
 1201              	.L79:
 1202              		.loc 1 485 0
 1203 071c 1846     		mov	r0, r3
 1204 071e 03B0     		add	sp, sp, #12
 1205              		@ sp needed
 1206 0720 5DF804FB 		ldr	pc, [sp], #4
 1207              		.cfi_endproc
 1208              	.LFE18:
 1209              		.size	LSM6DSM_ACC_GYRO_R_TIM_PEDO_FIFO_En, .-LSM6DSM_ACC_GYRO_R_TIM_PEDO_FIFO_En
 1210              		.align	2
 1211 0724 AFF30080 		.p2align 4,,15
 1211      AFF30080 
 1211      AFF30080 
 1212              		.global	LSM6DSM_ACC_GYRO_W_DEC_FIFO_XL
 1213              		.thumb
 1214              		.thumb_func
 1215              		.type	LSM6DSM_ACC_GYRO_W_DEC_FIFO_XL, %function
 1216              	LSM6DSM_ACC_GYRO_W_DEC_FIFO_XL:
 1217              	.LFB19:
 1218              		.loc 1 494 0
 1219              		.cfi_startproc
 1220              		@ args = 0, pretend = 0, frame = 16
 1221              		@ frame_needed = 0, uses_anonymous_args = 0
 1222 0730 00B5     		push	{lr}
 1223              		.cfi_def_cfa_offset 4
 1224              		.cfi_offset 14, -4
 1225 0732 85B0     		sub	sp, sp, #20
 1226              		.cfi_def_cfa_offset 24
 1227 0734 0190     		str	r0, [sp, #4]
 1228 0736 0B46     		mov	r3, r1
 1229 0738 8DF80330 		strb	r3, [sp, #3]
ARM GAS  /tmp/ccvV0fnY.s 			page 23


 1230              		.loc 1 497 0
 1231 073c 0DF10F03 		add	r3, sp, #15
 1232 0740 0198     		ldr	r0, [sp, #4]
 1233 0742 0821     		movs	r1, #8
 1234 0744 1A46     		mov	r2, r3
 1235 0746 FFF75BFC 		bl	LSM6DSM_ACC_GYRO_ReadReg
 1236 074a 0346     		mov	r3, r0
 1237 074c 002B     		cmp	r3, #0
 1238 074e 01D1     		bne	.L81
 1239              		.loc 1 498 0
 1240 0750 0023     		movs	r3, #0
 1241 0752 1BE0     		b	.L84
 1242              	.L81:
 1243              		.loc 1 500 0
 1244 0754 9DF80F30 		ldrb	r3, [sp, #15]	@ zero_extendqisi2
 1245 0758 23F00703 		bic	r3, r3, #7
 1246 075c DBB2     		uxtb	r3, r3
 1247 075e 8DF80F30 		strb	r3, [sp, #15]
 1248              		.loc 1 501 0
 1249 0762 9DF80F20 		ldrb	r2, [sp, #15]	@ zero_extendqisi2
 1250 0766 9DF80330 		ldrb	r3, [sp, #3]
 1251 076a 1343     		orrs	r3, r3, r2
 1252 076c DBB2     		uxtb	r3, r3
 1253 076e 8DF80F30 		strb	r3, [sp, #15]
 1254              		.loc 1 503 0
 1255 0772 9DF80F30 		ldrb	r3, [sp, #15]	@ zero_extendqisi2
 1256 0776 0198     		ldr	r0, [sp, #4]
 1257 0778 0821     		movs	r1, #8
 1258 077a 1A46     		mov	r2, r3
 1259 077c FFF760FC 		bl	LSM6DSM_ACC_GYRO_WriteReg
 1260 0780 0346     		mov	r3, r0
 1261 0782 002B     		cmp	r3, #0
 1262 0784 01D1     		bne	.L83
 1263              		.loc 1 504 0
 1264 0786 0023     		movs	r3, #0
 1265 0788 00E0     		b	.L84
 1266              	.L83:
 1267              		.loc 1 506 0
 1268 078a 0123     		movs	r3, #1
 1269              	.L84:
 1270              		.loc 1 507 0
 1271 078c 1846     		mov	r0, r3
 1272 078e 05B0     		add	sp, sp, #20
 1273              		@ sp needed
 1274 0790 5DF804FB 		ldr	pc, [sp], #4
 1275              		.cfi_endproc
 1276              	.LFE19:
 1277              		.size	LSM6DSM_ACC_GYRO_W_DEC_FIFO_XL, .-LSM6DSM_ACC_GYRO_W_DEC_FIFO_XL
 1278              		.align	2
 1279 0794 AFF30080 		.p2align 4,,15
 1279      AFF30080 
 1279      AFF30080 
 1280              		.global	LSM6DSM_ACC_GYRO_W_DEC_FIFO_XL_val
 1281              		.thumb
 1282              		.thumb_func
 1283              		.type	LSM6DSM_ACC_GYRO_W_DEC_FIFO_XL_val, %function
 1284              	LSM6DSM_ACC_GYRO_W_DEC_FIFO_XL_val:
ARM GAS  /tmp/ccvV0fnY.s 			page 24


 1285              	.LFB20:
 1286              		.loc 1 511 0
 1287              		.cfi_startproc
 1288              		@ args = 0, pretend = 0, frame = 8
 1289              		@ frame_needed = 0, uses_anonymous_args = 0
 1290 07a0 00B5     		push	{lr}
 1291              		.cfi_def_cfa_offset 4
 1292              		.cfi_offset 14, -4
 1293 07a2 83B0     		sub	sp, sp, #12
 1294              		.cfi_def_cfa_offset 16
 1295 07a4 0190     		str	r0, [sp, #4]
 1296 07a6 0B46     		mov	r3, r1
 1297 07a8 ADF80230 		strh	r3, [sp, #2]	@ movhi
 1298              		.loc 1 512 0
 1299 07ac BDF80230 		ldrh	r3, [sp, #2]
 1300 07b0 202B     		cmp	r3, #32
 1301 07b2 6DD8     		bhi	.L86
 1302 07b4 01A2     		adr	r2, .L88
 1303 07b6 52F823F0 		ldr	pc, [r2, r3, lsl #2]
 1304 07ba 00BF     		.p2align 2
 1305              	.L88:
 1306 07bc 41080000 		.word	.L87+1
 1307 07c0 4B080000 		.word	.L89+1
 1308 07c4 55080000 		.word	.L90+1
 1309 07c8 5F080000 		.word	.L91+1
 1310 07cc 69080000 		.word	.L92+1
 1311 07d0 91080000 		.word	.L86+1
 1312 07d4 91080000 		.word	.L86+1
 1313 07d8 91080000 		.word	.L86+1
 1314 07dc 73080000 		.word	.L93+1
 1315 07e0 91080000 		.word	.L86+1
 1316 07e4 91080000 		.word	.L86+1
 1317 07e8 91080000 		.word	.L86+1
 1318 07ec 91080000 		.word	.L86+1
 1319 07f0 91080000 		.word	.L86+1
 1320 07f4 91080000 		.word	.L86+1
 1321 07f8 91080000 		.word	.L86+1
 1322 07fc 7D080000 		.word	.L94+1
 1323 0800 91080000 		.word	.L86+1
 1324 0804 91080000 		.word	.L86+1
 1325 0808 91080000 		.word	.L86+1
 1326 080c 91080000 		.word	.L86+1
 1327 0810 91080000 		.word	.L86+1
 1328 0814 91080000 		.word	.L86+1
 1329 0818 91080000 		.word	.L86+1
 1330 081c 91080000 		.word	.L86+1
 1331 0820 91080000 		.word	.L86+1
 1332 0824 91080000 		.word	.L86+1
 1333 0828 91080000 		.word	.L86+1
 1334 082c 91080000 		.word	.L86+1
 1335 0830 91080000 		.word	.L86+1
 1336 0834 91080000 		.word	.L86+1
 1337 0838 91080000 		.word	.L86+1
 1338 083c 87080000 		.word	.L95+1
 1339              		.p2align 1
 1340              	.L87:
 1341              		.loc 1 514 0
ARM GAS  /tmp/ccvV0fnY.s 			page 25


 1342 0840 0198     		ldr	r0, [sp, #4]
 1343 0842 0021     		movs	r1, #0
 1344 0844 FFF7FEFF 		bl	LSM6DSM_ACC_GYRO_W_DEC_FIFO_XL
 1345              		.loc 1 515 0
 1346 0848 24E0     		b	.L96
 1347              	.L89:
 1348              		.loc 1 518 0
 1349 084a 0198     		ldr	r0, [sp, #4]
 1350 084c 0121     		movs	r1, #1
 1351 084e FFF7FEFF 		bl	LSM6DSM_ACC_GYRO_W_DEC_FIFO_XL
 1352              		.loc 1 519 0
 1353 0852 1FE0     		b	.L96
 1354              	.L90:
 1355              		.loc 1 522 0
 1356 0854 0198     		ldr	r0, [sp, #4]
 1357 0856 0221     		movs	r1, #2
 1358 0858 FFF7FEFF 		bl	LSM6DSM_ACC_GYRO_W_DEC_FIFO_XL
 1359              		.loc 1 523 0
 1360 085c 1AE0     		b	.L96
 1361              	.L91:
 1362              		.loc 1 526 0
 1363 085e 0198     		ldr	r0, [sp, #4]
 1364 0860 0321     		movs	r1, #3
 1365 0862 FFF7FEFF 		bl	LSM6DSM_ACC_GYRO_W_DEC_FIFO_XL
 1366              		.loc 1 527 0
 1367 0866 15E0     		b	.L96
 1368              	.L92:
 1369              		.loc 1 530 0
 1370 0868 0198     		ldr	r0, [sp, #4]
 1371 086a 0421     		movs	r1, #4
 1372 086c FFF7FEFF 		bl	LSM6DSM_ACC_GYRO_W_DEC_FIFO_XL
 1373              		.loc 1 531 0
 1374 0870 10E0     		b	.L96
 1375              	.L93:
 1376              		.loc 1 534 0
 1377 0872 0198     		ldr	r0, [sp, #4]
 1378 0874 0521     		movs	r1, #5
 1379 0876 FFF7FEFF 		bl	LSM6DSM_ACC_GYRO_W_DEC_FIFO_XL
 1380              		.loc 1 535 0
 1381 087a 0BE0     		b	.L96
 1382              	.L94:
 1383              		.loc 1 538 0
 1384 087c 0198     		ldr	r0, [sp, #4]
 1385 087e 0621     		movs	r1, #6
 1386 0880 FFF7FEFF 		bl	LSM6DSM_ACC_GYRO_W_DEC_FIFO_XL
 1387              		.loc 1 539 0
 1388 0884 06E0     		b	.L96
 1389              	.L95:
 1390              		.loc 1 542 0
 1391 0886 0198     		ldr	r0, [sp, #4]
 1392 0888 0721     		movs	r1, #7
 1393 088a FFF7FEFF 		bl	LSM6DSM_ACC_GYRO_W_DEC_FIFO_XL
 1394              		.loc 1 543 0
 1395 088e 01E0     		b	.L96
 1396              	.L86:
 1397              		.loc 1 546 0
 1398 0890 0023     		movs	r3, #0
ARM GAS  /tmp/ccvV0fnY.s 			page 26


 1399 0892 00E0     		b	.L97
 1400              	.L96:
 1401              		.loc 1 549 0
 1402 0894 0123     		movs	r3, #1
 1403              	.L97:
 1404              		.loc 1 550 0
 1405 0896 1846     		mov	r0, r3
 1406 0898 03B0     		add	sp, sp, #12
 1407              		@ sp needed
 1408 089a 5DF804FB 		ldr	pc, [sp], #4
 1409              		.cfi_endproc
 1410              	.LFE20:
 1411              		.size	LSM6DSM_ACC_GYRO_W_DEC_FIFO_XL_val, .-LSM6DSM_ACC_GYRO_W_DEC_FIFO_XL_val
 1412 089e 00BF     		.align	2
 1413              		.p2align 4,,15
 1414              		.global	LSM6DSM_ACC_GYRO_R_DEC_FIFO_XL
 1415              		.thumb
 1416              		.thumb_func
 1417              		.type	LSM6DSM_ACC_GYRO_R_DEC_FIFO_XL, %function
 1418              	LSM6DSM_ACC_GYRO_R_DEC_FIFO_XL:
 1419              	.LFB21:
 1420              		.loc 1 561 0
 1421              		.cfi_startproc
 1422              		@ args = 0, pretend = 0, frame = 8
 1423              		@ frame_needed = 0, uses_anonymous_args = 0
 1424 08a0 00B5     		push	{lr}
 1425              		.cfi_def_cfa_offset 4
 1426              		.cfi_offset 14, -4
 1427 08a2 83B0     		sub	sp, sp, #12
 1428              		.cfi_def_cfa_offset 16
 1429 08a4 0190     		str	r0, [sp, #4]
 1430 08a6 0091     		str	r1, [sp]
 1431              		.loc 1 562 0
 1432 08a8 0198     		ldr	r0, [sp, #4]
 1433 08aa 0821     		movs	r1, #8
 1434 08ac 009A     		ldr	r2, [sp]
 1435 08ae FFF7A7FB 		bl	LSM6DSM_ACC_GYRO_ReadReg
 1436 08b2 0346     		mov	r3, r0
 1437 08b4 002B     		cmp	r3, #0
 1438 08b6 01D1     		bne	.L99
 1439              		.loc 1 563 0
 1440 08b8 0023     		movs	r3, #0
 1441 08ba 07E0     		b	.L100
 1442              	.L99:
 1443              		.loc 1 565 0
 1444 08bc 009B     		ldr	r3, [sp]
 1445 08be 1B78     		ldrb	r3, [r3]	@ zero_extendqisi2
 1446 08c0 03F00703 		and	r3, r3, #7
 1447 08c4 DAB2     		uxtb	r2, r3
 1448 08c6 009B     		ldr	r3, [sp]
 1449 08c8 1A70     		strb	r2, [r3]
 1450              		.loc 1 567 0
 1451 08ca 0123     		movs	r3, #1
 1452              	.L100:
 1453              		.loc 1 568 0
 1454 08cc 1846     		mov	r0, r3
 1455 08ce 03B0     		add	sp, sp, #12
ARM GAS  /tmp/ccvV0fnY.s 			page 27


 1456              		@ sp needed
 1457 08d0 5DF804FB 		ldr	pc, [sp], #4
 1458              		.cfi_endproc
 1459              	.LFE21:
 1460              		.size	LSM6DSM_ACC_GYRO_R_DEC_FIFO_XL, .-LSM6DSM_ACC_GYRO_R_DEC_FIFO_XL
 1461              		.align	2
 1462 08d4 AFF30080 		.p2align 4,,15
 1462      AFF30080 
 1462      AFF30080 
 1463              		.global	LSM6DSM_ACC_GYRO_W_DEC_FIFO_G
 1464              		.thumb
 1465              		.thumb_func
 1466              		.type	LSM6DSM_ACC_GYRO_W_DEC_FIFO_G, %function
 1467              	LSM6DSM_ACC_GYRO_W_DEC_FIFO_G:
 1468              	.LFB22:
 1469              		.loc 1 577 0
 1470              		.cfi_startproc
 1471              		@ args = 0, pretend = 0, frame = 16
 1472              		@ frame_needed = 0, uses_anonymous_args = 0
 1473 08e0 00B5     		push	{lr}
 1474              		.cfi_def_cfa_offset 4
 1475              		.cfi_offset 14, -4
 1476 08e2 85B0     		sub	sp, sp, #20
 1477              		.cfi_def_cfa_offset 24
 1478 08e4 0190     		str	r0, [sp, #4]
 1479 08e6 0B46     		mov	r3, r1
 1480 08e8 8DF80330 		strb	r3, [sp, #3]
 1481              		.loc 1 580 0
 1482 08ec 0DF10F03 		add	r3, sp, #15
 1483 08f0 0198     		ldr	r0, [sp, #4]
 1484 08f2 0821     		movs	r1, #8
 1485 08f4 1A46     		mov	r2, r3
 1486 08f6 FFF783FB 		bl	LSM6DSM_ACC_GYRO_ReadReg
 1487 08fa 0346     		mov	r3, r0
 1488 08fc 002B     		cmp	r3, #0
 1489 08fe 01D1     		bne	.L102
 1490              		.loc 1 581 0
 1491 0900 0023     		movs	r3, #0
 1492 0902 1BE0     		b	.L105
 1493              	.L102:
 1494              		.loc 1 583 0
 1495 0904 9DF80F30 		ldrb	r3, [sp, #15]	@ zero_extendqisi2
 1496 0908 23F03803 		bic	r3, r3, #56
 1497 090c DBB2     		uxtb	r3, r3
 1498 090e 8DF80F30 		strb	r3, [sp, #15]
 1499              		.loc 1 584 0
 1500 0912 9DF80F20 		ldrb	r2, [sp, #15]	@ zero_extendqisi2
 1501 0916 9DF80330 		ldrb	r3, [sp, #3]
 1502 091a 1343     		orrs	r3, r3, r2
 1503 091c DBB2     		uxtb	r3, r3
 1504 091e 8DF80F30 		strb	r3, [sp, #15]
 1505              		.loc 1 586 0
 1506 0922 9DF80F30 		ldrb	r3, [sp, #15]	@ zero_extendqisi2
 1507 0926 0198     		ldr	r0, [sp, #4]
 1508 0928 0821     		movs	r1, #8
 1509 092a 1A46     		mov	r2, r3
 1510 092c FFF788FB 		bl	LSM6DSM_ACC_GYRO_WriteReg
ARM GAS  /tmp/ccvV0fnY.s 			page 28


 1511 0930 0346     		mov	r3, r0
 1512 0932 002B     		cmp	r3, #0
 1513 0934 01D1     		bne	.L104
 1514              		.loc 1 587 0
 1515 0936 0023     		movs	r3, #0
 1516 0938 00E0     		b	.L105
 1517              	.L104:
 1518              		.loc 1 589 0
 1519 093a 0123     		movs	r3, #1
 1520              	.L105:
 1521              		.loc 1 590 0
 1522 093c 1846     		mov	r0, r3
 1523 093e 05B0     		add	sp, sp, #20
 1524              		@ sp needed
 1525 0940 5DF804FB 		ldr	pc, [sp], #4
 1526              		.cfi_endproc
 1527              	.LFE22:
 1528              		.size	LSM6DSM_ACC_GYRO_W_DEC_FIFO_G, .-LSM6DSM_ACC_GYRO_W_DEC_FIFO_G
 1529              		.align	2
 1530 0944 AFF30080 		.p2align 4,,15
 1530      AFF30080 
 1530      AFF30080 
 1531              		.global	LSM6DSM_ACC_GYRO_W_DEC_FIFO_G_val
 1532              		.thumb
 1533              		.thumb_func
 1534              		.type	LSM6DSM_ACC_GYRO_W_DEC_FIFO_G_val, %function
 1535              	LSM6DSM_ACC_GYRO_W_DEC_FIFO_G_val:
 1536              	.LFB23:
 1537              		.loc 1 594 0
 1538              		.cfi_startproc
 1539              		@ args = 0, pretend = 0, frame = 8
 1540              		@ frame_needed = 0, uses_anonymous_args = 0
 1541 0950 00B5     		push	{lr}
 1542              		.cfi_def_cfa_offset 4
 1543              		.cfi_offset 14, -4
 1544 0952 83B0     		sub	sp, sp, #12
 1545              		.cfi_def_cfa_offset 16
 1546 0954 0190     		str	r0, [sp, #4]
 1547 0956 0B46     		mov	r3, r1
 1548 0958 ADF80230 		strh	r3, [sp, #2]	@ movhi
 1549              		.loc 1 595 0
 1550 095c BDF80230 		ldrh	r3, [sp, #2]
 1551 0960 202B     		cmp	r3, #32
 1552 0962 6DD8     		bhi	.L107
 1553 0964 01A2     		adr	r2, .L109
 1554 0966 52F823F0 		ldr	pc, [r2, r3, lsl #2]
 1555 096a 00BF     		.p2align 2
 1556              	.L109:
 1557 096c F1090000 		.word	.L108+1
 1558 0970 FB090000 		.word	.L110+1
 1559 0974 050A0000 		.word	.L111+1
 1560 0978 0F0A0000 		.word	.L112+1
 1561 097c 190A0000 		.word	.L113+1
 1562 0980 410A0000 		.word	.L107+1
 1563 0984 410A0000 		.word	.L107+1
 1564 0988 410A0000 		.word	.L107+1
 1565 098c 230A0000 		.word	.L114+1
ARM GAS  /tmp/ccvV0fnY.s 			page 29


 1566 0990 410A0000 		.word	.L107+1
 1567 0994 410A0000 		.word	.L107+1
 1568 0998 410A0000 		.word	.L107+1
 1569 099c 410A0000 		.word	.L107+1
 1570 09a0 410A0000 		.word	.L107+1
 1571 09a4 410A0000 		.word	.L107+1
 1572 09a8 410A0000 		.word	.L107+1
 1573 09ac 2D0A0000 		.word	.L115+1
 1574 09b0 410A0000 		.word	.L107+1
 1575 09b4 410A0000 		.word	.L107+1
 1576 09b8 410A0000 		.word	.L107+1
 1577 09bc 410A0000 		.word	.L107+1
 1578 09c0 410A0000 		.word	.L107+1
 1579 09c4 410A0000 		.word	.L107+1
 1580 09c8 410A0000 		.word	.L107+1
 1581 09cc 410A0000 		.word	.L107+1
 1582 09d0 410A0000 		.word	.L107+1
 1583 09d4 410A0000 		.word	.L107+1
 1584 09d8 410A0000 		.word	.L107+1
 1585 09dc 410A0000 		.word	.L107+1
 1586 09e0 410A0000 		.word	.L107+1
 1587 09e4 410A0000 		.word	.L107+1
 1588 09e8 410A0000 		.word	.L107+1
 1589 09ec 370A0000 		.word	.L116+1
 1590              		.p2align 1
 1591              	.L108:
 1592              		.loc 1 597 0
 1593 09f0 0198     		ldr	r0, [sp, #4]
 1594 09f2 0021     		movs	r1, #0
 1595 09f4 FFF7FEFF 		bl	LSM6DSM_ACC_GYRO_W_DEC_FIFO_G
 1596              		.loc 1 598 0
 1597 09f8 24E0     		b	.L117
 1598              	.L110:
 1599              		.loc 1 601 0
 1600 09fa 0198     		ldr	r0, [sp, #4]
 1601 09fc 0821     		movs	r1, #8
 1602 09fe FFF7FEFF 		bl	LSM6DSM_ACC_GYRO_W_DEC_FIFO_G
 1603              		.loc 1 602 0
 1604 0a02 1FE0     		b	.L117
 1605              	.L111:
 1606              		.loc 1 605 0
 1607 0a04 0198     		ldr	r0, [sp, #4]
 1608 0a06 1021     		movs	r1, #16
 1609 0a08 FFF7FEFF 		bl	LSM6DSM_ACC_GYRO_W_DEC_FIFO_G
 1610              		.loc 1 606 0
 1611 0a0c 1AE0     		b	.L117
 1612              	.L112:
 1613              		.loc 1 609 0
 1614 0a0e 0198     		ldr	r0, [sp, #4]
 1615 0a10 1821     		movs	r1, #24
 1616 0a12 FFF7FEFF 		bl	LSM6DSM_ACC_GYRO_W_DEC_FIFO_G
 1617              		.loc 1 610 0
 1618 0a16 15E0     		b	.L117
 1619              	.L113:
 1620              		.loc 1 613 0
 1621 0a18 0198     		ldr	r0, [sp, #4]
 1622 0a1a 2021     		movs	r1, #32
ARM GAS  /tmp/ccvV0fnY.s 			page 30


 1623 0a1c FFF7FEFF 		bl	LSM6DSM_ACC_GYRO_W_DEC_FIFO_G
 1624              		.loc 1 614 0
 1625 0a20 10E0     		b	.L117
 1626              	.L114:
 1627              		.loc 1 617 0
 1628 0a22 0198     		ldr	r0, [sp, #4]
 1629 0a24 2821     		movs	r1, #40
 1630 0a26 FFF7FEFF 		bl	LSM6DSM_ACC_GYRO_W_DEC_FIFO_G
 1631              		.loc 1 618 0
 1632 0a2a 0BE0     		b	.L117
 1633              	.L115:
 1634              		.loc 1 621 0
 1635 0a2c 0198     		ldr	r0, [sp, #4]
 1636 0a2e 3021     		movs	r1, #48
 1637 0a30 FFF7FEFF 		bl	LSM6DSM_ACC_GYRO_W_DEC_FIFO_G
 1638              		.loc 1 622 0
 1639 0a34 06E0     		b	.L117
 1640              	.L116:
 1641              		.loc 1 625 0
 1642 0a36 0198     		ldr	r0, [sp, #4]
 1643 0a38 3821     		movs	r1, #56
 1644 0a3a FFF7FEFF 		bl	LSM6DSM_ACC_GYRO_W_DEC_FIFO_G
 1645              		.loc 1 626 0
 1646 0a3e 01E0     		b	.L117
 1647              	.L107:
 1648              		.loc 1 629 0
 1649 0a40 0023     		movs	r3, #0
 1650 0a42 00E0     		b	.L118
 1651              	.L117:
 1652              		.loc 1 632 0
 1653 0a44 0123     		movs	r3, #1
 1654              	.L118:
 1655              		.loc 1 633 0
 1656 0a46 1846     		mov	r0, r3
 1657 0a48 03B0     		add	sp, sp, #12
 1658              		@ sp needed
 1659 0a4a 5DF804FB 		ldr	pc, [sp], #4
 1660              		.cfi_endproc
 1661              	.LFE23:
 1662              		.size	LSM6DSM_ACC_GYRO_W_DEC_FIFO_G_val, .-LSM6DSM_ACC_GYRO_W_DEC_FIFO_G_val
 1663 0a4e 00BF     		.align	2
 1664              		.p2align 4,,15
 1665              		.global	LSM6DSM_ACC_GYRO_R_DEC_FIFO_G
 1666              		.thumb
 1667              		.thumb_func
 1668              		.type	LSM6DSM_ACC_GYRO_R_DEC_FIFO_G, %function
 1669              	LSM6DSM_ACC_GYRO_R_DEC_FIFO_G:
 1670              	.LFB24:
 1671              		.loc 1 644 0
 1672              		.cfi_startproc
 1673              		@ args = 0, pretend = 0, frame = 8
 1674              		@ frame_needed = 0, uses_anonymous_args = 0
 1675 0a50 00B5     		push	{lr}
 1676              		.cfi_def_cfa_offset 4
 1677              		.cfi_offset 14, -4
 1678 0a52 83B0     		sub	sp, sp, #12
 1679              		.cfi_def_cfa_offset 16
ARM GAS  /tmp/ccvV0fnY.s 			page 31


 1680 0a54 0190     		str	r0, [sp, #4]
 1681 0a56 0091     		str	r1, [sp]
 1682              		.loc 1 645 0
 1683 0a58 0198     		ldr	r0, [sp, #4]
 1684 0a5a 0821     		movs	r1, #8
 1685 0a5c 009A     		ldr	r2, [sp]
 1686 0a5e FFF7CFFA 		bl	LSM6DSM_ACC_GYRO_ReadReg
 1687 0a62 0346     		mov	r3, r0
 1688 0a64 002B     		cmp	r3, #0
 1689 0a66 01D1     		bne	.L120
 1690              		.loc 1 646 0
 1691 0a68 0023     		movs	r3, #0
 1692 0a6a 07E0     		b	.L121
 1693              	.L120:
 1694              		.loc 1 648 0
 1695 0a6c 009B     		ldr	r3, [sp]
 1696 0a6e 1B78     		ldrb	r3, [r3]	@ zero_extendqisi2
 1697 0a70 03F03803 		and	r3, r3, #56
 1698 0a74 DAB2     		uxtb	r2, r3
 1699 0a76 009B     		ldr	r3, [sp]
 1700 0a78 1A70     		strb	r2, [r3]
 1701              		.loc 1 650 0
 1702 0a7a 0123     		movs	r3, #1
 1703              	.L121:
 1704              		.loc 1 651 0
 1705 0a7c 1846     		mov	r0, r3
 1706 0a7e 03B0     		add	sp, sp, #12
 1707              		@ sp needed
 1708 0a80 5DF804FB 		ldr	pc, [sp], #4
 1709              		.cfi_endproc
 1710              	.LFE24:
 1711              		.size	LSM6DSM_ACC_GYRO_R_DEC_FIFO_G, .-LSM6DSM_ACC_GYRO_R_DEC_FIFO_G
 1712              		.align	2
 1713 0a84 AFF30080 		.p2align 4,,15
 1713      AFF30080 
 1713      AFF30080 
 1714              		.global	LSM6DSM_ACC_GYRO_W_DEC_FIFO_DS3
 1715              		.thumb
 1716              		.thumb_func
 1717              		.type	LSM6DSM_ACC_GYRO_W_DEC_FIFO_DS3, %function
 1718              	LSM6DSM_ACC_GYRO_W_DEC_FIFO_DS3:
 1719              	.LFB25:
 1720              		.loc 1 660 0
 1721              		.cfi_startproc
 1722              		@ args = 0, pretend = 0, frame = 16
 1723              		@ frame_needed = 0, uses_anonymous_args = 0
 1724 0a90 00B5     		push	{lr}
 1725              		.cfi_def_cfa_offset 4
 1726              		.cfi_offset 14, -4
 1727 0a92 85B0     		sub	sp, sp, #20
 1728              		.cfi_def_cfa_offset 24
 1729 0a94 0190     		str	r0, [sp, #4]
 1730 0a96 0B46     		mov	r3, r1
 1731 0a98 8DF80330 		strb	r3, [sp, #3]
 1732              		.loc 1 663 0
 1733 0a9c 0DF10F03 		add	r3, sp, #15
 1734 0aa0 0198     		ldr	r0, [sp, #4]
ARM GAS  /tmp/ccvV0fnY.s 			page 32


 1735 0aa2 0921     		movs	r1, #9
 1736 0aa4 1A46     		mov	r2, r3
 1737 0aa6 FFF7ABFA 		bl	LSM6DSM_ACC_GYRO_ReadReg
 1738 0aaa 0346     		mov	r3, r0
 1739 0aac 002B     		cmp	r3, #0
 1740 0aae 01D1     		bne	.L123
 1741              		.loc 1 664 0
 1742 0ab0 0023     		movs	r3, #0
 1743 0ab2 1BE0     		b	.L126
 1744              	.L123:
 1745              		.loc 1 666 0
 1746 0ab4 9DF80F30 		ldrb	r3, [sp, #15]	@ zero_extendqisi2
 1747 0ab8 23F00703 		bic	r3, r3, #7
 1748 0abc DBB2     		uxtb	r3, r3
 1749 0abe 8DF80F30 		strb	r3, [sp, #15]
 1750              		.loc 1 667 0
 1751 0ac2 9DF80F20 		ldrb	r2, [sp, #15]	@ zero_extendqisi2
 1752 0ac6 9DF80330 		ldrb	r3, [sp, #3]
 1753 0aca 1343     		orrs	r3, r3, r2
 1754 0acc DBB2     		uxtb	r3, r3
 1755 0ace 8DF80F30 		strb	r3, [sp, #15]
 1756              		.loc 1 669 0
 1757 0ad2 9DF80F30 		ldrb	r3, [sp, #15]	@ zero_extendqisi2
 1758 0ad6 0198     		ldr	r0, [sp, #4]
 1759 0ad8 0921     		movs	r1, #9
 1760 0ada 1A46     		mov	r2, r3
 1761 0adc FFF7B0FA 		bl	LSM6DSM_ACC_GYRO_WriteReg
 1762 0ae0 0346     		mov	r3, r0
 1763 0ae2 002B     		cmp	r3, #0
 1764 0ae4 01D1     		bne	.L125
 1765              		.loc 1 670 0
 1766 0ae6 0023     		movs	r3, #0
 1767 0ae8 00E0     		b	.L126
 1768              	.L125:
 1769              		.loc 1 672 0
 1770 0aea 0123     		movs	r3, #1
 1771              	.L126:
 1772              		.loc 1 673 0
 1773 0aec 1846     		mov	r0, r3
 1774 0aee 05B0     		add	sp, sp, #20
 1775              		@ sp needed
 1776 0af0 5DF804FB 		ldr	pc, [sp], #4
 1777              		.cfi_endproc
 1778              	.LFE25:
 1779              		.size	LSM6DSM_ACC_GYRO_W_DEC_FIFO_DS3, .-LSM6DSM_ACC_GYRO_W_DEC_FIFO_DS3
 1780              		.align	2
 1781 0af4 AFF30080 		.p2align 4,,15
 1781      AFF30080 
 1781      AFF30080 
 1782              		.global	LSM6DSM_ACC_GYRO_R_DEC_FIFO_DS3
 1783              		.thumb
 1784              		.thumb_func
 1785              		.type	LSM6DSM_ACC_GYRO_R_DEC_FIFO_DS3, %function
 1786              	LSM6DSM_ACC_GYRO_R_DEC_FIFO_DS3:
 1787              	.LFB26:
 1788              		.loc 1 684 0
 1789              		.cfi_startproc
ARM GAS  /tmp/ccvV0fnY.s 			page 33


 1790              		@ args = 0, pretend = 0, frame = 8
 1791              		@ frame_needed = 0, uses_anonymous_args = 0
 1792 0b00 00B5     		push	{lr}
 1793              		.cfi_def_cfa_offset 4
 1794              		.cfi_offset 14, -4
 1795 0b02 83B0     		sub	sp, sp, #12
 1796              		.cfi_def_cfa_offset 16
 1797 0b04 0190     		str	r0, [sp, #4]
 1798 0b06 0091     		str	r1, [sp]
 1799              		.loc 1 685 0
 1800 0b08 0198     		ldr	r0, [sp, #4]
 1801 0b0a 0921     		movs	r1, #9
 1802 0b0c 009A     		ldr	r2, [sp]
 1803 0b0e FFF777FA 		bl	LSM6DSM_ACC_GYRO_ReadReg
 1804 0b12 0346     		mov	r3, r0
 1805 0b14 002B     		cmp	r3, #0
 1806 0b16 01D1     		bne	.L128
 1807              		.loc 1 686 0
 1808 0b18 0023     		movs	r3, #0
 1809 0b1a 07E0     		b	.L129
 1810              	.L128:
 1811              		.loc 1 688 0
 1812 0b1c 009B     		ldr	r3, [sp]
 1813 0b1e 1B78     		ldrb	r3, [r3]	@ zero_extendqisi2
 1814 0b20 03F00703 		and	r3, r3, #7
 1815 0b24 DAB2     		uxtb	r2, r3
 1816 0b26 009B     		ldr	r3, [sp]
 1817 0b28 1A70     		strb	r2, [r3]
 1818              		.loc 1 690 0
 1819 0b2a 0123     		movs	r3, #1
 1820              	.L129:
 1821              		.loc 1 691 0
 1822 0b2c 1846     		mov	r0, r3
 1823 0b2e 03B0     		add	sp, sp, #12
 1824              		@ sp needed
 1825 0b30 5DF804FB 		ldr	pc, [sp], #4
 1826              		.cfi_endproc
 1827              	.LFE26:
 1828              		.size	LSM6DSM_ACC_GYRO_R_DEC_FIFO_DS3, .-LSM6DSM_ACC_GYRO_R_DEC_FIFO_DS3
 1829              		.align	2
 1830 0b34 AFF30080 		.p2align 4,,15
 1830      AFF30080 
 1830      AFF30080 
 1831              		.global	LSM6DSM_ACC_GYRO_W_DEC_FIFO_DS4
 1832              		.thumb
 1833              		.thumb_func
 1834              		.type	LSM6DSM_ACC_GYRO_W_DEC_FIFO_DS4, %function
 1835              	LSM6DSM_ACC_GYRO_W_DEC_FIFO_DS4:
 1836              	.LFB27:
 1837              		.loc 1 700 0
 1838              		.cfi_startproc
 1839              		@ args = 0, pretend = 0, frame = 16
 1840              		@ frame_needed = 0, uses_anonymous_args = 0
 1841 0b40 00B5     		push	{lr}
 1842              		.cfi_def_cfa_offset 4
 1843              		.cfi_offset 14, -4
 1844 0b42 85B0     		sub	sp, sp, #20
ARM GAS  /tmp/ccvV0fnY.s 			page 34


 1845              		.cfi_def_cfa_offset 24
 1846 0b44 0190     		str	r0, [sp, #4]
 1847 0b46 0B46     		mov	r3, r1
 1848 0b48 8DF80330 		strb	r3, [sp, #3]
 1849              		.loc 1 703 0
 1850 0b4c 0DF10F03 		add	r3, sp, #15
 1851 0b50 0198     		ldr	r0, [sp, #4]
 1852 0b52 0921     		movs	r1, #9
 1853 0b54 1A46     		mov	r2, r3
 1854 0b56 FFF753FA 		bl	LSM6DSM_ACC_GYRO_ReadReg
 1855 0b5a 0346     		mov	r3, r0
 1856 0b5c 002B     		cmp	r3, #0
 1857 0b5e 01D1     		bne	.L131
 1858              		.loc 1 704 0
 1859 0b60 0023     		movs	r3, #0
 1860 0b62 1BE0     		b	.L134
 1861              	.L131:
 1862              		.loc 1 706 0
 1863 0b64 9DF80F30 		ldrb	r3, [sp, #15]	@ zero_extendqisi2
 1864 0b68 23F03803 		bic	r3, r3, #56
 1865 0b6c DBB2     		uxtb	r3, r3
 1866 0b6e 8DF80F30 		strb	r3, [sp, #15]
 1867              		.loc 1 707 0
 1868 0b72 9DF80F20 		ldrb	r2, [sp, #15]	@ zero_extendqisi2
 1869 0b76 9DF80330 		ldrb	r3, [sp, #3]
 1870 0b7a 1343     		orrs	r3, r3, r2
 1871 0b7c DBB2     		uxtb	r3, r3
 1872 0b7e 8DF80F30 		strb	r3, [sp, #15]
 1873              		.loc 1 709 0
 1874 0b82 9DF80F30 		ldrb	r3, [sp, #15]	@ zero_extendqisi2
 1875 0b86 0198     		ldr	r0, [sp, #4]
 1876 0b88 0921     		movs	r1, #9
 1877 0b8a 1A46     		mov	r2, r3
 1878 0b8c FFF758FA 		bl	LSM6DSM_ACC_GYRO_WriteReg
 1879 0b90 0346     		mov	r3, r0
 1880 0b92 002B     		cmp	r3, #0
 1881 0b94 01D1     		bne	.L133
 1882              		.loc 1 710 0
 1883 0b96 0023     		movs	r3, #0
 1884 0b98 00E0     		b	.L134
 1885              	.L133:
 1886              		.loc 1 712 0
 1887 0b9a 0123     		movs	r3, #1
 1888              	.L134:
 1889              		.loc 1 713 0
 1890 0b9c 1846     		mov	r0, r3
 1891 0b9e 05B0     		add	sp, sp, #20
 1892              		@ sp needed
 1893 0ba0 5DF804FB 		ldr	pc, [sp], #4
 1894              		.cfi_endproc
 1895              	.LFE27:
 1896              		.size	LSM6DSM_ACC_GYRO_W_DEC_FIFO_DS4, .-LSM6DSM_ACC_GYRO_W_DEC_FIFO_DS4
 1897              		.align	2
 1898 0ba4 AFF30080 		.p2align 4,,15
 1898      AFF30080 
 1898      AFF30080 
 1899              		.global	LSM6DSM_ACC_GYRO_R_DEC_FIFO_DS4
ARM GAS  /tmp/ccvV0fnY.s 			page 35


 1900              		.thumb
 1901              		.thumb_func
 1902              		.type	LSM6DSM_ACC_GYRO_R_DEC_FIFO_DS4, %function
 1903              	LSM6DSM_ACC_GYRO_R_DEC_FIFO_DS4:
 1904              	.LFB28:
 1905              		.loc 1 724 0
 1906              		.cfi_startproc
 1907              		@ args = 0, pretend = 0, frame = 8
 1908              		@ frame_needed = 0, uses_anonymous_args = 0
 1909 0bb0 00B5     		push	{lr}
 1910              		.cfi_def_cfa_offset 4
 1911              		.cfi_offset 14, -4
 1912 0bb2 83B0     		sub	sp, sp, #12
 1913              		.cfi_def_cfa_offset 16
 1914 0bb4 0190     		str	r0, [sp, #4]
 1915 0bb6 0091     		str	r1, [sp]
 1916              		.loc 1 725 0
 1917 0bb8 0198     		ldr	r0, [sp, #4]
 1918 0bba 0921     		movs	r1, #9
 1919 0bbc 009A     		ldr	r2, [sp]
 1920 0bbe FFF71FFA 		bl	LSM6DSM_ACC_GYRO_ReadReg
 1921 0bc2 0346     		mov	r3, r0
 1922 0bc4 002B     		cmp	r3, #0
 1923 0bc6 01D1     		bne	.L136
 1924              		.loc 1 726 0
 1925 0bc8 0023     		movs	r3, #0
 1926 0bca 07E0     		b	.L137
 1927              	.L136:
 1928              		.loc 1 728 0
 1929 0bcc 009B     		ldr	r3, [sp]
 1930 0bce 1B78     		ldrb	r3, [r3]	@ zero_extendqisi2
 1931 0bd0 03F03803 		and	r3, r3, #56
 1932 0bd4 DAB2     		uxtb	r2, r3
 1933 0bd6 009B     		ldr	r3, [sp]
 1934 0bd8 1A70     		strb	r2, [r3]
 1935              		.loc 1 730 0
 1936 0bda 0123     		movs	r3, #1
 1937              	.L137:
 1938              		.loc 1 731 0
 1939 0bdc 1846     		mov	r0, r3
 1940 0bde 03B0     		add	sp, sp, #12
 1941              		@ sp needed
 1942 0be0 5DF804FB 		ldr	pc, [sp], #4
 1943              		.cfi_endproc
 1944              	.LFE28:
 1945              		.size	LSM6DSM_ACC_GYRO_R_DEC_FIFO_DS4, .-LSM6DSM_ACC_GYRO_R_DEC_FIFO_DS4
 1946              		.align	2
 1947 0be4 AFF30080 		.p2align 4,,15
 1947      AFF30080 
 1947      AFF30080 
 1948              		.global	LSM6DSM_ACC_GYRO_W_HI_DATA_ONLY
 1949              		.thumb
 1950              		.thumb_func
 1951              		.type	LSM6DSM_ACC_GYRO_W_HI_DATA_ONLY, %function
 1952              	LSM6DSM_ACC_GYRO_W_HI_DATA_ONLY:
 1953              	.LFB29:
 1954              		.loc 1 740 0
ARM GAS  /tmp/ccvV0fnY.s 			page 36


 1955              		.cfi_startproc
 1956              		@ args = 0, pretend = 0, frame = 16
 1957              		@ frame_needed = 0, uses_anonymous_args = 0
 1958 0bf0 00B5     		push	{lr}
 1959              		.cfi_def_cfa_offset 4
 1960              		.cfi_offset 14, -4
 1961 0bf2 85B0     		sub	sp, sp, #20
 1962              		.cfi_def_cfa_offset 24
 1963 0bf4 0190     		str	r0, [sp, #4]
 1964 0bf6 0B46     		mov	r3, r1
 1965 0bf8 8DF80330 		strb	r3, [sp, #3]
 1966              		.loc 1 743 0
 1967 0bfc 0DF10F03 		add	r3, sp, #15
 1968 0c00 0198     		ldr	r0, [sp, #4]
 1969 0c02 0921     		movs	r1, #9
 1970 0c04 1A46     		mov	r2, r3
 1971 0c06 FFF7FBF9 		bl	LSM6DSM_ACC_GYRO_ReadReg
 1972 0c0a 0346     		mov	r3, r0
 1973 0c0c 002B     		cmp	r3, #0
 1974 0c0e 01D1     		bne	.L139
 1975              		.loc 1 744 0
 1976 0c10 0023     		movs	r3, #0
 1977 0c12 1BE0     		b	.L142
 1978              	.L139:
 1979              		.loc 1 746 0
 1980 0c14 9DF80F30 		ldrb	r3, [sp, #15]	@ zero_extendqisi2
 1981 0c18 23F04003 		bic	r3, r3, #64
 1982 0c1c DBB2     		uxtb	r3, r3
 1983 0c1e 8DF80F30 		strb	r3, [sp, #15]
 1984              		.loc 1 747 0
 1985 0c22 9DF80F20 		ldrb	r2, [sp, #15]	@ zero_extendqisi2
 1986 0c26 9DF80330 		ldrb	r3, [sp, #3]
 1987 0c2a 1343     		orrs	r3, r3, r2
 1988 0c2c DBB2     		uxtb	r3, r3
 1989 0c2e 8DF80F30 		strb	r3, [sp, #15]
 1990              		.loc 1 749 0
 1991 0c32 9DF80F30 		ldrb	r3, [sp, #15]	@ zero_extendqisi2
 1992 0c36 0198     		ldr	r0, [sp, #4]
 1993 0c38 0921     		movs	r1, #9
 1994 0c3a 1A46     		mov	r2, r3
 1995 0c3c FFF700FA 		bl	LSM6DSM_ACC_GYRO_WriteReg
 1996 0c40 0346     		mov	r3, r0
 1997 0c42 002B     		cmp	r3, #0
 1998 0c44 01D1     		bne	.L141
 1999              		.loc 1 750 0
 2000 0c46 0023     		movs	r3, #0
 2001 0c48 00E0     		b	.L142
 2002              	.L141:
 2003              		.loc 1 752 0
 2004 0c4a 0123     		movs	r3, #1
 2005              	.L142:
 2006              		.loc 1 753 0
 2007 0c4c 1846     		mov	r0, r3
 2008 0c4e 05B0     		add	sp, sp, #20
 2009              		@ sp needed
 2010 0c50 5DF804FB 		ldr	pc, [sp], #4
 2011              		.cfi_endproc
ARM GAS  /tmp/ccvV0fnY.s 			page 37


 2012              	.LFE29:
 2013              		.size	LSM6DSM_ACC_GYRO_W_HI_DATA_ONLY, .-LSM6DSM_ACC_GYRO_W_HI_DATA_ONLY
 2014              		.align	2
 2015 0c54 AFF30080 		.p2align 4,,15
 2015      AFF30080 
 2015      AFF30080 
 2016              		.global	LSM6DSM_ACC_GYRO_R_HI_DATA_ONLY
 2017              		.thumb
 2018              		.thumb_func
 2019              		.type	LSM6DSM_ACC_GYRO_R_HI_DATA_ONLY, %function
 2020              	LSM6DSM_ACC_GYRO_R_HI_DATA_ONLY:
 2021              	.LFB30:
 2022              		.loc 1 764 0
 2023              		.cfi_startproc
 2024              		@ args = 0, pretend = 0, frame = 8
 2025              		@ frame_needed = 0, uses_anonymous_args = 0
 2026 0c60 00B5     		push	{lr}
 2027              		.cfi_def_cfa_offset 4
 2028              		.cfi_offset 14, -4
 2029 0c62 83B0     		sub	sp, sp, #12
 2030              		.cfi_def_cfa_offset 16
 2031 0c64 0190     		str	r0, [sp, #4]
 2032 0c66 0091     		str	r1, [sp]
 2033              		.loc 1 765 0
 2034 0c68 0198     		ldr	r0, [sp, #4]
 2035 0c6a 0921     		movs	r1, #9
 2036 0c6c 009A     		ldr	r2, [sp]
 2037 0c6e FFF7C7F9 		bl	LSM6DSM_ACC_GYRO_ReadReg
 2038 0c72 0346     		mov	r3, r0
 2039 0c74 002B     		cmp	r3, #0
 2040 0c76 01D1     		bne	.L144
 2041              		.loc 1 766 0
 2042 0c78 0023     		movs	r3, #0
 2043 0c7a 07E0     		b	.L145
 2044              	.L144:
 2045              		.loc 1 768 0
 2046 0c7c 009B     		ldr	r3, [sp]
 2047 0c7e 1B78     		ldrb	r3, [r3]	@ zero_extendqisi2
 2048 0c80 03F04003 		and	r3, r3, #64
 2049 0c84 DAB2     		uxtb	r2, r3
 2050 0c86 009B     		ldr	r3, [sp]
 2051 0c88 1A70     		strb	r2, [r3]
 2052              		.loc 1 770 0
 2053 0c8a 0123     		movs	r3, #1
 2054              	.L145:
 2055              		.loc 1 771 0
 2056 0c8c 1846     		mov	r0, r3
 2057 0c8e 03B0     		add	sp, sp, #12
 2058              		@ sp needed
 2059 0c90 5DF804FB 		ldr	pc, [sp], #4
 2060              		.cfi_endproc
 2061              	.LFE30:
 2062              		.size	LSM6DSM_ACC_GYRO_R_HI_DATA_ONLY, .-LSM6DSM_ACC_GYRO_R_HI_DATA_ONLY
 2063              		.align	2
 2064 0c94 AFF30080 		.p2align 4,,15
 2064      AFF30080 
 2064      AFF30080 
ARM GAS  /tmp/ccvV0fnY.s 			page 38


 2065              		.global	LSM6DSM_ACC_GYRO_W_STOP_ON_FTH
 2066              		.thumb
 2067              		.thumb_func
 2068              		.type	LSM6DSM_ACC_GYRO_W_STOP_ON_FTH, %function
 2069              	LSM6DSM_ACC_GYRO_W_STOP_ON_FTH:
 2070              	.LFB31:
 2071              		.loc 1 781 0
 2072              		.cfi_startproc
 2073              		@ args = 0, pretend = 0, frame = 16
 2074              		@ frame_needed = 0, uses_anonymous_args = 0
 2075 0ca0 00B5     		push	{lr}
 2076              		.cfi_def_cfa_offset 4
 2077              		.cfi_offset 14, -4
 2078 0ca2 85B0     		sub	sp, sp, #20
 2079              		.cfi_def_cfa_offset 24
 2080 0ca4 0190     		str	r0, [sp, #4]
 2081 0ca6 0B46     		mov	r3, r1
 2082 0ca8 8DF80330 		strb	r3, [sp, #3]
 2083              		.loc 1 784 0
 2084 0cac 0DF10F03 		add	r3, sp, #15
 2085 0cb0 0198     		ldr	r0, [sp, #4]
 2086 0cb2 0921     		movs	r1, #9
 2087 0cb4 1A46     		mov	r2, r3
 2088 0cb6 FFF7A3F9 		bl	LSM6DSM_ACC_GYRO_ReadReg
 2089 0cba 0346     		mov	r3, r0
 2090 0cbc 002B     		cmp	r3, #0
 2091 0cbe 01D1     		bne	.L147
 2092              		.loc 1 785 0
 2093 0cc0 0023     		movs	r3, #0
 2094 0cc2 1BE0     		b	.L150
 2095              	.L147:
 2096              		.loc 1 787 0
 2097 0cc4 9DF80F30 		ldrb	r3, [sp, #15]	@ zero_extendqisi2
 2098 0cc8 03F07F03 		and	r3, r3, #127
 2099 0ccc DBB2     		uxtb	r3, r3
 2100 0cce 8DF80F30 		strb	r3, [sp, #15]
 2101              		.loc 1 788 0
 2102 0cd2 9DF80F20 		ldrb	r2, [sp, #15]	@ zero_extendqisi2
 2103 0cd6 9DF80330 		ldrb	r3, [sp, #3]
 2104 0cda 1343     		orrs	r3, r3, r2
 2105 0cdc DBB2     		uxtb	r3, r3
 2106 0cde 8DF80F30 		strb	r3, [sp, #15]
 2107              		.loc 1 790 0
 2108 0ce2 9DF80F30 		ldrb	r3, [sp, #15]	@ zero_extendqisi2
 2109 0ce6 0198     		ldr	r0, [sp, #4]
 2110 0ce8 0921     		movs	r1, #9
 2111 0cea 1A46     		mov	r2, r3
 2112 0cec FFF7A8F9 		bl	LSM6DSM_ACC_GYRO_WriteReg
 2113 0cf0 0346     		mov	r3, r0
 2114 0cf2 002B     		cmp	r3, #0
 2115 0cf4 01D1     		bne	.L149
 2116              		.loc 1 791 0
 2117 0cf6 0023     		movs	r3, #0
 2118 0cf8 00E0     		b	.L150
 2119              	.L149:
 2120              		.loc 1 793 0
 2121 0cfa 0123     		movs	r3, #1
ARM GAS  /tmp/ccvV0fnY.s 			page 39


 2122              	.L150:
 2123              		.loc 1 794 0
 2124 0cfc 1846     		mov	r0, r3
 2125 0cfe 05B0     		add	sp, sp, #20
 2126              		@ sp needed
 2127 0d00 5DF804FB 		ldr	pc, [sp], #4
 2128              		.cfi_endproc
 2129              	.LFE31:
 2130              		.size	LSM6DSM_ACC_GYRO_W_STOP_ON_FTH, .-LSM6DSM_ACC_GYRO_W_STOP_ON_FTH
 2131              		.align	2
 2132 0d04 AFF30080 		.p2align 4,,15
 2132      AFF30080 
 2132      AFF30080 
 2133              		.global	LSM6DSM_ACC_GYRO_R_STOP_ON_FTH
 2134              		.thumb
 2135              		.thumb_func
 2136              		.type	LSM6DSM_ACC_GYRO_R_STOP_ON_FTH, %function
 2137              	LSM6DSM_ACC_GYRO_R_STOP_ON_FTH:
 2138              	.LFB32:
 2139              		.loc 1 805 0
 2140              		.cfi_startproc
 2141              		@ args = 0, pretend = 0, frame = 8
 2142              		@ frame_needed = 0, uses_anonymous_args = 0
 2143 0d10 00B5     		push	{lr}
 2144              		.cfi_def_cfa_offset 4
 2145              		.cfi_offset 14, -4
 2146 0d12 83B0     		sub	sp, sp, #12
 2147              		.cfi_def_cfa_offset 16
 2148 0d14 0190     		str	r0, [sp, #4]
 2149 0d16 0091     		str	r1, [sp]
 2150              		.loc 1 806 0
 2151 0d18 0198     		ldr	r0, [sp, #4]
 2152 0d1a 0921     		movs	r1, #9
 2153 0d1c 009A     		ldr	r2, [sp]
 2154 0d1e FFF76FF9 		bl	LSM6DSM_ACC_GYRO_ReadReg
 2155 0d22 0346     		mov	r3, r0
 2156 0d24 002B     		cmp	r3, #0
 2157 0d26 01D1     		bne	.L152
 2158              		.loc 1 807 0
 2159 0d28 0023     		movs	r3, #0
 2160 0d2a 07E0     		b	.L153
 2161              	.L152:
 2162              		.loc 1 809 0
 2163 0d2c 009B     		ldr	r3, [sp]
 2164 0d2e 1B78     		ldrb	r3, [r3]	@ zero_extendqisi2
 2165 0d30 23F07F03 		bic	r3, r3, #127
 2166 0d34 DAB2     		uxtb	r2, r3
 2167 0d36 009B     		ldr	r3, [sp]
 2168 0d38 1A70     		strb	r2, [r3]
 2169              		.loc 1 811 0
 2170 0d3a 0123     		movs	r3, #1
 2171              	.L153:
 2172              		.loc 1 812 0
 2173 0d3c 1846     		mov	r0, r3
 2174 0d3e 03B0     		add	sp, sp, #12
 2175              		@ sp needed
 2176 0d40 5DF804FB 		ldr	pc, [sp], #4
ARM GAS  /tmp/ccvV0fnY.s 			page 40


 2177              		.cfi_endproc
 2178              	.LFE32:
 2179              		.size	LSM6DSM_ACC_GYRO_R_STOP_ON_FTH, .-LSM6DSM_ACC_GYRO_R_STOP_ON_FTH
 2180              		.align	2
 2181 0d44 AFF30080 		.p2align 4,,15
 2181      AFF30080 
 2181      AFF30080 
 2182              		.global	LSM6DSM_ACC_GYRO_W_FIFO_MODE
 2183              		.thumb
 2184              		.thumb_func
 2185              		.type	LSM6DSM_ACC_GYRO_W_FIFO_MODE, %function
 2186              	LSM6DSM_ACC_GYRO_W_FIFO_MODE:
 2187              	.LFB33:
 2188              		.loc 1 822 0
 2189              		.cfi_startproc
 2190              		@ args = 0, pretend = 0, frame = 16
 2191              		@ frame_needed = 0, uses_anonymous_args = 0
 2192 0d50 00B5     		push	{lr}
 2193              		.cfi_def_cfa_offset 4
 2194              		.cfi_offset 14, -4
 2195 0d52 85B0     		sub	sp, sp, #20
 2196              		.cfi_def_cfa_offset 24
 2197 0d54 0190     		str	r0, [sp, #4]
 2198 0d56 0B46     		mov	r3, r1
 2199 0d58 8DF80330 		strb	r3, [sp, #3]
 2200              		.loc 1 825 0
 2201 0d5c 0DF10F03 		add	r3, sp, #15
 2202 0d60 0198     		ldr	r0, [sp, #4]
 2203 0d62 0A21     		movs	r1, #10
 2204 0d64 1A46     		mov	r2, r3
 2205 0d66 FFF74BF9 		bl	LSM6DSM_ACC_GYRO_ReadReg
 2206 0d6a 0346     		mov	r3, r0
 2207 0d6c 002B     		cmp	r3, #0
 2208 0d6e 01D1     		bne	.L155
 2209              		.loc 1 826 0
 2210 0d70 0023     		movs	r3, #0
 2211 0d72 1BE0     		b	.L158
 2212              	.L155:
 2213              		.loc 1 828 0
 2214 0d74 9DF80F30 		ldrb	r3, [sp, #15]	@ zero_extendqisi2
 2215 0d78 23F00703 		bic	r3, r3, #7
 2216 0d7c DBB2     		uxtb	r3, r3
 2217 0d7e 8DF80F30 		strb	r3, [sp, #15]
 2218              		.loc 1 829 0
 2219 0d82 9DF80F20 		ldrb	r2, [sp, #15]	@ zero_extendqisi2
 2220 0d86 9DF80330 		ldrb	r3, [sp, #3]
 2221 0d8a 1343     		orrs	r3, r3, r2
 2222 0d8c DBB2     		uxtb	r3, r3
 2223 0d8e 8DF80F30 		strb	r3, [sp, #15]
 2224              		.loc 1 831 0
 2225 0d92 9DF80F30 		ldrb	r3, [sp, #15]	@ zero_extendqisi2
 2226 0d96 0198     		ldr	r0, [sp, #4]
 2227 0d98 0A21     		movs	r1, #10
 2228 0d9a 1A46     		mov	r2, r3
 2229 0d9c FFF750F9 		bl	LSM6DSM_ACC_GYRO_WriteReg
 2230 0da0 0346     		mov	r3, r0
 2231 0da2 002B     		cmp	r3, #0
ARM GAS  /tmp/ccvV0fnY.s 			page 41


 2232 0da4 01D1     		bne	.L157
 2233              		.loc 1 832 0
 2234 0da6 0023     		movs	r3, #0
 2235 0da8 00E0     		b	.L158
 2236              	.L157:
 2237              		.loc 1 834 0
 2238 0daa 0123     		movs	r3, #1
 2239              	.L158:
 2240              		.loc 1 835 0
 2241 0dac 1846     		mov	r0, r3
 2242 0dae 05B0     		add	sp, sp, #20
 2243              		@ sp needed
 2244 0db0 5DF804FB 		ldr	pc, [sp], #4
 2245              		.cfi_endproc
 2246              	.LFE33:
 2247              		.size	LSM6DSM_ACC_GYRO_W_FIFO_MODE, .-LSM6DSM_ACC_GYRO_W_FIFO_MODE
 2248              		.align	2
 2249 0db4 AFF30080 		.p2align 4,,15
 2249      AFF30080 
 2249      AFF30080 
 2250              		.global	LSM6DSM_ACC_GYRO_R_FIFO_MODE
 2251              		.thumb
 2252              		.thumb_func
 2253              		.type	LSM6DSM_ACC_GYRO_R_FIFO_MODE, %function
 2254              	LSM6DSM_ACC_GYRO_R_FIFO_MODE:
 2255              	.LFB34:
 2256              		.loc 1 846 0
 2257              		.cfi_startproc
 2258              		@ args = 0, pretend = 0, frame = 8
 2259              		@ frame_needed = 0, uses_anonymous_args = 0
 2260 0dc0 00B5     		push	{lr}
 2261              		.cfi_def_cfa_offset 4
 2262              		.cfi_offset 14, -4
 2263 0dc2 83B0     		sub	sp, sp, #12
 2264              		.cfi_def_cfa_offset 16
 2265 0dc4 0190     		str	r0, [sp, #4]
 2266 0dc6 0091     		str	r1, [sp]
 2267              		.loc 1 847 0
 2268 0dc8 0198     		ldr	r0, [sp, #4]
 2269 0dca 0A21     		movs	r1, #10
 2270 0dcc 009A     		ldr	r2, [sp]
 2271 0dce FFF717F9 		bl	LSM6DSM_ACC_GYRO_ReadReg
 2272 0dd2 0346     		mov	r3, r0
 2273 0dd4 002B     		cmp	r3, #0
 2274 0dd6 01D1     		bne	.L160
 2275              		.loc 1 848 0
 2276 0dd8 0023     		movs	r3, #0
 2277 0dda 07E0     		b	.L161
 2278              	.L160:
 2279              		.loc 1 850 0
 2280 0ddc 009B     		ldr	r3, [sp]
 2281 0dde 1B78     		ldrb	r3, [r3]	@ zero_extendqisi2
 2282 0de0 03F00703 		and	r3, r3, #7
 2283 0de4 DAB2     		uxtb	r2, r3
 2284 0de6 009B     		ldr	r3, [sp]
 2285 0de8 1A70     		strb	r2, [r3]
 2286              		.loc 1 852 0
ARM GAS  /tmp/ccvV0fnY.s 			page 42


 2287 0dea 0123     		movs	r3, #1
 2288              	.L161:
 2289              		.loc 1 853 0
 2290 0dec 1846     		mov	r0, r3
 2291 0dee 03B0     		add	sp, sp, #12
 2292              		@ sp needed
 2293 0df0 5DF804FB 		ldr	pc, [sp], #4
 2294              		.cfi_endproc
 2295              	.LFE34:
 2296              		.size	LSM6DSM_ACC_GYRO_R_FIFO_MODE, .-LSM6DSM_ACC_GYRO_R_FIFO_MODE
 2297              		.align	2
 2298 0df4 AFF30080 		.p2align 4,,15
 2298      AFF30080 
 2298      AFF30080 
 2299              		.global	LSM6DSM_ACC_GYRO_W_ODR_FIFO
 2300              		.thumb
 2301              		.thumb_func
 2302              		.type	LSM6DSM_ACC_GYRO_W_ODR_FIFO, %function
 2303              	LSM6DSM_ACC_GYRO_W_ODR_FIFO:
 2304              	.LFB35:
 2305              		.loc 1 862 0
 2306              		.cfi_startproc
 2307              		@ args = 0, pretend = 0, frame = 16
 2308              		@ frame_needed = 0, uses_anonymous_args = 0
 2309 0e00 00B5     		push	{lr}
 2310              		.cfi_def_cfa_offset 4
 2311              		.cfi_offset 14, -4
 2312 0e02 85B0     		sub	sp, sp, #20
 2313              		.cfi_def_cfa_offset 24
 2314 0e04 0190     		str	r0, [sp, #4]
 2315 0e06 0B46     		mov	r3, r1
 2316 0e08 8DF80330 		strb	r3, [sp, #3]
 2317              		.loc 1 865 0
 2318 0e0c 0DF10F03 		add	r3, sp, #15
 2319 0e10 0198     		ldr	r0, [sp, #4]
 2320 0e12 0A21     		movs	r1, #10
 2321 0e14 1A46     		mov	r2, r3
 2322 0e16 FFF7F3F8 		bl	LSM6DSM_ACC_GYRO_ReadReg
 2323 0e1a 0346     		mov	r3, r0
 2324 0e1c 002B     		cmp	r3, #0
 2325 0e1e 01D1     		bne	.L163
 2326              		.loc 1 866 0
 2327 0e20 0023     		movs	r3, #0
 2328 0e22 1BE0     		b	.L166
 2329              	.L163:
 2330              		.loc 1 868 0
 2331 0e24 9DF80F30 		ldrb	r3, [sp, #15]	@ zero_extendqisi2
 2332 0e28 23F07803 		bic	r3, r3, #120
 2333 0e2c DBB2     		uxtb	r3, r3
 2334 0e2e 8DF80F30 		strb	r3, [sp, #15]
 2335              		.loc 1 869 0
 2336 0e32 9DF80F20 		ldrb	r2, [sp, #15]	@ zero_extendqisi2
 2337 0e36 9DF80330 		ldrb	r3, [sp, #3]
 2338 0e3a 1343     		orrs	r3, r3, r2
 2339 0e3c DBB2     		uxtb	r3, r3
 2340 0e3e 8DF80F30 		strb	r3, [sp, #15]
 2341              		.loc 1 871 0
ARM GAS  /tmp/ccvV0fnY.s 			page 43


 2342 0e42 9DF80F30 		ldrb	r3, [sp, #15]	@ zero_extendqisi2
 2343 0e46 0198     		ldr	r0, [sp, #4]
 2344 0e48 0A21     		movs	r1, #10
 2345 0e4a 1A46     		mov	r2, r3
 2346 0e4c FFF7F8F8 		bl	LSM6DSM_ACC_GYRO_WriteReg
 2347 0e50 0346     		mov	r3, r0
 2348 0e52 002B     		cmp	r3, #0
 2349 0e54 01D1     		bne	.L165
 2350              		.loc 1 872 0
 2351 0e56 0023     		movs	r3, #0
 2352 0e58 00E0     		b	.L166
 2353              	.L165:
 2354              		.loc 1 874 0
 2355 0e5a 0123     		movs	r3, #1
 2356              	.L166:
 2357              		.loc 1 875 0
 2358 0e5c 1846     		mov	r0, r3
 2359 0e5e 05B0     		add	sp, sp, #20
 2360              		@ sp needed
 2361 0e60 5DF804FB 		ldr	pc, [sp], #4
 2362              		.cfi_endproc
 2363              	.LFE35:
 2364              		.size	LSM6DSM_ACC_GYRO_W_ODR_FIFO, .-LSM6DSM_ACC_GYRO_W_ODR_FIFO
 2365              		.align	2
 2366 0e64 AFF30080 		.p2align 4,,15
 2366      AFF30080 
 2366      AFF30080 
 2367              		.global	LSM6DSM_ACC_GYRO_R_ODR_FIFO
 2368              		.thumb
 2369              		.thumb_func
 2370              		.type	LSM6DSM_ACC_GYRO_R_ODR_FIFO, %function
 2371              	LSM6DSM_ACC_GYRO_R_ODR_FIFO:
 2372              	.LFB36:
 2373              		.loc 1 886 0
 2374              		.cfi_startproc
 2375              		@ args = 0, pretend = 0, frame = 8
 2376              		@ frame_needed = 0, uses_anonymous_args = 0
 2377 0e70 00B5     		push	{lr}
 2378              		.cfi_def_cfa_offset 4
 2379              		.cfi_offset 14, -4
 2380 0e72 83B0     		sub	sp, sp, #12
 2381              		.cfi_def_cfa_offset 16
 2382 0e74 0190     		str	r0, [sp, #4]
 2383 0e76 0091     		str	r1, [sp]
 2384              		.loc 1 887 0
 2385 0e78 0198     		ldr	r0, [sp, #4]
 2386 0e7a 0A21     		movs	r1, #10
 2387 0e7c 009A     		ldr	r2, [sp]
 2388 0e7e FFF7BFF8 		bl	LSM6DSM_ACC_GYRO_ReadReg
 2389 0e82 0346     		mov	r3, r0
 2390 0e84 002B     		cmp	r3, #0
 2391 0e86 01D1     		bne	.L168
 2392              		.loc 1 888 0
 2393 0e88 0023     		movs	r3, #0
 2394 0e8a 07E0     		b	.L169
 2395              	.L168:
 2396              		.loc 1 890 0
ARM GAS  /tmp/ccvV0fnY.s 			page 44


 2397 0e8c 009B     		ldr	r3, [sp]
 2398 0e8e 1B78     		ldrb	r3, [r3]	@ zero_extendqisi2
 2399 0e90 03F07803 		and	r3, r3, #120
 2400 0e94 DAB2     		uxtb	r2, r3
 2401 0e96 009B     		ldr	r3, [sp]
 2402 0e98 1A70     		strb	r2, [r3]
 2403              		.loc 1 892 0
 2404 0e9a 0123     		movs	r3, #1
 2405              	.L169:
 2406              		.loc 1 893 0
 2407 0e9c 1846     		mov	r0, r3
 2408 0e9e 03B0     		add	sp, sp, #12
 2409              		@ sp needed
 2410 0ea0 5DF804FB 		ldr	pc, [sp], #4
 2411              		.cfi_endproc
 2412              	.LFE36:
 2413              		.size	LSM6DSM_ACC_GYRO_R_ODR_FIFO, .-LSM6DSM_ACC_GYRO_R_ODR_FIFO
 2414              		.align	2
 2415 0ea4 AFF30080 		.p2align 4,,15
 2415      AFF30080 
 2415      AFF30080 
 2416              		.global	LSM6DSM_ACC_GYRO_W_DRDY_PULSE
 2417              		.thumb
 2418              		.thumb_func
 2419              		.type	LSM6DSM_ACC_GYRO_W_DRDY_PULSE, %function
 2420              	LSM6DSM_ACC_GYRO_W_DRDY_PULSE:
 2421              	.LFB37:
 2422              		.loc 1 903 0
 2423              		.cfi_startproc
 2424              		@ args = 0, pretend = 0, frame = 16
 2425              		@ frame_needed = 0, uses_anonymous_args = 0
 2426 0eb0 00B5     		push	{lr}
 2427              		.cfi_def_cfa_offset 4
 2428              		.cfi_offset 14, -4
 2429 0eb2 85B0     		sub	sp, sp, #20
 2430              		.cfi_def_cfa_offset 24
 2431 0eb4 0190     		str	r0, [sp, #4]
 2432 0eb6 0B46     		mov	r3, r1
 2433 0eb8 8DF80330 		strb	r3, [sp, #3]
 2434              		.loc 1 906 0
 2435 0ebc 0DF10F03 		add	r3, sp, #15
 2436 0ec0 0198     		ldr	r0, [sp, #4]
 2437 0ec2 0B21     		movs	r1, #11
 2438 0ec4 1A46     		mov	r2, r3
 2439 0ec6 FFF79BF8 		bl	LSM6DSM_ACC_GYRO_ReadReg
 2440 0eca 0346     		mov	r3, r0
 2441 0ecc 002B     		cmp	r3, #0
 2442 0ece 01D1     		bne	.L171
 2443              		.loc 1 907 0
 2444 0ed0 0023     		movs	r3, #0
 2445 0ed2 1BE0     		b	.L174
 2446              	.L171:
 2447              		.loc 1 909 0
 2448 0ed4 9DF80F30 		ldrb	r3, [sp, #15]	@ zero_extendqisi2
 2449 0ed8 03F07F03 		and	r3, r3, #127
 2450 0edc DBB2     		uxtb	r3, r3
 2451 0ede 8DF80F30 		strb	r3, [sp, #15]
ARM GAS  /tmp/ccvV0fnY.s 			page 45


 2452              		.loc 1 910 0
 2453 0ee2 9DF80F20 		ldrb	r2, [sp, #15]	@ zero_extendqisi2
 2454 0ee6 9DF80330 		ldrb	r3, [sp, #3]
 2455 0eea 1343     		orrs	r3, r3, r2
 2456 0eec DBB2     		uxtb	r3, r3
 2457 0eee 8DF80F30 		strb	r3, [sp, #15]
 2458              		.loc 1 912 0
 2459 0ef2 9DF80F30 		ldrb	r3, [sp, #15]	@ zero_extendqisi2
 2460 0ef6 0198     		ldr	r0, [sp, #4]
 2461 0ef8 0B21     		movs	r1, #11
 2462 0efa 1A46     		mov	r2, r3
 2463 0efc FFF7A0F8 		bl	LSM6DSM_ACC_GYRO_WriteReg
 2464 0f00 0346     		mov	r3, r0
 2465 0f02 002B     		cmp	r3, #0
 2466 0f04 01D1     		bne	.L173
 2467              		.loc 1 913 0
 2468 0f06 0023     		movs	r3, #0
 2469 0f08 00E0     		b	.L174
 2470              	.L173:
 2471              		.loc 1 915 0
 2472 0f0a 0123     		movs	r3, #1
 2473              	.L174:
 2474              		.loc 1 916 0
 2475 0f0c 1846     		mov	r0, r3
 2476 0f0e 05B0     		add	sp, sp, #20
 2477              		@ sp needed
 2478 0f10 5DF804FB 		ldr	pc, [sp], #4
 2479              		.cfi_endproc
 2480              	.LFE37:
 2481              		.size	LSM6DSM_ACC_GYRO_W_DRDY_PULSE, .-LSM6DSM_ACC_GYRO_W_DRDY_PULSE
 2482              		.align	2
 2483 0f14 AFF30080 		.p2align 4,,15
 2483      AFF30080 
 2483      AFF30080 
 2484              		.global	LSM6DSM_ACC_GYRO_R_DRDY_PULSE
 2485              		.thumb
 2486              		.thumb_func
 2487              		.type	LSM6DSM_ACC_GYRO_R_DRDY_PULSE, %function
 2488              	LSM6DSM_ACC_GYRO_R_DRDY_PULSE:
 2489              	.LFB38:
 2490              		.loc 1 927 0
 2491              		.cfi_startproc
 2492              		@ args = 0, pretend = 0, frame = 8
 2493              		@ frame_needed = 0, uses_anonymous_args = 0
 2494 0f20 00B5     		push	{lr}
 2495              		.cfi_def_cfa_offset 4
 2496              		.cfi_offset 14, -4
 2497 0f22 83B0     		sub	sp, sp, #12
 2498              		.cfi_def_cfa_offset 16
 2499 0f24 0190     		str	r0, [sp, #4]
 2500 0f26 0091     		str	r1, [sp]
 2501              		.loc 1 928 0
 2502 0f28 0198     		ldr	r0, [sp, #4]
 2503 0f2a 0B21     		movs	r1, #11
 2504 0f2c 009A     		ldr	r2, [sp]
 2505 0f2e FFF767F8 		bl	LSM6DSM_ACC_GYRO_ReadReg
 2506 0f32 0346     		mov	r3, r0
ARM GAS  /tmp/ccvV0fnY.s 			page 46


 2507 0f34 002B     		cmp	r3, #0
 2508 0f36 01D1     		bne	.L176
 2509              		.loc 1 929 0
 2510 0f38 0023     		movs	r3, #0
 2511 0f3a 07E0     		b	.L177
 2512              	.L176:
 2513              		.loc 1 931 0
 2514 0f3c 009B     		ldr	r3, [sp]
 2515 0f3e 1B78     		ldrb	r3, [r3]	@ zero_extendqisi2
 2516 0f40 23F07F03 		bic	r3, r3, #127
 2517 0f44 DAB2     		uxtb	r2, r3
 2518 0f46 009B     		ldr	r3, [sp]
 2519 0f48 1A70     		strb	r2, [r3]
 2520              		.loc 1 933 0
 2521 0f4a 0123     		movs	r3, #1
 2522              	.L177:
 2523              		.loc 1 934 0
 2524 0f4c 1846     		mov	r0, r3
 2525 0f4e 03B0     		add	sp, sp, #12
 2526              		@ sp needed
 2527 0f50 5DF804FB 		ldr	pc, [sp], #4
 2528              		.cfi_endproc
 2529              	.LFE38:
 2530              		.size	LSM6DSM_ACC_GYRO_R_DRDY_PULSE, .-LSM6DSM_ACC_GYRO_R_DRDY_PULSE
 2531              		.align	2
 2532 0f54 AFF30080 		.p2align 4,,15
 2532      AFF30080 
 2532      AFF30080 
 2533              		.global	LSM6DSM_ACC_GYRO_W_DRDY_XL_on_INT1
 2534              		.thumb
 2535              		.thumb_func
 2536              		.type	LSM6DSM_ACC_GYRO_W_DRDY_XL_on_INT1, %function
 2537              	LSM6DSM_ACC_GYRO_W_DRDY_XL_on_INT1:
 2538              	.LFB39:
 2539              		.loc 1 946 0
 2540              		.cfi_startproc
 2541              		@ args = 0, pretend = 0, frame = 16
 2542              		@ frame_needed = 0, uses_anonymous_args = 0
 2543 0f60 00B5     		push	{lr}
 2544              		.cfi_def_cfa_offset 4
 2545              		.cfi_offset 14, -4
 2546 0f62 85B0     		sub	sp, sp, #20
 2547              		.cfi_def_cfa_offset 24
 2548 0f64 0190     		str	r0, [sp, #4]
 2549 0f66 0B46     		mov	r3, r1
 2550 0f68 8DF80330 		strb	r3, [sp, #3]
 2551              		.loc 1 949 0
 2552 0f6c 0DF10F03 		add	r3, sp, #15
 2553 0f70 0198     		ldr	r0, [sp, #4]
 2554 0f72 0D21     		movs	r1, #13
 2555 0f74 1A46     		mov	r2, r3
 2556 0f76 FFF743F8 		bl	LSM6DSM_ACC_GYRO_ReadReg
 2557 0f7a 0346     		mov	r3, r0
 2558 0f7c 002B     		cmp	r3, #0
 2559 0f7e 01D1     		bne	.L179
 2560              		.loc 1 950 0
 2561 0f80 0023     		movs	r3, #0
ARM GAS  /tmp/ccvV0fnY.s 			page 47


 2562 0f82 1BE0     		b	.L182
 2563              	.L179:
 2564              		.loc 1 952 0
 2565 0f84 9DF80F30 		ldrb	r3, [sp, #15]	@ zero_extendqisi2
 2566 0f88 23F00103 		bic	r3, r3, #1
 2567 0f8c DBB2     		uxtb	r3, r3
 2568 0f8e 8DF80F30 		strb	r3, [sp, #15]
 2569              		.loc 1 953 0
 2570 0f92 9DF80F20 		ldrb	r2, [sp, #15]	@ zero_extendqisi2
 2571 0f96 9DF80330 		ldrb	r3, [sp, #3]
 2572 0f9a 1343     		orrs	r3, r3, r2
 2573 0f9c DBB2     		uxtb	r3, r3
 2574 0f9e 8DF80F30 		strb	r3, [sp, #15]
 2575              		.loc 1 955 0
 2576 0fa2 9DF80F30 		ldrb	r3, [sp, #15]	@ zero_extendqisi2
 2577 0fa6 0198     		ldr	r0, [sp, #4]
 2578 0fa8 0D21     		movs	r1, #13
 2579 0faa 1A46     		mov	r2, r3
 2580 0fac FFF748F8 		bl	LSM6DSM_ACC_GYRO_WriteReg
 2581 0fb0 0346     		mov	r3, r0
 2582 0fb2 002B     		cmp	r3, #0
 2583 0fb4 01D1     		bne	.L181
 2584              		.loc 1 956 0
 2585 0fb6 0023     		movs	r3, #0
 2586 0fb8 00E0     		b	.L182
 2587              	.L181:
 2588              		.loc 1 958 0
 2589 0fba 0123     		movs	r3, #1
 2590              	.L182:
 2591              		.loc 1 959 0
 2592 0fbc 1846     		mov	r0, r3
 2593 0fbe 05B0     		add	sp, sp, #20
 2594              		@ sp needed
 2595 0fc0 5DF804FB 		ldr	pc, [sp], #4
 2596              		.cfi_endproc
 2597              	.LFE39:
 2598              		.size	LSM6DSM_ACC_GYRO_W_DRDY_XL_on_INT1, .-LSM6DSM_ACC_GYRO_W_DRDY_XL_on_INT1
 2599              		.align	2
 2600 0fc4 AFF30080 		.p2align 4,,15
 2600      AFF30080 
 2600      AFF30080 
 2601              		.global	LSM6DSM_ACC_GYRO_R_DRDY_XL_on_INT1
 2602              		.thumb
 2603              		.thumb_func
 2604              		.type	LSM6DSM_ACC_GYRO_R_DRDY_XL_on_INT1, %function
 2605              	LSM6DSM_ACC_GYRO_R_DRDY_XL_on_INT1:
 2606              	.LFB40:
 2607              		.loc 1 970 0
 2608              		.cfi_startproc
 2609              		@ args = 0, pretend = 0, frame = 8
 2610              		@ frame_needed = 0, uses_anonymous_args = 0
 2611 0fd0 00B5     		push	{lr}
 2612              		.cfi_def_cfa_offset 4
 2613              		.cfi_offset 14, -4
 2614 0fd2 83B0     		sub	sp, sp, #12
 2615              		.cfi_def_cfa_offset 16
 2616 0fd4 0190     		str	r0, [sp, #4]
ARM GAS  /tmp/ccvV0fnY.s 			page 48


 2617 0fd6 0091     		str	r1, [sp]
 2618              		.loc 1 971 0
 2619 0fd8 0198     		ldr	r0, [sp, #4]
 2620 0fda 0D21     		movs	r1, #13
 2621 0fdc 009A     		ldr	r2, [sp]
 2622 0fde FFF70FF8 		bl	LSM6DSM_ACC_GYRO_ReadReg
 2623 0fe2 0346     		mov	r3, r0
 2624 0fe4 002B     		cmp	r3, #0
 2625 0fe6 01D1     		bne	.L184
 2626              		.loc 1 972 0
 2627 0fe8 0023     		movs	r3, #0
 2628 0fea 07E0     		b	.L185
 2629              	.L184:
 2630              		.loc 1 974 0
 2631 0fec 009B     		ldr	r3, [sp]
 2632 0fee 1B78     		ldrb	r3, [r3]	@ zero_extendqisi2
 2633 0ff0 03F00103 		and	r3, r3, #1
 2634 0ff4 DAB2     		uxtb	r2, r3
 2635 0ff6 009B     		ldr	r3, [sp]
 2636 0ff8 1A70     		strb	r2, [r3]
 2637              		.loc 1 976 0
 2638 0ffa 0123     		movs	r3, #1
 2639              	.L185:
 2640              		.loc 1 977 0
 2641 0ffc 1846     		mov	r0, r3
 2642 0ffe 03B0     		add	sp, sp, #12
 2643              		@ sp needed
 2644 1000 5DF804FB 		ldr	pc, [sp], #4
 2645              		.cfi_endproc
 2646              	.LFE40:
 2647              		.size	LSM6DSM_ACC_GYRO_R_DRDY_XL_on_INT1, .-LSM6DSM_ACC_GYRO_R_DRDY_XL_on_INT1
 2648              		.align	2
 2649 1004 AFF30080 		.p2align 4,,15
 2649      AFF30080 
 2649      AFF30080 
 2650              		.global	LSM6DSM_ACC_GYRO_W_DRDY_G_on_INT1
 2651              		.thumb
 2652              		.thumb_func
 2653              		.type	LSM6DSM_ACC_GYRO_W_DRDY_G_on_INT1, %function
 2654              	LSM6DSM_ACC_GYRO_W_DRDY_G_on_INT1:
 2655              	.LFB41:
 2656              		.loc 1 986 0
 2657              		.cfi_startproc
 2658              		@ args = 0, pretend = 0, frame = 16
 2659              		@ frame_needed = 0, uses_anonymous_args = 0
 2660 1010 00B5     		push	{lr}
 2661              		.cfi_def_cfa_offset 4
 2662              		.cfi_offset 14, -4
 2663 1012 85B0     		sub	sp, sp, #20
 2664              		.cfi_def_cfa_offset 24
 2665 1014 0190     		str	r0, [sp, #4]
 2666 1016 0B46     		mov	r3, r1
 2667 1018 8DF80330 		strb	r3, [sp, #3]
 2668              		.loc 1 989 0
 2669 101c 0DF10F03 		add	r3, sp, #15
 2670 1020 0198     		ldr	r0, [sp, #4]
 2671 1022 0D21     		movs	r1, #13
ARM GAS  /tmp/ccvV0fnY.s 			page 49


 2672 1024 1A46     		mov	r2, r3
 2673 1026 FEF7EBFF 		bl	LSM6DSM_ACC_GYRO_ReadReg
 2674 102a 0346     		mov	r3, r0
 2675 102c 002B     		cmp	r3, #0
 2676 102e 01D1     		bne	.L187
 2677              		.loc 1 990 0
 2678 1030 0023     		movs	r3, #0
 2679 1032 1BE0     		b	.L190
 2680              	.L187:
 2681              		.loc 1 992 0
 2682 1034 9DF80F30 		ldrb	r3, [sp, #15]	@ zero_extendqisi2
 2683 1038 23F00203 		bic	r3, r3, #2
 2684 103c DBB2     		uxtb	r3, r3
 2685 103e 8DF80F30 		strb	r3, [sp, #15]
 2686              		.loc 1 993 0
 2687 1042 9DF80F20 		ldrb	r2, [sp, #15]	@ zero_extendqisi2
 2688 1046 9DF80330 		ldrb	r3, [sp, #3]
 2689 104a 1343     		orrs	r3, r3, r2
 2690 104c DBB2     		uxtb	r3, r3
 2691 104e 8DF80F30 		strb	r3, [sp, #15]
 2692              		.loc 1 995 0
 2693 1052 9DF80F30 		ldrb	r3, [sp, #15]	@ zero_extendqisi2
 2694 1056 0198     		ldr	r0, [sp, #4]
 2695 1058 0D21     		movs	r1, #13
 2696 105a 1A46     		mov	r2, r3
 2697 105c FEF7F0FF 		bl	LSM6DSM_ACC_GYRO_WriteReg
 2698 1060 0346     		mov	r3, r0
 2699 1062 002B     		cmp	r3, #0
 2700 1064 01D1     		bne	.L189
 2701              		.loc 1 996 0
 2702 1066 0023     		movs	r3, #0
 2703 1068 00E0     		b	.L190
 2704              	.L189:
 2705              		.loc 1 998 0
 2706 106a 0123     		movs	r3, #1
 2707              	.L190:
 2708              		.loc 1 999 0
 2709 106c 1846     		mov	r0, r3
 2710 106e 05B0     		add	sp, sp, #20
 2711              		@ sp needed
 2712 1070 5DF804FB 		ldr	pc, [sp], #4
 2713              		.cfi_endproc
 2714              	.LFE41:
 2715              		.size	LSM6DSM_ACC_GYRO_W_DRDY_G_on_INT1, .-LSM6DSM_ACC_GYRO_W_DRDY_G_on_INT1
 2716              		.align	2
 2717 1074 AFF30080 		.p2align 4,,15
 2717      AFF30080 
 2717      AFF30080 
 2718              		.global	LSM6DSM_ACC_GYRO_R_DRDY_G_on_INT1
 2719              		.thumb
 2720              		.thumb_func
 2721              		.type	LSM6DSM_ACC_GYRO_R_DRDY_G_on_INT1, %function
 2722              	LSM6DSM_ACC_GYRO_R_DRDY_G_on_INT1:
 2723              	.LFB42:
 2724              		.loc 1 1010 0
 2725              		.cfi_startproc
 2726              		@ args = 0, pretend = 0, frame = 8
ARM GAS  /tmp/ccvV0fnY.s 			page 50


 2727              		@ frame_needed = 0, uses_anonymous_args = 0
 2728 1080 00B5     		push	{lr}
 2729              		.cfi_def_cfa_offset 4
 2730              		.cfi_offset 14, -4
 2731 1082 83B0     		sub	sp, sp, #12
 2732              		.cfi_def_cfa_offset 16
 2733 1084 0190     		str	r0, [sp, #4]
 2734 1086 0091     		str	r1, [sp]
 2735              		.loc 1 1011 0
 2736 1088 0198     		ldr	r0, [sp, #4]
 2737 108a 0D21     		movs	r1, #13
 2738 108c 009A     		ldr	r2, [sp]
 2739 108e FEF7B7FF 		bl	LSM6DSM_ACC_GYRO_ReadReg
 2740 1092 0346     		mov	r3, r0
 2741 1094 002B     		cmp	r3, #0
 2742 1096 01D1     		bne	.L192
 2743              		.loc 1 1012 0
 2744 1098 0023     		movs	r3, #0
 2745 109a 07E0     		b	.L193
 2746              	.L192:
 2747              		.loc 1 1014 0
 2748 109c 009B     		ldr	r3, [sp]
 2749 109e 1B78     		ldrb	r3, [r3]	@ zero_extendqisi2
 2750 10a0 03F00203 		and	r3, r3, #2
 2751 10a4 DAB2     		uxtb	r2, r3
 2752 10a6 009B     		ldr	r3, [sp]
 2753 10a8 1A70     		strb	r2, [r3]
 2754              		.loc 1 1016 0
 2755 10aa 0123     		movs	r3, #1
 2756              	.L193:
 2757              		.loc 1 1017 0
 2758 10ac 1846     		mov	r0, r3
 2759 10ae 03B0     		add	sp, sp, #12
 2760              		@ sp needed
 2761 10b0 5DF804FB 		ldr	pc, [sp], #4
 2762              		.cfi_endproc
 2763              	.LFE42:
 2764              		.size	LSM6DSM_ACC_GYRO_R_DRDY_G_on_INT1, .-LSM6DSM_ACC_GYRO_R_DRDY_G_on_INT1
 2765              		.align	2
 2766 10b4 AFF30080 		.p2align 4,,15
 2766      AFF30080 
 2766      AFF30080 
 2767              		.global	LSM6DSM_ACC_GYRO_W_BOOT_on_INT1
 2768              		.thumb
 2769              		.thumb_func
 2770              		.type	LSM6DSM_ACC_GYRO_W_BOOT_on_INT1, %function
 2771              	LSM6DSM_ACC_GYRO_W_BOOT_on_INT1:
 2772              	.LFB43:
 2773              		.loc 1 1026 0
 2774              		.cfi_startproc
 2775              		@ args = 0, pretend = 0, frame = 16
 2776              		@ frame_needed = 0, uses_anonymous_args = 0
 2777 10c0 00B5     		push	{lr}
 2778              		.cfi_def_cfa_offset 4
 2779              		.cfi_offset 14, -4
 2780 10c2 85B0     		sub	sp, sp, #20
 2781              		.cfi_def_cfa_offset 24
ARM GAS  /tmp/ccvV0fnY.s 			page 51


 2782 10c4 0190     		str	r0, [sp, #4]
 2783 10c6 0B46     		mov	r3, r1
 2784 10c8 8DF80330 		strb	r3, [sp, #3]
 2785              		.loc 1 1029 0
 2786 10cc 0DF10F03 		add	r3, sp, #15
 2787 10d0 0198     		ldr	r0, [sp, #4]
 2788 10d2 0D21     		movs	r1, #13
 2789 10d4 1A46     		mov	r2, r3
 2790 10d6 FEF793FF 		bl	LSM6DSM_ACC_GYRO_ReadReg
 2791 10da 0346     		mov	r3, r0
 2792 10dc 002B     		cmp	r3, #0
 2793 10de 01D1     		bne	.L195
 2794              		.loc 1 1030 0
 2795 10e0 0023     		movs	r3, #0
 2796 10e2 1BE0     		b	.L198
 2797              	.L195:
 2798              		.loc 1 1032 0
 2799 10e4 9DF80F30 		ldrb	r3, [sp, #15]	@ zero_extendqisi2
 2800 10e8 23F00403 		bic	r3, r3, #4
 2801 10ec DBB2     		uxtb	r3, r3
 2802 10ee 8DF80F30 		strb	r3, [sp, #15]
 2803              		.loc 1 1033 0
 2804 10f2 9DF80F20 		ldrb	r2, [sp, #15]	@ zero_extendqisi2
 2805 10f6 9DF80330 		ldrb	r3, [sp, #3]
 2806 10fa 1343     		orrs	r3, r3, r2
 2807 10fc DBB2     		uxtb	r3, r3
 2808 10fe 8DF80F30 		strb	r3, [sp, #15]
 2809              		.loc 1 1035 0
 2810 1102 9DF80F30 		ldrb	r3, [sp, #15]	@ zero_extendqisi2
 2811 1106 0198     		ldr	r0, [sp, #4]
 2812 1108 0D21     		movs	r1, #13
 2813 110a 1A46     		mov	r2, r3
 2814 110c FEF798FF 		bl	LSM6DSM_ACC_GYRO_WriteReg
 2815 1110 0346     		mov	r3, r0
 2816 1112 002B     		cmp	r3, #0
 2817 1114 01D1     		bne	.L197
 2818              		.loc 1 1036 0
 2819 1116 0023     		movs	r3, #0
 2820 1118 00E0     		b	.L198
 2821              	.L197:
 2822              		.loc 1 1038 0
 2823 111a 0123     		movs	r3, #1
 2824              	.L198:
 2825              		.loc 1 1039 0
 2826 111c 1846     		mov	r0, r3
 2827 111e 05B0     		add	sp, sp, #20
 2828              		@ sp needed
 2829 1120 5DF804FB 		ldr	pc, [sp], #4
 2830              		.cfi_endproc
 2831              	.LFE43:
 2832              		.size	LSM6DSM_ACC_GYRO_W_BOOT_on_INT1, .-LSM6DSM_ACC_GYRO_W_BOOT_on_INT1
 2833              		.align	2
 2834 1124 AFF30080 		.p2align 4,,15
 2834      AFF30080 
 2834      AFF30080 
 2835              		.global	LSM6DSM_ACC_GYRO_R_BOOT_on_INT1
 2836              		.thumb
ARM GAS  /tmp/ccvV0fnY.s 			page 52


 2837              		.thumb_func
 2838              		.type	LSM6DSM_ACC_GYRO_R_BOOT_on_INT1, %function
 2839              	LSM6DSM_ACC_GYRO_R_BOOT_on_INT1:
 2840              	.LFB44:
 2841              		.loc 1 1050 0
 2842              		.cfi_startproc
 2843              		@ args = 0, pretend = 0, frame = 8
 2844              		@ frame_needed = 0, uses_anonymous_args = 0
 2845 1130 00B5     		push	{lr}
 2846              		.cfi_def_cfa_offset 4
 2847              		.cfi_offset 14, -4
 2848 1132 83B0     		sub	sp, sp, #12
 2849              		.cfi_def_cfa_offset 16
 2850 1134 0190     		str	r0, [sp, #4]
 2851 1136 0091     		str	r1, [sp]
 2852              		.loc 1 1051 0
 2853 1138 0198     		ldr	r0, [sp, #4]
 2854 113a 0D21     		movs	r1, #13
 2855 113c 009A     		ldr	r2, [sp]
 2856 113e FEF75FFF 		bl	LSM6DSM_ACC_GYRO_ReadReg
 2857 1142 0346     		mov	r3, r0
 2858 1144 002B     		cmp	r3, #0
 2859 1146 01D1     		bne	.L200
 2860              		.loc 1 1052 0
 2861 1148 0023     		movs	r3, #0
 2862 114a 07E0     		b	.L201
 2863              	.L200:
 2864              		.loc 1 1054 0
 2865 114c 009B     		ldr	r3, [sp]
 2866 114e 1B78     		ldrb	r3, [r3]	@ zero_extendqisi2
 2867 1150 03F00403 		and	r3, r3, #4
 2868 1154 DAB2     		uxtb	r2, r3
 2869 1156 009B     		ldr	r3, [sp]
 2870 1158 1A70     		strb	r2, [r3]
 2871              		.loc 1 1056 0
 2872 115a 0123     		movs	r3, #1
 2873              	.L201:
 2874              		.loc 1 1057 0
 2875 115c 1846     		mov	r0, r3
 2876 115e 03B0     		add	sp, sp, #12
 2877              		@ sp needed
 2878 1160 5DF804FB 		ldr	pc, [sp], #4
 2879              		.cfi_endproc
 2880              	.LFE44:
 2881              		.size	LSM6DSM_ACC_GYRO_R_BOOT_on_INT1, .-LSM6DSM_ACC_GYRO_R_BOOT_on_INT1
 2882              		.align	2
 2883 1164 AFF30080 		.p2align 4,,15
 2883      AFF30080 
 2883      AFF30080 
 2884              		.global	LSM6DSM_ACC_GYRO_W_FIFO_TSHLD_on_INT1
 2885              		.thumb
 2886              		.thumb_func
 2887              		.type	LSM6DSM_ACC_GYRO_W_FIFO_TSHLD_on_INT1, %function
 2888              	LSM6DSM_ACC_GYRO_W_FIFO_TSHLD_on_INT1:
 2889              	.LFB45:
 2890              		.loc 1 1066 0
 2891              		.cfi_startproc
ARM GAS  /tmp/ccvV0fnY.s 			page 53


 2892              		@ args = 0, pretend = 0, frame = 16
 2893              		@ frame_needed = 0, uses_anonymous_args = 0
 2894 1170 00B5     		push	{lr}
 2895              		.cfi_def_cfa_offset 4
 2896              		.cfi_offset 14, -4
 2897 1172 85B0     		sub	sp, sp, #20
 2898              		.cfi_def_cfa_offset 24
 2899 1174 0190     		str	r0, [sp, #4]
 2900 1176 0B46     		mov	r3, r1
 2901 1178 8DF80330 		strb	r3, [sp, #3]
 2902              		.loc 1 1069 0
 2903 117c 0DF10F03 		add	r3, sp, #15
 2904 1180 0198     		ldr	r0, [sp, #4]
 2905 1182 0D21     		movs	r1, #13
 2906 1184 1A46     		mov	r2, r3
 2907 1186 FEF73BFF 		bl	LSM6DSM_ACC_GYRO_ReadReg
 2908 118a 0346     		mov	r3, r0
 2909 118c 002B     		cmp	r3, #0
 2910 118e 01D1     		bne	.L203
 2911              		.loc 1 1070 0
 2912 1190 0023     		movs	r3, #0
 2913 1192 1BE0     		b	.L206
 2914              	.L203:
 2915              		.loc 1 1072 0
 2916 1194 9DF80F30 		ldrb	r3, [sp, #15]	@ zero_extendqisi2
 2917 1198 23F00803 		bic	r3, r3, #8
 2918 119c DBB2     		uxtb	r3, r3
 2919 119e 8DF80F30 		strb	r3, [sp, #15]
 2920              		.loc 1 1073 0
 2921 11a2 9DF80F20 		ldrb	r2, [sp, #15]	@ zero_extendqisi2
 2922 11a6 9DF80330 		ldrb	r3, [sp, #3]
 2923 11aa 1343     		orrs	r3, r3, r2
 2924 11ac DBB2     		uxtb	r3, r3
 2925 11ae 8DF80F30 		strb	r3, [sp, #15]
 2926              		.loc 1 1075 0
 2927 11b2 9DF80F30 		ldrb	r3, [sp, #15]	@ zero_extendqisi2
 2928 11b6 0198     		ldr	r0, [sp, #4]
 2929 11b8 0D21     		movs	r1, #13
 2930 11ba 1A46     		mov	r2, r3
 2931 11bc FEF740FF 		bl	LSM6DSM_ACC_GYRO_WriteReg
 2932 11c0 0346     		mov	r3, r0
 2933 11c2 002B     		cmp	r3, #0
 2934 11c4 01D1     		bne	.L205
 2935              		.loc 1 1076 0
 2936 11c6 0023     		movs	r3, #0
 2937 11c8 00E0     		b	.L206
 2938              	.L205:
 2939              		.loc 1 1078 0
 2940 11ca 0123     		movs	r3, #1
 2941              	.L206:
 2942              		.loc 1 1079 0
 2943 11cc 1846     		mov	r0, r3
 2944 11ce 05B0     		add	sp, sp, #20
 2945              		@ sp needed
 2946 11d0 5DF804FB 		ldr	pc, [sp], #4
 2947              		.cfi_endproc
 2948              	.LFE45:
ARM GAS  /tmp/ccvV0fnY.s 			page 54


 2949              		.size	LSM6DSM_ACC_GYRO_W_FIFO_TSHLD_on_INT1, .-LSM6DSM_ACC_GYRO_W_FIFO_TSHLD_on_INT1
 2950              		.align	2
 2951 11d4 AFF30080 		.p2align 4,,15
 2951      AFF30080 
 2951      AFF30080 
 2952              		.global	LSM6DSM_ACC_GYRO_R_FIFO_TSHLD_on_INT1
 2953              		.thumb
 2954              		.thumb_func
 2955              		.type	LSM6DSM_ACC_GYRO_R_FIFO_TSHLD_on_INT1, %function
 2956              	LSM6DSM_ACC_GYRO_R_FIFO_TSHLD_on_INT1:
 2957              	.LFB46:
 2958              		.loc 1 1090 0
 2959              		.cfi_startproc
 2960              		@ args = 0, pretend = 0, frame = 8
 2961              		@ frame_needed = 0, uses_anonymous_args = 0
 2962 11e0 00B5     		push	{lr}
 2963              		.cfi_def_cfa_offset 4
 2964              		.cfi_offset 14, -4
 2965 11e2 83B0     		sub	sp, sp, #12
 2966              		.cfi_def_cfa_offset 16
 2967 11e4 0190     		str	r0, [sp, #4]
 2968 11e6 0091     		str	r1, [sp]
 2969              		.loc 1 1091 0
 2970 11e8 0198     		ldr	r0, [sp, #4]
 2971 11ea 0D21     		movs	r1, #13
 2972 11ec 009A     		ldr	r2, [sp]
 2973 11ee FEF707FF 		bl	LSM6DSM_ACC_GYRO_ReadReg
 2974 11f2 0346     		mov	r3, r0
 2975 11f4 002B     		cmp	r3, #0
 2976 11f6 01D1     		bne	.L208
 2977              		.loc 1 1092 0
 2978 11f8 0023     		movs	r3, #0
 2979 11fa 07E0     		b	.L209
 2980              	.L208:
 2981              		.loc 1 1094 0
 2982 11fc 009B     		ldr	r3, [sp]
 2983 11fe 1B78     		ldrb	r3, [r3]	@ zero_extendqisi2
 2984 1200 03F00803 		and	r3, r3, #8
 2985 1204 DAB2     		uxtb	r2, r3
 2986 1206 009B     		ldr	r3, [sp]
 2987 1208 1A70     		strb	r2, [r3]
 2988              		.loc 1 1096 0
 2989 120a 0123     		movs	r3, #1
 2990              	.L209:
 2991              		.loc 1 1097 0
 2992 120c 1846     		mov	r0, r3
 2993 120e 03B0     		add	sp, sp, #12
 2994              		@ sp needed
 2995 1210 5DF804FB 		ldr	pc, [sp], #4
 2996              		.cfi_endproc
 2997              	.LFE46:
 2998              		.size	LSM6DSM_ACC_GYRO_R_FIFO_TSHLD_on_INT1, .-LSM6DSM_ACC_GYRO_R_FIFO_TSHLD_on_INT1
 2999              		.align	2
 3000 1214 AFF30080 		.p2align 4,,15
 3000      AFF30080 
 3000      AFF30080 
 3001              		.global	LSM6DSM_ACC_GYRO_W_OVERRUN_on_INT1
ARM GAS  /tmp/ccvV0fnY.s 			page 55


 3002              		.thumb
 3003              		.thumb_func
 3004              		.type	LSM6DSM_ACC_GYRO_W_OVERRUN_on_INT1, %function
 3005              	LSM6DSM_ACC_GYRO_W_OVERRUN_on_INT1:
 3006              	.LFB47:
 3007              		.loc 1 1106 0
 3008              		.cfi_startproc
 3009              		@ args = 0, pretend = 0, frame = 16
 3010              		@ frame_needed = 0, uses_anonymous_args = 0
 3011 1220 00B5     		push	{lr}
 3012              		.cfi_def_cfa_offset 4
 3013              		.cfi_offset 14, -4
 3014 1222 85B0     		sub	sp, sp, #20
 3015              		.cfi_def_cfa_offset 24
 3016 1224 0190     		str	r0, [sp, #4]
 3017 1226 0B46     		mov	r3, r1
 3018 1228 8DF80330 		strb	r3, [sp, #3]
 3019              		.loc 1 1109 0
 3020 122c 0DF10F03 		add	r3, sp, #15
 3021 1230 0198     		ldr	r0, [sp, #4]
 3022 1232 0D21     		movs	r1, #13
 3023 1234 1A46     		mov	r2, r3
 3024 1236 FEF7E3FE 		bl	LSM6DSM_ACC_GYRO_ReadReg
 3025 123a 0346     		mov	r3, r0
 3026 123c 002B     		cmp	r3, #0
 3027 123e 01D1     		bne	.L211
 3028              		.loc 1 1110 0
 3029 1240 0023     		movs	r3, #0
 3030 1242 1BE0     		b	.L214
 3031              	.L211:
 3032              		.loc 1 1112 0
 3033 1244 9DF80F30 		ldrb	r3, [sp, #15]	@ zero_extendqisi2
 3034 1248 23F01003 		bic	r3, r3, #16
 3035 124c DBB2     		uxtb	r3, r3
 3036 124e 8DF80F30 		strb	r3, [sp, #15]
 3037              		.loc 1 1113 0
 3038 1252 9DF80F20 		ldrb	r2, [sp, #15]	@ zero_extendqisi2
 3039 1256 9DF80330 		ldrb	r3, [sp, #3]
 3040 125a 1343     		orrs	r3, r3, r2
 3041 125c DBB2     		uxtb	r3, r3
 3042 125e 8DF80F30 		strb	r3, [sp, #15]
 3043              		.loc 1 1115 0
 3044 1262 9DF80F30 		ldrb	r3, [sp, #15]	@ zero_extendqisi2
 3045 1266 0198     		ldr	r0, [sp, #4]
 3046 1268 0D21     		movs	r1, #13
 3047 126a 1A46     		mov	r2, r3
 3048 126c FEF7E8FE 		bl	LSM6DSM_ACC_GYRO_WriteReg
 3049 1270 0346     		mov	r3, r0
 3050 1272 002B     		cmp	r3, #0
 3051 1274 01D1     		bne	.L213
 3052              		.loc 1 1116 0
 3053 1276 0023     		movs	r3, #0
 3054 1278 00E0     		b	.L214
 3055              	.L213:
 3056              		.loc 1 1118 0
 3057 127a 0123     		movs	r3, #1
 3058              	.L214:
ARM GAS  /tmp/ccvV0fnY.s 			page 56


 3059              		.loc 1 1119 0
 3060 127c 1846     		mov	r0, r3
 3061 127e 05B0     		add	sp, sp, #20
 3062              		@ sp needed
 3063 1280 5DF804FB 		ldr	pc, [sp], #4
 3064              		.cfi_endproc
 3065              	.LFE47:
 3066              		.size	LSM6DSM_ACC_GYRO_W_OVERRUN_on_INT1, .-LSM6DSM_ACC_GYRO_W_OVERRUN_on_INT1
 3067              		.align	2
 3068 1284 AFF30080 		.p2align 4,,15
 3068      AFF30080 
 3068      AFF30080 
 3069              		.global	LSM6DSM_ACC_GYRO_R_OVERRUN_on_INT1
 3070              		.thumb
 3071              		.thumb_func
 3072              		.type	LSM6DSM_ACC_GYRO_R_OVERRUN_on_INT1, %function
 3073              	LSM6DSM_ACC_GYRO_R_OVERRUN_on_INT1:
 3074              	.LFB48:
 3075              		.loc 1 1130 0
 3076              		.cfi_startproc
 3077              		@ args = 0, pretend = 0, frame = 8
 3078              		@ frame_needed = 0, uses_anonymous_args = 0
 3079 1290 00B5     		push	{lr}
 3080              		.cfi_def_cfa_offset 4
 3081              		.cfi_offset 14, -4
 3082 1292 83B0     		sub	sp, sp, #12
 3083              		.cfi_def_cfa_offset 16
 3084 1294 0190     		str	r0, [sp, #4]
 3085 1296 0091     		str	r1, [sp]
 3086              		.loc 1 1131 0
 3087 1298 0198     		ldr	r0, [sp, #4]
 3088 129a 0D21     		movs	r1, #13
 3089 129c 009A     		ldr	r2, [sp]
 3090 129e FEF7AFFE 		bl	LSM6DSM_ACC_GYRO_ReadReg
 3091 12a2 0346     		mov	r3, r0
 3092 12a4 002B     		cmp	r3, #0
 3093 12a6 01D1     		bne	.L216
 3094              		.loc 1 1132 0
 3095 12a8 0023     		movs	r3, #0
 3096 12aa 07E0     		b	.L217
 3097              	.L216:
 3098              		.loc 1 1134 0
 3099 12ac 009B     		ldr	r3, [sp]
 3100 12ae 1B78     		ldrb	r3, [r3]	@ zero_extendqisi2
 3101 12b0 03F01003 		and	r3, r3, #16
 3102 12b4 DAB2     		uxtb	r2, r3
 3103 12b6 009B     		ldr	r3, [sp]
 3104 12b8 1A70     		strb	r2, [r3]
 3105              		.loc 1 1136 0
 3106 12ba 0123     		movs	r3, #1
 3107              	.L217:
 3108              		.loc 1 1137 0
 3109 12bc 1846     		mov	r0, r3
 3110 12be 03B0     		add	sp, sp, #12
 3111              		@ sp needed
 3112 12c0 5DF804FB 		ldr	pc, [sp], #4
 3113              		.cfi_endproc
ARM GAS  /tmp/ccvV0fnY.s 			page 57


 3114              	.LFE48:
 3115              		.size	LSM6DSM_ACC_GYRO_R_OVERRUN_on_INT1, .-LSM6DSM_ACC_GYRO_R_OVERRUN_on_INT1
 3116              		.align	2
 3117 12c4 AFF30080 		.p2align 4,,15
 3117      AFF30080 
 3117      AFF30080 
 3118              		.global	LSM6DSM_ACC_GYRO_W_FULL_FLAG_on_INT1
 3119              		.thumb
 3120              		.thumb_func
 3121              		.type	LSM6DSM_ACC_GYRO_W_FULL_FLAG_on_INT1, %function
 3122              	LSM6DSM_ACC_GYRO_W_FULL_FLAG_on_INT1:
 3123              	.LFB49:
 3124              		.loc 1 1146 0
 3125              		.cfi_startproc
 3126              		@ args = 0, pretend = 0, frame = 16
 3127              		@ frame_needed = 0, uses_anonymous_args = 0
 3128 12d0 00B5     		push	{lr}
 3129              		.cfi_def_cfa_offset 4
 3130              		.cfi_offset 14, -4
 3131 12d2 85B0     		sub	sp, sp, #20
 3132              		.cfi_def_cfa_offset 24
 3133 12d4 0190     		str	r0, [sp, #4]
 3134 12d6 0B46     		mov	r3, r1
 3135 12d8 8DF80330 		strb	r3, [sp, #3]
 3136              		.loc 1 1149 0
 3137 12dc 0DF10F03 		add	r3, sp, #15
 3138 12e0 0198     		ldr	r0, [sp, #4]
 3139 12e2 0D21     		movs	r1, #13
 3140 12e4 1A46     		mov	r2, r3
 3141 12e6 FEF78BFE 		bl	LSM6DSM_ACC_GYRO_ReadReg
 3142 12ea 0346     		mov	r3, r0
 3143 12ec 002B     		cmp	r3, #0
 3144 12ee 01D1     		bne	.L219
 3145              		.loc 1 1150 0
 3146 12f0 0023     		movs	r3, #0
 3147 12f2 1BE0     		b	.L222
 3148              	.L219:
 3149              		.loc 1 1152 0
 3150 12f4 9DF80F30 		ldrb	r3, [sp, #15]	@ zero_extendqisi2
 3151 12f8 23F02003 		bic	r3, r3, #32
 3152 12fc DBB2     		uxtb	r3, r3
 3153 12fe 8DF80F30 		strb	r3, [sp, #15]
 3154              		.loc 1 1153 0
 3155 1302 9DF80F20 		ldrb	r2, [sp, #15]	@ zero_extendqisi2
 3156 1306 9DF80330 		ldrb	r3, [sp, #3]
 3157 130a 1343     		orrs	r3, r3, r2
 3158 130c DBB2     		uxtb	r3, r3
 3159 130e 8DF80F30 		strb	r3, [sp, #15]
 3160              		.loc 1 1155 0
 3161 1312 9DF80F30 		ldrb	r3, [sp, #15]	@ zero_extendqisi2
 3162 1316 0198     		ldr	r0, [sp, #4]
 3163 1318 0D21     		movs	r1, #13
 3164 131a 1A46     		mov	r2, r3
 3165 131c FEF790FE 		bl	LSM6DSM_ACC_GYRO_WriteReg
 3166 1320 0346     		mov	r3, r0
 3167 1322 002B     		cmp	r3, #0
 3168 1324 01D1     		bne	.L221
ARM GAS  /tmp/ccvV0fnY.s 			page 58


 3169              		.loc 1 1156 0
 3170 1326 0023     		movs	r3, #0
 3171 1328 00E0     		b	.L222
 3172              	.L221:
 3173              		.loc 1 1158 0
 3174 132a 0123     		movs	r3, #1
 3175              	.L222:
 3176              		.loc 1 1159 0
 3177 132c 1846     		mov	r0, r3
 3178 132e 05B0     		add	sp, sp, #20
 3179              		@ sp needed
 3180 1330 5DF804FB 		ldr	pc, [sp], #4
 3181              		.cfi_endproc
 3182              	.LFE49:
 3183              		.size	LSM6DSM_ACC_GYRO_W_FULL_FLAG_on_INT1, .-LSM6DSM_ACC_GYRO_W_FULL_FLAG_on_INT1
 3184              		.align	2
 3185 1334 AFF30080 		.p2align 4,,15
 3185      AFF30080 
 3185      AFF30080 
 3186              		.global	LSM6DSM_ACC_GYRO_R_FULL_FLAG_on_INT1
 3187              		.thumb
 3188              		.thumb_func
 3189              		.type	LSM6DSM_ACC_GYRO_R_FULL_FLAG_on_INT1, %function
 3190              	LSM6DSM_ACC_GYRO_R_FULL_FLAG_on_INT1:
 3191              	.LFB50:
 3192              		.loc 1 1170 0
 3193              		.cfi_startproc
 3194              		@ args = 0, pretend = 0, frame = 8
 3195              		@ frame_needed = 0, uses_anonymous_args = 0
 3196 1340 00B5     		push	{lr}
 3197              		.cfi_def_cfa_offset 4
 3198              		.cfi_offset 14, -4
 3199 1342 83B0     		sub	sp, sp, #12
 3200              		.cfi_def_cfa_offset 16
 3201 1344 0190     		str	r0, [sp, #4]
 3202 1346 0091     		str	r1, [sp]
 3203              		.loc 1 1171 0
 3204 1348 0198     		ldr	r0, [sp, #4]
 3205 134a 0D21     		movs	r1, #13
 3206 134c 009A     		ldr	r2, [sp]
 3207 134e FEF757FE 		bl	LSM6DSM_ACC_GYRO_ReadReg
 3208 1352 0346     		mov	r3, r0
 3209 1354 002B     		cmp	r3, #0
 3210 1356 01D1     		bne	.L224
 3211              		.loc 1 1172 0
 3212 1358 0023     		movs	r3, #0
 3213 135a 07E0     		b	.L225
 3214              	.L224:
 3215              		.loc 1 1174 0
 3216 135c 009B     		ldr	r3, [sp]
 3217 135e 1B78     		ldrb	r3, [r3]	@ zero_extendqisi2
 3218 1360 03F02003 		and	r3, r3, #32
 3219 1364 DAB2     		uxtb	r2, r3
 3220 1366 009B     		ldr	r3, [sp]
 3221 1368 1A70     		strb	r2, [r3]
 3222              		.loc 1 1176 0
 3223 136a 0123     		movs	r3, #1
ARM GAS  /tmp/ccvV0fnY.s 			page 59


 3224              	.L225:
 3225              		.loc 1 1177 0
 3226 136c 1846     		mov	r0, r3
 3227 136e 03B0     		add	sp, sp, #12
 3228              		@ sp needed
 3229 1370 5DF804FB 		ldr	pc, [sp], #4
 3230              		.cfi_endproc
 3231              	.LFE50:
 3232              		.size	LSM6DSM_ACC_GYRO_R_FULL_FLAG_on_INT1, .-LSM6DSM_ACC_GYRO_R_FULL_FLAG_on_INT1
 3233              		.align	2
 3234 1374 AFF30080 		.p2align 4,,15
 3234      AFF30080 
 3234      AFF30080 
 3235              		.global	LSM6DSM_ACC_GYRO_W_SIGN_MOT_on_INT1
 3236              		.thumb
 3237              		.thumb_func
 3238              		.type	LSM6DSM_ACC_GYRO_W_SIGN_MOT_on_INT1, %function
 3239              	LSM6DSM_ACC_GYRO_W_SIGN_MOT_on_INT1:
 3240              	.LFB51:
 3241              		.loc 1 1186 0
 3242              		.cfi_startproc
 3243              		@ args = 0, pretend = 0, frame = 16
 3244              		@ frame_needed = 0, uses_anonymous_args = 0
 3245 1380 00B5     		push	{lr}
 3246              		.cfi_def_cfa_offset 4
 3247              		.cfi_offset 14, -4
 3248 1382 85B0     		sub	sp, sp, #20
 3249              		.cfi_def_cfa_offset 24
 3250 1384 0190     		str	r0, [sp, #4]
 3251 1386 0B46     		mov	r3, r1
 3252 1388 8DF80330 		strb	r3, [sp, #3]
 3253              		.loc 1 1189 0
 3254 138c 0DF10F03 		add	r3, sp, #15
 3255 1390 0198     		ldr	r0, [sp, #4]
 3256 1392 0D21     		movs	r1, #13
 3257 1394 1A46     		mov	r2, r3
 3258 1396 FEF733FE 		bl	LSM6DSM_ACC_GYRO_ReadReg
 3259 139a 0346     		mov	r3, r0
 3260 139c 002B     		cmp	r3, #0
 3261 139e 01D1     		bne	.L227
 3262              		.loc 1 1190 0
 3263 13a0 0023     		movs	r3, #0
 3264 13a2 1BE0     		b	.L230
 3265              	.L227:
 3266              		.loc 1 1192 0
 3267 13a4 9DF80F30 		ldrb	r3, [sp, #15]	@ zero_extendqisi2
 3268 13a8 23F04003 		bic	r3, r3, #64
 3269 13ac DBB2     		uxtb	r3, r3
 3270 13ae 8DF80F30 		strb	r3, [sp, #15]
 3271              		.loc 1 1193 0
 3272 13b2 9DF80F20 		ldrb	r2, [sp, #15]	@ zero_extendqisi2
 3273 13b6 9DF80330 		ldrb	r3, [sp, #3]
 3274 13ba 1343     		orrs	r3, r3, r2
 3275 13bc DBB2     		uxtb	r3, r3
 3276 13be 8DF80F30 		strb	r3, [sp, #15]
 3277              		.loc 1 1195 0
 3278 13c2 9DF80F30 		ldrb	r3, [sp, #15]	@ zero_extendqisi2
ARM GAS  /tmp/ccvV0fnY.s 			page 60


 3279 13c6 0198     		ldr	r0, [sp, #4]
 3280 13c8 0D21     		movs	r1, #13
 3281 13ca 1A46     		mov	r2, r3
 3282 13cc FEF738FE 		bl	LSM6DSM_ACC_GYRO_WriteReg
 3283 13d0 0346     		mov	r3, r0
 3284 13d2 002B     		cmp	r3, #0
 3285 13d4 01D1     		bne	.L229
 3286              		.loc 1 1196 0
 3287 13d6 0023     		movs	r3, #0
 3288 13d8 00E0     		b	.L230
 3289              	.L229:
 3290              		.loc 1 1198 0
 3291 13da 0123     		movs	r3, #1
 3292              	.L230:
 3293              		.loc 1 1199 0
 3294 13dc 1846     		mov	r0, r3
 3295 13de 05B0     		add	sp, sp, #20
 3296              		@ sp needed
 3297 13e0 5DF804FB 		ldr	pc, [sp], #4
 3298              		.cfi_endproc
 3299              	.LFE51:
 3300              		.size	LSM6DSM_ACC_GYRO_W_SIGN_MOT_on_INT1, .-LSM6DSM_ACC_GYRO_W_SIGN_MOT_on_INT1
 3301              		.align	2
 3302 13e4 AFF30080 		.p2align 4,,15
 3302      AFF30080 
 3302      AFF30080 
 3303              		.global	LSM6DSM_ACC_GYRO_R_SIGN_MOT_on_INT1
 3304              		.thumb
 3305              		.thumb_func
 3306              		.type	LSM6DSM_ACC_GYRO_R_SIGN_MOT_on_INT1, %function
 3307              	LSM6DSM_ACC_GYRO_R_SIGN_MOT_on_INT1:
 3308              	.LFB52:
 3309              		.loc 1 1210 0
 3310              		.cfi_startproc
 3311              		@ args = 0, pretend = 0, frame = 8
 3312              		@ frame_needed = 0, uses_anonymous_args = 0
 3313 13f0 00B5     		push	{lr}
 3314              		.cfi_def_cfa_offset 4
 3315              		.cfi_offset 14, -4
 3316 13f2 83B0     		sub	sp, sp, #12
 3317              		.cfi_def_cfa_offset 16
 3318 13f4 0190     		str	r0, [sp, #4]
 3319 13f6 0091     		str	r1, [sp]
 3320              		.loc 1 1211 0
 3321 13f8 0198     		ldr	r0, [sp, #4]
 3322 13fa 0D21     		movs	r1, #13
 3323 13fc 009A     		ldr	r2, [sp]
 3324 13fe FEF7FFFD 		bl	LSM6DSM_ACC_GYRO_ReadReg
 3325 1402 0346     		mov	r3, r0
 3326 1404 002B     		cmp	r3, #0
 3327 1406 01D1     		bne	.L232
 3328              		.loc 1 1212 0
 3329 1408 0023     		movs	r3, #0
 3330 140a 07E0     		b	.L233
 3331              	.L232:
 3332              		.loc 1 1214 0
 3333 140c 009B     		ldr	r3, [sp]
ARM GAS  /tmp/ccvV0fnY.s 			page 61


 3334 140e 1B78     		ldrb	r3, [r3]	@ zero_extendqisi2
 3335 1410 03F04003 		and	r3, r3, #64
 3336 1414 DAB2     		uxtb	r2, r3
 3337 1416 009B     		ldr	r3, [sp]
 3338 1418 1A70     		strb	r2, [r3]
 3339              		.loc 1 1216 0
 3340 141a 0123     		movs	r3, #1
 3341              	.L233:
 3342              		.loc 1 1217 0
 3343 141c 1846     		mov	r0, r3
 3344 141e 03B0     		add	sp, sp, #12
 3345              		@ sp needed
 3346 1420 5DF804FB 		ldr	pc, [sp], #4
 3347              		.cfi_endproc
 3348              	.LFE52:
 3349              		.size	LSM6DSM_ACC_GYRO_R_SIGN_MOT_on_INT1, .-LSM6DSM_ACC_GYRO_R_SIGN_MOT_on_INT1
 3350              		.align	2
 3351 1424 AFF30080 		.p2align 4,,15
 3351      AFF30080 
 3351      AFF30080 
 3352              		.global	LSM6DSM_ACC_GYRO_W_STEP_DET_on_INT1
 3353              		.thumb
 3354              		.thumb_func
 3355              		.type	LSM6DSM_ACC_GYRO_W_STEP_DET_on_INT1, %function
 3356              	LSM6DSM_ACC_GYRO_W_STEP_DET_on_INT1:
 3357              	.LFB53:
 3358              		.loc 1 1226 0
 3359              		.cfi_startproc
 3360              		@ args = 0, pretend = 0, frame = 16
 3361              		@ frame_needed = 0, uses_anonymous_args = 0
 3362 1430 00B5     		push	{lr}
 3363              		.cfi_def_cfa_offset 4
 3364              		.cfi_offset 14, -4
 3365 1432 85B0     		sub	sp, sp, #20
 3366              		.cfi_def_cfa_offset 24
 3367 1434 0190     		str	r0, [sp, #4]
 3368 1436 0B46     		mov	r3, r1
 3369 1438 8DF80330 		strb	r3, [sp, #3]
 3370              		.loc 1 1229 0
 3371 143c 0DF10F03 		add	r3, sp, #15
 3372 1440 0198     		ldr	r0, [sp, #4]
 3373 1442 0D21     		movs	r1, #13
 3374 1444 1A46     		mov	r2, r3
 3375 1446 FEF7DBFD 		bl	LSM6DSM_ACC_GYRO_ReadReg
 3376 144a 0346     		mov	r3, r0
 3377 144c 002B     		cmp	r3, #0
 3378 144e 01D1     		bne	.L235
 3379              		.loc 1 1230 0
 3380 1450 0023     		movs	r3, #0
 3381 1452 1BE0     		b	.L238
 3382              	.L235:
 3383              		.loc 1 1232 0
 3384 1454 9DF80F30 		ldrb	r3, [sp, #15]	@ zero_extendqisi2
 3385 1458 03F07F03 		and	r3, r3, #127
 3386 145c DBB2     		uxtb	r3, r3
 3387 145e 8DF80F30 		strb	r3, [sp, #15]
 3388              		.loc 1 1233 0
ARM GAS  /tmp/ccvV0fnY.s 			page 62


 3389 1462 9DF80F20 		ldrb	r2, [sp, #15]	@ zero_extendqisi2
 3390 1466 9DF80330 		ldrb	r3, [sp, #3]
 3391 146a 1343     		orrs	r3, r3, r2
 3392 146c DBB2     		uxtb	r3, r3
 3393 146e 8DF80F30 		strb	r3, [sp, #15]
 3394              		.loc 1 1235 0
 3395 1472 9DF80F30 		ldrb	r3, [sp, #15]	@ zero_extendqisi2
 3396 1476 0198     		ldr	r0, [sp, #4]
 3397 1478 0D21     		movs	r1, #13
 3398 147a 1A46     		mov	r2, r3
 3399 147c FEF7E0FD 		bl	LSM6DSM_ACC_GYRO_WriteReg
 3400 1480 0346     		mov	r3, r0
 3401 1482 002B     		cmp	r3, #0
 3402 1484 01D1     		bne	.L237
 3403              		.loc 1 1236 0
 3404 1486 0023     		movs	r3, #0
 3405 1488 00E0     		b	.L238
 3406              	.L237:
 3407              		.loc 1 1238 0
 3408 148a 0123     		movs	r3, #1
 3409              	.L238:
 3410              		.loc 1 1239 0
 3411 148c 1846     		mov	r0, r3
 3412 148e 05B0     		add	sp, sp, #20
 3413              		@ sp needed
 3414 1490 5DF804FB 		ldr	pc, [sp], #4
 3415              		.cfi_endproc
 3416              	.LFE53:
 3417              		.size	LSM6DSM_ACC_GYRO_W_STEP_DET_on_INT1, .-LSM6DSM_ACC_GYRO_W_STEP_DET_on_INT1
 3418              		.align	2
 3419 1494 AFF30080 		.p2align 4,,15
 3419      AFF30080 
 3419      AFF30080 
 3420              		.global	LSM6DSM_ACC_GYRO_R_STEP_DET_on_INT1
 3421              		.thumb
 3422              		.thumb_func
 3423              		.type	LSM6DSM_ACC_GYRO_R_STEP_DET_on_INT1, %function
 3424              	LSM6DSM_ACC_GYRO_R_STEP_DET_on_INT1:
 3425              	.LFB54:
 3426              		.loc 1 1250 0
 3427              		.cfi_startproc
 3428              		@ args = 0, pretend = 0, frame = 8
 3429              		@ frame_needed = 0, uses_anonymous_args = 0
 3430 14a0 00B5     		push	{lr}
 3431              		.cfi_def_cfa_offset 4
 3432              		.cfi_offset 14, -4
 3433 14a2 83B0     		sub	sp, sp, #12
 3434              		.cfi_def_cfa_offset 16
 3435 14a4 0190     		str	r0, [sp, #4]
 3436 14a6 0091     		str	r1, [sp]
 3437              		.loc 1 1251 0
 3438 14a8 0198     		ldr	r0, [sp, #4]
 3439 14aa 0D21     		movs	r1, #13
 3440 14ac 009A     		ldr	r2, [sp]
 3441 14ae FEF7A7FD 		bl	LSM6DSM_ACC_GYRO_ReadReg
 3442 14b2 0346     		mov	r3, r0
 3443 14b4 002B     		cmp	r3, #0
ARM GAS  /tmp/ccvV0fnY.s 			page 63


 3444 14b6 01D1     		bne	.L240
 3445              		.loc 1 1252 0
 3446 14b8 0023     		movs	r3, #0
 3447 14ba 07E0     		b	.L241
 3448              	.L240:
 3449              		.loc 1 1254 0
 3450 14bc 009B     		ldr	r3, [sp]
 3451 14be 1B78     		ldrb	r3, [r3]	@ zero_extendqisi2
 3452 14c0 23F07F03 		bic	r3, r3, #127
 3453 14c4 DAB2     		uxtb	r2, r3
 3454 14c6 009B     		ldr	r3, [sp]
 3455 14c8 1A70     		strb	r2, [r3]
 3456              		.loc 1 1256 0
 3457 14ca 0123     		movs	r3, #1
 3458              	.L241:
 3459              		.loc 1 1257 0
 3460 14cc 1846     		mov	r0, r3
 3461 14ce 03B0     		add	sp, sp, #12
 3462              		@ sp needed
 3463 14d0 5DF804FB 		ldr	pc, [sp], #4
 3464              		.cfi_endproc
 3465              	.LFE54:
 3466              		.size	LSM6DSM_ACC_GYRO_R_STEP_DET_on_INT1, .-LSM6DSM_ACC_GYRO_R_STEP_DET_on_INT1
 3467              		.align	2
 3468 14d4 AFF30080 		.p2align 4,,15
 3468      AFF30080 
 3468      AFF30080 
 3469              		.global	LSM6DSM_ACC_GYRO_W_DRDY_XL_on_INT2
 3470              		.thumb
 3471              		.thumb_func
 3472              		.type	LSM6DSM_ACC_GYRO_W_DRDY_XL_on_INT2, %function
 3473              	LSM6DSM_ACC_GYRO_W_DRDY_XL_on_INT2:
 3474              	.LFB55:
 3475              		.loc 1 1266 0
 3476              		.cfi_startproc
 3477              		@ args = 0, pretend = 0, frame = 16
 3478              		@ frame_needed = 0, uses_anonymous_args = 0
 3479 14e0 00B5     		push	{lr}
 3480              		.cfi_def_cfa_offset 4
 3481              		.cfi_offset 14, -4
 3482 14e2 85B0     		sub	sp, sp, #20
 3483              		.cfi_def_cfa_offset 24
 3484 14e4 0190     		str	r0, [sp, #4]
 3485 14e6 0B46     		mov	r3, r1
 3486 14e8 8DF80330 		strb	r3, [sp, #3]
 3487              		.loc 1 1269 0
 3488 14ec 0DF10F03 		add	r3, sp, #15
 3489 14f0 0198     		ldr	r0, [sp, #4]
 3490 14f2 0E21     		movs	r1, #14
 3491 14f4 1A46     		mov	r2, r3
 3492 14f6 FEF783FD 		bl	LSM6DSM_ACC_GYRO_ReadReg
 3493 14fa 0346     		mov	r3, r0
 3494 14fc 002B     		cmp	r3, #0
 3495 14fe 01D1     		bne	.L243
 3496              		.loc 1 1270 0
 3497 1500 0023     		movs	r3, #0
 3498 1502 1BE0     		b	.L246
ARM GAS  /tmp/ccvV0fnY.s 			page 64


 3499              	.L243:
 3500              		.loc 1 1272 0
 3501 1504 9DF80F30 		ldrb	r3, [sp, #15]	@ zero_extendqisi2
 3502 1508 23F00103 		bic	r3, r3, #1
 3503 150c DBB2     		uxtb	r3, r3
 3504 150e 8DF80F30 		strb	r3, [sp, #15]
 3505              		.loc 1 1273 0
 3506 1512 9DF80F20 		ldrb	r2, [sp, #15]	@ zero_extendqisi2
 3507 1516 9DF80330 		ldrb	r3, [sp, #3]
 3508 151a 1343     		orrs	r3, r3, r2
 3509 151c DBB2     		uxtb	r3, r3
 3510 151e 8DF80F30 		strb	r3, [sp, #15]
 3511              		.loc 1 1275 0
 3512 1522 9DF80F30 		ldrb	r3, [sp, #15]	@ zero_extendqisi2
 3513 1526 0198     		ldr	r0, [sp, #4]
 3514 1528 0E21     		movs	r1, #14
 3515 152a 1A46     		mov	r2, r3
 3516 152c FEF788FD 		bl	LSM6DSM_ACC_GYRO_WriteReg
 3517 1530 0346     		mov	r3, r0
 3518 1532 002B     		cmp	r3, #0
 3519 1534 01D1     		bne	.L245
 3520              		.loc 1 1276 0
 3521 1536 0023     		movs	r3, #0
 3522 1538 00E0     		b	.L246
 3523              	.L245:
 3524              		.loc 1 1278 0
 3525 153a 0123     		movs	r3, #1
 3526              	.L246:
 3527              		.loc 1 1279 0
 3528 153c 1846     		mov	r0, r3
 3529 153e 05B0     		add	sp, sp, #20
 3530              		@ sp needed
 3531 1540 5DF804FB 		ldr	pc, [sp], #4
 3532              		.cfi_endproc
 3533              	.LFE55:
 3534              		.size	LSM6DSM_ACC_GYRO_W_DRDY_XL_on_INT2, .-LSM6DSM_ACC_GYRO_W_DRDY_XL_on_INT2
 3535              		.align	2
 3536 1544 AFF30080 		.p2align 4,,15
 3536      AFF30080 
 3536      AFF30080 
 3537              		.global	LSM6DSM_ACC_GYRO_R_DRDY_XL_on_INT2
 3538              		.thumb
 3539              		.thumb_func
 3540              		.type	LSM6DSM_ACC_GYRO_R_DRDY_XL_on_INT2, %function
 3541              	LSM6DSM_ACC_GYRO_R_DRDY_XL_on_INT2:
 3542              	.LFB56:
 3543              		.loc 1 1290 0
 3544              		.cfi_startproc
 3545              		@ args = 0, pretend = 0, frame = 8
 3546              		@ frame_needed = 0, uses_anonymous_args = 0
 3547 1550 00B5     		push	{lr}
 3548              		.cfi_def_cfa_offset 4
 3549              		.cfi_offset 14, -4
 3550 1552 83B0     		sub	sp, sp, #12
 3551              		.cfi_def_cfa_offset 16
 3552 1554 0190     		str	r0, [sp, #4]
 3553 1556 0091     		str	r1, [sp]
ARM GAS  /tmp/ccvV0fnY.s 			page 65


 3554              		.loc 1 1291 0
 3555 1558 0198     		ldr	r0, [sp, #4]
 3556 155a 0E21     		movs	r1, #14
 3557 155c 009A     		ldr	r2, [sp]
 3558 155e FEF74FFD 		bl	LSM6DSM_ACC_GYRO_ReadReg
 3559 1562 0346     		mov	r3, r0
 3560 1564 002B     		cmp	r3, #0
 3561 1566 01D1     		bne	.L248
 3562              		.loc 1 1292 0
 3563 1568 0023     		movs	r3, #0
 3564 156a 07E0     		b	.L249
 3565              	.L248:
 3566              		.loc 1 1294 0
 3567 156c 009B     		ldr	r3, [sp]
 3568 156e 1B78     		ldrb	r3, [r3]	@ zero_extendqisi2
 3569 1570 03F00103 		and	r3, r3, #1
 3570 1574 DAB2     		uxtb	r2, r3
 3571 1576 009B     		ldr	r3, [sp]
 3572 1578 1A70     		strb	r2, [r3]
 3573              		.loc 1 1296 0
 3574 157a 0123     		movs	r3, #1
 3575              	.L249:
 3576              		.loc 1 1297 0
 3577 157c 1846     		mov	r0, r3
 3578 157e 03B0     		add	sp, sp, #12
 3579              		@ sp needed
 3580 1580 5DF804FB 		ldr	pc, [sp], #4
 3581              		.cfi_endproc
 3582              	.LFE56:
 3583              		.size	LSM6DSM_ACC_GYRO_R_DRDY_XL_on_INT2, .-LSM6DSM_ACC_GYRO_R_DRDY_XL_on_INT2
 3584              		.align	2
 3585 1584 AFF30080 		.p2align 4,,15
 3585      AFF30080 
 3585      AFF30080 
 3586              		.global	LSM6DSM_ACC_GYRO_W_DRDY_G_on_INT2
 3587              		.thumb
 3588              		.thumb_func
 3589              		.type	LSM6DSM_ACC_GYRO_W_DRDY_G_on_INT2, %function
 3590              	LSM6DSM_ACC_GYRO_W_DRDY_G_on_INT2:
 3591              	.LFB57:
 3592              		.loc 1 1306 0
 3593              		.cfi_startproc
 3594              		@ args = 0, pretend = 0, frame = 16
 3595              		@ frame_needed = 0, uses_anonymous_args = 0
 3596 1590 00B5     		push	{lr}
 3597              		.cfi_def_cfa_offset 4
 3598              		.cfi_offset 14, -4
 3599 1592 85B0     		sub	sp, sp, #20
 3600              		.cfi_def_cfa_offset 24
 3601 1594 0190     		str	r0, [sp, #4]
 3602 1596 0B46     		mov	r3, r1
 3603 1598 8DF80330 		strb	r3, [sp, #3]
 3604              		.loc 1 1309 0
 3605 159c 0DF10F03 		add	r3, sp, #15
 3606 15a0 0198     		ldr	r0, [sp, #4]
 3607 15a2 0E21     		movs	r1, #14
 3608 15a4 1A46     		mov	r2, r3
ARM GAS  /tmp/ccvV0fnY.s 			page 66


 3609 15a6 FEF72BFD 		bl	LSM6DSM_ACC_GYRO_ReadReg
 3610 15aa 0346     		mov	r3, r0
 3611 15ac 002B     		cmp	r3, #0
 3612 15ae 01D1     		bne	.L251
 3613              		.loc 1 1310 0
 3614 15b0 0023     		movs	r3, #0
 3615 15b2 1BE0     		b	.L254
 3616              	.L251:
 3617              		.loc 1 1312 0
 3618 15b4 9DF80F30 		ldrb	r3, [sp, #15]	@ zero_extendqisi2
 3619 15b8 23F00203 		bic	r3, r3, #2
 3620 15bc DBB2     		uxtb	r3, r3
 3621 15be 8DF80F30 		strb	r3, [sp, #15]
 3622              		.loc 1 1313 0
 3623 15c2 9DF80F20 		ldrb	r2, [sp, #15]	@ zero_extendqisi2
 3624 15c6 9DF80330 		ldrb	r3, [sp, #3]
 3625 15ca 1343     		orrs	r3, r3, r2
 3626 15cc DBB2     		uxtb	r3, r3
 3627 15ce 8DF80F30 		strb	r3, [sp, #15]
 3628              		.loc 1 1315 0
 3629 15d2 9DF80F30 		ldrb	r3, [sp, #15]	@ zero_extendqisi2
 3630 15d6 0198     		ldr	r0, [sp, #4]
 3631 15d8 0E21     		movs	r1, #14
 3632 15da 1A46     		mov	r2, r3
 3633 15dc FEF730FD 		bl	LSM6DSM_ACC_GYRO_WriteReg
 3634 15e0 0346     		mov	r3, r0
 3635 15e2 002B     		cmp	r3, #0
 3636 15e4 01D1     		bne	.L253
 3637              		.loc 1 1316 0
 3638 15e6 0023     		movs	r3, #0
 3639 15e8 00E0     		b	.L254
 3640              	.L253:
 3641              		.loc 1 1318 0
 3642 15ea 0123     		movs	r3, #1
 3643              	.L254:
 3644              		.loc 1 1319 0
 3645 15ec 1846     		mov	r0, r3
 3646 15ee 05B0     		add	sp, sp, #20
 3647              		@ sp needed
 3648 15f0 5DF804FB 		ldr	pc, [sp], #4
 3649              		.cfi_endproc
 3650              	.LFE57:
 3651              		.size	LSM6DSM_ACC_GYRO_W_DRDY_G_on_INT2, .-LSM6DSM_ACC_GYRO_W_DRDY_G_on_INT2
 3652              		.align	2
 3653 15f4 AFF30080 		.p2align 4,,15
 3653      AFF30080 
 3653      AFF30080 
 3654              		.global	LSM6DSM_ACC_GYRO_R_DRDY_G_on_INT2
 3655              		.thumb
 3656              		.thumb_func
 3657              		.type	LSM6DSM_ACC_GYRO_R_DRDY_G_on_INT2, %function
 3658              	LSM6DSM_ACC_GYRO_R_DRDY_G_on_INT2:
 3659              	.LFB58:
 3660              		.loc 1 1330 0
 3661              		.cfi_startproc
 3662              		@ args = 0, pretend = 0, frame = 8
 3663              		@ frame_needed = 0, uses_anonymous_args = 0
ARM GAS  /tmp/ccvV0fnY.s 			page 67


 3664 1600 00B5     		push	{lr}
 3665              		.cfi_def_cfa_offset 4
 3666              		.cfi_offset 14, -4
 3667 1602 83B0     		sub	sp, sp, #12
 3668              		.cfi_def_cfa_offset 16
 3669 1604 0190     		str	r0, [sp, #4]
 3670 1606 0091     		str	r1, [sp]
 3671              		.loc 1 1331 0
 3672 1608 0198     		ldr	r0, [sp, #4]
 3673 160a 0E21     		movs	r1, #14
 3674 160c 009A     		ldr	r2, [sp]
 3675 160e FEF7F7FC 		bl	LSM6DSM_ACC_GYRO_ReadReg
 3676 1612 0346     		mov	r3, r0
 3677 1614 002B     		cmp	r3, #0
 3678 1616 01D1     		bne	.L256
 3679              		.loc 1 1332 0
 3680 1618 0023     		movs	r3, #0
 3681 161a 07E0     		b	.L257
 3682              	.L256:
 3683              		.loc 1 1334 0
 3684 161c 009B     		ldr	r3, [sp]
 3685 161e 1B78     		ldrb	r3, [r3]	@ zero_extendqisi2
 3686 1620 03F00203 		and	r3, r3, #2
 3687 1624 DAB2     		uxtb	r2, r3
 3688 1626 009B     		ldr	r3, [sp]
 3689 1628 1A70     		strb	r2, [r3]
 3690              		.loc 1 1336 0
 3691 162a 0123     		movs	r3, #1
 3692              	.L257:
 3693              		.loc 1 1337 0
 3694 162c 1846     		mov	r0, r3
 3695 162e 03B0     		add	sp, sp, #12
 3696              		@ sp needed
 3697 1630 5DF804FB 		ldr	pc, [sp], #4
 3698              		.cfi_endproc
 3699              	.LFE58:
 3700              		.size	LSM6DSM_ACC_GYRO_R_DRDY_G_on_INT2, .-LSM6DSM_ACC_GYRO_R_DRDY_G_on_INT2
 3701              		.align	2
 3702 1634 AFF30080 		.p2align 4,,15
 3702      AFF30080 
 3702      AFF30080 
 3703              		.global	LSM6DSM_ACC_GYRO_W_DRDY_TEMP_on_INT2
 3704              		.thumb
 3705              		.thumb_func
 3706              		.type	LSM6DSM_ACC_GYRO_W_DRDY_TEMP_on_INT2, %function
 3707              	LSM6DSM_ACC_GYRO_W_DRDY_TEMP_on_INT2:
 3708              	.LFB59:
 3709              		.loc 1 1347 0
 3710              		.cfi_startproc
 3711              		@ args = 0, pretend = 0, frame = 16
 3712              		@ frame_needed = 0, uses_anonymous_args = 0
 3713 1640 00B5     		push	{lr}
 3714              		.cfi_def_cfa_offset 4
 3715              		.cfi_offset 14, -4
 3716 1642 85B0     		sub	sp, sp, #20
 3717              		.cfi_def_cfa_offset 24
 3718 1644 0190     		str	r0, [sp, #4]
ARM GAS  /tmp/ccvV0fnY.s 			page 68


 3719 1646 0B46     		mov	r3, r1
 3720 1648 8DF80330 		strb	r3, [sp, #3]
 3721              		.loc 1 1350 0
 3722 164c 0DF10F03 		add	r3, sp, #15
 3723 1650 0198     		ldr	r0, [sp, #4]
 3724 1652 0E21     		movs	r1, #14
 3725 1654 1A46     		mov	r2, r3
 3726 1656 FEF7D3FC 		bl	LSM6DSM_ACC_GYRO_ReadReg
 3727 165a 0346     		mov	r3, r0
 3728 165c 002B     		cmp	r3, #0
 3729 165e 01D1     		bne	.L259
 3730              		.loc 1 1351 0
 3731 1660 0023     		movs	r3, #0
 3732 1662 1BE0     		b	.L262
 3733              	.L259:
 3734              		.loc 1 1353 0
 3735 1664 9DF80F30 		ldrb	r3, [sp, #15]	@ zero_extendqisi2
 3736 1668 23F00403 		bic	r3, r3, #4
 3737 166c DBB2     		uxtb	r3, r3
 3738 166e 8DF80F30 		strb	r3, [sp, #15]
 3739              		.loc 1 1354 0
 3740 1672 9DF80F20 		ldrb	r2, [sp, #15]	@ zero_extendqisi2
 3741 1676 9DF80330 		ldrb	r3, [sp, #3]
 3742 167a 1343     		orrs	r3, r3, r2
 3743 167c DBB2     		uxtb	r3, r3
 3744 167e 8DF80F30 		strb	r3, [sp, #15]
 3745              		.loc 1 1356 0
 3746 1682 9DF80F30 		ldrb	r3, [sp, #15]	@ zero_extendqisi2
 3747 1686 0198     		ldr	r0, [sp, #4]
 3748 1688 0E21     		movs	r1, #14
 3749 168a 1A46     		mov	r2, r3
 3750 168c FEF7D8FC 		bl	LSM6DSM_ACC_GYRO_WriteReg
 3751 1690 0346     		mov	r3, r0
 3752 1692 002B     		cmp	r3, #0
 3753 1694 01D1     		bne	.L261
 3754              		.loc 1 1357 0
 3755 1696 0023     		movs	r3, #0
 3756 1698 00E0     		b	.L262
 3757              	.L261:
 3758              		.loc 1 1359 0
 3759 169a 0123     		movs	r3, #1
 3760              	.L262:
 3761              		.loc 1 1360 0
 3762 169c 1846     		mov	r0, r3
 3763 169e 05B0     		add	sp, sp, #20
 3764              		@ sp needed
 3765 16a0 5DF804FB 		ldr	pc, [sp], #4
 3766              		.cfi_endproc
 3767              	.LFE59:
 3768              		.size	LSM6DSM_ACC_GYRO_W_DRDY_TEMP_on_INT2, .-LSM6DSM_ACC_GYRO_W_DRDY_TEMP_on_INT2
 3769              		.align	2
 3770 16a4 AFF30080 		.p2align 4,,15
 3770      AFF30080 
 3770      AFF30080 
 3771              		.global	LSM6DSM_ACC_GYRO_R_DRDY_TEMP_on_INT2
 3772              		.thumb
 3773              		.thumb_func
ARM GAS  /tmp/ccvV0fnY.s 			page 69


 3774              		.type	LSM6DSM_ACC_GYRO_R_DRDY_TEMP_on_INT2, %function
 3775              	LSM6DSM_ACC_GYRO_R_DRDY_TEMP_on_INT2:
 3776              	.LFB60:
 3777              		.loc 1 1371 0
 3778              		.cfi_startproc
 3779              		@ args = 0, pretend = 0, frame = 8
 3780              		@ frame_needed = 0, uses_anonymous_args = 0
 3781 16b0 00B5     		push	{lr}
 3782              		.cfi_def_cfa_offset 4
 3783              		.cfi_offset 14, -4
 3784 16b2 83B0     		sub	sp, sp, #12
 3785              		.cfi_def_cfa_offset 16
 3786 16b4 0190     		str	r0, [sp, #4]
 3787 16b6 0091     		str	r1, [sp]
 3788              		.loc 1 1372 0
 3789 16b8 0198     		ldr	r0, [sp, #4]
 3790 16ba 0E21     		movs	r1, #14
 3791 16bc 009A     		ldr	r2, [sp]
 3792 16be FEF79FFC 		bl	LSM6DSM_ACC_GYRO_ReadReg
 3793 16c2 0346     		mov	r3, r0
 3794 16c4 002B     		cmp	r3, #0
 3795 16c6 01D1     		bne	.L264
 3796              		.loc 1 1373 0
 3797 16c8 0023     		movs	r3, #0
 3798 16ca 07E0     		b	.L265
 3799              	.L264:
 3800              		.loc 1 1375 0
 3801 16cc 009B     		ldr	r3, [sp]
 3802 16ce 1B78     		ldrb	r3, [r3]	@ zero_extendqisi2
 3803 16d0 03F00403 		and	r3, r3, #4
 3804 16d4 DAB2     		uxtb	r2, r3
 3805 16d6 009B     		ldr	r3, [sp]
 3806 16d8 1A70     		strb	r2, [r3]
 3807              		.loc 1 1377 0
 3808 16da 0123     		movs	r3, #1
 3809              	.L265:
 3810              		.loc 1 1378 0
 3811 16dc 1846     		mov	r0, r3
 3812 16de 03B0     		add	sp, sp, #12
 3813              		@ sp needed
 3814 16e0 5DF804FB 		ldr	pc, [sp], #4
 3815              		.cfi_endproc
 3816              	.LFE60:
 3817              		.size	LSM6DSM_ACC_GYRO_R_DRDY_TEMP_on_INT2, .-LSM6DSM_ACC_GYRO_R_DRDY_TEMP_on_INT2
 3818              		.align	2
 3819 16e4 AFF30080 		.p2align 4,,15
 3819      AFF30080 
 3819      AFF30080 
 3820              		.global	LSM6DSM_ACC_GYRO_W_FIFO_TSHLD_on_INT2
 3821              		.thumb
 3822              		.thumb_func
 3823              		.type	LSM6DSM_ACC_GYRO_W_FIFO_TSHLD_on_INT2, %function
 3824              	LSM6DSM_ACC_GYRO_W_FIFO_TSHLD_on_INT2:
 3825              	.LFB61:
 3826              		.loc 1 1388 0
 3827              		.cfi_startproc
 3828              		@ args = 0, pretend = 0, frame = 16
ARM GAS  /tmp/ccvV0fnY.s 			page 70


 3829              		@ frame_needed = 0, uses_anonymous_args = 0
 3830 16f0 00B5     		push	{lr}
 3831              		.cfi_def_cfa_offset 4
 3832              		.cfi_offset 14, -4
 3833 16f2 85B0     		sub	sp, sp, #20
 3834              		.cfi_def_cfa_offset 24
 3835 16f4 0190     		str	r0, [sp, #4]
 3836 16f6 0B46     		mov	r3, r1
 3837 16f8 8DF80330 		strb	r3, [sp, #3]
 3838              		.loc 1 1391 0
 3839 16fc 0DF10F03 		add	r3, sp, #15
 3840 1700 0198     		ldr	r0, [sp, #4]
 3841 1702 0E21     		movs	r1, #14
 3842 1704 1A46     		mov	r2, r3
 3843 1706 FEF77BFC 		bl	LSM6DSM_ACC_GYRO_ReadReg
 3844 170a 0346     		mov	r3, r0
 3845 170c 002B     		cmp	r3, #0
 3846 170e 01D1     		bne	.L267
 3847              		.loc 1 1392 0
 3848 1710 0023     		movs	r3, #0
 3849 1712 1BE0     		b	.L270
 3850              	.L267:
 3851              		.loc 1 1394 0
 3852 1714 9DF80F30 		ldrb	r3, [sp, #15]	@ zero_extendqisi2
 3853 1718 23F00803 		bic	r3, r3, #8
 3854 171c DBB2     		uxtb	r3, r3
 3855 171e 8DF80F30 		strb	r3, [sp, #15]
 3856              		.loc 1 1395 0
 3857 1722 9DF80F20 		ldrb	r2, [sp, #15]	@ zero_extendqisi2
 3858 1726 9DF80330 		ldrb	r3, [sp, #3]
 3859 172a 1343     		orrs	r3, r3, r2
 3860 172c DBB2     		uxtb	r3, r3
 3861 172e 8DF80F30 		strb	r3, [sp, #15]
 3862              		.loc 1 1397 0
 3863 1732 9DF80F30 		ldrb	r3, [sp, #15]	@ zero_extendqisi2
 3864 1736 0198     		ldr	r0, [sp, #4]
 3865 1738 0E21     		movs	r1, #14
 3866 173a 1A46     		mov	r2, r3
 3867 173c FEF780FC 		bl	LSM6DSM_ACC_GYRO_WriteReg
 3868 1740 0346     		mov	r3, r0
 3869 1742 002B     		cmp	r3, #0
 3870 1744 01D1     		bne	.L269
 3871              		.loc 1 1398 0
 3872 1746 0023     		movs	r3, #0
 3873 1748 00E0     		b	.L270
 3874              	.L269:
 3875              		.loc 1 1400 0
 3876 174a 0123     		movs	r3, #1
 3877              	.L270:
 3878              		.loc 1 1401 0
 3879 174c 1846     		mov	r0, r3
 3880 174e 05B0     		add	sp, sp, #20
 3881              		@ sp needed
 3882 1750 5DF804FB 		ldr	pc, [sp], #4
 3883              		.cfi_endproc
 3884              	.LFE61:
 3885              		.size	LSM6DSM_ACC_GYRO_W_FIFO_TSHLD_on_INT2, .-LSM6DSM_ACC_GYRO_W_FIFO_TSHLD_on_INT2
ARM GAS  /tmp/ccvV0fnY.s 			page 71


 3886              		.align	2
 3887 1754 AFF30080 		.p2align 4,,15
 3887      AFF30080 
 3887      AFF30080 
 3888              		.global	LSM6DSM_ACC_GYRO_R_FIFO_TSHLD_on_INT2
 3889              		.thumb
 3890              		.thumb_func
 3891              		.type	LSM6DSM_ACC_GYRO_R_FIFO_TSHLD_on_INT2, %function
 3892              	LSM6DSM_ACC_GYRO_R_FIFO_TSHLD_on_INT2:
 3893              	.LFB62:
 3894              		.loc 1 1412 0
 3895              		.cfi_startproc
 3896              		@ args = 0, pretend = 0, frame = 8
 3897              		@ frame_needed = 0, uses_anonymous_args = 0
 3898 1760 00B5     		push	{lr}
 3899              		.cfi_def_cfa_offset 4
 3900              		.cfi_offset 14, -4
 3901 1762 83B0     		sub	sp, sp, #12
 3902              		.cfi_def_cfa_offset 16
 3903 1764 0190     		str	r0, [sp, #4]
 3904 1766 0091     		str	r1, [sp]
 3905              		.loc 1 1413 0
 3906 1768 0198     		ldr	r0, [sp, #4]
 3907 176a 0E21     		movs	r1, #14
 3908 176c 009A     		ldr	r2, [sp]
 3909 176e FEF747FC 		bl	LSM6DSM_ACC_GYRO_ReadReg
 3910 1772 0346     		mov	r3, r0
 3911 1774 002B     		cmp	r3, #0
 3912 1776 01D1     		bne	.L272
 3913              		.loc 1 1414 0
 3914 1778 0023     		movs	r3, #0
 3915 177a 07E0     		b	.L273
 3916              	.L272:
 3917              		.loc 1 1416 0
 3918 177c 009B     		ldr	r3, [sp]
 3919 177e 1B78     		ldrb	r3, [r3]	@ zero_extendqisi2
 3920 1780 03F00803 		and	r3, r3, #8
 3921 1784 DAB2     		uxtb	r2, r3
 3922 1786 009B     		ldr	r3, [sp]
 3923 1788 1A70     		strb	r2, [r3]
 3924              		.loc 1 1418 0
 3925 178a 0123     		movs	r3, #1
 3926              	.L273:
 3927              		.loc 1 1419 0
 3928 178c 1846     		mov	r0, r3
 3929 178e 03B0     		add	sp, sp, #12
 3930              		@ sp needed
 3931 1790 5DF804FB 		ldr	pc, [sp], #4
 3932              		.cfi_endproc
 3933              	.LFE62:
 3934              		.size	LSM6DSM_ACC_GYRO_R_FIFO_TSHLD_on_INT2, .-LSM6DSM_ACC_GYRO_R_FIFO_TSHLD_on_INT2
 3935              		.align	2
 3936 1794 AFF30080 		.p2align 4,,15
 3936      AFF30080 
 3936      AFF30080 
 3937              		.global	LSM6DSM_ACC_GYRO_W_OVERRUN_on_INT2
 3938              		.thumb
ARM GAS  /tmp/ccvV0fnY.s 			page 72


 3939              		.thumb_func
 3940              		.type	LSM6DSM_ACC_GYRO_W_OVERRUN_on_INT2, %function
 3941              	LSM6DSM_ACC_GYRO_W_OVERRUN_on_INT2:
 3942              	.LFB63:
 3943              		.loc 1 1428 0
 3944              		.cfi_startproc
 3945              		@ args = 0, pretend = 0, frame = 16
 3946              		@ frame_needed = 0, uses_anonymous_args = 0
 3947 17a0 00B5     		push	{lr}
 3948              		.cfi_def_cfa_offset 4
 3949              		.cfi_offset 14, -4
 3950 17a2 85B0     		sub	sp, sp, #20
 3951              		.cfi_def_cfa_offset 24
 3952 17a4 0190     		str	r0, [sp, #4]
 3953 17a6 0B46     		mov	r3, r1
 3954 17a8 8DF80330 		strb	r3, [sp, #3]
 3955              		.loc 1 1431 0
 3956 17ac 0DF10F03 		add	r3, sp, #15
 3957 17b0 0198     		ldr	r0, [sp, #4]
 3958 17b2 0E21     		movs	r1, #14
 3959 17b4 1A46     		mov	r2, r3
 3960 17b6 FEF723FC 		bl	LSM6DSM_ACC_GYRO_ReadReg
 3961 17ba 0346     		mov	r3, r0
 3962 17bc 002B     		cmp	r3, #0
 3963 17be 01D1     		bne	.L275
 3964              		.loc 1 1432 0
 3965 17c0 0023     		movs	r3, #0
 3966 17c2 1BE0     		b	.L278
 3967              	.L275:
 3968              		.loc 1 1434 0
 3969 17c4 9DF80F30 		ldrb	r3, [sp, #15]	@ zero_extendqisi2
 3970 17c8 23F01003 		bic	r3, r3, #16
 3971 17cc DBB2     		uxtb	r3, r3
 3972 17ce 8DF80F30 		strb	r3, [sp, #15]
 3973              		.loc 1 1435 0
 3974 17d2 9DF80F20 		ldrb	r2, [sp, #15]	@ zero_extendqisi2
 3975 17d6 9DF80330 		ldrb	r3, [sp, #3]
 3976 17da 1343     		orrs	r3, r3, r2
 3977 17dc DBB2     		uxtb	r3, r3
 3978 17de 8DF80F30 		strb	r3, [sp, #15]
 3979              		.loc 1 1437 0
 3980 17e2 9DF80F30 		ldrb	r3, [sp, #15]	@ zero_extendqisi2
 3981 17e6 0198     		ldr	r0, [sp, #4]
 3982 17e8 0E21     		movs	r1, #14
 3983 17ea 1A46     		mov	r2, r3
 3984 17ec FEF728FC 		bl	LSM6DSM_ACC_GYRO_WriteReg
 3985 17f0 0346     		mov	r3, r0
 3986 17f2 002B     		cmp	r3, #0
 3987 17f4 01D1     		bne	.L277
 3988              		.loc 1 1438 0
 3989 17f6 0023     		movs	r3, #0
 3990 17f8 00E0     		b	.L278
 3991              	.L277:
 3992              		.loc 1 1440 0
 3993 17fa 0123     		movs	r3, #1
 3994              	.L278:
 3995              		.loc 1 1441 0
ARM GAS  /tmp/ccvV0fnY.s 			page 73


 3996 17fc 1846     		mov	r0, r3
 3997 17fe 05B0     		add	sp, sp, #20
 3998              		@ sp needed
 3999 1800 5DF804FB 		ldr	pc, [sp], #4
 4000              		.cfi_endproc
 4001              	.LFE63:
 4002              		.size	LSM6DSM_ACC_GYRO_W_OVERRUN_on_INT2, .-LSM6DSM_ACC_GYRO_W_OVERRUN_on_INT2
 4003              		.align	2
 4004 1804 AFF30080 		.p2align 4,,15
 4004      AFF30080 
 4004      AFF30080 
 4005              		.global	LSM6DSM_ACC_GYRO_R_OVERRUN_on_INT2
 4006              		.thumb
 4007              		.thumb_func
 4008              		.type	LSM6DSM_ACC_GYRO_R_OVERRUN_on_INT2, %function
 4009              	LSM6DSM_ACC_GYRO_R_OVERRUN_on_INT2:
 4010              	.LFB64:
 4011              		.loc 1 1452 0
 4012              		.cfi_startproc
 4013              		@ args = 0, pretend = 0, frame = 8
 4014              		@ frame_needed = 0, uses_anonymous_args = 0
 4015 1810 00B5     		push	{lr}
 4016              		.cfi_def_cfa_offset 4
 4017              		.cfi_offset 14, -4
 4018 1812 83B0     		sub	sp, sp, #12
 4019              		.cfi_def_cfa_offset 16
 4020 1814 0190     		str	r0, [sp, #4]
 4021 1816 0091     		str	r1, [sp]
 4022              		.loc 1 1453 0
 4023 1818 0198     		ldr	r0, [sp, #4]
 4024 181a 0E21     		movs	r1, #14
 4025 181c 009A     		ldr	r2, [sp]
 4026 181e FEF7EFFB 		bl	LSM6DSM_ACC_GYRO_ReadReg
 4027 1822 0346     		mov	r3, r0
 4028 1824 002B     		cmp	r3, #0
 4029 1826 01D1     		bne	.L280
 4030              		.loc 1 1454 0
 4031 1828 0023     		movs	r3, #0
 4032 182a 07E0     		b	.L281
 4033              	.L280:
 4034              		.loc 1 1456 0
 4035 182c 009B     		ldr	r3, [sp]
 4036 182e 1B78     		ldrb	r3, [r3]	@ zero_extendqisi2
 4037 1830 03F01003 		and	r3, r3, #16
 4038 1834 DAB2     		uxtb	r2, r3
 4039 1836 009B     		ldr	r3, [sp]
 4040 1838 1A70     		strb	r2, [r3]
 4041              		.loc 1 1458 0
 4042 183a 0123     		movs	r3, #1
 4043              	.L281:
 4044              		.loc 1 1459 0
 4045 183c 1846     		mov	r0, r3
 4046 183e 03B0     		add	sp, sp, #12
 4047              		@ sp needed
 4048 1840 5DF804FB 		ldr	pc, [sp], #4
 4049              		.cfi_endproc
 4050              	.LFE64:
ARM GAS  /tmp/ccvV0fnY.s 			page 74


 4051              		.size	LSM6DSM_ACC_GYRO_R_OVERRUN_on_INT2, .-LSM6DSM_ACC_GYRO_R_OVERRUN_on_INT2
 4052              		.align	2
 4053 1844 AFF30080 		.p2align 4,,15
 4053      AFF30080 
 4053      AFF30080 
 4054              		.global	LSM6DSM_ACC_GYRO_W_FULL_FLAG_on_INT2
 4055              		.thumb
 4056              		.thumb_func
 4057              		.type	LSM6DSM_ACC_GYRO_W_FULL_FLAG_on_INT2, %function
 4058              	LSM6DSM_ACC_GYRO_W_FULL_FLAG_on_INT2:
 4059              	.LFB65:
 4060              		.loc 1 1468 0
 4061              		.cfi_startproc
 4062              		@ args = 0, pretend = 0, frame = 16
 4063              		@ frame_needed = 0, uses_anonymous_args = 0
 4064 1850 00B5     		push	{lr}
 4065              		.cfi_def_cfa_offset 4
 4066              		.cfi_offset 14, -4
 4067 1852 85B0     		sub	sp, sp, #20
 4068              		.cfi_def_cfa_offset 24
 4069 1854 0190     		str	r0, [sp, #4]
 4070 1856 0B46     		mov	r3, r1
 4071 1858 8DF80330 		strb	r3, [sp, #3]
 4072              		.loc 1 1471 0
 4073 185c 0DF10F03 		add	r3, sp, #15
 4074 1860 0198     		ldr	r0, [sp, #4]
 4075 1862 0E21     		movs	r1, #14
 4076 1864 1A46     		mov	r2, r3
 4077 1866 FEF7CBFB 		bl	LSM6DSM_ACC_GYRO_ReadReg
 4078 186a 0346     		mov	r3, r0
 4079 186c 002B     		cmp	r3, #0
 4080 186e 01D1     		bne	.L283
 4081              		.loc 1 1472 0
 4082 1870 0023     		movs	r3, #0
 4083 1872 1BE0     		b	.L286
 4084              	.L283:
 4085              		.loc 1 1474 0
 4086 1874 9DF80F30 		ldrb	r3, [sp, #15]	@ zero_extendqisi2
 4087 1878 23F02003 		bic	r3, r3, #32
 4088 187c DBB2     		uxtb	r3, r3
 4089 187e 8DF80F30 		strb	r3, [sp, #15]
 4090              		.loc 1 1475 0
 4091 1882 9DF80F20 		ldrb	r2, [sp, #15]	@ zero_extendqisi2
 4092 1886 9DF80330 		ldrb	r3, [sp, #3]
 4093 188a 1343     		orrs	r3, r3, r2
 4094 188c DBB2     		uxtb	r3, r3
 4095 188e 8DF80F30 		strb	r3, [sp, #15]
 4096              		.loc 1 1477 0
 4097 1892 9DF80F30 		ldrb	r3, [sp, #15]	@ zero_extendqisi2
 4098 1896 0198     		ldr	r0, [sp, #4]
 4099 1898 0E21     		movs	r1, #14
 4100 189a 1A46     		mov	r2, r3
 4101 189c FEF7D0FB 		bl	LSM6DSM_ACC_GYRO_WriteReg
 4102 18a0 0346     		mov	r3, r0
 4103 18a2 002B     		cmp	r3, #0
 4104 18a4 01D1     		bne	.L285
 4105              		.loc 1 1478 0
ARM GAS  /tmp/ccvV0fnY.s 			page 75


 4106 18a6 0023     		movs	r3, #0
 4107 18a8 00E0     		b	.L286
 4108              	.L285:
 4109              		.loc 1 1480 0
 4110 18aa 0123     		movs	r3, #1
 4111              	.L286:
 4112              		.loc 1 1481 0
 4113 18ac 1846     		mov	r0, r3
 4114 18ae 05B0     		add	sp, sp, #20
 4115              		@ sp needed
 4116 18b0 5DF804FB 		ldr	pc, [sp], #4
 4117              		.cfi_endproc
 4118              	.LFE65:
 4119              		.size	LSM6DSM_ACC_GYRO_W_FULL_FLAG_on_INT2, .-LSM6DSM_ACC_GYRO_W_FULL_FLAG_on_INT2
 4120              		.align	2
 4121 18b4 AFF30080 		.p2align 4,,15
 4121      AFF30080 
 4121      AFF30080 
 4122              		.global	LSM6DSM_ACC_GYRO_R_FULL_FLAG_on_INT2
 4123              		.thumb
 4124              		.thumb_func
 4125              		.type	LSM6DSM_ACC_GYRO_R_FULL_FLAG_on_INT2, %function
 4126              	LSM6DSM_ACC_GYRO_R_FULL_FLAG_on_INT2:
 4127              	.LFB66:
 4128              		.loc 1 1492 0
 4129              		.cfi_startproc
 4130              		@ args = 0, pretend = 0, frame = 8
 4131              		@ frame_needed = 0, uses_anonymous_args = 0
 4132 18c0 00B5     		push	{lr}
 4133              		.cfi_def_cfa_offset 4
 4134              		.cfi_offset 14, -4
 4135 18c2 83B0     		sub	sp, sp, #12
 4136              		.cfi_def_cfa_offset 16
 4137 18c4 0190     		str	r0, [sp, #4]
 4138 18c6 0091     		str	r1, [sp]
 4139              		.loc 1 1493 0
 4140 18c8 0198     		ldr	r0, [sp, #4]
 4141 18ca 0E21     		movs	r1, #14
 4142 18cc 009A     		ldr	r2, [sp]
 4143 18ce FEF797FB 		bl	LSM6DSM_ACC_GYRO_ReadReg
 4144 18d2 0346     		mov	r3, r0
 4145 18d4 002B     		cmp	r3, #0
 4146 18d6 01D1     		bne	.L288
 4147              		.loc 1 1494 0
 4148 18d8 0023     		movs	r3, #0
 4149 18da 07E0     		b	.L289
 4150              	.L288:
 4151              		.loc 1 1496 0
 4152 18dc 009B     		ldr	r3, [sp]
 4153 18de 1B78     		ldrb	r3, [r3]	@ zero_extendqisi2
 4154 18e0 03F02003 		and	r3, r3, #32
 4155 18e4 DAB2     		uxtb	r2, r3
 4156 18e6 009B     		ldr	r3, [sp]
 4157 18e8 1A70     		strb	r2, [r3]
 4158              		.loc 1 1498 0
 4159 18ea 0123     		movs	r3, #1
 4160              	.L289:
ARM GAS  /tmp/ccvV0fnY.s 			page 76


 4161              		.loc 1 1499 0
 4162 18ec 1846     		mov	r0, r3
 4163 18ee 03B0     		add	sp, sp, #12
 4164              		@ sp needed
 4165 18f0 5DF804FB 		ldr	pc, [sp], #4
 4166              		.cfi_endproc
 4167              	.LFE66:
 4168              		.size	LSM6DSM_ACC_GYRO_R_FULL_FLAG_on_INT2, .-LSM6DSM_ACC_GYRO_R_FULL_FLAG_on_INT2
 4169              		.align	2
 4170 18f4 AFF30080 		.p2align 4,,15
 4170      AFF30080 
 4170      AFF30080 
 4171              		.global	LSM6DSM_ACC_GYRO_W_STEP_COUNT_OV_on_INT2
 4172              		.thumb
 4173              		.thumb_func
 4174              		.type	LSM6DSM_ACC_GYRO_W_STEP_COUNT_OV_on_INT2, %function
 4175              	LSM6DSM_ACC_GYRO_W_STEP_COUNT_OV_on_INT2:
 4176              	.LFB67:
 4177              		.loc 1 1508 0
 4178              		.cfi_startproc
 4179              		@ args = 0, pretend = 0, frame = 16
 4180              		@ frame_needed = 0, uses_anonymous_args = 0
 4181 1900 00B5     		push	{lr}
 4182              		.cfi_def_cfa_offset 4
 4183              		.cfi_offset 14, -4
 4184 1902 85B0     		sub	sp, sp, #20
 4185              		.cfi_def_cfa_offset 24
 4186 1904 0190     		str	r0, [sp, #4]
 4187 1906 0B46     		mov	r3, r1
 4188 1908 8DF80330 		strb	r3, [sp, #3]
 4189              		.loc 1 1511 0
 4190 190c 0DF10F03 		add	r3, sp, #15
 4191 1910 0198     		ldr	r0, [sp, #4]
 4192 1912 0E21     		movs	r1, #14
 4193 1914 1A46     		mov	r2, r3
 4194 1916 FEF773FB 		bl	LSM6DSM_ACC_GYRO_ReadReg
 4195 191a 0346     		mov	r3, r0
 4196 191c 002B     		cmp	r3, #0
 4197 191e 01D1     		bne	.L291
 4198              		.loc 1 1512 0
 4199 1920 0023     		movs	r3, #0
 4200 1922 1BE0     		b	.L294
 4201              	.L291:
 4202              		.loc 1 1514 0
 4203 1924 9DF80F30 		ldrb	r3, [sp, #15]	@ zero_extendqisi2
 4204 1928 23F04003 		bic	r3, r3, #64
 4205 192c DBB2     		uxtb	r3, r3
 4206 192e 8DF80F30 		strb	r3, [sp, #15]
 4207              		.loc 1 1515 0
 4208 1932 9DF80F20 		ldrb	r2, [sp, #15]	@ zero_extendqisi2
 4209 1936 9DF80330 		ldrb	r3, [sp, #3]
 4210 193a 1343     		orrs	r3, r3, r2
 4211 193c DBB2     		uxtb	r3, r3
 4212 193e 8DF80F30 		strb	r3, [sp, #15]
 4213              		.loc 1 1517 0
 4214 1942 9DF80F30 		ldrb	r3, [sp, #15]	@ zero_extendqisi2
 4215 1946 0198     		ldr	r0, [sp, #4]
ARM GAS  /tmp/ccvV0fnY.s 			page 77


 4216 1948 0E21     		movs	r1, #14
 4217 194a 1A46     		mov	r2, r3
 4218 194c FEF778FB 		bl	LSM6DSM_ACC_GYRO_WriteReg
 4219 1950 0346     		mov	r3, r0
 4220 1952 002B     		cmp	r3, #0
 4221 1954 01D1     		bne	.L293
 4222              		.loc 1 1518 0
 4223 1956 0023     		movs	r3, #0
 4224 1958 00E0     		b	.L294
 4225              	.L293:
 4226              		.loc 1 1520 0
 4227 195a 0123     		movs	r3, #1
 4228              	.L294:
 4229              		.loc 1 1521 0
 4230 195c 1846     		mov	r0, r3
 4231 195e 05B0     		add	sp, sp, #20
 4232              		@ sp needed
 4233 1960 5DF804FB 		ldr	pc, [sp], #4
 4234              		.cfi_endproc
 4235              	.LFE67:
 4236              		.size	LSM6DSM_ACC_GYRO_W_STEP_COUNT_OV_on_INT2, .-LSM6DSM_ACC_GYRO_W_STEP_COUNT_OV_on_INT2
 4237              		.align	2
 4238 1964 AFF30080 		.p2align 4,,15
 4238      AFF30080 
 4238      AFF30080 
 4239              		.global	LSM6DSM_ACC_GYRO_R_STEP_COUNT_OV_on_INT2
 4240              		.thumb
 4241              		.thumb_func
 4242              		.type	LSM6DSM_ACC_GYRO_R_STEP_COUNT_OV_on_INT2, %function
 4243              	LSM6DSM_ACC_GYRO_R_STEP_COUNT_OV_on_INT2:
 4244              	.LFB68:
 4245              		.loc 1 1532 0
 4246              		.cfi_startproc
 4247              		@ args = 0, pretend = 0, frame = 8
 4248              		@ frame_needed = 0, uses_anonymous_args = 0
 4249 1970 00B5     		push	{lr}
 4250              		.cfi_def_cfa_offset 4
 4251              		.cfi_offset 14, -4
 4252 1972 83B0     		sub	sp, sp, #12
 4253              		.cfi_def_cfa_offset 16
 4254 1974 0190     		str	r0, [sp, #4]
 4255 1976 0091     		str	r1, [sp]
 4256              		.loc 1 1533 0
 4257 1978 0198     		ldr	r0, [sp, #4]
 4258 197a 0E21     		movs	r1, #14
 4259 197c 009A     		ldr	r2, [sp]
 4260 197e FEF73FFB 		bl	LSM6DSM_ACC_GYRO_ReadReg
 4261 1982 0346     		mov	r3, r0
 4262 1984 002B     		cmp	r3, #0
 4263 1986 01D1     		bne	.L296
 4264              		.loc 1 1534 0
 4265 1988 0023     		movs	r3, #0
 4266 198a 07E0     		b	.L297
 4267              	.L296:
 4268              		.loc 1 1536 0
 4269 198c 009B     		ldr	r3, [sp]
 4270 198e 1B78     		ldrb	r3, [r3]	@ zero_extendqisi2
ARM GAS  /tmp/ccvV0fnY.s 			page 78


 4271 1990 03F04003 		and	r3, r3, #64
 4272 1994 DAB2     		uxtb	r2, r3
 4273 1996 009B     		ldr	r3, [sp]
 4274 1998 1A70     		strb	r2, [r3]
 4275              		.loc 1 1538 0
 4276 199a 0123     		movs	r3, #1
 4277              	.L297:
 4278              		.loc 1 1539 0
 4279 199c 1846     		mov	r0, r3
 4280 199e 03B0     		add	sp, sp, #12
 4281              		@ sp needed
 4282 19a0 5DF804FB 		ldr	pc, [sp], #4
 4283              		.cfi_endproc
 4284              	.LFE68:
 4285              		.size	LSM6DSM_ACC_GYRO_R_STEP_COUNT_OV_on_INT2, .-LSM6DSM_ACC_GYRO_R_STEP_COUNT_OV_on_INT2
 4286              		.align	2
 4287 19a4 AFF30080 		.p2align 4,,15
 4287      AFF30080 
 4287      AFF30080 
 4288              		.global	LSM6DSM_ACC_GYRO_W_STEP_DELTA_on_INT2
 4289              		.thumb
 4290              		.thumb_func
 4291              		.type	LSM6DSM_ACC_GYRO_W_STEP_DELTA_on_INT2, %function
 4292              	LSM6DSM_ACC_GYRO_W_STEP_DELTA_on_INT2:
 4293              	.LFB69:
 4294              		.loc 1 1548 0
 4295              		.cfi_startproc
 4296              		@ args = 0, pretend = 0, frame = 16
 4297              		@ frame_needed = 0, uses_anonymous_args = 0
 4298 19b0 00B5     		push	{lr}
 4299              		.cfi_def_cfa_offset 4
 4300              		.cfi_offset 14, -4
 4301 19b2 85B0     		sub	sp, sp, #20
 4302              		.cfi_def_cfa_offset 24
 4303 19b4 0190     		str	r0, [sp, #4]
 4304 19b6 0B46     		mov	r3, r1
 4305 19b8 8DF80330 		strb	r3, [sp, #3]
 4306              		.loc 1 1551 0
 4307 19bc 0DF10F03 		add	r3, sp, #15
 4308 19c0 0198     		ldr	r0, [sp, #4]
 4309 19c2 0E21     		movs	r1, #14
 4310 19c4 1A46     		mov	r2, r3
 4311 19c6 FEF71BFB 		bl	LSM6DSM_ACC_GYRO_ReadReg
 4312 19ca 0346     		mov	r3, r0
 4313 19cc 002B     		cmp	r3, #0
 4314 19ce 01D1     		bne	.L299
 4315              		.loc 1 1552 0
 4316 19d0 0023     		movs	r3, #0
 4317 19d2 1BE0     		b	.L302
 4318              	.L299:
 4319              		.loc 1 1554 0
 4320 19d4 9DF80F30 		ldrb	r3, [sp, #15]	@ zero_extendqisi2
 4321 19d8 03F07F03 		and	r3, r3, #127
 4322 19dc DBB2     		uxtb	r3, r3
 4323 19de 8DF80F30 		strb	r3, [sp, #15]
 4324              		.loc 1 1555 0
 4325 19e2 9DF80F20 		ldrb	r2, [sp, #15]	@ zero_extendqisi2
ARM GAS  /tmp/ccvV0fnY.s 			page 79


 4326 19e6 9DF80330 		ldrb	r3, [sp, #3]
 4327 19ea 1343     		orrs	r3, r3, r2
 4328 19ec DBB2     		uxtb	r3, r3
 4329 19ee 8DF80F30 		strb	r3, [sp, #15]
 4330              		.loc 1 1557 0
 4331 19f2 9DF80F30 		ldrb	r3, [sp, #15]	@ zero_extendqisi2
 4332 19f6 0198     		ldr	r0, [sp, #4]
 4333 19f8 0E21     		movs	r1, #14
 4334 19fa 1A46     		mov	r2, r3
 4335 19fc FEF720FB 		bl	LSM6DSM_ACC_GYRO_WriteReg
 4336 1a00 0346     		mov	r3, r0
 4337 1a02 002B     		cmp	r3, #0
 4338 1a04 01D1     		bne	.L301
 4339              		.loc 1 1558 0
 4340 1a06 0023     		movs	r3, #0
 4341 1a08 00E0     		b	.L302
 4342              	.L301:
 4343              		.loc 1 1560 0
 4344 1a0a 0123     		movs	r3, #1
 4345              	.L302:
 4346              		.loc 1 1561 0
 4347 1a0c 1846     		mov	r0, r3
 4348 1a0e 05B0     		add	sp, sp, #20
 4349              		@ sp needed
 4350 1a10 5DF804FB 		ldr	pc, [sp], #4
 4351              		.cfi_endproc
 4352              	.LFE69:
 4353              		.size	LSM6DSM_ACC_GYRO_W_STEP_DELTA_on_INT2, .-LSM6DSM_ACC_GYRO_W_STEP_DELTA_on_INT2
 4354              		.align	2
 4355 1a14 AFF30080 		.p2align 4,,15
 4355      AFF30080 
 4355      AFF30080 
 4356              		.global	LSM6DSM_ACC_GYRO_R_STEP_DELTA_on_INT2
 4357              		.thumb
 4358              		.thumb_func
 4359              		.type	LSM6DSM_ACC_GYRO_R_STEP_DELTA_on_INT2, %function
 4360              	LSM6DSM_ACC_GYRO_R_STEP_DELTA_on_INT2:
 4361              	.LFB70:
 4362              		.loc 1 1572 0
 4363              		.cfi_startproc
 4364              		@ args = 0, pretend = 0, frame = 8
 4365              		@ frame_needed = 0, uses_anonymous_args = 0
 4366 1a20 00B5     		push	{lr}
 4367              		.cfi_def_cfa_offset 4
 4368              		.cfi_offset 14, -4
 4369 1a22 83B0     		sub	sp, sp, #12
 4370              		.cfi_def_cfa_offset 16
 4371 1a24 0190     		str	r0, [sp, #4]
 4372 1a26 0091     		str	r1, [sp]
 4373              		.loc 1 1573 0
 4374 1a28 0198     		ldr	r0, [sp, #4]
 4375 1a2a 0E21     		movs	r1, #14
 4376 1a2c 009A     		ldr	r2, [sp]
 4377 1a2e FEF7E7FA 		bl	LSM6DSM_ACC_GYRO_ReadReg
 4378 1a32 0346     		mov	r3, r0
 4379 1a34 002B     		cmp	r3, #0
 4380 1a36 01D1     		bne	.L304
ARM GAS  /tmp/ccvV0fnY.s 			page 80


 4381              		.loc 1 1574 0
 4382 1a38 0023     		movs	r3, #0
 4383 1a3a 07E0     		b	.L305
 4384              	.L304:
 4385              		.loc 1 1576 0
 4386 1a3c 009B     		ldr	r3, [sp]
 4387 1a3e 1B78     		ldrb	r3, [r3]	@ zero_extendqisi2
 4388 1a40 23F07F03 		bic	r3, r3, #127
 4389 1a44 DAB2     		uxtb	r2, r3
 4390 1a46 009B     		ldr	r3, [sp]
 4391 1a48 1A70     		strb	r2, [r3]
 4392              		.loc 1 1578 0
 4393 1a4a 0123     		movs	r3, #1
 4394              	.L305:
 4395              		.loc 1 1579 0
 4396 1a4c 1846     		mov	r0, r3
 4397 1a4e 03B0     		add	sp, sp, #12
 4398              		@ sp needed
 4399 1a50 5DF804FB 		ldr	pc, [sp], #4
 4400              		.cfi_endproc
 4401              	.LFE70:
 4402              		.size	LSM6DSM_ACC_GYRO_R_STEP_DELTA_on_INT2, .-LSM6DSM_ACC_GYRO_R_STEP_DELTA_on_INT2
 4403              		.align	2
 4404 1a54 AFF30080 		.p2align 4,,15
 4404      AFF30080 
 4404      AFF30080 
 4405              		.global	LSM6DSM_ACC_GYRO_R_WHO_AM_I
 4406              		.thumb
 4407              		.thumb_func
 4408              		.type	LSM6DSM_ACC_GYRO_R_WHO_AM_I, %function
 4409              	LSM6DSM_ACC_GYRO_R_WHO_AM_I:
 4410              	.LFB71:
 4411              		.loc 1 1589 0
 4412              		.cfi_startproc
 4413              		@ args = 0, pretend = 0, frame = 8
 4414              		@ frame_needed = 0, uses_anonymous_args = 0
 4415 1a60 00B5     		push	{lr}
 4416              		.cfi_def_cfa_offset 4
 4417              		.cfi_offset 14, -4
 4418 1a62 83B0     		sub	sp, sp, #12
 4419              		.cfi_def_cfa_offset 16
 4420 1a64 0190     		str	r0, [sp, #4]
 4421 1a66 0091     		str	r1, [sp]
 4422              		.loc 1 1590 0
 4423 1a68 0198     		ldr	r0, [sp, #4]
 4424 1a6a 0F21     		movs	r1, #15
 4425 1a6c 009A     		ldr	r2, [sp]
 4426 1a6e FEF7C7FA 		bl	LSM6DSM_ACC_GYRO_ReadReg
 4427 1a72 0346     		mov	r3, r0
 4428 1a74 002B     		cmp	r3, #0
 4429 1a76 01D1     		bne	.L307
 4430              		.loc 1 1591 0
 4431 1a78 0023     		movs	r3, #0
 4432 1a7a 08E0     		b	.L308
 4433              	.L307:
 4434              		.loc 1 1593 0
 4435 1a7c 009B     		ldr	r3, [sp]
ARM GAS  /tmp/ccvV0fnY.s 			page 81


 4436 1a7e 1A78     		ldrb	r2, [r3]	@ zero_extendqisi2
 4437 1a80 009B     		ldr	r3, [sp]
 4438 1a82 1A70     		strb	r2, [r3]
 4439              		.loc 1 1594 0
 4440 1a84 009B     		ldr	r3, [sp]
 4441 1a86 1A78     		ldrb	r2, [r3]	@ zero_extendqisi2
 4442 1a88 009B     		ldr	r3, [sp]
 4443 1a8a 1A70     		strb	r2, [r3]
 4444              		.loc 1 1596 0
 4445 1a8c 0123     		movs	r3, #1
 4446              	.L308:
 4447              		.loc 1 1597 0
 4448 1a8e 1846     		mov	r0, r3
 4449 1a90 03B0     		add	sp, sp, #12
 4450              		@ sp needed
 4451 1a92 5DF804FB 		ldr	pc, [sp], #4
 4452              		.cfi_endproc
 4453              	.LFE71:
 4454              		.size	LSM6DSM_ACC_GYRO_R_WHO_AM_I, .-LSM6DSM_ACC_GYRO_R_WHO_AM_I
 4455 1a96 00BF     		.align	2
 4456 1a98 AFF30080 		.p2align 4,,15
 4456      AFF30080 
 4457              		.global	LSM6DSM_ACC_GYRO_W_BW_SEL
 4458              		.thumb
 4459              		.thumb_func
 4460              		.type	LSM6DSM_ACC_GYRO_W_BW_SEL, %function
 4461              	LSM6DSM_ACC_GYRO_W_BW_SEL:
 4462              	.LFB72:
 4463              		.loc 1 1606 0
 4464              		.cfi_startproc
 4465              		@ args = 0, pretend = 0, frame = 16
 4466              		@ frame_needed = 0, uses_anonymous_args = 0
 4467 1aa0 00B5     		push	{lr}
 4468              		.cfi_def_cfa_offset 4
 4469              		.cfi_offset 14, -4
 4470 1aa2 85B0     		sub	sp, sp, #20
 4471              		.cfi_def_cfa_offset 24
 4472 1aa4 0190     		str	r0, [sp, #4]
 4473 1aa6 0B46     		mov	r3, r1
 4474 1aa8 8DF80330 		strb	r3, [sp, #3]
 4475              		.loc 1 1609 0
 4476 1aac 0DF10F03 		add	r3, sp, #15
 4477 1ab0 0198     		ldr	r0, [sp, #4]
 4478 1ab2 1021     		movs	r1, #16
 4479 1ab4 1A46     		mov	r2, r3
 4480 1ab6 FEF7A3FA 		bl	LSM6DSM_ACC_GYRO_ReadReg
 4481 1aba 0346     		mov	r3, r0
 4482 1abc 002B     		cmp	r3, #0
 4483 1abe 01D1     		bne	.L310
 4484              		.loc 1 1610 0
 4485 1ac0 0023     		movs	r3, #0
 4486 1ac2 1BE0     		b	.L313
 4487              	.L310:
 4488              		.loc 1 1612 0
 4489 1ac4 9DF80F30 		ldrb	r3, [sp, #15]	@ zero_extendqisi2
 4490 1ac8 23F00203 		bic	r3, r3, #2
 4491 1acc DBB2     		uxtb	r3, r3
ARM GAS  /tmp/ccvV0fnY.s 			page 82


 4492 1ace 8DF80F30 		strb	r3, [sp, #15]
 4493              		.loc 1 1613 0
 4494 1ad2 9DF80F20 		ldrb	r2, [sp, #15]	@ zero_extendqisi2
 4495 1ad6 9DF80330 		ldrb	r3, [sp, #3]
 4496 1ada 1343     		orrs	r3, r3, r2
 4497 1adc DBB2     		uxtb	r3, r3
 4498 1ade 8DF80F30 		strb	r3, [sp, #15]
 4499              		.loc 1 1615 0
 4500 1ae2 9DF80F30 		ldrb	r3, [sp, #15]	@ zero_extendqisi2
 4501 1ae6 0198     		ldr	r0, [sp, #4]
 4502 1ae8 1021     		movs	r1, #16
 4503 1aea 1A46     		mov	r2, r3
 4504 1aec FEF7A8FA 		bl	LSM6DSM_ACC_GYRO_WriteReg
 4505 1af0 0346     		mov	r3, r0
 4506 1af2 002B     		cmp	r3, #0
 4507 1af4 01D1     		bne	.L312
 4508              		.loc 1 1616 0
 4509 1af6 0023     		movs	r3, #0
 4510 1af8 00E0     		b	.L313
 4511              	.L312:
 4512              		.loc 1 1618 0
 4513 1afa 0123     		movs	r3, #1
 4514              	.L313:
 4515              		.loc 1 1619 0
 4516 1afc 1846     		mov	r0, r3
 4517 1afe 05B0     		add	sp, sp, #20
 4518              		@ sp needed
 4519 1b00 5DF804FB 		ldr	pc, [sp], #4
 4520              		.cfi_endproc
 4521              	.LFE72:
 4522              		.size	LSM6DSM_ACC_GYRO_W_BW_SEL, .-LSM6DSM_ACC_GYRO_W_BW_SEL
 4523              		.align	2
 4524 1b04 AFF30080 		.p2align 4,,15
 4524      AFF30080 
 4524      AFF30080 
 4525              		.global	LSM6DSM_ACC_GYRO_R_BW_SEL
 4526              		.thumb
 4527              		.thumb_func
 4528              		.type	LSM6DSM_ACC_GYRO_R_BW_SEL, %function
 4529              	LSM6DSM_ACC_GYRO_R_BW_SEL:
 4530              	.LFB73:
 4531              		.loc 1 1630 0
 4532              		.cfi_startproc
 4533              		@ args = 0, pretend = 0, frame = 8
 4534              		@ frame_needed = 0, uses_anonymous_args = 0
 4535 1b10 00B5     		push	{lr}
 4536              		.cfi_def_cfa_offset 4
 4537              		.cfi_offset 14, -4
 4538 1b12 83B0     		sub	sp, sp, #12
 4539              		.cfi_def_cfa_offset 16
 4540 1b14 0190     		str	r0, [sp, #4]
 4541 1b16 0091     		str	r1, [sp]
 4542              		.loc 1 1631 0
 4543 1b18 0198     		ldr	r0, [sp, #4]
 4544 1b1a 1021     		movs	r1, #16
 4545 1b1c 009A     		ldr	r2, [sp]
 4546 1b1e FEF76FFA 		bl	LSM6DSM_ACC_GYRO_ReadReg
ARM GAS  /tmp/ccvV0fnY.s 			page 83


 4547 1b22 0346     		mov	r3, r0
 4548 1b24 002B     		cmp	r3, #0
 4549 1b26 01D1     		bne	.L315
 4550              		.loc 1 1632 0
 4551 1b28 0023     		movs	r3, #0
 4552 1b2a 07E0     		b	.L316
 4553              	.L315:
 4554              		.loc 1 1634 0
 4555 1b2c 009B     		ldr	r3, [sp]
 4556 1b2e 1B78     		ldrb	r3, [r3]	@ zero_extendqisi2
 4557 1b30 03F00203 		and	r3, r3, #2
 4558 1b34 DAB2     		uxtb	r2, r3
 4559 1b36 009B     		ldr	r3, [sp]
 4560 1b38 1A70     		strb	r2, [r3]
 4561              		.loc 1 1636 0
 4562 1b3a 0123     		movs	r3, #1
 4563              	.L316:
 4564              		.loc 1 1637 0
 4565 1b3c 1846     		mov	r0, r3
 4566 1b3e 03B0     		add	sp, sp, #12
 4567              		@ sp needed
 4568 1b40 5DF804FB 		ldr	pc, [sp], #4
 4569              		.cfi_endproc
 4570              	.LFE73:
 4571              		.size	LSM6DSM_ACC_GYRO_R_BW_SEL, .-LSM6DSM_ACC_GYRO_R_BW_SEL
 4572              		.align	2
 4573 1b44 AFF30080 		.p2align 4,,15
 4573      AFF30080 
 4573      AFF30080 
 4574              		.global	LSM6DSM_ACC_GYRO_W_FS_XL
 4575              		.thumb
 4576              		.thumb_func
 4577              		.type	LSM6DSM_ACC_GYRO_W_FS_XL, %function
 4578              	LSM6DSM_ACC_GYRO_W_FS_XL:
 4579              	.LFB74:
 4580              		.loc 1 1646 0
 4581              		.cfi_startproc
 4582              		@ args = 0, pretend = 0, frame = 16
 4583              		@ frame_needed = 0, uses_anonymous_args = 0
 4584 1b50 00B5     		push	{lr}
 4585              		.cfi_def_cfa_offset 4
 4586              		.cfi_offset 14, -4
 4587 1b52 85B0     		sub	sp, sp, #20
 4588              		.cfi_def_cfa_offset 24
 4589 1b54 0190     		str	r0, [sp, #4]
 4590 1b56 0B46     		mov	r3, r1
 4591 1b58 8DF80330 		strb	r3, [sp, #3]
 4592              		.loc 1 1649 0
 4593 1b5c 0DF10F03 		add	r3, sp, #15
 4594 1b60 0198     		ldr	r0, [sp, #4]
 4595 1b62 1021     		movs	r1, #16
 4596 1b64 1A46     		mov	r2, r3
 4597 1b66 FEF74BFA 		bl	LSM6DSM_ACC_GYRO_ReadReg
 4598 1b6a 0346     		mov	r3, r0
 4599 1b6c 002B     		cmp	r3, #0
 4600 1b6e 01D1     		bne	.L318
 4601              		.loc 1 1650 0
ARM GAS  /tmp/ccvV0fnY.s 			page 84


 4602 1b70 0023     		movs	r3, #0
 4603 1b72 1BE0     		b	.L321
 4604              	.L318:
 4605              		.loc 1 1652 0
 4606 1b74 9DF80F30 		ldrb	r3, [sp, #15]	@ zero_extendqisi2
 4607 1b78 23F00C03 		bic	r3, r3, #12
 4608 1b7c DBB2     		uxtb	r3, r3
 4609 1b7e 8DF80F30 		strb	r3, [sp, #15]
 4610              		.loc 1 1653 0
 4611 1b82 9DF80F20 		ldrb	r2, [sp, #15]	@ zero_extendqisi2
 4612 1b86 9DF80330 		ldrb	r3, [sp, #3]
 4613 1b8a 1343     		orrs	r3, r3, r2
 4614 1b8c DBB2     		uxtb	r3, r3
 4615 1b8e 8DF80F30 		strb	r3, [sp, #15]
 4616              		.loc 1 1655 0
 4617 1b92 9DF80F30 		ldrb	r3, [sp, #15]	@ zero_extendqisi2
 4618 1b96 0198     		ldr	r0, [sp, #4]
 4619 1b98 1021     		movs	r1, #16
 4620 1b9a 1A46     		mov	r2, r3
 4621 1b9c FEF750FA 		bl	LSM6DSM_ACC_GYRO_WriteReg
 4622 1ba0 0346     		mov	r3, r0
 4623 1ba2 002B     		cmp	r3, #0
 4624 1ba4 01D1     		bne	.L320
 4625              		.loc 1 1656 0
 4626 1ba6 0023     		movs	r3, #0
 4627 1ba8 00E0     		b	.L321
 4628              	.L320:
 4629              		.loc 1 1658 0
 4630 1baa 0123     		movs	r3, #1
 4631              	.L321:
 4632              		.loc 1 1659 0
 4633 1bac 1846     		mov	r0, r3
 4634 1bae 05B0     		add	sp, sp, #20
 4635              		@ sp needed
 4636 1bb0 5DF804FB 		ldr	pc, [sp], #4
 4637              		.cfi_endproc
 4638              	.LFE74:
 4639              		.size	LSM6DSM_ACC_GYRO_W_FS_XL, .-LSM6DSM_ACC_GYRO_W_FS_XL
 4640              		.align	2
 4641 1bb4 AFF30080 		.p2align 4,,15
 4641      AFF30080 
 4641      AFF30080 
 4642              		.global	LSM6DSM_ACC_GYRO_R_FS_XL
 4643              		.thumb
 4644              		.thumb_func
 4645              		.type	LSM6DSM_ACC_GYRO_R_FS_XL, %function
 4646              	LSM6DSM_ACC_GYRO_R_FS_XL:
 4647              	.LFB75:
 4648              		.loc 1 1670 0
 4649              		.cfi_startproc
 4650              		@ args = 0, pretend = 0, frame = 8
 4651              		@ frame_needed = 0, uses_anonymous_args = 0
 4652 1bc0 00B5     		push	{lr}
 4653              		.cfi_def_cfa_offset 4
 4654              		.cfi_offset 14, -4
 4655 1bc2 83B0     		sub	sp, sp, #12
 4656              		.cfi_def_cfa_offset 16
ARM GAS  /tmp/ccvV0fnY.s 			page 85


 4657 1bc4 0190     		str	r0, [sp, #4]
 4658 1bc6 0091     		str	r1, [sp]
 4659              		.loc 1 1671 0
 4660 1bc8 0198     		ldr	r0, [sp, #4]
 4661 1bca 1021     		movs	r1, #16
 4662 1bcc 009A     		ldr	r2, [sp]
 4663 1bce FEF717FA 		bl	LSM6DSM_ACC_GYRO_ReadReg
 4664 1bd2 0346     		mov	r3, r0
 4665 1bd4 002B     		cmp	r3, #0
 4666 1bd6 01D1     		bne	.L323
 4667              		.loc 1 1672 0
 4668 1bd8 0023     		movs	r3, #0
 4669 1bda 07E0     		b	.L324
 4670              	.L323:
 4671              		.loc 1 1674 0
 4672 1bdc 009B     		ldr	r3, [sp]
 4673 1bde 1B78     		ldrb	r3, [r3]	@ zero_extendqisi2
 4674 1be0 03F00C03 		and	r3, r3, #12
 4675 1be4 DAB2     		uxtb	r2, r3
 4676 1be6 009B     		ldr	r3, [sp]
 4677 1be8 1A70     		strb	r2, [r3]
 4678              		.loc 1 1676 0
 4679 1bea 0123     		movs	r3, #1
 4680              	.L324:
 4681              		.loc 1 1677 0
 4682 1bec 1846     		mov	r0, r3
 4683 1bee 03B0     		add	sp, sp, #12
 4684              		@ sp needed
 4685 1bf0 5DF804FB 		ldr	pc, [sp], #4
 4686              		.cfi_endproc
 4687              	.LFE75:
 4688              		.size	LSM6DSM_ACC_GYRO_R_FS_XL, .-LSM6DSM_ACC_GYRO_R_FS_XL
 4689              		.align	2
 4690 1bf4 AFF30080 		.p2align 4,,15
 4690      AFF30080 
 4690      AFF30080 
 4691              		.global	LSM6DSM_ACC_GYRO_W_ODR_XL
 4692              		.thumb
 4693              		.thumb_func
 4694              		.type	LSM6DSM_ACC_GYRO_W_ODR_XL, %function
 4695              	LSM6DSM_ACC_GYRO_W_ODR_XL:
 4696              	.LFB76:
 4697              		.loc 1 1686 0
 4698              		.cfi_startproc
 4699              		@ args = 0, pretend = 0, frame = 16
 4700              		@ frame_needed = 0, uses_anonymous_args = 0
 4701 1c00 00B5     		push	{lr}
 4702              		.cfi_def_cfa_offset 4
 4703              		.cfi_offset 14, -4
 4704 1c02 85B0     		sub	sp, sp, #20
 4705              		.cfi_def_cfa_offset 24
 4706 1c04 0190     		str	r0, [sp, #4]
 4707 1c06 0B46     		mov	r3, r1
 4708 1c08 8DF80330 		strb	r3, [sp, #3]
 4709              		.loc 1 1689 0
 4710 1c0c 0DF10F03 		add	r3, sp, #15
 4711 1c10 0198     		ldr	r0, [sp, #4]
ARM GAS  /tmp/ccvV0fnY.s 			page 86


 4712 1c12 1021     		movs	r1, #16
 4713 1c14 1A46     		mov	r2, r3
 4714 1c16 FEF7F3F9 		bl	LSM6DSM_ACC_GYRO_ReadReg
 4715 1c1a 0346     		mov	r3, r0
 4716 1c1c 002B     		cmp	r3, #0
 4717 1c1e 01D1     		bne	.L326
 4718              		.loc 1 1690 0
 4719 1c20 0023     		movs	r3, #0
 4720 1c22 1BE0     		b	.L329
 4721              	.L326:
 4722              		.loc 1 1692 0
 4723 1c24 9DF80F30 		ldrb	r3, [sp, #15]	@ zero_extendqisi2
 4724 1c28 03F00F03 		and	r3, r3, #15
 4725 1c2c DBB2     		uxtb	r3, r3
 4726 1c2e 8DF80F30 		strb	r3, [sp, #15]
 4727              		.loc 1 1693 0
 4728 1c32 9DF80F20 		ldrb	r2, [sp, #15]	@ zero_extendqisi2
 4729 1c36 9DF80330 		ldrb	r3, [sp, #3]
 4730 1c3a 1343     		orrs	r3, r3, r2
 4731 1c3c DBB2     		uxtb	r3, r3
 4732 1c3e 8DF80F30 		strb	r3, [sp, #15]
 4733              		.loc 1 1695 0
 4734 1c42 9DF80F30 		ldrb	r3, [sp, #15]	@ zero_extendqisi2
 4735 1c46 0198     		ldr	r0, [sp, #4]
 4736 1c48 1021     		movs	r1, #16
 4737 1c4a 1A46     		mov	r2, r3
 4738 1c4c FEF7F8F9 		bl	LSM6DSM_ACC_GYRO_WriteReg
 4739 1c50 0346     		mov	r3, r0
 4740 1c52 002B     		cmp	r3, #0
 4741 1c54 01D1     		bne	.L328
 4742              		.loc 1 1696 0
 4743 1c56 0023     		movs	r3, #0
 4744 1c58 00E0     		b	.L329
 4745              	.L328:
 4746              		.loc 1 1698 0
 4747 1c5a 0123     		movs	r3, #1
 4748              	.L329:
 4749              		.loc 1 1699 0
 4750 1c5c 1846     		mov	r0, r3
 4751 1c5e 05B0     		add	sp, sp, #20
 4752              		@ sp needed
 4753 1c60 5DF804FB 		ldr	pc, [sp], #4
 4754              		.cfi_endproc
 4755              	.LFE76:
 4756              		.size	LSM6DSM_ACC_GYRO_W_ODR_XL, .-LSM6DSM_ACC_GYRO_W_ODR_XL
 4757              		.align	2
 4758 1c64 AFF30080 		.p2align 4,,15
 4758      AFF30080 
 4758      AFF30080 
 4759              		.global	LSM6DSM_ACC_GYRO_R_ODR_XL
 4760              		.thumb
 4761              		.thumb_func
 4762              		.type	LSM6DSM_ACC_GYRO_R_ODR_XL, %function
 4763              	LSM6DSM_ACC_GYRO_R_ODR_XL:
 4764              	.LFB77:
 4765              		.loc 1 1710 0
 4766              		.cfi_startproc
ARM GAS  /tmp/ccvV0fnY.s 			page 87


 4767              		@ args = 0, pretend = 0, frame = 8
 4768              		@ frame_needed = 0, uses_anonymous_args = 0
 4769 1c70 00B5     		push	{lr}
 4770              		.cfi_def_cfa_offset 4
 4771              		.cfi_offset 14, -4
 4772 1c72 83B0     		sub	sp, sp, #12
 4773              		.cfi_def_cfa_offset 16
 4774 1c74 0190     		str	r0, [sp, #4]
 4775 1c76 0091     		str	r1, [sp]
 4776              		.loc 1 1711 0
 4777 1c78 0198     		ldr	r0, [sp, #4]
 4778 1c7a 1021     		movs	r1, #16
 4779 1c7c 009A     		ldr	r2, [sp]
 4780 1c7e FEF7BFF9 		bl	LSM6DSM_ACC_GYRO_ReadReg
 4781 1c82 0346     		mov	r3, r0
 4782 1c84 002B     		cmp	r3, #0
 4783 1c86 01D1     		bne	.L331
 4784              		.loc 1 1712 0
 4785 1c88 0023     		movs	r3, #0
 4786 1c8a 07E0     		b	.L332
 4787              	.L331:
 4788              		.loc 1 1714 0
 4789 1c8c 009B     		ldr	r3, [sp]
 4790 1c8e 1B78     		ldrb	r3, [r3]	@ zero_extendqisi2
 4791 1c90 23F00F03 		bic	r3, r3, #15
 4792 1c94 DAB2     		uxtb	r2, r3
 4793 1c96 009B     		ldr	r3, [sp]
 4794 1c98 1A70     		strb	r2, [r3]
 4795              		.loc 1 1716 0
 4796 1c9a 0123     		movs	r3, #1
 4797              	.L332:
 4798              		.loc 1 1717 0
 4799 1c9c 1846     		mov	r0, r3
 4800 1c9e 03B0     		add	sp, sp, #12
 4801              		@ sp needed
 4802 1ca0 5DF804FB 		ldr	pc, [sp], #4
 4803              		.cfi_endproc
 4804              	.LFE77:
 4805              		.size	LSM6DSM_ACC_GYRO_R_ODR_XL, .-LSM6DSM_ACC_GYRO_R_ODR_XL
 4806              		.align	2
 4807 1ca4 AFF30080 		.p2align 4,,15
 4807      AFF30080 
 4807      AFF30080 
 4808              		.global	LSM6DSM_ACC_GYRO_translate_ODR_XL
 4809              		.thumb
 4810              		.thumb_func
 4811              		.type	LSM6DSM_ACC_GYRO_translate_ODR_XL, %function
 4812              	LSM6DSM_ACC_GYRO_translate_ODR_XL:
 4813              	.LFB78:
 4814              		.loc 1 1720 0
 4815              		.cfi_startproc
 4816              		@ args = 0, pretend = 0, frame = 8
 4817              		@ frame_needed = 0, uses_anonymous_args = 0
 4818              		@ link register save eliminated.
 4819 1cb0 82B0     		sub	sp, sp, #8
 4820              		.cfi_def_cfa_offset 8
 4821 1cb2 0346     		mov	r3, r0
ARM GAS  /tmp/ccvV0fnY.s 			page 88


 4822 1cb4 0091     		str	r1, [sp]
 4823 1cb6 8DF80730 		strb	r3, [sp, #7]
 4824              		.loc 1 1721 0
 4825 1cba 9DF80730 		ldrb	r3, [sp, #7]	@ zero_extendqisi2
 4826 1cbe 402B     		cmp	r3, #64
 4827 1cc0 29D0     		beq	.L335
 4828 1cc2 402B     		cmp	r3, #64
 4829 1cc4 0BDC     		bgt	.L336
 4830 1cc6 102B     		cmp	r3, #16
 4831 1cc8 19D0     		beq	.L337
 4832 1cca 102B     		cmp	r3, #16
 4833 1ccc 02DC     		bgt	.L338
 4834 1cce 002B     		cmp	r3, #0
 4835 1cd0 11D0     		beq	.L339
 4836 1cd2 37E0     		b	.L334
 4837              	.L338:
 4838 1cd4 202B     		cmp	r3, #32
 4839 1cd6 16D0     		beq	.L340
 4840 1cd8 302B     		cmp	r3, #48
 4841 1cda 18D0     		beq	.L341
 4842 1cdc 32E0     		b	.L334
 4843              	.L336:
 4844 1cde 602B     		cmp	r3, #96
 4845 1ce0 21D0     		beq	.L342
 4846 1ce2 602B     		cmp	r3, #96
 4847 1ce4 02DC     		bgt	.L343
 4848 1ce6 502B     		cmp	r3, #80
 4849 1ce8 19D0     		beq	.L344
 4850 1cea 2BE0     		b	.L334
 4851              	.L343:
 4852 1cec 702B     		cmp	r3, #112
 4853 1cee 1FD0     		beq	.L345
 4854 1cf0 802B     		cmp	r3, #128
 4855 1cf2 22D0     		beq	.L346
 4856 1cf4 26E0     		b	.L334
 4857              	.L339:
 4858              		.loc 1 1723 0
 4859 1cf6 009B     		ldr	r3, [sp]
 4860 1cf8 0022     		movs	r2, #0
 4861 1cfa 1A80     		strh	r2, [r3]	@ movhi
 4862              		.loc 1 1724 0
 4863 1cfc 24E0     		b	.L347
 4864              	.L337:
 4865              		.loc 1 1727 0
 4866 1cfe 009B     		ldr	r3, [sp]
 4867 1d00 0D22     		movs	r2, #13
 4868 1d02 1A80     		strh	r2, [r3]	@ movhi
 4869              		.loc 1 1728 0
 4870 1d04 20E0     		b	.L347
 4871              	.L340:
 4872              		.loc 1 1731 0
 4873 1d06 009B     		ldr	r3, [sp]
 4874 1d08 1A22     		movs	r2, #26
 4875 1d0a 1A80     		strh	r2, [r3]	@ movhi
 4876              		.loc 1 1732 0
 4877 1d0c 1CE0     		b	.L347
 4878              	.L341:
ARM GAS  /tmp/ccvV0fnY.s 			page 89


 4879              		.loc 1 1735 0
 4880 1d0e 009B     		ldr	r3, [sp]
 4881 1d10 3422     		movs	r2, #52
 4882 1d12 1A80     		strh	r2, [r3]	@ movhi
 4883              		.loc 1 1736 0
 4884 1d14 18E0     		b	.L347
 4885              	.L335:
 4886              		.loc 1 1739 0
 4887 1d16 009B     		ldr	r3, [sp]
 4888 1d18 6822     		movs	r2, #104
 4889 1d1a 1A80     		strh	r2, [r3]	@ movhi
 4890              		.loc 1 1740 0
 4891 1d1c 14E0     		b	.L347
 4892              	.L344:
 4893              		.loc 1 1743 0
 4894 1d1e 009B     		ldr	r3, [sp]
 4895 1d20 D022     		movs	r2, #208
 4896 1d22 1A80     		strh	r2, [r3]	@ movhi
 4897              		.loc 1 1744 0
 4898 1d24 10E0     		b	.L347
 4899              	.L342:
 4900              		.loc 1 1747 0
 4901 1d26 009B     		ldr	r3, [sp]
 4902 1d28 4FF4D072 		mov	r2, #416
 4903 1d2c 1A80     		strh	r2, [r3]	@ movhi
 4904              		.loc 1 1748 0
 4905 1d2e 0BE0     		b	.L347
 4906              	.L345:
 4907              		.loc 1 1751 0
 4908 1d30 009B     		ldr	r3, [sp]
 4909 1d32 40F24132 		movw	r2, #833
 4910 1d36 1A80     		strh	r2, [r3]	@ movhi
 4911              		.loc 1 1752 0
 4912 1d38 06E0     		b	.L347
 4913              	.L346:
 4914              		.loc 1 1755 0
 4915 1d3a 009B     		ldr	r3, [sp]
 4916 1d3c 40F27C62 		movw	r2, #1660
 4917 1d40 1A80     		strh	r2, [r3]	@ movhi
 4918              		.loc 1 1756 0
 4919 1d42 01E0     		b	.L347
 4920              	.L334:
 4921              		.loc 1 1759 0
 4922 1d44 0023     		movs	r3, #0
 4923 1d46 00E0     		b	.L348
 4924              	.L347:
 4925              		.loc 1 1762 0
 4926 1d48 0123     		movs	r3, #1
 4927              	.L348:
 4928              		.loc 1 1763 0
 4929 1d4a 1846     		mov	r0, r3
 4930 1d4c 02B0     		add	sp, sp, #8
 4931              		@ sp needed
 4932 1d4e 7047     		bx	lr
 4933              		.cfi_endproc
 4934              	.LFE78:
 4935              		.size	LSM6DSM_ACC_GYRO_translate_ODR_XL, .-LSM6DSM_ACC_GYRO_translate_ODR_XL
ARM GAS  /tmp/ccvV0fnY.s 			page 90


 4936              		.align	2
 4937              		.p2align 4,,15
 4938              		.global	LSM6DSM_ACC_GYRO_W_FS_125
 4939              		.thumb
 4940              		.thumb_func
 4941              		.type	LSM6DSM_ACC_GYRO_W_FS_125, %function
 4942              	LSM6DSM_ACC_GYRO_W_FS_125:
 4943              	.LFB79:
 4944              		.loc 1 1773 0
 4945              		.cfi_startproc
 4946              		@ args = 0, pretend = 0, frame = 16
 4947              		@ frame_needed = 0, uses_anonymous_args = 0
 4948 1d50 00B5     		push	{lr}
 4949              		.cfi_def_cfa_offset 4
 4950              		.cfi_offset 14, -4
 4951 1d52 85B0     		sub	sp, sp, #20
 4952              		.cfi_def_cfa_offset 24
 4953 1d54 0190     		str	r0, [sp, #4]
 4954 1d56 0B46     		mov	r3, r1
 4955 1d58 8DF80330 		strb	r3, [sp, #3]
 4956              		.loc 1 1776 0
 4957 1d5c 0DF10F03 		add	r3, sp, #15
 4958 1d60 0198     		ldr	r0, [sp, #4]
 4959 1d62 1121     		movs	r1, #17
 4960 1d64 1A46     		mov	r2, r3
 4961 1d66 FEF74BF9 		bl	LSM6DSM_ACC_GYRO_ReadReg
 4962 1d6a 0346     		mov	r3, r0
 4963 1d6c 002B     		cmp	r3, #0
 4964 1d6e 01D1     		bne	.L350
 4965              		.loc 1 1777 0
 4966 1d70 0023     		movs	r3, #0
 4967 1d72 1BE0     		b	.L353
 4968              	.L350:
 4969              		.loc 1 1779 0
 4970 1d74 9DF80F30 		ldrb	r3, [sp, #15]	@ zero_extendqisi2
 4971 1d78 23F00203 		bic	r3, r3, #2
 4972 1d7c DBB2     		uxtb	r3, r3
 4973 1d7e 8DF80F30 		strb	r3, [sp, #15]
 4974              		.loc 1 1780 0
 4975 1d82 9DF80F20 		ldrb	r2, [sp, #15]	@ zero_extendqisi2
 4976 1d86 9DF80330 		ldrb	r3, [sp, #3]
 4977 1d8a 1343     		orrs	r3, r3, r2
 4978 1d8c DBB2     		uxtb	r3, r3
 4979 1d8e 8DF80F30 		strb	r3, [sp, #15]
 4980              		.loc 1 1782 0
 4981 1d92 9DF80F30 		ldrb	r3, [sp, #15]	@ zero_extendqisi2
 4982 1d96 0198     		ldr	r0, [sp, #4]
 4983 1d98 1121     		movs	r1, #17
 4984 1d9a 1A46     		mov	r2, r3
 4985 1d9c FEF750F9 		bl	LSM6DSM_ACC_GYRO_WriteReg
 4986 1da0 0346     		mov	r3, r0
 4987 1da2 002B     		cmp	r3, #0
 4988 1da4 01D1     		bne	.L352
 4989              		.loc 1 1783 0
 4990 1da6 0023     		movs	r3, #0
 4991 1da8 00E0     		b	.L353
 4992              	.L352:
ARM GAS  /tmp/ccvV0fnY.s 			page 91


 4993              		.loc 1 1785 0
 4994 1daa 0123     		movs	r3, #1
 4995              	.L353:
 4996              		.loc 1 1786 0
 4997 1dac 1846     		mov	r0, r3
 4998 1dae 05B0     		add	sp, sp, #20
 4999              		@ sp needed
 5000 1db0 5DF804FB 		ldr	pc, [sp], #4
 5001              		.cfi_endproc
 5002              	.LFE79:
 5003              		.size	LSM6DSM_ACC_GYRO_W_FS_125, .-LSM6DSM_ACC_GYRO_W_FS_125
 5004              		.align	2
 5005 1db4 AFF30080 		.p2align 4,,15
 5005      AFF30080 
 5005      AFF30080 
 5006              		.global	LSM6DSM_ACC_GYRO_R_FS_125
 5007              		.thumb
 5008              		.thumb_func
 5009              		.type	LSM6DSM_ACC_GYRO_R_FS_125, %function
 5010              	LSM6DSM_ACC_GYRO_R_FS_125:
 5011              	.LFB80:
 5012              		.loc 1 1797 0
 5013              		.cfi_startproc
 5014              		@ args = 0, pretend = 0, frame = 8
 5015              		@ frame_needed = 0, uses_anonymous_args = 0
 5016 1dc0 00B5     		push	{lr}
 5017              		.cfi_def_cfa_offset 4
 5018              		.cfi_offset 14, -4
 5019 1dc2 83B0     		sub	sp, sp, #12
 5020              		.cfi_def_cfa_offset 16
 5021 1dc4 0190     		str	r0, [sp, #4]
 5022 1dc6 0091     		str	r1, [sp]
 5023              		.loc 1 1798 0
 5024 1dc8 0198     		ldr	r0, [sp, #4]
 5025 1dca 1121     		movs	r1, #17
 5026 1dcc 009A     		ldr	r2, [sp]
 5027 1dce FEF717F9 		bl	LSM6DSM_ACC_GYRO_ReadReg
 5028 1dd2 0346     		mov	r3, r0
 5029 1dd4 002B     		cmp	r3, #0
 5030 1dd6 01D1     		bne	.L355
 5031              		.loc 1 1799 0
 5032 1dd8 0023     		movs	r3, #0
 5033 1dda 07E0     		b	.L356
 5034              	.L355:
 5035              		.loc 1 1801 0
 5036 1ddc 009B     		ldr	r3, [sp]
 5037 1dde 1B78     		ldrb	r3, [r3]	@ zero_extendqisi2
 5038 1de0 03F00203 		and	r3, r3, #2
 5039 1de4 DAB2     		uxtb	r2, r3
 5040 1de6 009B     		ldr	r3, [sp]
 5041 1de8 1A70     		strb	r2, [r3]
 5042              		.loc 1 1803 0
 5043 1dea 0123     		movs	r3, #1
 5044              	.L356:
 5045              		.loc 1 1804 0
 5046 1dec 1846     		mov	r0, r3
 5047 1dee 03B0     		add	sp, sp, #12
ARM GAS  /tmp/ccvV0fnY.s 			page 92


 5048              		@ sp needed
 5049 1df0 5DF804FB 		ldr	pc, [sp], #4
 5050              		.cfi_endproc
 5051              	.LFE80:
 5052              		.size	LSM6DSM_ACC_GYRO_R_FS_125, .-LSM6DSM_ACC_GYRO_R_FS_125
 5053              		.align	2
 5054 1df4 AFF30080 		.p2align 4,,15
 5054      AFF30080 
 5054      AFF30080 
 5055              		.global	LSM6DSM_ACC_GYRO_W_FS_G
 5056              		.thumb
 5057              		.thumb_func
 5058              		.type	LSM6DSM_ACC_GYRO_W_FS_G, %function
 5059              	LSM6DSM_ACC_GYRO_W_FS_G:
 5060              	.LFB81:
 5061              		.loc 1 1813 0
 5062              		.cfi_startproc
 5063              		@ args = 0, pretend = 0, frame = 16
 5064              		@ frame_needed = 0, uses_anonymous_args = 0
 5065 1e00 00B5     		push	{lr}
 5066              		.cfi_def_cfa_offset 4
 5067              		.cfi_offset 14, -4
 5068 1e02 85B0     		sub	sp, sp, #20
 5069              		.cfi_def_cfa_offset 24
 5070 1e04 0190     		str	r0, [sp, #4]
 5071 1e06 0B46     		mov	r3, r1
 5072 1e08 8DF80330 		strb	r3, [sp, #3]
 5073              		.loc 1 1816 0
 5074 1e0c 0DF10F03 		add	r3, sp, #15
 5075 1e10 0198     		ldr	r0, [sp, #4]
 5076 1e12 1121     		movs	r1, #17
 5077 1e14 1A46     		mov	r2, r3
 5078 1e16 FEF7F3F8 		bl	LSM6DSM_ACC_GYRO_ReadReg
 5079 1e1a 0346     		mov	r3, r0
 5080 1e1c 002B     		cmp	r3, #0
 5081 1e1e 01D1     		bne	.L358
 5082              		.loc 1 1817 0
 5083 1e20 0023     		movs	r3, #0
 5084 1e22 1BE0     		b	.L361
 5085              	.L358:
 5086              		.loc 1 1819 0
 5087 1e24 9DF80F30 		ldrb	r3, [sp, #15]	@ zero_extendqisi2
 5088 1e28 23F00C03 		bic	r3, r3, #12
 5089 1e2c DBB2     		uxtb	r3, r3
 5090 1e2e 8DF80F30 		strb	r3, [sp, #15]
 5091              		.loc 1 1820 0
 5092 1e32 9DF80F20 		ldrb	r2, [sp, #15]	@ zero_extendqisi2
 5093 1e36 9DF80330 		ldrb	r3, [sp, #3]
 5094 1e3a 1343     		orrs	r3, r3, r2
 5095 1e3c DBB2     		uxtb	r3, r3
 5096 1e3e 8DF80F30 		strb	r3, [sp, #15]
 5097              		.loc 1 1822 0
 5098 1e42 9DF80F30 		ldrb	r3, [sp, #15]	@ zero_extendqisi2
 5099 1e46 0198     		ldr	r0, [sp, #4]
 5100 1e48 1121     		movs	r1, #17
 5101 1e4a 1A46     		mov	r2, r3
 5102 1e4c FEF7F8F8 		bl	LSM6DSM_ACC_GYRO_WriteReg
ARM GAS  /tmp/ccvV0fnY.s 			page 93


 5103 1e50 0346     		mov	r3, r0
 5104 1e52 002B     		cmp	r3, #0
 5105 1e54 01D1     		bne	.L360
 5106              		.loc 1 1823 0
 5107 1e56 0023     		movs	r3, #0
 5108 1e58 00E0     		b	.L361
 5109              	.L360:
 5110              		.loc 1 1825 0
 5111 1e5a 0123     		movs	r3, #1
 5112              	.L361:
 5113              		.loc 1 1826 0
 5114 1e5c 1846     		mov	r0, r3
 5115 1e5e 05B0     		add	sp, sp, #20
 5116              		@ sp needed
 5117 1e60 5DF804FB 		ldr	pc, [sp], #4
 5118              		.cfi_endproc
 5119              	.LFE81:
 5120              		.size	LSM6DSM_ACC_GYRO_W_FS_G, .-LSM6DSM_ACC_GYRO_W_FS_G
 5121              		.align	2
 5122 1e64 AFF30080 		.p2align 4,,15
 5122      AFF30080 
 5122      AFF30080 
 5123              		.global	LSM6DSM_ACC_GYRO_R_FS_G
 5124              		.thumb
 5125              		.thumb_func
 5126              		.type	LSM6DSM_ACC_GYRO_R_FS_G, %function
 5127              	LSM6DSM_ACC_GYRO_R_FS_G:
 5128              	.LFB82:
 5129              		.loc 1 1837 0
 5130              		.cfi_startproc
 5131              		@ args = 0, pretend = 0, frame = 8
 5132              		@ frame_needed = 0, uses_anonymous_args = 0
 5133 1e70 00B5     		push	{lr}
 5134              		.cfi_def_cfa_offset 4
 5135              		.cfi_offset 14, -4
 5136 1e72 83B0     		sub	sp, sp, #12
 5137              		.cfi_def_cfa_offset 16
 5138 1e74 0190     		str	r0, [sp, #4]
 5139 1e76 0091     		str	r1, [sp]
 5140              		.loc 1 1838 0
 5141 1e78 0198     		ldr	r0, [sp, #4]
 5142 1e7a 1121     		movs	r1, #17
 5143 1e7c 009A     		ldr	r2, [sp]
 5144 1e7e FEF7BFF8 		bl	LSM6DSM_ACC_GYRO_ReadReg
 5145 1e82 0346     		mov	r3, r0
 5146 1e84 002B     		cmp	r3, #0
 5147 1e86 01D1     		bne	.L363
 5148              		.loc 1 1839 0
 5149 1e88 0023     		movs	r3, #0
 5150 1e8a 07E0     		b	.L364
 5151              	.L363:
 5152              		.loc 1 1841 0
 5153 1e8c 009B     		ldr	r3, [sp]
 5154 1e8e 1B78     		ldrb	r3, [r3]	@ zero_extendqisi2
 5155 1e90 03F00C03 		and	r3, r3, #12
 5156 1e94 DAB2     		uxtb	r2, r3
 5157 1e96 009B     		ldr	r3, [sp]
ARM GAS  /tmp/ccvV0fnY.s 			page 94


 5158 1e98 1A70     		strb	r2, [r3]
 5159              		.loc 1 1843 0
 5160 1e9a 0123     		movs	r3, #1
 5161              	.L364:
 5162              		.loc 1 1844 0
 5163 1e9c 1846     		mov	r0, r3
 5164 1e9e 03B0     		add	sp, sp, #12
 5165              		@ sp needed
 5166 1ea0 5DF804FB 		ldr	pc, [sp], #4
 5167              		.cfi_endproc
 5168              	.LFE82:
 5169              		.size	LSM6DSM_ACC_GYRO_R_FS_G, .-LSM6DSM_ACC_GYRO_R_FS_G
 5170              		.align	2
 5171 1ea4 AFF30080 		.p2align 4,,15
 5171      AFF30080 
 5171      AFF30080 
 5172              		.global	LSM6DSM_ACC_GYRO_W_ODR_G
 5173              		.thumb
 5174              		.thumb_func
 5175              		.type	LSM6DSM_ACC_GYRO_W_ODR_G, %function
 5176              	LSM6DSM_ACC_GYRO_W_ODR_G:
 5177              	.LFB83:
 5178              		.loc 1 1853 0
 5179              		.cfi_startproc
 5180              		@ args = 0, pretend = 0, frame = 16
 5181              		@ frame_needed = 0, uses_anonymous_args = 0
 5182 1eb0 00B5     		push	{lr}
 5183              		.cfi_def_cfa_offset 4
 5184              		.cfi_offset 14, -4
 5185 1eb2 85B0     		sub	sp, sp, #20
 5186              		.cfi_def_cfa_offset 24
 5187 1eb4 0190     		str	r0, [sp, #4]
 5188 1eb6 0B46     		mov	r3, r1
 5189 1eb8 8DF80330 		strb	r3, [sp, #3]
 5190              		.loc 1 1856 0
 5191 1ebc 0DF10F03 		add	r3, sp, #15
 5192 1ec0 0198     		ldr	r0, [sp, #4]
 5193 1ec2 1121     		movs	r1, #17
 5194 1ec4 1A46     		mov	r2, r3
 5195 1ec6 FEF79BF8 		bl	LSM6DSM_ACC_GYRO_ReadReg
 5196 1eca 0346     		mov	r3, r0
 5197 1ecc 002B     		cmp	r3, #0
 5198 1ece 01D1     		bne	.L366
 5199              		.loc 1 1857 0
 5200 1ed0 0023     		movs	r3, #0
 5201 1ed2 1BE0     		b	.L369
 5202              	.L366:
 5203              		.loc 1 1859 0
 5204 1ed4 9DF80F30 		ldrb	r3, [sp, #15]	@ zero_extendqisi2
 5205 1ed8 03F00F03 		and	r3, r3, #15
 5206 1edc DBB2     		uxtb	r3, r3
 5207 1ede 8DF80F30 		strb	r3, [sp, #15]
 5208              		.loc 1 1860 0
 5209 1ee2 9DF80F20 		ldrb	r2, [sp, #15]	@ zero_extendqisi2
 5210 1ee6 9DF80330 		ldrb	r3, [sp, #3]
 5211 1eea 1343     		orrs	r3, r3, r2
 5212 1eec DBB2     		uxtb	r3, r3
ARM GAS  /tmp/ccvV0fnY.s 			page 95


 5213 1eee 8DF80F30 		strb	r3, [sp, #15]
 5214              		.loc 1 1862 0
 5215 1ef2 9DF80F30 		ldrb	r3, [sp, #15]	@ zero_extendqisi2
 5216 1ef6 0198     		ldr	r0, [sp, #4]
 5217 1ef8 1121     		movs	r1, #17
 5218 1efa 1A46     		mov	r2, r3
 5219 1efc FEF7A0F8 		bl	LSM6DSM_ACC_GYRO_WriteReg
 5220 1f00 0346     		mov	r3, r0
 5221 1f02 002B     		cmp	r3, #0
 5222 1f04 01D1     		bne	.L368
 5223              		.loc 1 1863 0
 5224 1f06 0023     		movs	r3, #0
 5225 1f08 00E0     		b	.L369
 5226              	.L368:
 5227              		.loc 1 1865 0
 5228 1f0a 0123     		movs	r3, #1
 5229              	.L369:
 5230              		.loc 1 1866 0
 5231 1f0c 1846     		mov	r0, r3
 5232 1f0e 05B0     		add	sp, sp, #20
 5233              		@ sp needed
 5234 1f10 5DF804FB 		ldr	pc, [sp], #4
 5235              		.cfi_endproc
 5236              	.LFE83:
 5237              		.size	LSM6DSM_ACC_GYRO_W_ODR_G, .-LSM6DSM_ACC_GYRO_W_ODR_G
 5238              		.align	2
 5239 1f14 AFF30080 		.p2align 4,,15
 5239      AFF30080 
 5239      AFF30080 
 5240              		.global	LSM6DSM_ACC_GYRO_R_ODR_G
 5241              		.thumb
 5242              		.thumb_func
 5243              		.type	LSM6DSM_ACC_GYRO_R_ODR_G, %function
 5244              	LSM6DSM_ACC_GYRO_R_ODR_G:
 5245              	.LFB84:
 5246              		.loc 1 1877 0
 5247              		.cfi_startproc
 5248              		@ args = 0, pretend = 0, frame = 8
 5249              		@ frame_needed = 0, uses_anonymous_args = 0
 5250 1f20 00B5     		push	{lr}
 5251              		.cfi_def_cfa_offset 4
 5252              		.cfi_offset 14, -4
 5253 1f22 83B0     		sub	sp, sp, #12
 5254              		.cfi_def_cfa_offset 16
 5255 1f24 0190     		str	r0, [sp, #4]
 5256 1f26 0091     		str	r1, [sp]
 5257              		.loc 1 1878 0
 5258 1f28 0198     		ldr	r0, [sp, #4]
 5259 1f2a 1121     		movs	r1, #17
 5260 1f2c 009A     		ldr	r2, [sp]
 5261 1f2e FEF767F8 		bl	LSM6DSM_ACC_GYRO_ReadReg
 5262 1f32 0346     		mov	r3, r0
 5263 1f34 002B     		cmp	r3, #0
 5264 1f36 01D1     		bne	.L371
 5265              		.loc 1 1879 0
 5266 1f38 0023     		movs	r3, #0
 5267 1f3a 07E0     		b	.L372
ARM GAS  /tmp/ccvV0fnY.s 			page 96


 5268              	.L371:
 5269              		.loc 1 1881 0
 5270 1f3c 009B     		ldr	r3, [sp]
 5271 1f3e 1B78     		ldrb	r3, [r3]	@ zero_extendqisi2
 5272 1f40 23F00F03 		bic	r3, r3, #15
 5273 1f44 DAB2     		uxtb	r2, r3
 5274 1f46 009B     		ldr	r3, [sp]
 5275 1f48 1A70     		strb	r2, [r3]
 5276              		.loc 1 1883 0
 5277 1f4a 0123     		movs	r3, #1
 5278              	.L372:
 5279              		.loc 1 1884 0
 5280 1f4c 1846     		mov	r0, r3
 5281 1f4e 03B0     		add	sp, sp, #12
 5282              		@ sp needed
 5283 1f50 5DF804FB 		ldr	pc, [sp], #4
 5284              		.cfi_endproc
 5285              	.LFE84:
 5286              		.size	LSM6DSM_ACC_GYRO_R_ODR_G, .-LSM6DSM_ACC_GYRO_R_ODR_G
 5287              		.align	2
 5288 1f54 AFF30080 		.p2align 4,,15
 5288      AFF30080 
 5288      AFF30080 
 5289              		.global	LSM6DSM_ACC_GYRO_translate_ODR_G
 5290              		.thumb
 5291              		.thumb_func
 5292              		.type	LSM6DSM_ACC_GYRO_translate_ODR_G, %function
 5293              	LSM6DSM_ACC_GYRO_translate_ODR_G:
 5294              	.LFB85:
 5295              		.loc 1 1887 0
 5296              		.cfi_startproc
 5297              		@ args = 0, pretend = 0, frame = 8
 5298              		@ frame_needed = 0, uses_anonymous_args = 0
 5299              		@ link register save eliminated.
 5300 1f60 82B0     		sub	sp, sp, #8
 5301              		.cfi_def_cfa_offset 8
 5302 1f62 0346     		mov	r3, r0
 5303 1f64 0091     		str	r1, [sp]
 5304 1f66 8DF80730 		strb	r3, [sp, #7]
 5305              		.loc 1 1888 0
 5306 1f6a 9DF80730 		ldrb	r3, [sp, #7]	@ zero_extendqisi2
 5307 1f6e 402B     		cmp	r3, #64
 5308 1f70 29D0     		beq	.L375
 5309 1f72 402B     		cmp	r3, #64
 5310 1f74 0BDC     		bgt	.L376
 5311 1f76 102B     		cmp	r3, #16
 5312 1f78 19D0     		beq	.L377
 5313 1f7a 102B     		cmp	r3, #16
 5314 1f7c 02DC     		bgt	.L378
 5315 1f7e 002B     		cmp	r3, #0
 5316 1f80 11D0     		beq	.L379
 5317 1f82 37E0     		b	.L374
 5318              	.L378:
 5319 1f84 202B     		cmp	r3, #32
 5320 1f86 16D0     		beq	.L380
 5321 1f88 302B     		cmp	r3, #48
 5322 1f8a 18D0     		beq	.L381
ARM GAS  /tmp/ccvV0fnY.s 			page 97


 5323 1f8c 32E0     		b	.L374
 5324              	.L376:
 5325 1f8e 602B     		cmp	r3, #96
 5326 1f90 21D0     		beq	.L382
 5327 1f92 602B     		cmp	r3, #96
 5328 1f94 02DC     		bgt	.L383
 5329 1f96 502B     		cmp	r3, #80
 5330 1f98 19D0     		beq	.L384
 5331 1f9a 2BE0     		b	.L374
 5332              	.L383:
 5333 1f9c 702B     		cmp	r3, #112
 5334 1f9e 1FD0     		beq	.L385
 5335 1fa0 802B     		cmp	r3, #128
 5336 1fa2 22D0     		beq	.L386
 5337 1fa4 26E0     		b	.L374
 5338              	.L379:
 5339              		.loc 1 1890 0
 5340 1fa6 009B     		ldr	r3, [sp]
 5341 1fa8 0022     		movs	r2, #0
 5342 1faa 1A80     		strh	r2, [r3]	@ movhi
 5343              		.loc 1 1891 0
 5344 1fac 24E0     		b	.L387
 5345              	.L377:
 5346              		.loc 1 1894 0
 5347 1fae 009B     		ldr	r3, [sp]
 5348 1fb0 0D22     		movs	r2, #13
 5349 1fb2 1A80     		strh	r2, [r3]	@ movhi
 5350              		.loc 1 1895 0
 5351 1fb4 20E0     		b	.L387
 5352              	.L380:
 5353              		.loc 1 1898 0
 5354 1fb6 009B     		ldr	r3, [sp]
 5355 1fb8 1A22     		movs	r2, #26
 5356 1fba 1A80     		strh	r2, [r3]	@ movhi
 5357              		.loc 1 1899 0
 5358 1fbc 1CE0     		b	.L387
 5359              	.L381:
 5360              		.loc 1 1902 0
 5361 1fbe 009B     		ldr	r3, [sp]
 5362 1fc0 3422     		movs	r2, #52
 5363 1fc2 1A80     		strh	r2, [r3]	@ movhi
 5364              		.loc 1 1903 0
 5365 1fc4 18E0     		b	.L387
 5366              	.L375:
 5367              		.loc 1 1906 0
 5368 1fc6 009B     		ldr	r3, [sp]
 5369 1fc8 6822     		movs	r2, #104
 5370 1fca 1A80     		strh	r2, [r3]	@ movhi
 5371              		.loc 1 1907 0
 5372 1fcc 14E0     		b	.L387
 5373              	.L384:
 5374              		.loc 1 1910 0
 5375 1fce 009B     		ldr	r3, [sp]
 5376 1fd0 D022     		movs	r2, #208
 5377 1fd2 1A80     		strh	r2, [r3]	@ movhi
 5378              		.loc 1 1911 0
 5379 1fd4 10E0     		b	.L387
ARM GAS  /tmp/ccvV0fnY.s 			page 98


 5380              	.L382:
 5381              		.loc 1 1914 0
 5382 1fd6 009B     		ldr	r3, [sp]
 5383 1fd8 4FF4D072 		mov	r2, #416
 5384 1fdc 1A80     		strh	r2, [r3]	@ movhi
 5385              		.loc 1 1915 0
 5386 1fde 0BE0     		b	.L387
 5387              	.L385:
 5388              		.loc 1 1918 0
 5389 1fe0 009B     		ldr	r3, [sp]
 5390 1fe2 40F24132 		movw	r2, #833
 5391 1fe6 1A80     		strh	r2, [r3]	@ movhi
 5392              		.loc 1 1919 0
 5393 1fe8 06E0     		b	.L387
 5394              	.L386:
 5395              		.loc 1 1922 0
 5396 1fea 009B     		ldr	r3, [sp]
 5397 1fec 40F27C62 		movw	r2, #1660
 5398 1ff0 1A80     		strh	r2, [r3]	@ movhi
 5399              		.loc 1 1923 0
 5400 1ff2 01E0     		b	.L387
 5401              	.L374:
 5402              		.loc 1 1926 0
 5403 1ff4 0023     		movs	r3, #0
 5404 1ff6 00E0     		b	.L388
 5405              	.L387:
 5406              		.loc 1 1929 0
 5407 1ff8 0123     		movs	r3, #1
 5408              	.L388:
 5409              		.loc 1 1930 0
 5410 1ffa 1846     		mov	r0, r3
 5411 1ffc 02B0     		add	sp, sp, #8
 5412              		@ sp needed
 5413 1ffe 7047     		bx	lr
 5414              		.cfi_endproc
 5415              	.LFE85:
 5416              		.size	LSM6DSM_ACC_GYRO_translate_ODR_G, .-LSM6DSM_ACC_GYRO_translate_ODR_G
 5417              		.align	2
 5418              		.p2align 4,,15
 5419              		.global	LSM6DSM_ACC_GYRO_W_SW_RESET
 5420              		.thumb
 5421              		.thumb_func
 5422              		.type	LSM6DSM_ACC_GYRO_W_SW_RESET, %function
 5423              	LSM6DSM_ACC_GYRO_W_SW_RESET:
 5424              	.LFB86:
 5425              		.loc 1 1940 0
 5426              		.cfi_startproc
 5427              		@ args = 0, pretend = 0, frame = 16
 5428              		@ frame_needed = 0, uses_anonymous_args = 0
 5429 2000 00B5     		push	{lr}
 5430              		.cfi_def_cfa_offset 4
 5431              		.cfi_offset 14, -4
 5432 2002 85B0     		sub	sp, sp, #20
 5433              		.cfi_def_cfa_offset 24
 5434 2004 0190     		str	r0, [sp, #4]
 5435 2006 0B46     		mov	r3, r1
 5436 2008 8DF80330 		strb	r3, [sp, #3]
ARM GAS  /tmp/ccvV0fnY.s 			page 99


 5437              		.loc 1 1943 0
 5438 200c 0DF10F03 		add	r3, sp, #15
 5439 2010 0198     		ldr	r0, [sp, #4]
 5440 2012 1221     		movs	r1, #18
 5441 2014 1A46     		mov	r2, r3
 5442 2016 FDF7F3FF 		bl	LSM6DSM_ACC_GYRO_ReadReg
 5443 201a 0346     		mov	r3, r0
 5444 201c 002B     		cmp	r3, #0
 5445 201e 01D1     		bne	.L390
 5446              		.loc 1 1944 0
 5447 2020 0023     		movs	r3, #0
 5448 2022 1BE0     		b	.L393
 5449              	.L390:
 5450              		.loc 1 1946 0
 5451 2024 9DF80F30 		ldrb	r3, [sp, #15]	@ zero_extendqisi2
 5452 2028 23F00103 		bic	r3, r3, #1
 5453 202c DBB2     		uxtb	r3, r3
 5454 202e 8DF80F30 		strb	r3, [sp, #15]
 5455              		.loc 1 1947 0
 5456 2032 9DF80F20 		ldrb	r2, [sp, #15]	@ zero_extendqisi2
 5457 2036 9DF80330 		ldrb	r3, [sp, #3]
 5458 203a 1343     		orrs	r3, r3, r2
 5459 203c DBB2     		uxtb	r3, r3
 5460 203e 8DF80F30 		strb	r3, [sp, #15]
 5461              		.loc 1 1949 0
 5462 2042 9DF80F30 		ldrb	r3, [sp, #15]	@ zero_extendqisi2
 5463 2046 0198     		ldr	r0, [sp, #4]
 5464 2048 1221     		movs	r1, #18
 5465 204a 1A46     		mov	r2, r3
 5466 204c FDF7F8FF 		bl	LSM6DSM_ACC_GYRO_WriteReg
 5467 2050 0346     		mov	r3, r0
 5468 2052 002B     		cmp	r3, #0
 5469 2054 01D1     		bne	.L392
 5470              		.loc 1 1950 0
 5471 2056 0023     		movs	r3, #0
 5472 2058 00E0     		b	.L393
 5473              	.L392:
 5474              		.loc 1 1952 0
 5475 205a 0123     		movs	r3, #1
 5476              	.L393:
 5477              		.loc 1 1953 0
 5478 205c 1846     		mov	r0, r3
 5479 205e 05B0     		add	sp, sp, #20
 5480              		@ sp needed
 5481 2060 5DF804FB 		ldr	pc, [sp], #4
 5482              		.cfi_endproc
 5483              	.LFE86:
 5484              		.size	LSM6DSM_ACC_GYRO_W_SW_RESET, .-LSM6DSM_ACC_GYRO_W_SW_RESET
 5485              		.align	2
 5486 2064 AFF30080 		.p2align 4,,15
 5486      AFF30080 
 5486      AFF30080 
 5487              		.global	LSM6DSM_ACC_GYRO_R_SW_RESET
 5488              		.thumb
 5489              		.thumb_func
 5490              		.type	LSM6DSM_ACC_GYRO_R_SW_RESET, %function
 5491              	LSM6DSM_ACC_GYRO_R_SW_RESET:
ARM GAS  /tmp/ccvV0fnY.s 			page 100


 5492              	.LFB87:
 5493              		.loc 1 1964 0
 5494              		.cfi_startproc
 5495              		@ args = 0, pretend = 0, frame = 8
 5496              		@ frame_needed = 0, uses_anonymous_args = 0
 5497 2070 00B5     		push	{lr}
 5498              		.cfi_def_cfa_offset 4
 5499              		.cfi_offset 14, -4
 5500 2072 83B0     		sub	sp, sp, #12
 5501              		.cfi_def_cfa_offset 16
 5502 2074 0190     		str	r0, [sp, #4]
 5503 2076 0091     		str	r1, [sp]
 5504              		.loc 1 1965 0
 5505 2078 0198     		ldr	r0, [sp, #4]
 5506 207a 1221     		movs	r1, #18
 5507 207c 009A     		ldr	r2, [sp]
 5508 207e FDF7BFFF 		bl	LSM6DSM_ACC_GYRO_ReadReg
 5509 2082 0346     		mov	r3, r0
 5510 2084 002B     		cmp	r3, #0
 5511 2086 01D1     		bne	.L395
 5512              		.loc 1 1966 0
 5513 2088 0023     		movs	r3, #0
 5514 208a 07E0     		b	.L396
 5515              	.L395:
 5516              		.loc 1 1968 0
 5517 208c 009B     		ldr	r3, [sp]
 5518 208e 1B78     		ldrb	r3, [r3]	@ zero_extendqisi2
 5519 2090 03F00103 		and	r3, r3, #1
 5520 2094 DAB2     		uxtb	r2, r3
 5521 2096 009B     		ldr	r3, [sp]
 5522 2098 1A70     		strb	r2, [r3]
 5523              		.loc 1 1970 0
 5524 209a 0123     		movs	r3, #1
 5525              	.L396:
 5526              		.loc 1 1971 0
 5527 209c 1846     		mov	r0, r3
 5528 209e 03B0     		add	sp, sp, #12
 5529              		@ sp needed
 5530 20a0 5DF804FB 		ldr	pc, [sp], #4
 5531              		.cfi_endproc
 5532              	.LFE87:
 5533              		.size	LSM6DSM_ACC_GYRO_R_SW_RESET, .-LSM6DSM_ACC_GYRO_R_SW_RESET
 5534              		.align	2
 5535 20a4 AFF30080 		.p2align 4,,15
 5535      AFF30080 
 5535      AFF30080 
 5536              		.global	LSM6DSM_ACC_GYRO_W_BLE
 5537              		.thumb
 5538              		.thumb_func
 5539              		.type	LSM6DSM_ACC_GYRO_W_BLE, %function
 5540              	LSM6DSM_ACC_GYRO_W_BLE:
 5541              	.LFB88:
 5542              		.loc 1 1980 0
 5543              		.cfi_startproc
 5544              		@ args = 0, pretend = 0, frame = 16
 5545              		@ frame_needed = 0, uses_anonymous_args = 0
 5546 20b0 00B5     		push	{lr}
ARM GAS  /tmp/ccvV0fnY.s 			page 101


 5547              		.cfi_def_cfa_offset 4
 5548              		.cfi_offset 14, -4
 5549 20b2 85B0     		sub	sp, sp, #20
 5550              		.cfi_def_cfa_offset 24
 5551 20b4 0190     		str	r0, [sp, #4]
 5552 20b6 0B46     		mov	r3, r1
 5553 20b8 8DF80330 		strb	r3, [sp, #3]
 5554              		.loc 1 1983 0
 5555 20bc 0DF10F03 		add	r3, sp, #15
 5556 20c0 0198     		ldr	r0, [sp, #4]
 5557 20c2 1221     		movs	r1, #18
 5558 20c4 1A46     		mov	r2, r3
 5559 20c6 FDF79BFF 		bl	LSM6DSM_ACC_GYRO_ReadReg
 5560 20ca 0346     		mov	r3, r0
 5561 20cc 002B     		cmp	r3, #0
 5562 20ce 01D1     		bne	.L398
 5563              		.loc 1 1984 0
 5564 20d0 0023     		movs	r3, #0
 5565 20d2 1BE0     		b	.L401
 5566              	.L398:
 5567              		.loc 1 1986 0
 5568 20d4 9DF80F30 		ldrb	r3, [sp, #15]	@ zero_extendqisi2
 5569 20d8 23F00203 		bic	r3, r3, #2
 5570 20dc DBB2     		uxtb	r3, r3
 5571 20de 8DF80F30 		strb	r3, [sp, #15]
 5572              		.loc 1 1987 0
 5573 20e2 9DF80F20 		ldrb	r2, [sp, #15]	@ zero_extendqisi2
 5574 20e6 9DF80330 		ldrb	r3, [sp, #3]
 5575 20ea 1343     		orrs	r3, r3, r2
 5576 20ec DBB2     		uxtb	r3, r3
 5577 20ee 8DF80F30 		strb	r3, [sp, #15]
 5578              		.loc 1 1989 0
 5579 20f2 9DF80F30 		ldrb	r3, [sp, #15]	@ zero_extendqisi2
 5580 20f6 0198     		ldr	r0, [sp, #4]
 5581 20f8 1221     		movs	r1, #18
 5582 20fa 1A46     		mov	r2, r3
 5583 20fc FDF7A0FF 		bl	LSM6DSM_ACC_GYRO_WriteReg
 5584 2100 0346     		mov	r3, r0
 5585 2102 002B     		cmp	r3, #0
 5586 2104 01D1     		bne	.L400
 5587              		.loc 1 1990 0
 5588 2106 0023     		movs	r3, #0
 5589 2108 00E0     		b	.L401
 5590              	.L400:
 5591              		.loc 1 1992 0
 5592 210a 0123     		movs	r3, #1
 5593              	.L401:
 5594              		.loc 1 1993 0
 5595 210c 1846     		mov	r0, r3
 5596 210e 05B0     		add	sp, sp, #20
 5597              		@ sp needed
 5598 2110 5DF804FB 		ldr	pc, [sp], #4
 5599              		.cfi_endproc
 5600              	.LFE88:
 5601              		.size	LSM6DSM_ACC_GYRO_W_BLE, .-LSM6DSM_ACC_GYRO_W_BLE
 5602              		.align	2
 5603 2114 AFF30080 		.p2align 4,,15
ARM GAS  /tmp/ccvV0fnY.s 			page 102


 5603      AFF30080 
 5603      AFF30080 
 5604              		.global	LSM6DSM_ACC_GYRO_R_BLE
 5605              		.thumb
 5606              		.thumb_func
 5607              		.type	LSM6DSM_ACC_GYRO_R_BLE, %function
 5608              	LSM6DSM_ACC_GYRO_R_BLE:
 5609              	.LFB89:
 5610              		.loc 1 2004 0
 5611              		.cfi_startproc
 5612              		@ args = 0, pretend = 0, frame = 8
 5613              		@ frame_needed = 0, uses_anonymous_args = 0
 5614 2120 00B5     		push	{lr}
 5615              		.cfi_def_cfa_offset 4
 5616              		.cfi_offset 14, -4
 5617 2122 83B0     		sub	sp, sp, #12
 5618              		.cfi_def_cfa_offset 16
 5619 2124 0190     		str	r0, [sp, #4]
 5620 2126 0091     		str	r1, [sp]
 5621              		.loc 1 2005 0
 5622 2128 0198     		ldr	r0, [sp, #4]
 5623 212a 1221     		movs	r1, #18
 5624 212c 009A     		ldr	r2, [sp]
 5625 212e FDF767FF 		bl	LSM6DSM_ACC_GYRO_ReadReg
 5626 2132 0346     		mov	r3, r0
 5627 2134 002B     		cmp	r3, #0
 5628 2136 01D1     		bne	.L403
 5629              		.loc 1 2006 0
 5630 2138 0023     		movs	r3, #0
 5631 213a 07E0     		b	.L404
 5632              	.L403:
 5633              		.loc 1 2008 0
 5634 213c 009B     		ldr	r3, [sp]
 5635 213e 1B78     		ldrb	r3, [r3]	@ zero_extendqisi2
 5636 2140 03F00203 		and	r3, r3, #2
 5637 2144 DAB2     		uxtb	r2, r3
 5638 2146 009B     		ldr	r3, [sp]
 5639 2148 1A70     		strb	r2, [r3]
 5640              		.loc 1 2010 0
 5641 214a 0123     		movs	r3, #1
 5642              	.L404:
 5643              		.loc 1 2011 0
 5644 214c 1846     		mov	r0, r3
 5645 214e 03B0     		add	sp, sp, #12
 5646              		@ sp needed
 5647 2150 5DF804FB 		ldr	pc, [sp], #4
 5648              		.cfi_endproc
 5649              	.LFE89:
 5650              		.size	LSM6DSM_ACC_GYRO_R_BLE, .-LSM6DSM_ACC_GYRO_R_BLE
 5651              		.align	2
 5652 2154 AFF30080 		.p2align 4,,15
 5652      AFF30080 
 5652      AFF30080 
 5653              		.global	LSM6DSM_ACC_GYRO_W_IF_Addr_Incr
 5654              		.thumb
 5655              		.thumb_func
 5656              		.type	LSM6DSM_ACC_GYRO_W_IF_Addr_Incr, %function
ARM GAS  /tmp/ccvV0fnY.s 			page 103


 5657              	LSM6DSM_ACC_GYRO_W_IF_Addr_Incr:
 5658              	.LFB90:
 5659              		.loc 1 2020 0
 5660              		.cfi_startproc
 5661              		@ args = 0, pretend = 0, frame = 16
 5662              		@ frame_needed = 0, uses_anonymous_args = 0
 5663 2160 00B5     		push	{lr}
 5664              		.cfi_def_cfa_offset 4
 5665              		.cfi_offset 14, -4
 5666 2162 85B0     		sub	sp, sp, #20
 5667              		.cfi_def_cfa_offset 24
 5668 2164 0190     		str	r0, [sp, #4]
 5669 2166 0B46     		mov	r3, r1
 5670 2168 8DF80330 		strb	r3, [sp, #3]
 5671              		.loc 1 2023 0
 5672 216c 0DF10F03 		add	r3, sp, #15
 5673 2170 0198     		ldr	r0, [sp, #4]
 5674 2172 1221     		movs	r1, #18
 5675 2174 1A46     		mov	r2, r3
 5676 2176 FDF743FF 		bl	LSM6DSM_ACC_GYRO_ReadReg
 5677 217a 0346     		mov	r3, r0
 5678 217c 002B     		cmp	r3, #0
 5679 217e 01D1     		bne	.L406
 5680              		.loc 1 2024 0
 5681 2180 0023     		movs	r3, #0
 5682 2182 1BE0     		b	.L409
 5683              	.L406:
 5684              		.loc 1 2026 0
 5685 2184 9DF80F30 		ldrb	r3, [sp, #15]	@ zero_extendqisi2
 5686 2188 23F00403 		bic	r3, r3, #4
 5687 218c DBB2     		uxtb	r3, r3
 5688 218e 8DF80F30 		strb	r3, [sp, #15]
 5689              		.loc 1 2027 0
 5690 2192 9DF80F20 		ldrb	r2, [sp, #15]	@ zero_extendqisi2
 5691 2196 9DF80330 		ldrb	r3, [sp, #3]
 5692 219a 1343     		orrs	r3, r3, r2
 5693 219c DBB2     		uxtb	r3, r3
 5694 219e 8DF80F30 		strb	r3, [sp, #15]
 5695              		.loc 1 2029 0
 5696 21a2 9DF80F30 		ldrb	r3, [sp, #15]	@ zero_extendqisi2
 5697 21a6 0198     		ldr	r0, [sp, #4]
 5698 21a8 1221     		movs	r1, #18
 5699 21aa 1A46     		mov	r2, r3
 5700 21ac FDF748FF 		bl	LSM6DSM_ACC_GYRO_WriteReg
 5701 21b0 0346     		mov	r3, r0
 5702 21b2 002B     		cmp	r3, #0
 5703 21b4 01D1     		bne	.L408
 5704              		.loc 1 2030 0
 5705 21b6 0023     		movs	r3, #0
 5706 21b8 00E0     		b	.L409
 5707              	.L408:
 5708              		.loc 1 2032 0
 5709 21ba 0123     		movs	r3, #1
 5710              	.L409:
 5711              		.loc 1 2033 0
 5712 21bc 1846     		mov	r0, r3
 5713 21be 05B0     		add	sp, sp, #20
ARM GAS  /tmp/ccvV0fnY.s 			page 104


 5714              		@ sp needed
 5715 21c0 5DF804FB 		ldr	pc, [sp], #4
 5716              		.cfi_endproc
 5717              	.LFE90:
 5718              		.size	LSM6DSM_ACC_GYRO_W_IF_Addr_Incr, .-LSM6DSM_ACC_GYRO_W_IF_Addr_Incr
 5719              		.align	2
 5720 21c4 AFF30080 		.p2align 4,,15
 5720      AFF30080 
 5720      AFF30080 
 5721              		.global	LSM6DSM_ACC_GYRO_R_IF_Addr_Incr
 5722              		.thumb
 5723              		.thumb_func
 5724              		.type	LSM6DSM_ACC_GYRO_R_IF_Addr_Incr, %function
 5725              	LSM6DSM_ACC_GYRO_R_IF_Addr_Incr:
 5726              	.LFB91:
 5727              		.loc 1 2044 0
 5728              		.cfi_startproc
 5729              		@ args = 0, pretend = 0, frame = 8
 5730              		@ frame_needed = 0, uses_anonymous_args = 0
 5731 21d0 00B5     		push	{lr}
 5732              		.cfi_def_cfa_offset 4
 5733              		.cfi_offset 14, -4
 5734 21d2 83B0     		sub	sp, sp, #12
 5735              		.cfi_def_cfa_offset 16
 5736 21d4 0190     		str	r0, [sp, #4]
 5737 21d6 0091     		str	r1, [sp]
 5738              		.loc 1 2045 0
 5739 21d8 0198     		ldr	r0, [sp, #4]
 5740 21da 1221     		movs	r1, #18
 5741 21dc 009A     		ldr	r2, [sp]
 5742 21de FDF70FFF 		bl	LSM6DSM_ACC_GYRO_ReadReg
 5743 21e2 0346     		mov	r3, r0
 5744 21e4 002B     		cmp	r3, #0
 5745 21e6 01D1     		bne	.L411
 5746              		.loc 1 2046 0
 5747 21e8 0023     		movs	r3, #0
 5748 21ea 07E0     		b	.L412
 5749              	.L411:
 5750              		.loc 1 2048 0
 5751 21ec 009B     		ldr	r3, [sp]
 5752 21ee 1B78     		ldrb	r3, [r3]	@ zero_extendqisi2
 5753 21f0 03F00403 		and	r3, r3, #4
 5754 21f4 DAB2     		uxtb	r2, r3
 5755 21f6 009B     		ldr	r3, [sp]
 5756 21f8 1A70     		strb	r2, [r3]
 5757              		.loc 1 2050 0
 5758 21fa 0123     		movs	r3, #1
 5759              	.L412:
 5760              		.loc 1 2051 0
 5761 21fc 1846     		mov	r0, r3
 5762 21fe 03B0     		add	sp, sp, #12
 5763              		@ sp needed
 5764 2200 5DF804FB 		ldr	pc, [sp], #4
 5765              		.cfi_endproc
 5766              	.LFE91:
 5767              		.size	LSM6DSM_ACC_GYRO_R_IF_Addr_Incr, .-LSM6DSM_ACC_GYRO_R_IF_Addr_Incr
 5768              		.align	2
ARM GAS  /tmp/ccvV0fnY.s 			page 105


 5769 2204 AFF30080 		.p2align 4,,15
 5769      AFF30080 
 5769      AFF30080 
 5770              		.global	LSM6DSM_ACC_GYRO_W_SPI_Mode
 5771              		.thumb
 5772              		.thumb_func
 5773              		.type	LSM6DSM_ACC_GYRO_W_SPI_Mode, %function
 5774              	LSM6DSM_ACC_GYRO_W_SPI_Mode:
 5775              	.LFB92:
 5776              		.loc 1 2060 0
 5777              		.cfi_startproc
 5778              		@ args = 0, pretend = 0, frame = 16
 5779              		@ frame_needed = 0, uses_anonymous_args = 0
 5780 2210 00B5     		push	{lr}
 5781              		.cfi_def_cfa_offset 4
 5782              		.cfi_offset 14, -4
 5783 2212 85B0     		sub	sp, sp, #20
 5784              		.cfi_def_cfa_offset 24
 5785 2214 0190     		str	r0, [sp, #4]
 5786 2216 0B46     		mov	r3, r1
 5787 2218 8DF80330 		strb	r3, [sp, #3]
 5788              		.loc 1 2063 0
 5789 221c 0DF10F03 		add	r3, sp, #15
 5790 2220 0198     		ldr	r0, [sp, #4]
 5791 2222 1221     		movs	r1, #18
 5792 2224 1A46     		mov	r2, r3
 5793 2226 FDF7EBFE 		bl	LSM6DSM_ACC_GYRO_ReadReg
 5794 222a 0346     		mov	r3, r0
 5795 222c 002B     		cmp	r3, #0
 5796 222e 01D1     		bne	.L414
 5797              		.loc 1 2064 0
 5798 2230 0023     		movs	r3, #0
 5799 2232 1BE0     		b	.L417
 5800              	.L414:
 5801              		.loc 1 2066 0
 5802 2234 9DF80F30 		ldrb	r3, [sp, #15]	@ zero_extendqisi2
 5803 2238 23F00803 		bic	r3, r3, #8
 5804 223c DBB2     		uxtb	r3, r3
 5805 223e 8DF80F30 		strb	r3, [sp, #15]
 5806              		.loc 1 2067 0
 5807 2242 9DF80F20 		ldrb	r2, [sp, #15]	@ zero_extendqisi2
 5808 2246 9DF80330 		ldrb	r3, [sp, #3]
 5809 224a 1343     		orrs	r3, r3, r2
 5810 224c DBB2     		uxtb	r3, r3
 5811 224e 8DF80F30 		strb	r3, [sp, #15]
 5812              		.loc 1 2069 0
 5813 2252 9DF80F30 		ldrb	r3, [sp, #15]	@ zero_extendqisi2
 5814 2256 0198     		ldr	r0, [sp, #4]
 5815 2258 1221     		movs	r1, #18
 5816 225a 1A46     		mov	r2, r3
 5817 225c FDF7F0FE 		bl	LSM6DSM_ACC_GYRO_WriteReg
 5818 2260 0346     		mov	r3, r0
 5819 2262 002B     		cmp	r3, #0
 5820 2264 01D1     		bne	.L416
 5821              		.loc 1 2070 0
 5822 2266 0023     		movs	r3, #0
 5823 2268 00E0     		b	.L417
ARM GAS  /tmp/ccvV0fnY.s 			page 106


 5824              	.L416:
 5825              		.loc 1 2072 0
 5826 226a 0123     		movs	r3, #1
 5827              	.L417:
 5828              		.loc 1 2073 0
 5829 226c 1846     		mov	r0, r3
 5830 226e 05B0     		add	sp, sp, #20
 5831              		@ sp needed
 5832 2270 5DF804FB 		ldr	pc, [sp], #4
 5833              		.cfi_endproc
 5834              	.LFE92:
 5835              		.size	LSM6DSM_ACC_GYRO_W_SPI_Mode, .-LSM6DSM_ACC_GYRO_W_SPI_Mode
 5836              		.align	2
 5837 2274 AFF30080 		.p2align 4,,15
 5837      AFF30080 
 5837      AFF30080 
 5838              		.global	LSM6DSM_ACC_GYRO_R_SPI_Mode
 5839              		.thumb
 5840              		.thumb_func
 5841              		.type	LSM6DSM_ACC_GYRO_R_SPI_Mode, %function
 5842              	LSM6DSM_ACC_GYRO_R_SPI_Mode:
 5843              	.LFB93:
 5844              		.loc 1 2084 0
 5845              		.cfi_startproc
 5846              		@ args = 0, pretend = 0, frame = 8
 5847              		@ frame_needed = 0, uses_anonymous_args = 0
 5848 2280 00B5     		push	{lr}
 5849              		.cfi_def_cfa_offset 4
 5850              		.cfi_offset 14, -4
 5851 2282 83B0     		sub	sp, sp, #12
 5852              		.cfi_def_cfa_offset 16
 5853 2284 0190     		str	r0, [sp, #4]
 5854 2286 0091     		str	r1, [sp]
 5855              		.loc 1 2085 0
 5856 2288 0198     		ldr	r0, [sp, #4]
 5857 228a 1221     		movs	r1, #18
 5858 228c 009A     		ldr	r2, [sp]
 5859 228e FDF7B7FE 		bl	LSM6DSM_ACC_GYRO_ReadReg
 5860 2292 0346     		mov	r3, r0
 5861 2294 002B     		cmp	r3, #0
 5862 2296 01D1     		bne	.L419
 5863              		.loc 1 2086 0
 5864 2298 0023     		movs	r3, #0
 5865 229a 07E0     		b	.L420
 5866              	.L419:
 5867              		.loc 1 2088 0
 5868 229c 009B     		ldr	r3, [sp]
 5869 229e 1B78     		ldrb	r3, [r3]	@ zero_extendqisi2
 5870 22a0 03F00803 		and	r3, r3, #8
 5871 22a4 DAB2     		uxtb	r2, r3
 5872 22a6 009B     		ldr	r3, [sp]
 5873 22a8 1A70     		strb	r2, [r3]
 5874              		.loc 1 2090 0
 5875 22aa 0123     		movs	r3, #1
 5876              	.L420:
 5877              		.loc 1 2091 0
 5878 22ac 1846     		mov	r0, r3
ARM GAS  /tmp/ccvV0fnY.s 			page 107


 5879 22ae 03B0     		add	sp, sp, #12
 5880              		@ sp needed
 5881 22b0 5DF804FB 		ldr	pc, [sp], #4
 5882              		.cfi_endproc
 5883              	.LFE93:
 5884              		.size	LSM6DSM_ACC_GYRO_R_SPI_Mode, .-LSM6DSM_ACC_GYRO_R_SPI_Mode
 5885              		.align	2
 5886 22b4 AFF30080 		.p2align 4,,15
 5886      AFF30080 
 5886      AFF30080 
 5887              		.global	LSM6DSM_ACC_GYRO_W_PadSel
 5888              		.thumb
 5889              		.thumb_func
 5890              		.type	LSM6DSM_ACC_GYRO_W_PadSel, %function
 5891              	LSM6DSM_ACC_GYRO_W_PadSel:
 5892              	.LFB94:
 5893              		.loc 1 2100 0
 5894              		.cfi_startproc
 5895              		@ args = 0, pretend = 0, frame = 16
 5896              		@ frame_needed = 0, uses_anonymous_args = 0
 5897 22c0 00B5     		push	{lr}
 5898              		.cfi_def_cfa_offset 4
 5899              		.cfi_offset 14, -4
 5900 22c2 85B0     		sub	sp, sp, #20
 5901              		.cfi_def_cfa_offset 24
 5902 22c4 0190     		str	r0, [sp, #4]
 5903 22c6 0B46     		mov	r3, r1
 5904 22c8 8DF80330 		strb	r3, [sp, #3]
 5905              		.loc 1 2103 0
 5906 22cc 0DF10F03 		add	r3, sp, #15
 5907 22d0 0198     		ldr	r0, [sp, #4]
 5908 22d2 1221     		movs	r1, #18
 5909 22d4 1A46     		mov	r2, r3
 5910 22d6 FDF793FE 		bl	LSM6DSM_ACC_GYRO_ReadReg
 5911 22da 0346     		mov	r3, r0
 5912 22dc 002B     		cmp	r3, #0
 5913 22de 01D1     		bne	.L422
 5914              		.loc 1 2104 0
 5915 22e0 0023     		movs	r3, #0
 5916 22e2 1BE0     		b	.L425
 5917              	.L422:
 5918              		.loc 1 2106 0
 5919 22e4 9DF80F30 		ldrb	r3, [sp, #15]	@ zero_extendqisi2
 5920 22e8 23F01003 		bic	r3, r3, #16
 5921 22ec DBB2     		uxtb	r3, r3
 5922 22ee 8DF80F30 		strb	r3, [sp, #15]
 5923              		.loc 1 2107 0
 5924 22f2 9DF80F20 		ldrb	r2, [sp, #15]	@ zero_extendqisi2
 5925 22f6 9DF80330 		ldrb	r3, [sp, #3]
 5926 22fa 1343     		orrs	r3, r3, r2
 5927 22fc DBB2     		uxtb	r3, r3
 5928 22fe 8DF80F30 		strb	r3, [sp, #15]
 5929              		.loc 1 2109 0
 5930 2302 9DF80F30 		ldrb	r3, [sp, #15]	@ zero_extendqisi2
 5931 2306 0198     		ldr	r0, [sp, #4]
 5932 2308 1221     		movs	r1, #18
 5933 230a 1A46     		mov	r2, r3
ARM GAS  /tmp/ccvV0fnY.s 			page 108


 5934 230c FDF798FE 		bl	LSM6DSM_ACC_GYRO_WriteReg
 5935 2310 0346     		mov	r3, r0
 5936 2312 002B     		cmp	r3, #0
 5937 2314 01D1     		bne	.L424
 5938              		.loc 1 2110 0
 5939 2316 0023     		movs	r3, #0
 5940 2318 00E0     		b	.L425
 5941              	.L424:
 5942              		.loc 1 2112 0
 5943 231a 0123     		movs	r3, #1
 5944              	.L425:
 5945              		.loc 1 2113 0
 5946 231c 1846     		mov	r0, r3
 5947 231e 05B0     		add	sp, sp, #20
 5948              		@ sp needed
 5949 2320 5DF804FB 		ldr	pc, [sp], #4
 5950              		.cfi_endproc
 5951              	.LFE94:
 5952              		.size	LSM6DSM_ACC_GYRO_W_PadSel, .-LSM6DSM_ACC_GYRO_W_PadSel
 5953              		.align	2
 5954 2324 AFF30080 		.p2align 4,,15
 5954      AFF30080 
 5954      AFF30080 
 5955              		.global	LSM6DSM_ACC_GYRO_R_PadSel
 5956              		.thumb
 5957              		.thumb_func
 5958              		.type	LSM6DSM_ACC_GYRO_R_PadSel, %function
 5959              	LSM6DSM_ACC_GYRO_R_PadSel:
 5960              	.LFB95:
 5961              		.loc 1 2124 0
 5962              		.cfi_startproc
 5963              		@ args = 0, pretend = 0, frame = 8
 5964              		@ frame_needed = 0, uses_anonymous_args = 0
 5965 2330 00B5     		push	{lr}
 5966              		.cfi_def_cfa_offset 4
 5967              		.cfi_offset 14, -4
 5968 2332 83B0     		sub	sp, sp, #12
 5969              		.cfi_def_cfa_offset 16
 5970 2334 0190     		str	r0, [sp, #4]
 5971 2336 0091     		str	r1, [sp]
 5972              		.loc 1 2125 0
 5973 2338 0198     		ldr	r0, [sp, #4]
 5974 233a 1221     		movs	r1, #18
 5975 233c 009A     		ldr	r2, [sp]
 5976 233e FDF75FFE 		bl	LSM6DSM_ACC_GYRO_ReadReg
 5977 2342 0346     		mov	r3, r0
 5978 2344 002B     		cmp	r3, #0
 5979 2346 01D1     		bne	.L427
 5980              		.loc 1 2126 0
 5981 2348 0023     		movs	r3, #0
 5982 234a 07E0     		b	.L428
 5983              	.L427:
 5984              		.loc 1 2128 0
 5985 234c 009B     		ldr	r3, [sp]
 5986 234e 1B78     		ldrb	r3, [r3]	@ zero_extendqisi2
 5987 2350 03F01003 		and	r3, r3, #16
 5988 2354 DAB2     		uxtb	r2, r3
ARM GAS  /tmp/ccvV0fnY.s 			page 109


 5989 2356 009B     		ldr	r3, [sp]
 5990 2358 1A70     		strb	r2, [r3]
 5991              		.loc 1 2130 0
 5992 235a 0123     		movs	r3, #1
 5993              	.L428:
 5994              		.loc 1 2131 0
 5995 235c 1846     		mov	r0, r3
 5996 235e 03B0     		add	sp, sp, #12
 5997              		@ sp needed
 5998 2360 5DF804FB 		ldr	pc, [sp], #4
 5999              		.cfi_endproc
 6000              	.LFE95:
 6001              		.size	LSM6DSM_ACC_GYRO_R_PadSel, .-LSM6DSM_ACC_GYRO_R_PadSel
 6002              		.align	2
 6003 2364 AFF30080 		.p2align 4,,15
 6003      AFF30080 
 6003      AFF30080 
 6004              		.global	LSM6DSM_ACC_GYRO_W_INT_ACT_LEVEL
 6005              		.thumb
 6006              		.thumb_func
 6007              		.type	LSM6DSM_ACC_GYRO_W_INT_ACT_LEVEL, %function
 6008              	LSM6DSM_ACC_GYRO_W_INT_ACT_LEVEL:
 6009              	.LFB96:
 6010              		.loc 1 2140 0
 6011              		.cfi_startproc
 6012              		@ args = 0, pretend = 0, frame = 16
 6013              		@ frame_needed = 0, uses_anonymous_args = 0
 6014 2370 00B5     		push	{lr}
 6015              		.cfi_def_cfa_offset 4
 6016              		.cfi_offset 14, -4
 6017 2372 85B0     		sub	sp, sp, #20
 6018              		.cfi_def_cfa_offset 24
 6019 2374 0190     		str	r0, [sp, #4]
 6020 2376 0B46     		mov	r3, r1
 6021 2378 8DF80330 		strb	r3, [sp, #3]
 6022              		.loc 1 2143 0
 6023 237c 0DF10F03 		add	r3, sp, #15
 6024 2380 0198     		ldr	r0, [sp, #4]
 6025 2382 1221     		movs	r1, #18
 6026 2384 1A46     		mov	r2, r3
 6027 2386 FDF73BFE 		bl	LSM6DSM_ACC_GYRO_ReadReg
 6028 238a 0346     		mov	r3, r0
 6029 238c 002B     		cmp	r3, #0
 6030 238e 01D1     		bne	.L430
 6031              		.loc 1 2144 0
 6032 2390 0023     		movs	r3, #0
 6033 2392 1BE0     		b	.L433
 6034              	.L430:
 6035              		.loc 1 2146 0
 6036 2394 9DF80F30 		ldrb	r3, [sp, #15]	@ zero_extendqisi2
 6037 2398 23F02003 		bic	r3, r3, #32
 6038 239c DBB2     		uxtb	r3, r3
 6039 239e 8DF80F30 		strb	r3, [sp, #15]
 6040              		.loc 1 2147 0
 6041 23a2 9DF80F20 		ldrb	r2, [sp, #15]	@ zero_extendqisi2
 6042 23a6 9DF80330 		ldrb	r3, [sp, #3]
 6043 23aa 1343     		orrs	r3, r3, r2
ARM GAS  /tmp/ccvV0fnY.s 			page 110


 6044 23ac DBB2     		uxtb	r3, r3
 6045 23ae 8DF80F30 		strb	r3, [sp, #15]
 6046              		.loc 1 2149 0
 6047 23b2 9DF80F30 		ldrb	r3, [sp, #15]	@ zero_extendqisi2
 6048 23b6 0198     		ldr	r0, [sp, #4]
 6049 23b8 1221     		movs	r1, #18
 6050 23ba 1A46     		mov	r2, r3
 6051 23bc FDF740FE 		bl	LSM6DSM_ACC_GYRO_WriteReg
 6052 23c0 0346     		mov	r3, r0
 6053 23c2 002B     		cmp	r3, #0
 6054 23c4 01D1     		bne	.L432
 6055              		.loc 1 2150 0
 6056 23c6 0023     		movs	r3, #0
 6057 23c8 00E0     		b	.L433
 6058              	.L432:
 6059              		.loc 1 2152 0
 6060 23ca 0123     		movs	r3, #1
 6061              	.L433:
 6062              		.loc 1 2153 0
 6063 23cc 1846     		mov	r0, r3
 6064 23ce 05B0     		add	sp, sp, #20
 6065              		@ sp needed
 6066 23d0 5DF804FB 		ldr	pc, [sp], #4
 6067              		.cfi_endproc
 6068              	.LFE96:
 6069              		.size	LSM6DSM_ACC_GYRO_W_INT_ACT_LEVEL, .-LSM6DSM_ACC_GYRO_W_INT_ACT_LEVEL
 6070              		.align	2
 6071 23d4 AFF30080 		.p2align 4,,15
 6071      AFF30080 
 6071      AFF30080 
 6072              		.global	LSM6DSM_ACC_GYRO_R_INT_ACT_LEVEL
 6073              		.thumb
 6074              		.thumb_func
 6075              		.type	LSM6DSM_ACC_GYRO_R_INT_ACT_LEVEL, %function
 6076              	LSM6DSM_ACC_GYRO_R_INT_ACT_LEVEL:
 6077              	.LFB97:
 6078              		.loc 1 2164 0
 6079              		.cfi_startproc
 6080              		@ args = 0, pretend = 0, frame = 8
 6081              		@ frame_needed = 0, uses_anonymous_args = 0
 6082 23e0 00B5     		push	{lr}
 6083              		.cfi_def_cfa_offset 4
 6084              		.cfi_offset 14, -4
 6085 23e2 83B0     		sub	sp, sp, #12
 6086              		.cfi_def_cfa_offset 16
 6087 23e4 0190     		str	r0, [sp, #4]
 6088 23e6 0091     		str	r1, [sp]
 6089              		.loc 1 2165 0
 6090 23e8 0198     		ldr	r0, [sp, #4]
 6091 23ea 1221     		movs	r1, #18
 6092 23ec 009A     		ldr	r2, [sp]
 6093 23ee FDF707FE 		bl	LSM6DSM_ACC_GYRO_ReadReg
 6094 23f2 0346     		mov	r3, r0
 6095 23f4 002B     		cmp	r3, #0
 6096 23f6 01D1     		bne	.L435
 6097              		.loc 1 2166 0
 6098 23f8 0023     		movs	r3, #0
ARM GAS  /tmp/ccvV0fnY.s 			page 111


 6099 23fa 07E0     		b	.L436
 6100              	.L435:
 6101              		.loc 1 2168 0
 6102 23fc 009B     		ldr	r3, [sp]
 6103 23fe 1B78     		ldrb	r3, [r3]	@ zero_extendqisi2
 6104 2400 03F02003 		and	r3, r3, #32
 6105 2404 DAB2     		uxtb	r2, r3
 6106 2406 009B     		ldr	r3, [sp]
 6107 2408 1A70     		strb	r2, [r3]
 6108              		.loc 1 2170 0
 6109 240a 0123     		movs	r3, #1
 6110              	.L436:
 6111              		.loc 1 2171 0
 6112 240c 1846     		mov	r0, r3
 6113 240e 03B0     		add	sp, sp, #12
 6114              		@ sp needed
 6115 2410 5DF804FB 		ldr	pc, [sp], #4
 6116              		.cfi_endproc
 6117              	.LFE97:
 6118              		.size	LSM6DSM_ACC_GYRO_R_INT_ACT_LEVEL, .-LSM6DSM_ACC_GYRO_R_INT_ACT_LEVEL
 6119              		.align	2
 6120 2414 AFF30080 		.p2align 4,,15
 6120      AFF30080 
 6120      AFF30080 
 6121              		.global	LSM6DSM_ACC_GYRO_W_BDU
 6122              		.thumb
 6123              		.thumb_func
 6124              		.type	LSM6DSM_ACC_GYRO_W_BDU, %function
 6125              	LSM6DSM_ACC_GYRO_W_BDU:
 6126              	.LFB98:
 6127              		.loc 1 2180 0
 6128              		.cfi_startproc
 6129              		@ args = 0, pretend = 0, frame = 16
 6130              		@ frame_needed = 0, uses_anonymous_args = 0
 6131 2420 00B5     		push	{lr}
 6132              		.cfi_def_cfa_offset 4
 6133              		.cfi_offset 14, -4
 6134 2422 85B0     		sub	sp, sp, #20
 6135              		.cfi_def_cfa_offset 24
 6136 2424 0190     		str	r0, [sp, #4]
 6137 2426 0B46     		mov	r3, r1
 6138 2428 8DF80330 		strb	r3, [sp, #3]
 6139              		.loc 1 2183 0
 6140 242c 0DF10F03 		add	r3, sp, #15
 6141 2430 0198     		ldr	r0, [sp, #4]
 6142 2432 1221     		movs	r1, #18
 6143 2434 1A46     		mov	r2, r3
 6144 2436 FDF7E3FD 		bl	LSM6DSM_ACC_GYRO_ReadReg
 6145 243a 0346     		mov	r3, r0
 6146 243c 002B     		cmp	r3, #0
 6147 243e 01D1     		bne	.L438
 6148              		.loc 1 2184 0
 6149 2440 0023     		movs	r3, #0
 6150 2442 1BE0     		b	.L441
 6151              	.L438:
 6152              		.loc 1 2186 0
 6153 2444 9DF80F30 		ldrb	r3, [sp, #15]	@ zero_extendqisi2
ARM GAS  /tmp/ccvV0fnY.s 			page 112


 6154 2448 23F04003 		bic	r3, r3, #64
 6155 244c DBB2     		uxtb	r3, r3
 6156 244e 8DF80F30 		strb	r3, [sp, #15]
 6157              		.loc 1 2187 0
 6158 2452 9DF80F20 		ldrb	r2, [sp, #15]	@ zero_extendqisi2
 6159 2456 9DF80330 		ldrb	r3, [sp, #3]
 6160 245a 1343     		orrs	r3, r3, r2
 6161 245c DBB2     		uxtb	r3, r3
 6162 245e 8DF80F30 		strb	r3, [sp, #15]
 6163              		.loc 1 2189 0
 6164 2462 9DF80F30 		ldrb	r3, [sp, #15]	@ zero_extendqisi2
 6165 2466 0198     		ldr	r0, [sp, #4]
 6166 2468 1221     		movs	r1, #18
 6167 246a 1A46     		mov	r2, r3
 6168 246c FDF7E8FD 		bl	LSM6DSM_ACC_GYRO_WriteReg
 6169 2470 0346     		mov	r3, r0
 6170 2472 002B     		cmp	r3, #0
 6171 2474 01D1     		bne	.L440
 6172              		.loc 1 2190 0
 6173 2476 0023     		movs	r3, #0
 6174 2478 00E0     		b	.L441
 6175              	.L440:
 6176              		.loc 1 2192 0
 6177 247a 0123     		movs	r3, #1
 6178              	.L441:
 6179              		.loc 1 2193 0
 6180 247c 1846     		mov	r0, r3
 6181 247e 05B0     		add	sp, sp, #20
 6182              		@ sp needed
 6183 2480 5DF804FB 		ldr	pc, [sp], #4
 6184              		.cfi_endproc
 6185              	.LFE98:
 6186              		.size	LSM6DSM_ACC_GYRO_W_BDU, .-LSM6DSM_ACC_GYRO_W_BDU
 6187              		.align	2
 6188 2484 AFF30080 		.p2align 4,,15
 6188      AFF30080 
 6188      AFF30080 
 6189              		.global	LSM6DSM_ACC_GYRO_R_BDU
 6190              		.thumb
 6191              		.thumb_func
 6192              		.type	LSM6DSM_ACC_GYRO_R_BDU, %function
 6193              	LSM6DSM_ACC_GYRO_R_BDU:
 6194              	.LFB99:
 6195              		.loc 1 2204 0
 6196              		.cfi_startproc
 6197              		@ args = 0, pretend = 0, frame = 8
 6198              		@ frame_needed = 0, uses_anonymous_args = 0
 6199 2490 00B5     		push	{lr}
 6200              		.cfi_def_cfa_offset 4
 6201              		.cfi_offset 14, -4
 6202 2492 83B0     		sub	sp, sp, #12
 6203              		.cfi_def_cfa_offset 16
 6204 2494 0190     		str	r0, [sp, #4]
 6205 2496 0091     		str	r1, [sp]
 6206              		.loc 1 2205 0
 6207 2498 0198     		ldr	r0, [sp, #4]
 6208 249a 1221     		movs	r1, #18
ARM GAS  /tmp/ccvV0fnY.s 			page 113


 6209 249c 009A     		ldr	r2, [sp]
 6210 249e FDF7AFFD 		bl	LSM6DSM_ACC_GYRO_ReadReg
 6211 24a2 0346     		mov	r3, r0
 6212 24a4 002B     		cmp	r3, #0
 6213 24a6 01D1     		bne	.L443
 6214              		.loc 1 2206 0
 6215 24a8 0023     		movs	r3, #0
 6216 24aa 07E0     		b	.L444
 6217              	.L443:
 6218              		.loc 1 2208 0
 6219 24ac 009B     		ldr	r3, [sp]
 6220 24ae 1B78     		ldrb	r3, [r3]	@ zero_extendqisi2
 6221 24b0 03F04003 		and	r3, r3, #64
 6222 24b4 DAB2     		uxtb	r2, r3
 6223 24b6 009B     		ldr	r3, [sp]
 6224 24b8 1A70     		strb	r2, [r3]
 6225              		.loc 1 2210 0
 6226 24ba 0123     		movs	r3, #1
 6227              	.L444:
 6228              		.loc 1 2211 0
 6229 24bc 1846     		mov	r0, r3
 6230 24be 03B0     		add	sp, sp, #12
 6231              		@ sp needed
 6232 24c0 5DF804FB 		ldr	pc, [sp], #4
 6233              		.cfi_endproc
 6234              	.LFE99:
 6235              		.size	LSM6DSM_ACC_GYRO_R_BDU, .-LSM6DSM_ACC_GYRO_R_BDU
 6236              		.align	2
 6237 24c4 AFF30080 		.p2align 4,,15
 6237      AFF30080 
 6237      AFF30080 
 6238              		.global	LSM6DSM_ACC_GYRO_W_BOOT
 6239              		.thumb
 6240              		.thumb_func
 6241              		.type	LSM6DSM_ACC_GYRO_W_BOOT, %function
 6242              	LSM6DSM_ACC_GYRO_W_BOOT:
 6243              	.LFB100:
 6244              		.loc 1 2220 0
 6245              		.cfi_startproc
 6246              		@ args = 0, pretend = 0, frame = 16
