ARM GAS  /tmp/ccZDdxFb.s 			page 1


   1              		.syntax unified
   2              		.cpu cortex-m4
   3              		.fpu softvfp
   4              		.eabi_attribute 20, 1
   5              		.eabi_attribute 21, 1
   6              		.eabi_attribute 23, 3
   7              		.eabi_attribute 24, 1
   8              		.eabi_attribute 25, 1
   9              		.eabi_attribute 26, 1
  10              		.eabi_attribute 30, 6
  11              		.eabi_attribute 34, 1
  12              		.eabi_attribute 18, 4
  13              		.thumb
  14              		.file	"MetaDataManager.c"
  15              		.text
  16              	.Ltext0:
  17              		.cfi_sections	.debug_frame
  18              		.bss
  19              		.align	3
  20              	uint64_MetaDataVector:
  21 0000 00000000 		.space	4096
  21      00000000 
  21      00000000 
  21      00000000 
  21      00000000 
  22              		.data
  23              		.align	2
  24              		.type	puint8_RW_MetaData, %object
  25              		.size	puint8_RW_MetaData, 4
  26              	puint8_RW_MetaData:
  27 0000 08000000 		.word	uint64_MetaDataVector+8
  28              		.align	2
  29              		.type	pMetaDataManagerHeader, %object
  30              		.size	pMetaDataManagerHeader, 4
  31              	pMetaDataManagerHeader:
  32 0004 00000000 		.word	uint64_MetaDataVector
  33              		.bss
  34              		.align	2
  35              	NumberOfKnownLic:
  36 1000 00000000 		.space	4
  37              		.align	2
  38              	NumberOfKnownGMD:
  39 1004 00000000 		.space	4
  40              		.global	NecessityToSaveMetaDataManager
  41              		.align	2
  42              		.type	NecessityToSaveMetaDataManager, %object
  43              		.size	NecessityToSaveMetaDataManager, 4
  44              	NecessityToSaveMetaDataManager:
  45 1008 00000000 		.space	4
  46              		.global	MDM_LicTable
  47              		.data
  48              		.align	2
  49              		.type	MDM_LicTable, %object
  50              		.size	MDM_LicTable, 320
  51              	MDM_LicTable:
  52 0008 00000000 		.word	0
  53 000c 303000   		.ascii	"00\000"
ARM GAS  /tmp/ccZDdxFb.s 			page 2


  54 000f 00000000 		.space	9
  54      00000000 
  54      00
  55 0018 4E554C4C 		.ascii	"NULL\000"
  55      00
  56 001d 00000000 		.space	7
  56      000000
  57 0024 00000000 		.word	0
  58 0028 01000000 		.word	1
  59 002c 465800   		.ascii	"FX\000"
  60 002f 00000000 		.space	9
  60      00000000 
  60      00
  61 0038 4D6F7469 		.ascii	"Motion\000"
  61      6F6E00
  62 003f 00000000 		.space	5
  62      00
  63 0044 00000000 		.word	0
  64 0048 02000000 		.word	2
  65 004c 415200   		.ascii	"AR\000"
  66 004f 00000000 		.space	9
  66      00000000 
  66      00
  67 0058 4D6F7469 		.ascii	"Motion\000"
  67      6F6E00
  68 005f 00000000 		.space	5
  68      00
  69 0064 00000000 		.word	0
  70 0068 03000000 		.word	3
  71 006c 435000   		.ascii	"CP\000"
  72 006f 00000000 		.space	9
  72      00000000 
  72      00
  73 0078 4D6F7469 		.ascii	"Motion\000"
  73      6F6E00
  74 007f 00000000 		.space	5
  74      00
  75 0084 00000000 		.word	0
  76 0088 04000000 		.word	4
  77 008c 475200   		.ascii	"GR\000"
  78 008f 00000000 		.space	9
  78      00000000 
  78      00
  79 0098 4D6F7469 		.ascii	"Motion\000"
  79      6F6E00
  80 009f 00000000 		.space	5
  80      00
  81 00a4 00000000 		.word	0
  82 00a8 05000000 		.word	5
  83 00ac 504D00   		.ascii	"PM\000"
  84 00af 00000000 		.space	9
  84      00000000 
  84      00
  85 00b8 4D6F7469 		.ascii	"Motion\000"
  85      6F6E00
  86 00bf 00000000 		.space	5
  86      00
ARM GAS  /tmp/ccZDdxFb.s 			page 3


  87 00c4 00000000 		.word	0
  88 00c8 06000000 		.word	6
  89 00cc 534C00   		.ascii	"SL\000"
  90 00cf 00000000 		.space	9
  90      00000000 
  90      00
  91 00d8 41636F75 		.ascii	"Acoustic\000"
  91      73746963 
  91      00
  92 00e1 000000   		.space	3
  93 00e4 00000000 		.word	0
  94 00e8 07000000 		.word	7
  95 00ec 424600   		.ascii	"BF\000"
  96 00ef 00000000 		.space	9
  96      00000000 
  96      00
  97 00f8 41636F75 		.ascii	"Acoustic\000"
  97      73746963 
  97      00
  98 0101 000000   		.space	3
  99 0104 00000000 		.word	0
 100 0108 08000000 		.word	8
 101 010c 425600   		.ascii	"BV\000"
 102 010f 00000000 		.space	9
 102      00000000 
 102      00
 103 0118 41756469 		.ascii	"Audio\000"
 103      6F00
 104 011e 00000000 		.space	6
 104      0000
 105 0124 00000000 		.word	0
 106 0128 09000000 		.word	9
 107 012c 494400   		.ascii	"ID\000"
 108 012f 00000000 		.space	9
 108      00000000 
 108      00
 109 0138 4D6F7469 		.ascii	"Motion\000"
 109      6F6E00
 110 013f 00000000 		.space	5
 110      00
 111 0144 00000000 		.word	0
 112              		.global	MDM_GMDTable
 113              		.align	2
 114              		.type	MDM_GMDTable, %object
 115              		.size	MDM_GMDTable, 168
 116              	MDM_GMDTable:
 117 0148 00000000 		.word	0
 118 014c 4E554C4C 		.ascii	"NULL\000"
 118      00
 119 0151 00000000 		.space	11
 119      00000000 
 119      000000
 120 015c 00000000 		.word	0
 121 0160 00000000 		.word	0
 122 0164 01000000 		.word	1
 123 0168 57494649 		.ascii	"WIFI\000"
 123      00
ARM GAS  /tmp/ccZDdxFb.s 			page 4


 124 016d 00000000 		.space	11
 124      00000000 
 124      000000
 125 0178 00000000 		.word	0
 126 017c 00000000 		.word	0
 127 0180 02000000 		.word	2
 128 0184 424C5545 		.ascii	"BLUEMIX\000"
 128      4D495800 
 129 018c 00000000 		.space	8
 129      00000000 
 130 0194 00000000 		.word	0
 131 0198 00000000 		.word	0
 132 019c 03000000 		.word	3
 133 01a0 415A5552 		.ascii	"AZURE\000"
 133      4500
 134 01a6 00000000 		.space	10
 134      00000000 
 134      0000
 135 01b0 00000000 		.word	0
 136 01b4 00000000 		.word	0
 137 01b8 04000000 		.word	4
 138 01bc 414D415A 		.ascii	"AMAZON\000"
 138      4F4E00
 139 01c3 00000000 		.space	9
 139      00000000 
 139      00
 140 01cc 00000000 		.word	0
 141 01d0 00000000 		.word	0
 142 01d4 05000000 		.word	5
 143 01d8 58495645 		.ascii	"XIVELY\000"
 143      4C5900
 144 01df 00000000 		.space	9
 144      00000000 
 144      00
 145 01e8 00000000 		.word	0
 146 01ec 00000000 		.word	0
 147              		.text
 148              		.align	2
 149              		.p2align 4,,15
 150              		.global	InitMetaDataManager
 151              		.thumb
 152              		.thumb_func
 153              		.type	InitMetaDataManager, %function
 154              	InitMetaDataManager:
 155              	.LFB125:
 156              		.file 1 "../../../../../Middlewares/ST/STM32_MetaDataManager/MetaDataManager.c"
 157              		.loc 1 103 0
 158              		.cfi_startproc
 159              		@ args = 4, pretend = 16, frame = 72
 160              		@ frame_needed = 0, uses_anonymous_args = 1
 161 0000 0FB4     		push	{r0, r1, r2, r3}
 162              		.cfi_def_cfa_offset 16
 163              		.cfi_offset 0, -16
 164              		.cfi_offset 1, -12
 165              		.cfi_offset 2, -8
 166              		.cfi_offset 3, -4
 167 0002 00B5     		push	{lr}
ARM GAS  /tmp/ccZDdxFb.s 			page 5


 168              		.cfi_def_cfa_offset 20
 169              		.cfi_offset 14, -20
 170 0004 93B0     		sub	sp, sp, #76
 171              		.cfi_def_cfa_offset 96
 172              		.loc 1 105 0
 173 0006 0023     		movs	r3, #0
 174 0008 1093     		str	r3, [sp, #64]
 175              		.loc 1 106 0
 176 000a 0023     		movs	r3, #0
 177 000c 0F93     		str	r3, [sp, #60]
 178              		.loc 1 111 0
 179 000e 964B     		ldr	r3, .L47
 180 0010 964A     		ldr	r2, .L47+4
 181 0012 1A60     		str	r2, [r3]
 182              		.loc 1 118 0
 183 0014 00F0BCFA 		bl	ReCallMetaDataManager
 184 0018 0346     		mov	r3, r0
 185 001a 002B     		cmp	r3, #0
 186 001c 05D1     		bne	.L2
 187              		.loc 1 120 0
 188 001e FFF7FEFF 		bl	ReseMetaDataManager
 189              		.loc 1 121 0
 190 0022 0023     		movs	r3, #0
 191 0024 1093     		str	r3, [sp, #64]
 192              		.loc 1 122 0
 193 0026 0023     		movs	r3, #0
 194 0028 0F93     		str	r3, [sp, #60]
 195              	.L2:
 196              		.loc 1 126 0
 197 002a 15AB     		add	r3, sp, #84
 198 002c 0093     		str	r3, [sp]
 199              		.loc 1 128 0
 200 002e 149B     		ldr	r3, [sp, #80]
 201 0030 0E93     		str	r3, [sp, #56]
 202              		.loc 1 129 0
 203 0032 65E2     		b	.L3
 204              	.L42:
 205              	.LBB2:
 206              		.loc 1 131 0
 207 0034 0023     		movs	r3, #0
 208 0036 0C93     		str	r3, [sp, #48]
 209              		.loc 1 132 0
 210 0038 0023     		movs	r3, #0
 211 003a 0B93     		str	r3, [sp, #44]
 212              		.loc 1 134 0
 213 003c 009B     		ldr	r3, [sp]
 214 003e 1A1D     		adds	r2, r3, #4
 215 0040 0092     		str	r2, [sp]
 216 0042 1B68     		ldr	r3, [r3]
 217 0044 8DF81B30 		strb	r3, [sp, #27]
 218              		.loc 1 136 0
 219 0048 9DF81B30 		ldrb	r3, [sp, #27]	@ zero_extendqisi2
 220 004c 002B     		cmp	r3, #0
 221 004e 02D0     		beq	.L5
 222 0050 012B     		cmp	r3, #1
 223 0052 19D0     		beq	.L6
 224              		.loc 1 159 0
ARM GAS  /tmp/ccZDdxFb.s 			page 6


 225 0054 8AE2     		b	.L1
 226              	.L5:
 227              		.loc 1 138 0
 228 0056 0E9B     		ldr	r3, [sp, #56]
 229 0058 0C93     		str	r3, [sp, #48]
 230              		.loc 1 140 0
 231 005a 0023     		movs	r3, #0
 232 005c 0D93     		str	r3, [sp, #52]
 233 005e 07E0     		b	.L7
 234              	.L8:
 235              		.loc 1 141 0 discriminator 2
 236 0060 834B     		ldr	r3, .L47+8
 237 0062 1B68     		ldr	r3, [r3]
 238 0064 5A1C     		adds	r2, r3, #1
 239 0066 824B     		ldr	r3, .L47+8
 240 0068 1A60     		str	r2, [r3]
 241              		.loc 1 140 0 discriminator 2
 242 006a 0D9B     		ldr	r3, [sp, #52]
 243 006c 0133     		adds	r3, r3, #1
 244 006e 0D93     		str	r3, [sp, #52]
 245              	.L7:
 246              		.loc 1 140 0 is_stmt 0 discriminator 1
 247 0070 0D9A     		ldr	r2, [sp, #52]
 248 0072 1346     		mov	r3, r2
 249 0074 5B00     		lsls	r3, r3, #1
 250 0076 1344     		add	r3, r3, r2
 251 0078 1A01     		lsls	r2, r3, #4
 252 007a D31A     		subs	r3, r2, r3
 253 007c 0C9A     		ldr	r2, [sp, #48]
 254 007e 1344     		add	r3, r3, r2
 255 0080 1B78     		ldrb	r3, [r3]	@ zero_extendqisi2
 256 0082 002B     		cmp	r3, #0
 257 0084 ECD1     		bne	.L8
 258              		.loc 1 146 0 is_stmt 1
 259 0086 14E0     		b	.L9
 260              	.L6:
 261              		.loc 1 148 0
 262 0088 0E9B     		ldr	r3, [sp, #56]
 263 008a 0B93     		str	r3, [sp, #44]
 264              		.loc 1 150 0
 265 008c 0023     		movs	r3, #0
 266 008e 0D93     		str	r3, [sp, #52]
 267 0090 07E0     		b	.L10
 268              	.L11:
 269              		.loc 1 151 0 discriminator 2
 270 0092 784B     		ldr	r3, .L47+12
 271 0094 1B68     		ldr	r3, [r3]
 272 0096 5A1C     		adds	r2, r3, #1
 273 0098 764B     		ldr	r3, .L47+12
 274 009a 1A60     		str	r2, [r3]
 275              		.loc 1 150 0 discriminator 2
 276 009c 0D9B     		ldr	r3, [sp, #52]
 277 009e 0133     		adds	r3, r3, #1
 278 00a0 0D93     		str	r3, [sp, #52]
 279              	.L10:
 280              		.loc 1 150 0 is_stmt 0 discriminator 1
 281 00a2 0D9B     		ldr	r3, [sp, #52]
ARM GAS  /tmp/ccZDdxFb.s 			page 7


 282 00a4 DB00     		lsls	r3, r3, #3
 283 00a6 0B9A     		ldr	r2, [sp, #44]
 284 00a8 1344     		add	r3, r3, r2
 285 00aa 1B78     		ldrb	r3, [r3]	@ zero_extendqisi2
 286 00ac 002B     		cmp	r3, #0
 287 00ae F0D1     		bne	.L11
 288              		.loc 1 156 0 is_stmt 1
 289 00b0 00BF     		nop
 290              	.L9:
 291              		.loc 1 163 0
 292 00b2 714B     		ldr	r3, .L47+16
 293 00b4 1B68     		ldr	r3, [r3]
 294 00b6 0833     		adds	r3, r3, #8
 295 00b8 1193     		str	r3, [sp, #68]
 296              		.loc 1 165 0
 297 00ba 98E0     		b	.L13
 298              	.L23:
 299              		.loc 1 168 0
 300 00bc 119B     		ldr	r3, [sp, #68]
 301 00be 1B68     		ldr	r3, [r3]
 302 00c0 002B     		cmp	r3, #0
 303 00c2 38D1     		bne	.L14
 304              	.LBB3:
 305              		.loc 1 170 0
 306 00c4 0023     		movs	r3, #0
 307 00c6 0A93     		str	r3, [sp, #40]
 308              		.loc 1 171 0
 309 00c8 119B     		ldr	r3, [sp, #68]
 310 00ca 0833     		adds	r3, r3, #8
 311 00cc 0593     		str	r3, [sp, #20]
 312              		.loc 1 174 0
 313 00ce 0023     		movs	r3, #0
 314 00d0 0D93     		str	r3, [sp, #52]
 315 00d2 1DE0     		b	.L15
 316              	.L17:
 317              		.loc 1 177 0
 318 00d4 0D9A     		ldr	r2, [sp, #52]
 319 00d6 1346     		mov	r3, r2
 320 00d8 5B00     		lsls	r3, r3, #1
 321 00da 1344     		add	r3, r3, r2
 322 00dc 1A01     		lsls	r2, r3, #4
 323 00de D31A     		subs	r3, r2, r3
 324 00e0 0C9A     		ldr	r2, [sp, #48]
 325 00e2 1344     		add	r3, r3, r2
 326 00e4 1B78     		ldrb	r3, [r3]	@ zero_extendqisi2
 327 00e6 1A46     		mov	r2, r3
 328 00e8 059B     		ldr	r3, [sp, #20]
 329 00ea 1B68     		ldr	r3, [r3]
 330 00ec 9A42     		cmp	r2, r3
 331 00ee 0CD1     		bne	.L16
 332              		.loc 1 178 0
 333 00f0 0123     		movs	r3, #1
 334 00f2 0A93     		str	r3, [sp, #40]
 335              		.loc 1 179 0
 336 00f4 059B     		ldr	r3, [sp, #20]
 337 00f6 1B68     		ldr	r3, [r3]
 338 00f8 059A     		ldr	r2, [sp, #20]
ARM GAS  /tmp/ccZDdxFb.s 			page 8


 339 00fa 6049     		ldr	r1, .L47+20
 340 00fc 5B01     		lsls	r3, r3, #5
 341 00fe 0B44     		add	r3, r3, r1
 342 0100 1833     		adds	r3, r3, #24
 343 0102 5A60     		str	r2, [r3, #4]
 344              		.loc 1 180 0
 345 0104 109B     		ldr	r3, [sp, #64]
 346 0106 0133     		adds	r3, r3, #1
 347 0108 1093     		str	r3, [sp, #64]
 348              	.L16:
 349              		.loc 1 174 0
 350 010a 0D9B     		ldr	r3, [sp, #52]
 351 010c 0133     		adds	r3, r3, #1
 352 010e 0D93     		str	r3, [sp, #52]
 353              	.L15:
 354              		.loc 1 174 0 is_stmt 0 discriminator 1
 355 0110 574B     		ldr	r3, .L47+8
 356 0112 1B68     		ldr	r3, [r3]
 357 0114 0D9A     		ldr	r2, [sp, #52]
 358 0116 9A42     		cmp	r2, r3
 359 0118 2CBF     		ite	cs
 360 011a 0023     		movcs	r3, #0
 361 011c 0123     		movcc	r3, #1
 362 011e DAB2     		uxtb	r2, r3
 363 0120 0A9B     		ldr	r3, [sp, #40]
 364 0122 002B     		cmp	r3, #0
 365 0124 14BF     		ite	ne
 366 0126 0023     		movne	r3, #0
 367 0128 0123     		moveq	r3, #1
 368 012a DBB2     		uxtb	r3, r3
 369 012c 1340     		ands	r3, r3, r2
 370 012e DBB2     		uxtb	r3, r3
 371 0130 002B     		cmp	r3, #0
 372 0132 CFD1     		bne	.L17
 373              	.LBE3:
 374 0134 56E0     		b	.L18
 375              	.L14:
 376              		.loc 1 183 0 is_stmt 1
 377 0136 119B     		ldr	r3, [sp, #68]
 378 0138 1B68     		ldr	r3, [r3]
 379 013a 012B     		cmp	r3, #1
 380 013c 52D1     		bne	.L18
 381              	.LBB4:
 382              		.loc 1 185 0
 383 013e 0023     		movs	r3, #0
 384 0140 0993     		str	r3, [sp, #36]
 385              		.loc 1 186 0
 386 0142 119B     		ldr	r3, [sp, #68]
 387 0144 0833     		adds	r3, r3, #8
 388 0146 0493     		str	r3, [sp, #16]
 389              		.loc 1 189 0
 390 0148 0023     		movs	r3, #0
 391 014a 0D93     		str	r3, [sp, #52]
 392 014c 38E0     		b	.L19
 393              	.L22:
 394              		.loc 1 191 0
 395 014e 0D9B     		ldr	r3, [sp, #52]
ARM GAS  /tmp/ccZDdxFb.s 			page 9


 396 0150 DB00     		lsls	r3, r3, #3
 397 0152 0B9A     		ldr	r2, [sp, #44]
 398 0154 1344     		add	r3, r3, r2
 399 0156 1B78     		ldrb	r3, [r3]	@ zero_extendqisi2
 400 0158 1A46     		mov	r2, r3
 401 015a 049B     		ldr	r3, [sp, #16]
 402 015c 1B68     		ldr	r3, [r3]
 403 015e 9A42     		cmp	r2, r3
 404 0160 2BD1     		bne	.L20
 405              		.loc 1 192 0
 406 0162 0123     		movs	r3, #1
 407 0164 0993     		str	r3, [sp, #36]
 408              		.loc 1 193 0
 409 0166 049B     		ldr	r3, [sp, #16]
 410 0168 1A68     		ldr	r2, [r3]
 411 016a 0499     		ldr	r1, [sp, #16]
 412 016c 4448     		ldr	r0, .L47+24
 413 016e 1346     		mov	r3, r2
 414 0170 DB00     		lsls	r3, r3, #3
 415 0172 9B1A     		subs	r3, r3, r2
 416 0174 9B00     		lsls	r3, r3, #2
 417 0176 0344     		add	r3, r3, r0
 418 0178 1833     		adds	r3, r3, #24
 419 017a 1960     		str	r1, [r3]
 420              		.loc 1 194 0
 421 017c 0F9B     		ldr	r3, [sp, #60]
 422 017e 0133     		adds	r3, r3, #1
 423 0180 0F93     		str	r3, [sp, #60]
 424              		.loc 1 195 0
 425 0182 049B     		ldr	r3, [sp, #16]
 426 0184 1A68     		ldr	r2, [r3]
 427 0186 049B     		ldr	r3, [sp, #16]
 428 0188 5968     		ldr	r1, [r3, #4]
 429 018a 3D48     		ldr	r0, .L47+24
 430 018c 1346     		mov	r3, r2
 431 018e DB00     		lsls	r3, r3, #3
 432 0190 9B1A     		subs	r3, r3, r2
 433 0192 9B00     		lsls	r3, r3, #2
 434 0194 0344     		add	r3, r3, r0
 435 0196 1033     		adds	r3, r3, #16
 436 0198 5960     		str	r1, [r3, #4]
 437              		.loc 1 196 0
 438 019a 0D9B     		ldr	r3, [sp, #52]
 439 019c DB00     		lsls	r3, r3, #3
 440 019e 0B9A     		ldr	r2, [sp, #44]
 441 01a0 1344     		add	r3, r3, r2
 442 01a2 5A68     		ldr	r2, [r3, #4]
 443 01a4 049B     		ldr	r3, [sp, #16]
 444 01a6 5B68     		ldr	r3, [r3, #4]
 445 01a8 9A42     		cmp	r2, r3
 446 01aa 06D0     		beq	.L20
 447              		.loc 1 201 0
 448 01ac FFF7FEFF 		bl	ReseMetaDataManager
 449              		.loc 1 202 0
 450 01b0 0023     		movs	r3, #0
 451 01b2 1093     		str	r3, [sp, #64]
 452              		.loc 1 203 0
ARM GAS  /tmp/ccZDdxFb.s 			page 10


 453 01b4 0023     		movs	r3, #0
 454 01b6 0F93     		str	r3, [sp, #60]
 455              		.loc 1 204 0
 456 01b8 1EE0     		b	.L21
 457              	.L20:
 458              		.loc 1 189 0
 459 01ba 0D9B     		ldr	r3, [sp, #52]
 460 01bc 0133     		adds	r3, r3, #1
 461 01be 0D93     		str	r3, [sp, #52]
 462              	.L19:
 463              		.loc 1 189 0 is_stmt 0 discriminator 1
 464 01c0 2C4B     		ldr	r3, .L47+12
 465 01c2 1B68     		ldr	r3, [r3]
 466 01c4 0D9A     		ldr	r2, [sp, #52]
 467 01c6 9A42     		cmp	r2, r3
 468 01c8 2CBF     		ite	cs
 469 01ca 0023     		movcs	r3, #0
 470 01cc 0123     		movcc	r3, #1
 471 01ce DAB2     		uxtb	r2, r3
 472 01d0 099B     		ldr	r3, [sp, #36]
 473 01d2 002B     		cmp	r3, #0
 474 01d4 14BF     		ite	ne
 475 01d6 0023     		movne	r3, #0
 476 01d8 0123     		moveq	r3, #1
 477 01da DBB2     		uxtb	r3, r3
 478 01dc 1340     		ands	r3, r3, r2
 479 01de DBB2     		uxtb	r3, r3
 480 01e0 002B     		cmp	r3, #0
 481 01e2 B4D1     		bne	.L22
 482              	.L18:
 483              	.LBE4:
 484              		.loc 1 216 0 is_stmt 1
 485 01e4 119B     		ldr	r3, [sp, #68]
 486 01e6 5A68     		ldr	r2, [r3, #4]
 487 01e8 119B     		ldr	r3, [sp, #68]
 488 01ea 1344     		add	r3, r3, r2
 489 01ec 1193     		str	r3, [sp, #68]
 490              	.L13:
 491              		.loc 1 165 0 discriminator 1
 492 01ee 119B     		ldr	r3, [sp, #68]
 493 01f0 1B68     		ldr	r3, [r3]
 494 01f2 FF2B     		cmp	r3, #255
 495 01f4 7FF462AF 		bne	.L23
 496              	.L21:
 497              		.loc 1 221 0
 498 01f8 9DF81B30 		ldrb	r3, [sp, #27]	@ zero_extendqisi2
 499 01fc 002B     		cmp	r3, #0
 500 01fe 40F0A180 		bne	.L24
 501              		.loc 1 223 0
 502 0202 1B4B     		ldr	r3, .L47+8
 503 0204 1B68     		ldr	r3, [r3]
 504 0206 109A     		ldr	r2, [sp, #64]
 505 0208 9A42     		cmp	r2, r3
 506 020a 80F07481 		bcs	.L32
 507              		.loc 1 224 0
 508 020e 1D4B     		ldr	r3, .L47+28
 509 0210 0122     		movs	r2, #1
ARM GAS  /tmp/ccZDdxFb.s 			page 11


 510 0212 1A60     		str	r2, [r3]
 511              		.loc 1 228 0
 512 0214 164B     		ldr	r3, .L47+8
 513 0216 1A68     		ldr	r2, [r3]
 514 0218 109B     		ldr	r3, [sp, #64]
 515 021a D31A     		subs	r3, r2, r3
 516 021c A422     		movs	r2, #164
 517 021e 02FB03F2 		mul	r2, r2, r3
 518              		.loc 1 226 0
 519 0222 114B     		ldr	r3, .L47
 520 0224 1B68     		ldr	r3, [r3]
 521              		.loc 1 227 0
 522 0226 1A44     		add	r2, r2, r3
 523              		.loc 1 226 0
 524 0228 174B     		ldr	r3, .L47+32
 525 022a C3F10803 		rsb	r3, r3, #8
 526              		.loc 1 227 0
 527 022e 1344     		add	r3, r3, r2
 528              		.loc 1 226 0
 529 0230 B3F5805F 		cmp	r3, #4096
 530 0234 14D9     		bls	.L26
 531              		.loc 1 231 0
 532 0236 0C4B     		ldr	r3, .L47
 533 0238 0C4A     		ldr	r2, .L47+4
 534 023a 1A60     		str	r2, [r3]
 535              		.loc 1 232 0
 536 023c 0123     		movs	r3, #1
 537 023e 0D93     		str	r3, [sp, #52]
 538 0240 09E0     		b	.L27
 539              	.L28:
 540              		.loc 1 233 0 discriminator 2
 541 0242 0E4A     		ldr	r2, .L47+20
 542 0244 0D9B     		ldr	r3, [sp, #52]
 543 0246 5B01     		lsls	r3, r3, #5
 544 0248 1344     		add	r3, r3, r2
 545 024a 1833     		adds	r3, r3, #24
 546 024c 0022     		movs	r2, #0
 547 024e 5A60     		str	r2, [r3, #4]
 548              		.loc 1 232 0 discriminator 2
 549 0250 0D9B     		ldr	r3, [sp, #52]
 550 0252 0133     		adds	r3, r3, #1
 551 0254 0D93     		str	r3, [sp, #52]
 552              	.L27:
 553              		.loc 1 232 0 is_stmt 0 discriminator 1
 554 0256 0D9B     		ldr	r3, [sp, #52]
 555 0258 092B     		cmp	r3, #9
 556 025a F2D9     		bls	.L28
 557              		.loc 1 235 0 is_stmt 1
 558 025c 0023     		movs	r3, #0
 559 025e 1093     		str	r3, [sp, #64]
 560              	.L26:
 561              		.loc 1 239 0
 562 0260 0023     		movs	r3, #0
 563 0262 0D93     		str	r3, [sp, #52]
 564 0264 5FE0     		b	.L29
 565              	.L48:
 566 0266 00BF     		.align	2
ARM GAS  /tmp/ccZDdxFb.s 			page 12


 567              	.L47:
 568 0268 00000000 		.word	puint8_RW_MetaData
 569 026c 08000000 		.word	uint64_MetaDataVector+8
 570 0270 00100000 		.word	NumberOfKnownLic
 571 0274 04100000 		.word	NumberOfKnownGMD
 572 0278 04000000 		.word	pMetaDataManagerHeader
 573 027c 00000000 		.word	MDM_LicTable
 574 0280 00000000 		.word	MDM_GMDTable
 575 0284 00000000 		.word	NecessityToSaveMetaDataManager
 576 0288 00000000 		.word	uint64_MetaDataVector
 577              	.L31:
 578              		.loc 1 243 0
 579 028c 0D9A     		ldr	r2, [sp, #52]
 580 028e 1346     		mov	r3, r2
 581 0290 5B00     		lsls	r3, r3, #1
 582 0292 1344     		add	r3, r3, r2
 583 0294 1A01     		lsls	r2, r3, #4
 584 0296 D31A     		subs	r3, r2, r3
 585 0298 0C9A     		ldr	r2, [sp, #48]
 586 029a 1344     		add	r3, r3, r2
 587 029c 1B78     		ldrb	r3, [r3]	@ zero_extendqisi2
 588 029e 584A     		ldr	r2, .L49
 589 02a0 5B01     		lsls	r3, r3, #5
 590 02a2 1344     		add	r3, r3, r2
 591 02a4 1833     		adds	r3, r3, #24
 592 02a6 5B68     		ldr	r3, [r3, #4]
 593 02a8 002B     		cmp	r3, #0
 594 02aa 39D1     		bne	.L30
 595              	.LBB5:
 596              		.loc 1 249 0
 597 02ac 554B     		ldr	r3, .L49+4
 598 02ae 1B68     		ldr	r3, [r3]
 599 02b0 1193     		str	r3, [sp, #68]
 600              		.loc 1 253 0
 601 02b2 119B     		ldr	r3, [sp, #68]
 602 02b4 0022     		movs	r2, #0
 603 02b6 1A60     		str	r2, [r3]
 604              		.loc 1 254 0
 605 02b8 119B     		ldr	r3, [sp, #68]
 606 02ba A422     		movs	r2, #164
 607 02bc 5A60     		str	r2, [r3, #4]
 608              		.loc 1 255 0
 609 02be 119B     		ldr	r3, [sp, #68]
 610 02c0 0833     		adds	r3, r3, #8
 611 02c2 0393     		str	r3, [sp, #12]
 612              		.loc 1 259 0
 613 02c4 0D9A     		ldr	r2, [sp, #52]
 614 02c6 1346     		mov	r3, r2
 615 02c8 5B00     		lsls	r3, r3, #1
 616 02ca 1344     		add	r3, r3, r2
 617 02cc 1A01     		lsls	r2, r3, #4
 618 02ce D31A     		subs	r3, r2, r3
 619 02d0 0C9A     		ldr	r2, [sp, #48]
 620 02d2 1344     		add	r3, r3, r2
 621 02d4 1B78     		ldrb	r3, [r3]	@ zero_extendqisi2
 622 02d6 1A46     		mov	r2, r3
 623 02d8 039B     		ldr	r3, [sp, #12]
ARM GAS  /tmp/ccZDdxFb.s 			page 13


 624 02da 1A60     		str	r2, [r3]
 625              		.loc 1 260 0
 626 02dc 039B     		ldr	r3, [sp, #12]
 627 02de 0022     		movs	r2, #0
 628 02e0 5A60     		str	r2, [r3, #4]
 629              		.loc 1 261 0
 630 02e2 039B     		ldr	r3, [sp, #12]
 631 02e4 03F10801 		add	r1, r3, #8
 632 02e8 0D9A     		ldr	r2, [sp, #52]
 633 02ea 1346     		mov	r3, r2
 634 02ec 5B00     		lsls	r3, r3, #1
 635 02ee 1344     		add	r3, r3, r2
 636 02f0 1A01     		lsls	r2, r3, #4
 637 02f2 D31A     		subs	r3, r2, r3
 638 02f4 0C9A     		ldr	r2, [sp, #48]
 639 02f6 1344     		add	r3, r3, r2
 640 02f8 0933     		adds	r3, r3, #9
 641 02fa 0846     		mov	r0, r1
 642 02fc 1946     		mov	r1, r3
 643 02fe FFF7FEFF 		bl	sprintf
 644              		.loc 1 263 0
 645 0302 039B     		ldr	r3, [sp, #12]
 646 0304 1B68     		ldr	r3, [r3]
 647 0306 039A     		ldr	r2, [sp, #12]
 648 0308 3D49     		ldr	r1, .L49
 649 030a 5B01     		lsls	r3, r3, #5
 650 030c 0B44     		add	r3, r3, r1
 651 030e 1833     		adds	r3, r3, #24
 652 0310 5A60     		str	r2, [r3, #4]
 653              		.loc 1 265 0
 654 0312 3C4B     		ldr	r3, .L49+4
 655 0314 1A68     		ldr	r2, [r3]
 656 0316 119B     		ldr	r3, [sp, #68]
 657 0318 5B68     		ldr	r3, [r3, #4]
 658 031a 1A44     		add	r2, r2, r3
 659 031c 394B     		ldr	r3, .L49+4
 660 031e 1A60     		str	r2, [r3]
 661              	.L30:
 662              	.LBE5:
 663              		.loc 1 239 0
 664 0320 0D9B     		ldr	r3, [sp, #52]
 665 0322 0133     		adds	r3, r3, #1
 666 0324 0D93     		str	r3, [sp, #52]
 667              	.L29:
 668              		.loc 1 239 0 is_stmt 0 discriminator 1
 669 0326 384B     		ldr	r3, .L49+8
 670 0328 1B68     		ldr	r3, [r3]
 671 032a 0D9A     		ldr	r2, [sp, #52]
 672 032c 9A42     		cmp	r2, r3
 673 032e ADD3     		bcc	.L31
 674              		.loc 1 274 0 is_stmt 1
 675 0330 344B     		ldr	r3, .L49+4
 676 0332 1B68     		ldr	r3, [r3]
 677 0334 FF22     		movs	r2, #255
 678 0336 1A60     		str	r2, [r3]
 679              		.loc 1 275 0
 680 0338 324B     		ldr	r3, .L49+4
ARM GAS  /tmp/ccZDdxFb.s 			page 14


 681 033a 1B68     		ldr	r3, [r3]
 682 033c 0433     		adds	r3, r3, #4
 683 033e 0022     		movs	r2, #0
 684 0340 1A60     		str	r2, [r3]
 685 0342 D8E0     		b	.L32
 686              	.L24:
 687              		.loc 1 277 0
 688 0344 9DF81B30 		ldrb	r3, [sp, #27]	@ zero_extendqisi2
 689 0348 012B     		cmp	r3, #1
 690 034a 40F0D480 		bne	.L32
 691              		.loc 1 279 0
 692 034e 2F4B     		ldr	r3, .L49+12
 693 0350 1B68     		ldr	r3, [r3]
 694 0352 0F9A     		ldr	r2, [sp, #60]
 695 0354 9A42     		cmp	r2, r3
 696 0356 80F0CE80 		bcs	.L32
 697              	.LBB6:
 698              		.loc 1 281 0
 699 035a 0023     		movs	r3, #0
 700 035c 0893     		str	r3, [sp, #32]
 701              		.loc 1 283 0
 702 035e 2C4B     		ldr	r3, .L49+16
 703 0360 0122     		movs	r2, #1
 704 0362 1A60     		str	r2, [r3]
 705              		.loc 1 285 0
 706 0364 0023     		movs	r3, #0
 707 0366 0793     		str	r3, [sp, #28]
 708 0368 1EE0     		b	.L33
 709              	.L35:
 710              		.loc 1 286 0
 711 036a 079B     		ldr	r3, [sp, #28]
 712 036c DB00     		lsls	r3, r3, #3
 713 036e 0B9A     		ldr	r2, [sp, #44]
 714 0370 1344     		add	r3, r3, r2
 715 0372 1B78     		ldrb	r3, [r3]	@ zero_extendqisi2
 716 0374 1A46     		mov	r2, r3
 717 0376 2749     		ldr	r1, .L49+20
 718 0378 1346     		mov	r3, r2
 719 037a DB00     		lsls	r3, r3, #3
 720 037c 9B1A     		subs	r3, r3, r2
 721 037e 9B00     		lsls	r3, r3, #2
 722 0380 0B44     		add	r3, r3, r1
 723 0382 1833     		adds	r3, r3, #24
 724 0384 1B68     		ldr	r3, [r3]
 725 0386 002B     		cmp	r3, #0
 726 0388 0BD1     		bne	.L34
 727              		.loc 1 287 0
 728 038a 079B     		ldr	r3, [sp, #28]
 729 038c DB00     		lsls	r3, r3, #3
 730 038e 0B9A     		ldr	r2, [sp, #44]
 731 0390 1344     		add	r3, r3, r2
 732 0392 5B68     		ldr	r3, [r3, #4]
 733 0394 0733     		adds	r3, r3, #7
 734 0396 23F00702 		bic	r2, r3, #7
 735 039a 089B     		ldr	r3, [sp, #32]
 736 039c 1344     		add	r3, r3, r2
 737 039e 1033     		adds	r3, r3, #16
ARM GAS  /tmp/ccZDdxFb.s 			page 15


 738 03a0 0893     		str	r3, [sp, #32]
 739              	.L34:
 740              		.loc 1 285 0
 741 03a2 079B     		ldr	r3, [sp, #28]
 742 03a4 0133     		adds	r3, r3, #1
 743 03a6 0793     		str	r3, [sp, #28]
 744              	.L33:
 745              		.loc 1 285 0 is_stmt 0 discriminator 1
 746 03a8 079A     		ldr	r2, [sp, #28]
 747 03aa 184B     		ldr	r3, .L49+12
 748 03ac 1B68     		ldr	r3, [r3]
 749 03ae 9A42     		cmp	r2, r3
 750 03b0 DBD3     		bcc	.L35
 751              		.loc 1 292 0 is_stmt 1
 752 03b2 144B     		ldr	r3, .L49+4
 753 03b4 1B68     		ldr	r3, [r3]
 754 03b6 1A46     		mov	r2, r3
 755              		.loc 1 293 0
 756 03b8 089B     		ldr	r3, [sp, #32]
 757 03ba 1A44     		add	r2, r2, r3
 758              		.loc 1 292 0
 759 03bc 164B     		ldr	r3, .L49+24
 760 03be C3F10803 		rsb	r3, r3, #8
 761              		.loc 1 293 0
 762 03c2 1344     		add	r3, r3, r2
 763              		.loc 1 292 0
 764 03c4 B3F5805F 		cmp	r3, #4096
 765 03c8 17D9     		bls	.L36
 766              		.loc 1 297 0
 767 03ca 0E4B     		ldr	r3, .L49+4
 768 03cc 134A     		ldr	r2, .L49+28
 769 03ce 1A60     		str	r2, [r3]
 770              		.loc 1 298 0
 771 03d0 0123     		movs	r3, #1
 772 03d2 0793     		str	r3, [sp, #28]
 773 03d4 0CE0     		b	.L37
 774              	.L38:
 775              		.loc 1 299 0 discriminator 2
 776 03d6 0F49     		ldr	r1, .L49+20
 777 03d8 079A     		ldr	r2, [sp, #28]
 778 03da 1346     		mov	r3, r2
 779 03dc DB00     		lsls	r3, r3, #3
 780 03de 9B1A     		subs	r3, r3, r2
 781 03e0 9B00     		lsls	r3, r3, #2
 782 03e2 0B44     		add	r3, r3, r1
 783 03e4 1833     		adds	r3, r3, #24
 784 03e6 0022     		movs	r2, #0
 785 03e8 1A60     		str	r2, [r3]
 786              		.loc 1 298 0 discriminator 2
 787 03ea 079B     		ldr	r3, [sp, #28]
 788 03ec 0133     		adds	r3, r3, #1
 789 03ee 0793     		str	r3, [sp, #28]
 790              	.L37:
 791              		.loc 1 298 0 is_stmt 0 discriminator 1
 792 03f0 079B     		ldr	r3, [sp, #28]
 793 03f2 052B     		cmp	r3, #5
 794 03f4 EFDD     		ble	.L38
ARM GAS  /tmp/ccZDdxFb.s 			page 16


 795              		.loc 1 301 0 is_stmt 1
 796 03f6 0023     		movs	r3, #0
 797 03f8 0F93     		str	r3, [sp, #60]
 798              	.L36:
 799              		.loc 1 305 0
 800 03fa 0023     		movs	r3, #0
 801 03fc 0793     		str	r3, [sp, #28]
 802 03fe 6CE0     		b	.L39
 803              	.L50:
 804              		.align	2
 805              	.L49:
 806 0400 00000000 		.word	MDM_LicTable
 807 0404 00000000 		.word	puint8_RW_MetaData
 808 0408 00100000 		.word	NumberOfKnownLic
 809 040c 04100000 		.word	NumberOfKnownGMD
 810 0410 00000000 		.word	NecessityToSaveMetaDataManager
 811 0414 00000000 		.word	MDM_GMDTable
 812 0418 00000000 		.word	uint64_MetaDataVector
 813 041c 08000000 		.word	uint64_MetaDataVector+8
 814              	.L41:
 815              		.loc 1 309 0
 816 0420 079B     		ldr	r3, [sp, #28]
 817 0422 DB00     		lsls	r3, r3, #3
 818 0424 0B9A     		ldr	r2, [sp, #44]
 819 0426 1344     		add	r3, r3, r2
 820 0428 1B78     		ldrb	r3, [r3]	@ zero_extendqisi2
 821 042a 1A46     		mov	r2, r3
 822 042c 5249     		ldr	r1, .L51
 823 042e 1346     		mov	r3, r2
 824 0430 DB00     		lsls	r3, r3, #3
 825 0432 9B1A     		subs	r3, r3, r2
 826 0434 9B00     		lsls	r3, r3, #2
 827 0436 0B44     		add	r3, r3, r1
 828 0438 1833     		adds	r3, r3, #24
 829 043a 1B68     		ldr	r3, [r3]
 830 043c 002B     		cmp	r3, #0
 831 043e 49D1     		bne	.L40
 832              	.LBB7:
 833              		.loc 1 315 0
 834 0440 4E4B     		ldr	r3, .L51+4
 835 0442 1B68     		ldr	r3, [r3]
 836 0444 1193     		str	r3, [sp, #68]
 837              		.loc 1 319 0
 838 0446 119B     		ldr	r3, [sp, #68]
 839 0448 0122     		movs	r2, #1
 840 044a 1A60     		str	r2, [r3]
 841              		.loc 1 320 0
 842 044c 079B     		ldr	r3, [sp, #28]
 843 044e DB00     		lsls	r3, r3, #3
 844 0450 0B9A     		ldr	r2, [sp, #44]
 845 0452 1344     		add	r3, r3, r2
 846 0454 5B68     		ldr	r3, [r3, #4]
 847 0456 0733     		adds	r3, r3, #7
 848 0458 23F00703 		bic	r3, r3, #7
 849              		.loc 1 321 0
 850 045c 03F11002 		add	r2, r3, #16
 851              		.loc 1 320 0
ARM GAS  /tmp/ccZDdxFb.s 			page 17


 852 0460 119B     		ldr	r3, [sp, #68]
 853 0462 5A60     		str	r2, [r3, #4]
 854              		.loc 1 322 0
 855 0464 119B     		ldr	r3, [sp, #68]
 856 0466 0833     		adds	r3, r3, #8
 857 0468 0293     		str	r3, [sp, #8]
 858              		.loc 1 326 0
 859 046a 079B     		ldr	r3, [sp, #28]
 860 046c DB00     		lsls	r3, r3, #3
 861 046e 0B9A     		ldr	r2, [sp, #44]
 862 0470 1344     		add	r3, r3, r2
 863 0472 1B78     		ldrb	r3, [r3]	@ zero_extendqisi2
 864 0474 1A46     		mov	r2, r3
 865 0476 029B     		ldr	r3, [sp, #8]
 866 0478 1A60     		str	r2, [r3]
 867              		.loc 1 327 0
 868 047a 079B     		ldr	r3, [sp, #28]
 869 047c DB00     		lsls	r3, r3, #3
 870 047e 0B9A     		ldr	r2, [sp, #44]
 871 0480 1344     		add	r3, r3, r2
 872 0482 5A68     		ldr	r2, [r3, #4]
 873 0484 029B     		ldr	r3, [sp, #8]
 874 0486 5A60     		str	r2, [r3, #4]
 875              		.loc 1 328 0
 876 0488 079B     		ldr	r3, [sp, #28]
 877 048a DB00     		lsls	r3, r3, #3
 878 048c 0B9A     		ldr	r2, [sp, #44]
 879 048e 1344     		add	r3, r3, r2
 880 0490 1B78     		ldrb	r3, [r3]	@ zero_extendqisi2
 881 0492 1A46     		mov	r2, r3
 882 0494 0299     		ldr	r1, [sp, #8]
 883 0496 3848     		ldr	r0, .L51
 884 0498 1346     		mov	r3, r2
 885 049a DB00     		lsls	r3, r3, #3
 886 049c 9B1A     		subs	r3, r3, r2
 887 049e 9B00     		lsls	r3, r3, #2
 888 04a0 0344     		add	r3, r3, r0
 889 04a2 1833     		adds	r3, r3, #24
 890 04a4 1960     		str	r1, [r3]
 891              		.loc 1 329 0
 892 04a6 079B     		ldr	r3, [sp, #28]
 893 04a8 DB00     		lsls	r3, r3, #3
 894 04aa 0B9A     		ldr	r2, [sp, #44]
 895 04ac 1344     		add	r3, r3, r2
 896 04ae 1B78     		ldrb	r3, [r3]	@ zero_extendqisi2
 897 04b0 1A46     		mov	r2, r3
 898 04b2 029B     		ldr	r3, [sp, #8]
 899 04b4 5968     		ldr	r1, [r3, #4]
 900 04b6 3048     		ldr	r0, .L51
 901 04b8 1346     		mov	r3, r2
 902 04ba DB00     		lsls	r3, r3, #3
 903 04bc 9B1A     		subs	r3, r3, r2
 904 04be 9B00     		lsls	r3, r3, #2
 905 04c0 0344     		add	r3, r3, r0
 906 04c2 1033     		adds	r3, r3, #16
 907 04c4 5960     		str	r1, [r3, #4]
 908              		.loc 1 334 0
ARM GAS  /tmp/ccZDdxFb.s 			page 18


 909 04c6 2D4B     		ldr	r3, .L51+4
 910 04c8 1A68     		ldr	r2, [r3]
 911 04ca 119B     		ldr	r3, [sp, #68]
 912 04cc 5B68     		ldr	r3, [r3, #4]
 913 04ce 1A44     		add	r2, r2, r3
 914 04d0 2A4B     		ldr	r3, .L51+4
 915 04d2 1A60     		str	r2, [r3]
 916              	.L40:
 917              	.LBE7:
 918              		.loc 1 305 0
 919 04d4 079B     		ldr	r3, [sp, #28]
 920 04d6 0133     		adds	r3, r3, #1
 921 04d8 0793     		str	r3, [sp, #28]
 922              	.L39:
 923              		.loc 1 305 0 is_stmt 0 discriminator 1
 924 04da 079A     		ldr	r2, [sp, #28]
 925 04dc 284B     		ldr	r3, .L51+8
 926 04de 1B68     		ldr	r3, [r3]
 927 04e0 9A42     		cmp	r2, r3
 928 04e2 9DD3     		bcc	.L41
 929              		.loc 1 343 0 is_stmt 1
 930 04e4 254B     		ldr	r3, .L51+4
 931 04e6 1B68     		ldr	r3, [r3]
 932 04e8 FF22     		movs	r2, #255
 933 04ea 1A60     		str	r2, [r3]
 934              		.loc 1 344 0
 935 04ec 234B     		ldr	r3, .L51+4
 936 04ee 1B68     		ldr	r3, [r3]
 937 04f0 0433     		adds	r3, r3, #4
 938 04f2 0022     		movs	r2, #0
 939 04f4 1A60     		str	r2, [r3]
 940              	.L32:
 941              	.LBE6:
 942              		.loc 1 347 0
 943 04f6 009B     		ldr	r3, [sp]
 944 04f8 1A1D     		adds	r2, r3, #4
 945 04fa 0092     		str	r2, [sp]
 946 04fc 1B68     		ldr	r3, [r3]
 947 04fe 0E93     		str	r3, [sp, #56]
 948              	.L3:
 949              	.LBE2:
 950              		.loc 1 129 0 discriminator 1
 951 0500 0E9B     		ldr	r3, [sp, #56]
 952 0502 002B     		cmp	r3, #0
 953 0504 7FF496AD 		bne	.L42
 954              		.loc 1 353 0
 955 0508 1E4B     		ldr	r3, .L51+12
 956 050a 1B68     		ldr	r3, [r3]
 957 050c 002B     		cmp	r3, #0
 958 050e 07D0     		beq	.L43
 959              	.LBB8:
 960              		.loc 1 354 0
 961 0510 FFF7FEFF 		bl	EraseMetaDataManager
 962 0514 0190     		str	r0, [sp, #4]
 963              		.loc 1 355 0
 964 0516 019B     		ldr	r3, [sp, #4]
 965 0518 002B     		cmp	r3, #0
ARM GAS  /tmp/ccZDdxFb.s 			page 19


 966 051a 01D0     		beq	.L43
 967              		.loc 1 356 0
 968 051c FFF7FEFF 		bl	SaveMetaDataManager
 969              	.L43:
 970              	.LBE8:
 971              		.loc 1 366 0
 972 0520 194B     		ldr	r3, .L51+16
 973 0522 1B68     		ldr	r3, [r3]
 974 0524 002B     		cmp	r3, #0
 975 0526 0CBF     		ite	eq
 976 0528 0023     		moveq	r3, #0
 977 052a 0123     		movne	r3, #1
 978 052c DAB2     		uxtb	r2, r3
 979 052e 109B     		ldr	r3, [sp, #64]
 980 0530 002B     		cmp	r3, #0
 981 0532 0CBF     		ite	eq
 982 0534 0023     		moveq	r3, #0
 983 0536 0123     		movne	r3, #1
 984 0538 DBB2     		uxtb	r3, r3
 985 053a 1343     		orrs	r3, r3, r2
 986 053c DBB2     		uxtb	r3, r3
 987 053e 002B     		cmp	r3, #0
 988 0540 01D0     		beq	.L44
 989              		.loc 1 367 0
 990 0542 00F035F9 		bl	PrintOut_MDM_LicenseStatus
 991              	.L44:
 992              		.loc 1 369 0
 993 0546 0E4B     		ldr	r3, .L51+8
 994 0548 1B68     		ldr	r3, [r3]
 995 054a 002B     		cmp	r3, #0
 996 054c 0CBF     		ite	eq
 997 054e 0023     		moveq	r3, #0
 998 0550 0123     		movne	r3, #1
 999 0552 DAB2     		uxtb	r2, r3
 1000 0554 0F9B     		ldr	r3, [sp, #60]
 1001 0556 002B     		cmp	r3, #0
 1002 0558 0CBF     		ite	eq
 1003 055a 0023     		moveq	r3, #0
 1004 055c 0123     		movne	r3, #1
 1005 055e DBB2     		uxtb	r3, r3
 1006 0560 1343     		orrs	r3, r3, r2
 1007 0562 DBB2     		uxtb	r3, r3
 1008 0564 002B     		cmp	r3, #0
 1009 0566 01D0     		beq	.L1
 1010              		.loc 1 370 0
 1011 0568 00F042F9 		bl	PrintOut_MDM_GMDStatus
 1012              	.L1:
 1013              		.loc 1 373 0
 1014 056c 13B0     		add	sp, sp, #76
 1015              		@ sp needed
 1016 056e 5DF804EB 		ldr	lr, [sp], #4
 1017 0572 04B0     		add	sp, sp, #16
 1018 0574 7047     		bx	lr
 1019              	.L52:
 1020 0576 00BF     		.align	2
 1021              	.L51:
 1022 0578 00000000 		.word	MDM_GMDTable
ARM GAS  /tmp/ccZDdxFb.s 			page 20


 1023 057c 00000000 		.word	puint8_RW_MetaData
 1024 0580 04100000 		.word	NumberOfKnownGMD
 1025 0584 00000000 		.word	NecessityToSaveMetaDataManager
 1026 0588 00100000 		.word	NumberOfKnownLic
 1027              		.cfi_endproc
 1028              	.LFE125:
 1029              		.size	InitMetaDataManager, .-InitMetaDataManager
 1030              		.align	2
 1031 058c AFF30080 		.p2align 4,,15
 1032              		.thumb
 1033              		.thumb_func
 1034              		.type	ReCallMetaDataManager, %function
 1035              	ReCallMetaDataManager:
 1036              	.LFB126:
 1037              		.loc 1 381 0
 1038              		.cfi_startproc
 1039              		@ args = 0, pretend = 0, frame = 32
 1040              		@ frame_needed = 0, uses_anonymous_args = 0
 1041              		@ link register save eliminated.
 1042 0590 88B0     		sub	sp, sp, #32
 1043              		.cfi_def_cfa_offset 32
 1044              		.loc 1 382 0
 1045 0592 414B     		ldr	r3, .L61
 1046 0594 0793     		str	r3, [sp, #28]
 1047              		.loc 1 383 0
 1048 0596 079B     		ldr	r3, [sp, #28]
 1049 0598 1B68     		ldr	r3, [r3]
 1050 059a 0093     		str	r3, [sp]
 1051              		.loc 1 384 0
 1052 059c 0023     		movs	r3, #0
 1053 059e 0693     		str	r3, [sp, #24]
 1054              		.loc 1 386 0
 1055 05a0 009A     		ldr	r2, [sp]
 1056 05a2 3E4B     		ldr	r3, .L61+4
 1057 05a4 9A42     		cmp	r2, r3
 1058 05a6 72D1     		bne	.L54
 1059              		.loc 1 388 0
 1060 05a8 3D4B     		ldr	r3, .L61+8
 1061 05aa 1B68     		ldr	r3, [r3]
 1062 05ac 009A     		ldr	r2, [sp]
 1063 05ae 1A60     		str	r2, [r3]
 1064              		.loc 1 389 0
 1065 05b0 079B     		ldr	r3, [sp, #28]
 1066 05b2 0433     		adds	r3, r3, #4
 1067 05b4 0793     		str	r3, [sp, #28]
 1068              		.loc 1 391 0
 1069 05b6 079B     		ldr	r3, [sp, #28]
 1070 05b8 1B68     		ldr	r3, [r3]
 1071 05ba 0093     		str	r3, [sp]
 1072              		.loc 1 392 0
 1073 05bc 384B     		ldr	r3, .L61+8
 1074 05be 1B68     		ldr	r3, [r3]
 1075 05c0 009A     		ldr	r2, [sp]
 1076 05c2 5A60     		str	r2, [r3, #4]
 1077              		.loc 1 393 0
 1078 05c4 079B     		ldr	r3, [sp, #28]
 1079 05c6 0433     		adds	r3, r3, #4
ARM GAS  /tmp/ccZDdxFb.s 			page 21


 1080 05c8 0793     		str	r3, [sp, #28]
 1081              		.loc 1 395 0
 1082 05ca 354B     		ldr	r3, .L61+8
 1083 05cc 1B68     		ldr	r3, [r3]
 1084 05ce 5B68     		ldr	r3, [r3, #4]
 1085 05d0 B3F5006F 		cmp	r3, #2048
 1086 05d4 01D0     		beq	.L55
 1087              		.loc 1 397 0
 1088 05d6 069B     		ldr	r3, [sp, #24]
 1089 05d8 5AE0     		b	.L56
 1090              	.L55:
 1091              		.loc 1 401 0
 1092 05da 079B     		ldr	r3, [sp, #28]
 1093 05dc 1B68     		ldr	r3, [r3]
 1094 05de 0093     		str	r3, [sp]
 1095              		.loc 1 403 0
 1096 05e0 49E0     		b	.L57
 1097              	.L60:
 1098              	.LBB9:
 1099              		.loc 1 410 0
 1100 05e2 0123     		movs	r3, #1
 1101 05e4 0693     		str	r3, [sp, #24]
 1102              		.loc 1 413 0
 1103 05e6 009B     		ldr	r3, [sp]
 1104 05e8 8DF81330 		strb	r3, [sp, #19]
 1105              		.loc 1 414 0
 1106 05ec 079B     		ldr	r3, [sp, #28]
 1107 05ee 0433     		adds	r3, r3, #4
 1108 05f0 0793     		str	r3, [sp, #28]
 1109              		.loc 1 416 0
 1110 05f2 079B     		ldr	r3, [sp, #28]
 1111 05f4 1B68     		ldr	r3, [r3]
 1112 05f6 0093     		str	r3, [sp]
 1113              		.loc 1 417 0
 1114 05f8 009B     		ldr	r3, [sp]
 1115 05fa 0393     		str	r3, [sp, #12]
 1116              		.loc 1 418 0
 1117 05fc 079B     		ldr	r3, [sp, #28]
 1118 05fe 0433     		adds	r3, r3, #4
 1119 0600 0793     		str	r3, [sp, #28]
 1120              		.loc 1 420 0
 1121 0602 284B     		ldr	r3, .L61+12
 1122 0604 1B68     		ldr	r3, [r3]
 1123 0606 0293     		str	r3, [sp, #8]
 1124              		.loc 1 421 0
 1125 0608 9DF81320 		ldrb	r2, [sp, #19]	@ zero_extendqisi2
 1126 060c 029B     		ldr	r3, [sp, #8]
 1127 060e 1A60     		str	r2, [r3]
 1128              		.loc 1 422 0
 1129 0610 029B     		ldr	r3, [sp, #8]
 1130 0612 039A     		ldr	r2, [sp, #12]
 1131 0614 5A60     		str	r2, [r3, #4]
 1132              		.loc 1 423 0
 1133 0616 029B     		ldr	r3, [sp, #8]
 1134 0618 0833     		adds	r3, r3, #8
 1135 061a 0193     		str	r3, [sp, #4]
 1136              		.loc 1 424 0
ARM GAS  /tmp/ccZDdxFb.s 			page 22


 1137 061c 214B     		ldr	r3, .L61+12
 1138 061e 1B68     		ldr	r3, [r3]
 1139 0620 03F10802 		add	r2, r3, #8
 1140 0624 1F4B     		ldr	r3, .L61+12
 1141 0626 1A60     		str	r2, [r3]
 1142              		.loc 1 431 0
 1143 0628 0023     		movs	r3, #0
 1144 062a 0593     		str	r3, [sp, #20]
 1145 062c 0EE0     		b	.L58
 1146              	.L59:
 1147              		.loc 1 432 0 discriminator 2
 1148 062e 079A     		ldr	r2, [sp, #28]
 1149 0630 059B     		ldr	r3, [sp, #20]
 1150 0632 1344     		add	r3, r3, r2
 1151 0634 1B68     		ldr	r3, [r3]
 1152 0636 0093     		str	r3, [sp]
 1153              		.loc 1 433 0 discriminator 2
 1154 0638 059B     		ldr	r3, [sp, #20]
 1155 063a 9B08     		lsrs	r3, r3, #2
 1156 063c 9B00     		lsls	r3, r3, #2
 1157 063e 019A     		ldr	r2, [sp, #4]
 1158 0640 1344     		add	r3, r3, r2
 1159 0642 009A     		ldr	r2, [sp]
 1160 0644 1A60     		str	r2, [r3]
 1161              		.loc 1 431 0 discriminator 2
 1162 0646 059B     		ldr	r3, [sp, #20]
 1163 0648 0433     		adds	r3, r3, #4
 1164 064a 0593     		str	r3, [sp, #20]
 1165              	.L58:
 1166              		.loc 1 431 0 is_stmt 0 discriminator 1
 1167 064c 039B     		ldr	r3, [sp, #12]
 1168 064e A3F10802 		sub	r2, r3, #8
 1169 0652 059B     		ldr	r3, [sp, #20]
 1170 0654 9A42     		cmp	r2, r3
 1171 0656 EAD8     		bhi	.L59
 1172              		.loc 1 436 0 is_stmt 1
 1173 0658 039A     		ldr	r2, [sp, #12]
 1174 065a 079B     		ldr	r3, [sp, #28]
 1175 065c 1344     		add	r3, r3, r2
 1176 065e 083B     		subs	r3, r3, #8
 1177 0660 0793     		str	r3, [sp, #28]
 1178              		.loc 1 437 0
 1179 0662 104B     		ldr	r3, .L61+12
 1180 0664 1A68     		ldr	r2, [r3]
 1181 0666 039B     		ldr	r3, [sp, #12]
 1182 0668 083B     		subs	r3, r3, #8
 1183 066a 1A44     		add	r2, r2, r3
 1184 066c 0D4B     		ldr	r3, .L61+12
 1185 066e 1A60     		str	r2, [r3]
 1186              		.loc 1 438 0
 1187 0670 079B     		ldr	r3, [sp, #28]
 1188 0672 1B68     		ldr	r3, [r3]
 1189 0674 0093     		str	r3, [sp]
 1190              	.L57:
 1191              	.LBE9:
 1192              		.loc 1 403 0 discriminator 1
 1193 0676 009B     		ldr	r3, [sp]
ARM GAS  /tmp/ccZDdxFb.s 			page 23


 1194 0678 FF2B     		cmp	r3, #255
 1195 067a B2D1     		bne	.L60
 1196              		.loc 1 442 0
 1197 067c 094B     		ldr	r3, .L61+12
 1198 067e 1B68     		ldr	r3, [r3]
 1199 0680 FF22     		movs	r2, #255
 1200 0682 1A60     		str	r2, [r3]
 1201              		.loc 1 443 0
 1202 0684 074B     		ldr	r3, .L61+12
 1203 0686 1B68     		ldr	r3, [r3]
 1204 0688 1033     		adds	r3, r3, #16
 1205 068a 0022     		movs	r2, #0
 1206 068c 1A60     		str	r2, [r3]
 1207              	.L54:
 1208              		.loc 1 449 0
 1209 068e 069B     		ldr	r3, [sp, #24]
 1210              	.L56:
 1211              		.loc 1 450 0
 1212 0690 1846     		mov	r0, r3
 1213 0692 08B0     		add	sp, sp, #32
 1214              		@ sp needed
 1215 0694 7047     		bx	lr
 1216              	.L62:
 1217 0696 00BF     		.align	2
 1218              	.L61:
 1219 0698 00F00F08 		.word	135262208
 1220 069c 78563412 		.word	305419896
 1221 06a0 04000000 		.word	pMetaDataManagerHeader
 1222 06a4 00000000 		.word	puint8_RW_MetaData
 1223              		.cfi_endproc
 1224              	.LFE126:
 1225              		.size	ReCallMetaDataManager, .-ReCallMetaDataManager
 1226              		.align	2
 1227 06a8 AFF30080 		.p2align 4,,15
 1227      AFF30080 
 1228              		.global	ReseMetaDataManager
 1229              		.thumb
 1230              		.thumb_func
 1231              		.type	ReseMetaDataManager, %function
 1232              	ReseMetaDataManager:
 1233              	.LFB127:
 1234              		.loc 1 457 0
 1235              		.cfi_startproc
 1236              		@ args = 0, pretend = 0, frame = 8
 1237              		@ frame_needed = 0, uses_anonymous_args = 0
 1238              		@ link register save eliminated.
 1239 06b0 82B0     		sub	sp, sp, #8
 1240              		.cfi_def_cfa_offset 8
 1241              		.loc 1 461 0
 1242 06b2 234B     		ldr	r3, .L68
 1243 06b4 0122     		movs	r2, #1
 1244 06b6 1A60     		str	r2, [r3]
 1245              		.loc 1 462 0
 1246 06b8 224B     		ldr	r3, .L68+4
 1247 06ba 234A     		ldr	r2, .L68+8
 1248 06bc 1A60     		str	r2, [r3]
 1249              		.loc 1 463 0
ARM GAS  /tmp/ccZDdxFb.s 			page 24


 1250 06be 234B     		ldr	r3, .L68+12
 1251 06c0 1B68     		ldr	r3, [r3]
 1252 06c2 234A     		ldr	r2, .L68+16
 1253 06c4 1A60     		str	r2, [r3]
 1254              		.loc 1 464 0
 1255 06c6 214B     		ldr	r3, .L68+12
 1256 06c8 1B68     		ldr	r3, [r3]
 1257 06ca 4FF40062 		mov	r2, #2048
 1258 06ce 5A60     		str	r2, [r3, #4]
 1259              		.loc 1 466 0
 1260 06d0 1C4B     		ldr	r3, .L68+4
 1261 06d2 1B68     		ldr	r3, [r3]
 1262 06d4 FF22     		movs	r2, #255
 1263 06d6 1A60     		str	r2, [r3]
 1264              		.loc 1 467 0
 1265 06d8 1A4B     		ldr	r3, .L68+4
 1266 06da 1B68     		ldr	r3, [r3]
 1267 06dc 0433     		adds	r3, r3, #4
 1268 06de 0022     		movs	r2, #0
 1269 06e0 1A60     		str	r2, [r3]
 1270              		.loc 1 470 0
 1271 06e2 0123     		movs	r3, #1
 1272 06e4 8DF80730 		strb	r3, [sp, #7]
 1273 06e8 0CE0     		b	.L64
 1274              	.L65:
 1275              		.loc 1 471 0 discriminator 2
 1276 06ea 9DF80730 		ldrb	r3, [sp, #7]	@ zero_extendqisi2
 1277 06ee 194A     		ldr	r2, .L68+20
 1278 06f0 5B01     		lsls	r3, r3, #5
 1279 06f2 1344     		add	r3, r3, r2
 1280 06f4 1833     		adds	r3, r3, #24
 1281 06f6 0022     		movs	r2, #0
 1282 06f8 5A60     		str	r2, [r3, #4]
 1283              		.loc 1 470 0 discriminator 2
 1284 06fa 9DF80730 		ldrb	r3, [sp, #7]	@ zero_extendqisi2
 1285 06fe 0133     		adds	r3, r3, #1
 1286 0700 8DF80730 		strb	r3, [sp, #7]
 1287              	.L64:
 1288              		.loc 1 470 0 is_stmt 0 discriminator 1
 1289 0704 9DF80730 		ldrb	r3, [sp, #7]	@ zero_extendqisi2
 1290 0708 092B     		cmp	r3, #9
 1291 070a EED9     		bls	.L65
 1292              		.loc 1 473 0 is_stmt 1
 1293 070c 0123     		movs	r3, #1
 1294 070e 8DF80630 		strb	r3, [sp, #6]
 1295 0712 0FE0     		b	.L66
 1296              	.L67:
 1297              		.loc 1 474 0 discriminator 2
 1298 0714 9DF80620 		ldrb	r2, [sp, #6]	@ zero_extendqisi2
 1299 0718 0F49     		ldr	r1, .L68+24
 1300 071a 1346     		mov	r3, r2
 1301 071c DB00     		lsls	r3, r3, #3
 1302 071e 9B1A     		subs	r3, r3, r2
 1303 0720 9B00     		lsls	r3, r3, #2
 1304 0722 0B44     		add	r3, r3, r1
 1305 0724 1833     		adds	r3, r3, #24
 1306 0726 0022     		movs	r2, #0
ARM GAS  /tmp/ccZDdxFb.s 			page 25


 1307 0728 1A60     		str	r2, [r3]
 1308              		.loc 1 473 0 discriminator 2
 1309 072a 9DF80630 		ldrb	r3, [sp, #6]	@ zero_extendqisi2
 1310 072e 0133     		adds	r3, r3, #1
 1311 0730 8DF80630 		strb	r3, [sp, #6]
 1312              	.L66:
 1313              		.loc 1 473 0 is_stmt 0 discriminator 1
 1314 0734 9DF80630 		ldrb	r3, [sp, #6]	@ zero_extendqisi2
 1315 0738 052B     		cmp	r3, #5
 1316 073a EBD9     		bls	.L67
 1317              		.loc 1 476 0 is_stmt 1
 1318 073c 02B0     		add	sp, sp, #8
 1319              		@ sp needed
 1320 073e 7047     		bx	lr
 1321              	.L69:
 1322              		.align	2
 1323              	.L68:
 1324 0740 00000000 		.word	NecessityToSaveMetaDataManager
 1325 0744 00000000 		.word	puint8_RW_MetaData
 1326 0748 08000000 		.word	uint64_MetaDataVector+8
 1327 074c 04000000 		.word	pMetaDataManagerHeader
 1328 0750 78563412 		.word	305419896
 1329 0754 00000000 		.word	MDM_LicTable
 1330 0758 00000000 		.word	MDM_GMDTable
 1331              		.cfi_endproc
 1332              	.LFE127:
 1333              		.size	ReseMetaDataManager, .-ReseMetaDataManager
 1334              		.align	2
 1335 075c AFF30080 		.p2align 4,,15
 1336              		.global	EraseMetaDataManager
 1337              		.thumb
 1338              		.thumb_func
 1339              		.type	EraseMetaDataManager, %function
 1340              	EraseMetaDataManager:
 1341              	.LFB128:
 1342              		.loc 1 483 0
 1343              		.cfi_startproc
 1344              		@ args = 0, pretend = 0, frame = 8
 1345              		@ frame_needed = 0, uses_anonymous_args = 0
 1346 0760 00B5     		push	{lr}
 1347              		.cfi_def_cfa_offset 4
 1348              		.cfi_offset 14, -4
 1349 0762 83B0     		sub	sp, sp, #12
 1350              		.cfi_def_cfa_offset 16
 1351              		.loc 1 484 0
 1352 0764 FFF7FEFF 		bl	UserFunctionForErasingFlash
 1353 0768 0190     		str	r0, [sp, #4]
 1354              		.loc 1 488 0
 1355 076a 019B     		ldr	r3, [sp, #4]
 1356              		.loc 1 489 0
 1357 076c 1846     		mov	r0, r3
 1358 076e 03B0     		add	sp, sp, #12
 1359              		@ sp needed
 1360 0770 5DF804FB 		ldr	pc, [sp], #4
 1361              		.cfi_endproc
 1362              	.LFE128:
 1363              		.size	EraseMetaDataManager, .-EraseMetaDataManager
ARM GAS  /tmp/ccZDdxFb.s 			page 26


 1364              		.align	2
 1365 0774 AFF30080 		.p2align 4,,15
 1365      AFF30080 
 1365      AFF30080 
 1366              		.global	SaveMetaDataManager
 1367              		.thumb
 1368              		.thumb_func
 1369              		.type	SaveMetaDataManager, %function
 1370              	SaveMetaDataManager:
 1371              	.LFB129:
 1372              		.loc 1 497 0
 1373              		.cfi_startproc
 1374              		@ args = 0, pretend = 0, frame = 8
 1375              		@ frame_needed = 0, uses_anonymous_args = 0
 1376 0780 00B5     		push	{lr}
 1377              		.cfi_def_cfa_offset 4
 1378              		.cfi_offset 14, -4
 1379 0782 83B0     		sub	sp, sp, #12
 1380              		.cfi_def_cfa_offset 16
 1381              		.loc 1 498 0
 1382 0784 064B     		ldr	r3, .L73
 1383 0786 1B68     		ldr	r3, [r3]
 1384 0788 0833     		adds	r3, r3, #8
 1385 078a 0648     		ldr	r0, .L73+4
 1386 078c 1946     		mov	r1, r3
 1387 078e FFF7FEFF 		bl	UserFunctionForSavingFlash
 1388 0792 0190     		str	r0, [sp, #4]
 1389              		.loc 1 503 0
 1390 0794 044B     		ldr	r3, .L73+8
 1391 0796 0022     		movs	r2, #0
 1392 0798 1A60     		str	r2, [r3]
 1393              		.loc 1 504 0
 1394 079a 03B0     		add	sp, sp, #12
 1395              		@ sp needed
 1396 079c 5DF804FB 		ldr	pc, [sp], #4
 1397              	.L74:
 1398              		.align	2
 1399              	.L73:
 1400 07a0 00000000 		.word	puint8_RW_MetaData
 1401 07a4 00000000 		.word	uint64_MetaDataVector
 1402 07a8 00000000 		.word	NecessityToSaveMetaDataManager
 1403              		.cfi_endproc
 1404              	.LFE129:
 1405              		.size	SaveMetaDataManager, .-SaveMetaDataManager
 1406              		.align	2
 1407 07ac AFF30080 		.p2align 4,,15
 1408              		.thumb
 1409              		.thumb_func
 1410              		.type	PrintOut_MDM_LicenseStatus, %function
 1411              	PrintOut_MDM_LicenseStatus:
 1412              	.LFB130:
 1413              		.loc 1 513 0
 1414              		.cfi_startproc
 1415              		@ args = 0, pretend = 0, frame = 8
 1416              		@ frame_needed = 0, uses_anonymous_args = 0
 1417              		@ link register save eliminated.
 1418 07b0 82B0     		sub	sp, sp, #8
ARM GAS  /tmp/ccZDdxFb.s 			page 27


 1419              		.cfi_def_cfa_offset 8
 1420              		.loc 1 516 0
 1421 07b2 0123     		movs	r3, #1
 1422 07b4 8DF80730 		strb	r3, [sp, #7]
 1423 07b8 0CE0     		b	.L76
 1424              	.L77:
 1425              	.LBB10:
 1426              		.loc 1 517 0
 1427 07ba 9DF80730 		ldrb	r3, [sp, #7]	@ zero_extendqisi2
 1428 07be 084A     		ldr	r2, .L78
 1429 07c0 5B01     		lsls	r3, r3, #5
 1430 07c2 1344     		add	r3, r3, r2
 1431 07c4 1833     		adds	r3, r3, #24
 1432 07c6 5B68     		ldr	r3, [r3, #4]
 1433 07c8 0093     		str	r3, [sp]
 1434              	.LBE10:
 1435              		.loc 1 516 0
 1436 07ca 9DF80730 		ldrb	r3, [sp, #7]	@ zero_extendqisi2
 1437 07ce 0133     		adds	r3, r3, #1
 1438 07d0 8DF80730 		strb	r3, [sp, #7]
 1439              	.L76:
 1440              		.loc 1 516 0 is_stmt 0 discriminator 1
 1441 07d4 9DF80730 		ldrb	r3, [sp, #7]	@ zero_extendqisi2
 1442 07d8 092B     		cmp	r3, #9
 1443 07da EED9     		bls	.L77
 1444              		.loc 1 524 0 is_stmt 1
 1445 07dc 02B0     		add	sp, sp, #8
 1446              		@ sp needed
 1447 07de 7047     		bx	lr
 1448              	.L79:
 1449              		.align	2
 1450              	.L78:
 1451 07e0 00000000 		.word	MDM_LicTable
 1452              		.cfi_endproc
 1453              	.LFE130:
 1454              		.size	PrintOut_MDM_LicenseStatus, .-PrintOut_MDM_LicenseStatus
 1455              		.align	2
 1456 07e4 AFF30080 		.p2align 4,,15
 1456      AFF30080 
 1456      AFF30080 
 1457              		.thumb
 1458              		.thumb_func
 1459              		.type	PrintOut_MDM_GMDStatus, %function
 1460              	PrintOut_MDM_GMDStatus:
 1461              	.LFB131:
 1462              		.loc 1 532 0
 1463              		.cfi_startproc
 1464              		@ args = 0, pretend = 0, frame = 8
 1465              		@ frame_needed = 0, uses_anonymous_args = 0
 1466              		@ link register save eliminated.
 1467 07f0 82B0     		sub	sp, sp, #8
 1468              		.cfi_def_cfa_offset 8
 1469              		.loc 1 535 0
 1470 07f2 0123     		movs	r3, #1
 1471 07f4 8DF80730 		strb	r3, [sp, #7]
 1472 07f8 0FE0     		b	.L81
 1473              	.L82:
ARM GAS  /tmp/ccZDdxFb.s 			page 28


 1474              	.LBB11:
 1475              		.loc 1 536 0
 1476 07fa 9DF80720 		ldrb	r2, [sp, #7]	@ zero_extendqisi2
 1477 07fe 0A49     		ldr	r1, .L83
 1478 0800 1346     		mov	r3, r2
 1479 0802 DB00     		lsls	r3, r3, #3
 1480 0804 9B1A     		subs	r3, r3, r2
 1481 0806 9B00     		lsls	r3, r3, #2
 1482 0808 0B44     		add	r3, r3, r1
 1483 080a 1833     		adds	r3, r3, #24
 1484 080c 1B68     		ldr	r3, [r3]
 1485 080e 0093     		str	r3, [sp]
 1486              	.LBE11:
 1487              		.loc 1 535 0
 1488 0810 9DF80730 		ldrb	r3, [sp, #7]	@ zero_extendqisi2
 1489 0814 0133     		adds	r3, r3, #1
 1490 0816 8DF80730 		strb	r3, [sp, #7]
 1491              	.L81:
 1492              		.loc 1 535 0 is_stmt 0 discriminator 1
 1493 081a 9DF80730 		ldrb	r3, [sp, #7]	@ zero_extendqisi2
 1494 081e 052B     		cmp	r3, #5
 1495 0820 EBD9     		bls	.L82
 1496              		.loc 1 542 0 is_stmt 1
 1497 0822 02B0     		add	sp, sp, #8
 1498              		@ sp needed
 1499 0824 7047     		bx	lr
 1500              	.L84:
 1501 0826 00BF     		.align	2
 1502              	.L83:
 1503 0828 00000000 		.word	MDM_GMDTable
 1504              		.cfi_endproc
 1505              	.LFE131:
 1506              		.size	PrintOut_MDM_GMDStatus, .-PrintOut_MDM_GMDStatus
 1507              		.align	2
 1508 082c AFF30080 		.p2align 4,,15
 1509              		.global	MDM_LicenseParsing
 1510              		.thumb
 1511              		.thumb_func
 1512              		.type	MDM_LicenseParsing, %function
 1513              	MDM_LicenseParsing:
 1514              	.LFB132:
 1515              		.loc 1 551 0
 1516              		.cfi_startproc
 1517              		@ args = 0, pretend = 0, frame = 40
 1518              		@ frame_needed = 0, uses_anonymous_args = 0
 1519 0830 00B5     		push	{lr}
 1520              		.cfi_def_cfa_offset 4
 1521              		.cfi_offset 14, -4
 1522 0832 8BB0     		sub	sp, sp, #44
 1523              		.cfi_def_cfa_offset 48
 1524 0834 0190     		str	r0, [sp, #4]
 1525 0836 0B46     		mov	r3, r1
 1526 0838 8DF80330 		strb	r3, [sp, #3]
 1527              		.loc 1 557 0
 1528 083c 6E4B     		ldr	r3, .L100
 1529 083e 1B68     		ldr	r3, [r3]
 1530 0840 002B     		cmp	r3, #0
ARM GAS  /tmp/ccZDdxFb.s 			page 29


 1531 0842 76D1     		bne	.L86
 1532              	.LBB12:
 1533              		.loc 1 559 0
 1534 0844 0023     		movs	r3, #0
 1535 0846 0993     		str	r3, [sp, #36]
 1536              		.loc 1 561 0
 1537 0848 6C4B     		ldr	r3, .L100+4
 1538 084a 0022     		movs	r2, #0
 1539 084c 1A70     		strb	r2, [r3]
 1540              		.loc 1 563 0
 1541 084e 0023     		movs	r3, #0
 1542 0850 0893     		str	r3, [sp, #32]
 1543 0852 29E0     		b	.L87
 1544              	.L89:
 1545              		.loc 1 565 0
 1546 0854 6A49     		ldr	r1, .L100+8
 1547 0856 089A     		ldr	r2, [sp, #32]
 1548 0858 1346     		mov	r3, r2
 1549 085a 5B00     		lsls	r3, r3, #1
 1550 085c 1344     		add	r3, r3, r2
 1551 085e 1A01     		lsls	r2, r3, #4
 1552 0860 D21A     		subs	r2, r2, r3
 1553 0862 8B18     		adds	r3, r1, r2
 1554 0864 1B78     		ldrb	r3, [r3]	@ zero_extendqisi2
 1555 0866 5A01     		lsls	r2, r3, #5
 1556 0868 664B     		ldr	r3, .L100+12
 1557 086a 1344     		add	r3, r3, r2
 1558 086c 0433     		adds	r3, r3, #4
 1559 086e 1846     		mov	r0, r3
 1560 0870 0199     		ldr	r1, [sp, #4]
 1561 0872 0222     		movs	r2, #2
 1562 0874 FFF7FEFF 		bl	strncmp
 1563 0878 0346     		mov	r3, r0
 1564 087a 002B     		cmp	r3, #0
 1565 087c 11D1     		bne	.L88
 1566              		.loc 1 566 0
 1567 087e 0123     		movs	r3, #1
 1568 0880 0993     		str	r3, [sp, #36]
 1569              		.loc 1 567 0
 1570 0882 5F49     		ldr	r1, .L100+8
 1571 0884 089A     		ldr	r2, [sp, #32]
 1572 0886 1346     		mov	r3, r2
 1573 0888 5B00     		lsls	r3, r3, #1
 1574 088a 1344     		add	r3, r3, r2
 1575 088c 1A01     		lsls	r2, r3, #4
 1576 088e D21A     		subs	r2, r2, r3
 1577 0890 8B18     		adds	r3, r1, r2
 1578 0892 1B78     		ldrb	r3, [r3]	@ zero_extendqisi2
 1579 0894 5B4A     		ldr	r2, .L100+12
 1580 0896 5B01     		lsls	r3, r3, #5
 1581 0898 1344     		add	r3, r3, r2
 1582 089a 1B68     		ldr	r3, [r3]
 1583 089c DAB2     		uxtb	r2, r3
 1584 089e 574B     		ldr	r3, .L100+4
 1585 08a0 1A70     		strb	r2, [r3]
 1586              	.L88:
 1587              		.loc 1 563 0
ARM GAS  /tmp/ccZDdxFb.s 			page 30


 1588 08a2 089B     		ldr	r3, [sp, #32]
 1589 08a4 0133     		adds	r3, r3, #1
 1590 08a6 0893     		str	r3, [sp, #32]
 1591              	.L87:
 1592              		.loc 1 563 0 is_stmt 0 discriminator 1
 1593 08a8 089A     		ldr	r2, [sp, #32]
 1594 08aa 574B     		ldr	r3, .L100+16
 1595 08ac 1B68     		ldr	r3, [r3]
 1596 08ae 9A42     		cmp	r2, r3
 1597 08b0 2CBF     		ite	cs
 1598 08b2 0023     		movcs	r3, #0
 1599 08b4 0123     		movcc	r3, #1
 1600 08b6 DAB2     		uxtb	r2, r3
 1601 08b8 099B     		ldr	r3, [sp, #36]
 1602 08ba 002B     		cmp	r3, #0
 1603 08bc 14BF     		ite	ne
 1604 08be 0023     		movne	r3, #0
 1605 08c0 0123     		moveq	r3, #1
 1606 08c2 DBB2     		uxtb	r3, r3
 1607 08c4 1340     		ands	r3, r3, r2
 1608 08c6 DBB2     		uxtb	r3, r3
 1609 08c8 002B     		cmp	r3, #0
 1610 08ca C3D1     		bne	.L89
 1611              		.loc 1 571 0 is_stmt 1
 1612 08cc 099B     		ldr	r3, [sp, #36]
 1613 08ce 002B     		cmp	r3, #0
 1614 08d0 2ED0     		beq	.L90
 1615              	.LBB13:
 1616              		.loc 1 573 0
 1617 08d2 4A4B     		ldr	r3, .L100+4
 1618 08d4 1B78     		ldrb	r3, [r3]	@ zero_extendqisi2
 1619 08d6 4B4A     		ldr	r2, .L100+12
 1620 08d8 5B01     		lsls	r3, r3, #5
 1621 08da 1344     		add	r3, r3, r2
 1622 08dc 1833     		adds	r3, r3, #24
 1623 08de 5B68     		ldr	r3, [r3, #4]
 1624 08e0 0593     		str	r3, [sp, #20]
 1625              		.loc 1 575 0
 1626 08e2 059B     		ldr	r3, [sp, #20]
 1627 08e4 5B68     		ldr	r3, [r3, #4]
 1628 08e6 002B     		cmp	r3, #0
 1629 08e8 1ED1     		bne	.L91
 1630              		.loc 1 576 0
 1631 08ea 434B     		ldr	r3, .L100
 1632 08ec 0122     		movs	r2, #1
 1633 08ee 1A60     		str	r2, [r3]
 1634              		.loc 1 577 0
 1635 08f0 464B     		ldr	r3, .L100+20
 1636 08f2 0022     		movs	r2, #0
 1637 08f4 1A60     		str	r2, [r3]
 1638              		.loc 1 578 0
 1639 08f6 0223     		movs	r3, #2
 1640 08f8 0793     		str	r3, [sp, #28]
 1641 08fa 0FE0     		b	.L92
 1642              	.L93:
 1643              		.loc 1 579 0 discriminator 2
 1644 08fc 434B     		ldr	r3, .L100+20
ARM GAS  /tmp/ccZDdxFb.s 			page 31


 1645 08fe 1B68     		ldr	r3, [r3]
 1646 0900 079A     		ldr	r2, [sp, #28]
 1647 0902 0199     		ldr	r1, [sp, #4]
 1648 0904 0A44     		add	r2, r2, r1
 1649 0906 1178     		ldrb	r1, [r2]	@ zero_extendqisi2
 1650 0908 414A     		ldr	r2, .L100+24
 1651 090a D154     		strb	r1, [r2, r3]
 1652              		.loc 1 580 0 discriminator 2
 1653 090c 3F4B     		ldr	r3, .L100+20
 1654 090e 1B68     		ldr	r3, [r3]
 1655 0910 5A1C     		adds	r2, r3, #1
 1656 0912 3E4B     		ldr	r3, .L100+20
 1657 0914 1A60     		str	r2, [r3]
 1658              		.loc 1 578 0 discriminator 2
 1659 0916 079B     		ldr	r3, [sp, #28]
 1660 0918 0133     		adds	r3, r3, #1
 1661 091a 0793     		str	r3, [sp, #28]
 1662              	.L92:
 1663              		.loc 1 578 0 is_stmt 0 discriminator 1
 1664 091c 9DF80320 		ldrb	r2, [sp, #3]	@ zero_extendqisi2
 1665 0920 079B     		ldr	r3, [sp, #28]
 1666 0922 9A42     		cmp	r2, r3
 1667 0924 EADC     		bgt	.L93
 1668              	.LBE13:
 1669              	.LBE12:
 1670 0926 61E0     		b	.L94
 1671              	.L91:
 1672              	.LBB15:
 1673              	.LBB14:
 1674              		.loc 1 583 0 is_stmt 1
 1675 0928 344B     		ldr	r3, .L100+4
 1676 092a 0022     		movs	r2, #0
 1677 092c 1A70     		strb	r2, [r3]
 1678              	.LBE14:
 1679              	.LBE15:
 1680 092e 5DE0     		b	.L94
 1681              	.L90:
 1682 0930 5CE0     		b	.L94
 1683              	.L86:
 1684              	.LBB16:
 1685              		.loc 1 590 0
 1686 0932 0023     		movs	r3, #0
 1687 0934 0693     		str	r3, [sp, #24]
 1688 0936 0FE0     		b	.L95
 1689              	.L96:
 1690              		.loc 1 591 0 discriminator 2
 1691 0938 344B     		ldr	r3, .L100+20
 1692 093a 1B68     		ldr	r3, [r3]
 1693 093c 069A     		ldr	r2, [sp, #24]
 1694 093e 0199     		ldr	r1, [sp, #4]
 1695 0940 0A44     		add	r2, r2, r1
 1696 0942 1178     		ldrb	r1, [r2]	@ zero_extendqisi2
 1697 0944 324A     		ldr	r2, .L100+24
 1698 0946 D154     		strb	r1, [r2, r3]
 1699              		.loc 1 592 0 discriminator 2
 1700 0948 304B     		ldr	r3, .L100+20
 1701 094a 1B68     		ldr	r3, [r3]
ARM GAS  /tmp/ccZDdxFb.s 			page 32


 1702 094c 5A1C     		adds	r2, r3, #1
 1703 094e 2F4B     		ldr	r3, .L100+20
 1704 0950 1A60     		str	r2, [r3]
 1705              		.loc 1 590 0 discriminator 2
 1706 0952 069B     		ldr	r3, [sp, #24]
 1707 0954 0133     		adds	r3, r3, #1
 1708 0956 0693     		str	r3, [sp, #24]
 1709              	.L95:
 1710              		.loc 1 590 0 is_stmt 0 discriminator 1
 1711 0958 9DF80320 		ldrb	r2, [sp, #3]	@ zero_extendqisi2
 1712 095c 069B     		ldr	r3, [sp, #24]
 1713 095e 9A42     		cmp	r2, r3
 1714 0960 EADC     		bgt	.L96
 1715              		.loc 1 596 0 is_stmt 1
 1716 0962 2A4B     		ldr	r3, .L100+20
 1717 0964 1B68     		ldr	r3, [r3]
 1718 0966 302B     		cmp	r3, #48
 1719 0968 40D1     		bne	.L94
 1720              	.LBB17:
 1721              		.loc 1 597 0
 1722 096a 244B     		ldr	r3, .L100+4
 1723 096c 1B78     		ldrb	r3, [r3]	@ zero_extendqisi2
 1724 096e 254A     		ldr	r2, .L100+12
 1725 0970 5B01     		lsls	r3, r3, #5
 1726 0972 1344     		add	r3, r3, r2
 1727 0974 1833     		adds	r3, r3, #24
 1728 0976 5B68     		ldr	r3, [r3, #4]
 1729 0978 0493     		str	r3, [sp, #16]
 1730              		.loc 1 598 0
 1731 097a 049B     		ldr	r3, [sp, #16]
 1732 097c 2C33     		adds	r3, r3, #44
 1733 097e 0393     		str	r3, [sp, #12]
 1734              		.loc 1 600 0
 1735 0980 0023     		movs	r3, #0
 1736 0982 0693     		str	r3, [sp, #24]
 1737 0984 25E0     		b	.L97
 1738              	.L98:
 1739              		.loc 1 601 0 discriminator 2
 1740 0986 069B     		ldr	r3, [sp, #24]
 1741 0988 0333     		adds	r3, r3, #3
 1742 098a 039A     		ldr	r2, [sp, #12]
 1743 098c 1344     		add	r3, r3, r2
 1744 098e 2049     		ldr	r1, .L100+24
 1745 0990 069A     		ldr	r2, [sp, #24]
 1746 0992 0A44     		add	r2, r2, r1
 1747 0994 1278     		ldrb	r2, [r2]	@ zero_extendqisi2
 1748 0996 1A70     		strb	r2, [r3]
 1749              		.loc 1 602 0 discriminator 2
 1750 0998 069B     		ldr	r3, [sp, #24]
 1751 099a 039A     		ldr	r2, [sp, #12]
 1752 099c 1344     		add	r3, r3, r2
 1753 099e 069A     		ldr	r2, [sp, #24]
 1754 09a0 0332     		adds	r2, r2, #3
 1755 09a2 1B49     		ldr	r1, .L100+24
 1756 09a4 8A5C     		ldrb	r2, [r1, r2]	@ zero_extendqisi2
 1757 09a6 1A70     		strb	r2, [r3]
 1758              		.loc 1 603 0 discriminator 2
ARM GAS  /tmp/ccZDdxFb.s 			page 33


 1759 09a8 069B     		ldr	r3, [sp, #24]
 1760 09aa 0233     		adds	r3, r3, #2
 1761 09ac 039A     		ldr	r2, [sp, #12]
 1762 09ae 1344     		add	r3, r3, r2
 1763 09b0 069A     		ldr	r2, [sp, #24]
 1764 09b2 0132     		adds	r2, r2, #1
 1765 09b4 1649     		ldr	r1, .L100+24
 1766 09b6 8A5C     		ldrb	r2, [r1, r2]	@ zero_extendqisi2
 1767 09b8 1A70     		strb	r2, [r3]
 1768              		.loc 1 604 0 discriminator 2
 1769 09ba 069B     		ldr	r3, [sp, #24]
 1770 09bc 0133     		adds	r3, r3, #1
 1771 09be 039A     		ldr	r2, [sp, #12]
 1772 09c0 1344     		add	r3, r3, r2
 1773 09c2 069A     		ldr	r2, [sp, #24]
 1774 09c4 0232     		adds	r2, r2, #2
 1775 09c6 1249     		ldr	r1, .L100+24
 1776 09c8 8A5C     		ldrb	r2, [r1, r2]	@ zero_extendqisi2
 1777 09ca 1A70     		strb	r2, [r3]
 1778              		.loc 1 600 0 discriminator 2
 1779 09cc 069B     		ldr	r3, [sp, #24]
 1780 09ce 0433     		adds	r3, r3, #4
 1781 09d0 0693     		str	r3, [sp, #24]
 1782              	.L97:
 1783              		.loc 1 600 0 is_stmt 0 discriminator 1
 1784 09d2 069B     		ldr	r3, [sp, #24]
 1785 09d4 2F2B     		cmp	r3, #47
 1786 09d6 D6DD     		ble	.L98
 1787              		.loc 1 606 0 is_stmt 1
 1788 09d8 0C4B     		ldr	r3, .L100+20
 1789 09da 0022     		movs	r2, #0
 1790 09dc 1A60     		str	r2, [r3]
 1791              		.loc 1 607 0
 1792 09de 064B     		ldr	r3, .L100
 1793 09e0 0022     		movs	r2, #0
 1794 09e2 1A60     		str	r2, [r3]
 1795              		.loc 1 608 0
 1796 09e4 054B     		ldr	r3, .L100+4
 1797 09e6 1B78     		ldrb	r3, [r3]	@ zero_extendqisi2
 1798 09e8 5B42     		negs	r3, r3
 1799 09ea 01E0     		b	.L99
 1800              	.L94:
 1801              	.LBE17:
 1802              	.LBE16:
 1803              		.loc 1 611 0
 1804 09ec 024B     		ldr	r3, .L100
 1805 09ee 1B68     		ldr	r3, [r3]
 1806              	.L99:
 1807              		.loc 1 612 0
 1808 09f0 1846     		mov	r0, r3
 1809 09f2 0BB0     		add	sp, sp, #44
 1810              		@ sp needed
 1811 09f4 5DF804FB 		ldr	pc, [sp], #4
 1812              	.L101:
 1813              		.align	2
 1814              	.L100:
 1815 09f8 0C100000 		.word	osxLicenseStart.9680
ARM GAS  /tmp/ccZDdxFb.s 			page 34


 1816 09fc 10100000 		.word	OsxLicense.9682
 1817 0a00 00000000 		.word	known_OsxLic
 1818 0a04 00000000 		.word	MDM_LicTable
 1819 0a08 00100000 		.word	NumberOfKnownLic
 1820 0a0c 14100000 		.word	osxLicenseCount.9681
 1821 0a10 18100000 		.word	TmpLicense.9683
 1822              		.cfi_endproc
 1823              	.LFE132:
 1824              		.size	MDM_LicenseParsing, .-MDM_LicenseParsing
 1825              		.align	2
 1826 0a14 AFF30080 		.p2align 4,,15
 1826      AFF30080 
 1826      AFF30080 
 1827              		.global	MetaDataLicenseStatus
 1828              		.thumb
 1829              		.thumb_func
 1830              		.type	MetaDataLicenseStatus, %function
 1831              	MetaDataLicenseStatus:
 1832              	.LFB133:
 1833              		.loc 1 619 0
 1834              		.cfi_startproc
 1835              		@ args = 0, pretend = 0, frame = 16
 1836              		@ frame_needed = 0, uses_anonymous_args = 0
 1837              		@ link register save eliminated.
 1838 0a20 84B0     		sub	sp, sp, #16
 1839              		.cfi_def_cfa_offset 16
 1840 0a22 0346     		mov	r3, r0
 1841 0a24 8DF80730 		strb	r3, [sp, #7]
 1842              		.loc 1 620 0
 1843 0a28 9DF80730 		ldrb	r3, [sp, #7]	@ zero_extendqisi2
 1844 0a2c 054A     		ldr	r2, .L104
 1845 0a2e 5B01     		lsls	r3, r3, #5
 1846 0a30 1344     		add	r3, r3, r2
 1847 0a32 1833     		adds	r3, r3, #24
 1848 0a34 5B68     		ldr	r3, [r3, #4]
 1849 0a36 0393     		str	r3, [sp, #12]
 1850              		.loc 1 621 0
 1851 0a38 039B     		ldr	r3, [sp, #12]
 1852 0a3a 5B68     		ldr	r3, [r3, #4]
 1853              		.loc 1 622 0
 1854 0a3c 1846     		mov	r0, r3
 1855 0a3e 04B0     		add	sp, sp, #16
 1856              		@ sp needed
 1857 0a40 7047     		bx	lr
 1858              	.L105:
 1859 0a42 00BF     		.align	2
 1860              	.L104:
 1861 0a44 00000000 		.word	MDM_LicTable
 1862              		.cfi_endproc
 1863              	.LFE133:
 1864              		.size	MetaDataLicenseStatus, .-MetaDataLicenseStatus
 1865              		.align	2
 1866 0a48 AFF30080 		.p2align 4,,15
 1866      AFF30080 
 1867              		.global	MDM_SaveGMD
 1868              		.thumb
 1869              		.thumb_func
ARM GAS  /tmp/ccZDdxFb.s 			page 35


 1870              		.type	MDM_SaveGMD, %function
 1871              	MDM_SaveGMD:
 1872              	.LFB134:
 1873              		.loc 1 631 0
 1874              		.cfi_startproc
 1875              		@ args = 0, pretend = 0, frame = 16
 1876              		@ frame_needed = 0, uses_anonymous_args = 0
 1877 0a50 00B5     		push	{lr}
 1878              		.cfi_def_cfa_offset 4
 1879              		.cfi_offset 14, -4
 1880 0a52 85B0     		sub	sp, sp, #20
 1881              		.cfi_def_cfa_offset 24
 1882 0a54 0346     		mov	r3, r0
 1883 0a56 0091     		str	r1, [sp]
 1884 0a58 8DF80730 		strb	r3, [sp, #7]
 1885              		.loc 1 632 0
 1886 0a5c 0123     		movs	r3, #1
 1887 0a5e 0393     		str	r3, [sp, #12]
 1888              		.loc 1 633 0
 1889 0a60 9DF80720 		ldrb	r2, [sp, #7]	@ zero_extendqisi2
 1890 0a64 1449     		ldr	r1, .L110
 1891 0a66 1346     		mov	r3, r2
 1892 0a68 DB00     		lsls	r3, r3, #3
 1893 0a6a 9B1A     		subs	r3, r3, r2
 1894 0a6c 9B00     		lsls	r3, r3, #2
 1895 0a6e 0B44     		add	r3, r3, r1
 1896 0a70 1833     		adds	r3, r3, #24
 1897 0a72 1B68     		ldr	r3, [r3]
 1898 0a74 002B     		cmp	r3, #0
 1899 0a76 18D0     		beq	.L107
 1900              	.LBB18:
 1901              		.loc 1 634 0
 1902 0a78 9DF80720 		ldrb	r2, [sp, #7]	@ zero_extendqisi2
 1903 0a7c 0E49     		ldr	r1, .L110
 1904 0a7e 1346     		mov	r3, r2
 1905 0a80 DB00     		lsls	r3, r3, #3
 1906 0a82 9B1A     		subs	r3, r3, r2
 1907 0a84 9B00     		lsls	r3, r3, #2
 1908 0a86 0B44     		add	r3, r3, r1
 1909 0a88 1833     		adds	r3, r3, #24
 1910 0a8a 1B68     		ldr	r3, [r3]
 1911 0a8c 0293     		str	r3, [sp, #8]
 1912              		.loc 1 635 0
 1913 0a8e 029B     		ldr	r3, [sp, #8]
 1914 0a90 03F10802 		add	r2, r3, #8
 1915 0a94 029B     		ldr	r3, [sp, #8]
 1916 0a96 5B68     		ldr	r3, [r3, #4]
 1917 0a98 1046     		mov	r0, r2
 1918 0a9a 0099     		ldr	r1, [sp]
 1919 0a9c 1A46     		mov	r2, r3
 1920 0a9e FFF7FEFF 		bl	memcpy
 1921              		.loc 1 636 0
 1922 0aa2 064B     		ldr	r3, .L110+4
 1923 0aa4 0122     		movs	r2, #1
 1924 0aa6 1A60     		str	r2, [r3]
 1925              	.LBE18:
 1926 0aa8 01E0     		b	.L108
ARM GAS  /tmp/ccZDdxFb.s 			page 36


 1927              	.L107:
 1928              		.loc 1 640 0
 1929 0aaa 0023     		movs	r3, #0
 1930 0aac 0393     		str	r3, [sp, #12]
 1931              	.L108:
 1932              		.loc 1 642 0
 1933 0aae 039B     		ldr	r3, [sp, #12]
 1934              		.loc 1 643 0
 1935 0ab0 1846     		mov	r0, r3
 1936 0ab2 05B0     		add	sp, sp, #20
 1937              		@ sp needed
 1938 0ab4 5DF804FB 		ldr	pc, [sp], #4
 1939              	.L111:
 1940              		.align	2
 1941              	.L110:
 1942 0ab8 00000000 		.word	MDM_GMDTable
 1943 0abc 00000000 		.word	NecessityToSaveMetaDataManager
 1944              		.cfi_endproc
 1945              	.LFE134:
 1946              		.size	MDM_SaveGMD, .-MDM_SaveGMD
 1947              		.align	2
 1948              		.p2align 4,,15
 1949              		.global	MDM_ReCallGMD
 1950              		.thumb
 1951              		.thumb_func
 1952              		.type	MDM_ReCallGMD, %function
 1953              	MDM_ReCallGMD:
 1954              	.LFB135:
 1955              		.loc 1 652 0
 1956              		.cfi_startproc
 1957              		@ args = 0, pretend = 0, frame = 16
 1958              		@ frame_needed = 0, uses_anonymous_args = 0
 1959 0ac0 00B5     		push	{lr}
 1960              		.cfi_def_cfa_offset 4
 1961              		.cfi_offset 14, -4
 1962 0ac2 85B0     		sub	sp, sp, #20
 1963              		.cfi_def_cfa_offset 24
 1964 0ac4 0346     		mov	r3, r0
 1965 0ac6 0091     		str	r1, [sp]
 1966 0ac8 8DF80730 		strb	r3, [sp, #7]
 1967              		.loc 1 653 0
 1968 0acc 0123     		movs	r3, #1
 1969 0ace 0393     		str	r3, [sp, #12]
 1970              		.loc 1 654 0
 1971 0ad0 9DF80720 		ldrb	r2, [sp, #7]	@ zero_extendqisi2
 1972 0ad4 1349     		ldr	r1, .L116
 1973 0ad6 1346     		mov	r3, r2
 1974 0ad8 DB00     		lsls	r3, r3, #3
 1975 0ada 9B1A     		subs	r3, r3, r2
 1976 0adc 9B00     		lsls	r3, r3, #2
 1977 0ade 0B44     		add	r3, r3, r1
 1978 0ae0 1833     		adds	r3, r3, #24
 1979 0ae2 1B68     		ldr	r3, [r3]
 1980 0ae4 002B     		cmp	r3, #0
 1981 0ae6 15D0     		beq	.L113
 1982              	.LBB19:
 1983              		.loc 1 655 0
ARM GAS  /tmp/ccZDdxFb.s 			page 37


 1984 0ae8 9DF80720 		ldrb	r2, [sp, #7]	@ zero_extendqisi2
 1985 0aec 0D49     		ldr	r1, .L116
 1986 0aee 1346     		mov	r3, r2
 1987 0af0 DB00     		lsls	r3, r3, #3
 1988 0af2 9B1A     		subs	r3, r3, r2
 1989 0af4 9B00     		lsls	r3, r3, #2
 1990 0af6 0B44     		add	r3, r3, r1
 1991 0af8 1833     		adds	r3, r3, #24
 1992 0afa 1B68     		ldr	r3, [r3]
 1993 0afc 0293     		str	r3, [sp, #8]
 1994              		.loc 1 656 0
 1995 0afe 029B     		ldr	r3, [sp, #8]
 1996 0b00 03F10802 		add	r2, r3, #8
 1997 0b04 029B     		ldr	r3, [sp, #8]
 1998 0b06 5B68     		ldr	r3, [r3, #4]
 1999 0b08 0098     		ldr	r0, [sp]
 2000 0b0a 1146     		mov	r1, r2
 2001 0b0c 1A46     		mov	r2, r3
 2002 0b0e FFF7FEFF 		bl	memcpy
 2003              	.LBE19:
 2004 0b12 01E0     		b	.L114
 2005              	.L113:
 2006              		.loc 1 659 0
 2007 0b14 0023     		movs	r3, #0
 2008 0b16 0393     		str	r3, [sp, #12]
 2009              	.L114:
 2010              		.loc 1 661 0
 2011 0b18 039B     		ldr	r3, [sp, #12]
 2012              		.loc 1 662 0
 2013 0b1a 1846     		mov	r0, r3
 2014 0b1c 05B0     		add	sp, sp, #20
 2015              		@ sp needed
 2016 0b1e 5DF804FB 		ldr	pc, [sp], #4
 2017              	.L117:
 2018 0b22 00BF     		.align	2
 2019              	.L116:
 2020 0b24 00000000 		.word	MDM_GMDTable
 2021              		.cfi_endproc
 2022              	.LFE135:
 2023              		.size	MDM_ReCallGMD, .-MDM_ReCallGMD
 2024              		.bss
 2025              		.align	2
 2026              	osxLicenseStart.9680:
 2027 100c 00000000 		.space	4
 2028              	OsxLicense.9682:
 2029 1010 00       		.space	1
 2030 1011 000000   		.align	2
 2031              	osxLicenseCount.9681:
 2032 1014 00000000 		.space	4
 2033              		.align	2
 2034              	TmpLicense.9683:
 2035 1018 00000000 		.space	48
 2035      00000000 
 2035      00000000 
 2035      00000000 
 2035      00000000 
 2036              		.text
ARM GAS  /tmp/ccZDdxFb.s 			page 38


 2037              	.Letext0:
 2038              		.file 2 "/nfs/nfs5/home/research/hardware/arm2/gcc-arm-embedded/gcc-arm-none-eabi-4_8-2014q2/lib/g
 2039              		.file 3 "/nfs/nfs5/home/research/hardware/arm2/gcc-arm-embedded/gcc-arm-none-eabi-4_8-2014q2/arm-n
 2040              		.file 4 "/nfs/nfs5/home/research/hardware/arm2/gcc-arm-embedded/gcc-arm-none-eabi-4_8-2014q2/arm-n
 2041              		.file 5 "../../../../../Middlewares/ST/STM32_MetaDataManager/MetaDataManager.h"
 2042              		.file 6 "../../../../../../ChibiOS/os/ext/CMSIS/include/core_cm4.h"
 2043              		.file 7 "<built-in>"