ARM GAS  /tmp/ccCutVAN.s 			page 1


   1              		.syntax unified
   2              		.cpu cortex-m4
   3              		.fpu softvfp
   4              		.eabi_attribute 20, 1
   5              		.eabi_attribute 21, 1
   6              		.eabi_attribute 23, 3
   7              		.eabi_attribute 24, 1
   8              		.eabi_attribute 25, 1
   9              		.eabi_attribute 26, 1
  10              		.eabi_attribute 30, 6
  11              		.eabi_attribute 34, 1
  12              		.eabi_attribute 18, 4
  13              		.thumb
  14              		.file	"MotionFX_Manager.c"
  15              		.text
  16              	.Ltext0:
  17              		.cfi_sections	.debug_frame
  18              		.global	osx_mfx_license
  19              		.bss
  20              		.align	2
  21              		.type	osx_mfx_license, %object
  22              		.size	osx_mfx_license, 48
  23              	osx_mfx_license:
  24 0000 00000000 		.space	48
  24      00000000 
  24      00000000 
  24      00000000 
  24      00000000 
  25              		.comm	iDataOUT,112,4
  26              		.comm	iDataIN,36,4
  27              		.align	2
  28              	discardedCount:
  29 0030 00000000 		.space	4
  30              		.align	2
  31              	iKnobs:
  32 0034 00000000 		.space	60
  32      00000000 
  32      00000000 
  32      00000000 
  32      00000000 
  33              		.align	2
  34              	ipKnobs:
  35 0070 00000000 		.space	4
  36              		.global	__aeabi_i2d
  37              		.global	__aeabi_dmul
  38              		.global	__aeabi_d2f
  39              		.global	__aeabi_i2f
  40              		.global	__aeabi_fmul
  41              		.text
  42              		.align	2
  43              		.p2align 4,,15
  44              		.global	MotionFX_manager_run
  45              		.thumb
  46              		.thumb_func
  47              		.type	MotionFX_manager_run, %function
  48              	MotionFX_manager_run:
  49              	.LFB125:
ARM GAS  /tmp/ccCutVAN.s 			page 2


  50              		.file 1 "../../../../../Projects/Multi/Applications/BlueMicrosystem2/Src/MotionFX_Manager.c"
  51              		.loc 1 86 0
  52              		.cfi_startproc
  53              		@ args = 24, pretend = 8, frame = 8
  54              		@ frame_needed = 0, uses_anonymous_args = 0
  55 0000 82B0     		sub	sp, sp, #8
  56              		.cfi_def_cfa_offset 8
  57 0002 10B5     		push	{r4, lr}
  58              		.cfi_def_cfa_offset 16
  59              		.cfi_offset 4, -16
  60              		.cfi_offset 14, -12
  61 0004 82B0     		sub	sp, sp, #8
  62              		.cfi_def_cfa_offset 24
  63 0006 6C46     		mov	r4, sp
  64 0008 84E80300 		stmia	r4, {r0, r1}
  65 000c 04A9     		add	r1, sp, #16
  66 000e 81E80C00 		stmia	r1, {r2, r3}
  67              		.loc 1 87 0
  68 0012 049B     		ldr	r3, [sp, #16]
  69 0014 1846     		mov	r0, r3
  70 0016 FFF7FEFF 		bl	__aeabi_i2d
  71 001a 0246     		mov	r2, r0
  72 001c 0B46     		mov	r3, r1
  73 001e 1046     		mov	r0, r2
  74 0020 1946     		mov	r1, r3
  75 0022 57A3     		adr	r3, .L3
  76 0024 D3E90023 		ldrd	r2, [r3]
  77 0028 FFF7FEFF 		bl	__aeabi_dmul
  78 002c 0246     		mov	r2, r0
  79 002e 0B46     		mov	r3, r1
  80 0030 1046     		mov	r0, r2
  81 0032 1946     		mov	r1, r3
  82 0034 FFF7FEFF 		bl	__aeabi_d2f
  83 0038 0246     		mov	r2, r0
  84 003a 534B     		ldr	r3, .L3+8
  85 003c 9A61     		str	r2, [r3, #24]	@ float
  86              		.loc 1 88 0
  87 003e 059B     		ldr	r3, [sp, #20]
  88 0040 1846     		mov	r0, r3
  89 0042 FFF7FEFF 		bl	__aeabi_i2d
  90 0046 0246     		mov	r2, r0
  91 0048 0B46     		mov	r3, r1
  92 004a 1046     		mov	r0, r2
  93 004c 1946     		mov	r1, r3
  94 004e 4CA3     		adr	r3, .L3
  95 0050 D3E90023 		ldrd	r2, [r3]
  96 0054 FFF7FEFF 		bl	__aeabi_dmul
  97 0058 0246     		mov	r2, r0
  98 005a 0B46     		mov	r3, r1
  99 005c 1046     		mov	r0, r2
 100 005e 1946     		mov	r1, r3
 101 0060 FFF7FEFF 		bl	__aeabi_d2f
 102 0064 0246     		mov	r2, r0
 103 0066 484B     		ldr	r3, .L3+8
 104 0068 DA61     		str	r2, [r3, #28]	@ float
 105              		.loc 1 89 0
 106 006a 069B     		ldr	r3, [sp, #24]
ARM GAS  /tmp/ccCutVAN.s 			page 3


 107 006c 1846     		mov	r0, r3
 108 006e FFF7FEFF 		bl	__aeabi_i2d
 109 0072 0246     		mov	r2, r0
 110 0074 0B46     		mov	r3, r1
 111 0076 1046     		mov	r0, r2
 112 0078 1946     		mov	r1, r3
 113 007a 41A3     		adr	r3, .L3
 114 007c D3E90023 		ldrd	r2, [r3]
 115 0080 FFF7FEFF 		bl	__aeabi_dmul
 116 0084 0246     		mov	r2, r0
 117 0086 0B46     		mov	r3, r1
 118 0088 1046     		mov	r0, r2
 119 008a 1946     		mov	r1, r3
 120 008c FFF7FEFF 		bl	__aeabi_d2f
 121 0090 0246     		mov	r2, r0
 122 0092 3D4B     		ldr	r3, .L3+8
 123 0094 1A62     		str	r2, [r3, #32]	@ float
 124              		.loc 1 91 0
 125 0096 BDF80030 		ldrh	r3, [sp]
 126 009a 1BB2     		sxth	r3, r3
 127 009c 1846     		mov	r0, r3
 128 009e FFF7FEFF 		bl	__aeabi_i2f
 129 00a2 0246     		mov	r2, r0
 130 00a4 394B     		ldr	r3, .L3+12
 131 00a6 1B68     		ldr	r3, [r3]	@ float
 132 00a8 1046     		mov	r0, r2
 133 00aa 1946     		mov	r1, r3
 134 00ac FFF7FEFF 		bl	__aeabi_fmul
 135 00b0 0346     		mov	r3, r0
 136 00b2 1A46     		mov	r2, r3
 137 00b4 344B     		ldr	r3, .L3+8
 138 00b6 DA60     		str	r2, [r3, #12]	@ float
 139              		.loc 1 92 0
 140 00b8 BDF80230 		ldrh	r3, [sp, #2]
 141 00bc 1BB2     		sxth	r3, r3
 142 00be 1846     		mov	r0, r3
 143 00c0 FFF7FEFF 		bl	__aeabi_i2f
 144 00c4 0246     		mov	r2, r0
 145 00c6 314B     		ldr	r3, .L3+12
 146 00c8 1B68     		ldr	r3, [r3]	@ float
 147 00ca 1046     		mov	r0, r2
 148 00cc 1946     		mov	r1, r3
 149 00ce FFF7FEFF 		bl	__aeabi_fmul
 150 00d2 0346     		mov	r3, r0
 151 00d4 1A46     		mov	r2, r3
 152 00d6 2C4B     		ldr	r3, .L3+8
 153 00d8 1A61     		str	r2, [r3, #16]	@ float
 154              		.loc 1 93 0
 155 00da BDF80430 		ldrh	r3, [sp, #4]
 156 00de 1BB2     		sxth	r3, r3
 157 00e0 1846     		mov	r0, r3
 158 00e2 FFF7FEFF 		bl	__aeabi_i2f
 159 00e6 0246     		mov	r2, r0
 160 00e8 284B     		ldr	r3, .L3+12
 161 00ea 1B68     		ldr	r3, [r3]	@ float
 162 00ec 1046     		mov	r0, r2
 163 00ee 1946     		mov	r1, r3
ARM GAS  /tmp/ccCutVAN.s 			page 4


 164 00f0 FFF7FEFF 		bl	__aeabi_fmul
 165 00f4 0346     		mov	r3, r0
 166 00f6 1A46     		mov	r2, r3
 167 00f8 234B     		ldr	r3, .L3+8
 168 00fa 5A61     		str	r2, [r3, #20]	@ float
 169              		.loc 1 95 0
 170 00fc 079A     		ldr	r2, [sp, #28]
 171 00fe 244B     		ldr	r3, .L3+16
 172 0100 1B88     		ldrh	r3, [r3]
 173 0102 1BB2     		sxth	r3, r3
 174 0104 D31A     		subs	r3, r2, r3
 175 0106 1846     		mov	r0, r3
 176 0108 FFF7FEFF 		bl	__aeabi_i2f
 177 010c 0346     		mov	r3, r0
 178 010e 1846     		mov	r0, r3
 179 0110 2049     		ldr	r1, .L3+20
 180 0112 FFF7FEFF 		bl	__aeabi_fmul
 181 0116 0346     		mov	r3, r0
 182 0118 1A46     		mov	r2, r3
 183 011a 1B4B     		ldr	r3, .L3+8
 184 011c 1A60     		str	r2, [r3]	@ float
 185              		.loc 1 96 0
 186 011e 089A     		ldr	r2, [sp, #32]
 187 0120 1B4B     		ldr	r3, .L3+16
 188 0122 5B88     		ldrh	r3, [r3, #2]
 189 0124 1BB2     		sxth	r3, r3
 190 0126 D31A     		subs	r3, r2, r3
 191 0128 1846     		mov	r0, r3
 192 012a FFF7FEFF 		bl	__aeabi_i2f
 193 012e 0346     		mov	r3, r0
 194 0130 1846     		mov	r0, r3
 195 0132 1849     		ldr	r1, .L3+20
 196 0134 FFF7FEFF 		bl	__aeabi_fmul
 197 0138 0346     		mov	r3, r0
 198 013a 1A46     		mov	r2, r3
 199 013c 124B     		ldr	r3, .L3+8
 200 013e 5A60     		str	r2, [r3, #4]	@ float
 201              		.loc 1 97 0
 202 0140 099A     		ldr	r2, [sp, #36]
 203 0142 134B     		ldr	r3, .L3+16
 204 0144 9B88     		ldrh	r3, [r3, #4]
 205 0146 1BB2     		sxth	r3, r3
 206 0148 D31A     		subs	r3, r2, r3
 207 014a 1846     		mov	r0, r3
 208 014c FFF7FEFF 		bl	__aeabi_i2f
 209 0150 0346     		mov	r3, r0
 210 0152 1846     		mov	r0, r3
 211 0154 0F49     		ldr	r1, .L3+20
 212 0156 FFF7FEFF 		bl	__aeabi_fmul
 213 015a 0346     		mov	r3, r0
 214 015c 1A46     		mov	r2, r3
 215 015e 0A4B     		ldr	r3, .L3+8
 216 0160 9A60     		str	r2, [r3, #8]	@ float
 217              		.loc 1 99 0
 218 0162 0D4B     		ldr	r3, .L3+24
 219 0164 1B68     		ldr	r3, [r3]
 220 0166 0F2B     		cmp	r3, #15
ARM GAS  /tmp/ccCutVAN.s 			page 5


 221 0168 04D0     		beq	.L1
 222              		.loc 1 103 0
 223 016a 0B4B     		ldr	r3, .L3+24
 224 016c 1B68     		ldr	r3, [r3]
 225 016e 5A1C     		adds	r2, r3, #1
 226 0170 094B     		ldr	r3, .L3+24
 227 0172 1A60     		str	r2, [r3]
 228              	.L1:
 229              		.loc 1 105 0
 230 0174 02B0     		add	sp, sp, #8
 231              		@ sp needed
 232 0176 BDE81040 		pop	{r4, lr}
 233 017a 02B0     		add	sp, sp, #8
 234 017c 7047     		bx	lr
 235              	.L4:
 236 017e 00BF     		.align	3
 237              	.L3:
 238 0180 FCA9F1D2 		.word	-755914244
 239 0184 4D62503F 		.word	1062232653
 240 0188 00000000 		.word	iDataIN
 241 018c 00000000 		.word	sensitivity_Mul
 242 0190 00000000 		.word	magOffset
 243 0194 6F12033B 		.word	990057071
 244 0198 30000000 		.word	discardedCount
 245              		.cfi_endproc
 246              	.LFE125:
 247              		.size	MotionFX_manager_run, .-MotionFX_manager_run
 248              		.align	2
 249 019c AFF30080 		.p2align 4,,15
 250              		.global	MotionFX_License_init
 251              		.thumb
 252              		.thumb_func
 253              		.type	MotionFX_License_init, %function
 254              	MotionFX_License_init:
 255              	.LFB126:
 256              		.loc 1 113 0
 257              		.cfi_startproc
 258              		@ args = 0, pretend = 0, frame = 8
 259              		@ frame_needed = 0, uses_anonymous_args = 0
 260 01a0 00B5     		push	{lr}
 261              		.cfi_def_cfa_offset 4
 262              		.cfi_offset 14, -4
 263 01a2 83B0     		sub	sp, sp, #12
 264              		.cfi_def_cfa_offset 16
 265 01a4 0190     		str	r0, [sp, #4]
 266              		.loc 1 114 0
 267 01a6 019B     		ldr	r3, [sp, #4]
 268 01a8 2C33     		adds	r3, r3, #44
 269 01aa 1846     		mov	r0, r3
 270 01ac 0349     		ldr	r1, .L6
 271 01ae 3022     		movs	r2, #48
 272 01b0 FFF7FEFF 		bl	memcpy
 273              		.loc 1 128 0
 274 01b4 03B0     		add	sp, sp, #12
 275              		@ sp needed
 276 01b6 5DF804FB 		ldr	pc, [sp], #4
 277              	.L7:
ARM GAS  /tmp/ccCutVAN.s 			page 6


 278 01ba 00BF     		.align	2
 279              	.L6:
 280 01bc 00000000 		.word	osx_mfx_license
 281              		.cfi_endproc
 282              	.LFE126:
 283              		.size	MotionFX_License_init, .-MotionFX_License_init
 284              		.align	2
 285              		.p2align 4,,15
 286              		.global	MotionFX_manager_init
 287              		.thumb
 288              		.thumb_func
 289              		.type	MotionFX_manager_init, %function
 290              	MotionFX_manager_init:
 291              	.LFB127:
 292              		.loc 1 135 0
 293              		.cfi_startproc
 294              		@ args = 0, pretend = 0, frame = 0
 295              		@ frame_needed = 0, uses_anonymous_args = 0
 296              		@ link register save eliminated.
 297              		.loc 1 137 0
 298 01c0 334B     		ldr	r3, .L9
 299 01c2 344A     		ldr	r2, .L9+4
 300 01c4 1A60     		str	r2, [r3]
 301              		.loc 1 143 0
 302 01c6 324B     		ldr	r3, .L9
 303 01c8 1B68     		ldr	r3, [r3]
 304 01ca 334A     		ldr	r2, .L9+8
 305 01cc 5A61     		str	r2, [r3, #20]	@ float
 306              		.loc 1 144 0
 307 01ce 304B     		ldr	r3, .L9
 308 01d0 1B68     		ldr	r3, [r3]
 309 01d2 324A     		ldr	r2, .L9+12
 310 01d4 9A61     		str	r2, [r3, #24]	@ float
 311              		.loc 1 145 0
 312 01d6 2E4B     		ldr	r3, .L9
 313 01d8 1B68     		ldr	r3, [r3]
 314 01da 314A     		ldr	r2, .L9+16
 315 01dc 1A61     		str	r2, [r3, #16]	@ float
 316              		.loc 1 147 0
 317 01de 2C4B     		ldr	r3, .L9
 318 01e0 1B68     		ldr	r3, [r3]
 319 01e2 2D4A     		ldr	r2, .L9+8
 320 01e4 1A62     		str	r2, [r3, #32]	@ float
 321              		.loc 1 148 0
 322 01e6 2A4B     		ldr	r3, .L9
 323 01e8 1B68     		ldr	r3, [r3]
 324 01ea 2C4A     		ldr	r2, .L9+12
 325 01ec 5A62     		str	r2, [r3, #36]	@ float
 326              		.loc 1 149 0
 327 01ee 284B     		ldr	r3, .L9
 328 01f0 1B68     		ldr	r3, [r3]
 329 01f2 2B4A     		ldr	r2, .L9+16
 330 01f4 DA61     		str	r2, [r3, #28]	@ float
 331              		.loc 1 185 0
 332 01f6 264B     		ldr	r3, .L9
 333 01f8 1B68     		ldr	r3, [r3]
 334 01fa 7722     		movs	r2, #119
ARM GAS  /tmp/ccCutVAN.s 			page 7


 335 01fc 83F82920 		strb	r2, [r3, #41]
 336              		.loc 1 186 0
 337 0200 234B     		ldr	r3, .L9
 338 0202 1B68     		ldr	r3, [r3]
 339 0204 7322     		movs	r2, #115
 340 0206 83F82A20 		strb	r2, [r3, #42]
 341              		.loc 1 187 0
 342 020a 214B     		ldr	r3, .L9
 343 020c 1B68     		ldr	r3, [r3]
 344 020e 7522     		movs	r2, #117
 345 0210 83F82B20 		strb	r2, [r3, #43]
 346              		.loc 1 189 0
 347 0214 1E4B     		ldr	r3, .L9
 348 0216 1B68     		ldr	r3, [r3]
 349 0218 7722     		movs	r2, #119
 350 021a 83F82D20 		strb	r2, [r3, #45]
 351              		.loc 1 190 0
 352 021e 1C4B     		ldr	r3, .L9
 353 0220 1B68     		ldr	r3, [r3]
 354 0222 7322     		movs	r2, #115
 355 0224 83F82E20 		strb	r2, [r3, #46]
 356              		.loc 1 191 0
 357 0228 194B     		ldr	r3, .L9
 358 022a 1B68     		ldr	r3, [r3]
 359 022c 7522     		movs	r2, #117
 360 022e 83F82F20 		strb	r2, [r3, #47]
 361              		.loc 1 193 0
 362 0232 174B     		ldr	r3, .L9
 363 0234 1B68     		ldr	r3, [r3]
 364 0236 7322     		movs	r2, #115
 365 0238 83F83120 		strb	r2, [r3, #49]
 366              		.loc 1 194 0
 367 023c 144B     		ldr	r3, .L9
 368 023e 1B68     		ldr	r3, [r3]
 369 0240 7722     		movs	r2, #119
 370 0242 83F83220 		strb	r2, [r3, #50]
 371              		.loc 1 195 0
 372 0246 124B     		ldr	r3, .L9
 373 0248 1B68     		ldr	r3, [r3]
 374 024a 7522     		movs	r2, #117
 375 024c 83F83320 		strb	r2, [r3, #51]
 376              		.loc 1 198 0
 377 0250 0F4B     		ldr	r3, .L9
 378 0252 1B68     		ldr	r3, [r3]
 379 0254 0122     		movs	r2, #1
 380 0256 83F83520 		strb	r2, [r3, #53]
 381              		.loc 1 200 0
 382 025a 0D4B     		ldr	r3, .L9
 383 025c 1B68     		ldr	r3, [r3]
 384 025e 0122     		movs	r2, #1
 385 0260 1A73     		strb	r2, [r3, #12]
 386              		.loc 1 201 0
 387 0262 0B4B     		ldr	r3, .L9
 388 0264 1B68     		ldr	r3, [r3]
 389 0266 0122     		movs	r2, #1
 390 0268 83F82820 		strb	r2, [r3, #40]
 391              		.loc 1 209 0
ARM GAS  /tmp/ccCutVAN.s 			page 8


 392 026c 0D4B     		ldr	r3, .L9+20
 393 026e 0022     		movs	r2, #0
 394 0270 1A60     		str	r2, [r3]
 395              		.loc 1 212 0
 396 0272 0D4B     		ldr	r3, .L9+24
 397 0274 0022     		movs	r2, #0
 398 0276 9A80     		strh	r2, [r3, #4]	@ movhi
 399 0278 0B4B     		ldr	r3, .L9+24
 400 027a 9A88     		ldrh	r2, [r3, #4]
 401 027c 0A4B     		ldr	r3, .L9+24
 402 027e 5A80     		strh	r2, [r3, #2]	@ movhi
 403 0280 094B     		ldr	r3, .L9+24
 404 0282 5A88     		ldrh	r2, [r3, #2]
 405 0284 084B     		ldr	r3, .L9+24
 406 0286 1A80     		strh	r2, [r3]	@ movhi
 407              		.loc 1 214 0
 408 0288 084B     		ldr	r3, .L9+28
 409 028a 0122     		movs	r2, #1
 410 028c 5A63     		str	r2, [r3, #52]
 411              		.loc 1 216 0
 412 028e 7047     		bx	lr
 413              	.L10:
 414              		.align	2
 415              	.L9:
 416 0290 70000000 		.word	ipKnobs
 417 0294 34000000 		.word	iKnobs
 418 0298 488AC83A 		.word	986221128
 419 029c 6F12833B 		.word	998445679
 420 02a0 A69B443B 		.word	994352038
 421 02a4 30000000 		.word	discardedCount
 422 02a8 00000000 		.word	magOffset
 423 02ac 00000000 		.word	TargetBoardFeatures
 424              		.cfi_endproc
 425              	.LFE127:
 426              		.size	MotionFX_manager_init, .-MotionFX_manager_init
 427              		.align	2
 428              		.p2align 4,,15
 429              		.global	MotionFX_manager_start_6X
 430              		.thumb
 431              		.thumb_func
 432              		.type	MotionFX_manager_start_6X, %function
 433              	MotionFX_manager_start_6X:
 434              	.LFB128:
 435              		.loc 1 223 0
 436              		.cfi_startproc
 437              		@ args = 0, pretend = 0, frame = 0
 438              		@ frame_needed = 0, uses_anonymous_args = 0
 439              		@ link register save eliminated.
 440              		.loc 1 225 0
 441 02b0 7047     		bx	lr
 442              		.cfi_endproc
 443              	.LFE128:
 444              		.size	MotionFX_manager_start_6X, .-MotionFX_manager_start_6X
 445 02b2 00BF     		.align	2
 446 02b4 AFF30080 		.p2align 4,,15
 446      AFF30080 
 446      AFF30080 
ARM GAS  /tmp/ccCutVAN.s 			page 9


 447              		.global	MotionFX_manager_stop_6X
 448              		.thumb
 449              		.thumb_func
 450              		.type	MotionFX_manager_stop_6X, %function
 451              	MotionFX_manager_stop_6X:
 452              	.LFB129:
 453              		.loc 1 232 0
 454              		.cfi_startproc
 455              		@ args = 0, pretend = 0, frame = 0
 456              		@ frame_needed = 0, uses_anonymous_args = 0
 457              		@ link register save eliminated.
 458              		.loc 1 234 0
 459 02c0 7047     		bx	lr
 460              		.cfi_endproc
 461              	.LFE129:
 462              		.size	MotionFX_manager_stop_6X, .-MotionFX_manager_stop_6X
 463 02c2 00BF     		.align	2
 464 02c4 AFF30080 		.p2align 4,,15
 464      AFF30080 
 464      AFF30080 
 465              		.global	MotionFX_manager_start_9X
 466              		.thumb
 467              		.thumb_func
 468              		.type	MotionFX_manager_start_9X, %function
 469              	MotionFX_manager_start_9X:
 470              	.LFB130:
 471              		.loc 1 241 0
 472              		.cfi_startproc
 473              		@ args = 0, pretend = 0, frame = 0
 474              		@ frame_needed = 0, uses_anonymous_args = 0
 475              		@ link register save eliminated.
 476              		.loc 1 243 0
 477 02d0 7047     		bx	lr
 478              		.cfi_endproc
 479              	.LFE130:
 480              		.size	MotionFX_manager_start_9X, .-MotionFX_manager_start_9X
 481 02d2 00BF     		.align	2
 482 02d4 AFF30080 		.p2align 4,,15
 482      AFF30080 
 482      AFF30080 
 483              		.global	MotionFX_manager_stop_9X
 484              		.thumb
 485              		.thumb_func
 486              		.type	MotionFX_manager_stop_9X, %function
 487              	MotionFX_manager_stop_9X:
 488              	.LFB131:
 489              		.loc 1 250 0
 490              		.cfi_startproc
 491              		@ args = 0, pretend = 0, frame = 0
 492              		@ frame_needed = 0, uses_anonymous_args = 0
 493              		@ link register save eliminated.
 494              		.loc 1 252 0
 495 02e0 7047     		bx	lr
 496              		.cfi_endproc
 497              	.LFE131:
 498              		.size	MotionFX_manager_stop_9X, .-MotionFX_manager_stop_9X
 499 02e2 00BF     		.align	2
ARM GAS  /tmp/ccCutVAN.s 			page 10


 500 02e4 AFF30080 		.p2align 4,,15
 500      AFF30080 
 500      AFF30080 
 501              		.global	MotionFX_manager_getDataOUT
 502              		.thumb
 503              		.thumb_func
 504              		.type	MotionFX_manager_getDataOUT, %function
 505              	MotionFX_manager_getDataOUT:
 506              	.LFB132:
 507              		.loc 1 260 0
 508              		.cfi_startproc
 509              		@ args = 0, pretend = 0, frame = 0
 510              		@ frame_needed = 0, uses_anonymous_args = 0
 511              		@ link register save eliminated.
 512              		.loc 1 261 0
 513 02f0 014B     		ldr	r3, .L17
 514              		.loc 1 262 0
 515 02f2 1846     		mov	r0, r3
 516 02f4 7047     		bx	lr
 517              	.L18:
 518 02f6 00BF     		.align	2
 519              	.L17:
 520 02f8 00000000 		.word	iDataOUT
 521              		.cfi_endproc
 522              	.LFE132:
 523              		.size	MotionFX_manager_getDataOUT, .-MotionFX_manager_getDataOUT
 524              		.align	2
 525 02fc AFF30080 		.p2align 4,,15
 526              		.global	MotionFX_manager_getDataIN
 527              		.thumb
 528              		.thumb_func
 529              		.type	MotionFX_manager_getDataIN, %function
 530              	MotionFX_manager_getDataIN:
 531              	.LFB133:
 532              		.loc 1 270 0
 533              		.cfi_startproc
 534              		@ args = 0, pretend = 0, frame = 0
 535              		@ frame_needed = 0, uses_anonymous_args = 0
 536              		@ link register save eliminated.
 537              		.loc 1 271 0
 538 0300 014B     		ldr	r3, .L21
 539              		.loc 1 272 0
 540 0302 1846     		mov	r0, r3
 541 0304 7047     		bx	lr
 542              	.L22:
 543 0306 00BF     		.align	2
 544              	.L21:
 545 0308 00000000 		.word	iDataIN
 546              		.cfi_endproc
 547              	.LFE133:
 548              		.size	MotionFX_manager_getDataIN, .-MotionFX_manager_getDataIN
 549              	.Letext0:
 550              		.file 2 "/nfs/nfs5/home/research/hardware/arm2/gcc-arm-embedded/gcc-arm-none-eabi-4_8-2014q2/arm-n
 551              		.file 3 "/nfs/nfs5/home/research/hardware/arm2/gcc-arm-embedded/gcc-arm-none-eabi-4_8-2014q2/arm-n
 552              		.file 4 "../../../../../Drivers/BSP/Components/Common/sensor.h"
 553              		.file 5 "../../../../../Middlewares/ST/STM32_MetaDataManager/MetaDataManager.h"
 554              		.file 6 "../../../../../Middlewares/ST/STM32_OSX_MotionFX_Library/Inc/osx_motion_fx.h"
ARM GAS  /tmp/ccCutVAN.s 			page 11


 555              		.file 7 "../../../../../Projects/Multi/Applications/BlueMicrosystem2/Inc/TargetFeatures.h"
 556              		.file 8 "../../../../../../ChibiOS/os/ext/CMSIS/include/core_cm4.h"
 557              		.file 9 "../../../../../Projects/Multi/Applications/BlueMicrosystem2/Src/../../../../../Middleware