ARM GAS  /tmp/ccuO6JOk.s 			page 1


   1              		.syntax unified
   2              		.cpu cortex-m4
   3              		.fpu softvfp
   4              		.eabi_attribute 20, 1
   5              		.eabi_attribute 21, 1
   6              		.eabi_attribute 23, 3
   7              		.eabi_attribute 24, 1
   8              		.eabi_attribute 25, 1
   9              		.eabi_attribute 26, 1
  10              		.eabi_attribute 30, 6
  11              		.eabi_attribute 34, 1
  12              		.eabi_attribute 18, 4
  13              		.thumb
  14              		.file	"MotionCP_Manager.c"
  15              		.text
  16              	.Ltext0:
  17              		.cfi_sections	.debug_frame
  18              		.global	osx_mcp_license
  19              		.bss
  20              		.align	2
  21              		.type	osx_mcp_license, %object
  22              		.size	osx_mcp_license, 48
  23              	osx_mcp_license:
  24 0000 00000000 		.space	48
  24      00000000 
  24      00000000 
  24      00000000 
  24      00000000 
  25              		.global	CarryPositionCode
  26              		.type	CarryPositionCode, %object
  27              		.size	CarryPositionCode, 1
  28              	CarryPositionCode:
  29 0030 00       		.space	1
  30              		.global	__aeabi_i2f
  31              		.global	__aeabi_fmul
  32 0031 000000   		.text
  33              		.align	2
  34              		.p2align 4,,15
  35              		.global	MotionCP_manager_run
  36              		.thumb
  37              		.thumb_func
  38              		.type	MotionCP_manager_run, %function
  39              	MotionCP_manager_run:
  40              	.LFB125:
  41              		.file 1 "../../../../../Projects/Multi/Applications/BlueMicrosystem2/Src/MotionCP_Manager.c"
  42              		.loc 1 69 0
  43              		.cfi_startproc
  44              		@ args = 0, pretend = 0, frame = 24
  45              		@ frame_needed = 0, uses_anonymous_args = 0
  46 0000 00B5     		push	{lr}
  47              		.cfi_def_cfa_offset 4
  48              		.cfi_offset 14, -4
  49 0002 87B0     		sub	sp, sp, #28
  50              		.cfi_def_cfa_offset 32
  51 0004 6B46     		mov	r3, sp
  52 0006 83E80300 		stmia	r3, {r0, r1}
  53              		.loc 1 72 0
ARM GAS  /tmp/ccuO6JOk.s 			page 2


  54 000a BDF80030 		ldrh	r3, [sp]
  55 000e 1BB2     		sxth	r3, r3
  56 0010 1846     		mov	r0, r3
  57 0012 FFF7FEFF 		bl	__aeabi_i2f
  58 0016 0246     		mov	r2, r0
  59 0018 144B     		ldr	r3, .L2
  60 001a 1B68     		ldr	r3, [r3]	@ float
  61 001c 1046     		mov	r0, r2
  62 001e 1946     		mov	r1, r3
  63 0020 FFF7FEFF 		bl	__aeabi_fmul
  64 0024 0346     		mov	r3, r0
  65 0026 0393     		str	r3, [sp, #12]	@ float
  66              		.loc 1 73 0
  67 0028 BDF80230 		ldrh	r3, [sp, #2]
  68 002c 1BB2     		sxth	r3, r3
  69 002e 1846     		mov	r0, r3
  70 0030 FFF7FEFF 		bl	__aeabi_i2f
  71 0034 0246     		mov	r2, r0
  72 0036 0D4B     		ldr	r3, .L2
  73 0038 1B68     		ldr	r3, [r3]	@ float
  74 003a 1046     		mov	r0, r2
  75 003c 1946     		mov	r1, r3
  76 003e FFF7FEFF 		bl	__aeabi_fmul
  77 0042 0346     		mov	r3, r0
  78 0044 0493     		str	r3, [sp, #16]	@ float
  79              		.loc 1 74 0
  80 0046 BDF80430 		ldrh	r3, [sp, #4]
  81 004a 1BB2     		sxth	r3, r3
  82 004c 1846     		mov	r0, r3
  83 004e FFF7FEFF 		bl	__aeabi_i2f
  84 0052 0246     		mov	r2, r0
  85 0054 054B     		ldr	r3, .L2
  86 0056 1B68     		ldr	r3, [r3]	@ float
  87 0058 1046     		mov	r0, r2
  88 005a 1946     		mov	r1, r3
  89 005c FFF7FEFF 		bl	__aeabi_fmul
  90 0060 0346     		mov	r3, r0
  91 0062 0593     		str	r3, [sp, #20]	@ float
  92              		.loc 1 77 0
  93 0064 07B0     		add	sp, sp, #28
  94              		@ sp needed
  95 0066 5DF804FB 		ldr	pc, [sp], #4
  96              	.L3:
  97 006a 00BF     		.align	2
  98              	.L2:
  99 006c 00000000 		.word	sensitivity_Mul
 100              		.cfi_endproc
 101              	.LFE125:
 102              		.size	MotionCP_manager_run, .-MotionCP_manager_run
 103              		.align	2
 104              		.p2align 4,,15
 105              		.global	MotionCP_License_init
 106              		.thumb
 107              		.thumb_func
 108              		.type	MotionCP_License_init, %function
 109              	MotionCP_License_init:
 110              	.LFB126:
ARM GAS  /tmp/ccuO6JOk.s 			page 3


 111              		.loc 1 85 0
 112              		.cfi_startproc
 113              		@ args = 0, pretend = 0, frame = 8
 114              		@ frame_needed = 0, uses_anonymous_args = 0
 115 0070 00B5     		push	{lr}
 116              		.cfi_def_cfa_offset 4
 117              		.cfi_offset 14, -4
 118 0072 83B0     		sub	sp, sp, #12
 119              		.cfi_def_cfa_offset 16
 120 0074 0190     		str	r0, [sp, #4]
 121              		.loc 1 86 0
 122 0076 019B     		ldr	r3, [sp, #4]
 123 0078 2C33     		adds	r3, r3, #44
 124 007a 1846     		mov	r0, r3
 125 007c 0349     		ldr	r1, .L5
 126 007e 3022     		movs	r2, #48
 127 0080 FFF7FEFF 		bl	memcpy
 128              		.loc 1 101 0
 129 0084 03B0     		add	sp, sp, #12
 130              		@ sp needed
 131 0086 5DF804FB 		ldr	pc, [sp], #4
 132              	.L6:
 133 008a 00BF     		.align	2
 134              	.L5:
 135 008c 00000000 		.word	osx_mcp_license
 136              		.cfi_endproc
 137              	.LFE126:
 138              		.size	MotionCP_License_init, .-MotionCP_License_init
 139              		.align	2
 140              		.p2align 4,,15
 141              		.global	MotionCP_manager_init
 142              		.thumb
 143              		.thumb_func
 144              		.type	MotionCP_manager_init, %function
 145              	MotionCP_manager_init:
 146              	.LFB127:
 147              		.loc 1 109 0
 148              		.cfi_startproc
 149              		@ args = 0, pretend = 0, frame = 8
 150              		@ frame_needed = 0, uses_anonymous_args = 0
 151              		@ link register save eliminated.
 152 0090 82B0     		sub	sp, sp, #8
 153              		.cfi_def_cfa_offset 8
 154              		.loc 1 129 0
 155 0092 7723     		movs	r3, #119
 156 0094 8DF80430 		strb	r3, [sp, #4]
 157              		.loc 1 130 0
 158 0098 7323     		movs	r3, #115
 159 009a 8DF80530 		strb	r3, [sp, #5]
 160              		.loc 1 131 0
 161 009e 7523     		movs	r3, #117
 162 00a0 8DF80630 		strb	r3, [sp, #6]
 163              		.loc 1 136 0
 164 00a4 024B     		ldr	r3, .L8
 165 00a6 0122     		movs	r2, #1
 166 00a8 DA63     		str	r2, [r3, #60]
 167              		.loc 1 138 0
ARM GAS  /tmp/ccuO6JOk.s 			page 4


 168 00aa 02B0     		add	sp, sp, #8
 169              		@ sp needed
 170 00ac 7047     		bx	lr
 171              	.L9:
 172 00ae 00BF     		.align	2
 173              	.L8:
 174 00b0 00000000 		.word	TargetBoardFeatures
 175              		.cfi_endproc
 176              	.LFE127:
 177              		.size	MotionCP_manager_init, .-MotionCP_manager_init
 178              	.Letext0:
 179              		.file 2 "/nfs/nfs5/home/research/hardware/arm2/gcc-arm-embedded/gcc-arm-none-eabi-4_8-2014q2/arm-n
 180              		.file 3 "/nfs/nfs5/home/research/hardware/arm2/gcc-arm-embedded/gcc-arm-none-eabi-4_8-2014q2/arm-n
 181              		.file 4 "../../../../../Drivers/BSP/Components/Common/sensor.h"
 182              		.file 5 "../../../../../Middlewares/ST/STM32_MetaDataManager/MetaDataManager.h"
 183              		.file 6 "../../../../../Middlewares/ST/STM32_OSX_MotionCP_Library/Inc/osx_motion_cp.h"
 184              		.file 7 "../../../../../Projects/Multi/Applications/BlueMicrosystem2/Inc/TargetFeatures.h"
 185              		.file 8 "../../../../../../ChibiOS/os/ext/CMSIS/include/core_cm4.h"
 186              		.file 9 "../../../../../Projects/Multi/Applications/BlueMicrosystem2/Src/../../../../../Middleware