ARM GAS  /tmp/ccGaTsLX.s 			page 1


   1              		.syntax unified
   2              		.cpu cortex-m4
   3              		.fpu softvfp
   4              		.eabi_attribute 20, 1
   5              		.eabi_attribute 21, 1
   6              		.eabi_attribute 23, 3
   7              		.eabi_attribute 24, 1
   8              		.eabi_attribute 25, 1
   9              		.eabi_attribute 26, 1
  10              		.eabi_attribute 30, 6
  11              		.eabi_attribute 34, 1
  12              		.eabi_attribute 18, 4
  13              		.thumb
  14              		.file	"pal_lld.c"
  15              		.text
  16              	.Ltext0:
  17              		.cfi_sections	.debug_frame
  18              		.align	2
  19              		.p2align 4,,15
  20              		.thumb
  21              		.thumb_func
  22              		.type	initgpio, %function
  23              	initgpio:
  24              	.LFB269:
  25              		.file 1 "../../../../../../ChibiOS/os/hal/ports/STM32/LLD/GPIOv3/pal_lld.c"
  26              		.loc 1 53 0
  27              		.cfi_startproc
  28              		@ args = 0, pretend = 0, frame = 8
  29              		@ frame_needed = 0, uses_anonymous_args = 0
  30              		@ link register save eliminated.
  31 0000 82B0     		sub	sp, sp, #8
  32              		.cfi_def_cfa_offset 8
  33 0002 0190     		str	r0, [sp, #4]
  34 0004 0091     		str	r1, [sp]
  35              		.loc 1 55 0
  36 0006 009B     		ldr	r3, [sp]
  37 0008 5A68     		ldr	r2, [r3, #4]
  38 000a 019B     		ldr	r3, [sp, #4]
  39 000c 5A60     		str	r2, [r3, #4]
  40              		.loc 1 56 0
  41 000e 009B     		ldr	r3, [sp]
  42 0010 DA69     		ldr	r2, [r3, #28]
  43 0012 019B     		ldr	r3, [sp, #4]
  44 0014 DA62     		str	r2, [r3, #44]
  45              		.loc 1 57 0
  46 0016 009B     		ldr	r3, [sp]
  47 0018 9A68     		ldr	r2, [r3, #8]
  48 001a 019B     		ldr	r3, [sp, #4]
  49 001c 9A60     		str	r2, [r3, #8]
  50              		.loc 1 58 0
  51 001e 009B     		ldr	r3, [sp]
  52 0020 DA68     		ldr	r2, [r3, #12]
  53 0022 019B     		ldr	r3, [sp, #4]
  54 0024 DA60     		str	r2, [r3, #12]
  55              		.loc 1 59 0
  56 0026 009B     		ldr	r3, [sp]
  57 0028 1A69     		ldr	r2, [r3, #16]
ARM GAS  /tmp/ccGaTsLX.s 			page 2


  58 002a 019B     		ldr	r3, [sp, #4]
  59 002c 5A61     		str	r2, [r3, #20]
  60              		.loc 1 60 0
  61 002e 009B     		ldr	r3, [sp]
  62 0030 5A69     		ldr	r2, [r3, #20]
  63 0032 019B     		ldr	r3, [sp, #4]
  64 0034 1A62     		str	r2, [r3, #32]
  65              		.loc 1 61 0
  66 0036 009B     		ldr	r3, [sp]
  67 0038 9A69     		ldr	r2, [r3, #24]
  68 003a 019B     		ldr	r3, [sp, #4]
  69 003c 5A62     		str	r2, [r3, #36]
  70              		.loc 1 62 0
  71 003e 009B     		ldr	r3, [sp]
  72 0040 1A68     		ldr	r2, [r3]
  73 0042 019B     		ldr	r3, [sp, #4]
  74 0044 1A60     		str	r2, [r3]
  75              		.loc 1 63 0
  76 0046 009B     		ldr	r3, [sp]
  77 0048 1A6A     		ldr	r2, [r3, #32]
  78 004a 019B     		ldr	r3, [sp, #4]
  79 004c DA61     		str	r2, [r3, #28]
  80              		.loc 1 64 0
  81 004e 02B0     		add	sp, sp, #8
  82              		@ sp needed
  83 0050 7047     		bx	lr
  84              		.cfi_endproc
  85              	.LFE269:
  86              		.size	initgpio, .-initgpio
  87 0052 00BF     		.align	2
  88 0054 AFF30080 		.p2align 4,,15
  88      AFF30080 
  88      AFF30080 
  89              		.global	_pal_lld_init
  90              		.thumb
  91              		.thumb_func
  92              		.type	_pal_lld_init, %function
  93              	_pal_lld_init:
  94              	.LFB270:
  95              		.loc 1 82 0
  96              		.cfi_startproc
  97              		@ args = 0, pretend = 0, frame = 8
  98              		@ frame_needed = 0, uses_anonymous_args = 0
  99 0060 00B5     		push	{lr}
 100              		.cfi_def_cfa_offset 4
 101              		.cfi_offset 14, -4
 102 0062 83B0     		sub	sp, sp, #12
 103              		.cfi_def_cfa_offset 16
 104 0064 0190     		str	r0, [sp, #4]
 105              		.loc 1 88 0
 106 0066 1C4B     		ldr	r3, .L3
 107 0068 1B4A     		ldr	r2, .L3
 108 006a D26C     		ldr	r2, [r2, #76]
 109 006c 42F0FF02 		orr	r2, r2, #255
 110 0070 DA64     		str	r2, [r3, #76]
 111              		.loc 1 95 0
 112 0072 019B     		ldr	r3, [sp, #4]
ARM GAS  /tmp/ccGaTsLX.s 			page 3


 113 0074 4FF09040 		mov	r0, #1207959552
 114 0078 1946     		mov	r1, r3
 115 007a FFF7C1FF 		bl	initgpio
 116              		.loc 1 98 0
 117 007e 019B     		ldr	r3, [sp, #4]
 118 0080 2433     		adds	r3, r3, #36
 119 0082 1648     		ldr	r0, .L3+4
 120 0084 1946     		mov	r1, r3
 121 0086 FFF7BBFF 		bl	initgpio
 122              		.loc 1 101 0
 123 008a 019B     		ldr	r3, [sp, #4]
 124 008c 4833     		adds	r3, r3, #72
 125 008e 1448     		ldr	r0, .L3+8
 126 0090 1946     		mov	r1, r3
 127 0092 FFF7B5FF 		bl	initgpio
 128              		.loc 1 104 0
 129 0096 019B     		ldr	r3, [sp, #4]
 130 0098 6C33     		adds	r3, r3, #108
 131 009a 1248     		ldr	r0, .L3+12
 132 009c 1946     		mov	r1, r3
 133 009e FFF7AFFF 		bl	initgpio
 134              		.loc 1 107 0
 135 00a2 019B     		ldr	r3, [sp, #4]
 136 00a4 9033     		adds	r3, r3, #144
 137 00a6 1048     		ldr	r0, .L3+16
 138 00a8 1946     		mov	r1, r3
 139 00aa FFF7A9FF 		bl	initgpio
 140              		.loc 1 110 0
 141 00ae 019B     		ldr	r3, [sp, #4]
 142 00b0 B433     		adds	r3, r3, #180
 143 00b2 0E48     		ldr	r0, .L3+20
 144 00b4 1946     		mov	r1, r3
 145 00b6 FFF7A3FF 		bl	initgpio
 146              		.loc 1 113 0
 147 00ba 019B     		ldr	r3, [sp, #4]
 148 00bc D833     		adds	r3, r3, #216
 149 00be 0C48     		ldr	r0, .L3+24
 150 00c0 1946     		mov	r1, r3
 151 00c2 FFF79DFF 		bl	initgpio
 152              		.loc 1 116 0
 153 00c6 019B     		ldr	r3, [sp, #4]
 154 00c8 FC33     		adds	r3, r3, #252
 155 00ca 0A48     		ldr	r0, .L3+28
 156 00cc 1946     		mov	r1, r3
 157 00ce FFF797FF 		bl	initgpio
 158              		.loc 1 127 0
 159 00d2 03B0     		add	sp, sp, #12
 160              		@ sp needed
 161 00d4 5DF804FB 		ldr	pc, [sp], #4
 162              	.L4:
 163              		.align	2
 164              	.L3:
 165 00d8 00100240 		.word	1073876992
 166 00dc 00040048 		.word	1207960576
 167 00e0 00080048 		.word	1207961600
 168 00e4 000C0048 		.word	1207962624
 169 00e8 00100048 		.word	1207963648
ARM GAS  /tmp/ccGaTsLX.s 			page 4


 170 00ec 00140048 		.word	1207964672
 171 00f0 00180048 		.word	1207965696
 172 00f4 001C0048 		.word	1207966720
 173              		.cfi_endproc
 174              	.LFE270:
 175              		.size	_pal_lld_init, .-_pal_lld_init
 176              		.align	2
 177 00f8 AFF30080 		.p2align 4,,15
 177      AFF30080 
 178              		.global	_pal_lld_setgroupmode
 179              		.thumb
 180              		.thumb_func
 181              		.type	_pal_lld_setgroupmode, %function
 182              	_pal_lld_setgroupmode:
 183              	.LFB271:
 184              		.loc 1 144 0
 185              		.cfi_startproc
 186              		@ args = 0, pretend = 0, frame = 64
 187              		@ frame_needed = 0, uses_anonymous_args = 0
 188              		@ link register save eliminated.
 189 0100 90B0     		sub	sp, sp, #64
 190              		.cfi_def_cfa_offset 64
 191 0102 0390     		str	r0, [sp, #12]
 192 0104 0291     		str	r1, [sp, #8]
 193 0106 0192     		str	r2, [sp, #4]
 194              		.loc 1 146 0
 195 0108 019B     		ldr	r3, [sp, #4]
 196 010a 03F00303 		and	r3, r3, #3
 197 010e 0F93     		str	r3, [sp, #60]
 198              		.loc 1 147 0
 199 0110 019B     		ldr	r3, [sp, #4]
 200 0112 03F00403 		and	r3, r3, #4
 201 0116 9B08     		lsrs	r3, r3, #2
 202 0118 0E93     		str	r3, [sp, #56]
 203              		.loc 1 148 0
 204 011a 019B     		ldr	r3, [sp, #4]
 205 011c 03F01803 		and	r3, r3, #24
 206 0120 DB08     		lsrs	r3, r3, #3
 207 0122 0D93     		str	r3, [sp, #52]
 208              		.loc 1 149 0
 209 0124 019B     		ldr	r3, [sp, #4]
 210 0126 03F06003 		and	r3, r3, #96
 211 012a 5B09     		lsrs	r3, r3, #5
 212 012c 0C93     		str	r3, [sp, #48]
 213              		.loc 1 150 0
 214 012e 019B     		ldr	r3, [sp, #4]
 215 0130 03F4F063 		and	r3, r3, #1920
 216 0134 DB09     		lsrs	r3, r3, #7
 217 0136 0A93     		str	r3, [sp, #40]
 218              		.loc 1 151 0
 219 0138 019B     		ldr	r3, [sp, #4]
 220 013a 03F40063 		and	r3, r3, #2048
 221 013e DB0A     		lsrs	r3, r3, #11
 222 0140 0993     		str	r3, [sp, #36]
 223              		.loc 1 152 0
 224 0142 019B     		ldr	r3, [sp, #4]
 225 0144 03F48053 		and	r3, r3, #4096
ARM GAS  /tmp/ccGaTsLX.s 			page 5


 226 0148 1B0B     		lsrs	r3, r3, #12
 227 014a 0893     		str	r3, [sp, #32]
 228              		.loc 1 153 0
 229 014c 0023     		movs	r3, #0
 230 014e 0B93     		str	r3, [sp, #44]
 231              	.L14:
 232              		.loc 1 155 0
 233 0150 029B     		ldr	r3, [sp, #8]
 234 0152 03F00103 		and	r3, r3, #1
 235 0156 002B     		cmp	r3, #0
 236 0158 00F08A80 		beq	.L6
 237              	.LBB2:
 238              		.loc 1 158 0
 239 015c 0B9B     		ldr	r3, [sp, #44]
 240 015e 03F00703 		and	r3, r3, #7
 241 0162 9B00     		lsls	r3, r3, #2
 242 0164 0A9A     		ldr	r2, [sp, #40]
 243 0166 02FA03F3 		lsl	r3, r2, r3
 244 016a 0793     		str	r3, [sp, #28]
 245              		.loc 1 159 0
 246 016c 0B9B     		ldr	r3, [sp, #44]
 247 016e 0122     		movs	r2, #1
 248 0170 02FA03F3 		lsl	r3, r2, r3
 249 0174 0693     		str	r3, [sp, #24]
 250              		.loc 1 160 0
 251 0176 0B9B     		ldr	r3, [sp, #44]
 252 0178 5B00     		lsls	r3, r3, #1
 253 017a 0322     		movs	r2, #3
 254 017c 02FA03F3 		lsl	r3, r2, r3
 255 0180 0593     		str	r3, [sp, #20]
 256              		.loc 1 161 0
 257 0182 0B9B     		ldr	r3, [sp, #44]
 258 0184 03F00703 		and	r3, r3, #7
 259 0188 9B00     		lsls	r3, r3, #2
 260 018a 0F22     		movs	r2, #15
 261 018c 02FA03F3 		lsl	r3, r2, r3
 262 0190 0493     		str	r3, [sp, #16]
 263              		.loc 1 162 0
 264 0192 039B     		ldr	r3, [sp, #12]
 265 0194 5A68     		ldr	r2, [r3, #4]
 266 0196 069B     		ldr	r3, [sp, #24]
 267 0198 DB43     		mvns	r3, r3
 268 019a 1A40     		ands	r2, r2, r3
 269 019c 0E9B     		ldr	r3, [sp, #56]
 270 019e 1A43     		orrs	r2, r2, r3
 271 01a0 039B     		ldr	r3, [sp, #12]
 272 01a2 5A60     		str	r2, [r3, #4]
 273              		.loc 1 163 0
 274 01a4 039B     		ldr	r3, [sp, #12]
 275 01a6 DA6A     		ldr	r2, [r3, #44]
 276 01a8 069B     		ldr	r3, [sp, #24]
 277 01aa DB43     		mvns	r3, r3
 278 01ac 1A40     		ands	r2, r2, r3
 279 01ae 099B     		ldr	r3, [sp, #36]
 280 01b0 1A43     		orrs	r2, r2, r3
 281 01b2 039B     		ldr	r3, [sp, #12]
 282 01b4 DA62     		str	r2, [r3, #44]
ARM GAS  /tmp/ccGaTsLX.s 			page 6


 283              		.loc 1 164 0
 284 01b6 039B     		ldr	r3, [sp, #12]
 285 01b8 9A68     		ldr	r2, [r3, #8]
 286 01ba 059B     		ldr	r3, [sp, #20]
 287 01bc DB43     		mvns	r3, r3
 288 01be 1A40     		ands	r2, r2, r3
 289 01c0 0D9B     		ldr	r3, [sp, #52]
 290 01c2 1A43     		orrs	r2, r2, r3
 291 01c4 039B     		ldr	r3, [sp, #12]
 292 01c6 9A60     		str	r2, [r3, #8]
 293              		.loc 1 165 0
 294 01c8 039B     		ldr	r3, [sp, #12]
 295 01ca DA68     		ldr	r2, [r3, #12]
 296 01cc 059B     		ldr	r3, [sp, #20]
 297 01ce DB43     		mvns	r3, r3
 298 01d0 1A40     		ands	r2, r2, r3
 299 01d2 0C9B     		ldr	r3, [sp, #48]
 300 01d4 1A43     		orrs	r2, r2, r3
 301 01d6 039B     		ldr	r3, [sp, #12]
 302 01d8 DA60     		str	r2, [r3, #12]
 303              		.loc 1 166 0
 304 01da 0F9B     		ldr	r3, [sp, #60]
 305 01dc 022B     		cmp	r3, #2
 306 01de 1FD1     		bne	.L7
 307              		.loc 1 169 0
 308 01e0 0B9B     		ldr	r3, [sp, #44]
 309 01e2 072B     		cmp	r3, #7
 310 01e4 09D8     		bhi	.L8
 311              		.loc 1 170 0
 312 01e6 039B     		ldr	r3, [sp, #12]
 313 01e8 1A6A     		ldr	r2, [r3, #32]
 314 01ea 049B     		ldr	r3, [sp, #16]
 315 01ec DB43     		mvns	r3, r3
 316 01ee 1A40     		ands	r2, r2, r3
 317 01f0 079B     		ldr	r3, [sp, #28]
 318 01f2 1A43     		orrs	r2, r2, r3
 319 01f4 039B     		ldr	r3, [sp, #12]
 320 01f6 1A62     		str	r2, [r3, #32]
 321 01f8 08E0     		b	.L9
 322              	.L8:
 323              		.loc 1 172 0
 324 01fa 039B     		ldr	r3, [sp, #12]
 325 01fc 5A6A     		ldr	r2, [r3, #36]
 326 01fe 049B     		ldr	r3, [sp, #16]
 327 0200 DB43     		mvns	r3, r3
 328 0202 1A40     		ands	r2, r2, r3
 329 0204 079B     		ldr	r3, [sp, #28]
 330 0206 1A43     		orrs	r2, r2, r3
 331 0208 039B     		ldr	r3, [sp, #12]
 332 020a 5A62     		str	r2, [r3, #36]
 333              	.L9:
 334              		.loc 1 173 0 discriminator 1
 335 020c 039B     		ldr	r3, [sp, #12]
 336 020e 1A68     		ldr	r2, [r3]
 337 0210 059B     		ldr	r3, [sp, #20]
 338 0212 DB43     		mvns	r3, r3
 339 0214 1A40     		ands	r2, r2, r3
ARM GAS  /tmp/ccGaTsLX.s 			page 7


 340 0216 0F9B     		ldr	r3, [sp, #60]
 341 0218 1A43     		orrs	r2, r2, r3
 342 021a 039B     		ldr	r3, [sp, #12]
 343 021c 1A60     		str	r2, [r3]
 344 021e 1EE0     		b	.L10
 345              	.L7:
 346              		.loc 1 178 0
 347 0220 039B     		ldr	r3, [sp, #12]
 348 0222 1A68     		ldr	r2, [r3]
 349 0224 059B     		ldr	r3, [sp, #20]
 350 0226 DB43     		mvns	r3, r3
 351 0228 1A40     		ands	r2, r2, r3
 352 022a 0F9B     		ldr	r3, [sp, #60]
 353 022c 1A43     		orrs	r2, r2, r3
 354 022e 039B     		ldr	r3, [sp, #12]
 355 0230 1A60     		str	r2, [r3]
 356              		.loc 1 179 0
 357 0232 0B9B     		ldr	r3, [sp, #44]
 358 0234 072B     		cmp	r3, #7
 359 0236 09D8     		bhi	.L11
 360              		.loc 1 180 0
 361 0238 039B     		ldr	r3, [sp, #12]
 362 023a 1A6A     		ldr	r2, [r3, #32]
 363 023c 049B     		ldr	r3, [sp, #16]
 364 023e DB43     		mvns	r3, r3
 365 0240 1A40     		ands	r2, r2, r3
 366 0242 079B     		ldr	r3, [sp, #28]
 367 0244 1A43     		orrs	r2, r2, r3
 368 0246 039B     		ldr	r3, [sp, #12]
 369 0248 1A62     		str	r2, [r3, #32]
 370 024a 08E0     		b	.L10
 371              	.L11:
 372              		.loc 1 182 0
 373 024c 039B     		ldr	r3, [sp, #12]
 374 024e 5A6A     		ldr	r2, [r3, #36]
 375 0250 049B     		ldr	r3, [sp, #16]
 376 0252 DB43     		mvns	r3, r3
 377 0254 1A40     		ands	r2, r2, r3
 378 0256 079B     		ldr	r3, [sp, #28]
 379 0258 1A43     		orrs	r2, r2, r3
 380 025a 039B     		ldr	r3, [sp, #12]
 381 025c 5A62     		str	r2, [r3, #36]
 382              	.L10:
 383              		.loc 1 184 0
 384 025e 039B     		ldr	r3, [sp, #12]
 385 0260 DA69     		ldr	r2, [r3, #28]
 386 0262 069B     		ldr	r3, [sp, #24]
 387 0264 DB43     		mvns	r3, r3
 388 0266 1A40     		ands	r2, r2, r3
 389 0268 089B     		ldr	r3, [sp, #32]
 390 026a 1A43     		orrs	r2, r2, r3
 391 026c 039B     		ldr	r3, [sp, #12]
 392 026e DA61     		str	r2, [r3, #28]
 393              	.L6:
 394              	.LBE2:
 395              		.loc 1 186 0
 396 0270 029B     		ldr	r3, [sp, #8]
ARM GAS  /tmp/ccGaTsLX.s 			page 8


 397 0272 5B08     		lsrs	r3, r3, #1
 398 0274 0293     		str	r3, [sp, #8]
 399              		.loc 1 187 0
 400 0276 029B     		ldr	r3, [sp, #8]
 401 0278 002B     		cmp	r3, #0
 402 027a 00D1     		bne	.L12
 403              		.loc 1 188 0
 404 027c 0FE0     		b	.L15
 405              	.L12:
 406              		.loc 1 189 0
 407 027e 0E9B     		ldr	r3, [sp, #56]
 408 0280 5B00     		lsls	r3, r3, #1
 409 0282 0E93     		str	r3, [sp, #56]
 410              		.loc 1 190 0
 411 0284 0D9B     		ldr	r3, [sp, #52]
 412 0286 9B00     		lsls	r3, r3, #2
 413 0288 0D93     		str	r3, [sp, #52]
 414              		.loc 1 191 0
 415 028a 0C9B     		ldr	r3, [sp, #48]
 416 028c 9B00     		lsls	r3, r3, #2
 417 028e 0C93     		str	r3, [sp, #48]
 418              		.loc 1 192 0
 419 0290 0F9B     		ldr	r3, [sp, #60]
 420 0292 9B00     		lsls	r3, r3, #2
 421 0294 0F93     		str	r3, [sp, #60]
 422              		.loc 1 193 0
 423 0296 0B9B     		ldr	r3, [sp, #44]
 424 0298 0133     		adds	r3, r3, #1
 425 029a 0B93     		str	r3, [sp, #44]
 426              		.loc 1 194 0
 427 029c 58E7     		b	.L14
 428              	.L15:
 429              		.loc 1 195 0
 430 029e 10B0     		add	sp, sp, #64
 431              		@ sp needed
 432 02a0 7047     		bx	lr
 433              		.cfi_endproc
 434              	.LFE271:
 435              		.size	_pal_lld_setgroupmode, .-_pal_lld_setgroupmode
 436              	.Letext0:
 437              		.file 2 "/nfs/nfs5/home/research/hardware/arm2/gcc-arm-embedded/gcc-arm-none-eabi-4_8-2014q2/arm-n
 438              		.file 3 "/nfs/nfs5/home/research/hardware/arm2/gcc-arm-embedded/gcc-arm-none-eabi-4_8-2014q2/arm-n
 439              		.file 4 "../../../../../../ChibiOS/os/rt/ports/ARMCMx/compilers/GCC/chtypes.h"
 440              		.file 5 "../../../../../../ChibiOS/os/rt/include/chsystypes.h"
 441              		.file 6 "../../../../../../ChibiOS/os/rt/include/chschd.h"
 442              		.file 7 "../../../../../../ChibiOS/os/ext/CMSIS/ST/STM32L4xx/stm32l476xx.h"
 443              		.file 8 "../../../../../../ChibiOS/os/rt/ports/ARMCMx/chcore.h"
 444              		.file 9 "../../../../../../ChibiOS/os/rt/ports/ARMCMx/chcore_v7m.h"
 445              		.file 10 "../../../../../../ChibiOS/os/rt/include/chtm.h"
 446              		.file 11 "../../../../../../ChibiOS/os/rt/include/chsem.h"
 447              		.file 12 "../../../../../../ChibiOS/os/rt/include/chmtx.h"
 448              		.file 13 "../../../../../../ChibiOS/os/hal/ports/STM32/LLD/GPIOv3/pal_lld.h"
 449              		.file 14 "../../../../../../ChibiOS/os/ext/CMSIS/include/core_cm4.h"