ARM GAS  /tmp/cc602Zqo.s 			page 1


   1              		.syntax unified
   2              		.cpu cortex-m4
   3              		.fpu softvfp
   4              		.eabi_attribute 20, 1
   5              		.eabi_attribute 21, 1
   6              		.eabi_attribute 23, 3
   7              		.eabi_attribute 24, 1
   8              		.eabi_attribute 25, 1
   9              		.eabi_attribute 26, 1
  10              		.eabi_attribute 30, 6
  11              		.eabi_attribute 34, 1
  12              		.eabi_attribute 18, 4
  13              		.thumb
  14              		.file	"SensorTile.c"
  15              		.text
  16              	.Ltext0:
  17              		.cfi_sections	.debug_frame
  18              		.data
  19              		.align	2
  20              		.type	I2C_SENSORTILE_Timeout, %object
  21              		.size	I2C_SENSORTILE_Timeout, 4
  22              	I2C_SENSORTILE_Timeout:
  23 0000 00100000 		.word	4096
  24              		.bss
  25              		.align	2
  26              	I2C_SENSORTILE_Handle:
  27 0000 00000000 		.space	76
  27      00000000 
  27      00000000 
  27      00000000 
  27      00000000 
  28              		.align	2
  29              	SPI_Sensor_Handle:
  30 004c 00000000 		.space	100
  30      00000000 
  30      00000000 
  30      00000000 
  30      00000000 
  31              		.align	2
  32              	SPI_SD_Handle:
  33 00b0 00000000 		.space	100
  33      00000000 
  33      00000000 
  33      00000000 
  33      00000000 
  34              		.global	GPIO_PORT
  35              		.data
  36              		.align	2
  37              		.type	GPIO_PORT, %object
  38              		.size	GPIO_PORT, 8
  39              	GPIO_PORT:
  40 0004 00180048 		.word	1207965696
  41 0008 00000048 		.word	1207959552
  42              		.global	GPIO_PIN
  43              		.section	.rodata
  44              		.align	2
  45              		.type	GPIO_PIN, %object
ARM GAS  /tmp/cc602Zqo.s 			page 2


  46              		.size	GPIO_PIN, 8
  47              	GPIO_PIN:
  48 0000 00100000 		.word	4096
  49 0004 00400000 		.word	16384
  50              		.global	SpixTimeout
  51              		.data
  52              		.align	2
  53              		.type	SpixTimeout, %object
  54              		.size	SpixTimeout, 4
  55              	SpixTimeout:
  56 000c E8030000 		.word	1000
  57              		.text
  58              		.align	2
  59              		.p2align 4,,15
  60              		.global	BSP_GetVersion
  61              		.thumb
  62              		.thumb_func
  63              		.type	BSP_GetVersion, %function
  64              	BSP_GetVersion:
  65              	.LFB125:
  66              		.file 1 "../../../../../Drivers/BSP/SensorTile/SensorTile.c"
  67              		.loc 1 153 0
  68              		.cfi_startproc
  69              		@ args = 0, pretend = 0, frame = 0
  70              		@ frame_needed = 0, uses_anonymous_args = 0
  71              		@ link register save eliminated.
  72              		.loc 1 154 0
  73 0000 4FF08073 		mov	r3, #16777216
  74              		.loc 1 155 0
  75 0004 1846     		mov	r0, r3
  76 0006 7047     		bx	lr
  77              		.cfi_endproc
  78              	.LFE125:
  79              		.size	BSP_GetVersion, .-BSP_GetVersion
  80              		.align	2
  81 0008 AFF30080 		.p2align 4,,15
  81      AFF30080 
  82              		.global	BSP_LED_Init
  83              		.thumb
  84              		.thumb_func
  85              		.type	BSP_LED_Init, %function
  86              	BSP_LED_Init:
  87              	.LFB126:
  88              		.loc 1 166 0
  89              		.cfi_startproc
  90              		@ args = 0, pretend = 0, frame = 40
  91              		@ frame_needed = 0, uses_anonymous_args = 0
  92 0010 00B5     		push	{lr}
  93              		.cfi_def_cfa_offset 4
  94              		.cfi_offset 14, -4
  95 0012 8BB0     		sub	sp, sp, #44
  96              		.cfi_def_cfa_offset 48
  97 0014 0346     		mov	r3, r0
  98 0016 8DF80730 		strb	r3, [sp, #7]
  99              	.LBB6:
 100              		.loc 1 170 0
 101 001a 234B     		ldr	r3, .L6
ARM GAS  /tmp/cc602Zqo.s 			page 3


 102 001c 224A     		ldr	r2, .L6
 103 001e 926D     		ldr	r2, [r2, #88]
 104 0020 42F08052 		orr	r2, r2, #268435456
 105 0024 9A65     		str	r2, [r3, #88]
 106 0026 204B     		ldr	r3, .L6
 107 0028 9B6D     		ldr	r3, [r3, #88]
 108 002a 03F08053 		and	r3, r3, #268435456
 109 002e 0493     		str	r3, [sp, #16]
 110 0030 049B     		ldr	r3, [sp, #16]
 111              	.LBE6:
 112              		.loc 1 171 0
 113 0032 FFF7FEFF 		bl	HAL_PWREx_EnableVddIO2
 114              		.loc 1 174 0
 115 0036 9DF80730 		ldrb	r3, [sp, #7]	@ zero_extendqisi2
 116 003a 002B     		cmp	r3, #0
 117 003c 0BD1     		bne	.L4
 118              	.LBB7:
 119              		.loc 1 174 0 is_stmt 0 discriminator 1
 120 003e 1A4B     		ldr	r3, .L6
 121 0040 194A     		ldr	r2, .L6
 122 0042 D26C     		ldr	r2, [r2, #76]
 123 0044 42F04002 		orr	r2, r2, #64
 124 0048 DA64     		str	r2, [r3, #76]
 125 004a 174B     		ldr	r3, .L6
 126 004c DB6C     		ldr	r3, [r3, #76]
 127 004e 03F04003 		and	r3, r3, #64
 128 0052 0393     		str	r3, [sp, #12]
 129 0054 039B     		ldr	r3, [sp, #12]
 130              	.L4:
 131              	.LBE7:
 132              		.loc 1 174 0 discriminator 2
 133 0056 9DF80730 		ldrb	r3, [sp, #7]	@ zero_extendqisi2
 134 005a 012B     		cmp	r3, #1
 135 005c 0BD1     		bne	.L5
 136              	.LBB8:
 137              		.loc 1 174 0 discriminator 1
 138 005e 124B     		ldr	r3, .L6
 139 0060 114A     		ldr	r2, .L6
 140 0062 D26C     		ldr	r2, [r2, #76]
 141 0064 42F00102 		orr	r2, r2, #1
 142 0068 DA64     		str	r2, [r3, #76]
 143 006a 0F4B     		ldr	r3, .L6
 144 006c DB6C     		ldr	r3, [r3, #76]
 145 006e 03F00103 		and	r3, r3, #1
 146 0072 0293     		str	r3, [sp, #8]
 147 0074 029B     		ldr	r3, [sp, #8]
 148              	.L5:
 149              	.LBE8:
 150              		.loc 1 177 0 is_stmt 1
 151 0076 9DF80720 		ldrb	r2, [sp, #7]	@ zero_extendqisi2
 152 007a 0C4B     		ldr	r3, .L6+4
 153 007c 53F82230 		ldr	r3, [r3, r2, lsl #2]
 154 0080 0593     		str	r3, [sp, #20]
 155              		.loc 1 178 0
 156 0082 0123     		movs	r3, #1
 157 0084 0693     		str	r3, [sp, #24]
 158              		.loc 1 179 0
ARM GAS  /tmp/cc602Zqo.s 			page 4


 159 0086 0023     		movs	r3, #0
 160 0088 0793     		str	r3, [sp, #28]
 161              		.loc 1 180 0
 162 008a 0223     		movs	r3, #2
 163 008c 0893     		str	r3, [sp, #32]
 164              		.loc 1 182 0
 165 008e 9DF80720 		ldrb	r2, [sp, #7]	@ zero_extendqisi2
 166 0092 074B     		ldr	r3, .L6+8
 167 0094 53F82220 		ldr	r2, [r3, r2, lsl #2]
 168 0098 05AB     		add	r3, sp, #20
 169 009a 1046     		mov	r0, r2
 170 009c 1946     		mov	r1, r3
 171 009e FFF7FEFF 		bl	HAL_GPIO_Init
 172              		.loc 1 183 0
 173 00a2 0BB0     		add	sp, sp, #44
 174              		@ sp needed
 175 00a4 5DF804FB 		ldr	pc, [sp], #4
 176              	.L7:
 177              		.align	2
 178              	.L6:
 179 00a8 00100240 		.word	1073876992
 180 00ac 00000000 		.word	GPIO_PIN
 181 00b0 00000000 		.word	GPIO_PORT
 182              		.cfi_endproc
 183              	.LFE126:
 184              		.size	BSP_LED_Init, .-BSP_LED_Init
 185              		.align	2
 186 00b4 AFF30080 		.p2align 4,,15
 186      AFF30080 
 186      AFF30080 
 187              		.global	BSP_LED_DeInit
 188              		.thumb
 189              		.thumb_func
 190              		.type	BSP_LED_DeInit, %function
 191              	BSP_LED_DeInit:
 192              	.LFB127:
 193              		.loc 1 198 0
 194              		.cfi_startproc
 195              		@ args = 0, pretend = 0, frame = 8
 196              		@ frame_needed = 0, uses_anonymous_args = 0
 197              		@ link register save eliminated.
 198 00c0 82B0     		sub	sp, sp, #8
 199              		.cfi_def_cfa_offset 8
 200 00c2 0346     		mov	r3, r0
 201 00c4 8DF80730 		strb	r3, [sp, #7]
 202              		.loc 1 200 0
 203 00c8 02B0     		add	sp, sp, #8
 204              		@ sp needed
 205 00ca 7047     		bx	lr
 206              		.cfi_endproc
 207              	.LFE127:
 208              		.size	BSP_LED_DeInit, .-BSP_LED_DeInit
 209              		.align	2
 210 00cc AFF30080 		.p2align 4,,15
 211              		.global	BSP_LED_On
 212              		.thumb
 213              		.thumb_func
ARM GAS  /tmp/cc602Zqo.s 			page 5


 214              		.type	BSP_LED_On, %function
 215              	BSP_LED_On:
 216              	.LFB128:
 217              		.loc 1 213 0
 218              		.cfi_startproc
 219              		@ args = 0, pretend = 0, frame = 8
 220              		@ frame_needed = 0, uses_anonymous_args = 0
 221 00d0 00B5     		push	{lr}
 222              		.cfi_def_cfa_offset 4
 223              		.cfi_offset 14, -4
 224 00d2 83B0     		sub	sp, sp, #12
 225              		.cfi_def_cfa_offset 16
 226 00d4 0346     		mov	r3, r0
 227 00d6 8DF80730 		strb	r3, [sp, #7]
 228              		.loc 1 214 0
 229 00da 9DF80730 		ldrb	r3, [sp, #7]	@ zero_extendqisi2
 230 00de 002B     		cmp	r3, #0
 231 00e0 10D1     		bne	.L10
 232              		.loc 1 216 0
 233 00e2 9DF80720 		ldrb	r2, [sp, #7]	@ zero_extendqisi2
 234 00e6 134B     		ldr	r3, .L12
 235 00e8 53F82220 		ldr	r2, [r3, r2, lsl #2]
 236 00ec 9DF80710 		ldrb	r1, [sp, #7]	@ zero_extendqisi2
 237 00f0 114B     		ldr	r3, .L12+4
 238 00f2 53F82130 		ldr	r3, [r3, r1, lsl #2]
 239 00f6 9BB2     		uxth	r3, r3
 240 00f8 1046     		mov	r0, r2
 241 00fa 1946     		mov	r1, r3
 242 00fc 0122     		movs	r2, #1
 243 00fe FFF7FEFF 		bl	HAL_GPIO_WritePin
 244 0102 13E0     		b	.L9
 245              	.L10:
 246              		.loc 1 218 0
 247 0104 9DF80730 		ldrb	r3, [sp, #7]	@ zero_extendqisi2
 248 0108 012B     		cmp	r3, #1
 249 010a 0FD1     		bne	.L9
 250              		.loc 1 220 0
 251 010c 9DF80720 		ldrb	r2, [sp, #7]	@ zero_extendqisi2
 252 0110 084B     		ldr	r3, .L12
 253 0112 53F82220 		ldr	r2, [r3, r2, lsl #2]
 254 0116 9DF80710 		ldrb	r1, [sp, #7]	@ zero_extendqisi2
 255 011a 074B     		ldr	r3, .L12+4
 256 011c 53F82130 		ldr	r3, [r3, r1, lsl #2]
 257 0120 9BB2     		uxth	r3, r3
 258 0122 1046     		mov	r0, r2
 259 0124 1946     		mov	r1, r3
 260 0126 0022     		movs	r2, #0
 261 0128 FFF7FEFF 		bl	HAL_GPIO_WritePin
 262              	.L9:
 263              		.loc 1 222 0
 264 012c 03B0     		add	sp, sp, #12
 265              		@ sp needed
 266 012e 5DF804FB 		ldr	pc, [sp], #4
 267              	.L13:
 268 0132 00BF     		.align	2
 269              	.L12:
 270 0134 00000000 		.word	GPIO_PORT
ARM GAS  /tmp/cc602Zqo.s 			page 6


 271 0138 00000000 		.word	GPIO_PIN
 272              		.cfi_endproc
 273              	.LFE128:
 274              		.size	BSP_LED_On, .-BSP_LED_On
 275              		.align	2
 276 013c AFF30080 		.p2align 4,,15
 277              		.global	BSP_LED_Off
 278              		.thumb
 279              		.thumb_func
 280              		.type	BSP_LED_Off, %function
 281              	BSP_LED_Off:
 282              	.LFB129:
 283              		.loc 1 235 0
 284              		.cfi_startproc
 285              		@ args = 0, pretend = 0, frame = 8
 286              		@ frame_needed = 0, uses_anonymous_args = 0
 287 0140 00B5     		push	{lr}
 288              		.cfi_def_cfa_offset 4
 289              		.cfi_offset 14, -4
 290 0142 83B0     		sub	sp, sp, #12
 291              		.cfi_def_cfa_offset 16
 292 0144 0346     		mov	r3, r0
 293 0146 8DF80730 		strb	r3, [sp, #7]
 294              		.loc 1 236 0
 295 014a 9DF80730 		ldrb	r3, [sp, #7]	@ zero_extendqisi2
 296 014e 002B     		cmp	r3, #0
 297 0150 10D1     		bne	.L15
 298              		.loc 1 238 0
 299 0152 9DF80720 		ldrb	r2, [sp, #7]	@ zero_extendqisi2
 300 0156 134B     		ldr	r3, .L17
 301 0158 53F82220 		ldr	r2, [r3, r2, lsl #2]
 302 015c 9DF80710 		ldrb	r1, [sp, #7]	@ zero_extendqisi2
 303 0160 114B     		ldr	r3, .L17+4
 304 0162 53F82130 		ldr	r3, [r3, r1, lsl #2]
 305 0166 9BB2     		uxth	r3, r3
 306 0168 1046     		mov	r0, r2
 307 016a 1946     		mov	r1, r3
 308 016c 0022     		movs	r2, #0
 309 016e FFF7FEFF 		bl	HAL_GPIO_WritePin
 310 0172 13E0     		b	.L14
 311              	.L15:
 312              		.loc 1 240 0
 313 0174 9DF80730 		ldrb	r3, [sp, #7]	@ zero_extendqisi2
 314 0178 012B     		cmp	r3, #1
 315 017a 0FD1     		bne	.L14
 316              		.loc 1 242 0
 317 017c 9DF80720 		ldrb	r2, [sp, #7]	@ zero_extendqisi2
 318 0180 084B     		ldr	r3, .L17
 319 0182 53F82220 		ldr	r2, [r3, r2, lsl #2]
 320 0186 9DF80710 		ldrb	r1, [sp, #7]	@ zero_extendqisi2
 321 018a 074B     		ldr	r3, .L17+4
 322 018c 53F82130 		ldr	r3, [r3, r1, lsl #2]
 323 0190 9BB2     		uxth	r3, r3
 324 0192 1046     		mov	r0, r2
 325 0194 1946     		mov	r1, r3
 326 0196 0122     		movs	r2, #1
 327 0198 FFF7FEFF 		bl	HAL_GPIO_WritePin
ARM GAS  /tmp/cc602Zqo.s 			page 7


 328              	.L14:
 329              		.loc 1 244 0
 330 019c 03B0     		add	sp, sp, #12
 331              		@ sp needed
 332 019e 5DF804FB 		ldr	pc, [sp], #4
 333              	.L18:
 334 01a2 00BF     		.align	2
 335              	.L17:
 336 01a4 00000000 		.word	GPIO_PORT
 337 01a8 00000000 		.word	GPIO_PIN
 338              		.cfi_endproc
 339              	.LFE129:
 340              		.size	BSP_LED_Off, .-BSP_LED_Off
 341              		.align	2
 342 01ac AFF30080 		.p2align 4,,15
 343              		.global	BSP_LED_Toggle
 344              		.thumb
 345              		.thumb_func
 346              		.type	BSP_LED_Toggle, %function
 347              	BSP_LED_Toggle:
 348              	.LFB130:
 349              		.loc 1 257 0
 350              		.cfi_startproc
 351              		@ args = 0, pretend = 0, frame = 8
 352              		@ frame_needed = 0, uses_anonymous_args = 0
 353 01b0 00B5     		push	{lr}
 354              		.cfi_def_cfa_offset 4
 355              		.cfi_offset 14, -4
 356 01b2 83B0     		sub	sp, sp, #12
 357              		.cfi_def_cfa_offset 16
 358 01b4 0346     		mov	r3, r0
 359 01b6 8DF80730 		strb	r3, [sp, #7]
 360              		.loc 1 258 0
 361 01ba 9DF80720 		ldrb	r2, [sp, #7]	@ zero_extendqisi2
 362 01be 084B     		ldr	r3, .L20
 363 01c0 53F82220 		ldr	r2, [r3, r2, lsl #2]
 364 01c4 9DF80710 		ldrb	r1, [sp, #7]	@ zero_extendqisi2
 365 01c8 064B     		ldr	r3, .L20+4
 366 01ca 53F82130 		ldr	r3, [r3, r1, lsl #2]
 367 01ce 9BB2     		uxth	r3, r3
 368 01d0 1046     		mov	r0, r2
 369 01d2 1946     		mov	r1, r3
 370 01d4 FFF7FEFF 		bl	HAL_GPIO_TogglePin
 371              		.loc 1 259 0
 372 01d8 03B0     		add	sp, sp, #12
 373              		@ sp needed
 374 01da 5DF804FB 		ldr	pc, [sp], #4
 375              	.L21:
 376 01de 00BF     		.align	2
 377              	.L20:
 378 01e0 00000000 		.word	GPIO_PORT
 379 01e4 00000000 		.word	GPIO_PIN
 380              		.cfi_endproc
 381              	.LFE130:
 382              		.size	BSP_LED_Toggle, .-BSP_LED_Toggle
 383              		.align	2
 384 01e8 AFF30080 		.p2align 4,,15
ARM GAS  /tmp/cc602Zqo.s 			page 8


 384      AFF30080 
 385              		.global	Sensor_IO_I2C_Init
 386              		.thumb
 387              		.thumb_func
 388              		.type	Sensor_IO_I2C_Init, %function
 389              	Sensor_IO_I2C_Init:
 390              	.LFB131:
 391              		.loc 1 268 0
 392              		.cfi_startproc
 393              		@ args = 0, pretend = 0, frame = 0
 394              		@ frame_needed = 0, uses_anonymous_args = 0
 395 01f0 08B5     		push	{r3, lr}
 396              		.cfi_def_cfa_offset 8
 397              		.cfi_offset 3, -8
 398              		.cfi_offset 14, -4
 399              		.loc 1 269 0
 400 01f2 00F00DFC 		bl	I2C_SENSORTILE_Init
 401 01f6 0346     		mov	r3, r0
 402 01f8 002B     		cmp	r3, #0
 403 01fa 01D0     		beq	.L23
 404              		.loc 1 271 0
 405 01fc 0123     		movs	r3, #1
 406 01fe 00E0     		b	.L24
 407              	.L23:
 408              		.loc 1 275 0
 409 0200 0023     		movs	r3, #0
 410              	.L24:
 411              		.loc 1 277 0
 412 0202 1846     		mov	r0, r3
 413 0204 08BD     		pop	{r3, pc}
 414              		.cfi_endproc
 415              	.LFE131:
 416              		.size	Sensor_IO_I2C_Init, .-Sensor_IO_I2C_Init
 417 0206 00BF     		.align	2
 418 0208 AFF30080 		.p2align 4,,15
 418      AFF30080 
 419              		.global	Sensor_IO_SPI_Init
 420              		.thumb
 421              		.thumb_func
 422              		.type	Sensor_IO_SPI_Init, %function
 423              	Sensor_IO_SPI_Init:
 424              	.LFB132:
 425              		.loc 1 287 0
 426              		.cfi_startproc
 427              		@ args = 0, pretend = 0, frame = 32
 428              		@ frame_needed = 0, uses_anonymous_args = 0
 429 0210 00B5     		push	{lr}
 430              		.cfi_def_cfa_offset 4
 431              		.cfi_offset 14, -4
 432 0212 89B0     		sub	sp, sp, #36
 433              		.cfi_def_cfa_offset 40
 434              		.loc 1 290 0
 435 0214 3E48     		ldr	r0, .L28
 436 0216 FFF7FEFF 		bl	HAL_SPI_GetState
 437 021a 0346     		mov	r3, r0
 438 021c 002B     		cmp	r3, #0
 439 021e 72D1     		bne	.L26
ARM GAS  /tmp/cc602Zqo.s 			page 9


 440              	.LBB9:
 441              		.loc 1 292 0
 442 0220 3C4B     		ldr	r3, .L28+4
 443 0222 3C4A     		ldr	r2, .L28+4
 444 0224 926D     		ldr	r2, [r2, #88]
 445 0226 42F48042 		orr	r2, r2, #16384
 446 022a 9A65     		str	r2, [r3, #88]
 447 022c 394B     		ldr	r3, .L28+4
 448 022e 9B6D     		ldr	r3, [r3, #88]
 449 0230 03F48043 		and	r3, r3, #16384
 450 0234 0293     		str	r3, [sp, #8]
 451 0236 029B     		ldr	r3, [sp, #8]
 452              	.LBE9:
 453              	.LBB10:
 454              		.loc 1 293 0
 455 0238 364B     		ldr	r3, .L28+4
 456 023a 364A     		ldr	r2, .L28+4
 457 023c D26C     		ldr	r2, [r2, #76]
 458 023e 42F00202 		orr	r2, r2, #2
 459 0242 DA64     		str	r2, [r3, #76]
 460 0244 334B     		ldr	r3, .L28+4
 461 0246 DB6C     		ldr	r3, [r3, #76]
 462 0248 03F00203 		and	r3, r3, #2
 463 024c 0193     		str	r3, [sp, #4]
 464 024e 019B     		ldr	r3, [sp, #4]
 465              	.LBE10:
 466              		.loc 1 295 0
 467 0250 4FF40043 		mov	r3, #32768
 468 0254 0393     		str	r3, [sp, #12]
 469              		.loc 1 296 0
 470 0256 0223     		movs	r3, #2
 471 0258 0493     		str	r3, [sp, #16]
 472              		.loc 1 297 0
 473 025a 0123     		movs	r3, #1
 474 025c 0593     		str	r3, [sp, #20]
 475              		.loc 1 298 0
 476 025e 0323     		movs	r3, #3
 477 0260 0693     		str	r3, [sp, #24]
 478              		.loc 1 299 0
 479 0262 0523     		movs	r3, #5
 480 0264 0793     		str	r3, [sp, #28]
 481              		.loc 1 300 0
 482 0266 03AB     		add	r3, sp, #12
 483 0268 2B48     		ldr	r0, .L28+8
 484 026a 1946     		mov	r1, r3
 485 026c FFF7FEFF 		bl	HAL_GPIO_Init
 486              		.loc 1 302 0
 487 0270 4FF40053 		mov	r3, #8192
 488 0274 0393     		str	r3, [sp, #12]
 489              		.loc 1 303 0
 490 0276 0223     		movs	r3, #2
 491 0278 0593     		str	r3, [sp, #20]
 492              		.loc 1 304 0
 493 027a 03AB     		add	r3, sp, #12
 494 027c 2648     		ldr	r0, .L28+8
 495 027e 1946     		mov	r1, r3
 496 0280 FFF7FEFF 		bl	HAL_GPIO_Init
ARM GAS  /tmp/cc602Zqo.s 			page 10


 497              		.loc 1 306 0
 498 0284 224B     		ldr	r3, .L28
 499 0286 254A     		ldr	r2, .L28+12
 500 0288 1A60     		str	r2, [r3]
 501              		.loc 1 307 0
 502 028a 214B     		ldr	r3, .L28
 503 028c 4FF48272 		mov	r2, #260
 504 0290 5A60     		str	r2, [r3, #4]
 505              		.loc 1 308 0
 506 0292 1F4B     		ldr	r3, .L28
 507 0294 4FF40042 		mov	r2, #32768
 508 0298 9A60     		str	r2, [r3, #8]
 509              		.loc 1 309 0
 510 029a 1D4B     		ldr	r3, .L28
 511 029c 4FF4E062 		mov	r2, #1792
 512 02a0 DA60     		str	r2, [r3, #12]
 513              		.loc 1 310 0
 514 02a2 1B4B     		ldr	r3, .L28
 515 02a4 0022     		movs	r2, #0
 516 02a6 1A61     		str	r2, [r3, #16]
 517              		.loc 1 311 0
 518 02a8 194B     		ldr	r3, .L28
 519 02aa 0022     		movs	r2, #0
 520 02ac 5A61     		str	r2, [r3, #20]
 521              		.loc 1 312 0
 522 02ae 184B     		ldr	r3, .L28
 523 02b0 4FF40072 		mov	r2, #512
 524 02b4 9A61     		str	r2, [r3, #24]
 525              		.loc 1 313 0
 526 02b6 164B     		ldr	r3, .L28
 527 02b8 2022     		movs	r2, #32
 528 02ba DA61     		str	r2, [r3, #28]
 529              		.loc 1 314 0
 530 02bc 144B     		ldr	r3, .L28
 531 02be 0022     		movs	r2, #0
 532 02c0 1A62     		str	r2, [r3, #32]
 533              		.loc 1 315 0
 534 02c2 134B     		ldr	r3, .L28
 535 02c4 0022     		movs	r2, #0
 536 02c6 5A62     		str	r2, [r3, #36]
 537              		.loc 1 316 0
 538 02c8 114B     		ldr	r3, .L28
 539 02ca 0022     		movs	r2, #0
 540 02cc 9A62     		str	r2, [r3, #40]
 541              		.loc 1 317 0
 542 02ce 104B     		ldr	r3, .L28
 543 02d0 0722     		movs	r2, #7
 544 02d2 DA62     		str	r2, [r3, #44]
 545              		.loc 1 318 0
 546 02d4 0E4B     		ldr	r3, .L28
 547 02d6 0022     		movs	r2, #0
 548 02d8 1A63     		str	r2, [r3, #48]
 549              		.loc 1 319 0
 550 02da 0D4B     		ldr	r3, .L28
 551 02dc 0022     		movs	r2, #0
 552 02de 5A63     		str	r2, [r3, #52]
 553              		.loc 1 320 0
ARM GAS  /tmp/cc602Zqo.s 			page 11


 554 02e0 0B48     		ldr	r0, .L28
 555 02e2 FFF7FEFF 		bl	HAL_SPI_Init
 556              		.loc 1 322 0
 557 02e6 0A4B     		ldr	r3, .L28
 558 02e8 1B68     		ldr	r3, [r3]
 559 02ea 094A     		ldr	r2, .L28
 560 02ec 1268     		ldr	r2, [r2]
 561 02ee 1268     		ldr	r2, [r2]
 562 02f0 42F48042 		orr	r2, r2, #16384
 563 02f4 1A60     		str	r2, [r3]
 564              		.loc 1 323 0
 565 02f6 064B     		ldr	r3, .L28
 566 02f8 1B68     		ldr	r3, [r3]
 567 02fa 054A     		ldr	r2, .L28
 568 02fc 1268     		ldr	r2, [r2]
 569 02fe 1268     		ldr	r2, [r2]
 570 0300 42F04002 		orr	r2, r2, #64
 571 0304 1A60     		str	r2, [r3]
 572              	.L26:
 573              		.loc 1 325 0
 574 0306 0023     		movs	r3, #0
 575              		.loc 1 326 0
 576 0308 1846     		mov	r0, r3
 577 030a 09B0     		add	sp, sp, #36
 578              		@ sp needed
 579 030c 5DF804FB 		ldr	pc, [sp], #4
 580              	.L29:
 581              		.align	2
 582              	.L28:
 583 0310 4C000000 		.word	SPI_Sensor_Handle
 584 0314 00100240 		.word	1073876992
 585 0318 00040048 		.word	1207960576
 586 031c 00380040 		.word	1073756160
 587              		.cfi_endproc
 588              	.LFE132:
 589              		.size	Sensor_IO_SPI_Init, .-Sensor_IO_SPI_Init
 590              		.align	2
 591              		.p2align 4,,15
 592              		.global	Sensor_IO_SPI_CS_Init_All
 593              		.thumb
 594              		.thumb_func
 595              		.type	Sensor_IO_SPI_CS_Init_All, %function
 596              	Sensor_IO_SPI_CS_Init_All:
 597              	.LFB133:
 598              		.loc 1 329 0
 599              		.cfi_startproc
 600              		@ args = 0, pretend = 0, frame = 40
 601              		@ frame_needed = 0, uses_anonymous_args = 0
 602 0320 00B5     		push	{lr}
 603              		.cfi_def_cfa_offset 4
 604              		.cfi_offset 14, -4
 605 0322 8BB0     		sub	sp, sp, #44
 606              		.cfi_def_cfa_offset 48
 607              		.loc 1 332 0
 608 0324 0323     		movs	r3, #3
 609 0326 0893     		str	r3, [sp, #32]
 610              		.loc 1 333 0
ARM GAS  /tmp/cc602Zqo.s 			page 12


 611 0328 0023     		movs	r3, #0
 612 032a 0793     		str	r3, [sp, #28]
 613              		.loc 1 334 0
 614 032c 0123     		movs	r3, #1
 615 032e 0693     		str	r3, [sp, #24]
 616              	.LBB11:
 617              		.loc 1 336 0
 618 0330 344B     		ldr	r3, .L32
 619 0332 344A     		ldr	r2, .L32
 620 0334 D26C     		ldr	r2, [r2, #76]
 621 0336 42F00202 		orr	r2, r2, #2
 622 033a DA64     		str	r2, [r3, #76]
 623 033c 314B     		ldr	r3, .L32
 624 033e DB6C     		ldr	r3, [r3, #76]
 625 0340 03F00203 		and	r3, r3, #2
 626 0344 0493     		str	r3, [sp, #16]
 627 0346 049B     		ldr	r3, [sp, #16]
 628              	.LBE11:
 629              		.loc 1 337 0
 630 0348 4FF48053 		mov	r3, #4096
 631 034c 0593     		str	r3, [sp, #20]
 632              		.loc 1 338 0
 633 034e 05AB     		add	r3, sp, #20
 634 0350 2D48     		ldr	r0, .L32+4
 635 0352 1946     		mov	r1, r3
 636 0354 FFF7FEFF 		bl	HAL_GPIO_Init
 637              		.loc 1 339 0
 638 0358 2B48     		ldr	r0, .L32+4
 639 035a 4FF48051 		mov	r1, #4096
 640 035e 0122     		movs	r2, #1
 641 0360 FFF7FEFF 		bl	HAL_GPIO_WritePin
 642              	.LBB12:
 643              		.loc 1 341 0
 644 0364 274B     		ldr	r3, .L32
 645 0366 274A     		ldr	r2, .L32
 646 0368 D26C     		ldr	r2, [r2, #76]
 647 036a 42F00402 		orr	r2, r2, #4
 648 036e DA64     		str	r2, [r3, #76]
 649 0370 244B     		ldr	r3, .L32
 650 0372 DB6C     		ldr	r3, [r3, #76]
 651 0374 03F00403 		and	r3, r3, #4
 652 0378 0393     		str	r3, [sp, #12]
 653 037a 039B     		ldr	r3, [sp, #12]
 654              	.LBE12:
 655              		.loc 1 342 0
 656 037c 1023     		movs	r3, #16
 657 037e 0593     		str	r3, [sp, #20]
 658              		.loc 1 343 0
 659 0380 05AB     		add	r3, sp, #20
 660 0382 2248     		ldr	r0, .L32+8
 661 0384 1946     		mov	r1, r3
 662 0386 FFF7FEFF 		bl	HAL_GPIO_Init
 663              		.loc 1 344 0
 664 038a 2048     		ldr	r0, .L32+8
 665 038c 1021     		movs	r1, #16
 666 038e 0122     		movs	r2, #1
 667 0390 FFF7FEFF 		bl	HAL_GPIO_WritePin
ARM GAS  /tmp/cc602Zqo.s 			page 13


 668              	.LBB13:
 669              		.loc 1 346 0
 670 0394 1B4B     		ldr	r3, .L32
 671 0396 1B4A     		ldr	r2, .L32
 672 0398 D26C     		ldr	r2, [r2, #76]
 673 039a 42F00202 		orr	r2, r2, #2
 674 039e DA64     		str	r2, [r3, #76]
 675 03a0 184B     		ldr	r3, .L32
 676 03a2 DB6C     		ldr	r3, [r3, #76]
 677 03a4 03F00203 		and	r3, r3, #2
 678 03a8 0293     		str	r3, [sp, #8]
 679 03aa 029B     		ldr	r3, [sp, #8]
 680              	.LBE13:
 681              		.loc 1 347 0
 682 03ac 0223     		movs	r3, #2
 683 03ae 0593     		str	r3, [sp, #20]
 684              		.loc 1 348 0
 685 03b0 05AB     		add	r3, sp, #20
 686 03b2 1548     		ldr	r0, .L32+4
 687 03b4 1946     		mov	r1, r3
 688 03b6 FFF7FEFF 		bl	HAL_GPIO_Init
 689              		.loc 1 349 0
 690 03ba 1348     		ldr	r0, .L32+4
 691 03bc 0221     		movs	r1, #2
 692 03be 0122     		movs	r2, #1
 693 03c0 FFF7FEFF 		bl	HAL_GPIO_WritePin
 694              	.LBB14:
 695              		.loc 1 351 0
 696 03c4 0F4B     		ldr	r3, .L32
 697 03c6 0F4A     		ldr	r2, .L32
 698 03c8 D26C     		ldr	r2, [r2, #76]
 699 03ca 42F00102 		orr	r2, r2, #1
 700 03ce DA64     		str	r2, [r3, #76]
 701 03d0 0C4B     		ldr	r3, .L32
 702 03d2 DB6C     		ldr	r3, [r3, #76]
 703 03d4 03F00103 		and	r3, r3, #1
 704 03d8 0193     		str	r3, [sp, #4]
 705 03da 019B     		ldr	r3, [sp, #4]
 706              	.LBE14:
 707              		.loc 1 352 0
 708 03dc 0823     		movs	r3, #8
 709 03de 0593     		str	r3, [sp, #20]
 710              		.loc 1 353 0
 711 03e0 05AB     		add	r3, sp, #20
 712 03e2 4FF09040 		mov	r0, #1207959552
 713 03e6 1946     		mov	r1, r3
 714 03e8 FFF7FEFF 		bl	HAL_GPIO_Init
 715              		.loc 1 354 0
 716 03ec 4FF09040 		mov	r0, #1207959552
 717 03f0 0821     		movs	r1, #8
 718 03f2 0122     		movs	r2, #1
 719 03f4 FFF7FEFF 		bl	HAL_GPIO_WritePin
 720              		.loc 1 356 0
 721 03f8 0023     		movs	r3, #0
 722              		.loc 1 357 0
 723 03fa 1846     		mov	r0, r3
 724 03fc 0BB0     		add	sp, sp, #44
ARM GAS  /tmp/cc602Zqo.s 			page 14


 725              		@ sp needed
 726 03fe 5DF804FB 		ldr	pc, [sp], #4
 727              	.L33:
 728 0402 00BF     		.align	2
 729              	.L32:
 730 0404 00100240 		.word	1073876992
 731 0408 00040048 		.word	1207960576
 732 040c 00080048 		.word	1207961600
 733              		.cfi_endproc
 734              	.LFE133:
 735              		.size	Sensor_IO_SPI_CS_Init_All, .-Sensor_IO_SPI_CS_Init_All
 736              		.align	2
 737              		.p2align 4,,15
 738              		.global	Sensor_IO_SPI_CS_Init
 739              		.thumb
 740              		.thumb_func
 741              		.type	Sensor_IO_SPI_CS_Init, %function
 742              	Sensor_IO_SPI_CS_Init:
 743              	.LFB134:
 744              		.loc 1 360 0
 745              		.cfi_startproc
 746              		@ args = 0, pretend = 0, frame = 48
 747              		@ frame_needed = 0, uses_anonymous_args = 0
 748 0410 00B5     		push	{lr}
 749              		.cfi_def_cfa_offset 4
 750              		.cfi_offset 14, -4
 751 0412 8DB0     		sub	sp, sp, #52
 752              		.cfi_def_cfa_offset 56
 753 0414 0190     		str	r0, [sp, #4]
 754              		.loc 1 362 0
 755 0416 019B     		ldr	r3, [sp, #4]
 756 0418 0B93     		str	r3, [sp, #44]
 757              		.loc 1 364 0
 758 041a 0323     		movs	r3, #3
 759 041c 0993     		str	r3, [sp, #36]
 760              		.loc 1 365 0
 761 041e 0023     		movs	r3, #0
 762 0420 0893     		str	r3, [sp, #32]
 763              		.loc 1 366 0
 764 0422 0123     		movs	r3, #1
 765 0424 0793     		str	r3, [sp, #28]
 766              		.loc 1 368 0
 767 0426 0B9B     		ldr	r3, [sp, #44]
 768 0428 DB78     		ldrb	r3, [r3, #3]	@ zero_extendqisi2
 769 042a 032B     		cmp	r3, #3
 770 042c 72D8     		bhi	.L35
 771 042e 01A2     		adr	r2, .L37
 772 0430 52F823F0 		ldr	pc, [r2, r3, lsl #2]
 773              		.p2align 2
 774              	.L37:
 775 0434 45040000 		.word	.L36+1
 776 0438 7B040000 		.word	.L38+1
 777 043c AD040000 		.word	.L39+1
 778 0440 DF040000 		.word	.L40+1
 779              		.p2align 1
 780              	.L36:
 781              	.LBB15:
ARM GAS  /tmp/cc602Zqo.s 			page 15


 782              		.loc 1 371 0
 783 0444 374B     		ldr	r3, .L44
 784 0446 374A     		ldr	r2, .L44
 785 0448 D26C     		ldr	r2, [r2, #76]
 786 044a 42F00202 		orr	r2, r2, #2
 787 044e DA64     		str	r2, [r3, #76]
 788 0450 344B     		ldr	r3, .L44
 789 0452 DB6C     		ldr	r3, [r3, #76]
 790 0454 03F00203 		and	r3, r3, #2
 791 0458 0593     		str	r3, [sp, #20]
 792 045a 059B     		ldr	r3, [sp, #20]
 793              	.LBE15:
 794              		.loc 1 372 0
 795 045c 4FF48053 		mov	r3, #4096
 796 0460 0693     		str	r3, [sp, #24]
 797              		.loc 1 373 0
 798 0462 06AB     		add	r3, sp, #24
 799 0464 3048     		ldr	r0, .L44+4
 800 0466 1946     		mov	r1, r3
 801 0468 FFF7FEFF 		bl	HAL_GPIO_Init
 802              		.loc 1 374 0
 803 046c 2E48     		ldr	r0, .L44+4
 804 046e 4FF48051 		mov	r1, #4096
 805 0472 0122     		movs	r2, #1
 806 0474 FFF7FEFF 		bl	HAL_GPIO_WritePin
 807              		.loc 1 375 0
 808 0478 4EE0     		b	.L41
 809              	.L38:
 810              	.LBB16:
 811              		.loc 1 377 0
 812 047a 2A4B     		ldr	r3, .L44
 813 047c 294A     		ldr	r2, .L44
 814 047e D26C     		ldr	r2, [r2, #76]
 815 0480 42F00402 		orr	r2, r2, #4
 816 0484 DA64     		str	r2, [r3, #76]
 817 0486 274B     		ldr	r3, .L44
 818 0488 DB6C     		ldr	r3, [r3, #76]
 819 048a 03F00403 		and	r3, r3, #4
 820 048e 0493     		str	r3, [sp, #16]
 821 0490 049B     		ldr	r3, [sp, #16]
 822              	.LBE16:
 823              		.loc 1 378 0
 824 0492 1023     		movs	r3, #16
 825 0494 0693     		str	r3, [sp, #24]
 826              		.loc 1 379 0
 827 0496 06AB     		add	r3, sp, #24
 828 0498 2448     		ldr	r0, .L44+8
 829 049a 1946     		mov	r1, r3
 830 049c FFF7FEFF 		bl	HAL_GPIO_Init
 831              		.loc 1 380 0
 832 04a0 2248     		ldr	r0, .L44+8
 833 04a2 1021     		movs	r1, #16
 834 04a4 0122     		movs	r2, #1
 835 04a6 FFF7FEFF 		bl	HAL_GPIO_WritePin
 836              		.loc 1 381 0
 837 04aa 35E0     		b	.L41
 838              	.L39:
ARM GAS  /tmp/cc602Zqo.s 			page 16


 839              	.LBB17:
 840              		.loc 1 383 0
 841 04ac 1D4B     		ldr	r3, .L44
 842 04ae 1D4A     		ldr	r2, .L44
 843 04b0 D26C     		ldr	r2, [r2, #76]
 844 04b2 42F00202 		orr	r2, r2, #2
 845 04b6 DA64     		str	r2, [r3, #76]
 846 04b8 1A4B     		ldr	r3, .L44
 847 04ba DB6C     		ldr	r3, [r3, #76]
 848 04bc 03F00203 		and	r3, r3, #2
 849 04c0 0393     		str	r3, [sp, #12]
 850 04c2 039B     		ldr	r3, [sp, #12]
 851              	.LBE17:
 852              		.loc 1 384 0
 853 04c4 0223     		movs	r3, #2
 854 04c6 0693     		str	r3, [sp, #24]
 855              		.loc 1 385 0
 856 04c8 06AB     		add	r3, sp, #24
 857 04ca 1748     		ldr	r0, .L44+4
 858 04cc 1946     		mov	r1, r3
 859 04ce FFF7FEFF 		bl	HAL_GPIO_Init
 860              		.loc 1 386 0
 861 04d2 1548     		ldr	r0, .L44+4
 862 04d4 0221     		movs	r1, #2
 863 04d6 0122     		movs	r2, #1
 864 04d8 FFF7FEFF 		bl	HAL_GPIO_WritePin
 865              		.loc 1 387 0
 866 04dc 1CE0     		b	.L41
 867              	.L40:
 868              	.LBB18:
 869              		.loc 1 389 0
 870 04de 114B     		ldr	r3, .L44
 871 04e0 104A     		ldr	r2, .L44
 872 04e2 D26C     		ldr	r2, [r2, #76]
 873 04e4 42F00102 		orr	r2, r2, #1
 874 04e8 DA64     		str	r2, [r3, #76]
 875 04ea 0E4B     		ldr	r3, .L44
 876 04ec DB6C     		ldr	r3, [r3, #76]
 877 04ee 03F00103 		and	r3, r3, #1
 878 04f2 0293     		str	r3, [sp, #8]
 879 04f4 029B     		ldr	r3, [sp, #8]
 880              	.LBE18:
 881              		.loc 1 390 0
 882 04f6 0823     		movs	r3, #8
 883 04f8 0693     		str	r3, [sp, #24]
 884              		.loc 1 391 0
 885 04fa 06AB     		add	r3, sp, #24
 886 04fc 4FF09040 		mov	r0, #1207959552
 887 0500 1946     		mov	r1, r3
 888 0502 FFF7FEFF 		bl	HAL_GPIO_Init
 889              		.loc 1 392 0
 890 0506 4FF09040 		mov	r0, #1207959552
 891 050a 0821     		movs	r1, #8
 892 050c 0122     		movs	r2, #1
 893 050e FFF7FEFF 		bl	HAL_GPIO_WritePin
 894              		.loc 1 393 0
 895 0512 01E0     		b	.L41
ARM GAS  /tmp/cc602Zqo.s 			page 17


 896              	.L35:
 897              		.loc 1 395 0
 898 0514 0323     		movs	r3, #3
 899 0516 00E0     		b	.L43
 900              	.L41:
 901              		.loc 1 397 0
 902 0518 0023     		movs	r3, #0
 903              	.L43:
 904              		.loc 1 398 0
 905 051a 1846     		mov	r0, r3
 906 051c 0DB0     		add	sp, sp, #52
 907              		@ sp needed
 908 051e 5DF804FB 		ldr	pc, [sp], #4
 909              	.L45:
 910 0522 00BF     		.align	2
 911              	.L44:
 912 0524 00100240 		.word	1073876992
 913 0528 00040048 		.word	1207960576
 914 052c 00080048 		.word	1207961600
 915              		.cfi_endproc
 916              	.LFE134:
 917              		.size	Sensor_IO_SPI_CS_Init, .-Sensor_IO_SPI_CS_Init
 918              		.align	2
 919              		.p2align 4,,15
 920              		.global	Sensor_IO_Write
 921              		.thumb
 922              		.thumb_func
 923              		.type	Sensor_IO_Write, %function
 924              	Sensor_IO_Write:
 925              	.LFB135:
 926              		.loc 1 410 0
 927              		.cfi_startproc
 928              		@ args = 0, pretend = 0, frame = 24
 929              		@ frame_needed = 0, uses_anonymous_args = 0
 930 0530 00B5     		push	{lr}
 931              		.cfi_def_cfa_offset 4
 932              		.cfi_offset 14, -4
 933 0532 87B0     		sub	sp, sp, #28
 934              		.cfi_def_cfa_offset 32
 935 0534 0390     		str	r0, [sp, #12]
 936 0536 0192     		str	r2, [sp, #4]
 937 0538 0A46     		mov	r2, r1
 938 053a 8DF80B20 		strb	r2, [sp, #11]
 939 053e ADF80830 		strh	r3, [sp, #8]	@ movhi
 940              		.loc 1 412 0
 941 0542 039B     		ldr	r3, [sp, #12]
 942 0544 0593     		str	r3, [sp, #20]
 943              		.loc 1 414 0
 944 0546 059B     		ldr	r3, [sp, #20]
 945 0548 5B78     		ldrb	r3, [r3, #1]	@ zero_extendqisi2
 946 054a 002B     		cmp	r3, #0
 947 054c 18D1     		bne	.L47
 948              		.loc 1 417 0
 949 054e BDF80830 		ldrh	r3, [sp, #8]
 950 0552 012B     		cmp	r3, #1
 951 0554 09D9     		bls	.L48
 952              		.loc 1 418 0
ARM GAS  /tmp/cc602Zqo.s 			page 18


 953 0556 059B     		ldr	r3, [sp, #20]
 954 0558 1B78     		ldrb	r3, [r3]	@ zero_extendqisi2
 955 055a BC2B     		cmp	r3, #188
 956 055c 05D1     		bne	.L48
 957              		.loc 1 419 0
 958 055e 9DF80B30 		ldrb	r3, [sp, #11]
 959 0562 63F07F03 		orn	r3, r3, #127
 960 0566 8DF80B30 		strb	r3, [sp, #11]
 961              	.L48:
 962              		.loc 1 421 0
 963 056a 9DF80B20 		ldrb	r2, [sp, #11]	@ zero_extendqisi2
 964 056e BDF80830 		ldrh	r3, [sp, #8]
 965 0572 0398     		ldr	r0, [sp, #12]
 966 0574 1146     		mov	r1, r2
 967 0576 019A     		ldr	r2, [sp, #4]
 968 0578 FFF7FEFF 		bl	Sensor_IO_I2C_Write
 969 057c 0346     		mov	r3, r0
 970 057e 20E0     		b	.L49
 971              	.L47:
 972              		.loc 1 424 0
 973 0580 059B     		ldr	r3, [sp, #20]
 974 0582 5B78     		ldrb	r3, [r3, #1]	@ zero_extendqisi2
 975 0584 012B     		cmp	r3, #1
 976 0586 1BD1     		bne	.L50
 977              		.loc 1 426 0
 978 0588 BDF80830 		ldrh	r3, [sp, #8]
 979 058c 012B     		cmp	r3, #1
 980 058e 0CD9     		bls	.L51
 981              		.loc 1 427 0
 982 0590 059B     		ldr	r3, [sp, #20]
 983 0592 1B78     		ldrb	r3, [r3]	@ zero_extendqisi2
 984 0594 332B     		cmp	r3, #51
 985 0596 01D0     		beq	.L52
 986 0598 402B     		cmp	r3, #64
 987              		.loc 1 430 0
 988 059a 06E0     		b	.L51
 989              	.L52:
 990              		.loc 1 429 0
 991 059c 9DF80B30 		ldrb	r3, [sp, #11]
 992 05a0 43F04003 		orr	r3, r3, #64
 993 05a4 8DF80B30 		strb	r3, [sp, #11]
 994 05a8 00BF     		nop
 995              	.L51:
 996              		.loc 1 434 0
 997 05aa 9DF80B20 		ldrb	r2, [sp, #11]	@ zero_extendqisi2
 998 05ae BDF80830 		ldrh	r3, [sp, #8]
 999 05b2 0398     		ldr	r0, [sp, #12]
 1000 05b4 1146     		mov	r1, r2
 1001 05b6 019A     		ldr	r2, [sp, #4]
 1002 05b8 FFF7FEFF 		bl	Sensor_IO_SPI_Write
 1003 05bc 0346     		mov	r3, r0
 1004 05be 00E0     		b	.L49
 1005              	.L50:
 1006              		.loc 1 437 0
 1007 05c0 0123     		movs	r3, #1
 1008              	.L49:
 1009              		.loc 1 438 0
ARM GAS  /tmp/cc602Zqo.s 			page 19


 1010 05c2 1846     		mov	r0, r3
 1011 05c4 07B0     		add	sp, sp, #28
 1012              		@ sp needed
 1013 05c6 5DF804FB 		ldr	pc, [sp], #4
 1014              		.cfi_endproc
 1015              	.LFE135:
 1016              		.size	Sensor_IO_Write, .-Sensor_IO_Write
 1017 05ca 00BF     		.align	2
 1018 05cc AFF30080 		.p2align 4,,15
 1019              		.global	Sensor_IO_I2C_Write
 1020              		.thumb
 1021              		.thumb_func
 1022              		.type	Sensor_IO_I2C_Write, %function
 1023              	Sensor_IO_I2C_Write:
 1024              	.LFB136:
 1025              		.loc 1 451 0
 1026              		.cfi_startproc
 1027              		@ args = 0, pretend = 0, frame = 24
 1028              		@ frame_needed = 0, uses_anonymous_args = 0
 1029 05d0 00B5     		push	{lr}
 1030              		.cfi_def_cfa_offset 4
 1031              		.cfi_offset 14, -4
 1032 05d2 87B0     		sub	sp, sp, #28
 1033              		.cfi_def_cfa_offset 32
 1034 05d4 0390     		str	r0, [sp, #12]
 1035 05d6 0192     		str	r2, [sp, #4]
 1036 05d8 0A46     		mov	r2, r1
 1037 05da 8DF80B20 		strb	r2, [sp, #11]
 1038 05de ADF80830 		strh	r3, [sp, #8]	@ movhi
 1039              		.loc 1 452 0
 1040 05e2 039B     		ldr	r3, [sp, #12]
 1041 05e4 0593     		str	r3, [sp, #20]
 1042              		.loc 1 455 0
 1043 05e6 059B     		ldr	r3, [sp, #20]
 1044 05e8 9978     		ldrb	r1, [r3, #2]	@ zero_extendqisi2
 1045 05ea 9DF80B20 		ldrb	r2, [sp, #11]	@ zero_extendqisi2
 1046 05ee BDF80830 		ldrh	r3, [sp, #8]
 1047 05f2 0846     		mov	r0, r1
 1048 05f4 1146     		mov	r1, r2
 1049 05f6 019A     		ldr	r2, [sp, #4]
 1050 05f8 00F03AFA 		bl	I2C_SENSORTILE_WriteData
 1051 05fc 0346     		mov	r3, r0
 1052              		.loc 1 456 0
 1053 05fe 1846     		mov	r0, r3
 1054 0600 07B0     		add	sp, sp, #28
 1055              		@ sp needed
 1056 0602 5DF804FB 		ldr	pc, [sp], #4
 1057              		.cfi_endproc
 1058              	.LFE136:
 1059              		.size	Sensor_IO_I2C_Write, .-Sensor_IO_I2C_Write
 1060 0606 00BF     		.align	2
 1061 0608 AFF30080 		.p2align 4,,15
 1061      AFF30080 
 1062              		.global	Sensor_IO_Read
 1063              		.thumb
 1064              		.thumb_func
 1065              		.type	Sensor_IO_Read, %function
ARM GAS  /tmp/cc602Zqo.s 			page 20


 1066              	Sensor_IO_Read:
 1067              	.LFB137:
 1068              		.loc 1 469 0
 1069              		.cfi_startproc
 1070              		@ args = 0, pretend = 0, frame = 24
 1071              		@ frame_needed = 0, uses_anonymous_args = 0
 1072 0610 00B5     		push	{lr}
 1073              		.cfi_def_cfa_offset 4
 1074              		.cfi_offset 14, -4
 1075 0612 87B0     		sub	sp, sp, #28
 1076              		.cfi_def_cfa_offset 32
 1077 0614 0390     		str	r0, [sp, #12]
 1078 0616 0192     		str	r2, [sp, #4]
 1079 0618 0A46     		mov	r2, r1
 1080 061a 8DF80B20 		strb	r2, [sp, #11]
 1081 061e ADF80830 		strh	r3, [sp, #8]	@ movhi
 1082              		.loc 1 471 0
 1083 0622 039B     		ldr	r3, [sp, #12]
 1084 0624 0593     		str	r3, [sp, #20]
 1085              		.loc 1 473 0
 1086 0626 059B     		ldr	r3, [sp, #20]
 1087 0628 5B78     		ldrb	r3, [r3, #1]	@ zero_extendqisi2
 1088 062a 002B     		cmp	r3, #0
 1089 062c 18D1     		bne	.L57
 1090              		.loc 1 476 0
 1091 062e BDF80830 		ldrh	r3, [sp, #8]
 1092 0632 012B     		cmp	r3, #1
 1093 0634 09D9     		bls	.L58
 1094              		.loc 1 477 0
 1095 0636 059B     		ldr	r3, [sp, #20]
 1096 0638 1B78     		ldrb	r3, [r3]	@ zero_extendqisi2
 1097 063a BC2B     		cmp	r3, #188
 1098 063c 05D1     		bne	.L58
 1099              		.loc 1 478 0
 1100 063e 9DF80B30 		ldrb	r3, [sp, #11]
 1101 0642 63F07F03 		orn	r3, r3, #127
 1102 0646 8DF80B30 		strb	r3, [sp, #11]
 1103              	.L58:
 1104              		.loc 1 480 0
 1105 064a 9DF80B20 		ldrb	r2, [sp, #11]	@ zero_extendqisi2
 1106 064e BDF80830 		ldrh	r3, [sp, #8]
 1107 0652 0398     		ldr	r0, [sp, #12]
 1108 0654 1146     		mov	r1, r2
 1109 0656 019A     		ldr	r2, [sp, #4]
 1110 0658 FFF7FEFF 		bl	Sensor_IO_I2C_Read
 1111 065c 0346     		mov	r3, r0
 1112 065e 20E0     		b	.L59
 1113              	.L57:
 1114              		.loc 1 483 0
 1115 0660 059B     		ldr	r3, [sp, #20]
 1116 0662 5B78     		ldrb	r3, [r3, #1]	@ zero_extendqisi2
 1117 0664 012B     		cmp	r3, #1
 1118 0666 1BD1     		bne	.L60
 1119              		.loc 1 485 0
 1120 0668 BDF80830 		ldrh	r3, [sp, #8]
 1121 066c 012B     		cmp	r3, #1
 1122 066e 0CD9     		bls	.L61
ARM GAS  /tmp/cc602Zqo.s 			page 21


 1123              		.loc 1 486 0
 1124 0670 059B     		ldr	r3, [sp, #20]
 1125 0672 1B78     		ldrb	r3, [r3]	@ zero_extendqisi2
 1126 0674 332B     		cmp	r3, #51
 1127 0676 01D0     		beq	.L62
 1128 0678 402B     		cmp	r3, #64
 1129              		.loc 1 489 0
 1130 067a 06E0     		b	.L61
 1131              	.L62:
 1132              		.loc 1 488 0
 1133 067c 9DF80B30 		ldrb	r3, [sp, #11]
 1134 0680 43F04003 		orr	r3, r3, #64
 1135 0684 8DF80B30 		strb	r3, [sp, #11]
 1136 0688 00BF     		nop
 1137              	.L61:
 1138              		.loc 1 493 0
 1139 068a 9DF80B20 		ldrb	r2, [sp, #11]	@ zero_extendqisi2
 1140 068e BDF80830 		ldrh	r3, [sp, #8]
 1141 0692 0398     		ldr	r0, [sp, #12]
 1142 0694 1146     		mov	r1, r2
 1143 0696 019A     		ldr	r2, [sp, #4]
 1144 0698 FFF7FEFF 		bl	Sensor_IO_SPI_Read
 1145 069c 0346     		mov	r3, r0
 1146 069e 00E0     		b	.L59
 1147              	.L60:
 1148              		.loc 1 496 0
 1149 06a0 0123     		movs	r3, #1
 1150              	.L59:
 1151              		.loc 1 497 0
 1152 06a2 1846     		mov	r0, r3
 1153 06a4 07B0     		add	sp, sp, #28
 1154              		@ sp needed
 1155 06a6 5DF804FB 		ldr	pc, [sp], #4
 1156              		.cfi_endproc
 1157              	.LFE137:
 1158              		.size	Sensor_IO_Read, .-Sensor_IO_Read
 1159 06aa 00BF     		.align	2
 1160 06ac AFF30080 		.p2align 4,,15
 1161              		.global	Sensor_IO_I2C_Read
 1162              		.thumb
 1163              		.thumb_func
 1164              		.type	Sensor_IO_I2C_Read, %function
 1165              	Sensor_IO_I2C_Read:
 1166              	.LFB138:
 1167              		.loc 1 510 0
 1168              		.cfi_startproc
 1169              		@ args = 0, pretend = 0, frame = 24
 1170              		@ frame_needed = 0, uses_anonymous_args = 0
 1171 06b0 00B5     		push	{lr}
 1172              		.cfi_def_cfa_offset 4
 1173              		.cfi_offset 14, -4
 1174 06b2 87B0     		sub	sp, sp, #28
 1175              		.cfi_def_cfa_offset 32
 1176 06b4 0390     		str	r0, [sp, #12]
 1177 06b6 0192     		str	r2, [sp, #4]
 1178 06b8 0A46     		mov	r2, r1
 1179 06ba 8DF80B20 		strb	r2, [sp, #11]
ARM GAS  /tmp/cc602Zqo.s 			page 22


 1180 06be ADF80830 		strh	r3, [sp, #8]	@ movhi
 1181              		.loc 1 512 0
 1182 06c2 039B     		ldr	r3, [sp, #12]
 1183 06c4 0593     		str	r3, [sp, #20]
 1184              		.loc 1 515 0
 1185 06c6 059B     		ldr	r3, [sp, #20]
 1186 06c8 9978     		ldrb	r1, [r3, #2]	@ zero_extendqisi2
 1187 06ca 9DF80B20 		ldrb	r2, [sp, #11]	@ zero_extendqisi2
 1188 06ce BDF80830 		ldrh	r3, [sp, #8]
 1189 06d2 0846     		mov	r0, r1
 1190 06d4 1146     		mov	r1, r2
 1191 06d6 019A     		ldr	r2, [sp, #4]
 1192 06d8 00F00AFA 		bl	I2C_SENSORTILE_ReadData
 1193 06dc 0346     		mov	r3, r0
 1194              		.loc 1 516 0
 1195 06de 1846     		mov	r0, r3
 1196 06e0 07B0     		add	sp, sp, #28
 1197              		@ sp needed
 1198 06e2 5DF804FB 		ldr	pc, [sp], #4
 1199              		.cfi_endproc
 1200              	.LFE138:
 1201              		.size	Sensor_IO_I2C_Read, .-Sensor_IO_I2C_Read
 1202 06e6 00BF     		.align	2
 1203 06e8 AFF30080 		.p2align 4,,15
 1203      AFF30080 
 1204              		.global	Sensor_IO_SPI_Write
 1205              		.thumb
 1206              		.thumb_func
 1207              		.type	Sensor_IO_SPI_Write, %function
 1208              	Sensor_IO_SPI_Write:
 1209              	.LFB139:
 1210              		.loc 1 529 0
 1211              		.cfi_startproc
 1212              		@ args = 0, pretend = 0, frame = 24
 1213              		@ frame_needed = 0, uses_anonymous_args = 0
 1214 06f0 00B5     		push	{lr}
 1215              		.cfi_def_cfa_offset 4
 1216              		.cfi_offset 14, -4
 1217 06f2 87B0     		sub	sp, sp, #28
 1218              		.cfi_def_cfa_offset 32
 1219 06f4 0390     		str	r0, [sp, #12]
 1220 06f6 0192     		str	r2, [sp, #4]
 1221 06f8 0A46     		mov	r2, r1
 1222 06fa 8DF80B20 		strb	r2, [sp, #11]
 1223 06fe ADF80830 		strh	r3, [sp, #8]	@ movhi
 1224              		.loc 1 533 0
 1225 0702 0398     		ldr	r0, [sp, #12]
 1226 0704 FFF7FEFF 		bl	Sensor_IO_SPI_CS_Enable
 1227              		.loc 1 535 0
 1228 0708 9DF80B30 		ldrb	r3, [sp, #11]	@ zero_extendqisi2
 1229 070c 1248     		ldr	r0, .L70
 1230 070e 1946     		mov	r1, r3
 1231 0710 FFF7FEFF 		bl	SPI_Write
 1232              		.loc 1 537 0
 1233 0714 0023     		movs	r3, #0
 1234 0716 8DF81730 		strb	r3, [sp, #23]
 1235 071a 0DE0     		b	.L67
ARM GAS  /tmp/cc602Zqo.s 			page 23


 1236              	.L68:
 1237              		.loc 1 539 0 discriminator 2
 1238 071c 9DF81730 		ldrb	r3, [sp, #23]	@ zero_extendqisi2
 1239 0720 019A     		ldr	r2, [sp, #4]
 1240 0722 1344     		add	r3, r3, r2
 1241 0724 1B78     		ldrb	r3, [r3]	@ zero_extendqisi2
 1242 0726 0C48     		ldr	r0, .L70
 1243 0728 1946     		mov	r1, r3
 1244 072a FFF7FEFF 		bl	SPI_Write
 1245              		.loc 1 537 0 discriminator 2
 1246 072e 9DF81730 		ldrb	r3, [sp, #23]	@ zero_extendqisi2
 1247 0732 0133     		adds	r3, r3, #1
 1248 0734 8DF81730 		strb	r3, [sp, #23]
 1249              	.L67:
 1250              		.loc 1 537 0 is_stmt 0 discriminator 1
 1251 0738 9DF81730 		ldrb	r3, [sp, #23]	@ zero_extendqisi2
 1252 073c 9BB2     		uxth	r3, r3
 1253 073e BDF80820 		ldrh	r2, [sp, #8]
 1254 0742 9A42     		cmp	r2, r3
 1255 0744 EAD8     		bhi	.L68
 1256              		.loc 1 542 0 is_stmt 1
 1257 0746 0398     		ldr	r0, [sp, #12]
 1258 0748 FFF7FEFF 		bl	Sensor_IO_SPI_CS_Disable
 1259              		.loc 1 544 0
 1260 074c 0023     		movs	r3, #0
 1261              		.loc 1 545 0
 1262 074e 1846     		mov	r0, r3
 1263 0750 07B0     		add	sp, sp, #28
 1264              		@ sp needed
 1265 0752 5DF804FB 		ldr	pc, [sp], #4
 1266              	.L71:
 1267 0756 00BF     		.align	2
 1268              	.L70:
 1269 0758 4C000000 		.word	SPI_Sensor_Handle
 1270              		.cfi_endproc
 1271              	.LFE139:
 1272              		.size	Sensor_IO_SPI_Write, .-Sensor_IO_SPI_Write
 1273              		.align	2
 1274 075c AFF30080 		.p2align 4,,15
 1275              		.global	Sensor_IO_SPI_Read
 1276              		.thumb
 1277              		.thumb_func
 1278              		.type	Sensor_IO_SPI_Read, %function
 1279              	Sensor_IO_SPI_Read:
 1280              	.LFB140:
 1281              		.loc 1 557 0
 1282              		.cfi_startproc
 1283              		@ args = 0, pretend = 0, frame = 24
 1284              		@ frame_needed = 0, uses_anonymous_args = 0
 1285 0760 00B5     		push	{lr}
 1286              		.cfi_def_cfa_offset 4
 1287              		.cfi_offset 14, -4
 1288 0762 87B0     		sub	sp, sp, #28
 1289              		.cfi_def_cfa_offset 32
 1290 0764 0390     		str	r0, [sp, #12]
 1291 0766 0192     		str	r2, [sp, #4]
 1292 0768 0A46     		mov	r2, r1
ARM GAS  /tmp/cc602Zqo.s 			page 24


 1293 076a 8DF80B20 		strb	r2, [sp, #11]
 1294 076e ADF80830 		strh	r3, [sp, #8]	@ movhi
 1295              		.loc 1 561 0
 1296 0772 0398     		ldr	r0, [sp, #12]
 1297 0774 FFF7FEFF 		bl	Sensor_IO_SPI_CS_Enable
 1298              		.loc 1 563 0
 1299 0778 9DF80B30 		ldrb	r3, [sp, #11]
 1300 077c 63F07F03 		orn	r3, r3, #127
 1301 0780 DBB2     		uxtb	r3, r3
 1302 0782 2148     		ldr	r0, .L76
 1303 0784 1946     		mov	r1, r3
 1304 0786 FFF7FEFF 		bl	SPI_Write
 1305              		.loc 1 565 0
 1306 078a 1F4B     		ldr	r3, .L76
 1307 078c 1B68     		ldr	r3, [r3]
 1308 078e 1E4A     		ldr	r2, .L76
 1309 0790 1268     		ldr	r2, [r2]
 1310 0792 1268     		ldr	r2, [r2]
 1311 0794 22F04002 		bic	r2, r2, #64
 1312 0798 1A60     		str	r2, [r3]
 1313              		.loc 1 566 0
 1314 079a 1B4B     		ldr	r3, .L76
 1315 079c 1B68     		ldr	r3, [r3]
 1316 079e 1A4A     		ldr	r2, .L76
 1317 07a0 1268     		ldr	r2, [r2]
 1318 07a2 1268     		ldr	r2, [r2]
 1319 07a4 22F48042 		bic	r2, r2, #16384
 1320 07a8 1A60     		str	r2, [r3]
 1321              		.loc 1 569 0
 1322 07aa 0023     		movs	r3, #0
 1323 07ac 8DF81730 		strb	r3, [sp, #23]
 1324 07b0 0BE0     		b	.L73
 1325              	.L74:
 1326              		.loc 1 571 0 discriminator 2
 1327 07b2 019B     		ldr	r3, [sp, #4]
 1328 07b4 5A1C     		adds	r2, r3, #1
 1329 07b6 0192     		str	r2, [sp, #4]
 1330 07b8 1348     		ldr	r0, .L76
 1331 07ba 1946     		mov	r1, r3
 1332 07bc FFF7FEFF 		bl	SPI_Read
 1333              		.loc 1 569 0 discriminator 2
 1334 07c0 9DF81730 		ldrb	r3, [sp, #23]	@ zero_extendqisi2
 1335 07c4 0133     		adds	r3, r3, #1
 1336 07c6 8DF81730 		strb	r3, [sp, #23]
 1337              	.L73:
 1338              		.loc 1 569 0 is_stmt 0 discriminator 1
 1339 07ca 9DF81730 		ldrb	r3, [sp, #23]	@ zero_extendqisi2
 1340 07ce 9BB2     		uxth	r3, r3
 1341 07d0 BDF80820 		ldrh	r2, [sp, #8]
 1342 07d4 9A42     		cmp	r2, r3
 1343 07d6 ECD8     		bhi	.L74
 1344              		.loc 1 575 0 is_stmt 1
 1345 07d8 0398     		ldr	r0, [sp, #12]
 1346 07da FFF7FEFF 		bl	Sensor_IO_SPI_CS_Disable
 1347              		.loc 1 578 0
 1348 07de 0A4B     		ldr	r3, .L76
 1349 07e0 1B68     		ldr	r3, [r3]
ARM GAS  /tmp/cc602Zqo.s 			page 25


 1350 07e2 094A     		ldr	r2, .L76
 1351 07e4 1268     		ldr	r2, [r2]
 1352 07e6 1268     		ldr	r2, [r2]
 1353 07e8 42F48042 		orr	r2, r2, #16384
 1354 07ec 1A60     		str	r2, [r3]
 1355              		.loc 1 579 0
 1356 07ee 064B     		ldr	r3, .L76
 1357 07f0 1B68     		ldr	r3, [r3]
 1358 07f2 054A     		ldr	r2, .L76
 1359 07f4 1268     		ldr	r2, [r2]
 1360 07f6 1268     		ldr	r2, [r2]
 1361 07f8 42F04002 		orr	r2, r2, #64
 1362 07fc 1A60     		str	r2, [r3]
 1363              		.loc 1 582 0
 1364 07fe 0023     		movs	r3, #0
 1365              		.loc 1 583 0
 1366 0800 1846     		mov	r0, r3
 1367 0802 07B0     		add	sp, sp, #28
 1368              		@ sp needed
 1369 0804 5DF804FB 		ldr	pc, [sp], #4
 1370              	.L77:
 1371              		.align	2
 1372              	.L76:
 1373 0808 4C000000 		.word	SPI_Sensor_Handle
 1374              		.cfi_endproc
 1375              	.LFE140:
 1376              		.size	Sensor_IO_SPI_Read, .-Sensor_IO_SPI_Read
 1377              		.align	2
 1378 080c AFF30080 		.p2align 4,,15
 1379              		.global	Sensor_IO_SPI_CS_Enable
 1380              		.thumb
 1381              		.thumb_func
 1382              		.type	Sensor_IO_SPI_CS_Enable, %function
 1383              	Sensor_IO_SPI_CS_Enable:
 1384              	.LFB141:
 1385              		.loc 1 587 0
 1386              		.cfi_startproc
 1387              		@ args = 0, pretend = 0, frame = 16
 1388              		@ frame_needed = 0, uses_anonymous_args = 0
 1389 0810 00B5     		push	{lr}
 1390              		.cfi_def_cfa_offset 4
 1391              		.cfi_offset 14, -4
 1392 0812 85B0     		sub	sp, sp, #20
 1393              		.cfi_def_cfa_offset 24
 1394 0814 0190     		str	r0, [sp, #4]
 1395              		.loc 1 588 0
 1396 0816 019B     		ldr	r3, [sp, #4]
 1397 0818 0393     		str	r3, [sp, #12]
 1398              		.loc 1 590 0
 1399 081a 039B     		ldr	r3, [sp, #12]
 1400 081c DB78     		ldrb	r3, [r3, #3]	@ zero_extendqisi2
 1401 081e 032B     		cmp	r3, #3
 1402 0820 24D8     		bhi	.L79
 1403 0822 01A2     		adr	r2, .L81
 1404 0824 52F823F0 		ldr	pc, [r2, r3, lsl #2]
 1405              		.p2align 2
 1406              	.L81:
ARM GAS  /tmp/cc602Zqo.s 			page 26


 1407 0828 39080000 		.word	.L80+1
 1408 082c 47080000 		.word	.L82+1
 1409 0830 53080000 		.word	.L83+1
 1410 0834 5F080000 		.word	.L84+1
 1411              		.p2align 1
 1412              	.L80:
 1413              		.loc 1 593 0
 1414 0838 0F48     		ldr	r0, .L86
 1415 083a 4FF48051 		mov	r1, #4096
 1416 083e 0022     		movs	r2, #0
 1417 0840 FFF7FEFF 		bl	HAL_GPIO_WritePin
 1418              		.loc 1 594 0
 1419 0844 12E0     		b	.L79
 1420              	.L82:
 1421              		.loc 1 596 0
 1422 0846 0D48     		ldr	r0, .L86+4
 1423 0848 1021     		movs	r1, #16
 1424 084a 0022     		movs	r2, #0
 1425 084c FFF7FEFF 		bl	HAL_GPIO_WritePin
 1426              		.loc 1 597 0
 1427 0850 0CE0     		b	.L79
 1428              	.L83:
 1429              		.loc 1 599 0
 1430 0852 0948     		ldr	r0, .L86
 1431 0854 0221     		movs	r1, #2
 1432 0856 0022     		movs	r2, #0
 1433 0858 FFF7FEFF 		bl	HAL_GPIO_WritePin
 1434              		.loc 1 600 0
 1435 085c 06E0     		b	.L79
 1436              	.L84:
 1437              		.loc 1 602 0
 1438 085e 4FF09040 		mov	r0, #1207959552
 1439 0862 0821     		movs	r1, #8
 1440 0864 0022     		movs	r2, #0
 1441 0866 FFF7FEFF 		bl	HAL_GPIO_WritePin
 1442              		.loc 1 603 0
 1443 086a 00BF     		nop
 1444              	.L79:
 1445              		.loc 1 605 0
 1446 086c 0023     		movs	r3, #0
 1447              		.loc 1 606 0
 1448 086e 1846     		mov	r0, r3
 1449 0870 05B0     		add	sp, sp, #20
 1450              		@ sp needed
 1451 0872 5DF804FB 		ldr	pc, [sp], #4
 1452              	.L87:
 1453 0876 00BF     		.align	2
 1454              	.L86:
 1455 0878 00040048 		.word	1207960576
 1456 087c 00080048 		.word	1207961600
 1457              		.cfi_endproc
 1458              	.LFE141:
 1459              		.size	Sensor_IO_SPI_CS_Enable, .-Sensor_IO_SPI_CS_Enable
 1460              		.align	2
 1461              		.p2align 4,,15
 1462              		.global	Sensor_IO_SPI_CS_Disable
 1463              		.thumb
ARM GAS  /tmp/cc602Zqo.s 			page 27


 1464              		.thumb_func
 1465              		.type	Sensor_IO_SPI_CS_Disable, %function
 1466              	Sensor_IO_SPI_CS_Disable:
 1467              	.LFB142:
 1468              		.loc 1 609 0
 1469              		.cfi_startproc
 1470              		@ args = 0, pretend = 0, frame = 16
 1471              		@ frame_needed = 0, uses_anonymous_args = 0
 1472 0880 00B5     		push	{lr}
 1473              		.cfi_def_cfa_offset 4
 1474              		.cfi_offset 14, -4
 1475 0882 85B0     		sub	sp, sp, #20
 1476              		.cfi_def_cfa_offset 24
 1477 0884 0190     		str	r0, [sp, #4]
 1478              		.loc 1 610 0
 1479 0886 019B     		ldr	r3, [sp, #4]
 1480 0888 0393     		str	r3, [sp, #12]
 1481              		.loc 1 612 0
 1482 088a 039B     		ldr	r3, [sp, #12]
 1483 088c DB78     		ldrb	r3, [r3, #3]	@ zero_extendqisi2
 1484 088e 032B     		cmp	r3, #3
 1485 0890 24D8     		bhi	.L89
 1486 0892 01A2     		adr	r2, .L91
 1487 0894 52F823F0 		ldr	pc, [r2, r3, lsl #2]
 1488              		.p2align 2
 1489              	.L91:
 1490 0898 A9080000 		.word	.L90+1
 1491 089c B7080000 		.word	.L92+1
 1492 08a0 C3080000 		.word	.L93+1
 1493 08a4 CF080000 		.word	.L94+1
 1494              		.p2align 1
 1495              	.L90:
 1496              		.loc 1 615 0
 1497 08a8 0F48     		ldr	r0, .L96
 1498 08aa 4FF48051 		mov	r1, #4096
 1499 08ae 0122     		movs	r2, #1
 1500 08b0 FFF7FEFF 		bl	HAL_GPIO_WritePin
 1501              		.loc 1 616 0
 1502 08b4 12E0     		b	.L89
 1503              	.L92:
 1504              		.loc 1 618 0
 1505 08b6 0D48     		ldr	r0, .L96+4
 1506 08b8 1021     		movs	r1, #16
 1507 08ba 0122     		movs	r2, #1
 1508 08bc FFF7FEFF 		bl	HAL_GPIO_WritePin
 1509              		.loc 1 619 0
 1510 08c0 0CE0     		b	.L89
 1511              	.L93:
 1512              		.loc 1 621 0
 1513 08c2 0948     		ldr	r0, .L96
 1514 08c4 0221     		movs	r1, #2
 1515 08c6 0122     		movs	r2, #1
 1516 08c8 FFF7FEFF 		bl	HAL_GPIO_WritePin
 1517              		.loc 1 622 0
 1518 08cc 06E0     		b	.L89
 1519              	.L94:
 1520              		.loc 1 624 0
ARM GAS  /tmp/cc602Zqo.s 			page 28


 1521 08ce 4FF09040 		mov	r0, #1207959552
 1522 08d2 0821     		movs	r1, #8
 1523 08d4 0122     		movs	r2, #1
 1524 08d6 FFF7FEFF 		bl	HAL_GPIO_WritePin
 1525              		.loc 1 625 0
 1526 08da 00BF     		nop
 1527              	.L89:
 1528              		.loc 1 627 0
 1529 08dc 0023     		movs	r3, #0
 1530              		.loc 1 628 0
 1531 08de 1846     		mov	r0, r3
 1532 08e0 05B0     		add	sp, sp, #20
 1533              		@ sp needed
 1534 08e2 5DF804FB 		ldr	pc, [sp], #4
 1535              	.L97:
 1536 08e6 00BF     		.align	2
 1537              	.L96:
 1538 08e8 00040048 		.word	1207960576
 1539 08ec 00080048 		.word	1207961600
 1540              		.cfi_endproc
 1541              	.LFE142:
 1542              		.size	Sensor_IO_SPI_CS_Disable, .-Sensor_IO_SPI_CS_Disable
 1543              		.align	2
 1544              		.p2align 4,,15
 1545              		.global	LSM6DSM_Sensor_IO_ITConfig
 1546              		.thumb
 1547              		.thumb_func
 1548              		.type	LSM6DSM_Sensor_IO_ITConfig, %function
 1549              	LSM6DSM_Sensor_IO_ITConfig:
 1550              	.LFB143:
 1551              		.loc 1 637 0
 1552              		.cfi_startproc
 1553              		@ args = 0, pretend = 0, frame = 24
 1554              		@ frame_needed = 0, uses_anonymous_args = 0
 1555 08f0 00B5     		push	{lr}
 1556              		.cfi_def_cfa_offset 4
 1557              		.cfi_offset 14, -4
 1558 08f2 87B0     		sub	sp, sp, #28
 1559              		.cfi_def_cfa_offset 32
 1560              	.LBB19:
 1561              		.loc 1 643 0
 1562 08f4 134B     		ldr	r3, .L100
 1563 08f6 134A     		ldr	r2, .L100
 1564 08f8 D26C     		ldr	r2, [r2, #76]
 1565 08fa 42F00102 		orr	r2, r2, #1
 1566 08fe DA64     		str	r2, [r3, #76]
 1567 0900 104B     		ldr	r3, .L100
 1568 0902 DB6C     		ldr	r3, [r3, #76]
 1569 0904 03F00103 		and	r3, r3, #1
 1570 0908 0093     		str	r3, [sp]
 1571 090a 009B     		ldr	r3, [sp]
 1572              	.LBE19:
 1573              		.loc 1 646 0
 1574 090c 0423     		movs	r3, #4
 1575 090e 0193     		str	r3, [sp, #4]
 1576              		.loc 1 647 0
 1577 0910 0D4B     		ldr	r3, .L100+4
ARM GAS  /tmp/cc602Zqo.s 			page 29


 1578 0912 0293     		str	r3, [sp, #8]
 1579              		.loc 1 648 0
 1580 0914 0223     		movs	r3, #2
 1581 0916 0493     		str	r3, [sp, #16]
 1582              		.loc 1 649 0
 1583 0918 0023     		movs	r3, #0
 1584 091a 0393     		str	r3, [sp, #12]
 1585              		.loc 1 650 0
 1586 091c 01AB     		add	r3, sp, #4
 1587 091e 4FF09040 		mov	r0, #1207959552
 1588 0922 1946     		mov	r1, r3
 1589 0924 FFF7FEFF 		bl	HAL_GPIO_Init
 1590              		.loc 1 653 0
 1591 0928 0820     		movs	r0, #8
 1592 092a 0021     		movs	r1, #0
 1593 092c 0022     		movs	r2, #0
 1594 092e FFF7FEFF 		bl	HAL_NVIC_SetPriority
 1595              		.loc 1 654 0
 1596 0932 0820     		movs	r0, #8
 1597 0934 FFF7FEFF 		bl	HAL_NVIC_EnableIRQ
 1598              		.loc 1 656 0
 1599 0938 0023     		movs	r3, #0
 1600              		.loc 1 657 0
 1601 093a 1846     		mov	r0, r3
 1602 093c 07B0     		add	sp, sp, #28
 1603              		@ sp needed
 1604 093e 5DF804FB 		ldr	pc, [sp], #4
 1605              	.L101:
 1606 0942 00BF     		.align	2
 1607              	.L100:
 1608 0944 00100240 		.word	1073876992
 1609 0948 00001110 		.word	269549568
 1610              		.cfi_endproc
 1611              	.LFE143:
 1612              		.size	LSM6DSM_Sensor_IO_ITConfig, .-LSM6DSM_Sensor_IO_ITConfig
 1613              		.align	2
 1614 094c AFF30080 		.p2align 4,,15
 1615              		.global	SPI_Read
 1616              		.thumb
 1617              		.thumb_func
 1618              		.type	SPI_Read, %function
 1619              	SPI_Read:
 1620              	.LFB144:
 1621              		.loc 1 667 0
 1622              		.cfi_startproc
 1623              		@ args = 0, pretend = 0, frame = 8
 1624              		@ frame_needed = 0, uses_anonymous_args = 0
 1625              		@ link register save eliminated.
 1626 0950 82B0     		sub	sp, sp, #8
 1627              		.cfi_def_cfa_offset 8
 1628 0952 0190     		str	r0, [sp, #4]
 1629 0954 0091     		str	r1, [sp]
 1630              	.LBB20:
 1631              	.LBB21:
 1632              		.file 2 "../../../../../../ChibiOS/os/ext/CMSIS/include/core_cmFunc.h"
 1633              		.loc 2 344 0
 1634              	@ 344 "../../../../../../ChibiOS/os/ext/CMSIS/include/core_cmFunc.h" 1
ARM GAS  /tmp/cc602Zqo.s 			page 30


 1635 0956 72B6     		cpsid i
 1636              	@ 0 "" 2
 1637              		.thumb
 1638              	.LBE21:
 1639              	.LBE20:
 1640              		.loc 1 675 0
 1641 0958 019B     		ldr	r3, [sp, #4]
 1642 095a 1B68     		ldr	r3, [r3]
 1643 095c 019A     		ldr	r2, [sp, #4]
 1644 095e 1268     		ldr	r2, [r2]
 1645 0960 1268     		ldr	r2, [r2]
 1646 0962 42F04002 		orr	r2, r2, #64
 1647 0966 1A60     		str	r2, [r3]
 1648              		.loc 1 676 0
 1649              	@ 676 "../../../../../Drivers/BSP/SensorTile/SensorTile.c" 1
 1650 0968 BFF34F8F 		dsb
 1651              	
 1652              	@ 0 "" 2
 1653              		.loc 1 677 0
 1654              	@ 677 "../../../../../Drivers/BSP/SensorTile/SensorTile.c" 1
 1655 096c BFF34F8F 		dsb
 1656              	
 1657              	@ 0 "" 2
 1658              		.loc 1 678 0
 1659              		.thumb
 1660 0970 019B     		ldr	r3, [sp, #4]
 1661 0972 1B68     		ldr	r3, [r3]
 1662 0974 019A     		ldr	r2, [sp, #4]
 1663 0976 1268     		ldr	r2, [r2]
 1664 0978 1268     		ldr	r2, [r2]
 1665 097a 22F04002 		bic	r2, r2, #64
 1666 097e 1A60     		str	r2, [r3]
 1667              	.LBB22:
 1668              	.LBB23:
 1669              		.loc 2 333 0
 1670              	@ 333 "../../../../../../ChibiOS/os/ext/CMSIS/include/core_cmFunc.h" 1
 1671 0980 62B6     		cpsie i
 1672              	@ 0 "" 2
 1673              		.thumb
 1674              	.LBE23:
 1675              	.LBE22:
 1676              		.loc 1 682 0
 1677 0982 00BF     		nop
 1678              	.L103:
 1679              		.loc 1 682 0 is_stmt 0 discriminator 1
 1680 0984 019B     		ldr	r3, [sp, #4]
 1681 0986 1B68     		ldr	r3, [r3]
 1682 0988 9B68     		ldr	r3, [r3, #8]
 1683 098a 03F00103 		and	r3, r3, #1
 1684 098e 002B     		cmp	r3, #0
 1685 0990 F8D0     		beq	.L103
 1686              		.loc 1 684 0 is_stmt 1
 1687 0992 019B     		ldr	r3, [sp, #4]
 1688 0994 1B68     		ldr	r3, [r3]
 1689 0996 0C33     		adds	r3, r3, #12
 1690 0998 1B78     		ldrb	r3, [r3]
 1691 099a DAB2     		uxtb	r2, r3
ARM GAS  /tmp/cc602Zqo.s 			page 31


 1692 099c 009B     		ldr	r3, [sp]
 1693 099e 1A70     		strb	r2, [r3]
 1694              		.loc 1 685 0
 1695 09a0 00BF     		nop
 1696              	.L104:
 1697              		.loc 1 685 0 is_stmt 0 discriminator 1
 1698 09a2 019B     		ldr	r3, [sp, #4]
 1699 09a4 1B68     		ldr	r3, [r3]
 1700 09a6 9B68     		ldr	r3, [r3, #8]
 1701 09a8 03F08003 		and	r3, r3, #128
 1702 09ac 002B     		cmp	r3, #0
 1703 09ae F8D1     		bne	.L104
 1704              		.loc 1 686 0 is_stmt 1
 1705 09b0 02B0     		add	sp, sp, #8
 1706              		@ sp needed
 1707 09b2 7047     		bx	lr
 1708              		.cfi_endproc
 1709              	.LFE144:
 1710              		.size	SPI_Read, .-SPI_Read
 1711              		.align	2
 1712 09b4 AFF30080 		.p2align 4,,15
 1712      AFF30080 
 1712      AFF30080 
 1713              		.global	SPI_Write
 1714              		.thumb
 1715              		.thumb_func
 1716              		.type	SPI_Write, %function
 1717              	SPI_Write:
 1718              	.LFB145:
 1719              		.loc 1 695 0
 1720              		.cfi_startproc
 1721              		@ args = 0, pretend = 0, frame = 8
 1722              		@ frame_needed = 0, uses_anonymous_args = 0
 1723              		@ link register save eliminated.
 1724 09c0 82B0     		sub	sp, sp, #8
 1725              		.cfi_def_cfa_offset 8
 1726 09c2 0190     		str	r0, [sp, #4]
 1727 09c4 0B46     		mov	r3, r1
 1728 09c6 8DF80330 		strb	r3, [sp, #3]
 1729              		.loc 1 697 0
 1730 09ca 00BF     		nop
 1731              	.L106:
 1732              		.loc 1 697 0 is_stmt 0 discriminator 1
 1733 09cc 019B     		ldr	r3, [sp, #4]
 1734 09ce 1B68     		ldr	r3, [r3]
 1735 09d0 9B68     		ldr	r3, [r3, #8]
 1736 09d2 03F00203 		and	r3, r3, #2
 1737 09d6 002B     		cmp	r3, #0
 1738 09d8 F8D0     		beq	.L106
 1739              		.loc 1 700 0 is_stmt 1
 1740 09da 019B     		ldr	r3, [sp, #4]
 1741 09dc 1B68     		ldr	r3, [r3]
 1742 09de 0C33     		adds	r3, r3, #12
 1743 09e0 9DF80320 		ldrb	r2, [sp, #3]
 1744 09e4 1A70     		strb	r2, [r3]
 1745              		.loc 1 703 0
 1746 09e6 00BF     		nop
ARM GAS  /tmp/cc602Zqo.s 			page 32


 1747              	.L107:
 1748              		.loc 1 703 0 is_stmt 0 discriminator 1
 1749 09e8 019B     		ldr	r3, [sp, #4]
 1750 09ea 1B68     		ldr	r3, [r3]
 1751 09ec 9B68     		ldr	r3, [r3, #8]
 1752 09ee 03F4C053 		and	r3, r3, #6144
 1753 09f2 002B     		cmp	r3, #0
 1754 09f4 F8D1     		bne	.L107
 1755              		.loc 1 704 0 is_stmt 1
 1756 09f6 00BF     		nop
 1757              	.L108:
 1758              		.loc 1 704 0 is_stmt 0 discriminator 1
 1759 09f8 019B     		ldr	r3, [sp, #4]
 1760 09fa 1B68     		ldr	r3, [r3]
 1761 09fc 9B68     		ldr	r3, [r3, #8]
 1762 09fe 03F08003 		and	r3, r3, #128
 1763 0a02 002B     		cmp	r3, #0
 1764 0a04 F8D1     		bne	.L108
 1765              		.loc 1 705 0 is_stmt 1
 1766 0a06 02B0     		add	sp, sp, #8
 1767              		@ sp needed
 1768 0a08 7047     		bx	lr
 1769              		.cfi_endproc
 1770              	.LFE145:
 1771              		.size	SPI_Write, .-SPI_Write
 1772 0a0a 00BF     		.align	2
 1773 0a0c AFF30080 		.p2align 4,,15
 1774              		.thumb
 1775              		.thumb_func
 1776              		.type	I2C_SENSORTILE_Init, %function
 1777              	I2C_SENSORTILE_Init:
 1778              	.LFB146:
 1779              		.loc 1 717 0
 1780              		.cfi_startproc
 1781              		@ args = 0, pretend = 0, frame = 0
 1782              		@ frame_needed = 0, uses_anonymous_args = 0
 1783 0a10 08B5     		push	{r3, lr}
 1784              		.cfi_def_cfa_offset 8
 1785              		.cfi_offset 3, -8
 1786              		.cfi_offset 14, -4
 1787              		.loc 1 718 0
 1788 0a12 1148     		ldr	r0, .L113
 1789 0a14 FFF7FEFF 		bl	HAL_I2C_GetState
 1790 0a18 0346     		mov	r3, r0
 1791 0a1a 002B     		cmp	r3, #0
 1792 0a1c 10D1     		bne	.L110
 1793              		.loc 1 721 0
 1794 0a1e 0E4B     		ldr	r3, .L113
 1795 0a20 0E4A     		ldr	r2, .L113+4
 1796 0a22 5A60     		str	r2, [r3, #4]
 1797              		.loc 1 722 0
 1798 0a24 0C4B     		ldr	r3, .L113
 1799 0a26 3322     		movs	r2, #51
 1800 0a28 9A60     		str	r2, [r3, #8]
 1801              		.loc 1 723 0
 1802 0a2a 0B4B     		ldr	r3, .L113
 1803 0a2c 0122     		movs	r2, #1
ARM GAS  /tmp/cc602Zqo.s 			page 33


 1804 0a2e DA60     		str	r2, [r3, #12]
 1805              		.loc 1 724 0
 1806 0a30 094B     		ldr	r3, .L113
 1807 0a32 0B4A     		ldr	r2, .L113+8
 1808 0a34 1A60     		str	r2, [r3]
 1809              		.loc 1 727 0
 1810 0a36 00F0ABF8 		bl	I2C_SENSORTILE_MspInit
 1811              		.loc 1 728 0
 1812 0a3a 0748     		ldr	r0, .L113
 1813 0a3c FFF7FEFF 		bl	HAL_I2C_Init
 1814              	.L110:
 1815              		.loc 1 731 0
 1816 0a40 0548     		ldr	r0, .L113
 1817 0a42 FFF7FEFF 		bl	HAL_I2C_GetState
 1818 0a46 0346     		mov	r3, r0
 1819 0a48 202B     		cmp	r3, #32
 1820 0a4a 01D1     		bne	.L111
 1821              		.loc 1 733 0
 1822 0a4c 0023     		movs	r3, #0
 1823 0a4e 00E0     		b	.L112
 1824              	.L111:
 1825              		.loc 1 737 0
 1826 0a50 0123     		movs	r3, #1
 1827              	.L112:
 1828              		.loc 1 739 0
 1829 0a52 1846     		mov	r0, r3
 1830 0a54 08BD     		pop	{r3, pc}
 1831              	.L114:
 1832 0a56 00BF     		.align	2
 1833              	.L113:
 1834 0a58 00000000 		.word	I2C_SENSORTILE_Handle
 1835 0a5c EC9C9010 		.word	277912812
 1836 0a60 005C0040 		.word	1073765376
 1837              		.cfi_endproc
 1838              	.LFE146:
 1839              		.size	I2C_SENSORTILE_Init, .-I2C_SENSORTILE_Init
 1840              		.align	2
 1841 0a64 AFF30080 		.p2align 4,,15
 1841      AFF30080 
 1841      AFF30080 
 1842              		.thumb
 1843              		.thumb_func
 1844              		.type	I2C_SENSORTILE_WriteData, %function
 1845              	I2C_SENSORTILE_WriteData:
 1846              	.LFB147:
 1847              		.loc 1 753 0
 1848              		.cfi_startproc
 1849              		@ args = 0, pretend = 0, frame = 16
 1850              		@ frame_needed = 0, uses_anonymous_args = 0
 1851 0a70 00B5     		push	{lr}
 1852              		.cfi_def_cfa_offset 4
 1853              		.cfi_offset 14, -4
 1854 0a72 89B0     		sub	sp, sp, #36
 1855              		.cfi_def_cfa_offset 40
 1856 0a74 0492     		str	r2, [sp, #16]
 1857 0a76 0246     		mov	r2, r0
 1858 0a78 8DF81720 		strb	r2, [sp, #23]
ARM GAS  /tmp/cc602Zqo.s 			page 34


 1859 0a7c 0A46     		mov	r2, r1
 1860 0a7e 8DF81620 		strb	r2, [sp, #22]
 1861 0a82 ADF81430 		strh	r3, [sp, #20]	@ movhi
 1862              		.loc 1 755 0
 1863 0a86 0023     		movs	r3, #0
 1864 0a88 8DF81F30 		strb	r3, [sp, #31]
 1865              		.loc 1 757 0
 1866 0a8c 9DF81730 		ldrb	r3, [sp, #23]	@ zero_extendqisi2
 1867 0a90 9AB2     		uxth	r2, r3
 1868 0a92 9DF81630 		ldrb	r3, [sp, #22]	@ zero_extendqisi2
 1869 0a96 9BB2     		uxth	r3, r3
 1870 0a98 1049     		ldr	r1, .L118
 1871 0a9a 0968     		ldr	r1, [r1]
 1872 0a9c 0498     		ldr	r0, [sp, #16]
 1873 0a9e 0090     		str	r0, [sp]
 1874 0aa0 BDF81400 		ldrh	r0, [sp, #20]
 1875 0aa4 0190     		str	r0, [sp, #4]
 1876 0aa6 0291     		str	r1, [sp, #8]
 1877 0aa8 0D48     		ldr	r0, .L118+4
 1878 0aaa 1146     		mov	r1, r2
 1879 0aac 1A46     		mov	r2, r3
 1880 0aae 0123     		movs	r3, #1
 1881 0ab0 FFF7FEFF 		bl	HAL_I2C_Mem_Write
 1882 0ab4 0346     		mov	r3, r0
 1883 0ab6 8DF81F30 		strb	r3, [sp, #31]
 1884              		.loc 1 760 0
 1885 0aba 9DF81F30 		ldrb	r3, [sp, #31]	@ zero_extendqisi2
 1886 0abe 002B     		cmp	r3, #0
 1887 0ac0 06D0     		beq	.L116
 1888              		.loc 1 764 0
 1889 0ac2 9DF81730 		ldrb	r3, [sp, #23]	@ zero_extendqisi2
 1890 0ac6 1846     		mov	r0, r3
 1891 0ac8 00F052F8 		bl	I2C_SENSORTILE_Error
 1892              		.loc 1 765 0
 1893 0acc 0123     		movs	r3, #1
 1894 0ace 00E0     		b	.L117
 1895              	.L116:
 1896              		.loc 1 769 0
 1897 0ad0 0023     		movs	r3, #0
 1898              	.L117:
 1899              		.loc 1 771 0
 1900 0ad2 1846     		mov	r0, r3
 1901 0ad4 09B0     		add	sp, sp, #36
 1902              		@ sp needed
 1903 0ad6 5DF804FB 		ldr	pc, [sp], #4
 1904              	.L119:
 1905 0ada 00BF     		.align	2
 1906              	.L118:
 1907 0adc 00000000 		.word	I2C_SENSORTILE_Timeout
 1908 0ae0 00000000 		.word	I2C_SENSORTILE_Handle
 1909              		.cfi_endproc
 1910              	.LFE147:
 1911              		.size	I2C_SENSORTILE_WriteData, .-I2C_SENSORTILE_WriteData
 1912              		.align	2
 1913 0ae4 AFF30080 		.p2align 4,,15
 1913      AFF30080 
 1913      AFF30080 
ARM GAS  /tmp/cc602Zqo.s 			page 35


 1914              		.thumb
 1915              		.thumb_func
 1916              		.type	I2C_SENSORTILE_ReadData, %function
 1917              	I2C_SENSORTILE_ReadData:
 1918              	.LFB148:
 1919              		.loc 1 785 0
 1920              		.cfi_startproc
 1921              		@ args = 0, pretend = 0, frame = 16
 1922              		@ frame_needed = 0, uses_anonymous_args = 0
 1923 0af0 00B5     		push	{lr}
 1924              		.cfi_def_cfa_offset 4
 1925              		.cfi_offset 14, -4
 1926 0af2 89B0     		sub	sp, sp, #36
 1927              		.cfi_def_cfa_offset 40
 1928 0af4 0492     		str	r2, [sp, #16]
 1929 0af6 0246     		mov	r2, r0
 1930 0af8 8DF81720 		strb	r2, [sp, #23]
 1931 0afc 0A46     		mov	r2, r1
 1932 0afe 8DF81620 		strb	r2, [sp, #22]
 1933 0b02 ADF81430 		strh	r3, [sp, #20]	@ movhi
 1934              		.loc 1 787 0
 1935 0b06 0023     		movs	r3, #0
 1936 0b08 8DF81F30 		strb	r3, [sp, #31]
 1937              		.loc 1 789 0
 1938 0b0c 9DF81730 		ldrb	r3, [sp, #23]	@ zero_extendqisi2
 1939 0b10 9AB2     		uxth	r2, r3
 1940 0b12 9DF81630 		ldrb	r3, [sp, #22]	@ zero_extendqisi2
 1941 0b16 9BB2     		uxth	r3, r3
 1942 0b18 1049     		ldr	r1, .L123
 1943 0b1a 0968     		ldr	r1, [r1]
 1944 0b1c 0498     		ldr	r0, [sp, #16]
 1945 0b1e 0090     		str	r0, [sp]
 1946 0b20 BDF81400 		ldrh	r0, [sp, #20]
 1947 0b24 0190     		str	r0, [sp, #4]
 1948 0b26 0291     		str	r1, [sp, #8]
 1949 0b28 0D48     		ldr	r0, .L123+4
 1950 0b2a 1146     		mov	r1, r2
 1951 0b2c 1A46     		mov	r2, r3
 1952 0b2e 0123     		movs	r3, #1
 1953 0b30 FFF7FEFF 		bl	HAL_I2C_Mem_Read
 1954 0b34 0346     		mov	r3, r0
 1955 0b36 8DF81F30 		strb	r3, [sp, #31]
 1956              		.loc 1 792 0
 1957 0b3a 9DF81F30 		ldrb	r3, [sp, #31]	@ zero_extendqisi2
 1958 0b3e 002B     		cmp	r3, #0
 1959 0b40 06D0     		beq	.L121
 1960              		.loc 1 796 0
 1961 0b42 9DF81730 		ldrb	r3, [sp, #23]	@ zero_extendqisi2
 1962 0b46 1846     		mov	r0, r3
 1963 0b48 00F012F8 		bl	I2C_SENSORTILE_Error
 1964              		.loc 1 797 0
 1965 0b4c 0123     		movs	r3, #1
 1966 0b4e 00E0     		b	.L122
 1967              	.L121:
 1968              		.loc 1 801 0
 1969 0b50 0023     		movs	r3, #0
 1970              	.L122:
ARM GAS  /tmp/cc602Zqo.s 			page 36


 1971              		.loc 1 803 0
 1972 0b52 1846     		mov	r0, r3
 1973 0b54 09B0     		add	sp, sp, #36
 1974              		@ sp needed
 1975 0b56 5DF804FB 		ldr	pc, [sp], #4
 1976              	.L124:
 1977 0b5a 00BF     		.align	2
 1978              	.L123:
 1979 0b5c 00000000 		.word	I2C_SENSORTILE_Timeout
 1980 0b60 00000000 		.word	I2C_SENSORTILE_Handle
 1981              		.cfi_endproc
 1982              	.LFE148:
 1983              		.size	I2C_SENSORTILE_ReadData, .-I2C_SENSORTILE_ReadData
 1984              		.align	2
 1985 0b64 AFF30080 		.p2align 4,,15
 1985      AFF30080 
 1985      AFF30080 
 1986              		.thumb
 1987              		.thumb_func
 1988              		.type	I2C_SENSORTILE_Error, %function
 1989              	I2C_SENSORTILE_Error:
 1990              	.LFB149:
 1991              		.loc 1 813 0
 1992              		.cfi_startproc
 1993              		@ args = 0, pretend = 0, frame = 8
 1994              		@ frame_needed = 0, uses_anonymous_args = 0
 1995 0b70 00B5     		push	{lr}
 1996              		.cfi_def_cfa_offset 4
 1997              		.cfi_offset 14, -4
 1998 0b72 83B0     		sub	sp, sp, #12
 1999              		.cfi_def_cfa_offset 16
 2000 0b74 0346     		mov	r3, r0
 2001 0b76 8DF80730 		strb	r3, [sp, #7]
 2002              		.loc 1 815 0
 2003 0b7a 0448     		ldr	r0, .L126
 2004 0b7c FFF7FEFF 		bl	HAL_I2C_DeInit
 2005              		.loc 1 818 0
 2006 0b80 FFF746FF 		bl	I2C_SENSORTILE_Init
 2007              		.loc 1 819 0
 2008 0b84 03B0     		add	sp, sp, #12
 2009              		@ sp needed
 2010 0b86 5DF804FB 		ldr	pc, [sp], #4
 2011              	.L127:
 2012 0b8a 00BF     		.align	2
 2013              	.L126:
 2014 0b8c 00000000 		.word	I2C_SENSORTILE_Handle
 2015              		.cfi_endproc
 2016              	.LFE149:
 2017              		.size	I2C_SENSORTILE_Error, .-I2C_SENSORTILE_Error
 2018              		.align	2
 2019              		.p2align 4,,15
 2020              		.thumb
 2021              		.thumb_func
 2022              		.type	I2C_SENSORTILE_MspInit, %function
 2023              	I2C_SENSORTILE_MspInit:
 2024              	.LFB150:
 2025              		.loc 1 830 0
ARM GAS  /tmp/cc602Zqo.s 			page 37


 2026              		.cfi_startproc
 2027              		@ args = 0, pretend = 0, frame = 168
 2028              		@ frame_needed = 0, uses_anonymous_args = 0
 2029 0b90 00B5     		push	{lr}
 2030              		.cfi_def_cfa_offset 4
 2031              		.cfi_offset 14, -4
 2032 0b92 ABB0     		sub	sp, sp, #172
 2033              		.cfi_def_cfa_offset 176
 2034              		.loc 1 836 0
 2035 0b94 4FF48073 		mov	r3, #256
 2036 0b98 0393     		str	r3, [sp, #12]
 2037              		.loc 1 837 0
 2038 0b9a 4FF48033 		mov	r3, #65536
 2039 0b9e 1993     		str	r3, [sp, #100]
 2040              		.loc 1 838 0
 2041 0ba0 03AB     		add	r3, sp, #12
 2042 0ba2 1846     		mov	r0, r3
 2043 0ba4 FFF7FEFF 		bl	HAL_RCCEx_PeriphCLKConfig
 2044              	.LBB24:
 2045              		.loc 1 841 0
 2046 0ba8 224B     		ldr	r3, .L129
 2047 0baa 224A     		ldr	r2, .L129
 2048 0bac D26C     		ldr	r2, [r2, #76]
 2049 0bae 42F00402 		orr	r2, r2, #4
 2050 0bb2 DA64     		str	r2, [r3, #76]
 2051 0bb4 1F4B     		ldr	r3, .L129
 2052 0bb6 DB6C     		ldr	r3, [r3, #76]
 2053 0bb8 03F00403 		and	r3, r3, #4
 2054 0bbc 0293     		str	r3, [sp, #8]
 2055 0bbe 029B     		ldr	r3, [sp, #8]
 2056              	.LBE24:
 2057              		.loc 1 844 0
 2058 0bc0 0323     		movs	r3, #3
 2059 0bc2 2593     		str	r3, [sp, #148]
 2060              		.loc 1 845 0
 2061 0bc4 1223     		movs	r3, #18
 2062 0bc6 2693     		str	r3, [sp, #152]
 2063              		.loc 1 846 0
 2064 0bc8 0223     		movs	r3, #2
 2065 0bca 2893     		str	r3, [sp, #160]
 2066              		.loc 1 847 0
 2067 0bcc 0123     		movs	r3, #1
 2068 0bce 2793     		str	r3, [sp, #156]
 2069              		.loc 1 848 0
 2070 0bd0 0423     		movs	r3, #4
 2071 0bd2 2993     		str	r3, [sp, #164]
 2072              		.loc 1 850 0
 2073 0bd4 25AB     		add	r3, sp, #148
 2074 0bd6 1848     		ldr	r0, .L129+4
 2075 0bd8 1946     		mov	r1, r3
 2076 0bda FFF7FEFF 		bl	HAL_GPIO_Init
 2077              	.LBB25:
 2078              		.loc 1 853 0
 2079 0bde 154B     		ldr	r3, .L129
 2080 0be0 144A     		ldr	r2, .L129
 2081 0be2 926D     		ldr	r2, [r2, #88]
 2082 0be4 42F40002 		orr	r2, r2, #8388608
ARM GAS  /tmp/cc602Zqo.s 			page 38


 2083 0be8 9A65     		str	r2, [r3, #88]
 2084 0bea 124B     		ldr	r3, .L129
 2085 0bec 9B6D     		ldr	r3, [r3, #88]
 2086 0bee 03F40003 		and	r3, r3, #8388608
 2087 0bf2 0193     		str	r3, [sp, #4]
 2088 0bf4 019B     		ldr	r3, [sp, #4]
 2089              	.LBE25:
 2090              		.loc 1 856 0
 2091 0bf6 0F4B     		ldr	r3, .L129
 2092 0bf8 0E4A     		ldr	r2, .L129
 2093 0bfa 926B     		ldr	r2, [r2, #56]
 2094 0bfc 42F40002 		orr	r2, r2, #8388608
 2095 0c00 9A63     		str	r2, [r3, #56]
 2096              		.loc 1 859 0
 2097 0c02 0C4B     		ldr	r3, .L129
 2098 0c04 0B4A     		ldr	r2, .L129
 2099 0c06 926B     		ldr	r2, [r2, #56]
 2100 0c08 22F40002 		bic	r2, r2, #8388608
 2101 0c0c 9A63     		str	r2, [r3, #56]
 2102              		.loc 1 862 0
 2103 0c0e 4820     		movs	r0, #72
 2104 0c10 0021     		movs	r1, #0
 2105 0c12 0022     		movs	r2, #0
 2106 0c14 FFF7FEFF 		bl	HAL_NVIC_SetPriority
 2107              		.loc 1 863 0
 2108 0c18 4820     		movs	r0, #72
 2109 0c1a FFF7FEFF 		bl	HAL_NVIC_EnableIRQ
 2110              		.loc 1 866 0
 2111 0c1e 4920     		movs	r0, #73
 2112 0c20 0021     		movs	r1, #0
 2113 0c22 0022     		movs	r2, #0
 2114 0c24 FFF7FEFF 		bl	HAL_NVIC_SetPriority
 2115              		.loc 1 867 0
 2116 0c28 4920     		movs	r0, #73
 2117 0c2a FFF7FEFF 		bl	HAL_NVIC_EnableIRQ
 2118              		.loc 1 869 0
 2119 0c2e 2BB0     		add	sp, sp, #172
 2120              		@ sp needed
 2121 0c30 5DF804FB 		ldr	pc, [sp], #4
 2122              	.L130:
 2123              		.align	2
 2124              	.L129:
 2125 0c34 00100240 		.word	1073876992
 2126 0c38 00080048 		.word	1207961600
 2127              		.cfi_endproc
 2128              	.LFE150:
 2129              		.size	I2C_SENSORTILE_MspInit, .-I2C_SENSORTILE_MspInit
 2130              		.align	2
 2131 0c3c AFF30080 		.p2align 4,,15
 2132              		.thumb
 2133              		.thumb_func
 2134              		.type	SD_IO_SPI_MspInit, %function
 2135              	SD_IO_SPI_MspInit:
 2136              	.LFB151:
 2137              		.loc 1 879 0
 2138              		.cfi_startproc
 2139              		@ args = 0, pretend = 0, frame = 48
ARM GAS  /tmp/cc602Zqo.s 			page 39


 2140              		@ frame_needed = 0, uses_anonymous_args = 0
 2141 0c40 00B5     		push	{lr}
 2142              		.cfi_def_cfa_offset 4
 2143              		.cfi_offset 14, -4
 2144 0c42 8DB0     		sub	sp, sp, #52
 2145              		.cfi_def_cfa_offset 56
 2146 0c44 0190     		str	r0, [sp, #4]
 2147              	.LBB26:
 2148              		.loc 1 883 0
 2149 0c46 2A4B     		ldr	r3, .L132
 2150 0c48 294A     		ldr	r2, .L132
 2151 0c4a 926D     		ldr	r2, [r2, #88]
 2152 0c4c 42F08052 		orr	r2, r2, #268435456
 2153 0c50 9A65     		str	r2, [r3, #88]
 2154 0c52 274B     		ldr	r3, .L132
 2155 0c54 9B6D     		ldr	r3, [r3, #88]
 2156 0c56 03F08053 		and	r3, r3, #268435456
 2157 0c5a 0693     		str	r3, [sp, #24]
 2158 0c5c 069B     		ldr	r3, [sp, #24]
 2159              	.LBE26:
 2160              		.loc 1 884 0
 2161 0c5e FFF7FEFF 		bl	HAL_PWREx_EnableVddIO2
 2162              	.LBB27:
 2163              		.loc 1 888 0
 2164 0c62 234B     		ldr	r3, .L132
 2165 0c64 224A     		ldr	r2, .L132
 2166 0c66 D26C     		ldr	r2, [r2, #76]
 2167 0c68 42F04002 		orr	r2, r2, #64
 2168 0c6c DA64     		str	r2, [r3, #76]
 2169 0c6e 204B     		ldr	r3, .L132
 2170 0c70 DB6C     		ldr	r3, [r3, #76]
 2171 0c72 03F04003 		and	r3, r3, #64
 2172 0c76 0593     		str	r3, [sp, #20]
 2173 0c78 059B     		ldr	r3, [sp, #20]
 2174              	.LBE27:
 2175              	.LBB28:
 2176              		.loc 1 889 0
 2177 0c7a 1D4B     		ldr	r3, .L132
 2178 0c7c 1C4A     		ldr	r2, .L132
 2179 0c7e D26C     		ldr	r2, [r2, #76]
 2180 0c80 42F04002 		orr	r2, r2, #64
 2181 0c84 DA64     		str	r2, [r3, #76]
 2182 0c86 1A4B     		ldr	r3, .L132
 2183 0c88 DB6C     		ldr	r3, [r3, #76]
 2184 0c8a 03F04003 		and	r3, r3, #64
 2185 0c8e 0493     		str	r3, [sp, #16]
 2186 0c90 049B     		ldr	r3, [sp, #16]
 2187              	.LBE28:
 2188              		.loc 1 892 0
 2189 0c92 4FF40073 		mov	r3, #512
 2190 0c96 0793     		str	r3, [sp, #28]
 2191              		.loc 1 893 0
 2192 0c98 0223     		movs	r3, #2
 2193 0c9a 0893     		str	r3, [sp, #32]
 2194              		.loc 1 894 0
 2195 0c9c 0023     		movs	r3, #0
 2196 0c9e 0993     		str	r3, [sp, #36]
ARM GAS  /tmp/cc602Zqo.s 			page 40


 2197              		.loc 1 895 0
 2198 0ca0 0323     		movs	r3, #3
 2199 0ca2 0A93     		str	r3, [sp, #40]
 2200              		.loc 1 896 0
 2201 0ca4 0623     		movs	r3, #6
 2202 0ca6 0B93     		str	r3, [sp, #44]
 2203              		.loc 1 897 0
 2204 0ca8 07AB     		add	r3, sp, #28
 2205 0caa 1248     		ldr	r0, .L132+4
 2206 0cac 1946     		mov	r1, r3
 2207 0cae FFF7FEFF 		bl	HAL_GPIO_Init
 2208              		.loc 1 900 0
 2209 0cb2 4FF44063 		mov	r3, #3072
 2210 0cb6 0793     		str	r3, [sp, #28]
 2211              		.loc 1 901 0
 2212 0cb8 0223     		movs	r3, #2
 2213 0cba 0893     		str	r3, [sp, #32]
 2214              		.loc 1 902 0
 2215 0cbc 0023     		movs	r3, #0
 2216 0cbe 0993     		str	r3, [sp, #36]
 2217              		.loc 1 903 0
 2218 0cc0 0323     		movs	r3, #3
 2219 0cc2 0A93     		str	r3, [sp, #40]
 2220              		.loc 1 904 0
 2221 0cc4 0623     		movs	r3, #6
 2222 0cc6 0B93     		str	r3, [sp, #44]
 2223              		.loc 1 905 0
 2224 0cc8 07AB     		add	r3, sp, #28
 2225 0cca 0A48     		ldr	r0, .L132+4
 2226 0ccc 1946     		mov	r1, r3
 2227 0cce FFF7FEFF 		bl	HAL_GPIO_Init
 2228              	.LBB29:
 2229              		.loc 1 909 0
 2230 0cd2 074B     		ldr	r3, .L132
 2231 0cd4 064A     		ldr	r2, .L132
 2232 0cd6 926D     		ldr	r2, [r2, #88]
 2233 0cd8 42F40042 		orr	r2, r2, #32768
 2234 0cdc 9A65     		str	r2, [r3, #88]
 2235 0cde 044B     		ldr	r3, .L132
 2236 0ce0 9B6D     		ldr	r3, [r3, #88]
 2237 0ce2 03F40043 		and	r3, r3, #32768
 2238 0ce6 0393     		str	r3, [sp, #12]
 2239 0ce8 039B     		ldr	r3, [sp, #12]
 2240              	.LBE29:
 2241              		.loc 1 910 0
 2242 0cea 0DB0     		add	sp, sp, #52
 2243              		@ sp needed
 2244 0cec 5DF804FB 		ldr	pc, [sp], #4
 2245              	.L133:
 2246              		.align	2
 2247              	.L132:
 2248 0cf0 00100240 		.word	1073876992
 2249 0cf4 00180048 		.word	1207965696
 2250              		.cfi_endproc
 2251              	.LFE151:
 2252              		.size	SD_IO_SPI_MspInit, .-SD_IO_SPI_MspInit
 2253              		.align	2
ARM GAS  /tmp/cc602Zqo.s 			page 41


 2254 0cf8 AFF30080 		.p2align 4,,15
 2254      AFF30080 
 2255              		.thumb
 2256              		.thumb_func
 2257              		.type	SD_IO_SPI_Init_LS, %function
 2258              	SD_IO_SPI_Init_LS:
 2259              	.LFB152:
 2260              		.loc 1 918 0
 2261              		.cfi_startproc
 2262              		@ args = 0, pretend = 0, frame = 0
 2263              		@ frame_needed = 0, uses_anonymous_args = 0
 2264 0d00 08B5     		push	{r3, lr}
 2265              		.cfi_def_cfa_offset 8
 2266              		.cfi_offset 3, -8
 2267              		.cfi_offset 14, -4
 2268              		.loc 1 919 0
 2269 0d02 1A48     		ldr	r0, .L136
 2270 0d04 FFF7FEFF 		bl	HAL_SPI_GetState
 2271 0d08 0346     		mov	r3, r0
 2272 0d0a 002B     		cmp	r3, #0
 2273 0d0c 2CD1     		bne	.L134
 2274              		.loc 1 922 0
 2275 0d0e 174B     		ldr	r3, .L136
 2276 0d10 174A     		ldr	r2, .L136+4
 2277 0d12 1A60     		str	r2, [r3]
 2278              		.loc 1 924 0
 2279 0d14 154B     		ldr	r3, .L136
 2280 0d16 3022     		movs	r2, #48
 2281 0d18 DA61     		str	r2, [r3, #28]
 2282              		.loc 1 925 0
 2283 0d1a 144B     		ldr	r3, .L136
 2284 0d1c 0022     		movs	r2, #0
 2285 0d1e 9A60     		str	r2, [r3, #8]
 2286              		.loc 1 926 0
 2287 0d20 124B     		ldr	r3, .L136
 2288 0d22 0122     		movs	r2, #1
 2289 0d24 5A61     		str	r2, [r3, #20]
 2290              		.loc 1 927 0
 2291 0d26 114B     		ldr	r3, .L136
 2292 0d28 0222     		movs	r2, #2
 2293 0d2a 1A61     		str	r2, [r3, #16]
 2294              		.loc 1 928 0
 2295 0d2c 0F4B     		ldr	r3, .L136
 2296 0d2e 0022     		movs	r2, #0
 2297 0d30 9A62     		str	r2, [r3, #40]
 2298              		.loc 1 929 0
 2299 0d32 0E4B     		ldr	r3, .L136
 2300 0d34 0722     		movs	r2, #7
 2301 0d36 DA62     		str	r2, [r3, #44]
 2302              		.loc 1 930 0
 2303 0d38 0C4B     		ldr	r3, .L136
 2304 0d3a 4FF4E062 		mov	r2, #1792
 2305 0d3e DA60     		str	r2, [r3, #12]
 2306              		.loc 1 931 0
 2307 0d40 0A4B     		ldr	r3, .L136
 2308 0d42 0022     		movs	r2, #0
 2309 0d44 1A62     		str	r2, [r3, #32]
ARM GAS  /tmp/cc602Zqo.s 			page 42


 2310              		.loc 1 932 0
 2311 0d46 094B     		ldr	r3, .L136
 2312 0d48 4FF40072 		mov	r2, #512
 2313 0d4c 9A61     		str	r2, [r3, #24]
 2314              		.loc 1 933 0
 2315 0d4e 074B     		ldr	r3, .L136
 2316 0d50 0022     		movs	r2, #0
 2317 0d52 5A62     		str	r2, [r3, #36]
 2318              		.loc 1 934 0
 2319 0d54 054B     		ldr	r3, .L136
 2320 0d56 4FF48272 		mov	r2, #260
 2321 0d5a 5A60     		str	r2, [r3, #4]
 2322              		.loc 1 936 0
 2323 0d5c 0348     		ldr	r0, .L136
 2324 0d5e FFF76FFF 		bl	SD_IO_SPI_MspInit
 2325              		.loc 1 937 0
 2326 0d62 0248     		ldr	r0, .L136
 2327 0d64 FFF7FEFF 		bl	HAL_SPI_Init
 2328              	.L134:
 2329              		.loc 1 939 0
 2330 0d68 08BD     		pop	{r3, pc}
 2331              	.L137:
 2332 0d6a 00BF     		.align	2
 2333              	.L136:
 2334 0d6c B0000000 		.word	SPI_SD_Handle
 2335 0d70 003C0040 		.word	1073757184
 2336              		.cfi_endproc
 2337              	.LFE152:
 2338              		.size	SD_IO_SPI_Init_LS, .-SD_IO_SPI_Init_LS
 2339              		.align	2
 2340 0d74 AFF30080 		.p2align 4,,15
 2340      AFF30080 
 2340      AFF30080 
 2341              		.thumb
 2342              		.thumb_func
 2343              		.type	SD_IO_SPI_Init, %function
 2344              	SD_IO_SPI_Init:
 2345              	.LFB153:
 2346              		.loc 1 945 0
 2347              		.cfi_startproc
 2348              		@ args = 0, pretend = 0, frame = 0
 2349              		@ frame_needed = 0, uses_anonymous_args = 0
 2350 0d80 08B5     		push	{r3, lr}
 2351              		.cfi_def_cfa_offset 8
 2352              		.cfi_offset 3, -8
 2353              		.cfi_offset 14, -4
 2354              		.loc 1 946 0
 2355 0d82 1A48     		ldr	r0, .L140
 2356 0d84 FFF7FEFF 		bl	HAL_SPI_GetState
 2357 0d88 0346     		mov	r3, r0
 2358 0d8a 002B     		cmp	r3, #0
 2359 0d8c 2CD1     		bne	.L138
 2360              		.loc 1 949 0
 2361 0d8e 174B     		ldr	r3, .L140
 2362 0d90 174A     		ldr	r2, .L140+4
 2363 0d92 1A60     		str	r2, [r3]
 2364              		.loc 1 951 0
ARM GAS  /tmp/cc602Zqo.s 			page 43


 2365 0d94 154B     		ldr	r3, .L140
 2366 0d96 0822     		movs	r2, #8
 2367 0d98 DA61     		str	r2, [r3, #28]
 2368              		.loc 1 952 0
 2369 0d9a 144B     		ldr	r3, .L140
 2370 0d9c 0022     		movs	r2, #0
 2371 0d9e 9A60     		str	r2, [r3, #8]
 2372              		.loc 1 953 0
 2373 0da0 124B     		ldr	r3, .L140
 2374 0da2 0122     		movs	r2, #1
 2375 0da4 5A61     		str	r2, [r3, #20]
 2376              		.loc 1 954 0
 2377 0da6 114B     		ldr	r3, .L140
 2378 0da8 0222     		movs	r2, #2
 2379 0daa 1A61     		str	r2, [r3, #16]
 2380              		.loc 1 955 0
 2381 0dac 0F4B     		ldr	r3, .L140
 2382 0dae 0022     		movs	r2, #0
 2383 0db0 9A62     		str	r2, [r3, #40]
 2384              		.loc 1 956 0
 2385 0db2 0E4B     		ldr	r3, .L140
 2386 0db4 0722     		movs	r2, #7
 2387 0db6 DA62     		str	r2, [r3, #44]
 2388              		.loc 1 957 0
 2389 0db8 0C4B     		ldr	r3, .L140
 2390 0dba 4FF4E062 		mov	r2, #1792
 2391 0dbe DA60     		str	r2, [r3, #12]
 2392              		.loc 1 958 0
 2393 0dc0 0A4B     		ldr	r3, .L140
 2394 0dc2 0022     		movs	r2, #0
 2395 0dc4 1A62     		str	r2, [r3, #32]
 2396              		.loc 1 959 0
 2397 0dc6 094B     		ldr	r3, .L140
 2398 0dc8 4FF40072 		mov	r2, #512
 2399 0dcc 9A61     		str	r2, [r3, #24]
 2400              		.loc 1 960 0
 2401 0dce 074B     		ldr	r3, .L140
 2402 0dd0 0022     		movs	r2, #0
 2403 0dd2 5A62     		str	r2, [r3, #36]
 2404              		.loc 1 961 0
 2405 0dd4 054B     		ldr	r3, .L140
 2406 0dd6 4FF48272 		mov	r2, #260
 2407 0dda 5A60     		str	r2, [r3, #4]
 2408              		.loc 1 963 0
 2409 0ddc 0348     		ldr	r0, .L140
 2410 0dde FFF72FFF 		bl	SD_IO_SPI_MspInit
 2411              		.loc 1 964 0
 2412 0de2 0248     		ldr	r0, .L140
 2413 0de4 FFF7FEFF 		bl	HAL_SPI_Init
 2414              	.L138:
 2415              		.loc 1 968 0
 2416 0de8 08BD     		pop	{r3, pc}
 2417              	.L141:
 2418 0dea 00BF     		.align	2
 2419              	.L140:
 2420 0dec B0000000 		.word	SPI_SD_Handle
 2421 0df0 003C0040 		.word	1073757184
ARM GAS  /tmp/cc602Zqo.s 			page 44


 2422              		.cfi_endproc
 2423              	.LFE153:
 2424              		.size	SD_IO_SPI_Init, .-SD_IO_SPI_Init
 2425              		.align	2
 2426 0df4 AFF30080 		.p2align 4,,15
 2426      AFF30080 
 2426      AFF30080 
 2427              		.thumb
 2428              		.thumb_func
 2429              		.type	SD_IO_SPI_Read, %function
 2430              	SD_IO_SPI_Read:
 2431              	.LFB154:
 2432              		.loc 1 976 0
 2433              		.cfi_startproc
 2434              		@ args = 0, pretend = 0, frame = 16
 2435              		@ frame_needed = 0, uses_anonymous_args = 0
 2436 0e00 00B5     		push	{lr}
 2437              		.cfi_def_cfa_offset 4
 2438              		.cfi_offset 14, -4
 2439 0e02 87B0     		sub	sp, sp, #28
 2440              		.cfi_def_cfa_offset 32
 2441              		.loc 1 977 0
 2442 0e04 0023     		movs	r3, #0
 2443 0e06 8DF81730 		strb	r3, [sp, #23]
 2444              		.loc 1 978 0
 2445 0e0a 0023     		movs	r3, #0
 2446 0e0c 0493     		str	r3, [sp, #16]
 2447              		.loc 1 979 0
 2448 0e0e 4FF0FF33 		mov	r3, #-1
 2449 0e12 0393     		str	r3, [sp, #12]
 2450              		.loc 1 981 0
 2451 0e14 0C4B     		ldr	r3, .L145
 2452 0e16 1968     		ldr	r1, [r3]
 2453 0e18 03AA     		add	r2, sp, #12
 2454 0e1a 04AB     		add	r3, sp, #16
 2455 0e1c 0091     		str	r1, [sp]
 2456 0e1e 0B48     		ldr	r0, .L145+4
 2457 0e20 1146     		mov	r1, r2
 2458 0e22 1A46     		mov	r2, r3
 2459 0e24 0123     		movs	r3, #1
 2460 0e26 FFF7FEFF 		bl	HAL_SPI_TransmitReceive
 2461 0e2a 0346     		mov	r3, r0
 2462 0e2c 8DF81730 		strb	r3, [sp, #23]
 2463              		.loc 1 984 0
 2464 0e30 9DF81730 		ldrb	r3, [sp, #23]	@ zero_extendqisi2
 2465 0e34 002B     		cmp	r3, #0
 2466 0e36 01D0     		beq	.L143
 2467              		.loc 1 987 0
 2468 0e38 00F032F8 		bl	SD_IO_SPI_Error
 2469              	.L143:
 2470              		.loc 1 990 0
 2471 0e3c 049B     		ldr	r3, [sp, #16]
 2472              		.loc 1 991 0
 2473 0e3e 1846     		mov	r0, r3
 2474 0e40 07B0     		add	sp, sp, #28
 2475              		@ sp needed
 2476 0e42 5DF804FB 		ldr	pc, [sp], #4
ARM GAS  /tmp/cc602Zqo.s 			page 45


 2477              	.L146:
 2478 0e46 00BF     		.align	2
 2479              	.L145:
 2480 0e48 00000000 		.word	SpixTimeout
 2481 0e4c B0000000 		.word	SPI_SD_Handle
 2482              		.cfi_endproc
 2483              	.LFE154:
 2484              		.size	SD_IO_SPI_Read, .-SD_IO_SPI_Read
 2485              		.align	2
 2486              		.p2align 4,,15
 2487              		.thumb
 2488              		.thumb_func
 2489              		.type	SD_IO_SPI_Write, %function
 2490              	SD_IO_SPI_Write:
 2491              	.LFB155:
 2492              		.loc 1 999 0
 2493              		.cfi_startproc
 2494              		@ args = 0, pretend = 0, frame = 16
 2495              		@ frame_needed = 0, uses_anonymous_args = 0
 2496 0e50 00B5     		push	{lr}
 2497              		.cfi_def_cfa_offset 4
 2498              		.cfi_offset 14, -4
 2499 0e52 85B0     		sub	sp, sp, #20
 2500              		.cfi_def_cfa_offset 24
 2501 0e54 0346     		mov	r3, r0
 2502 0e56 8DF80730 		strb	r3, [sp, #7]
 2503              		.loc 1 1000 0
 2504 0e5a 0023     		movs	r3, #0
 2505 0e5c 8DF80F30 		strb	r3, [sp, #15]
 2506              		.loc 1 1002 0
 2507 0e60 0A4B     		ldr	r3, .L149
 2508 0e62 1B68     		ldr	r3, [r3]
 2509 0e64 0DF10702 		add	r2, sp, #7
 2510 0e68 0948     		ldr	r0, .L149+4
 2511 0e6a 1146     		mov	r1, r2
 2512 0e6c 0122     		movs	r2, #1
 2513 0e6e FFF7FEFF 		bl	HAL_SPI_Transmit
 2514 0e72 0346     		mov	r3, r0
 2515 0e74 8DF80F30 		strb	r3, [sp, #15]
 2516              		.loc 1 1005 0
 2517 0e78 9DF80F30 		ldrb	r3, [sp, #15]	@ zero_extendqisi2
 2518 0e7c 002B     		cmp	r3, #0
 2519 0e7e 01D0     		beq	.L147
 2520              		.loc 1 1008 0
 2521 0e80 00F00EF8 		bl	SD_IO_SPI_Error
 2522              	.L147:
 2523              		.loc 1 1010 0
 2524 0e84 05B0     		add	sp, sp, #20
 2525              		@ sp needed
 2526 0e86 5DF804FB 		ldr	pc, [sp], #4
 2527              	.L150:
 2528 0e8a 00BF     		.align	2
 2529              	.L149:
 2530 0e8c 00000000 		.word	SpixTimeout
 2531 0e90 B0000000 		.word	SPI_SD_Handle
 2532              		.cfi_endproc
 2533              	.LFE155:
ARM GAS  /tmp/cc602Zqo.s 			page 46


 2534              		.size	SD_IO_SPI_Write, .-SD_IO_SPI_Write
 2535              		.align	2
 2536 0e94 AFF30080 		.p2align 4,,15
 2536      AFF30080 
 2536      AFF30080 
 2537              		.thumb
 2538              		.thumb_func
 2539              		.type	SD_IO_SPI_Error, %function
 2540              	SD_IO_SPI_Error:
 2541              	.LFB156:
 2542              		.loc 1 1018 0
 2543              		.cfi_startproc
 2544              		@ args = 0, pretend = 0, frame = 0
 2545              		@ frame_needed = 0, uses_anonymous_args = 0
 2546 0ea0 08B5     		push	{r3, lr}
 2547              		.cfi_def_cfa_offset 8
 2548              		.cfi_offset 3, -8
 2549              		.cfi_offset 14, -4
 2550              		.loc 1 1020 0
 2551 0ea2 0348     		ldr	r0, .L152
 2552 0ea4 FFF7FEFF 		bl	HAL_SPI_DeInit
 2553              		.loc 1 1023 0
 2554 0ea8 FFF76AFF 		bl	SD_IO_SPI_Init
 2555              		.loc 1 1024 0
 2556 0eac 08BD     		pop	{r3, pc}
 2557              	.L153:
 2558 0eae 00BF     		.align	2
 2559              	.L152:
 2560 0eb0 B0000000 		.word	SPI_SD_Handle
 2561              		.cfi_endproc
 2562              	.LFE156:
 2563              		.size	SD_IO_SPI_Error, .-SD_IO_SPI_Error
 2564              		.align	2
 2565 0eb4 AFF30080 		.p2align 4,,15
 2565      AFF30080 
 2565      AFF30080 
 2566              		.global	SD_IO_Init
 2567              		.thumb
 2568              		.thumb_func
 2569              		.type	SD_IO_Init, %function
 2570              	SD_IO_Init:
 2571              	.LFB157:
 2572              		.loc 1 1035 0
 2573              		.cfi_startproc
 2574              		@ args = 0, pretend = 0, frame = 8
 2575              		@ frame_needed = 0, uses_anonymous_args = 0
 2576 0ec0 00B5     		push	{lr}
 2577              		.cfi_def_cfa_offset 4
 2578              		.cfi_offset 14, -4
 2579 0ec2 83B0     		sub	sp, sp, #12
 2580              		.cfi_def_cfa_offset 16
 2581              		.loc 1 1039 0
 2582 0ec4 FFF7FEFF 		bl	SD_IO_CS_Init
 2583              		.loc 1 1042 0
 2584 0ec8 FFF75AFF 		bl	SD_IO_SPI_Init
 2585              		.loc 1 1044 0
 2586 0ecc 0C48     		ldr	r0, .L157
ARM GAS  /tmp/cc602Zqo.s 			page 47


 2587 0ece 4FF48051 		mov	r1, #4096
 2588 0ed2 0122     		movs	r2, #1
 2589 0ed4 FFF7FEFF 		bl	HAL_GPIO_WritePin
 2590              		.loc 1 1048 0
 2591 0ed8 0023     		movs	r3, #0
 2592 0eda 8DF80730 		strb	r3, [sp, #7]
 2593 0ede 07E0     		b	.L155
 2594              	.L156:
 2595              		.loc 1 1051 0 discriminator 2
 2596 0ee0 FF20     		movs	r0, #255
 2597 0ee2 FFF7FEFF 		bl	SD_IO_WriteByte
 2598              		.loc 1 1048 0 discriminator 2
 2599 0ee6 9DF80730 		ldrb	r3, [sp, #7]	@ zero_extendqisi2
 2600 0eea 0133     		adds	r3, r3, #1
 2601 0eec 8DF80730 		strb	r3, [sp, #7]
 2602              	.L155:
 2603              		.loc 1 1048 0 is_stmt 0 discriminator 1
 2604 0ef0 9DF80730 		ldrb	r3, [sp, #7]	@ zero_extendqisi2
 2605 0ef4 092B     		cmp	r3, #9
 2606 0ef6 F3D9     		bls	.L156
 2607              		.loc 1 1053 0 is_stmt 1
 2608 0ef8 03B0     		add	sp, sp, #12
 2609              		@ sp needed
 2610 0efa 5DF804FB 		ldr	pc, [sp], #4
 2611              	.L158:
 2612 0efe 00BF     		.align	2
 2613              	.L157:
 2614 0f00 00180048 		.word	1207965696
 2615              		.cfi_endproc
 2616              	.LFE157:
 2617              		.size	SD_IO_Init, .-SD_IO_Init
 2618              		.align	2
 2619 0f04 AFF30080 		.p2align 4,,15
 2619      AFF30080 
 2619      AFF30080 
 2620              		.global	SD_IO_Init_LS
 2621              		.thumb
 2622              		.thumb_func
 2623              		.type	SD_IO_Init_LS, %function
 2624              	SD_IO_Init_LS:
 2625              	.LFB158:
 2626              		.loc 1 1062 0
 2627              		.cfi_startproc
 2628              		@ args = 0, pretend = 0, frame = 8
 2629              		@ frame_needed = 0, uses_anonymous_args = 0
 2630 0f10 00B5     		push	{lr}
 2631              		.cfi_def_cfa_offset 4
 2632              		.cfi_offset 14, -4
 2633 0f12 83B0     		sub	sp, sp, #12
 2634              		.cfi_def_cfa_offset 16
 2635              		.loc 1 1066 0
 2636 0f14 FFF7FEFF 		bl	SD_IO_CS_Init
 2637              		.loc 1 1069 0
 2638 0f18 FFF7F2FE 		bl	SD_IO_SPI_Init_LS
 2639              		.loc 1 1071 0
 2640 0f1c 0C48     		ldr	r0, .L162
 2641 0f1e 4FF48051 		mov	r1, #4096
ARM GAS  /tmp/cc602Zqo.s 			page 48


 2642 0f22 0122     		movs	r2, #1
 2643 0f24 FFF7FEFF 		bl	HAL_GPIO_WritePin
 2644              		.loc 1 1075 0
 2645 0f28 0023     		movs	r3, #0
 2646 0f2a 8DF80730 		strb	r3, [sp, #7]
 2647 0f2e 07E0     		b	.L160
 2648              	.L161:
 2649              		.loc 1 1078 0 discriminator 2
 2650 0f30 FF20     		movs	r0, #255
 2651 0f32 FFF7FEFF 		bl	SD_IO_WriteByte
 2652              		.loc 1 1075 0 discriminator 2
 2653 0f36 9DF80730 		ldrb	r3, [sp, #7]	@ zero_extendqisi2
 2654 0f3a 0133     		adds	r3, r3, #1
 2655 0f3c 8DF80730 		strb	r3, [sp, #7]
 2656              	.L160:
 2657              		.loc 1 1075 0 is_stmt 0 discriminator 1
 2658 0f40 9DF80730 		ldrb	r3, [sp, #7]	@ zero_extendqisi2
 2659 0f44 092B     		cmp	r3, #9
 2660 0f46 F3D9     		bls	.L161
 2661              		.loc 1 1080 0 is_stmt 1
 2662 0f48 03B0     		add	sp, sp, #12
 2663              		@ sp needed
 2664 0f4a 5DF804FB 		ldr	pc, [sp], #4
 2665              	.L163:
 2666 0f4e 00BF     		.align	2
 2667              	.L162:
 2668 0f50 00180048 		.word	1207965696
 2669              		.cfi_endproc
 2670              	.LFE158:
 2671              		.size	SD_IO_Init_LS, .-SD_IO_Init_LS
 2672              		.align	2
 2673 0f54 AFF30080 		.p2align 4,,15
 2673      AFF30080 
 2673      AFF30080 
 2674              		.global	SD_IO_CS_Init
 2675              		.thumb
 2676              		.thumb_func
 2677              		.type	SD_IO_CS_Init, %function
 2678              	SD_IO_CS_Init:
 2679              	.LFB159:
 2680              		.loc 1 1083 0
 2681              		.cfi_startproc
 2682              		@ args = 0, pretend = 0, frame = 24
 2683              		@ frame_needed = 0, uses_anonymous_args = 0
 2684 0f60 00B5     		push	{lr}
 2685              		.cfi_def_cfa_offset 4
 2686              		.cfi_offset 14, -4
 2687 0f62 87B0     		sub	sp, sp, #28
 2688              		.cfi_def_cfa_offset 32
 2689              	.LBB30:
 2690              		.loc 1 1087 0
 2691 0f64 0E4B     		ldr	r3, .L165
 2692 0f66 0E4A     		ldr	r2, .L165
 2693 0f68 D26C     		ldr	r2, [r2, #76]
 2694 0f6a 42F04002 		orr	r2, r2, #64
 2695 0f6e DA64     		str	r2, [r3, #76]
 2696 0f70 0B4B     		ldr	r3, .L165
ARM GAS  /tmp/cc602Zqo.s 			page 49


 2697 0f72 DB6C     		ldr	r3, [r3, #76]
 2698 0f74 03F04003 		and	r3, r3, #64
 2699 0f78 0093     		str	r3, [sp]
 2700 0f7a 009B     		ldr	r3, [sp]
 2701              	.LBE30:
 2702              		.loc 1 1090 0
 2703 0f7c 4FF48053 		mov	r3, #4096
 2704 0f80 0193     		str	r3, [sp, #4]
 2705              		.loc 1 1091 0
 2706 0f82 0123     		movs	r3, #1
 2707 0f84 0293     		str	r3, [sp, #8]
 2708              		.loc 1 1092 0
 2709 0f86 0123     		movs	r3, #1
 2710 0f88 0393     		str	r3, [sp, #12]
 2711              		.loc 1 1093 0
 2712 0f8a 0323     		movs	r3, #3
 2713 0f8c 0493     		str	r3, [sp, #16]
 2714              		.loc 1 1094 0
 2715 0f8e 01AB     		add	r3, sp, #4
 2716 0f90 0448     		ldr	r0, .L165+4
 2717 0f92 1946     		mov	r1, r3
 2718 0f94 FFF7FEFF 		bl	HAL_GPIO_Init
 2719              		.loc 1 1098 0
 2720 0f98 07B0     		add	sp, sp, #28
 2721              		@ sp needed
 2722 0f9a 5DF804FB 		ldr	pc, [sp], #4
 2723              	.L166:
 2724 0f9e 00BF     		.align	2
 2725              	.L165:
 2726 0fa0 00100240 		.word	1073876992
 2727 0fa4 00180048 		.word	1207965696
 2728              		.cfi_endproc
 2729              	.LFE159:
 2730              		.size	SD_IO_CS_Init, .-SD_IO_CS_Init
 2731              		.align	2
 2732 0fa8 AFF30080 		.p2align 4,,15
 2732      AFF30080 
 2733              		.global	SD_IO_CS_DeInit
 2734              		.thumb
 2735              		.thumb_func
 2736              		.type	SD_IO_CS_DeInit, %function
 2737              	SD_IO_CS_DeInit:
 2738              	.LFB160:
 2739              		.loc 1 1101 0
 2740              		.cfi_startproc
 2741              		@ args = 0, pretend = 0, frame = 24
 2742              		@ frame_needed = 0, uses_anonymous_args = 0
 2743 0fb0 00B5     		push	{lr}
 2744              		.cfi_def_cfa_offset 4
 2745              		.cfi_offset 14, -4
 2746 0fb2 87B0     		sub	sp, sp, #28
 2747              		.cfi_def_cfa_offset 32
 2748              		.loc 1 1105 0
 2749 0fb4 4FF48053 		mov	r3, #4096
 2750 0fb8 0193     		str	r3, [sp, #4]
 2751              		.loc 1 1106 0
 2752 0fba 0323     		movs	r3, #3
ARM GAS  /tmp/cc602Zqo.s 			page 50


 2753 0fbc 0293     		str	r3, [sp, #8]
 2754              		.loc 1 1107 0
 2755 0fbe 0023     		movs	r3, #0
 2756 0fc0 0393     		str	r3, [sp, #12]
 2757              		.loc 1 1108 0
 2758 0fc2 0323     		movs	r3, #3
 2759 0fc4 0493     		str	r3, [sp, #16]
 2760              		.loc 1 1109 0
 2761 0fc6 01AB     		add	r3, sp, #4
 2762 0fc8 0348     		ldr	r0, .L168
 2763 0fca 1946     		mov	r1, r3
 2764 0fcc FFF7FEFF 		bl	HAL_GPIO_Init
 2765              		.loc 1 1110 0
 2766 0fd0 07B0     		add	sp, sp, #28
 2767              		@ sp needed
 2768 0fd2 5DF804FB 		ldr	pc, [sp], #4
 2769              	.L169:
 2770 0fd6 00BF     		.align	2
 2771              	.L168:
 2772 0fd8 00180048 		.word	1207965696
 2773              		.cfi_endproc
 2774              	.LFE160:
 2775              		.size	SD_IO_CS_DeInit, .-SD_IO_CS_DeInit
 2776              		.align	2
 2777 0fdc AFF30080 		.p2align 4,,15
 2778              		.global	SD_IO_WriteByte
 2779              		.thumb
 2780              		.thumb_func
 2781              		.type	SD_IO_WriteByte, %function
 2782              	SD_IO_WriteByte:
 2783              	.LFB161:
 2784              		.loc 1 1118 0
 2785              		.cfi_startproc
 2786              		@ args = 0, pretend = 0, frame = 8
 2787              		@ frame_needed = 0, uses_anonymous_args = 0
 2788 0fe0 00B5     		push	{lr}
 2789              		.cfi_def_cfa_offset 4
 2790              		.cfi_offset 14, -4
 2791 0fe2 83B0     		sub	sp, sp, #12
 2792              		.cfi_def_cfa_offset 16
 2793 0fe4 0346     		mov	r3, r0
 2794 0fe6 8DF80730 		strb	r3, [sp, #7]
 2795              		.loc 1 1120 0
 2796 0fea 9DF80730 		ldrb	r3, [sp, #7]	@ zero_extendqisi2
 2797 0fee 1846     		mov	r0, r3
 2798 0ff0 FFF72EFF 		bl	SD_IO_SPI_Write
 2799              		.loc 1 1121 0
 2800 0ff4 03B0     		add	sp, sp, #12
 2801              		@ sp needed
 2802 0ff6 5DF804FB 		ldr	pc, [sp], #4
 2803              		.cfi_endproc
 2804              	.LFE161:
 2805              		.size	SD_IO_WriteByte, .-SD_IO_WriteByte
 2806 0ffa 00BF     		.align	2
 2807 0ffc AFF30080 		.p2align 4,,15
 2808              		.global	SD_IO_ReadByte
 2809              		.thumb
ARM GAS  /tmp/cc602Zqo.s 			page 51


 2810              		.thumb_func
 2811              		.type	SD_IO_ReadByte, %function
 2812              	SD_IO_ReadByte:
 2813              	.LFB162:
 2814              		.loc 1 1129 0
 2815              		.cfi_startproc
 2816              		@ args = 0, pretend = 0, frame = 8
 2817              		@ frame_needed = 0, uses_anonymous_args = 0
 2818 1000 00B5     		push	{lr}
 2819              		.cfi_def_cfa_offset 4
 2820              		.cfi_offset 14, -4
 2821 1002 83B0     		sub	sp, sp, #12
 2822              		.cfi_def_cfa_offset 16
 2823              		.loc 1 1130 0
 2824 1004 0023     		movs	r3, #0
 2825 1006 8DF80730 		strb	r3, [sp, #7]
 2826              		.loc 1 1138 0
 2827 100a FFF7F9FE 		bl	SD_IO_SPI_Read
 2828 100e 0346     		mov	r3, r0
 2829 1010 8DF80730 		strb	r3, [sp, #7]
 2830              		.loc 1 1141 0
 2831 1014 9DF80730 		ldrb	r3, [sp, #7]	@ zero_extendqisi2
 2832              		.loc 1 1142 0
 2833 1018 1846     		mov	r0, r3
 2834 101a 03B0     		add	sp, sp, #12
 2835              		@ sp needed
 2836 101c 5DF804FB 		ldr	pc, [sp], #4
 2837              		.cfi_endproc
 2838              	.LFE162:
 2839              		.size	SD_IO_ReadByte, .-SD_IO_ReadByte
 2840              		.align	2
 2841              		.p2align 4,,15
 2842              		.global	SD_IO_WriteCmd_wResp
 2843              		.thumb
 2844              		.thumb_func
 2845              		.type	SD_IO_WriteCmd_wResp, %function
 2846              	SD_IO_WriteCmd_wResp:
 2847              	.LFB163:
 2848              		.loc 1 1154 0
 2849              		.cfi_startproc
 2850              		@ args = 0, pretend = 0, frame = 24
 2851              		@ frame_needed = 0, uses_anonymous_args = 0
 2852 1020 00B5     		push	{lr}
 2853              		.cfi_def_cfa_offset 4
 2854              		.cfi_offset 14, -4
 2855 1022 87B0     		sub	sp, sp, #28
 2856              		.cfi_def_cfa_offset 32
 2857 1024 0091     		str	r1, [sp]
 2858 1026 1346     		mov	r3, r2
 2859 1028 0246     		mov	r2, r0
 2860 102a 8DF80720 		strb	r2, [sp, #7]
 2861 102e 8DF80630 		strb	r3, [sp, #6]
 2862              		.loc 1 1155 0
 2863 1032 0023     		movs	r3, #0
 2864 1034 0593     		str	r3, [sp, #20]
 2865              		.loc 1 1159 0
 2866 1036 9DF80730 		ldrb	r3, [sp, #7]
ARM GAS  /tmp/cc602Zqo.s 			page 52


 2867 103a 43F04003 		orr	r3, r3, #64
 2868 103e DBB2     		uxtb	r3, r3
 2869 1040 8DF80830 		strb	r3, [sp, #8]
 2870              		.loc 1 1160 0
 2871 1044 009B     		ldr	r3, [sp]
 2872 1046 1B0E     		lsrs	r3, r3, #24
 2873 1048 DBB2     		uxtb	r3, r3
 2874 104a 8DF80930 		strb	r3, [sp, #9]
 2875              		.loc 1 1161 0
 2876 104e 009B     		ldr	r3, [sp]
 2877 1050 1B0C     		lsrs	r3, r3, #16
 2878 1052 DBB2     		uxtb	r3, r3
 2879 1054 8DF80A30 		strb	r3, [sp, #10]
 2880              		.loc 1 1162 0
 2881 1058 009B     		ldr	r3, [sp]
 2882 105a 1B0A     		lsrs	r3, r3, #8
 2883 105c DBB2     		uxtb	r3, r3
 2884 105e 8DF80B30 		strb	r3, [sp, #11]
 2885              		.loc 1 1163 0
 2886 1062 009B     		ldr	r3, [sp]
 2887 1064 DBB2     		uxtb	r3, r3
 2888 1066 8DF80C30 		strb	r3, [sp, #12]
 2889              		.loc 1 1164 0
 2890 106a 9DF80630 		ldrb	r3, [sp, #6]
 2891 106e 8DF80D30 		strb	r3, [sp, #13]
 2892              		.loc 1 1167 0
 2893 1072 1648     		ldr	r0, .L179
 2894 1074 4FF48051 		mov	r1, #4096
 2895 1078 0022     		movs	r2, #0
 2896 107a FFF7FEFF 		bl	HAL_GPIO_WritePin
 2897              		.loc 1 1170 0
 2898 107e 0023     		movs	r3, #0
 2899 1080 0593     		str	r3, [sp, #20]
 2900 1082 09E0     		b	.L174
 2901              	.L175:
 2902              		.loc 1 1172 0 discriminator 2
 2903 1084 02AA     		add	r2, sp, #8
 2904 1086 059B     		ldr	r3, [sp, #20]
 2905 1088 1344     		add	r3, r3, r2
 2906 108a 1B78     		ldrb	r3, [r3]	@ zero_extendqisi2
 2907 108c 1846     		mov	r0, r3
 2908 108e FFF7FEFF 		bl	SD_IO_WriteByte
 2909              		.loc 1 1170 0 discriminator 2
 2910 1092 059B     		ldr	r3, [sp, #20]
 2911 1094 0133     		adds	r3, r3, #1
 2912 1096 0593     		str	r3, [sp, #20]
 2913              	.L174:
 2914              		.loc 1 1170 0 is_stmt 0 discriminator 1
 2915 1098 059B     		ldr	r3, [sp, #20]
 2916 109a 052B     		cmp	r3, #5
 2917 109c F2D9     		bls	.L175
 2918              		.loc 1 1175 0 is_stmt 1
 2919 109e 0A23     		movs	r3, #10
 2920 10a0 0593     		str	r3, [sp, #20]
 2921              	.L177:
 2922              		.loc 1 1177 0 discriminator 1
 2923 10a2 FFF7FEFF 		bl	SD_IO_ReadByte
ARM GAS  /tmp/cc602Zqo.s 			page 53


 2924 10a6 0346     		mov	r3, r0
 2925 10a8 0493     		str	r3, [sp, #16]
 2926              		.loc 1 1178 0 discriminator 1
 2927 10aa 049B     		ldr	r3, [sp, #16]
 2928 10ac 03F08003 		and	r3, r3, #128
 2929 10b0 002B     		cmp	r3, #0
 2930 10b2 05D0     		beq	.L176
 2931 10b4 059B     		ldr	r3, [sp, #20]
 2932 10b6 013B     		subs	r3, r3, #1
 2933 10b8 0593     		str	r3, [sp, #20]
 2934 10ba 059B     		ldr	r3, [sp, #20]
 2935 10bc 002B     		cmp	r3, #0
 2936 10be F0D1     		bne	.L177
 2937              	.L176:
 2938              		.loc 1 1180 0
 2939 10c0 049B     		ldr	r3, [sp, #16]
 2940 10c2 DBB2     		uxtb	r3, r3
 2941              		.loc 1 1181 0
 2942 10c4 1846     		mov	r0, r3
 2943 10c6 07B0     		add	sp, sp, #28
 2944              		@ sp needed
 2945 10c8 5DF804FB 		ldr	pc, [sp], #4
 2946              	.L180:
 2947              		.align	2
 2948              	.L179:
 2949 10cc 00180048 		.word	1207965696
 2950              		.cfi_endproc
 2951              	.LFE163:
 2952              		.size	SD_IO_WriteCmd_wResp, .-SD_IO_WriteCmd_wResp
 2953              		.align	2
 2954              		.p2align 4,,15
 2955              		.global	SD_IO_WriteCmd
 2956              		.thumb
 2957              		.thumb_func
 2958              		.type	SD_IO_WriteCmd, %function
 2959              	SD_IO_WriteCmd:
 2960              	.LFB164:
 2961              		.loc 1 1193 0
 2962              		.cfi_startproc
 2963              		@ args = 0, pretend = 0, frame = 24
 2964              		@ frame_needed = 0, uses_anonymous_args = 0
 2965 10d0 00B5     		push	{lr}
 2966              		.cfi_def_cfa_offset 4
 2967              		.cfi_offset 14, -4
 2968 10d2 87B0     		sub	sp, sp, #28
 2969              		.cfi_def_cfa_offset 32
 2970 10d4 0091     		str	r1, [sp]
 2971 10d6 0146     		mov	r1, r0
 2972 10d8 8DF80710 		strb	r1, [sp, #7]
 2973 10dc 8DF80620 		strb	r2, [sp, #6]
 2974 10e0 8DF80530 		strb	r3, [sp, #5]
 2975              		.loc 1 1194 0
 2976 10e4 0023     		movs	r3, #0
 2977 10e6 0593     		str	r3, [sp, #20]
 2978              		.loc 1 1198 0
 2979 10e8 9DF80730 		ldrb	r3, [sp, #7]
 2980 10ec 43F04003 		orr	r3, r3, #64
ARM GAS  /tmp/cc602Zqo.s 			page 54


 2981 10f0 DBB2     		uxtb	r3, r3
 2982 10f2 8DF80C30 		strb	r3, [sp, #12]
 2983              		.loc 1 1199 0
 2984 10f6 009B     		ldr	r3, [sp]
 2985 10f8 1B0E     		lsrs	r3, r3, #24
 2986 10fa DBB2     		uxtb	r3, r3
 2987 10fc 8DF80D30 		strb	r3, [sp, #13]
 2988              		.loc 1 1200 0
 2989 1100 009B     		ldr	r3, [sp]
 2990 1102 1B0C     		lsrs	r3, r3, #16
 2991 1104 DBB2     		uxtb	r3, r3
 2992 1106 8DF80E30 		strb	r3, [sp, #14]
 2993              		.loc 1 1201 0
 2994 110a 009B     		ldr	r3, [sp]
 2995 110c 1B0A     		lsrs	r3, r3, #8
 2996 110e DBB2     		uxtb	r3, r3
 2997 1110 8DF80F30 		strb	r3, [sp, #15]
 2998              		.loc 1 1202 0
 2999 1114 009B     		ldr	r3, [sp]
 3000 1116 DBB2     		uxtb	r3, r3
 3001 1118 8DF81030 		strb	r3, [sp, #16]
 3002              		.loc 1 1203 0
 3003 111c 9DF80630 		ldrb	r3, [sp, #6]
 3004 1120 8DF81130 		strb	r3, [sp, #17]
 3005              		.loc 1 1206 0
 3006 1124 1248     		ldr	r0, .L187
 3007 1126 4FF48051 		mov	r1, #4096
 3008 112a 0022     		movs	r2, #0
 3009 112c FFF7FEFF 		bl	HAL_GPIO_WritePin
 3010              		.loc 1 1209 0
 3011 1130 0023     		movs	r3, #0
 3012 1132 0593     		str	r3, [sp, #20]
 3013 1134 09E0     		b	.L182
 3014              	.L183:
 3015              		.loc 1 1211 0 discriminator 2
 3016 1136 03AA     		add	r2, sp, #12
 3017 1138 059B     		ldr	r3, [sp, #20]
 3018 113a 1344     		add	r3, r3, r2
 3019 113c 1B78     		ldrb	r3, [r3]	@ zero_extendqisi2
 3020 113e 1846     		mov	r0, r3
 3021 1140 FFF7FEFF 		bl	SD_IO_WriteByte
 3022              		.loc 1 1209 0 discriminator 2
 3023 1144 059B     		ldr	r3, [sp, #20]
 3024 1146 0133     		adds	r3, r3, #1
 3025 1148 0593     		str	r3, [sp, #20]
 3026              	.L182:
 3027              		.loc 1 1209 0 is_stmt 0 discriminator 1
 3028 114a 059B     		ldr	r3, [sp, #20]
 3029 114c 052B     		cmp	r3, #5
 3030 114e F2D9     		bls	.L183
 3031              		.loc 1 1214 0 is_stmt 1
 3032 1150 9DF80530 		ldrb	r3, [sp, #5]	@ zero_extendqisi2
 3033 1154 802B     		cmp	r3, #128
 3034 1156 06D0     		beq	.L184
 3035              		.loc 1 1216 0
 3036 1158 9DF80530 		ldrb	r3, [sp, #5]	@ zero_extendqisi2
 3037 115c 1846     		mov	r0, r3
ARM GAS  /tmp/cc602Zqo.s 			page 55


 3038 115e FFF7FEFF 		bl	SD_IO_WaitResponse
 3039 1162 0346     		mov	r3, r0
 3040 1164 00E0     		b	.L186
 3041              	.L184:
 3042              		.loc 1 1219 0
 3043 1166 0023     		movs	r3, #0
 3044              	.L186:
 3045              		.loc 1 1220 0
 3046 1168 1846     		mov	r0, r3
 3047 116a 07B0     		add	sp, sp, #28
 3048              		@ sp needed
 3049 116c 5DF804FB 		ldr	pc, [sp], #4
 3050              	.L188:
 3051              		.align	2
 3052              	.L187:
 3053 1170 00180048 		.word	1207965696
 3054              		.cfi_endproc
 3055              	.LFE164:
 3056              		.size	SD_IO_WriteCmd, .-SD_IO_WriteCmd
 3057              		.align	2
 3058 1174 AFF30080 		.p2align 4,,15
 3058      AFF30080 
 3058      AFF30080 
 3059              		.global	SD_IO_WaitResponse
 3060              		.thumb
 3061              		.thumb_func
 3062              		.type	SD_IO_WaitResponse, %function
 3063              	SD_IO_WaitResponse:
 3064              	.LFB165:
 3065              		.loc 1 1228 0
 3066              		.cfi_startproc
 3067              		@ args = 0, pretend = 0, frame = 16
 3068              		@ frame_needed = 0, uses_anonymous_args = 0
 3069 1180 00B5     		push	{lr}
 3070              		.cfi_def_cfa_offset 4
 3071              		.cfi_offset 14, -4
 3072 1182 85B0     		sub	sp, sp, #20
 3073              		.cfi_def_cfa_offset 24
 3074 1184 0346     		mov	r3, r0
 3075 1186 8DF80730 		strb	r3, [sp, #7]
 3076              		.loc 1 1229 0
 3077 118a FF23     		movs	r3, #255
 3078 118c 0393     		str	r3, [sp, #12]
 3079              		.loc 1 1232 0
 3080 118e 02E0     		b	.L190
 3081              	.L192:
 3082              		.loc 1 1234 0
 3083 1190 039B     		ldr	r3, [sp, #12]
 3084 1192 013B     		subs	r3, r3, #1
 3085 1194 0393     		str	r3, [sp, #12]
 3086              	.L190:
 3087              		.loc 1 1232 0 discriminator 1
 3088 1196 FFF7FEFF 		bl	SD_IO_ReadByte
 3089 119a 0346     		mov	r3, r0
 3090 119c 9DF80720 		ldrb	r2, [sp, #7]	@ zero_extendqisi2
 3091 11a0 9A42     		cmp	r2, r3
 3092 11a2 02D0     		beq	.L191
ARM GAS  /tmp/cc602Zqo.s 			page 56


 3093              		.loc 1 1232 0 is_stmt 0 discriminator 2
 3094 11a4 039B     		ldr	r3, [sp, #12]
 3095 11a6 002B     		cmp	r3, #0
 3096 11a8 F2D1     		bne	.L192
 3097              	.L191:
 3098              		.loc 1 1237 0 is_stmt 1
 3099 11aa 039B     		ldr	r3, [sp, #12]
 3100 11ac 002B     		cmp	r3, #0
 3101 11ae 01D1     		bne	.L193
 3102              		.loc 1 1240 0
 3103 11b0 0323     		movs	r3, #3
 3104 11b2 00E0     		b	.L194
 3105              	.L193:
 3106              		.loc 1 1245 0
 3107 11b4 0023     		movs	r3, #0
 3108              	.L194:
 3109              		.loc 1 1247 0
 3110 11b6 1846     		mov	r0, r3
 3111 11b8 05B0     		add	sp, sp, #20
 3112              		@ sp needed
 3113 11ba 5DF804FB 		ldr	pc, [sp], #4
 3114              		.cfi_endproc
 3115              	.LFE165:
 3116              		.size	SD_IO_WaitResponse, .-SD_IO_WaitResponse
 3117 11be 00BF     		.align	2
 3118              		.p2align 4,,15
 3119              		.global	SD_IO_WriteDummy
 3120              		.thumb
 3121              		.thumb_func
 3122              		.type	SD_IO_WriteDummy, %function
 3123              	SD_IO_WriteDummy:
 3124              	.LFB166:
 3125              		.loc 1 1255 0
 3126              		.cfi_startproc
 3127              		@ args = 0, pretend = 0, frame = 0
 3128              		@ frame_needed = 0, uses_anonymous_args = 0
 3129 11c0 08B5     		push	{r3, lr}
 3130              		.cfi_def_cfa_offset 8
 3131              		.cfi_offset 3, -8
 3132              		.cfi_offset 14, -4
 3133              		.loc 1 1257 0
 3134 11c2 0548     		ldr	r0, .L196
 3135 11c4 4FF48051 		mov	r1, #4096
 3136 11c8 0122     		movs	r2, #1
 3137 11ca FFF7FEFF 		bl	HAL_GPIO_WritePin
 3138              		.loc 1 1260 0
 3139 11ce FF20     		movs	r0, #255
 3140 11d0 FFF7FEFF 		bl	SD_IO_WriteByte
 3141              		.loc 1 1261 0
 3142 11d4 08BD     		pop	{r3, pc}
 3143              	.L197:
 3144 11d6 00BF     		.align	2
 3145              	.L196:
 3146 11d8 00180048 		.word	1207965696
 3147              		.cfi_endproc
 3148              	.LFE166:
 3149              		.size	SD_IO_WriteDummy, .-SD_IO_WriteDummy
ARM GAS  /tmp/cc602Zqo.s 			page 57


 3150              	.Letext0:
 3151              		.file 3 "/nfs/nfs5/home/research/hardware/arm2/gcc-arm-embedded/gcc-arm-none-eabi-4_8-2014q2/arm-n
 3152              		.file 4 "/nfs/nfs5/home/research/hardware/arm2/gcc-arm-embedded/gcc-arm-none-eabi-4_8-2014q2/arm-n
 3153              		.file 5 "../../../../../../ChibiOS/os/ext/CMSIS/ST/STM32L4xx/stm32l476xx.h"
 3154              		.file 6 "../../../../../Drivers/STM32L4xx_HAL_Driver/Inc/stm32l4xx_hal_def.h"
 3155              		.file 7 "../../../../../Drivers/STM32L4xx_HAL_Driver/Inc/stm32l4xx_hal_rcc_ex.h"
 3156              		.file 8 "../../../../../Drivers/STM32L4xx_HAL_Driver/Inc/stm32l4xx_hal_gpio.h"
 3157              		.file 9 "../../../../../Drivers/STM32L4xx_HAL_Driver/Inc/stm32l4xx_hal_dma.h"
 3158              		.file 10 "../../../../../Drivers/STM32L4xx_HAL_Driver/Inc/stm32l4xx_hal_i2c.h"
 3159              		.file 11 "../../../../../Drivers/STM32L4xx_HAL_Driver/Inc/stm32l4xx_hal_spi.h"
 3160              		.file 12 "../../../../../Drivers/BSP/Components/Common/component.h"
 3161              		.file 13 "../../../../../Drivers/BSP/SensorTile/SensorTile.h"
 3162              		.file 14 "../../../../../../ChibiOS/os/ext/CMSIS/include/core_cm4.h"
 3163 11dc AFF30080 		.section	.debug_info,"",%progbits
 3164              	.Ldebug_info0:
 3165 0000 E01C0000 		.4byte	0x1ce0
 3166 0004 0400     		.2byte	0x4
 3167 0006 00000000 		.4byte	.Ldebug_abbrev0
 3168 000a 04       		.byte	0x4
 3169 000b 01       		.uleb128 0x1
 3170 000c 41110000 		.4byte	.LASF421
 3171 0010 01       		.byte	0x1
 3172 0011 9F0C0000 		.4byte	.LASF422
 3173 0015 CB080000 		.4byte	.LASF423
 3174 0019 00000000 		.4byte	.Ltext0
 3175 001d DC110000 		.4byte	.Letext0-.Ltext0
 3176 0021 00000000 		.4byte	.Ldebug_line0
 3177 0025 02       		.uleb128 0x2
 3178 0026 01       		.byte	0x1
 3179 0027 05       		.byte	0x5
 3180 0028 55       		.byte	0x55
 3181 0029 5B020000 		.4byte	0x25b
 3182 002d 03       		.uleb128 0x3
 3183 002e FB0F0000 		.4byte	.LASF0
 3184 0032 72       		.sleb128 -14
 3185 0033 03       		.uleb128 0x3
 3186 0034 0E160000 		.4byte	.LASF1
 3187 0038 73       		.sleb128 -13
 3188 0039 03       		.uleb128 0x3
 3189 003a 6A040000 		.4byte	.LASF2
 3190 003e 74       		.sleb128 -12
 3191 003f 03       		.uleb128 0x3
 3192 0040 670C0000 		.4byte	.LASF3
 3193 0044 75       		.sleb128 -11
 3194 0045 03       		.uleb128 0x3
 3195 0046 88010000 		.4byte	.LASF4
 3196 004a 76       		.sleb128 -10
 3197 004b 03       		.uleb128 0x3
 3198 004c 3A140000 		.4byte	.LASF5
 3199 0050 7B       		.sleb128 -5
 3200 0051 03       		.uleb128 0x3
 3201 0052 C7130000 		.4byte	.LASF6
 3202 0056 7C       		.sleb128 -4
 3203 0057 03       		.uleb128 0x3
 3204 0058 B8030000 		.4byte	.LASF7
 3205 005c 7E       		.sleb128 -2
 3206 005d 03       		.uleb128 0x3
ARM GAS  /tmp/cc602Zqo.s 			page 58


 3207 005e 76120000 		.4byte	.LASF8
 3208 0062 7F       		.sleb128 -1
 3209 0063 03       		.uleb128 0x3
 3210 0064 CA0B0000 		.4byte	.LASF9
 3211 0068 00       		.sleb128 0
 3212 0069 03       		.uleb128 0x3
 3213 006a CA070000 		.4byte	.LASF10
 3214 006e 01       		.sleb128 1
 3215 006f 03       		.uleb128 0x3
 3216 0070 19050000 		.4byte	.LASF11
 3217 0074 02       		.sleb128 2
 3218 0075 03       		.uleb128 0x3
 3219 0076 D7070000 		.4byte	.LASF12
 3220 007a 03       		.sleb128 3
 3221 007b 03       		.uleb128 0x3
 3222 007c 66020000 		.4byte	.LASF13
 3223 0080 04       		.sleb128 4
 3224 0081 03       		.uleb128 0x3
 3225 0082 4F040000 		.4byte	.LASF14
 3226 0086 05       		.sleb128 5
 3227 0087 03       		.uleb128 0x3
 3228 0088 B2120000 		.4byte	.LASF15
 3229 008c 06       		.sleb128 6
 3230 008d 03       		.uleb128 0x3
 3231 008e 150B0000 		.4byte	.LASF16
 3232 0092 07       		.sleb128 7
 3233 0093 03       		.uleb128 0x3
 3234 0094 AF080000 		.4byte	.LASF17
 3235 0098 08       		.sleb128 8
 3236 0099 03       		.uleb128 0x3
 3237 009a DA150000 		.4byte	.LASF18
 3238 009e 09       		.sleb128 9
 3239 009f 03       		.uleb128 0x3
 3240 00a0 E00C0000 		.4byte	.LASF19
 3241 00a4 0A       		.sleb128 10
 3242 00a5 03       		.uleb128 0x3
 3243 00a6 810A0000 		.4byte	.LASF20
 3244 00aa 0B       		.sleb128 11
 3245 00ab 03       		.uleb128 0x3
 3246 00ac BD010000 		.4byte	.LASF21
 3247 00b0 0C       		.sleb128 12
 3248 00b1 03       		.uleb128 0x3
 3249 00b2 950D0000 		.4byte	.LASF22
 3250 00b6 0D       		.sleb128 13
 3251 00b7 03       		.uleb128 0x3
 3252 00b8 010F0000 		.4byte	.LASF23
 3253 00bc 0E       		.sleb128 14
 3254 00bd 03       		.uleb128 0x3
 3255 00be 0A150000 		.4byte	.LASF24
 3256 00c2 0F       		.sleb128 15
 3257 00c3 03       		.uleb128 0x3
 3258 00c4 230A0000 		.4byte	.LASF25
 3259 00c8 10       		.sleb128 16
 3260 00c9 03       		.uleb128 0x3
 3261 00ca 18020000 		.4byte	.LASF26
 3262 00ce 11       		.sleb128 17
 3263 00cf 03       		.uleb128 0x3
ARM GAS  /tmp/cc602Zqo.s 			page 59


 3264 00d0 46170000 		.4byte	.LASF27
 3265 00d4 12       		.sleb128 18
 3266 00d5 03       		.uleb128 0x3
 3267 00d6 280E0000 		.4byte	.LASF28
 3268 00da 13       		.sleb128 19
 3269 00db 03       		.uleb128 0x3
 3270 00dc 760E0000 		.4byte	.LASF29
 3271 00e0 14       		.sleb128 20
 3272 00e1 03       		.uleb128 0x3
 3273 00e2 6F060000 		.4byte	.LASF30
 3274 00e6 15       		.sleb128 21
 3275 00e7 03       		.uleb128 0x3
 3276 00e8 0D010000 		.4byte	.LASF31
 3277 00ec 16       		.sleb128 22
 3278 00ed 03       		.uleb128 0x3
 3279 00ee 2D140000 		.4byte	.LASF32
 3280 00f2 17       		.sleb128 23
 3281 00f3 03       		.uleb128 0x3
 3282 00f4 7B050000 		.4byte	.LASF33
 3283 00f8 18       		.sleb128 24
 3284 00f9 03       		.uleb128 0x3
 3285 00fa D60F0000 		.4byte	.LASF34
 3286 00fe 19       		.sleb128 25
 3287 00ff 03       		.uleb128 0x3
 3288 0100 F3030000 		.4byte	.LASF35
 3289 0104 1A       		.sleb128 26
 3290 0105 03       		.uleb128 0x3
 3291 0106 61100000 		.4byte	.LASF36
 3292 010a 1B       		.sleb128 27
 3293 010b 03       		.uleb128 0x3
 3294 010c CF120000 		.4byte	.LASF37
 3295 0110 1C       		.sleb128 28
 3296 0111 03       		.uleb128 0x3
 3297 0112 710A0000 		.4byte	.LASF38
 3298 0116 1D       		.sleb128 29
 3299 0117 03       		.uleb128 0x3
 3300 0118 5B030000 		.4byte	.LASF39
 3301 011c 1E       		.sleb128 30
 3302 011d 03       		.uleb128 0x3
 3303 011e DD020000 		.4byte	.LASF40
 3304 0122 1F       		.sleb128 31
 3305 0123 03       		.uleb128 0x3
 3306 0124 BF0A0000 		.4byte	.LASF41
 3307 0128 20       		.sleb128 32
 3308 0129 03       		.uleb128 0x3
 3309 012a 6F090000 		.4byte	.LASF42
 3310 012e 21       		.sleb128 33
 3311 012f 03       		.uleb128 0x3
 3312 0130 30010000 		.4byte	.LASF43
 3313 0134 22       		.sleb128 34
 3314 0135 03       		.uleb128 0x3
 3315 0136 B4050000 		.4byte	.LASF44
 3316 013a 23       		.sleb128 35
 3317 013b 03       		.uleb128 0x3
 3318 013c D3140000 		.4byte	.LASF45
 3319 0140 24       		.sleb128 36
 3320 0141 03       		.uleb128 0x3
ARM GAS  /tmp/cc602Zqo.s 			page 60


 3321 0142 63160000 		.4byte	.LASF46
 3322 0146 25       		.sleb128 37
 3323 0147 03       		.uleb128 0x3
 3324 0148 45070000 		.4byte	.LASF47
 3325 014c 26       		.sleb128 38
 3326 014d 03       		.uleb128 0x3
 3327 014e F0160000 		.4byte	.LASF48
 3328 0152 27       		.sleb128 39
 3329 0153 03       		.uleb128 0x3
 3330 0154 1D030000 		.4byte	.LASF49
 3331 0158 28       		.sleb128 40
 3332 0159 03       		.uleb128 0x3
 3333 015a DC0E0000 		.4byte	.LASF50
 3334 015e 29       		.sleb128 41
 3335 015f 03       		.uleb128 0x3
 3336 0160 AE0A0000 		.4byte	.LASF51
 3337 0164 2A       		.sleb128 42
 3338 0165 03       		.uleb128 0x3
 3339 0166 B9150000 		.4byte	.LASF52
 3340 016a 2B       		.sleb128 43
 3341 016b 03       		.uleb128 0x3
 3342 016c A00E0000 		.4byte	.LASF53
 3343 0170 2C       		.sleb128 44
 3344 0171 03       		.uleb128 0x3
 3345 0172 A80D0000 		.4byte	.LASF54
 3346 0176 2D       		.sleb128 45
 3347 0177 03       		.uleb128 0x3
 3348 0178 99100000 		.4byte	.LASF55
 3349 017c 2E       		.sleb128 46
 3350 017d 03       		.uleb128 0x3
 3351 017e 120D0000 		.4byte	.LASF56
 3352 0182 2F       		.sleb128 47
 3353 0183 03       		.uleb128 0x3
 3354 0184 3D160000 		.4byte	.LASF57
 3355 0188 30       		.sleb128 48
 3356 0189 03       		.uleb128 0x3
 3357 018a 940E0000 		.4byte	.LASF58
 3358 018e 31       		.sleb128 49
 3359 018f 03       		.uleb128 0x3
 3360 0190 8B0D0000 		.4byte	.LASF59
 3361 0194 32       		.sleb128 50
 3362 0195 03       		.uleb128 0x3
 3363 0196 D5090000 		.4byte	.LASF60
 3364 019a 33       		.sleb128 51
 3365 019b 03       		.uleb128 0x3
 3366 019c C4030000 		.4byte	.LASF61
 3367 01a0 34       		.sleb128 52
 3368 01a1 03       		.uleb128 0x3
 3369 01a2 C20F0000 		.4byte	.LASF62
 3370 01a6 35       		.sleb128 53
 3371 01a7 03       		.uleb128 0x3
 3372 01a8 D9130000 		.4byte	.LASF63
 3373 01ac 36       		.sleb128 54
 3374 01ad 03       		.uleb128 0x3
 3375 01ae 00150000 		.4byte	.LASF64
 3376 01b2 37       		.sleb128 55
 3377 01b3 03       		.uleb128 0x3
ARM GAS  /tmp/cc602Zqo.s 			page 61


 3378 01b4 420A0000 		.4byte	.LASF65
 3379 01b8 38       		.sleb128 56
 3380 01b9 03       		.uleb128 0x3
 3381 01ba BB160000 		.4byte	.LASF66
 3382 01be 39       		.sleb128 57
 3383 01bf 03       		.uleb128 0x3
 3384 01c0 540D0000 		.4byte	.LASF67
 3385 01c4 3A       		.sleb128 58
 3386 01c5 03       		.uleb128 0x3
 3387 01c6 97050000 		.4byte	.LASF68
 3388 01ca 3B       		.sleb128 59
 3389 01cb 03       		.uleb128 0x3
 3390 01cc F4110000 		.4byte	.LASF69
 3391 01d0 3C       		.sleb128 60
 3392 01d1 03       		.uleb128 0x3
 3393 01d2 AD0E0000 		.4byte	.LASF70
 3394 01d6 3D       		.sleb128 61
 3395 01d7 03       		.uleb128 0x3
 3396 01d8 3E060000 		.4byte	.LASF71
 3397 01dc 3E       		.sleb128 62
 3398 01dd 03       		.uleb128 0x3
 3399 01de 8A150000 		.4byte	.LASF72
 3400 01e2 3F       		.sleb128 63
 3401 01e3 03       		.uleb128 0x3
 3402 01e4 34060000 		.4byte	.LASF73
 3403 01e8 C000     		.sleb128 64
 3404 01ea 03       		.uleb128 0x3
 3405 01eb BB130000 		.4byte	.LASF74
 3406 01ef C100     		.sleb128 65
 3407 01f1 03       		.uleb128 0x3
 3408 01f2 090B0000 		.4byte	.LASF75
 3409 01f6 C200     		.sleb128 66
 3410 01f8 03       		.uleb128 0x3
 3411 01f9 6F050000 		.4byte	.LASF76
 3412 01fd C300     		.sleb128 67
 3413 01ff 03       		.uleb128 0x3
 3414 0200 100A0000 		.4byte	.LASF77
 3415 0204 C400     		.sleb128 68
 3416 0206 03       		.uleb128 0x3
 3417 0207 B7000000 		.4byte	.LASF78
 3418 020b C500     		.sleb128 69
 3419 020d 03       		.uleb128 0x3
 3420 020e 97000000 		.4byte	.LASF79
 3421 0212 C600     		.sleb128 70
 3422 0214 03       		.uleb128 0x3
 3423 0215 83120000 		.4byte	.LASF80
 3424 0219 C700     		.sleb128 71
 3425 021b 03       		.uleb128 0x3
 3426 021c A30F0000 		.4byte	.LASF81
 3427 0220 C800     		.sleb128 72
 3428 0222 03       		.uleb128 0x3
 3429 0223 A5070000 		.4byte	.LASF82
 3430 0227 C900     		.sleb128 73
 3431 0229 03       		.uleb128 0x3
 3432 022a A1130000 		.4byte	.LASF83
 3433 022e CA00     		.sleb128 74
 3434 0230 03       		.uleb128 0x3
ARM GAS  /tmp/cc602Zqo.s 			page 62


 3435 0231 F30A0000 		.4byte	.LASF84
 3436 0235 CB00     		.sleb128 75
 3437 0237 03       		.uleb128 0x3
 3438 0238 360A0000 		.4byte	.LASF85
 3439 023c CC00     		.sleb128 76
 3440 023e 03       		.uleb128 0x3
 3441 023f 03110000 		.4byte	.LASF86
 3442 0243 CD00     		.sleb128 77
 3443 0245 03       		.uleb128 0x3
 3444 0246 1E130000 		.4byte	.LASF87
 3445 024a CE00     		.sleb128 78
 3446 024c 03       		.uleb128 0x3
 3447 024d A6100000 		.4byte	.LASF88
 3448 0251 D000     		.sleb128 80
 3449 0253 03       		.uleb128 0x3
 3450 0254 20170000 		.4byte	.LASF89
 3451 0258 D100     		.sleb128 81
 3452 025a 00       		.byte	0
 3453 025b 04       		.uleb128 0x4
 3454 025c 01       		.byte	0x1
 3455 025d 06       		.byte	0x6
 3456 025e 9B150000 		.4byte	.LASF90
 3457 0262 05       		.uleb128 0x5
 3458 0263 0C110000 		.4byte	.LASF93
 3459 0267 03       		.byte	0x3
 3460 0268 1C       		.byte	0x1c
 3461 0269 6D020000 		.4byte	0x26d
 3462 026d 04       		.uleb128 0x4
 3463 026e 01       		.byte	0x1
 3464 026f 08       		.byte	0x8
 3465 0270 F8130000 		.4byte	.LASF91
 3466 0274 04       		.uleb128 0x4
 3467 0275 02       		.byte	0x2
 3468 0276 05       		.byte	0x5
 3469 0277 60000000 		.4byte	.LASF92
 3470 027b 05       		.uleb128 0x5
 3471 027c BA080000 		.4byte	.LASF94
 3472 0280 03       		.byte	0x3
 3473 0281 26       		.byte	0x26
 3474 0282 86020000 		.4byte	0x286
 3475 0286 04       		.uleb128 0x4
 3476 0287 02       		.byte	0x2
 3477 0288 07       		.byte	0x7
 3478 0289 C7150000 		.4byte	.LASF95
 3479 028d 05       		.uleb128 0x5
 3480 028e 550A0000 		.4byte	.LASF96
 3481 0292 03       		.byte	0x3
 3482 0293 37       		.byte	0x37
 3483 0294 98020000 		.4byte	0x298
 3484 0298 04       		.uleb128 0x4
 3485 0299 04       		.byte	0x4
 3486 029a 05       		.byte	0x5
 3487 029b B00F0000 		.4byte	.LASF97
 3488 029f 05       		.uleb128 0x5
 3489 02a0 16140000 		.4byte	.LASF98
 3490 02a4 03       		.byte	0x3
 3491 02a5 38       		.byte	0x38
ARM GAS  /tmp/cc602Zqo.s 			page 63


 3492 02a6 AA020000 		.4byte	0x2aa
 3493 02aa 04       		.uleb128 0x4
 3494 02ab 04       		.byte	0x4
 3495 02ac 07       		.byte	0x7
 3496 02ad BD120000 		.4byte	.LASF99
 3497 02b1 04       		.uleb128 0x4
 3498 02b2 08       		.byte	0x8
 3499 02b3 05       		.byte	0x5
 3500 02b4 BC0B0000 		.4byte	.LASF100
 3501 02b8 04       		.uleb128 0x4
 3502 02b9 08       		.byte	0x8
 3503 02ba 07       		.byte	0x7
 3504 02bb D7050000 		.4byte	.LASF101
 3505 02bf 06       		.uleb128 0x6
 3506 02c0 04       		.byte	0x4
 3507 02c1 05       		.byte	0x5
 3508 02c2 696E7400 		.ascii	"int\000"
 3509 02c6 04       		.uleb128 0x4
 3510 02c7 04       		.byte	0x4
 3511 02c8 07       		.byte	0x7
 3512 02c9 D8010000 		.4byte	.LASF102
 3513 02cd 05       		.uleb128 0x5
 3514 02ce E40A0000 		.4byte	.LASF103
 3515 02d2 04       		.byte	0x4
 3516 02d3 2A       		.byte	0x2a
 3517 02d4 62020000 		.4byte	0x262
 3518 02d8 05       		.uleb128 0x5
 3519 02d9 430E0000 		.4byte	.LASF104
 3520 02dd 04       		.byte	0x4
 3521 02de 36       		.byte	0x36
 3522 02df 7B020000 		.4byte	0x27b
 3523 02e3 05       		.uleb128 0x5
 3524 02e4 16130000 		.4byte	.LASF105
 3525 02e8 04       		.byte	0x4
 3526 02e9 41       		.byte	0x41
 3527 02ea 8D020000 		.4byte	0x28d
 3528 02ee 05       		.uleb128 0x5
 3529 02ef EE040000 		.4byte	.LASF106
 3530 02f3 04       		.byte	0x4
 3531 02f4 42       		.byte	0x42
 3532 02f5 9F020000 		.4byte	0x29f
 3533 02f9 04       		.uleb128 0x4
 3534 02fa 04       		.byte	0x4
 3535 02fb 07       		.byte	0x7
 3536 02fc 90120000 		.4byte	.LASF107
 3537 0300 07       		.uleb128 0x7
 3538 0301 EE020000 		.4byte	0x2ee
 3539 0305 08       		.uleb128 0x8
 3540 0306 EE020000 		.4byte	0x2ee
 3541 030a 15030000 		.4byte	0x315
 3542 030e 09       		.uleb128 0x9
 3543 030f F9020000 		.4byte	0x2f9
 3544 0313 01       		.byte	0x1
 3545 0314 00       		.byte	0
 3546 0315 07       		.uleb128 0x7
 3547 0316 D8020000 		.4byte	0x2d8
 3548 031a 0A       		.uleb128 0xa
ARM GAS  /tmp/cc602Zqo.s 			page 64


 3549 031b 10       		.byte	0x10
 3550 031c 05       		.byte	0x5
 3551 031d A701     		.2byte	0x1a7
 3552 031f 58030000 		.4byte	0x358
 3553 0323 0B       		.uleb128 0xb
 3554 0324 43435200 		.ascii	"CCR\000"
 3555 0328 05       		.byte	0x5
 3556 0329 A901     		.2byte	0x1a9
 3557 032b 00030000 		.4byte	0x300
 3558 032f 00       		.byte	0
 3559 0330 0C       		.uleb128 0xc
 3560 0331 49040000 		.4byte	.LASF108
 3561 0335 05       		.byte	0x5
 3562 0336 AA01     		.2byte	0x1aa
 3563 0338 00030000 		.4byte	0x300
 3564 033c 04       		.byte	0x4
 3565 033d 0C       		.uleb128 0xc
 3566 033e D0060000 		.4byte	.LASF109
 3567 0342 05       		.byte	0x5
 3568 0343 AB01     		.2byte	0x1ab
 3569 0345 00030000 		.4byte	0x300
 3570 0349 08       		.byte	0x8
 3571 034a 0C       		.uleb128 0xc
 3572 034b 94020000 		.4byte	.LASF110
 3573 034f 05       		.byte	0x5
 3574 0350 AC01     		.2byte	0x1ac
 3575 0352 00030000 		.4byte	0x300
 3576 0356 0C       		.byte	0xc
 3577 0357 00       		.byte	0
 3578 0358 0D       		.uleb128 0xd
 3579 0359 7C130000 		.4byte	.LASF111
 3580 035d 05       		.byte	0x5
 3581 035e AD01     		.2byte	0x1ad
 3582 0360 1A030000 		.4byte	0x31a
 3583 0364 0A       		.uleb128 0xa
 3584 0365 08       		.byte	0x8
 3585 0366 05       		.byte	0x5
 3586 0367 AF01     		.2byte	0x1af
 3587 0369 88030000 		.4byte	0x388
 3588 036d 0B       		.uleb128 0xb
 3589 036e 49535200 		.ascii	"ISR\000"
 3590 0372 05       		.byte	0x5
 3591 0373 B101     		.2byte	0x1b1
 3592 0375 00030000 		.4byte	0x300
 3593 0379 00       		.byte	0
 3594 037a 0C       		.uleb128 0xc
 3595 037b D2100000 		.4byte	.LASF112
 3596 037f 05       		.byte	0x5
 3597 0380 B201     		.2byte	0x1b2
 3598 0382 00030000 		.4byte	0x300
 3599 0386 04       		.byte	0x4
 3600 0387 00       		.byte	0
 3601 0388 0D       		.uleb128 0xd
 3602 0389 750C0000 		.4byte	.LASF113
 3603 038d 05       		.byte	0x5
 3604 038e B301     		.2byte	0x1b3
 3605 0390 64030000 		.4byte	0x364
ARM GAS  /tmp/cc602Zqo.s 			page 65


 3606 0394 0A       		.uleb128 0xa
 3607 0395 30       		.byte	0x30
 3608 0396 05       		.byte	0x5
 3609 0397 2602     		.2byte	0x226
 3610 0399 2D040000 		.4byte	0x42d
 3611 039d 0C       		.uleb128 0xc
 3612 039e C4070000 		.4byte	.LASF114
 3613 03a2 05       		.byte	0x5
 3614 03a3 2802     		.2byte	0x228
 3615 03a5 00030000 		.4byte	0x300
 3616 03a9 00       		.byte	0
 3617 03aa 0C       		.uleb128 0xc
 3618 03ab 6E100000 		.4byte	.LASF115
 3619 03af 05       		.byte	0x5
 3620 03b0 2902     		.2byte	0x229
 3621 03b2 00030000 		.4byte	0x300
 3622 03b6 04       		.byte	0x4
 3623 03b7 0C       		.uleb128 0xc
 3624 03b8 050E0000 		.4byte	.LASF116
 3625 03bc 05       		.byte	0x5
 3626 03bd 2A02     		.2byte	0x22a
 3627 03bf 00030000 		.4byte	0x300
 3628 03c3 08       		.byte	0x8
 3629 03c4 0C       		.uleb128 0xc
 3630 03c5 E9060000 		.4byte	.LASF117
 3631 03c9 05       		.byte	0x5
 3632 03ca 2B02     		.2byte	0x22b
 3633 03cc 00030000 		.4byte	0x300
 3634 03d0 0C       		.byte	0xc
 3635 03d1 0B       		.uleb128 0xb
 3636 03d2 49445200 		.ascii	"IDR\000"
 3637 03d6 05       		.byte	0x5
 3638 03d7 2C02     		.2byte	0x22c
 3639 03d9 00030000 		.4byte	0x300
 3640 03dd 10       		.byte	0x10
 3641 03de 0B       		.uleb128 0xb
 3642 03df 4F445200 		.ascii	"ODR\000"
 3643 03e3 05       		.byte	0x5
 3644 03e4 2D02     		.2byte	0x22d
 3645 03e6 00030000 		.4byte	0x300
 3646 03ea 14       		.byte	0x14
 3647 03eb 0C       		.uleb128 0xc
 3648 03ec 79000000 		.4byte	.LASF118
 3649 03f0 05       		.byte	0x5
 3650 03f1 2E02     		.2byte	0x22e
 3651 03f3 00030000 		.4byte	0x300
 3652 03f7 18       		.byte	0x18
 3653 03f8 0C       		.uleb128 0xc
 3654 03f9 76170000 		.4byte	.LASF119
 3655 03fd 05       		.byte	0x5
 3656 03fe 2F02     		.2byte	0x22f
 3657 0400 00030000 		.4byte	0x300
 3658 0404 1C       		.byte	0x1c
 3659 0405 0B       		.uleb128 0xb
 3660 0406 41465200 		.ascii	"AFR\000"
 3661 040a 05       		.byte	0x5
 3662 040b 3002     		.2byte	0x230
ARM GAS  /tmp/cc602Zqo.s 			page 66


 3663 040d 2D040000 		.4byte	0x42d
 3664 0411 20       		.byte	0x20
 3665 0412 0B       		.uleb128 0xb
 3666 0413 42525200 		.ascii	"BRR\000"
 3667 0417 05       		.byte	0x5
 3668 0418 3102     		.2byte	0x231
 3669 041a 00030000 		.4byte	0x300
 3670 041e 28       		.byte	0x28
 3671 041f 0C       		.uleb128 0xc
 3672 0420 340B0000 		.4byte	.LASF120
 3673 0424 05       		.byte	0x5
 3674 0425 3202     		.2byte	0x232
 3675 0427 00030000 		.4byte	0x300
 3676 042b 2C       		.byte	0x2c
 3677 042c 00       		.byte	0
 3678 042d 07       		.uleb128 0x7
 3679 042e 05030000 		.4byte	0x305
 3680 0432 0D       		.uleb128 0xd
 3681 0433 5C130000 		.4byte	.LASF121
 3682 0437 05       		.byte	0x5
 3683 0438 3402     		.2byte	0x234
 3684 043a 94030000 		.4byte	0x394
 3685 043e 0A       		.uleb128 0xa
 3686 043f 2C       		.byte	0x2c
 3687 0440 05       		.byte	0x5
 3688 0441 3B02     		.2byte	0x23b
 3689 0443 D7040000 		.4byte	0x4d7
 3690 0447 0B       		.uleb128 0xb
 3691 0448 43523100 		.ascii	"CR1\000"
 3692 044c 05       		.byte	0x5
 3693 044d 3D02     		.2byte	0x23d
 3694 044f 00030000 		.4byte	0x300
 3695 0453 00       		.byte	0
 3696 0454 0B       		.uleb128 0xb
 3697 0455 43523200 		.ascii	"CR2\000"
 3698 0459 05       		.byte	0x5
 3699 045a 3E02     		.2byte	0x23e
 3700 045c 00030000 		.4byte	0x300
 3701 0460 04       		.byte	0x4
 3702 0461 0C       		.uleb128 0xc
 3703 0462 4D000000 		.4byte	.LASF122
 3704 0466 05       		.byte	0x5
 3705 0467 3F02     		.2byte	0x23f
 3706 0469 00030000 		.4byte	0x300
 3707 046d 08       		.byte	0x8
 3708 046e 0C       		.uleb128 0xc
 3709 046f 07080000 		.4byte	.LASF123
 3710 0473 05       		.byte	0x5
 3711 0474 4002     		.2byte	0x240
 3712 0476 00030000 		.4byte	0x300
 3713 047a 0C       		.byte	0xc
 3714 047b 0C       		.uleb128 0xc
 3715 047c AA0B0000 		.4byte	.LASF124
 3716 0480 05       		.byte	0x5
 3717 0481 4102     		.2byte	0x241
 3718 0483 00030000 		.4byte	0x300
 3719 0487 10       		.byte	0x10
ARM GAS  /tmp/cc602Zqo.s 			page 67


 3720 0488 0C       		.uleb128 0xc
 3721 0489 DD030000 		.4byte	.LASF125
 3722 048d 05       		.byte	0x5
 3723 048e 4202     		.2byte	0x242
 3724 0490 00030000 		.4byte	0x300
 3725 0494 14       		.byte	0x14
 3726 0495 0B       		.uleb128 0xb
 3727 0496 49535200 		.ascii	"ISR\000"
 3728 049a 05       		.byte	0x5
 3729 049b 4302     		.2byte	0x243
 3730 049d 00030000 		.4byte	0x300
 3731 04a1 18       		.byte	0x18
 3732 04a2 0B       		.uleb128 0xb
 3733 04a3 49435200 		.ascii	"ICR\000"
 3734 04a7 05       		.byte	0x5
 3735 04a8 4402     		.2byte	0x244
 3736 04aa 00030000 		.4byte	0x300
 3737 04ae 1C       		.byte	0x1c
 3738 04af 0C       		.uleb128 0xc
 3739 04b0 1C0D0000 		.4byte	.LASF126
 3740 04b4 05       		.byte	0x5
 3741 04b5 4502     		.2byte	0x245
 3742 04b7 00030000 		.4byte	0x300
 3743 04bb 20       		.byte	0x20
 3744 04bc 0C       		.uleb128 0xc
 3745 04bd 40070000 		.4byte	.LASF127
 3746 04c1 05       		.byte	0x5
 3747 04c2 4602     		.2byte	0x246
 3748 04c4 00030000 		.4byte	0x300
 3749 04c8 24       		.byte	0x24
 3750 04c9 0C       		.uleb128 0xc
 3751 04ca 420B0000 		.4byte	.LASF128
 3752 04ce 05       		.byte	0x5
 3753 04cf 4702     		.2byte	0x247
 3754 04d1 00030000 		.4byte	0x300
 3755 04d5 28       		.byte	0x28
 3756 04d6 00       		.byte	0
 3757 04d7 0D       		.uleb128 0xd
 3758 04d8 24040000 		.4byte	.LASF129
 3759 04dc 05       		.byte	0x5
 3760 04dd 4802     		.2byte	0x248
 3761 04df 3E040000 		.4byte	0x43e
 3762 04e3 0A       		.uleb128 0xa
 3763 04e4 98       		.byte	0x98
 3764 04e5 05       		.byte	0x5
 3765 04e6 C002     		.2byte	0x2c0
 3766 04e8 DA060000 		.4byte	0x6da
 3767 04ec 0B       		.uleb128 0xb
 3768 04ed 435200   		.ascii	"CR\000"
 3769 04f0 05       		.byte	0x5
 3770 04f1 C202     		.2byte	0x2c2
 3771 04f3 00030000 		.4byte	0x300
 3772 04f7 00       		.byte	0
 3773 04f8 0C       		.uleb128 0xc
 3774 04f9 210D0000 		.4byte	.LASF130
 3775 04fd 05       		.byte	0x5
 3776 04fe C302     		.2byte	0x2c3
ARM GAS  /tmp/cc602Zqo.s 			page 68


 3777 0500 00030000 		.4byte	0x300
 3778 0504 04       		.byte	0x4
 3779 0505 0C       		.uleb128 0xc
 3780 0506 CD100000 		.4byte	.LASF131
 3781 050a 05       		.byte	0x5
 3782 050b C402     		.2byte	0x2c4
 3783 050d 00030000 		.4byte	0x300
 3784 0511 08       		.byte	0x8
 3785 0512 0C       		.uleb128 0xc
 3786 0513 D10A0000 		.4byte	.LASF132
 3787 0517 05       		.byte	0x5
 3788 0518 C502     		.2byte	0x2c5
 3789 051a 00030000 		.4byte	0x300
 3790 051e 0C       		.byte	0xc
 3791 051f 0C       		.uleb128 0xc
 3792 0520 810C0000 		.4byte	.LASF133
 3793 0524 05       		.byte	0x5
 3794 0525 C602     		.2byte	0x2c6
 3795 0527 00030000 		.4byte	0x300
 3796 052b 10       		.byte	0x10
 3797 052c 0C       		.uleb128 0xc
 3798 052d E2040000 		.4byte	.LASF134
 3799 0531 05       		.byte	0x5
 3800 0532 C702     		.2byte	0x2c7
 3801 0534 00030000 		.4byte	0x300
 3802 0538 14       		.byte	0x14
 3803 0539 0C       		.uleb128 0xc
 3804 053a 08000000 		.4byte	.LASF135
 3805 053e 05       		.byte	0x5
 3806 053f C802     		.2byte	0x2c8
 3807 0541 00030000 		.4byte	0x300
 3808 0545 18       		.byte	0x18
 3809 0546 0C       		.uleb128 0xc
 3810 0547 59140000 		.4byte	.LASF136
 3811 054b 05       		.byte	0x5
 3812 054c C902     		.2byte	0x2c9
 3813 054e 00030000 		.4byte	0x300
 3814 0552 1C       		.byte	0x1c
 3815 0553 0C       		.uleb128 0xc
 3816 0554 D70E0000 		.4byte	.LASF137
 3817 0558 05       		.byte	0x5
 3818 0559 CA02     		.2byte	0x2ca
 3819 055b 00030000 		.4byte	0x300
 3820 055f 20       		.byte	0x20
 3821 0560 0C       		.uleb128 0xc
 3822 0561 1F0F0000 		.4byte	.LASF138
 3823 0565 05       		.byte	0x5
 3824 0566 CB02     		.2byte	0x2cb
 3825 0568 EE020000 		.4byte	0x2ee
 3826 056c 24       		.byte	0x24
 3827 056d 0C       		.uleb128 0xc
 3828 056e 6D170000 		.4byte	.LASF139
 3829 0572 05       		.byte	0x5
 3830 0573 CC02     		.2byte	0x2cc
 3831 0575 00030000 		.4byte	0x300
 3832 0579 28       		.byte	0x28
 3833 057a 0C       		.uleb128 0xc
ARM GAS  /tmp/cc602Zqo.s 			page 69


 3834 057b 840E0000 		.4byte	.LASF140
 3835 057f 05       		.byte	0x5
 3836 0580 CD02     		.2byte	0x2cd
 3837 0582 00030000 		.4byte	0x300
 3838 0586 2C       		.byte	0x2c
 3839 0587 0C       		.uleb128 0xc
 3840 0588 AC060000 		.4byte	.LASF141
 3841 058c 05       		.byte	0x5
 3842 058d CE02     		.2byte	0x2ce
 3843 058f 00030000 		.4byte	0x300
 3844 0593 30       		.byte	0x30
 3845 0594 0C       		.uleb128 0xc
 3846 0595 AA050000 		.4byte	.LASF142
 3847 0599 05       		.byte	0x5
 3848 059a CF02     		.2byte	0x2cf
 3849 059c EE020000 		.4byte	0x2ee
 3850 05a0 34       		.byte	0x34
 3851 05a1 0C       		.uleb128 0xc
 3852 05a2 51070000 		.4byte	.LASF143
 3853 05a6 05       		.byte	0x5
 3854 05a7 D002     		.2byte	0x2d0
 3855 05a9 00030000 		.4byte	0x300
 3856 05ad 38       		.byte	0x38
 3857 05ae 0C       		.uleb128 0xc
 3858 05af 5B070000 		.4byte	.LASF144
 3859 05b3 05       		.byte	0x5
 3860 05b4 D102     		.2byte	0x2d1
 3861 05b6 00030000 		.4byte	0x300
 3862 05ba 3C       		.byte	0x3c
 3863 05bb 0C       		.uleb128 0xc
 3864 05bc 04010000 		.4byte	.LASF145
 3865 05c0 05       		.byte	0x5
 3866 05c1 D202     		.2byte	0x2d2
 3867 05c3 00030000 		.4byte	0x300
 3868 05c7 40       		.byte	0x40
 3869 05c8 0C       		.uleb128 0xc
 3870 05c9 CE160000 		.4byte	.LASF146
 3871 05cd 05       		.byte	0x5
 3872 05ce D302     		.2byte	0x2d3
 3873 05d0 EE020000 		.4byte	0x2ee
 3874 05d4 44       		.byte	0x44
 3875 05d5 0C       		.uleb128 0xc
 3876 05d6 8F050000 		.4byte	.LASF147
 3877 05da 05       		.byte	0x5
 3878 05db D402     		.2byte	0x2d4
 3879 05dd 00030000 		.4byte	0x300
 3880 05e1 48       		.byte	0x48
 3881 05e2 0C       		.uleb128 0xc
 3882 05e3 0E130000 		.4byte	.LASF148
 3883 05e7 05       		.byte	0x5
 3884 05e8 D502     		.2byte	0x2d5
 3885 05ea 00030000 		.4byte	0x300
 3886 05ee 4C       		.byte	0x4c
 3887 05ef 0C       		.uleb128 0xc
 3888 05f0 63080000 		.4byte	.LASF149
 3889 05f4 05       		.byte	0x5
 3890 05f5 D602     		.2byte	0x2d6
ARM GAS  /tmp/cc602Zqo.s 			page 70


 3891 05f7 00030000 		.4byte	0x300
 3892 05fb 50       		.byte	0x50
 3893 05fc 0C       		.uleb128 0xc
 3894 05fd 4A0F0000 		.4byte	.LASF150
 3895 0601 05       		.byte	0x5
 3896 0602 D702     		.2byte	0x2d7
 3897 0604 EE020000 		.4byte	0x2ee
 3898 0608 54       		.byte	0x54
 3899 0609 0C       		.uleb128 0xc
 3900 060a 16110000 		.4byte	.LASF151
 3901 060e 05       		.byte	0x5
 3902 060f D802     		.2byte	0x2d8
 3903 0611 00030000 		.4byte	0x300
 3904 0615 58       		.byte	0x58
 3905 0616 0C       		.uleb128 0xc
 3906 0617 1F110000 		.4byte	.LASF152
 3907 061b 05       		.byte	0x5
 3908 061c D902     		.2byte	0x2d9
 3909 061e 00030000 		.4byte	0x300
 3910 0622 5C       		.byte	0x5c
 3911 0623 0C       		.uleb128 0xc
 3912 0624 670D0000 		.4byte	.LASF153
 3913 0628 05       		.byte	0x5
 3914 0629 DA02     		.2byte	0x2da
 3915 062b 00030000 		.4byte	0x300
 3916 062f 60       		.byte	0x60
 3917 0630 0C       		.uleb128 0xc
 3918 0631 540F0000 		.4byte	.LASF154
 3919 0635 05       		.byte	0x5
 3920 0636 DB02     		.2byte	0x2db
 3921 0638 EE020000 		.4byte	0x2ee
 3922 063c 64       		.byte	0x64
 3923 063d 0C       		.uleb128 0xc
 3924 063e 8F070000 		.4byte	.LASF155
 3925 0642 05       		.byte	0x5
 3926 0643 DC02     		.2byte	0x2dc
 3927 0645 00030000 		.4byte	0x300
 3928 0649 68       		.byte	0x68
 3929 064a 0C       		.uleb128 0xc
 3930 064b 29170000 		.4byte	.LASF156
 3931 064f 05       		.byte	0x5
 3932 0650 DD02     		.2byte	0x2dd
 3933 0652 00030000 		.4byte	0x300
 3934 0656 6C       		.byte	0x6c
 3935 0657 0C       		.uleb128 0xc
 3936 0658 76140000 		.4byte	.LASF157
 3937 065c 05       		.byte	0x5
 3938 065d DE02     		.2byte	0x2de
 3939 065f 00030000 		.4byte	0x300
 3940 0663 70       		.byte	0x70
 3941 0664 0C       		.uleb128 0xc
 3942 0665 5E0F0000 		.4byte	.LASF158
 3943 0669 05       		.byte	0x5
 3944 066a DF02     		.2byte	0x2df
 3945 066c EE020000 		.4byte	0x2ee
 3946 0670 74       		.byte	0x74
 3947 0671 0C       		.uleb128 0xc
ARM GAS  /tmp/cc602Zqo.s 			page 71


 3948 0672 C50D0000 		.4byte	.LASF159
 3949 0676 05       		.byte	0x5
 3950 0677 E002     		.2byte	0x2e0
 3951 0679 00030000 		.4byte	0x300
 3952 067d 78       		.byte	0x78
 3953 067e 0C       		.uleb128 0xc
 3954 067f D00D0000 		.4byte	.LASF160
 3955 0683 05       		.byte	0x5
 3956 0684 E102     		.2byte	0x2e1
 3957 0686 00030000 		.4byte	0x300
 3958 068a 7C       		.byte	0x7c
 3959 068b 0C       		.uleb128 0xc
 3960 068c C9140000 		.4byte	.LASF161
 3961 0690 05       		.byte	0x5
 3962 0691 E202     		.2byte	0x2e2
 3963 0693 00030000 		.4byte	0x300
 3964 0697 80       		.byte	0x80
 3965 0698 0C       		.uleb128 0xc
 3966 0699 680F0000 		.4byte	.LASF162
 3967 069d 05       		.byte	0x5
 3968 069e E302     		.2byte	0x2e3
 3969 06a0 EE020000 		.4byte	0x2ee
 3970 06a4 84       		.byte	0x84
 3971 06a5 0C       		.uleb128 0xc
 3972 06a6 8D0C0000 		.4byte	.LASF163
 3973 06aa 05       		.byte	0x5
 3974 06ab E402     		.2byte	0x2e4
 3975 06ad 00030000 		.4byte	0x300
 3976 06b1 88       		.byte	0x88
 3977 06b2 0C       		.uleb128 0xc
 3978 06b3 720F0000 		.4byte	.LASF164
 3979 06b7 05       		.byte	0x5
 3980 06b8 E502     		.2byte	0x2e5
 3981 06ba 00030000 		.4byte	0x300
 3982 06be 8C       		.byte	0x8c
 3983 06bf 0C       		.uleb128 0xc
 3984 06c0 34020000 		.4byte	.LASF165
 3985 06c4 05       		.byte	0x5
 3986 06c5 E602     		.2byte	0x2e6
 3987 06c7 00030000 		.4byte	0x300
 3988 06cb 90       		.byte	0x90
 3989 06cc 0B       		.uleb128 0xb
 3990 06cd 43535200 		.ascii	"CSR\000"
 3991 06d1 05       		.byte	0x5
 3992 06d2 E702     		.2byte	0x2e7
 3993 06d4 00030000 		.4byte	0x300
 3994 06d8 94       		.byte	0x94
 3995 06d9 00       		.byte	0
 3996 06da 0D       		.uleb128 0xd
 3997 06db 99070000 		.4byte	.LASF166
 3998 06df 05       		.byte	0x5
 3999 06e0 E802     		.2byte	0x2e8
 4000 06e2 E3040000 		.4byte	0x4e3
 4001 06e6 0A       		.uleb128 0xa
 4002 06e7 24       		.byte	0x24
 4003 06e8 05       		.byte	0x5
 4004 06e9 5E03     		.2byte	0x35e
ARM GAS  /tmp/cc602Zqo.s 			page 72


 4005 06eb 63070000 		.4byte	0x763
 4006 06ef 0B       		.uleb128 0xb
 4007 06f0 43523100 		.ascii	"CR1\000"
 4008 06f4 05       		.byte	0x5
 4009 06f5 6003     		.2byte	0x360
 4010 06f7 00030000 		.4byte	0x300
 4011 06fb 00       		.byte	0
 4012 06fc 0B       		.uleb128 0xb
 4013 06fd 43523200 		.ascii	"CR2\000"
 4014 0701 05       		.byte	0x5
 4015 0702 6103     		.2byte	0x361
 4016 0704 00030000 		.4byte	0x300
 4017 0708 04       		.byte	0x4
 4018 0709 0B       		.uleb128 0xb
 4019 070a 535200   		.ascii	"SR\000"
 4020 070d 05       		.byte	0x5
 4021 070e 6203     		.2byte	0x362
 4022 0710 00030000 		.4byte	0x300
 4023 0714 08       		.byte	0x8
 4024 0715 0B       		.uleb128 0xb
 4025 0716 445200   		.ascii	"DR\000"
 4026 0719 05       		.byte	0x5
 4027 071a 6303     		.2byte	0x363
 4028 071c 00030000 		.4byte	0x300
 4029 0720 0C       		.byte	0xc
 4030 0721 0C       		.uleb128 0xc
 4031 0722 AB130000 		.4byte	.LASF167
 4032 0726 05       		.byte	0x5
 4033 0727 6403     		.2byte	0x364
 4034 0729 00030000 		.4byte	0x300
 4035 072d 10       		.byte	0x10
 4036 072e 0C       		.uleb128 0xc
 4037 072f 4C020000 		.4byte	.LASF168
 4038 0733 05       		.byte	0x5
 4039 0734 6503     		.2byte	0x365
 4040 0736 00030000 		.4byte	0x300
 4041 073a 14       		.byte	0x14
 4042 073b 0C       		.uleb128 0xc
 4043 073c 5C080000 		.4byte	.LASF169
 4044 0740 05       		.byte	0x5
 4045 0741 6603     		.2byte	0x366
 4046 0743 00030000 		.4byte	0x300
 4047 0747 18       		.byte	0x18
 4048 0748 0C       		.uleb128 0xc
 4049 0749 AA050000 		.4byte	.LASF142
 4050 074d 05       		.byte	0x5
 4051 074e 6703     		.2byte	0x367
 4052 0750 EE020000 		.4byte	0x2ee
 4053 0754 1C       		.byte	0x1c
 4054 0755 0C       		.uleb128 0xc
 4055 0756 CE160000 		.4byte	.LASF146
 4056 075a 05       		.byte	0x5
 4057 075b 6803     		.2byte	0x368
 4058 075d EE020000 		.4byte	0x2ee
 4059 0761 20       		.byte	0x20
 4060 0762 00       		.byte	0
 4061 0763 0D       		.uleb128 0xd
ARM GAS  /tmp/cc602Zqo.s 			page 73


 4062 0764 0D0E0000 		.4byte	.LASF170
 4063 0768 05       		.byte	0x5
 4064 0769 6903     		.2byte	0x369
 4065 076b E6060000 		.4byte	0x6e6
 4066 076f 0E       		.uleb128 0xe
 4067 0770 04       		.byte	0x4
 4068 0771 04       		.uleb128 0x4
 4069 0772 01       		.byte	0x1
 4070 0773 08       		.byte	0x8
 4071 0774 92000000 		.4byte	.LASF171
 4072 0778 02       		.uleb128 0x2
 4073 0779 01       		.byte	0x1
 4074 077a 06       		.byte	0x6
 4075 077b 3A       		.byte	0x3a
 4076 077c 99070000 		.4byte	0x799
 4077 0780 03       		.uleb128 0x3
 4078 0781 95060000 		.4byte	.LASF172
 4079 0785 00       		.sleb128 0
 4080 0786 03       		.uleb128 0x3
 4081 0787 CD050000 		.4byte	.LASF173
 4082 078b 01       		.sleb128 1
 4083 078c 03       		.uleb128 0x3
 4084 078d 2B020000 		.4byte	.LASF174
 4085 0791 02       		.sleb128 2
 4086 0792 03       		.uleb128 0x3
 4087 0793 30040000 		.4byte	.LASF175
 4088 0797 03       		.sleb128 3
 4089 0798 00       		.byte	0
 4090 0799 05       		.uleb128 0x5
 4091 079a 6F0D0000 		.4byte	.LASF176
 4092 079e 06       		.byte	0x6
 4093 079f 3F       		.byte	0x3f
 4094 07a0 78070000 		.4byte	0x778
 4095 07a4 02       		.uleb128 0x2
 4096 07a5 01       		.byte	0x1
 4097 07a6 06       		.byte	0x6
 4098 07a7 45       		.byte	0x45
 4099 07a8 B9070000 		.4byte	0x7b9
 4100 07ac 03       		.uleb128 0x3
 4101 07ad 5B0B0000 		.4byte	.LASF177
 4102 07b1 00       		.sleb128 0
 4103 07b2 03       		.uleb128 0x3
 4104 07b3 E4000000 		.4byte	.LASF178
 4105 07b7 01       		.sleb128 1
 4106 07b8 00       		.byte	0
 4107 07b9 05       		.uleb128 0x5
 4108 07ba 10120000 		.4byte	.LASF179
 4109 07be 06       		.byte	0x6
 4110 07bf 48       		.byte	0x48
 4111 07c0 A4070000 		.4byte	0x7a4
 4112 07c4 0F       		.uleb128 0xf
 4113 07c5 1C       		.byte	0x1c
 4114 07c6 07       		.byte	0x7
 4115 07c7 42       		.byte	0x42
 4116 07c8 21080000 		.4byte	0x821
 4117 07cc 10       		.uleb128 0x10
 4118 07cd D20C0000 		.4byte	.LASF180
ARM GAS  /tmp/cc602Zqo.s 			page 74


 4119 07d1 07       		.byte	0x7
 4120 07d2 45       		.byte	0x45
 4121 07d3 EE020000 		.4byte	0x2ee
 4122 07d7 00       		.byte	0
 4123 07d8 10       		.uleb128 0x10
 4124 07d9 E90F0000 		.4byte	.LASF181
 4125 07dd 07       		.byte	0x7
 4126 07de 48       		.byte	0x48
 4127 07df EE020000 		.4byte	0x2ee
 4128 07e3 04       		.byte	0x4
 4129 07e4 10       		.uleb128 0x10
 4130 07e5 F20F0000 		.4byte	.LASF182
 4131 07e9 07       		.byte	0x7
 4132 07ea 4B       		.byte	0x4b
 4133 07eb EE020000 		.4byte	0x2ee
 4134 07ef 08       		.byte	0x8
 4135 07f0 10       		.uleb128 0x10
 4136 07f1 0F100000 		.4byte	.LASF183
 4137 07f5 07       		.byte	0x7
 4138 07f6 4E       		.byte	0x4e
 4139 07f7 EE020000 		.4byte	0x2ee
 4140 07fb 0C       		.byte	0xc
 4141 07fc 10       		.uleb128 0x10
 4142 07fd 18100000 		.4byte	.LASF184
 4143 0801 07       		.byte	0x7
 4144 0802 51       		.byte	0x51
 4145 0803 EE020000 		.4byte	0x2ee
 4146 0807 10       		.byte	0x10
 4147 0808 10       		.uleb128 0x10
 4148 0809 21100000 		.4byte	.LASF185
 4149 080d 07       		.byte	0x7
 4150 080e 54       		.byte	0x54
 4151 080f EE020000 		.4byte	0x2ee
 4152 0813 14       		.byte	0x14
 4153 0814 10       		.uleb128 0x10
 4154 0815 31110000 		.4byte	.LASF186
 4155 0819 07       		.byte	0x7
 4156 081a 57       		.byte	0x57
 4157 081b EE020000 		.4byte	0x2ee
 4158 081f 18       		.byte	0x18
 4159 0820 00       		.byte	0
 4160 0821 05       		.uleb128 0x5
 4161 0822 CB040000 		.4byte	.LASF187
 4162 0826 07       		.byte	0x7
 4163 0827 59       		.byte	0x59
 4164 0828 C4070000 		.4byte	0x7c4
 4165 082c 0F       		.uleb128 0xf
 4166 082d 18       		.byte	0x18
 4167 082e 07       		.byte	0x7
 4168 082f 60       		.byte	0x60
 4169 0830 7D080000 		.4byte	0x87d
 4170 0834 10       		.uleb128 0x10
 4171 0835 7D060000 		.4byte	.LASF188
 4172 0839 07       		.byte	0x7
 4173 083a 63       		.byte	0x63
 4174 083b EE020000 		.4byte	0x2ee
 4175 083f 00       		.byte	0
ARM GAS  /tmp/cc602Zqo.s 			page 75


 4176 0840 10       		.uleb128 0x10
 4177 0841 28110000 		.4byte	.LASF189
 4178 0845 07       		.byte	0x7
 4179 0846 66       		.byte	0x66
 4180 0847 EE020000 		.4byte	0x2ee
 4181 084b 04       		.byte	0x4
 4182 084c 10       		.uleb128 0x10
 4183 084d B90F0000 		.4byte	.LASF190
 4184 0851 07       		.byte	0x7
 4185 0852 69       		.byte	0x69
 4186 0853 EE020000 		.4byte	0x2ee
 4187 0857 08       		.byte	0x8
 4188 0858 10       		.uleb128 0x10
 4189 0859 CD0F0000 		.4byte	.LASF191
 4190 085d 07       		.byte	0x7
 4191 085e 6C       		.byte	0x6c
 4192 085f EE020000 		.4byte	0x2ee
 4193 0863 0C       		.byte	0xc
 4194 0864 10       		.uleb128 0x10
 4195 0865 07120000 		.4byte	.LASF192
 4196 0869 07       		.byte	0x7
 4197 086a 6F       		.byte	0x6f
 4198 086b EE020000 		.4byte	0x2ee
 4199 086f 10       		.byte	0x10
 4200 0870 10       		.uleb128 0x10
 4201 0871 F4000000 		.4byte	.LASF193
 4202 0875 07       		.byte	0x7
 4203 0876 72       		.byte	0x72
 4204 0877 EE020000 		.4byte	0x2ee
 4205 087b 14       		.byte	0x14
 4206 087c 00       		.byte	0
 4207 087d 05       		.uleb128 0x5
 4208 087e 330F0000 		.4byte	.LASF194
 4209 0882 07       		.byte	0x7
 4210 0883 74       		.byte	0x74
 4211 0884 2C080000 		.4byte	0x82c
 4212 0888 0F       		.uleb128 0xf
 4213 0889 88       		.byte	0x88
 4214 088a 07       		.byte	0x7
 4215 088b 7B       		.byte	0x7b
 4216 088c A5090000 		.4byte	0x9a5
 4217 0890 10       		.uleb128 0x10
 4218 0891 98010000 		.4byte	.LASF195
 4219 0895 07       		.byte	0x7
 4220 0896 7D       		.byte	0x7d
 4221 0897 EE020000 		.4byte	0x2ee
 4222 089b 00       		.byte	0
 4223 089c 10       		.uleb128 0x10
 4224 089d 00000000 		.4byte	.LASF196
 4225 08a1 07       		.byte	0x7
 4226 08a2 80       		.byte	0x80
 4227 08a3 21080000 		.4byte	0x821
 4228 08a7 04       		.byte	0x4
 4229 08a8 10       		.uleb128 0x10
 4230 08a9 8C020000 		.4byte	.LASF197
 4231 08ad 07       		.byte	0x7
 4232 08ae 85       		.byte	0x85
ARM GAS  /tmp/cc602Zqo.s 			page 76


 4233 08af 7D080000 		.4byte	0x87d
 4234 08b3 20       		.byte	0x20
 4235 08b4 10       		.uleb128 0x10
 4236 08b5 DB0D0000 		.4byte	.LASF198
 4237 08b9 07       		.byte	0x7
 4238 08ba 8A       		.byte	0x8a
 4239 08bb EE020000 		.4byte	0x2ee
 4240 08bf 38       		.byte	0x38
 4241 08c0 10       		.uleb128 0x10
 4242 08c1 0C080000 		.4byte	.LASF199
 4243 08c5 07       		.byte	0x7
 4244 08c6 8D       		.byte	0x8d
 4245 08c7 EE020000 		.4byte	0x2ee
 4246 08cb 3C       		.byte	0x3c
 4247 08cc 10       		.uleb128 0x10
 4248 08cd E5070000 		.4byte	.LASF200
 4249 08d1 07       		.byte	0x7
 4250 08d2 92       		.byte	0x92
 4251 08d3 EE020000 		.4byte	0x2ee
 4252 08d7 40       		.byte	0x40
 4253 08d8 10       		.uleb128 0x10
 4254 08d9 470B0000 		.4byte	.LASF201
 4255 08dd 07       		.byte	0x7
 4256 08de 99       		.byte	0x99
 4257 08df EE020000 		.4byte	0x2ee
 4258 08e3 44       		.byte	0x44
 4259 08e4 10       		.uleb128 0x10
 4260 08e5 200B0000 		.4byte	.LASF202
 4261 08e9 07       		.byte	0x7
 4262 08ea A0       		.byte	0xa0
 4263 08eb EE020000 		.4byte	0x2ee
 4264 08ef 48       		.byte	0x48
 4265 08f0 10       		.uleb128 0x10
 4266 08f1 75100000 		.4byte	.LASF203
 4267 08f5 07       		.byte	0x7
 4268 08f6 A5       		.byte	0xa5
 4269 08f7 EE020000 		.4byte	0x2ee
 4270 08fb 4C       		.byte	0x4c
 4271 08fc 10       		.uleb128 0x10
 4272 08fd F2020000 		.4byte	.LASF204
 4273 0901 07       		.byte	0x7
 4274 0902 A8       		.byte	0xa8
 4275 0903 EE020000 		.4byte	0x2ee
 4276 0907 50       		.byte	0x50
 4277 0908 10       		.uleb128 0x10
 4278 0909 99020000 		.4byte	.LASF205
 4279 090d 07       		.byte	0x7
 4280 090e AD       		.byte	0xad
 4281 090f EE020000 		.4byte	0x2ee
 4282 0913 54       		.byte	0x54
 4283 0914 10       		.uleb128 0x10
 4284 0915 53020000 		.4byte	.LASF206
 4285 0919 07       		.byte	0x7
 4286 091a B2       		.byte	0xb2
 4287 091b EE020000 		.4byte	0x2ee
 4288 091f 58       		.byte	0x58
 4289 0920 10       		.uleb128 0x10
ARM GAS  /tmp/cc602Zqo.s 			page 77


 4290 0921 1B010000 		.4byte	.LASF207
 4291 0925 07       		.byte	0x7
 4292 0926 B5       		.byte	0xb5
 4293 0927 EE020000 		.4byte	0x2ee
 4294 092b 5C       		.byte	0x5c
 4295 092c 10       		.uleb128 0x10
 4296 092d 1D160000 		.4byte	.LASF208
 4297 0931 07       		.byte	0x7
 4298 0932 B8       		.byte	0xb8
 4299 0933 EE020000 		.4byte	0x2ee
 4300 0937 60       		.byte	0x60
 4301 0938 10       		.uleb128 0x10
 4302 0939 FD090000 		.4byte	.LASF209
 4303 093d 07       		.byte	0x7
 4304 093e BB       		.byte	0xbb
 4305 093f EE020000 		.4byte	0x2ee
 4306 0943 64       		.byte	0x64
 4307 0944 10       		.uleb128 0x10
 4308 0945 A8090000 		.4byte	.LASF210
 4309 0949 07       		.byte	0x7
 4310 094a C0       		.byte	0xc0
 4311 094b EE020000 		.4byte	0x2ee
 4312 094f 68       		.byte	0x68
 4313 0950 10       		.uleb128 0x10
 4314 0951 58040000 		.4byte	.LASF211
 4315 0955 07       		.byte	0x7
 4316 0956 C7       		.byte	0xc7
 4317 0957 EE020000 		.4byte	0x2ee
 4318 095b 6C       		.byte	0x6c
 4319 095c 10       		.uleb128 0x10
 4320 095d 65030000 		.4byte	.LASF212
 4321 0961 07       		.byte	0x7
 4322 0962 CE       		.byte	0xce
 4323 0963 EE020000 		.4byte	0x2ee
 4324 0967 70       		.byte	0x70
 4325 0968 10       		.uleb128 0x10
 4326 0969 0E060000 		.4byte	.LASF213
 4327 096d 07       		.byte	0x7
 4328 096e D3       		.byte	0xd3
 4329 096f EE020000 		.4byte	0x2ee
 4330 0973 74       		.byte	0x74
 4331 0974 10       		.uleb128 0x10
 4332 0975 980B0000 		.4byte	.LASF214
 4333 0979 07       		.byte	0x7
 4334 097a D6       		.byte	0xd6
 4335 097b EE020000 		.4byte	0x2ee
 4336 097f 78       		.byte	0x78
 4337 0980 10       		.uleb128 0x10
 4338 0981 33080000 		.4byte	.LASF215
 4339 0985 07       		.byte	0x7
 4340 0986 DB       		.byte	0xdb
 4341 0987 EE020000 		.4byte	0x2ee
 4342 098b 7C       		.byte	0x7c
 4343 098c 10       		.uleb128 0x10
 4344 098d 3F0D0000 		.4byte	.LASF216
 4345 0991 07       		.byte	0x7
 4346 0992 E2       		.byte	0xe2
ARM GAS  /tmp/cc602Zqo.s 			page 78


 4347 0993 EE020000 		.4byte	0x2ee
 4348 0997 80       		.byte	0x80
 4349 0998 10       		.uleb128 0x10
 4350 0999 7C0F0000 		.4byte	.LASF217
 4351 099d 07       		.byte	0x7
 4352 099e E7       		.byte	0xe7
 4353 099f EE020000 		.4byte	0x2ee
 4354 09a3 84       		.byte	0x84
 4355 09a4 00       		.byte	0
 4356 09a5 05       		.uleb128 0x5
 4357 09a6 99120000 		.4byte	.LASF218
 4358 09aa 07       		.byte	0x7
 4359 09ab E9       		.byte	0xe9
 4360 09ac 88080000 		.4byte	0x888
 4361 09b0 0F       		.uleb128 0xf
 4362 09b1 14       		.byte	0x14
 4363 09b2 08       		.byte	0x8
 4364 09b3 41       		.byte	0x41
 4365 09b4 F5090000 		.4byte	0x9f5
 4366 09b8 11       		.uleb128 0x11
 4367 09b9 50696E00 		.ascii	"Pin\000"
 4368 09bd 08       		.byte	0x8
 4369 09be 43       		.byte	0x43
 4370 09bf EE020000 		.4byte	0x2ee
 4371 09c3 00       		.byte	0
 4372 09c4 10       		.uleb128 0x10
 4373 09c5 9E0F0000 		.4byte	.LASF219
 4374 09c9 08       		.byte	0x8
 4375 09ca 46       		.byte	0x46
 4376 09cb EE020000 		.4byte	0x2ee
 4377 09cf 04       		.byte	0x4
 4378 09d0 10       		.uleb128 0x10
 4379 09d1 52170000 		.4byte	.LASF220
 4380 09d5 08       		.byte	0x8
 4381 09d6 49       		.byte	0x49
 4382 09d7 EE020000 		.4byte	0x2ee
 4383 09db 08       		.byte	0x8
 4384 09dc 10       		.uleb128 0x10
 4385 09dd 7B0A0000 		.4byte	.LASF221
 4386 09e1 08       		.byte	0x8
 4387 09e2 4C       		.byte	0x4c
 4388 09e3 EE020000 		.4byte	0x2ee
 4389 09e7 0C       		.byte	0xc
 4390 09e8 10       		.uleb128 0x10
 4391 09e9 290F0000 		.4byte	.LASF222
 4392 09ed 08       		.byte	0x8
 4393 09ee 4F       		.byte	0x4f
 4394 09ef EE020000 		.4byte	0x2ee
 4395 09f3 10       		.byte	0x10
 4396 09f4 00       		.byte	0
 4397 09f5 05       		.uleb128 0x5
 4398 09f6 E7130000 		.4byte	.LASF223
 4399 09fa 08       		.byte	0x8
 4400 09fb 51       		.byte	0x51
 4401 09fc B0090000 		.4byte	0x9b0
 4402 0a00 02       		.uleb128 0x2
 4403 0a01 01       		.byte	0x1
ARM GAS  /tmp/cc602Zqo.s 			page 79


 4404 0a02 08       		.byte	0x8
 4405 0a03 57       		.byte	0x57
 4406 0a04 150A0000 		.4byte	0xa15
 4407 0a08 03       		.uleb128 0x3
 4408 0a09 01070000 		.4byte	.LASF224
 4409 0a0d 00       		.sleb128 0
 4410 0a0e 03       		.uleb128 0x3
 4411 0a0f 4C120000 		.4byte	.LASF225
 4412 0a13 01       		.sleb128 1
 4413 0a14 00       		.byte	0
 4414 0a15 0F       		.uleb128 0xf
 4415 0a16 20       		.byte	0x20
 4416 0a17 09       		.byte	0x9
 4417 0a18 42       		.byte	0x42
 4418 0a19 7E0A0000 		.4byte	0xa7e
 4419 0a1d 10       		.uleb128 0x10
 4420 0a1e 210C0000 		.4byte	.LASF226
 4421 0a22 09       		.byte	0x9
 4422 0a23 44       		.byte	0x44
 4423 0a24 EE020000 		.4byte	0x2ee
 4424 0a28 00       		.byte	0
 4425 0a29 10       		.uleb128 0x10
 4426 0a2a B1130000 		.4byte	.LASF227
 4427 0a2e 09       		.byte	0x9
 4428 0a2f 47       		.byte	0x47
 4429 0a30 EE020000 		.4byte	0x2ee
 4430 0a34 04       		.byte	0x4
 4431 0a35 10       		.uleb128 0x10
 4432 0a36 63170000 		.4byte	.LASF228
 4433 0a3a 09       		.byte	0x9
 4434 0a3b 4B       		.byte	0x4b
 4435 0a3c EE020000 		.4byte	0x2ee
 4436 0a40 08       		.byte	0x8
 4437 0a41 10       		.uleb128 0x10
 4438 0a42 F6010000 		.4byte	.LASF229
 4439 0a46 09       		.byte	0x9
 4440 0a47 4E       		.byte	0x4e
 4441 0a48 EE020000 		.4byte	0x2ee
 4442 0a4c 0C       		.byte	0xc
 4443 0a4d 10       		.uleb128 0x10
 4444 0a4e AF100000 		.4byte	.LASF230
 4445 0a52 09       		.byte	0x9
 4446 0a53 51       		.byte	0x51
 4447 0a54 EE020000 		.4byte	0x2ee
 4448 0a58 10       		.byte	0x10
 4449 0a59 10       		.uleb128 0x10
 4450 0a5a 50100000 		.4byte	.LASF231
 4451 0a5e 09       		.byte	0x9
 4452 0a5f 54       		.byte	0x54
 4453 0a60 EE020000 		.4byte	0x2ee
 4454 0a64 14       		.byte	0x14
 4455 0a65 10       		.uleb128 0x10
 4456 0a66 9E0F0000 		.4byte	.LASF219
 4457 0a6a 09       		.byte	0x9
 4458 0a6b 57       		.byte	0x57
 4459 0a6c EE020000 		.4byte	0x2ee
 4460 0a70 18       		.byte	0x18
ARM GAS  /tmp/cc602Zqo.s 			page 80


 4461 0a71 10       		.uleb128 0x10
 4462 0a72 59120000 		.4byte	.LASF232
 4463 0a76 09       		.byte	0x9
 4464 0a77 5C       		.byte	0x5c
 4465 0a78 EE020000 		.4byte	0x2ee
 4466 0a7c 1C       		.byte	0x1c
 4467 0a7d 00       		.byte	0
 4468 0a7e 05       		.uleb128 0x5
 4469 0a7f 8E0F0000 		.4byte	.LASF233
 4470 0a83 09       		.byte	0x9
 4471 0a84 5E       		.byte	0x5e
 4472 0a85 150A0000 		.4byte	0xa15
 4473 0a89 02       		.uleb128 0x2
 4474 0a8a 01       		.byte	0x1
 4475 0a8b 09       		.byte	0x9
 4476 0a8c 64       		.byte	0x64
 4477 0a8d AA0A0000 		.4byte	0xaaa
 4478 0a91 03       		.uleb128 0x3
 4479 0a92 A4030000 		.4byte	.LASF234
 4480 0a96 00       		.sleb128 0
 4481 0a97 03       		.uleb128 0x3
 4482 0a98 A7160000 		.4byte	.LASF235
 4483 0a9c 01       		.sleb128 1
 4484 0a9d 03       		.uleb128 0x3
 4485 0a9e 69130000 		.4byte	.LASF236
 4486 0aa2 02       		.sleb128 2
 4487 0aa3 03       		.uleb128 0x3
 4488 0aa4 A5040000 		.4byte	.LASF237
 4489 0aa8 03       		.sleb128 3
 4490 0aa9 00       		.byte	0
 4491 0aaa 05       		.uleb128 0x5
 4492 0aab 03020000 		.4byte	.LASF238
 4493 0aaf 09       		.byte	0x9
 4494 0ab0 69       		.byte	0x69
 4495 0ab1 890A0000 		.4byte	0xa89
 4496 0ab5 12       		.uleb128 0x12
 4497 0ab6 680B0000 		.4byte	.LASF278
 4498 0aba 48       		.byte	0x48
 4499 0abb 09       		.byte	0x9
 4500 0abc 85       		.byte	0x85
 4501 0abd 520B0000 		.4byte	0xb52
 4502 0ac1 10       		.uleb128 0x10
 4503 0ac2 0B050000 		.4byte	.LASF239
 4504 0ac6 09       		.byte	0x9
 4505 0ac7 87       		.byte	0x87
 4506 0ac8 520B0000 		.4byte	0xb52
 4507 0acc 00       		.byte	0
 4508 0acd 10       		.uleb128 0x10
 4509 0ace 3B070000 		.4byte	.LASF240
 4510 0ad2 09       		.byte	0x9
 4511 0ad3 89       		.byte	0x89
 4512 0ad4 7E0A0000 		.4byte	0xa7e
 4513 0ad8 04       		.byte	0x4
 4514 0ad9 10       		.uleb128 0x10
 4515 0ada EF000000 		.4byte	.LASF241
 4516 0ade 09       		.byte	0x9
 4517 0adf 8B       		.byte	0x8b
ARM GAS  /tmp/cc602Zqo.s 			page 81


 4518 0ae0 B9070000 		.4byte	0x7b9
 4519 0ae4 24       		.byte	0x24
 4520 0ae5 10       		.uleb128 0x10
 4521 0ae6 42030000 		.4byte	.LASF242
 4522 0aea 09       		.byte	0x9
 4523 0aeb 8D       		.byte	0x8d
 4524 0aec 580B0000 		.4byte	0xb58
 4525 0af0 25       		.byte	0x25
 4526 0af1 10       		.uleb128 0x10
 4527 0af2 940A0000 		.4byte	.LASF243
 4528 0af6 09       		.byte	0x9
 4529 0af7 8F       		.byte	0x8f
 4530 0af8 6F070000 		.4byte	0x76f
 4531 0afc 28       		.byte	0x28
 4532 0afd 10       		.uleb128 0x10
 4533 0afe 94040000 		.4byte	.LASF244
 4534 0b02 09       		.byte	0x9
 4535 0b03 91       		.byte	0x91
 4536 0b04 6E0B0000 		.4byte	0xb6e
 4537 0b08 2C       		.byte	0x2c
 4538 0b09 10       		.uleb128 0x10
 4539 0b0a 5C0E0000 		.4byte	.LASF245
 4540 0b0e 09       		.byte	0x9
 4541 0b0f 93       		.byte	0x93
 4542 0b10 6E0B0000 		.4byte	0xb6e
 4543 0b14 30       		.byte	0x30
 4544 0b15 10       		.uleb128 0x10
 4545 0b16 5D090000 		.4byte	.LASF246
 4546 0b1a 09       		.byte	0x9
 4547 0b1b 95       		.byte	0x95
 4548 0b1c 6E0B0000 		.4byte	0xb6e
 4549 0b20 34       		.byte	0x34
 4550 0b21 10       		.uleb128 0x10
 4551 0b22 550C0000 		.4byte	.LASF247
 4552 0b26 09       		.byte	0x9
 4553 0b27 97       		.byte	0x97
 4554 0b28 6E0B0000 		.4byte	0xb6e
 4555 0b2c 38       		.byte	0x38
 4556 0b2d 10       		.uleb128 0x10
 4557 0b2e 810D0000 		.4byte	.LASF248
 4558 0b32 09       		.byte	0x9
 4559 0b33 99       		.byte	0x99
 4560 0b34 00030000 		.4byte	0x300
 4561 0b38 3C       		.byte	0x3c
 4562 0b39 10       		.uleb128 0x10
 4563 0b3a 190E0000 		.4byte	.LASF249
 4564 0b3e 09       		.byte	0x9
 4565 0b3f 9B       		.byte	0x9b
 4566 0b40 740B0000 		.4byte	0xb74
 4567 0b44 40       		.byte	0x40
 4568 0b45 10       		.uleb128 0x10
 4569 0b46 C3060000 		.4byte	.LASF250
 4570 0b4a 09       		.byte	0x9
 4571 0b4b 9D       		.byte	0x9d
 4572 0b4c EE020000 		.4byte	0x2ee
 4573 0b50 44       		.byte	0x44
 4574 0b51 00       		.byte	0
ARM GAS  /tmp/cc602Zqo.s 			page 82


 4575 0b52 13       		.uleb128 0x13
 4576 0b53 04       		.byte	0x4
 4577 0b54 58030000 		.4byte	0x358
 4578 0b58 07       		.uleb128 0x7
 4579 0b59 AA0A0000 		.4byte	0xaaa
 4580 0b5d 14       		.uleb128 0x14
 4581 0b5e 680B0000 		.4byte	0xb68
 4582 0b62 15       		.uleb128 0x15
 4583 0b63 680B0000 		.4byte	0xb68
 4584 0b67 00       		.byte	0
 4585 0b68 13       		.uleb128 0x13
 4586 0b69 04       		.byte	0x4
 4587 0b6a B50A0000 		.4byte	0xab5
 4588 0b6e 13       		.uleb128 0x13
 4589 0b6f 04       		.byte	0x4
 4590 0b70 5D0B0000 		.4byte	0xb5d
 4591 0b74 13       		.uleb128 0x13
 4592 0b75 04       		.byte	0x4
 4593 0b76 88030000 		.4byte	0x388
 4594 0b7a 05       		.uleb128 0x5
 4595 0b7b 21080000 		.4byte	.LASF251
 4596 0b7f 09       		.byte	0x9
 4597 0b80 9E       		.byte	0x9e
 4598 0b81 B50A0000 		.4byte	0xab5
 4599 0b85 13       		.uleb128 0x13
 4600 0b86 04       		.byte	0x4
 4601 0b87 7A0B0000 		.4byte	0xb7a
 4602 0b8b 0F       		.uleb128 0xf
 4603 0b8c 20       		.byte	0x20
 4604 0b8d 0A       		.byte	0xa
 4605 0b8e 42       		.byte	0x42
 4606 0b8f F40B0000 		.4byte	0xbf4
 4607 0b93 10       		.uleb128 0x10
 4608 0b94 8D0E0000 		.4byte	.LASF252
 4609 0b98 0A       		.byte	0xa
 4610 0b99 44       		.byte	0x44
 4611 0b9a EE020000 		.4byte	0x2ee
 4612 0b9e 00       		.byte	0
 4613 0b9f 10       		.uleb128 0x10
 4614 0ba0 270D0000 		.4byte	.LASF253
 4615 0ba4 0A       		.byte	0xa
 4616 0ba5 48       		.byte	0x48
 4617 0ba6 EE020000 		.4byte	0x2ee
 4618 0baa 04       		.byte	0x4
 4619 0bab 10       		.uleb128 0x10
 4620 0bac FC160000 		.4byte	.LASF254
 4621 0bb0 0A       		.byte	0xa
 4622 0bb1 4B       		.byte	0x4b
 4623 0bb2 EE020000 		.4byte	0x2ee
 4624 0bb6 08       		.byte	0x8
 4625 0bb7 10       		.uleb128 0x10
 4626 0bb8 0B040000 		.4byte	.LASF255
 4627 0bbc 0A       		.byte	0xa
 4628 0bbd 4E       		.byte	0x4e
 4629 0bbe EE020000 		.4byte	0x2ee
 4630 0bc2 0C       		.byte	0xc
 4631 0bc3 10       		.uleb128 0x10
ARM GAS  /tmp/cc602Zqo.s 			page 83


 4632 0bc4 330D0000 		.4byte	.LASF256
 4633 0bc8 0A       		.byte	0xa
 4634 0bc9 51       		.byte	0x51
 4635 0bca EE020000 		.4byte	0x2ee
 4636 0bce 10       		.byte	0x10
 4637 0bcf 10       		.uleb128 0x10
 4638 0bd0 90130000 		.4byte	.LASF257
 4639 0bd4 0A       		.byte	0xa
 4640 0bd5 54       		.byte	0x54
 4641 0bd6 EE020000 		.4byte	0x2ee
 4642 0bda 14       		.byte	0x14
 4643 0bdb 10       		.uleb128 0x10
 4644 0bdc BB040000 		.4byte	.LASF258
 4645 0be0 0A       		.byte	0xa
 4646 0be1 57       		.byte	0x57
 4647 0be2 EE020000 		.4byte	0x2ee
 4648 0be6 18       		.byte	0x18
 4649 0be7 10       		.uleb128 0x10
 4650 0be8 E5150000 		.4byte	.LASF259
 4651 0bec 0A       		.byte	0xa
 4652 0bed 5A       		.byte	0x5a
 4653 0bee EE020000 		.4byte	0x2ee
 4654 0bf2 1C       		.byte	0x1c
 4655 0bf3 00       		.byte	0
 4656 0bf4 05       		.uleb128 0x5
 4657 0bf5 06140000 		.4byte	.LASF260
 4658 0bf9 0A       		.byte	0xa
 4659 0bfa 5D       		.byte	0x5d
 4660 0bfb 8B0B0000 		.4byte	0xb8b
 4661 0bff 02       		.uleb128 0x2
 4662 0c00 01       		.byte	0x1
 4663 0c01 0A       		.byte	0xa
 4664 0c02 7F       		.byte	0x7f
 4665 0c03 4D0C0000 		.4byte	0xc4d
 4666 0c07 03       		.uleb128 0x3
 4667 0c08 D5060000 		.4byte	.LASF261
 4668 0c0c 00       		.sleb128 0
 4669 0c0d 03       		.uleb128 0x3
 4670 0c0e 20060000 		.4byte	.LASF262
 4671 0c12 20       		.sleb128 32
 4672 0c13 03       		.uleb128 0x3
 4673 0c14 48030000 		.4byte	.LASF263
 4674 0c18 24       		.sleb128 36
 4675 0c19 03       		.uleb128 0x3
 4676 0c1a EB0E0000 		.4byte	.LASF264
 4677 0c1e 21       		.sleb128 33
 4678 0c1f 03       		.uleb128 0x3
 4679 0c20 0B0C0000 		.4byte	.LASF265
 4680 0c24 22       		.sleb128 34
 4681 0c25 03       		.uleb128 0x3
 4682 0c26 F00D0000 		.4byte	.LASF266
 4683 0c2a 28       		.sleb128 40
 4684 0c2b 03       		.uleb128 0x3
 4685 0c2c 46160000 		.4byte	.LASF267
 4686 0c30 29       		.sleb128 41
 4687 0c31 03       		.uleb128 0x3
 4688 0c32 29050000 		.4byte	.LASF268
ARM GAS  /tmp/cc602Zqo.s 			page 84


 4689 0c36 2A       		.sleb128 42
 4690 0c37 03       		.uleb128 0x3
 4691 0c38 28120000 		.4byte	.LASF269
 4692 0c3c E000     		.sleb128 96
 4693 0c3e 03       		.uleb128 0x3
 4694 0c3f E5100000 		.4byte	.LASF270
 4695 0c43 A001     		.sleb128 160
 4696 0c45 03       		.uleb128 0x3
 4697 0c46 27070000 		.4byte	.LASF271
 4698 0c4a E001     		.sleb128 224
 4699 0c4c 00       		.byte	0
 4700 0c4d 05       		.uleb128 0x5
 4701 0c4e AC020000 		.4byte	.LASF272
 4702 0c52 0A       		.byte	0xa
 4703 0c53 8E       		.byte	0x8e
 4704 0c54 FF0B0000 		.4byte	0xbff
 4705 0c58 02       		.uleb128 0x2
 4706 0c59 01       		.byte	0x1
 4707 0c5a 0A       		.byte	0xa
 4708 0c5b A7       		.byte	0xa7
 4709 0c5c 7A0C0000 		.4byte	0xc7a
 4710 0c60 03       		.uleb128 0x3
 4711 0c61 EF060000 		.4byte	.LASF273
 4712 0c65 00       		.sleb128 0
 4713 0c66 03       		.uleb128 0x3
 4714 0c67 EB0C0000 		.4byte	.LASF274
 4715 0c6b 10       		.sleb128 16
 4716 0c6c 03       		.uleb128 0x3
 4717 0c6d 8F160000 		.4byte	.LASF275
 4718 0c71 20       		.sleb128 32
 4719 0c72 03       		.uleb128 0x3
 4720 0c73 7E160000 		.4byte	.LASF276
 4721 0c77 C000     		.sleb128 64
 4722 0c79 00       		.byte	0
 4723 0c7a 05       		.uleb128 0x5
 4724 0c7b F7040000 		.4byte	.LASF277
 4725 0c7f 0A       		.byte	0xa
 4726 0c80 AD       		.byte	0xad
 4727 0c81 580C0000 		.4byte	0xc58
 4728 0c85 12       		.uleb128 0x12
 4729 0c86 7E000000 		.4byte	.LASF279
 4730 0c8a 4C       		.byte	0x4c
 4731 0c8b 0A       		.byte	0xa
 4732 0c8c C7       		.byte	0xc7
 4733 0c8d 460D0000 		.4byte	0xd46
 4734 0c91 10       		.uleb128 0x10
 4735 0c92 0B050000 		.4byte	.LASF239
 4736 0c96 0A       		.byte	0xa
 4737 0c97 C9       		.byte	0xc9
 4738 0c98 460D0000 		.4byte	0xd46
 4739 0c9c 00       		.byte	0
 4740 0c9d 10       		.uleb128 0x10
 4741 0c9e 3B070000 		.4byte	.LASF240
 4742 0ca2 0A       		.byte	0xa
 4743 0ca3 CB       		.byte	0xcb
 4744 0ca4 F40B0000 		.4byte	0xbf4
 4745 0ca8 04       		.byte	0x4
ARM GAS  /tmp/cc602Zqo.s 			page 85


 4746 0ca9 10       		.uleb128 0x10
 4747 0caa 390B0000 		.4byte	.LASF280
 4748 0cae 0A       		.byte	0xa
 4749 0caf CD       		.byte	0xcd
 4750 0cb0 4C0D0000 		.4byte	0xd4c
 4751 0cb4 24       		.byte	0x24
 4752 0cb5 10       		.uleb128 0x10
 4753 0cb6 A6080000 		.4byte	.LASF281
 4754 0cba 0A       		.byte	0xa
 4755 0cbb CF       		.byte	0xcf
 4756 0cbc D8020000 		.4byte	0x2d8
 4757 0cc0 28       		.byte	0x28
 4758 0cc1 10       		.uleb128 0x10
 4759 0cc2 54010000 		.4byte	.LASF282
 4760 0cc6 0A       		.byte	0xa
 4761 0cc7 D1       		.byte	0xd1
 4762 0cc8 15030000 		.4byte	0x315
 4763 0ccc 2A       		.byte	0x2a
 4764 0ccd 10       		.uleb128 0x10
 4765 0cce 930C0000 		.4byte	.LASF283
 4766 0cd2 0A       		.byte	0xa
 4767 0cd3 D3       		.byte	0xd3
 4768 0cd4 00030000 		.4byte	0x300
 4769 0cd8 2C       		.byte	0x2c
 4770 0cd9 10       		.uleb128 0x10
 4771 0cda 4F060000 		.4byte	.LASF284
 4772 0cde 0A       		.byte	0xa
 4773 0cdf D6       		.byte	0xd6
 4774 0ce0 00030000 		.4byte	0x300
 4775 0ce4 30       		.byte	0x30
 4776 0ce5 10       		.uleb128 0x10
 4777 0ce6 BB090000 		.4byte	.LASF285
 4778 0cea 0A       		.byte	0xa
 4779 0ceb D8       		.byte	0xd8
 4780 0cec 710D0000 		.4byte	0xd71
 4781 0cf0 34       		.byte	0x34
 4782 0cf1 10       		.uleb128 0x10
 4783 0cf2 D00E0000 		.4byte	.LASF286
 4784 0cf6 0A       		.byte	0xa
 4785 0cf7 DA       		.byte	0xda
 4786 0cf8 850B0000 		.4byte	0xb85
 4787 0cfc 38       		.byte	0x38
 4788 0cfd 10       		.uleb128 0x10
 4789 0cfe 040C0000 		.4byte	.LASF287
 4790 0d02 0A       		.byte	0xa
 4791 0d03 DC       		.byte	0xdc
 4792 0d04 850B0000 		.4byte	0xb85
 4793 0d08 3C       		.byte	0x3c
 4794 0d09 10       		.uleb128 0x10
 4795 0d0a EF000000 		.4byte	.LASF241
 4796 0d0e 0A       		.byte	0xa
 4797 0d0f DE       		.byte	0xde
 4798 0d10 B9070000 		.4byte	0x7b9
 4799 0d14 40       		.byte	0x40
 4800 0d15 10       		.uleb128 0x10
 4801 0d16 42030000 		.4byte	.LASF242
 4802 0d1a 0A       		.byte	0xa
ARM GAS  /tmp/cc602Zqo.s 			page 86


 4803 0d1b E0       		.byte	0xe0
 4804 0d1c 770D0000 		.4byte	0xd77
 4805 0d20 41       		.byte	0x41
 4806 0d21 10       		.uleb128 0x10
 4807 0d22 9E0F0000 		.4byte	.LASF219
 4808 0d26 0A       		.byte	0xa
 4809 0d27 E2       		.byte	0xe2
 4810 0d28 7C0D0000 		.4byte	0xd7c
 4811 0d2c 42       		.byte	0x42
 4812 0d2d 10       		.uleb128 0x10
 4813 0d2e 810D0000 		.4byte	.LASF248
 4814 0d32 0A       		.byte	0xa
 4815 0d33 E4       		.byte	0xe4
 4816 0d34 00030000 		.4byte	0x300
 4817 0d38 44       		.byte	0x44
 4818 0d39 10       		.uleb128 0x10
 4819 0d3a 80140000 		.4byte	.LASF288
 4820 0d3e 0A       		.byte	0xa
 4821 0d3f E6       		.byte	0xe6
 4822 0d40 00030000 		.4byte	0x300
 4823 0d44 48       		.byte	0x48
 4824 0d45 00       		.byte	0
 4825 0d46 13       		.uleb128 0x13
 4826 0d47 04       		.byte	0x4
 4827 0d48 D7040000 		.4byte	0x4d7
 4828 0d4c 13       		.uleb128 0x13
 4829 0d4d 04       		.byte	0x4
 4830 0d4e CD020000 		.4byte	0x2cd
 4831 0d52 16       		.uleb128 0x16
 4832 0d53 99070000 		.4byte	0x799
 4833 0d57 6B0D0000 		.4byte	0xd6b
 4834 0d5b 15       		.uleb128 0x15
 4835 0d5c 6B0D0000 		.4byte	0xd6b
 4836 0d60 15       		.uleb128 0x15
 4837 0d61 EE020000 		.4byte	0x2ee
 4838 0d65 15       		.uleb128 0x15
 4839 0d66 EE020000 		.4byte	0x2ee
 4840 0d6a 00       		.byte	0
 4841 0d6b 13       		.uleb128 0x13
 4842 0d6c 04       		.byte	0x4
 4843 0d6d 850C0000 		.4byte	0xc85
 4844 0d71 13       		.uleb128 0x13
 4845 0d72 04       		.byte	0x4
 4846 0d73 520D0000 		.4byte	0xd52
 4847 0d77 07       		.uleb128 0x7
 4848 0d78 4D0C0000 		.4byte	0xc4d
 4849 0d7c 07       		.uleb128 0x7
 4850 0d7d 7A0C0000 		.4byte	0xc7a
 4851 0d81 05       		.uleb128 0x5
 4852 0d82 A7150000 		.4byte	.LASF289
 4853 0d86 0A       		.byte	0xa
 4854 0d87 E7       		.byte	0xe7
 4855 0d88 850C0000 		.4byte	0xc85
 4856 0d8c 0F       		.uleb128 0xf
 4857 0d8d 34       		.byte	0x34
 4858 0d8e 0B       		.byte	0xb
 4859 0d8f 41       		.byte	0x41
ARM GAS  /tmp/cc602Zqo.s 			page 87


 4860 0d90 310E0000 		.4byte	0xe31
 4861 0d94 10       		.uleb128 0x10
 4862 0d95 9E0F0000 		.4byte	.LASF219
 4863 0d99 0B       		.byte	0xb
 4864 0d9a 43       		.byte	0x43
 4865 0d9b EE020000 		.4byte	0x2ee
 4866 0d9f 00       		.byte	0
 4867 0da0 10       		.uleb128 0x10
 4868 0da1 B1130000 		.4byte	.LASF227
 4869 0da5 0B       		.byte	0xb
 4870 0da6 46       		.byte	0x46
 4871 0da7 EE020000 		.4byte	0x2ee
 4872 0dab 04       		.byte	0x4
 4873 0dac 10       		.uleb128 0x10
 4874 0dad C1020000 		.4byte	.LASF290
 4875 0db1 0B       		.byte	0xb
 4876 0db2 49       		.byte	0x49
 4877 0db3 EE020000 		.4byte	0x2ee
 4878 0db7 08       		.byte	0x8
 4879 0db8 10       		.uleb128 0x10
 4880 0db9 FD0A0000 		.4byte	.LASF291
 4881 0dbd 0B       		.byte	0xb
 4882 0dbe 4C       		.byte	0x4c
 4883 0dbf EE020000 		.4byte	0x2ee
 4884 0dc3 0C       		.byte	0xc
 4885 0dc4 10       		.uleb128 0x10
 4886 0dc5 53130000 		.4byte	.LASF292
 4887 0dc9 0B       		.byte	0xb
 4888 0dca 4F       		.byte	0x4f
 4889 0dcb EE020000 		.4byte	0x2ee
 4890 0dcf 10       		.byte	0x10
 4891 0dd0 11       		.uleb128 0x11
 4892 0dd1 4E535300 		.ascii	"NSS\000"
 4893 0dd5 0B       		.byte	0xb
 4894 0dd6 52       		.byte	0x52
 4895 0dd7 EE020000 		.4byte	0x2ee
 4896 0ddb 14       		.byte	0x14
 4897 0ddc 10       		.uleb128 0x10
 4898 0ddd 94080000 		.4byte	.LASF293
 4899 0de1 0B       		.byte	0xb
 4900 0de2 56       		.byte	0x56
 4901 0de3 EE020000 		.4byte	0x2ee
 4902 0de7 18       		.byte	0x18
 4903 0de8 10       		.uleb128 0x10
 4904 0de9 D40B0000 		.4byte	.LASF294
 4905 0ded 0B       		.byte	0xb
 4906 0dee 5C       		.byte	0x5c
 4907 0def EE020000 		.4byte	0x2ee
 4908 0df3 1C       		.byte	0x1c
 4909 0df4 10       		.uleb128 0x10
 4910 0df5 5E010000 		.4byte	.LASF295
 4911 0df9 0B       		.byte	0xb
 4912 0dfa 5F       		.byte	0x5f
 4913 0dfb EE020000 		.4byte	0x2ee
 4914 0dff 20       		.byte	0x20
 4915 0e00 10       		.uleb128 0x10
 4916 0e01 79070000 		.4byte	.LASF296
ARM GAS  /tmp/cc602Zqo.s 			page 88


 4917 0e05 0B       		.byte	0xb
 4918 0e06 62       		.byte	0x62
 4919 0e07 EE020000 		.4byte	0x2ee
 4920 0e0b 24       		.byte	0x24
 4921 0e0c 10       		.uleb128 0x10
 4922 0e0d CF030000 		.4byte	.LASF297
 4923 0e11 0B       		.byte	0xb
 4924 0e12 65       		.byte	0x65
 4925 0e13 EE020000 		.4byte	0x2ee
 4926 0e17 28       		.byte	0x28
 4927 0e18 10       		.uleb128 0x10
 4928 0e19 C3100000 		.4byte	.LASF298
 4929 0e1d 0B       		.byte	0xb
 4930 0e1e 68       		.byte	0x68
 4931 0e1f EE020000 		.4byte	0x2ee
 4932 0e23 2C       		.byte	0x2c
 4933 0e24 10       		.uleb128 0x10
 4934 0e25 5F0A0000 		.4byte	.LASF299
 4935 0e29 0B       		.byte	0xb
 4936 0e2a 6C       		.byte	0x6c
 4937 0e2b EE020000 		.4byte	0x2ee
 4938 0e2f 30       		.byte	0x30
 4939 0e30 00       		.byte	0
 4940 0e31 05       		.uleb128 0x5
 4941 0e32 3C120000 		.4byte	.LASF300
 4942 0e36 0B       		.byte	0xb
 4943 0e37 72       		.byte	0x72
 4944 0e38 8C0D0000 		.4byte	0xd8c
 4945 0e3c 02       		.uleb128 0x2
 4946 0e3d 01       		.byte	0x1
 4947 0e3e 0B       		.byte	0xb
 4948 0e3f 78       		.byte	0x78
 4949 0e40 6F0E0000 		.4byte	0xe6f
 4950 0e44 03       		.uleb128 0x3
 4951 0e45 DD140000 		.4byte	.LASF301
 4952 0e49 00       		.sleb128 0
 4953 0e4a 03       		.uleb128 0x3
 4954 0e4b CA000000 		.4byte	.LASF302
 4955 0e4f 01       		.sleb128 1
 4956 0e50 03       		.uleb128 0x3
 4957 0e51 69150000 		.4byte	.LASF303
 4958 0e55 02       		.sleb128 2
 4959 0e56 03       		.uleb128 0x3
 4960 0e57 8E030000 		.4byte	.LASF304
 4961 0e5b 03       		.sleb128 3
 4962 0e5c 03       		.uleb128 0x3
 4963 0e5d 37000000 		.4byte	.LASF305
 4964 0e61 04       		.sleb128 4
 4965 0e62 03       		.uleb128 0x3
 4966 0e63 37100000 		.4byte	.LASF306
 4967 0e67 05       		.sleb128 5
 4968 0e68 03       		.uleb128 0x3
 4969 0e69 290C0000 		.4byte	.LASF307
 4970 0e6d 06       		.sleb128 6
 4971 0e6e 00       		.byte	0
 4972 0e6f 05       		.uleb128 0x5
 4973 0e70 F9050000 		.4byte	.LASF308
ARM GAS  /tmp/cc602Zqo.s 			page 89


 4974 0e74 0B       		.byte	0xb
 4975 0e75 80       		.byte	0x80
 4976 0e76 3C0E0000 		.4byte	0xe3c
 4977 0e7a 12       		.uleb128 0x12
 4978 0e7b 62120000 		.4byte	.LASF309
 4979 0e7f 64       		.byte	0x64
 4980 0e80 0B       		.byte	0xb
 4981 0e81 85       		.byte	0x85
 4982 0e82 470F0000 		.4byte	0xf47
 4983 0e86 10       		.uleb128 0x10
 4984 0e87 0B050000 		.4byte	.LASF239
 4985 0e8b 0B       		.byte	0xb
 4986 0e8c 87       		.byte	0x87
 4987 0e8d 470F0000 		.4byte	0xf47
 4988 0e91 00       		.byte	0
 4989 0e92 10       		.uleb128 0x10
 4990 0e93 3B070000 		.4byte	.LASF240
 4991 0e97 0B       		.byte	0xb
 4992 0e98 89       		.byte	0x89
 4993 0e99 310E0000 		.4byte	0xe31
 4994 0e9d 04       		.byte	0x4
 4995 0e9e 10       		.uleb128 0x10
 4996 0e9f DF090000 		.4byte	.LASF310
 4997 0ea3 0B       		.byte	0xb
 4998 0ea4 8B       		.byte	0x8b
 4999 0ea5 4C0D0000 		.4byte	0xd4c
 5000 0ea9 38       		.byte	0x38
 5001 0eaa 10       		.uleb128 0x10
 5002 0eab D90A0000 		.4byte	.LASF311
 5003 0eaf 0B       		.byte	0xb
 5004 0eb0 8D       		.byte	0x8d
 5005 0eb1 D8020000 		.4byte	0x2d8
 5006 0eb5 3C       		.byte	0x3c
 5007 0eb6 10       		.uleb128 0x10
 5008 0eb7 02130000 		.4byte	.LASF312
 5009 0ebb 0B       		.byte	0xb
 5010 0ebc 8F       		.byte	0x8f
 5011 0ebd D8020000 		.4byte	0x2d8
 5012 0ec1 3E       		.byte	0x3e
 5013 0ec2 10       		.uleb128 0x10
 5014 0ec3 EE050000 		.4byte	.LASF313
 5015 0ec7 0B       		.byte	0xb
 5016 0ec8 91       		.byte	0x91
 5017 0ec9 4C0D0000 		.4byte	0xd4c
 5018 0ecd 40       		.byte	0x40
 5019 0ece 10       		.uleb128 0x10
 5020 0ecf 7B170000 		.4byte	.LASF314
 5021 0ed3 0B       		.byte	0xb
 5022 0ed4 93       		.byte	0x93
 5023 0ed5 D8020000 		.4byte	0x2d8
 5024 0ed9 44       		.byte	0x44
 5025 0eda 10       		.uleb128 0x10
 5026 0edb 88040000 		.4byte	.LASF315
 5027 0edf 0B       		.byte	0xb
 5028 0ee0 95       		.byte	0x95
 5029 0ee1 D8020000 		.4byte	0x2d8
 5030 0ee5 46       		.byte	0x46
ARM GAS  /tmp/cc602Zqo.s 			page 90


 5031 0ee6 10       		.uleb128 0x10
 5032 0ee7 20120000 		.4byte	.LASF316
 5033 0eeb 0B       		.byte	0xb
 5034 0eec 97       		.byte	0x97
 5035 0eed EE020000 		.4byte	0x2ee
 5036 0ef1 48       		.byte	0x48
 5037 0ef2 10       		.uleb128 0x10
 5038 0ef3 FD010000 		.4byte	.LASF317
 5039 0ef7 0B       		.byte	0xb
 5040 0ef8 99       		.byte	0x99
 5041 0ef9 5E0F0000 		.4byte	0xf5e
 5042 0efd 4C       		.byte	0x4c
 5043 0efe 10       		.uleb128 0x10
 5044 0eff C5080000 		.4byte	.LASF318
 5045 0f03 0B       		.byte	0xb
 5046 0f04 9B       		.byte	0x9b
 5047 0f05 5E0F0000 		.4byte	0xf5e
 5048 0f09 50       		.byte	0x50
 5049 0f0a 10       		.uleb128 0x10
 5050 0f0b D00E0000 		.4byte	.LASF286
 5051 0f0f 0B       		.byte	0xb
 5052 0f10 9D       		.byte	0x9d
 5053 0f11 850B0000 		.4byte	0xb85
 5054 0f15 54       		.byte	0x54
 5055 0f16 10       		.uleb128 0x10
 5056 0f17 040C0000 		.4byte	.LASF287
 5057 0f1b 0B       		.byte	0xb
 5058 0f1c 9F       		.byte	0x9f
 5059 0f1d 850B0000 		.4byte	0xb85
 5060 0f21 58       		.byte	0x58
 5061 0f22 10       		.uleb128 0x10
 5062 0f23 EF000000 		.4byte	.LASF241
 5063 0f27 0B       		.byte	0xb
 5064 0f28 A1       		.byte	0xa1
 5065 0f29 B9070000 		.4byte	0x7b9
 5066 0f2d 5C       		.byte	0x5c
 5067 0f2e 10       		.uleb128 0x10
 5068 0f2f 42030000 		.4byte	.LASF242
 5069 0f33 0B       		.byte	0xb
 5070 0f34 A3       		.byte	0xa3
 5071 0f35 640F0000 		.4byte	0xf64
 5072 0f39 5D       		.byte	0x5d
 5073 0f3a 10       		.uleb128 0x10
 5074 0f3b 810D0000 		.4byte	.LASF248
 5075 0f3f 0B       		.byte	0xb
 5076 0f40 A5       		.byte	0xa5
 5077 0f41 00030000 		.4byte	0x300
 5078 0f45 60       		.byte	0x60
 5079 0f46 00       		.byte	0
 5080 0f47 13       		.uleb128 0x13
 5081 0f48 04       		.byte	0x4
 5082 0f49 63070000 		.4byte	0x763
 5083 0f4d 14       		.uleb128 0x14
 5084 0f4e 580F0000 		.4byte	0xf58
 5085 0f52 15       		.uleb128 0x15
 5086 0f53 580F0000 		.4byte	0xf58
 5087 0f57 00       		.byte	0
ARM GAS  /tmp/cc602Zqo.s 			page 91


 5088 0f58 13       		.uleb128 0x13
 5089 0f59 04       		.byte	0x4
 5090 0f5a 7A0E0000 		.4byte	0xe7a
 5091 0f5e 13       		.uleb128 0x13
 5092 0f5f 04       		.byte	0x4
 5093 0f60 4D0F0000 		.4byte	0xf4d
 5094 0f64 07       		.uleb128 0x7
 5095 0f65 6F0E0000 		.4byte	0xe6f
 5096 0f69 05       		.uleb128 0x5
 5097 0f6a 96090000 		.4byte	.LASF319
 5098 0f6e 0B       		.byte	0xb
 5099 0f6f A7       		.byte	0xa7
 5100 0f70 7A0E0000 		.4byte	0xe7a
 5101 0f74 0F       		.uleb128 0xf
 5102 0f75 14       		.byte	0x14
 5103 0f76 0C       		.byte	0xc
 5104 0f77 5B       		.byte	0x5b
 5105 0f78 01100000 		.4byte	0x1001
 5106 0f7c 10       		.uleb128 0x10
 5107 0f7d 5D060000 		.4byte	.LASF320
 5108 0f81 0C       		.byte	0xc
 5109 0f82 5F       		.byte	0x5f
 5110 0f83 CD020000 		.4byte	0x2cd
 5111 0f87 00       		.byte	0
 5112 0f88 10       		.uleb128 0x10
 5113 0f89 EF090000 		.4byte	.LASF321
 5114 0f8d 0C       		.byte	0xc
 5115 0f8e 62       		.byte	0x62
 5116 0f8f CD020000 		.4byte	0x2cd
 5117 0f93 01       		.byte	0x1
 5118 0f94 10       		.uleb128 0x10
 5119 0f95 E70B0000 		.4byte	.LASF322
 5120 0f99 0C       		.byte	0xc
 5121 0f9a 63       		.byte	0x63
 5122 0f9b CD020000 		.4byte	0x2cd
 5123 0f9f 02       		.byte	0x2
 5124 0fa0 10       		.uleb128 0x10
 5125 0fa1 DD0B0000 		.4byte	.LASF323
 5126 0fa5 0C       		.byte	0xc
 5127 0fa6 64       		.byte	0x64
 5128 0fa7 CD020000 		.4byte	0x2cd
 5129 0fab 03       		.byte	0x3
 5130 0fac 10       		.uleb128 0x10
 5131 0fad BA060000 		.4byte	.LASF324
 5132 0fb1 0C       		.byte	0xc
 5133 0fb2 65       		.byte	0x65
 5134 0fb3 CD020000 		.4byte	0x2cd
 5135 0fb7 04       		.byte	0x4
 5136 0fb8 10       		.uleb128 0x10
 5137 0fb9 8B100000 		.4byte	.LASF325
 5138 0fbd 0C       		.byte	0xc
 5139 0fbe 66       		.byte	0x66
 5140 0fbf CD020000 		.4byte	0x2cd
 5141 0fc3 05       		.byte	0x5
 5142 0fc4 10       		.uleb128 0x10
 5143 0fc5 8B060000 		.4byte	.LASF326
 5144 0fc9 0C       		.byte	0xc
ARM GAS  /tmp/cc602Zqo.s 			page 92


 5145 0fca 67       		.byte	0x67
 5146 0fcb CD020000 		.4byte	0x2cd
 5147 0fcf 06       		.byte	0x6
 5148 0fd0 10       		.uleb128 0x10
 5149 0fd1 80040000 		.4byte	.LASF327
 5150 0fd5 0C       		.byte	0xc
 5151 0fd6 68       		.byte	0x68
 5152 0fd7 CD020000 		.4byte	0x2cd
 5153 0fdb 07       		.byte	0x7
 5154 0fdc 10       		.uleb128 0x10
 5155 0fdd 73070000 		.4byte	.LASF328
 5156 0fe1 0C       		.byte	0xc
 5157 0fe2 6B       		.byte	0x6b
 5158 0fe3 6F070000 		.4byte	0x76f
 5159 0fe7 08       		.byte	0x8
 5160 0fe8 10       		.uleb128 0x10
 5161 0fe9 FB100000 		.4byte	.LASF329
 5162 0fed 0C       		.byte	0xc
 5163 0fee 6E       		.byte	0x6e
 5164 0fef 6F070000 		.4byte	0x76f
 5165 0ff3 0C       		.byte	0xc
 5166 0ff4 10       		.uleb128 0x10
 5167 0ff5 140F0000 		.4byte	.LASF330
 5168 0ff9 0C       		.byte	0xc
 5169 0ffa 70       		.byte	0x70
 5170 0ffb 6F070000 		.4byte	0x76f
 5171 0fff 10       		.byte	0x10
 5172 1000 00       		.byte	0
 5173 1001 05       		.uleb128 0x5
 5174 1002 BE0E0000 		.4byte	.LASF331
 5175 1006 0C       		.byte	0xc
 5176 1007 71       		.byte	0x71
 5177 1008 740F0000 		.4byte	0xf74
 5178 100c 02       		.uleb128 0x2
 5179 100d 01       		.byte	0x1
 5180 100e 0C       		.byte	0xc
 5181 100f 79       		.byte	0x79
 5182 1010 2D100000 		.4byte	0x102d
 5183 1014 03       		.uleb128 0x3
 5184 1015 8B0B0000 		.4byte	.LASF332
 5185 1019 00       		.sleb128 0
 5186 101a 03       		.uleb128 0x3
 5187 101b AD010000 		.4byte	.LASF333
 5188 101f 01       		.sleb128 1
 5189 1020 03       		.uleb128 0x3
 5190 1021 D9120000 		.4byte	.LASF334
 5191 1025 02       		.sleb128 2
 5192 1026 03       		.uleb128 0x3
 5193 1027 9F140000 		.4byte	.LASF335
 5194 102b 03       		.sleb128 3
 5195 102c 00       		.byte	0
 5196 102d 05       		.uleb128 0x5
 5197 102e E5010000 		.4byte	.LASF336
 5198 1032 0C       		.byte	0xc
 5199 1033 7E       		.byte	0x7e
 5200 1034 0C100000 		.4byte	0x100c
 5201 1038 13       		.uleb128 0x13
ARM GAS  /tmp/cc602Zqo.s 			page 93


 5202 1039 04       		.byte	0x4
 5203 103a 01100000 		.4byte	0x1001
 5204 103e 04       		.uleb128 0x4
 5205 103f 04       		.byte	0x4
 5206 1040 04       		.byte	0x4
 5207 1041 5F050000 		.4byte	.LASF337
 5208 1045 02       		.uleb128 0x2
 5209 1046 01       		.byte	0x1
 5210 1047 0D       		.byte	0xd
 5211 1048 4B       		.byte	0x4b
 5212 1049 5A100000 		.4byte	0x105a
 5213 104d 03       		.uleb128 0x3
 5214 104e B5060000 		.4byte	.LASF338
 5215 1052 00       		.sleb128 0
 5216 1053 03       		.uleb128 0x3
 5217 1054 F6090000 		.4byte	.LASF339
 5218 1058 01       		.sleb128 1
 5219 1059 00       		.byte	0
 5220 105a 05       		.uleb128 0x5
 5221 105b 27130000 		.4byte	.LASF340
 5222 105f 0D       		.byte	0xd
 5223 1060 4E       		.byte	0x4e
 5224 1061 45100000 		.4byte	0x1045
 5225 1065 02       		.uleb128 0x2
 5226 1066 01       		.byte	0x1
 5227 1067 0D       		.byte	0xd
 5228 1068 52       		.byte	0x52
 5229 1069 86100000 		.4byte	0x1086
 5230 106d 03       		.uleb128 0x3
 5231 106e 82150000 		.4byte	.LASF341
 5232 1072 00       		.sleb128 0
 5233 1073 03       		.uleb128 0x3
 5234 1074 44150000 		.4byte	.LASF342
 5235 1078 01       		.sleb128 1
 5236 1079 03       		.uleb128 0x3
 5237 107a 1D150000 		.4byte	.LASF343
 5238 107e 02       		.sleb128 2
 5239 107f 03       		.uleb128 0x3
 5240 1080 D0010000 		.4byte	.LASF344
 5241 1084 03       		.sleb128 3
 5242 1085 00       		.byte	0
 5243 1086 17       		.uleb128 0x17
 5244 1087 65070000 		.4byte	.LASF345
 5245 108b 02       		.byte	0x2
 5246 108c 5601     		.2byte	0x156
 5247 108e 03       		.byte	0x3
 5248 108f 17       		.uleb128 0x17
 5249 1090 2A100000 		.4byte	.LASF346
 5250 1094 02       		.byte	0x2
 5251 1095 4B01     		.2byte	0x14b
 5252 1097 03       		.byte	0x3
 5253 1098 18       		.uleb128 0x18
 5254 1099 7C0B0000 		.4byte	.LASF354
 5255 109d 01       		.byte	0x1
 5256 109e 98       		.byte	0x98
 5257 109f EE020000 		.4byte	0x2ee
 5258 10a3 00000000 		.4byte	.LFB125
ARM GAS  /tmp/cc602Zqo.s 			page 94


 5259 10a7 08000000 		.4byte	.LFE125-.LFB125
 5260 10ab 01       		.uleb128 0x1
 5261 10ac 9C       		.byte	0x9c
 5262 10ad 19       		.uleb128 0x19
 5263 10ae E6030000 		.4byte	.LASF349
 5264 10b2 01       		.byte	0x1
 5265 10b3 A5       		.byte	0xa5
 5266 10b4 10000000 		.4byte	.LFB126
 5267 10b8 A4000000 		.4byte	.LFE126-.LFB126
 5268 10bc 01       		.uleb128 0x1
 5269 10bd 9C       		.byte	0x9c
 5270 10be 2F110000 		.4byte	0x112f
 5271 10c2 1A       		.uleb128 0x1a
 5272 10c3 4C656400 		.ascii	"Led\000"
 5273 10c7 01       		.byte	0x1
 5274 10c8 A5       		.byte	0xa5
 5275 10c9 5A100000 		.4byte	0x105a
 5276 10cd 02       		.uleb128 0x2
 5277 10ce 91       		.byte	0x91
 5278 10cf 57       		.sleb128 -41
 5279 10d0 1B       		.uleb128 0x1b
 5280 10d1 78010000 		.4byte	.LASF347
 5281 10d5 01       		.byte	0x1
 5282 10d6 A7       		.byte	0xa7
 5283 10d7 F5090000 		.4byte	0x9f5
 5284 10db 02       		.uleb128 0x2
 5285 10dc 91       		.byte	0x91
 5286 10dd 64       		.sleb128 -28
 5287 10de 1C       		.uleb128 0x1c
 5288 10df 1A000000 		.4byte	.LBB6
 5289 10e3 18000000 		.4byte	.LBE6-.LBB6
 5290 10e7 FA100000 		.4byte	0x10fa
 5291 10eb 1B       		.uleb128 0x1b
 5292 10ec 88070000 		.4byte	.LASF348
 5293 10f0 01       		.byte	0x1
 5294 10f1 AA       		.byte	0xaa
 5295 10f2 00030000 		.4byte	0x300
 5296 10f6 02       		.uleb128 0x2
 5297 10f7 91       		.byte	0x91
 5298 10f8 60       		.sleb128 -32
 5299 10f9 00       		.byte	0
 5300 10fa 1C       		.uleb128 0x1c
 5301 10fb 3E000000 		.4byte	.LBB7
 5302 10ff 18000000 		.4byte	.LBE7-.LBB7
 5303 1103 16110000 		.4byte	0x1116
 5304 1107 1B       		.uleb128 0x1b
 5305 1108 88070000 		.4byte	.LASF348
 5306 110c 01       		.byte	0x1
 5307 110d AE       		.byte	0xae
 5308 110e 00030000 		.4byte	0x300
 5309 1112 02       		.uleb128 0x2
 5310 1113 91       		.byte	0x91
 5311 1114 5C       		.sleb128 -36
 5312 1115 00       		.byte	0
 5313 1116 1D       		.uleb128 0x1d
 5314 1117 5E000000 		.4byte	.LBB8
 5315 111b 18000000 		.4byte	.LBE8-.LBB8
ARM GAS  /tmp/cc602Zqo.s 			page 95


 5316 111f 1B       		.uleb128 0x1b
 5317 1120 88070000 		.4byte	.LASF348
 5318 1124 01       		.byte	0x1
 5319 1125 AE       		.byte	0xae
 5320 1126 00030000 		.4byte	0x300
 5321 112a 02       		.uleb128 0x2
 5322 112b 91       		.byte	0x91
 5323 112c 58       		.sleb128 -40
 5324 112d 00       		.byte	0
 5325 112e 00       		.byte	0
 5326 112f 1E       		.uleb128 0x1e
 5327 1130 6A000000 		.4byte	.LASF350
 5328 1134 01       		.byte	0x1
 5329 1135 C5       		.byte	0xc5
 5330 1136 C0000000 		.4byte	.LFB127
 5331 113a 0C000000 		.4byte	.LFE127-.LFB127
 5332 113e 01       		.uleb128 0x1
 5333 113f 9C       		.byte	0x9c
 5334 1140 53110000 		.4byte	0x1153
 5335 1144 1A       		.uleb128 0x1a
 5336 1145 4C656400 		.ascii	"Led\000"
 5337 1149 01       		.byte	0x1
 5338 114a C5       		.byte	0xc5
 5339 114b 5A100000 		.4byte	0x105a
 5340 114f 02       		.uleb128 0x2
 5341 1150 91       		.byte	0x91
 5342 1151 7F       		.sleb128 -1
 5343 1152 00       		.byte	0
 5344 1153 19       		.uleb128 0x19
 5345 1154 32160000 		.4byte	.LASF351
 5346 1158 01       		.byte	0x1
 5347 1159 D4       		.byte	0xd4
 5348 115a D0000000 		.4byte	.LFB128
 5349 115e 6C000000 		.4byte	.LFE128-.LFB128
 5350 1162 01       		.uleb128 0x1
 5351 1163 9C       		.byte	0x9c
 5352 1164 77110000 		.4byte	0x1177
 5353 1168 1A       		.uleb128 0x1a
 5354 1169 4C656400 		.ascii	"Led\000"
 5355 116d 01       		.byte	0x1
 5356 116e D4       		.byte	0xd4
 5357 116f 5A100000 		.4byte	0x105a
 5358 1173 02       		.uleb128 0x2
 5359 1174 91       		.byte	0x91
 5360 1175 77       		.sleb128 -9
 5361 1176 00       		.byte	0
 5362 1177 19       		.uleb128 0x19
 5363 1178 57170000 		.4byte	.LASF352
 5364 117c 01       		.byte	0x1
 5365 117d EA       		.byte	0xea
 5366 117e 40010000 		.4byte	.LFB129
 5367 1182 6C000000 		.4byte	.LFE129-.LFB129
 5368 1186 01       		.uleb128 0x1
 5369 1187 9C       		.byte	0x9c
 5370 1188 9B110000 		.4byte	0x119b
 5371 118c 1A       		.uleb128 0x1a
 5372 118d 4C656400 		.ascii	"Led\000"
ARM GAS  /tmp/cc602Zqo.s 			page 96


 5373 1191 01       		.byte	0x1
 5374 1192 EA       		.byte	0xea
 5375 1193 5A100000 		.4byte	0x105a
 5376 1197 02       		.uleb128 0x2
 5377 1198 91       		.byte	0x91
 5378 1199 77       		.sleb128 -9
 5379 119a 00       		.byte	0
 5380 119b 1F       		.uleb128 0x1f
 5381 119c 6F160000 		.4byte	.LASF353
 5382 11a0 01       		.byte	0x1
 5383 11a1 0001     		.2byte	0x100
 5384 11a3 B0010000 		.4byte	.LFB130
 5385 11a7 38000000 		.4byte	.LFE130-.LFB130
 5386 11ab 01       		.uleb128 0x1
 5387 11ac 9C       		.byte	0x9c
 5388 11ad C1110000 		.4byte	0x11c1
 5389 11b1 20       		.uleb128 0x20
 5390 11b2 4C656400 		.ascii	"Led\000"
 5391 11b6 01       		.byte	0x1
 5392 11b7 0001     		.2byte	0x100
 5393 11b9 5A100000 		.4byte	0x105a
 5394 11bd 02       		.uleb128 0x2
 5395 11be 91       		.byte	0x91
 5396 11bf 77       		.sleb128 -9
 5397 11c0 00       		.byte	0
 5398 11c1 21       		.uleb128 0x21
 5399 11c2 A4000000 		.4byte	.LASF355
 5400 11c6 01       		.byte	0x1
 5401 11c7 0B01     		.2byte	0x10b
 5402 11c9 2D100000 		.4byte	0x102d
 5403 11cd F0010000 		.4byte	.LFB131
 5404 11d1 16000000 		.4byte	.LFE131-.LFB131
 5405 11d5 01       		.uleb128 0x1
 5406 11d6 9C       		.byte	0x9c
 5407 11d7 22       		.uleb128 0x22
 5408 11d8 65010000 		.4byte	.LASF356
 5409 11dc 01       		.byte	0x1
 5410 11dd 1E01     		.2byte	0x11e
 5411 11df 2D100000 		.4byte	0x102d
 5412 11e3 10020000 		.4byte	.LFB132
 5413 11e7 10010000 		.4byte	.LFE132-.LFB132
 5414 11eb 01       		.uleb128 0x1
 5415 11ec 9C       		.byte	0x9c
 5416 11ed 37120000 		.4byte	0x1237
 5417 11f1 23       		.uleb128 0x23
 5418 11f2 78010000 		.4byte	.LASF347
 5419 11f6 01       		.byte	0x1
 5420 11f7 2001     		.2byte	0x120
 5421 11f9 F5090000 		.4byte	0x9f5
 5422 11fd 02       		.uleb128 0x2
 5423 11fe 91       		.byte	0x91
 5424 11ff 64       		.sleb128 -28
 5425 1200 1C       		.uleb128 0x1c
 5426 1201 20020000 		.4byte	.LBB9
 5427 1205 18000000 		.4byte	.LBE9-.LBB9
 5428 1209 1D120000 		.4byte	0x121d
 5429 120d 23       		.uleb128 0x23
ARM GAS  /tmp/cc602Zqo.s 			page 97


 5430 120e 88070000 		.4byte	.LASF348
 5431 1212 01       		.byte	0x1
 5432 1213 2401     		.2byte	0x124
 5433 1215 00030000 		.4byte	0x300
 5434 1219 02       		.uleb128 0x2
 5435 121a 91       		.byte	0x91
 5436 121b 60       		.sleb128 -32
 5437 121c 00       		.byte	0
 5438 121d 1D       		.uleb128 0x1d
 5439 121e 38020000 		.4byte	.LBB10
 5440 1222 18000000 		.4byte	.LBE10-.LBB10
 5441 1226 23       		.uleb128 0x23
 5442 1227 88070000 		.4byte	.LASF348
 5443 122b 01       		.byte	0x1
 5444 122c 2501     		.2byte	0x125
 5445 122e 00030000 		.4byte	0x300
 5446 1232 02       		.uleb128 0x2
 5447 1233 91       		.byte	0x91
 5448 1234 5C       		.sleb128 -36
 5449 1235 00       		.byte	0
 5450 1236 00       		.byte	0
 5451 1237 22       		.uleb128 0x22
 5452 1238 7C090000 		.4byte	.LASF357
 5453 123c 01       		.byte	0x1
 5454 123d 4801     		.2byte	0x148
 5455 123f CD020000 		.4byte	0x2cd
 5456 1243 20030000 		.4byte	.LFB133
 5457 1247 F0000000 		.4byte	.LFE133-.LFB133
 5458 124b 01       		.uleb128 0x1
 5459 124c 9C       		.byte	0x9c
 5460 124d D1120000 		.4byte	0x12d1
 5461 1251 23       		.uleb128 0x23
 5462 1252 78010000 		.4byte	.LASF347
 5463 1256 01       		.byte	0x1
 5464 1257 4A01     		.2byte	0x14a
 5465 1259 F5090000 		.4byte	0x9f5
 5466 125d 02       		.uleb128 0x2
 5467 125e 91       		.byte	0x91
 5468 125f 64       		.sleb128 -28
 5469 1260 1C       		.uleb128 0x1c
 5470 1261 30030000 		.4byte	.LBB11
 5471 1265 18000000 		.4byte	.LBE11-.LBB11
 5472 1269 7D120000 		.4byte	0x127d
 5473 126d 23       		.uleb128 0x23
 5474 126e 88070000 		.4byte	.LASF348
 5475 1272 01       		.byte	0x1
 5476 1273 5001     		.2byte	0x150
 5477 1275 00030000 		.4byte	0x300
 5478 1279 02       		.uleb128 0x2
 5479 127a 91       		.byte	0x91
 5480 127b 60       		.sleb128 -32
 5481 127c 00       		.byte	0
 5482 127d 1C       		.uleb128 0x1c
 5483 127e 64030000 		.4byte	.LBB12
 5484 1282 18000000 		.4byte	.LBE12-.LBB12
 5485 1286 9A120000 		.4byte	0x129a
 5486 128a 23       		.uleb128 0x23
ARM GAS  /tmp/cc602Zqo.s 			page 98


 5487 128b 88070000 		.4byte	.LASF348
 5488 128f 01       		.byte	0x1
 5489 1290 5501     		.2byte	0x155
 5490 1292 00030000 		.4byte	0x300
 5491 1296 02       		.uleb128 0x2
 5492 1297 91       		.byte	0x91
 5493 1298 5C       		.sleb128 -36
 5494 1299 00       		.byte	0
 5495 129a 1C       		.uleb128 0x1c
 5496 129b 94030000 		.4byte	.LBB13
 5497 129f 18000000 		.4byte	.LBE13-.LBB13
 5498 12a3 B7120000 		.4byte	0x12b7
 5499 12a7 23       		.uleb128 0x23
 5500 12a8 88070000 		.4byte	.LASF348
 5501 12ac 01       		.byte	0x1
 5502 12ad 5A01     		.2byte	0x15a
 5503 12af 00030000 		.4byte	0x300
 5504 12b3 02       		.uleb128 0x2
 5505 12b4 91       		.byte	0x91
 5506 12b5 58       		.sleb128 -40
 5507 12b6 00       		.byte	0
 5508 12b7 1D       		.uleb128 0x1d
 5509 12b8 C4030000 		.4byte	.LBB14
 5510 12bc 18000000 		.4byte	.LBE14-.LBB14
 5511 12c0 23       		.uleb128 0x23
 5512 12c1 88070000 		.4byte	.LASF348
 5513 12c5 01       		.byte	0x1
 5514 12c6 5F01     		.2byte	0x15f
 5515 12c8 00030000 		.4byte	0x300
 5516 12cc 02       		.uleb128 0x2
 5517 12cd 91       		.byte	0x91
 5518 12ce 54       		.sleb128 -44
 5519 12cf 00       		.byte	0
 5520 12d0 00       		.byte	0
 5521 12d1 22       		.uleb128 0x22
 5522 12d2 3D130000 		.4byte	.LASF358
 5523 12d6 01       		.byte	0x1
 5524 12d7 6701     		.2byte	0x167
 5525 12d9 CD020000 		.4byte	0x2cd
 5526 12dd 10040000 		.4byte	.LFB134
 5527 12e1 20010000 		.4byte	.LFE134-.LFB134
 5528 12e5 01       		.uleb128 0x1
 5529 12e6 9C       		.byte	0x9c
 5530 12e7 89130000 		.4byte	0x1389
 5531 12eb 24       		.uleb128 0x24
 5532 12ec F3150000 		.4byte	.LASF359
 5533 12f0 01       		.byte	0x1
 5534 12f1 6701     		.2byte	0x167
 5535 12f3 6F070000 		.4byte	0x76f
 5536 12f7 02       		.uleb128 0x2
 5537 12f8 91       		.byte	0x91
 5538 12f9 4C       		.sleb128 -52
 5539 12fa 23       		.uleb128 0x23
 5540 12fb 78010000 		.4byte	.LASF347
 5541 12ff 01       		.byte	0x1
 5542 1300 6901     		.2byte	0x169
 5543 1302 F5090000 		.4byte	0x9f5
ARM GAS  /tmp/cc602Zqo.s 			page 99


 5544 1306 02       		.uleb128 0x2
 5545 1307 91       		.byte	0x91
 5546 1308 60       		.sleb128 -32
 5547 1309 25       		.uleb128 0x25
 5548 130a 63747800 		.ascii	"ctx\000"
 5549 130e 01       		.byte	0x1
 5550 130f 6A01     		.2byte	0x16a
 5551 1311 38100000 		.4byte	0x1038
 5552 1315 02       		.uleb128 0x2
 5553 1316 91       		.byte	0x91
 5554 1317 74       		.sleb128 -12
 5555 1318 1C       		.uleb128 0x1c
 5556 1319 44040000 		.4byte	.LBB15
 5557 131d 18000000 		.4byte	.LBE15-.LBB15
 5558 1321 35130000 		.4byte	0x1335
 5559 1325 23       		.uleb128 0x23
 5560 1326 88070000 		.4byte	.LASF348
 5561 132a 01       		.byte	0x1
 5562 132b 7301     		.2byte	0x173
 5563 132d 00030000 		.4byte	0x300
 5564 1331 02       		.uleb128 0x2
 5565 1332 91       		.byte	0x91
 5566 1333 5C       		.sleb128 -36
 5567 1334 00       		.byte	0
 5568 1335 1C       		.uleb128 0x1c
 5569 1336 7A040000 		.4byte	.LBB16
 5570 133a 18000000 		.4byte	.LBE16-.LBB16
 5571 133e 52130000 		.4byte	0x1352
 5572 1342 23       		.uleb128 0x23
 5573 1343 88070000 		.4byte	.LASF348
 5574 1347 01       		.byte	0x1
 5575 1348 7901     		.2byte	0x179
 5576 134a 00030000 		.4byte	0x300
 5577 134e 02       		.uleb128 0x2
 5578 134f 91       		.byte	0x91
 5579 1350 58       		.sleb128 -40
 5580 1351 00       		.byte	0
 5581 1352 1C       		.uleb128 0x1c
 5582 1353 AC040000 		.4byte	.LBB17
 5583 1357 18000000 		.4byte	.LBE17-.LBB17
 5584 135b 6F130000 		.4byte	0x136f
 5585 135f 23       		.uleb128 0x23
 5586 1360 88070000 		.4byte	.LASF348
 5587 1364 01       		.byte	0x1
 5588 1365 7F01     		.2byte	0x17f
 5589 1367 00030000 		.4byte	0x300
 5590 136b 02       		.uleb128 0x2
 5591 136c 91       		.byte	0x91
 5592 136d 54       		.sleb128 -44
 5593 136e 00       		.byte	0
 5594 136f 1D       		.uleb128 0x1d
 5595 1370 DE040000 		.4byte	.LBB18
 5596 1374 18000000 		.4byte	.LBE18-.LBB18
 5597 1378 23       		.uleb128 0x23
 5598 1379 88070000 		.4byte	.LASF348
 5599 137d 01       		.byte	0x1
 5600 137e 8501     		.2byte	0x185
ARM GAS  /tmp/cc602Zqo.s 			page 100


 5601 1380 00030000 		.4byte	0x300
 5602 1384 02       		.uleb128 0x2
 5603 1385 91       		.byte	0x91
 5604 1386 50       		.sleb128 -48
 5605 1387 00       		.byte	0
 5606 1388 00       		.byte	0
 5607 1389 22       		.uleb128 0x22
 5608 138a 8F140000 		.4byte	.LASF360
 5609 138e 01       		.byte	0x1
 5610 138f 9901     		.2byte	0x199
 5611 1391 CD020000 		.4byte	0x2cd
 5612 1395 30050000 		.4byte	.LFB135
 5613 1399 9A000000 		.4byte	.LFE135-.LFB135
 5614 139d 01       		.uleb128 0x1
 5615 139e 9C       		.byte	0x9c
 5616 139f EF130000 		.4byte	0x13ef
 5617 13a3 24       		.uleb128 0x24
 5618 13a4 F3150000 		.4byte	.LASF359
 5619 13a8 01       		.byte	0x1
 5620 13a9 9901     		.2byte	0x199
 5621 13ab 6F070000 		.4byte	0x76f
 5622 13af 02       		.uleb128 0x2
 5623 13b0 91       		.byte	0x91
 5624 13b1 6C       		.sleb128 -20
 5625 13b2 24       		.uleb128 0x24
 5626 13b3 33130000 		.4byte	.LASF361
 5627 13b7 01       		.byte	0x1
 5628 13b8 9901     		.2byte	0x199
 5629 13ba CD020000 		.4byte	0x2cd
 5630 13be 02       		.uleb128 0x2
 5631 13bf 91       		.byte	0x91
 5632 13c0 6B       		.sleb128 -21
 5633 13c1 24       		.uleb128 0x24
 5634 13c2 EA020000 		.4byte	.LASF362
 5635 13c6 01       		.byte	0x1
 5636 13c7 9901     		.2byte	0x199
 5637 13c9 4C0D0000 		.4byte	0xd4c
 5638 13cd 02       		.uleb128 0x2
 5639 13ce 91       		.byte	0x91
 5640 13cf 64       		.sleb128 -28
 5641 13d0 24       		.uleb128 0x24
 5642 13d1 33170000 		.4byte	.LASF363
 5643 13d5 01       		.byte	0x1
 5644 13d6 9901     		.2byte	0x199
 5645 13d8 D8020000 		.4byte	0x2d8
 5646 13dc 02       		.uleb128 0x2
 5647 13dd 91       		.byte	0x91
 5648 13de 68       		.sleb128 -24
 5649 13df 25       		.uleb128 0x25
 5650 13e0 63747800 		.ascii	"ctx\000"
 5651 13e4 01       		.byte	0x1
 5652 13e5 9C01     		.2byte	0x19c
 5653 13e7 38100000 		.4byte	0x1038
 5654 13eb 02       		.uleb128 0x2
 5655 13ec 91       		.byte	0x91
 5656 13ed 74       		.sleb128 -12
 5657 13ee 00       		.byte	0
ARM GAS  /tmp/cc602Zqo.s 			page 101


 5658 13ef 22       		.uleb128 0x22
 5659 13f0 7A030000 		.4byte	.LASF364
 5660 13f4 01       		.byte	0x1
 5661 13f5 C201     		.2byte	0x1c2
 5662 13f7 CD020000 		.4byte	0x2cd
 5663 13fb D0050000 		.4byte	.LFB136
 5664 13ff 36000000 		.4byte	.LFE136-.LFB136
 5665 1403 01       		.uleb128 0x1
 5666 1404 9C       		.byte	0x9c
 5667 1405 55140000 		.4byte	0x1455
 5668 1409 24       		.uleb128 0x24
 5669 140a F3150000 		.4byte	.LASF359
 5670 140e 01       		.byte	0x1
 5671 140f C201     		.2byte	0x1c2
 5672 1411 6F070000 		.4byte	0x76f
 5673 1415 02       		.uleb128 0x2
 5674 1416 91       		.byte	0x91
 5675 1417 6C       		.sleb128 -20
 5676 1418 24       		.uleb128 0x24
 5677 1419 33130000 		.4byte	.LASF361
 5678 141d 01       		.byte	0x1
 5679 141e C201     		.2byte	0x1c2
 5680 1420 CD020000 		.4byte	0x2cd
 5681 1424 02       		.uleb128 0x2
 5682 1425 91       		.byte	0x91
 5683 1426 6B       		.sleb128 -21
 5684 1427 24       		.uleb128 0x24
 5685 1428 EA020000 		.4byte	.LASF362
 5686 142c 01       		.byte	0x1
 5687 142d C201     		.2byte	0x1c2
 5688 142f 4C0D0000 		.4byte	0xd4c
 5689 1433 02       		.uleb128 0x2
 5690 1434 91       		.byte	0x91
 5691 1435 64       		.sleb128 -28
 5692 1436 24       		.uleb128 0x24
 5693 1437 33170000 		.4byte	.LASF363
 5694 143b 01       		.byte	0x1
 5695 143c C201     		.2byte	0x1c2
 5696 143e D8020000 		.4byte	0x2d8
 5697 1442 02       		.uleb128 0x2
 5698 1443 91       		.byte	0x91
 5699 1444 68       		.sleb128 -24
 5700 1445 25       		.uleb128 0x25
 5701 1446 63747800 		.ascii	"ctx\000"
 5702 144a 01       		.byte	0x1
 5703 144b C401     		.2byte	0x1c4
 5704 144d 38100000 		.4byte	0x1038
 5705 1451 02       		.uleb128 0x2
 5706 1452 91       		.byte	0x91
 5707 1453 74       		.sleb128 -12
 5708 1454 00       		.byte	0
 5709 1455 22       		.uleb128 0x22
 5710 1456 BE050000 		.4byte	.LASF365
 5711 145a 01       		.byte	0x1
 5712 145b D401     		.2byte	0x1d4
 5713 145d CD020000 		.4byte	0x2cd
 5714 1461 10060000 		.4byte	.LFB137
ARM GAS  /tmp/cc602Zqo.s 			page 102


 5715 1465 9A000000 		.4byte	.LFE137-.LFB137
 5716 1469 01       		.uleb128 0x1
 5717 146a 9C       		.byte	0x9c
 5718 146b BB140000 		.4byte	0x14bb
 5719 146f 24       		.uleb128 0x24
 5720 1470 F3150000 		.4byte	.LASF359
 5721 1474 01       		.byte	0x1
 5722 1475 D401     		.2byte	0x1d4
 5723 1477 6F070000 		.4byte	0x76f
 5724 147b 02       		.uleb128 0x2
 5725 147c 91       		.byte	0x91
 5726 147d 6C       		.sleb128 -20
 5727 147e 24       		.uleb128 0x24
 5728 147f 66060000 		.4byte	.LASF366
 5729 1483 01       		.byte	0x1
 5730 1484 D401     		.2byte	0x1d4
 5731 1486 CD020000 		.4byte	0x2cd
 5732 148a 02       		.uleb128 0x2
 5733 148b 91       		.byte	0x91
 5734 148c 6B       		.sleb128 -21
 5735 148d 24       		.uleb128 0x24
 5736 148e EA020000 		.4byte	.LASF362
 5737 1492 01       		.byte	0x1
 5738 1493 D401     		.2byte	0x1d4
 5739 1495 4C0D0000 		.4byte	0xd4c
 5740 1499 02       		.uleb128 0x2
 5741 149a 91       		.byte	0x91
 5742 149b 64       		.sleb128 -28
 5743 149c 24       		.uleb128 0x24
 5744 149d 3C040000 		.4byte	.LASF367
 5745 14a1 01       		.byte	0x1
 5746 14a2 D401     		.2byte	0x1d4
 5747 14a4 D8020000 		.4byte	0x2d8
 5748 14a8 02       		.uleb128 0x2
 5749 14a9 91       		.byte	0x91
 5750 14aa 68       		.sleb128 -24
 5751 14ab 25       		.uleb128 0x25
 5752 14ac 63747800 		.ascii	"ctx\000"
 5753 14b0 01       		.byte	0x1
 5754 14b1 D701     		.2byte	0x1d7
 5755 14b3 38100000 		.4byte	0x1038
 5756 14b7 02       		.uleb128 0x2
 5757 14b8 91       		.byte	0x91
 5758 14b9 74       		.sleb128 -12
 5759 14ba 00       		.byte	0
 5760 14bb 22       		.uleb128 0x22
 5761 14bc CA020000 		.4byte	.LASF368
 5762 14c0 01       		.byte	0x1
 5763 14c1 FD01     		.2byte	0x1fd
 5764 14c3 CD020000 		.4byte	0x2cd
 5765 14c7 B0060000 		.4byte	.LFB138
 5766 14cb 36000000 		.4byte	.LFE138-.LFB138
 5767 14cf 01       		.uleb128 0x1
 5768 14d0 9C       		.byte	0x9c
 5769 14d1 21150000 		.4byte	0x1521
 5770 14d5 24       		.uleb128 0x24
 5771 14d6 F3150000 		.4byte	.LASF359
ARM GAS  /tmp/cc602Zqo.s 			page 103


 5772 14da 01       		.byte	0x1
 5773 14db FD01     		.2byte	0x1fd
 5774 14dd 6F070000 		.4byte	0x76f
 5775 14e1 02       		.uleb128 0x2
 5776 14e2 91       		.byte	0x91
 5777 14e3 6C       		.sleb128 -20
 5778 14e4 24       		.uleb128 0x24
 5779 14e5 66060000 		.4byte	.LASF366
 5780 14e9 01       		.byte	0x1
 5781 14ea FD01     		.2byte	0x1fd
 5782 14ec CD020000 		.4byte	0x2cd
 5783 14f0 02       		.uleb128 0x2
 5784 14f1 91       		.byte	0x91
 5785 14f2 6B       		.sleb128 -21
 5786 14f3 24       		.uleb128 0x24
 5787 14f4 EA020000 		.4byte	.LASF362
 5788 14f8 01       		.byte	0x1
 5789 14f9 FD01     		.2byte	0x1fd
 5790 14fb 4C0D0000 		.4byte	0xd4c
 5791 14ff 02       		.uleb128 0x2
 5792 1500 91       		.byte	0x91
 5793 1501 64       		.sleb128 -28
 5794 1502 24       		.uleb128 0x24
 5795 1503 3C040000 		.4byte	.LASF367
 5796 1507 01       		.byte	0x1
 5797 1508 FD01     		.2byte	0x1fd
 5798 150a D8020000 		.4byte	0x2d8
 5799 150e 02       		.uleb128 0x2
 5800 150f 91       		.byte	0x91
 5801 1510 68       		.sleb128 -24
 5802 1511 25       		.uleb128 0x25
 5803 1512 63747800 		.ascii	"ctx\000"
 5804 1516 01       		.byte	0x1
 5805 1517 0002     		.2byte	0x200
 5806 1519 38100000 		.4byte	0x1038
 5807 151d 02       		.uleb128 0x2
 5808 151e 91       		.byte	0x91
 5809 151f 74       		.sleb128 -12
 5810 1520 00       		.byte	0
 5811 1521 22       		.uleb128 0x22
 5812 1522 48080000 		.4byte	.LASF369
 5813 1526 01       		.byte	0x1
 5814 1527 1002     		.2byte	0x210
 5815 1529 CD020000 		.4byte	0x2cd
 5816 152d F0060000 		.4byte	.LFB139
 5817 1531 6C000000 		.4byte	.LFE139-.LFB139
 5818 1535 01       		.uleb128 0x1
 5819 1536 9C       		.byte	0x9c
 5820 1537 85150000 		.4byte	0x1585
 5821 153b 24       		.uleb128 0x24
 5822 153c F3150000 		.4byte	.LASF359
 5823 1540 01       		.byte	0x1
 5824 1541 1002     		.2byte	0x210
 5825 1543 6F070000 		.4byte	0x76f
 5826 1547 02       		.uleb128 0x2
 5827 1548 91       		.byte	0x91
 5828 1549 6C       		.sleb128 -20
ARM GAS  /tmp/cc602Zqo.s 			page 104


 5829 154a 24       		.uleb128 0x24
 5830 154b 33130000 		.4byte	.LASF361
 5831 154f 01       		.byte	0x1
 5832 1550 1002     		.2byte	0x210
 5833 1552 CD020000 		.4byte	0x2cd
 5834 1556 02       		.uleb128 0x2
 5835 1557 91       		.byte	0x91
 5836 1558 6B       		.sleb128 -21
 5837 1559 24       		.uleb128 0x24
 5838 155a EA020000 		.4byte	.LASF362
 5839 155e 01       		.byte	0x1
 5840 155f 1002     		.2byte	0x210
 5841 1561 4C0D0000 		.4byte	0xd4c
 5842 1565 02       		.uleb128 0x2
 5843 1566 91       		.byte	0x91
 5844 1567 64       		.sleb128 -28
 5845 1568 24       		.uleb128 0x24
 5846 1569 33170000 		.4byte	.LASF363
 5847 156d 01       		.byte	0x1
 5848 156e 1002     		.2byte	0x210
 5849 1570 D8020000 		.4byte	0x2d8
 5850 1574 02       		.uleb128 0x2
 5851 1575 91       		.byte	0x91
 5852 1576 68       		.sleb128 -24
 5853 1577 25       		.uleb128 0x25
 5854 1578 6900     		.ascii	"i\000"
 5855 157a 01       		.byte	0x1
 5856 157b 1202     		.2byte	0x212
 5857 157d CD020000 		.4byte	0x2cd
 5858 1581 02       		.uleb128 0x2
 5859 1582 91       		.byte	0x91
 5860 1583 77       		.sleb128 -9
 5861 1584 00       		.byte	0
 5862 1585 22       		.uleb128 0x22
 5863 1586 39020000 		.4byte	.LASF370
 5864 158a 01       		.byte	0x1
 5865 158b 2C02     		.2byte	0x22c
 5866 158d CD020000 		.4byte	0x2cd
 5867 1591 60070000 		.4byte	.LFB140
 5868 1595 AC000000 		.4byte	.LFE140-.LFB140
 5869 1599 01       		.uleb128 0x1
 5870 159a 9C       		.byte	0x9c
 5871 159b E9150000 		.4byte	0x15e9
 5872 159f 24       		.uleb128 0x24
 5873 15a0 F3150000 		.4byte	.LASF359
 5874 15a4 01       		.byte	0x1
 5875 15a5 2C02     		.2byte	0x22c
 5876 15a7 6F070000 		.4byte	0x76f
 5877 15ab 02       		.uleb128 0x2
 5878 15ac 91       		.byte	0x91
 5879 15ad 6C       		.sleb128 -20
 5880 15ae 24       		.uleb128 0x24
 5881 15af 66060000 		.4byte	.LASF366
 5882 15b3 01       		.byte	0x1
 5883 15b4 2C02     		.2byte	0x22c
 5884 15b6 CD020000 		.4byte	0x2cd
 5885 15ba 02       		.uleb128 0x2
ARM GAS  /tmp/cc602Zqo.s 			page 105


 5886 15bb 91       		.byte	0x91
 5887 15bc 6B       		.sleb128 -21
 5888 15bd 24       		.uleb128 0x24
 5889 15be EA020000 		.4byte	.LASF362
 5890 15c2 01       		.byte	0x1
 5891 15c3 2C02     		.2byte	0x22c
 5892 15c5 4C0D0000 		.4byte	0xd4c
 5893 15c9 02       		.uleb128 0x2
 5894 15ca 91       		.byte	0x91
 5895 15cb 64       		.sleb128 -28
 5896 15cc 24       		.uleb128 0x24
 5897 15cd 3C040000 		.4byte	.LASF367
 5898 15d1 01       		.byte	0x1
 5899 15d2 2C02     		.2byte	0x22c
 5900 15d4 D8020000 		.4byte	0x2d8
 5901 15d8 02       		.uleb128 0x2
 5902 15d9 91       		.byte	0x91
 5903 15da 68       		.sleb128 -24
 5904 15db 25       		.uleb128 0x25
 5905 15dc 6900     		.ascii	"i\000"
 5906 15de 01       		.byte	0x1
 5907 15df 2E02     		.2byte	0x22e
 5908 15e1 CD020000 		.4byte	0x2cd
 5909 15e5 02       		.uleb128 0x2
 5910 15e6 91       		.byte	0x91
 5911 15e7 77       		.sleb128 -9
 5912 15e8 00       		.byte	0
 5913 15e9 22       		.uleb128 0x22
 5914 15ea 3D0C0000 		.4byte	.LASF371
 5915 15ee 01       		.byte	0x1
 5916 15ef 4A02     		.2byte	0x24a
 5917 15f1 CD020000 		.4byte	0x2cd
 5918 15f5 10080000 		.4byte	.LFB141
 5919 15f9 70000000 		.4byte	.LFE141-.LFB141
 5920 15fd 01       		.uleb128 0x1
 5921 15fe 9C       		.byte	0x9c
 5922 15ff 22160000 		.4byte	0x1622
 5923 1603 24       		.uleb128 0x24
 5924 1604 F3150000 		.4byte	.LASF359
 5925 1608 01       		.byte	0x1
 5926 1609 4A02     		.2byte	0x24a
 5927 160b 6F070000 		.4byte	0x76f
 5928 160f 02       		.uleb128 0x2
 5929 1610 91       		.byte	0x91
 5930 1611 6C       		.sleb128 -20
 5931 1612 25       		.uleb128 0x25
 5932 1613 63747800 		.ascii	"ctx\000"
 5933 1617 01       		.byte	0x1
 5934 1618 4C02     		.2byte	0x24c
 5935 161a 38100000 		.4byte	0x1038
 5936 161e 02       		.uleb128 0x2
 5937 161f 91       		.byte	0x91
 5938 1620 74       		.sleb128 -12
 5939 1621 00       		.byte	0
 5940 1622 22       		.uleb128 0x22
 5941 1623 46050000 		.4byte	.LASF372
 5942 1627 01       		.byte	0x1
ARM GAS  /tmp/cc602Zqo.s 			page 106


 5943 1628 6002     		.2byte	0x260
 5944 162a CD020000 		.4byte	0x2cd
 5945 162e 80080000 		.4byte	.LFB142
 5946 1632 70000000 		.4byte	.LFE142-.LFB142
 5947 1636 01       		.uleb128 0x1
 5948 1637 9C       		.byte	0x9c
 5949 1638 5B160000 		.4byte	0x165b
 5950 163c 24       		.uleb128 0x24
 5951 163d F3150000 		.4byte	.LASF359
 5952 1641 01       		.byte	0x1
 5953 1642 6002     		.2byte	0x260
 5954 1644 6F070000 		.4byte	0x76f
 5955 1648 02       		.uleb128 0x2
 5956 1649 91       		.byte	0x91
 5957 164a 6C       		.sleb128 -20
 5958 164b 25       		.uleb128 0x25
 5959 164c 63747800 		.ascii	"ctx\000"
 5960 1650 01       		.byte	0x1
 5961 1651 6202     		.2byte	0x262
 5962 1653 38100000 		.4byte	0x1038
 5963 1657 02       		.uleb128 0x2
 5964 1658 91       		.byte	0x91
 5965 1659 74       		.sleb128 -12
 5966 165a 00       		.byte	0
 5967 165b 22       		.uleb128 0x22
 5968 165c 0D000000 		.4byte	.LASF373
 5969 1660 01       		.byte	0x1
 5970 1661 7C02     		.2byte	0x27c
 5971 1663 2D100000 		.4byte	0x102d
 5972 1667 F0080000 		.4byte	.LFB143
 5973 166b 5C000000 		.4byte	.LFE143-.LFB143
 5974 166f 01       		.uleb128 0x1
 5975 1670 9C       		.byte	0x9c
 5976 1671 9E160000 		.4byte	0x169e
 5977 1675 23       		.uleb128 0x23
 5978 1676 6B080000 		.4byte	.LASF374
 5979 167a 01       		.byte	0x1
 5980 167b 8002     		.2byte	0x280
 5981 167d F5090000 		.4byte	0x9f5
 5982 1681 02       		.uleb128 0x2
 5983 1682 91       		.byte	0x91
 5984 1683 64       		.sleb128 -28
 5985 1684 1D       		.uleb128 0x1d
 5986 1685 F4080000 		.4byte	.LBB19
 5987 1689 18000000 		.4byte	.LBE19-.LBB19
 5988 168d 23       		.uleb128 0x23
 5989 168e 88070000 		.4byte	.LASF348
 5990 1692 01       		.byte	0x1
 5991 1693 8302     		.2byte	0x283
 5992 1695 00030000 		.4byte	0x300
 5993 1699 02       		.uleb128 0x2
 5994 169a 91       		.byte	0x91
 5995 169b 60       		.sleb128 -32
 5996 169c 00       		.byte	0
 5997 169d 00       		.byte	0
 5998 169e 26       		.uleb128 0x26
 5999 169f 1B040000 		.4byte	.LASF375
ARM GAS  /tmp/cc602Zqo.s 			page 107


 6000 16a3 01       		.byte	0x1
 6001 16a4 9A02     		.2byte	0x29a
 6002 16a6 50090000 		.4byte	.LFB144
 6003 16aa 64000000 		.4byte	.LFE144-.LFB144
 6004 16ae 01       		.uleb128 0x1
 6005 16af 9C       		.byte	0x9c
 6006 16b0 F3160000 		.4byte	0x16f3
 6007 16b4 24       		.uleb128 0x24
 6008 16b5 4E140000 		.4byte	.LASF376
 6009 16b9 01       		.byte	0x1
 6010 16ba 9A02     		.2byte	0x29a
 6011 16bc F3160000 		.4byte	0x16f3
 6012 16c0 02       		.uleb128 0x2
 6013 16c1 91       		.byte	0x91
 6014 16c2 7C       		.sleb128 -4
 6015 16c3 20       		.uleb128 0x20
 6016 16c4 76616C00 		.ascii	"val\000"
 6017 16c8 01       		.byte	0x1
 6018 16c9 9A02     		.2byte	0x29a
 6019 16cb 4C0D0000 		.4byte	0xd4c
 6020 16cf 02       		.uleb128 0x2
 6021 16d0 91       		.byte	0x91
 6022 16d1 78       		.sleb128 -8
 6023 16d2 27       		.uleb128 0x27
 6024 16d3 86100000 		.4byte	0x1086
 6025 16d7 56090000 		.4byte	.LBB20
 6026 16db 02000000 		.4byte	.LBE20-.LBB20
 6027 16df 01       		.byte	0x1
 6028 16e0 A102     		.2byte	0x2a1
 6029 16e2 27       		.uleb128 0x27
 6030 16e3 8F100000 		.4byte	0x108f
 6031 16e7 80090000 		.4byte	.LBB22
 6032 16eb 02000000 		.4byte	.LBE22-.LBB22
 6033 16ef 01       		.byte	0x1
 6034 16f0 A802     		.2byte	0x2a8
 6035 16f2 00       		.byte	0
 6036 16f3 13       		.uleb128 0x13
 6037 16f4 04       		.byte	0x4
 6038 16f5 690F0000 		.4byte	0xf69
 6039 16f9 26       		.uleb128 0x26
 6040 16fa 65050000 		.4byte	.LASF377
 6041 16fe 01       		.byte	0x1
 6042 16ff B602     		.2byte	0x2b6
 6043 1701 C0090000 		.4byte	.LFB145
 6044 1705 4A000000 		.4byte	.LFE145-.LFB145
 6045 1709 01       		.uleb128 0x1
 6046 170a 9C       		.byte	0x9c
 6047 170b 2E170000 		.4byte	0x172e
 6048 170f 24       		.uleb128 0x24
 6049 1710 4E140000 		.4byte	.LASF376
 6050 1714 01       		.byte	0x1
 6051 1715 B602     		.2byte	0x2b6
 6052 1717 F3160000 		.4byte	0x16f3
 6053 171b 02       		.uleb128 0x2
 6054 171c 91       		.byte	0x91
 6055 171d 7C       		.sleb128 -4
 6056 171e 20       		.uleb128 0x20
ARM GAS  /tmp/cc602Zqo.s 			page 108


 6057 171f 76616C00 		.ascii	"val\000"
 6058 1723 01       		.byte	0x1
 6059 1724 B602     		.2byte	0x2b6
 6060 1726 CD020000 		.4byte	0x2cd
 6061 172a 02       		.uleb128 0x2
 6062 172b 91       		.byte	0x91
 6063 172c 7B       		.sleb128 -5
 6064 172d 00       		.byte	0
 6065 172e 28       		.uleb128 0x28
 6066 172f FA150000 		.4byte	.LASF424
 6067 1733 01       		.byte	0x1
 6068 1734 CC02     		.2byte	0x2cc
 6069 1736 CD020000 		.4byte	0x2cd
 6070 173a 100A0000 		.4byte	.LFB146
 6071 173e 54000000 		.4byte	.LFE146-.LFB146
 6072 1742 01       		.uleb128 0x1
 6073 1743 9C       		.byte	0x9c
 6074 1744 29       		.uleb128 0x29
 6075 1745 50150000 		.4byte	.LASF381
 6076 1749 01       		.byte	0x1
 6077 174a F002     		.2byte	0x2f0
 6078 174c CD020000 		.4byte	0x2cd
 6079 1750 700A0000 		.4byte	.LFB147
 6080 1754 74000000 		.4byte	.LFE147-.LFB147
 6081 1758 01       		.uleb128 0x1
 6082 1759 9C       		.byte	0x9c
 6083 175a AA170000 		.4byte	0x17aa
 6084 175e 24       		.uleb128 0x24
 6085 175f EA090000 		.4byte	.LASF378
 6086 1763 01       		.byte	0x1
 6087 1764 F002     		.2byte	0x2f0
 6088 1766 CD020000 		.4byte	0x2cd
 6089 176a 02       		.uleb128 0x2
 6090 176b 91       		.byte	0x91
 6091 176c 6F       		.sleb128 -17
 6092 176d 20       		.uleb128 0x20
 6093 176e 52656700 		.ascii	"Reg\000"
 6094 1772 01       		.byte	0x1
 6095 1773 F002     		.2byte	0x2f0
 6096 1775 CD020000 		.4byte	0x2cd
 6097 1779 02       		.uleb128 0x2
 6098 177a 91       		.byte	0x91
 6099 177b 6E       		.sleb128 -18
 6100 177c 24       		.uleb128 0x24
 6101 177d EA020000 		.4byte	.LASF362
 6102 1781 01       		.byte	0x1
 6103 1782 F002     		.2byte	0x2f0
 6104 1784 4C0D0000 		.4byte	0xd4c
 6105 1788 02       		.uleb128 0x2
 6106 1789 91       		.byte	0x91
 6107 178a 68       		.sleb128 -24
 6108 178b 24       		.uleb128 0x24
 6109 178c 14050000 		.4byte	.LASF379
 6110 1790 01       		.byte	0x1
 6111 1791 F002     		.2byte	0x2f0
 6112 1793 D8020000 		.4byte	0x2d8
 6113 1797 02       		.uleb128 0x2
ARM GAS  /tmp/cc602Zqo.s 			page 109


 6114 1798 91       		.byte	0x91
 6115 1799 6C       		.sleb128 -20
 6116 179a 23       		.uleb128 0x23
 6117 179b EC0A0000 		.4byte	.LASF380
 6118 179f 01       		.byte	0x1
 6119 17a0 F302     		.2byte	0x2f3
 6120 17a2 99070000 		.4byte	0x799
 6121 17a6 02       		.uleb128 0x2
 6122 17a7 91       		.byte	0x91
 6123 17a8 77       		.sleb128 -9
 6124 17a9 00       		.byte	0
 6125 17aa 29       		.uleb128 0x29
 6126 17ab 05030000 		.4byte	.LASF382
 6127 17af 01       		.byte	0x1
 6128 17b0 1003     		.2byte	0x310
 6129 17b2 CD020000 		.4byte	0x2cd
 6130 17b6 F00A0000 		.4byte	.LFB148
 6131 17ba 74000000 		.4byte	.LFE148-.LFB148
 6132 17be 01       		.uleb128 0x1
 6133 17bf 9C       		.byte	0x9c
 6134 17c0 10180000 		.4byte	0x1810
 6135 17c4 24       		.uleb128 0x24
 6136 17c5 EA090000 		.4byte	.LASF378
 6137 17c9 01       		.byte	0x1
 6138 17ca 1003     		.2byte	0x310
 6139 17cc CD020000 		.4byte	0x2cd
 6140 17d0 02       		.uleb128 0x2
 6141 17d1 91       		.byte	0x91
 6142 17d2 6F       		.sleb128 -17
 6143 17d3 20       		.uleb128 0x20
 6144 17d4 52656700 		.ascii	"Reg\000"
 6145 17d8 01       		.byte	0x1
 6146 17d9 1003     		.2byte	0x310
 6147 17db CD020000 		.4byte	0x2cd
 6148 17df 02       		.uleb128 0x2
 6149 17e0 91       		.byte	0x91
 6150 17e1 6E       		.sleb128 -18
 6151 17e2 24       		.uleb128 0x24
 6152 17e3 EA020000 		.4byte	.LASF362
 6153 17e7 01       		.byte	0x1
 6154 17e8 1003     		.2byte	0x310
 6155 17ea 4C0D0000 		.4byte	0xd4c
 6156 17ee 02       		.uleb128 0x2
 6157 17ef 91       		.byte	0x91
 6158 17f0 68       		.sleb128 -24
 6159 17f1 24       		.uleb128 0x24
 6160 17f2 14050000 		.4byte	.LASF379
 6161 17f6 01       		.byte	0x1
 6162 17f7 1003     		.2byte	0x310
 6163 17f9 D8020000 		.4byte	0x2d8
 6164 17fd 02       		.uleb128 0x2
 6165 17fe 91       		.byte	0x91
 6166 17ff 6C       		.sleb128 -20
 6167 1800 23       		.uleb128 0x23
 6168 1801 EC0A0000 		.4byte	.LASF380
 6169 1805 01       		.byte	0x1
 6170 1806 1303     		.2byte	0x313
ARM GAS  /tmp/cc602Zqo.s 			page 110


 6171 1808 99070000 		.4byte	0x799
 6172 180c 02       		.uleb128 0x2
 6173 180d 91       		.byte	0x91
 6174 180e 77       		.sleb128 -9
 6175 180f 00       		.byte	0
 6176 1810 2A       		.uleb128 0x2a
 6177 1811 0B170000 		.4byte	.LASF383
 6178 1815 01       		.byte	0x1
 6179 1816 2C03     		.2byte	0x32c
 6180 1818 700B0000 		.4byte	.LFB149
 6181 181c 20000000 		.4byte	.LFE149-.LFB149
 6182 1820 01       		.uleb128 0x1
 6183 1821 9C       		.byte	0x9c
 6184 1822 36180000 		.4byte	0x1836
 6185 1826 24       		.uleb128 0x24
 6186 1827 EA090000 		.4byte	.LASF378
 6187 182b 01       		.byte	0x1
 6188 182c 2C03     		.2byte	0x32c
 6189 182e CD020000 		.4byte	0x2cd
 6190 1832 02       		.uleb128 0x2
 6191 1833 91       		.byte	0x91
 6192 1834 77       		.sleb128 -9
 6193 1835 00       		.byte	0
 6194 1836 2A       		.uleb128 0x2a
 6195 1837 EB120000 		.4byte	.LASF384
 6196 183b 01       		.byte	0x1
 6197 183c 3D03     		.2byte	0x33d
 6198 183e 900B0000 		.4byte	.LFB150
 6199 1842 AC000000 		.4byte	.LFE150-.LFB150
 6200 1846 01       		.uleb128 0x1
 6201 1847 9C       		.byte	0x9c
 6202 1848 A4180000 		.4byte	0x18a4
 6203 184c 23       		.uleb128 0x23
 6204 184d 78010000 		.4byte	.LASF347
 6205 1851 01       		.byte	0x1
 6206 1852 3F03     		.2byte	0x33f
 6207 1854 F5090000 		.4byte	0x9f5
 6208 1858 02       		.uleb128 0x2
 6209 1859 91       		.byte	0x91
 6210 185a 64       		.sleb128 -28
 6211 185b 23       		.uleb128 0x23
 6212 185c 5E140000 		.4byte	.LASF385
 6213 1860 01       		.byte	0x1
 6214 1861 4103     		.2byte	0x341
 6215 1863 A5090000 		.4byte	0x9a5
 6216 1867 03       		.uleb128 0x3
 6217 1868 91       		.byte	0x91
 6218 1869 DC7E     		.sleb128 -164
 6219 186b 1C       		.uleb128 0x1c
 6220 186c A80B0000 		.4byte	.LBB24
 6221 1870 18000000 		.4byte	.LBE24-.LBB24
 6222 1874 89180000 		.4byte	0x1889
 6223 1878 23       		.uleb128 0x23
 6224 1879 88070000 		.4byte	.LASF348
 6225 187d 01       		.byte	0x1
 6226 187e 4903     		.2byte	0x349
 6227 1880 00030000 		.4byte	0x300
ARM GAS  /tmp/cc602Zqo.s 			page 111


 6228 1884 03       		.uleb128 0x3
 6229 1885 91       		.byte	0x91
 6230 1886 D87E     		.sleb128 -168
 6231 1888 00       		.byte	0
 6232 1889 1D       		.uleb128 0x1d
 6233 188a DE0B0000 		.4byte	.LBB25
 6234 188e 18000000 		.4byte	.LBE25-.LBB25
 6235 1892 23       		.uleb128 0x23
 6236 1893 88070000 		.4byte	.LASF348
 6237 1897 01       		.byte	0x1
 6238 1898 5503     		.2byte	0x355
 6239 189a 00030000 		.4byte	0x300
 6240 189e 03       		.uleb128 0x3
 6241 189f 91       		.byte	0x91
 6242 18a0 D47E     		.sleb128 -172
 6243 18a2 00       		.byte	0
 6244 18a3 00       		.byte	0
 6245 18a4 2A       		.uleb128 0x2a
 6246 18a5 C3090000 		.4byte	.LASF386
 6247 18a9 01       		.byte	0x1
 6248 18aa 6E03     		.2byte	0x36e
 6249 18ac 400C0000 		.4byte	.LFB151
 6250 18b0 B8000000 		.4byte	.LFE151-.LFB151
 6251 18b4 01       		.uleb128 0x1
 6252 18b5 9C       		.byte	0x9c
 6253 18b6 49190000 		.4byte	0x1949
 6254 18ba 24       		.uleb128 0x24
 6255 18bb 710E0000 		.4byte	.LASF387
 6256 18bf 01       		.byte	0x1
 6257 18c0 6E03     		.2byte	0x36e
 6258 18c2 F3160000 		.4byte	0x16f3
 6259 18c6 02       		.uleb128 0x2
 6260 18c7 91       		.byte	0x91
 6261 18c8 4C       		.sleb128 -52
 6262 18c9 23       		.uleb128 0x23
 6263 18ca FF0C0000 		.4byte	.LASF388
 6264 18ce 01       		.byte	0x1
 6265 18cf 7003     		.2byte	0x370
 6266 18d1 F5090000 		.4byte	0x9f5
 6267 18d5 02       		.uleb128 0x2
 6268 18d6 91       		.byte	0x91
 6269 18d7 64       		.sleb128 -28
 6270 18d8 1C       		.uleb128 0x1c
 6271 18d9 460C0000 		.4byte	.LBB26
 6272 18dd 18000000 		.4byte	.LBE26-.LBB26
 6273 18e1 F5180000 		.4byte	0x18f5
 6274 18e5 23       		.uleb128 0x23
 6275 18e6 88070000 		.4byte	.LASF348
 6276 18ea 01       		.byte	0x1
 6277 18eb 7303     		.2byte	0x373
 6278 18ed 00030000 		.4byte	0x300
 6279 18f1 02       		.uleb128 0x2
 6280 18f2 91       		.byte	0x91
 6281 18f3 60       		.sleb128 -32
 6282 18f4 00       		.byte	0
 6283 18f5 1C       		.uleb128 0x1c
 6284 18f6 620C0000 		.4byte	.LBB27
ARM GAS  /tmp/cc602Zqo.s 			page 112


 6285 18fa 18000000 		.4byte	.LBE27-.LBB27
 6286 18fe 12190000 		.4byte	0x1912
 6287 1902 23       		.uleb128 0x23
 6288 1903 88070000 		.4byte	.LASF348
 6289 1907 01       		.byte	0x1
 6290 1908 7803     		.2byte	0x378
 6291 190a 00030000 		.4byte	0x300
 6292 190e 02       		.uleb128 0x2
 6293 190f 91       		.byte	0x91
 6294 1910 5C       		.sleb128 -36
 6295 1911 00       		.byte	0
 6296 1912 1C       		.uleb128 0x1c
 6297 1913 7A0C0000 		.4byte	.LBB28
 6298 1917 18000000 		.4byte	.LBE28-.LBB28
 6299 191b 2F190000 		.4byte	0x192f
 6300 191f 23       		.uleb128 0x23
 6301 1920 88070000 		.4byte	.LASF348
 6302 1924 01       		.byte	0x1
 6303 1925 7903     		.2byte	0x379
 6304 1927 00030000 		.4byte	0x300
 6305 192b 02       		.uleb128 0x2
 6306 192c 91       		.byte	0x91
 6307 192d 58       		.sleb128 -40
 6308 192e 00       		.byte	0
 6309 192f 1D       		.uleb128 0x1d
 6310 1930 D20C0000 		.4byte	.LBB29
 6311 1934 18000000 		.4byte	.LBE29-.LBB29
 6312 1938 23       		.uleb128 0x23
 6313 1939 88070000 		.4byte	.LASF348
 6314 193d 01       		.byte	0x1
 6315 193e 8D03     		.2byte	0x38d
 6316 1940 00030000 		.4byte	0x300
 6317 1944 02       		.uleb128 0x2
 6318 1945 91       		.byte	0x91
 6319 1946 54       		.sleb128 -44
 6320 1947 00       		.byte	0
 6321 1948 00       		.byte	0
 6322 1949 2B       		.uleb128 0x2b
 6323 194a 82080000 		.4byte	.LASF389
 6324 194e 01       		.byte	0x1
 6325 194f 9503     		.2byte	0x395
 6326 1951 000D0000 		.4byte	.LFB152
 6327 1955 74000000 		.4byte	.LFE152-.LFB152
 6328 1959 01       		.uleb128 0x1
 6329 195a 9C       		.byte	0x9c
 6330 195b 2B       		.uleb128 0x2b
 6331 195c F1140000 		.4byte	.LASF390
 6332 1960 01       		.byte	0x1
 6333 1961 B103     		.2byte	0x3b1
 6334 1963 800D0000 		.4byte	.LFB153
 6335 1967 74000000 		.4byte	.LFE153-.LFB153
 6336 196b 01       		.uleb128 0x1
 6337 196c 9C       		.byte	0x9c
 6338 196d 29       		.uleb128 0x29
 6339 196e E1160000 		.4byte	.LASF391
 6340 1972 01       		.byte	0x1
 6341 1973 CF03     		.2byte	0x3cf
ARM GAS  /tmp/cc602Zqo.s 			page 113


 6342 1975 EE020000 		.4byte	0x2ee
 6343 1979 000E0000 		.4byte	.LFB154
 6344 197d 50000000 		.4byte	.LFE154-.LFB154
 6345 1981 01       		.uleb128 0x1
 6346 1982 9C       		.byte	0x9c
 6347 1983 B5190000 		.4byte	0x19b5
 6348 1987 23       		.uleb128 0x23
 6349 1988 EC0A0000 		.4byte	.LASF380
 6350 198c 01       		.byte	0x1
 6351 198d D103     		.2byte	0x3d1
 6352 198f 99070000 		.4byte	0x799
 6353 1993 02       		.uleb128 0x2
 6354 1994 91       		.byte	0x91
 6355 1995 77       		.sleb128 -9
 6356 1996 23       		.uleb128 0x23
 6357 1997 B20B0000 		.4byte	.LASF392
 6358 199b 01       		.byte	0x1
 6359 199c D203     		.2byte	0x3d2
 6360 199e EE020000 		.4byte	0x2ee
 6361 19a2 02       		.uleb128 0x2
 6362 19a3 91       		.byte	0x91
 6363 19a4 70       		.sleb128 -16
 6364 19a5 23       		.uleb128 0x23
 6365 19a6 BA0D0000 		.4byte	.LASF393
 6366 19aa 01       		.byte	0x1
 6367 19ab D303     		.2byte	0x3d3
 6368 19ad EE020000 		.4byte	0x2ee
 6369 19b1 02       		.uleb128 0x2
 6370 19b2 91       		.byte	0x91
 6371 19b3 6C       		.sleb128 -20
 6372 19b4 00       		.byte	0
 6373 19b5 2A       		.uleb128 0x2a
 6374 19b6 71020000 		.4byte	.LASF394
 6375 19ba 01       		.byte	0x1
 6376 19bb E603     		.2byte	0x3e6
 6377 19bd 500E0000 		.4byte	.LFB155
 6378 19c1 44000000 		.4byte	.LFE155-.LFB155
 6379 19c5 01       		.uleb128 0x1
 6380 19c6 9C       		.byte	0x9c
 6381 19c7 EA190000 		.4byte	0x19ea
 6382 19cb 24       		.uleb128 0x24
 6383 19cc DE000000 		.4byte	.LASF395
 6384 19d0 01       		.byte	0x1
 6385 19d1 E603     		.2byte	0x3e6
 6386 19d3 CD020000 		.4byte	0x2cd
 6387 19d7 02       		.uleb128 0x2
 6388 19d8 91       		.byte	0x91
 6389 19d9 6F       		.sleb128 -17
 6390 19da 23       		.uleb128 0x23
 6391 19db EC0A0000 		.4byte	.LASF380
 6392 19df 01       		.byte	0x1
 6393 19e0 E803     		.2byte	0x3e8
 6394 19e2 99070000 		.4byte	0x799
 6395 19e6 02       		.uleb128 0x2
 6396 19e7 91       		.byte	0x91
 6397 19e8 77       		.sleb128 -9
 6398 19e9 00       		.byte	0
ARM GAS  /tmp/cc602Zqo.s 			page 114


 6399 19ea 2B       		.uleb128 0x2b
 6400 19eb 4C0E0000 		.4byte	.LASF396
 6401 19ef 01       		.byte	0x1
 6402 19f0 F903     		.2byte	0x3f9
 6403 19f2 A00E0000 		.4byte	.LFB156
 6404 19f6 14000000 		.4byte	.LFE156-.LFB156
 6405 19fa 01       		.uleb128 0x1
 6406 19fb 9C       		.byte	0x9c
 6407 19fc 1F       		.uleb128 0x1f
 6408 19fd 81020000 		.4byte	.LASF397
 6409 1a01 01       		.byte	0x1
 6410 1a02 0A04     		.2byte	0x40a
 6411 1a04 C00E0000 		.4byte	.LFB157
 6412 1a08 44000000 		.4byte	.LFE157-.LFB157
 6413 1a0c 01       		.uleb128 0x1
 6414 1a0d 9C       		.byte	0x9c
 6415 1a0e 221A0000 		.4byte	0x1a22
 6416 1a12 23       		.uleb128 0x23
 6417 1a13 1F070000 		.4byte	.LASF398
 6418 1a17 01       		.byte	0x1
 6419 1a18 0C04     		.2byte	0x40c
 6420 1a1a CD020000 		.4byte	0x2cd
 6421 1a1e 02       		.uleb128 0x2
 6422 1a1f 91       		.byte	0x91
 6423 1a20 77       		.sleb128 -9
 6424 1a21 00       		.byte	0
 6425 1a22 1F       		.uleb128 0x1f
 6426 1a23 D7100000 		.4byte	.LASF399
 6427 1a27 01       		.byte	0x1
 6428 1a28 2504     		.2byte	0x425
 6429 1a2a 100F0000 		.4byte	.LFB158
 6430 1a2e 44000000 		.4byte	.LFE158-.LFB158
 6431 1a32 01       		.uleb128 0x1
 6432 1a33 9C       		.byte	0x9c
 6433 1a34 481A0000 		.4byte	0x1a48
 6434 1a38 23       		.uleb128 0x23
 6435 1a39 1F070000 		.4byte	.LASF398
 6436 1a3d 01       		.byte	0x1
 6437 1a3e 2704     		.2byte	0x427
 6438 1a40 CD020000 		.4byte	0x2cd
 6439 1a44 02       		.uleb128 0x2
 6440 1a45 91       		.byte	0x91
 6441 1a46 77       		.sleb128 -9
 6442 1a47 00       		.byte	0
 6443 1a48 1F       		.uleb128 0x1f
 6444 1a49 350E0000 		.4byte	.LASF400
 6445 1a4d 01       		.byte	0x1
 6446 1a4e 3A04     		.2byte	0x43a
 6447 1a50 600F0000 		.4byte	.LFB159
 6448 1a54 48000000 		.4byte	.LFE159-.LFB159
 6449 1a58 01       		.uleb128 0x1
 6450 1a59 9C       		.byte	0x9c
 6451 1a5a 871A0000 		.4byte	0x1a87
 6452 1a5e 23       		.uleb128 0x23
 6453 1a5f FF0C0000 		.4byte	.LASF388
 6454 1a63 01       		.byte	0x1
 6455 1a64 3C04     		.2byte	0x43c
ARM GAS  /tmp/cc602Zqo.s 			page 115


 6456 1a66 F5090000 		.4byte	0x9f5
 6457 1a6a 02       		.uleb128 0x2
 6458 1a6b 91       		.byte	0x91
 6459 1a6c 64       		.sleb128 -28
 6460 1a6d 1D       		.uleb128 0x1d
 6461 1a6e 640F0000 		.4byte	.LBB30
 6462 1a72 18000000 		.4byte	.LBE30-.LBB30
 6463 1a76 23       		.uleb128 0x23
 6464 1a77 88070000 		.4byte	.LASF348
 6465 1a7b 01       		.byte	0x1
 6466 1a7c 3F04     		.2byte	0x43f
 6467 1a7e 00030000 		.4byte	0x300
 6468 1a82 02       		.uleb128 0x2
 6469 1a83 91       		.byte	0x91
 6470 1a84 60       		.sleb128 -32
 6471 1a85 00       		.byte	0
 6472 1a86 00       		.byte	0
 6473 1a87 1F       		.uleb128 0x1f
 6474 1a88 9C060000 		.4byte	.LASF401
 6475 1a8c 01       		.byte	0x1
 6476 1a8d 4C04     		.2byte	0x44c
 6477 1a8f B00F0000 		.4byte	.LFB160
 6478 1a93 2C000000 		.4byte	.LFE160-.LFB160
 6479 1a97 01       		.uleb128 0x1
 6480 1a98 9C       		.byte	0x9c
 6481 1a99 AD1A0000 		.4byte	0x1aad
 6482 1a9d 23       		.uleb128 0x23
 6483 1a9e FF0C0000 		.4byte	.LASF388
 6484 1aa2 01       		.byte	0x1
 6485 1aa3 4E04     		.2byte	0x44e
 6486 1aa5 F5090000 		.4byte	0x9f5
 6487 1aa9 02       		.uleb128 0x2
 6488 1aaa 91       		.byte	0x91
 6489 1aab 64       		.sleb128 -28
 6490 1aac 00       		.byte	0
 6491 1aad 1F       		.uleb128 0x1f
 6492 1aae B9140000 		.4byte	.LASF402
 6493 1ab2 01       		.byte	0x1
 6494 1ab3 5D04     		.2byte	0x45d
 6495 1ab5 E00F0000 		.4byte	.LFB161
 6496 1ab9 1A000000 		.4byte	.LFE161-.LFB161
 6497 1abd 01       		.uleb128 0x1
 6498 1abe 9C       		.byte	0x9c
 6499 1abf D31A0000 		.4byte	0x1ad3
 6500 1ac3 24       		.uleb128 0x24
 6501 1ac4 41170000 		.4byte	.LASF403
 6502 1ac8 01       		.byte	0x1
 6503 1ac9 5D04     		.2byte	0x45d
 6504 1acb CD020000 		.4byte	0x2cd
 6505 1acf 02       		.uleb128 0x2
 6506 1ad0 91       		.byte	0x91
 6507 1ad1 77       		.sleb128 -9
 6508 1ad2 00       		.byte	0
 6509 1ad3 22       		.uleb128 0x22
 6510 1ad4 28000000 		.4byte	.LASF404
 6511 1ad8 01       		.byte	0x1
 6512 1ad9 6804     		.2byte	0x468
ARM GAS  /tmp/cc602Zqo.s 			page 116


 6513 1adb CD020000 		.4byte	0x2cd
 6514 1adf 00100000 		.4byte	.LFB162
 6515 1ae3 20000000 		.4byte	.LFE162-.LFB162
 6516 1ae7 01       		.uleb128 0x1
 6517 1ae8 9C       		.byte	0x9c
 6518 1ae9 FD1A0000 		.4byte	0x1afd
 6519 1aed 23       		.uleb128 0x23
 6520 1aee CC0A0000 		.4byte	.LASF405
 6521 1af2 01       		.byte	0x1
 6522 1af3 6A04     		.2byte	0x46a
 6523 1af5 CD020000 		.4byte	0x2cd
 6524 1af9 02       		.uleb128 0x2
 6525 1afa 91       		.byte	0x91
 6526 1afb 77       		.sleb128 -9
 6527 1afc 00       		.byte	0
 6528 1afd 22       		.uleb128 0x22
 6529 1afe EF0B0000 		.4byte	.LASF406
 6530 1b02 01       		.byte	0x1
 6531 1b03 8104     		.2byte	0x481
 6532 1b05 CD020000 		.4byte	0x2cd
 6533 1b09 20100000 		.4byte	.LFB163
 6534 1b0d B0000000 		.4byte	.LFE163-.LFB163
 6535 1b11 01       		.uleb128 0x1
 6536 1b12 9C       		.byte	0x9c
 6537 1b13 701B0000 		.4byte	0x1b70
 6538 1b17 20       		.uleb128 0x20
 6539 1b18 436D6400 		.ascii	"Cmd\000"
 6540 1b1c 01       		.byte	0x1
 6541 1b1d 8104     		.2byte	0x481
 6542 1b1f CD020000 		.4byte	0x2cd
 6543 1b23 02       		.uleb128 0x2
 6544 1b24 91       		.byte	0x91
 6545 1b25 67       		.sleb128 -25
 6546 1b26 20       		.uleb128 0x20
 6547 1b27 41726700 		.ascii	"Arg\000"
 6548 1b2b 01       		.byte	0x1
 6549 1b2c 8104     		.2byte	0x481
 6550 1b2e EE020000 		.4byte	0x2ee
 6551 1b32 02       		.uleb128 0x2
 6552 1b33 91       		.byte	0x91
 6553 1b34 60       		.sleb128 -32
 6554 1b35 20       		.uleb128 0x20
 6555 1b36 43726300 		.ascii	"Crc\000"
 6556 1b3a 01       		.byte	0x1
 6557 1b3b 8104     		.2byte	0x481
 6558 1b3d CD020000 		.4byte	0x2cd
 6559 1b41 02       		.uleb128 0x2
 6560 1b42 91       		.byte	0x91
 6561 1b43 66       		.sleb128 -26
 6562 1b44 25       		.uleb128 0x25
 6563 1b45 6E00     		.ascii	"n\000"
 6564 1b47 01       		.byte	0x1
 6565 1b48 8304     		.2byte	0x483
 6566 1b4a EE020000 		.4byte	0x2ee
 6567 1b4e 02       		.uleb128 0x2
 6568 1b4f 91       		.byte	0x91
 6569 1b50 74       		.sleb128 -12
ARM GAS  /tmp/cc602Zqo.s 			page 117


 6570 1b51 23       		.uleb128 0x23
 6571 1b52 A2160000 		.4byte	.LASF407
 6572 1b56 01       		.byte	0x1
 6573 1b57 8304     		.2byte	0x483
 6574 1b59 EE020000 		.4byte	0x2ee
 6575 1b5d 02       		.uleb128 0x2
 6576 1b5e 91       		.byte	0x91
 6577 1b5f 70       		.sleb128 -16
 6578 1b60 23       		.uleb128 0x23
 6579 1b61 7C150000 		.4byte	.LASF408
 6580 1b65 01       		.byte	0x1
 6581 1b66 8404     		.2byte	0x484
 6582 1b68 701B0000 		.4byte	0x1b70
 6583 1b6c 02       		.uleb128 0x2
 6584 1b6d 91       		.byte	0x91
 6585 1b6e 68       		.sleb128 -24
 6586 1b6f 00       		.byte	0
 6587 1b70 08       		.uleb128 0x8
 6588 1b71 CD020000 		.4byte	0x2cd
 6589 1b75 801B0000 		.4byte	0x1b80
 6590 1b79 09       		.uleb128 0x9
 6591 1b7a F9020000 		.4byte	0x2f9
 6592 1b7e 05       		.byte	0x5
 6593 1b7f 00       		.byte	0
 6594 1b80 22       		.uleb128 0x22
 6595 1b81 10070000 		.4byte	.LASF409
 6596 1b85 01       		.byte	0x1
 6597 1b86 A804     		.2byte	0x4a8
 6598 1b88 99070000 		.4byte	0x799
 6599 1b8c D0100000 		.4byte	.LFB164
 6600 1b90 A4000000 		.4byte	.LFE164-.LFB164
 6601 1b94 01       		.uleb128 0x1
 6602 1b95 9C       		.byte	0x9c
 6603 1b96 F51B0000 		.4byte	0x1bf5
 6604 1b9a 20       		.uleb128 0x20
 6605 1b9b 436D6400 		.ascii	"Cmd\000"
 6606 1b9f 01       		.byte	0x1
 6607 1ba0 A804     		.2byte	0x4a8
 6608 1ba2 CD020000 		.4byte	0x2cd
 6609 1ba6 02       		.uleb128 0x2
 6610 1ba7 91       		.byte	0x91
 6611 1ba8 67       		.sleb128 -25
 6612 1ba9 20       		.uleb128 0x20
 6613 1baa 41726700 		.ascii	"Arg\000"
 6614 1bae 01       		.byte	0x1
 6615 1baf A804     		.2byte	0x4a8
 6616 1bb1 EE020000 		.4byte	0x2ee
 6617 1bb5 02       		.uleb128 0x2
 6618 1bb6 91       		.byte	0x91
 6619 1bb7 60       		.sleb128 -32
 6620 1bb8 20       		.uleb128 0x20
 6621 1bb9 43726300 		.ascii	"Crc\000"
 6622 1bbd 01       		.byte	0x1
 6623 1bbe A804     		.2byte	0x4a8
 6624 1bc0 CD020000 		.4byte	0x2cd
 6625 1bc4 02       		.uleb128 0x2
 6626 1bc5 91       		.byte	0x91
ARM GAS  /tmp/cc602Zqo.s 			page 118


 6627 1bc6 66       		.sleb128 -26
 6628 1bc7 24       		.uleb128 0x24
 6629 1bc8 680A0000 		.4byte	.LASF410
 6630 1bcc 01       		.byte	0x1
 6631 1bcd A804     		.2byte	0x4a8
 6632 1bcf CD020000 		.4byte	0x2cd
 6633 1bd3 02       		.uleb128 0x2
 6634 1bd4 91       		.byte	0x91
 6635 1bd5 65       		.sleb128 -27
 6636 1bd6 23       		.uleb128 0x23
 6637 1bd7 1F070000 		.4byte	.LASF398
 6638 1bdb 01       		.byte	0x1
 6639 1bdc AA04     		.2byte	0x4aa
 6640 1bde EE020000 		.4byte	0x2ee
 6641 1be2 02       		.uleb128 0x2
 6642 1be3 91       		.byte	0x91
 6643 1be4 74       		.sleb128 -12
 6644 1be5 23       		.uleb128 0x23
 6645 1be6 7C150000 		.4byte	.LASF408
 6646 1bea 01       		.byte	0x1
 6647 1beb AB04     		.2byte	0x4ab
 6648 1bed 701B0000 		.4byte	0x1b70
 6649 1bf1 02       		.uleb128 0x2
 6650 1bf2 91       		.byte	0x91
 6651 1bf3 6C       		.sleb128 -20
 6652 1bf4 00       		.byte	0
 6653 1bf5 22       		.uleb128 0x22
 6654 1bf6 9B0A0000 		.4byte	.LASF411
 6655 1bfa 01       		.byte	0x1
 6656 1bfb CB04     		.2byte	0x4cb
 6657 1bfd 99070000 		.4byte	0x799
 6658 1c01 80110000 		.4byte	.LFB165
 6659 1c05 3E000000 		.4byte	.LFE165-.LFB165
 6660 1c09 01       		.uleb128 0x1
 6661 1c0a 9C       		.byte	0x9c
 6662 1c0b 2E1C0000 		.4byte	0x1c2e
 6663 1c0f 24       		.uleb128 0x24
 6664 1c10 680A0000 		.4byte	.LASF410
 6665 1c14 01       		.byte	0x1
 6666 1c15 CB04     		.2byte	0x4cb
 6667 1c17 CD020000 		.4byte	0x2cd
 6668 1c1b 02       		.uleb128 0x2
 6669 1c1c 91       		.byte	0x91
 6670 1c1d 6F       		.sleb128 -17
 6671 1c1e 23       		.uleb128 0x23
 6672 1c1f 46140000 		.4byte	.LASF412
 6673 1c23 01       		.byte	0x1
 6674 1c24 CD04     		.2byte	0x4cd
 6675 1c26 EE020000 		.4byte	0x2ee
 6676 1c2a 02       		.uleb128 0x2
 6677 1c2b 91       		.byte	0x91
 6678 1c2c 74       		.sleb128 -12
 6679 1c2d 00       		.byte	0
 6680 1c2e 2C       		.uleb128 0x2c
 6681 1c2f 33150000 		.4byte	.LASF425
 6682 1c33 01       		.byte	0x1
 6683 1c34 E604     		.2byte	0x4e6
ARM GAS  /tmp/cc602Zqo.s 			page 119


 6684 1c36 C0110000 		.4byte	.LFB166
 6685 1c3a 1C000000 		.4byte	.LFE166-.LFB166
 6686 1c3e 01       		.uleb128 0x1
 6687 1c3f 9C       		.byte	0x9c
 6688 1c40 1B       		.uleb128 0x1b
 6689 1c41 3D010000 		.4byte	.LASF413
 6690 1c45 01       		.byte	0x1
 6691 1c46 5A       		.byte	0x5a
 6692 1c47 EE020000 		.4byte	0x2ee
 6693 1c4b 05       		.uleb128 0x5
 6694 1c4c 03       		.byte	0x3
 6695 1c4d 00000000 		.4byte	I2C_SENSORTILE_Timeout
 6696 1c51 1B       		.uleb128 0x1b
 6697 1c52 2C030000 		.4byte	.LASF414
 6698 1c56 01       		.byte	0x1
 6699 1c57 5B       		.byte	0x5b
 6700 1c58 810D0000 		.4byte	0xd81
 6701 1c5c 05       		.uleb128 0x5
 6702 1c5d 03       		.byte	0x3
 6703 1c5e 00000000 		.4byte	I2C_SENSORTILE_Handle
 6704 1c62 1B       		.uleb128 0x1b
 6705 1c63 B2070000 		.4byte	.LASF415
 6706 1c67 01       		.byte	0x1
 6707 1c68 5C       		.byte	0x5c
 6708 1c69 690F0000 		.4byte	0xf69
 6709 1c6d 05       		.uleb128 0x5
 6710 1c6e 03       		.byte	0x3
 6711 1c6f 4C000000 		.4byte	SPI_Sensor_Handle
 6712 1c73 1B       		.uleb128 0x1b
 6713 1c74 52000000 		.4byte	.LASF416
 6714 1c78 01       		.byte	0x1
 6715 1c79 5D       		.byte	0x5d
 6716 1c7a 690F0000 		.4byte	0xf69
 6717 1c7e 05       		.uleb128 0x5
 6718 1c7f 03       		.byte	0x3
 6719 1c80 B0000000 		.4byte	SPI_SD_Handle
 6720 1c84 2D       		.uleb128 0x2d
 6721 1c85 FA070000 		.4byte	.LASF417
 6722 1c89 0E       		.byte	0xe
 6723 1c8a FA06     		.2byte	0x6fa
 6724 1c8c 901C0000 		.4byte	0x1c90
 6725 1c90 07       		.uleb128 0x7
 6726 1c91 E3020000 		.4byte	0x2e3
 6727 1c95 08       		.uleb128 0x8
 6728 1c96 A51C0000 		.4byte	0x1ca5
 6729 1c9a A51C0000 		.4byte	0x1ca5
 6730 1c9e 09       		.uleb128 0x9
 6731 1c9f F9020000 		.4byte	0x2f9
 6732 1ca3 01       		.byte	0x1
 6733 1ca4 00       		.byte	0
 6734 1ca5 13       		.uleb128 0x13
 6735 1ca6 04       		.byte	0x4
 6736 1ca7 32040000 		.4byte	0x432
 6737 1cab 2E       		.uleb128 0x2e
 6738 1cac 29150000 		.4byte	.LASF418
 6739 1cb0 01       		.byte	0x1
 6740 1cb1 5F       		.byte	0x5f
ARM GAS  /tmp/cc602Zqo.s 			page 120


 6741 1cb2 951C0000 		.4byte	0x1c95
 6742 1cb6 05       		.uleb128 0x5
 6743 1cb7 03       		.byte	0x3
 6744 1cb8 00000000 		.4byte	GPIO_PORT
 6745 1cbc 2E       		.uleb128 0x2e
 6746 1cbd D8160000 		.4byte	.LASF419
 6747 1cc1 01       		.byte	0x1
 6748 1cc2 61       		.byte	0x61
 6749 1cc3 CD1C0000 		.4byte	0x1ccd
 6750 1cc7 05       		.uleb128 0x5
 6751 1cc8 03       		.byte	0x3
 6752 1cc9 00000000 		.4byte	GPIO_PIN
 6753 1ccd 2F       		.uleb128 0x2f
 6754 1cce 05030000 		.4byte	0x305
 6755 1cd2 2E       		.uleb128 0x2e
 6756 1cd3 21140000 		.4byte	.LASF420
 6757 1cd7 01       		.byte	0x1
 6758 1cd8 63       		.byte	0x63
 6759 1cd9 EE020000 		.4byte	0x2ee
 6760 1cdd 05       		.uleb128 0x5
 6761 1cde 03       		.byte	0x3
 6762 1cdf 00000000 		.4byte	SpixTimeout
 6763 1ce3 00       		.byte	0
 6764              		.section	.debug_abbrev,"",%progbits
 6765              	.Ldebug_abbrev0:
 6766 0000 01       		.uleb128 0x1
 6767 0001 11       		.uleb128 0x11
 6768 0002 01       		.byte	0x1
 6769 0003 25       		.uleb128 0x25
 6770 0004 0E       		.uleb128 0xe
 6771 0005 13       		.uleb128 0x13
 6772 0006 0B       		.uleb128 0xb
 6773 0007 03       		.uleb128 0x3
 6774 0008 0E       		.uleb128 0xe
 6775 0009 1B       		.uleb128 0x1b
 6776 000a 0E       		.uleb128 0xe
 6777 000b 11       		.uleb128 0x11
 6778 000c 01       		.uleb128 0x1
 6779 000d 12       		.uleb128 0x12
 6780 000e 06       		.uleb128 0x6
 6781 000f 10       		.uleb128 0x10
 6782 0010 17       		.uleb128 0x17
 6783 0011 00       		.byte	0
 6784 0012 00       		.byte	0
 6785 0013 02       		.uleb128 0x2
 6786 0014 04       		.uleb128 0x4
 6787 0015 01       		.byte	0x1
 6788 0016 0B       		.uleb128 0xb
 6789 0017 0B       		.uleb128 0xb
 6790 0018 3A       		.uleb128 0x3a
 6791 0019 0B       		.uleb128 0xb
 6792 001a 3B       		.uleb128 0x3b
 6793 001b 0B       		.uleb128 0xb
 6794 001c 01       		.uleb128 0x1
 6795 001d 13       		.uleb128 0x13
 6796 001e 00       		.byte	0
 6797 001f 00       		.byte	0
ARM GAS  /tmp/cc602Zqo.s 			page 121


 6798 0020 03       		.uleb128 0x3
 6799 0021 28       		.uleb128 0x28
 6800 0022 00       		.byte	0
 6801 0023 03       		.uleb128 0x3
 6802 0024 0E       		.uleb128 0xe
 6803 0025 1C       		.uleb128 0x1c
 6804 0026 0D       		.uleb128 0xd
 6805 0027 00       		.byte	0
 6806 0028 00       		.byte	0
 6807 0029 04       		.uleb128 0x4
 6808 002a 24       		.uleb128 0x24
 6809 002b 00       		.byte	0
 6810 002c 0B       		.uleb128 0xb
 6811 002d 0B       		.uleb128 0xb
 6812 002e 3E       		.uleb128 0x3e
 6813 002f 0B       		.uleb128 0xb
 6814 0030 03       		.uleb128 0x3
 6815 0031 0E       		.uleb128 0xe
 6816 0032 00       		.byte	0
 6817 0033 00       		.byte	0
 6818 0034 05       		.uleb128 0x5
 6819 0035 16       		.uleb128 0x16
 6820 0036 00       		.byte	0
 6821 0037 03       		.uleb128 0x3
 6822 0038 0E       		.uleb128 0xe
 6823 0039 3A       		.uleb128 0x3a
 6824 003a 0B       		.uleb128 0xb
 6825 003b 3B       		.uleb128 0x3b
 6826 003c 0B       		.uleb128 0xb
 6827 003d 49       		.uleb128 0x49
 6828 003e 13       		.uleb128 0x13
 6829 003f 00       		.byte	0
 6830 0040 00       		.byte	0
 6831 0041 06       		.uleb128 0x6
 6832 0042 24       		.uleb128 0x24
 6833 0043 00       		.byte	0
 6834 0044 0B       		.uleb128 0xb
 6835 0045 0B       		.uleb128 0xb
 6836 0046 3E       		.uleb128 0x3e
 6837 0047 0B       		.uleb128 0xb
 6838 0048 03       		.uleb128 0x3
 6839 0049 08       		.uleb128 0x8
 6840 004a 00       		.byte	0
 6841 004b 00       		.byte	0
 6842 004c 07       		.uleb128 0x7
 6843 004d 35       		.uleb128 0x35
 6844 004e 00       		.byte	0
 6845 004f 49       		.uleb128 0x49
 6846 0050 13       		.uleb128 0x13
 6847 0051 00       		.byte	0
 6848 0052 00       		.byte	0
 6849 0053 08       		.uleb128 0x8
 6850 0054 01       		.uleb128 0x1
 6851 0055 01       		.byte	0x1
 6852 0056 49       		.uleb128 0x49
 6853 0057 13       		.uleb128 0x13
 6854 0058 01       		.uleb128 0x1
ARM GAS  /tmp/cc602Zqo.s 			page 122


 6855 0059 13       		.uleb128 0x13
 6856 005a 00       		.byte	0
 6857 005b 00       		.byte	0
 6858 005c 09       		.uleb128 0x9
 6859 005d 21       		.uleb128 0x21
 6860 005e 00       		.byte	0
 6861 005f 49       		.uleb128 0x49
 6862 0060 13       		.uleb128 0x13
 6863 0061 2F       		.uleb128 0x2f
 6864 0062 0B       		.uleb128 0xb
 6865 0063 00       		.byte	0
 6866 0064 00       		.byte	0
 6867 0065 0A       		.uleb128 0xa
 6868 0066 13       		.uleb128 0x13
 6869 0067 01       		.byte	0x1
 6870 0068 0B       		.uleb128 0xb
 6871 0069 0B       		.uleb128 0xb
 6872 006a 3A       		.uleb128 0x3a
 6873 006b 0B       		.uleb128 0xb
 6874 006c 3B       		.uleb128 0x3b
 6875 006d 05       		.uleb128 0x5
 6876 006e 01       		.uleb128 0x1
 6877 006f 13       		.uleb128 0x13
 6878 0070 00       		.byte	0
 6879 0071 00       		.byte	0
 6880 0072 0B       		.uleb128 0xb
 6881 0073 0D       		.uleb128 0xd
 6882 0074 00       		.byte	0
 6883 0075 03       		.uleb128 0x3
 6884 0076 08       		.uleb128 0x8
 6885 0077 3A       		.uleb128 0x3a
 6886 0078 0B       		.uleb128 0xb
 6887 0079 3B       		.uleb128 0x3b
 6888 007a 05       		.uleb128 0x5
 6889 007b 49       		.uleb128 0x49
 6890 007c 13       		.uleb128 0x13
 6891 007d 38       		.uleb128 0x38
 6892 007e 0B       		.uleb128 0xb
 6893 007f 00       		.byte	0
 6894 0080 00       		.byte	0
 6895 0081 0C       		.uleb128 0xc
 6896 0082 0D       		.uleb128 0xd
 6897 0083 00       		.byte	0
 6898 0084 03       		.uleb128 0x3
 6899 0085 0E       		.uleb128 0xe
 6900 0086 3A       		.uleb128 0x3a
 6901 0087 0B       		.uleb128 0xb
 6902 0088 3B       		.uleb128 0x3b
 6903 0089 05       		.uleb128 0x5
 6904 008a 49       		.uleb128 0x49
 6905 008b 13       		.uleb128 0x13
 6906 008c 38       		.uleb128 0x38
 6907 008d 0B       		.uleb128 0xb
 6908 008e 00       		.byte	0
 6909 008f 00       		.byte	0
 6910 0090 0D       		.uleb128 0xd
 6911 0091 16       		.uleb128 0x16
ARM GAS  /tmp/cc602Zqo.s 			page 123


 6912 0092 00       		.byte	0
 6913 0093 03       		.uleb128 0x3
 6914 0094 0E       		.uleb128 0xe
 6915 0095 3A       		.uleb128 0x3a
 6916 0096 0B       		.uleb128 0xb
 6917 0097 3B       		.uleb128 0x3b
 6918 0098 05       		.uleb128 0x5
 6919 0099 49       		.uleb128 0x49
 6920 009a 13       		.uleb128 0x13
 6921 009b 00       		.byte	0
 6922 009c 00       		.byte	0
 6923 009d 0E       		.uleb128 0xe
 6924 009e 0F       		.uleb128 0xf
 6925 009f 00       		.byte	0
 6926 00a0 0B       		.uleb128 0xb
 6927 00a1 0B       		.uleb128 0xb
 6928 00a2 00       		.byte	0
 6929 00a3 00       		.byte	0
 6930 00a4 0F       		.uleb128 0xf
 6931 00a5 13       		.uleb128 0x13
 6932 00a6 01       		.byte	0x1
 6933 00a7 0B       		.uleb128 0xb
 6934 00a8 0B       		.uleb128 0xb
 6935 00a9 3A       		.uleb128 0x3a
 6936 00aa 0B       		.uleb128 0xb
 6937 00ab 3B       		.uleb128 0x3b
 6938 00ac 0B       		.uleb128 0xb
 6939 00ad 01       		.uleb128 0x1
 6940 00ae 13       		.uleb128 0x13
 6941 00af 00       		.byte	0
 6942 00b0 00       		.byte	0
 6943 00b1 10       		.uleb128 0x10
 6944 00b2 0D       		.uleb128 0xd
 6945 00b3 00       		.byte	0
 6946 00b4 03       		.uleb128 0x3
 6947 00b5 0E       		.uleb128 0xe
 6948 00b6 3A       		.uleb128 0x3a
 6949 00b7 0B       		.uleb128 0xb
 6950 00b8 3B       		.uleb128 0x3b
 6951 00b9 0B       		.uleb128 0xb
 6952 00ba 49       		.uleb128 0x49
 6953 00bb 13       		.uleb128 0x13
 6954 00bc 38       		.uleb128 0x38
 6955 00bd 0B       		.uleb128 0xb
 6956 00be 00       		.byte	0
 6957 00bf 00       		.byte	0
 6958 00c0 11       		.uleb128 0x11
 6959 00c1 0D       		.uleb128 0xd
 6960 00c2 00       		.byte	0
 6961 00c3 03       		.uleb128 0x3
 6962 00c4 08       		.uleb128 0x8
 6963 00c5 3A       		.uleb128 0x3a
 6964 00c6 0B       		.uleb128 0xb
 6965 00c7 3B       		.uleb128 0x3b
 6966 00c8 0B       		.uleb128 0xb
 6967 00c9 49       		.uleb128 0x49
 6968 00ca 13       		.uleb128 0x13
ARM GAS  /tmp/cc602Zqo.s 			page 124


 6969 00cb 38       		.uleb128 0x38
 6970 00cc 0B       		.uleb128 0xb
 6971 00cd 00       		.byte	0
 6972 00ce 00       		.byte	0
 6973 00cf 12       		.uleb128 0x12
 6974 00d0 13       		.uleb128 0x13
 6975 00d1 01       		.byte	0x1
 6976 00d2 03       		.uleb128 0x3
 6977 00d3 0E       		.uleb128 0xe
 6978 00d4 0B       		.uleb128 0xb
 6979 00d5 0B       		.uleb128 0xb
 6980 00d6 3A       		.uleb128 0x3a
 6981 00d7 0B       		.uleb128 0xb
 6982 00d8 3B       		.uleb128 0x3b
 6983 00d9 0B       		.uleb128 0xb
 6984 00da 01       		.uleb128 0x1
 6985 00db 13       		.uleb128 0x13
 6986 00dc 00       		.byte	0
 6987 00dd 00       		.byte	0
 6988 00de 13       		.uleb128 0x13
 6989 00df 0F       		.uleb128 0xf
 6990 00e0 00       		.byte	0
 6991 00e1 0B       		.uleb128 0xb
 6992 00e2 0B       		.uleb128 0xb
 6993 00e3 49       		.uleb128 0x49
 6994 00e4 13       		.uleb128 0x13
 6995 00e5 00       		.byte	0
 6996 00e6 00       		.byte	0
 6997 00e7 14       		.uleb128 0x14
 6998 00e8 15       		.uleb128 0x15
 6999 00e9 01       		.byte	0x1
 7000 00ea 27       		.uleb128 0x27
 7001 00eb 19       		.uleb128 0x19
 7002 00ec 01       		.uleb128 0x1
 7003 00ed 13       		.uleb128 0x13
 7004 00ee 00       		.byte	0
 7005 00ef 00       		.byte	0
 7006 00f0 15       		.uleb128 0x15
 7007 00f1 05       		.uleb128 0x5
 7008 00f2 00       		.byte	0
 7009 00f3 49       		.uleb128 0x49
 7010 00f4 13       		.uleb128 0x13
 7011 00f5 00       		.byte	0
 7012 00f6 00       		.byte	0
 7013 00f7 16       		.uleb128 0x16
 7014 00f8 15       		.uleb128 0x15
 7015 00f9 01       		.byte	0x1
 7016 00fa 27       		.uleb128 0x27
 7017 00fb 19       		.uleb128 0x19
 7018 00fc 49       		.uleb128 0x49
 7019 00fd 13       		.uleb128 0x13
 7020 00fe 01       		.uleb128 0x1
 7021 00ff 13       		.uleb128 0x13
 7022 0100 00       		.byte	0
 7023 0101 00       		.byte	0
 7024 0102 17       		.uleb128 0x17
 7025 0103 2E       		.uleb128 0x2e
ARM GAS  /tmp/cc602Zqo.s 			page 125


 7026 0104 00       		.byte	0
 7027 0105 03       		.uleb128 0x3
 7028 0106 0E       		.uleb128 0xe
 7029 0107 3A       		.uleb128 0x3a
 7030 0108 0B       		.uleb128 0xb
 7031 0109 3B       		.uleb128 0x3b
 7032 010a 05       		.uleb128 0x5
 7033 010b 27       		.uleb128 0x27
 7034 010c 19       		.uleb128 0x19
 7035 010d 20       		.uleb128 0x20
 7036 010e 0B       		.uleb128 0xb
 7037 010f 00       		.byte	0
 7038 0110 00       		.byte	0
 7039 0111 18       		.uleb128 0x18
 7040 0112 2E       		.uleb128 0x2e
 7041 0113 00       		.byte	0
 7042 0114 3F       		.uleb128 0x3f
 7043 0115 19       		.uleb128 0x19
 7044 0116 03       		.uleb128 0x3
 7045 0117 0E       		.uleb128 0xe
 7046 0118 3A       		.uleb128 0x3a
 7047 0119 0B       		.uleb128 0xb
 7048 011a 3B       		.uleb128 0x3b
 7049 011b 0B       		.uleb128 0xb
 7050 011c 27       		.uleb128 0x27
 7051 011d 19       		.uleb128 0x19
 7052 011e 49       		.uleb128 0x49
 7053 011f 13       		.uleb128 0x13
 7054 0120 11       		.uleb128 0x11
 7055 0121 01       		.uleb128 0x1
 7056 0122 12       		.uleb128 0x12
 7057 0123 06       		.uleb128 0x6
 7058 0124 40       		.uleb128 0x40
 7059 0125 18       		.uleb128 0x18
 7060 0126 9742     		.uleb128 0x2117
 7061 0128 19       		.uleb128 0x19
 7062 0129 00       		.byte	0
 7063 012a 00       		.byte	0
 7064 012b 19       		.uleb128 0x19
 7065 012c 2E       		.uleb128 0x2e
 7066 012d 01       		.byte	0x1
 7067 012e 3F       		.uleb128 0x3f
 7068 012f 19       		.uleb128 0x19
 7069 0130 03       		.uleb128 0x3
 7070 0131 0E       		.uleb128 0xe
 7071 0132 3A       		.uleb128 0x3a
 7072 0133 0B       		.uleb128 0xb
 7073 0134 3B       		.uleb128 0x3b
 7074 0135 0B       		.uleb128 0xb
 7075 0136 27       		.uleb128 0x27
 7076 0137 19       		.uleb128 0x19
 7077 0138 11       		.uleb128 0x11
 7078 0139 01       		.uleb128 0x1
 7079 013a 12       		.uleb128 0x12
 7080 013b 06       		.uleb128 0x6
 7081 013c 40       		.uleb128 0x40
 7082 013d 18       		.uleb128 0x18
ARM GAS  /tmp/cc602Zqo.s 			page 126


 7083 013e 9642     		.uleb128 0x2116
 7084 0140 19       		.uleb128 0x19
 7085 0141 01       		.uleb128 0x1
 7086 0142 13       		.uleb128 0x13
 7087 0143 00       		.byte	0
 7088 0144 00       		.byte	0
 7089 0145 1A       		.uleb128 0x1a
 7090 0146 05       		.uleb128 0x5
 7091 0147 00       		.byte	0
 7092 0148 03       		.uleb128 0x3
 7093 0149 08       		.uleb128 0x8
 7094 014a 3A       		.uleb128 0x3a
 7095 014b 0B       		.uleb128 0xb
 7096 014c 3B       		.uleb128 0x3b
 7097 014d 0B       		.uleb128 0xb
 7098 014e 49       		.uleb128 0x49
 7099 014f 13       		.uleb128 0x13
 7100 0150 02       		.uleb128 0x2
 7101 0151 18       		.uleb128 0x18
 7102 0152 00       		.byte	0
 7103 0153 00       		.byte	0
 7104 0154 1B       		.uleb128 0x1b
 7105 0155 34       		.uleb128 0x34
 7106 0156 00       		.byte	0
 7107 0157 03       		.uleb128 0x3
 7108 0158 0E       		.uleb128 0xe
 7109 0159 3A       		.uleb128 0x3a
 7110 015a 0B       		.uleb128 0xb
 7111 015b 3B       		.uleb128 0x3b
 7112 015c 0B       		.uleb128 0xb
 7113 015d 49       		.uleb128 0x49
 7114 015e 13       		.uleb128 0x13
 7115 015f 02       		.uleb128 0x2
 7116 0160 18       		.uleb128 0x18
 7117 0161 00       		.byte	0
 7118 0162 00       		.byte	0
 7119 0163 1C       		.uleb128 0x1c
 7120 0164 0B       		.uleb128 0xb
 7121 0165 01       		.byte	0x1
 7122 0166 11       		.uleb128 0x11
 7123 0167 01       		.uleb128 0x1
 7124 0168 12       		.uleb128 0x12
 7125 0169 06       		.uleb128 0x6
 7126 016a 01       		.uleb128 0x1
 7127 016b 13       		.uleb128 0x13
 7128 016c 00       		.byte	0
 7129 016d 00       		.byte	0
 7130 016e 1D       		.uleb128 0x1d
 7131 016f 0B       		.uleb128 0xb
 7132 0170 01       		.byte	0x1
 7133 0171 11       		.uleb128 0x11
 7134 0172 01       		.uleb128 0x1
 7135 0173 12       		.uleb128 0x12
 7136 0174 06       		.uleb128 0x6
 7137 0175 00       		.byte	0
 7138 0176 00       		.byte	0
 7139 0177 1E       		.uleb128 0x1e
ARM GAS  /tmp/cc602Zqo.s 			page 127


 7140 0178 2E       		.uleb128 0x2e
 7141 0179 01       		.byte	0x1
 7142 017a 3F       		.uleb128 0x3f
 7143 017b 19       		.uleb128 0x19
 7144 017c 03       		.uleb128 0x3
 7145 017d 0E       		.uleb128 0xe
 7146 017e 3A       		.uleb128 0x3a
 7147 017f 0B       		.uleb128 0xb
 7148 0180 3B       		.uleb128 0x3b
 7149 0181 0B       		.uleb128 0xb
 7150 0182 27       		.uleb128 0x27
 7151 0183 19       		.uleb128 0x19
 7152 0184 11       		.uleb128 0x11
 7153 0185 01       		.uleb128 0x1
 7154 0186 12       		.uleb128 0x12
 7155 0187 06       		.uleb128 0x6
 7156 0188 40       		.uleb128 0x40
 7157 0189 18       		.uleb128 0x18
 7158 018a 9742     		.uleb128 0x2117
 7159 018c 19       		.uleb128 0x19
 7160 018d 01       		.uleb128 0x1
 7161 018e 13       		.uleb128 0x13
 7162 018f 00       		.byte	0
 7163 0190 00       		.byte	0
 7164 0191 1F       		.uleb128 0x1f
 7165 0192 2E       		.uleb128 0x2e
 7166 0193 01       		.byte	0x1
 7167 0194 3F       		.uleb128 0x3f
 7168 0195 19       		.uleb128 0x19
 7169 0196 03       		.uleb128 0x3
 7170 0197 0E       		.uleb128 0xe
 7171 0198 3A       		.uleb128 0x3a
 7172 0199 0B       		.uleb128 0xb
 7173 019a 3B       		.uleb128 0x3b
 7174 019b 05       		.uleb128 0x5
 7175 019c 27       		.uleb128 0x27
 7176 019d 19       		.uleb128 0x19
 7177 019e 11       		.uleb128 0x11
 7178 019f 01       		.uleb128 0x1
 7179 01a0 12       		.uleb128 0x12
 7180 01a1 06       		.uleb128 0x6
 7181 01a2 40       		.uleb128 0x40
 7182 01a3 18       		.uleb128 0x18
 7183 01a4 9642     		.uleb128 0x2116
 7184 01a6 19       		.uleb128 0x19
 7185 01a7 01       		.uleb128 0x1
 7186 01a8 13       		.uleb128 0x13
 7187 01a9 00       		.byte	0
 7188 01aa 00       		.byte	0
 7189 01ab 20       		.uleb128 0x20
 7190 01ac 05       		.uleb128 0x5
 7191 01ad 00       		.byte	0
 7192 01ae 03       		.uleb128 0x3
 7193 01af 08       		.uleb128 0x8
 7194 01b0 3A       		.uleb128 0x3a
 7195 01b1 0B       		.uleb128 0xb
 7196 01b2 3B       		.uleb128 0x3b
ARM GAS  /tmp/cc602Zqo.s 			page 128


 7197 01b3 05       		.uleb128 0x5
 7198 01b4 49       		.uleb128 0x49
 7199 01b5 13       		.uleb128 0x13
 7200 01b6 02       		.uleb128 0x2
 7201 01b7 18       		.uleb128 0x18
 7202 01b8 00       		.byte	0
 7203 01b9 00       		.byte	0
 7204 01ba 21       		.uleb128 0x21
 7205 01bb 2E       		.uleb128 0x2e
 7206 01bc 00       		.byte	0
 7207 01bd 3F       		.uleb128 0x3f
 7208 01be 19       		.uleb128 0x19
 7209 01bf 03       		.uleb128 0x3
 7210 01c0 0E       		.uleb128 0xe
 7211 01c1 3A       		.uleb128 0x3a
 7212 01c2 0B       		.uleb128 0xb
 7213 01c3 3B       		.uleb128 0x3b
 7214 01c4 05       		.uleb128 0x5
 7215 01c5 27       		.uleb128 0x27
 7216 01c6 19       		.uleb128 0x19
 7217 01c7 49       		.uleb128 0x49
 7218 01c8 13       		.uleb128 0x13
 7219 01c9 11       		.uleb128 0x11
 7220 01ca 01       		.uleb128 0x1
 7221 01cb 12       		.uleb128 0x12
 7222 01cc 06       		.uleb128 0x6
 7223 01cd 40       		.uleb128 0x40
 7224 01ce 18       		.uleb128 0x18
 7225 01cf 9642     		.uleb128 0x2116
 7226 01d1 19       		.uleb128 0x19
 7227 01d2 00       		.byte	0
 7228 01d3 00       		.byte	0
 7229 01d4 22       		.uleb128 0x22
 7230 01d5 2E       		.uleb128 0x2e
 7231 01d6 01       		.byte	0x1
 7232 01d7 3F       		.uleb128 0x3f
 7233 01d8 19       		.uleb128 0x19
 7234 01d9 03       		.uleb128 0x3
 7235 01da 0E       		.uleb128 0xe
 7236 01db 3A       		.uleb128 0x3a
 7237 01dc 0B       		.uleb128 0xb
 7238 01dd 3B       		.uleb128 0x3b
 7239 01de 05       		.uleb128 0x5
 7240 01df 27       		.uleb128 0x27
 7241 01e0 19       		.uleb128 0x19
 7242 01e1 49       		.uleb128 0x49
 7243 01e2 13       		.uleb128 0x13
 7244 01e3 11       		.uleb128 0x11
 7245 01e4 01       		.uleb128 0x1
 7246 01e5 12       		.uleb128 0x12
 7247 01e6 06       		.uleb128 0x6
 7248 01e7 40       		.uleb128 0x40
 7249 01e8 18       		.uleb128 0x18
 7250 01e9 9642     		.uleb128 0x2116
 7251 01eb 19       		.uleb128 0x19
 7252 01ec 01       		.uleb128 0x1
 7253 01ed 13       		.uleb128 0x13
ARM GAS  /tmp/cc602Zqo.s 			page 129


 7254 01ee 00       		.byte	0
 7255 01ef 00       		.byte	0
 7256 01f0 23       		.uleb128 0x23
 7257 01f1 34       		.uleb128 0x34
 7258 01f2 00       		.byte	0
 7259 01f3 03       		.uleb128 0x3
 7260 01f4 0E       		.uleb128 0xe
 7261 01f5 3A       		.uleb128 0x3a
 7262 01f6 0B       		.uleb128 0xb
 7263 01f7 3B       		.uleb128 0x3b
 7264 01f8 05       		.uleb128 0x5
 7265 01f9 49       		.uleb128 0x49
 7266 01fa 13       		.uleb128 0x13
 7267 01fb 02       		.uleb128 0x2
 7268 01fc 18       		.uleb128 0x18
 7269 01fd 00       		.byte	0
 7270 01fe 00       		.byte	0
 7271 01ff 24       		.uleb128 0x24
 7272 0200 05       		.uleb128 0x5
 7273 0201 00       		.byte	0
 7274 0202 03       		.uleb128 0x3
 7275 0203 0E       		.uleb128 0xe
 7276 0204 3A       		.uleb128 0x3a
 7277 0205 0B       		.uleb128 0xb
 7278 0206 3B       		.uleb128 0x3b
 7279 0207 05       		.uleb128 0x5
 7280 0208 49       		.uleb128 0x49
 7281 0209 13       		.uleb128 0x13
 7282 020a 02       		.uleb128 0x2
 7283 020b 18       		.uleb128 0x18
 7284 020c 00       		.byte	0
 7285 020d 00       		.byte	0
 7286 020e 25       		.uleb128 0x25
 7287 020f 34       		.uleb128 0x34
 7288 0210 00       		.byte	0
 7289 0211 03       		.uleb128 0x3
 7290 0212 08       		.uleb128 0x8
 7291 0213 3A       		.uleb128 0x3a
 7292 0214 0B       		.uleb128 0xb
 7293 0215 3B       		.uleb128 0x3b
 7294 0216 05       		.uleb128 0x5
 7295 0217 49       		.uleb128 0x49
 7296 0218 13       		.uleb128 0x13
 7297 0219 02       		.uleb128 0x2
 7298 021a 18       		.uleb128 0x18
 7299 021b 00       		.byte	0
 7300 021c 00       		.byte	0
 7301 021d 26       		.uleb128 0x26
 7302 021e 2E       		.uleb128 0x2e
 7303 021f 01       		.byte	0x1
 7304 0220 3F       		.uleb128 0x3f
 7305 0221 19       		.uleb128 0x19
 7306 0222 03       		.uleb128 0x3
 7307 0223 0E       		.uleb128 0xe
 7308 0224 3A       		.uleb128 0x3a
 7309 0225 0B       		.uleb128 0xb
 7310 0226 3B       		.uleb128 0x3b
ARM GAS  /tmp/cc602Zqo.s 			page 130


 7311 0227 05       		.uleb128 0x5
 7312 0228 27       		.uleb128 0x27
 7313 0229 19       		.uleb128 0x19
 7314 022a 11       		.uleb128 0x11
 7315 022b 01       		.uleb128 0x1
 7316 022c 12       		.uleb128 0x12
 7317 022d 06       		.uleb128 0x6
 7318 022e 40       		.uleb128 0x40
 7319 022f 18       		.uleb128 0x18
 7320 0230 9742     		.uleb128 0x2117
 7321 0232 19       		.uleb128 0x19
 7322 0233 01       		.uleb128 0x1
 7323 0234 13       		.uleb128 0x13
 7324 0235 00       		.byte	0
 7325 0236 00       		.byte	0
 7326 0237 27       		.uleb128 0x27
 7327 0238 1D       		.uleb128 0x1d
 7328 0239 00       		.byte	0
 7329 023a 31       		.uleb128 0x31
 7330 023b 13       		.uleb128 0x13
 7331 023c 11       		.uleb128 0x11
 7332 023d 01       		.uleb128 0x1
 7333 023e 12       		.uleb128 0x12
 7334 023f 06       		.uleb128 0x6
 7335 0240 58       		.uleb128 0x58
 7336 0241 0B       		.uleb128 0xb
 7337 0242 59       		.uleb128 0x59
 7338 0243 05       		.uleb128 0x5
 7339 0244 00       		.byte	0
 7340 0245 00       		.byte	0
 7341 0246 28       		.uleb128 0x28
 7342 0247 2E       		.uleb128 0x2e
 7343 0248 00       		.byte	0
 7344 0249 03       		.uleb128 0x3
 7345 024a 0E       		.uleb128 0xe
 7346 024b 3A       		.uleb128 0x3a
 7347 024c 0B       		.uleb128 0xb
 7348 024d 3B       		.uleb128 0x3b
 7349 024e 05       		.uleb128 0x5
 7350 024f 27       		.uleb128 0x27
 7351 0250 19       		.uleb128 0x19
 7352 0251 49       		.uleb128 0x49
 7353 0252 13       		.uleb128 0x13
 7354 0253 11       		.uleb128 0x11
 7355 0254 01       		.uleb128 0x1
 7356 0255 12       		.uleb128 0x12
 7357 0256 06       		.uleb128 0x6
 7358 0257 40       		.uleb128 0x40
 7359 0258 18       		.uleb128 0x18
 7360 0259 9642     		.uleb128 0x2116
 7361 025b 19       		.uleb128 0x19
 7362 025c 00       		.byte	0
 7363 025d 00       		.byte	0
 7364 025e 29       		.uleb128 0x29
 7365 025f 2E       		.uleb128 0x2e
 7366 0260 01       		.byte	0x1
 7367 0261 03       		.uleb128 0x3
ARM GAS  /tmp/cc602Zqo.s 			page 131


 7368 0262 0E       		.uleb128 0xe
 7369 0263 3A       		.uleb128 0x3a
 7370 0264 0B       		.uleb128 0xb
 7371 0265 3B       		.uleb128 0x3b
 7372 0266 05       		.uleb128 0x5
 7373 0267 27       		.uleb128 0x27
 7374 0268 19       		.uleb128 0x19
 7375 0269 49       		.uleb128 0x49
 7376 026a 13       		.uleb128 0x13
 7377 026b 11       		.uleb128 0x11
 7378 026c 01       		.uleb128 0x1
 7379 026d 12       		.uleb128 0x12
 7380 026e 06       		.uleb128 0x6
 7381 026f 40       		.uleb128 0x40
 7382 0270 18       		.uleb128 0x18
 7383 0271 9642     		.uleb128 0x2116
 7384 0273 19       		.uleb128 0x19
 7385 0274 01       		.uleb128 0x1
 7386 0275 13       		.uleb128 0x13
 7387 0276 00       		.byte	0
 7388 0277 00       		.byte	0
 7389 0278 2A       		.uleb128 0x2a
 7390 0279 2E       		.uleb128 0x2e
 7391 027a 01       		.byte	0x1
 7392 027b 03       		.uleb128 0x3
 7393 027c 0E       		.uleb128 0xe
 7394 027d 3A       		.uleb128 0x3a
 7395 027e 0B       		.uleb128 0xb
 7396 027f 3B       		.uleb128 0x3b
 7397 0280 05       		.uleb128 0x5
 7398 0281 27       		.uleb128 0x27
 7399 0282 19       		.uleb128 0x19
 7400 0283 11       		.uleb128 0x11
 7401 0284 01       		.uleb128 0x1
 7402 0285 12       		.uleb128 0x12
 7403 0286 06       		.uleb128 0x6
 7404 0287 40       		.uleb128 0x40
 7405 0288 18       		.uleb128 0x18
 7406 0289 9642     		.uleb128 0x2116
 7407 028b 19       		.uleb128 0x19
 7408 028c 01       		.uleb128 0x1
 7409 028d 13       		.uleb128 0x13
 7410 028e 00       		.byte	0
 7411 028f 00       		.byte	0
 7412 0290 2B       		.uleb128 0x2b
 7413 0291 2E       		.uleb128 0x2e
 7414 0292 00       		.byte	0
 7415 0293 03       		.uleb128 0x3
 7416 0294 0E       		.uleb128 0xe
 7417 0295 3A       		.uleb128 0x3a
 7418 0296 0B       		.uleb128 0xb
 7419 0297 3B       		.uleb128 0x3b
 7420 0298 05       		.uleb128 0x5
 7421 0299 27       		.uleb128 0x27
 7422 029a 19       		.uleb128 0x19
 7423 029b 11       		.uleb128 0x11
 7424 029c 01       		.uleb128 0x1
ARM GAS  /tmp/cc602Zqo.s 			page 132


 7425 029d 12       		.uleb128 0x12
 7426 029e 06       		.uleb128 0x6
 7427 029f 40       		.uleb128 0x40
 7428 02a0 18       		.uleb128 0x18
 7429 02a1 9642     		.uleb128 0x2116
 7430 02a3 19       		.uleb128 0x19
 7431 02a4 00       		.byte	0
 7432 02a5 00       		.byte	0
 7433 02a6 2C       		.uleb128 0x2c
 7434 02a7 2E       		.uleb128 0x2e
 7435 02a8 00       		.byte	0
 7436 02a9 3F       		.uleb128 0x3f
 7437 02aa 19       		.uleb128 0x19
 7438 02ab 03       		.uleb128 0x3
 7439 02ac 0E       		.uleb128 0xe
 7440 02ad 3A       		.uleb128 0x3a
 7441 02ae 0B       		.uleb128 0xb
 7442 02af 3B       		.uleb128 0x3b
 7443 02b0 05       		.uleb128 0x5
 7444 02b1 27       		.uleb128 0x27
 7445 02b2 19       		.uleb128 0x19
 7446 02b3 11       		.uleb128 0x11
 7447 02b4 01       		.uleb128 0x1
 7448 02b5 12       		.uleb128 0x12
 7449 02b6 06       		.uleb128 0x6
 7450 02b7 40       		.uleb128 0x40
 7451 02b8 18       		.uleb128 0x18
 7452 02b9 9642     		.uleb128 0x2116
 7453 02bb 19       		.uleb128 0x19
 7454 02bc 00       		.byte	0
 7455 02bd 00       		.byte	0
 7456 02be 2D       		.uleb128 0x2d
 7457 02bf 34       		.uleb128 0x34
 7458 02c0 00       		.byte	0
 7459 02c1 03       		.uleb128 0x3
 7460 02c2 0E       		.uleb128 0xe
 7461 02c3 3A       		.uleb128 0x3a
 7462 02c4 0B       		.uleb128 0xb
 7463 02c5 3B       		.uleb128 0x3b
 7464 02c6 05       		.uleb128 0x5
 7465 02c7 49       		.uleb128 0x49
 7466 02c8 13       		.uleb128 0x13
 7467 02c9 3F       		.uleb128 0x3f
 7468 02ca 19       		.uleb128 0x19
 7469 02cb 3C       		.uleb128 0x3c
 7470 02cc 19       		.uleb128 0x19
 7471 02cd 00       		.byte	0
 7472 02ce 00       		.byte	0
 7473 02cf 2E       		.uleb128 0x2e
 7474 02d0 34       		.uleb128 0x34
 7475 02d1 00       		.byte	0
 7476 02d2 03       		.uleb128 0x3
 7477 02d3 0E       		.uleb128 0xe
 7478 02d4 3A       		.uleb128 0x3a
 7479 02d5 0B       		.uleb128 0xb
 7480 02d6 3B       		.uleb128 0x3b
 7481 02d7 0B       		.uleb128 0xb
ARM GAS  /tmp/cc602Zqo.s 			page 133


 7482 02d8 49       		.uleb128 0x49
 7483 02d9 13       		.uleb128 0x13
 7484 02da 3F       		.uleb128 0x3f
 7485 02db 19       		.uleb128 0x19
 7486 02dc 02       		.uleb128 0x2
 7487 02dd 18       		.uleb128 0x18
 7488 02de 00       		.byte	0
 7489 02df 00       		.byte	0
 7490 02e0 2F       		.uleb128 0x2f
 7491 02e1 26       		.uleb128 0x26
 7492 02e2 00       		.byte	0
 7493 02e3 49       		.uleb128 0x49
 7494 02e4 13       		.uleb128 0x13
 7495 02e5 00       		.byte	0
 7496 02e6 00       		.byte	0
 7497 02e7 00       		.byte	0
 7498              		.section	.debug_aranges,"",%progbits
 7499 0000 1C000000 		.4byte	0x1c
 7500 0004 0200     		.2byte	0x2
 7501 0006 00000000 		.4byte	.Ldebug_info0
 7502 000a 04       		.byte	0x4
 7503 000b 00       		.byte	0
 7504 000c 0000     		.2byte	0
 7505 000e 0000     		.2byte	0
 7506 0010 00000000 		.4byte	.Ltext0
 7507 0014 DC110000 		.4byte	.Letext0-.Ltext0
 7508 0018 00000000 		.4byte	0
 7509 001c 00000000 		.4byte	0
 7510              		.section	.debug_line,"",%progbits
 7511              	.Ldebug_line0:
 7512 0000 9C050000 		.section	.debug_str,"MS",%progbits,1
 7512      0200E202 
 7512      00000201 
 7512      FB0E0D00 
 7512      01010101 
 7513              	.LASF196:
 7514 0000 504C4C53 		.ascii	"PLLSAI1\000"
 7514      41493100 
 7515              	.LASF135:
 7516 0008 43494552 		.ascii	"CIER\000"
 7516      00
 7517              	.LASF373:
 7518 000d 4C534D36 		.ascii	"LSM6DSM_Sensor_IO_ITConfig\000"
 7518      44534D5F 
 7518      53656E73 
 7518      6F725F49 
 7518      4F5F4954 
 7519              	.LASF404:
 7520 0028 53445F49 		.ascii	"SD_IO_ReadByte\000"
 7520      4F5F5265 
 7520      61644279 
 7520      746500
 7521              	.LASF305:
 7522 0037 48414C5F 		.ascii	"HAL_SPI_STATE_BUSY_RX\000"
 7522      5350495F 
 7522      53544154 
 7522      455F4255 
ARM GAS  /tmp/cc602Zqo.s 			page 134


 7522      53595F52 
 7523              	.LASF122:
 7524 004d 4F415231 		.ascii	"OAR1\000"
 7524      00
 7525              	.LASF416:
 7526 0052 5350495F 		.ascii	"SPI_SD_Handle\000"
 7526      53445F48 
 7526      616E646C 
 7526      6500
 7527              	.LASF92:
 7528 0060 73686F72 		.ascii	"short int\000"
 7528      7420696E 
 7528      7400
 7529              	.LASF350:
 7530 006a 4253505F 		.ascii	"BSP_LED_DeInit\000"
 7530      4C45445F 
 7530      4465496E 
 7530      697400
 7531              	.LASF118:
 7532 0079 42535252 		.ascii	"BSRR\000"
 7532      00
 7533              	.LASF279:
 7534 007e 5F5F4932 		.ascii	"__I2C_HandleTypeDef\000"
 7534      435F4861 
 7534      6E646C65 
 7534      54797065 
 7534      44656600 
 7535              	.LASF171:
 7536 0092 63686172 		.ascii	"char\000"
 7536      00
 7537              	.LASF79:
 7538 0097 4C505541 		.ascii	"LPUART1_IRQn\000"
 7538      5254315F 
 7538      4952516E 
 7538      00
 7539              	.LASF355:
 7540 00a4 53656E73 		.ascii	"Sensor_IO_I2C_Init\000"
 7540      6F725F49 
 7540      4F5F4932 
 7540      435F496E 
 7540      697400
 7541              	.LASF78:
 7542 00b7 444D4132 		.ascii	"DMA2_Channel7_IRQn\000"
 7542      5F436861 
 7542      6E6E656C 
 7542      375F4952 
 7542      516E00
 7543              	.LASF302:
 7544 00ca 48414C5F 		.ascii	"HAL_SPI_STATE_READY\000"
 7544      5350495F 
 7544      53544154 
 7544      455F5245 
 7544      41445900 
 7545              	.LASF395:
 7546 00de 56616C75 		.ascii	"Value\000"
 7546      6500
 7547              	.LASF178:
ARM GAS  /tmp/cc602Zqo.s 			page 135


 7548 00e4 48414C5F 		.ascii	"HAL_LOCKED\000"
 7548      4C4F434B 
 7548      454400
 7549              	.LASF241:
 7550 00ef 4C6F636B 		.ascii	"Lock\000"
 7550      00
 7551              	.LASF193:
 7552 00f4 504C4C53 		.ascii	"PLLSAI2ClockOut\000"
 7552      41493243 
 7552      6C6F636B 
 7552      4F757400 
 7553              	.LASF145:
 7554 0104 41504232 		.ascii	"APB2RSTR\000"
 7554      52535452 
 7554      00
 7555              	.LASF31:
 7556 010d 43414E31 		.ascii	"CAN1_SCE_IRQn\000"
 7556      5F534345 
 7556      5F495251 
 7556      6E00
 7557              	.LASF207:
 7558 011b 4C707469 		.ascii	"Lptim1ClockSelection\000"
 7558      6D31436C 
 7558      6F636B53 
 7558      656C6563 
 7558      74696F6E 
 7559              	.LASF43:
 7560 0130 49324332 		.ascii	"I2C2_ER_IRQn\000"
 7560      5F45525F 
 7560      4952516E 
 7560      00
 7561              	.LASF413:
 7562 013d 4932435F 		.ascii	"I2C_SENSORTILE_Timeout\000"
 7562      53454E53 
 7562      4F525449 
 7562      4C455F54 
 7562      696D656F 
 7563              	.LASF282:
 7564 0154 58666572 		.ascii	"XferCount\000"
 7564      436F756E 
 7564      7400
 7565              	.LASF295:
 7566 015e 54494D6F 		.ascii	"TIMode\000"
 7566      646500
 7567              	.LASF356:
 7568 0165 53656E73 		.ascii	"Sensor_IO_SPI_Init\000"
 7568      6F725F49 
 7568      4F5F5350 
 7568      495F496E 
 7568      697400
 7569              	.LASF347:
 7570 0178 4750494F 		.ascii	"GPIO_InitStruct\000"
 7570      5F496E69 
 7570      74537472 
 7570      75637400 
 7571              	.LASF4:
 7572 0188 55736167 		.ascii	"UsageFault_IRQn\000"
ARM GAS  /tmp/cc602Zqo.s 			page 136


 7572      65466175 
 7572      6C745F49 
 7572      52516E00 
 7573              	.LASF195:
 7574 0198 50657269 		.ascii	"PeriphClockSelection\000"
 7574      7068436C 
 7574      6F636B53 
 7574      656C6563 
 7574      74696F6E 
 7575              	.LASF333:
 7576 01ad 434F4D50 		.ascii	"COMPONENT_ERROR\000"
 7576      4F4E454E 
 7576      545F4552 
 7576      524F5200 
 7577              	.LASF21:
 7578 01bd 444D4131 		.ascii	"DMA1_Channel2_IRQn\000"
 7578      5F436861 
 7578      6E6E656C 
 7578      325F4952 
 7578      516E00
 7579              	.LASF344:
 7580 01d0 4C505332 		.ascii	"LPS22HB\000"
 7580      32484200 
 7581              	.LASF102:
 7582 01d8 756E7369 		.ascii	"unsigned int\000"
 7582      676E6564 
 7582      20696E74 
 7582      00
 7583              	.LASF336:
 7584 01e5 44727653 		.ascii	"DrvStatusTypeDef\000"
 7584      74617475 
 7584      73547970 
 7584      65446566 
 7584      00
 7585              	.LASF229:
 7586 01f6 4D656D49 		.ascii	"MemInc\000"
 7586      6E6300
 7587              	.LASF317:
 7588 01fd 52784953 		.ascii	"RxISR\000"
 7588      5200
 7589              	.LASF238:
 7590 0203 48414C5F 		.ascii	"HAL_DMA_StateTypeDef\000"
 7590      444D415F 
 7590      53746174 
 7590      65547970 
 7590      65446566 
 7591              	.LASF26:
 7592 0218 444D4131 		.ascii	"DMA1_Channel7_IRQn\000"
 7592      5F436861 
 7592      6E6E656C 
 7592      375F4952 
 7592      516E00
 7593              	.LASF174:
 7594 022b 48414C5F 		.ascii	"HAL_BUSY\000"
 7594      42555359 
 7594      00
 7595              	.LASF165:
ARM GAS  /tmp/cc602Zqo.s 			page 137


 7596 0234 42444352 		.ascii	"BDCR\000"
 7596      00
 7597              	.LASF370:
 7598 0239 53656E73 		.ascii	"Sensor_IO_SPI_Read\000"
 7598      6F725F49 
 7598      4F5F5350 
 7598      495F5265 
 7598      616400
 7599              	.LASF168:
 7600 024c 52584352 		.ascii	"RXCRCR\000"
 7600      435200
 7601              	.LASF206:
 7602 0253 49326333 		.ascii	"I2c3ClockSelection\000"
 7602      436C6F63 
 7602      6B53656C 
 7602      65637469 
 7602      6F6E00
 7603              	.LASF13:
 7604 0266 464C4153 		.ascii	"FLASH_IRQn\000"
 7604      485F4952 
 7604      516E00
 7605              	.LASF394:
 7606 0271 53445F49 		.ascii	"SD_IO_SPI_Write\000"
 7606      4F5F5350 
 7606      495F5772 
 7606      69746500 
 7607              	.LASF397:
 7608 0281 53445F49 		.ascii	"SD_IO_Init\000"
 7608      4F5F496E 
 7608      697400
 7609              	.LASF197:
 7610 028c 504C4C53 		.ascii	"PLLSAI2\000"
 7610      41493200 
 7611              	.LASF110:
 7612 0294 434D4152 		.ascii	"CMAR\000"
 7612      00
 7613              	.LASF205:
 7614 0299 49326332 		.ascii	"I2c2ClockSelection\000"
 7614      436C6F63 
 7614      6B53656C 
 7614      65637469 
 7614      6F6E00
 7615              	.LASF272:
 7616 02ac 48414C5F 		.ascii	"HAL_I2C_StateTypeDef\000"
 7616      4932435F 
 7616      53746174 
 7616      65547970 
 7616      65446566 
 7617              	.LASF290:
 7618 02c1 44617461 		.ascii	"DataSize\000"
 7618      53697A65 
 7618      00
 7619              	.LASF368:
 7620 02ca 53656E73 		.ascii	"Sensor_IO_I2C_Read\000"
 7620      6F725F49 
 7620      4F5F4932 
 7620      435F5265 
ARM GAS  /tmp/cc602Zqo.s 			page 138


 7620      616400
 7621              	.LASF40:
 7622 02dd 49324331 		.ascii	"I2C1_EV_IRQn\000"
 7622      5F45565F 
 7622      4952516E 
 7622      00
 7623              	.LASF362:
 7624 02ea 70427566 		.ascii	"pBuffer\000"
 7624      66657200 
 7625              	.LASF204:
 7626 02f2 49326331 		.ascii	"I2c1ClockSelection\000"
 7626      436C6F63 
 7626      6B53656C 
 7626      65637469 
 7626      6F6E00
 7627              	.LASF382:
 7628 0305 4932435F 		.ascii	"I2C_SENSORTILE_ReadData\000"
 7628      53454E53 
 7628      4F525449 
 7628      4C455F52 
 7628      65616444 
 7629              	.LASF49:
 7630 031d 45585449 		.ascii	"EXTI15_10_IRQn\000"
 7630      31355F31 
 7630      305F4952 
 7630      516E00
 7631              	.LASF414:
 7632 032c 4932435F 		.ascii	"I2C_SENSORTILE_Handle\000"
 7632      53454E53 
 7632      4F525449 
 7632      4C455F48 
 7632      616E646C 
 7633              	.LASF242:
 7634 0342 53746174 		.ascii	"State\000"
 7634      6500
 7635              	.LASF263:
 7636 0348 48414C5F 		.ascii	"HAL_I2C_STATE_BUSY\000"
 7636      4932435F 
 7636      53544154 
 7636      455F4255 
 7636      535900
 7637              	.LASF39:
 7638 035b 54494D34 		.ascii	"TIM4_IRQn\000"
 7638      5F495251 
 7638      6E00
 7639              	.LASF212:
 7640 0365 53646D6D 		.ascii	"Sdmmc1ClockSelection\000"
 7640      6331436C 
 7640      6F636B53 
 7640      656C6563 
 7640      74696F6E 
 7641              	.LASF364:
 7642 037a 53656E73 		.ascii	"Sensor_IO_I2C_Write\000"
 7642      6F725F49 
 7642      4F5F4932 
 7642      435F5772 
 7642      69746500 
ARM GAS  /tmp/cc602Zqo.s 			page 139


 7643              	.LASF304:
 7644 038e 48414C5F 		.ascii	"HAL_SPI_STATE_BUSY_TX\000"
 7644      5350495F 
 7644      53544154 
 7644      455F4255 
 7644      53595F54 
 7645              	.LASF234:
 7646 03a4 48414C5F 		.ascii	"HAL_DMA_STATE_RESET\000"
 7646      444D415F 
 7646      53544154 
 7646      455F5245 
 7646      53455400 
 7647              	.LASF7:
 7648 03b8 50656E64 		.ascii	"PendSV_IRQn\000"
 7648      53565F49 
 7648      52516E00 
 7649              	.LASF61:
 7650 03c4 55415254 		.ascii	"UART4_IRQn\000"
 7650      345F4952 
 7650      516E00
 7651              	.LASF297:
 7652 03cf 43524350 		.ascii	"CRCPolynomial\000"
 7652      6F6C796E 
 7652      6F6D6961 
 7652      6C00
 7653              	.LASF125:
 7654 03dd 54494D45 		.ascii	"TIMEOUTR\000"
 7654      4F555452 
 7654      00
 7655              	.LASF349:
 7656 03e6 4253505F 		.ascii	"BSP_LED_Init\000"
 7656      4C45445F 
 7656      496E6974 
 7656      00
 7657              	.LASF35:
 7658 03f3 54494D31 		.ascii	"TIM1_TRG_COM_TIM17_IRQn\000"
 7658      5F545247 
 7658      5F434F4D 
 7658      5F54494D 
 7658      31375F49 
 7659              	.LASF255:
 7660 040b 4475616C 		.ascii	"DualAddressMode\000"
 7660      41646472 
 7660      6573734D 
 7660      6F646500 
 7661              	.LASF375:
 7662 041b 5350495F 		.ascii	"SPI_Read\000"
 7662      52656164 
 7662      00
 7663              	.LASF129:
 7664 0424 4932435F 		.ascii	"I2C_TypeDef\000"
 7664      54797065 
 7664      44656600 
 7665              	.LASF175:
 7666 0430 48414C5F 		.ascii	"HAL_TIMEOUT\000"
 7666      54494D45 
 7666      4F555400 
ARM GAS  /tmp/cc602Zqo.s 			page 140


 7667              	.LASF367:
 7668 043c 6E427974 		.ascii	"nBytesToRead\000"
 7668      6573546F 
 7668      52656164 
 7668      00
 7669              	.LASF108:
 7670 0449 434E4454 		.ascii	"CNDTR\000"
 7670      5200
 7671              	.LASF14:
 7672 044f 5243435F 		.ascii	"RCC_IRQn\000"
 7672      4952516E 
 7672      00
 7673              	.LASF211:
 7674 0458 55736243 		.ascii	"UsbClockSelection\000"
 7674      6C6F636B 
 7674      53656C65 
 7674      6374696F 
 7674      6E00
 7675              	.LASF2:
 7676 046a 4D656D6F 		.ascii	"MemoryManagement_IRQn\000"
 7676      72794D61 
 7676      6E616765 
 7676      6D656E74 
 7676      5F495251 
 7677              	.LASF327:
 7678 0480 6973436F 		.ascii	"isCombo\000"
 7678      6D626F00 
 7679              	.LASF315:
 7680 0488 52785866 		.ascii	"RxXferCount\000"
 7680      6572436F 
 7680      756E7400 
 7681              	.LASF244:
 7682 0494 58666572 		.ascii	"XferCpltCallback\000"
 7682      43706C74 
 7682      43616C6C 
 7682      6261636B 
 7682      00
 7683              	.LASF237:
 7684 04a5 48414C5F 		.ascii	"HAL_DMA_STATE_TIMEOUT\000"
 7684      444D415F 
 7684      53544154 
 7684      455F5449 
 7684      4D454F55 
 7685              	.LASF258:
 7686 04bb 47656E65 		.ascii	"GeneralCallMode\000"
 7686      72616C43 
 7686      616C6C4D 
 7686      6F646500 
 7687              	.LASF187:
 7688 04cb 5243435F 		.ascii	"RCC_PLLSAI1InitTypeDef\000"
 7688      504C4C53 
 7688      41493149 
 7688      6E697454 
 7688      79706544 
 7689              	.LASF134:
 7690 04e2 504C4C53 		.ascii	"PLLSAI2CFGR\000"
 7690      41493243 
ARM GAS  /tmp/cc602Zqo.s 			page 141


 7690      46475200 
 7691              	.LASF106:
 7692 04ee 75696E74 		.ascii	"uint32_t\000"
 7692      33325F74 
 7692      00
 7693              	.LASF277:
 7694 04f7 48414C5F 		.ascii	"HAL_I2C_ModeTypeDef\000"
 7694      4932435F 
 7694      4D6F6465 
 7694      54797065 
 7694      44656600 
 7695              	.LASF239:
 7696 050b 496E7374 		.ascii	"Instance\000"
 7696      616E6365 
 7696      00
 7697              	.LASF379:
 7698 0514 53697A65 		.ascii	"Size\000"
 7698      00
 7699              	.LASF11:
 7700 0519 54414D50 		.ascii	"TAMP_STAMP_IRQn\000"
 7700      5F535441 
 7700      4D505F49 
 7700      52516E00 
 7701              	.LASF268:
 7702 0529 48414C5F 		.ascii	"HAL_I2C_STATE_BUSY_RX_LISTEN\000"
 7702      4932435F 
 7702      53544154 
 7702      455F4255 
 7702      53595F52 
 7703              	.LASF372:
 7704 0546 53656E73 		.ascii	"Sensor_IO_SPI_CS_Disable\000"
 7704      6F725F49 
 7704      4F5F5350 
 7704      495F4353 
 7704      5F446973 
 7705              	.LASF337:
 7706 055f 666C6F61 		.ascii	"float\000"
 7706      7400
 7707              	.LASF377:
 7708 0565 5350495F 		.ascii	"SPI_Write\000"
 7708      57726974 
 7708      6500
 7709              	.LASF76:
 7710 056f 4F54475F 		.ascii	"OTG_FS_IRQn\000"
 7710      46535F49 
 7710      52516E00 
 7711              	.LASF33:
 7712 057b 54494D31 		.ascii	"TIM1_BRK_TIM15_IRQn\000"
 7712      5F42524B 
 7712      5F54494D 
 7712      31355F49 
 7712      52516E00 
 7713              	.LASF147:
 7714 058f 41484231 		.ascii	"AHB1ENR\000"
 7714      454E5200 
 7715              	.LASF68:
 7716 0597 444D4132 		.ascii	"DMA2_Channel4_IRQn\000"
ARM GAS  /tmp/cc602Zqo.s 			page 142


 7716      5F436861 
 7716      6E6E656C 
 7716      345F4952 
 7716      516E00
 7717              	.LASF142:
 7718 05aa 52455345 		.ascii	"RESERVED1\000"
 7718      52564544 
 7718      3100
 7719              	.LASF44:
 7720 05b4 53504931 		.ascii	"SPI1_IRQn\000"
 7720      5F495251 
 7720      6E00
 7721              	.LASF365:
 7722 05be 53656E73 		.ascii	"Sensor_IO_Read\000"
 7722      6F725F49 
 7722      4F5F5265 
 7722      616400
 7723              	.LASF173:
 7724 05cd 48414C5F 		.ascii	"HAL_ERROR\000"
 7724      4552524F 
 7724      5200
 7725              	.LASF101:
 7726 05d7 6C6F6E67 		.ascii	"long long unsigned int\000"
 7726      206C6F6E 
 7726      6720756E 
 7726      7369676E 
 7726      65642069 
 7727              	.LASF313:
 7728 05ee 70527842 		.ascii	"pRxBuffPtr\000"
 7728      75666650 
 7728      747200
 7729              	.LASF308:
 7730 05f9 48414C5F 		.ascii	"HAL_SPI_StateTypeDef\000"
 7730      5350495F 
 7730      53746174 
 7730      65547970 
 7730      65446566 
 7731              	.LASF213:
 7732 060e 526E6743 		.ascii	"RngClockSelection\000"
 7732      6C6F636B 
 7732      53656C65 
 7732      6374696F 
 7732      6E00
 7733              	.LASF262:
 7734 0620 48414C5F 		.ascii	"HAL_I2C_STATE_READY\000"
 7734      4932435F 
 7734      53544154 
 7734      455F5245 
 7734      41445900 
 7735              	.LASF73:
 7736 0634 434F4D50 		.ascii	"COMP_IRQn\000"
 7736      5F495251 
 7736      6E00
 7737              	.LASF71:
 7738 063e 44465344 		.ascii	"DFSDM1_FLT1_IRQn\000"
 7738      4D315F46 
 7738      4C54315F 
ARM GAS  /tmp/cc602Zqo.s 			page 143


 7738      4952516E 
 7738      00
 7739              	.LASF284:
 7740 064f 50726576 		.ascii	"PreviousState\000"
 7740      696F7573 
 7740      53746174 
 7740      6500
 7741              	.LASF320:
 7742 065d 77686F5F 		.ascii	"who_am_i\000"
 7742      616D5F69 
 7742      00
 7743              	.LASF366:
 7744 0666 52656164 		.ascii	"ReadAddr\000"
 7744      41646472 
 7744      00
 7745              	.LASF30:
 7746 066f 43414E31 		.ascii	"CAN1_RX1_IRQn\000"
 7746      5F525831 
 7746      5F495251 
 7746      6E00
 7747              	.LASF188:
 7748 067d 504C4C53 		.ascii	"PLLSAI2Source\000"
 7748      41493253 
 7748      6F757263 
 7748      6500
 7749              	.LASF326:
 7750 068b 6973456E 		.ascii	"isEnabled\000"
 7750      61626C65 
 7750      6400
 7751              	.LASF172:
 7752 0695 48414C5F 		.ascii	"HAL_OK\000"
 7752      4F4B00
 7753              	.LASF401:
 7754 069c 53445F49 		.ascii	"SD_IO_CS_DeInit\000"
 7754      4F5F4353 
 7754      5F446549 
 7754      6E697400 
 7755              	.LASF141:
 7756 06ac 41484233 		.ascii	"AHB3RSTR\000"
 7756      52535452 
 7756      00
 7757              	.LASF338:
 7758 06b5 4C454431 		.ascii	"LED1\000"
 7758      00
 7759              	.LASF324:
 7760 06ba 696E7374 		.ascii	"instance\000"
 7760      616E6365 
 7760      00
 7761              	.LASF250:
 7762 06c3 4368616E 		.ascii	"ChannelIndex\000"
 7762      6E656C49 
 7762      6E646578 
 7762      00
 7763              	.LASF109:
 7764 06d0 43504152 		.ascii	"CPAR\000"
 7764      00
 7765              	.LASF261:
ARM GAS  /tmp/cc602Zqo.s 			page 144


 7766 06d5 48414C5F 		.ascii	"HAL_I2C_STATE_RESET\000"
 7766      4932435F 
 7766      53544154 
 7766      455F5245 
 7766      53455400 
 7767              	.LASF117:
 7768 06e9 50555044 		.ascii	"PUPDR\000"
 7768      5200
 7769              	.LASF273:
 7770 06ef 48414C5F 		.ascii	"HAL_I2C_MODE_NONE\000"
 7770      4932435F 
 7770      4D4F4445 
 7770      5F4E4F4E 
 7770      4500
 7771              	.LASF224:
 7772 0701 4750494F 		.ascii	"GPIO_PIN_RESET\000"
 7772      5F50494E 
 7772      5F524553 
 7772      455400
 7773              	.LASF409:
 7774 0710 53445F49 		.ascii	"SD_IO_WriteCmd\000"
 7774      4F5F5772 
 7774      69746543 
 7774      6D6400
 7775              	.LASF398:
 7776 071f 636F756E 		.ascii	"counter\000"
 7776      74657200 
 7777              	.LASF271:
 7778 0727 48414C5F 		.ascii	"HAL_I2C_STATE_ERROR\000"
 7778      4932435F 
 7778      53544154 
 7778      455F4552 
 7778      524F5200 
 7779              	.LASF240:
 7780 073b 496E6974 		.ascii	"Init\000"
 7780      00
 7781              	.LASF127:
 7782 0740 52584452 		.ascii	"RXDR\000"
 7782      00
 7783              	.LASF47:
 7784 0745 55534152 		.ascii	"USART2_IRQn\000"
 7784      54325F49 
 7784      52516E00 
 7785              	.LASF143:
 7786 0751 41504231 		.ascii	"APB1RSTR1\000"
 7786      52535452 
 7786      3100
 7787              	.LASF144:
 7788 075b 41504231 		.ascii	"APB1RSTR2\000"
 7788      52535452 
 7788      3200
 7789              	.LASF345:
 7790 0765 5F5F6469 		.ascii	"__disable_irq\000"
 7790      7361626C 
 7790      655F6972 
 7790      7100
 7791              	.LASF328:
ARM GAS  /tmp/cc602Zqo.s 			page 145


 7792 0773 70446174 		.ascii	"pData\000"
 7792      6100
 7793              	.LASF296:
 7794 0779 43524343 		.ascii	"CRCCalculation\000"
 7794      616C6375 
 7794      6C617469 
 7794      6F6E00
 7795              	.LASF348:
 7796 0788 746D7072 		.ascii	"tmpreg\000"
 7796      656700
 7797              	.LASF155:
 7798 078f 41484231 		.ascii	"AHB1SMENR\000"
 7798      534D454E 
 7798      5200
 7799              	.LASF166:
 7800 0799 5243435F 		.ascii	"RCC_TypeDef\000"
 7800      54797065 
 7800      44656600 
 7801              	.LASF82:
 7802 07a5 49324333 		.ascii	"I2C3_ER_IRQn\000"
 7802      5F45525F 
 7802      4952516E 
 7802      00
 7803              	.LASF415:
 7804 07b2 5350495F 		.ascii	"SPI_Sensor_Handle\000"
 7804      53656E73 
 7804      6F725F48 
 7804      616E646C 
 7804      6500
 7805              	.LASF114:
 7806 07c4 4D4F4445 		.ascii	"MODER\000"
 7806      5200
 7807              	.LASF10:
 7808 07ca 5056445F 		.ascii	"PVD_PVM_IRQn\000"
 7808      50564D5F 
 7808      4952516E 
 7808      00
 7809              	.LASF12:
 7810 07d7 5254435F 		.ascii	"RTC_WKUP_IRQn\000"
 7810      574B5550 
 7810      5F495251 
 7810      6E00
 7811              	.LASF200:
 7812 07e5 55736172 		.ascii	"Usart3ClockSelection\000"
 7812      7433436C 
 7812      6F636B53 
 7812      656C6563 
 7812      74696F6E 
 7813              	.LASF417:
 7814 07fa 49544D5F 		.ascii	"ITM_RxBuffer\000"
 7814      52784275 
 7814      66666572 
 7814      00
 7815              	.LASF123:
 7816 0807 4F415232 		.ascii	"OAR2\000"
 7816      00
 7817              	.LASF199:
ARM GAS  /tmp/cc602Zqo.s 			page 146


 7818 080c 55736172 		.ascii	"Usart2ClockSelection\000"
 7818      7432436C 
 7818      6F636B53 
 7818      656C6563 
 7818      74696F6E 
 7819              	.LASF251:
 7820 0821 444D415F 		.ascii	"DMA_HandleTypeDef\000"
 7820      48616E64 
 7820      6C655479 
 7820      70654465 
 7820      6600
 7821              	.LASF215:
 7822 0833 5377706D 		.ascii	"Swpmi1ClockSelection\000"
 7822      6931436C 
 7822      6F636B53 
 7822      656C6563 
 7822      74696F6E 
 7823              	.LASF369:
 7824 0848 53656E73 		.ascii	"Sensor_IO_SPI_Write\000"
 7824      6F725F49 
 7824      4F5F5350 
 7824      495F5772 
 7824      69746500 
 7825              	.LASF169:
 7826 085c 54584352 		.ascii	"TXCRCR\000"
 7826      435200
 7827              	.LASF149:
 7828 0863 41484233 		.ascii	"AHB3ENR\000"
 7828      454E5200 
 7829              	.LASF374:
 7830 086b 4750494F 		.ascii	"GPIO_InitStructureInt2\000"
 7830      5F496E69 
 7830      74537472 
 7830      75637475 
 7830      7265496E 
 7831              	.LASF389:
 7832 0882 53445F49 		.ascii	"SD_IO_SPI_Init_LS\000"
 7832      4F5F5350 
 7832      495F496E 
 7832      69745F4C 
 7832      5300
 7833              	.LASF293:
 7834 0894 42617564 		.ascii	"BaudRatePrescaler\000"
 7834      52617465 
 7834      50726573 
 7834      63616C65 
 7834      7200
 7835              	.LASF281:
 7836 08a6 58666572 		.ascii	"XferSize\000"
 7836      53697A65 
 7836      00
 7837              	.LASF17:
 7838 08af 45585449 		.ascii	"EXTI2_IRQn\000"
 7838      325F4952 
 7838      516E00
 7839              	.LASF94:
 7840 08ba 5F5F7569 		.ascii	"__uint16_t\000"
ARM GAS  /tmp/cc602Zqo.s 			page 147


 7840      6E743136 
 7840      5F7400
 7841              	.LASF318:
 7842 08c5 54784953 		.ascii	"TxISR\000"
 7842      5200
 7843              	.LASF423:
 7844 08cb 2F752F65 		.ascii	"/u/elawton2/p442-submissions/sensortile/reference/b"
 7844      6C617774 
 7844      6F6E322F 
 7844      70343432 
 7844      2D737562 
 7845 08fe 6C75656D 		.ascii	"luemicrosystem2/BlueMicrosystem2_V2.2.0/Projects/Mu"
 7845      6963726F 
 7845      73797374 
 7845      656D322F 
 7845      426C7565 
 7846 0931 6C74692F 		.ascii	"lti/Applications/BlueMicrosystem2/bluechibi\000"
 7846      4170706C 
 7846      69636174 
 7846      696F6E73 
 7846      2F426C75 
 7847              	.LASF246:
 7848 095d 58666572 		.ascii	"XferErrorCallback\000"
 7848      4572726F 
 7848      7243616C 
 7848      6C626163 
 7848      6B00
 7849              	.LASF42:
 7850 096f 49324332 		.ascii	"I2C2_EV_IRQn\000"
 7850      5F45565F 
 7850      4952516E 
 7850      00
 7851              	.LASF357:
 7852 097c 53656E73 		.ascii	"Sensor_IO_SPI_CS_Init_All\000"
 7852      6F725F49 
 7852      4F5F5350 
 7852      495F4353 
 7852      5F496E69 
 7853              	.LASF319:
 7854 0996 5350495F 		.ascii	"SPI_HandleTypeDef\000"
 7854      48616E64 
 7854      6C655479 
 7854      70654465 
 7854      6600
 7855              	.LASF210:
 7856 09a8 53616932 		.ascii	"Sai2ClockSelection\000"
 7856      436C6F63 
 7856      6B53656C 
 7856      65637469 
 7856      6F6E00
 7857              	.LASF285:
 7858 09bb 58666572 		.ascii	"XferISR\000"
 7858      49535200 
 7859              	.LASF386:
 7860 09c3 53445F49 		.ascii	"SD_IO_SPI_MspInit\000"
 7860      4F5F5350 
 7860      495F4D73 
ARM GAS  /tmp/cc602Zqo.s 			page 148


 7860      70496E69 
 7860      7400
 7861              	.LASF60:
 7862 09d5 53504933 		.ascii	"SPI3_IRQn\000"
 7862      5F495251 
 7862      6E00
 7863              	.LASF310:
 7864 09df 70547842 		.ascii	"pTxBuffPtr\000"
 7864      75666650 
 7864      747200
 7865              	.LASF378:
 7866 09ea 41646472 		.ascii	"Addr\000"
 7866      00
 7867              	.LASF321:
 7868 09ef 69665479 		.ascii	"ifType\000"
 7868      706500
 7869              	.LASF339:
 7870 09f6 4C454453 		.ascii	"LEDSWD\000"
 7870      574400
 7871              	.LASF209:
 7872 09fd 53616931 		.ascii	"Sai1ClockSelection\000"
 7872      436C6F63 
 7872      6B53656C 
 7872      65637469 
 7872      6F6E00
 7873              	.LASF77:
 7874 0a10 444D4132 		.ascii	"DMA2_Channel6_IRQn\000"
 7874      5F436861 
 7874      6E6E656C 
 7874      365F4952 
 7874      516E00
 7875              	.LASF25:
 7876 0a23 444D4131 		.ascii	"DMA1_Channel6_IRQn\000"
 7876      5F436861 
 7876      6E6E656C 
 7876      365F4952 
 7876      516E00
 7877              	.LASF85:
 7878 0a36 5357504D 		.ascii	"SWPMI1_IRQn\000"
 7878      49315F49 
 7878      52516E00 
 7879              	.LASF65:
 7880 0a42 444D4132 		.ascii	"DMA2_Channel1_IRQn\000"
 7880      5F436861 
 7880      6E6E656C 
 7880      315F4952 
 7880      516E00
 7881              	.LASF96:
 7882 0a55 5F5F696E 		.ascii	"__int32_t\000"
 7882      7433325F 
 7882      7400
 7883              	.LASF299:
 7884 0a5f 4E535350 		.ascii	"NSSPMode\000"
 7884      4D6F6465 
 7884      00
 7885              	.LASF410:
 7886 0a68 52657370 		.ascii	"Response\000"
ARM GAS  /tmp/cc602Zqo.s 			page 149


 7886      6F6E7365 
 7886      00
 7887              	.LASF38:
 7888 0a71 54494D33 		.ascii	"TIM3_IRQn\000"
 7888      5F495251 
 7888      6E00
 7889              	.LASF221:
 7890 0a7b 53706565 		.ascii	"Speed\000"
 7890      6400
 7891              	.LASF20:
 7892 0a81 444D4131 		.ascii	"DMA1_Channel1_IRQn\000"
 7892      5F436861 
 7892      6E6E656C 
 7892      315F4952 
 7892      516E00
 7893              	.LASF243:
 7894 0a94 50617265 		.ascii	"Parent\000"
 7894      6E7400
 7895              	.LASF411:
 7896 0a9b 53445F49 		.ascii	"SD_IO_WaitResponse\000"
 7896      4F5F5761 
 7896      69745265 
 7896      73706F6E 
 7896      736500
 7897              	.LASF51:
 7898 0aae 44465344 		.ascii	"DFSDM1_FLT3_IRQn\000"
 7898      4D315F46 
 7898      4C54335F 
 7898      4952516E 
 7898      00
 7899              	.LASF41:
 7900 0abf 49324331 		.ascii	"I2C1_ER_IRQn\000"
 7900      5F45525F 
 7900      4952516E 
 7900      00
 7901              	.LASF405:
 7902 0acc 64617461 		.ascii	"data\000"
 7902      00
 7903              	.LASF132:
 7904 0ad1 504C4C43 		.ascii	"PLLCFGR\000"
 7904      46475200 
 7905              	.LASF311:
 7906 0ad9 54785866 		.ascii	"TxXferSize\000"
 7906      65725369 
 7906      7A6500
 7907              	.LASF103:
 7908 0ae4 75696E74 		.ascii	"uint8_t\000"
 7908      385F7400 
 7909              	.LASF380:
 7910 0aec 73746174 		.ascii	"status\000"
 7910      757300
 7911              	.LASF84:
 7912 0af3 53414932 		.ascii	"SAI2_IRQn\000"
 7912      5F495251 
 7912      6E00
 7913              	.LASF291:
 7914 0afd 434C4B50 		.ascii	"CLKPolarity\000"
ARM GAS  /tmp/cc602Zqo.s 			page 150


 7914      6F6C6172 
 7914      69747900 
 7915              	.LASF75:
 7916 0b09 4C505449 		.ascii	"LPTIM2_IRQn\000"
 7916      4D325F49 
 7916      52516E00 
 7917              	.LASF16:
 7918 0b15 45585449 		.ascii	"EXTI1_IRQn\000"
 7918      315F4952 
 7918      516E00
 7919              	.LASF202:
 7920 0b20 55617274 		.ascii	"Uart5ClockSelection\000"
 7920      35436C6F 
 7920      636B5365 
 7920      6C656374 
 7920      696F6E00 
 7921              	.LASF120:
 7922 0b34 41534352 		.ascii	"ASCR\000"
 7922      00
 7923              	.LASF280:
 7924 0b39 70427566 		.ascii	"pBuffPtr\000"
 7924      66507472 
 7924      00
 7925              	.LASF128:
 7926 0b42 54584452 		.ascii	"TXDR\000"
 7926      00
 7927              	.LASF201:
 7928 0b47 55617274 		.ascii	"Uart4ClockSelection\000"
 7928      34436C6F 
 7928      636B5365 
 7928      6C656374 
 7928      696F6E00 
 7929              	.LASF177:
 7930 0b5b 48414C5F 		.ascii	"HAL_UNLOCKED\000"
 7930      554E4C4F 
 7930      434B4544 
 7930      00
 7931              	.LASF278:
 7932 0b68 5F5F444D 		.ascii	"__DMA_HandleTypeDef\000"
 7932      415F4861 
 7932      6E646C65 
 7932      54797065 
 7932      44656600 
 7933              	.LASF354:
 7934 0b7c 4253505F 		.ascii	"BSP_GetVersion\000"
 7934      47657456 
 7934      65727369 
 7934      6F6E00
 7935              	.LASF332:
 7936 0b8b 434F4D50 		.ascii	"COMPONENT_OK\000"
 7936      4F4E454E 
 7936      545F4F4B 
 7936      00
 7937              	.LASF214:
 7938 0b98 41646343 		.ascii	"AdcClockSelection\000"
 7938      6C6F636B 
 7938      53656C65 
ARM GAS  /tmp/cc602Zqo.s 			page 151


 7938      6374696F 
 7938      6E00
 7939              	.LASF124:
 7940 0baa 54494D49 		.ascii	"TIMINGR\000"
 7940      4E475200 
 7941              	.LASF392:
 7942 0bb2 72656164 		.ascii	"readvalue\000"
 7942      76616C75 
 7942      6500
 7943              	.LASF100:
 7944 0bbc 6C6F6E67 		.ascii	"long long int\000"
 7944      206C6F6E 
 7944      6720696E 
 7944      7400
 7945              	.LASF9:
 7946 0bca 57574447 		.ascii	"WWDG_IRQn\000"
 7946      5F495251 
 7946      6E00
 7947              	.LASF294:
 7948 0bd4 46697273 		.ascii	"FirstBit\000"
 7948      74426974 
 7948      00
 7949              	.LASF323:
 7950 0bdd 73706944 		.ascii	"spiDevice\000"
 7950      65766963 
 7950      6500
 7951              	.LASF322:
 7952 0be7 61646472 		.ascii	"address\000"
 7952      65737300 
 7953              	.LASF406:
 7954 0bef 53445F49 		.ascii	"SD_IO_WriteCmd_wResp\000"
 7954      4F5F5772 
 7954      69746543 
 7954      6D645F77 
 7954      52657370 
 7955              	.LASF287:
 7956 0c04 68646D61 		.ascii	"hdmarx\000"
 7956      727800
 7957              	.LASF265:
 7958 0c0b 48414C5F 		.ascii	"HAL_I2C_STATE_BUSY_RX\000"
 7958      4932435F 
 7958      53544154 
 7958      455F4255 
 7958      53595F52 
 7959              	.LASF226:
 7960 0c21 52657175 		.ascii	"Request\000"
 7960      65737400 
 7961              	.LASF307:
 7962 0c29 48414C5F 		.ascii	"HAL_SPI_STATE_ERROR\000"
 7962      5350495F 
 7962      53544154 
 7962      455F4552 
 7962      524F5200 
 7963              	.LASF371:
 7964 0c3d 53656E73 		.ascii	"Sensor_IO_SPI_CS_Enable\000"
 7964      6F725F49 
 7964      4F5F5350 
ARM GAS  /tmp/cc602Zqo.s 			page 152


 7964      495F4353 
 7964      5F456E61 
 7965              	.LASF247:
 7966 0c55 58666572 		.ascii	"XferAbortCallback\000"
 7966      41626F72 
 7966      7443616C 
 7966      6C626163 
 7966      6B00
 7967              	.LASF3:
 7968 0c67 42757346 		.ascii	"BusFault_IRQn\000"
 7968      61756C74 
 7968      5F495251 
 7968      6E00
 7969              	.LASF113:
 7970 0c75 444D415F 		.ascii	"DMA_TypeDef\000"
 7970      54797065 
 7970      44656600 
 7971              	.LASF133:
 7972 0c81 504C4C53 		.ascii	"PLLSAI1CFGR\000"
 7972      41493143 
 7972      46475200 
 7973              	.LASF163:
 7974 0c8d 43434950 		.ascii	"CCIPR\000"
 7974      5200
 7975              	.LASF283:
 7976 0c93 58666572 		.ascii	"XferOptions\000"
 7976      4F707469 
 7976      6F6E7300 
 7977              	.LASF422:
 7978 0c9f 2E2E2F2E 		.ascii	"../../../../../Drivers/BSP/SensorTile/SensorTile.c\000"
 7978      2E2F2E2E 
 7978      2F2E2E2F 
 7978      2E2E2F44 
 7978      72697665 
 7979              	.LASF180:
 7980 0cd2 504C4C53 		.ascii	"PLLSAI1Source\000"
 7980      41493153 
 7980      6F757263 
 7980      6500
 7981              	.LASF19:
 7982 0ce0 45585449 		.ascii	"EXTI4_IRQn\000"
 7982      345F4952 
 7982      516E00
 7983              	.LASF274:
 7984 0ceb 48414C5F 		.ascii	"HAL_I2C_MODE_MASTER\000"
 7984      4932435F 
 7984      4D4F4445 
 7984      5F4D4153 
 7984      54455200 
 7985              	.LASF388:
 7986 0cff 4750494F 		.ascii	"GPIO_InitStructure\000"
 7986      5F496E69 
 7986      74537472 
 7986      75637475 
 7986      726500
 7987              	.LASF56:
 7988 0d12 41444333 		.ascii	"ADC3_IRQn\000"
ARM GAS  /tmp/cc602Zqo.s 			page 153


 7988      5F495251 
 7988      6E00
 7989              	.LASF126:
 7990 0d1c 50454352 		.ascii	"PECR\000"
 7990      00
 7991              	.LASF130:
 7992 0d21 49435343 		.ascii	"ICSCR\000"
 7992      5200
 7993              	.LASF253:
 7994 0d27 4F776E41 		.ascii	"OwnAddress1\000"
 7994      64647265 
 7994      73733100 
 7995              	.LASF256:
 7996 0d33 4F776E41 		.ascii	"OwnAddress2\000"
 7996      64647265 
 7996      73733200 
 7997              	.LASF216:
 7998 0d3f 44667364 		.ascii	"Dfsdm1ClockSelection\000"
 7998      6D31436C 
 7998      6F636B53 
 7998      656C6563 
 7998      74696F6E 
 7999              	.LASF67:
 8000 0d54 444D4132 		.ascii	"DMA2_Channel3_IRQn\000"
 8000      5F436861 
 8000      6E6E656C 
 8000      335F4952 
 8000      516E00
 8001              	.LASF153:
 8002 0d67 41504232 		.ascii	"APB2ENR\000"
 8002      454E5200 
 8003              	.LASF176:
 8004 0d6f 48414C5F 		.ascii	"HAL_StatusTypeDef\000"
 8004      53746174 
 8004      75735479 
 8004      70654465 
 8004      6600
 8005              	.LASF248:
 8006 0d81 4572726F 		.ascii	"ErrorCode\000"
 8006      72436F64 
 8006      6500
 8007              	.LASF59:
 8008 0d8b 54494D35 		.ascii	"TIM5_IRQn\000"
 8008      5F495251 
 8008      6E00
 8009              	.LASF22:
 8010 0d95 444D4131 		.ascii	"DMA1_Channel3_IRQn\000"
 8010      5F436861 
 8010      6E6E656C 
 8010      335F4952 
 8010      516E00
 8011              	.LASF54:
 8012 0da8 54494D38 		.ascii	"TIM8_TRG_COM_IRQn\000"
 8012      5F545247 
 8012      5F434F4D 
 8012      5F495251 
 8012      6E00
ARM GAS  /tmp/cc602Zqo.s 			page 154


 8013              	.LASF393:
 8014 0dba 77726974 		.ascii	"writevalue\000"
 8014      6576616C 
 8014      756500
 8015              	.LASF159:
 8016 0dc5 41504231 		.ascii	"APB1SMENR1\000"
 8016      534D454E 
 8016      523100
 8017              	.LASF160:
 8018 0dd0 41504231 		.ascii	"APB1SMENR2\000"
 8018      534D454E 
 8018      523200
 8019              	.LASF198:
 8020 0ddb 55736172 		.ascii	"Usart1ClockSelection\000"
 8020      7431436C 
 8020      6F636B53 
 8020      656C6563 
 8020      74696F6E 
 8021              	.LASF266:
 8022 0df0 48414C5F 		.ascii	"HAL_I2C_STATE_LISTEN\000"
 8022      4932435F 
 8022      53544154 
 8022      455F4C49 
 8022      5354454E 
 8023              	.LASF116:
 8024 0e05 4F535045 		.ascii	"OSPEEDR\000"
 8024      45445200 
 8025              	.LASF170:
 8026 0e0d 5350495F 		.ascii	"SPI_TypeDef\000"
 8026      54797065 
 8026      44656600 
 8027              	.LASF249:
 8028 0e19 446D6142 		.ascii	"DmaBaseAddress\000"
 8028      61736541 
 8028      64647265 
 8028      737300
 8029              	.LASF28:
 8030 0e28 43414E31 		.ascii	"CAN1_TX_IRQn\000"
 8030      5F54585F 
 8030      4952516E 
 8030      00
 8031              	.LASF400:
 8032 0e35 53445F49 		.ascii	"SD_IO_CS_Init\000"
 8032      4F5F4353 
 8032      5F496E69 
 8032      7400
 8033              	.LASF104:
 8034 0e43 75696E74 		.ascii	"uint16_t\000"
 8034      31365F74 
 8034      00
 8035              	.LASF396:
 8036 0e4c 53445F49 		.ascii	"SD_IO_SPI_Error\000"
 8036      4F5F5350 
 8036      495F4572 
 8036      726F7200 
 8037              	.LASF245:
 8038 0e5c 58666572 		.ascii	"XferHalfCpltCallback\000"
ARM GAS  /tmp/cc602Zqo.s 			page 155


 8038      48616C66 
 8038      43706C74 
 8038      43616C6C 
 8038      6261636B 
 8039              	.LASF387:
 8040 0e71 68737069 		.ascii	"hspi\000"
 8040      00
 8041              	.LASF29:
 8042 0e76 43414E31 		.ascii	"CAN1_RX0_IRQn\000"
 8042      5F525830 
 8042      5F495251 
 8042      6E00
 8043              	.LASF140:
 8044 0e84 41484232 		.ascii	"AHB2RSTR\000"
 8044      52535452 
 8044      00
 8045              	.LASF252:
 8046 0e8d 54696D69 		.ascii	"Timing\000"
 8046      6E6700
 8047              	.LASF58:
 8048 0e94 53444D4D 		.ascii	"SDMMC1_IRQn\000"
 8048      43315F49 
 8048      52516E00 
 8049              	.LASF53:
 8050 0ea0 54494D38 		.ascii	"TIM8_UP_IRQn\000"
 8050      5F55505F 
 8050      4952516E 
 8050      00
 8051              	.LASF70:
 8052 0ead 44465344 		.ascii	"DFSDM1_FLT0_IRQn\000"
 8052      4D315F46 
 8052      4C54305F 
 8052      4952516E 
 8052      00
 8053              	.LASF331:
 8054 0ebe 44727643 		.ascii	"DrvContextTypeDef\000"
 8054      6F6E7465 
 8054      78745479 
 8054      70654465 
 8054      6600
 8055              	.LASF286:
 8056 0ed0 68646D61 		.ascii	"hdmatx\000"
 8056      747800
 8057              	.LASF137:
 8058 0ed7 43494352 		.ascii	"CICR\000"
 8058      00
 8059              	.LASF50:
 8060 0edc 5254435F 		.ascii	"RTC_Alarm_IRQn\000"
 8060      416C6172 
 8060      6D5F4952 
 8060      516E00
 8061              	.LASF264:
 8062 0eeb 48414C5F 		.ascii	"HAL_I2C_STATE_BUSY_TX\000"
 8062      4932435F 
 8062      53544154 
 8062      455F4255 
 8062      53595F54 
ARM GAS  /tmp/cc602Zqo.s 			page 156


 8063              	.LASF23:
 8064 0f01 444D4131 		.ascii	"DMA1_Channel4_IRQn\000"
 8064      5F436861 
 8064      6E6E656C 
 8064      345F4952 
 8064      516E00
 8065              	.LASF330:
 8066 0f14 70457874 		.ascii	"pExtVTable\000"
 8066      56546162 
 8066      6C6500
 8067              	.LASF138:
 8068 0f1f 52455345 		.ascii	"RESERVED0\000"
 8068      52564544 
 8068      3000
 8069              	.LASF222:
 8070 0f29 416C7465 		.ascii	"Alternate\000"
 8070      726E6174 
 8070      6500
 8071              	.LASF194:
 8072 0f33 5243435F 		.ascii	"RCC_PLLSAI2InitTypeDef\000"
 8072      504C4C53 
 8072      41493249 
 8072      6E697454 
 8072      79706544 
 8073              	.LASF150:
 8074 0f4a 52455345 		.ascii	"RESERVED3\000"
 8074      52564544 
 8074      3300
 8075              	.LASF154:
 8076 0f54 52455345 		.ascii	"RESERVED4\000"
 8076      52564544 
 8076      3400
 8077              	.LASF158:
 8078 0f5e 52455345 		.ascii	"RESERVED5\000"
 8078      52564544 
 8078      3500
 8079              	.LASF162:
 8080 0f68 52455345 		.ascii	"RESERVED6\000"
 8080      52564544 
 8080      3600
 8081              	.LASF164:
 8082 0f72 52455345 		.ascii	"RESERVED7\000"
 8082      52564544 
 8082      3700
 8083              	.LASF217:
 8084 0f7c 52544343 		.ascii	"RTCClockSelection\000"
 8084      6C6F636B 
 8084      53656C65 
 8084      6374696F 
 8084      6E00
 8085              	.LASF233:
 8086 0f8e 444D415F 		.ascii	"DMA_InitTypeDef\000"
 8086      496E6974 
 8086      54797065 
 8086      44656600 
 8087              	.LASF219:
 8088 0f9e 4D6F6465 		.ascii	"Mode\000"
ARM GAS  /tmp/cc602Zqo.s 			page 157


 8088      00
 8089              	.LASF81:
 8090 0fa3 49324333 		.ascii	"I2C3_EV_IRQn\000"
 8090      5F45565F 
 8090      4952516E 
 8090      00
 8091              	.LASF97:
 8092 0fb0 6C6F6E67 		.ascii	"long int\000"
 8092      20696E74 
 8092      00
 8093              	.LASF190:
 8094 0fb9 504C4C53 		.ascii	"PLLSAI2N\000"
 8094      4149324E 
 8094      00
 8095              	.LASF62:
 8096 0fc2 55415254 		.ascii	"UART5_IRQn\000"
 8096      355F4952 
 8096      516E00
 8097              	.LASF191:
 8098 0fcd 504C4C53 		.ascii	"PLLSAI2P\000"
 8098      41493250 
 8098      00
 8099              	.LASF34:
 8100 0fd6 54494D31 		.ascii	"TIM1_UP_TIM16_IRQn\000"
 8100      5F55505F 
 8100      54494D31 
 8100      365F4952 
 8100      516E00
 8101              	.LASF181:
 8102 0fe9 504C4C53 		.ascii	"PLLSAI1M\000"
 8102      4149314D 
 8102      00
 8103              	.LASF182:
 8104 0ff2 504C4C53 		.ascii	"PLLSAI1N\000"
 8104      4149314E 
 8104      00
 8105              	.LASF0:
 8106 0ffb 4E6F6E4D 		.ascii	"NonMaskableInt_IRQn\000"
 8106      61736B61 
 8106      626C6549 
 8106      6E745F49 
 8106      52516E00 
 8107              	.LASF183:
 8108 100f 504C4C53 		.ascii	"PLLSAI1P\000"
 8108      41493150 
 8108      00
 8109              	.LASF184:
 8110 1018 504C4C53 		.ascii	"PLLSAI1Q\000"
 8110      41493151 
 8110      00
 8111              	.LASF185:
 8112 1021 504C4C53 		.ascii	"PLLSAI1R\000"
 8112      41493152 
 8112      00
 8113              	.LASF346:
 8114 102a 5F5F656E 		.ascii	"__enable_irq\000"
 8114      61626C65 
ARM GAS  /tmp/cc602Zqo.s 			page 158


 8114      5F697271 
 8114      00
 8115              	.LASF306:
 8116 1037 48414C5F 		.ascii	"HAL_SPI_STATE_BUSY_TX_RX\000"
 8116      5350495F 
 8116      53544154 
 8116      455F4255 
 8116      53595F54 
 8117              	.LASF231:
 8118 1050 4D656D44 		.ascii	"MemDataAlignment\000"
 8118      61746141 
 8118      6C69676E 
 8118      6D656E74 
 8118      00
 8119              	.LASF36:
 8120 1061 54494D31 		.ascii	"TIM1_CC_IRQn\000"
 8120      5F43435F 
 8120      4952516E 
 8120      00
 8121              	.LASF115:
 8122 106e 4F545950 		.ascii	"OTYPER\000"
 8122      455200
 8123              	.LASF203:
 8124 1075 4C707561 		.ascii	"Lpuart1ClockSelection\000"
 8124      72743143 
 8124      6C6F636B 
 8124      53656C65 
 8124      6374696F 
 8125              	.LASF325:
 8126 108b 6973496E 		.ascii	"isInitialized\000"
 8126      69746961 
 8126      6C697A65 
 8126      6400
 8127              	.LASF55:
 8128 1099 54494D38 		.ascii	"TIM8_CC_IRQn\000"
 8128      5F43435F 
 8128      4952516E 
 8128      00
 8129              	.LASF88:
 8130 10a6 524E475F 		.ascii	"RNG_IRQn\000"
 8130      4952516E 
 8130      00
 8131              	.LASF230:
 8132 10af 50657269 		.ascii	"PeriphDataAlignment\000"
 8132      70684461 
 8132      7461416C 
 8132      69676E6D 
 8132      656E7400 
 8133              	.LASF298:
 8134 10c3 4352434C 		.ascii	"CRCLength\000"
 8134      656E6774 
 8134      6800
 8135              	.LASF131:
 8136 10cd 43464752 		.ascii	"CFGR\000"
 8136      00
 8137              	.LASF112:
 8138 10d2 49464352 		.ascii	"IFCR\000"
ARM GAS  /tmp/cc602Zqo.s 			page 159


 8138      00
 8139              	.LASF399:
 8140 10d7 53445F49 		.ascii	"SD_IO_Init_LS\000"
 8140      4F5F496E 
 8140      69745F4C 
 8140      5300
 8141              	.LASF270:
 8142 10e5 48414C5F 		.ascii	"HAL_I2C_STATE_TIMEOUT\000"
 8142      4932435F 
 8142      53544154 
 8142      455F5449 
 8142      4D454F55 
 8143              	.LASF329:
 8144 10fb 70565461 		.ascii	"pVTable\000"
 8144      626C6500 
 8145              	.LASF86:
 8146 1103 5453435F 		.ascii	"TSC_IRQn\000"
 8146      4952516E 
 8146      00
 8147              	.LASF93:
 8148 110c 5F5F7569 		.ascii	"__uint8_t\000"
 8148      6E74385F 
 8148      7400
 8149              	.LASF151:
 8150 1116 41504231 		.ascii	"APB1ENR1\000"
 8150      454E5231 
 8150      00
 8151              	.LASF152:
 8152 111f 41504231 		.ascii	"APB1ENR2\000"
 8152      454E5232 
 8152      00
 8153              	.LASF189:
 8154 1128 504C4C53 		.ascii	"PLLSAI2M\000"
 8154      4149324D 
 8154      00
 8155              	.LASF186:
 8156 1131 504C4C53 		.ascii	"PLLSAI1ClockOut\000"
 8156      41493143 
 8156      6C6F636B 
 8156      4F757400 
 8157              	.LASF421:
 8158 1141 474E5520 		.ascii	"GNU C 4.8.4 20140526 (release) [ARM/embedded-4_8-br"
 8158      4320342E 
 8158      382E3420 
 8158      32303134 
 8158      30353236 
 8159 1174 616E6368 		.ascii	"anch revision 211358] -mcpu=cortex-m4 -mno-thumb-in"
 8159      20726576 
 8159      6973696F 
 8159      6E203231 
 8159      31333538 
 8160 11a7 74657277 		.ascii	"terwork -mthumb -ggdb -O0 -std=c99 -fomit-frame-poi"
 8160      6F726B20 
 8160      2D6D7468 
 8160      756D6220 
 8160      2D676764 
 8161 11da 6E746572 		.ascii	"nter -falign-functions=16\000"
ARM GAS  /tmp/cc602Zqo.s 			page 160


 8161      202D6661 
 8161      6C69676E 
 8161      2D66756E 
 8161      6374696F 
 8162              	.LASF69:
 8163 11f4 444D4132 		.ascii	"DMA2_Channel5_IRQn\000"
 8163      5F436861 
 8163      6E6E656C 
 8163      355F4952 
 8163      516E00
 8164              	.LASF192:
 8165 1207 504C4C53 		.ascii	"PLLSAI2R\000"
 8165      41493252 
 8165      00
 8166              	.LASF179:
 8167 1210 48414C5F 		.ascii	"HAL_LockTypeDef\000"
 8167      4C6F636B 
 8167      54797065 
 8167      44656600 
 8168              	.LASF316:
 8169 1220 43524353 		.ascii	"CRCSize\000"
 8169      697A6500 
 8170              	.LASF269:
 8171 1228 48414C5F 		.ascii	"HAL_I2C_STATE_ABORT\000"
 8171      4932435F 
 8171      53544154 
 8171      455F4142 
 8171      4F525400 
 8172              	.LASF300:
 8173 123c 5350495F 		.ascii	"SPI_InitTypeDef\000"
 8173      496E6974 
 8173      54797065 
 8173      44656600 
 8174              	.LASF225:
 8175 124c 4750494F 		.ascii	"GPIO_PIN_SET\000"
 8175      5F50494E 
 8175      5F534554 
 8175      00
 8176              	.LASF232:
 8177 1259 5072696F 		.ascii	"Priority\000"
 8177      72697479 
 8177      00
 8178              	.LASF309:
 8179 1262 5F5F5350 		.ascii	"__SPI_HandleTypeDef\000"
 8179      495F4861 
 8179      6E646C65 
 8179      54797065 
 8179      44656600 
 8180              	.LASF8:
 8181 1276 53797354 		.ascii	"SysTick_IRQn\000"
 8181      69636B5F 
 8181      4952516E 
 8181      00
 8182              	.LASF80:
 8183 1283 51554144 		.ascii	"QUADSPI_IRQn\000"
 8183      5350495F 
 8183      4952516E 
ARM GAS  /tmp/cc602Zqo.s 			page 161


 8183      00
 8184              	.LASF107:
 8185 1290 73697A65 		.ascii	"sizetype\000"
 8185      74797065 
 8185      00
 8186              	.LASF218:
 8187 1299 5243435F 		.ascii	"RCC_PeriphCLKInitTypeDef\000"
 8187      50657269 
 8187      7068434C 
 8187      4B496E69 
 8187      74547970 
 8188              	.LASF15:
 8189 12b2 45585449 		.ascii	"EXTI0_IRQn\000"
 8189      305F4952 
 8189      516E00
 8190              	.LASF99:
 8191 12bd 6C6F6E67 		.ascii	"long unsigned int\000"
 8191      20756E73 
 8191      69676E65 
 8191      6420696E 
 8191      7400
 8192              	.LASF37:
 8193 12cf 54494D32 		.ascii	"TIM2_IRQn\000"
 8193      5F495251 
 8193      6E00
 8194              	.LASF334:
 8195 12d9 434F4D50 		.ascii	"COMPONENT_TIMEOUT\000"
 8195      4F4E454E 
 8195      545F5449 
 8195      4D454F55 
 8195      5400
 8196              	.LASF384:
 8197 12eb 4932435F 		.ascii	"I2C_SENSORTILE_MspInit\000"
 8197      53454E53 
 8197      4F525449 
 8197      4C455F4D 
 8197      7370496E 
 8198              	.LASF312:
 8199 1302 54785866 		.ascii	"TxXferCount\000"
 8199      6572436F 
 8199      756E7400 
 8200              	.LASF148:
 8201 130e 41484232 		.ascii	"AHB2ENR\000"
 8201      454E5200 
 8202              	.LASF105:
 8203 1316 696E7433 		.ascii	"int32_t\000"
 8203      325F7400 
 8204              	.LASF87:
 8205 131e 4C43445F 		.ascii	"LCD_IRQn\000"
 8205      4952516E 
 8205      00
 8206              	.LASF340:
 8207 1327 4C65645F 		.ascii	"Led_TypeDef\000"
 8207      54797065 
 8207      44656600 
 8208              	.LASF361:
 8209 1333 57726974 		.ascii	"WriteAddr\000"
ARM GAS  /tmp/cc602Zqo.s 			page 162


 8209      65416464 
 8209      7200
 8210              	.LASF358:
 8211 133d 53656E73 		.ascii	"Sensor_IO_SPI_CS_Init\000"
 8211      6F725F49 
 8211      4F5F5350 
 8211      495F4353 
 8211      5F496E69 
 8212              	.LASF292:
 8213 1353 434C4B50 		.ascii	"CLKPhase\000"
 8213      68617365 
 8213      00
 8214              	.LASF121:
 8215 135c 4750494F 		.ascii	"GPIO_TypeDef\000"
 8215      5F547970 
 8215      65446566 
 8215      00
 8216              	.LASF236:
 8217 1369 48414C5F 		.ascii	"HAL_DMA_STATE_BUSY\000"
 8217      444D415F 
 8217      53544154 
 8217      455F4255 
 8217      535900
 8218              	.LASF111:
 8219 137c 444D415F 		.ascii	"DMA_Channel_TypeDef\000"
 8219      4368616E 
 8219      6E656C5F 
 8219      54797065 
 8219      44656600 
 8220              	.LASF257:
 8221 1390 4F776E41 		.ascii	"OwnAddress2Masks\000"
 8221      64647265 
 8221      7373324D 
 8221      61736B73 
 8221      00
 8222              	.LASF83:
 8223 13a1 53414931 		.ascii	"SAI1_IRQn\000"
 8223      5F495251 
 8223      6E00
 8224              	.LASF167:
 8225 13ab 43524350 		.ascii	"CRCPR\000"
 8225      5200
 8226              	.LASF227:
 8227 13b1 44697265 		.ascii	"Direction\000"
 8227      6374696F 
 8227      6E00
 8228              	.LASF74:
 8229 13bb 4C505449 		.ascii	"LPTIM1_IRQn\000"
 8229      4D315F49 
 8229      52516E00 
 8230              	.LASF6:
 8231 13c7 44656275 		.ascii	"DebugMonitor_IRQn\000"
 8231      674D6F6E 
 8231      69746F72 
 8231      5F495251 
 8231      6E00
 8232              	.LASF63:
ARM GAS  /tmp/cc602Zqo.s 			page 163


 8233 13d9 54494D36 		.ascii	"TIM6_DAC_IRQn\000"
 8233      5F444143 
 8233      5F495251 
 8233      6E00
 8234              	.LASF223:
 8235 13e7 4750494F 		.ascii	"GPIO_InitTypeDef\000"
 8235      5F496E69 
 8235      74547970 
 8235      65446566 
 8235      00
 8236              	.LASF91:
 8237 13f8 756E7369 		.ascii	"unsigned char\000"
 8237      676E6564 
 8237      20636861 
 8237      7200
 8238              	.LASF260:
 8239 1406 4932435F 		.ascii	"I2C_InitTypeDef\000"
 8239      496E6974 
 8239      54797065 
 8239      44656600 
 8240              	.LASF98:
 8241 1416 5F5F7569 		.ascii	"__uint32_t\000"
 8241      6E743332 
 8241      5F7400
 8242              	.LASF420:
 8243 1421 53706978 		.ascii	"SpixTimeout\000"
 8243      54696D65 
 8243      6F757400 
 8244              	.LASF32:
 8245 142d 45585449 		.ascii	"EXTI9_5_IRQn\000"
 8245      395F355F 
 8245      4952516E 
 8245      00
 8246              	.LASF5:
 8247 143a 53564361 		.ascii	"SVCall_IRQn\000"
 8247      6C6C5F49 
 8247      52516E00 
 8248              	.LASF412:
 8249 1446 74696D65 		.ascii	"timeout\000"
 8249      6F757400 
 8250              	.LASF376:
 8251 144e 78537069 		.ascii	"xSpiHandle\000"
 8251      48616E64 
 8251      6C6500
 8252              	.LASF136:
 8253 1459 43494652 		.ascii	"CIFR\000"
 8253      00
 8254              	.LASF385:
 8255 145e 5243435F 		.ascii	"RCC_PeriphCLKInitStruct\000"
 8255      50657269 
 8255      7068434C 
 8255      4B496E69 
 8255      74537472 
 8256              	.LASF157:
 8257 1476 41484233 		.ascii	"AHB3SMENR\000"
 8257      534D454E 
 8257      5200
ARM GAS  /tmp/cc602Zqo.s 			page 164


 8258              	.LASF288:
 8259 1480 41646472 		.ascii	"AddrEventCount\000"
 8259      4576656E 
 8259      74436F75 
 8259      6E7400
 8260              	.LASF360:
 8261 148f 53656E73 		.ascii	"Sensor_IO_Write\000"
 8261      6F725F49 
 8261      4F5F5772 
 8261      69746500 
 8262              	.LASF335:
 8263 149f 434F4D50 		.ascii	"COMPONENT_NOT_IMPLEMENTED\000"
 8263      4F4E454E 
 8263      545F4E4F 
 8263      545F494D 
 8263      504C454D 
 8264              	.LASF402:
 8265 14b9 53445F49 		.ascii	"SD_IO_WriteByte\000"
 8265      4F5F5772 
 8265      69746542 
 8265      79746500 
 8266              	.LASF161:
 8267 14c9 41504232 		.ascii	"APB2SMENR\000"
 8267      534D454E 
 8267      5200
 8268              	.LASF45:
 8269 14d3 53504932 		.ascii	"SPI2_IRQn\000"
 8269      5F495251 
 8269      6E00
 8270              	.LASF301:
 8271 14dd 48414C5F 		.ascii	"HAL_SPI_STATE_RESET\000"
 8271      5350495F 
 8271      53544154 
 8271      455F5245 
 8271      53455400 
 8272              	.LASF390:
 8273 14f1 53445F49 		.ascii	"SD_IO_SPI_Init\000"
 8273      4F5F5350 
 8273      495F496E 
 8273      697400
 8274              	.LASF64:
 8275 1500 54494D37 		.ascii	"TIM7_IRQn\000"
 8275      5F495251 
 8275      6E00
 8276              	.LASF24:
 8277 150a 444D4131 		.ascii	"DMA1_Channel5_IRQn\000"
 8277      5F436861 
 8277      6E6E656C 
 8277      355F4952 
 8277      516E00
 8278              	.LASF343:
 8279 151d 4C534D33 		.ascii	"LSM303AGR_M\000"
 8279      30334147 
 8279      525F4D00 
 8280              	.LASF418:
 8281 1529 4750494F 		.ascii	"GPIO_PORT\000"
 8281      5F504F52 
ARM GAS  /tmp/cc602Zqo.s 			page 165


 8281      5400
 8282              	.LASF425:
 8283 1533 53445F49 		.ascii	"SD_IO_WriteDummy\000"
 8283      4F5F5772 
 8283      69746544 
 8283      756D6D79 
 8283      00
 8284              	.LASF342:
 8285 1544 4C534D33 		.ascii	"LSM303AGR_X\000"
 8285      30334147 
 8285      525F5800 
 8286              	.LASF381:
 8287 1550 4932435F 		.ascii	"I2C_SENSORTILE_WriteData\000"
 8287      53454E53 
 8287      4F525449 
 8287      4C455F57 
 8287      72697465 
 8288              	.LASF303:
 8289 1569 48414C5F 		.ascii	"HAL_SPI_STATE_BUSY\000"
 8289      5350495F 
 8289      53544154 
 8289      455F4255 
 8289      535900
 8290              	.LASF408:
 8291 157c 6672616D 		.ascii	"frame\000"
 8291      6500
 8292              	.LASF341:
 8293 1582 4C534D36 		.ascii	"LSM6DSM\000"
 8293      44534D00 
 8294              	.LASF72:
 8295 158a 44465344 		.ascii	"DFSDM1_FLT2_IRQn\000"
 8295      4D315F46 
 8295      4C54325F 
 8295      4952516E 
 8295      00
 8296              	.LASF90:
 8297 159b 7369676E 		.ascii	"signed char\000"
 8297      65642063 
 8297      68617200 
 8298              	.LASF289:
 8299 15a7 4932435F 		.ascii	"I2C_HandleTypeDef\000"
 8299      48616E64 
 8299      6C655479 
 8299      70654465 
 8299      6600
 8300              	.LASF52:
 8301 15b9 54494D38 		.ascii	"TIM8_BRK_IRQn\000"
 8301      5F42524B 
 8301      5F495251 
 8301      6E00
 8302              	.LASF95:
 8303 15c7 73686F72 		.ascii	"short unsigned int\000"
 8303      7420756E 
 8303      7369676E 
 8303      65642069 
 8303      6E7400
 8304              	.LASF18:
ARM GAS  /tmp/cc602Zqo.s 			page 166


 8305 15da 45585449 		.ascii	"EXTI3_IRQn\000"
 8305      335F4952 
 8305      516E00
 8306              	.LASF259:
 8307 15e5 4E6F5374 		.ascii	"NoStretchMode\000"
 8307      72657463 
 8307      684D6F64 
 8307      6500
 8308              	.LASF359:
 8309 15f3 68616E64 		.ascii	"handle\000"
 8309      6C6500
 8310              	.LASF424:
 8311 15fa 4932435F 		.ascii	"I2C_SENSORTILE_Init\000"
 8311      53454E53 
 8311      4F525449 
 8311      4C455F49 
 8311      6E697400 
 8312              	.LASF1:
 8313 160e 48617264 		.ascii	"HardFault_IRQn\000"
 8313      4661756C 
 8313      745F4952 
 8313      516E00
 8314              	.LASF208:
 8315 161d 4C707469 		.ascii	"Lptim2ClockSelection\000"
 8315      6D32436C 
 8315      6F636B53 
 8315      656C6563 
 8315      74696F6E 
 8316              	.LASF351:
 8317 1632 4253505F 		.ascii	"BSP_LED_On\000"
 8317      4C45445F 
 8317      4F6E00
 8318              	.LASF57:
 8319 163d 464D435F 		.ascii	"FMC_IRQn\000"
 8319      4952516E 
 8319      00
 8320              	.LASF267:
 8321 1646 48414C5F 		.ascii	"HAL_I2C_STATE_BUSY_TX_LISTEN\000"
 8321      4932435F 
 8321      53544154 
 8321      455F4255 
 8321      53595F54 
 8322              	.LASF46:
 8323 1663 55534152 		.ascii	"USART1_IRQn\000"
 8323      54315F49 
 8323      52516E00 
 8324              	.LASF353:
 8325 166f 4253505F 		.ascii	"BSP_LED_Toggle\000"
 8325      4C45445F 
 8325      546F6767 
 8325      6C6500
 8326              	.LASF276:
 8327 167e 48414C5F 		.ascii	"HAL_I2C_MODE_MEM\000"
 8327      4932435F 
 8327      4D4F4445 
 8327      5F4D454D 
 8327      00
ARM GAS  /tmp/cc602Zqo.s 			page 167


 8328              	.LASF275:
 8329 168f 48414C5F 		.ascii	"HAL_I2C_MODE_SLAVE\000"
 8329      4932435F 
 8329      4D4F4445 
 8329      5F534C41 
 8329      564500
 8330              	.LASF407:
 8331 16a2 72657370 		.ascii	"resp\000"
 8331      00
 8332              	.LASF235:
 8333 16a7 48414C5F 		.ascii	"HAL_DMA_STATE_READY\000"
 8333      444D415F 
 8333      53544154 
 8333      455F5245 
 8333      41445900 
 8334              	.LASF66:
 8335 16bb 444D4132 		.ascii	"DMA2_Channel2_IRQn\000"
 8335      5F436861 
 8335      6E6E656C 
 8335      325F4952 
 8335      516E00
 8336              	.LASF146:
 8337 16ce 52455345 		.ascii	"RESERVED2\000"
 8337      52564544 
 8337      3200
 8338              	.LASF419:
 8339 16d8 4750494F 		.ascii	"GPIO_PIN\000"
 8339      5F50494E 
 8339      00
 8340              	.LASF391:
 8341 16e1 53445F49 		.ascii	"SD_IO_SPI_Read\000"
 8341      4F5F5350 
 8341      495F5265 
 8341      616400
 8342              	.LASF48:
 8343 16f0 55534152 		.ascii	"USART3_IRQn\000"
 8343      54335F49 
 8343      52516E00 
 8344              	.LASF254:
 8345 16fc 41646472 		.ascii	"AddressingMode\000"
 8345      65737369 
 8345      6E674D6F 
 8345      646500
 8346              	.LASF383:
 8347 170b 4932435F 		.ascii	"I2C_SENSORTILE_Error\000"
 8347      53454E53 
 8347      4F525449 
 8347      4C455F45 
 8347      72726F72 
 8348              	.LASF89:
 8349 1720 4650555F 		.ascii	"FPU_IRQn\000"
 8349      4952516E 
 8349      00
 8350              	.LASF156:
 8351 1729 41484232 		.ascii	"AHB2SMENR\000"
 8351      534D454E 
 8351      5200
ARM GAS  /tmp/cc602Zqo.s 			page 168


 8352              	.LASF363:
 8353 1733 6E427974 		.ascii	"nBytesToWrite\000"
 8353      6573546F 
 8353      57726974 
 8353      6500
 8354              	.LASF403:
 8355 1741 44617461 		.ascii	"Data\000"
 8355      00
 8356              	.LASF27:
 8357 1746 41444331 		.ascii	"ADC1_2_IRQn\000"
 8357      5F325F49 
 8357      52516E00 
 8358              	.LASF220:
 8359 1752 50756C6C 		.ascii	"Pull\000"
 8359      00
 8360              	.LASF352:
 8361 1757 4253505F 		.ascii	"BSP_LED_Off\000"
 8361      4C45445F 
 8361      4F666600 
 8362              	.LASF228:
 8363 1763 50657269 		.ascii	"PeriphInc\000"
 8363      7068496E 
 8363      6300
 8364              	.LASF139:
 8365 176d 41484231 		.ascii	"AHB1RSTR\000"
 8365      52535452 
 8365      00
 8366              	.LASF119:
 8367 1776 4C434B52 		.ascii	"LCKR\000"
 8367      00
 8368              	.LASF314:
 8369 177b 52785866 		.ascii	"RxXferSize\000"
 8369      65725369 
 8369      7A6500
 8370              		.ident	"GCC: (GNU Tools for ARM Embedded Processors) 4.8.4 20140526 (release) [ARM/embedded-4_8-br
ARM GAS  /tmp/cc602Zqo.s 			page 169


DEFINED SYMBOLS
                            *ABS*:00000000 SensorTile.c
     /tmp/cc602Zqo.s:19     .data:00000000 $d
     /tmp/cc602Zqo.s:22     .data:00000000 I2C_SENSORTILE_Timeout
     /tmp/cc602Zqo.s:25     .bss:00000000 $d
     /tmp/cc602Zqo.s:26     .bss:00000000 I2C_SENSORTILE_Handle
     /tmp/cc602Zqo.s:29     .bss:0000004c SPI_Sensor_Handle
     /tmp/cc602Zqo.s:32     .bss:000000b0 SPI_SD_Handle
     /tmp/cc602Zqo.s:39     .data:00000004 GPIO_PORT
     /tmp/cc602Zqo.s:47     .rodata:00000000 GPIO_PIN
     /tmp/cc602Zqo.s:44     .rodata:00000000 $d
     /tmp/cc602Zqo.s:55     .data:0000000c SpixTimeout
     /tmp/cc602Zqo.s:58     .text:00000000 $t
     /tmp/cc602Zqo.s:64     .text:00000000 BSP_GetVersion
     /tmp/cc602Zqo.s:86     .text:00000010 BSP_LED_Init
     /tmp/cc602Zqo.s:179    .text:000000a8 $d
     /tmp/cc602Zqo.s:185    .text:000000b4 $t
     /tmp/cc602Zqo.s:191    .text:000000c0 BSP_LED_DeInit
     /tmp/cc602Zqo.s:215    .text:000000d0 BSP_LED_On
     /tmp/cc602Zqo.s:270    .text:00000134 $d
     /tmp/cc602Zqo.s:275    .text:0000013c $t
     /tmp/cc602Zqo.s:281    .text:00000140 BSP_LED_Off
     /tmp/cc602Zqo.s:336    .text:000001a4 $d
     /tmp/cc602Zqo.s:341    .text:000001ac $t
     /tmp/cc602Zqo.s:347    .text:000001b0 BSP_LED_Toggle
     /tmp/cc602Zqo.s:378    .text:000001e0 $d
     /tmp/cc602Zqo.s:383    .text:000001e8 $t
     /tmp/cc602Zqo.s:389    .text:000001f0 Sensor_IO_I2C_Init
     /tmp/cc602Zqo.s:1777   .text:00000a10 I2C_SENSORTILE_Init
     /tmp/cc602Zqo.s:423    .text:00000210 Sensor_IO_SPI_Init
     /tmp/cc602Zqo.s:583    .text:00000310 $d
     /tmp/cc602Zqo.s:590    .text:00000320 $t
     /tmp/cc602Zqo.s:596    .text:00000320 Sensor_IO_SPI_CS_Init_All
     /tmp/cc602Zqo.s:730    .text:00000404 $d
     /tmp/cc602Zqo.s:736    .text:00000410 $t
     /tmp/cc602Zqo.s:742    .text:00000410 Sensor_IO_SPI_CS_Init
     /tmp/cc602Zqo.s:775    .text:00000434 $d
     /tmp/cc602Zqo.s:779    .text:00000444 $t
     /tmp/cc602Zqo.s:912    .text:00000524 $d
     /tmp/cc602Zqo.s:918    .text:00000530 $t
     /tmp/cc602Zqo.s:924    .text:00000530 Sensor_IO_Write
     /tmp/cc602Zqo.s:1023   .text:000005d0 Sensor_IO_I2C_Write
     /tmp/cc602Zqo.s:1208   .text:000006f0 Sensor_IO_SPI_Write
     /tmp/cc602Zqo.s:1845   .text:00000a70 I2C_SENSORTILE_WriteData
     /tmp/cc602Zqo.s:1066   .text:00000610 Sensor_IO_Read
     /tmp/cc602Zqo.s:1165   .text:000006b0 Sensor_IO_I2C_Read
     /tmp/cc602Zqo.s:1279   .text:00000760 Sensor_IO_SPI_Read
     /tmp/cc602Zqo.s:1917   .text:00000af0 I2C_SENSORTILE_ReadData
     /tmp/cc602Zqo.s:1383   .text:00000810 Sensor_IO_SPI_CS_Enable
     /tmp/cc602Zqo.s:1717   .text:000009c0 SPI_Write
     /tmp/cc602Zqo.s:1466   .text:00000880 Sensor_IO_SPI_CS_Disable
     /tmp/cc602Zqo.s:1269   .text:00000758 $d
     /tmp/cc602Zqo.s:1273   .text:0000075c $t
     /tmp/cc602Zqo.s:1619   .text:00000950 SPI_Read
     /tmp/cc602Zqo.s:1373   .text:00000808 $d
     /tmp/cc602Zqo.s:1377   .text:0000080c $t
     /tmp/cc602Zqo.s:1407   .text:00000828 $d
ARM GAS  /tmp/cc602Zqo.s 			page 170


     /tmp/cc602Zqo.s:1411   .text:00000838 $t
     /tmp/cc602Zqo.s:1455   .text:00000878 $d
     /tmp/cc602Zqo.s:1460   .text:00000880 $t
     /tmp/cc602Zqo.s:1490   .text:00000898 $d
     /tmp/cc602Zqo.s:1494   .text:000008a8 $t
     /tmp/cc602Zqo.s:1538   .text:000008e8 $d
     /tmp/cc602Zqo.s:1543   .text:000008f0 $t
     /tmp/cc602Zqo.s:1549   .text:000008f0 LSM6DSM_Sensor_IO_ITConfig
     /tmp/cc602Zqo.s:1608   .text:00000944 $d
     /tmp/cc602Zqo.s:1613   .text:0000094c $t
     /tmp/cc602Zqo.s:2023   .text:00000b90 I2C_SENSORTILE_MspInit
     /tmp/cc602Zqo.s:1834   .text:00000a58 $d
     /tmp/cc602Zqo.s:1840   .text:00000a64 $t
     /tmp/cc602Zqo.s:1989   .text:00000b70 I2C_SENSORTILE_Error
     /tmp/cc602Zqo.s:1907   .text:00000adc $d
     /tmp/cc602Zqo.s:1912   .text:00000ae4 $t
     /tmp/cc602Zqo.s:1979   .text:00000b5c $d
     /tmp/cc602Zqo.s:1984   .text:00000b64 $t
     /tmp/cc602Zqo.s:2014   .text:00000b8c $d
     /tmp/cc602Zqo.s:2018   .text:00000b90 $t
     /tmp/cc602Zqo.s:2125   .text:00000c34 $d
     /tmp/cc602Zqo.s:2130   .text:00000c3c $t
     /tmp/cc602Zqo.s:2135   .text:00000c40 SD_IO_SPI_MspInit
     /tmp/cc602Zqo.s:2248   .text:00000cf0 $d
     /tmp/cc602Zqo.s:2253   .text:00000cf8 $t
     /tmp/cc602Zqo.s:2258   .text:00000d00 SD_IO_SPI_Init_LS
     /tmp/cc602Zqo.s:2334   .text:00000d6c $d
     /tmp/cc602Zqo.s:2339   .text:00000d74 $t
     /tmp/cc602Zqo.s:2344   .text:00000d80 SD_IO_SPI_Init
     /tmp/cc602Zqo.s:2420   .text:00000dec $d
     /tmp/cc602Zqo.s:2425   .text:00000df4 $t
     /tmp/cc602Zqo.s:2430   .text:00000e00 SD_IO_SPI_Read
     /tmp/cc602Zqo.s:2540   .text:00000ea0 SD_IO_SPI_Error
     /tmp/cc602Zqo.s:2480   .text:00000e48 $d
     /tmp/cc602Zqo.s:2485   .text:00000e50 $t
     /tmp/cc602Zqo.s:2490   .text:00000e50 SD_IO_SPI_Write
     /tmp/cc602Zqo.s:2530   .text:00000e8c $d
     /tmp/cc602Zqo.s:2535   .text:00000e94 $t
     /tmp/cc602Zqo.s:2560   .text:00000eb0 $d
     /tmp/cc602Zqo.s:2564   .text:00000eb4 $t
     /tmp/cc602Zqo.s:2570   .text:00000ec0 SD_IO_Init
     /tmp/cc602Zqo.s:2678   .text:00000f60 SD_IO_CS_Init
     /tmp/cc602Zqo.s:2782   .text:00000fe0 SD_IO_WriteByte
     /tmp/cc602Zqo.s:2614   .text:00000f00 $d
     /tmp/cc602Zqo.s:2618   .text:00000f04 $t
     /tmp/cc602Zqo.s:2624   .text:00000f10 SD_IO_Init_LS
     /tmp/cc602Zqo.s:2668   .text:00000f50 $d
     /tmp/cc602Zqo.s:2672   .text:00000f54 $t
     /tmp/cc602Zqo.s:2726   .text:00000fa0 $d
     /tmp/cc602Zqo.s:2731   .text:00000fa8 $t
     /tmp/cc602Zqo.s:2737   .text:00000fb0 SD_IO_CS_DeInit
     /tmp/cc602Zqo.s:2772   .text:00000fd8 $d
     /tmp/cc602Zqo.s:2776   .text:00000fdc $t
     /tmp/cc602Zqo.s:2812   .text:00001000 SD_IO_ReadByte
     /tmp/cc602Zqo.s:2846   .text:00001020 SD_IO_WriteCmd_wResp
     /tmp/cc602Zqo.s:2949   .text:000010cc $d
     /tmp/cc602Zqo.s:2953   .text:000010d0 $t
ARM GAS  /tmp/cc602Zqo.s 			page 171


     /tmp/cc602Zqo.s:2959   .text:000010d0 SD_IO_WriteCmd
     /tmp/cc602Zqo.s:3063   .text:00001180 SD_IO_WaitResponse
     /tmp/cc602Zqo.s:3053   .text:00001170 $d
     /tmp/cc602Zqo.s:3057   .text:00001174 $t
     /tmp/cc602Zqo.s:3123   .text:000011c0 SD_IO_WriteDummy
     /tmp/cc602Zqo.s:3146   .text:000011d8 $d
                     .debug_frame:00000010 $d
     /tmp/cc602Zqo.s:3163   .text:000011dc $t

UNDEFINED SYMBOLS
HAL_PWREx_EnableVddIO2
HAL_GPIO_Init
HAL_GPIO_WritePin
HAL_GPIO_TogglePin
HAL_SPI_GetState
HAL_SPI_Init
HAL_NVIC_SetPriority
HAL_NVIC_EnableIRQ
HAL_I2C_GetState
HAL_I2C_Init
HAL_I2C_Mem_Write
HAL_I2C_Mem_Read
HAL_I2C_DeInit
HAL_RCCEx_PeriphCLKConfig
HAL_SPI_TransmitReceive
HAL_SPI_Transmit
HAL_SPI_DeInit
