ARM GAS  /tmp/ccPuQAGd.s 			page 1


   1              		.syntax unified
   2              		.cpu cortex-m4
   3              		.fpu softvfp
   4              		.eabi_attribute 20, 1
   5              		.eabi_attribute 21, 1
   6              		.eabi_attribute 23, 3
   7              		.eabi_attribute 24, 1
   8              		.eabi_attribute 25, 1
   9              		.eabi_attribute 26, 1
  10              		.eabi_attribute 30, 6
  11              		.eabi_attribute 34, 1
  12              		.eabi_attribute 18, 4
  13              		.thumb
  14              		.file	"SensorTile_magneto.c"
  15              		.text
  16              	.Ltext0:
  17              		.cfi_sections	.debug_frame
  18              		.bss
  19              		.align	2
  20              	MAGNETO_SensorHandle:
  21 0000 00000000 		.space	20
  21      00000000 
  21      00000000 
  21      00000000 
  21      00000000 
  22              		.align	2
  23              	MAGNETO_Data:
  24 0014 00000000 		.space	8
  24      00000000 
  25              		.align	2
  26              	LSM303AGR_M_0_Data:
  27 001c 00000000 		.space	4
  28              		.text
  29              		.align	2
  30              		.p2align 4,,15
  31              		.global	BSP_MAGNETO_Init
  32              		.thumb
  33              		.thumb_func
  34              		.type	BSP_MAGNETO_Init, %function
  35              	BSP_MAGNETO_Init:
  36              	.LFB125:
  37              		.file 1 "../../../../../Drivers/BSP/SensorTile/SensorTile_magneto.c"
  38              		.loc 1 102 0
  39              		.cfi_startproc
  40              		@ args = 0, pretend = 0, frame = 8
  41              		@ frame_needed = 0, uses_anonymous_args = 0
  42 0000 00B5     		push	{lr}
  43              		.cfi_def_cfa_offset 4
  44              		.cfi_offset 14, -4
  45 0002 83B0     		sub	sp, sp, #12
  46              		.cfi_def_cfa_offset 16
  47 0004 0346     		mov	r3, r0
  48 0006 0091     		str	r1, [sp]
  49 0008 8DF80730 		strb	r3, [sp, #7]
  50              		.loc 1 104 0
  51 000c 009B     		ldr	r3, [sp]
  52 000e 0022     		movs	r2, #0
ARM GAS  /tmp/ccPuQAGd.s 			page 2


  53 0010 1A60     		str	r2, [r3]
  54              		.loc 1 106 0
  55 0012 9DF90730 		ldrsb	r3, [sp, #7]
  56 0016 002B     		cmp	r3, #0
  57 0018 08D0     		beq	.L3
  58              		.loc 1 111 0
  59 001a 0098     		ldr	r0, [sp]
  60 001c 00F018F8 		bl	BSP_LSM303AGR_MAGNETO_Init
  61 0020 0346     		mov	r3, r0
  62 0022 012B     		cmp	r3, #1
  63 0024 01D1     		bne	.L4
  64              		.loc 1 113 0
  65 0026 0123     		movs	r3, #1
  66 0028 0AE0     		b	.L5
  67              	.L4:
  68              		.loc 1 115 0
  69 002a 08E0     		b	.L6
  70              	.L3:
  71              		.loc 1 119 0
  72 002c 0098     		ldr	r0, [sp]
  73 002e 00F00FF8 		bl	BSP_LSM303AGR_MAGNETO_Init
  74 0032 0346     		mov	r3, r0
  75 0034 012B     		cmp	r3, #1
  76 0036 01D1     		bne	.L7
  77              		.loc 1 121 0
  78 0038 0123     		movs	r3, #1
  79 003a 01E0     		b	.L5
  80              	.L7:
  81              		.loc 1 123 0
  82 003c 00BF     		nop
  83              	.L6:
  84              		.loc 1 127 0
  85 003e 0023     		movs	r3, #0
  86              	.L5:
  87              		.loc 1 128 0
  88 0040 1846     		mov	r0, r3
  89 0042 03B0     		add	sp, sp, #12
  90              		@ sp needed
  91 0044 5DF804FB 		ldr	pc, [sp], #4
  92              		.cfi_endproc
  93              	.LFE125:
  94              		.size	BSP_MAGNETO_Init, .-BSP_MAGNETO_Init
  95              		.align	2
  96 0048 AFF30080 		.p2align 4,,15
  96      AFF30080 
  97              		.thumb
  98              		.thumb_func
  99              		.type	BSP_LSM303AGR_MAGNETO_Init, %function
 100              	BSP_LSM303AGR_MAGNETO_Init:
 101              	.LFB126:
 102              		.loc 1 132 0
 103              		.cfi_startproc
 104              		@ args = 0, pretend = 0, frame = 16
 105              		@ frame_needed = 0, uses_anonymous_args = 0
 106 0050 00B5     		push	{lr}
 107              		.cfi_def_cfa_offset 4
 108              		.cfi_offset 14, -4
ARM GAS  /tmp/ccPuQAGd.s 			page 3


 109 0052 85B0     		sub	sp, sp, #20
 110              		.cfi_def_cfa_offset 24
 111 0054 0190     		str	r0, [sp, #4]
 112              		.loc 1 133 0
 113 0056 0023     		movs	r3, #0
 114 0058 0393     		str	r3, [sp, #12]
 115              		.loc 1 134 0
 116 005a 0123     		movs	r3, #1
 117 005c 8DF80B30 		strb	r3, [sp, #11]
 118              		.loc 1 136 0
 119 0060 3F4B     		ldr	r3, .L16
 120 0062 5B79     		ldrb	r3, [r3, #5]	@ zero_extendqisi2
 121 0064 012B     		cmp	r3, #1
 122 0066 01D1     		bne	.L9
 123              		.loc 1 139 0
 124 0068 0123     		movs	r3, #1
 125 006a 75E0     		b	.L15
 126              	.L9:
 127              		.loc 1 142 0
 128 006c FFF7FEFF 		bl	Sensor_IO_SPI_Init
 129 0070 0346     		mov	r3, r0
 130 0072 012B     		cmp	r3, #1
 131 0074 01D1     		bne	.L11
 132              		.loc 1 144 0
 133 0076 0123     		movs	r3, #1
 134 0078 6EE0     		b	.L15
 135              	.L11:
 136              		.loc 1 148 0
 137 007a 394B     		ldr	r3, .L16
 138 007c 4022     		movs	r2, #64
 139 007e 1A70     		strb	r2, [r3]
 140              		.loc 1 149 0
 141 0080 374B     		ldr	r3, .L16
 142 0082 0122     		movs	r2, #1
 143 0084 5A70     		strb	r2, [r3, #1]
 144              		.loc 1 150 0
 145 0086 364B     		ldr	r3, .L16
 146 0088 3C22     		movs	r2, #60
 147 008a 9A70     		strb	r2, [r3, #2]
 148              		.loc 1 151 0
 149 008c 344B     		ldr	r3, .L16
 150 008e 0222     		movs	r2, #2
 151 0090 DA70     		strb	r2, [r3, #3]
 152              		.loc 1 152 0
 153 0092 334B     		ldr	r3, .L16
 154 0094 0022     		movs	r2, #0
 155 0096 1A71     		strb	r2, [r3, #4]
 156              		.loc 1 153 0
 157 0098 314B     		ldr	r3, .L16
 158 009a 0022     		movs	r2, #0
 159 009c 5A71     		strb	r2, [r3, #5]
 160              		.loc 1 154 0
 161 009e 304B     		ldr	r3, .L16
 162 00a0 0022     		movs	r2, #0
 163 00a2 9A71     		strb	r2, [r3, #6]
 164              		.loc 1 155 0
 165 00a4 2E4B     		ldr	r3, .L16
ARM GAS  /tmp/ccPuQAGd.s 			page 4


 166 00a6 0022     		movs	r2, #0
 167 00a8 DA71     		strb	r2, [r3, #7]
 168              		.loc 1 156 0
 169 00aa 2D4B     		ldr	r3, .L16
 170 00ac 2D4A     		ldr	r2, .L16+4
 171 00ae 9A60     		str	r2, [r3, #8]
 172              		.loc 1 157 0
 173 00b0 2B4B     		ldr	r3, .L16
 174 00b2 2D4A     		ldr	r2, .L16+8
 175 00b4 DA60     		str	r2, [r3, #12]
 176              		.loc 1 158 0
 177 00b6 2A4B     		ldr	r3, .L16
 178 00b8 0022     		movs	r2, #0
 179 00ba 1A61     		str	r2, [r3, #16]
 180              		.loc 1 160 0
 181 00bc 2B4B     		ldr	r3, .L16+12
 182 00be 2C4A     		ldr	r2, .L16+16
 183 00c0 1A60     		str	r2, [r3]
 184              		.loc 1 161 0
 185 00c2 284B     		ldr	r3, .L16+4
 186 00c4 294A     		ldr	r2, .L16+12
 187 00c6 1A60     		str	r2, [r3]
 188              		.loc 1 162 0
 189 00c8 264B     		ldr	r3, .L16+4
 190 00ca 0022     		movs	r2, #0
 191 00cc 5A60     		str	r2, [r3, #4]
 192              		.loc 1 164 0
 193 00ce 019B     		ldr	r3, [sp, #4]
 194 00d0 234A     		ldr	r2, .L16
 195 00d2 1A60     		str	r2, [r3]
 196              		.loc 1 166 0
 197 00d4 019B     		ldr	r3, [sp, #4]
 198 00d6 1B68     		ldr	r3, [r3]
 199 00d8 1846     		mov	r0, r3
 200 00da FFF7FEFF 		bl	Sensor_IO_SPI_CS_Init
 201              		.loc 1 168 0
 202 00de 244B     		ldr	r3, .L16+16
 203 00e0 1B78     		ldrb	r3, [r3]	@ zero_extendqisi2
 204 00e2 002B     		cmp	r3, #0
 205 00e4 0ED1     		bne	.L12
 206              		.loc 1 171 0
 207 00e6 019B     		ldr	r3, [sp, #4]
 208 00e8 1A68     		ldr	r2, [r3]
 209 00ea 0DF10B03 		add	r3, sp, #11
 210 00ee 1046     		mov	r0, r2
 211 00f0 2321     		movs	r1, #35
 212 00f2 1A46     		mov	r2, r3
 213 00f4 0123     		movs	r3, #1
 214 00f6 FFF7FEFF 		bl	Sensor_IO_Write
 215 00fa 0346     		mov	r3, r0
 216 00fc 002B     		cmp	r3, #0
 217 00fe 01D0     		beq	.L12
 218              		.loc 1 173 0
 219 0100 0123     		movs	r3, #1
 220 0102 29E0     		b	.L15
 221              	.L12:
 222              		.loc 1 177 0
ARM GAS  /tmp/ccPuQAGd.s 			page 5


 223 0104 019B     		ldr	r3, [sp, #4]
 224 0106 1B68     		ldr	r3, [r3]
 225 0108 DB68     		ldr	r3, [r3, #12]
 226 010a 0393     		str	r3, [sp, #12]
 227              		.loc 1 179 0
 228 010c 039B     		ldr	r3, [sp, #12]
 229 010e 1B68     		ldr	r3, [r3]
 230 0110 002B     		cmp	r3, #0
 231 0112 0BD1     		bne	.L13
 232              		.loc 1 181 0
 233 0114 019B     		ldr	r3, [sp, #4]
 234 0116 1B68     		ldr	r3, [r3]
 235 0118 1846     		mov	r0, r3
 236 011a 0021     		movs	r1, #0
 237 011c 1422     		movs	r2, #20
 238 011e FFF7FEFF 		bl	memset
 239              		.loc 1 182 0
 240 0122 019B     		ldr	r3, [sp, #4]
 241 0124 0022     		movs	r2, #0
 242 0126 1A60     		str	r2, [r3]
 243              		.loc 1 183 0
 244 0128 0123     		movs	r3, #1
 245 012a 15E0     		b	.L15
 246              	.L13:
 247              		.loc 1 186 0
 248 012c 039B     		ldr	r3, [sp, #12]
 249 012e 1B68     		ldr	r3, [r3]
 250 0130 019A     		ldr	r2, [sp, #4]
 251 0132 1268     		ldr	r2, [r2]
 252 0134 1046     		mov	r0, r2
 253 0136 9847     		blx	r3
 254 0138 0346     		mov	r3, r0
 255 013a 012B     		cmp	r3, #1
 256 013c 0BD1     		bne	.L14
 257              		.loc 1 188 0
 258 013e 019B     		ldr	r3, [sp, #4]
 259 0140 1B68     		ldr	r3, [r3]
 260 0142 1846     		mov	r0, r3
 261 0144 0021     		movs	r1, #0
 262 0146 1422     		movs	r2, #20
 263 0148 FFF7FEFF 		bl	memset
 264              		.loc 1 189 0
 265 014c 019B     		ldr	r3, [sp, #4]
 266 014e 0022     		movs	r2, #0
 267 0150 1A60     		str	r2, [r3]
 268              		.loc 1 190 0
 269 0152 0123     		movs	r3, #1
 270 0154 00E0     		b	.L15
 271              	.L14:
 272              		.loc 1 193 0
 273 0156 0023     		movs	r3, #0
 274              	.L15:
 275              		.loc 1 194 0
 276 0158 1846     		mov	r0, r3
 277 015a 05B0     		add	sp, sp, #20
 278              		@ sp needed
 279 015c 5DF804FB 		ldr	pc, [sp], #4
ARM GAS  /tmp/ccPuQAGd.s 			page 6


 280              	.L17:
 281              		.align	2
 282              	.L16:
 283 0160 00000000 		.word	MAGNETO_SensorHandle
 284 0164 14000000 		.word	MAGNETO_Data
 285 0168 00000000 		.word	LSM303AGR_M_Drv
 286 016c 1C000000 		.word	LSM303AGR_M_0_Data
 287 0170 00000000 		.word	LSM303AGR_Combo_Data
 288              		.cfi_endproc
 289              	.LFE126:
 290              		.size	BSP_LSM303AGR_MAGNETO_Init, .-BSP_LSM303AGR_MAGNETO_Init
 291              		.align	2
 292 0174 AFF30080 		.p2align 4,,15
 292      AFF30080 
 292      AFF30080 
 293              		.global	BSP_MAGNETO_DeInit
 294              		.thumb
 295              		.thumb_func
 296              		.type	BSP_MAGNETO_DeInit, %function
 297              	BSP_MAGNETO_DeInit:
 298              	.LFB127:
 299              		.loc 1 204 0
 300              		.cfi_startproc
 301              		@ args = 0, pretend = 0, frame = 16
 302              		@ frame_needed = 0, uses_anonymous_args = 0
 303 0180 00B5     		push	{lr}
 304              		.cfi_def_cfa_offset 4
 305              		.cfi_offset 14, -4
 306 0182 85B0     		sub	sp, sp, #20
 307              		.cfi_def_cfa_offset 24
 308 0184 0190     		str	r0, [sp, #4]
 309              		.loc 1 205 0
 310 0186 019B     		ldr	r3, [sp, #4]
 311 0188 1B68     		ldr	r3, [r3]
 312 018a 0393     		str	r3, [sp, #12]
 313              		.loc 1 206 0
 314 018c 0023     		movs	r3, #0
 315 018e 0293     		str	r3, [sp, #8]
 316              		.loc 1 208 0
 317 0190 039B     		ldr	r3, [sp, #12]
 318 0192 002B     		cmp	r3, #0
 319 0194 01D1     		bne	.L19
 320              		.loc 1 210 0
 321 0196 0123     		movs	r3, #1
 322 0198 1AE0     		b	.L20
 323              	.L19:
 324              		.loc 1 213 0
 325 019a 039B     		ldr	r3, [sp, #12]
 326 019c DB68     		ldr	r3, [r3, #12]
 327 019e 0293     		str	r3, [sp, #8]
 328              		.loc 1 215 0
 329 01a0 029B     		ldr	r3, [sp, #8]
 330 01a2 5B68     		ldr	r3, [r3, #4]
 331 01a4 002B     		cmp	r3, #0
 332 01a6 01D1     		bne	.L21
 333              		.loc 1 217 0
 334 01a8 0123     		movs	r3, #1
ARM GAS  /tmp/ccPuQAGd.s 			page 7


 335 01aa 11E0     		b	.L20
 336              	.L21:
 337              		.loc 1 220 0
 338 01ac 029B     		ldr	r3, [sp, #8]
 339 01ae 5B68     		ldr	r3, [r3, #4]
 340 01b0 0398     		ldr	r0, [sp, #12]
 341 01b2 9847     		blx	r3
 342 01b4 0346     		mov	r3, r0
 343 01b6 012B     		cmp	r3, #1
 344 01b8 01D1     		bne	.L22
 345              		.loc 1 222 0
 346 01ba 0123     		movs	r3, #1
 347 01bc 08E0     		b	.L20
 348              	.L22:
 349              		.loc 1 225 0
 350 01be 0398     		ldr	r0, [sp, #12]
 351 01c0 0021     		movs	r1, #0
 352 01c2 1422     		movs	r2, #20
 353 01c4 FFF7FEFF 		bl	memset
 354              		.loc 1 227 0
 355 01c8 019B     		ldr	r3, [sp, #4]
 356 01ca 0022     		movs	r2, #0
 357 01cc 1A60     		str	r2, [r3]
 358              		.loc 1 229 0
 359 01ce 0023     		movs	r3, #0
 360              	.L20:
 361              		.loc 1 230 0
 362 01d0 1846     		mov	r0, r3
 363 01d2 05B0     		add	sp, sp, #20
 364              		@ sp needed
 365 01d4 5DF804FB 		ldr	pc, [sp], #4
 366              		.cfi_endproc
 367              	.LFE127:
 368              		.size	BSP_MAGNETO_DeInit, .-BSP_MAGNETO_DeInit
 369              		.align	2
 370 01d8 AFF30080 		.p2align 4,,15
 370      AFF30080 
 371              		.global	BSP_MAGNETO_Sensor_Enable
 372              		.thumb
 373              		.thumb_func
 374              		.type	BSP_MAGNETO_Sensor_Enable, %function
 375              	BSP_MAGNETO_Sensor_Enable:
 376              	.LFB128:
 377              		.loc 1 240 0
 378              		.cfi_startproc
 379              		@ args = 0, pretend = 0, frame = 16
 380              		@ frame_needed = 0, uses_anonymous_args = 0
 381 01e0 00B5     		push	{lr}
 382              		.cfi_def_cfa_offset 4
 383              		.cfi_offset 14, -4
 384 01e2 85B0     		sub	sp, sp, #20
 385              		.cfi_def_cfa_offset 24
 386 01e4 0190     		str	r0, [sp, #4]
 387              		.loc 1 242 0
 388 01e6 019B     		ldr	r3, [sp, #4]
 389 01e8 0393     		str	r3, [sp, #12]
 390              		.loc 1 243 0
ARM GAS  /tmp/ccPuQAGd.s 			page 8


 391 01ea 0023     		movs	r3, #0
 392 01ec 0293     		str	r3, [sp, #8]
 393              		.loc 1 245 0
 394 01ee 039B     		ldr	r3, [sp, #12]
 395 01f0 002B     		cmp	r3, #0
 396 01f2 01D1     		bne	.L24
 397              		.loc 1 247 0
 398 01f4 0123     		movs	r3, #1
 399 01f6 12E0     		b	.L25
 400              	.L24:
 401              		.loc 1 250 0
 402 01f8 039B     		ldr	r3, [sp, #12]
 403 01fa DB68     		ldr	r3, [r3, #12]
 404 01fc 0293     		str	r3, [sp, #8]
 405              		.loc 1 252 0
 406 01fe 029B     		ldr	r3, [sp, #8]
 407 0200 9B68     		ldr	r3, [r3, #8]
 408 0202 002B     		cmp	r3, #0
 409 0204 01D1     		bne	.L26
 410              		.loc 1 254 0
 411 0206 0123     		movs	r3, #1
 412 0208 09E0     		b	.L25
 413              	.L26:
 414              		.loc 1 257 0
 415 020a 029B     		ldr	r3, [sp, #8]
 416 020c 9B68     		ldr	r3, [r3, #8]
 417 020e 0398     		ldr	r0, [sp, #12]
 418 0210 9847     		blx	r3
 419 0212 0346     		mov	r3, r0
 420 0214 012B     		cmp	r3, #1
 421 0216 01D1     		bne	.L27
 422              		.loc 1 259 0
 423 0218 0123     		movs	r3, #1
 424 021a 00E0     		b	.L25
 425              	.L27:
 426              		.loc 1 262 0
 427 021c 0023     		movs	r3, #0
 428              	.L25:
 429              		.loc 1 263 0
 430 021e 1846     		mov	r0, r3
 431 0220 05B0     		add	sp, sp, #20
 432              		@ sp needed
 433 0222 5DF804FB 		ldr	pc, [sp], #4
 434              		.cfi_endproc
 435              	.LFE128:
 436              		.size	BSP_MAGNETO_Sensor_Enable, .-BSP_MAGNETO_Sensor_Enable
 437 0226 00BF     		.align	2
 438 0228 AFF30080 		.p2align 4,,15
 438      AFF30080 
 439              		.global	BSP_MAGNETO_Sensor_Disable
 440              		.thumb
 441              		.thumb_func
 442              		.type	BSP_MAGNETO_Sensor_Disable, %function
 443              	BSP_MAGNETO_Sensor_Disable:
 444              	.LFB129:
 445              		.loc 1 274 0
 446              		.cfi_startproc
ARM GAS  /tmp/ccPuQAGd.s 			page 9


 447              		@ args = 0, pretend = 0, frame = 16
 448              		@ frame_needed = 0, uses_anonymous_args = 0
 449 0230 00B5     		push	{lr}
 450              		.cfi_def_cfa_offset 4
 451              		.cfi_offset 14, -4
 452 0232 85B0     		sub	sp, sp, #20
 453              		.cfi_def_cfa_offset 24
 454 0234 0190     		str	r0, [sp, #4]
 455              		.loc 1 276 0
 456 0236 019B     		ldr	r3, [sp, #4]
 457 0238 0393     		str	r3, [sp, #12]
 458              		.loc 1 277 0
 459 023a 0023     		movs	r3, #0
 460 023c 0293     		str	r3, [sp, #8]
 461              		.loc 1 279 0
 462 023e 039B     		ldr	r3, [sp, #12]
 463 0240 002B     		cmp	r3, #0
 464 0242 01D1     		bne	.L29
 465              		.loc 1 281 0
 466 0244 0123     		movs	r3, #1
 467 0246 12E0     		b	.L30
 468              	.L29:
 469              		.loc 1 284 0
 470 0248 039B     		ldr	r3, [sp, #12]
 471 024a DB68     		ldr	r3, [r3, #12]
 472 024c 0293     		str	r3, [sp, #8]
 473              		.loc 1 286 0
 474 024e 029B     		ldr	r3, [sp, #8]
 475 0250 DB68     		ldr	r3, [r3, #12]
 476 0252 002B     		cmp	r3, #0
 477 0254 01D1     		bne	.L31
 478              		.loc 1 288 0
 479 0256 0123     		movs	r3, #1
 480 0258 09E0     		b	.L30
 481              	.L31:
 482              		.loc 1 291 0
 483 025a 029B     		ldr	r3, [sp, #8]
 484 025c DB68     		ldr	r3, [r3, #12]
 485 025e 0398     		ldr	r0, [sp, #12]
 486 0260 9847     		blx	r3
 487 0262 0346     		mov	r3, r0
 488 0264 012B     		cmp	r3, #1
 489 0266 01D1     		bne	.L32
 490              		.loc 1 293 0
 491 0268 0123     		movs	r3, #1
 492 026a 00E0     		b	.L30
 493              	.L32:
 494              		.loc 1 296 0
 495 026c 0023     		movs	r3, #0
 496              	.L30:
 497              		.loc 1 297 0
 498 026e 1846     		mov	r0, r3
 499 0270 05B0     		add	sp, sp, #20
 500              		@ sp needed
 501 0272 5DF804FB 		ldr	pc, [sp], #4
 502              		.cfi_endproc
 503              	.LFE129:
ARM GAS  /tmp/ccPuQAGd.s 			page 10


 504              		.size	BSP_MAGNETO_Sensor_Disable, .-BSP_MAGNETO_Sensor_Disable
 505 0276 00BF     		.align	2
 506 0278 AFF30080 		.p2align 4,,15
 506      AFF30080 
 507              		.global	BSP_MAGNETO_IsInitialized
 508              		.thumb
 509              		.thumb_func
 510              		.type	BSP_MAGNETO_IsInitialized, %function
 511              	BSP_MAGNETO_IsInitialized:
 512              	.LFB130:
 513              		.loc 1 308 0
 514              		.cfi_startproc
 515              		@ args = 0, pretend = 0, frame = 16
 516              		@ frame_needed = 0, uses_anonymous_args = 0
 517              		@ link register save eliminated.
 518 0280 84B0     		sub	sp, sp, #16
 519              		.cfi_def_cfa_offset 16
 520 0282 0190     		str	r0, [sp, #4]
 521 0284 0091     		str	r1, [sp]
 522              		.loc 1 309 0
 523 0286 019B     		ldr	r3, [sp, #4]
 524 0288 0393     		str	r3, [sp, #12]
 525              		.loc 1 311 0
 526 028a 039B     		ldr	r3, [sp, #12]
 527 028c 002B     		cmp	r3, #0
 528 028e 01D1     		bne	.L34
 529              		.loc 1 313 0
 530 0290 0123     		movs	r3, #1
 531 0292 09E0     		b	.L35
 532              	.L34:
 533              		.loc 1 316 0
 534 0294 009B     		ldr	r3, [sp]
 535 0296 002B     		cmp	r3, #0
 536 0298 01D1     		bne	.L36
 537              		.loc 1 318 0
 538 029a 0123     		movs	r3, #1
 539 029c 04E0     		b	.L35
 540              	.L36:
 541              		.loc 1 321 0
 542 029e 039B     		ldr	r3, [sp, #12]
 543 02a0 5A79     		ldrb	r2, [r3, #5]	@ zero_extendqisi2
 544 02a2 009B     		ldr	r3, [sp]
 545 02a4 1A70     		strb	r2, [r3]
 546              		.loc 1 323 0
 547 02a6 0023     		movs	r3, #0
 548              	.L35:
 549              		.loc 1 324 0
 550 02a8 1846     		mov	r0, r3
 551 02aa 04B0     		add	sp, sp, #16
 552              		@ sp needed
 553 02ac 7047     		bx	lr
 554              		.cfi_endproc
 555              	.LFE130:
 556              		.size	BSP_MAGNETO_IsInitialized, .-BSP_MAGNETO_IsInitialized
 557 02ae 00BF     		.align	2
 558              		.p2align 4,,15
 559              		.global	BSP_MAGNETO_IsEnabled
ARM GAS  /tmp/ccPuQAGd.s 			page 11


 560              		.thumb
 561              		.thumb_func
 562              		.type	BSP_MAGNETO_IsEnabled, %function
 563              	BSP_MAGNETO_IsEnabled:
 564              	.LFB131:
 565              		.loc 1 335 0
 566              		.cfi_startproc
 567              		@ args = 0, pretend = 0, frame = 16
 568              		@ frame_needed = 0, uses_anonymous_args = 0
 569              		@ link register save eliminated.
 570 02b0 84B0     		sub	sp, sp, #16
 571              		.cfi_def_cfa_offset 16
 572 02b2 0190     		str	r0, [sp, #4]
 573 02b4 0091     		str	r1, [sp]
 574              		.loc 1 336 0
 575 02b6 019B     		ldr	r3, [sp, #4]
 576 02b8 0393     		str	r3, [sp, #12]
 577              		.loc 1 338 0
 578 02ba 039B     		ldr	r3, [sp, #12]
 579 02bc 002B     		cmp	r3, #0
 580 02be 01D1     		bne	.L38
 581              		.loc 1 340 0
 582 02c0 0123     		movs	r3, #1
 583 02c2 09E0     		b	.L39
 584              	.L38:
 585              		.loc 1 343 0
 586 02c4 009B     		ldr	r3, [sp]
 587 02c6 002B     		cmp	r3, #0
 588 02c8 01D1     		bne	.L40
 589              		.loc 1 345 0
 590 02ca 0123     		movs	r3, #1
 591 02cc 04E0     		b	.L39
 592              	.L40:
 593              		.loc 1 348 0
 594 02ce 039B     		ldr	r3, [sp, #12]
 595 02d0 9A79     		ldrb	r2, [r3, #6]	@ zero_extendqisi2
 596 02d2 009B     		ldr	r3, [sp]
 597 02d4 1A70     		strb	r2, [r3]
 598              		.loc 1 350 0
 599 02d6 0023     		movs	r3, #0
 600              	.L39:
 601              		.loc 1 351 0
 602 02d8 1846     		mov	r0, r3
 603 02da 04B0     		add	sp, sp, #16
 604              		@ sp needed
 605 02dc 7047     		bx	lr
 606              		.cfi_endproc
 607              	.LFE131:
 608              		.size	BSP_MAGNETO_IsEnabled, .-BSP_MAGNETO_IsEnabled
 609 02de 00BF     		.align	2
 610              		.p2align 4,,15
 611              		.global	BSP_MAGNETO_IsCombo
 612              		.thumb
 613              		.thumb_func
 614              		.type	BSP_MAGNETO_IsCombo, %function
 615              	BSP_MAGNETO_IsCombo:
 616              	.LFB132:
ARM GAS  /tmp/ccPuQAGd.s 			page 12


 617              		.loc 1 362 0
 618              		.cfi_startproc
 619              		@ args = 0, pretend = 0, frame = 16
 620              		@ frame_needed = 0, uses_anonymous_args = 0
 621              		@ link register save eliminated.
 622 02e0 84B0     		sub	sp, sp, #16
 623              		.cfi_def_cfa_offset 16
 624 02e2 0190     		str	r0, [sp, #4]
 625 02e4 0091     		str	r1, [sp]
 626              		.loc 1 363 0
 627 02e6 019B     		ldr	r3, [sp, #4]
 628 02e8 0393     		str	r3, [sp, #12]
 629              		.loc 1 365 0
 630 02ea 039B     		ldr	r3, [sp, #12]
 631 02ec 002B     		cmp	r3, #0
 632 02ee 01D1     		bne	.L42
 633              		.loc 1 367 0
 634 02f0 0123     		movs	r3, #1
 635 02f2 09E0     		b	.L43
 636              	.L42:
 637              		.loc 1 370 0
 638 02f4 009B     		ldr	r3, [sp]
 639 02f6 002B     		cmp	r3, #0
 640 02f8 01D1     		bne	.L44
 641              		.loc 1 372 0
 642 02fa 0123     		movs	r3, #1
 643 02fc 04E0     		b	.L43
 644              	.L44:
 645              		.loc 1 375 0
 646 02fe 039B     		ldr	r3, [sp, #12]
 647 0300 DA79     		ldrb	r2, [r3, #7]	@ zero_extendqisi2
 648 0302 009B     		ldr	r3, [sp]
 649 0304 1A70     		strb	r2, [r3]
 650              		.loc 1 377 0
 651 0306 0023     		movs	r3, #0
 652              	.L43:
 653              		.loc 1 378 0
 654 0308 1846     		mov	r0, r3
 655 030a 04B0     		add	sp, sp, #16
 656              		@ sp needed
 657 030c 7047     		bx	lr
 658              		.cfi_endproc
 659              	.LFE132:
 660              		.size	BSP_MAGNETO_IsCombo, .-BSP_MAGNETO_IsCombo
 661 030e 00BF     		.align	2
 662              		.p2align 4,,15
 663              		.global	BSP_MAGNETO_Get_Instance
 664              		.thumb
 665              		.thumb_func
 666              		.type	BSP_MAGNETO_Get_Instance, %function
 667              	BSP_MAGNETO_Get_Instance:
 668              	.LFB133:
 669              		.loc 1 389 0
 670              		.cfi_startproc
 671              		@ args = 0, pretend = 0, frame = 16
 672              		@ frame_needed = 0, uses_anonymous_args = 0
 673              		@ link register save eliminated.
ARM GAS  /tmp/ccPuQAGd.s 			page 13


 674 0310 84B0     		sub	sp, sp, #16
 675              		.cfi_def_cfa_offset 16
 676 0312 0190     		str	r0, [sp, #4]
 677 0314 0091     		str	r1, [sp]
 678              		.loc 1 390 0
 679 0316 019B     		ldr	r3, [sp, #4]
 680 0318 0393     		str	r3, [sp, #12]
 681              		.loc 1 392 0
 682 031a 039B     		ldr	r3, [sp, #12]
 683 031c 002B     		cmp	r3, #0
 684 031e 01D1     		bne	.L46
 685              		.loc 1 394 0
 686 0320 0123     		movs	r3, #1
 687 0322 09E0     		b	.L47
 688              	.L46:
 689              		.loc 1 397 0
 690 0324 009B     		ldr	r3, [sp]
 691 0326 002B     		cmp	r3, #0
 692 0328 01D1     		bne	.L48
 693              		.loc 1 399 0
 694 032a 0123     		movs	r3, #1
 695 032c 04E0     		b	.L47
 696              	.L48:
 697              		.loc 1 402 0
 698 032e 039B     		ldr	r3, [sp, #12]
 699 0330 1A79     		ldrb	r2, [r3, #4]	@ zero_extendqisi2
 700 0332 009B     		ldr	r3, [sp]
 701 0334 1A70     		strb	r2, [r3]
 702              		.loc 1 404 0
 703 0336 0023     		movs	r3, #0
 704              	.L47:
 705              		.loc 1 405 0
 706 0338 1846     		mov	r0, r3
 707 033a 04B0     		add	sp, sp, #16
 708              		@ sp needed
 709 033c 7047     		bx	lr
 710              		.cfi_endproc
 711              	.LFE133:
 712              		.size	BSP_MAGNETO_Get_Instance, .-BSP_MAGNETO_Get_Instance
 713 033e 00BF     		.align	2
 714              		.p2align 4,,15
 715              		.global	BSP_MAGNETO_Get_WhoAmI
 716              		.thumb
 717              		.thumb_func
 718              		.type	BSP_MAGNETO_Get_WhoAmI, %function
 719              	BSP_MAGNETO_Get_WhoAmI:
 720              	.LFB134:
 721              		.loc 1 417 0
 722              		.cfi_startproc
 723              		@ args = 0, pretend = 0, frame = 16
 724              		@ frame_needed = 0, uses_anonymous_args = 0
 725 0340 00B5     		push	{lr}
 726              		.cfi_def_cfa_offset 4
 727              		.cfi_offset 14, -4
 728 0342 85B0     		sub	sp, sp, #20
 729              		.cfi_def_cfa_offset 24
 730 0344 0190     		str	r0, [sp, #4]
ARM GAS  /tmp/ccPuQAGd.s 			page 14


 731 0346 0091     		str	r1, [sp]
 732              		.loc 1 419 0
 733 0348 019B     		ldr	r3, [sp, #4]
 734 034a 0393     		str	r3, [sp, #12]
 735              		.loc 1 420 0
 736 034c 0023     		movs	r3, #0
 737 034e 0293     		str	r3, [sp, #8]
 738              		.loc 1 422 0
 739 0350 039B     		ldr	r3, [sp, #12]
 740 0352 002B     		cmp	r3, #0
 741 0354 01D1     		bne	.L50
 742              		.loc 1 424 0
 743 0356 0123     		movs	r3, #1
 744 0358 18E0     		b	.L51
 745              	.L50:
 746              		.loc 1 427 0
 747 035a 039B     		ldr	r3, [sp, #12]
 748 035c DB68     		ldr	r3, [r3, #12]
 749 035e 0293     		str	r3, [sp, #8]
 750              		.loc 1 429 0
 751 0360 009B     		ldr	r3, [sp]
 752 0362 002B     		cmp	r3, #0
 753 0364 01D1     		bne	.L52
 754              		.loc 1 431 0
 755 0366 0123     		movs	r3, #1
 756 0368 10E0     		b	.L51
 757              	.L52:
 758              		.loc 1 433 0
 759 036a 029B     		ldr	r3, [sp, #8]
 760 036c 1B69     		ldr	r3, [r3, #16]
 761 036e 002B     		cmp	r3, #0
 762 0370 01D1     		bne	.L53
 763              		.loc 1 435 0
 764 0372 0123     		movs	r3, #1
 765 0374 0AE0     		b	.L51
 766              	.L53:
 767              		.loc 1 437 0
 768 0376 029B     		ldr	r3, [sp, #8]
 769 0378 1B69     		ldr	r3, [r3, #16]
 770 037a 0398     		ldr	r0, [sp, #12]
 771 037c 0099     		ldr	r1, [sp]
 772 037e 9847     		blx	r3
 773 0380 0346     		mov	r3, r0
 774 0382 012B     		cmp	r3, #1
 775 0384 01D1     		bne	.L54
 776              		.loc 1 439 0
 777 0386 0123     		movs	r3, #1
 778 0388 00E0     		b	.L51
 779              	.L54:
 780              		.loc 1 442 0
 781 038a 0023     		movs	r3, #0
 782              	.L51:
 783              		.loc 1 443 0
 784 038c 1846     		mov	r0, r3
 785 038e 05B0     		add	sp, sp, #20
 786              		@ sp needed
 787 0390 5DF804FB 		ldr	pc, [sp], #4
ARM GAS  /tmp/ccPuQAGd.s 			page 15


 788              		.cfi_endproc
 789              	.LFE134:
 790              		.size	BSP_MAGNETO_Get_WhoAmI, .-BSP_MAGNETO_Get_WhoAmI
 791              		.align	2
 792 0394 AFF30080 		.p2align 4,,15
 792      AFF30080 
 792      AFF30080 
 793              		.global	BSP_MAGNETO_Check_WhoAmI
 794              		.thumb
 795              		.thumb_func
 796              		.type	BSP_MAGNETO_Check_WhoAmI, %function
 797              	BSP_MAGNETO_Check_WhoAmI:
 798              	.LFB135:
 799              		.loc 1 454 0
 800              		.cfi_startproc
 801              		@ args = 0, pretend = 0, frame = 16
 802              		@ frame_needed = 0, uses_anonymous_args = 0
 803 03a0 00B5     		push	{lr}
 804              		.cfi_def_cfa_offset 4
 805              		.cfi_offset 14, -4
 806 03a2 85B0     		sub	sp, sp, #20
 807              		.cfi_def_cfa_offset 24
 808 03a4 0190     		str	r0, [sp, #4]
 809              		.loc 1 456 0
 810 03a6 019B     		ldr	r3, [sp, #4]
 811 03a8 0393     		str	r3, [sp, #12]
 812              		.loc 1 457 0
 813 03aa 0023     		movs	r3, #0
 814 03ac 0293     		str	r3, [sp, #8]
 815              		.loc 1 459 0
 816 03ae 039B     		ldr	r3, [sp, #12]
 817 03b0 002B     		cmp	r3, #0
 818 03b2 01D1     		bne	.L56
 819              		.loc 1 461 0
 820 03b4 0123     		movs	r3, #1
 821 03b6 12E0     		b	.L57
 822              	.L56:
 823              		.loc 1 464 0
 824 03b8 039B     		ldr	r3, [sp, #12]
 825 03ba DB68     		ldr	r3, [r3, #12]
 826 03bc 0293     		str	r3, [sp, #8]
 827              		.loc 1 466 0
 828 03be 029B     		ldr	r3, [sp, #8]
 829 03c0 5B69     		ldr	r3, [r3, #20]
 830 03c2 002B     		cmp	r3, #0
 831 03c4 01D1     		bne	.L58
 832              		.loc 1 468 0
 833 03c6 0123     		movs	r3, #1
 834 03c8 09E0     		b	.L57
 835              	.L58:
 836              		.loc 1 470 0
 837 03ca 029B     		ldr	r3, [sp, #8]
 838 03cc 5B69     		ldr	r3, [r3, #20]
 839 03ce 0398     		ldr	r0, [sp, #12]
 840 03d0 9847     		blx	r3
 841 03d2 0346     		mov	r3, r0
 842 03d4 012B     		cmp	r3, #1
ARM GAS  /tmp/ccPuQAGd.s 			page 16


 843 03d6 01D1     		bne	.L59
 844              		.loc 1 472 0
 845 03d8 0123     		movs	r3, #1
 846 03da 00E0     		b	.L57
 847              	.L59:
 848              		.loc 1 475 0
 849 03dc 0023     		movs	r3, #0
 850              	.L57:
 851              		.loc 1 476 0
 852 03de 1846     		mov	r0, r3
 853 03e0 05B0     		add	sp, sp, #20
 854              		@ sp needed
 855 03e2 5DF804FB 		ldr	pc, [sp], #4
 856              		.cfi_endproc
 857              	.LFE135:
 858              		.size	BSP_MAGNETO_Check_WhoAmI, .-BSP_MAGNETO_Check_WhoAmI
 859 03e6 00BF     		.align	2
 860 03e8 AFF30080 		.p2align 4,,15
 860      AFF30080 
 861              		.global	BSP_MAGNETO_Get_Axes
 862              		.thumb
 863              		.thumb_func
 864              		.type	BSP_MAGNETO_Get_Axes, %function
 865              	BSP_MAGNETO_Get_Axes:
 866              	.LFB136:
 867              		.loc 1 488 0
 868              		.cfi_startproc
 869              		@ args = 0, pretend = 0, frame = 16
 870              		@ frame_needed = 0, uses_anonymous_args = 0
 871 03f0 00B5     		push	{lr}
 872              		.cfi_def_cfa_offset 4
 873              		.cfi_offset 14, -4
 874 03f2 85B0     		sub	sp, sp, #20
 875              		.cfi_def_cfa_offset 24
 876 03f4 0190     		str	r0, [sp, #4]
 877 03f6 0091     		str	r1, [sp]
 878              		.loc 1 490 0
 879 03f8 019B     		ldr	r3, [sp, #4]
 880 03fa 0393     		str	r3, [sp, #12]
 881              		.loc 1 491 0
 882 03fc 0023     		movs	r3, #0
 883 03fe 0293     		str	r3, [sp, #8]
 884              		.loc 1 493 0
 885 0400 039B     		ldr	r3, [sp, #12]
 886 0402 002B     		cmp	r3, #0
 887 0404 01D1     		bne	.L61
 888              		.loc 1 495 0
 889 0406 0123     		movs	r3, #1
 890 0408 18E0     		b	.L62
 891              	.L61:
 892              		.loc 1 498 0
 893 040a 039B     		ldr	r3, [sp, #12]
 894 040c DB68     		ldr	r3, [r3, #12]
 895 040e 0293     		str	r3, [sp, #8]
 896              		.loc 1 500 0
 897 0410 009B     		ldr	r3, [sp]
 898 0412 002B     		cmp	r3, #0
ARM GAS  /tmp/ccPuQAGd.s 			page 17


 899 0414 01D1     		bne	.L63
 900              		.loc 1 502 0
 901 0416 0123     		movs	r3, #1
 902 0418 10E0     		b	.L62
 903              	.L63:
 904              		.loc 1 504 0
 905 041a 029B     		ldr	r3, [sp, #8]
 906 041c 9B69     		ldr	r3, [r3, #24]
 907 041e 002B     		cmp	r3, #0
 908 0420 01D1     		bne	.L64
 909              		.loc 1 506 0
 910 0422 0123     		movs	r3, #1
 911 0424 0AE0     		b	.L62
 912              	.L64:
 913              		.loc 1 508 0
 914 0426 029B     		ldr	r3, [sp, #8]
 915 0428 9B69     		ldr	r3, [r3, #24]
 916 042a 0398     		ldr	r0, [sp, #12]
 917 042c 0099     		ldr	r1, [sp]
 918 042e 9847     		blx	r3
 919 0430 0346     		mov	r3, r0
 920 0432 012B     		cmp	r3, #1
 921 0434 01D1     		bne	.L65
 922              		.loc 1 510 0
 923 0436 0123     		movs	r3, #1
 924 0438 00E0     		b	.L62
 925              	.L65:
 926              		.loc 1 513 0
 927 043a 0023     		movs	r3, #0
 928              	.L62:
 929              		.loc 1 514 0
 930 043c 1846     		mov	r0, r3
 931 043e 05B0     		add	sp, sp, #20
 932              		@ sp needed
 933 0440 5DF804FB 		ldr	pc, [sp], #4
 934              		.cfi_endproc
 935              	.LFE136:
 936              		.size	BSP_MAGNETO_Get_Axes, .-BSP_MAGNETO_Get_Axes
 937              		.align	2
 938 0444 AFF30080 		.p2align 4,,15
 938      AFF30080 
 938      AFF30080 
 939              		.global	BSP_MAGNETO_Get_AxesRaw
 940              		.thumb
 941              		.thumb_func
 942              		.type	BSP_MAGNETO_Get_AxesRaw, %function
 943              	BSP_MAGNETO_Get_AxesRaw:
 944              	.LFB137:
 945              		.loc 1 526 0
 946              		.cfi_startproc
 947              		@ args = 0, pretend = 0, frame = 16
 948              		@ frame_needed = 0, uses_anonymous_args = 0
 949 0450 00B5     		push	{lr}
 950              		.cfi_def_cfa_offset 4
 951              		.cfi_offset 14, -4
 952 0452 85B0     		sub	sp, sp, #20
 953              		.cfi_def_cfa_offset 24
ARM GAS  /tmp/ccPuQAGd.s 			page 18


 954 0454 0190     		str	r0, [sp, #4]
 955 0456 0091     		str	r1, [sp]
 956              		.loc 1 528 0
 957 0458 019B     		ldr	r3, [sp, #4]
 958 045a 0393     		str	r3, [sp, #12]
 959              		.loc 1 529 0
 960 045c 0023     		movs	r3, #0
 961 045e 0293     		str	r3, [sp, #8]
 962              		.loc 1 531 0
 963 0460 039B     		ldr	r3, [sp, #12]
 964 0462 002B     		cmp	r3, #0
 965 0464 01D1     		bne	.L67
 966              		.loc 1 533 0
 967 0466 0123     		movs	r3, #1
 968 0468 18E0     		b	.L68
 969              	.L67:
 970              		.loc 1 536 0
 971 046a 039B     		ldr	r3, [sp, #12]
 972 046c DB68     		ldr	r3, [r3, #12]
 973 046e 0293     		str	r3, [sp, #8]
 974              		.loc 1 538 0
 975 0470 009B     		ldr	r3, [sp]
 976 0472 002B     		cmp	r3, #0
 977 0474 01D1     		bne	.L69
 978              		.loc 1 540 0
 979 0476 0123     		movs	r3, #1
 980 0478 10E0     		b	.L68
 981              	.L69:
 982              		.loc 1 543 0
 983 047a 029B     		ldr	r3, [sp, #8]
 984 047c DB69     		ldr	r3, [r3, #28]
 985 047e 002B     		cmp	r3, #0
 986 0480 01D1     		bne	.L70
 987              		.loc 1 545 0
 988 0482 0123     		movs	r3, #1
 989 0484 0AE0     		b	.L68
 990              	.L70:
 991              		.loc 1 548 0
 992 0486 029B     		ldr	r3, [sp, #8]
 993 0488 DB69     		ldr	r3, [r3, #28]
 994 048a 0398     		ldr	r0, [sp, #12]
 995 048c 0099     		ldr	r1, [sp]
 996 048e 9847     		blx	r3
 997 0490 0346     		mov	r3, r0
 998 0492 012B     		cmp	r3, #1
 999 0494 01D1     		bne	.L71
 1000              		.loc 1 550 0
 1001 0496 0123     		movs	r3, #1
 1002 0498 00E0     		b	.L68
 1003              	.L71:
 1004              		.loc 1 553 0
 1005 049a 0023     		movs	r3, #0
 1006              	.L68:
 1007              		.loc 1 554 0
 1008 049c 1846     		mov	r0, r3
 1009 049e 05B0     		add	sp, sp, #20
 1010              		@ sp needed
ARM GAS  /tmp/ccPuQAGd.s 			page 19


 1011 04a0 5DF804FB 		ldr	pc, [sp], #4
 1012              		.cfi_endproc
 1013              	.LFE137:
 1014              		.size	BSP_MAGNETO_Get_AxesRaw, .-BSP_MAGNETO_Get_AxesRaw
 1015              		.align	2
 1016 04a4 AFF30080 		.p2align 4,,15
 1016      AFF30080 
 1016      AFF30080 
 1017              		.global	BSP_MAGNETO_Get_Sensitivity
 1018              		.thumb
 1019              		.thumb_func
 1020              		.type	BSP_MAGNETO_Get_Sensitivity, %function
 1021              	BSP_MAGNETO_Get_Sensitivity:
 1022              	.LFB138:
 1023              		.loc 1 567 0
 1024              		.cfi_startproc
 1025              		@ args = 0, pretend = 0, frame = 16
 1026              		@ frame_needed = 0, uses_anonymous_args = 0
 1027 04b0 00B5     		push	{lr}
 1028              		.cfi_def_cfa_offset 4
 1029              		.cfi_offset 14, -4
 1030 04b2 85B0     		sub	sp, sp, #20
 1031              		.cfi_def_cfa_offset 24
 1032 04b4 0190     		str	r0, [sp, #4]
 1033 04b6 0091     		str	r1, [sp]
 1034              		.loc 1 569 0
 1035 04b8 019B     		ldr	r3, [sp, #4]
 1036 04ba 0393     		str	r3, [sp, #12]
 1037              		.loc 1 570 0
 1038 04bc 0023     		movs	r3, #0
 1039 04be 0293     		str	r3, [sp, #8]
 1040              		.loc 1 572 0
 1041 04c0 039B     		ldr	r3, [sp, #12]
 1042 04c2 002B     		cmp	r3, #0
 1043 04c4 01D1     		bne	.L73
 1044              		.loc 1 574 0
 1045 04c6 0123     		movs	r3, #1
 1046 04c8 18E0     		b	.L74
 1047              	.L73:
 1048              		.loc 1 577 0
 1049 04ca 039B     		ldr	r3, [sp, #12]
 1050 04cc DB68     		ldr	r3, [r3, #12]
 1051 04ce 0293     		str	r3, [sp, #8]
 1052              		.loc 1 579 0
 1053 04d0 009B     		ldr	r3, [sp]
 1054 04d2 002B     		cmp	r3, #0
 1055 04d4 01D1     		bne	.L75
 1056              		.loc 1 581 0
 1057 04d6 0123     		movs	r3, #1
 1058 04d8 10E0     		b	.L74
 1059              	.L75:
 1060              		.loc 1 583 0
 1061 04da 029B     		ldr	r3, [sp, #8]
 1062 04dc 1B6A     		ldr	r3, [r3, #32]
 1063 04de 002B     		cmp	r3, #0
 1064 04e0 01D1     		bne	.L76
 1065              		.loc 1 585 0
ARM GAS  /tmp/ccPuQAGd.s 			page 20


 1066 04e2 0123     		movs	r3, #1
 1067 04e4 0AE0     		b	.L74
 1068              	.L76:
 1069              		.loc 1 587 0
 1070 04e6 029B     		ldr	r3, [sp, #8]
 1071 04e8 1B6A     		ldr	r3, [r3, #32]
 1072 04ea 0398     		ldr	r0, [sp, #12]
 1073 04ec 0099     		ldr	r1, [sp]
 1074 04ee 9847     		blx	r3
 1075 04f0 0346     		mov	r3, r0
 1076 04f2 012B     		cmp	r3, #1
 1077 04f4 01D1     		bne	.L77
 1078              		.loc 1 589 0
 1079 04f6 0123     		movs	r3, #1
 1080 04f8 00E0     		b	.L74
 1081              	.L77:
 1082              		.loc 1 592 0
 1083 04fa 0023     		movs	r3, #0
 1084              	.L74:
 1085              		.loc 1 593 0
 1086 04fc 1846     		mov	r0, r3
 1087 04fe 05B0     		add	sp, sp, #20
 1088              		@ sp needed
 1089 0500 5DF804FB 		ldr	pc, [sp], #4
 1090              		.cfi_endproc
 1091              	.LFE138:
 1092              		.size	BSP_MAGNETO_Get_Sensitivity, .-BSP_MAGNETO_Get_Sensitivity
 1093              		.align	2
 1094 0504 AFF30080 		.p2align 4,,15
 1094      AFF30080 
 1094      AFF30080 
 1095              		.global	BSP_MAGNETO_Get_ODR
 1096              		.thumb
 1097              		.thumb_func
 1098              		.type	BSP_MAGNETO_Get_ODR, %function
 1099              	BSP_MAGNETO_Get_ODR:
 1100              	.LFB139:
 1101              		.loc 1 605 0
 1102              		.cfi_startproc
 1103              		@ args = 0, pretend = 0, frame = 16
 1104              		@ frame_needed = 0, uses_anonymous_args = 0
 1105 0510 00B5     		push	{lr}
 1106              		.cfi_def_cfa_offset 4
 1107              		.cfi_offset 14, -4
 1108 0512 85B0     		sub	sp, sp, #20
 1109              		.cfi_def_cfa_offset 24
 1110 0514 0190     		str	r0, [sp, #4]
 1111 0516 0091     		str	r1, [sp]
 1112              		.loc 1 607 0
 1113 0518 019B     		ldr	r3, [sp, #4]
 1114 051a 0393     		str	r3, [sp, #12]
 1115              		.loc 1 608 0
 1116 051c 0023     		movs	r3, #0
 1117 051e 0293     		str	r3, [sp, #8]
 1118              		.loc 1 610 0
 1119 0520 039B     		ldr	r3, [sp, #12]
 1120 0522 002B     		cmp	r3, #0
ARM GAS  /tmp/ccPuQAGd.s 			page 21


 1121 0524 01D1     		bne	.L79
 1122              		.loc 1 612 0
 1123 0526 0123     		movs	r3, #1
 1124 0528 18E0     		b	.L80
 1125              	.L79:
 1126              		.loc 1 615 0
 1127 052a 039B     		ldr	r3, [sp, #12]
 1128 052c DB68     		ldr	r3, [r3, #12]
 1129 052e 0293     		str	r3, [sp, #8]
 1130              		.loc 1 617 0
 1131 0530 009B     		ldr	r3, [sp]
 1132 0532 002B     		cmp	r3, #0
 1133 0534 01D1     		bne	.L81
 1134              		.loc 1 619 0
 1135 0536 0123     		movs	r3, #1
 1136 0538 10E0     		b	.L80
 1137              	.L81:
 1138              		.loc 1 621 0
 1139 053a 029B     		ldr	r3, [sp, #8]
 1140 053c 5B6A     		ldr	r3, [r3, #36]
 1141 053e 002B     		cmp	r3, #0
 1142 0540 01D1     		bne	.L82
 1143              		.loc 1 623 0
 1144 0542 0123     		movs	r3, #1
 1145 0544 0AE0     		b	.L80
 1146              	.L82:
 1147              		.loc 1 625 0
 1148 0546 029B     		ldr	r3, [sp, #8]
 1149 0548 5B6A     		ldr	r3, [r3, #36]
 1150 054a 0398     		ldr	r0, [sp, #12]
 1151 054c 0099     		ldr	r1, [sp]
 1152 054e 9847     		blx	r3
 1153 0550 0346     		mov	r3, r0
 1154 0552 012B     		cmp	r3, #1
 1155 0554 01D1     		bne	.L83
 1156              		.loc 1 627 0
 1157 0556 0123     		movs	r3, #1
 1158 0558 00E0     		b	.L80
 1159              	.L83:
 1160              		.loc 1 630 0
 1161 055a 0023     		movs	r3, #0
 1162              	.L80:
 1163              		.loc 1 631 0
 1164 055c 1846     		mov	r0, r3
 1165 055e 05B0     		add	sp, sp, #20
 1166              		@ sp needed
 1167 0560 5DF804FB 		ldr	pc, [sp], #4
 1168              		.cfi_endproc
 1169              	.LFE139:
 1170              		.size	BSP_MAGNETO_Get_ODR, .-BSP_MAGNETO_Get_ODR
 1171              		.align	2
 1172 0564 AFF30080 		.p2align 4,,15
 1172      AFF30080 
 1172      AFF30080 
 1173              		.global	BSP_MAGNETO_Set_ODR
 1174              		.thumb
 1175              		.thumb_func
ARM GAS  /tmp/ccPuQAGd.s 			page 22


 1176              		.type	BSP_MAGNETO_Set_ODR, %function
 1177              	BSP_MAGNETO_Set_ODR:
 1178              	.LFB140:
 1179              		.loc 1 643 0
 1180              		.cfi_startproc
 1181              		@ args = 0, pretend = 0, frame = 16
 1182              		@ frame_needed = 0, uses_anonymous_args = 0
 1183 0570 00B5     		push	{lr}
 1184              		.cfi_def_cfa_offset 4
 1185              		.cfi_offset 14, -4
 1186 0572 85B0     		sub	sp, sp, #20
 1187              		.cfi_def_cfa_offset 24
 1188 0574 0190     		str	r0, [sp, #4]
 1189 0576 0B46     		mov	r3, r1
 1190 0578 8DF80330 		strb	r3, [sp, #3]
 1191              		.loc 1 645 0
 1192 057c 019B     		ldr	r3, [sp, #4]
 1193 057e 0393     		str	r3, [sp, #12]
 1194              		.loc 1 646 0
 1195 0580 0023     		movs	r3, #0
 1196 0582 0293     		str	r3, [sp, #8]
 1197              		.loc 1 648 0
 1198 0584 039B     		ldr	r3, [sp, #12]
 1199 0586 002B     		cmp	r3, #0
 1200 0588 01D1     		bne	.L85
 1201              		.loc 1 650 0
 1202 058a 0123     		movs	r3, #1
 1203 058c 15E0     		b	.L86
 1204              	.L85:
 1205              		.loc 1 653 0
 1206 058e 039B     		ldr	r3, [sp, #12]
 1207 0590 DB68     		ldr	r3, [r3, #12]
 1208 0592 0293     		str	r3, [sp, #8]
 1209              		.loc 1 655 0
 1210 0594 029B     		ldr	r3, [sp, #8]
 1211 0596 9B6A     		ldr	r3, [r3, #40]
 1212 0598 002B     		cmp	r3, #0
 1213 059a 01D1     		bne	.L87
 1214              		.loc 1 657 0
 1215 059c 0123     		movs	r3, #1
 1216 059e 0CE0     		b	.L86
 1217              	.L87:
 1218              		.loc 1 659 0
 1219 05a0 029B     		ldr	r3, [sp, #8]
 1220 05a2 9B6A     		ldr	r3, [r3, #40]
 1221 05a4 9DF80320 		ldrb	r2, [sp, #3]	@ zero_extendqisi2
 1222 05a8 0398     		ldr	r0, [sp, #12]
 1223 05aa 1146     		mov	r1, r2
 1224 05ac 9847     		blx	r3
 1225 05ae 0346     		mov	r3, r0
 1226 05b0 012B     		cmp	r3, #1
 1227 05b2 01D1     		bne	.L88
 1228              		.loc 1 661 0
 1229 05b4 0123     		movs	r3, #1
 1230 05b6 00E0     		b	.L86
 1231              	.L88:
 1232              		.loc 1 664 0
ARM GAS  /tmp/ccPuQAGd.s 			page 23


 1233 05b8 0023     		movs	r3, #0
 1234              	.L86:
 1235              		.loc 1 665 0
 1236 05ba 1846     		mov	r0, r3
 1237 05bc 05B0     		add	sp, sp, #20
 1238              		@ sp needed
 1239 05be 5DF804FB 		ldr	pc, [sp], #4
 1240              		.cfi_endproc
 1241              	.LFE140:
 1242              		.size	BSP_MAGNETO_Set_ODR, .-BSP_MAGNETO_Set_ODR
 1243 05c2 00BF     		.align	2
 1244 05c4 AFF30080 		.p2align 4,,15
 1244      AFF30080 
 1244      AFF30080 
 1245              		.global	BSP_MAGNETO_Set_ODR_Value
 1246              		.thumb
 1247              		.thumb_func
 1248              		.type	BSP_MAGNETO_Set_ODR_Value, %function
 1249              	BSP_MAGNETO_Set_ODR_Value:
 1250              	.LFB141:
 1251              		.loc 1 677 0
 1252              		.cfi_startproc
 1253              		@ args = 0, pretend = 0, frame = 16
 1254              		@ frame_needed = 0, uses_anonymous_args = 0
 1255 05d0 00B5     		push	{lr}
 1256              		.cfi_def_cfa_offset 4
 1257              		.cfi_offset 14, -4
 1258 05d2 85B0     		sub	sp, sp, #20
 1259              		.cfi_def_cfa_offset 24
 1260 05d4 0190     		str	r0, [sp, #4]
 1261 05d6 0091     		str	r1, [sp]	@ float
 1262              		.loc 1 679 0
 1263 05d8 019B     		ldr	r3, [sp, #4]
 1264 05da 0393     		str	r3, [sp, #12]
 1265              		.loc 1 680 0
 1266 05dc 0023     		movs	r3, #0
 1267 05de 0293     		str	r3, [sp, #8]
 1268              		.loc 1 682 0
 1269 05e0 039B     		ldr	r3, [sp, #12]
 1270 05e2 002B     		cmp	r3, #0
 1271 05e4 01D1     		bne	.L90
 1272              		.loc 1 684 0
 1273 05e6 0123     		movs	r3, #1
 1274 05e8 13E0     		b	.L91
 1275              	.L90:
 1276              		.loc 1 687 0
 1277 05ea 039B     		ldr	r3, [sp, #12]
 1278 05ec DB68     		ldr	r3, [r3, #12]
 1279 05ee 0293     		str	r3, [sp, #8]
 1280              		.loc 1 689 0
 1281 05f0 029B     		ldr	r3, [sp, #8]
 1282 05f2 DB6A     		ldr	r3, [r3, #44]
 1283 05f4 002B     		cmp	r3, #0
 1284 05f6 01D1     		bne	.L92
 1285              		.loc 1 691 0
 1286 05f8 0123     		movs	r3, #1
 1287 05fa 0AE0     		b	.L91
ARM GAS  /tmp/ccPuQAGd.s 			page 24


 1288              	.L92:
 1289              		.loc 1 693 0
 1290 05fc 029B     		ldr	r3, [sp, #8]
 1291 05fe DB6A     		ldr	r3, [r3, #44]
 1292 0600 0398     		ldr	r0, [sp, #12]
 1293 0602 0099     		ldr	r1, [sp]	@ float
 1294 0604 9847     		blx	r3
 1295 0606 0346     		mov	r3, r0
 1296 0608 012B     		cmp	r3, #1
 1297 060a 01D1     		bne	.L93
 1298              		.loc 1 695 0
 1299 060c 0123     		movs	r3, #1
 1300 060e 00E0     		b	.L91
 1301              	.L93:
 1302              		.loc 1 698 0
 1303 0610 0023     		movs	r3, #0
 1304              	.L91:
 1305              		.loc 1 699 0
 1306 0612 1846     		mov	r0, r3
 1307 0614 05B0     		add	sp, sp, #20
 1308              		@ sp needed
 1309 0616 5DF804FB 		ldr	pc, [sp], #4
 1310              		.cfi_endproc
 1311              	.LFE141:
 1312              		.size	BSP_MAGNETO_Set_ODR_Value, .-BSP_MAGNETO_Set_ODR_Value
 1313 061a 00BF     		.align	2
 1314 061c AFF30080 		.p2align 4,,15
 1315              		.global	BSP_MAGNETO_Get_FS
 1316              		.thumb
 1317              		.thumb_func
 1318              		.type	BSP_MAGNETO_Get_FS, %function
 1319              	BSP_MAGNETO_Get_FS:
 1320              	.LFB142:
 1321              		.loc 1 711 0
 1322              		.cfi_startproc
 1323              		@ args = 0, pretend = 0, frame = 16
 1324              		@ frame_needed = 0, uses_anonymous_args = 0
 1325 0620 00B5     		push	{lr}
 1326              		.cfi_def_cfa_offset 4
 1327              		.cfi_offset 14, -4
 1328 0622 85B0     		sub	sp, sp, #20
 1329              		.cfi_def_cfa_offset 24
 1330 0624 0190     		str	r0, [sp, #4]
 1331 0626 0091     		str	r1, [sp]
 1332              		.loc 1 713 0
 1333 0628 019B     		ldr	r3, [sp, #4]
 1334 062a 0393     		str	r3, [sp, #12]
 1335              		.loc 1 714 0
 1336 062c 0023     		movs	r3, #0
 1337 062e 0293     		str	r3, [sp, #8]
 1338              		.loc 1 716 0
 1339 0630 039B     		ldr	r3, [sp, #12]
 1340 0632 002B     		cmp	r3, #0
 1341 0634 01D1     		bne	.L95
 1342              		.loc 1 718 0
 1343 0636 0123     		movs	r3, #1
 1344 0638 18E0     		b	.L96
ARM GAS  /tmp/ccPuQAGd.s 			page 25


 1345              	.L95:
 1346              		.loc 1 721 0
 1347 063a 039B     		ldr	r3, [sp, #12]
 1348 063c DB68     		ldr	r3, [r3, #12]
 1349 063e 0293     		str	r3, [sp, #8]
 1350              		.loc 1 723 0
 1351 0640 009B     		ldr	r3, [sp]
 1352 0642 002B     		cmp	r3, #0
 1353 0644 01D1     		bne	.L97
 1354              		.loc 1 725 0
 1355 0646 0123     		movs	r3, #1
 1356 0648 10E0     		b	.L96
 1357              	.L97:
 1358              		.loc 1 727 0
 1359 064a 029B     		ldr	r3, [sp, #8]
 1360 064c 1B6B     		ldr	r3, [r3, #48]
 1361 064e 002B     		cmp	r3, #0
 1362 0650 01D1     		bne	.L98
 1363              		.loc 1 729 0
 1364 0652 0123     		movs	r3, #1
 1365 0654 0AE0     		b	.L96
 1366              	.L98:
 1367              		.loc 1 731 0
 1368 0656 029B     		ldr	r3, [sp, #8]
 1369 0658 1B6B     		ldr	r3, [r3, #48]
 1370 065a 0398     		ldr	r0, [sp, #12]
 1371 065c 0099     		ldr	r1, [sp]
 1372 065e 9847     		blx	r3
 1373 0660 0346     		mov	r3, r0
 1374 0662 012B     		cmp	r3, #1
 1375 0664 01D1     		bne	.L99
 1376              		.loc 1 733 0
 1377 0666 0123     		movs	r3, #1
 1378 0668 00E0     		b	.L96
 1379              	.L99:
 1380              		.loc 1 736 0
 1381 066a 0023     		movs	r3, #0
 1382              	.L96:
 1383              		.loc 1 737 0
 1384 066c 1846     		mov	r0, r3
 1385 066e 05B0     		add	sp, sp, #20
 1386              		@ sp needed
 1387 0670 5DF804FB 		ldr	pc, [sp], #4
 1388              		.cfi_endproc
 1389              	.LFE142:
 1390              		.size	BSP_MAGNETO_Get_FS, .-BSP_MAGNETO_Get_FS
 1391              		.align	2
 1392 0674 AFF30080 		.p2align 4,,15
 1392      AFF30080 
 1392      AFF30080 
 1393              		.global	BSP_MAGNETO_Set_FS
 1394              		.thumb
 1395              		.thumb_func
 1396              		.type	BSP_MAGNETO_Set_FS, %function
 1397              	BSP_MAGNETO_Set_FS:
 1398              	.LFB143:
 1399              		.loc 1 749 0
ARM GAS  /tmp/ccPuQAGd.s 			page 26


 1400              		.cfi_startproc
 1401              		@ args = 0, pretend = 0, frame = 16
 1402              		@ frame_needed = 0, uses_anonymous_args = 0
 1403 0680 00B5     		push	{lr}
 1404              		.cfi_def_cfa_offset 4
 1405              		.cfi_offset 14, -4
 1406 0682 85B0     		sub	sp, sp, #20
 1407              		.cfi_def_cfa_offset 24
 1408 0684 0190     		str	r0, [sp, #4]
 1409 0686 0B46     		mov	r3, r1
 1410 0688 8DF80330 		strb	r3, [sp, #3]
 1411              		.loc 1 751 0
 1412 068c 019B     		ldr	r3, [sp, #4]
 1413 068e 0393     		str	r3, [sp, #12]
 1414              		.loc 1 752 0
 1415 0690 0023     		movs	r3, #0
 1416 0692 0293     		str	r3, [sp, #8]
 1417              		.loc 1 754 0
 1418 0694 039B     		ldr	r3, [sp, #12]
 1419 0696 002B     		cmp	r3, #0
 1420 0698 01D1     		bne	.L101
 1421              		.loc 1 756 0
 1422 069a 0123     		movs	r3, #1
 1423 069c 15E0     		b	.L102
 1424              	.L101:
 1425              		.loc 1 759 0
 1426 069e 039B     		ldr	r3, [sp, #12]
 1427 06a0 DB68     		ldr	r3, [r3, #12]
 1428 06a2 0293     		str	r3, [sp, #8]
 1429              		.loc 1 761 0
 1430 06a4 029B     		ldr	r3, [sp, #8]
 1431 06a6 5B6B     		ldr	r3, [r3, #52]
 1432 06a8 002B     		cmp	r3, #0
 1433 06aa 01D1     		bne	.L103
 1434              		.loc 1 763 0
 1435 06ac 0123     		movs	r3, #1
 1436 06ae 0CE0     		b	.L102
 1437              	.L103:
 1438              		.loc 1 765 0
 1439 06b0 029B     		ldr	r3, [sp, #8]
 1440 06b2 5B6B     		ldr	r3, [r3, #52]
 1441 06b4 9DF80320 		ldrb	r2, [sp, #3]	@ zero_extendqisi2
 1442 06b8 0398     		ldr	r0, [sp, #12]
 1443 06ba 1146     		mov	r1, r2
 1444 06bc 9847     		blx	r3
 1445 06be 0346     		mov	r3, r0
 1446 06c0 012B     		cmp	r3, #1
 1447 06c2 01D1     		bne	.L104
 1448              		.loc 1 767 0
 1449 06c4 0123     		movs	r3, #1
 1450 06c6 00E0     		b	.L102
 1451              	.L104:
 1452              		.loc 1 770 0
 1453 06c8 0023     		movs	r3, #0
 1454              	.L102:
 1455              		.loc 1 771 0
 1456 06ca 1846     		mov	r0, r3
ARM GAS  /tmp/ccPuQAGd.s 			page 27


 1457 06cc 05B0     		add	sp, sp, #20
 1458              		@ sp needed
 1459 06ce 5DF804FB 		ldr	pc, [sp], #4
 1460              		.cfi_endproc
 1461              	.LFE143:
 1462              		.size	BSP_MAGNETO_Set_FS, .-BSP_MAGNETO_Set_FS
 1463 06d2 00BF     		.align	2
 1464 06d4 AFF30080 		.p2align 4,,15
 1464      AFF30080 
 1464      AFF30080 
 1465              		.global	BSP_MAGNETO_Set_FS_Value
 1466              		.thumb
 1467              		.thumb_func
 1468              		.type	BSP_MAGNETO_Set_FS_Value, %function
 1469              	BSP_MAGNETO_Set_FS_Value:
 1470              	.LFB144:
 1471              		.loc 1 783 0
 1472              		.cfi_startproc
 1473              		@ args = 0, pretend = 0, frame = 16
 1474              		@ frame_needed = 0, uses_anonymous_args = 0
 1475 06e0 00B5     		push	{lr}
 1476              		.cfi_def_cfa_offset 4
 1477              		.cfi_offset 14, -4
 1478 06e2 85B0     		sub	sp, sp, #20
 1479              		.cfi_def_cfa_offset 24
 1480 06e4 0190     		str	r0, [sp, #4]
 1481 06e6 0091     		str	r1, [sp]	@ float
 1482              		.loc 1 785 0
 1483 06e8 019B     		ldr	r3, [sp, #4]
 1484 06ea 0393     		str	r3, [sp, #12]
 1485              		.loc 1 786 0
 1486 06ec 0023     		movs	r3, #0
 1487 06ee 0293     		str	r3, [sp, #8]
 1488              		.loc 1 788 0
 1489 06f0 039B     		ldr	r3, [sp, #12]
 1490 06f2 002B     		cmp	r3, #0
 1491 06f4 01D1     		bne	.L106
 1492              		.loc 1 790 0
 1493 06f6 0123     		movs	r3, #1
 1494 06f8 13E0     		b	.L107
 1495              	.L106:
 1496              		.loc 1 793 0
 1497 06fa 039B     		ldr	r3, [sp, #12]
 1498 06fc DB68     		ldr	r3, [r3, #12]
 1499 06fe 0293     		str	r3, [sp, #8]
 1500              		.loc 1 795 0
 1501 0700 029B     		ldr	r3, [sp, #8]
 1502 0702 9B6B     		ldr	r3, [r3, #56]
 1503 0704 002B     		cmp	r3, #0
 1504 0706 01D1     		bne	.L108
 1505              		.loc 1 797 0
 1506 0708 0123     		movs	r3, #1
 1507 070a 0AE0     		b	.L107
 1508              	.L108:
 1509              		.loc 1 799 0
 1510 070c 029B     		ldr	r3, [sp, #8]
 1511 070e 9B6B     		ldr	r3, [r3, #56]
ARM GAS  /tmp/ccPuQAGd.s 			page 28


 1512 0710 0398     		ldr	r0, [sp, #12]
 1513 0712 0099     		ldr	r1, [sp]	@ float
 1514 0714 9847     		blx	r3
 1515 0716 0346     		mov	r3, r0
 1516 0718 012B     		cmp	r3, #1
 1517 071a 01D1     		bne	.L109
 1518              		.loc 1 801 0
 1519 071c 0123     		movs	r3, #1
 1520 071e 00E0     		b	.L107
 1521              	.L109:
 1522              		.loc 1 804 0
 1523 0720 0023     		movs	r3, #0
 1524              	.L107:
 1525              		.loc 1 805 0
 1526 0722 1846     		mov	r0, r3
 1527 0724 05B0     		add	sp, sp, #20
 1528              		@ sp needed
 1529 0726 5DF804FB 		ldr	pc, [sp], #4
 1530              		.cfi_endproc
 1531              	.LFE144:
 1532              		.size	BSP_MAGNETO_Set_FS_Value, .-BSP_MAGNETO_Set_FS_Value
 1533 072a 00BF     		.align	2
 1534 072c AFF30080 		.p2align 4,,15
 1535              		.global	BSP_MAGNETO_Read_Reg
 1536              		.thumb
 1537              		.thumb_func
 1538              		.type	BSP_MAGNETO_Read_Reg, %function
 1539              	BSP_MAGNETO_Read_Reg:
 1540              	.LFB145:
 1541              		.loc 1 817 0
 1542              		.cfi_startproc
 1543              		@ args = 0, pretend = 0, frame = 24
 1544              		@ frame_needed = 0, uses_anonymous_args = 0
 1545 0730 00B5     		push	{lr}
 1546              		.cfi_def_cfa_offset 4
 1547              		.cfi_offset 14, -4
 1548 0732 87B0     		sub	sp, sp, #28
 1549              		.cfi_def_cfa_offset 32
 1550 0734 0390     		str	r0, [sp, #12]
 1551 0736 0B46     		mov	r3, r1
 1552 0738 0192     		str	r2, [sp, #4]
 1553 073a 8DF80B30 		strb	r3, [sp, #11]
 1554              		.loc 1 819 0
 1555 073e 039B     		ldr	r3, [sp, #12]
 1556 0740 0593     		str	r3, [sp, #20]
 1557              		.loc 1 820 0
 1558 0742 0023     		movs	r3, #0
 1559 0744 0493     		str	r3, [sp, #16]
 1560              		.loc 1 822 0
 1561 0746 059B     		ldr	r3, [sp, #20]
 1562 0748 002B     		cmp	r3, #0
 1563 074a 01D1     		bne	.L111
 1564              		.loc 1 824 0
 1565 074c 0123     		movs	r3, #1
 1566 074e 1BE0     		b	.L112
 1567              	.L111:
 1568              		.loc 1 827 0
ARM GAS  /tmp/ccPuQAGd.s 			page 29


 1569 0750 059B     		ldr	r3, [sp, #20]
 1570 0752 DB68     		ldr	r3, [r3, #12]
 1571 0754 0493     		str	r3, [sp, #16]
 1572              		.loc 1 829 0
 1573 0756 019B     		ldr	r3, [sp, #4]
 1574 0758 002B     		cmp	r3, #0
 1575 075a 01D1     		bne	.L113
 1576              		.loc 1 831 0
 1577 075c 0123     		movs	r3, #1
 1578 075e 13E0     		b	.L112
 1579              	.L113:
 1580              		.loc 1 834 0
 1581 0760 049B     		ldr	r3, [sp, #16]
 1582 0762 DB6B     		ldr	r3, [r3, #60]
 1583 0764 002B     		cmp	r3, #0
 1584 0766 01D1     		bne	.L114
 1585              		.loc 1 836 0
 1586 0768 0123     		movs	r3, #1
 1587 076a 0DE0     		b	.L112
 1588              	.L114:
 1589              		.loc 1 839 0
 1590 076c 049B     		ldr	r3, [sp, #16]
 1591 076e DB6B     		ldr	r3, [r3, #60]
 1592 0770 9DF80B20 		ldrb	r2, [sp, #11]	@ zero_extendqisi2
 1593 0774 0598     		ldr	r0, [sp, #20]
 1594 0776 1146     		mov	r1, r2
 1595 0778 019A     		ldr	r2, [sp, #4]
 1596 077a 9847     		blx	r3
 1597 077c 0346     		mov	r3, r0
 1598 077e 012B     		cmp	r3, #1
 1599 0780 01D1     		bne	.L115
 1600              		.loc 1 841 0
 1601 0782 0123     		movs	r3, #1
 1602 0784 00E0     		b	.L112
 1603              	.L115:
 1604              		.loc 1 844 0
 1605 0786 0023     		movs	r3, #0
 1606              	.L112:
 1607              		.loc 1 845 0
 1608 0788 1846     		mov	r0, r3
 1609 078a 07B0     		add	sp, sp, #28
 1610              		@ sp needed
 1611 078c 5DF804FB 		ldr	pc, [sp], #4
 1612              		.cfi_endproc
 1613              	.LFE145:
 1614              		.size	BSP_MAGNETO_Read_Reg, .-BSP_MAGNETO_Read_Reg
 1615              		.align	2
 1616              		.p2align 4,,15
 1617              		.global	BSP_MAGNETO_Write_Reg
 1618              		.thumb
 1619              		.thumb_func
 1620              		.type	BSP_MAGNETO_Write_Reg, %function
 1621              	BSP_MAGNETO_Write_Reg:
 1622              	.LFB146:
 1623              		.loc 1 858 0
 1624              		.cfi_startproc
 1625              		@ args = 0, pretend = 0, frame = 16
ARM GAS  /tmp/ccPuQAGd.s 			page 30


 1626              		@ frame_needed = 0, uses_anonymous_args = 0
 1627 0790 00B5     		push	{lr}
 1628              		.cfi_def_cfa_offset 4
 1629              		.cfi_offset 14, -4
 1630 0792 85B0     		sub	sp, sp, #20
 1631              		.cfi_def_cfa_offset 24
 1632 0794 0190     		str	r0, [sp, #4]
 1633 0796 1346     		mov	r3, r2
 1634 0798 0A46     		mov	r2, r1
 1635 079a 8DF80320 		strb	r2, [sp, #3]
 1636 079e 8DF80230 		strb	r3, [sp, #2]
 1637              		.loc 1 860 0
 1638 07a2 019B     		ldr	r3, [sp, #4]
 1639 07a4 0393     		str	r3, [sp, #12]
 1640              		.loc 1 861 0
 1641 07a6 0023     		movs	r3, #0
 1642 07a8 0293     		str	r3, [sp, #8]
 1643              		.loc 1 863 0
 1644 07aa 039B     		ldr	r3, [sp, #12]
 1645 07ac 002B     		cmp	r3, #0
 1646 07ae 01D1     		bne	.L117
 1647              		.loc 1 865 0
 1648 07b0 0123     		movs	r3, #1
 1649 07b2 16E0     		b	.L118
 1650              	.L117:
 1651              		.loc 1 868 0
 1652 07b4 039B     		ldr	r3, [sp, #12]
 1653 07b6 DB68     		ldr	r3, [r3, #12]
 1654 07b8 0293     		str	r3, [sp, #8]
 1655              		.loc 1 870 0
 1656 07ba 029B     		ldr	r3, [sp, #8]
 1657 07bc 1B6C     		ldr	r3, [r3, #64]
 1658 07be 002B     		cmp	r3, #0
 1659 07c0 01D1     		bne	.L119
 1660              		.loc 1 872 0
 1661 07c2 0123     		movs	r3, #1
 1662 07c4 0DE0     		b	.L118
 1663              	.L119:
 1664              		.loc 1 875 0
 1665 07c6 029B     		ldr	r3, [sp, #8]
 1666 07c8 1B6C     		ldr	r3, [r3, #64]
 1667 07ca 9DF80310 		ldrb	r1, [sp, #3]	@ zero_extendqisi2
 1668 07ce 9DF80220 		ldrb	r2, [sp, #2]	@ zero_extendqisi2
 1669 07d2 0398     		ldr	r0, [sp, #12]
 1670 07d4 9847     		blx	r3
 1671 07d6 0346     		mov	r3, r0
 1672 07d8 012B     		cmp	r3, #1
 1673 07da 01D1     		bne	.L120
 1674              		.loc 1 877 0
 1675 07dc 0123     		movs	r3, #1
 1676 07de 00E0     		b	.L118
 1677              	.L120:
 1678              		.loc 1 880 0
 1679 07e0 0023     		movs	r3, #0
 1680              	.L118:
 1681              		.loc 1 881 0
 1682 07e2 1846     		mov	r0, r3
ARM GAS  /tmp/ccPuQAGd.s 			page 31


 1683 07e4 05B0     		add	sp, sp, #20
 1684              		@ sp needed
 1685 07e6 5DF804FB 		ldr	pc, [sp], #4
 1686              		.cfi_endproc
 1687              	.LFE146:
 1688              		.size	BSP_MAGNETO_Write_Reg, .-BSP_MAGNETO_Write_Reg
 1689 07ea 00BF     		.align	2
 1690 07ec AFF30080 		.p2align 4,,15
 1691              		.global	BSP_MAGNETO_Get_DRDY_Status
 1692              		.thumb
 1693              		.thumb_func
 1694              		.type	BSP_MAGNETO_Get_DRDY_Status, %function
 1695              	BSP_MAGNETO_Get_DRDY_Status:
 1696              	.LFB147:
 1697              		.loc 1 893 0
 1698              		.cfi_startproc
 1699              		@ args = 0, pretend = 0, frame = 16
 1700              		@ frame_needed = 0, uses_anonymous_args = 0
 1701 07f0 00B5     		push	{lr}
 1702              		.cfi_def_cfa_offset 4
 1703              		.cfi_offset 14, -4
 1704 07f2 85B0     		sub	sp, sp, #20
 1705              		.cfi_def_cfa_offset 24
 1706 07f4 0190     		str	r0, [sp, #4]
 1707 07f6 0091     		str	r1, [sp]
 1708              		.loc 1 895 0
 1709 07f8 019B     		ldr	r3, [sp, #4]
 1710 07fa 0393     		str	r3, [sp, #12]
 1711              		.loc 1 896 0
 1712 07fc 0023     		movs	r3, #0
 1713 07fe 0293     		str	r3, [sp, #8]
 1714              		.loc 1 898 0
 1715 0800 039B     		ldr	r3, [sp, #12]
 1716 0802 002B     		cmp	r3, #0
 1717 0804 01D1     		bne	.L122
 1718              		.loc 1 900 0
 1719 0806 0123     		movs	r3, #1
 1720 0808 13E0     		b	.L123
 1721              	.L122:
 1722              		.loc 1 903 0
 1723 080a 039B     		ldr	r3, [sp, #12]
 1724 080c DB68     		ldr	r3, [r3, #12]
 1725 080e 0293     		str	r3, [sp, #8]
 1726              		.loc 1 905 0
 1727 0810 029B     		ldr	r3, [sp, #8]
 1728 0812 5B6C     		ldr	r3, [r3, #68]
 1729 0814 002B     		cmp	r3, #0
 1730 0816 01D1     		bne	.L124
 1731              		.loc 1 907 0
 1732 0818 0123     		movs	r3, #1
 1733 081a 0AE0     		b	.L123
 1734              	.L124:
 1735              		.loc 1 910 0
 1736 081c 029B     		ldr	r3, [sp, #8]
 1737 081e 5B6C     		ldr	r3, [r3, #68]
 1738 0820 0398     		ldr	r0, [sp, #12]
 1739 0822 0099     		ldr	r1, [sp]
ARM GAS  /tmp/ccPuQAGd.s 			page 32


 1740 0824 9847     		blx	r3
 1741 0826 0346     		mov	r3, r0
 1742 0828 012B     		cmp	r3, #1
 1743 082a 01D1     		bne	.L125
 1744              		.loc 1 912 0
 1745 082c 0123     		movs	r3, #1
 1746 082e 00E0     		b	.L123
 1747              	.L125:
 1748              		.loc 1 915 0
 1749 0830 0023     		movs	r3, #0
 1750              	.L123:
 1751              		.loc 1 916 0
 1752 0832 1846     		mov	r0, r3
 1753 0834 05B0     		add	sp, sp, #20
 1754              		@ sp needed
 1755 0836 5DF804FB 		ldr	pc, [sp], #4
 1756              		.cfi_endproc
 1757              	.LFE147:
 1758              		.size	BSP_MAGNETO_Get_DRDY_Status, .-BSP_MAGNETO_Get_DRDY_Status
 1759              	.Letext0:
 1760              		.file 2 "/nfs/nfs5/home/research/hardware/arm2/gcc-arm-embedded/gcc-arm-none-eabi-4_8-2014q2/arm-n
 1761              		.file 3 "/nfs/nfs5/home/research/hardware/arm2/gcc-arm-embedded/gcc-arm-none-eabi-4_8-2014q2/arm-n
 1762              		.file 4 "../../../../../Drivers/BSP/Components/Common/component.h"
 1763              		.file 5 "../../../../../Drivers/BSP/Components/Common/sensor.h"
 1764              		.file 6 "../../../../../Drivers/BSP/Components/Common/magnetometer.h"
 1765              		.file 7 "../../../../../Drivers/BSP/Components/lsm303agr/LSM303AGR_Combo_driver_HL.h"
 1766              		.file 8 "../../../../../Drivers/BSP/Components/lsm303agr/LSM303AGR_MAG_driver_HL.h"
 1767              		.file 9 "../../../../../Drivers/BSP/SensorTile/SensorTile.h"
 1768              		.file 10 "../../../../../Drivers/BSP/SensorTile/SensorTile_magneto.h"
 1769              		.file 11 "../../../../../../ChibiOS/os/ext/CMSIS/include/core_cm4.h"