ARM GAS  /tmp/ccNtBBEs.s 			page 1


   1              		.syntax unified
   2              		.cpu cortex-m4
   3              		.fpu softvfp
   4              		.eabi_attribute 20, 1
   5              		.eabi_attribute 21, 1
   6              		.eabi_attribute 23, 3
   7              		.eabi_attribute 24, 1
   8              		.eabi_attribute 25, 1
   9              		.eabi_attribute 26, 1
  10              		.eabi_attribute 30, 6
  11              		.eabi_attribute 34, 1
  12              		.eabi_attribute 18, 4
  13              		.thumb
  14              		.file	"sensor_service.c"
  15              		.text
  16              	.Ltext0:
  17              		.cfi_sections	.debug_frame
  18              		.global	connected
  19              		.bss
  20              		.align	2
  21              		.type	connected, %object
  22              		.size	connected, 4
  23              	connected:
  24 0000 00000000 		.space	4
  25              		.global	set_connectable
  26              		.data
  27              		.type	set_connectable, %object
  28              		.size	set_connectable, 1
  29              	set_connectable:
  30 0000 01       		.byte	1
  31              		.bss
  32              		.align	1
  33              	HWServW2STHandle:
  34 0004 0000     		.space	2
  35              		.align	1
  36              	EnvironmentalCharHandle:
  37 0006 0000     		.space	2
  38              		.align	1
  39              	AccGyroMagCharHandle:
  40 0008 0000     		.space	2
  41              		.align	1
  42              	AccEventCharHandle:
  43 000a 0000     		.space	2
  44              		.align	1
  45              	AudioLevelCharHandle:
  46 000c 0000     		.space	2
  47              		.align	1
  48              	GGCharHandle:
  49 000e 0000     		.space	2
  50              		.align	1
  51              	QuaternionsCharHandle:
  52 0010 0000     		.space	2
  53              		.align	1
  54              	ECompassCharHandle:
  55 0012 0000     		.space	2
  56              		.align	1
  57              	ActivityRecCharHandle:
ARM GAS  /tmp/ccNtBBEs.s 			page 2


  58 0014 0000     		.space	2
  59              		.align	1
  60              	CarryPosRecCharHandle:
  61 0016 0000     		.space	2
  62              		.align	1
  63              	GestureRecCharHandle:
  64 0018 0000     		.space	2
  65              		.comm	BLUEVOICE_tx_handle,6,4
  66              		.comm	BLUEVOICE_Char_uuids,48,4
  67              		.align	1
  68              	ConfigServW2STHandle:
  69 001a 0000     		.space	2
  70              		.align	1
  71              	ConfigCharHandle:
  72 001c 0000     		.space	2
  73              		.align	1
  74              	ConsoleW2STHandle:
  75 001e 0000     		.space	2
  76              		.align	1
  77              	TermCharHandle:
  78 0020 0000     		.space	2
  79              		.align	1
  80              	StdErrCharHandle:
  81 0022 0000     		.space	2
  82              		.align	2
  83              	LastStderrBuffer:
  84 0024 00000000 		.space	20
  84      00000000 
  84      00000000 
  84      00000000 
  84      00000000 
  85              	LastStderrLen:
  86 0038 00       		.space	1
  87 0039 000000   		.align	2
  88              	LastTermBuffer:
  89 003c 00000000 		.space	20
  89      00000000 
  89      00000000 
  89      00000000 
  89      00000000 
  90              	LastTermLen:
  91 0050 00       		.space	1
  92              		.data
  93              		.type	EnvironmentalCharSize, %object
  94              		.size	EnvironmentalCharSize, 1
  95              	EnvironmentalCharSize:
  96 0001 02       		.byte	2
  97              		.bss
  98 0051 000000   		.align	2
  99              	SizeOfUpdateBlueFW:
 100 0054 00000000 		.space	4
 101              		.align	1
 102              	connection_handle:
 103 0058 0000     		.space	2
 104 005a 0000     		.align	2
 105              	breath:
 106 005c 00000000 		.space	4
ARM GAS  /tmp/ccNtBBEs.s 			page 3


 107              		.text
 108              		.align	2
 109              		.p2align 4,,15
 110              		.global	safe_aci_gatt_update_char_value
 111              		.thumb
 112              		.thumb_func
 113              		.type	safe_aci_gatt_update_char_value, %function
 114              	safe_aci_gatt_update_char_value:
 115              	.LFB269:
 116              		.file 1 "../../../../../Projects/Multi/Applications/BlueMicrosystem2/Src/sensor_service.c"
 117              		.loc 1 209 0
 118              		.cfi_startproc
 119              		@ args = 4, pretend = 0, frame = 16
 120              		@ frame_needed = 0, uses_anonymous_args = 0
 121 0000 10B5     		push	{r4, lr}
 122              		.cfi_def_cfa_offset 8
 123              		.cfi_offset 4, -8
 124              		.cfi_offset 14, -4
 125 0002 86B0     		sub	sp, sp, #24
 126              		.cfi_def_cfa_offset 32
 127 0004 ADF80E00 		strh	r0, [sp, #14]	@ movhi
 128 0008 ADF80C10 		strh	r1, [sp, #12]	@ movhi
 129 000c 8DF80B20 		strb	r2, [sp, #11]
 130 0010 8DF80A30 		strb	r3, [sp, #10]
 131              		.loc 1 210 0
 132 0014 6423     		movs	r3, #100
 133 0016 8DF81730 		strb	r3, [sp, #23]
 134              		.loc 1 212 0
 135 001a 124B     		ldr	r3, .L5
 136 001c 1B68     		ldr	r3, [r3]
 137 001e 002B     		cmp	r3, #0
 138 0020 05DD     		ble	.L2
 139              		.loc 1 213 0
 140 0022 104B     		ldr	r3, .L5
 141 0024 1B68     		ldr	r3, [r3]
 142 0026 5A1E     		subs	r2, r3, #1
 143 0028 0E4B     		ldr	r3, .L5
 144 002a 1A60     		str	r2, [r3]
 145 002c 15E0     		b	.L3
 146              	.L2:
 147              		.loc 1 215 0
 148 002e BDF80E00 		ldrh	r0, [sp, #14]
 149 0032 BDF80C10 		ldrh	r1, [sp, #12]
 150 0036 9DF80B20 		ldrb	r2, [sp, #11]	@ zero_extendqisi2
 151 003a 9DF80A30 		ldrb	r3, [sp, #10]	@ zero_extendqisi2
 152 003e 089C     		ldr	r4, [sp, #32]
 153 0040 0094     		str	r4, [sp]
 154 0042 FFF7FEFF 		bl	aci_gatt_update_char_value
 155 0046 0346     		mov	r3, r0
 156 0048 8DF81730 		strb	r3, [sp, #23]
 157              		.loc 1 217 0
 158 004c 9DF81730 		ldrb	r3, [sp, #23]	@ zero_extendqisi2
 159 0050 002B     		cmp	r3, #0
 160 0052 02D0     		beq	.L3
 161              		.loc 1 218 0
 162 0054 034B     		ldr	r3, .L5
 163 0056 1E22     		movs	r2, #30
ARM GAS  /tmp/ccNtBBEs.s 			page 4


 164 0058 1A60     		str	r2, [r3]
 165              	.L3:
 166              		.loc 1 222 0
 167 005a 9DF81730 		ldrb	r3, [sp, #23]	@ zero_extendqisi2
 168              		.loc 1 223 0
 169 005e 1846     		mov	r0, r3
 170 0060 06B0     		add	sp, sp, #24
 171              		@ sp needed
 172 0062 10BD     		pop	{r4, pc}
 173              	.L6:
 174              		.align	2
 175              	.L5:
 176 0064 5C000000 		.word	breath
 177              		.cfi_endproc
 178              	.LFE269:
 179              		.size	safe_aci_gatt_update_char_value, .-safe_aci_gatt_update_char_value
 180              		.align	2
 181 0068 AFF30080 		.p2align 4,,15
 181      AFF30080 
 182              		.global	Add_ConfigW2ST_Service
 183              		.thumb
 184              		.thumb_func
 185              		.type	Add_ConfigW2ST_Service, %function
 186              	Add_ConfigW2ST_Service:
 187              	.LFB270:
 188              		.loc 1 236 0
 189              		.cfi_startproc
 190              		@ args = 0, pretend = 0, frame = 24
 191              		@ frame_needed = 0, uses_anonymous_args = 0
 192 0070 00B5     		push	{lr}
 193              		.cfi_def_cfa_offset 4
 194              		.cfi_offset 14, -4
 195 0072 8DB0     		sub	sp, sp, #52
 196              		.cfi_def_cfa_offset 56
 197              		.loc 1 241 0
 198 0074 1B23     		movs	r3, #27
 199 0076 8DF81C30 		strb	r3, [sp, #28]
 200 007a C523     		movs	r3, #197
 201 007c 8DF81D30 		strb	r3, [sp, #29]
 202 0080 D523     		movs	r3, #213
 203 0082 8DF81E30 		strb	r3, [sp, #30]
 204 0086 A523     		movs	r3, #165
 205 0088 8DF81F30 		strb	r3, [sp, #31]
 206 008c 0223     		movs	r3, #2
 207 008e 8DF82030 		strb	r3, [sp, #32]
 208 0092 0023     		movs	r3, #0
 209 0094 8DF82130 		strb	r3, [sp, #33]
 210 0098 B423     		movs	r3, #180
 211 009a 8DF82230 		strb	r3, [sp, #34]
 212 009e 9A23     		movs	r3, #154
 213 00a0 8DF82330 		strb	r3, [sp, #35]
 214 00a4 E123     		movs	r3, #225
 215 00a6 8DF82430 		strb	r3, [sp, #36]
 216 00aa 1123     		movs	r3, #17
 217 00ac 8DF82530 		strb	r3, [sp, #37]
 218 00b0 0F23     		movs	r3, #15
 219 00b2 8DF82630 		strb	r3, [sp, #38]
ARM GAS  /tmp/ccNtBBEs.s 			page 5


 220 00b6 0023     		movs	r3, #0
 221 00b8 8DF82730 		strb	r3, [sp, #39]
 222 00bc 0023     		movs	r3, #0
 223 00be 8DF82830 		strb	r3, [sp, #40]
 224 00c2 0023     		movs	r3, #0
 225 00c4 8DF82930 		strb	r3, [sp, #41]
 226 00c8 0023     		movs	r3, #0
 227 00ca 8DF82A30 		strb	r3, [sp, #42]
 228 00ce 0023     		movs	r3, #0
 229 00d0 8DF82B30 		strb	r3, [sp, #43]
 230              		.loc 1 242 0
 231 00d4 07AB     		add	r3, sp, #28
 232 00d6 324A     		ldr	r2, .L13
 233 00d8 0092     		str	r2, [sp]
 234 00da 0220     		movs	r0, #2
 235 00dc 1946     		mov	r1, r3
 236 00de 0122     		movs	r2, #1
 237 00e0 0423     		movs	r3, #4
 238 00e2 FFF7FEFF 		bl	aci_gatt_add_serv
 239 00e6 0346     		mov	r3, r0
 240 00e8 8DF82F30 		strb	r3, [sp, #47]
 241              		.loc 1 244 0
 242 00ec 9DF82F30 		ldrb	r3, [sp, #47]	@ zero_extendqisi2
 243 00f0 002B     		cmp	r3, #0
 244 00f2 00D0     		beq	.L8
 245              		.loc 1 245 0
 246 00f4 4EE0     		b	.L9
 247              	.L8:
 248              		.loc 1 247 0
 249 00f6 1B23     		movs	r3, #27
 250 00f8 8DF81C30 		strb	r3, [sp, #28]
 251 00fc C523     		movs	r3, #197
 252 00fe 8DF81D30 		strb	r3, [sp, #29]
 253 0102 D523     		movs	r3, #213
 254 0104 8DF81E30 		strb	r3, [sp, #30]
 255 0108 A523     		movs	r3, #165
 256 010a 8DF81F30 		strb	r3, [sp, #31]
 257 010e 0223     		movs	r3, #2
 258 0110 8DF82030 		strb	r3, [sp, #32]
 259 0114 0023     		movs	r3, #0
 260 0116 8DF82130 		strb	r3, [sp, #33]
 261 011a 3623     		movs	r3, #54
 262 011c 8DF82230 		strb	r3, [sp, #34]
 263 0120 AC23     		movs	r3, #172
 264 0122 8DF82330 		strb	r3, [sp, #35]
 265 0126 E123     		movs	r3, #225
 266 0128 8DF82430 		strb	r3, [sp, #36]
 267 012c 1123     		movs	r3, #17
 268 012e 8DF82530 		strb	r3, [sp, #37]
 269 0132 0F23     		movs	r3, #15
 270 0134 8DF82630 		strb	r3, [sp, #38]
 271 0138 0023     		movs	r3, #0
 272 013a 8DF82730 		strb	r3, [sp, #39]
 273 013e 0223     		movs	r3, #2
 274 0140 8DF82830 		strb	r3, [sp, #40]
 275 0144 0023     		movs	r3, #0
 276 0146 8DF82930 		strb	r3, [sp, #41]
ARM GAS  /tmp/ccNtBBEs.s 			page 6


 277 014a 0023     		movs	r3, #0
 278 014c 8DF82A30 		strb	r3, [sp, #42]
 279 0150 0023     		movs	r3, #0
 280 0152 8DF82B30 		strb	r3, [sp, #43]
 281              		.loc 1 248 0
 282 0156 124B     		ldr	r3, .L13
 283 0158 1A88     		ldrh	r2, [r3]
 284 015a 07AB     		add	r3, sp, #28
 285 015c 1421     		movs	r1, #20
 286 015e 0091     		str	r1, [sp]
 287 0160 0021     		movs	r1, #0
 288 0162 0191     		str	r1, [sp, #4]
 289 0164 0521     		movs	r1, #5
 290 0166 0291     		str	r1, [sp, #8]
 291 0168 1021     		movs	r1, #16
 292 016a 0391     		str	r1, [sp, #12]
 293 016c 0121     		movs	r1, #1
 294 016e 0491     		str	r1, [sp, #16]
 295 0170 0C49     		ldr	r1, .L13+4
 296 0172 0591     		str	r1, [sp, #20]
 297 0174 1046     		mov	r0, r2
 298 0176 0221     		movs	r1, #2
 299 0178 1A46     		mov	r2, r3
 300 017a 1423     		movs	r3, #20
 301 017c FFF7FEFF 		bl	aci_gatt_add_char
 302 0180 0346     		mov	r3, r0
 303 0182 8DF82F30 		strb	r3, [sp, #47]
 304              		.loc 1 254 0
 305 0186 9DF82F30 		ldrb	r3, [sp, #47]	@ zero_extendqisi2
 306 018a 002B     		cmp	r3, #0
 307 018c 00D0     		beq	.L10
 308              		.loc 1 255 0
 309 018e 01E0     		b	.L9
 310              	.L10:
 311              		.loc 1 258 0
 312 0190 0023     		movs	r3, #0
 313 0192 00E0     		b	.L12
 314              	.L9:
 315              		.loc 1 262 0
 316 0194 4723     		movs	r3, #71
 317              	.L12:
 318              		.loc 1 263 0
 319 0196 1846     		mov	r0, r3
 320 0198 0DB0     		add	sp, sp, #52
 321              		@ sp needed
 322 019a 5DF804FB 		ldr	pc, [sp], #4
 323              	.L14:
 324 019e 00BF     		.align	2
 325              	.L13:
 326 01a0 1A000000 		.word	ConfigServW2STHandle
 327 01a4 1C000000 		.word	ConfigCharHandle
 328              		.cfi_endproc
 329              	.LFE270:
 330              		.size	Add_ConfigW2ST_Service, .-Add_ConfigW2ST_Service
 331              		.align	2
 332 01a8 AFF30080 		.p2align 4,,15
 332      AFF30080 
ARM GAS  /tmp/ccNtBBEs.s 			page 7


 333              		.global	Add_ConsoleW2ST_Service
 334              		.thumb
 335              		.thumb_func
 336              		.type	Add_ConsoleW2ST_Service, %function
 337              	Add_ConsoleW2ST_Service:
 338              	.LFB271:
 339              		.loc 1 272 0
 340              		.cfi_startproc
 341              		@ args = 0, pretend = 0, frame = 24
 342              		@ frame_needed = 0, uses_anonymous_args = 0
 343 01b0 00B5     		push	{lr}
 344              		.cfi_def_cfa_offset 4
 345              		.cfi_offset 14, -4
 346 01b2 8DB0     		sub	sp, sp, #52
 347              		.cfi_def_cfa_offset 56
 348              		.loc 1 277 0
 349 01b4 1B23     		movs	r3, #27
 350 01b6 8DF81C30 		strb	r3, [sp, #28]
 351 01ba C523     		movs	r3, #197
 352 01bc 8DF81D30 		strb	r3, [sp, #29]
 353 01c0 D523     		movs	r3, #213
 354 01c2 8DF81E30 		strb	r3, [sp, #30]
 355 01c6 A523     		movs	r3, #165
 356 01c8 8DF81F30 		strb	r3, [sp, #31]
 357 01cc 0223     		movs	r3, #2
 358 01ce 8DF82030 		strb	r3, [sp, #32]
 359 01d2 0023     		movs	r3, #0
 360 01d4 8DF82130 		strb	r3, [sp, #33]
 361 01d8 B423     		movs	r3, #180
 362 01da 8DF82230 		strb	r3, [sp, #34]
 363 01de 9A23     		movs	r3, #154
 364 01e0 8DF82330 		strb	r3, [sp, #35]
 365 01e4 E123     		movs	r3, #225
 366 01e6 8DF82430 		strb	r3, [sp, #36]
 367 01ea 1123     		movs	r3, #17
 368 01ec 8DF82530 		strb	r3, [sp, #37]
 369 01f0 0E23     		movs	r3, #14
 370 01f2 8DF82630 		strb	r3, [sp, #38]
 371 01f6 0023     		movs	r3, #0
 372 01f8 8DF82730 		strb	r3, [sp, #39]
 373 01fc 0023     		movs	r3, #0
 374 01fe 8DF82830 		strb	r3, [sp, #40]
 375 0202 0023     		movs	r3, #0
 376 0204 8DF82930 		strb	r3, [sp, #41]
 377 0208 0023     		movs	r3, #0
 378 020a 8DF82A30 		strb	r3, [sp, #42]
 379 020e 0023     		movs	r3, #0
 380 0210 8DF82B30 		strb	r3, [sp, #43]
 381              		.loc 1 278 0
 382 0214 07AB     		add	r3, sp, #28
 383 0216 584A     		ldr	r2, .L22
 384 0218 0092     		str	r2, [sp]
 385 021a 0220     		movs	r0, #2
 386 021c 1946     		mov	r1, r3
 387 021e 0122     		movs	r2, #1
 388 0220 0723     		movs	r3, #7
 389 0222 FFF7FEFF 		bl	aci_gatt_add_serv
ARM GAS  /tmp/ccNtBBEs.s 			page 8


 390 0226 0346     		mov	r3, r0
 391 0228 8DF82F30 		strb	r3, [sp, #47]
 392              		.loc 1 280 0
 393 022c 9DF82F30 		ldrb	r3, [sp, #47]	@ zero_extendqisi2
 394 0230 002B     		cmp	r3, #0
 395 0232 00D0     		beq	.L16
 396              		.loc 1 281 0
 397 0234 9BE0     		b	.L17
 398              	.L16:
 399              		.loc 1 284 0
 400 0236 1B23     		movs	r3, #27
 401 0238 8DF81C30 		strb	r3, [sp, #28]
 402 023c C523     		movs	r3, #197
 403 023e 8DF81D30 		strb	r3, [sp, #29]
 404 0242 D523     		movs	r3, #213
 405 0244 8DF81E30 		strb	r3, [sp, #30]
 406 0248 A523     		movs	r3, #165
 407 024a 8DF81F30 		strb	r3, [sp, #31]
 408 024e 0223     		movs	r3, #2
 409 0250 8DF82030 		strb	r3, [sp, #32]
 410 0254 0023     		movs	r3, #0
 411 0256 8DF82130 		strb	r3, [sp, #33]
 412 025a 3623     		movs	r3, #54
 413 025c 8DF82230 		strb	r3, [sp, #34]
 414 0260 AC23     		movs	r3, #172
 415 0262 8DF82330 		strb	r3, [sp, #35]
 416 0266 E123     		movs	r3, #225
 417 0268 8DF82430 		strb	r3, [sp, #36]
 418 026c 1123     		movs	r3, #17
 419 026e 8DF82530 		strb	r3, [sp, #37]
 420 0272 0E23     		movs	r3, #14
 421 0274 8DF82630 		strb	r3, [sp, #38]
 422 0278 0023     		movs	r3, #0
 423 027a 8DF82730 		strb	r3, [sp, #39]
 424 027e 0123     		movs	r3, #1
 425 0280 8DF82830 		strb	r3, [sp, #40]
 426 0284 0023     		movs	r3, #0
 427 0286 8DF82930 		strb	r3, [sp, #41]
 428 028a 0023     		movs	r3, #0
 429 028c 8DF82A30 		strb	r3, [sp, #42]
 430 0290 0023     		movs	r3, #0
 431 0292 8DF82B30 		strb	r3, [sp, #43]
 432              		.loc 1 285 0
 433 0296 384B     		ldr	r3, .L22
 434 0298 1A88     		ldrh	r2, [r3]
 435 029a 07AB     		add	r3, sp, #28
 436 029c 1E21     		movs	r1, #30
 437 029e 0091     		str	r1, [sp]
 438 02a0 0021     		movs	r1, #0
 439 02a2 0191     		str	r1, [sp, #4]
 440 02a4 0521     		movs	r1, #5
 441 02a6 0291     		str	r1, [sp, #8]
 442 02a8 1021     		movs	r1, #16
 443 02aa 0391     		str	r1, [sp, #12]
 444 02ac 0121     		movs	r1, #1
 445 02ae 0491     		str	r1, [sp, #16]
 446 02b0 3249     		ldr	r1, .L22+4
ARM GAS  /tmp/ccNtBBEs.s 			page 9


 447 02b2 0591     		str	r1, [sp, #20]
 448 02b4 1046     		mov	r0, r2
 449 02b6 0221     		movs	r1, #2
 450 02b8 1A46     		mov	r2, r3
 451 02ba 1423     		movs	r3, #20
 452 02bc FFF7FEFF 		bl	aci_gatt_add_char
 453 02c0 0346     		mov	r3, r0
 454 02c2 8DF82F30 		strb	r3, [sp, #47]
 455              		.loc 1 291 0
 456 02c6 9DF82F30 		ldrb	r3, [sp, #47]	@ zero_extendqisi2
 457 02ca 002B     		cmp	r3, #0
 458 02cc 00D0     		beq	.L18
 459              		.loc 1 292 0
 460 02ce 4EE0     		b	.L17
 461              	.L18:
 462              		.loc 1 295 0
 463 02d0 1B23     		movs	r3, #27
 464 02d2 8DF81C30 		strb	r3, [sp, #28]
 465 02d6 C523     		movs	r3, #197
 466 02d8 8DF81D30 		strb	r3, [sp, #29]
 467 02dc D523     		movs	r3, #213
 468 02de 8DF81E30 		strb	r3, [sp, #30]
 469 02e2 A523     		movs	r3, #165
 470 02e4 8DF81F30 		strb	r3, [sp, #31]
 471 02e8 0223     		movs	r3, #2
 472 02ea 8DF82030 		strb	r3, [sp, #32]
 473 02ee 0023     		movs	r3, #0
 474 02f0 8DF82130 		strb	r3, [sp, #33]
 475 02f4 3623     		movs	r3, #54
 476 02f6 8DF82230 		strb	r3, [sp, #34]
 477 02fa AC23     		movs	r3, #172
 478 02fc 8DF82330 		strb	r3, [sp, #35]
 479 0300 E123     		movs	r3, #225
 480 0302 8DF82430 		strb	r3, [sp, #36]
 481 0306 1123     		movs	r3, #17
 482 0308 8DF82530 		strb	r3, [sp, #37]
 483 030c 0E23     		movs	r3, #14
 484 030e 8DF82630 		strb	r3, [sp, #38]
 485 0312 0023     		movs	r3, #0
 486 0314 8DF82730 		strb	r3, [sp, #39]
 487 0318 0223     		movs	r3, #2
 488 031a 8DF82830 		strb	r3, [sp, #40]
 489 031e 0023     		movs	r3, #0
 490 0320 8DF82930 		strb	r3, [sp, #41]
 491 0324 0023     		movs	r3, #0
 492 0326 8DF82A30 		strb	r3, [sp, #42]
 493 032a 0023     		movs	r3, #0
 494 032c 8DF82B30 		strb	r3, [sp, #43]
 495              		.loc 1 296 0
 496 0330 114B     		ldr	r3, .L22
 497 0332 1A88     		ldrh	r2, [r3]
 498 0334 07AB     		add	r3, sp, #28
 499 0336 1221     		movs	r1, #18
 500 0338 0091     		str	r1, [sp]
 501 033a 0021     		movs	r1, #0
 502 033c 0191     		str	r1, [sp, #4]
 503 033e 0421     		movs	r1, #4
ARM GAS  /tmp/ccNtBBEs.s 			page 10


 504 0340 0291     		str	r1, [sp, #8]
 505 0342 1021     		movs	r1, #16
 506 0344 0391     		str	r1, [sp, #12]
 507 0346 0121     		movs	r1, #1
 508 0348 0491     		str	r1, [sp, #16]
 509 034a 0D49     		ldr	r1, .L22+8
 510 034c 0591     		str	r1, [sp, #20]
 511 034e 1046     		mov	r0, r2
 512 0350 0221     		movs	r1, #2
 513 0352 1A46     		mov	r2, r3
 514 0354 1423     		movs	r3, #20
 515 0356 FFF7FEFF 		bl	aci_gatt_add_char
 516 035a 0346     		mov	r3, r0
 517 035c 8DF82F30 		strb	r3, [sp, #47]
 518              		.loc 1 302 0
 519 0360 9DF82F30 		ldrb	r3, [sp, #47]	@ zero_extendqisi2
 520 0364 002B     		cmp	r3, #0
 521 0366 00D0     		beq	.L19
 522              		.loc 1 303 0
 523 0368 01E0     		b	.L17
 524              	.L19:
 525              		.loc 1 306 0
 526 036a 0023     		movs	r3, #0
 527 036c 00E0     		b	.L21
 528              	.L17:
 529              		.loc 1 310 0
 530 036e 4723     		movs	r3, #71
 531              	.L21:
 532              		.loc 1 311 0
 533 0370 1846     		mov	r0, r3
 534 0372 0DB0     		add	sp, sp, #52
 535              		@ sp needed
 536 0374 5DF804FB 		ldr	pc, [sp], #4
 537              	.L23:
 538              		.align	2
 539              	.L22:
 540 0378 1E000000 		.word	ConsoleW2STHandle
 541 037c 20000000 		.word	TermCharHandle
 542 0380 22000000 		.word	StdErrCharHandle
 543              		.cfi_endproc
 544              	.LFE271:
 545              		.size	Add_ConsoleW2ST_Service, .-Add_ConsoleW2ST_Service
 546              		.align	2
 547 0384 AFF30080 		.p2align 4,,15
 547      AFF30080 
 547      AFF30080 
 548              		.global	Stderr_Update
 549              		.thumb
 550              		.thumb_func
 551              		.type	Stderr_Update, %function
 552              	Stderr_Update:
 553              	.LFB272:
 554              		.loc 1 320 0
 555              		.cfi_startproc
 556              		@ args = 0, pretend = 0, frame = 16
 557              		@ frame_needed = 0, uses_anonymous_args = 0
 558 0390 00B5     		push	{lr}
ARM GAS  /tmp/ccNtBBEs.s 			page 11


 559              		.cfi_def_cfa_offset 4
 560              		.cfi_offset 14, -4
 561 0392 87B0     		sub	sp, sp, #28
 562              		.cfi_def_cfa_offset 32
 563 0394 0390     		str	r0, [sp, #12]
 564 0396 0B46     		mov	r3, r1
 565 0398 8DF80B30 		strb	r3, [sp, #11]
 566              		.loc 1 326 0
 567 039c 0023     		movs	r3, #0
 568 039e 8DF81730 		strb	r3, [sp, #23]
 569 03a2 3DE0     		b	.L25
 570              	.L28:
 571              		.loc 1 327 0
 572 03a4 9DF80B20 		ldrb	r2, [sp, #11]
 573 03a8 9DF81730 		ldrb	r3, [sp, #23]
 574 03ac D31A     		subs	r3, r2, r3
 575 03ae 8DF81630 		strb	r3, [sp, #22]
 576              		.loc 1 328 0
 577 03b2 9DF81630 		ldrb	r3, [sp, #22]	@ zero_extendqisi2
 578 03b6 142B     		cmp	r3, #20
 579 03b8 28BF     		it	cs
 580 03ba 1423     		movcs	r3, #20
 581 03bc 8DF81630 		strb	r3, [sp, #22]
 582              		.loc 1 331 0
 583 03c0 9DF81730 		ldrb	r3, [sp, #23]	@ zero_extendqisi2
 584 03c4 039A     		ldr	r2, [sp, #12]
 585 03c6 1A44     		add	r2, r2, r3
 586 03c8 9DF81630 		ldrb	r3, [sp, #22]	@ zero_extendqisi2
 587 03cc 1A48     		ldr	r0, .L29
 588 03ce 1146     		mov	r1, r2
 589 03d0 1A46     		mov	r2, r3
 590 03d2 FFF7FEFF 		bl	memcpy
 591              		.loc 1 332 0
 592 03d6 194B     		ldr	r3, .L29+4
 593 03d8 9DF81620 		ldrb	r2, [sp, #22]
 594 03dc 1A70     		strb	r2, [r3]
 595              		.loc 1 334 0
 596 03de 184B     		ldr	r3, .L29+8
 597 03e0 1988     		ldrh	r1, [r3]
 598 03e2 184B     		ldr	r3, .L29+12
 599 03e4 1A88     		ldrh	r2, [r3]
 600 03e6 9DF81730 		ldrb	r3, [sp, #23]	@ zero_extendqisi2
 601 03ea 0398     		ldr	r0, [sp, #12]
 602 03ec 1844     		add	r0, r0, r3
 603 03ee 9DF81630 		ldrb	r3, [sp, #22]	@ zero_extendqisi2
 604 03f2 0090     		str	r0, [sp]
 605 03f4 0846     		mov	r0, r1
 606 03f6 1146     		mov	r1, r2
 607 03f8 0022     		movs	r2, #0
 608 03fa FFF7FEFF 		bl	aci_gatt_update_char_value
 609 03fe 0346     		mov	r3, r0
 610 0400 8DF81530 		strb	r3, [sp, #21]
 611              		.loc 1 335 0
 612 0404 9DF81530 		ldrb	r3, [sp, #21]	@ zero_extendqisi2
 613 0408 002B     		cmp	r3, #0
 614 040a 01D0     		beq	.L26
 615              		.loc 1 336 0
ARM GAS  /tmp/ccNtBBEs.s 			page 12


 616 040c 4723     		movs	r3, #71
 617 040e 0EE0     		b	.L27
 618              	.L26:
 619              		.loc 1 338 0
 620 0410 0A20     		movs	r0, #10
 621 0412 FFF7FEFF 		bl	HAL_Delay
 622              		.loc 1 326 0
 623 0416 9DF81730 		ldrb	r3, [sp, #23]
 624 041a 1433     		adds	r3, r3, #20
 625 041c 8DF81730 		strb	r3, [sp, #23]
 626              	.L25:
 627              		.loc 1 326 0 is_stmt 0 discriminator 1
 628 0420 9DF81720 		ldrb	r2, [sp, #23]	@ zero_extendqisi2
 629 0424 9DF80B30 		ldrb	r3, [sp, #11]	@ zero_extendqisi2
 630 0428 9A42     		cmp	r2, r3
 631 042a BBD3     		bcc	.L28
 632              		.loc 1 341 0 is_stmt 1
 633 042c 0023     		movs	r3, #0
 634              	.L27:
 635              		.loc 1 342 0
 636 042e 1846     		mov	r0, r3
 637 0430 07B0     		add	sp, sp, #28
 638              		@ sp needed
 639 0432 5DF804FB 		ldr	pc, [sp], #4
 640              	.L30:
 641 0436 00BF     		.align	2
 642              	.L29:
 643 0438 24000000 		.word	LastStderrBuffer
 644 043c 38000000 		.word	LastStderrLen
 645 0440 1E000000 		.word	ConsoleW2STHandle
 646 0444 22000000 		.word	StdErrCharHandle
 647              		.cfi_endproc
 648              	.LFE272:
 649              		.size	Stderr_Update, .-Stderr_Update
 650              		.align	2
 651 0448 AFF30080 		.p2align 4,,15
 651      AFF30080 
 652              		.global	Term_Update
 653              		.thumb
 654              		.thumb_func
 655              		.type	Term_Update, %function
 656              	Term_Update:
 657              	.LFB273:
 658              		.loc 1 351 0
 659              		.cfi_startproc
 660              		@ args = 0, pretend = 0, frame = 16
 661              		@ frame_needed = 0, uses_anonymous_args = 0
 662 0450 00B5     		push	{lr}
 663              		.cfi_def_cfa_offset 4
 664              		.cfi_offset 14, -4
 665 0452 87B0     		sub	sp, sp, #28
 666              		.cfi_def_cfa_offset 32
 667 0454 0390     		str	r0, [sp, #12]
 668 0456 0B46     		mov	r3, r1
 669 0458 8DF80B30 		strb	r3, [sp, #11]
 670              		.loc 1 357 0
 671 045c 0023     		movs	r3, #0
ARM GAS  /tmp/ccNtBBEs.s 			page 13


 672 045e 8DF81730 		strb	r3, [sp, #23]
 673 0462 3DE0     		b	.L32
 674              	.L35:
 675              		.loc 1 358 0
 676 0464 9DF80B20 		ldrb	r2, [sp, #11]
 677 0468 9DF81730 		ldrb	r3, [sp, #23]
 678 046c D31A     		subs	r3, r2, r3
 679 046e 8DF81630 		strb	r3, [sp, #22]
 680              		.loc 1 359 0
 681 0472 9DF81630 		ldrb	r3, [sp, #22]	@ zero_extendqisi2
 682 0476 142B     		cmp	r3, #20
 683 0478 28BF     		it	cs
 684 047a 1423     		movcs	r3, #20
 685 047c 8DF81630 		strb	r3, [sp, #22]
 686              		.loc 1 362 0
 687 0480 9DF81730 		ldrb	r3, [sp, #23]	@ zero_extendqisi2
 688 0484 039A     		ldr	r2, [sp, #12]
 689 0486 1A44     		add	r2, r2, r3
 690 0488 9DF81630 		ldrb	r3, [sp, #22]	@ zero_extendqisi2
 691 048c 1A48     		ldr	r0, .L36
 692 048e 1146     		mov	r1, r2
 693 0490 1A46     		mov	r2, r3
 694 0492 FFF7FEFF 		bl	memcpy
 695              		.loc 1 363 0
 696 0496 194B     		ldr	r3, .L36+4
 697 0498 9DF81620 		ldrb	r2, [sp, #22]
 698 049c 1A70     		strb	r2, [r3]
 699              		.loc 1 365 0
 700 049e 184B     		ldr	r3, .L36+8
 701 04a0 1988     		ldrh	r1, [r3]
 702 04a2 184B     		ldr	r3, .L36+12
 703 04a4 1A88     		ldrh	r2, [r3]
 704 04a6 9DF81730 		ldrb	r3, [sp, #23]	@ zero_extendqisi2
 705 04aa 0398     		ldr	r0, [sp, #12]
 706 04ac 1844     		add	r0, r0, r3
 707 04ae 9DF81630 		ldrb	r3, [sp, #22]	@ zero_extendqisi2
 708 04b2 0090     		str	r0, [sp]
 709 04b4 0846     		mov	r0, r1
 710 04b6 1146     		mov	r1, r2
 711 04b8 0022     		movs	r2, #0
 712 04ba FFF7FEFF 		bl	aci_gatt_update_char_value
 713 04be 0346     		mov	r3, r0
 714 04c0 8DF81530 		strb	r3, [sp, #21]
 715              		.loc 1 366 0
 716 04c4 9DF81530 		ldrb	r3, [sp, #21]	@ zero_extendqisi2
 717 04c8 002B     		cmp	r3, #0
 718 04ca 01D0     		beq	.L33
 719              		.loc 1 368 0
 720 04cc 4723     		movs	r3, #71
 721 04ce 0EE0     		b	.L34
 722              	.L33:
 723              		.loc 1 370 0
 724 04d0 1420     		movs	r0, #20
 725 04d2 FFF7FEFF 		bl	HAL_Delay
 726              		.loc 1 357 0
 727 04d6 9DF81730 		ldrb	r3, [sp, #23]
 728 04da 1433     		adds	r3, r3, #20
ARM GAS  /tmp/ccNtBBEs.s 			page 14


 729 04dc 8DF81730 		strb	r3, [sp, #23]
 730              	.L32:
 731              		.loc 1 357 0 is_stmt 0 discriminator 1
 732 04e0 9DF81720 		ldrb	r2, [sp, #23]	@ zero_extendqisi2
 733 04e4 9DF80B30 		ldrb	r3, [sp, #11]	@ zero_extendqisi2
 734 04e8 9A42     		cmp	r2, r3
 735 04ea BBD3     		bcc	.L35
 736              		.loc 1 373 0 is_stmt 1
 737 04ec 0023     		movs	r3, #0
 738              	.L34:
 739              		.loc 1 374 0
 740 04ee 1846     		mov	r0, r3
 741 04f0 07B0     		add	sp, sp, #28
 742              		@ sp needed
 743 04f2 5DF804FB 		ldr	pc, [sp], #4
 744              	.L37:
 745 04f6 00BF     		.align	2
 746              	.L36:
 747 04f8 3C000000 		.word	LastTermBuffer
 748 04fc 50000000 		.word	LastTermLen
 749 0500 1E000000 		.word	ConsoleW2STHandle
 750 0504 20000000 		.word	TermCharHandle
 751              		.cfi_endproc
 752              	.LFE273:
 753              		.size	Term_Update, .-Term_Update
 754              		.align	2
 755 0508 AFF30080 		.p2align 4,,15
 755      AFF30080 
 756              		.thumb
 757              		.thumb_func
 758              		.type	Stderr_Update_AfterRead, %function
 759              	Stderr_Update_AfterRead:
 760              	.LFB274:
 761              		.loc 1 382 0
 762              		.cfi_startproc
 763              		@ args = 0, pretend = 0, frame = 8
 764              		@ frame_needed = 0, uses_anonymous_args = 0
 765 0510 00B5     		push	{lr}
 766              		.cfi_def_cfa_offset 4
 767              		.cfi_offset 14, -4
 768 0512 85B0     		sub	sp, sp, #20
 769              		.cfi_def_cfa_offset 24
 770              		.loc 1 385 0
 771 0514 0D4B     		ldr	r3, .L41
 772 0516 1988     		ldrh	r1, [r3]
 773 0518 0D4B     		ldr	r3, .L41+4
 774 051a 1A88     		ldrh	r2, [r3]
 775 051c 0D4B     		ldr	r3, .L41+8
 776 051e 1B78     		ldrb	r3, [r3]	@ zero_extendqisi2
 777 0520 0D48     		ldr	r0, .L41+12
 778 0522 0090     		str	r0, [sp]
 779 0524 0846     		mov	r0, r1
 780 0526 1146     		mov	r1, r2
 781 0528 0022     		movs	r2, #0
 782 052a FFF7FEFF 		bl	aci_gatt_update_char_value
 783 052e 0346     		mov	r3, r0
 784 0530 8DF80F30 		strb	r3, [sp, #15]
ARM GAS  /tmp/ccNtBBEs.s 			page 15


 785              		.loc 1 386 0
 786 0534 9DF80F30 		ldrb	r3, [sp, #15]	@ zero_extendqisi2
 787 0538 002B     		cmp	r3, #0
 788 053a 01D0     		beq	.L39
 789              		.loc 1 387 0
 790 053c 4723     		movs	r3, #71
 791 053e 00E0     		b	.L40
 792              	.L39:
 793              		.loc 1 390 0
 794 0540 0023     		movs	r3, #0
 795              	.L40:
 796              		.loc 1 391 0
 797 0542 1846     		mov	r0, r3
 798 0544 05B0     		add	sp, sp, #20
 799              		@ sp needed
 800 0546 5DF804FB 		ldr	pc, [sp], #4
 801              	.L42:
 802 054a 00BF     		.align	2
 803              	.L41:
 804 054c 1E000000 		.word	ConsoleW2STHandle
 805 0550 22000000 		.word	StdErrCharHandle
 806 0554 38000000 		.word	LastStderrLen
 807 0558 24000000 		.word	LastStderrBuffer
 808              		.cfi_endproc
 809              	.LFE274:
 810              		.size	Stderr_Update_AfterRead, .-Stderr_Update_AfterRead
 811              		.section	.rodata
 812              		.align	2
 813              	.LC2:
 814 0000 4572726F 		.ascii	"Error Updating Stdout Char\015\012\000"
 814      72205570 
 814      64617469 
 814      6E672053 
 814      74646F75 
 815              		.text
 816              		.align	2
 817 055c AFF30080 		.p2align 4,,15
 818              		.thumb
 819              		.thumb_func
 820              		.type	Term_Update_AfterRead, %function
 821              	Term_Update_AfterRead:
 822              	.LFB275:
 823              		.loc 1 399 0
 824              		.cfi_startproc
 825              		@ args = 0, pretend = 0, frame = 8
 826              		@ frame_needed = 0, uses_anonymous_args = 0
 827 0560 30B5     		push	{r4, r5, lr}
 828              		.cfi_def_cfa_offset 12
 829              		.cfi_offset 4, -12
 830              		.cfi_offset 5, -8
 831              		.cfi_offset 14, -4
 832 0562 85B0     		sub	sp, sp, #20
 833              		.cfi_def_cfa_offset 32
 834              		.loc 1 402 0
 835 0564 1C4B     		ldr	r3, .L47
 836 0566 1988     		ldrh	r1, [r3]
 837 0568 1C4B     		ldr	r3, .L47+4
ARM GAS  /tmp/ccNtBBEs.s 			page 16


 838 056a 1A88     		ldrh	r2, [r3]
 839 056c 1C4B     		ldr	r3, .L47+8
 840 056e 1B78     		ldrb	r3, [r3]	@ zero_extendqisi2
 841 0570 1C48     		ldr	r0, .L47+12
 842 0572 0090     		str	r0, [sp]
 843 0574 0846     		mov	r0, r1
 844 0576 1146     		mov	r1, r2
 845 0578 0022     		movs	r2, #0
 846 057a FFF7FEFF 		bl	aci_gatt_update_char_value
 847 057e 0346     		mov	r3, r0
 848 0580 8DF80F30 		strb	r3, [sp, #15]
 849              		.loc 1 403 0
 850 0584 9DF80F30 		ldrb	r3, [sp, #15]	@ zero_extendqisi2
 851 0588 002B     		cmp	r3, #0
 852 058a 20D0     		beq	.L44
 853              		.loc 1 404 0
 854 058c 164B     		ldr	r3, .L47+16
 855 058e 1B68     		ldr	r3, [r3]
 856 0590 03F40063 		and	r3, r3, #2048
 857 0594 002B     		cmp	r3, #0
 858 0596 18D0     		beq	.L45
 859              		.loc 1 405 0
 860 0598 144A     		ldr	r2, .L47+20
 861 059a 154B     		ldr	r3, .L47+24
 862 059c 1546     		mov	r5, r2
 863 059e 1C46     		mov	r4, r3
 864 05a0 0FCC     		ldmia	r4!, {r0, r1, r2, r3}
 865 05a2 2860     		str	r0, [r5]	@ unaligned
 866 05a4 6960     		str	r1, [r5, #4]	@ unaligned
 867 05a6 AA60     		str	r2, [r5, #8]	@ unaligned
 868 05a8 EB60     		str	r3, [r5, #12]	@ unaligned
 869 05aa 07CC     		ldmia	r4!, {r0, r1, r2}
 870 05ac 2861     		str	r0, [r5, #16]	@ unaligned
 871 05ae 6961     		str	r1, [r5, #20]	@ unaligned
 872 05b0 AA61     		str	r2, [r5, #24]	@ unaligned
 873 05b2 2378     		ldrb	r3, [r4]
 874 05b4 2B77     		strb	r3, [r5, #28]
 875 05b6 0F4B     		ldr	r3, .L47+28
 876 05b8 1C22     		movs	r2, #28
 877 05ba 1A60     		str	r2, [r3]
 878              		.loc 1 406 0
 879 05bc 0D4B     		ldr	r3, .L47+28
 880 05be 1B68     		ldr	r3, [r3]
 881 05c0 DBB2     		uxtb	r3, r3
 882 05c2 0A48     		ldr	r0, .L47+20
 883 05c4 1946     		mov	r1, r3
 884 05c6 FFF7FEFF 		bl	Stderr_Update
 885              	.L45:
 886              		.loc 1 410 0
 887 05ca 4723     		movs	r3, #71
 888 05cc 00E0     		b	.L46
 889              	.L44:
 890              		.loc 1 413 0
 891 05ce 0023     		movs	r3, #0
 892              	.L46:
 893              		.loc 1 414 0
 894 05d0 1846     		mov	r0, r3
ARM GAS  /tmp/ccNtBBEs.s 			page 17


 895 05d2 05B0     		add	sp, sp, #20
 896              		@ sp needed
 897 05d4 30BD     		pop	{r4, r5, pc}
 898              	.L48:
 899 05d6 00BF     		.align	2
 900              	.L47:
 901 05d8 1E000000 		.word	ConsoleW2STHandle
 902 05dc 20000000 		.word	TermCharHandle
 903 05e0 50000000 		.word	LastTermLen
 904 05e4 3C000000 		.word	LastTermBuffer
 905 05e8 00000000 		.word	ConnectionBleStatus
 906 05ec 00000000 		.word	BufferToWrite
 907 05f0 00000000 		.word	.LC2
 908 05f4 00000000 		.word	BytesToWrite
 909              		.cfi_endproc
 910              	.LFE275:
 911              		.size	Term_Update_AfterRead, .-Term_Update_AfterRead
 912              		.section	.rodata
 913 001d 000000   		.align	2
 914              	.LC3:
 915 0020 4572726F 		.ascii	"Error Updating Quat Char\015\012\000"
 915      72205570 
 915      64617469 
 915      6E672051 
 915      75617420 
 916              		.text
 917              		.align	2
 918 05f8 AFF30080 		.p2align 4,,15
 918      AFF30080 
 919              		.global	Quat_Update
 920              		.thumb
 921              		.thumb_func
 922              		.type	Quat_Update, %function
 923              	Quat_Update:
 924              	.LFB276:
 925              		.loc 1 423 0
 926              		.cfi_startproc
 927              		@ args = 0, pretend = 0, frame = 32
 928              		@ frame_needed = 0, uses_anonymous_args = 0
 929 0600 30B5     		push	{r4, r5, lr}
 930              		.cfi_def_cfa_offset 12
 931              		.cfi_offset 4, -12
 932              		.cfi_offset 5, -8
 933              		.cfi_offset 14, -4
 934 0602 8BB0     		sub	sp, sp, #44
 935              		.cfi_def_cfa_offset 56
 936 0604 0390     		str	r0, [sp, #12]
 937              		.loc 1 428 0
 938 0606 FFF7FEFF 		bl	HAL_GetTick
 939 060a 0346     		mov	r3, r0
 940 060c DB08     		lsrs	r3, r3, #3
 941 060e DBB2     		uxtb	r3, r3
 942 0610 8DF81030 		strb	r3, [sp, #16]
 943 0614 FFF7FEFF 		bl	HAL_GetTick
 944 0618 0346     		mov	r3, r0
 945 061a DB0A     		lsrs	r3, r3, #11
 946 061c DBB2     		uxtb	r3, r3
ARM GAS  /tmp/ccNtBBEs.s 			page 18


 947 061e 8DF81130 		strb	r3, [sp, #17]
 948              		.loc 1 443 0
 949 0622 039B     		ldr	r3, [sp, #12]
 950 0624 1B68     		ldr	r3, [r3]
 951 0626 DBB2     		uxtb	r3, r3
 952 0628 8DF81230 		strb	r3, [sp, #18]
 953 062c 039B     		ldr	r3, [sp, #12]
 954 062e 1B68     		ldr	r3, [r3]
 955 0630 1B12     		asrs	r3, r3, #8
 956 0632 DBB2     		uxtb	r3, r3
 957 0634 8DF81330 		strb	r3, [sp, #19]
 958              		.loc 1 444 0
 959 0638 039B     		ldr	r3, [sp, #12]
 960 063a 5B68     		ldr	r3, [r3, #4]
 961 063c DBB2     		uxtb	r3, r3
 962 063e 8DF81430 		strb	r3, [sp, #20]
 963 0642 039B     		ldr	r3, [sp, #12]
 964 0644 5B68     		ldr	r3, [r3, #4]
 965 0646 1B12     		asrs	r3, r3, #8
 966 0648 DBB2     		uxtb	r3, r3
 967 064a 8DF81530 		strb	r3, [sp, #21]
 968              		.loc 1 445 0
 969 064e 039B     		ldr	r3, [sp, #12]
 970 0650 9B68     		ldr	r3, [r3, #8]
 971 0652 DBB2     		uxtb	r3, r3
 972 0654 8DF81630 		strb	r3, [sp, #22]
 973 0658 039B     		ldr	r3, [sp, #12]
 974 065a 9B68     		ldr	r3, [r3, #8]
 975 065c 1B12     		asrs	r3, r3, #8
 976 065e DBB2     		uxtb	r3, r3
 977 0660 8DF81730 		strb	r3, [sp, #23]
 978              		.loc 1 447 0
 979 0664 039B     		ldr	r3, [sp, #12]
 980 0666 0C33     		adds	r3, r3, #12
 981 0668 1B68     		ldr	r3, [r3]
 982 066a DBB2     		uxtb	r3, r3
 983 066c 8DF81830 		strb	r3, [sp, #24]
 984 0670 039B     		ldr	r3, [sp, #12]
 985 0672 0C33     		adds	r3, r3, #12
 986 0674 1B68     		ldr	r3, [r3]
 987 0676 1B12     		asrs	r3, r3, #8
 988 0678 DBB2     		uxtb	r3, r3
 989 067a 8DF81930 		strb	r3, [sp, #25]
 990              		.loc 1 448 0
 991 067e 039B     		ldr	r3, [sp, #12]
 992 0680 0C33     		adds	r3, r3, #12
 993 0682 5B68     		ldr	r3, [r3, #4]
 994 0684 DBB2     		uxtb	r3, r3
 995 0686 8DF81A30 		strb	r3, [sp, #26]
 996 068a 039B     		ldr	r3, [sp, #12]
 997 068c 0C33     		adds	r3, r3, #12
 998 068e 5B68     		ldr	r3, [r3, #4]
 999 0690 1B12     		asrs	r3, r3, #8
 1000 0692 DBB2     		uxtb	r3, r3
 1001 0694 8DF81B30 		strb	r3, [sp, #27]
 1002              		.loc 1 449 0
 1003 0698 039B     		ldr	r3, [sp, #12]
ARM GAS  /tmp/ccNtBBEs.s 			page 19


 1004 069a 0C33     		adds	r3, r3, #12
 1005 069c 9B68     		ldr	r3, [r3, #8]
 1006 069e DBB2     		uxtb	r3, r3
 1007 06a0 8DF81C30 		strb	r3, [sp, #28]
 1008 06a4 039B     		ldr	r3, [sp, #12]
 1009 06a6 0C33     		adds	r3, r3, #12
 1010 06a8 9B68     		ldr	r3, [r3, #8]
 1011 06aa 1B12     		asrs	r3, r3, #8
 1012 06ac DBB2     		uxtb	r3, r3
 1013 06ae 8DF81D30 		strb	r3, [sp, #29]
 1014              		.loc 1 451 0
 1015 06b2 039B     		ldr	r3, [sp, #12]
 1016 06b4 1833     		adds	r3, r3, #24
 1017 06b6 1B68     		ldr	r3, [r3]
 1018 06b8 DBB2     		uxtb	r3, r3
 1019 06ba 8DF81E30 		strb	r3, [sp, #30]
 1020 06be 039B     		ldr	r3, [sp, #12]
 1021 06c0 1833     		adds	r3, r3, #24
 1022 06c2 1B68     		ldr	r3, [r3]
 1023 06c4 1B12     		asrs	r3, r3, #8
 1024 06c6 DBB2     		uxtb	r3, r3
 1025 06c8 8DF81F30 		strb	r3, [sp, #31]
 1026              		.loc 1 452 0
 1027 06cc 039B     		ldr	r3, [sp, #12]
 1028 06ce 1833     		adds	r3, r3, #24
 1029 06d0 5B68     		ldr	r3, [r3, #4]
 1030 06d2 DBB2     		uxtb	r3, r3
 1031 06d4 8DF82030 		strb	r3, [sp, #32]
 1032 06d8 039B     		ldr	r3, [sp, #12]
 1033 06da 1833     		adds	r3, r3, #24
 1034 06dc 5B68     		ldr	r3, [r3, #4]
 1035 06de 1B12     		asrs	r3, r3, #8
 1036 06e0 DBB2     		uxtb	r3, r3
 1037 06e2 8DF82130 		strb	r3, [sp, #33]
 1038              		.loc 1 453 0
 1039 06e6 039B     		ldr	r3, [sp, #12]
 1040 06e8 1833     		adds	r3, r3, #24
 1041 06ea 9B68     		ldr	r3, [r3, #8]
 1042 06ec DBB2     		uxtb	r3, r3
 1043 06ee 8DF82230 		strb	r3, [sp, #34]
 1044 06f2 039B     		ldr	r3, [sp, #12]
 1045 06f4 1833     		adds	r3, r3, #24
 1046 06f6 9B68     		ldr	r3, [r3, #8]
 1047 06f8 1B12     		asrs	r3, r3, #8
 1048 06fa DBB2     		uxtb	r3, r3
 1049 06fc 8DF82330 		strb	r3, [sp, #35]
 1050              		.loc 1 457 0
 1051 0700 1C4B     		ldr	r3, .L54
 1052 0702 1A88     		ldrh	r2, [r3]
 1053 0704 1C4B     		ldr	r3, .L54+4
 1054 0706 1B88     		ldrh	r3, [r3]
 1055 0708 04A9     		add	r1, sp, #16
 1056 070a 0091     		str	r1, [sp]
 1057 070c 1046     		mov	r0, r2
 1058 070e 1946     		mov	r1, r3
 1059 0710 0022     		movs	r2, #0
 1060 0712 1423     		movs	r3, #20
ARM GAS  /tmp/ccNtBBEs.s 			page 20


 1061 0714 FFF7FEFF 		bl	safe_aci_gatt_update_char_value
 1062 0718 0346     		mov	r3, r0
 1063 071a 8DF82730 		strb	r3, [sp, #39]
 1064              		.loc 1 459 0
 1065 071e 9DF82730 		ldrb	r3, [sp, #39]	@ zero_extendqisi2
 1066 0722 002B     		cmp	r3, #0
 1067 0724 21D0     		beq	.L50
 1068              		.loc 1 460 0
 1069 0726 154B     		ldr	r3, .L54+8
 1070 0728 1B68     		ldr	r3, [r3]
 1071 072a 03F40063 		and	r3, r3, #2048
 1072 072e 002B     		cmp	r3, #0
 1073 0730 19D0     		beq	.L51
 1074              		.loc 1 461 0
 1075 0732 134A     		ldr	r2, .L54+12
 1076 0734 134B     		ldr	r3, .L54+16
 1077 0736 1546     		mov	r5, r2
 1078 0738 1C46     		mov	r4, r3
 1079 073a 0FCC     		ldmia	r4!, {r0, r1, r2, r3}
 1080 073c 2860     		str	r0, [r5]	@ unaligned
 1081 073e 6960     		str	r1, [r5, #4]	@ unaligned
 1082 0740 AA60     		str	r2, [r5, #8]	@ unaligned
 1083 0742 EB60     		str	r3, [r5, #12]	@ unaligned
 1084 0744 03CC     		ldmia	r4!, {r0, r1}
 1085 0746 2861     		str	r0, [r5, #16]	@ unaligned
 1086 0748 6961     		str	r1, [r5, #20]	@ unaligned
 1087 074a 2288     		ldrh	r2, [r4]	@ unaligned
 1088 074c A378     		ldrb	r3, [r4, #2]
 1089 074e 2A83     		strh	r2, [r5, #24]	@ unaligned
 1090 0750 AB76     		strb	r3, [r5, #26]
 1091 0752 0D4B     		ldr	r3, .L54+20
 1092 0754 1A22     		movs	r2, #26
 1093 0756 1A60     		str	r2, [r3]
 1094              		.loc 1 462 0
 1095 0758 0B4B     		ldr	r3, .L54+20
 1096 075a 1B68     		ldr	r3, [r3]
 1097 075c DBB2     		uxtb	r3, r3
 1098 075e 0848     		ldr	r0, .L54+12
 1099 0760 1946     		mov	r1, r3
 1100 0762 FFF7FEFF 		bl	Stderr_Update
 1101              	.L51:
 1102              		.loc 1 466 0
 1103 0766 4723     		movs	r3, #71
 1104 0768 00E0     		b	.L53
 1105              	.L50:
 1106              		.loc 1 468 0
 1107 076a 0023     		movs	r3, #0
 1108              	.L53:
 1109              		.loc 1 469 0
 1110 076c 1846     		mov	r0, r3
 1111 076e 0BB0     		add	sp, sp, #44
 1112              		@ sp needed
 1113 0770 30BD     		pop	{r4, r5, pc}
 1114              	.L55:
 1115 0772 00BF     		.align	2
 1116              	.L54:
 1117 0774 04000000 		.word	HWServW2STHandle
ARM GAS  /tmp/ccNtBBEs.s 			page 21


 1118 0778 10000000 		.word	QuaternionsCharHandle
 1119 077c 00000000 		.word	ConnectionBleStatus
 1120 0780 00000000 		.word	BufferToWrite
 1121 0784 20000000 		.word	.LC3
 1122 0788 00000000 		.word	BytesToWrite
 1123              		.cfi_endproc
 1124              	.LFE276:
 1125              		.size	Quat_Update, .-Quat_Update
 1126              		.section	.rodata
 1127 003b 00       		.align	2
 1128              	.LC4:
 1129 003c 4572726F 		.ascii	"Error Updating E-Compass Char\015\012\000"
 1129      72205570 
 1129      64617469 
 1129      6E672045 
 1129      2D436F6D 
 1130              		.text
 1131              		.align	2
 1132 078c AFF30080 		.p2align 4,,15
 1133              		.global	ECompass_Update
 1134              		.thumb
 1135              		.thumb_func
 1136              		.type	ECompass_Update, %function
 1137              	ECompass_Update:
 1138              	.LFB277:
 1139              		.loc 1 477 0
 1140              		.cfi_startproc
 1141              		@ args = 0, pretend = 0, frame = 16
 1142              		@ frame_needed = 0, uses_anonymous_args = 0
 1143 0790 30B5     		push	{r4, r5, lr}
 1144              		.cfi_def_cfa_offset 12
 1145              		.cfi_offset 4, -12
 1146              		.cfi_offset 5, -8
 1147              		.cfi_offset 14, -4
 1148 0792 87B0     		sub	sp, sp, #28
 1149              		.cfi_def_cfa_offset 40
 1150 0794 0346     		mov	r3, r0
 1151 0796 ADF80E30 		strh	r3, [sp, #14]	@ movhi
 1152              		.loc 1 482 0
 1153 079a FFF7FEFF 		bl	HAL_GetTick
 1154 079e 0346     		mov	r3, r0
 1155 07a0 DB08     		lsrs	r3, r3, #3
 1156 07a2 DBB2     		uxtb	r3, r3
 1157 07a4 8DF81030 		strb	r3, [sp, #16]
 1158 07a8 FFF7FEFF 		bl	HAL_GetTick
 1159 07ac 0346     		mov	r3, r0
 1160 07ae DB0A     		lsrs	r3, r3, #11
 1161 07b0 DBB2     		uxtb	r3, r3
 1162 07b2 8DF81130 		strb	r3, [sp, #17]
 1163              		.loc 1 483 0
 1164 07b6 BDF80E30 		ldrh	r3, [sp, #14]	@ movhi
 1165 07ba DBB2     		uxtb	r3, r3
 1166 07bc 8DF81230 		strb	r3, [sp, #18]
 1167 07c0 BDF80E30 		ldrh	r3, [sp, #14]
 1168 07c4 1B0A     		lsrs	r3, r3, #8
 1169 07c6 9BB2     		uxth	r3, r3
 1170 07c8 DBB2     		uxtb	r3, r3
ARM GAS  /tmp/ccNtBBEs.s 			page 22


 1171 07ca 8DF81330 		strb	r3, [sp, #19]
 1172              		.loc 1 485 0
 1173 07ce 1B4B     		ldr	r3, .L61
 1174 07d0 1A88     		ldrh	r2, [r3]
 1175 07d2 1B4B     		ldr	r3, .L61+4
 1176 07d4 1B88     		ldrh	r3, [r3]
 1177 07d6 04A9     		add	r1, sp, #16
 1178 07d8 0091     		str	r1, [sp]
 1179 07da 1046     		mov	r0, r2
 1180 07dc 1946     		mov	r1, r3
 1181 07de 0022     		movs	r2, #0
 1182 07e0 0423     		movs	r3, #4
 1183 07e2 FFF7FEFF 		bl	safe_aci_gatt_update_char_value
 1184 07e6 0346     		mov	r3, r0
 1185 07e8 8DF81730 		strb	r3, [sp, #23]
 1186              		.loc 1 487 0
 1187 07ec 9DF81730 		ldrb	r3, [sp, #23]	@ zero_extendqisi2
 1188 07f0 002B     		cmp	r3, #0
 1189 07f2 1FD0     		beq	.L57
 1190              		.loc 1 488 0
 1191 07f4 134B     		ldr	r3, .L61+8
 1192 07f6 1B68     		ldr	r3, [r3]
 1193 07f8 03F40063 		and	r3, r3, #2048
 1194 07fc 002B     		cmp	r3, #0
 1195 07fe 17D0     		beq	.L58
 1196              		.loc 1 489 0
 1197 0800 114A     		ldr	r2, .L61+12
 1198 0802 124B     		ldr	r3, .L61+16
 1199 0804 1446     		mov	r4, r2
 1200 0806 1D46     		mov	r5, r3
 1201 0808 0FCD     		ldmia	r5!, {r0, r1, r2, r3}
 1202 080a 2060     		str	r0, [r4]	@ unaligned
 1203 080c 6160     		str	r1, [r4, #4]	@ unaligned
 1204 080e A260     		str	r2, [r4, #8]	@ unaligned
 1205 0810 E360     		str	r3, [r4, #12]	@ unaligned
 1206 0812 0FCD     		ldmia	r5!, {r0, r1, r2, r3}
 1207 0814 2061     		str	r0, [r4, #16]	@ unaligned
 1208 0816 6161     		str	r1, [r4, #20]	@ unaligned
 1209 0818 A261     		str	r2, [r4, #24]	@ unaligned
 1210 081a E361     		str	r3, [r4, #28]	@ unaligned
 1211 081c 0C4B     		ldr	r3, .L61+20
 1212 081e 1F22     		movs	r2, #31
 1213 0820 1A60     		str	r2, [r3]
 1214              		.loc 1 490 0
 1215 0822 0B4B     		ldr	r3, .L61+20
 1216 0824 1B68     		ldr	r3, [r3]
 1217 0826 DBB2     		uxtb	r3, r3
 1218 0828 0748     		ldr	r0, .L61+12
 1219 082a 1946     		mov	r1, r3
 1220 082c FFF7FEFF 		bl	Stderr_Update
 1221              	.L58:
 1222              		.loc 1 494 0
 1223 0830 4723     		movs	r3, #71
 1224 0832 00E0     		b	.L60
 1225              	.L57:
 1226              		.loc 1 496 0
 1227 0834 0023     		movs	r3, #0
ARM GAS  /tmp/ccNtBBEs.s 			page 23


 1228              	.L60:
 1229              		.loc 1 497 0
 1230 0836 1846     		mov	r0, r3
 1231 0838 07B0     		add	sp, sp, #28
 1232              		@ sp needed
 1233 083a 30BD     		pop	{r4, r5, pc}
 1234              	.L62:
 1235              		.align	2
 1236              	.L61:
 1237 083c 04000000 		.word	HWServW2STHandle
 1238 0840 12000000 		.word	ECompassCharHandle
 1239 0844 00000000 		.word	ConnectionBleStatus
 1240 0848 00000000 		.word	BufferToWrite
 1241 084c 3C000000 		.word	.LC4
 1242 0850 00000000 		.word	BytesToWrite
 1243              		.cfi_endproc
 1244              	.LFE277:
 1245              		.size	ECompass_Update, .-ECompass_Update
 1246              		.section	.rodata
 1247              		.align	2
 1248              	.LC5:
 1249 005c 4572726F 		.ascii	"Error Updating ActivityRec Char\015\012\000"
 1249      72205570 
 1249      64617469 
 1249      6E672041 
 1249      63746976 
 1250              		.text
 1251              		.align	2
 1252 0854 AFF30080 		.p2align 4,,15
 1252      AFF30080 
 1252      AFF30080 
 1253              		.global	ActivityRec_Update
 1254              		.thumb
 1255              		.thumb_func
 1256              		.type	ActivityRec_Update, %function
 1257              	ActivityRec_Update:
 1258              	.LFB278:
 1259              		.loc 1 507 0
 1260              		.cfi_startproc
 1261              		@ args = 0, pretend = 0, frame = 16
 1262              		@ frame_needed = 0, uses_anonymous_args = 0
 1263 0860 F0B5     		push	{r4, r5, r6, r7, lr}
 1264              		.cfi_def_cfa_offset 20
 1265              		.cfi_offset 4, -20
 1266              		.cfi_offset 5, -16
 1267              		.cfi_offset 6, -12
 1268              		.cfi_offset 7, -8
 1269              		.cfi_offset 14, -4
 1270 0862 87B0     		sub	sp, sp, #28
 1271              		.cfi_def_cfa_offset 48
 1272 0864 0346     		mov	r3, r0
 1273 0866 8DF80F30 		strb	r3, [sp, #15]
 1274              		.loc 1 512 0
 1275 086a FFF7FEFF 		bl	HAL_GetTick
 1276 086e 0346     		mov	r3, r0
 1277 0870 DB08     		lsrs	r3, r3, #3
 1278 0872 DBB2     		uxtb	r3, r3
ARM GAS  /tmp/ccNtBBEs.s 			page 24


 1279 0874 8DF81430 		strb	r3, [sp, #20]
 1280 0878 FFF7FEFF 		bl	HAL_GetTick
 1281 087c 0346     		mov	r3, r0
 1282 087e DB0A     		lsrs	r3, r3, #11
 1283 0880 DBB2     		uxtb	r3, r3
 1284 0882 8DF81530 		strb	r3, [sp, #21]
 1285              		.loc 1 513 0
 1286 0886 9DF80F30 		ldrb	r3, [sp, #15]
 1287 088a 8DF81630 		strb	r3, [sp, #22]
 1288              		.loc 1 515 0
 1289 088e 1F4B     		ldr	r3, .L69
 1290 0890 1A88     		ldrh	r2, [r3]
 1291 0892 1F4B     		ldr	r3, .L69+4
 1292 0894 1B88     		ldrh	r3, [r3]
 1293 0896 05A9     		add	r1, sp, #20
 1294 0898 0091     		str	r1, [sp]
 1295 089a 1046     		mov	r0, r2
 1296 089c 1946     		mov	r1, r3
 1297 089e 0022     		movs	r2, #0
 1298 08a0 0323     		movs	r3, #3
 1299 08a2 FFF7FEFF 		bl	aci_gatt_update_char_value
 1300 08a6 0346     		mov	r3, r0
 1301 08a8 8DF81730 		strb	r3, [sp, #23]
 1302              		.loc 1 517 0
 1303 08ac 9DF81730 		ldrb	r3, [sp, #23]	@ zero_extendqisi2
 1304 08b0 002B     		cmp	r3, #0
 1305 08b2 26D0     		beq	.L64
 1306              		.loc 1 518 0
 1307 08b4 174B     		ldr	r3, .L69+8
 1308 08b6 1B68     		ldr	r3, [r3]
 1309 08b8 03F40063 		and	r3, r3, #2048
 1310 08bc 002B     		cmp	r3, #0
 1311 08be 1ED0     		beq	.L65
 1312              		.loc 1 519 0
 1313 08c0 154B     		ldr	r3, .L69+12
 1314 08c2 164A     		ldr	r2, .L69+16
 1315 08c4 1446     		mov	r4, r2
 1316 08c6 1D46     		mov	r5, r3
 1317 08c8 04F1200E 		add	lr, r4, #32
 1318              	.L66:
 1319 08cc 2E46     		mov	r6, r5
 1320 08ce 2746     		mov	r7, r4
 1321 08d0 0FCF     		ldmia	r7!, {r0, r1, r2, r3}
 1322 08d2 3060     		str	r0, [r6]	@ unaligned
 1323 08d4 7160     		str	r1, [r6, #4]	@ unaligned
 1324 08d6 B260     		str	r2, [r6, #8]	@ unaligned
 1325 08d8 F360     		str	r3, [r6, #12]	@ unaligned
 1326 08da 1034     		adds	r4, r4, #16
 1327 08dc 1035     		adds	r5, r5, #16
 1328 08de 7445     		cmp	r4, lr
 1329 08e0 F4D1     		bne	.L66
 1330 08e2 2B46     		mov	r3, r5
 1331 08e4 2246     		mov	r2, r4
 1332 08e6 1288     		ldrh	r2, [r2]	@ unaligned
 1333 08e8 1A80     		strh	r2, [r3]	@ unaligned
 1334 08ea 0D4B     		ldr	r3, .L69+20
 1335 08ec 2122     		movs	r2, #33
ARM GAS  /tmp/ccNtBBEs.s 			page 25


 1336 08ee 1A60     		str	r2, [r3]
 1337              		.loc 1 520 0
 1338 08f0 0B4B     		ldr	r3, .L69+20
 1339 08f2 1B68     		ldr	r3, [r3]
 1340 08f4 DBB2     		uxtb	r3, r3
 1341 08f6 0848     		ldr	r0, .L69+12
 1342 08f8 1946     		mov	r1, r3
 1343 08fa FFF7FEFF 		bl	Stderr_Update
 1344              	.L65:
 1345              		.loc 1 524 0
 1346 08fe 4723     		movs	r3, #71
 1347 0900 00E0     		b	.L68
 1348              	.L64:
 1349              		.loc 1 526 0
 1350 0902 0023     		movs	r3, #0
 1351              	.L68:
 1352              		.loc 1 527 0
 1353 0904 1846     		mov	r0, r3
 1354 0906 07B0     		add	sp, sp, #28
 1355              		@ sp needed
 1356 0908 F0BD     		pop	{r4, r5, r6, r7, pc}
 1357              	.L70:
 1358 090a 00BF     		.align	2
 1359              	.L69:
 1360 090c 04000000 		.word	HWServW2STHandle
 1361 0910 14000000 		.word	ActivityRecCharHandle
 1362 0914 00000000 		.word	ConnectionBleStatus
 1363 0918 00000000 		.word	BufferToWrite
 1364 091c 5C000000 		.word	.LC5
 1365 0920 00000000 		.word	BytesToWrite
 1366              		.cfi_endproc
 1367              	.LFE278:
 1368              		.size	ActivityRec_Update, .-ActivityRec_Update
 1369              		.section	.rodata
 1370 007e 0000     		.align	2
 1371              	.LC6:
 1372 0080 4572726F 		.ascii	"Error Updating CarryPosRec Char\015\012\000"
 1372      72205570 
 1372      64617469 
 1372      6E672043 
 1372      61727279 
 1373              		.text
 1374              		.align	2
 1375 0924 AFF30080 		.p2align 4,,15
 1375      AFF30080 
 1375      AFF30080 
 1376              		.global	CarryPosRec_Update
 1377              		.thumb
 1378              		.thumb_func
 1379              		.type	CarryPosRec_Update, %function
 1380              	CarryPosRec_Update:
 1381              	.LFB279:
 1382              		.loc 1 537 0
 1383              		.cfi_startproc
 1384              		@ args = 0, pretend = 0, frame = 16
 1385              		@ frame_needed = 0, uses_anonymous_args = 0
 1386 0930 F0B5     		push	{r4, r5, r6, r7, lr}
ARM GAS  /tmp/ccNtBBEs.s 			page 26


 1387              		.cfi_def_cfa_offset 20
 1388              		.cfi_offset 4, -20
 1389              		.cfi_offset 5, -16
 1390              		.cfi_offset 6, -12
 1391              		.cfi_offset 7, -8
 1392              		.cfi_offset 14, -4
 1393 0932 87B0     		sub	sp, sp, #28
 1394              		.cfi_def_cfa_offset 48
 1395 0934 0346     		mov	r3, r0
 1396 0936 8DF80F30 		strb	r3, [sp, #15]
 1397              		.loc 1 542 0
 1398 093a FFF7FEFF 		bl	HAL_GetTick
 1399 093e 0346     		mov	r3, r0
 1400 0940 DB08     		lsrs	r3, r3, #3
 1401 0942 DBB2     		uxtb	r3, r3
 1402 0944 8DF81430 		strb	r3, [sp, #20]
 1403 0948 FFF7FEFF 		bl	HAL_GetTick
 1404 094c 0346     		mov	r3, r0
 1405 094e DB0A     		lsrs	r3, r3, #11
 1406 0950 DBB2     		uxtb	r3, r3
 1407 0952 8DF81530 		strb	r3, [sp, #21]
 1408              		.loc 1 543 0
 1409 0956 9DF80F30 		ldrb	r3, [sp, #15]
 1410 095a 8DF81630 		strb	r3, [sp, #22]
 1411              		.loc 1 545 0
 1412 095e 1F4B     		ldr	r3, .L77
 1413 0960 1A88     		ldrh	r2, [r3]
 1414 0962 1F4B     		ldr	r3, .L77+4
 1415 0964 1B88     		ldrh	r3, [r3]
 1416 0966 05A9     		add	r1, sp, #20
 1417 0968 0091     		str	r1, [sp]
 1418 096a 1046     		mov	r0, r2
 1419 096c 1946     		mov	r1, r3
 1420 096e 0022     		movs	r2, #0
 1421 0970 0323     		movs	r3, #3
 1422 0972 FFF7FEFF 		bl	aci_gatt_update_char_value
 1423 0976 0346     		mov	r3, r0
 1424 0978 8DF81730 		strb	r3, [sp, #23]
 1425              		.loc 1 547 0
 1426 097c 9DF81730 		ldrb	r3, [sp, #23]	@ zero_extendqisi2
 1427 0980 002B     		cmp	r3, #0
 1428 0982 26D0     		beq	.L72
 1429              		.loc 1 548 0
 1430 0984 174B     		ldr	r3, .L77+8
 1431 0986 1B68     		ldr	r3, [r3]
 1432 0988 03F40063 		and	r3, r3, #2048
 1433 098c 002B     		cmp	r3, #0
 1434 098e 1ED0     		beq	.L73
 1435              		.loc 1 549 0
 1436 0990 154B     		ldr	r3, .L77+12
 1437 0992 164A     		ldr	r2, .L77+16
 1438 0994 1446     		mov	r4, r2
 1439 0996 1D46     		mov	r5, r3
 1440 0998 04F1200E 		add	lr, r4, #32
 1441              	.L74:
 1442 099c 2E46     		mov	r6, r5
 1443 099e 2746     		mov	r7, r4
ARM GAS  /tmp/ccNtBBEs.s 			page 27


 1444 09a0 0FCF     		ldmia	r7!, {r0, r1, r2, r3}
 1445 09a2 3060     		str	r0, [r6]	@ unaligned
 1446 09a4 7160     		str	r1, [r6, #4]	@ unaligned
 1447 09a6 B260     		str	r2, [r6, #8]	@ unaligned
 1448 09a8 F360     		str	r3, [r6, #12]	@ unaligned
 1449 09aa 1034     		adds	r4, r4, #16
 1450 09ac 1035     		adds	r5, r5, #16
 1451 09ae 7445     		cmp	r4, lr
 1452 09b0 F4D1     		bne	.L74
 1453 09b2 2B46     		mov	r3, r5
 1454 09b4 2246     		mov	r2, r4
 1455 09b6 1288     		ldrh	r2, [r2]	@ unaligned
 1456 09b8 1A80     		strh	r2, [r3]	@ unaligned
 1457 09ba 0D4B     		ldr	r3, .L77+20
 1458 09bc 2122     		movs	r2, #33
 1459 09be 1A60     		str	r2, [r3]
 1460              		.loc 1 550 0
 1461 09c0 0B4B     		ldr	r3, .L77+20
 1462 09c2 1B68     		ldr	r3, [r3]
 1463 09c4 DBB2     		uxtb	r3, r3
 1464 09c6 0848     		ldr	r0, .L77+12
 1465 09c8 1946     		mov	r1, r3
 1466 09ca FFF7FEFF 		bl	Stderr_Update
 1467              	.L73:
 1468              		.loc 1 554 0
 1469 09ce 4723     		movs	r3, #71
 1470 09d0 00E0     		b	.L76
 1471              	.L72:
 1472              		.loc 1 556 0
 1473 09d2 0023     		movs	r3, #0
 1474              	.L76:
 1475              		.loc 1 557 0
 1476 09d4 1846     		mov	r0, r3
 1477 09d6 07B0     		add	sp, sp, #28
 1478              		@ sp needed
 1479 09d8 F0BD     		pop	{r4, r5, r6, r7, pc}
 1480              	.L78:
 1481 09da 00BF     		.align	2
 1482              	.L77:
 1483 09dc 04000000 		.word	HWServW2STHandle
 1484 09e0 16000000 		.word	CarryPosRecCharHandle
 1485 09e4 00000000 		.word	ConnectionBleStatus
 1486 09e8 00000000 		.word	BufferToWrite
 1487 09ec 80000000 		.word	.LC6
 1488 09f0 00000000 		.word	BytesToWrite
 1489              		.cfi_endproc
 1490              	.LFE279:
 1491              		.size	CarryPosRec_Update, .-CarryPosRec_Update
 1492              		.section	.rodata
 1493 00a2 0000     		.align	2
 1494              	.LC7:
 1495 00a4 4572726F 		.ascii	"Error Updating Gesture Rec Char\015\012\000"
 1495      72205570 
 1495      64617469 
 1495      6E672047 
 1495      65737475 
 1496              		.text
ARM GAS  /tmp/ccNtBBEs.s 			page 28


 1497              		.align	2
 1498 09f4 AFF30080 		.p2align 4,,15
 1498      AFF30080 
 1498      AFF30080 
 1499              		.global	GestureRec_Update
 1500              		.thumb
 1501              		.thumb_func
 1502              		.type	GestureRec_Update, %function
 1503              	GestureRec_Update:
 1504              	.LFB280:
 1505              		.loc 1 567 0
 1506              		.cfi_startproc
 1507              		@ args = 0, pretend = 0, frame = 16
 1508              		@ frame_needed = 0, uses_anonymous_args = 0
 1509 0a00 F0B5     		push	{r4, r5, r6, r7, lr}
 1510              		.cfi_def_cfa_offset 20
 1511              		.cfi_offset 4, -20
 1512              		.cfi_offset 5, -16
 1513              		.cfi_offset 6, -12
 1514              		.cfi_offset 7, -8
 1515              		.cfi_offset 14, -4
 1516 0a02 87B0     		sub	sp, sp, #28
 1517              		.cfi_def_cfa_offset 48
 1518 0a04 0346     		mov	r3, r0
 1519 0a06 8DF80F30 		strb	r3, [sp, #15]
 1520              		.loc 1 572 0
 1521 0a0a FFF7FEFF 		bl	HAL_GetTick
 1522 0a0e 0346     		mov	r3, r0
 1523 0a10 DB08     		lsrs	r3, r3, #3
 1524 0a12 DBB2     		uxtb	r3, r3
 1525 0a14 8DF81430 		strb	r3, [sp, #20]
 1526 0a18 FFF7FEFF 		bl	HAL_GetTick
 1527 0a1c 0346     		mov	r3, r0
 1528 0a1e DB0A     		lsrs	r3, r3, #11
 1529 0a20 DBB2     		uxtb	r3, r3
 1530 0a22 8DF81530 		strb	r3, [sp, #21]
 1531              		.loc 1 573 0
 1532 0a26 9DF80F30 		ldrb	r3, [sp, #15]
 1533 0a2a 8DF81630 		strb	r3, [sp, #22]
 1534              		.loc 1 575 0
 1535 0a2e 1F4B     		ldr	r3, .L85
 1536 0a30 1A88     		ldrh	r2, [r3]
 1537 0a32 1F4B     		ldr	r3, .L85+4
 1538 0a34 1B88     		ldrh	r3, [r3]
 1539 0a36 05A9     		add	r1, sp, #20
 1540 0a38 0091     		str	r1, [sp]
 1541 0a3a 1046     		mov	r0, r2
 1542 0a3c 1946     		mov	r1, r3
 1543 0a3e 0022     		movs	r2, #0
 1544 0a40 0323     		movs	r3, #3
 1545 0a42 FFF7FEFF 		bl	aci_gatt_update_char_value
 1546 0a46 0346     		mov	r3, r0
 1547 0a48 8DF81730 		strb	r3, [sp, #23]
 1548              		.loc 1 577 0
 1549 0a4c 9DF81730 		ldrb	r3, [sp, #23]	@ zero_extendqisi2
 1550 0a50 002B     		cmp	r3, #0
 1551 0a52 26D0     		beq	.L80
ARM GAS  /tmp/ccNtBBEs.s 			page 29


 1552              		.loc 1 578 0
 1553 0a54 174B     		ldr	r3, .L85+8
 1554 0a56 1B68     		ldr	r3, [r3]
 1555 0a58 03F40063 		and	r3, r3, #2048
 1556 0a5c 002B     		cmp	r3, #0
 1557 0a5e 1ED0     		beq	.L81
 1558              		.loc 1 579 0
 1559 0a60 154B     		ldr	r3, .L85+12
 1560 0a62 164A     		ldr	r2, .L85+16
 1561 0a64 1446     		mov	r4, r2
 1562 0a66 1D46     		mov	r5, r3
 1563 0a68 04F1200E 		add	lr, r4, #32
 1564              	.L82:
 1565 0a6c 2E46     		mov	r6, r5
 1566 0a6e 2746     		mov	r7, r4
 1567 0a70 0FCF     		ldmia	r7!, {r0, r1, r2, r3}
 1568 0a72 3060     		str	r0, [r6]	@ unaligned
 1569 0a74 7160     		str	r1, [r6, #4]	@ unaligned
 1570 0a76 B260     		str	r2, [r6, #8]	@ unaligned
 1571 0a78 F360     		str	r3, [r6, #12]	@ unaligned
 1572 0a7a 1034     		adds	r4, r4, #16
 1573 0a7c 1035     		adds	r5, r5, #16
 1574 0a7e 7445     		cmp	r4, lr
 1575 0a80 F4D1     		bne	.L82
 1576 0a82 2B46     		mov	r3, r5
 1577 0a84 2246     		mov	r2, r4
 1578 0a86 1288     		ldrh	r2, [r2]	@ unaligned
 1579 0a88 1A80     		strh	r2, [r3]	@ unaligned
 1580 0a8a 0D4B     		ldr	r3, .L85+20
 1581 0a8c 2122     		movs	r2, #33
 1582 0a8e 1A60     		str	r2, [r3]
 1583              		.loc 1 580 0
 1584 0a90 0B4B     		ldr	r3, .L85+20
 1585 0a92 1B68     		ldr	r3, [r3]
 1586 0a94 DBB2     		uxtb	r3, r3
 1587 0a96 0848     		ldr	r0, .L85+12
 1588 0a98 1946     		mov	r1, r3
 1589 0a9a FFF7FEFF 		bl	Stderr_Update
 1590              	.L81:
 1591              		.loc 1 584 0
 1592 0a9e 4723     		movs	r3, #71
 1593 0aa0 00E0     		b	.L84
 1594              	.L80:
 1595              		.loc 1 586 0
 1596 0aa2 0023     		movs	r3, #0
 1597              	.L84:
 1598              		.loc 1 587 0
 1599 0aa4 1846     		mov	r0, r3
 1600 0aa6 07B0     		add	sp, sp, #28
 1601              		@ sp needed
 1602 0aa8 F0BD     		pop	{r4, r5, r6, r7, pc}
 1603              	.L86:
 1604 0aaa 00BF     		.align	2
 1605              	.L85:
 1606 0aac 04000000 		.word	HWServW2STHandle
 1607 0ab0 18000000 		.word	GestureRecCharHandle
 1608 0ab4 00000000 		.word	ConnectionBleStatus
ARM GAS  /tmp/ccNtBBEs.s 			page 30


 1609 0ab8 00000000 		.word	BufferToWrite
 1610 0abc A4000000 		.word	.LC7
 1611 0ac0 00000000 		.word	BytesToWrite
 1612              		.cfi_endproc
 1613              	.LFE280:
 1614              		.size	GestureRec_Update, .-GestureRec_Update
 1615              		.section	.rodata
 1616 00c6 0000     		.align	2
 1617              	.LC8:
 1618 00c8 4572726F 		.ascii	"Error Updating Configuration Char\015\012\000"
 1618      72205570 
 1618      64617469 
 1618      6E672043 
 1618      6F6E6669 
 1619              		.text
 1620              		.align	2
 1621 0ac4 AFF30080 		.p2align 4,,15
 1621      AFF30080 
 1621      AFF30080 
 1622              		.global	Config_Notify
 1623              		.thumb
 1624              		.thumb_func
 1625              		.type	Config_Notify, %function
 1626              	Config_Notify:
 1627              	.LFB281:
 1628              		.loc 1 597 0
 1629              		.cfi_startproc
 1630              		@ args = 0, pretend = 0, frame = 24
 1631              		@ frame_needed = 0, uses_anonymous_args = 0
 1632 0ad0 F0B5     		push	{r4, r5, r6, r7, lr}
 1633              		.cfi_def_cfa_offset 20
 1634              		.cfi_offset 4, -20
 1635              		.cfi_offset 5, -16
 1636              		.cfi_offset 6, -12
 1637              		.cfi_offset 7, -8
 1638              		.cfi_offset 14, -4
 1639 0ad2 89B0     		sub	sp, sp, #36
 1640              		.cfi_def_cfa_offset 56
 1641 0ad4 0390     		str	r0, [sp, #12]
 1642 0ad6 1346     		mov	r3, r2
 1643 0ad8 0A46     		mov	r2, r1
 1644 0ada 8DF80B20 		strb	r2, [sp, #11]
 1645 0ade 8DF80A30 		strb	r3, [sp, #10]
 1646              		.loc 1 601 0
 1647 0ae2 FFF7FEFF 		bl	HAL_GetTick
 1648 0ae6 0346     		mov	r3, r0
 1649 0ae8 DB08     		lsrs	r3, r3, #3
 1650 0aea DBB2     		uxtb	r3, r3
 1651 0aec 8DF81430 		strb	r3, [sp, #20]
 1652 0af0 FFF7FEFF 		bl	HAL_GetTick
 1653 0af4 0346     		mov	r3, r0
 1654 0af6 DB0A     		lsrs	r3, r3, #11
 1655 0af8 DBB2     		uxtb	r3, r3
 1656 0afa 8DF81530 		strb	r3, [sp, #21]
 1657              		.loc 1 602 0
 1658 0afe 039B     		ldr	r3, [sp, #12]
 1659 0b00 DBB2     		uxtb	r3, r3
ARM GAS  /tmp/ccNtBBEs.s 			page 31


 1660 0b02 8DF81930 		strb	r3, [sp, #25]
 1661 0b06 039B     		ldr	r3, [sp, #12]
 1662 0b08 1B0A     		lsrs	r3, r3, #8
 1663 0b0a DBB2     		uxtb	r3, r3
 1664 0b0c 8DF81830 		strb	r3, [sp, #24]
 1665 0b10 039B     		ldr	r3, [sp, #12]
 1666 0b12 1B0C     		lsrs	r3, r3, #16
 1667 0b14 DBB2     		uxtb	r3, r3
 1668 0b16 8DF81730 		strb	r3, [sp, #23]
 1669 0b1a 039B     		ldr	r3, [sp, #12]
 1670 0b1c 1B0E     		lsrs	r3, r3, #24
 1671 0b1e DBB2     		uxtb	r3, r3
 1672 0b20 8DF81630 		strb	r3, [sp, #22]
 1673              		.loc 1 603 0
 1674 0b24 9DF80B30 		ldrb	r3, [sp, #11]
 1675 0b28 8DF81A30 		strb	r3, [sp, #26]
 1676              		.loc 1 604 0
 1677 0b2c 9DF80A30 		ldrb	r3, [sp, #10]
 1678 0b30 8DF81B30 		strb	r3, [sp, #27]
 1679              		.loc 1 606 0
 1680 0b34 1E4B     		ldr	r3, .L93
 1681 0b36 1A88     		ldrh	r2, [r3]
 1682 0b38 1E4B     		ldr	r3, .L93+4
 1683 0b3a 1B88     		ldrh	r3, [r3]
 1684 0b3c 05A9     		add	r1, sp, #20
 1685 0b3e 0091     		str	r1, [sp]
 1686 0b40 1046     		mov	r0, r2
 1687 0b42 1946     		mov	r1, r3
 1688 0b44 0022     		movs	r2, #0
 1689 0b46 0823     		movs	r3, #8
 1690 0b48 FFF7FEFF 		bl	aci_gatt_update_char_value
 1691 0b4c 0346     		mov	r3, r0
 1692 0b4e 8DF81F30 		strb	r3, [sp, #31]
 1693              		.loc 1 607 0
 1694 0b52 9DF81F30 		ldrb	r3, [sp, #31]	@ zero_extendqisi2
 1695 0b56 002B     		cmp	r3, #0
 1696 0b58 26D0     		beq	.L88
 1697              		.loc 1 608 0
 1698 0b5a 174B     		ldr	r3, .L93+8
 1699 0b5c 1B68     		ldr	r3, [r3]
 1700 0b5e 03F40063 		and	r3, r3, #2048
 1701 0b62 002B     		cmp	r3, #0
 1702 0b64 1ED0     		beq	.L89
 1703              		.loc 1 609 0
 1704 0b66 154B     		ldr	r3, .L93+12
 1705 0b68 154A     		ldr	r2, .L93+16
 1706 0b6a 1446     		mov	r4, r2
 1707 0b6c 1D46     		mov	r5, r3
 1708 0b6e 04F1200E 		add	lr, r4, #32
 1709              	.L90:
 1710 0b72 2E46     		mov	r6, r5
 1711 0b74 2746     		mov	r7, r4
 1712 0b76 0FCF     		ldmia	r7!, {r0, r1, r2, r3}
 1713 0b78 3060     		str	r0, [r6]	@ unaligned
 1714 0b7a 7160     		str	r1, [r6, #4]	@ unaligned
 1715 0b7c B260     		str	r2, [r6, #8]	@ unaligned
 1716 0b7e F360     		str	r3, [r6, #12]	@ unaligned
ARM GAS  /tmp/ccNtBBEs.s 			page 32


 1717 0b80 1034     		adds	r4, r4, #16
 1718 0b82 1035     		adds	r5, r5, #16
 1719 0b84 7445     		cmp	r4, lr
 1720 0b86 F4D1     		bne	.L90
 1721 0b88 2B46     		mov	r3, r5
 1722 0b8a 2246     		mov	r2, r4
 1723 0b8c 1068     		ldr	r0, [r2]	@ unaligned
 1724 0b8e 1860     		str	r0, [r3]	@ unaligned
 1725 0b90 0C4B     		ldr	r3, .L93+20
 1726 0b92 2322     		movs	r2, #35
 1727 0b94 1A60     		str	r2, [r3]
 1728              		.loc 1 610 0
 1729 0b96 0B4B     		ldr	r3, .L93+20
 1730 0b98 1B68     		ldr	r3, [r3]
 1731 0b9a DBB2     		uxtb	r3, r3
 1732 0b9c 0748     		ldr	r0, .L93+12
 1733 0b9e 1946     		mov	r1, r3
 1734 0ba0 FFF7FEFF 		bl	Stderr_Update
 1735              	.L89:
 1736              		.loc 1 614 0
 1737 0ba4 4723     		movs	r3, #71
 1738 0ba6 00E0     		b	.L92
 1739              	.L88:
 1740              		.loc 1 616 0
 1741 0ba8 0023     		movs	r3, #0
 1742              	.L92:
 1743              		.loc 1 617 0
 1744 0baa 1846     		mov	r0, r3
 1745 0bac 09B0     		add	sp, sp, #36
 1746              		@ sp needed
 1747 0bae F0BD     		pop	{r4, r5, r6, r7, pc}
 1748              	.L94:
 1749              		.align	2
 1750              	.L93:
 1751 0bb0 1A000000 		.word	ConfigServW2STHandle
 1752 0bb4 1C000000 		.word	ConfigCharHandle
 1753 0bb8 00000000 		.word	ConnectionBleStatus
 1754 0bbc 00000000 		.word	BufferToWrite
 1755 0bc0 C8000000 		.word	.LC8
 1756 0bc4 00000000 		.word	BytesToWrite
 1757              		.cfi_endproc
 1758              	.LFE281:
 1759              		.size	Config_Notify, .-Config_Notify
 1760              		.section	.rodata
 1761              		.align	2
 1762              	.LC9:
 1763 00ec 4572726F 		.ascii	"Error Updating AccEvent_Notify Char\015\012\000"
 1763      72205570 
 1763      64617469 
 1763      6E672041 
 1763      63634576 
 1764              		.text
 1765              		.align	2
 1766 0bc8 AFF30080 		.p2align 4,,15
 1766      AFF30080 
 1767              		.global	AccEvent_Notify
 1768              		.thumb
ARM GAS  /tmp/ccNtBBEs.s 			page 33


 1769              		.thumb_func
 1770              		.type	AccEvent_Notify, %function
 1771              	AccEvent_Notify:
 1772              	.LFB282:
 1773              		.loc 1 625 0
 1774              		.cfi_startproc
 1775              		@ args = 0, pretend = 0, frame = 16
 1776              		@ frame_needed = 0, uses_anonymous_args = 0
 1777 0bd0 F0B5     		push	{r4, r5, r6, r7, lr}
 1778              		.cfi_def_cfa_offset 20
 1779              		.cfi_offset 4, -20
 1780              		.cfi_offset 5, -16
 1781              		.cfi_offset 6, -12
 1782              		.cfi_offset 7, -8
 1783              		.cfi_offset 14, -4
 1784 0bd2 87B0     		sub	sp, sp, #28
 1785              		.cfi_def_cfa_offset 48
 1786 0bd4 0346     		mov	r3, r0
 1787 0bd6 ADF80E30 		strh	r3, [sp, #14]	@ movhi
 1788              		.loc 1 629 0
 1789 0bda FFF7FEFF 		bl	HAL_GetTick
 1790 0bde 0346     		mov	r3, r0
 1791 0be0 DB08     		lsrs	r3, r3, #3
 1792 0be2 DBB2     		uxtb	r3, r3
 1793 0be4 8DF81030 		strb	r3, [sp, #16]
 1794 0be8 FFF7FEFF 		bl	HAL_GetTick
 1795 0bec 0346     		mov	r3, r0
 1796 0bee DB0A     		lsrs	r3, r3, #11
 1797 0bf0 DBB2     		uxtb	r3, r3
 1798 0bf2 8DF81130 		strb	r3, [sp, #17]
 1799              		.loc 1 630 0
 1800 0bf6 BDF80E30 		ldrh	r3, [sp, #14]	@ movhi
 1801 0bfa DBB2     		uxtb	r3, r3
 1802 0bfc 8DF81230 		strb	r3, [sp, #18]
 1803 0c00 BDF80E30 		ldrh	r3, [sp, #14]
 1804 0c04 1B0A     		lsrs	r3, r3, #8
 1805 0c06 9BB2     		uxth	r3, r3
 1806 0c08 DBB2     		uxtb	r3, r3
 1807 0c0a 8DF81330 		strb	r3, [sp, #19]
 1808              		.loc 1 632 0
 1809 0c0e 204B     		ldr	r3, .L101
 1810 0c10 1A88     		ldrh	r2, [r3]
 1811 0c12 204B     		ldr	r3, .L101+4
 1812 0c14 1B88     		ldrh	r3, [r3]
 1813 0c16 04A9     		add	r1, sp, #16
 1814 0c18 0091     		str	r1, [sp]
 1815 0c1a 1046     		mov	r0, r2
 1816 0c1c 1946     		mov	r1, r3
 1817 0c1e 0022     		movs	r2, #0
 1818 0c20 0423     		movs	r3, #4
 1819 0c22 FFF7FEFF 		bl	aci_gatt_update_char_value
 1820 0c26 0346     		mov	r3, r0
 1821 0c28 8DF81730 		strb	r3, [sp, #23]
 1822              		.loc 1 633 0
 1823 0c2c 9DF81730 		ldrb	r3, [sp, #23]	@ zero_extendqisi2
 1824 0c30 002B     		cmp	r3, #0
 1825 0c32 28D0     		beq	.L96
ARM GAS  /tmp/ccNtBBEs.s 			page 34


 1826              		.loc 1 634 0
 1827 0c34 184B     		ldr	r3, .L101+8
 1828 0c36 1B68     		ldr	r3, [r3]
 1829 0c38 03F40063 		and	r3, r3, #2048
 1830 0c3c 002B     		cmp	r3, #0
 1831 0c3e 20D0     		beq	.L97
 1832              		.loc 1 635 0
 1833 0c40 164B     		ldr	r3, .L101+12
 1834 0c42 174A     		ldr	r2, .L101+16
 1835 0c44 1446     		mov	r4, r2
 1836 0c46 1D46     		mov	r5, r3
 1837 0c48 04F1200E 		add	lr, r4, #32
 1838              	.L98:
 1839 0c4c 2E46     		mov	r6, r5
 1840 0c4e 2746     		mov	r7, r4
 1841 0c50 0FCF     		ldmia	r7!, {r0, r1, r2, r3}
 1842 0c52 3060     		str	r0, [r6]	@ unaligned
 1843 0c54 7160     		str	r1, [r6, #4]	@ unaligned
 1844 0c56 B260     		str	r2, [r6, #8]	@ unaligned
 1845 0c58 F360     		str	r3, [r6, #12]	@ unaligned
 1846 0c5a 1034     		adds	r4, r4, #16
 1847 0c5c 1035     		adds	r5, r5, #16
 1848 0c5e 7445     		cmp	r4, lr
 1849 0c60 F4D1     		bne	.L98
 1850 0c62 2B46     		mov	r3, r5
 1851 0c64 2246     		mov	r2, r4
 1852 0c66 1068     		ldr	r0, [r2]	@ unaligned
 1853 0c68 1860     		str	r0, [r3]	@ unaligned
 1854 0c6a 9288     		ldrh	r2, [r2, #4]	@ unaligned
 1855 0c6c 9A80     		strh	r2, [r3, #4]	@ unaligned
 1856 0c6e 0D4B     		ldr	r3, .L101+20
 1857 0c70 2522     		movs	r2, #37
 1858 0c72 1A60     		str	r2, [r3]
 1859              		.loc 1 636 0
 1860 0c74 0B4B     		ldr	r3, .L101+20
 1861 0c76 1B68     		ldr	r3, [r3]
 1862 0c78 DBB2     		uxtb	r3, r3
 1863 0c7a 0848     		ldr	r0, .L101+12
 1864 0c7c 1946     		mov	r1, r3
 1865 0c7e FFF7FEFF 		bl	Stderr_Update
 1866              	.L97:
 1867              		.loc 1 640 0
 1868 0c82 4723     		movs	r3, #71
 1869 0c84 00E0     		b	.L100
 1870              	.L96:
 1871              		.loc 1 642 0
 1872 0c86 0023     		movs	r3, #0
 1873              	.L100:
 1874              		.loc 1 643 0
 1875 0c88 1846     		mov	r0, r3
 1876 0c8a 07B0     		add	sp, sp, #28
 1877              		@ sp needed
 1878 0c8c F0BD     		pop	{r4, r5, r6, r7, pc}
 1879              	.L102:
 1880 0c8e 00BF     		.align	2
 1881              	.L101:
 1882 0c90 04000000 		.word	HWServW2STHandle
ARM GAS  /tmp/ccNtBBEs.s 			page 35


 1883 0c94 0A000000 		.word	AccEventCharHandle
 1884 0c98 00000000 		.word	ConnectionBleStatus
 1885 0c9c 00000000 		.word	BufferToWrite
 1886 0ca0 EC000000 		.word	.LC9
 1887 0ca4 00000000 		.word	BytesToWrite
 1888              		.cfi_endproc
 1889              	.LFE282:
 1890              		.size	AccEvent_Notify, .-AccEvent_Notify
 1891              		.align	2
 1892 0ca8 AFF30080 		.p2align 4,,15
 1892      AFF30080 
 1893              		.global	Add_HW_SW_ServW2ST_Service
 1894              		.thumb
 1895              		.thumb_func
 1896              		.type	Add_HW_SW_ServW2ST_Service, %function
 1897              	Add_HW_SW_ServW2ST_Service:
 1898              	.LFB283:
 1899              		.loc 1 651 0
 1900              		.cfi_startproc
 1901              		@ args = 0, pretend = 0, frame = 24
 1902              		@ frame_needed = 0, uses_anonymous_args = 0
 1903 0cb0 00B5     		push	{lr}
 1904              		.cfi_def_cfa_offset 4
 1905              		.cfi_offset 14, -4
 1906 0cb2 8DB0     		sub	sp, sp, #52
 1907              		.cfi_def_cfa_offset 56
 1908              		.loc 1 657 0
 1909 0cb4 0423     		movs	r3, #4
 1910 0cb6 8DF82F30 		strb	r3, [sp, #47]
 1911              		.loc 1 660 0
 1912 0cba A94B     		ldr	r3, .L124
 1913 0cbc 1B6B     		ldr	r3, [r3, #48]
 1914 0cbe 002B     		cmp	r3, #0
 1915 0cc0 04D0     		beq	.L104
 1916              		.loc 1 662 0
 1917 0cc2 9DF82F30 		ldrb	r3, [sp, #47]	@ zero_extendqisi2
 1918 0cc6 0133     		adds	r3, r3, #1
 1919 0cc8 8DF82F30 		strb	r3, [sp, #47]
 1920              	.L104:
 1921              		.loc 1 668 0
 1922 0ccc 9DF82F30 		ldrb	r3, [sp, #47]	@ zero_extendqisi2
 1923 0cd0 0133     		adds	r3, r3, #1
 1924 0cd2 8DF82F30 		strb	r3, [sp, #47]
 1925              		.loc 1 671 0
 1926 0cd6 A24B     		ldr	r3, .L124
 1927 0cd8 93F82D30 		ldrb	r3, [r3, #45]	@ zero_extendqisi2
 1928 0cdc 012B     		cmp	r3, #1
 1929 0cde 04D1     		bne	.L105
 1930              		.loc 1 673 0
 1931 0ce0 9DF82F30 		ldrb	r3, [sp, #47]	@ zero_extendqisi2
 1932 0ce4 0133     		adds	r3, r3, #1
 1933 0ce6 8DF82F30 		strb	r3, [sp, #47]
 1934              	.L105:
 1935              		.loc 1 678 0
 1936 0cea 9DF82F30 		ldrb	r3, [sp, #47]	@ zero_extendqisi2
 1937 0cee 0133     		adds	r3, r3, #1
 1938 0cf0 8DF82F30 		strb	r3, [sp, #47]
ARM GAS  /tmp/ccNtBBEs.s 			page 36


 1939              		.loc 1 682 0
 1940 0cf4 9DF82F30 		ldrb	r3, [sp, #47]	@ zero_extendqisi2
 1941 0cf8 0133     		adds	r3, r3, #1
 1942 0cfa 8DF82F30 		strb	r3, [sp, #47]
 1943              		.loc 1 686 0
 1944 0cfe 9DF82F30 		ldrb	r3, [sp, #47]	@ zero_extendqisi2
 1945 0d02 0133     		adds	r3, r3, #1
 1946 0d04 8DF82F30 		strb	r3, [sp, #47]
 1947              		.loc 1 690 0
 1948 0d08 9DF82F30 		ldrb	r3, [sp, #47]
 1949 0d0c 0233     		adds	r3, r3, #2
 1950 0d0e 8DF82F30 		strb	r3, [sp, #47]
 1951              		.loc 1 697 0
 1952 0d12 1B23     		movs	r3, #27
 1953 0d14 8DF81C30 		strb	r3, [sp, #28]
 1954 0d18 C523     		movs	r3, #197
 1955 0d1a 8DF81D30 		strb	r3, [sp, #29]
 1956 0d1e D523     		movs	r3, #213
 1957 0d20 8DF81E30 		strb	r3, [sp, #30]
 1958 0d24 A523     		movs	r3, #165
 1959 0d26 8DF81F30 		strb	r3, [sp, #31]
 1960 0d2a 0223     		movs	r3, #2
 1961 0d2c 8DF82030 		strb	r3, [sp, #32]
 1962 0d30 0023     		movs	r3, #0
 1963 0d32 8DF82130 		strb	r3, [sp, #33]
 1964 0d36 B423     		movs	r3, #180
 1965 0d38 8DF82230 		strb	r3, [sp, #34]
 1966 0d3c 9A23     		movs	r3, #154
 1967 0d3e 8DF82330 		strb	r3, [sp, #35]
 1968 0d42 E123     		movs	r3, #225
 1969 0d44 8DF82430 		strb	r3, [sp, #36]
 1970 0d48 1123     		movs	r3, #17
 1971 0d4a 8DF82530 		strb	r3, [sp, #37]
 1972 0d4e 0123     		movs	r3, #1
 1973 0d50 8DF82630 		strb	r3, [sp, #38]
 1974 0d54 0023     		movs	r3, #0
 1975 0d56 8DF82730 		strb	r3, [sp, #39]
 1976 0d5a 0023     		movs	r3, #0
 1977 0d5c 8DF82830 		strb	r3, [sp, #40]
 1978 0d60 0023     		movs	r3, #0
 1979 0d62 8DF82930 		strb	r3, [sp, #41]
 1980 0d66 0023     		movs	r3, #0
 1981 0d68 8DF82A30 		strb	r3, [sp, #42]
 1982 0d6c 0023     		movs	r3, #0
 1983 0d6e 8DF82B30 		strb	r3, [sp, #43]
 1984              		.loc 1 698 0
 1985 0d72 9DF82F30 		ldrb	r3, [sp, #47]
 1986 0d76 1A46     		mov	r2, r3
 1987 0d78 5200     		lsls	r2, r2, #1
 1988 0d7a 1344     		add	r3, r3, r2
 1989 0d7c DBB2     		uxtb	r3, r3
 1990 0d7e 0133     		adds	r3, r3, #1
 1991 0d80 DBB2     		uxtb	r3, r3
 1992 0d82 07AA     		add	r2, sp, #28
 1993 0d84 7749     		ldr	r1, .L124+4
 1994 0d86 0091     		str	r1, [sp]
 1995 0d88 0220     		movs	r0, #2
ARM GAS  /tmp/ccNtBBEs.s 			page 37


 1996 0d8a 1146     		mov	r1, r2
 1997 0d8c 0122     		movs	r2, #1
 1998 0d8e FFF7FEFF 		bl	aci_gatt_add_serv
 1999 0d92 0346     		mov	r3, r0
 2000 0d94 8DF82E30 		strb	r3, [sp, #46]
 2001              		.loc 1 702 0
 2002 0d98 9DF82E30 		ldrb	r3, [sp, #46]	@ zero_extendqisi2
 2003 0d9c 002B     		cmp	r3, #0
 2004 0d9e 00D0     		beq	.L106
 2005              		.loc 1 703 0
 2006 0da0 FDE3     		b	.L107
 2007              	.L106:
 2008              		.loc 1 707 0
 2009 0da2 1B23     		movs	r3, #27
 2010 0da4 8DF81C30 		strb	r3, [sp, #28]
 2011 0da8 C523     		movs	r3, #197
 2012 0daa 8DF81D30 		strb	r3, [sp, #29]
 2013 0dae D523     		movs	r3, #213
 2014 0db0 8DF81E30 		strb	r3, [sp, #30]
 2015 0db4 A523     		movs	r3, #165
 2016 0db6 8DF81F30 		strb	r3, [sp, #31]
 2017 0dba 0223     		movs	r3, #2
 2018 0dbc 8DF82030 		strb	r3, [sp, #32]
 2019 0dc0 0023     		movs	r3, #0
 2020 0dc2 8DF82130 		strb	r3, [sp, #33]
 2021 0dc6 3623     		movs	r3, #54
 2022 0dc8 8DF82230 		strb	r3, [sp, #34]
 2023 0dcc AC23     		movs	r3, #172
 2024 0dce 8DF82330 		strb	r3, [sp, #35]
 2025 0dd2 E123     		movs	r3, #225
 2026 0dd4 8DF82430 		strb	r3, [sp, #36]
 2027 0dd8 1123     		movs	r3, #17
 2028 0dda 8DF82530 		strb	r3, [sp, #37]
 2029 0dde 0123     		movs	r3, #1
 2030 0de0 8DF82630 		strb	r3, [sp, #38]
 2031 0de4 0023     		movs	r3, #0
 2032 0de6 8DF82730 		strb	r3, [sp, #39]
 2033 0dea 0023     		movs	r3, #0
 2034 0dec 8DF82830 		strb	r3, [sp, #40]
 2035 0df0 0023     		movs	r3, #0
 2036 0df2 8DF82930 		strb	r3, [sp, #41]
 2037 0df6 0023     		movs	r3, #0
 2038 0df8 8DF82A30 		strb	r3, [sp, #42]
 2039 0dfc 0023     		movs	r3, #0
 2040 0dfe 8DF82B30 		strb	r3, [sp, #43]
 2041              		.loc 1 708 0
 2042 0e02 574B     		ldr	r3, .L124
 2043 0e04 5B68     		ldr	r3, [r3, #4]
 2044 0e06 022B     		cmp	r3, #2
 2045 0e08 0DD1     		bne	.L108
 2046              		.loc 1 709 0
 2047 0e0a 9DF82A30 		ldrb	r3, [sp, #42]	@ zero_extendqisi2
 2048 0e0e 43F00503 		orr	r3, r3, #5
 2049 0e12 DBB2     		uxtb	r3, r3
 2050 0e14 8DF82A30 		strb	r3, [sp, #42]
 2051              		.loc 1 710 0
 2052 0e18 534B     		ldr	r3, .L124+8
ARM GAS  /tmp/ccNtBBEs.s 			page 38


 2053 0e1a 1B78     		ldrb	r3, [r3]	@ zero_extendqisi2
 2054 0e1c 0433     		adds	r3, r3, #4
 2055 0e1e DAB2     		uxtb	r2, r3
 2056 0e20 514B     		ldr	r3, .L124+8
 2057 0e22 1A70     		strb	r2, [r3]
 2058 0e24 10E0     		b	.L109
 2059              	.L108:
 2060              		.loc 1 711 0
 2061 0e26 4E4B     		ldr	r3, .L124
 2062 0e28 5B68     		ldr	r3, [r3, #4]
 2063 0e2a 012B     		cmp	r3, #1
 2064 0e2c 0CD1     		bne	.L109
 2065              		.loc 1 712 0
 2066 0e2e 9DF82A30 		ldrb	r3, [sp, #42]	@ zero_extendqisi2
 2067 0e32 43F00403 		orr	r3, r3, #4
 2068 0e36 DBB2     		uxtb	r3, r3
 2069 0e38 8DF82A30 		strb	r3, [sp, #42]
 2070              		.loc 1 713 0
 2071 0e3c 4A4B     		ldr	r3, .L124+8
 2072 0e3e 1B78     		ldrb	r3, [r3]	@ zero_extendqisi2
 2073 0e40 0233     		adds	r3, r3, #2
 2074 0e42 DAB2     		uxtb	r2, r3
 2075 0e44 484B     		ldr	r3, .L124+8
 2076 0e46 1A70     		strb	r2, [r3]
 2077              	.L109:
 2078              		.loc 1 716 0
 2079 0e48 454B     		ldr	r3, .L124
 2080 0e4a 5B69     		ldr	r3, [r3, #20]
 2081 0e4c 002B     		cmp	r3, #0
 2082 0e4e 0CD0     		beq	.L110
 2083              		.loc 1 717 0
 2084 0e50 9DF82A30 		ldrb	r3, [sp, #42]	@ zero_extendqisi2
 2085 0e54 43F00803 		orr	r3, r3, #8
 2086 0e58 DBB2     		uxtb	r3, r3
 2087 0e5a 8DF82A30 		strb	r3, [sp, #42]
 2088              		.loc 1 718 0
 2089 0e5e 424B     		ldr	r3, .L124+8
 2090 0e60 1B78     		ldrb	r3, [r3]	@ zero_extendqisi2
 2091 0e62 0233     		adds	r3, r3, #2
 2092 0e64 DAB2     		uxtb	r2, r3
 2093 0e66 404B     		ldr	r3, .L124+8
 2094 0e68 1A70     		strb	r2, [r3]
 2095              	.L110:
 2096              		.loc 1 721 0
 2097 0e6a 3D4B     		ldr	r3, .L124
 2098 0e6c 1B69     		ldr	r3, [r3, #16]
 2099 0e6e 002B     		cmp	r3, #0
 2100 0e70 0CD0     		beq	.L111
 2101              		.loc 1 722 0
 2102 0e72 9DF82A30 		ldrb	r3, [sp, #42]	@ zero_extendqisi2
 2103 0e76 43F01003 		orr	r3, r3, #16
 2104 0e7a DBB2     		uxtb	r3, r3
 2105 0e7c 8DF82A30 		strb	r3, [sp, #42]
 2106              		.loc 1 723 0
 2107 0e80 394B     		ldr	r3, .L124+8
 2108 0e82 1B78     		ldrb	r3, [r3]	@ zero_extendqisi2
 2109 0e84 0433     		adds	r3, r3, #4
ARM GAS  /tmp/ccNtBBEs.s 			page 39


 2110 0e86 DAB2     		uxtb	r2, r3
 2111 0e88 374B     		ldr	r3, .L124+8
 2112 0e8a 1A70     		strb	r2, [r3]
 2113              	.L111:
 2114              		.loc 1 726 0
 2115 0e8c 354B     		ldr	r3, .L124+4
 2116 0e8e 1988     		ldrh	r1, [r3]
 2117 0e90 354B     		ldr	r3, .L124+8
 2118 0e92 1B78     		ldrb	r3, [r3]	@ zero_extendqisi2
 2119 0e94 07AA     		add	r2, sp, #28
 2120 0e96 1220     		movs	r0, #18
 2121 0e98 0090     		str	r0, [sp]
 2122 0e9a 0020     		movs	r0, #0
 2123 0e9c 0190     		str	r0, [sp, #4]
 2124 0e9e 0420     		movs	r0, #4
 2125 0ea0 0290     		str	r0, [sp, #8]
 2126 0ea2 1020     		movs	r0, #16
 2127 0ea4 0390     		str	r0, [sp, #12]
 2128 0ea6 0020     		movs	r0, #0
 2129 0ea8 0490     		str	r0, [sp, #16]
 2130 0eaa 3048     		ldr	r0, .L124+12
 2131 0eac 0590     		str	r0, [sp, #20]
 2132 0eae 0846     		mov	r0, r1
 2133 0eb0 0221     		movs	r1, #2
 2134 0eb2 FFF7FEFF 		bl	aci_gatt_add_char
 2135 0eb6 0346     		mov	r3, r0
 2136 0eb8 8DF82E30 		strb	r3, [sp, #46]
 2137              		.loc 1 732 0
 2138 0ebc 9DF82E30 		ldrb	r3, [sp, #46]	@ zero_extendqisi2
 2139 0ec0 002B     		cmp	r3, #0
 2140 0ec2 00D0     		beq	.L112
 2141              		.loc 1 733 0
 2142 0ec4 6BE3     		b	.L107
 2143              	.L112:
 2144              		.loc 1 736 0
 2145 0ec6 1B23     		movs	r3, #27
 2146 0ec8 8DF81C30 		strb	r3, [sp, #28]
 2147 0ecc C523     		movs	r3, #197
 2148 0ece 8DF81D30 		strb	r3, [sp, #29]
 2149 0ed2 D523     		movs	r3, #213
 2150 0ed4 8DF81E30 		strb	r3, [sp, #30]
 2151 0ed8 A523     		movs	r3, #165
 2152 0eda 8DF81F30 		strb	r3, [sp, #31]
 2153 0ede 0223     		movs	r3, #2
 2154 0ee0 8DF82030 		strb	r3, [sp, #32]
 2155 0ee4 0023     		movs	r3, #0
 2156 0ee6 8DF82130 		strb	r3, [sp, #33]
 2157 0eea 3623     		movs	r3, #54
 2158 0eec 8DF82230 		strb	r3, [sp, #34]
 2159 0ef0 AC23     		movs	r3, #172
 2160 0ef2 8DF82330 		strb	r3, [sp, #35]
 2161 0ef6 E123     		movs	r3, #225
 2162 0ef8 8DF82430 		strb	r3, [sp, #36]
 2163 0efc 1123     		movs	r3, #17
 2164 0efe 8DF82530 		strb	r3, [sp, #37]
 2165 0f02 0123     		movs	r3, #1
 2166 0f04 8DF82630 		strb	r3, [sp, #38]
ARM GAS  /tmp/ccNtBBEs.s 			page 40


 2167 0f08 0023     		movs	r3, #0
 2168 0f0a 8DF82730 		strb	r3, [sp, #39]
 2169 0f0e 0023     		movs	r3, #0
 2170 0f10 8DF82830 		strb	r3, [sp, #40]
 2171 0f14 0023     		movs	r3, #0
 2172 0f16 8DF82930 		strb	r3, [sp, #41]
 2173 0f1a E023     		movs	r3, #224
 2174 0f1c 8DF82A30 		strb	r3, [sp, #42]
 2175 0f20 0023     		movs	r3, #0
 2176 0f22 8DF82B30 		strb	r3, [sp, #43]
 2177              		.loc 1 737 0
 2178 0f26 0F4B     		ldr	r3, .L124+4
 2179 0f28 1A88     		ldrh	r2, [r3]
 2180 0f2a 07AB     		add	r3, sp, #28
 2181 0f2c 1021     		movs	r1, #16
 2182 0f2e 0091     		str	r1, [sp]
 2183 0f30 0021     		movs	r1, #0
 2184 0f32 0191     		str	r1, [sp, #4]
 2185 0f34 0421     		movs	r1, #4
 2186 0f36 0291     		str	r1, [sp, #8]
 2187 0f38 1021     		movs	r1, #16
 2188 0f3a 0391     		str	r1, [sp, #12]
 2189 0f3c 0021     		movs	r1, #0
 2190 0f3e 0491     		str	r1, [sp, #16]
 2191 0f40 0B49     		ldr	r1, .L124+16
 2192 0f42 0591     		str	r1, [sp, #20]
 2193 0f44 1046     		mov	r0, r2
 2194 0f46 0221     		movs	r1, #2
 2195 0f48 1A46     		mov	r2, r3
 2196 0f4a 1423     		movs	r3, #20
 2197 0f4c FFF7FEFF 		bl	aci_gatt_add_char
 2198 0f50 0346     		mov	r3, r0
 2199 0f52 8DF82E30 		strb	r3, [sp, #46]
 2200              		.loc 1 743 0
 2201 0f56 9DF82E30 		ldrb	r3, [sp, #46]	@ zero_extendqisi2
 2202 0f5a 002B     		cmp	r3, #0
 2203 0f5c 0AD0     		beq	.L113
 2204              		.loc 1 744 0
 2205 0f5e 1EE3     		b	.L107
 2206              	.L125:
 2207              		.align	2
 2208              	.L124:
 2209 0f60 00000000 		.word	TargetBoardFeatures
 2210 0f64 04000000 		.word	HWServW2STHandle
 2211 0f68 01000000 		.word	EnvironmentalCharSize
 2212 0f6c 06000000 		.word	EnvironmentalCharHandle
 2213 0f70 08000000 		.word	AccGyroMagCharHandle
 2214              	.L113:
 2215              		.loc 1 747 0
 2216 0f74 1B23     		movs	r3, #27
 2217 0f76 8DF81C30 		strb	r3, [sp, #28]
 2218 0f7a C523     		movs	r3, #197
 2219 0f7c 8DF81D30 		strb	r3, [sp, #29]
 2220 0f80 D523     		movs	r3, #213
 2221 0f82 8DF81E30 		strb	r3, [sp, #30]
 2222 0f86 A523     		movs	r3, #165
 2223 0f88 8DF81F30 		strb	r3, [sp, #31]
ARM GAS  /tmp/ccNtBBEs.s 			page 41


 2224 0f8c 0223     		movs	r3, #2
 2225 0f8e 8DF82030 		strb	r3, [sp, #32]
 2226 0f92 0023     		movs	r3, #0
 2227 0f94 8DF82130 		strb	r3, [sp, #33]
 2228 0f98 3623     		movs	r3, #54
 2229 0f9a 8DF82230 		strb	r3, [sp, #34]
 2230 0f9e AC23     		movs	r3, #172
 2231 0fa0 8DF82330 		strb	r3, [sp, #35]
 2232 0fa4 E123     		movs	r3, #225
 2233 0fa6 8DF82430 		strb	r3, [sp, #36]
 2234 0faa 1123     		movs	r3, #17
 2235 0fac 8DF82530 		strb	r3, [sp, #37]
 2236 0fb0 0123     		movs	r3, #1
 2237 0fb2 8DF82630 		strb	r3, [sp, #38]
 2238 0fb6 0023     		movs	r3, #0
 2239 0fb8 8DF82730 		strb	r3, [sp, #39]
 2240 0fbc 0023     		movs	r3, #0
 2241 0fbe 8DF82830 		strb	r3, [sp, #40]
 2242 0fc2 0423     		movs	r3, #4
 2243 0fc4 8DF82930 		strb	r3, [sp, #41]
 2244 0fc8 0023     		movs	r3, #0
 2245 0fca 8DF82A30 		strb	r3, [sp, #42]
 2246 0fce 0023     		movs	r3, #0
 2247 0fd0 8DF82B30 		strb	r3, [sp, #43]
 2248              		.loc 1 748 0
 2249 0fd4 AC4B     		ldr	r3, .L126
 2250 0fd6 1A88     		ldrh	r2, [r3]
 2251 0fd8 07AB     		add	r3, sp, #28
 2252 0fda 1221     		movs	r1, #18
 2253 0fdc 0091     		str	r1, [sp]
 2254 0fde 0021     		movs	r1, #0
 2255 0fe0 0191     		str	r1, [sp, #4]
 2256 0fe2 0421     		movs	r1, #4
 2257 0fe4 0291     		str	r1, [sp, #8]
 2258 0fe6 1021     		movs	r1, #16
 2259 0fe8 0391     		str	r1, [sp, #12]
 2260 0fea 0021     		movs	r1, #0
 2261 0fec 0491     		str	r1, [sp, #16]
 2262 0fee A749     		ldr	r1, .L126+4
 2263 0ff0 0591     		str	r1, [sp, #20]
 2264 0ff2 1046     		mov	r0, r2
 2265 0ff4 0221     		movs	r1, #2
 2266 0ff6 1A46     		mov	r2, r3
 2267 0ff8 0423     		movs	r3, #4
 2268 0ffa FFF7FEFF 		bl	aci_gatt_add_char
 2269 0ffe 0346     		mov	r3, r0
 2270 1000 8DF82E30 		strb	r3, [sp, #46]
 2271              		.loc 1 754 0
 2272 1004 9DF82E30 		ldrb	r3, [sp, #46]	@ zero_extendqisi2
 2273 1008 002B     		cmp	r3, #0
 2274 100a 00D0     		beq	.L114
 2275              		.loc 1 755 0
 2276 100c C7E2     		b	.L107
 2277              	.L114:
 2278              		.loc 1 758 0
 2279 100e 1B23     		movs	r3, #27
 2280 1010 8DF81C30 		strb	r3, [sp, #28]
ARM GAS  /tmp/ccNtBBEs.s 			page 42


 2281 1014 C523     		movs	r3, #197
 2282 1016 8DF81D30 		strb	r3, [sp, #29]
 2283 101a D523     		movs	r3, #213
 2284 101c 8DF81E30 		strb	r3, [sp, #30]
 2285 1020 A523     		movs	r3, #165
 2286 1022 8DF81F30 		strb	r3, [sp, #31]
 2287 1026 0223     		movs	r3, #2
 2288 1028 8DF82030 		strb	r3, [sp, #32]
 2289 102c 0023     		movs	r3, #0
 2290 102e 8DF82130 		strb	r3, [sp, #33]
 2291 1032 3623     		movs	r3, #54
 2292 1034 8DF82230 		strb	r3, [sp, #34]
 2293 1038 AC23     		movs	r3, #172
 2294 103a 8DF82330 		strb	r3, [sp, #35]
 2295 103e E123     		movs	r3, #225
 2296 1040 8DF82430 		strb	r3, [sp, #36]
 2297 1044 1123     		movs	r3, #17
 2298 1046 8DF82530 		strb	r3, [sp, #37]
 2299 104a 0123     		movs	r3, #1
 2300 104c 8DF82630 		strb	r3, [sp, #38]
 2301 1050 0023     		movs	r3, #0
 2302 1052 8DF82730 		strb	r3, [sp, #39]
 2303 1056 0023     		movs	r3, #0
 2304 1058 8DF82830 		strb	r3, [sp, #40]
 2305 105c 0023     		movs	r3, #0
 2306 105e 8DF82930 		strb	r3, [sp, #41]
 2307 1062 0023     		movs	r3, #0
 2308 1064 8DF82A30 		strb	r3, [sp, #42]
 2309 1068 0423     		movs	r3, #4
 2310 106a 8DF82B30 		strb	r3, [sp, #43]
 2311              		.loc 1 759 0
 2312 106e 864B     		ldr	r3, .L126
 2313 1070 1A88     		ldrh	r2, [r3]
 2314 1072 07AB     		add	r3, sp, #28
 2315 1074 1021     		movs	r1, #16
 2316 1076 0091     		str	r1, [sp]
 2317 1078 0021     		movs	r1, #0
 2318 107a 0191     		str	r1, [sp, #4]
 2319 107c 0421     		movs	r1, #4
 2320 107e 0291     		str	r1, [sp, #8]
 2321 1080 1021     		movs	r1, #16
 2322 1082 0391     		str	r1, [sp, #12]
 2323 1084 0021     		movs	r1, #0
 2324 1086 0491     		str	r1, [sp, #16]
 2325 1088 8149     		ldr	r1, .L126+8
 2326 108a 0591     		str	r1, [sp, #20]
 2327 108c 1046     		mov	r0, r2
 2328 108e 0221     		movs	r1, #2
 2329 1090 1A46     		mov	r2, r3
 2330 1092 0323     		movs	r3, #3
 2331 1094 FFF7FEFF 		bl	aci_gatt_add_char
 2332 1098 0346     		mov	r3, r0
 2333 109a 8DF82E30 		strb	r3, [sp, #46]
 2334              		.loc 1 765 0
 2335 109e 9DF82E30 		ldrb	r3, [sp, #46]	@ zero_extendqisi2
 2336 10a2 002B     		cmp	r3, #0
 2337 10a4 00D0     		beq	.L115
ARM GAS  /tmp/ccNtBBEs.s 			page 43


 2338              		.loc 1 766 0
 2339 10a6 7AE2     		b	.L107
 2340              	.L115:
 2341              		.loc 1 770 0
 2342 10a8 7A4B     		ldr	r3, .L126+12
 2343 10aa 1B6B     		ldr	r3, [r3, #48]
 2344 10ac 002B     		cmp	r3, #0
 2345 10ae 4CD0     		beq	.L116
 2346              		.loc 1 771 0
 2347 10b0 1B23     		movs	r3, #27
 2348 10b2 8DF81C30 		strb	r3, [sp, #28]
 2349 10b6 C523     		movs	r3, #197
 2350 10b8 8DF81D30 		strb	r3, [sp, #29]
 2351 10bc D523     		movs	r3, #213
 2352 10be 8DF81E30 		strb	r3, [sp, #30]
 2353 10c2 A523     		movs	r3, #165
 2354 10c4 8DF81F30 		strb	r3, [sp, #31]
 2355 10c8 0223     		movs	r3, #2
 2356 10ca 8DF82030 		strb	r3, [sp, #32]
 2357 10ce 0023     		movs	r3, #0
 2358 10d0 8DF82130 		strb	r3, [sp, #33]
 2359 10d4 3623     		movs	r3, #54
 2360 10d6 8DF82230 		strb	r3, [sp, #34]
 2361 10da AC23     		movs	r3, #172
 2362 10dc 8DF82330 		strb	r3, [sp, #35]
 2363 10e0 E123     		movs	r3, #225
 2364 10e2 8DF82430 		strb	r3, [sp, #36]
 2365 10e6 1123     		movs	r3, #17
 2366 10e8 8DF82530 		strb	r3, [sp, #37]
 2367 10ec 0123     		movs	r3, #1
 2368 10ee 8DF82630 		strb	r3, [sp, #38]
 2369 10f2 0023     		movs	r3, #0
 2370 10f4 8DF82730 		strb	r3, [sp, #39]
 2371 10f8 0023     		movs	r3, #0
 2372 10fa 8DF82830 		strb	r3, [sp, #40]
 2373 10fe 0023     		movs	r3, #0
 2374 1100 8DF82930 		strb	r3, [sp, #41]
 2375 1104 0223     		movs	r3, #2
 2376 1106 8DF82A30 		strb	r3, [sp, #42]
 2377 110a 0023     		movs	r3, #0
 2378 110c 8DF82B30 		strb	r3, [sp, #43]
 2379              		.loc 1 772 0
 2380 1110 5D4B     		ldr	r3, .L126
 2381 1112 1A88     		ldrh	r2, [r3]
 2382 1114 07AB     		add	r3, sp, #28
 2383 1116 1221     		movs	r1, #18
 2384 1118 0091     		str	r1, [sp]
 2385 111a 0021     		movs	r1, #0
 2386 111c 0191     		str	r1, [sp, #4]
 2387 111e 0421     		movs	r1, #4
 2388 1120 0291     		str	r1, [sp, #8]
 2389 1122 1021     		movs	r1, #16
 2390 1124 0391     		str	r1, [sp, #12]
 2391 1126 0021     		movs	r1, #0
 2392 1128 0491     		str	r1, [sp, #16]
 2393 112a 5B49     		ldr	r1, .L126+16
 2394 112c 0591     		str	r1, [sp, #20]
ARM GAS  /tmp/ccNtBBEs.s 			page 44


 2395 112e 1046     		mov	r0, r2
 2396 1130 0221     		movs	r1, #2
 2397 1132 1A46     		mov	r2, r3
 2398 1134 0923     		movs	r3, #9
 2399 1136 FFF7FEFF 		bl	aci_gatt_add_char
 2400 113a 0346     		mov	r3, r0
 2401 113c 8DF82E30 		strb	r3, [sp, #46]
 2402              		.loc 1 778 0
 2403 1140 9DF82E30 		ldrb	r3, [sp, #46]	@ zero_extendqisi2
 2404 1144 002B     		cmp	r3, #0
 2405 1146 00D0     		beq	.L116
 2406              		.loc 1 779 0
 2407 1148 29E2     		b	.L107
 2408              	.L116:
 2409              		.loc 1 785 0
 2410 114a 1B23     		movs	r3, #27
 2411 114c 8DF81C30 		strb	r3, [sp, #28]
 2412 1150 C523     		movs	r3, #197
 2413 1152 8DF81D30 		strb	r3, [sp, #29]
 2414 1156 D523     		movs	r3, #213
 2415 1158 8DF81E30 		strb	r3, [sp, #30]
 2416 115c A523     		movs	r3, #165
 2417 115e 8DF81F30 		strb	r3, [sp, #31]
 2418 1162 0223     		movs	r3, #2
 2419 1164 8DF82030 		strb	r3, [sp, #32]
 2420 1168 0023     		movs	r3, #0
 2421 116a 8DF82130 		strb	r3, [sp, #33]
 2422 116e 3623     		movs	r3, #54
 2423 1170 8DF82230 		strb	r3, [sp, #34]
 2424 1174 AC23     		movs	r3, #172
 2425 1176 8DF82330 		strb	r3, [sp, #35]
 2426 117a E123     		movs	r3, #225
 2427 117c 8DF82430 		strb	r3, [sp, #36]
 2428 1180 1123     		movs	r3, #17
 2429 1182 8DF82530 		strb	r3, [sp, #37]
 2430 1186 0123     		movs	r3, #1
 2431 1188 8DF82630 		strb	r3, [sp, #38]
 2432 118c 0023     		movs	r3, #0
 2433 118e 8DF82730 		strb	r3, [sp, #39]
 2434 1192 0023     		movs	r3, #0
 2435 1194 8DF82830 		strb	r3, [sp, #40]
 2436 1198 0123     		movs	r3, #1
 2437 119a 8DF82930 		strb	r3, [sp, #41]
 2438 119e 0023     		movs	r3, #0
 2439 11a0 8DF82A30 		strb	r3, [sp, #42]
 2440 11a4 0023     		movs	r3, #0
 2441 11a6 8DF82B30 		strb	r3, [sp, #43]
 2442              		.loc 1 786 0
 2443 11aa 374B     		ldr	r3, .L126
 2444 11ac 1A88     		ldrh	r2, [r3]
 2445 11ae 07AB     		add	r3, sp, #28
 2446 11b0 1021     		movs	r1, #16
 2447 11b2 0091     		str	r1, [sp]
 2448 11b4 0021     		movs	r1, #0
 2449 11b6 0191     		str	r1, [sp, #4]
 2450 11b8 0421     		movs	r1, #4
 2451 11ba 0291     		str	r1, [sp, #8]
ARM GAS  /tmp/ccNtBBEs.s 			page 45


 2452 11bc 1021     		movs	r1, #16
 2453 11be 0391     		str	r1, [sp, #12]
 2454 11c0 0021     		movs	r1, #0
 2455 11c2 0491     		str	r1, [sp, #16]
 2456 11c4 3549     		ldr	r1, .L126+20
 2457 11c6 0591     		str	r1, [sp, #20]
 2458 11c8 1046     		mov	r0, r2
 2459 11ca 0221     		movs	r1, #2
 2460 11cc 1A46     		mov	r2, r3
 2461 11ce 1423     		movs	r3, #20
 2462 11d0 FFF7FEFF 		bl	aci_gatt_add_char
 2463 11d4 0346     		mov	r3, r0
 2464 11d6 8DF82E30 		strb	r3, [sp, #46]
 2465              		.loc 1 792 0
 2466 11da 9DF82E30 		ldrb	r3, [sp, #46]	@ zero_extendqisi2
 2467 11de 002B     		cmp	r3, #0
 2468 11e0 00D0     		beq	.L117
 2469              		.loc 1 793 0
 2470 11e2 DCE1     		b	.L107
 2471              	.L117:
 2472              		.loc 1 797 0
 2473 11e4 2B4B     		ldr	r3, .L126+12
 2474 11e6 93F82D30 		ldrb	r3, [r3, #45]	@ zero_extendqisi2
 2475 11ea 012B     		cmp	r3, #1
 2476 11ec 5AD1     		bne	.L118
 2477              		.loc 1 799 0
 2478 11ee 1B23     		movs	r3, #27
 2479 11f0 8DF81C30 		strb	r3, [sp, #28]
 2480 11f4 C523     		movs	r3, #197
 2481 11f6 8DF81D30 		strb	r3, [sp, #29]
 2482 11fa D523     		movs	r3, #213
 2483 11fc 8DF81E30 		strb	r3, [sp, #30]
 2484 1200 A523     		movs	r3, #165
 2485 1202 8DF81F30 		strb	r3, [sp, #31]
 2486 1206 0223     		movs	r3, #2
 2487 1208 8DF82030 		strb	r3, [sp, #32]
 2488 120c 0023     		movs	r3, #0
 2489 120e 8DF82130 		strb	r3, [sp, #33]
 2490 1212 3623     		movs	r3, #54
 2491 1214 8DF82230 		strb	r3, [sp, #34]
 2492 1218 AC23     		movs	r3, #172
 2493 121a 8DF82330 		strb	r3, [sp, #35]
 2494 121e E123     		movs	r3, #225
 2495 1220 8DF82430 		strb	r3, [sp, #36]
 2496 1224 1123     		movs	r3, #17
 2497 1226 8DF82530 		strb	r3, [sp, #37]
 2498 122a 0123     		movs	r3, #1
 2499 122c 8DF82630 		strb	r3, [sp, #38]
 2500 1230 0023     		movs	r3, #0
 2501 1232 8DF82730 		strb	r3, [sp, #39]
 2502 1236 4023     		movs	r3, #64
 2503 1238 8DF82830 		strb	r3, [sp, #40]
 2504 123c 0023     		movs	r3, #0
 2505 123e 8DF82930 		strb	r3, [sp, #41]
 2506 1242 0023     		movs	r3, #0
 2507 1244 8DF82A30 		strb	r3, [sp, #42]
 2508 1248 0023     		movs	r3, #0
ARM GAS  /tmp/ccNtBBEs.s 			page 46


 2509 124a 8DF82B30 		strb	r3, [sp, #43]
 2510              		.loc 1 800 0
 2511 124e 0E4B     		ldr	r3, .L126
 2512 1250 1A88     		ldrh	r2, [r3]
 2513 1252 07AB     		add	r3, sp, #28
 2514 1254 1021     		movs	r1, #16
 2515 1256 0091     		str	r1, [sp]
 2516 1258 0021     		movs	r1, #0
 2517 125a 0191     		str	r1, [sp, #4]
 2518 125c 0421     		movs	r1, #4
 2519 125e 0291     		str	r1, [sp, #8]
 2520 1260 1021     		movs	r1, #16
 2521 1262 0391     		str	r1, [sp, #12]
 2522 1264 0021     		movs	r1, #0
 2523 1266 0491     		str	r1, [sp, #16]
 2524 1268 0D49     		ldr	r1, .L126+24
 2525 126a 0591     		str	r1, [sp, #20]
 2526 126c 1046     		mov	r0, r2
 2527 126e 0221     		movs	r1, #2
 2528 1270 1A46     		mov	r2, r3
 2529 1272 0423     		movs	r3, #4
 2530 1274 FFF7FEFF 		bl	aci_gatt_add_char
 2531 1278 0346     		mov	r3, r0
 2532 127a 8DF82E30 		strb	r3, [sp, #46]
 2533              		.loc 1 806 0
 2534 127e 9DF82E30 		ldrb	r3, [sp, #46]	@ zero_extendqisi2
 2535 1282 002B     		cmp	r3, #0
 2536 1284 0ED0     		beq	.L118
 2537              		.loc 1 807 0
 2538 1286 8AE1     		b	.L107
 2539              	.L127:
 2540              		.align	2
 2541              	.L126:
 2542 1288 04000000 		.word	HWServW2STHandle
 2543 128c 0A000000 		.word	AccEventCharHandle
 2544 1290 0C000000 		.word	AudioLevelCharHandle
 2545 1294 00000000 		.word	TargetBoardFeatures
 2546 1298 0E000000 		.word	GGCharHandle
 2547 129c 10000000 		.word	QuaternionsCharHandle
 2548 12a0 12000000 		.word	ECompassCharHandle
 2549              	.L118:
 2550              		.loc 1 813 0
 2551 12a4 1B23     		movs	r3, #27
 2552 12a6 8DF81C30 		strb	r3, [sp, #28]
 2553 12aa C523     		movs	r3, #197
 2554 12ac 8DF81D30 		strb	r3, [sp, #29]
 2555 12b0 D523     		movs	r3, #213
 2556 12b2 8DF81E30 		strb	r3, [sp, #30]
 2557 12b6 A523     		movs	r3, #165
 2558 12b8 8DF81F30 		strb	r3, [sp, #31]
 2559 12bc 0223     		movs	r3, #2
 2560 12be 8DF82030 		strb	r3, [sp, #32]
 2561 12c2 0023     		movs	r3, #0
 2562 12c4 8DF82130 		strb	r3, [sp, #33]
 2563 12c8 3623     		movs	r3, #54
 2564 12ca 8DF82230 		strb	r3, [sp, #34]
 2565 12ce AC23     		movs	r3, #172
ARM GAS  /tmp/ccNtBBEs.s 			page 47


 2566 12d0 8DF82330 		strb	r3, [sp, #35]
 2567 12d4 E123     		movs	r3, #225
 2568 12d6 8DF82430 		strb	r3, [sp, #36]
 2569 12da 1123     		movs	r3, #17
 2570 12dc 8DF82530 		strb	r3, [sp, #37]
 2571 12e0 0123     		movs	r3, #1
 2572 12e2 8DF82630 		strb	r3, [sp, #38]
 2573 12e6 0023     		movs	r3, #0
 2574 12e8 8DF82730 		strb	r3, [sp, #39]
 2575 12ec 1023     		movs	r3, #16
 2576 12ee 8DF82830 		strb	r3, [sp, #40]
 2577 12f2 0023     		movs	r3, #0
 2578 12f4 8DF82930 		strb	r3, [sp, #41]
 2579 12f8 0023     		movs	r3, #0
 2580 12fa 8DF82A30 		strb	r3, [sp, #42]
 2581 12fe 0023     		movs	r3, #0
 2582 1300 8DF82B30 		strb	r3, [sp, #43]
 2583              		.loc 1 814 0
 2584 1304 A84B     		ldr	r3, .L128
 2585 1306 1A88     		ldrh	r2, [r3]
 2586 1308 07AB     		add	r3, sp, #28
 2587 130a 1221     		movs	r1, #18
 2588 130c 0091     		str	r1, [sp]
 2589 130e 0021     		movs	r1, #0
 2590 1310 0191     		str	r1, [sp, #4]
 2591 1312 0421     		movs	r1, #4
 2592 1314 0291     		str	r1, [sp, #8]
 2593 1316 1021     		movs	r1, #16
 2594 1318 0391     		str	r1, [sp, #12]
 2595 131a 0021     		movs	r1, #0
 2596 131c 0491     		str	r1, [sp, #16]
 2597 131e A349     		ldr	r1, .L128+4
 2598 1320 0591     		str	r1, [sp, #20]
 2599 1322 1046     		mov	r0, r2
 2600 1324 0221     		movs	r1, #2
 2601 1326 1A46     		mov	r2, r3
 2602 1328 0323     		movs	r3, #3
 2603 132a FFF7FEFF 		bl	aci_gatt_add_char
 2604 132e 0346     		mov	r3, r0
 2605 1330 8DF82E30 		strb	r3, [sp, #46]
 2606              		.loc 1 820 0
 2607 1334 9DF82E30 		ldrb	r3, [sp, #46]	@ zero_extendqisi2
 2608 1338 002B     		cmp	r3, #0
 2609 133a 00D0     		beq	.L119
 2610              		.loc 1 821 0
 2611 133c 2FE1     		b	.L107
 2612              	.L119:
 2613              		.loc 1 826 0
 2614 133e 1B23     		movs	r3, #27
 2615 1340 8DF81C30 		strb	r3, [sp, #28]
 2616 1344 C523     		movs	r3, #197
 2617 1346 8DF81D30 		strb	r3, [sp, #29]
 2618 134a D523     		movs	r3, #213
 2619 134c 8DF81E30 		strb	r3, [sp, #30]
 2620 1350 A523     		movs	r3, #165
 2621 1352 8DF81F30 		strb	r3, [sp, #31]
 2622 1356 0223     		movs	r3, #2
ARM GAS  /tmp/ccNtBBEs.s 			page 48


 2623 1358 8DF82030 		strb	r3, [sp, #32]
 2624 135c 0023     		movs	r3, #0
 2625 135e 8DF82130 		strb	r3, [sp, #33]
 2626 1362 3623     		movs	r3, #54
 2627 1364 8DF82230 		strb	r3, [sp, #34]
 2628 1368 AC23     		movs	r3, #172
 2629 136a 8DF82330 		strb	r3, [sp, #35]
 2630 136e E123     		movs	r3, #225
 2631 1370 8DF82430 		strb	r3, [sp, #36]
 2632 1374 1123     		movs	r3, #17
 2633 1376 8DF82530 		strb	r3, [sp, #37]
 2634 137a 0123     		movs	r3, #1
 2635 137c 8DF82630 		strb	r3, [sp, #38]
 2636 1380 0023     		movs	r3, #0
 2637 1382 8DF82730 		strb	r3, [sp, #39]
 2638 1386 0823     		movs	r3, #8
 2639 1388 8DF82830 		strb	r3, [sp, #40]
 2640 138c 0023     		movs	r3, #0
 2641 138e 8DF82930 		strb	r3, [sp, #41]
 2642 1392 0023     		movs	r3, #0
 2643 1394 8DF82A30 		strb	r3, [sp, #42]
 2644 1398 0023     		movs	r3, #0
 2645 139a 8DF82B30 		strb	r3, [sp, #43]
 2646              		.loc 1 827 0
 2647 139e 824B     		ldr	r3, .L128
 2648 13a0 1A88     		ldrh	r2, [r3]
 2649 13a2 07AB     		add	r3, sp, #28
 2650 13a4 1221     		movs	r1, #18
 2651 13a6 0091     		str	r1, [sp]
 2652 13a8 0021     		movs	r1, #0
 2653 13aa 0191     		str	r1, [sp, #4]
 2654 13ac 0421     		movs	r1, #4
 2655 13ae 0291     		str	r1, [sp, #8]
 2656 13b0 1021     		movs	r1, #16
 2657 13b2 0391     		str	r1, [sp, #12]
 2658 13b4 0021     		movs	r1, #0
 2659 13b6 0491     		str	r1, [sp, #16]
 2660 13b8 7D49     		ldr	r1, .L128+8
 2661 13ba 0591     		str	r1, [sp, #20]
 2662 13bc 1046     		mov	r0, r2
 2663 13be 0221     		movs	r1, #2
 2664 13c0 1A46     		mov	r2, r3
 2665 13c2 0323     		movs	r3, #3
 2666 13c4 FFF7FEFF 		bl	aci_gatt_add_char
 2667 13c8 0346     		mov	r3, r0
 2668 13ca 8DF82E30 		strb	r3, [sp, #46]
 2669              		.loc 1 833 0
 2670 13ce 9DF82E30 		ldrb	r3, [sp, #46]	@ zero_extendqisi2
 2671 13d2 002B     		cmp	r3, #0
 2672 13d4 00D0     		beq	.L120
 2673              		.loc 1 834 0
 2674 13d6 E2E0     		b	.L107
 2675              	.L120:
 2676              		.loc 1 839 0
 2677 13d8 1B23     		movs	r3, #27
 2678 13da 8DF81C30 		strb	r3, [sp, #28]
 2679 13de C523     		movs	r3, #197
ARM GAS  /tmp/ccNtBBEs.s 			page 49


 2680 13e0 8DF81D30 		strb	r3, [sp, #29]
 2681 13e4 D523     		movs	r3, #213
 2682 13e6 8DF81E30 		strb	r3, [sp, #30]
 2683 13ea A523     		movs	r3, #165
 2684 13ec 8DF81F30 		strb	r3, [sp, #31]
 2685 13f0 0223     		movs	r3, #2
 2686 13f2 8DF82030 		strb	r3, [sp, #32]
 2687 13f6 0023     		movs	r3, #0
 2688 13f8 8DF82130 		strb	r3, [sp, #33]
 2689 13fc 3623     		movs	r3, #54
 2690 13fe 8DF82230 		strb	r3, [sp, #34]
 2691 1402 AC23     		movs	r3, #172
 2692 1404 8DF82330 		strb	r3, [sp, #35]
 2693 1408 E123     		movs	r3, #225
 2694 140a 8DF82430 		strb	r3, [sp, #36]
 2695 140e 1123     		movs	r3, #17
 2696 1410 8DF82530 		strb	r3, [sp, #37]
 2697 1414 0123     		movs	r3, #1
 2698 1416 8DF82630 		strb	r3, [sp, #38]
 2699 141a 0023     		movs	r3, #0
 2700 141c 8DF82730 		strb	r3, [sp, #39]
 2701 1420 0223     		movs	r3, #2
 2702 1422 8DF82830 		strb	r3, [sp, #40]
 2703 1426 0023     		movs	r3, #0
 2704 1428 8DF82930 		strb	r3, [sp, #41]
 2705 142c 0023     		movs	r3, #0
 2706 142e 8DF82A30 		strb	r3, [sp, #42]
 2707 1432 0023     		movs	r3, #0
 2708 1434 8DF82B30 		strb	r3, [sp, #43]
 2709              		.loc 1 840 0
 2710 1438 5B4B     		ldr	r3, .L128
 2711 143a 1A88     		ldrh	r2, [r3]
 2712 143c 07AB     		add	r3, sp, #28
 2713 143e 1221     		movs	r1, #18
 2714 1440 0091     		str	r1, [sp]
 2715 1442 0021     		movs	r1, #0
 2716 1444 0191     		str	r1, [sp, #4]
 2717 1446 0421     		movs	r1, #4
 2718 1448 0291     		str	r1, [sp, #8]
 2719 144a 1021     		movs	r1, #16
 2720 144c 0391     		str	r1, [sp, #12]
 2721 144e 0021     		movs	r1, #0
 2722 1450 0491     		str	r1, [sp, #16]
 2723 1452 5849     		ldr	r1, .L128+12
 2724 1454 0591     		str	r1, [sp, #20]
 2725 1456 1046     		mov	r0, r2
 2726 1458 0221     		movs	r1, #2
 2727 145a 1A46     		mov	r2, r3
 2728 145c 0323     		movs	r3, #3
 2729 145e FFF7FEFF 		bl	aci_gatt_add_char
 2730 1462 0346     		mov	r3, r0
 2731 1464 8DF82E30 		strb	r3, [sp, #46]
 2732              		.loc 1 846 0
 2733 1468 9DF82E30 		ldrb	r3, [sp, #46]	@ zero_extendqisi2
 2734 146c 002B     		cmp	r3, #0
 2735 146e 00D0     		beq	.L121
 2736              		.loc 1 847 0
ARM GAS  /tmp/ccNtBBEs.s 			page 50


 2737 1470 95E0     		b	.L107
 2738              	.L121:
 2739              		.loc 1 865 0
 2740 1472 4D4B     		ldr	r3, .L128
 2741 1474 1A88     		ldrh	r2, [r3]
 2742 1476 504B     		ldr	r3, .L128+16
 2743 1478 1A80     		strh	r2, [r3]	@ movhi
 2744              		.loc 1 867 0
 2745 147a 1B23     		movs	r3, #27
 2746 147c 8DF81C30 		strb	r3, [sp, #28]
 2747 1480 C523     		movs	r3, #197
 2748 1482 8DF81D30 		strb	r3, [sp, #29]
 2749 1486 D523     		movs	r3, #213
 2750 1488 8DF81E30 		strb	r3, [sp, #30]
 2751 148c A523     		movs	r3, #165
 2752 148e 8DF81F30 		strb	r3, [sp, #31]
 2753 1492 0223     		movs	r3, #2
 2754 1494 8DF82030 		strb	r3, [sp, #32]
 2755 1498 0023     		movs	r3, #0
 2756 149a 8DF82130 		strb	r3, [sp, #33]
 2757 149e 3623     		movs	r3, #54
 2758 14a0 8DF82230 		strb	r3, [sp, #34]
 2759 14a4 AC23     		movs	r3, #172
 2760 14a6 8DF82330 		strb	r3, [sp, #35]
 2761 14aa E123     		movs	r3, #225
 2762 14ac 8DF82430 		strb	r3, [sp, #36]
 2763 14b0 1123     		movs	r3, #17
 2764 14b2 8DF82530 		strb	r3, [sp, #37]
 2765 14b6 0123     		movs	r3, #1
 2766 14b8 8DF82630 		strb	r3, [sp, #38]
 2767 14bc 0023     		movs	r3, #0
 2768 14be 8DF82730 		strb	r3, [sp, #39]
 2769 14c2 0023     		movs	r3, #0
 2770 14c4 8DF82830 		strb	r3, [sp, #40]
 2771 14c8 0023     		movs	r3, #0
 2772 14ca 8DF82930 		strb	r3, [sp, #41]
 2773 14ce 0023     		movs	r3, #0
 2774 14d0 8DF82A30 		strb	r3, [sp, #42]
 2775 14d4 0823     		movs	r3, #8
 2776 14d6 8DF82B30 		strb	r3, [sp, #43]
 2777              		.loc 1 868 0
 2778 14da 334B     		ldr	r3, .L128
 2779 14dc 1A88     		ldrh	r2, [r3]
 2780 14de 07AB     		add	r3, sp, #28
 2781 14e0 1021     		movs	r1, #16
 2782 14e2 0091     		str	r1, [sp]
 2783 14e4 0021     		movs	r1, #0
 2784 14e6 0191     		str	r1, [sp, #4]
 2785 14e8 0021     		movs	r1, #0
 2786 14ea 0291     		str	r1, [sp, #8]
 2787 14ec 1021     		movs	r1, #16
 2788 14ee 0391     		str	r1, [sp, #12]
 2789 14f0 0121     		movs	r1, #1
 2790 14f2 0491     		str	r1, [sp, #16]
 2791 14f4 3149     		ldr	r1, .L128+20
 2792 14f6 0591     		str	r1, [sp, #20]
 2793 14f8 1046     		mov	r0, r2
ARM GAS  /tmp/ccNtBBEs.s 			page 51


 2794 14fa 0221     		movs	r1, #2
 2795 14fc 1A46     		mov	r2, r3
 2796 14fe 1423     		movs	r3, #20
 2797 1500 FFF7FEFF 		bl	aci_gatt_add_char
 2798 1504 0346     		mov	r3, r0
 2799 1506 8DF82E30 		strb	r3, [sp, #46]
 2800              		.loc 1 873 0
 2801 150a 1B23     		movs	r3, #27
 2802 150c 8DF81C30 		strb	r3, [sp, #28]
 2803 1510 C523     		movs	r3, #197
 2804 1512 8DF81D30 		strb	r3, [sp, #29]
 2805 1516 D523     		movs	r3, #213
 2806 1518 8DF81E30 		strb	r3, [sp, #30]
 2807 151c A523     		movs	r3, #165
 2808 151e 8DF81F30 		strb	r3, [sp, #31]
 2809 1522 0223     		movs	r3, #2
 2810 1524 8DF82030 		strb	r3, [sp, #32]
 2811 1528 0023     		movs	r3, #0
 2812 152a 8DF82130 		strb	r3, [sp, #33]
 2813 152e 3623     		movs	r3, #54
 2814 1530 8DF82230 		strb	r3, [sp, #34]
 2815 1534 AC23     		movs	r3, #172
 2816 1536 8DF82330 		strb	r3, [sp, #35]
 2817 153a E123     		movs	r3, #225
 2818 153c 8DF82430 		strb	r3, [sp, #36]
 2819 1540 1123     		movs	r3, #17
 2820 1542 8DF82530 		strb	r3, [sp, #37]
 2821 1546 0123     		movs	r3, #1
 2822 1548 8DF82630 		strb	r3, [sp, #38]
 2823 154c 0023     		movs	r3, #0
 2824 154e 8DF82730 		strb	r3, [sp, #39]
 2825 1552 0023     		movs	r3, #0
 2826 1554 8DF82830 		strb	r3, [sp, #40]
 2827 1558 0023     		movs	r3, #0
 2828 155a 8DF82930 		strb	r3, [sp, #41]
 2829 155e 0023     		movs	r3, #0
 2830 1560 8DF82A30 		strb	r3, [sp, #42]
 2831 1564 4023     		movs	r3, #64
 2832 1566 8DF82B30 		strb	r3, [sp, #43]
 2833              		.loc 1 874 0
 2834 156a 0F4B     		ldr	r3, .L128
 2835 156c 1A88     		ldrh	r2, [r3]
 2836 156e 07AB     		add	r3, sp, #28
 2837 1570 1021     		movs	r1, #16
 2838 1572 0091     		str	r1, [sp]
 2839 1574 0021     		movs	r1, #0
 2840 1576 0191     		str	r1, [sp, #4]
 2841 1578 0021     		movs	r1, #0
 2842 157a 0291     		str	r1, [sp, #8]
 2843 157c 1021     		movs	r1, #16
 2844 157e 0391     		str	r1, [sp, #12]
 2845 1580 0121     		movs	r1, #1
 2846 1582 0491     		str	r1, [sp, #16]
 2847 1584 0E49     		ldr	r1, .L128+24
 2848 1586 0591     		str	r1, [sp, #20]
 2849 1588 1046     		mov	r0, r2
 2850 158a 0221     		movs	r1, #2
ARM GAS  /tmp/ccNtBBEs.s 			page 52


 2851 158c 1A46     		mov	r2, r3
 2852 158e 0623     		movs	r3, #6
 2853 1590 FFF7FEFF 		bl	aci_gatt_add_char
 2854 1594 0346     		mov	r3, r0
 2855 1596 8DF82E30 		strb	r3, [sp, #46]
 2856              		.loc 1 880 0
 2857 159a 0023     		movs	r3, #0
 2858 159c 00E0     		b	.L123
 2859              	.L107:
 2860              		.loc 1 884 0
 2861 159e 4723     		movs	r3, #71
 2862              	.L123:
 2863              		.loc 1 885 0
 2864 15a0 1846     		mov	r0, r3
 2865 15a2 0DB0     		add	sp, sp, #52
 2866              		@ sp needed
 2867 15a4 5DF804FB 		ldr	pc, [sp], #4
 2868              	.L129:
 2869              		.align	2
 2870              	.L128:
 2871 15a8 04000000 		.word	HWServW2STHandle
 2872 15ac 14000000 		.word	ActivityRecCharHandle
 2873 15b0 16000000 		.word	CarryPosRecCharHandle
 2874 15b4 18000000 		.word	GestureRecCharHandle
 2875 15b8 00000000 		.word	BLUEVOICE_tx_handle
 2876 15bc 02000000 		.word	BLUEVOICE_tx_handle+2
 2877 15c0 04000000 		.word	BLUEVOICE_tx_handle+4
 2878              		.cfi_endproc
 2879              	.LFE283:
 2880              		.size	Add_HW_SW_ServW2ST_Service, .-Add_HW_SW_ServW2ST_Service
 2881              		.section	.rodata
 2882 0112 0000     		.align	2
 2883              	.LC10:
 2884 0114 4572726F 		.ascii	"Error Updating Acc/Gyro/Mag Char\015\012\000"
 2884      72205570 
 2884      64617469 
 2884      6E672041 
 2884      63632F47 
 2885              		.text
 2886              		.align	2
 2887 15c4 AFF30080 		.p2align 4,,15
 2887      AFF30080 
 2887      AFF30080 
 2888              		.global	AccGyroMag_Update
 2889              		.thumb
 2890              		.thumb_func
 2891              		.type	AccGyroMag_Update, %function
 2892              	AccGyroMag_Update:
 2893              	.LFB284:
 2894              		.loc 1 895 0
 2895              		.cfi_startproc
 2896              		@ args = 0, pretend = 0, frame = 56
 2897              		@ frame_needed = 0, uses_anonymous_args = 0
 2898 15d0 F0B5     		push	{r4, r5, r6, r7, lr}
 2899              		.cfi_def_cfa_offset 20
 2900              		.cfi_offset 4, -20
 2901              		.cfi_offset 5, -16
ARM GAS  /tmp/ccNtBBEs.s 			page 53


 2902              		.cfi_offset 6, -12
 2903              		.cfi_offset 7, -8
 2904              		.cfi_offset 14, -4
 2905 15d2 91B0     		sub	sp, sp, #68
 2906              		.cfi_def_cfa_offset 88
 2907 15d4 0590     		str	r0, [sp, #20]
 2908 15d6 0491     		str	r1, [sp, #16]
 2909 15d8 0392     		str	r2, [sp, #12]
 2910              		.loc 1 903 0
 2911 15da FFF7FEFF 		bl	HAL_GetTick
 2912 15de 0346     		mov	r3, r0
 2913 15e0 DB08     		lsrs	r3, r3, #3
 2914 15e2 DBB2     		uxtb	r3, r3
 2915 15e4 8DF81C30 		strb	r3, [sp, #28]
 2916 15e8 FFF7FEFF 		bl	HAL_GetTick
 2917 15ec 0346     		mov	r3, r0
 2918 15ee DB0A     		lsrs	r3, r3, #11
 2919 15f0 DBB2     		uxtb	r3, r3
 2920 15f2 8DF81D30 		strb	r3, [sp, #29]
 2921              		.loc 1 905 0
 2922 15f6 059B     		ldr	r3, [sp, #20]
 2923 15f8 1B68     		ldr	r3, [r3]
 2924 15fa DBB2     		uxtb	r3, r3
 2925 15fc 8DF81E30 		strb	r3, [sp, #30]
 2926 1600 059B     		ldr	r3, [sp, #20]
 2927 1602 1B68     		ldr	r3, [r3]
 2928 1604 1B12     		asrs	r3, r3, #8
 2929 1606 DBB2     		uxtb	r3, r3
 2930 1608 8DF81F30 		strb	r3, [sp, #31]
 2931              		.loc 1 906 0
 2932 160c 059B     		ldr	r3, [sp, #20]
 2933 160e 5B68     		ldr	r3, [r3, #4]
 2934 1610 DBB2     		uxtb	r3, r3
 2935 1612 8DF82030 		strb	r3, [sp, #32]
 2936 1616 059B     		ldr	r3, [sp, #20]
 2937 1618 5B68     		ldr	r3, [r3, #4]
 2938 161a 1B12     		asrs	r3, r3, #8
 2939 161c DBB2     		uxtb	r3, r3
 2940 161e 8DF82130 		strb	r3, [sp, #33]
 2941              		.loc 1 907 0
 2942 1622 059B     		ldr	r3, [sp, #20]
 2943 1624 9B68     		ldr	r3, [r3, #8]
 2944 1626 DBB2     		uxtb	r3, r3
 2945 1628 8DF82230 		strb	r3, [sp, #34]
 2946 162c 059B     		ldr	r3, [sp, #20]
 2947 162e 9B68     		ldr	r3, [r3, #8]
 2948 1630 1B12     		asrs	r3, r3, #8
 2949 1632 DBB2     		uxtb	r3, r3
 2950 1634 8DF82330 		strb	r3, [sp, #35]
 2951              		.loc 1 909 0
 2952 1638 049B     		ldr	r3, [sp, #16]
 2953 163a 1B68     		ldr	r3, [r3]
 2954 163c 564A     		ldr	r2, .L136
 2955 163e 82FB0312 		smull	r1, r2, r2, r3
 2956 1642 5211     		asrs	r2, r2, #5
 2957 1644 DB17     		asrs	r3, r3, #31
 2958 1646 D21A     		subs	r2, r2, r3
ARM GAS  /tmp/ccNtBBEs.s 			page 54


 2959 1648 049B     		ldr	r3, [sp, #16]
 2960 164a 1A60     		str	r2, [r3]
 2961              		.loc 1 910 0
 2962 164c 049B     		ldr	r3, [sp, #16]
 2963 164e 5B68     		ldr	r3, [r3, #4]
 2964 1650 514A     		ldr	r2, .L136
 2965 1652 82FB0312 		smull	r1, r2, r2, r3
 2966 1656 5211     		asrs	r2, r2, #5
 2967 1658 DB17     		asrs	r3, r3, #31
 2968 165a D21A     		subs	r2, r2, r3
 2969 165c 049B     		ldr	r3, [sp, #16]
 2970 165e 5A60     		str	r2, [r3, #4]
 2971              		.loc 1 911 0
 2972 1660 049B     		ldr	r3, [sp, #16]
 2973 1662 9B68     		ldr	r3, [r3, #8]
 2974 1664 4C4A     		ldr	r2, .L136
 2975 1666 82FB0312 		smull	r1, r2, r2, r3
 2976 166a 5211     		asrs	r2, r2, #5
 2977 166c DB17     		asrs	r3, r3, #31
 2978 166e D21A     		subs	r2, r2, r3
 2979 1670 049B     		ldr	r3, [sp, #16]
 2980 1672 9A60     		str	r2, [r3, #8]
 2981              		.loc 1 913 0
 2982 1674 049B     		ldr	r3, [sp, #16]
 2983 1676 1B68     		ldr	r3, [r3]
 2984 1678 DBB2     		uxtb	r3, r3
 2985 167a 8DF82430 		strb	r3, [sp, #36]
 2986 167e 049B     		ldr	r3, [sp, #16]
 2987 1680 1B68     		ldr	r3, [r3]
 2988 1682 1B12     		asrs	r3, r3, #8
 2989 1684 DBB2     		uxtb	r3, r3
 2990 1686 8DF82530 		strb	r3, [sp, #37]
 2991              		.loc 1 914 0
 2992 168a 049B     		ldr	r3, [sp, #16]
 2993 168c 5B68     		ldr	r3, [r3, #4]
 2994 168e DBB2     		uxtb	r3, r3
 2995 1690 8DF82630 		strb	r3, [sp, #38]
 2996 1694 049B     		ldr	r3, [sp, #16]
 2997 1696 5B68     		ldr	r3, [r3, #4]
 2998 1698 1B12     		asrs	r3, r3, #8
 2999 169a DBB2     		uxtb	r3, r3
 3000 169c 8DF82730 		strb	r3, [sp, #39]
 3001              		.loc 1 915 0
 3002 16a0 049B     		ldr	r3, [sp, #16]
 3003 16a2 9B68     		ldr	r3, [r3, #8]
 3004 16a4 DBB2     		uxtb	r3, r3
 3005 16a6 8DF82830 		strb	r3, [sp, #40]
 3006 16aa 049B     		ldr	r3, [sp, #16]
 3007 16ac 9B68     		ldr	r3, [r3, #8]
 3008 16ae 1B12     		asrs	r3, r3, #8
 3009 16b0 DBB2     		uxtb	r3, r3
 3010 16b2 8DF82930 		strb	r3, [sp, #41]
 3011              		.loc 1 918 0
 3012 16b6 039B     		ldr	r3, [sp, #12]
 3013 16b8 1A68     		ldr	r2, [r3]
 3014 16ba 384B     		ldr	r3, .L136+4
 3015 16bc 1B88     		ldrh	r3, [r3]
ARM GAS  /tmp/ccNtBBEs.s 			page 55


 3016 16be 1BB2     		sxth	r3, r3
 3017 16c0 D31A     		subs	r3, r2, r3
 3018 16c2 0F93     		str	r3, [sp, #60]
 3019              		.loc 1 919 0
 3020 16c4 039B     		ldr	r3, [sp, #12]
 3021 16c6 5A68     		ldr	r2, [r3, #4]
 3022 16c8 344B     		ldr	r3, .L136+4
 3023 16ca 5B88     		ldrh	r3, [r3, #2]
 3024 16cc 1BB2     		sxth	r3, r3
 3025 16ce D31A     		subs	r3, r2, r3
 3026 16d0 0E93     		str	r3, [sp, #56]
 3027              		.loc 1 920 0
 3028 16d2 039B     		ldr	r3, [sp, #12]
 3029 16d4 9A68     		ldr	r2, [r3, #8]
 3030 16d6 314B     		ldr	r3, .L136+4
 3031 16d8 9B88     		ldrh	r3, [r3, #4]
 3032 16da 1BB2     		sxth	r3, r3
 3033 16dc D31A     		subs	r3, r2, r3
 3034 16de 0D93     		str	r3, [sp, #52]
 3035              		.loc 1 922 0
 3036 16e0 0F9B     		ldr	r3, [sp, #60]
 3037 16e2 DBB2     		uxtb	r3, r3
 3038 16e4 8DF82A30 		strb	r3, [sp, #42]
 3039 16e8 0F9B     		ldr	r3, [sp, #60]
 3040 16ea 1B12     		asrs	r3, r3, #8
 3041 16ec DBB2     		uxtb	r3, r3
 3042 16ee 8DF82B30 		strb	r3, [sp, #43]
 3043              		.loc 1 923 0
 3044 16f2 0E9B     		ldr	r3, [sp, #56]
 3045 16f4 DBB2     		uxtb	r3, r3
 3046 16f6 8DF82C30 		strb	r3, [sp, #44]
 3047 16fa 0E9B     		ldr	r3, [sp, #56]
 3048 16fc 1B12     		asrs	r3, r3, #8
 3049 16fe DBB2     		uxtb	r3, r3
 3050 1700 8DF82D30 		strb	r3, [sp, #45]
 3051              		.loc 1 924 0
 3052 1704 0D9B     		ldr	r3, [sp, #52]
 3053 1706 DBB2     		uxtb	r3, r3
 3054 1708 8DF82E30 		strb	r3, [sp, #46]
 3055 170c 0D9B     		ldr	r3, [sp, #52]
 3056 170e 1B12     		asrs	r3, r3, #8
 3057 1710 DBB2     		uxtb	r3, r3
 3058 1712 8DF82F30 		strb	r3, [sp, #47]
 3059              		.loc 1 926 0
 3060 1716 224B     		ldr	r3, .L136+8
 3061 1718 1A88     		ldrh	r2, [r3]
 3062 171a 224B     		ldr	r3, .L136+12
 3063 171c 1B88     		ldrh	r3, [r3]
 3064 171e 07A9     		add	r1, sp, #28
 3065 1720 0091     		str	r1, [sp]
 3066 1722 1046     		mov	r0, r2
 3067 1724 1946     		mov	r1, r3
 3068 1726 0022     		movs	r2, #0
 3069 1728 1423     		movs	r3, #20
 3070 172a FFF7FEFF 		bl	safe_aci_gatt_update_char_value
 3071 172e 0346     		mov	r3, r0
 3072 1730 8DF83330 		strb	r3, [sp, #51]
ARM GAS  /tmp/ccNtBBEs.s 			page 56


 3073              		.loc 1 928 0
 3074 1734 9DF83330 		ldrb	r3, [sp, #51]	@ zero_extendqisi2
 3075 1738 002B     		cmp	r3, #0
 3076 173a 28D0     		beq	.L131
 3077              		.loc 1 929 0
 3078 173c 1A4B     		ldr	r3, .L136+16
 3079 173e 1B68     		ldr	r3, [r3]
 3080 1740 03F40063 		and	r3, r3, #2048
 3081 1744 002B     		cmp	r3, #0
 3082 1746 20D0     		beq	.L132
 3083              		.loc 1 930 0
 3084 1748 184B     		ldr	r3, .L136+20
 3085 174a 194A     		ldr	r2, .L136+24
 3086 174c 1446     		mov	r4, r2
 3087 174e 1D46     		mov	r5, r3
 3088 1750 04F1200E 		add	lr, r4, #32
 3089              	.L133:
 3090 1754 2E46     		mov	r6, r5
 3091 1756 2746     		mov	r7, r4
 3092 1758 0FCF     		ldmia	r7!, {r0, r1, r2, r3}
 3093 175a 3060     		str	r0, [r6]	@ unaligned
 3094 175c 7160     		str	r1, [r6, #4]	@ unaligned
 3095 175e B260     		str	r2, [r6, #8]	@ unaligned
 3096 1760 F360     		str	r3, [r6, #12]	@ unaligned
 3097 1762 1034     		adds	r4, r4, #16
 3098 1764 1035     		adds	r5, r5, #16
 3099 1766 7445     		cmp	r4, lr
 3100 1768 F4D1     		bne	.L133
 3101 176a 2B46     		mov	r3, r5
 3102 176c 2246     		mov	r2, r4
 3103 176e 1188     		ldrh	r1, [r2]	@ unaligned
 3104 1770 9278     		ldrb	r2, [r2, #2]
 3105 1772 1980     		strh	r1, [r3]	@ unaligned
 3106 1774 9A70     		strb	r2, [r3, #2]
 3107 1776 0F4B     		ldr	r3, .L136+28
 3108 1778 2222     		movs	r2, #34
 3109 177a 1A60     		str	r2, [r3]
 3110              		.loc 1 931 0
 3111 177c 0D4B     		ldr	r3, .L136+28
 3112 177e 1B68     		ldr	r3, [r3]
 3113 1780 DBB2     		uxtb	r3, r3
 3114 1782 0A48     		ldr	r0, .L136+20
 3115 1784 1946     		mov	r1, r3
 3116 1786 FFF7FEFF 		bl	Stderr_Update
 3117              	.L132:
 3118              		.loc 1 935 0
 3119 178a 4723     		movs	r3, #71
 3120 178c 00E0     		b	.L135
 3121              	.L131:
 3122              		.loc 1 937 0
 3123 178e 0023     		movs	r3, #0
 3124              	.L135:
 3125              		.loc 1 938 0
 3126 1790 1846     		mov	r0, r3
 3127 1792 11B0     		add	sp, sp, #68
 3128              		@ sp needed
 3129 1794 F0BD     		pop	{r4, r5, r6, r7, pc}
ARM GAS  /tmp/ccNtBBEs.s 			page 57


 3130              	.L137:
 3131 1796 00BF     		.align	2
 3132              	.L136:
 3133 1798 1F85EB51 		.word	1374389535
 3134 179c 00000000 		.word	magOffset
 3135 17a0 04000000 		.word	HWServW2STHandle
 3136 17a4 08000000 		.word	AccGyroMagCharHandle
 3137 17a8 00000000 		.word	ConnectionBleStatus
 3138 17ac 00000000 		.word	BufferToWrite
 3139 17b0 14010000 		.word	.LC10
 3140 17b4 00000000 		.word	BytesToWrite
 3141              		.cfi_endproc
 3142              	.LFE284:
 3143              		.size	AccGyroMag_Update, .-AccGyroMag_Update
 3144              		.section	.rodata
 3145 0137 00       		.align	2
 3146              	.LC11:
 3147 0138 4572726F 		.ascii	"Error Updating Environmental Char\015\012\000"
 3147      72205570 
 3147      64617469 
 3147      6E672045 
 3147      6E766972 
 3148              		.text
 3149              		.align	2
 3150 17b8 AFF30080 		.p2align 4,,15
 3150      AFF30080 
 3151              		.global	Environmental_Update
 3152              		.thumb
 3153              		.thumb_func
 3154              		.type	Environmental_Update, %function
 3155              	Environmental_Update:
 3156              	.LFB285:
 3157              		.loc 1 949 0
 3158              		.cfi_startproc
 3159              		@ args = 0, pretend = 0, frame = 32
 3160              		@ frame_needed = 0, uses_anonymous_args = 0
 3161 17c0 F0B5     		push	{r4, r5, r6, r7, lr}
 3162              		.cfi_def_cfa_offset 20
 3163              		.cfi_offset 4, -20
 3164              		.cfi_offset 5, -16
 3165              		.cfi_offset 6, -12
 3166              		.cfi_offset 7, -8
 3167              		.cfi_offset 14, -4
 3168 17c2 8BB0     		sub	sp, sp, #44
 3169              		.cfi_def_cfa_offset 64
 3170 17c4 0590     		str	r0, [sp, #20]
 3171 17c6 ADF81210 		strh	r1, [sp, #18]	@ movhi
 3172 17ca ADF81020 		strh	r2, [sp, #16]	@ movhi
 3173 17ce ADF80E30 		strh	r3, [sp, #14]	@ movhi
 3174              		.loc 1 955 0
 3175 17d2 FFF7FEFF 		bl	HAL_GetTick
 3176 17d6 0346     		mov	r3, r0
 3177 17d8 DB08     		lsrs	r3, r3, #3
 3178 17da DBB2     		uxtb	r3, r3
 3179 17dc 8DF81830 		strb	r3, [sp, #24]
 3180 17e0 FFF7FEFF 		bl	HAL_GetTick
 3181 17e4 0346     		mov	r3, r0
ARM GAS  /tmp/ccNtBBEs.s 			page 58


 3182 17e6 DB0A     		lsrs	r3, r3, #11
 3183 17e8 DBB2     		uxtb	r3, r3
 3184 17ea 8DF81930 		strb	r3, [sp, #25]
 3185              		.loc 1 956 0
 3186 17ee 0223     		movs	r3, #2
 3187 17f0 8DF82730 		strb	r3, [sp, #39]
 3188              		.loc 1 958 0
 3189 17f4 6B4B     		ldr	r3, .L148
 3190 17f6 1B69     		ldr	r3, [r3, #16]
 3191 17f8 002B     		cmp	r3, #0
 3192 17fa 26D0     		beq	.L139
 3193              		.loc 1 959 0
 3194 17fc 9DF82730 		ldrb	r3, [sp, #39]	@ zero_extendqisi2
 3195 1800 06AA     		add	r2, sp, #24
 3196 1802 1344     		add	r3, r3, r2
 3197 1804 059A     		ldr	r2, [sp, #20]
 3198 1806 D2B2     		uxtb	r2, r2
 3199 1808 1A70     		strb	r2, [r3]
 3200 180a 9DF82730 		ldrb	r3, [sp, #39]	@ zero_extendqisi2
 3201 180e 0133     		adds	r3, r3, #1
 3202 1810 06AA     		add	r2, sp, #24
 3203 1812 1344     		add	r3, r3, r2
 3204 1814 059A     		ldr	r2, [sp, #20]
 3205 1816 1212     		asrs	r2, r2, #8
 3206 1818 D2B2     		uxtb	r2, r2
 3207 181a 1A70     		strb	r2, [r3]
 3208 181c 9DF82730 		ldrb	r3, [sp, #39]	@ zero_extendqisi2
 3209 1820 0233     		adds	r3, r3, #2
 3210 1822 06AA     		add	r2, sp, #24
 3211 1824 1344     		add	r3, r3, r2
 3212 1826 059A     		ldr	r2, [sp, #20]
 3213 1828 1214     		asrs	r2, r2, #16
 3214 182a D2B2     		uxtb	r2, r2
 3215 182c 1A70     		strb	r2, [r3]
 3216 182e 9DF82730 		ldrb	r3, [sp, #39]	@ zero_extendqisi2
 3217 1832 0333     		adds	r3, r3, #3
 3218 1834 06AA     		add	r2, sp, #24
 3219 1836 1344     		add	r3, r3, r2
 3220 1838 059A     		ldr	r2, [sp, #20]
 3221 183a 1216     		asrs	r2, r2, #24
 3222 183c D2B2     		uxtb	r2, r2
 3223 183e 1A70     		strb	r2, [r3]
 3224              		.loc 1 960 0
 3225 1840 9DF82730 		ldrb	r3, [sp, #39]
 3226 1844 0433     		adds	r3, r3, #4
 3227 1846 8DF82730 		strb	r3, [sp, #39]
 3228              	.L139:
 3229              		.loc 1 963 0
 3230 184a 564B     		ldr	r3, .L148
 3231 184c 5B69     		ldr	r3, [r3, #20]
 3232 184e 002B     		cmp	r3, #0
 3233 1850 17D0     		beq	.L140
 3234              		.loc 1 964 0
 3235 1852 9DF82730 		ldrb	r3, [sp, #39]	@ zero_extendqisi2
 3236 1856 06AA     		add	r2, sp, #24
 3237 1858 1344     		add	r3, r3, r2
 3238 185a BDF81220 		ldrh	r2, [sp, #18]	@ movhi
ARM GAS  /tmp/ccNtBBEs.s 			page 59


 3239 185e D2B2     		uxtb	r2, r2
 3240 1860 1A70     		strb	r2, [r3]
 3241 1862 9DF82730 		ldrb	r3, [sp, #39]	@ zero_extendqisi2
 3242 1866 0133     		adds	r3, r3, #1
 3243 1868 06AA     		add	r2, sp, #24
 3244 186a 1344     		add	r3, r3, r2
 3245 186c BDF81220 		ldrh	r2, [sp, #18]
 3246 1870 120A     		lsrs	r2, r2, #8
 3247 1872 92B2     		uxth	r2, r2
 3248 1874 D2B2     		uxtb	r2, r2
 3249 1876 1A70     		strb	r2, [r3]
 3250              		.loc 1 965 0
 3251 1878 9DF82730 		ldrb	r3, [sp, #39]
 3252 187c 0233     		adds	r3, r3, #2
 3253 187e 8DF82730 		strb	r3, [sp, #39]
 3254              	.L140:
 3255              		.loc 1 968 0
 3256 1882 484B     		ldr	r3, .L148
 3257 1884 5B68     		ldr	r3, [r3, #4]
 3258 1886 022B     		cmp	r3, #2
 3259 1888 30D1     		bne	.L141
 3260              		.loc 1 969 0
 3261 188a 9DF82730 		ldrb	r3, [sp, #39]	@ zero_extendqisi2
 3262 188e 06AA     		add	r2, sp, #24
 3263 1890 1344     		add	r3, r3, r2
 3264 1892 BDF81020 		ldrh	r2, [sp, #16]	@ movhi
 3265 1896 D2B2     		uxtb	r2, r2
 3266 1898 1A70     		strb	r2, [r3]
 3267 189a 9DF82730 		ldrb	r3, [sp, #39]	@ zero_extendqisi2
 3268 189e 0133     		adds	r3, r3, #1
 3269 18a0 06AA     		add	r2, sp, #24
 3270 18a2 1344     		add	r3, r3, r2
 3271 18a4 BDF91020 		ldrsh	r2, [sp, #16]
 3272 18a8 1212     		asrs	r2, r2, #8
 3273 18aa 92B2     		uxth	r2, r2
 3274 18ac D2B2     		uxtb	r2, r2
 3275 18ae 1A70     		strb	r2, [r3]
 3276              		.loc 1 970 0
 3277 18b0 9DF82730 		ldrb	r3, [sp, #39]
 3278 18b4 0233     		adds	r3, r3, #2
 3279 18b6 8DF82730 		strb	r3, [sp, #39]
 3280              		.loc 1 972 0
 3281 18ba 9DF82730 		ldrb	r3, [sp, #39]	@ zero_extendqisi2
 3282 18be 06AA     		add	r2, sp, #24
 3283 18c0 1344     		add	r3, r3, r2
 3284 18c2 BDF80E20 		ldrh	r2, [sp, #14]	@ movhi
 3285 18c6 D2B2     		uxtb	r2, r2
 3286 18c8 1A70     		strb	r2, [r3]
 3287 18ca 9DF82730 		ldrb	r3, [sp, #39]	@ zero_extendqisi2
 3288 18ce 0133     		adds	r3, r3, #1
 3289 18d0 06AA     		add	r2, sp, #24
 3290 18d2 1344     		add	r3, r3, r2
 3291 18d4 BDF90E20 		ldrsh	r2, [sp, #14]
 3292 18d8 1212     		asrs	r2, r2, #8
 3293 18da 92B2     		uxth	r2, r2
 3294 18dc D2B2     		uxtb	r2, r2
 3295 18de 1A70     		strb	r2, [r3]
ARM GAS  /tmp/ccNtBBEs.s 			page 60


 3296              		.loc 1 973 0
 3297 18e0 9DF82730 		ldrb	r3, [sp, #39]
 3298 18e4 0233     		adds	r3, r3, #2
 3299 18e6 8DF82730 		strb	r3, [sp, #39]
 3300 18ea 1BE0     		b	.L142
 3301              	.L141:
 3302              		.loc 1 974 0
 3303 18ec 2D4B     		ldr	r3, .L148
 3304 18ee 5B68     		ldr	r3, [r3, #4]
 3305 18f0 012B     		cmp	r3, #1
 3306 18f2 17D1     		bne	.L142
 3307              		.loc 1 975 0
 3308 18f4 9DF82730 		ldrb	r3, [sp, #39]	@ zero_extendqisi2
 3309 18f8 06AA     		add	r2, sp, #24
 3310 18fa 1344     		add	r3, r3, r2
 3311 18fc BDF80E20 		ldrh	r2, [sp, #14]	@ movhi
 3312 1900 D2B2     		uxtb	r2, r2
 3313 1902 1A70     		strb	r2, [r3]
 3314 1904 9DF82730 		ldrb	r3, [sp, #39]	@ zero_extendqisi2
 3315 1908 0133     		adds	r3, r3, #1
 3316 190a 06AA     		add	r2, sp, #24
 3317 190c 1344     		add	r3, r3, r2
 3318 190e BDF90E20 		ldrsh	r2, [sp, #14]
 3319 1912 1212     		asrs	r2, r2, #8
 3320 1914 92B2     		uxth	r2, r2
 3321 1916 D2B2     		uxtb	r2, r2
 3322 1918 1A70     		strb	r2, [r3]
 3323              		.loc 1 976 0
 3324 191a 9DF82730 		ldrb	r3, [sp, #39]
 3325 191e 0233     		adds	r3, r3, #2
 3326 1920 8DF82730 		strb	r3, [sp, #39]
 3327              	.L142:
 3328              		.loc 1 979 0
 3329 1924 204B     		ldr	r3, .L148+4
 3330 1926 1988     		ldrh	r1, [r3]
 3331 1928 204B     		ldr	r3, .L148+8
 3332 192a 1A88     		ldrh	r2, [r3]
 3333 192c 204B     		ldr	r3, .L148+12
 3334 192e 1B78     		ldrb	r3, [r3]	@ zero_extendqisi2
 3335 1930 06A8     		add	r0, sp, #24
 3336 1932 0090     		str	r0, [sp]
 3337 1934 0846     		mov	r0, r1
 3338 1936 1146     		mov	r1, r2
 3339 1938 0022     		movs	r2, #0
 3340 193a FFF7FEFF 		bl	aci_gatt_update_char_value
 3341 193e 0346     		mov	r3, r0
 3342 1940 8DF82630 		strb	r3, [sp, #38]
 3343              		.loc 1 981 0
 3344 1944 9DF82630 		ldrb	r3, [sp, #38]	@ zero_extendqisi2
 3345 1948 002B     		cmp	r3, #0
 3346 194a 26D0     		beq	.L143
 3347              		.loc 1 982 0
 3348 194c 194B     		ldr	r3, .L148+16
 3349 194e 1B68     		ldr	r3, [r3]
 3350 1950 03F40063 		and	r3, r3, #2048
 3351 1954 002B     		cmp	r3, #0
 3352 1956 1ED0     		beq	.L144
ARM GAS  /tmp/ccNtBBEs.s 			page 61


 3353              		.loc 1 983 0
 3354 1958 174B     		ldr	r3, .L148+20
 3355 195a 184A     		ldr	r2, .L148+24
 3356 195c 1446     		mov	r4, r2
 3357 195e 1D46     		mov	r5, r3
 3358 1960 04F1200E 		add	lr, r4, #32
 3359              	.L145:
 3360 1964 2E46     		mov	r6, r5
 3361 1966 2746     		mov	r7, r4
 3362 1968 0FCF     		ldmia	r7!, {r0, r1, r2, r3}
 3363 196a 3060     		str	r0, [r6]	@ unaligned
 3364 196c 7160     		str	r1, [r6, #4]	@ unaligned
 3365 196e B260     		str	r2, [r6, #8]	@ unaligned
 3366 1970 F360     		str	r3, [r6, #12]	@ unaligned
 3367 1972 1034     		adds	r4, r4, #16
 3368 1974 1035     		adds	r5, r5, #16
 3369 1976 7445     		cmp	r4, lr
 3370 1978 F4D1     		bne	.L145
 3371 197a 2B46     		mov	r3, r5
 3372 197c 2246     		mov	r2, r4
 3373 197e 1068     		ldr	r0, [r2]	@ unaligned
 3374 1980 1860     		str	r0, [r3]	@ unaligned
 3375 1982 0F4B     		ldr	r3, .L148+28
 3376 1984 2322     		movs	r2, #35
 3377 1986 1A60     		str	r2, [r3]
 3378              		.loc 1 984 0
 3379 1988 0D4B     		ldr	r3, .L148+28
 3380 198a 1B68     		ldr	r3, [r3]
 3381 198c DBB2     		uxtb	r3, r3
 3382 198e 0A48     		ldr	r0, .L148+20
 3383 1990 1946     		mov	r1, r3
 3384 1992 FFF7FEFF 		bl	Stderr_Update
 3385              	.L144:
 3386              		.loc 1 988 0
 3387 1996 4723     		movs	r3, #71
 3388 1998 00E0     		b	.L147
 3389              	.L143:
 3390              		.loc 1 990 0
 3391 199a 0023     		movs	r3, #0
 3392              	.L147:
 3393              		.loc 1 991 0
 3394 199c 1846     		mov	r0, r3
 3395 199e 0BB0     		add	sp, sp, #44
 3396              		@ sp needed
 3397 19a0 F0BD     		pop	{r4, r5, r6, r7, pc}
 3398              	.L149:
 3399 19a2 00BF     		.align	2
 3400              	.L148:
 3401 19a4 00000000 		.word	TargetBoardFeatures
 3402 19a8 04000000 		.word	HWServW2STHandle
 3403 19ac 06000000 		.word	EnvironmentalCharHandle
 3404 19b0 01000000 		.word	EnvironmentalCharSize
 3405 19b4 00000000 		.word	ConnectionBleStatus
 3406 19b8 00000000 		.word	BufferToWrite
 3407 19bc 38010000 		.word	.LC11
 3408 19c0 00000000 		.word	BytesToWrite
 3409              		.cfi_endproc
ARM GAS  /tmp/ccNtBBEs.s 			page 62


 3410              	.LFE285:
 3411              		.size	Environmental_Update, .-Environmental_Update
 3412              		.section	.rodata
 3413              		.align	2
 3414              	.LC12:
 3415 015c 4572726F 		.ascii	"Error Updating Mic Char\015\012\000"
 3415      72205570 
 3415      64617469 
 3415      6E67204D 
 3415      69632043 
 3416              		.text
 3417              		.align	2
 3418 19c4 AFF30080 		.p2align 4,,15
 3418      AFF30080 
 3418      AFF30080 
 3419              		.global	AudioLevel_Update
 3420              		.thumb
 3421              		.thumb_func
 3422              		.type	AudioLevel_Update, %function
 3423              	AudioLevel_Update:
 3424              	.LFB286:
 3425              		.loc 1 999 0
 3426              		.cfi_startproc
 3427              		@ args = 0, pretend = 0, frame = 16
 3428              		@ frame_needed = 0, uses_anonymous_args = 0
 3429 19d0 30B5     		push	{r4, r5, lr}
 3430              		.cfi_def_cfa_offset 12
 3431              		.cfi_offset 4, -12
 3432              		.cfi_offset 5, -8
 3433              		.cfi_offset 14, -4
 3434 19d2 87B0     		sub	sp, sp, #28
 3435              		.cfi_def_cfa_offset 40
 3436 19d4 0390     		str	r0, [sp, #12]
 3437              		.loc 1 1005 0
 3438 19d6 FFF7FEFF 		bl	HAL_GetTick
 3439 19da 0346     		mov	r3, r0
 3440 19dc DB08     		lsrs	r3, r3, #3
 3441 19de DBB2     		uxtb	r3, r3
 3442 19e0 8DF81030 		strb	r3, [sp, #16]
 3443 19e4 FFF7FEFF 		bl	HAL_GetTick
 3444 19e8 0346     		mov	r3, r0
 3445 19ea DB0A     		lsrs	r3, r3, #11
 3446 19ec DBB2     		uxtb	r3, r3
 3447 19ee 8DF81130 		strb	r3, [sp, #17]
 3448              		.loc 1 1006 0
 3449 19f2 0023     		movs	r3, #0
 3450 19f4 ADF81630 		strh	r3, [sp, #22]	@ movhi
 3451 19f8 12E0     		b	.L151
 3452              	.L152:
 3453              		.loc 1 1007 0 discriminator 2
 3454 19fa BDF81630 		ldrh	r3, [sp, #22]
 3455 19fe 0233     		adds	r3, r3, #2
 3456 1a00 BDF81620 		ldrh	r2, [sp, #22]
 3457 1a04 5200     		lsls	r2, r2, #1
 3458 1a06 0399     		ldr	r1, [sp, #12]
 3459 1a08 0A44     		add	r2, r2, r1
 3460 1a0a 1288     		ldrh	r2, [r2]
ARM GAS  /tmp/ccNtBBEs.s 			page 63


 3461 1a0c D2B2     		uxtb	r2, r2
 3462 1a0e 06A9     		add	r1, sp, #24
 3463 1a10 0B44     		add	r3, r3, r1
 3464 1a12 03F8082C 		strb	r2, [r3, #-8]
 3465              		.loc 1 1006 0 discriminator 2
 3466 1a16 BDF81630 		ldrh	r3, [sp, #22]
 3467 1a1a 0133     		adds	r3, r3, #1
 3468 1a1c ADF81630 		strh	r3, [sp, #22]	@ movhi
 3469              	.L151:
 3470              		.loc 1 1006 0 is_stmt 0 discriminator 1
 3471 1a20 BDF81630 		ldrh	r3, [sp, #22]
 3472 1a24 002B     		cmp	r3, #0
 3473 1a26 E8D0     		beq	.L152
 3474              		.loc 1 1010 0 is_stmt 1
 3475 1a28 1B4B     		ldr	r3, .L157
 3476 1a2a 1A88     		ldrh	r2, [r3]
 3477 1a2c 1B4B     		ldr	r3, .L157+4
 3478 1a2e 1B88     		ldrh	r3, [r3]
 3479 1a30 04A9     		add	r1, sp, #16
 3480 1a32 0091     		str	r1, [sp]
 3481 1a34 1046     		mov	r0, r2
 3482 1a36 1946     		mov	r1, r3
 3483 1a38 0022     		movs	r2, #0
 3484 1a3a 0323     		movs	r3, #3
 3485 1a3c FFF7FEFF 		bl	safe_aci_gatt_update_char_value
 3486 1a40 0346     		mov	r3, r0
 3487 1a42 8DF81530 		strb	r3, [sp, #21]
 3488              		.loc 1 1012 0
 3489 1a46 9DF81530 		ldrb	r3, [sp, #21]	@ zero_extendqisi2
 3490 1a4a 002B     		cmp	r3, #0
 3491 1a4c 1FD0     		beq	.L153
 3492              		.loc 1 1013 0
 3493 1a4e 144B     		ldr	r3, .L157+8
 3494 1a50 1B68     		ldr	r3, [r3]
 3495 1a52 03F40063 		and	r3, r3, #2048
 3496 1a56 002B     		cmp	r3, #0
 3497 1a58 17D0     		beq	.L154
 3498              		.loc 1 1014 0
 3499 1a5a 124A     		ldr	r2, .L157+12
 3500 1a5c 124B     		ldr	r3, .L157+16
 3501 1a5e 1546     		mov	r5, r2
 3502 1a60 1C46     		mov	r4, r3
 3503 1a62 0FCC     		ldmia	r4!, {r0, r1, r2, r3}
 3504 1a64 2860     		str	r0, [r5]	@ unaligned
 3505 1a66 6960     		str	r1, [r5, #4]	@ unaligned
 3506 1a68 AA60     		str	r2, [r5, #8]	@ unaligned
 3507 1a6a EB60     		str	r3, [r5, #12]	@ unaligned
 3508 1a6c 03CC     		ldmia	r4!, {r0, r1}
 3509 1a6e 2861     		str	r0, [r5, #16]	@ unaligned
 3510 1a70 6961     		str	r1, [r5, #20]	@ unaligned
 3511 1a72 2388     		ldrh	r3, [r4]	@ unaligned
 3512 1a74 2B83     		strh	r3, [r5, #24]	@ unaligned
 3513 1a76 0D4B     		ldr	r3, .L157+20
 3514 1a78 1922     		movs	r2, #25
 3515 1a7a 1A60     		str	r2, [r3]
 3516              		.loc 1 1015 0
 3517 1a7c 0B4B     		ldr	r3, .L157+20
ARM GAS  /tmp/ccNtBBEs.s 			page 64


 3518 1a7e 1B68     		ldr	r3, [r3]
 3519 1a80 DBB2     		uxtb	r3, r3
 3520 1a82 0848     		ldr	r0, .L157+12
 3521 1a84 1946     		mov	r1, r3
 3522 1a86 FFF7FEFF 		bl	Stderr_Update
 3523              	.L154:
 3524              		.loc 1 1017 0
 3525 1a8a 4723     		movs	r3, #71
 3526 1a8c 00E0     		b	.L156
 3527              	.L153:
 3528              		.loc 1 1019 0
 3529 1a8e 0023     		movs	r3, #0
 3530              	.L156:
 3531              		.loc 1 1020 0
 3532 1a90 1846     		mov	r0, r3
 3533 1a92 07B0     		add	sp, sp, #28
 3534              		@ sp needed
 3535 1a94 30BD     		pop	{r4, r5, pc}
 3536              	.L158:
 3537 1a96 00BF     		.align	2
 3538              	.L157:
 3539 1a98 04000000 		.word	HWServW2STHandle
 3540 1a9c 0C000000 		.word	AudioLevelCharHandle
 3541 1aa0 00000000 		.word	ConnectionBleStatus
 3542 1aa4 00000000 		.word	BufferToWrite
 3543 1aa8 5C010000 		.word	.LC12
 3544 1aac 00000000 		.word	BytesToWrite
 3545              		.cfi_endproc
 3546              	.LFE286:
 3547              		.size	AudioLevel_Update, .-AudioLevel_Update
 3548              		.section	.rodata
 3549 0176 0000     		.align	2
 3550              	.LC13:
 3551 0178 4572726F 		.ascii	"Error Updating GG Char\015\012\000"
 3551      72205570 
 3551      64617469 
 3551      6E672047 
 3551      47204368 
 3552              		.text
 3553              		.align	2
 3554              		.p2align 4,,15
 3555              		.global	GG_Update
 3556              		.thumb
 3557              		.thumb_func
 3558              		.type	GG_Update, %function
 3559              	GG_Update:
 3560              	.LFB287:
 3561              		.loc 1 1029 0
 3562              		.cfi_startproc
 3563              		@ args = 0, pretend = 0, frame = 32
 3564              		@ frame_needed = 0, uses_anonymous_args = 0
 3565 1ab0 30B5     		push	{r4, r5, lr}
 3566              		.cfi_def_cfa_offset 12
 3567              		.cfi_offset 4, -12
 3568              		.cfi_offset 5, -8
 3569              		.cfi_offset 14, -4
 3570 1ab2 8BB0     		sub	sp, sp, #44
ARM GAS  /tmp/ccNtBBEs.s 			page 65


 3571              		.cfi_def_cfa_offset 56
 3572              		.loc 1 1038 0
 3573 1ab4 544B     		ldr	r3, .L168
 3574 1ab6 1A6B     		ldr	r2, [r3, #48]
 3575 1ab8 0DF11703 		add	r3, sp, #23
 3576 1abc 1046     		mov	r0, r2
 3577 1abe 1946     		mov	r1, r3
 3578 1ac0 FFF7FEFF 		bl	BSP_GG_Task
 3579              		.loc 1 1041 0
 3580 1ac4 504B     		ldr	r3, .L168
 3581 1ac6 1A6B     		ldr	r2, [r3, #48]
 3582 1ac8 08AB     		add	r3, sp, #32
 3583 1aca 1046     		mov	r0, r2
 3584 1acc 1946     		mov	r1, r3
 3585 1ace FFF7FEFF 		bl	BSP_GG_GetVoltage
 3586              		.loc 1 1042 0
 3587 1ad2 4D4B     		ldr	r3, .L168
 3588 1ad4 1A6B     		ldr	r2, [r3, #48]
 3589 1ad6 06AB     		add	r3, sp, #24
 3590 1ad8 1046     		mov	r0, r2
 3591 1ada 1946     		mov	r1, r3
 3592 1adc FFF7FEFF 		bl	BSP_GG_GetCurrent
 3593              		.loc 1 1043 0
 3594 1ae0 494B     		ldr	r3, .L168
 3595 1ae2 1A6B     		ldr	r2, [r3, #48]
 3596 1ae4 07AB     		add	r3, sp, #28
 3597 1ae6 1046     		mov	r0, r2
 3598 1ae8 1946     		mov	r1, r3
 3599 1aea FFF7FEFF 		bl	BSP_GG_GetSOC
 3600              		.loc 1 1045 0
 3601 1aee FFF7FEFF 		bl	HAL_GetTick
 3602 1af2 0346     		mov	r3, r0
 3603 1af4 DB08     		lsrs	r3, r3, #3
 3604 1af6 DBB2     		uxtb	r3, r3
 3605 1af8 8DF80C30 		strb	r3, [sp, #12]
 3606 1afc FFF7FEFF 		bl	HAL_GetTick
 3607 1b00 0346     		mov	r3, r0
 3608 1b02 DB0A     		lsrs	r3, r3, #11
 3609 1b04 DBB2     		uxtb	r3, r3
 3610 1b06 8DF80D30 		strb	r3, [sp, #13]
 3611              		.loc 1 1046 0
 3612 1b0a 079B     		ldr	r3, [sp, #28]
 3613 1b0c DBB2     		uxtb	r3, r3
 3614 1b0e 1A46     		mov	r2, r3
 3615 1b10 9200     		lsls	r2, r2, #2
 3616 1b12 1344     		add	r3, r3, r2
 3617 1b14 5B00     		lsls	r3, r3, #1
 3618 1b16 DBB2     		uxtb	r3, r3
 3619 1b18 8DF80E30 		strb	r3, [sp, #14]
 3620 1b1c 079A     		ldr	r2, [sp, #28]
 3621 1b1e 1346     		mov	r3, r2
 3622 1b20 9B00     		lsls	r3, r3, #2
 3623 1b22 1344     		add	r3, r3, r2
 3624 1b24 5B00     		lsls	r3, r3, #1
 3625 1b26 1B0A     		lsrs	r3, r3, #8
 3626 1b28 DBB2     		uxtb	r3, r3
 3627 1b2a 8DF80F30 		strb	r3, [sp, #15]
ARM GAS  /tmp/ccNtBBEs.s 			page 66


 3628              		.loc 1 1047 0
 3629 1b2e 089B     		ldr	r3, [sp, #32]
 3630 1b30 DBB2     		uxtb	r3, r3
 3631 1b32 8DF81030 		strb	r3, [sp, #16]
 3632 1b36 089B     		ldr	r3, [sp, #32]
 3633 1b38 1B0A     		lsrs	r3, r3, #8
 3634 1b3a DBB2     		uxtb	r3, r3
 3635 1b3c 8DF81130 		strb	r3, [sp, #17]
 3636              		.loc 1 1048 0
 3637 1b40 069B     		ldr	r3, [sp, #24]
 3638 1b42 DBB2     		uxtb	r3, r3
 3639 1b44 8DF81230 		strb	r3, [sp, #18]
 3640 1b48 069B     		ldr	r3, [sp, #24]
 3641 1b4a 1B12     		asrs	r3, r3, #8
 3642 1b4c DBB2     		uxtb	r3, r3
 3643 1b4e 8DF81330 		strb	r3, [sp, #19]
 3644              		.loc 1 1050 0
 3645 1b52 079B     		ldr	r3, [sp, #28]
 3646 1b54 0E2B     		cmp	r3, #14
 3647 1b56 03D8     		bhi	.L160
 3648              		.loc 1 1052 0
 3649 1b58 0023     		movs	r3, #0
 3650 1b5a 8DF81430 		strb	r3, [sp, #20]
 3651 1b5e 1CE0     		b	.L161
 3652              	.L160:
 3653              	.LBB2:
 3654              		.loc 1 1056 0
 3655 1b60 2A4B     		ldr	r3, .L168+4
 3656 1b62 1B68     		ldr	r3, [r3]
 3657 1b64 002B     		cmp	r3, #0
 3658 1b66 10D0     		beq	.L162
 3659              		.loc 1 1057 0
 3660 1b68 284B     		ldr	r3, .L168+4
 3661 1b6a 1A68     		ldr	r2, [r3]
 3662 1b6c 089B     		ldr	r3, [sp, #32]
 3663 1b6e 9A42     		cmp	r2, r3
 3664 1b70 03D9     		bls	.L163
 3665              		.loc 1 1058 0
 3666 1b72 274B     		ldr	r3, .L168+8
 3667 1b74 0122     		movs	r2, #1
 3668 1b76 1A60     		str	r2, [r3]
 3669 1b78 07E0     		b	.L162
 3670              	.L163:
 3671              		.loc 1 1059 0
 3672 1b7a 244B     		ldr	r3, .L168+4
 3673 1b7c 1A68     		ldr	r2, [r3]
 3674 1b7e 089B     		ldr	r3, [sp, #32]
 3675 1b80 9A42     		cmp	r2, r3
 3676 1b82 02D2     		bcs	.L162
 3677              		.loc 1 1060 0
 3678 1b84 224B     		ldr	r3, .L168+8
 3679 1b86 0322     		movs	r2, #3
 3680 1b88 1A60     		str	r2, [r3]
 3681              	.L162:
 3682              		.loc 1 1063 0
 3683 1b8a 214B     		ldr	r3, .L168+8
 3684 1b8c 1B68     		ldr	r3, [r3]
ARM GAS  /tmp/ccNtBBEs.s 			page 67


 3685 1b8e DBB2     		uxtb	r3, r3
 3686 1b90 8DF81430 		strb	r3, [sp, #20]
 3687              		.loc 1 1064 0
 3688 1b94 089A     		ldr	r2, [sp, #32]
 3689 1b96 1D4B     		ldr	r3, .L168+4
 3690 1b98 1A60     		str	r2, [r3]
 3691              	.L161:
 3692              	.LBE2:
 3693              		.loc 1 1067 0
 3694 1b9a 1E4B     		ldr	r3, .L168+12
 3695 1b9c 1A88     		ldrh	r2, [r3]
 3696 1b9e 1E4B     		ldr	r3, .L168+16
 3697 1ba0 1B88     		ldrh	r3, [r3]
 3698 1ba2 03A9     		add	r1, sp, #12
 3699 1ba4 0091     		str	r1, [sp]
 3700 1ba6 1046     		mov	r0, r2
 3701 1ba8 1946     		mov	r1, r3
 3702 1baa 0022     		movs	r2, #0
 3703 1bac 0923     		movs	r3, #9
 3704 1bae FFF7FEFF 		bl	aci_gatt_update_char_value
 3705 1bb2 0346     		mov	r3, r0
 3706 1bb4 8DF82730 		strb	r3, [sp, #39]
 3707              		.loc 1 1069 0
 3708 1bb8 9DF82730 		ldrb	r3, [sp, #39]	@ zero_extendqisi2
 3709 1bbc 002B     		cmp	r3, #0
 3710 1bbe 1FD0     		beq	.L164
 3711              		.loc 1 1070 0
 3712 1bc0 164B     		ldr	r3, .L168+20
 3713 1bc2 1B68     		ldr	r3, [r3]
 3714 1bc4 03F40063 		and	r3, r3, #2048
 3715 1bc8 002B     		cmp	r3, #0
 3716 1bca 17D0     		beq	.L165
 3717              		.loc 1 1071 0
 3718 1bcc 144A     		ldr	r2, .L168+24
 3719 1bce 154B     		ldr	r3, .L168+28
 3720 1bd0 1546     		mov	r5, r2
 3721 1bd2 1C46     		mov	r4, r3
 3722 1bd4 0FCC     		ldmia	r4!, {r0, r1, r2, r3}
 3723 1bd6 2860     		str	r0, [r5]	@ unaligned
 3724 1bd8 6960     		str	r1, [r5, #4]	@ unaligned
 3725 1bda AA60     		str	r2, [r5, #8]	@ unaligned
 3726 1bdc EB60     		str	r3, [r5, #12]	@ unaligned
 3727 1bde 03CC     		ldmia	r4!, {r0, r1}
 3728 1be0 2861     		str	r0, [r5, #16]	@ unaligned
 3729 1be2 6961     		str	r1, [r5, #20]	@ unaligned
 3730 1be4 2378     		ldrb	r3, [r4]
 3731 1be6 2B76     		strb	r3, [r5, #24]
 3732 1be8 0F4B     		ldr	r3, .L168+32
 3733 1bea 1822     		movs	r2, #24
 3734 1bec 1A60     		str	r2, [r3]
 3735              		.loc 1 1072 0
 3736 1bee 0E4B     		ldr	r3, .L168+32
 3737 1bf0 1B68     		ldr	r3, [r3]
 3738 1bf2 DBB2     		uxtb	r3, r3
 3739 1bf4 0A48     		ldr	r0, .L168+24
 3740 1bf6 1946     		mov	r1, r3
 3741 1bf8 FFF7FEFF 		bl	Stderr_Update
ARM GAS  /tmp/ccNtBBEs.s 			page 68


 3742              	.L165:
 3743              		.loc 1 1076 0
 3744 1bfc 4723     		movs	r3, #71
 3745 1bfe 00E0     		b	.L167
 3746              	.L164:
 3747              		.loc 1 1078 0
 3748 1c00 0023     		movs	r3, #0
 3749              	.L167:
 3750              		.loc 1 1079 0
 3751 1c02 1846     		mov	r0, r3
 3752 1c04 0BB0     		add	sp, sp, #44
 3753              		@ sp needed
 3754 1c06 30BD     		pop	{r4, r5, pc}
 3755              	.L169:
 3756              		.align	2
 3757              	.L168:
 3758 1c08 00000000 		.word	TargetBoardFeatures
 3759 1c0c 60000000 		.word	PreVoltage.18743
 3760 1c10 04000000 		.word	Status.18744
 3761 1c14 04000000 		.word	HWServW2STHandle
 3762 1c18 0E000000 		.word	GGCharHandle
 3763 1c1c 00000000 		.word	ConnectionBleStatus
 3764 1c20 00000000 		.word	BufferToWrite
 3765 1c24 78010000 		.word	.LC13
 3766 1c28 00000000 		.word	BytesToWrite
 3767              		.cfi_endproc
 3768              	.LFE287:
 3769              		.size	GG_Update, .-GG_Update
 3770              		.section	.rodata
 3771 0191 000000   		.align	2
 3772              	.LC0:
 3773 0194 09       		.byte	9
 3774 0195 42       		.byte	66
 3775 0196 4D       		.byte	77
 3776 0197 32       		.byte	50
 3777 0198 56       		.byte	86
 3778 0199 32       		.byte	50
 3779 019a 32       		.byte	50
 3780 019b 30       		.byte	48
 3781              		.align	2
 3782              	.LC1:
 3783 019c 02       		.byte	2
 3784 019d 0A       		.byte	10
 3785 019e 00       		.byte	0
 3786 019f 08       		.byte	8
 3787 01a0 09       		.byte	9
 3788 01a1 42       		.byte	66
 3789 01a2 4D       		.byte	77
 3790 01a3 32       		.byte	50
 3791 01a4 56       		.byte	86
 3792 01a5 32       		.byte	50
 3793 01a6 32       		.byte	50
 3794 01a7 30       		.byte	48
 3795 01a8 0D       		.byte	13
 3796 01a9 FF       		.byte	-1
 3797 01aa 01       		.byte	1
 3798 01ab 02       		.byte	2
ARM GAS  /tmp/ccNtBBEs.s 			page 69


 3799 01ac 00       		.byte	0
 3800 01ad E0       		.byte	-32
 3801 01ae 00       		.byte	0
 3802 01af 00       		.byte	0
 3803 01b0 00       		.byte	0
 3804 01b1 00       		.byte	0
 3805 01b2 00       		.byte	0
 3806 01b3 00       		.byte	0
 3807 01b4 00       		.byte	0
 3808 01b5 00       		.byte	0
 3809              		.text
 3810              		.align	2
 3811 1c2c AFF30080 		.p2align 4,,15
 3812              		.global	setConnectable
 3813              		.thumb
 3814              		.thumb_func
 3815              		.type	setConnectable, %function
 3816              	setConnectable:
 3817              	.LFB288:
 3818              		.loc 1 1118 0
 3819              		.cfi_startproc
 3820              		@ args = 0, pretend = 0, frame = 40
 3821              		@ frame_needed = 0, uses_anonymous_args = 0
 3822 1c30 30B5     		push	{r4, r5, lr}
 3823              		.cfi_def_cfa_offset 12
 3824              		.cfi_offset 4, -12
 3825              		.cfi_offset 5, -8
 3826              		.cfi_offset 14, -4
 3827 1c32 93B0     		sub	sp, sp, #76
 3828              		.cfi_def_cfa_offset 88
 3829              		.loc 1 1119 0
 3830 1c34 6A4A     		ldr	r2, .L182
 3831 1c36 10AB     		add	r3, sp, #64
 3832 1c38 1068     		ldr	r0, [r2]	@ unaligned
 3833 1c3a 5168     		ldr	r1, [r2, #4]	@ unaligned
 3834 1c3c 03C3     		stmia	r3!, {r0, r1}
 3835              		.loc 1 1120 0
 3836 1c3e 694B     		ldr	r3, .L182+4
 3837 1c40 09AC     		add	r4, sp, #36
 3838 1c42 1D46     		mov	r5, r3
 3839 1c44 2868     		ldr	r0, [r5]	@ unaligned
 3840 1c46 6968     		ldr	r1, [r5, #4]	@ unaligned
 3841 1c48 AA68     		ldr	r2, [r5, #8]	@ unaligned
 3842 1c4a EB68     		ldr	r3, [r5, #12]	@ unaligned
 3843 1c4c 0FC4     		stmia	r4!, {r0, r1, r2, r3}
 3844 1c4e 2869     		ldr	r0, [r5, #16]	@ unaligned
 3845 1c50 6969     		ldr	r1, [r5, #20]	@ unaligned
 3846 1c52 03C4     		stmia	r4!, {r0, r1}
 3847 1c54 2B8B     		ldrh	r3, [r5, #24]	@ unaligned
 3848 1c56 2380     		strh	r3, [r4]	@ unaligned
 3849              		.loc 1 1142 0
 3850 1c58 634B     		ldr	r3, .L182+8
 3851 1c5a 5B79     		ldrb	r3, [r3, #5]	@ zero_extendqisi2
 3852 1c5c 8DF83830 		strb	r3, [sp, #56]
 3853              		.loc 1 1143 0
 3854 1c60 614B     		ldr	r3, .L182+8
 3855 1c62 1B79     		ldrb	r3, [r3, #4]	@ zero_extendqisi2
ARM GAS  /tmp/ccNtBBEs.s 			page 70


 3856 1c64 8DF83930 		strb	r3, [sp, #57]
 3857              		.loc 1 1144 0
 3858 1c68 5F4B     		ldr	r3, .L182+8
 3859 1c6a DB78     		ldrb	r3, [r3, #3]	@ zero_extendqisi2
 3860 1c6c 8DF83A30 		strb	r3, [sp, #58]
 3861              		.loc 1 1145 0
 3862 1c70 5D4B     		ldr	r3, .L182+8
 3863 1c72 9B78     		ldrb	r3, [r3, #2]	@ zero_extendqisi2
 3864 1c74 8DF83B30 		strb	r3, [sp, #59]
 3865              		.loc 1 1146 0
 3866 1c78 5B4B     		ldr	r3, .L182+8
 3867 1c7a 5B78     		ldrb	r3, [r3, #1]	@ zero_extendqisi2
 3868 1c7c 8DF83C30 		strb	r3, [sp, #60]
 3869              		.loc 1 1147 0
 3870 1c80 594B     		ldr	r3, .L182+8
 3871 1c82 1B78     		ldrb	r3, [r3]	@ zero_extendqisi2
 3872 1c84 8DF83D30 		strb	r3, [sp, #61]
 3873              		.loc 1 1150 0
 3874 1c88 584B     		ldr	r3, .L182+12
 3875 1c8a 1B6B     		ldr	r3, [r3, #48]
 3876 1c8c 002B     		cmp	r3, #0
 3877 1c8e 06D0     		beq	.L171
 3878              		.loc 1 1151 0
 3879 1c90 9DF83530 		ldrb	r3, [sp, #53]	@ zero_extendqisi2
 3880 1c94 43F00203 		orr	r3, r3, #2
 3881 1c98 DBB2     		uxtb	r3, r3
 3882 1c9a 8DF83530 		strb	r3, [sp, #53]
 3883              	.L171:
 3884              		.loc 1 1155 0
 3885 1c9e 9DF83430 		ldrb	r3, [sp, #52]	@ zero_extendqisi2
 3886 1ca2 43F00403 		orr	r3, r3, #4
 3887 1ca6 DBB2     		uxtb	r3, r3
 3888 1ca8 8DF83430 		strb	r3, [sp, #52]
 3889              		.loc 1 1157 0
 3890 1cac 4F4B     		ldr	r3, .L182+12
 3891 1cae 5B68     		ldr	r3, [r3, #4]
 3892 1cb0 022B     		cmp	r3, #2
 3893 1cb2 07D1     		bne	.L172
 3894              		.loc 1 1158 0
 3895 1cb4 9DF83530 		ldrb	r3, [sp, #53]	@ zero_extendqisi2
 3896 1cb8 43F00503 		orr	r3, r3, #5
 3897 1cbc DBB2     		uxtb	r3, r3
 3898 1cbe 8DF83530 		strb	r3, [sp, #53]
 3899 1cc2 0AE0     		b	.L173
 3900              	.L172:
 3901              		.loc 1 1159 0
 3902 1cc4 494B     		ldr	r3, .L182+12
 3903 1cc6 5B68     		ldr	r3, [r3, #4]
 3904 1cc8 012B     		cmp	r3, #1
 3905 1cca 06D1     		bne	.L173
 3906              		.loc 1 1160 0
 3907 1ccc 9DF83530 		ldrb	r3, [sp, #53]	@ zero_extendqisi2
 3908 1cd0 43F00403 		orr	r3, r3, #4
 3909 1cd4 DBB2     		uxtb	r3, r3
 3910 1cd6 8DF83530 		strb	r3, [sp, #53]
 3911              	.L173:
 3912              		.loc 1 1163 0
ARM GAS  /tmp/ccNtBBEs.s 			page 71


 3913 1cda 444B     		ldr	r3, .L182+12
 3914 1cdc 5B69     		ldr	r3, [r3, #20]
 3915 1cde 002B     		cmp	r3, #0
 3916 1ce0 06D0     		beq	.L174
 3917              		.loc 1 1164 0
 3918 1ce2 9DF83530 		ldrb	r3, [sp, #53]	@ zero_extendqisi2
 3919 1ce6 43F00803 		orr	r3, r3, #8
 3920 1cea DBB2     		uxtb	r3, r3
 3921 1cec 8DF83530 		strb	r3, [sp, #53]
 3922              	.L174:
 3923              		.loc 1 1167 0
 3924 1cf0 3E4B     		ldr	r3, .L182+12
 3925 1cf2 1B69     		ldr	r3, [r3, #16]
 3926 1cf4 002B     		cmp	r3, #0
 3927 1cf6 06D0     		beq	.L175
 3928              		.loc 1 1168 0
 3929 1cf8 9DF83530 		ldrb	r3, [sp, #53]	@ zero_extendqisi2
 3930 1cfc 43F01003 		orr	r3, r3, #16
 3931 1d00 DBB2     		uxtb	r3, r3
 3932 1d02 8DF83530 		strb	r3, [sp, #53]
 3933              	.L175:
 3934              		.loc 1 1172 0
 3935 1d06 394B     		ldr	r3, .L182+12
 3936 1d08 9B69     		ldr	r3, [r3, #24]
 3937 1d0a 002B     		cmp	r3, #0
 3938 1d0c 06D0     		beq	.L176
 3939              		.loc 1 1174 0
 3940 1d0e 9DF83630 		ldrb	r3, [sp, #54]	@ zero_extendqisi2
 3941 1d12 43F00403 		orr	r3, r3, #4
 3942 1d16 DBB2     		uxtb	r3, r3
 3943 1d18 8DF83630 		strb	r3, [sp, #54]
 3944              	.L176:
 3945              		.loc 1 1178 0
 3946 1d1c 334B     		ldr	r3, .L182+12
 3947 1d1e 5B6B     		ldr	r3, [r3, #52]
 3948 1d20 002B     		cmp	r3, #0
 3949 1d22 12D0     		beq	.L177
 3950              		.loc 1 1179 0
 3951 1d24 9DF83630 		ldrb	r3, [sp, #54]	@ zero_extendqisi2
 3952 1d28 43F00103 		orr	r3, r3, #1
 3953 1d2c DBB2     		uxtb	r3, r3
 3954 1d2e 8DF83630 		strb	r3, [sp, #54]
 3955              		.loc 1 1181 0
 3956 1d32 2E4B     		ldr	r3, .L182+12
 3957 1d34 93F82D30 		ldrb	r3, [r3, #45]	@ zero_extendqisi2
 3958 1d38 012B     		cmp	r3, #1
 3959 1d3a 06D1     		bne	.L177
 3960              		.loc 1 1183 0
 3961 1d3c 9DF83730 		ldrb	r3, [sp, #55]	@ zero_extendqisi2
 3962 1d40 43F04003 		orr	r3, r3, #64
 3963 1d44 DBB2     		uxtb	r3, r3
 3964 1d46 8DF83730 		strb	r3, [sp, #55]
 3965              	.L177:
 3966              		.loc 1 1189 0
 3967 1d4a 284B     		ldr	r3, .L182+12
 3968 1d4c 9B6B     		ldr	r3, [r3, #56]
 3969 1d4e 002B     		cmp	r3, #0
ARM GAS  /tmp/ccNtBBEs.s 			page 72


 3970 1d50 06D0     		beq	.L178
 3971              		.loc 1 1190 0
 3972 1d52 9DF83730 		ldrb	r3, [sp, #55]	@ zero_extendqisi2
 3973 1d56 43F01003 		orr	r3, r3, #16
 3974 1d5a DBB2     		uxtb	r3, r3
 3975 1d5c 8DF83730 		strb	r3, [sp, #55]
 3976              	.L178:
 3977              		.loc 1 1195 0
 3978 1d60 224B     		ldr	r3, .L182+12
 3979 1d62 DB6B     		ldr	r3, [r3, #60]
 3980 1d64 002B     		cmp	r3, #0
 3981 1d66 06D0     		beq	.L179
 3982              		.loc 1 1196 0
 3983 1d68 9DF83730 		ldrb	r3, [sp, #55]	@ zero_extendqisi2
 3984 1d6c 43F00803 		orr	r3, r3, #8
 3985 1d70 DBB2     		uxtb	r3, r3
 3986 1d72 8DF83730 		strb	r3, [sp, #55]
 3987              	.L179:
 3988              		.loc 1 1201 0
 3989 1d76 1D4B     		ldr	r3, .L182+12
 3990 1d78 1B6C     		ldr	r3, [r3, #64]
 3991 1d7a 002B     		cmp	r3, #0
 3992 1d7c 06D0     		beq	.L180
 3993              		.loc 1 1202 0
 3994 1d7e 9DF83730 		ldrb	r3, [sp, #55]	@ zero_extendqisi2
 3995 1d82 43F00203 		orr	r3, r3, #2
 3996 1d86 DBB2     		uxtb	r3, r3
 3997 1d88 8DF83730 		strb	r3, [sp, #55]
 3998              	.L180:
 3999              		.loc 1 1207 0
 4000 1d8c 174B     		ldr	r3, .L182+12
 4001 1d8e 5B6C     		ldr	r3, [r3, #68]
 4002 1d90 002B     		cmp	r3, #0
 4003 1d92 06D0     		beq	.L181
 4004              		.loc 1 1208 0
 4005 1d94 9DF83430 		ldrb	r3, [sp, #52]	@ zero_extendqisi2
 4006 1d98 43F04803 		orr	r3, r3, #72
 4007 1d9c DBB2     		uxtb	r3, r3
 4008 1d9e 8DF83430 		strb	r3, [sp, #52]
 4009              	.L181:
 4010              		.loc 1 1220 0
 4011 1da2 0020     		movs	r0, #0
 4012 1da4 0021     		movs	r1, #0
 4013 1da6 FFF7FEFF 		bl	hci_le_set_scan_resp_data
 4014              		.loc 1 1221 0
 4015 1daa 0023     		movs	r3, #0
 4016 1dac 0093     		str	r3, [sp]
 4017 1dae 0823     		movs	r3, #8
 4018 1db0 0193     		str	r3, [sp, #4]
 4019 1db2 10AB     		add	r3, sp, #64
 4020 1db4 0293     		str	r3, [sp, #8]
 4021 1db6 0023     		movs	r3, #0
 4022 1db8 0393     		str	r3, [sp, #12]
 4023 1dba 0023     		movs	r3, #0
 4024 1dbc 0493     		str	r3, [sp, #16]
 4025 1dbe 0023     		movs	r3, #0
 4026 1dc0 0593     		str	r3, [sp, #20]
ARM GAS  /tmp/ccNtBBEs.s 			page 73


 4027 1dc2 0023     		movs	r3, #0
 4028 1dc4 0693     		str	r3, [sp, #24]
 4029 1dc6 0020     		movs	r0, #0
 4030 1dc8 0021     		movs	r1, #0
 4031 1dca 0022     		movs	r2, #0
 4032 1dcc 0123     		movs	r3, #1
 4033 1dce FFF7FEFF 		bl	aci_gap_set_discoverable
 4034              		.loc 1 1235 0
 4035 1dd2 09AB     		add	r3, sp, #36
 4036 1dd4 1A20     		movs	r0, #26
 4037 1dd6 1946     		mov	r1, r3
 4038 1dd8 FFF7FEFF 		bl	aci_gap_update_adv_data
 4039              		.loc 1 1236 0
 4040 1ddc 13B0     		add	sp, sp, #76
 4041              		@ sp needed
 4042 1dde 30BD     		pop	{r4, r5, pc}
 4043              	.L183:
 4044              		.align	2
 4045              	.L182:
 4046 1de0 94010000 		.word	.LC0
 4047 1de4 9C010000 		.word	.LC1
 4048 1de8 00000000 		.word	bdaddr
 4049 1dec 00000000 		.word	TargetBoardFeatures
 4050              		.cfi_endproc
 4051              	.LFE288:
 4052              		.size	setConnectable, .-setConnectable
 4053              		.align	2
 4054              		.p2align 4,,15
 4055              		.thumb
 4056              		.thumb_func
 4057              		.type	GAP_ConnectionComplete_CB, %function
 4058              	GAP_ConnectionComplete_CB:
 4059              	.LFB289:
 4060              		.loc 1 1245 0
 4061              		.cfi_startproc
 4062              		@ args = 0, pretend = 0, frame = 16
 4063              		@ frame_needed = 0, uses_anonymous_args = 0
 4064 1df0 00B5     		push	{lr}
 4065              		.cfi_def_cfa_offset 4
 4066              		.cfi_offset 14, -4
 4067 1df2 87B0     		sub	sp, sp, #28
 4068              		.cfi_def_cfa_offset 32
 4069 1df4 0390     		str	r0, [sp, #12]
 4070 1df6 0B46     		mov	r3, r1
 4071 1df8 ADF80A30 		strh	r3, [sp, #10]	@ movhi
 4072              		.loc 1 1246 0
 4073 1dfc 164B     		ldr	r3, .L188
 4074 1dfe 0122     		movs	r2, #1
 4075 1e00 1A60     		str	r2, [r3]
 4076              		.loc 1 1247 0
 4077 1e02 164B     		ldr	r3, .L188+4
 4078 1e04 BDF80A20 		ldrh	r2, [sp, #10]	@ movhi
 4079 1e08 1A80     		strh	r2, [r3]	@ movhi
 4080              		.loc 1 1253 0
 4081 1e0a 154B     		ldr	r3, .L188+8
 4082 1e0c 0022     		movs	r2, #0
 4083 1e0e 1A60     		str	r2, [r3]
ARM GAS  /tmp/ccNtBBEs.s 			page 74


 4084              		.loc 1 1255 0
 4085 1e10 144B     		ldr	r3, .L188+12
 4086 1e12 9B69     		ldr	r3, [r3, #24]
 4087 1e14 002B     		cmp	r3, #0
 4088 1e16 01D0     		beq	.L185
 4089              		.loc 1 1256 0
 4090 1e18 FFF7FEFF 		bl	DisableHWFeatures
 4091              	.L185:
 4092              		.loc 1 1259 0
 4093 1e1c 124B     		ldr	r3, .L188+16
 4094 1e1e 0022     		movs	r2, #0
 4095 1e20 1A60     		str	r2, [r3]
 4096              		.loc 1 1260 0
 4097 1e22 124B     		ldr	r3, .L188+20
 4098 1e24 0022     		movs	r2, #0
 4099 1e26 1A60     		str	r2, [r3]
 4100              		.loc 1 1263 0
 4101 1e28 0E4B     		ldr	r3, .L188+12
 4102 1e2a 5B6C     		ldr	r3, [r3, #68]
 4103 1e2c 002B     		cmp	r3, #0
 4104 1e2e 10D0     		beq	.L184
 4105              	.LBB3:
 4106              		.loc 1 1267 0
 4107 1e30 BDF80A30 		ldrh	r3, [sp, #10]
 4108 1e34 4FF4C872 		mov	r2, #400
 4109 1e38 0092     		str	r2, [sp]
 4110 1e3a 1846     		mov	r0, r3
 4111 1e3c 0821     		movs	r1, #8
 4112 1e3e 1122     		movs	r2, #17
 4113 1e40 0023     		movs	r3, #0
 4114 1e42 FFF7FEFF 		bl	aci_l2cap_connection_parameter_update_request
 4115 1e46 0346     		mov	r3, r0
 4116 1e48 0593     		str	r3, [sp, #20]
 4117              		.loc 1 1272 0
 4118 1e4a 059B     		ldr	r3, [sp, #20]
 4119 1e4c 002B     		cmp	r3, #0
 4120 1e4e 00D0     		beq	.L184
 4121              	.L187:
 4122              		.loc 1 1275 0 discriminator 1
 4123 1e50 FEE7     		b	.L187
 4124              	.L184:
 4125              	.LBE3:
 4126              		.loc 1 1280 0
 4127 1e52 07B0     		add	sp, sp, #28
 4128              		@ sp needed
 4129 1e54 5DF804FB 		ldr	pc, [sp], #4
 4130              	.L189:
 4131              		.align	2
 4132              	.L188:
 4133 1e58 00000000 		.word	connected
 4134 1e5c 58000000 		.word	connection_handle
 4135 1e60 00000000 		.word	ConnectionBleStatus
 4136 1e64 00000000 		.word	TargetBoardFeatures
 4137 1e68 00000000 		.word	ForceReCalibration
 4138 1e6c 00000000 		.word	FirstConnectionConfig
 4139              		.cfi_endproc
 4140              	.LFE289:
ARM GAS  /tmp/ccNtBBEs.s 			page 75


 4141              		.size	GAP_ConnectionComplete_CB, .-GAP_ConnectionComplete_CB
 4142              		.align	2
 4143              		.p2align 4,,15
 4144              		.thumb
 4145              		.thumb_func
 4146              		.type	GAP_DisconnectionComplete_CB, %function
 4147              	GAP_DisconnectionComplete_CB:
 4148              	.LFB290:
 4149              		.loc 1 1288 0
 4150              		.cfi_startproc
 4151              		@ args = 0, pretend = 0, frame = 0
 4152              		@ frame_needed = 0, uses_anonymous_args = 0
 4153 1e70 08B5     		push	{r3, lr}
 4154              		.cfi_def_cfa_offset 8
 4155              		.cfi_offset 3, -8
 4156              		.cfi_offset 14, -4
 4157              		.loc 1 1289 0
 4158 1e72 264B     		ldr	r3, .L198
 4159 1e74 0022     		movs	r2, #0
 4160 1e76 1A60     		str	r2, [r3]
 4161              		.loc 1 1302 0
 4162 1e78 254B     		ldr	r3, .L198+4
 4163 1e7a 0122     		movs	r2, #1
 4164 1e7c 1A70     		strb	r2, [r3]
 4165              		.loc 1 1304 0
 4166 1e7e 254B     		ldr	r3, .L198+8
 4167 1e80 0022     		movs	r2, #0
 4168 1e82 1A60     		str	r2, [r3]
 4169              		.loc 1 1306 0
 4170 1e84 244B     		ldr	r3, .L198+12
 4171 1e86 9B69     		ldr	r3, [r3, #24]
 4172 1e88 002B     		cmp	r3, #0
 4173 1e8a 01D0     		beq	.L191
 4174              		.loc 1 1307 0
 4175 1e8c FFF7FEFF 		bl	DisableHWFeatures
 4176              	.L191:
 4177              		.loc 1 1310 0
 4178 1e90 224B     		ldr	r3, .L198+16
 4179 1e92 0022     		movs	r2, #0
 4180 1e94 1A60     		str	r2, [r3]
 4181              		.loc 1 1311 0
 4182 1e96 224B     		ldr	r3, .L198+20
 4183 1e98 0022     		movs	r2, #0
 4184 1e9a 1A60     		str	r2, [r3]
 4185              		.loc 1 1314 0
 4186 1e9c 214B     		ldr	r3, .L198+24
 4187 1e9e 0022     		movs	r2, #0
 4188 1ea0 1A60     		str	r2, [r3]
 4189              		.loc 1 1322 0
 4190 1ea2 2148     		ldr	r0, .L198+28
 4191 1ea4 0021     		movs	r1, #0
 4192 1ea6 FFF7FEFF 		bl	HAL_TIM_OC_Stop_IT
 4193 1eaa 0346     		mov	r3, r0
 4194 1eac 002B     		cmp	r3, #0
 4195 1eae 01D0     		beq	.L192
 4196              		.loc 1 1324 0
 4197 1eb0 FFF7FEFF 		bl	Error_Handler
ARM GAS  /tmp/ccNtBBEs.s 			page 76


 4198              	.L192:
 4199              		.loc 1 1330 0
 4200 1eb4 1C48     		ldr	r0, .L198+28
 4201 1eb6 0421     		movs	r1, #4
 4202 1eb8 FFF7FEFF 		bl	HAL_TIM_OC_Stop_IT
 4203 1ebc 0346     		mov	r3, r0
 4204 1ebe 002B     		cmp	r3, #0
 4205 1ec0 01D0     		beq	.L193
 4206              		.loc 1 1332 0
 4207 1ec2 FFF7FEFF 		bl	Error_Handler
 4208              	.L193:
 4209              		.loc 1 1338 0
 4210 1ec6 1848     		ldr	r0, .L198+28
 4211 1ec8 0821     		movs	r1, #8
 4212 1eca FFF7FEFF 		bl	HAL_TIM_OC_Stop_IT
 4213 1ece 0346     		mov	r3, r0
 4214 1ed0 002B     		cmp	r3, #0
 4215 1ed2 01D0     		beq	.L194
 4216              		.loc 1 1340 0
 4217 1ed4 FFF7FEFF 		bl	Error_Handler
 4218              	.L194:
 4219              		.loc 1 1345 0
 4220 1ed8 1348     		ldr	r0, .L198+28
 4221 1eda 0C21     		movs	r1, #12
 4222 1edc FFF7FEFF 		bl	HAL_TIM_OC_Stop_IT
 4223 1ee0 0346     		mov	r3, r0
 4224 1ee2 002B     		cmp	r3, #0
 4225 1ee4 01D0     		beq	.L195
 4226              		.loc 1 1347 0
 4227 1ee6 FFF7FEFF 		bl	Error_Handler
 4228              	.L195:
 4229              		.loc 1 1351 0
 4230 1eea 1048     		ldr	r0, .L198+32
 4231 1eec FFF7FEFF 		bl	HAL_TIM_Base_Stop_IT
 4232 1ef0 0346     		mov	r3, r0
 4233 1ef2 002B     		cmp	r3, #0
 4234 1ef4 01D0     		beq	.L196
 4235              		.loc 1 1353 0
 4236 1ef6 FFF7FEFF 		bl	Error_Handler
 4237              	.L196:
 4238              		.loc 1 1357 0
 4239 1efa 0D48     		ldr	r0, .L198+36
 4240 1efc FFF7FEFF 		bl	HAL_TIM_Base_Stop_IT
 4241 1f00 0346     		mov	r3, r0
 4242 1f02 002B     		cmp	r3, #0
 4243 1f04 01D0     		beq	.L190
 4244              		.loc 1 1359 0
 4245 1f06 FFF7FEFF 		bl	Error_Handler
 4246              	.L190:
 4247              		.loc 1 1361 0
 4248 1f0a 08BD     		pop	{r3, pc}
 4249              	.L199:
 4250              		.align	2
 4251              	.L198:
 4252 1f0c 00000000 		.word	connected
 4253 1f10 00000000 		.word	set_connectable
 4254 1f14 00000000 		.word	ConnectionBleStatus
ARM GAS  /tmp/ccNtBBEs.s 			page 77


 4255 1f18 00000000 		.word	TargetBoardFeatures
 4256 1f1c 00000000 		.word	ForceReCalibration
 4257 1f20 00000000 		.word	FirstConnectionConfig
 4258 1f24 54000000 		.word	SizeOfUpdateBlueFW
 4259 1f28 00000000 		.word	TimCCHandle
 4260 1f2c 00000000 		.word	TimEnvHandle
 4261 1f30 00000000 		.word	TimAudioDataHandle
 4262              		.cfi_endproc
 4263              	.LFE290:
 4264              		.size	GAP_DisconnectionComplete_CB, .-GAP_DisconnectionComplete_CB
 4265              		.global	__aeabi_f2iz
 4266              		.global	__aeabi_i2f
 4267              		.global	__aeabi_fsub
 4268              		.global	__aeabi_fmul
 4269              		.align	2
 4270 1f34 AFF30080 		.p2align 4,,15
 4270      AFF30080 
 4270      AFF30080 
 4271              		.global	Read_Request_CB
 4272              		.thumb
 4273              		.thumb_func
 4274              		.type	Read_Request_CB, %function
 4275              	Read_Request_CB:
 4276              	.LFB291:
 4277              		.loc 1 1369 0
 4278              		.cfi_startproc
 4279              		@ args = 0, pretend = 0, frame = 40
 4280              		@ frame_needed = 0, uses_anonymous_args = 0
 4281 1f40 10B5     		push	{r4, lr}
 4282              		.cfi_def_cfa_offset 8
 4283              		.cfi_offset 4, -8
 4284              		.cfi_offset 14, -4
 4285 1f42 8AB0     		sub	sp, sp, #40
 4286              		.cfi_def_cfa_offset 48
 4287 1f44 0346     		mov	r3, r0
 4288 1f46 ADF80630 		strh	r3, [sp, #6]	@ movhi
 4289              		.loc 1 1371 0
 4290 1f4a BDF80620 		ldrh	r2, [sp, #6]
 4291 1f4e A14B     		ldr	r3, .L219
 4292 1f50 1B88     		ldrh	r3, [r3]
 4293 1f52 0133     		adds	r3, r3, #1
 4294 1f54 9A42     		cmp	r2, r3
 4295 1f56 40F04581 		bne	.L201
 4296              	.LBB4:
 4297              		.loc 1 1374 0
 4298 1f5a 0023     		movs	r3, #0
 4299 1f5c 0993     		str	r3, [sp, #36]
 4300              		.loc 1 1375 0
 4301 1f5e 0023     		movs	r3, #0
 4302 1f60 ADF82230 		strh	r3, [sp, #34]	@ movhi
 4303              		.loc 1 1376 0
 4304 1f64 0023     		movs	r3, #0
 4305 1f66 ADF82030 		strh	r3, [sp, #32]	@ movhi
 4306 1f6a 0023     		movs	r3, #0
 4307 1f6c ADF81E30 		strh	r3, [sp, #30]	@ movhi
 4308              		.loc 1 1379 0
 4309 1f70 994B     		ldr	r3, .L219+4
ARM GAS  /tmp/ccNtBBEs.s 			page 78


 4310 1f72 1B69     		ldr	r3, [r3, #16]
 4311 1f74 002B     		cmp	r3, #0
 4312 1f76 32D0     		beq	.L202
 4313              		.loc 1 1380 0
 4314 1f78 974B     		ldr	r3, .L219+4
 4315 1f7a 1A69     		ldr	r2, [r3, #16]
 4316 1f7c 0DF11303 		add	r3, sp, #19
 4317 1f80 1046     		mov	r0, r2
 4318 1f82 1946     		mov	r1, r3
 4319 1f84 FFF7FEFF 		bl	BSP_PRESSURE_IsInitialized
 4320 1f88 0346     		mov	r3, r0
 4321 1f8a 002B     		cmp	r3, #0
 4322 1f8c 27D1     		bne	.L202
 4323              		.loc 1 1381 0
 4324 1f8e 924B     		ldr	r3, .L219+4
 4325 1f90 1A69     		ldr	r2, [r3, #16]
 4326 1f92 03AB     		add	r3, sp, #12
 4327 1f94 1046     		mov	r0, r2
 4328 1f96 1946     		mov	r1, r3
 4329 1f98 FFF7FEFF 		bl	BSP_PRESSURE_Get_Press
 4330              		.loc 1 1382 0
 4331 1f9c 039B     		ldr	r3, [sp, #12]	@ float
 4332 1f9e 1846     		mov	r0, r3
 4333 1fa0 FFF7FEFF 		bl	__aeabi_f2iz
 4334 1fa4 0346     		mov	r3, r0
 4335 1fa6 0693     		str	r3, [sp, #24]
 4336 1fa8 039C     		ldr	r4, [sp, #12]	@ float
 4337 1faa 0698     		ldr	r0, [sp, #24]
 4338 1fac FFF7FEFF 		bl	__aeabi_i2f
 4339 1fb0 0346     		mov	r3, r0
 4340 1fb2 2046     		mov	r0, r4
 4341 1fb4 1946     		mov	r1, r3
 4342 1fb6 FFF7FEFF 		bl	__aeabi_fsub
 4343 1fba 0346     		mov	r3, r0
 4344 1fbc 1846     		mov	r0, r3
 4345 1fbe 8749     		ldr	r1, .L219+8
 4346 1fc0 FFF7FEFF 		bl	__aeabi_fmul
 4347 1fc4 0346     		mov	r3, r0
 4348 1fc6 1846     		mov	r0, r3
 4349 1fc8 FFF7FEFF 		bl	__aeabi_f2iz
 4350 1fcc 0346     		mov	r3, r0
 4351 1fce 0593     		str	r3, [sp, #20]
 4352              		.loc 1 1383 0
 4353 1fd0 069B     		ldr	r3, [sp, #24]
 4354 1fd2 6422     		movs	r2, #100
 4355 1fd4 02FB03F2 		mul	r2, r2, r3
 4356 1fd8 059B     		ldr	r3, [sp, #20]
 4357 1fda 1344     		add	r3, r3, r2
 4358 1fdc 0993     		str	r3, [sp, #36]
 4359              	.L202:
 4360              		.loc 1 1387 0
 4361 1fde 7E4B     		ldr	r3, .L219+4
 4362 1fe0 5B69     		ldr	r3, [r3, #20]
 4363 1fe2 002B     		cmp	r3, #0
 4364 1fe4 37D0     		beq	.L203
 4365              		.loc 1 1388 0
 4366 1fe6 7C4B     		ldr	r3, .L219+4
ARM GAS  /tmp/ccNtBBEs.s 			page 79


 4367 1fe8 5A69     		ldr	r2, [r3, #20]
 4368 1fea 0DF11303 		add	r3, sp, #19
 4369 1fee 1046     		mov	r0, r2
 4370 1ff0 1946     		mov	r1, r3
 4371 1ff2 FFF7FEFF 		bl	BSP_HUMIDITY_IsInitialized
 4372 1ff6 0346     		mov	r3, r0
 4373 1ff8 002B     		cmp	r3, #0
 4374 1ffa 2CD1     		bne	.L203
 4375              		.loc 1 1389 0
 4376 1ffc 764B     		ldr	r3, .L219+4
 4377 1ffe 5A69     		ldr	r2, [r3, #20]
 4378 2000 03AB     		add	r3, sp, #12
 4379 2002 1046     		mov	r0, r2
 4380 2004 1946     		mov	r1, r3
 4381 2006 FFF7FEFF 		bl	BSP_HUMIDITY_Get_Hum
 4382              		.loc 1 1390 0
 4383 200a 039B     		ldr	r3, [sp, #12]	@ float
 4384 200c 1846     		mov	r0, r3
 4385 200e FFF7FEFF 		bl	__aeabi_f2iz
 4386 2012 0346     		mov	r3, r0
 4387 2014 0693     		str	r3, [sp, #24]
 4388 2016 039C     		ldr	r4, [sp, #12]	@ float
 4389 2018 0698     		ldr	r0, [sp, #24]
 4390 201a FFF7FEFF 		bl	__aeabi_i2f
 4391 201e 0346     		mov	r3, r0
 4392 2020 2046     		mov	r0, r4
 4393 2022 1946     		mov	r1, r3
 4394 2024 FFF7FEFF 		bl	__aeabi_fsub
 4395 2028 0346     		mov	r3, r0
 4396 202a 1846     		mov	r0, r3
 4397 202c 6C49     		ldr	r1, .L219+12
 4398 202e FFF7FEFF 		bl	__aeabi_fmul
 4399 2032 0346     		mov	r3, r0
 4400 2034 1846     		mov	r0, r3
 4401 2036 FFF7FEFF 		bl	__aeabi_f2iz
 4402 203a 0346     		mov	r3, r0
 4403 203c 0593     		str	r3, [sp, #20]
 4404              		.loc 1 1391 0
 4405 203e 069B     		ldr	r3, [sp, #24]
 4406 2040 9BB2     		uxth	r3, r3
 4407 2042 1A46     		mov	r2, r3	@ movhi
 4408 2044 9200     		lsls	r2, r2, #2
 4409 2046 1344     		add	r3, r3, r2
 4410 2048 5B00     		lsls	r3, r3, #1
 4411 204a 9AB2     		uxth	r2, r3
 4412 204c 059B     		ldr	r3, [sp, #20]
 4413 204e 9BB2     		uxth	r3, r3
 4414 2050 1344     		add	r3, r3, r2
 4415 2052 ADF82230 		strh	r3, [sp, #34]	@ movhi
 4416              	.L203:
 4417              		.loc 1 1395 0
 4418 2056 604B     		ldr	r3, .L219+4
 4419 2058 5B68     		ldr	r3, [r3, #4]
 4420 205a 022B     		cmp	r3, #2
 4421 205c 72D1     		bne	.L204
 4422              		.loc 1 1396 0
 4423 205e 5E4B     		ldr	r3, .L219+4
ARM GAS  /tmp/ccNtBBEs.s 			page 80


 4424 2060 9A68     		ldr	r2, [r3, #8]
 4425 2062 0DF11303 		add	r3, sp, #19
 4426 2066 1046     		mov	r0, r2
 4427 2068 1946     		mov	r1, r3
 4428 206a FFF7FEFF 		bl	BSP_TEMPERATURE_IsInitialized
 4429 206e 0346     		mov	r3, r0
 4430 2070 002B     		cmp	r3, #0
 4431 2072 2DD1     		bne	.L205
 4432              		.loc 1 1397 0
 4433 2074 584B     		ldr	r3, .L219+4
 4434 2076 9A68     		ldr	r2, [r3, #8]
 4435 2078 03AB     		add	r3, sp, #12
 4436 207a 1046     		mov	r0, r2
 4437 207c 1946     		mov	r1, r3
 4438 207e FFF7FEFF 		bl	BSP_TEMPERATURE_Get_Temp
 4439              		.loc 1 1398 0
 4440 2082 039B     		ldr	r3, [sp, #12]	@ float
 4441 2084 1846     		mov	r0, r3
 4442 2086 FFF7FEFF 		bl	__aeabi_f2iz
 4443 208a 0346     		mov	r3, r0
 4444 208c 0693     		str	r3, [sp, #24]
 4445 208e 039C     		ldr	r4, [sp, #12]	@ float
 4446 2090 0698     		ldr	r0, [sp, #24]
 4447 2092 FFF7FEFF 		bl	__aeabi_i2f
 4448 2096 0346     		mov	r3, r0
 4449 2098 2046     		mov	r0, r4
 4450 209a 1946     		mov	r1, r3
 4451 209c FFF7FEFF 		bl	__aeabi_fsub
 4452 20a0 0346     		mov	r3, r0
 4453 20a2 1846     		mov	r0, r3
 4454 20a4 4E49     		ldr	r1, .L219+12
 4455 20a6 FFF7FEFF 		bl	__aeabi_fmul
 4456 20aa 0346     		mov	r3, r0
 4457 20ac 1846     		mov	r0, r3
 4458 20ae FFF7FEFF 		bl	__aeabi_f2iz
 4459 20b2 0346     		mov	r3, r0
 4460 20b4 0593     		str	r3, [sp, #20]
 4461              		.loc 1 1399 0
 4462 20b6 069B     		ldr	r3, [sp, #24]
 4463 20b8 9BB2     		uxth	r3, r3
 4464 20ba 1A46     		mov	r2, r3	@ movhi
 4465 20bc 9200     		lsls	r2, r2, #2
 4466 20be 1344     		add	r3, r3, r2
 4467 20c0 5B00     		lsls	r3, r3, #1
 4468 20c2 9AB2     		uxth	r2, r3
 4469 20c4 059B     		ldr	r3, [sp, #20]
 4470 20c6 9BB2     		uxth	r3, r3
 4471 20c8 1344     		add	r3, r3, r2
 4472 20ca 9BB2     		uxth	r3, r3
 4473 20cc ADF81E30 		strh	r3, [sp, #30]	@ movhi
 4474              	.L205:
 4475              		.loc 1 1402 0
 4476 20d0 414B     		ldr	r3, .L219+4
 4477 20d2 DA68     		ldr	r2, [r3, #12]
 4478 20d4 0DF11303 		add	r3, sp, #19
 4479 20d8 1046     		mov	r0, r2
 4480 20da 1946     		mov	r1, r3
ARM GAS  /tmp/ccNtBBEs.s 			page 81


 4481 20dc FFF7FEFF 		bl	BSP_TEMPERATURE_IsInitialized
 4482 20e0 0346     		mov	r3, r0
 4483 20e2 002B     		cmp	r3, #0
 4484 20e4 6BD1     		bne	.L207
 4485              		.loc 1 1403 0
 4486 20e6 3C4B     		ldr	r3, .L219+4
 4487 20e8 DA68     		ldr	r2, [r3, #12]
 4488 20ea 03AB     		add	r3, sp, #12
 4489 20ec 1046     		mov	r0, r2
 4490 20ee 1946     		mov	r1, r3
 4491 20f0 FFF7FEFF 		bl	BSP_TEMPERATURE_Get_Temp
 4492              		.loc 1 1404 0
 4493 20f4 039B     		ldr	r3, [sp, #12]	@ float
 4494 20f6 1846     		mov	r0, r3
 4495 20f8 FFF7FEFF 		bl	__aeabi_f2iz
 4496 20fc 0346     		mov	r3, r0
 4497 20fe 0693     		str	r3, [sp, #24]
 4498 2100 039C     		ldr	r4, [sp, #12]	@ float
 4499 2102 0698     		ldr	r0, [sp, #24]
 4500 2104 FFF7FEFF 		bl	__aeabi_i2f
 4501 2108 0346     		mov	r3, r0
 4502 210a 2046     		mov	r0, r4
 4503 210c 1946     		mov	r1, r3
 4504 210e FFF7FEFF 		bl	__aeabi_fsub
 4505 2112 0346     		mov	r3, r0
 4506 2114 1846     		mov	r0, r3
 4507 2116 3249     		ldr	r1, .L219+12
 4508 2118 FFF7FEFF 		bl	__aeabi_fmul
 4509 211c 0346     		mov	r3, r0
 4510 211e 1846     		mov	r0, r3
 4511 2120 FFF7FEFF 		bl	__aeabi_f2iz
 4512 2124 0346     		mov	r3, r0
 4513 2126 0593     		str	r3, [sp, #20]
 4514              		.loc 1 1405 0
 4515 2128 069B     		ldr	r3, [sp, #24]
 4516 212a 9BB2     		uxth	r3, r3
 4517 212c 1A46     		mov	r2, r3	@ movhi
 4518 212e 9200     		lsls	r2, r2, #2
 4519 2130 1344     		add	r3, r3, r2
 4520 2132 5B00     		lsls	r3, r3, #1
 4521 2134 9AB2     		uxth	r2, r3
 4522 2136 059B     		ldr	r3, [sp, #20]
 4523 2138 9BB2     		uxth	r3, r3
 4524 213a 1344     		add	r3, r3, r2
 4525 213c 9BB2     		uxth	r3, r3
 4526 213e ADF82030 		strh	r3, [sp, #32]	@ movhi
 4527 2142 3CE0     		b	.L207
 4528              	.L204:
 4529              		.loc 1 1407 0
 4530 2144 244B     		ldr	r3, .L219+4
 4531 2146 5B68     		ldr	r3, [r3, #4]
 4532 2148 012B     		cmp	r3, #1
 4533 214a 38D1     		bne	.L207
 4534              		.loc 1 1408 0
 4535 214c 224B     		ldr	r3, .L219+4
 4536 214e 9A68     		ldr	r2, [r3, #8]
 4537 2150 0DF11303 		add	r3, sp, #19
ARM GAS  /tmp/ccNtBBEs.s 			page 82


 4538 2154 1046     		mov	r0, r2
 4539 2156 1946     		mov	r1, r3
 4540 2158 FFF7FEFF 		bl	BSP_TEMPERATURE_IsInitialized
 4541 215c 0346     		mov	r3, r0
 4542 215e 002B     		cmp	r3, #0
 4543 2160 2DD1     		bne	.L207
 4544              		.loc 1 1409 0
 4545 2162 1D4B     		ldr	r3, .L219+4
 4546 2164 9A68     		ldr	r2, [r3, #8]
 4547 2166 03AB     		add	r3, sp, #12
 4548 2168 1046     		mov	r0, r2
 4549 216a 1946     		mov	r1, r3
 4550 216c FFF7FEFF 		bl	BSP_TEMPERATURE_Get_Temp
 4551              		.loc 1 1410 0
 4552 2170 039B     		ldr	r3, [sp, #12]	@ float
 4553 2172 1846     		mov	r0, r3
 4554 2174 FFF7FEFF 		bl	__aeabi_f2iz
 4555 2178 0346     		mov	r3, r0
 4556 217a 0693     		str	r3, [sp, #24]
 4557 217c 039C     		ldr	r4, [sp, #12]	@ float
 4558 217e 0698     		ldr	r0, [sp, #24]
 4559 2180 FFF7FEFF 		bl	__aeabi_i2f
 4560 2184 0346     		mov	r3, r0
 4561 2186 2046     		mov	r0, r4
 4562 2188 1946     		mov	r1, r3
 4563 218a FFF7FEFF 		bl	__aeabi_fsub
 4564 218e 0346     		mov	r3, r0
 4565 2190 1846     		mov	r0, r3
 4566 2192 1349     		ldr	r1, .L219+12
 4567 2194 FFF7FEFF 		bl	__aeabi_fmul
 4568 2198 0346     		mov	r3, r0
 4569 219a 1846     		mov	r0, r3
 4570 219c FFF7FEFF 		bl	__aeabi_f2iz
 4571 21a0 0346     		mov	r3, r0
 4572 21a2 0593     		str	r3, [sp, #20]
 4573              		.loc 1 1411 0
 4574 21a4 069B     		ldr	r3, [sp, #24]
 4575 21a6 9BB2     		uxth	r3, r3
 4576 21a8 1A46     		mov	r2, r3	@ movhi
 4577 21aa 9200     		lsls	r2, r2, #2
 4578 21ac 1344     		add	r3, r3, r2
 4579 21ae 5B00     		lsls	r3, r3, #1
 4580 21b0 9AB2     		uxth	r2, r3
 4581 21b2 059B     		ldr	r3, [sp, #20]
 4582 21b4 9BB2     		uxth	r3, r3
 4583 21b6 1344     		add	r3, r3, r2
 4584 21b8 9BB2     		uxth	r3, r3
 4585 21ba ADF81E30 		strh	r3, [sp, #30]	@ movhi
 4586              	.L207:
 4587              		.loc 1 1414 0 discriminator 1
 4588 21be BDF82210 		ldrh	r1, [sp, #34]
 4589 21c2 BDF92020 		ldrsh	r2, [sp, #32]
 4590 21c6 BDF91E30 		ldrsh	r3, [sp, #30]
 4591 21ca 0998     		ldr	r0, [sp, #36]
 4592 21cc FFF7FEFF 		bl	Environmental_Update
 4593              	.LBE4:
 4594 21d0 6CE0     		b	.L208
ARM GAS  /tmp/ccNtBBEs.s 			page 83


 4595              	.L220:
 4596 21d2 00BF     		.align	2
 4597              	.L219:
 4598 21d4 06000000 		.word	EnvironmentalCharHandle
 4599 21d8 00000000 		.word	TargetBoardFeatures
 4600 21dc 0000C842 		.word	1120403456
 4601 21e0 00002041 		.word	1092616192
 4602              	.L201:
 4603              		.loc 1 1415 0
 4604 21e4 BDF80620 		ldrh	r2, [sp, #6]
 4605 21e8 364B     		ldr	r3, .L221
 4606 21ea 1B88     		ldrh	r3, [r3]
 4607 21ec 0133     		adds	r3, r3, #1
 4608 21ee 9A42     		cmp	r2, r3
 4609 21f0 18D1     		bne	.L209
 4610              		.loc 1 1417 0
 4611 21f2 354B     		ldr	r3, .L221+4
 4612 21f4 9B69     		ldr	r3, [r3, #24]
 4613 21f6 002B     		cmp	r3, #0
 4614 21f8 58D0     		beq	.L208
 4615              	.LBB5:
 4616              		.loc 1 1419 0
 4617 21fa 344B     		ldr	r3, .L221+8
 4618 21fc 1B68     		ldr	r3, [r3]
 4619 21fe 03F00103 		and	r3, r3, #1
 4620 2202 002B     		cmp	r3, #0
 4621 2204 05D0     		beq	.L211
 4622              		.loc 1 1420 0
 4623 2206 FFF7FEFF 		bl	GetStepHWPedometer
 4624 220a 0346     		mov	r3, r0
 4625 220c ADF81C30 		strh	r3, [sp, #28]	@ movhi
 4626 2210 02E0     		b	.L212
 4627              	.L211:
 4628              		.loc 1 1422 0
 4629 2212 0023     		movs	r3, #0
 4630 2214 ADF81C30 		strh	r3, [sp, #28]	@ movhi
 4631              	.L212:
 4632              		.loc 1 1424 0
 4633 2218 BDF81C30 		ldrh	r3, [sp, #28]
 4634 221c 1846     		mov	r0, r3
 4635 221e FFF7FEFF 		bl	AccEvent_Notify
 4636 2222 43E0     		b	.L208
 4637              	.L209:
 4638              	.LBE5:
 4639              		.loc 1 1426 0
 4640 2224 BDF80620 		ldrh	r2, [sp, #6]
 4641 2228 294B     		ldr	r3, .L221+12
 4642 222a 1B88     		ldrh	r3, [r3]
 4643 222c 0133     		adds	r3, r3, #1
 4644 222e 9A42     		cmp	r2, r3
 4645 2230 02D1     		bne	.L213
 4646              		.loc 1 1428 0
 4647 2232 FEF76DF9 		bl	Stderr_Update_AfterRead
 4648 2236 39E0     		b	.L208
 4649              	.L213:
 4650              		.loc 1 1429 0
 4651 2238 BDF80620 		ldrh	r2, [sp, #6]
ARM GAS  /tmp/ccNtBBEs.s 			page 84


 4652 223c 254B     		ldr	r3, .L221+16
 4653 223e 1B88     		ldrh	r3, [r3]
 4654 2240 0133     		adds	r3, r3, #1
 4655 2242 9A42     		cmp	r2, r3
 4656 2244 02D1     		bne	.L214
 4657              		.loc 1 1431 0
 4658 2246 FEF78BF9 		bl	Term_Update_AfterRead
 4659 224a 2FE0     		b	.L208
 4660              	.L214:
 4661              		.loc 1 1433 0
 4662 224c BDF80620 		ldrh	r2, [sp, #6]
 4663 2250 214B     		ldr	r3, .L221+20
 4664 2252 1B88     		ldrh	r3, [r3]
 4665 2254 0133     		adds	r3, r3, #1
 4666 2256 9A42     		cmp	r2, r3
 4667 2258 05D1     		bne	.L215
 4668              		.loc 1 1434 0
 4669 225a 204B     		ldr	r3, .L221+24
 4670 225c 1B78     		ldrb	r3, [r3]	@ zero_extendqisi2
 4671 225e 1846     		mov	r0, r3
 4672 2260 FFF7FEFF 		bl	ActivityRec_Update
 4673 2264 22E0     		b	.L208
 4674              	.L215:
 4675              		.loc 1 1437 0
 4676 2266 BDF80620 		ldrh	r2, [sp, #6]
 4677 226a 1D4B     		ldr	r3, .L221+28
 4678 226c 1B88     		ldrh	r3, [r3]
 4679 226e 0133     		adds	r3, r3, #1
 4680 2270 9A42     		cmp	r2, r3
 4681 2272 05D1     		bne	.L216
 4682              		.loc 1 1438 0
 4683 2274 1B4B     		ldr	r3, .L221+32
 4684 2276 1B78     		ldrb	r3, [r3]	@ zero_extendqisi2
 4685 2278 1846     		mov	r0, r3
 4686 227a FFF7FEFF 		bl	CarryPosRec_Update
 4687 227e 15E0     		b	.L208
 4688              	.L216:
 4689              		.loc 1 1442 0
 4690 2280 BDF80620 		ldrh	r2, [sp, #6]
 4691 2284 184B     		ldr	r3, .L221+36
 4692 2286 1B88     		ldrh	r3, [r3]
 4693 2288 0133     		adds	r3, r3, #1
 4694 228a 9A42     		cmp	r2, r3
 4695 228c 05D1     		bne	.L217
 4696              		.loc 1 1443 0
 4697 228e 174B     		ldr	r3, .L221+40
 4698 2290 1B78     		ldrb	r3, [r3]	@ zero_extendqisi2
 4699 2292 1846     		mov	r0, r3
 4700 2294 FFF7FEFF 		bl	GestureRec_Update
 4701 2298 08E0     		b	.L208
 4702              	.L217:
 4703              		.loc 1 1447 0
 4704 229a BDF80620 		ldrh	r2, [sp, #6]
 4705 229e 144B     		ldr	r3, .L221+44
 4706 22a0 1B88     		ldrh	r3, [r3]
 4707 22a2 0133     		adds	r3, r3, #1
 4708 22a4 9A42     		cmp	r2, r3
ARM GAS  /tmp/ccNtBBEs.s 			page 85


 4709 22a6 01D1     		bne	.L208
 4710              		.loc 1 1448 0
 4711 22a8 FFF7FEFF 		bl	GG_Update
 4712              	.L208:
 4713              		.loc 1 1453 0
 4714 22ac 114B     		ldr	r3, .L221+48
 4715 22ae 1B88     		ldrh	r3, [r3]
 4716 22b0 002B     		cmp	r3, #0
 4717 22b2 04D0     		beq	.L200
 4718              		.loc 1 1454 0
 4719 22b4 0F4B     		ldr	r3, .L221+48
 4720 22b6 1B88     		ldrh	r3, [r3]
 4721 22b8 1846     		mov	r0, r3
 4722 22ba FFF7FEFF 		bl	aci_gatt_allow_read
 4723              	.L200:
 4724              		.loc 1 1455 0
 4725 22be 0AB0     		add	sp, sp, #40
 4726              		@ sp needed
 4727 22c0 10BD     		pop	{r4, pc}
 4728              	.L222:
 4729 22c2 00BF     		.align	2
 4730              	.L221:
 4731 22c4 0A000000 		.word	AccEventCharHandle
 4732 22c8 00000000 		.word	TargetBoardFeatures
 4733 22cc 00000000 		.word	HWAdvanceFeaturesStatus
 4734 22d0 22000000 		.word	StdErrCharHandle
 4735 22d4 20000000 		.word	TermCharHandle
 4736 22d8 14000000 		.word	ActivityRecCharHandle
 4737 22dc 00000000 		.word	ActivityCode
 4738 22e0 16000000 		.word	CarryPosRecCharHandle
 4739 22e4 00000000 		.word	CarryPositionCode
 4740 22e8 18000000 		.word	GestureRecCharHandle
 4741 22ec 00000000 		.word	GestureRecognitionCode
 4742 22f0 0E000000 		.word	GGCharHandle
 4743 22f4 58000000 		.word	connection_handle
 4744              		.cfi_endproc
 4745              	.LFE291:
 4746              		.size	Read_Request_CB, .-Read_Request_CB
 4747              		.section	.rodata
 4748 01b6 0000     		.align	2
 4749              	.LC14:
 4750 01b8 204F4E0D 		.ascii	" ON\015\012\000"
 4750      0A00
 4751 01be 0000     		.align	2
 4752              	.LC15:
 4753 01c0 204F4646 		.ascii	" OFF\015\012\012\000"
 4753      0D0A0A00 
 4754              		.align	2
 4755              	.LC16:
 4756 01c8 2D2D2D3E 		.ascii	"--->Quater=%s\000"
 4756      51756174 
 4756      65723D25 
 4756      7300
 4757 01d6 0000     		.align	2
 4758              	.LC17:
 4759 01d8 2D2D2D3E 		.ascii	"--->ECompass=%s\000"
 4759      45436F6D 
ARM GAS  /tmp/ccNtBBEs.s 			page 86


 4759      70617373 
 4759      3D257300 
 4760              		.align	2
 4761              	.LC18:
 4762 01e8 204F4646 		.ascii	" OFF\015\012\000"
 4762      0D0A00
 4763 01ef 00       		.align	2
 4764              	.LC19:
 4765 01f0 2D2D2D3E 		.ascii	"--->BV_ADPCM=%s\000"
 4765      42565F41 
 4765      4450434D 
 4765      3D257300 
 4766              		.align	2
 4767              	.LC20:
 4768 0200 2D2D2D3E 		.ascii	"--->BV_ADPCM_Sync=%s\000"
 4768      42565F41 
 4768      4450434D 
 4768      5F53796E 
 4768      633D2573 
 4769 0215 000000   		.align	2
 4770              	.LC21:
 4771 0218 2D2D2D3E 		.ascii	"--->ActRec=%s\000"
 4771      41637452 
 4771      65633D25 
 4771      7300
 4772 0226 0000     		.align	2
 4773              	.LC22:
 4774 0228 2D2D2D3E 		.ascii	"--->CarryPosRec=%s\000"
 4774      43617272 
 4774      79506F73 
 4774      5265633D 
 4774      257300
 4775 023b 00       		.align	2
 4776              	.LC23:
 4777 023c 2D2D2D3E 		.ascii	"--->GestureRec=%s\000"
 4777      47657374 
 4777      75726552 
 4777      65633D25 
 4777      7300
 4778 024e 0000     		.align	2
 4779              	.LC24:
 4780 0250 2D2D2D47 		.ascii	"---GG=%s\000"
 4780      473D2573 
 4780      00
 4781 0259 000000   		.align	2
 4782              	.LC25:
 4783 025c 4F4E00   		.ascii	"ON\000"
 4784 025f 00       		.align	2
 4785              	.LC26:
 4786 0260 4F464600 		.ascii	"OFF\000"
 4787              		.align	2
 4788              	.LC27:
 4789 0264 2D2D2D3E 		.ascii	"--->Calib=%s\015\012\012\000"
 4789      43616C69 
 4789      623D2573 
 4789      0D0A0A00 
 4790              		.align	2
ARM GAS  /tmp/ccNtBBEs.s 			page 87


 4791              	.LC28:
 4792 0274 2D2D2D3E 		.ascii	"--->Acc/Gyro/Mag=%s\000"
 4792      4163632F 
 4792      4779726F 
 4792      2F4D6167 
 4792      3D257300 
 4793              		.align	2
 4794              	.LC29:
 4795 0288 2D2D2D3E 		.ascii	"--->AccEvent=%s\000"
 4795      41636345 
 4795      76656E74 
 4795      3D257300 
 4796              		.align	2
 4797              	.LC30:
 4798 0298 2D2D2D3E 		.ascii	"--->Env=%s\000"
 4798      456E763D 
 4798      257300
 4799 02a3 00       		.align	2
 4800              	.LC31:
 4801 02a4 54686520 		.ascii	"The Board will restart in 5 seconds\015\012\000"
 4801      426F6172 
 4801      64207769 
 4801      6C6C2072 
 4801      65737461 
 4802 02ca 0000     		.align	2
 4803              	.LC32:
 4804 02cc 2D2D2D3E 		.ascii	"--->dB Noise AudioLevel=%s\000"
 4804      6442204E 
 4804      6F697365 
 4804      20417564 
 4804      696F4C65 
 4805 02e7 00       		.align	2
 4806              	.LC33:
 4807 02e8 4E6F7469 		.ascii	"Notification UNKNOW handle\015\012\000"
 4807      66696361 
 4807      74696F6E 
 4807      20554E4B 
 4807      4E4F5720 
 4808              		.text
 4809              		.align	2
 4810 22f8 AFF30080 		.p2align 4,,15
 4810      AFF30080 
 4811              		.global	Attribute_Modified_CB
 4812              		.thumb
 4813              		.thumb_func
 4814              		.type	Attribute_Modified_CB, %function
 4815              	Attribute_Modified_CB:
 4816              	.LFB292:
 4817              		.loc 1 1466 0
 4818              		.cfi_startproc
 4819              		@ args = 0, pretend = 0, frame = 48
 4820              		@ frame_needed = 0, uses_anonymous_args = 0
 4821 2300 F0B5     		push	{r4, r5, r6, r7, lr}
 4822              		.cfi_def_cfa_offset 20
 4823              		.cfi_offset 4, -20
 4824              		.cfi_offset 5, -16
 4825              		.cfi_offset 6, -12
ARM GAS  /tmp/ccNtBBEs.s 			page 88


 4826              		.cfi_offset 7, -8
 4827              		.cfi_offset 14, -4
 4828 2302 8FB0     		sub	sp, sp, #60
 4829              		.cfi_def_cfa_offset 80
 4830 2304 0291     		str	r1, [sp, #8]
 4831 2306 1346     		mov	r3, r2
 4832 2308 0246     		mov	r2, r0	@ movhi
 4833 230a ADF80E20 		strh	r2, [sp, #14]	@ movhi
 4834 230e 8DF80D30 		strb	r3, [sp, #13]
 4835              		.loc 1 1474 0
 4836 2312 BDF80E20 		ldrh	r2, [sp, #14]
 4837 2316 984B     		ldr	r3, .L314
 4838 2318 1B88     		ldrh	r3, [r3]
 4839 231a 0233     		adds	r3, r3, #2
 4840 231c 9A42     		cmp	r2, r3
 4841 231e 50D1     		bne	.L224
 4842              		.loc 1 1475 0
 4843 2320 029B     		ldr	r3, [sp, #8]
 4844 2322 1B78     		ldrb	r3, [r3]	@ zero_extendqisi2
 4845 2324 012B     		cmp	r3, #1
 4846 2326 18D1     		bne	.L225
 4847              		.loc 1 1476 0
 4848 2328 944B     		ldr	r3, .L314+4
 4849 232a 1B68     		ldr	r3, [r3]
 4850 232c 43F01002 		orr	r2, r3, #16
 4851 2330 924B     		ldr	r3, .L314+4
 4852 2332 1A60     		str	r2, [r3]
 4853              		.loc 1 1479 0
 4854 2334 9248     		ldr	r0, .L314+8
 4855 2336 0021     		movs	r1, #0
 4856 2338 FFF7FEFF 		bl	HAL_TIM_OC_Start_IT
 4857 233c 0346     		mov	r3, r0
 4858 233e 002B     		cmp	r3, #0
 4859 2340 01D0     		beq	.L226
 4860              		.loc 1 1481 0
 4861 2342 FFF7FEFF 		bl	Error_Handler
 4862              	.L226:
 4863              	.LBB6:
 4864              		.loc 1 1485 0
 4865 2346 8E4B     		ldr	r3, .L314+8
 4866 2348 1B68     		ldr	r3, [r3]
 4867 234a 5B6A     		ldr	r3, [r3, #36]
 4868 234c 0B93     		str	r3, [sp, #44]
 4869              		.loc 1 1487 0
 4870 234e 8C4B     		ldr	r3, .L314+8
 4871 2350 1B68     		ldr	r3, [r3]
 4872 2352 0B9A     		ldr	r2, [sp, #44]
 4873 2354 6432     		adds	r2, r2, #100
 4874 2356 5A63     		str	r2, [r3, #52]
 4875              	.LBE6:
 4876 2358 12E0     		b	.L227
 4877              	.L225:
 4878              		.loc 1 1489 0
 4879 235a 029B     		ldr	r3, [sp, #8]
 4880 235c 1B78     		ldrb	r3, [r3]	@ zero_extendqisi2
 4881 235e 002B     		cmp	r3, #0
 4882 2360 0ED1     		bne	.L227
ARM GAS  /tmp/ccNtBBEs.s 			page 89


 4883              		.loc 1 1490 0
 4884 2362 864B     		ldr	r3, .L314+4
 4885 2364 1B68     		ldr	r3, [r3]
 4886 2366 23F01002 		bic	r2, r3, #16
 4887 236a 844B     		ldr	r3, .L314+4
 4888 236c 1A60     		str	r2, [r3]
 4889              		.loc 1 1493 0
 4890 236e 8448     		ldr	r0, .L314+8
 4891 2370 0021     		movs	r1, #0
 4892 2372 FFF7FEFF 		bl	HAL_TIM_OC_Stop_IT
 4893 2376 0346     		mov	r3, r0
 4894 2378 002B     		cmp	r3, #0
 4895 237a 01D0     		beq	.L227
 4896              		.loc 1 1495 0
 4897 237c FFF7FEFF 		bl	Error_Handler
 4898              	.L227:
 4899              		.loc 1 1499 0
 4900 2380 7E4B     		ldr	r3, .L314+4
 4901 2382 1B68     		ldr	r3, [r3]
 4902 2384 03F48063 		and	r3, r3, #1024
 4903 2388 002B     		cmp	r3, #0
 4904 238a 00F02A85 		beq	.L223
 4905              		.loc 1 1500 0
 4906 238e 7B4B     		ldr	r3, .L314+4
 4907 2390 1B68     		ldr	r3, [r3]
 4908 2392 03F01003 		and	r3, r3, #16
 4909 2396 002B     		cmp	r3, #0
 4910 2398 01D0     		beq	.L229
 4911              		.loc 1 1500 0 is_stmt 0 discriminator 1
 4912 239a 7A4B     		ldr	r3, .L314+12
 4913 239c 00E0     		b	.L230
 4914              	.L229:
 4915              		.loc 1 1500 0 discriminator 2
 4916 239e 7A4B     		ldr	r3, .L314+16
 4917              	.L230:
 4918              		.loc 1 1500 0 discriminator 1
 4919 23a0 7A48     		ldr	r0, .L314+20
 4920 23a2 7B49     		ldr	r1, .L314+24
 4921 23a4 1A46     		mov	r2, r3
 4922 23a6 FFF7FEFF 		bl	sprintf
 4923 23aa 0246     		mov	r2, r0
 4924 23ac 794B     		ldr	r3, .L314+28
 4925 23ae 1A60     		str	r2, [r3]
 4926              		.loc 1 1501 0 is_stmt 1 discriminator 1
 4927 23b0 784B     		ldr	r3, .L314+28
 4928 23b2 1B68     		ldr	r3, [r3]
 4929 23b4 DBB2     		uxtb	r3, r3
 4930 23b6 7548     		ldr	r0, .L314+20
 4931 23b8 1946     		mov	r1, r3
 4932 23ba FFF7FEFF 		bl	Term_Update
 4933 23be 00F010BD 		b	.L223
 4934              	.L224:
 4935              		.loc 1 1506 0
 4936 23c2 BDF80E20 		ldrh	r2, [sp, #14]
 4937 23c6 744B     		ldr	r3, .L314+32
 4938 23c8 1B88     		ldrh	r3, [r3]
 4939 23ca 0233     		adds	r3, r3, #2
ARM GAS  /tmp/ccNtBBEs.s 			page 90


 4940 23cc 9A42     		cmp	r2, r3
 4941 23ce 50D1     		bne	.L231
 4942              		.loc 1 1507 0
 4943 23d0 029B     		ldr	r3, [sp, #8]
 4944 23d2 1B78     		ldrb	r3, [r3]	@ zero_extendqisi2
 4945 23d4 012B     		cmp	r3, #1
 4946 23d6 18D1     		bne	.L232
 4947              		.loc 1 1508 0
 4948 23d8 684B     		ldr	r3, .L314+4
 4949 23da 1B68     		ldr	r3, [r3]
 4950 23dc 43F02002 		orr	r2, r3, #32
 4951 23e0 664B     		ldr	r3, .L314+4
 4952 23e2 1A60     		str	r2, [r3]
 4953              		.loc 1 1511 0
 4954 23e4 6648     		ldr	r0, .L314+8
 4955 23e6 0021     		movs	r1, #0
 4956 23e8 FFF7FEFF 		bl	HAL_TIM_OC_Start_IT
 4957 23ec 0346     		mov	r3, r0
 4958 23ee 002B     		cmp	r3, #0
 4959 23f0 01D0     		beq	.L233
 4960              		.loc 1 1513 0
 4961 23f2 FFF7FEFF 		bl	Error_Handler
 4962              	.L233:
 4963              	.LBB7:
 4964              		.loc 1 1517 0
 4965 23f6 624B     		ldr	r3, .L314+8
 4966 23f8 1B68     		ldr	r3, [r3]
 4967 23fa 5B6A     		ldr	r3, [r3, #36]
 4968 23fc 0A93     		str	r3, [sp, #40]
 4969              		.loc 1 1519 0
 4970 23fe 604B     		ldr	r3, .L314+8
 4971 2400 1B68     		ldr	r3, [r3]
 4972 2402 0A9A     		ldr	r2, [sp, #40]
 4973 2404 6432     		adds	r2, r2, #100
 4974 2406 5A63     		str	r2, [r3, #52]
 4975              	.LBE7:
 4976 2408 12E0     		b	.L234
 4977              	.L232:
 4978              		.loc 1 1521 0
 4979 240a 029B     		ldr	r3, [sp, #8]
 4980 240c 1B78     		ldrb	r3, [r3]	@ zero_extendqisi2
 4981 240e 002B     		cmp	r3, #0
 4982 2410 0ED1     		bne	.L234
 4983              		.loc 1 1522 0
 4984 2412 5A4B     		ldr	r3, .L314+4
 4985 2414 1B68     		ldr	r3, [r3]
 4986 2416 23F02002 		bic	r2, r3, #32
 4987 241a 584B     		ldr	r3, .L314+4
 4988 241c 1A60     		str	r2, [r3]
 4989              		.loc 1 1525 0
 4990 241e 5848     		ldr	r0, .L314+8
 4991 2420 0021     		movs	r1, #0
 4992 2422 FFF7FEFF 		bl	HAL_TIM_OC_Stop_IT
 4993 2426 0346     		mov	r3, r0
 4994 2428 002B     		cmp	r3, #0
 4995 242a 01D0     		beq	.L234
 4996              		.loc 1 1527 0
ARM GAS  /tmp/ccNtBBEs.s 			page 91


 4997 242c FFF7FEFF 		bl	Error_Handler
 4998              	.L234:
 4999              		.loc 1 1531 0
 5000 2430 524B     		ldr	r3, .L314+4
 5001 2432 1B68     		ldr	r3, [r3]
 5002 2434 03F48063 		and	r3, r3, #1024
 5003 2438 002B     		cmp	r3, #0
 5004 243a 00F0D284 		beq	.L223
 5005              		.loc 1 1532 0
 5006 243e 4F4B     		ldr	r3, .L314+4
 5007 2440 1B68     		ldr	r3, [r3]
 5008 2442 03F02003 		and	r3, r3, #32
 5009 2446 002B     		cmp	r3, #0
 5010 2448 01D0     		beq	.L235
 5011              		.loc 1 1532 0 is_stmt 0 discriminator 1
 5012 244a 4E4B     		ldr	r3, .L314+12
 5013 244c 00E0     		b	.L236
 5014              	.L235:
 5015              		.loc 1 1532 0 discriminator 2
 5016 244e 4E4B     		ldr	r3, .L314+16
 5017              	.L236:
 5018              		.loc 1 1532 0 discriminator 3
 5019 2450 4E48     		ldr	r0, .L314+20
 5020 2452 5249     		ldr	r1, .L314+36
 5021 2454 1A46     		mov	r2, r3
 5022 2456 FFF7FEFF 		bl	sprintf
 5023 245a 0246     		mov	r2, r0
 5024 245c 4D4B     		ldr	r3, .L314+28
 5025 245e 1A60     		str	r2, [r3]
 5026              		.loc 1 1533 0 is_stmt 1 discriminator 3
 5027 2460 4C4B     		ldr	r3, .L314+28
 5028 2462 1B68     		ldr	r3, [r3]
 5029 2464 DBB2     		uxtb	r3, r3
 5030 2466 4948     		ldr	r0, .L314+20
 5031 2468 1946     		mov	r1, r3
 5032 246a FFF7FEFF 		bl	Term_Update
 5033 246e 00F0B8BC 		b	.L223
 5034              	.L231:
 5035              		.loc 1 1539 0
 5036 2472 BDF80E20 		ldrh	r2, [sp, #14]
 5037 2476 4A4B     		ldr	r3, .L314+40
 5038 2478 5B88     		ldrh	r3, [r3, #2]
 5039 247a 0233     		adds	r3, r3, #2
 5040 247c 9A42     		cmp	r2, r3
 5041 247e 3ED1     		bne	.L237
 5042              		.loc 1 1540 0
 5043 2480 029B     		ldr	r3, [sp, #8]
 5044 2482 1B78     		ldrb	r3, [r3]	@ zero_extendqisi2
 5045 2484 012B     		cmp	r3, #1
 5046 2486 0BD1     		bne	.L238
 5047              		.loc 1 1542 0
 5048 2488 4FF4FA50 		mov	r0, #8000
 5049 248c 4021     		movs	r1, #64
 5050 248e FFF7FEFF 		bl	InitMics
 5051              		.loc 1 1544 0
 5052 2492 3A4B     		ldr	r3, .L314+4
 5053 2494 1B68     		ldr	r3, [r3]
ARM GAS  /tmp/ccNtBBEs.s 			page 92


 5054 2496 43F40052 		orr	r2, r3, #8192
 5055 249a 384B     		ldr	r3, .L314+4
 5056 249c 1A60     		str	r2, [r3]
 5057 249e 0DE0     		b	.L239
 5058              	.L238:
 5059              		.loc 1 1545 0
 5060 24a0 029B     		ldr	r3, [sp, #8]
 5061 24a2 1B78     		ldrb	r3, [r3]	@ zero_extendqisi2
 5062 24a4 002B     		cmp	r3, #0
 5063 24a6 09D1     		bne	.L239
 5064              		.loc 1 1546 0
 5065 24a8 FFF7FEFF 		bl	LedOffTargetPlatform
 5066              		.loc 1 1548 0
 5067 24ac FFF7FEFF 		bl	DeInitMics
 5068              		.loc 1 1550 0
 5069 24b0 324B     		ldr	r3, .L314+4
 5070 24b2 1B68     		ldr	r3, [r3]
 5071 24b4 23F40052 		bic	r2, r3, #8192
 5072 24b8 304B     		ldr	r3, .L314+4
 5073 24ba 1A60     		str	r2, [r3]
 5074              	.L239:
 5075              		.loc 1 1553 0
 5076 24bc 2F4B     		ldr	r3, .L314+4
 5077 24be 1B68     		ldr	r3, [r3]
 5078 24c0 03F48063 		and	r3, r3, #1024
 5079 24c4 002B     		cmp	r3, #0
 5080 24c6 00F08C84 		beq	.L223
 5081              		.loc 1 1554 0
 5082 24ca 2C4B     		ldr	r3, .L314+4
 5083 24cc 1B68     		ldr	r3, [r3]
 5084 24ce 03F40053 		and	r3, r3, #8192
 5085 24d2 002B     		cmp	r3, #0
 5086 24d4 01D0     		beq	.L240
 5087              		.loc 1 1554 0 is_stmt 0 discriminator 1
 5088 24d6 2B4B     		ldr	r3, .L314+12
 5089 24d8 00E0     		b	.L241
 5090              	.L240:
 5091              		.loc 1 1554 0 discriminator 2
 5092 24da 324B     		ldr	r3, .L314+44
 5093              	.L241:
 5094              		.loc 1 1554 0 discriminator 5
 5095 24dc 2B48     		ldr	r0, .L314+20
 5096 24de 3249     		ldr	r1, .L314+48
 5097 24e0 1A46     		mov	r2, r3
 5098 24e2 FFF7FEFF 		bl	sprintf
 5099 24e6 0246     		mov	r2, r0
 5100 24e8 2A4B     		ldr	r3, .L314+28
 5101 24ea 1A60     		str	r2, [r3]
 5102              		.loc 1 1555 0 is_stmt 1 discriminator 5
 5103 24ec 294B     		ldr	r3, .L314+28
 5104 24ee 1B68     		ldr	r3, [r3]
 5105 24f0 DBB2     		uxtb	r3, r3
 5106 24f2 2648     		ldr	r0, .L314+20
 5107 24f4 1946     		mov	r1, r3
 5108 24f6 FFF7FEFF 		bl	Term_Update
 5109 24fa 00F072BC 		b	.L223
 5110              	.L237:
ARM GAS  /tmp/ccNtBBEs.s 			page 93


 5111              		.loc 1 1559 0
 5112 24fe BDF80E20 		ldrh	r2, [sp, #14]
 5113 2502 274B     		ldr	r3, .L314+40
 5114 2504 9B88     		ldrh	r3, [r3, #4]
 5115 2506 0233     		adds	r3, r3, #2
 5116 2508 9A42     		cmp	r2, r3
 5117 250a 51D1     		bne	.L242
 5118              		.loc 1 1560 0
 5119 250c 029B     		ldr	r3, [sp, #8]
 5120 250e 1B78     		ldrb	r3, [r3]	@ zero_extendqisi2
 5121 2510 012B     		cmp	r3, #1
 5122 2512 06D1     		bne	.L243
 5123              		.loc 1 1561 0
 5124 2514 194B     		ldr	r3, .L314+4
 5125 2516 1B68     		ldr	r3, [r3]
 5126 2518 43F48042 		orr	r2, r3, #16384
 5127 251c 174B     		ldr	r3, .L314+4
 5128 251e 1A60     		str	r2, [r3]
 5129 2520 09E0     		b	.L244
 5130              	.L243:
 5131              		.loc 1 1562 0
 5132 2522 029B     		ldr	r3, [sp, #8]
 5133 2524 1B78     		ldrb	r3, [r3]	@ zero_extendqisi2
 5134 2526 002B     		cmp	r3, #0
 5135 2528 05D1     		bne	.L244
 5136              		.loc 1 1563 0
 5137 252a 144B     		ldr	r3, .L314+4
 5138 252c 1B68     		ldr	r3, [r3]
 5139 252e 23F48042 		bic	r2, r3, #16384
 5140 2532 124B     		ldr	r3, .L314+4
 5141 2534 1A60     		str	r2, [r3]
 5142              	.L244:
 5143              		.loc 1 1566 0
 5144 2536 114B     		ldr	r3, .L314+4
 5145 2538 1B68     		ldr	r3, [r3]
 5146 253a 03F48063 		and	r3, r3, #1024
 5147 253e 002B     		cmp	r3, #0
 5148 2540 00F04F84 		beq	.L223
 5149              		.loc 1 1567 0
 5150 2544 0D4B     		ldr	r3, .L314+4
 5151 2546 1B68     		ldr	r3, [r3]
 5152 2548 03F48043 		and	r3, r3, #16384
 5153 254c 002B     		cmp	r3, #0
 5154 254e 01D0     		beq	.L245
 5155              		.loc 1 1567 0 is_stmt 0 discriminator 1
 5156 2550 0C4B     		ldr	r3, .L314+12
 5157 2552 00E0     		b	.L246
 5158              	.L245:
 5159              		.loc 1 1567 0 discriminator 2
 5160 2554 0C4B     		ldr	r3, .L314+16
 5161              	.L246:
 5162              		.loc 1 1567 0 discriminator 7
 5163 2556 0D48     		ldr	r0, .L314+20
 5164 2558 1449     		ldr	r1, .L314+52
 5165 255a 1A46     		mov	r2, r3
 5166 255c FFF7FEFF 		bl	sprintf
 5167 2560 0246     		mov	r2, r0
ARM GAS  /tmp/ccNtBBEs.s 			page 94


 5168 2562 0C4B     		ldr	r3, .L314+28
 5169 2564 1A60     		str	r2, [r3]
 5170              		.loc 1 1568 0 is_stmt 1 discriminator 7
 5171 2566 0B4B     		ldr	r3, .L314+28
 5172 2568 1B68     		ldr	r3, [r3]
 5173 256a DBB2     		uxtb	r3, r3
 5174 256c 0748     		ldr	r0, .L314+20
 5175 256e 1946     		mov	r1, r3
 5176 2570 FFF7FEFF 		bl	Term_Update
 5177 2574 00F035BC 		b	.L223
 5178              	.L315:
 5179              		.align	2
 5180              	.L314:
 5181 2578 10000000 		.word	QuaternionsCharHandle
 5182 257c 00000000 		.word	ConnectionBleStatus
 5183 2580 00000000 		.word	TimCCHandle
 5184 2584 B8010000 		.word	.LC14
 5185 2588 C0010000 		.word	.LC15
 5186 258c 00000000 		.word	BufferToWrite
 5187 2590 C8010000 		.word	.LC16
 5188 2594 00000000 		.word	BytesToWrite
 5189 2598 12000000 		.word	ECompassCharHandle
 5190 259c D8010000 		.word	.LC17
 5191 25a0 00000000 		.word	BLUEVOICE_tx_handle
 5192 25a4 E8010000 		.word	.LC18
 5193 25a8 F0010000 		.word	.LC19
 5194 25ac 00020000 		.word	.LC20
 5195              	.L242:
 5196              		.loc 1 1575 0
 5197 25b0 BDF80E20 		ldrh	r2, [sp, #14]
 5198 25b4 944B     		ldr	r3, .L316
 5199 25b6 1B88     		ldrh	r3, [r3]
 5200 25b8 0233     		adds	r3, r3, #2
 5201 25ba 9A42     		cmp	r2, r3
 5202 25bc 54D1     		bne	.L247
 5203              		.loc 1 1576 0
 5204 25be 029B     		ldr	r3, [sp, #8]
 5205 25c0 1B78     		ldrb	r3, [r3]	@ zero_extendqisi2
 5206 25c2 012B     		cmp	r3, #1
 5207 25c4 1BD1     		bne	.L248
 5208              		.loc 1 1578 0
 5209 25c6 FFF7FEFF 		bl	Set4GAccelerometerFullScale
 5210              		.loc 1 1580 0
 5211 25ca 904B     		ldr	r3, .L316+4
 5212 25cc 1B68     		ldr	r3, [r3]
 5213 25ce 43F04002 		orr	r2, r3, #64
 5214 25d2 8E4B     		ldr	r3, .L316+4
 5215 25d4 1A60     		str	r2, [r3]
 5216              		.loc 1 1583 0
 5217 25d6 8E48     		ldr	r0, .L316+8
 5218 25d8 0821     		movs	r1, #8
 5219 25da FFF7FEFF 		bl	HAL_TIM_OC_Start_IT
 5220 25de 0346     		mov	r3, r0
 5221 25e0 002B     		cmp	r3, #0
 5222 25e2 01D0     		beq	.L249
 5223              		.loc 1 1585 0
 5224 25e4 FFF7FEFF 		bl	Error_Handler
ARM GAS  /tmp/ccNtBBEs.s 			page 95


 5225              	.L249:
 5226              	.LBB8:
 5227              		.loc 1 1589 0
 5228 25e8 894B     		ldr	r3, .L316+8
 5229 25ea 1B68     		ldr	r3, [r3]
 5230 25ec 5B6A     		ldr	r3, [r3, #36]
 5231 25ee 0993     		str	r3, [sp, #36]
 5232              		.loc 1 1591 0
 5233 25f0 874B     		ldr	r3, .L316+8
 5234 25f2 1B68     		ldr	r3, [r3]
 5235 25f4 099A     		ldr	r2, [sp, #36]
 5236 25f6 02F27122 		addw	r2, r2, #625
 5237 25fa DA63     		str	r2, [r3, #60]
 5238              	.LBE8:
 5239 25fc 14E0     		b	.L250
 5240              	.L248:
 5241              		.loc 1 1593 0
 5242 25fe 029B     		ldr	r3, [sp, #8]
 5243 2600 1B78     		ldrb	r3, [r3]	@ zero_extendqisi2
 5244 2602 002B     		cmp	r3, #0
 5245 2604 10D1     		bne	.L250
 5246              		.loc 1 1595 0
 5247 2606 FFF7FEFF 		bl	Set2GAccelerometerFullScale
 5248              		.loc 1 1597 0
 5249 260a 804B     		ldr	r3, .L316+4
 5250 260c 1B68     		ldr	r3, [r3]
 5251 260e 23F04002 		bic	r2, r3, #64
 5252 2612 7E4B     		ldr	r3, .L316+4
 5253 2614 1A60     		str	r2, [r3]
 5254              		.loc 1 1600 0
 5255 2616 7E48     		ldr	r0, .L316+8
 5256 2618 0821     		movs	r1, #8
 5257 261a FFF7FEFF 		bl	HAL_TIM_OC_Stop_IT
 5258 261e 0346     		mov	r3, r0
 5259 2620 002B     		cmp	r3, #0
 5260 2622 01D0     		beq	.L250
 5261              		.loc 1 1602 0
 5262 2624 FFF7FEFF 		bl	Error_Handler
 5263              	.L250:
 5264              		.loc 1 1606 0
 5265 2628 784B     		ldr	r3, .L316+4
 5266 262a 1B68     		ldr	r3, [r3]
 5267 262c 03F48063 		and	r3, r3, #1024
 5268 2630 002B     		cmp	r3, #0
 5269 2632 00F0D683 		beq	.L223
 5270              		.loc 1 1607 0
 5271 2636 754B     		ldr	r3, .L316+4
 5272 2638 1B68     		ldr	r3, [r3]
 5273 263a 03F04003 		and	r3, r3, #64
 5274 263e 002B     		cmp	r3, #0
 5275 2640 01D0     		beq	.L251
 5276              		.loc 1 1607 0 is_stmt 0 discriminator 1
 5277 2642 744B     		ldr	r3, .L316+12
 5278 2644 00E0     		b	.L252
 5279              	.L251:
 5280              		.loc 1 1607 0 discriminator 2
 5281 2646 744B     		ldr	r3, .L316+16
ARM GAS  /tmp/ccNtBBEs.s 			page 96


 5282              	.L252:
 5283              		.loc 1 1607 0 discriminator 9
 5284 2648 7448     		ldr	r0, .L316+20
 5285 264a 7549     		ldr	r1, .L316+24
 5286 264c 1A46     		mov	r2, r3
 5287 264e FFF7FEFF 		bl	sprintf
 5288 2652 0246     		mov	r2, r0
 5289 2654 734B     		ldr	r3, .L316+28
 5290 2656 1A60     		str	r2, [r3]
 5291              		.loc 1 1608 0 is_stmt 1 discriminator 9
 5292 2658 724B     		ldr	r3, .L316+28
 5293 265a 1B68     		ldr	r3, [r3]
 5294 265c DBB2     		uxtb	r3, r3
 5295 265e 6F48     		ldr	r0, .L316+20
 5296 2660 1946     		mov	r1, r3
 5297 2662 FFF7FEFF 		bl	Term_Update
 5298 2666 BCE3     		b	.L223
 5299              	.L247:
 5300              		.loc 1 1615 0
 5301 2668 BDF80E20 		ldrh	r2, [sp, #14]
 5302 266c 6E4B     		ldr	r3, .L316+32
 5303 266e 1B88     		ldrh	r3, [r3]
 5304 2670 0233     		adds	r3, r3, #2
 5305 2672 9A42     		cmp	r2, r3
 5306 2674 53D1     		bne	.L253
 5307              		.loc 1 1616 0
 5308 2676 029B     		ldr	r3, [sp, #8]
 5309 2678 1B78     		ldrb	r3, [r3]	@ zero_extendqisi2
 5310 267a 012B     		cmp	r3, #1
 5311 267c 1AD1     		bne	.L254
 5312              		.loc 1 1618 0
 5313 267e FFF7FEFF 		bl	Set4GAccelerometerFullScale
 5314              		.loc 1 1620 0
 5315 2682 624B     		ldr	r3, .L316+4
 5316 2684 1B68     		ldr	r3, [r3]
 5317 2686 43F08002 		orr	r2, r3, #128
 5318 268a 604B     		ldr	r3, .L316+4
 5319 268c 1A60     		str	r2, [r3]
 5320              		.loc 1 1623 0
 5321 268e 6048     		ldr	r0, .L316+8
 5322 2690 0421     		movs	r1, #4
 5323 2692 FFF7FEFF 		bl	HAL_TIM_OC_Start_IT
 5324 2696 0346     		mov	r3, r0
 5325 2698 002B     		cmp	r3, #0
 5326 269a 01D0     		beq	.L255
 5327              		.loc 1 1625 0
 5328 269c FFF7FEFF 		bl	Error_Handler
 5329              	.L255:
 5330              	.LBB9:
 5331              		.loc 1 1629 0
 5332 26a0 5B4B     		ldr	r3, .L316+8
 5333 26a2 1B68     		ldr	r3, [r3]
 5334 26a4 5B6A     		ldr	r3, [r3, #36]
 5335 26a6 0893     		str	r3, [sp, #32]
 5336              		.loc 1 1631 0
 5337 26a8 594B     		ldr	r3, .L316+8
 5338 26aa 1B68     		ldr	r3, [r3]
ARM GAS  /tmp/ccNtBBEs.s 			page 97


 5339 26ac 089A     		ldr	r2, [sp, #32]
 5340 26ae C832     		adds	r2, r2, #200
 5341 26b0 9A63     		str	r2, [r3, #56]
 5342              	.LBE9:
 5343 26b2 14E0     		b	.L256
 5344              	.L254:
 5345              		.loc 1 1633 0
 5346 26b4 029B     		ldr	r3, [sp, #8]
 5347 26b6 1B78     		ldrb	r3, [r3]	@ zero_extendqisi2
 5348 26b8 002B     		cmp	r3, #0
 5349 26ba 10D1     		bne	.L256
 5350              		.loc 1 1635 0
 5351 26bc FFF7FEFF 		bl	Set2GAccelerometerFullScale
 5352              		.loc 1 1637 0
 5353 26c0 524B     		ldr	r3, .L316+4
 5354 26c2 1B68     		ldr	r3, [r3]
 5355 26c4 23F08002 		bic	r2, r3, #128
 5356 26c8 504B     		ldr	r3, .L316+4
 5357 26ca 1A60     		str	r2, [r3]
 5358              		.loc 1 1640 0
 5359 26cc 5048     		ldr	r0, .L316+8
 5360 26ce 0421     		movs	r1, #4
 5361 26d0 FFF7FEFF 		bl	HAL_TIM_OC_Stop_IT
 5362 26d4 0346     		mov	r3, r0
 5363 26d6 002B     		cmp	r3, #0
 5364 26d8 01D0     		beq	.L256
 5365              		.loc 1 1642 0
 5366 26da FFF7FEFF 		bl	Error_Handler
 5367              	.L256:
 5368              		.loc 1 1646 0
 5369 26de 4B4B     		ldr	r3, .L316+4
 5370 26e0 1B68     		ldr	r3, [r3]
 5371 26e2 03F48063 		and	r3, r3, #1024
 5372 26e6 002B     		cmp	r3, #0
 5373 26e8 00F07B83 		beq	.L223
 5374              		.loc 1 1647 0
 5375 26ec 474B     		ldr	r3, .L316+4
 5376 26ee 1B68     		ldr	r3, [r3]
 5377 26f0 03F08003 		and	r3, r3, #128
 5378 26f4 002B     		cmp	r3, #0
 5379 26f6 01D0     		beq	.L257
 5380              		.loc 1 1647 0 is_stmt 0 discriminator 1
 5381 26f8 464B     		ldr	r3, .L316+12
 5382 26fa 00E0     		b	.L258
 5383              	.L257:
 5384              		.loc 1 1647 0 discriminator 2
 5385 26fc 464B     		ldr	r3, .L316+16
 5386              	.L258:
 5387              		.loc 1 1647 0 discriminator 11
 5388 26fe 4748     		ldr	r0, .L316+20
 5389 2700 4A49     		ldr	r1, .L316+36
 5390 2702 1A46     		mov	r2, r3
 5391 2704 FFF7FEFF 		bl	sprintf
 5392 2708 0246     		mov	r2, r0
 5393 270a 464B     		ldr	r3, .L316+28
 5394 270c 1A60     		str	r2, [r3]
 5395              		.loc 1 1648 0 is_stmt 1 discriminator 11
ARM GAS  /tmp/ccNtBBEs.s 			page 98


 5396 270e 454B     		ldr	r3, .L316+28
 5397 2710 1B68     		ldr	r3, [r3]
 5398 2712 DBB2     		uxtb	r3, r3
 5399 2714 4148     		ldr	r0, .L316+20
 5400 2716 1946     		mov	r1, r3
 5401 2718 FFF7FEFF 		bl	Term_Update
 5402 271c 61E3     		b	.L223
 5403              	.L253:
 5404              		.loc 1 1655 0
 5405 271e BDF80E20 		ldrh	r2, [sp, #14]
 5406 2722 434B     		ldr	r3, .L316+40
 5407 2724 1B88     		ldrh	r3, [r3]
 5408 2726 0233     		adds	r3, r3, #2
 5409 2728 9A42     		cmp	r2, r3
 5410 272a 53D1     		bne	.L259
 5411              		.loc 1 1656 0
 5412 272c 029B     		ldr	r3, [sp, #8]
 5413 272e 1B78     		ldrb	r3, [r3]	@ zero_extendqisi2
 5414 2730 012B     		cmp	r3, #1
 5415 2732 1AD1     		bne	.L260
 5416              		.loc 1 1658 0
 5417 2734 FFF7FEFF 		bl	Set4GAccelerometerFullScale
 5418              		.loc 1 1660 0
 5419 2738 344B     		ldr	r3, .L316+4
 5420 273a 1B68     		ldr	r3, [r3]
 5421 273c 43F48072 		orr	r2, r3, #256
 5422 2740 324B     		ldr	r3, .L316+4
 5423 2742 1A60     		str	r2, [r3]
 5424              		.loc 1 1663 0
 5425 2744 3248     		ldr	r0, .L316+8
 5426 2746 0021     		movs	r1, #0
 5427 2748 FFF7FEFF 		bl	HAL_TIM_OC_Start_IT
 5428 274c 0346     		mov	r3, r0
 5429 274e 002B     		cmp	r3, #0
 5430 2750 01D0     		beq	.L261
 5431              		.loc 1 1665 0
 5432 2752 FFF7FEFF 		bl	Error_Handler
 5433              	.L261:
 5434              	.LBB10:
 5435              		.loc 1 1669 0
 5436 2756 2E4B     		ldr	r3, .L316+8
 5437 2758 1B68     		ldr	r3, [r3]
 5438 275a 5B6A     		ldr	r3, [r3, #36]
 5439 275c 0793     		str	r3, [sp, #28]
 5440              		.loc 1 1671 0
 5441 275e 2C4B     		ldr	r3, .L316+8
 5442 2760 1B68     		ldr	r3, [r3]
 5443 2762 079A     		ldr	r2, [sp, #28]
 5444 2764 6432     		adds	r2, r2, #100
 5445 2766 5A63     		str	r2, [r3, #52]
 5446              	.LBE10:
 5447 2768 14E0     		b	.L262
 5448              	.L260:
 5449              		.loc 1 1673 0
 5450 276a 029B     		ldr	r3, [sp, #8]
 5451 276c 1B78     		ldrb	r3, [r3]	@ zero_extendqisi2
 5452 276e 002B     		cmp	r3, #0
ARM GAS  /tmp/ccNtBBEs.s 			page 99


 5453 2770 10D1     		bne	.L262
 5454              		.loc 1 1675 0
 5455 2772 FFF7FEFF 		bl	Set2GAccelerometerFullScale
 5456              		.loc 1 1677 0
 5457 2776 254B     		ldr	r3, .L316+4
 5458 2778 1B68     		ldr	r3, [r3]
 5459 277a 23F48072 		bic	r2, r3, #256
 5460 277e 234B     		ldr	r3, .L316+4
 5461 2780 1A60     		str	r2, [r3]
 5462              		.loc 1 1680 0
 5463 2782 2348     		ldr	r0, .L316+8
 5464 2784 0021     		movs	r1, #0
 5465 2786 FFF7FEFF 		bl	HAL_TIM_OC_Stop_IT
 5466 278a 0346     		mov	r3, r0
 5467 278c 002B     		cmp	r3, #0
 5468 278e 01D0     		beq	.L262
 5469              		.loc 1 1682 0
 5470 2790 FFF7FEFF 		bl	Error_Handler
 5471              	.L262:
 5472              		.loc 1 1686 0
 5473 2794 1D4B     		ldr	r3, .L316+4
 5474 2796 1B68     		ldr	r3, [r3]
 5475 2798 03F48063 		and	r3, r3, #1024
 5476 279c 002B     		cmp	r3, #0
 5477 279e 00F02083 		beq	.L223
 5478              		.loc 1 1687 0
 5479 27a2 1A4B     		ldr	r3, .L316+4
 5480 27a4 1B68     		ldr	r3, [r3]
 5481 27a6 03F48073 		and	r3, r3, #256
 5482 27aa 002B     		cmp	r3, #0
 5483 27ac 01D0     		beq	.L263
 5484              		.loc 1 1687 0 is_stmt 0 discriminator 1
 5485 27ae 194B     		ldr	r3, .L316+12
 5486 27b0 00E0     		b	.L264
 5487              	.L263:
 5488              		.loc 1 1687 0 discriminator 2
 5489 27b2 194B     		ldr	r3, .L316+16
 5490              	.L264:
 5491              		.loc 1 1687 0 discriminator 13
 5492 27b4 1948     		ldr	r0, .L316+20
 5493 27b6 1F49     		ldr	r1, .L316+44
 5494 27b8 1A46     		mov	r2, r3
 5495 27ba FFF7FEFF 		bl	sprintf
 5496 27be 0246     		mov	r2, r0
 5497 27c0 184B     		ldr	r3, .L316+28
 5498 27c2 1A60     		str	r2, [r3]
 5499              		.loc 1 1688 0 is_stmt 1 discriminator 13
 5500 27c4 174B     		ldr	r3, .L316+28
 5501 27c6 1B68     		ldr	r3, [r3]
 5502 27c8 DBB2     		uxtb	r3, r3
 5503 27ca 1448     		ldr	r0, .L316+20
 5504 27cc 1946     		mov	r1, r3
 5505 27ce FFF7FEFF 		bl	Term_Update
 5506 27d2 06E3     		b	.L223
 5507              	.L259:
 5508              		.loc 1 1732 0
 5509 27d4 BDF80E20 		ldrh	r2, [sp, #14]
ARM GAS  /tmp/ccNtBBEs.s 			page 100


 5510 27d8 174B     		ldr	r3, .L316+48
 5511 27da 1B88     		ldrh	r3, [r3]
 5512 27dc 0233     		adds	r3, r3, #2
 5513 27de 9A42     		cmp	r2, r3
 5514 27e0 60D1     		bne	.L265
 5515              		.loc 1 1733 0
 5516 27e2 029B     		ldr	r3, [sp, #8]
 5517 27e4 1B78     		ldrb	r3, [r3]	@ zero_extendqisi2
 5518 27e6 012B     		cmp	r3, #1
 5519 27e8 2AD1     		bne	.L266
 5520              		.loc 1 1734 0
 5521 27ea 084B     		ldr	r3, .L316+4
 5522 27ec 1B68     		ldr	r3, [r3]
 5523 27ee 43F40042 		orr	r2, r3, #32768
 5524 27f2 064B     		ldr	r3, .L316+4
 5525 27f4 1A60     		str	r2, [r3]
 5526              		.loc 1 1736 0
 5527 27f6 1148     		ldr	r0, .L316+52
 5528 27f8 FFF7FEFF 		bl	HAL_TIM_Base_Start_IT
 5529 27fc 0346     		mov	r3, r0
 5530 27fe 002B     		cmp	r3, #0
 5531 2800 30D0     		beq	.L268
 5532              		.loc 1 1738 0
 5533 2802 FFF7FEFF 		bl	Error_Handler
 5534 2806 2DE0     		b	.L268
 5535              	.L317:
 5536              		.align	2
 5537              	.L316:
 5538 2808 14000000 		.word	ActivityRecCharHandle
 5539 280c 00000000 		.word	ConnectionBleStatus
 5540 2810 00000000 		.word	TimCCHandle
 5541 2814 B8010000 		.word	.LC14
 5542 2818 C0010000 		.word	.LC15
 5543 281c 00000000 		.word	BufferToWrite
 5544 2820 18020000 		.word	.LC21
 5545 2824 00000000 		.word	BytesToWrite
 5546 2828 16000000 		.word	CarryPosRecCharHandle
 5547 282c 28020000 		.word	.LC22
 5548 2830 18000000 		.word	GestureRecCharHandle
 5549 2834 3C020000 		.word	.LC23
 5550 2838 0E000000 		.word	GGCharHandle
 5551 283c 00000000 		.word	TimEnvHandle
 5552              	.L266:
 5553              		.loc 1 1740 0
 5554 2840 029B     		ldr	r3, [sp, #8]
 5555 2842 1B78     		ldrb	r3, [r3]	@ zero_extendqisi2
 5556 2844 002B     		cmp	r3, #0
 5557 2846 0DD1     		bne	.L268
 5558              		.loc 1 1741 0
 5559 2848 994B     		ldr	r3, .L318
 5560 284a 1B68     		ldr	r3, [r3]
 5561 284c 23F40042 		bic	r2, r3, #32768
 5562 2850 974B     		ldr	r3, .L318
 5563 2852 1A60     		str	r2, [r3]
 5564              		.loc 1 1743 0
 5565 2854 9748     		ldr	r0, .L318+4
 5566 2856 FFF7FEFF 		bl	HAL_TIM_Base_Stop_IT
ARM GAS  /tmp/ccNtBBEs.s 			page 101


 5567 285a 0346     		mov	r3, r0
 5568 285c 002B     		cmp	r3, #0
 5569 285e 01D0     		beq	.L268
 5570              		.loc 1 1745 0
 5571 2860 FFF7FEFF 		bl	Error_Handler
 5572              	.L268:
 5573              		.loc 1 1749 0
 5574 2864 924B     		ldr	r3, .L318
 5575 2866 1B68     		ldr	r3, [r3]
 5576 2868 03F48063 		and	r3, r3, #1024
 5577 286c 002B     		cmp	r3, #0
 5578 286e 00F0B882 		beq	.L223
 5579              		.loc 1 1750 0
 5580 2872 8F4B     		ldr	r3, .L318
 5581 2874 1B68     		ldr	r3, [r3]
 5582 2876 03F40043 		and	r3, r3, #32768
 5583 287a 002B     		cmp	r3, #0
 5584 287c 01D0     		beq	.L269
 5585              		.loc 1 1750 0 is_stmt 0 discriminator 1
 5586 287e 8E4B     		ldr	r3, .L318+8
 5587 2880 00E0     		b	.L270
 5588              	.L269:
 5589              		.loc 1 1750 0 discriminator 2
 5590 2882 8E4B     		ldr	r3, .L318+12
 5591              	.L270:
 5592              		.loc 1 1750 0 discriminator 15
 5593 2884 8E48     		ldr	r0, .L318+16
 5594 2886 8F49     		ldr	r1, .L318+20
 5595 2888 1A46     		mov	r2, r3
 5596 288a FFF7FEFF 		bl	sprintf
 5597 288e 0246     		mov	r2, r0
 5598 2890 8D4B     		ldr	r3, .L318+24
 5599 2892 1A60     		str	r2, [r3]
 5600              		.loc 1 1751 0 is_stmt 1 discriminator 15
 5601 2894 8C4B     		ldr	r3, .L318+24
 5602 2896 1B68     		ldr	r3, [r3]
 5603 2898 DBB2     		uxtb	r3, r3
 5604 289a 8948     		ldr	r0, .L318+16
 5605 289c 1946     		mov	r1, r3
 5606 289e FFF7FEFF 		bl	Term_Update
 5607 28a2 9EE2     		b	.L223
 5608              	.L265:
 5609              		.loc 1 1757 0
 5610 28a4 BDF80E20 		ldrh	r2, [sp, #14]
 5611 28a8 884B     		ldr	r3, .L318+28
 5612 28aa 1B88     		ldrh	r3, [r3]
 5613 28ac 0233     		adds	r3, r3, #2
 5614 28ae 9A42     		cmp	r2, r3
 5615 28b0 2CD1     		bne	.L271
 5616              		.loc 1 1758 0
 5617 28b2 029B     		ldr	r3, [sp, #8]
 5618 28b4 1B78     		ldrb	r3, [r3]	@ zero_extendqisi2
 5619 28b6 012B     		cmp	r3, #1
 5620 28b8 03D1     		bne	.L272
 5621              		.loc 1 1759 0
 5622 28ba 854B     		ldr	r3, .L318+32
 5623 28bc 0122     		movs	r2, #1
ARM GAS  /tmp/ccNtBBEs.s 			page 102


 5624 28be 1A60     		str	r2, [r3]
 5625 28c0 06E0     		b	.L273
 5626              	.L272:
 5627              		.loc 1 1760 0
 5628 28c2 029B     		ldr	r3, [sp, #8]
 5629 28c4 1B78     		ldrb	r3, [r3]	@ zero_extendqisi2
 5630 28c6 002B     		cmp	r3, #0
 5631 28c8 02D1     		bne	.L273
 5632              		.loc 1 1761 0
 5633 28ca 814B     		ldr	r3, .L318+32
 5634 28cc 0022     		movs	r2, #0
 5635 28ce 1A60     		str	r2, [r3]
 5636              	.L273:
 5637              		.loc 1 1764 0
 5638 28d0 774B     		ldr	r3, .L318
 5639 28d2 1B68     		ldr	r3, [r3]
 5640 28d4 03F48063 		and	r3, r3, #1024
 5641 28d8 002B     		cmp	r3, #0
 5642 28da 00F08282 		beq	.L223
 5643              		.loc 1 1765 0
 5644 28de 7C4B     		ldr	r3, .L318+32
 5645 28e0 1B68     		ldr	r3, [r3]
 5646 28e2 002B     		cmp	r3, #0
 5647 28e4 01D0     		beq	.L274
 5648              		.loc 1 1765 0 is_stmt 0 discriminator 1
 5649 28e6 7B4B     		ldr	r3, .L318+36
 5650 28e8 00E0     		b	.L275
 5651              	.L274:
 5652              		.loc 1 1765 0 discriminator 2
 5653 28ea 7B4B     		ldr	r3, .L318+40
 5654              	.L275:
 5655              		.loc 1 1765 0 discriminator 17
 5656 28ec 7448     		ldr	r0, .L318+16
 5657 28ee 7B49     		ldr	r1, .L318+44
 5658 28f0 1A46     		mov	r2, r3
 5659 28f2 FFF7FEFF 		bl	sprintf
 5660 28f6 0246     		mov	r2, r0
 5661 28f8 734B     		ldr	r3, .L318+24
 5662 28fa 1A60     		str	r2, [r3]
 5663              		.loc 1 1766 0 is_stmt 1 discriminator 17
 5664 28fc 724B     		ldr	r3, .L318+24
 5665 28fe 1B68     		ldr	r3, [r3]
 5666 2900 DBB2     		uxtb	r3, r3
 5667 2902 6F48     		ldr	r0, .L318+16
 5668 2904 1946     		mov	r1, r3
 5669 2906 FFF7FEFF 		bl	Term_Update
 5670 290a 6AE2     		b	.L223
 5671              	.L271:
 5672              		.loc 1 1770 0
 5673 290c BDF80E20 		ldrh	r2, [sp, #14]
 5674 2910 734B     		ldr	r3, .L318+48
 5675 2912 1B88     		ldrh	r3, [r3]
 5676 2914 0233     		adds	r3, r3, #2
 5677 2916 9A42     		cmp	r2, r3
 5678 2918 51D1     		bne	.L276
 5679              		.loc 1 1771 0
 5680 291a 029B     		ldr	r3, [sp, #8]
ARM GAS  /tmp/ccNtBBEs.s 			page 103


 5681 291c 1B78     		ldrb	r3, [r3]	@ zero_extendqisi2
 5682 291e 012B     		cmp	r3, #1
 5683 2920 1AD1     		bne	.L277
 5684              		.loc 1 1772 0
 5685 2922 634B     		ldr	r3, .L318
 5686 2924 1B68     		ldr	r3, [r3]
 5687 2926 43F00402 		orr	r2, r3, #4
 5688 292a 614B     		ldr	r3, .L318
 5689 292c 1A60     		str	r2, [r3]
 5690              		.loc 1 1775 0
 5691 292e 6D48     		ldr	r0, .L318+52
 5692 2930 0C21     		movs	r1, #12
 5693 2932 FFF7FEFF 		bl	HAL_TIM_OC_Start_IT
 5694 2936 0346     		mov	r3, r0
 5695 2938 002B     		cmp	r3, #0
 5696 293a 01D0     		beq	.L278
 5697              		.loc 1 1777 0
 5698 293c FFF7FEFF 		bl	Error_Handler
 5699              	.L278:
 5700              	.LBB11:
 5701              		.loc 1 1782 0
 5702 2940 684B     		ldr	r3, .L318+52
 5703 2942 1B68     		ldr	r3, [r3]
 5704 2944 5B6A     		ldr	r3, [r3, #36]
 5705 2946 0693     		str	r3, [sp, #24]
 5706              		.loc 1 1784 0
 5707 2948 664B     		ldr	r3, .L318+52
 5708 294a 1B68     		ldr	r3, [r3]
 5709 294c 664A     		ldr	r2, .L318+56
 5710 294e 1168     		ldr	r1, [r2]
 5711 2950 069A     		ldr	r2, [sp, #24]
 5712 2952 0A44     		add	r2, r2, r1
 5713 2954 1A64     		str	r2, [r3, #64]
 5714              	.LBE11:
 5715 2956 12E0     		b	.L279
 5716              	.L277:
 5717              		.loc 1 1786 0
 5718 2958 029B     		ldr	r3, [sp, #8]
 5719 295a 1B78     		ldrb	r3, [r3]	@ zero_extendqisi2
 5720 295c 002B     		cmp	r3, #0
 5721 295e 0ED1     		bne	.L279
 5722              		.loc 1 1787 0
 5723 2960 534B     		ldr	r3, .L318
 5724 2962 1B68     		ldr	r3, [r3]
 5725 2964 23F00402 		bic	r2, r3, #4
 5726 2968 514B     		ldr	r3, .L318
 5727 296a 1A60     		str	r2, [r3]
 5728              		.loc 1 1790 0
 5729 296c 5D48     		ldr	r0, .L318+52
 5730 296e 0C21     		movs	r1, #12
 5731 2970 FFF7FEFF 		bl	HAL_TIM_OC_Stop_IT
 5732 2974 0346     		mov	r3, r0
 5733 2976 002B     		cmp	r3, #0
 5734 2978 01D0     		beq	.L279
 5735              		.loc 1 1792 0
 5736 297a FFF7FEFF 		bl	Error_Handler
 5737              	.L279:
ARM GAS  /tmp/ccNtBBEs.s 			page 104


 5738              		.loc 1 1796 0
 5739 297e 4C4B     		ldr	r3, .L318
 5740 2980 1B68     		ldr	r3, [r3]
 5741 2982 03F48063 		and	r3, r3, #1024
 5742 2986 002B     		cmp	r3, #0
 5743 2988 00F02B82 		beq	.L223
 5744              		.loc 1 1797 0
 5745 298c 484B     		ldr	r3, .L318
 5746 298e 1B68     		ldr	r3, [r3]
 5747 2990 03F00403 		and	r3, r3, #4
 5748 2994 002B     		cmp	r3, #0
 5749 2996 01D0     		beq	.L280
 5750              		.loc 1 1797 0 is_stmt 0 discriminator 1
 5751 2998 474B     		ldr	r3, .L318+8
 5752 299a 00E0     		b	.L281
 5753              	.L280:
 5754              		.loc 1 1797 0 discriminator 2
 5755 299c 474B     		ldr	r3, .L318+12
 5756              	.L281:
 5757              		.loc 1 1797 0 discriminator 19
 5758 299e 4848     		ldr	r0, .L318+16
 5759 29a0 5249     		ldr	r1, .L318+60
 5760 29a2 1A46     		mov	r2, r3
 5761 29a4 FFF7FEFF 		bl	sprintf
 5762 29a8 0246     		mov	r2, r0
 5763 29aa 474B     		ldr	r3, .L318+24
 5764 29ac 1A60     		str	r2, [r3]
 5765              		.loc 1 1798 0 is_stmt 1 discriminator 19
 5766 29ae 464B     		ldr	r3, .L318+24
 5767 29b0 1B68     		ldr	r3, [r3]
 5768 29b2 DBB2     		uxtb	r3, r3
 5769 29b4 4248     		ldr	r0, .L318+16
 5770 29b6 1946     		mov	r1, r3
 5771 29b8 FFF7FEFF 		bl	Term_Update
 5772 29bc 11E2     		b	.L223
 5773              	.L276:
 5774              		.loc 1 1802 0
 5775 29be BDF80E20 		ldrh	r2, [sp, #14]
 5776 29c2 4B4B     		ldr	r3, .L318+64
 5777 29c4 1B88     		ldrh	r3, [r3]
 5778 29c6 0233     		adds	r3, r3, #2
 5779 29c8 9A42     		cmp	r2, r3
 5780 29ca 36D1     		bne	.L282
 5781              		.loc 1 1803 0
 5782 29cc 029B     		ldr	r3, [sp, #8]
 5783 29ce 1B78     		ldrb	r3, [r3]	@ zero_extendqisi2
 5784 29d0 012B     		cmp	r3, #1
 5785 29d2 06D1     		bne	.L283
 5786              		.loc 1 1804 0
 5787 29d4 364B     		ldr	r3, .L318
 5788 29d6 1B68     		ldr	r3, [r3]
 5789 29d8 43F48052 		orr	r2, r3, #4096
 5790 29dc 344B     		ldr	r3, .L318
 5791 29de 1A60     		str	r2, [r3]
 5792 29e0 0BE0     		b	.L284
 5793              	.L283:
 5794              		.loc 1 1805 0
ARM GAS  /tmp/ccNtBBEs.s 			page 105


 5795 29e2 029B     		ldr	r3, [sp, #8]
 5796 29e4 1B78     		ldrb	r3, [r3]	@ zero_extendqisi2
 5797 29e6 002B     		cmp	r3, #0
 5798 29e8 07D1     		bne	.L284
 5799              		.loc 1 1806 0
 5800 29ea 314B     		ldr	r3, .L318
 5801 29ec 1B68     		ldr	r3, [r3]
 5802 29ee 23F48052 		bic	r2, r3, #4096
 5803 29f2 2F4B     		ldr	r3, .L318
 5804 29f4 1A60     		str	r2, [r3]
 5805              		.loc 1 1807 0
 5806 29f6 FFF7FEFF 		bl	DisableHWFeatures
 5807              	.L284:
 5808              		.loc 1 1810 0
 5809 29fa 2D4B     		ldr	r3, .L318
 5810 29fc 1B68     		ldr	r3, [r3]
 5811 29fe 03F48063 		and	r3, r3, #1024
 5812 2a02 002B     		cmp	r3, #0
 5813 2a04 00F0ED81 		beq	.L223
 5814              		.loc 1 1811 0
 5815 2a08 294B     		ldr	r3, .L318
 5816 2a0a 1B68     		ldr	r3, [r3]
 5817 2a0c 03F48053 		and	r3, r3, #4096
 5818 2a10 002B     		cmp	r3, #0
 5819 2a12 01D0     		beq	.L285
 5820              		.loc 1 1811 0 is_stmt 0 discriminator 1
 5821 2a14 284B     		ldr	r3, .L318+8
 5822 2a16 00E0     		b	.L286
 5823              	.L285:
 5824              		.loc 1 1811 0 discriminator 2
 5825 2a18 284B     		ldr	r3, .L318+12
 5826              	.L286:
 5827              		.loc 1 1811 0 discriminator 21
 5828 2a1a 2948     		ldr	r0, .L318+16
 5829 2a1c 3549     		ldr	r1, .L318+68
 5830 2a1e 1A46     		mov	r2, r3
 5831 2a20 FFF7FEFF 		bl	sprintf
 5832 2a24 0246     		mov	r2, r0
 5833 2a26 284B     		ldr	r3, .L318+24
 5834 2a28 1A60     		str	r2, [r3]
 5835              		.loc 1 1812 0 is_stmt 1 discriminator 21
 5836 2a2a 274B     		ldr	r3, .L318+24
 5837 2a2c 1B68     		ldr	r3, [r3]
 5838 2a2e DBB2     		uxtb	r3, r3
 5839 2a30 2348     		ldr	r0, .L318+16
 5840 2a32 1946     		mov	r1, r3
 5841 2a34 FFF7FEFF 		bl	Term_Update
 5842 2a38 D3E1     		b	.L223
 5843              	.L282:
 5844              		.loc 1 1816 0
 5845 2a3a BDF80E20 		ldrh	r2, [sp, #14]
 5846 2a3e 2E4B     		ldr	r3, .L318+72
 5847 2a40 1B88     		ldrh	r3, [r3]
 5848 2a42 0233     		adds	r3, r3, #2
 5849 2a44 9A42     		cmp	r2, r3
 5850 2a46 6AD1     		bne	.L287
 5851              		.loc 1 1817 0
ARM GAS  /tmp/ccNtBBEs.s 			page 106


 5852 2a48 029B     		ldr	r3, [sp, #8]
 5853 2a4a 1B78     		ldrb	r3, [r3]	@ zero_extendqisi2
 5854 2a4c 012B     		cmp	r3, #1
 5855 2a4e 0ED1     		bne	.L288
 5856              		.loc 1 1818 0
 5857 2a50 174B     		ldr	r3, .L318
 5858 2a52 1B68     		ldr	r3, [r3]
 5859 2a54 43F00102 		orr	r2, r3, #1
 5860 2a58 154B     		ldr	r3, .L318
 5861 2a5a 1A60     		str	r2, [r3]
 5862              		.loc 1 1821 0
 5863 2a5c 1548     		ldr	r0, .L318+4
 5864 2a5e FFF7FEFF 		bl	HAL_TIM_Base_Start_IT
 5865 2a62 0346     		mov	r3, r0
 5866 2a64 002B     		cmp	r3, #0
 5867 2a66 14D0     		beq	.L290
 5868              		.loc 1 1823 0
 5869 2a68 FFF7FEFF 		bl	Error_Handler
 5870 2a6c 11E0     		b	.L290
 5871              	.L288:
 5872              		.loc 1 1825 0
 5873 2a6e 029B     		ldr	r3, [sp, #8]
 5874 2a70 1B78     		ldrb	r3, [r3]	@ zero_extendqisi2
 5875 2a72 002B     		cmp	r3, #0
 5876 2a74 0DD1     		bne	.L290
 5877              		.loc 1 1826 0
 5878 2a76 0E4B     		ldr	r3, .L318
 5879 2a78 1B68     		ldr	r3, [r3]
 5880 2a7a 23F00102 		bic	r2, r3, #1
 5881 2a7e 0C4B     		ldr	r3, .L318
 5882 2a80 1A60     		str	r2, [r3]
 5883              		.loc 1 1829 0
 5884 2a82 0C48     		ldr	r0, .L318+4
 5885 2a84 FFF7FEFF 		bl	HAL_TIM_Base_Stop_IT
 5886 2a88 0346     		mov	r3, r0
 5887 2a8a 002B     		cmp	r3, #0
 5888 2a8c 01D0     		beq	.L290
 5889              		.loc 1 1831 0
 5890 2a8e FFF7FEFF 		bl	Error_Handler
 5891              	.L290:
 5892              		.loc 1 1835 0
 5893 2a92 074B     		ldr	r3, .L318
 5894 2a94 1B68     		ldr	r3, [r3]
 5895 2a96 03F48063 		and	r3, r3, #1024
 5896 2a9a 002B     		cmp	r3, #0
 5897 2a9c 00F0A181 		beq	.L223
 5898              		.loc 1 1836 0
 5899 2aa0 034B     		ldr	r3, .L318
 5900 2aa2 1B68     		ldr	r3, [r3]
 5901 2aa4 03F00103 		and	r3, r3, #1
 5902 2aa8 002B     		cmp	r3, #0
 5903 2aaa 27D0     		beq	.L291
 5904              		.loc 1 1836 0 is_stmt 0 discriminator 1
 5905 2aac 024B     		ldr	r3, .L318+8
 5906 2aae 26E0     		b	.L292
 5907              	.L319:
 5908              		.align	2
ARM GAS  /tmp/ccNtBBEs.s 			page 107


 5909              	.L318:
 5910 2ab0 00000000 		.word	ConnectionBleStatus
 5911 2ab4 00000000 		.word	TimEnvHandle
 5912 2ab8 B8010000 		.word	.LC14
 5913 2abc C0010000 		.word	.LC15
 5914 2ac0 00000000 		.word	BufferToWrite
 5915 2ac4 50020000 		.word	.LC24
 5916 2ac8 00000000 		.word	BytesToWrite
 5917 2acc 1C000000 		.word	ConfigCharHandle
 5918 2ad0 00000000 		.word	FirstConnectionConfig
 5919 2ad4 5C020000 		.word	.LC25
 5920 2ad8 60020000 		.word	.LC26
 5921 2adc 64020000 		.word	.LC27
 5922 2ae0 08000000 		.word	AccGyroMagCharHandle
 5923 2ae4 00000000 		.word	TimCCHandle
 5924 2ae8 00000000 		.word	uhCCR4_Val
 5925 2aec 74020000 		.word	.LC28
 5926 2af0 0A000000 		.word	AccEventCharHandle
 5927 2af4 88020000 		.word	.LC29
 5928 2af8 06000000 		.word	EnvironmentalCharHandle
 5929              	.L291:
 5930              		.loc 1 1836 0 discriminator 2
 5931 2afc 974B     		ldr	r3, .L320
 5932              	.L292:
 5933              		.loc 1 1836 0 discriminator 23
 5934 2afe 9848     		ldr	r0, .L320+4
 5935 2b00 9849     		ldr	r1, .L320+8
 5936 2b02 1A46     		mov	r2, r3
 5937 2b04 FFF7FEFF 		bl	sprintf
 5938 2b08 0246     		mov	r2, r0
 5939 2b0a 974B     		ldr	r3, .L320+12
 5940 2b0c 1A60     		str	r2, [r3]
 5941              		.loc 1 1837 0 is_stmt 1 discriminator 23
 5942 2b0e 964B     		ldr	r3, .L320+12
 5943 2b10 1B68     		ldr	r3, [r3]
 5944 2b12 DBB2     		uxtb	r3, r3
 5945 2b14 9248     		ldr	r0, .L320+4
 5946 2b16 1946     		mov	r1, r3
 5947 2b18 FFF7FEFF 		bl	Term_Update
 5948 2b1c 61E1     		b	.L223
 5949              	.L287:
 5950              		.loc 1 1841 0
 5951 2b1e BDF80E20 		ldrh	r2, [sp, #14]
 5952 2b22 924B     		ldr	r3, .L320+16
 5953 2b24 1B88     		ldrh	r3, [r3]
 5954 2b26 0233     		adds	r3, r3, #2
 5955 2b28 9A42     		cmp	r2, r3
 5956 2b2a 16D1     		bne	.L293
 5957              		.loc 1 1842 0
 5958 2b2c 029B     		ldr	r3, [sp, #8]
 5959 2b2e 1B78     		ldrb	r3, [r3]	@ zero_extendqisi2
 5960 2b30 012B     		cmp	r3, #1
 5961 2b32 06D1     		bne	.L294
 5962              		.loc 1 1843 0
 5963 2b34 8E4B     		ldr	r3, .L320+20
 5964 2b36 1B68     		ldr	r3, [r3]
 5965 2b38 43F40062 		orr	r2, r3, #2048
ARM GAS  /tmp/ccNtBBEs.s 			page 108


 5966 2b3c 8C4B     		ldr	r3, .L320+20
 5967 2b3e 1A60     		str	r2, [r3]
 5968 2b40 4FE1     		b	.L223
 5969              	.L294:
 5970              		.loc 1 1844 0
 5971 2b42 029B     		ldr	r3, [sp, #8]
 5972 2b44 1B78     		ldrb	r3, [r3]	@ zero_extendqisi2
 5973 2b46 002B     		cmp	r3, #0
 5974 2b48 40F04B81 		bne	.L223
 5975              		.loc 1 1845 0
 5976 2b4c 884B     		ldr	r3, .L320+20
 5977 2b4e 1B68     		ldr	r3, [r3]
 5978 2b50 23F40062 		bic	r2, r3, #2048
 5979 2b54 864B     		ldr	r3, .L320+20
 5980 2b56 1A60     		str	r2, [r3]
 5981 2b58 43E1     		b	.L223
 5982              	.L293:
 5983              		.loc 1 1847 0
 5984 2b5a BDF80E20 		ldrh	r2, [sp, #14]
 5985 2b5e 854B     		ldr	r3, .L320+24
 5986 2b60 1B88     		ldrh	r3, [r3]
 5987 2b62 0233     		adds	r3, r3, #2
 5988 2b64 9A42     		cmp	r2, r3
 5989 2b66 16D1     		bne	.L296
 5990              		.loc 1 1848 0
 5991 2b68 029B     		ldr	r3, [sp, #8]
 5992 2b6a 1B78     		ldrb	r3, [r3]	@ zero_extendqisi2
 5993 2b6c 012B     		cmp	r3, #1
 5994 2b6e 06D1     		bne	.L297
 5995              		.loc 1 1849 0
 5996 2b70 7F4B     		ldr	r3, .L320+20
 5997 2b72 1B68     		ldr	r3, [r3]
 5998 2b74 43F48062 		orr	r2, r3, #1024
 5999 2b78 7D4B     		ldr	r3, .L320+20
 6000 2b7a 1A60     		str	r2, [r3]
 6001 2b7c 31E1     		b	.L223
 6002              	.L297:
 6003              		.loc 1 1850 0
 6004 2b7e 029B     		ldr	r3, [sp, #8]
 6005 2b80 1B78     		ldrb	r3, [r3]	@ zero_extendqisi2
 6006 2b82 002B     		cmp	r3, #0
 6007 2b84 40F02D81 		bne	.L223
 6008              		.loc 1 1851 0
 6009 2b88 794B     		ldr	r3, .L320+20
 6010 2b8a 1B68     		ldr	r3, [r3]
 6011 2b8c 23F48062 		bic	r2, r3, #1024
 6012 2b90 774B     		ldr	r3, .L320+20
 6013 2b92 1A60     		str	r2, [r3]
 6014 2b94 25E1     		b	.L223
 6015              	.L296:
 6016              		.loc 1 1853 0
 6017 2b96 BDF80E20 		ldrh	r2, [sp, #14]
 6018 2b9a 764B     		ldr	r3, .L320+24
 6019 2b9c 1B88     		ldrh	r3, [r3]
 6020 2b9e 0133     		adds	r3, r3, #1
 6021 2ba0 9A42     		cmp	r2, r3
 6022 2ba2 62D1     		bne	.L299
ARM GAS  /tmp/ccNtBBEs.s 			page 109


 6023              	.LBB12:
 6024              		.loc 1 1854 0
 6025 2ba4 0123     		movs	r3, #1
 6026 2ba6 0D93     		str	r3, [sp, #52]
 6027              		.loc 1 1856 0
 6028 2ba8 734B     		ldr	r3, .L320+28
 6029 2baa 1B68     		ldr	r3, [r3]
 6030 2bac 002B     		cmp	r3, #0
 6031 2bae 4AD0     		beq	.L300
 6032              	.LBB13:
 6033              		.loc 1 1858 0
 6034 2bb0 9DF80D30 		ldrb	r3, [sp, #13]	@ zero_extendqisi2
 6035 2bb4 7048     		ldr	r0, .L320+28
 6036 2bb6 0299     		ldr	r1, [sp, #8]
 6037 2bb8 1A46     		mov	r2, r3
 6038 2bba 0123     		movs	r3, #1
 6039 2bbc FFF7FEFF 		bl	UpdateFWBlueMS
 6040 2bc0 0346     		mov	r3, r0
 6041 2bc2 8DF81730 		strb	r3, [sp, #23]
 6042              		.loc 1 1859 0
 6043 2bc6 9DF81730 		ldrb	r3, [sp, #23]	@ zero_extendqisi2
 6044 2bca 002B     		cmp	r3, #0
 6045 2bcc 38D0     		beq	.L301
 6046              		.loc 1 1860 0
 6047 2bce 6B4B     		ldr	r3, .L320+32
 6048 2bd0 1A88     		ldrh	r2, [r3]
 6049 2bd2 684B     		ldr	r3, .L320+24
 6050 2bd4 1B88     		ldrh	r3, [r3]
 6051 2bd6 0DF11701 		add	r1, sp, #23
 6052 2bda 0091     		str	r1, [sp]
 6053 2bdc 1046     		mov	r0, r2
 6054 2bde 1946     		mov	r1, r3
 6055 2be0 0022     		movs	r2, #0
 6056 2be2 0123     		movs	r3, #1
 6057 2be4 FFF7FEFF 		bl	aci_gatt_update_char_value
 6058              		.loc 1 1861 0
 6059 2be8 9DF81730 		ldrb	r3, [sp, #23]	@ zero_extendqisi2
 6060 2bec 5BB2     		sxtb	r3, r3
 6061 2bee 012B     		cmp	r3, #1
 6062 2bf0 26D1     		bne	.L301
 6063              		.loc 1 1863 0
 6064 2bf2 5B4B     		ldr	r3, .L320+4
 6065 2bf4 624A     		ldr	r2, .L320+36
 6066 2bf6 1446     		mov	r4, r2
 6067 2bf8 1D46     		mov	r5, r3
 6068 2bfa 04F1200E 		add	lr, r4, #32
 6069              	.L302:
 6070 2bfe 2E46     		mov	r6, r5
 6071 2c00 2746     		mov	r7, r4
 6072 2c02 0FCF     		ldmia	r7!, {r0, r1, r2, r3}
 6073 2c04 3060     		str	r0, [r6]	@ unaligned
 6074 2c06 7160     		str	r1, [r6, #4]	@ unaligned
 6075 2c08 B260     		str	r2, [r6, #8]	@ unaligned
 6076 2c0a F360     		str	r3, [r6, #12]	@ unaligned
 6077 2c0c 1034     		adds	r4, r4, #16
 6078 2c0e 1035     		adds	r5, r5, #16
 6079 2c10 7445     		cmp	r4, lr
ARM GAS  /tmp/ccNtBBEs.s 			page 110


 6080 2c12 F4D1     		bne	.L302
 6081 2c14 2B46     		mov	r3, r5
 6082 2c16 2246     		mov	r2, r4
 6083 2c18 1068     		ldr	r0, [r2]	@ unaligned
 6084 2c1a 1860     		str	r0, [r3]	@ unaligned
 6085 2c1c 9288     		ldrh	r2, [r2, #4]	@ unaligned
 6086 2c1e 9A80     		strh	r2, [r3, #4]	@ unaligned
 6087 2c20 514B     		ldr	r3, .L320+12
 6088 2c22 2522     		movs	r2, #37
 6089 2c24 1A60     		str	r2, [r3]
 6090              		.loc 1 1864 0
 6091 2c26 504B     		ldr	r3, .L320+12
 6092 2c28 1B68     		ldr	r3, [r3]
 6093 2c2a DBB2     		uxtb	r3, r3
 6094 2c2c 4C48     		ldr	r0, .L320+4
 6095 2c2e 1946     		mov	r1, r3
 6096 2c30 FFF7FEFF 		bl	Term_Update
 6097              		.loc 1 1866 0
 6098 2c34 41F28830 		movw	r0, #5000
 6099 2c38 FFF7FEFF 		bl	HAL_Delay
 6100              		.loc 1 1867 0
 6101 2c3c FFF7FEFF 		bl	HAL_NVIC_SystemReset
 6102              	.L301:
 6103              		.loc 1 1870 0
 6104 2c40 0023     		movs	r3, #0
 6105 2c42 0D93     		str	r3, [sp, #52]
 6106              	.LBE13:
 6107 2c44 06E0     		b	.L303
 6108              	.L300:
 6109              		.loc 1 1873 0
 6110 2c46 9DF80D30 		ldrb	r3, [sp, #13]	@ zero_extendqisi2
 6111 2c4a 0298     		ldr	r0, [sp, #8]
 6112 2c4c 1946     		mov	r1, r3
 6113 2c4e 00F0D7F8 		bl	DebugConsoleCommandParsing
 6114 2c52 0D90     		str	r0, [sp, #52]
 6115              	.L303:
 6116              		.loc 1 1877 0
 6117 2c54 0D9B     		ldr	r3, [sp, #52]
 6118 2c56 002B     		cmp	r3, #0
 6119 2c58 06D0     		beq	.L304
 6120              		.loc 1 1878 0
 6121 2c5a 9DF80D30 		ldrb	r3, [sp, #13]	@ zero_extendqisi2
 6122 2c5e 0298     		ldr	r0, [sp, #8]
 6123 2c60 1946     		mov	r1, r3
 6124 2c62 FFF7FEFF 		bl	Term_Update
 6125              	.LBE12:
 6126 2c66 BCE0     		b	.L223
 6127              	.L304:
 6128 2c68 BBE0     		b	.L223
 6129              	.L299:
 6130              		.loc 1 1880 0
 6131 2c6a BDF80E20 		ldrh	r2, [sp, #14]
 6132 2c6e 454B     		ldr	r3, .L320+40
 6133 2c70 1B88     		ldrh	r3, [r3]
 6134 2c72 0233     		adds	r3, r3, #2
 6135 2c74 9A42     		cmp	r2, r3
 6136 2c76 62D1     		bne	.L305
ARM GAS  /tmp/ccNtBBEs.s 			page 111


 6137              		.loc 1 1882 0
 6138 2c78 029B     		ldr	r3, [sp, #8]
 6139 2c7a 1B78     		ldrb	r3, [r3]	@ zero_extendqisi2
 6140 2c7c 012B     		cmp	r3, #1
 6141 2c7e 2BD1     		bne	.L306
 6142              	.LBB14:
 6143              		.loc 1 1886 0
 6144 2c80 3B4B     		ldr	r3, .L320+20
 6145 2c82 1B68     		ldr	r3, [r3]
 6146 2c84 43F00802 		orr	r2, r3, #8
 6147 2c88 394B     		ldr	r3, .L320+20
 6148 2c8a 1A60     		str	r2, [r3]
 6149              		.loc 1 1888 0
 6150 2c8c 4FF47A50 		mov	r0, #16000
 6151 2c90 0421     		movs	r1, #4
 6152 2c92 FFF7FEFF 		bl	InitMics
 6153              		.loc 1 1890 0
 6154 2c96 0023     		movs	r3, #0
 6155 2c98 0C93     		str	r3, [sp, #48]
 6156 2c9a 0EE0     		b	.L307
 6157              	.L308:
 6158              		.loc 1 1891 0 discriminator 2
 6159 2c9c 3A4B     		ldr	r3, .L320+44
 6160 2c9e 0C9A     		ldr	r2, [sp, #48]
 6161 2ca0 4FF00001 		mov	r1, #0
 6162 2ca4 43F82210 		str	r1, [r3, r2, lsl #2]	@ float
 6163              		.loc 1 1892 0 discriminator 2
 6164 2ca8 384B     		ldr	r3, .L320+48
 6165 2caa 0C9A     		ldr	r2, [sp, #48]
 6166 2cac 4FF00001 		mov	r1, #0
 6167 2cb0 43F82210 		str	r1, [r3, r2, lsl #2]	@ float
 6168              		.loc 1 1890 0 discriminator 2
 6169 2cb4 0C9B     		ldr	r3, [sp, #48]
 6170 2cb6 0133     		adds	r3, r3, #1
 6171 2cb8 0C93     		str	r3, [sp, #48]
 6172              	.L307:
 6173              		.loc 1 1890 0 is_stmt 0 discriminator 1
 6174 2cba 354B     		ldr	r3, .L320+52
 6175 2cbc 9A6A     		ldr	r2, [r3, #40]
 6176 2cbe 0C9B     		ldr	r3, [sp, #48]
 6177 2cc0 9A42     		cmp	r2, r3
 6178 2cc2 EBDC     		bgt	.L308
 6179              		.loc 1 1896 0 is_stmt 1
 6180 2cc4 3348     		ldr	r0, .L320+56
 6181 2cc6 FFF7FEFF 		bl	HAL_TIM_Base_Start_IT
 6182 2cca 0346     		mov	r3, r0
 6183 2ccc 002B     		cmp	r3, #0
 6184 2cce 02D0     		beq	.L309
 6185              		.loc 1 1898 0
 6186 2cd0 FFF7FEFF 		bl	Error_Handler
 6187              	.LBE14:
 6188 2cd4 14E0     		b	.L310
 6189              	.L309:
 6190 2cd6 13E0     		b	.L310
 6191              	.L306:
 6192              		.loc 1 1900 0
 6193 2cd8 029B     		ldr	r3, [sp, #8]
ARM GAS  /tmp/ccNtBBEs.s 			page 112


 6194 2cda 1B78     		ldrb	r3, [r3]	@ zero_extendqisi2
 6195 2cdc 002B     		cmp	r3, #0
 6196 2cde 0FD1     		bne	.L310
 6197              		.loc 1 1901 0
 6198 2ce0 234B     		ldr	r3, .L320+20
 6199 2ce2 1B68     		ldr	r3, [r3]
 6200 2ce4 23F00802 		bic	r2, r3, #8
 6201 2ce8 214B     		ldr	r3, .L320+20
 6202 2cea 1A60     		str	r2, [r3]
 6203              		.loc 1 1903 0
 6204 2cec FFF7FEFF 		bl	DeInitMics
 6205              		.loc 1 1906 0
 6206 2cf0 2848     		ldr	r0, .L320+56
 6207 2cf2 FFF7FEFF 		bl	HAL_TIM_Base_Stop_IT
 6208 2cf6 0346     		mov	r3, r0
 6209 2cf8 002B     		cmp	r3, #0
 6210 2cfa 01D0     		beq	.L310
 6211              		.loc 1 1908 0
 6212 2cfc FFF7FEFF 		bl	Error_Handler
 6213              	.L310:
 6214              		.loc 1 1912 0
 6215 2d00 1B4B     		ldr	r3, .L320+20
 6216 2d02 1B68     		ldr	r3, [r3]
 6217 2d04 03F48063 		and	r3, r3, #1024
 6218 2d08 002B     		cmp	r3, #0
 6219 2d0a 6AD0     		beq	.L223
 6220              		.loc 1 1913 0
 6221 2d0c 184B     		ldr	r3, .L320+20
 6222 2d0e 1B68     		ldr	r3, [r3]
 6223 2d10 03F00803 		and	r3, r3, #8
 6224 2d14 002B     		cmp	r3, #0
 6225 2d16 01D0     		beq	.L311
 6226              		.loc 1 1913 0 is_stmt 0 discriminator 1
 6227 2d18 1F4B     		ldr	r3, .L320+60
 6228 2d1a 00E0     		b	.L312
 6229              	.L311:
 6230              		.loc 1 1913 0 discriminator 2
 6231 2d1c 0F4B     		ldr	r3, .L320
 6232              	.L312:
 6233              		.loc 1 1913 0 discriminator 27
 6234 2d1e 1048     		ldr	r0, .L320+4
 6235 2d20 1E49     		ldr	r1, .L320+64
 6236 2d22 1A46     		mov	r2, r3
 6237 2d24 FFF7FEFF 		bl	sprintf
 6238 2d28 0246     		mov	r2, r0
 6239 2d2a 0F4B     		ldr	r3, .L320+12
 6240 2d2c 1A60     		str	r2, [r3]
 6241              		.loc 1 1914 0 is_stmt 1 discriminator 27
 6242 2d2e 0E4B     		ldr	r3, .L320+12
 6243 2d30 1B68     		ldr	r3, [r3]
 6244 2d32 DBB2     		uxtb	r3, r3
 6245 2d34 0A48     		ldr	r0, .L320+4
 6246 2d36 1946     		mov	r1, r3
 6247 2d38 FFF7FEFF 		bl	Term_Update
 6248 2d3c 51E0     		b	.L223
 6249              	.L305:
 6250              		.loc 1 1919 0
ARM GAS  /tmp/ccNtBBEs.s 			page 113


 6251 2d3e BDF80E20 		ldrh	r2, [sp, #14]
 6252 2d42 174B     		ldr	r3, .L320+68
 6253 2d44 1B88     		ldrh	r3, [r3]
 6254 2d46 0133     		adds	r3, r3, #1
 6255 2d48 9A42     		cmp	r2, r3
 6256 2d4a 2BD1     		bne	.L313
 6257              		.loc 1 1921 0
 6258 2d4c 9DF80D30 		ldrb	r3, [sp, #13]	@ zero_extendqisi2
 6259 2d50 0298     		ldr	r0, [sp, #8]
 6260 2d52 1946     		mov	r1, r3
 6261 2d54 00F064FD 		bl	ConfigCommandParsing
 6262 2d58 43E0     		b	.L223
 6263              	.L321:
 6264 2d5a 00BF     		.align	2
 6265              	.L320:
 6266 2d5c C0010000 		.word	.LC15
 6267 2d60 00000000 		.word	BufferToWrite
 6268 2d64 98020000 		.word	.LC30
 6269 2d68 00000000 		.word	BytesToWrite
 6270 2d6c 22000000 		.word	StdErrCharHandle
 6271 2d70 00000000 		.word	ConnectionBleStatus
 6272 2d74 20000000 		.word	TermCharHandle
 6273 2d78 54000000 		.word	SizeOfUpdateBlueFW
 6274 2d7c 1E000000 		.word	ConsoleW2STHandle
 6275 2d80 A4020000 		.word	.LC31
 6276 2d84 0C000000 		.word	AudioLevelCharHandle
 6277 2d88 00000000 		.word	RMS_Ch
 6278 2d8c 00000000 		.word	DBNOISE_Value_Old_Ch
 6279 2d90 00000000 		.word	TargetBoardFeatures
 6280 2d94 00000000 		.word	TimAudioDataHandle
 6281 2d98 B8010000 		.word	.LC14
 6282 2d9c CC020000 		.word	.LC32
 6283 2da0 1C000000 		.word	ConfigCharHandle
 6284              	.L313:
 6285              		.loc 1 1923 0
 6286 2da4 104B     		ldr	r3, .L322
 6287 2da6 1B68     		ldr	r3, [r3]
 6288 2da8 03F40063 		and	r3, r3, #2048
 6289 2dac 002B     		cmp	r3, #0
 6290 2dae 18D0     		beq	.L223
 6291              		.loc 1 1924 0
 6292 2db0 0E4A     		ldr	r2, .L322+4
 6293 2db2 0F4B     		ldr	r3, .L322+8
 6294 2db4 1546     		mov	r5, r2
 6295 2db6 1C46     		mov	r4, r3
 6296 2db8 0FCC     		ldmia	r4!, {r0, r1, r2, r3}
 6297 2dba 2860     		str	r0, [r5]	@ unaligned
 6298 2dbc 6960     		str	r1, [r5, #4]	@ unaligned
 6299 2dbe AA60     		str	r2, [r5, #8]	@ unaligned
 6300 2dc0 EB60     		str	r3, [r5, #12]	@ unaligned
 6301 2dc2 07CC     		ldmia	r4!, {r0, r1, r2}
 6302 2dc4 2861     		str	r0, [r5, #16]	@ unaligned
 6303 2dc6 6961     		str	r1, [r5, #20]	@ unaligned
 6304 2dc8 AA61     		str	r2, [r5, #24]	@ unaligned
 6305 2dca 2378     		ldrb	r3, [r4]
 6306 2dcc 2B77     		strb	r3, [r5, #28]
 6307 2dce 094B     		ldr	r3, .L322+12
ARM GAS  /tmp/ccNtBBEs.s 			page 114


 6308 2dd0 1C22     		movs	r2, #28
 6309 2dd2 1A60     		str	r2, [r3]
 6310              		.loc 1 1925 0
 6311 2dd4 074B     		ldr	r3, .L322+12
 6312 2dd6 1B68     		ldr	r3, [r3]
 6313 2dd8 DBB2     		uxtb	r3, r3
 6314 2dda 0448     		ldr	r0, .L322+4
 6315 2ddc 1946     		mov	r1, r3
 6316 2dde FFF7FEFF 		bl	Stderr_Update
 6317              	.L223:
 6318              		.loc 1 1930 0
 6319 2de2 0FB0     		add	sp, sp, #60
 6320              		@ sp needed
 6321 2de4 F0BD     		pop	{r4, r5, r6, r7, pc}
 6322              	.L323:
 6323 2de6 00BF     		.align	2
 6324              	.L322:
 6325 2de8 00000000 		.word	ConnectionBleStatus
 6326 2dec 00000000 		.word	BufferToWrite
 6327 2df0 E8020000 		.word	.LC33
 6328 2df4 00000000 		.word	BytesToWrite
 6329              		.cfi_endproc
 6330              	.LFE292:
 6331              		.size	Attribute_Modified_CB, .-Attribute_Modified_CB
 6332              		.section	.rodata
 6333 0305 000000   		.align	2
 6334              	.LC34:
 6335 0308 436F6D6D 		.ascii	"Command:\015\012pr->HW pedometer reset\015\012info-"
 6335      616E643A 
 6335      0D0A7072 
 6335      2D3E4857 
 6335      20706564 
 6336 032f 3E205379 		.ascii	"> System Info\015\012powerstatus-> Battery Status ["
 6336      7374656D 
 6336      20496E66 
 6336      6F0D0A70 
 6336      6F776572 
 6337 035c 2525206D 		.ascii	"%% mV]\015\012versionFw-> FW Version\015\012version"
 6337      565D0D0A 
 6337      76657273 
 6337      696F6E46 
 6337      772D3E20 
 6338 0383 426C652D 		.ascii	"Ble-> Ble Version\015\012\000"
 6338      3E20426C 
 6338      65205665 
 6338      7273696F 
 6338      6E0D0A00 
 6339 0397 00       		.align	2
 6340              	.LC35:
 6341 0398 76657273 		.ascii	"versionFw\000"
 6341      696F6E46 
 6341      7700
 6342 03a2 0000     		.align	2
 6343              	.LC36:
 6344 03a4 25735F25 		.ascii	"%s_%s_%c.%c.%c\015\012\000"
 6344      735F2563 
 6344      2E25632E 
ARM GAS  /tmp/ccNtBBEs.s 			page 115


 6344      25630D0A 
 6344      00
 6345 03b5 000000   		.align	2
 6346              	.LC37:
 6347 03b8 46343736 		.ascii	"F476\000"
 6347      00
 6348 03bd 000000   		.align	2
 6349              	.LC38:
 6350 03c0 424C5545 		.ascii	"BLUEMICROSYSTEM2\000"
 6350      4D494352 
 6350      4F535953 
 6350      54454D32 
 6350      00
 6351 03d1 000000   		.align	2
 6352              	.LC39:
 6353 03d4 706F7765 		.ascii	"powerstatus\000"
 6353      72737461 
 6353      74757300 
 6354              		.align	2
 6355              	.LC40:
 6356 03e0 42617474 		.ascii	"Battery %ld%% %ld mV Current=%d mA\015\012\000"
 6356      65727920 
 6356      256C6425 
 6356      2520256C 
 6356      64206D56 
 6357 0405 000000   		.align	2
 6358              	.LC41:
 6359 0408 42617474 		.ascii	"Battery not present\015\012\000"
 6359      65727920 
 6359      6E6F7420 
 6359      70726573 
 6359      656E740D 
 6360 041e 0000     		.align	2
 6361              	.LC42:
 6362 0420 696E666F 		.ascii	"info\000"
 6362      00
 6363 0425 000000   		.align	2
 6364              	.LC43:
 6365 0428 0D0A4272 		.ascii	"\015\012Bryce H's STMicroelectronics %s:\015\012\011"
 6365      79636520 
 6365      48277320 
 6365      53544D69 
 6365      63726F65 
 6366 044d 56657273 		.ascii	"Version %c.%c.%c\015\012\011DDDDDDDD  Bryce's STM32"
 6366      696F6E20 
 6366      25632E25 
 6366      632E2563 
 6366      0D0A0944 
 6367 0477 34373652 		.ascii	"476RG-SensorTile board\015\012\000"
 6367      472D5365 
 6367      6E736F72 
 6367      54696C65 
 6367      20626F61 
 6368              		.align	2
 6369              	.LC44:
 6370 0490 09284841 		.ascii	"\011(HAL %ld.%ld.%ld_%ld)\015\012\011Compiled %s %s"
 6370      4C20256C 
ARM GAS  /tmp/ccNtBBEs.s 			page 116


 6370      642E256C 
 6370      642E256C 
 6370      645F256C 
 6371 04b7 20286F70 		.ascii	" (openstm32)\015\012\000"
 6371      656E7374 
 6371      6D333229 
 6371      0D0A00
 6372 04c6 0000     		.align	2
 6373              	.LC45:
 6374 04c8 41707220 		.ascii	"Apr 24 2017\000"
 6374      32342032 
 6374      30313700 
 6375              		.align	2
 6376              	.LC46:
 6377 04d4 31323A30 		.ascii	"12:05:41\000"
 6377      353A3431 
 6377      00
 6378 04dd 000000   		.align	2
 6379              	.LC47:
 6380 04e0 75706772 		.ascii	"upgradeFw\000"
 6380      61646546 
 6380      7700
 6381 04ea 0000     		.align	2
 6382              	.LC48:
 6383 04ec 76657273 		.ascii	"versionBle\000"
 6383      696F6E42 
 6383      6C6500
 6384 04f7 00       		.align	2
 6385              	.LC49:
 6386 04f8 426C654D 		.ascii	"BleMS\000"
 6386      5300
 6387 04fe 0000     		.align	2
 6388              	.LC50:
 6389 0500 426C6500 		.ascii	"Ble\000"
 6390              		.align	2
 6391              	.LC51:
 6392 0504 25735F25 		.ascii	"%s_%d.%d.%c\015\012\000"
 6392      642E2564 
 6392      2E25630D 
 6392      0A00
 6393 0512 0000     		.align	2
 6394              	.LC52:
 6395 0514 252E3258 		.ascii	"%.2X%.2X%.2X%.2X%.2X%.2X%.2X%.2X%.2X%.2X%.2X%.2X_%."
 6395      252E3258 
 6395      252E3258 
 6395      252E3258 
 6395      252E3258 
 6396 0547 336C580D 		.ascii	"3lX\015\012\000"
 6396      0A00
 6397 054d 000000   		.align	2
 6398              	.LC53:
 6399 0550 4F4B00   		.ascii	"OK\000"
 6400 0553 00       		.align	2
 6401              	.LC54:
 6402 0554 2D2D00   		.ascii	"--\000"
 6403 0557 00       		.align	2
 6404              	.LC55:
ARM GAS  /tmp/ccNtBBEs.s 			page 117


 6405 0558 6F737825 		.ascii	"osx%s%s %s\015\012\000"
 6405      73257320 
 6405      25730D0A 
 6405      00
 6406 0565 000000   		.align	2
 6407              	.LC56:
 6408 0568 52657365 		.ascii	"Reset of All the osx licenses\015\012\000"
 6408      74206F66 
 6408      20416C6C 
 6408      20746865 
 6408      206F7378 
 6409              		.align	2
 6410              	.LC57:
 6411 0588 4C696365 		.ascii	"License Write Successful\015\012\000"
 6411      6E736520 
 6411      57726974 
 6411      65205375 
 6411      63636573 
 6412              		.text
 6413              		.align	2
 6414 2df8 AFF30080 		.p2align 4,,15
 6414      AFF30080 
 6415              		.thumb
 6416              		.thumb_func
 6417              		.type	DebugConsoleCommandParsing, %function
 6418              	DebugConsoleCommandParsing:
 6419              	.LFB293:
 6420              		.loc 1 1939 0
 6421              		.cfi_startproc
 6422              		@ args = 0, pretend = 0, frame = 96
 6423              		@ frame_needed = 0, uses_anonymous_args = 0
 6424 2e00 2DE9F043 		push	{r4, r5, r6, r7, r8, r9, lr}
 6425              		.cfi_def_cfa_offset 28
 6426              		.cfi_offset 4, -28
 6427              		.cfi_offset 5, -24
 6428              		.cfi_offset 6, -20
 6429              		.cfi_offset 7, -16
 6430              		.cfi_offset 8, -12
 6431              		.cfi_offset 9, -8
 6432              		.cfi_offset 14, -4
 6433 2e04 A5B0     		sub	sp, sp, #148
 6434              		.cfi_def_cfa_offset 176
 6435 2e06 0D90     		str	r0, [sp, #52]
