ARM GAS  /tmp/cc602Zqo.s 			page 1


   1              		.syntax unified
   2              		.cpu cortex-m4
   3              		.fpu softvfp
   4              		.eabi_attribute 20, 1
   5              		.eabi_attribute 21, 1
   6              		.eabi_attribute 23, 3
   7              		.eabi_attribute 24, 1
   8              		.eabi_attribute 25, 1
   9              		.eabi_attribute 26, 1
  10              		.eabi_attribute 30, 6
  11              		.eabi_attribute 34, 1
  12              		.eabi_attribute 18, 4
  13              		.thumb
  14              		.file	"SensorTile.c"
  15              		.text
  16              	.Ltext0:
  17              		.cfi_sections	.debug_frame
  18              		.data
  19              		.align	2
  20              		.type	I2C_SENSORTILE_Timeout, %object
  21              		.size	I2C_SENSORTILE_Timeout, 4
  22              	I2C_SENSORTILE_Timeout:
  23 0000 00100000 		.word	4096
  24              		.bss
  25              		.align	2
  26              	I2C_SENSORTILE_Handle:
  27 0000 00000000 		.space	76
  27      00000000 
  27      00000000 
  27      00000000 
  27      00000000 
  28              		.align	2
  29              	SPI_Sensor_Handle:
  30 004c 00000000 		.space	100
  30      00000000 
  30      00000000 
  30      00000000 
  30      00000000 
  31              		.align	2
  32              	SPI_SD_Handle:
  33 00b0 00000000 		.space	100
  33      00000000 
  33      00000000 
  33      00000000 
  33      00000000 
  34              		.global	GPIO_PORT
  35              		.data
  36              		.align	2
  37              		.type	GPIO_PORT, %object
  38              		.size	GPIO_PORT, 8
  39              	GPIO_PORT:
  40 0004 00180048 		.word	1207965696
  41 0008 00000048 		.word	1207959552
  42              		.global	GPIO_PIN
  43              		.section	.rodata
  44              		.align	2
  45              		.type	GPIO_PIN, %object
ARM GAS  /tmp/cc602Zqo.s 			page 2


  46              		.size	GPIO_PIN, 8
  47              	GPIO_PIN:
  48 0000 00100000 		.word	4096
  49 0004 00400000 		.word	16384
  50              		.global	SpixTimeout
  51              		.data
  52              		.align	2
  53              		.type	SpixTimeout, %object
  54              		.size	SpixTimeout, 4
  55              	SpixTimeout:
  56 000c E8030000 		.word	1000
  57              		.text
  58              		.align	2
  59              		.p2align 4,,15
  60              		.global	BSP_GetVersion
  61              		.thumb
  62              		.thumb_func
  63              		.type	BSP_GetVersion, %function
  64              	BSP_GetVersion:
  65              	.LFB125:
  66              		.file 1 "../../../../../Drivers/BSP/SensorTile/SensorTile.c"
  67              		.loc 1 153 0
  68              		.cfi_startproc
  69              		@ args = 0, pretend = 0, frame = 0
  70              		@ frame_needed = 0, uses_anonymous_args = 0
  71              		@ link register save eliminated.
  72              		.loc 1 154 0
  73 0000 4FF08073 		mov	r3, #16777216
  74              		.loc 1 155 0
  75 0004 1846     		mov	r0, r3
  76 0006 7047     		bx	lr
  77              		.cfi_endproc
  78              	.LFE125:
  79              		.size	BSP_GetVersion, .-BSP_GetVersion
  80              		.align	2
  81 0008 AFF30080 		.p2align 4,,15
  81      AFF30080 
  82              		.global	BSP_LED_Init
  83              		.thumb
  84              		.thumb_func
  85              		.type	BSP_LED_Init, %function
  86              	BSP_LED_Init:
  87              	.LFB126:
  88              		.loc 1 166 0
  89              		.cfi_startproc
  90              		@ args = 0, pretend = 0, frame = 40
  91              		@ frame_needed = 0, uses_anonymous_args = 0
  92 0010 00B5     		push	{lr}
  93              		.cfi_def_cfa_offset 4
  94              		.cfi_offset 14, -4
  95 0012 8BB0     		sub	sp, sp, #44
  96              		.cfi_def_cfa_offset 48
  97 0014 0346     		mov	r3, r0
  98 0016 8DF80730 		strb	r3, [sp, #7]
  99              	.LBB6:
 100              		.loc 1 170 0
 101 001a 234B     		ldr	r3, .L6
ARM GAS  /tmp/cc602Zqo.s 			page 3


 102 001c 224A     		ldr	r2, .L6
 103 001e 926D     		ldr	r2, [r2, #88]
 104 0020 42F08052 		orr	r2, r2, #268435456
 105 0024 9A65     		str	r2, [r3, #88]
 106 0026 204B     		ldr	r3, .L6
 107 0028 9B6D     		ldr	r3, [r3, #88]
 108 002a 03F08053 		and	r3, r3, #268435456
 109 002e 0493     		str	r3, [sp, #16]
 110 0030 049B     		ldr	r3, [sp, #16]
 111              	.LBE6:
 112              		.loc 1 171 0
 113 0032 FFF7FEFF 		bl	HAL_PWREx_EnableVddIO2
 114              		.loc 1 174 0
 115 0036 9DF80730 		ldrb	r3, [sp, #7]	@ zero_extendqisi2
 116 003a 002B     		cmp	r3, #0
 117 003c 0BD1     		bne	.L4
 118              	.LBB7:
 119              		.loc 1 174 0 is_stmt 0 discriminator 1
 120 003e 1A4B     		ldr	r3, .L6
 121 0040 194A     		ldr	r2, .L6
 122 0042 D26C     		ldr	r2, [r2, #76]
 123 0044 42F04002 		orr	r2, r2, #64
 124 0048 DA64     		str	r2, [r3, #76]
 125 004a 174B     		ldr	r3, .L6
 126 004c DB6C     		ldr	r3, [r3, #76]
 127 004e 03F04003 		and	r3, r3, #64
 128 0052 0393     		str	r3, [sp, #12]
 129 0054 039B     		ldr	r3, [sp, #12]
 130              	.L4:
 131              	.LBE7:
 132              		.loc 1 174 0 discriminator 2
 133 0056 9DF80730 		ldrb	r3, [sp, #7]	@ zero_extendqisi2
 134 005a 012B     		cmp	r3, #1
 135 005c 0BD1     		bne	.L5
 136              	.LBB8:
 137              		.loc 1 174 0 discriminator 1
 138 005e 124B     		ldr	r3, .L6
 139 0060 114A     		ldr	r2, .L6
 140 0062 D26C     		ldr	r2, [r2, #76]
 141 0064 42F00102 		orr	r2, r2, #1
 142 0068 DA64     		str	r2, [r3, #76]
 143 006a 0F4B     		ldr	r3, .L6
 144 006c DB6C     		ldr	r3, [r3, #76]
 145 006e 03F00103 		and	r3, r3, #1
 146 0072 0293     		str	r3, [sp, #8]
 147 0074 029B     		ldr	r3, [sp, #8]
 148              	.L5:
 149              	.LBE8:
 150              		.loc 1 177 0 is_stmt 1
 151 0076 9DF80720 		ldrb	r2, [sp, #7]	@ zero_extendqisi2
 152 007a 0C4B     		ldr	r3, .L6+4
 153 007c 53F82230 		ldr	r3, [r3, r2, lsl #2]
 154 0080 0593     		str	r3, [sp, #20]
 155              		.loc 1 178 0
 156 0082 0123     		movs	r3, #1
 157 0084 0693     		str	r3, [sp, #24]
 158              		.loc 1 179 0
ARM GAS  /tmp/cc602Zqo.s 			page 4


 159 0086 0023     		movs	r3, #0
 160 0088 0793     		str	r3, [sp, #28]
 161              		.loc 1 180 0
 162 008a 0223     		movs	r3, #2
 163 008c 0893     		str	r3, [sp, #32]
 164              		.loc 1 182 0
 165 008e 9DF80720 		ldrb	r2, [sp, #7]	@ zero_extendqisi2
 166 0092 074B     		ldr	r3, .L6+8
 167 0094 53F82220 		ldr	r2, [r3, r2, lsl #2]
 168 0098 05AB     		add	r3, sp, #20
 169 009a 1046     		mov	r0, r2
 170 009c 1946     		mov	r1, r3
 171 009e FFF7FEFF 		bl	HAL_GPIO_Init
 172              		.loc 1 183 0
 173 00a2 0BB0     		add	sp, sp, #44
 174              		@ sp needed
 175 00a4 5DF804FB 		ldr	pc, [sp], #4
 176              	.L7:
 177              		.align	2
 178              	.L6:
 179 00a8 00100240 		.word	1073876992
 180 00ac 00000000 		.word	GPIO_PIN
 181 00b0 00000000 		.word	GPIO_PORT
 182              		.cfi_endproc
 183              	.LFE126:
 184              		.size	BSP_LED_Init, .-BSP_LED_Init
 185              		.align	2
 186 00b4 AFF30080 		.p2align 4,,15
 186      AFF30080 
 186      AFF30080 
 187              		.global	BSP_LED_DeInit
 188              		.thumb
 189              		.thumb_func
 190              		.type	BSP_LED_DeInit, %function
 191              	BSP_LED_DeInit:
 192              	.LFB127:
 193              		.loc 1 198 0
 194              		.cfi_startproc
 195              		@ args = 0, pretend = 0, frame = 8
 196              		@ frame_needed = 0, uses_anonymous_args = 0
 197              		@ link register save eliminated.
 198 00c0 82B0     		sub	sp, sp, #8
 199              		.cfi_def_cfa_offset 8
 200 00c2 0346     		mov	r3, r0
 201 00c4 8DF80730 		strb	r3, [sp, #7]
 202              		.loc 1 200 0
 203 00c8 02B0     		add	sp, sp, #8
 204              		@ sp needed
 205 00ca 7047     		bx	lr
 206              		.cfi_endproc
 207              	.LFE127:
 208              		.size	BSP_LED_DeInit, .-BSP_LED_DeInit
 209              		.align	2
 210 00cc AFF30080 		.p2align 4,,15
 211              		.global	BSP_LED_On
 212              		.thumb
 213              		.thumb_func
ARM GAS  /tmp/cc602Zqo.s 			page 5


 214              		.type	BSP_LED_On, %function
 215              	BSP_LED_On:
 216              	.LFB128:
 217              		.loc 1 213 0
 218              		.cfi_startproc
 219              		@ args = 0, pretend = 0, frame = 8
 220              		@ frame_needed = 0, uses_anonymous_args = 0
 221 00d0 00B5     		push	{lr}
 222              		.cfi_def_cfa_offset 4
 223              		.cfi_offset 14, -4
 224 00d2 83B0     		sub	sp, sp, #12
 225              		.cfi_def_cfa_offset 16
 226 00d4 0346     		mov	r3, r0
 227 00d6 8DF80730 		strb	r3, [sp, #7]
 228              		.loc 1 214 0
 229 00da 9DF80730 		ldrb	r3, [sp, #7]	@ zero_extendqisi2
 230 00de 002B     		cmp	r3, #0
 231 00e0 10D1     		bne	.L10
 232              		.loc 1 216 0
 233 00e2 9DF80720 		ldrb	r2, [sp, #7]	@ zero_extendqisi2
 234 00e6 134B     		ldr	r3, .L12
 235 00e8 53F82220 		ldr	r2, [r3, r2, lsl #2]
 236 00ec 9DF80710 		ldrb	r1, [sp, #7]	@ zero_extendqisi2
 237 00f0 114B     		ldr	r3, .L12+4
 238 00f2 53F82130 		ldr	r3, [r3, r1, lsl #2]
 239 00f6 9BB2     		uxth	r3, r3
 240 00f8 1046     		mov	r0, r2
 241 00fa 1946     		mov	r1, r3
 242 00fc 0122     		movs	r2, #1
 243 00fe FFF7FEFF 		bl	HAL_GPIO_WritePin
 244 0102 13E0     		b	.L9
 245              	.L10:
 246              		.loc 1 218 0
 247 0104 9DF80730 		ldrb	r3, [sp, #7]	@ zero_extendqisi2
 248 0108 012B     		cmp	r3, #1
 249 010a 0FD1     		bne	.L9
 250              		.loc 1 220 0
 251 010c 9DF80720 		ldrb	r2, [sp, #7]	@ zero_extendqisi2
 252 0110 084B     		ldr	r3, .L12
 253 0112 53F82220 		ldr	r2, [r3, r2, lsl #2]
 254 0116 9DF80710 		ldrb	r1, [sp, #7]	@ zero_extendqisi2
 255 011a 074B     		ldr	r3, .L12+4
 256 011c 53F82130 		ldr	r3, [r3, r1, lsl #2]
 257 0120 9BB2     		uxth	r3, r3
 258 0122 1046     		mov	r0, r2
 259 0124 1946     		mov	r1, r3
 260 0126 0022     		movs	r2, #0
 261 0128 FFF7FEFF 		bl	HAL_GPIO_WritePin
 262              	.L9:
 263              		.loc 1 222 0
 264 012c 03B0     		add	sp, sp, #12
 265              		@ sp needed
 266 012e 5DF804FB 		ldr	pc, [sp], #4
 267              	.L13:
 268 0132 00BF     		.align	2
 269              	.L12:
 270 0134 00000000 		.word	GPIO_PORT
ARM GAS  /tmp/cc602Zqo.s 			page 6


 271 0138 00000000 		.word	GPIO_PIN
 272              		.cfi_endproc
 273              	.LFE128:
 274              		.size	BSP_LED_On, .-BSP_LED_On
 275              		.align	2
 276 013c AFF30080 		.p2align 4,,15
 277              		.global	BSP_LED_Off
 278              		.thumb
 279              		.thumb_func
 280              		.type	BSP_LED_Off, %function
 281              	BSP_LED_Off:
 282              	.LFB129:
 283              		.loc 1 235 0
 284              		.cfi_startproc
 285              		@ args = 0, pretend = 0, frame = 8
 286              		@ frame_needed = 0, uses_anonymous_args = 0
 287 0140 00B5     		push	{lr}
 288              		.cfi_def_cfa_offset 4
 289              		.cfi_offset 14, -4
 290 0142 83B0     		sub	sp, sp, #12
 291              		.cfi_def_cfa_offset 16
 292 0144 0346     		mov	r3, r0
 293 0146 8DF80730 		strb	r3, [sp, #7]
 294              		.loc 1 236 0
 295 014a 9DF80730 		ldrb	r3, [sp, #7]	@ zero_extendqisi2
 296 014e 002B     		cmp	r3, #0
 297 0150 10D1     		bne	.L15
 298              		.loc 1 238 0
 299 0152 9DF80720 		ldrb	r2, [sp, #7]	@ zero_extendqisi2
 300 0156 134B     		ldr	r3, .L17
 301 0158 53F82220 		ldr	r2, [r3, r2, lsl #2]
 302 015c 9DF80710 		ldrb	r1, [sp, #7]	@ zero_extendqisi2
 303 0160 114B     		ldr	r3, .L17+4
 304 0162 53F82130 		ldr	r3, [r3, r1, lsl #2]
 305 0166 9BB2     		uxth	r3, r3
 306 0168 1046     		mov	r0, r2
 307 016a 1946     		mov	r1, r3
 308 016c 0022     		movs	r2, #0
 309 016e FFF7FEFF 		bl	HAL_GPIO_WritePin
 310 0172 13E0     		b	.L14
 311              	.L15:
 312              		.loc 1 240 0
 313 0174 9DF80730 		ldrb	r3, [sp, #7]	@ zero_extendqisi2
 314 0178 012B     		cmp	r3, #1
 315 017a 0FD1     		bne	.L14
 316              		.loc 1 242 0
 317 017c 9DF80720 		ldrb	r2, [sp, #7]	@ zero_extendqisi2
 318 0180 084B     		ldr	r3, .L17
 319 0182 53F82220 		ldr	r2, [r3, r2, lsl #2]
 320 0186 9DF80710 		ldrb	r1, [sp, #7]	@ zero_extendqisi2
 321 018a 074B     		ldr	r3, .L17+4
 322 018c 53F82130 		ldr	r3, [r3, r1, lsl #2]
 323 0190 9BB2     		uxth	r3, r3
 324 0192 1046     		mov	r0, r2
 325 0194 1946     		mov	r1, r3
 326 0196 0122     		movs	r2, #1
 327 0198 FFF7FEFF 		bl	HAL_GPIO_WritePin
ARM GAS  /tmp/cc602Zqo.s 			page 7


 328              	.L14:
 329              		.loc 1 244 0
 330 019c 03B0     		add	sp, sp, #12
 331              		@ sp needed
 332 019e 5DF804FB 		ldr	pc, [sp], #4
 333              	.L18:
 334 01a2 00BF     		.align	2
 335              	.L17:
 336 01a4 00000000 		.word	GPIO_PORT
 337 01a8 00000000 		.word	GPIO_PIN
 338              		.cfi_endproc
 339              	.LFE129:
 340              		.size	BSP_LED_Off, .-BSP_LED_Off
 341              		.align	2
 342 01ac AFF30080 		.p2align 4,,15
 343              		.global	BSP_LED_Toggle
 344              		.thumb
 345              		.thumb_func
 346              		.type	BSP_LED_Toggle, %function
 347              	BSP_LED_Toggle:
 348              	.LFB130:
 349              		.loc 1 257 0
 350              		.cfi_startproc
 351              		@ args = 0, pretend = 0, frame = 8
 352              		@ frame_needed = 0, uses_anonymous_args = 0
 353 01b0 00B5     		push	{lr}
 354              		.cfi_def_cfa_offset 4
 355              		.cfi_offset 14, -4
 356 01b2 83B0     		sub	sp, sp, #12
 357              		.cfi_def_cfa_offset 16
 358 01b4 0346     		mov	r3, r0
 359 01b6 8DF80730 		strb	r3, [sp, #7]
 360              		.loc 1 258 0
 361 01ba 9DF80720 		ldrb	r2, [sp, #7]	@ zero_extendqisi2
 362 01be 084B     		ldr	r3, .L20
 363 01c0 53F82220 		ldr	r2, [r3, r2, lsl #2]
 364 01c4 9DF80710 		ldrb	r1, [sp, #7]	@ zero_extendqisi2
 365 01c8 064B     		ldr	r3, .L20+4
 366 01ca 53F82130 		ldr	r3, [r3, r1, lsl #2]
 367 01ce 9BB2     		uxth	r3, r3
 368 01d0 1046     		mov	r0, r2
 369 01d2 1946     		mov	r1, r3
 370 01d4 FFF7FEFF 		bl	HAL_GPIO_TogglePin
 371              		.loc 1 259 0
 372 01d8 03B0     		add	sp, sp, #12
 373              		@ sp needed
 374 01da 5DF804FB 		ldr	pc, [sp], #4
 375              	.L21:
 376 01de 00BF     		.align	2
 377              	.L20:
 378 01e0 00000000 		.word	GPIO_PORT
 379 01e4 00000000 		.word	GPIO_PIN
 380              		.cfi_endproc
 381              	.LFE130:
 382              		.size	BSP_LED_Toggle, .-BSP_LED_Toggle
 383              		.align	2
 384 01e8 AFF30080 		.p2align 4,,15
ARM GAS  /tmp/cc602Zqo.s 			page 8


 384      AFF30080 
 385              		.global	Sensor_IO_I2C_Init
 386              		.thumb
 387              		.thumb_func
 388              		.type	Sensor_IO_I2C_Init, %function
 389              	Sensor_IO_I2C_Init:
 390              	.LFB131:
 391              		.loc 1 268 0
 392              		.cfi_startproc
 393              		@ args = 0, pretend = 0, frame = 0
 394              		@ frame_needed = 0, uses_anonymous_args = 0
 395 01f0 08B5     		push	{r3, lr}
 396              		.cfi_def_cfa_offset 8
 397              		.cfi_offset 3, -8
 398              		.cfi_offset 14, -4
 399              		.loc 1 269 0
 400 01f2 00F00DFC 		bl	I2C_SENSORTILE_Init
 401 01f6 0346     		mov	r3, r0
 402 01f8 002B     		cmp	r3, #0
 403 01fa 01D0     		beq	.L23
 404              		.loc 1 271 0
 405 01fc 0123     		movs	r3, #1
 406 01fe 00E0     		b	.L24
 407              	.L23:
 408              		.loc 1 275 0
 409 0200 0023     		movs	r3, #0
 410              	.L24:
 411              		.loc 1 277 0
 412 0202 1846     		mov	r0, r3
 413 0204 08BD     		pop	{r3, pc}
 414              		.cfi_endproc
 415              	.LFE131:
 416              		.size	Sensor_IO_I2C_Init, .-Sensor_IO_I2C_Init
 417 0206 00BF     		.align	2
 418 0208 AFF30080 		.p2align 4,,15
 418      AFF30080 
 419              		.global	Sensor_IO_SPI_Init
 420              		.thumb
 421              		.thumb_func
 422              		.type	Sensor_IO_SPI_Init, %function
 423              	Sensor_IO_SPI_Init:
 424              	.LFB132:
 425              		.loc 1 287 0
 426              		.cfi_startproc
 427              		@ args = 0, pretend = 0, frame = 32
 428              		@ frame_needed = 0, uses_anonymous_args = 0
 429 0210 00B5     		push	{lr}
 430              		.cfi_def_cfa_offset 4
 431              		.cfi_offset 14, -4
 432 0212 89B0     		sub	sp, sp, #36
 433              		.cfi_def_cfa_offset 40
 434              		.loc 1 290 0
 435 0214 3E48     		ldr	r0, .L28
 436 0216 FFF7FEFF 		bl	HAL_SPI_GetState
 437 021a 0346     		mov	r3, r0
 438 021c 002B     		cmp	r3, #0
 439 021e 72D1     		bne	.L26
ARM GAS  /tmp/cc602Zqo.s 			page 9


 440              	.LBB9:
 441              		.loc 1 292 0
 442 0220 3C4B     		ldr	r3, .L28+4
 443 0222 3C4A     		ldr	r2, .L28+4
 444 0224 926D     		ldr	r2, [r2, #88]
 445 0226 42F48042 		orr	r2, r2, #16384
 446 022a 9A65     		str	r2, [r3, #88]
 447 022c 394B     		ldr	r3, .L28+4
 448 022e 9B6D     		ldr	r3, [r3, #88]
 449 0230 03F48043 		and	r3, r3, #16384
 450 0234 0293     		str	r3, [sp, #8]
 451 0236 029B     		ldr	r3, [sp, #8]
 452              	.LBE9:
 453              	.LBB10:
 454              		.loc 1 293 0
 455 0238 364B     		ldr	r3, .L28+4
 456 023a 364A     		ldr	r2, .L28+4
 457 023c D26C     		ldr	r2, [r2, #76]
 458 023e 42F00202 		orr	r2, r2, #2
 459 0242 DA64     		str	r2, [r3, #76]
 460 0244 334B     		ldr	r3, .L28+4
 461 0246 DB6C     		ldr	r3, [r3, #76]
 462 0248 03F00203 		and	r3, r3, #2
 463 024c 0193     		str	r3, [sp, #4]
 464 024e 019B     		ldr	r3, [sp, #4]
 465              	.LBE10:
 466              		.loc 1 295 0
 467 0250 4FF40043 		mov	r3, #32768
 468 0254 0393     		str	r3, [sp, #12]
 469              		.loc 1 296 0
 470 0256 0223     		movs	r3, #2
 471 0258 0493     		str	r3, [sp, #16]
 472              		.loc 1 297 0
 473 025a 0123     		movs	r3, #1
 474 025c 0593     		str	r3, [sp, #20]
 475              		.loc 1 298 0
 476 025e 0323     		movs	r3, #3
 477 0260 0693     		str	r3, [sp, #24]
 478              		.loc 1 299 0
 479 0262 0523     		movs	r3, #5
 480 0264 0793     		str	r3, [sp, #28]
 481              		.loc 1 300 0
 482 0266 03AB     		add	r3, sp, #12
 483 0268 2B48     		ldr	r0, .L28+8
 484 026a 1946     		mov	r1, r3
 485 026c FFF7FEFF 		bl	HAL_GPIO_Init
 486              		.loc 1 302 0
 487 0270 4FF40053 		mov	r3, #8192
 488 0274 0393     		str	r3, [sp, #12]
 489              		.loc 1 303 0
 490 0276 0223     		movs	r3, #2
 491 0278 0593     		str	r3, [sp, #20]
 492              		.loc 1 304 0
 493 027a 03AB     		add	r3, sp, #12
 494 027c 2648     		ldr	r0, .L28+8
 495 027e 1946     		mov	r1, r3
 496 0280 FFF7FEFF 		bl	HAL_GPIO_Init
ARM GAS  /tmp/cc602Zqo.s 			page 10


 497              		.loc 1 306 0
 498 0284 224B     		ldr	r3, .L28
 499 0286 254A     		ldr	r2, .L28+12
 500 0288 1A60     		str	r2, [r3]
 501              		.loc 1 307 0
 502 028a 214B     		ldr	r3, .L28
 503 028c 4FF48272 		mov	r2, #260
 504 0290 5A60     		str	r2, [r3, #4]
 505              		.loc 1 308 0
 506 0292 1F4B     		ldr	r3, .L28
 507 0294 4FF40042 		mov	r2, #32768
 508 0298 9A60     		str	r2, [r3, #8]
 509              		.loc 1 309 0
 510 029a 1D4B     		ldr	r3, .L28
 511 029c 4FF4E062 		mov	r2, #1792
 512 02a0 DA60     		str	r2, [r3, #12]
 513              		.loc 1 310 0
 514 02a2 1B4B     		ldr	r3, .L28
 515 02a4 0022     		movs	r2, #0
 516 02a6 1A61     		str	r2, [r3, #16]
 517              		.loc 1 311 0
 518 02a8 194B     		ldr	r3, .L28
 519 02aa 0022     		movs	r2, #0
 520 02ac 5A61     		str	r2, [r3, #20]
 521              		.loc 1 312 0
 522 02ae 184B     		ldr	r3, .L28
 523 02b0 4FF40072 		mov	r2, #512
 524 02b4 9A61     		str	r2, [r3, #24]
 525              		.loc 1 313 0
 526 02b6 164B     		ldr	r3, .L28
 527 02b8 2022     		movs	r2, #32
 528 02ba DA61     		str	r2, [r3, #28]
 529              		.loc 1 314 0
 530 02bc 144B     		ldr	r3, .L28
 531 02be 0022     		movs	r2, #0
 532 02c0 1A62     		str	r2, [r3, #32]
 533              		.loc 1 315 0
 534 02c2 134B     		ldr	r3, .L28
 535 02c4 0022     		movs	r2, #0
 536 02c6 5A62     		str	r2, [r3, #36]
 537              		.loc 1 316 0
 538 02c8 114B     		ldr	r3, .L28
 539 02ca 0022     		movs	r2, #0
 540 02cc 9A62     		str	r2, [r3, #40]
 541              		.loc 1 317 0
 542 02ce 104B     		ldr	r3, .L28
 543 02d0 0722     		movs	r2, #7
 544 02d2 DA62     		str	r2, [r3, #44]
 545              		.loc 1 318 0
 546 02d4 0E4B     		ldr	r3, .L28
 547 02d6 0022     		movs	r2, #0
 548 02d8 1A63     		str	r2, [r3, #48]
 549              		.loc 1 319 0
 550 02da 0D4B     		ldr	r3, .L28
 551 02dc 0022     		movs	r2, #0
 552 02de 5A63     		str	r2, [r3, #52]
 553              		.loc 1 320 0
ARM GAS  /tmp/cc602Zqo.s 			page 11


 554 02e0 0B48     		ldr	r0, .L28
 555 02e2 FFF7FEFF 		bl	HAL_SPI_Init
 556              		.loc 1 322 0
 557 02e6 0A4B     		ldr	r3, .L28
 558 02e8 1B68     		ldr	r3, [r3]
 559 02ea 094A     		ldr	r2, .L28
 560 02ec 1268     		ldr	r2, [r2]
 561 02ee 1268     		ldr	r2, [r2]
 562 02f0 42F48042 		orr	r2, r2, #16384
 563 02f4 1A60     		str	r2, [r3]
 564              		.loc 1 323 0
 565 02f6 064B     		ldr	r3, .L28
 566 02f8 1B68     		ldr	r3, [r3]
 567 02fa 054A     		ldr	r2, .L28
 568 02fc 1268     		ldr	r2, [r2]
 569 02fe 1268     		ldr	r2, [r2]
 570 0300 42F04002 		orr	r2, r2, #64
 571 0304 1A60     		str	r2, [r3]
 572              	.L26:
 573              		.loc 1 325 0
 574 0306 0023     		movs	r3, #0
 575              		.loc 1 326 0
 576 0308 1846     		mov	r0, r3
 577 030a 09B0     		add	sp, sp, #36
 578              		@ sp needed
 579 030c 5DF804FB 		ldr	pc, [sp], #4
 580              	.L29:
 581              		.align	2
 582              	.L28:
 583 0310 4C000000 		.word	SPI_Sensor_Handle
 584 0314 00100240 		.word	1073876992
 585 0318 00040048 		.word	1207960576
 586 031c 00380040 		.word	1073756160
 587              		.cfi_endproc
 588              	.LFE132:
 589              		.size	Sensor_IO_SPI_Init, .-Sensor_IO_SPI_Init
 590              		.align	2
 591              		.p2align 4,,15
 592              		.global	Sensor_IO_SPI_CS_Init_All
 593              		.thumb
 594              		.thumb_func
 595              		.type	Sensor_IO_SPI_CS_Init_All, %function
 596              	Sensor_IO_SPI_CS_Init_All:
 597              	.LFB133:
 598              		.loc 1 329 0
 599              		.cfi_startproc
 600              		@ args = 0, pretend = 0, frame = 40
 601              		@ frame_needed = 0, uses_anonymous_args = 0
 602 0320 00B5     		push	{lr}
 603              		.cfi_def_cfa_offset 4
 604              		.cfi_offset 14, -4
 605 0322 8BB0     		sub	sp, sp, #44
 606              		.cfi_def_cfa_offset 48
 607              		.loc 1 332 0
 608 0324 0323     		movs	r3, #3
 609 0326 0893     		str	r3, [sp, #32]
 610              		.loc 1 333 0
ARM GAS  /tmp/cc602Zqo.s 			page 12


 611 0328 0023     		movs	r3, #0
 612 032a 0793     		str	r3, [sp, #28]
 613              		.loc 1 334 0
 614 032c 0123     		movs	r3, #1
 615 032e 0693     		str	r3, [sp, #24]
 616              	.LBB11:
 617              		.loc 1 336 0
 618 0330 344B     		ldr	r3, .L32
 619 0332 344A     		ldr	r2, .L32
 620 0334 D26C     		ldr	r2, [r2, #76]
 621 0336 42F00202 		orr	r2, r2, #2
 622 033a DA64     		str	r2, [r3, #76]
 623 033c 314B     		ldr	r3, .L32
 624 033e DB6C     		ldr	r3, [r3, #76]
 625 0340 03F00203 		and	r3, r3, #2
 626 0344 0493     		str	r3, [sp, #16]
 627 0346 049B     		ldr	r3, [sp, #16]
 628              	.LBE11:
 629              		.loc 1 337 0
 630 0348 4FF48053 		mov	r3, #4096
 631 034c 0593     		str	r3, [sp, #20]
 632              		.loc 1 338 0
 633 034e 05AB     		add	r3, sp, #20
 634 0350 2D48     		ldr	r0, .L32+4
 635 0352 1946     		mov	r1, r3
 636 0354 FFF7FEFF 		bl	HAL_GPIO_Init
 637              		.loc 1 339 0
 638 0358 2B48     		ldr	r0, .L32+4
 639 035a 4FF48051 		mov	r1, #4096
 640 035e 0122     		movs	r2, #1
 641 0360 FFF7FEFF 		bl	HAL_GPIO_WritePin
 642              	.LBB12:
 643              		.loc 1 341 0
 644 0364 274B     		ldr	r3, .L32
 645 0366 274A     		ldr	r2, .L32
 646 0368 D26C     		ldr	r2, [r2, #76]
 647 036a 42F00402 		orr	r2, r2, #4
 648 036e DA64     		str	r2, [r3, #76]
 649 0370 244B     		ldr	r3, .L32
 650 0372 DB6C     		ldr	r3, [r3, #76]
 651 0374 03F00403 		and	r3, r3, #4
 652 0378 0393     		str	r3, [sp, #12]
 653 037a 039B     		ldr	r3, [sp, #12]
 654              	.LBE12:
 655              		.loc 1 342 0
 656 037c 1023     		movs	r3, #16
 657 037e 0593     		str	r3, [sp, #20]
 658              		.loc 1 343 0
 659 0380 05AB     		add	r3, sp, #20
 660 0382 2248     		ldr	r0, .L32+8
 661 0384 1946     		mov	r1, r3
 662 0386 FFF7FEFF 		bl	HAL_GPIO_Init
 663              		.loc 1 344 0
 664 038a 2048     		ldr	r0, .L32+8
 665 038c 1021     		movs	r1, #16
 666 038e 0122     		movs	r2, #1
 667 0390 FFF7FEFF 		bl	HAL_GPIO_WritePin
ARM GAS  /tmp/cc602Zqo.s 			page 13


 668              	.LBB13:
 669              		.loc 1 346 0
 670 0394 1B4B     		ldr	r3, .L32
 671 0396 1B4A     		ldr	r2, .L32
 672 0398 D26C     		ldr	r2, [r2, #76]
 673 039a 42F00202 		orr	r2, r2, #2
 674 039e DA64     		str	r2, [r3, #76]
 675 03a0 184B     		ldr	r3, .L32
 676 03a2 DB6C     		ldr	r3, [r3, #76]
 677 03a4 03F00203 		and	r3, r3, #2
 678 03a8 0293     		str	r3, [sp, #8]
 679 03aa 029B     		ldr	r3, [sp, #8]
 680              	.LBE13:
 681              		.loc 1 347 0
 682 03ac 0223     		movs	r3, #2
 683 03ae 0593     		str	r3, [sp, #20]
 684              		.loc 1 348 0
 685 03b0 05AB     		add	r3, sp, #20
 686 03b2 1548     		ldr	r0, .L32+4
 687 03b4 1946     		mov	r1, r3
 688 03b6 FFF7FEFF 		bl	HAL_GPIO_Init
 689              		.loc 1 349 0
 690 03ba 1348     		ldr	r0, .L32+4
 691 03bc 0221     		movs	r1, #2
 692 03be 0122     		movs	r2, #1
 693 03c0 FFF7FEFF 		bl	HAL_GPIO_WritePin
 694              	.LBB14:
 695              		.loc 1 351 0
 696 03c4 0F4B     		ldr	r3, .L32
 697 03c6 0F4A     		ldr	r2, .L32
 698 03c8 D26C     		ldr	r2, [r2, #76]
 699 03ca 42F00102 		orr	r2, r2, #1
 700 03ce DA64     		str	r2, [r3, #76]
 701 03d0 0C4B     		ldr	r3, .L32
 702 03d2 DB6C     		ldr	r3, [r3, #76]
 703 03d4 03F00103 		and	r3, r3, #1
 704 03d8 0193     		str	r3, [sp, #4]
 705 03da 019B     		ldr	r3, [sp, #4]
 706              	.LBE14:
 707              		.loc 1 352 0
 708 03dc 0823     		movs	r3, #8
 709 03de 0593     		str	r3, [sp, #20]
 710              		.loc 1 353 0
 711 03e0 05AB     		add	r3, sp, #20
 712 03e2 4FF09040 		mov	r0, #1207959552
 713 03e6 1946     		mov	r1, r3
 714 03e8 FFF7FEFF 		bl	HAL_GPIO_Init
 715              		.loc 1 354 0
 716 03ec 4FF09040 		mov	r0, #1207959552
 717 03f0 0821     		movs	r1, #8
 718 03f2 0122     		movs	r2, #1
 719 03f4 FFF7FEFF 		bl	HAL_GPIO_WritePin
 720              		.loc 1 356 0
 721 03f8 0023     		movs	r3, #0
 722              		.loc 1 357 0
 723 03fa 1846     		mov	r0, r3
 724 03fc 0BB0     		add	sp, sp, #44
ARM GAS  /tmp/cc602Zqo.s 			page 14


 725              		@ sp needed
 726 03fe 5DF804FB 		ldr	pc, [sp], #4
 727              	.L33:
 728 0402 00BF     		.align	2
 729              	.L32:
 730 0404 00100240 		.word	1073876992
 731 0408 00040048 		.word	1207960576
 732 040c 00080048 		.word	1207961600
 733              		.cfi_endproc
 734              	.LFE133:
 735              		.size	Sensor_IO_SPI_CS_Init_All, .-Sensor_IO_SPI_CS_Init_All
 736              		.align	2
 737              		.p2align 4,,15
 738              		.global	Sensor_IO_SPI_CS_Init
 739              		.thumb
 740              		.thumb_func
 741              		.type	Sensor_IO_SPI_CS_Init, %function
 742              	Sensor_IO_SPI_CS_Init:
 743              	.LFB134:
 744              		.loc 1 360 0
 745              		.cfi_startproc
 746              		@ args = 0, pretend = 0, frame = 48
 747              		@ frame_needed = 0, uses_anonymous_args = 0
 748 0410 00B5     		push	{lr}
 749              		.cfi_def_cfa_offset 4
 750              		.cfi_offset 14, -4
 751 0412 8DB0     		sub	sp, sp, #52
 752              		.cfi_def_cfa_offset 56
 753 0414 0190     		str	r0, [sp, #4]
 754              		.loc 1 362 0
 755 0416 019B     		ldr	r3, [sp, #4]
 756 0418 0B93     		str	r3, [sp, #44]
 757              		.loc 1 364 0
 758 041a 0323     		movs	r3, #3
 759 041c 0993     		str	r3, [sp, #36]
 760              		.loc 1 365 0
 761 041e 0023     		movs	r3, #0
 762 0420 0893     		str	r3, [sp, #32]
 763              		.loc 1 366 0
 764 0422 0123     		movs	r3, #1
 765 0424 0793     		str	r3, [sp, #28]
 766              		.loc 1 368 0
 767 0426 0B9B     		ldr	r3, [sp, #44]
 768 0428 DB78     		ldrb	r3, [r3, #3]	@ zero_extendqisi2
 769 042a 032B     		cmp	r3, #3
 770 042c 72D8     		bhi	.L35
 771 042e 01A2     		adr	r2, .L37
 772 0430 52F823F0 		ldr	pc, [r2, r3, lsl #2]
 773              		.p2align 2
 774              	.L37:
 775 0434 45040000 		.word	.L36+1
 776 0438 7B040000 		.word	.L38+1
 777 043c AD040000 		.word	.L39+1
 778 0440 DF040000 		.word	.L40+1
 779              		.p2align 1
 780              	.L36:
 781              	.LBB15:
ARM GAS  /tmp/cc602Zqo.s 			page 15


 782              		.loc 1 371 0
 783 0444 374B     		ldr	r3, .L44
 784 0446 374A     		ldr	r2, .L44
 785 0448 D26C     		ldr	r2, [r2, #76]
 786 044a 42F00202 		orr	r2, r2, #2
 787 044e DA64     		str	r2, [r3, #76]
 788 0450 344B     		ldr	r3, .L44
 789 0452 DB6C     		ldr	r3, [r3, #76]
 790 0454 03F00203 		and	r3, r3, #2
 791 0458 0593     		str	r3, [sp, #20]
 792 045a 059B     		ldr	r3, [sp, #20]
 793              	.LBE15:
 794              		.loc 1 372 0
 795 045c 4FF48053 		mov	r3, #4096
 796 0460 0693     		str	r3, [sp, #24]
 797              		.loc 1 373 0
 798 0462 06AB     		add	r3, sp, #24
 799 0464 3048     		ldr	r0, .L44+4
 800 0466 1946     		mov	r1, r3
 801 0468 FFF7FEFF 		bl	HAL_GPIO_Init
 802              		.loc 1 374 0
 803 046c 2E48     		ldr	r0, .L44+4
 804 046e 4FF48051 		mov	r1, #4096
 805 0472 0122     		movs	r2, #1
 806 0474 FFF7FEFF 		bl	HAL_GPIO_WritePin
 807              		.loc 1 375 0
 808 0478 4EE0     		b	.L41
 809              	.L38:
 810              	.LBB16:
 811              		.loc 1 377 0
 812 047a 2A4B     		ldr	r3, .L44
 813 047c 294A     		ldr	r2, .L44
 814 047e D26C     		ldr	r2, [r2, #76]
 815 0480 42F00402 		orr	r2, r2, #4
 816 0484 DA64     		str	r2, [r3, #76]
 817 0486 274B     		ldr	r3, .L44
 818 0488 DB6C     		ldr	r3, [r3, #76]
 819 048a 03F00403 		and	r3, r3, #4
 820 048e 0493     		str	r3, [sp, #16]
 821 0490 049B     		ldr	r3, [sp, #16]
 822              	.LBE16:
 823              		.loc 1 378 0
 824 0492 1023     		movs	r3, #16
 825 0494 0693     		str	r3, [sp, #24]
 826              		.loc 1 379 0
 827 0496 06AB     		add	r3, sp, #24
 828 0498 2448     		ldr	r0, .L44+8
 829 049a 1946     		mov	r1, r3
 830 049c FFF7FEFF 		bl	HAL_GPIO_Init
 831              		.loc 1 380 0
 832 04a0 2248     		ldr	r0, .L44+8
 833 04a2 1021     		movs	r1, #16
 834 04a4 0122     		movs	r2, #1
 835 04a6 FFF7FEFF 		bl	HAL_GPIO_WritePin
 836              		.loc 1 381 0
 837 04aa 35E0     		b	.L41
 838              	.L39:
ARM GAS  /tmp/cc602Zqo.s 			page 16


 839              	.LBB17:
 840              		.loc 1 383 0
 841 04ac 1D4B     		ldr	r3, .L44
 842 04ae 1D4A     		ldr	r2, .L44
 843 04b0 D26C     		ldr	r2, [r2, #76]
 844 04b2 42F00202 		orr	r2, r2, #2
 845 04b6 DA64     		str	r2, [r3, #76]
 846 04b8 1A4B     		ldr	r3, .L44
 847 04ba DB6C     		ldr	r3, [r3, #76]
 848 04bc 03F00203 		and	r3, r3, #2
 849 04c0 0393     		str	r3, [sp, #12]
 850 04c2 039B     		ldr	r3, [sp, #12]
 851              	.LBE17:
 852              		.loc 1 384 0
 853 04c4 0223     		movs	r3, #2
 854 04c6 0693     		str	r3, [sp, #24]
 855              		.loc 1 385 0
 856 04c8 06AB     		add	r3, sp, #24
 857 04ca 1748     		ldr	r0, .L44+4
 858 04cc 1946     		mov	r1, r3
 859 04ce FFF7FEFF 		bl	HAL_GPIO_Init
 860              		.loc 1 386 0
 861 04d2 1548     		ldr	r0, .L44+4
 862 04d4 0221     		movs	r1, #2
 863 04d6 0122     		movs	r2, #1
 864 04d8 FFF7FEFF 		bl	HAL_GPIO_WritePin
 865              		.loc 1 387 0
 866 04dc 1CE0     		b	.L41
 867              	.L40:
 868              	.LBB18:
 869              		.loc 1 389 0
 870 04de 114B     		ldr	r3, .L44
 871 04e0 104A     		ldr	r2, .L44
 872 04e2 D26C     		ldr	r2, [r2, #76]
 873 04e4 42F00102 		orr	r2, r2, #1
 874 04e8 DA64     		str	r2, [r3, #76]
 875 04ea 0E4B     		ldr	r3, .L44
 876 04ec DB6C     		ldr	r3, [r3, #76]
 877 04ee 03F00103 		and	r3, r3, #1
 878 04f2 0293     		str	r3, [sp, #8]
 879 04f4 029B     		ldr	r3, [sp, #8]
 880              	.LBE18:
 881              		.loc 1 390 0
 882 04f6 0823     		movs	r3, #8
 883 04f8 0693     		str	r3, [sp, #24]
 884              		.loc 1 391 0
 885 04fa 06AB     		add	r3, sp, #24
 886 04fc 4FF09040 		mov	r0, #1207959552
 887 0500 1946     		mov	r1, r3
 888 0502 FFF7FEFF 		bl	HAL_GPIO_Init
 889              		.loc 1 392 0
 890 0506 4FF09040 		mov	r0, #1207959552
 891 050a 0821     		movs	r1, #8
 892 050c 0122     		movs	r2, #1
 893 050e FFF7FEFF 		bl	HAL_GPIO_WritePin
 894              		.loc 1 393 0
 895 0512 01E0     		b	.L41
ARM GAS  /tmp/cc602Zqo.s 			page 17


 896              	.L35:
 897              		.loc 1 395 0
 898 0514 0323     		movs	r3, #3
 899 0516 00E0     		b	.L43
 900              	.L41:
 901              		.loc 1 397 0
 902 0518 0023     		movs	r3, #0
 903              	.L43:
 904              		.loc 1 398 0
 905 051a 1846     		mov	r0, r3
 906 051c 0DB0     		add	sp, sp, #52
 907              		@ sp needed
 908 051e 5DF804FB 		ldr	pc, [sp], #4
 909              	.L45:
 910 0522 00BF     		.align	2
 911              	.L44:
 912 0524 00100240 		.word	1073876992
 913 0528 00040048 		.word	1207960576
 914 052c 00080048 		.word	1207961600
 915              		.cfi_endproc
 916              	.LFE134:
 917              		.size	Sensor_IO_SPI_CS_Init, .-Sensor_IO_SPI_CS_Init
 918              		.align	2
 919              		.p2align 4,,15
 920              		.global	Sensor_IO_Write
 921              		.thumb
 922              		.thumb_func
 923              		.type	Sensor_IO_Write, %function
 924              	Sensor_IO_Write:
 925              	.LFB135:
 926              		.loc 1 410 0
 927              		.cfi_startproc
 928              		@ args = 0, pretend = 0, frame = 24
 929              		@ frame_needed = 0, uses_anonymous_args = 0
 930 0530 00B5     		push	{lr}
 931              		.cfi_def_cfa_offset 4
 932              		.cfi_offset 14, -4
 933 0532 87B0     		sub	sp, sp, #28
 934              		.cfi_def_cfa_offset 32
 935 0534 0390     		str	r0, [sp, #12]
 936 0536 0192     		str	r2, [sp, #4]
 937 0538 0A46     		mov	r2, r1
 938 053a 8DF80B20 		strb	r2, [sp, #11]
 939 053e ADF80830 		strh	r3, [sp, #8]	@ movhi
 940              		.loc 1 412 0
 941 0542 039B     		ldr	r3, [sp, #12]
 942 0544 0593     		str	r3, [sp, #20]
 943              		.loc 1 414 0
 944 0546 059B     		ldr	r3, [sp, #20]
 945 0548 5B78     		ldrb	r3, [r3, #1]	@ zero_extendqisi2
 946 054a 002B     		cmp	r3, #0
 947 054c 18D1     		bne	.L47
 948              		.loc 1 417 0
 949 054e BDF80830 		ldrh	r3, [sp, #8]
 950 0552 012B     		cmp	r3, #1
 951 0554 09D9     		bls	.L48
 952              		.loc 1 418 0
ARM GAS  /tmp/cc602Zqo.s 			page 18


 953 0556 059B     		ldr	r3, [sp, #20]
 954 0558 1B78     		ldrb	r3, [r3]	@ zero_extendqisi2
 955 055a BC2B     		cmp	r3, #188
 956 055c 05D1     		bne	.L48
 957              		.loc 1 419 0
 958 055e 9DF80B30 		ldrb	r3, [sp, #11]
 959 0562 63F07F03 		orn	r3, r3, #127
 960 0566 8DF80B30 		strb	r3, [sp, #11]
 961              	.L48:
 962              		.loc 1 421 0
 963 056a 9DF80B20 		ldrb	r2, [sp, #11]	@ zero_extendqisi2
 964 056e BDF80830 		ldrh	r3, [sp, #8]
 965 0572 0398     		ldr	r0, [sp, #12]
 966 0574 1146     		mov	r1, r2
 967 0576 019A     		ldr	r2, [sp, #4]
 968 0578 FFF7FEFF 		bl	Sensor_IO_I2C_Write
 969 057c 0346     		mov	r3, r0
 970 057e 20E0     		b	.L49
 971              	.L47:
 972              		.loc 1 424 0
 973 0580 059B     		ldr	r3, [sp, #20]
 974 0582 5B78     		ldrb	r3, [r3, #1]	@ zero_extendqisi2
 975 0584 012B     		cmp	r3, #1
 976 0586 1BD1     		bne	.L50
 977              		.loc 1 426 0
 978 0588 BDF80830 		ldrh	r3, [sp, #8]
 979 058c 012B     		cmp	r3, #1
 980 058e 0CD9     		bls	.L51
 981              		.loc 1 427 0
 982 0590 059B     		ldr	r3, [sp, #20]
 983 0592 1B78     		ldrb	r3, [r3]	@ zero_extendqisi2
 984 0594 332B     		cmp	r3, #51
 985 0596 01D0     		beq	.L52
 986 0598 402B     		cmp	r3, #64
 987              		.loc 1 430 0
 988 059a 06E0     		b	.L51
 989              	.L52:
 990              		.loc 1 429 0
 991 059c 9DF80B30 		ldrb	r3, [sp, #11]
 992 05a0 43F04003 		orr	r3, r3, #64
 993 05a4 8DF80B30 		strb	r3, [sp, #11]
 994 05a8 00BF     		nop
 995              	.L51:
 996              		.loc 1 434 0
 997 05aa 9DF80B20 		ldrb	r2, [sp, #11]	@ zero_extendqisi2
 998 05ae BDF80830 		ldrh	r3, [sp, #8]
 999 05b2 0398     		ldr	r0, [sp, #12]
 1000 05b4 1146     		mov	r1, r2
 1001 05b6 019A     		ldr	r2, [sp, #4]
 1002 05b8 FFF7FEFF 		bl	Sensor_IO_SPI_Write
 1003 05bc 0346     		mov	r3, r0
 1004 05be 00E0     		b	.L49
 1005              	.L50:
 1006              		.loc 1 437 0
 1007 05c0 0123     		movs	r3, #1
 1008              	.L49:
 1009              		.loc 1 438 0
ARM GAS  /tmp/cc602Zqo.s 			page 19


 1010 05c2 1846     		mov	r0, r3
 1011 05c4 07B0     		add	sp, sp, #28
 1012              		@ sp needed
 1013 05c6 5DF804FB 		ldr	pc, [sp], #4
 1014              		.cfi_endproc
 1015              	.LFE135:
 1016              		.size	Sensor_IO_Write, .-Sensor_IO_Write
 1017 05ca 00BF     		.align	2
 1018 05cc AFF30080 		.p2align 4,,15
 1019              		.global	Sensor_IO_I2C_Write
 1020              		.thumb
 1021              		.thumb_func
 1022              		.type	Sensor_IO_I2C_Write, %function
 1023              	Sensor_IO_I2C_Write:
 1024              	.LFB136:
 1025              		.loc 1 451 0
 1026              		.cfi_startproc
 1027              		@ args = 0, pretend = 0, frame = 24
 1028              		@ frame_needed = 0, uses_anonymous_args = 0
 1029 05d0 00B5     		push	{lr}
 1030              		.cfi_def_cfa_offset 4
 1031              		.cfi_offset 14, -4
 1032 05d2 87B0     		sub	sp, sp, #28
 1033              		.cfi_def_cfa_offset 32
 1034 05d4 0390     		str	r0, [sp, #12]
 1035 05d6 0192     		str	r2, [sp, #4]
 1036 05d8 0A46     		mov	r2, r1
 1037 05da 8DF80B20 		strb	r2, [sp, #11]
 1038 05de ADF80830 		strh	r3, [sp, #8]	@ movhi
 1039              		.loc 1 452 0
 1040 05e2 039B     		ldr	r3, [sp, #12]
 1041 05e4 0593     		str	r3, [sp, #20]
 1042              		.loc 1 455 0
 1043 05e6 059B     		ldr	r3, [sp, #20]
 1044 05e8 9978     		ldrb	r1, [r3, #2]	@ zero_extendqisi2
 1045 05ea 9DF80B20 		ldrb	r2, [sp, #11]	@ zero_extendqisi2
 1046 05ee BDF80830 		ldrh	r3, [sp, #8]
 1047 05f2 0846     		mov	r0, r1
 1048 05f4 1146     		mov	r1, r2
 1049 05f6 019A     		ldr	r2, [sp, #4]
 1050 05f8 00F03AFA 		bl	I2C_SENSORTILE_WriteData
 1051 05fc 0346     		mov	r3, r0
 1052              		.loc 1 456 0
 1053 05fe 1846     		mov	r0, r3
 1054 0600 07B0     		add	sp, sp, #28
 1055              		@ sp needed
 1056 0602 5DF804FB 		ldr	pc, [sp], #4
 1057              		.cfi_endproc
 1058              	.LFE136:
 1059              		.size	Sensor_IO_I2C_Write, .-Sensor_IO_I2C_Write
 1060 0606 00BF     		.align	2
 1061 0608 AFF30080 		.p2align 4,,15
 1061      AFF30080 
 1062              		.global	Sensor_IO_Read
 1063              		.thumb
 1064              		.thumb_func
 1065              		.type	Sensor_IO_Read, %function
ARM GAS  /tmp/cc602Zqo.s 			page 20


 1066              	Sensor_IO_Read:
 1067              	.LFB137:
 1068              		.loc 1 469 0
 1069              		.cfi_startproc
 1070              		@ args = 0, pretend = 0, frame = 24
 1071              		@ frame_needed = 0, uses_anonymous_args = 0
 1072 0610 00B5     		push	{lr}
 1073              		.cfi_def_cfa_offset 4
 1074              		.cfi_offset 14, -4
 1075 0612 87B0     		sub	sp, sp, #28
 1076              		.cfi_def_cfa_offset 32
 1077 0614 0390     		str	r0, [sp, #12]
 1078 0616 0192     		str	r2, [sp, #4]
 1079 0618 0A46     		mov	r2, r1
 1080 061a 8DF80B20 		strb	r2, [sp, #11]
 1081 061e ADF80830 		strh	r3, [sp, #8]	@ movhi
 1082              		.loc 1 471 0
 1083 0622 039B     		ldr	r3, [sp, #12]
 1084 0624 0593     		str	r3, [sp, #20]
 1085              		.loc 1 473 0
 1086 0626 059B     		ldr	r3, [sp, #20]
 1087 0628 5B78     		ldrb	r3, [r3, #1]	@ zero_extendqisi2
 1088 062a 002B     		cmp	r3, #0
 1089 062c 18D1     		bne	.L57
 1090              		.loc 1 476 0
 1091 062e BDF80830 		ldrh	r3, [sp, #8]
 1092 0632 012B     		cmp	r3, #1
 1093 0634 09D9     		bls	.L58
 1094              		.loc 1 477 0
 1095 0636 059B     		ldr	r3, [sp, #20]
 1096 0638 1B78     		ldrb	r3, [r3]	@ zero_extendqisi2
 1097 063a BC2B     		cmp	r3, #188
 1098 063c 05D1     		bne	.L58
 1099              		.loc 1 478 0
 1100 063e 9DF80B30 		ldrb	r3, [sp, #11]
 1101 0642 63F07F03 		orn	r3, r3, #127
 1102 0646 8DF80B30 		strb	r3, [sp, #11]
 1103              	.L58:
 1104              		.loc 1 480 0
 1105 064a 9DF80B20 		ldrb	r2, [sp, #11]	@ zero_extendqisi2
 1106 064e BDF80830 		ldrh	r3, [sp, #8]
 1107 0652 0398     		ldr	r0, [sp, #12]
 1108 0654 1146     		mov	r1, r2
 1109 0656 019A     		ldr	r2, [sp, #4]
 1110 0658 FFF7FEFF 		bl	Sensor_IO_I2C_Read
 1111 065c 0346     		mov	r3, r0
 1112 065e 20E0     		b	.L59
 1113              	.L57:
 1114              		.loc 1 483 0
 1115 0660 059B     		ldr	r3, [sp, #20]
 1116 0662 5B78     		ldrb	r3, [r3, #1]	@ zero_extendqisi2
 1117 0664 012B     		cmp	r3, #1
 1118 0666 1BD1     		bne	.L60
 1119              		.loc 1 485 0
 1120 0668 BDF80830 		ldrh	r3, [sp, #8]
 1121 066c 012B     		cmp	r3, #1
 1122 066e 0CD9     		bls	.L61
ARM GAS  /tmp/cc602Zqo.s 			page 21


 1123              		.loc 1 486 0
 1124 0670 059B     		ldr	r3, [sp, #20]
 1125 0672 1B78     		ldrb	r3, [r3]	@ zero_extendqisi2
 1126 0674 332B     		cmp	r3, #51
 1127 0676 01D0     		beq	.L62
 1128 0678 402B     		cmp	r3, #64
 1129              		.loc 1 489 0
 1130 067a 06E0     		b	.L61
 1131              	.L62:
 1132              		.loc 1 488 0
 1133 067c 9DF80B30 		ldrb	r3, [sp, #11]
 1134 0680 43F04003 		orr	r3, r3, #64
 1135 0684 8DF80B30 		strb	r3, [sp, #11]
 1136 0688 00BF     		nop
 1137              	.L61:
 1138              		.loc 1 493 0
 1139 068a 9DF80B20 		ldrb	r2, [sp, #11]	@ zero_extendqisi2
 1140 068e BDF80830 		ldrh	r3, [sp, #8]
 1141 0692 0398     		ldr	r0, [sp, #12]
 1142 0694 1146     		mov	r1, r2
 1143 0696 019A     		ldr	r2, [sp, #4]
 1144 0698 FFF7FEFF 		bl	Sensor_IO_SPI_Read
 1145 069c 0346     		mov	r3, r0
 1146 069e 00E0     		b	.L59
 1147              	.L60:
 1148              		.loc 1 496 0
 1149 06a0 0123     		movs	r3, #1
 1150              	.L59:
 1151              		.loc 1 497 0
 1152 06a2 1846     		mov	r0, r3
 1153 06a4 07B0     		add	sp, sp, #28
 1154              		@ sp needed
 1155 06a6 5DF804FB 		ldr	pc, [sp], #4
 1156              		.cfi_endproc
 1157              	.LFE137:
 1158              		.size	Sensor_IO_Read, .-Sensor_IO_Read
 1159 06aa 00BF     		.align	2
 1160 06ac AFF30080 		.p2align 4,,15
 1161              		.global	Sensor_IO_I2C_Read
 1162              		.thumb
 1163              		.thumb_func
 1164              		.type	Sensor_IO_I2C_Read, %function
 1165              	Sensor_IO_I2C_Read:
 1166              	.LFB138:
 1167              		.loc 1 510 0
 1168              		.cfi_startproc
 1169              		@ args = 0, pretend = 0, frame = 24
 1170              		@ frame_needed = 0, uses_anonymous_args = 0
 1171 06b0 00B5     		push	{lr}
 1172              		.cfi_def_cfa_offset 4
 1173              		.cfi_offset 14, -4
 1174 06b2 87B0     		sub	sp, sp, #28
 1175              		.cfi_def_cfa_offset 32
 1176 06b4 0390     		str	r0, [sp, #12]
 1177 06b6 0192     		str	r2, [sp, #4]
 1178 06b8 0A46     		mov	r2, r1
 1179 06ba 8DF80B20 		strb	r2, [sp, #11]
ARM GAS  /tmp/cc602Zqo.s 			page 22


 1180 06be ADF80830 		strh	r3, [sp, #8]	@ movhi
 1181              		.loc 1 512 0
 1182 06c2 039B     		ldr	r3, [sp, #12]
 1183 06c4 0593     		str	r3, [sp, #20]
 1184              		.loc 1 515 0
 1185 06c6 059B     		ldr	r3, [sp, #20]
 1186 06c8 9978     		ldrb	r1, [r3, #2]	@ zero_extendqisi2
 1187 06ca 9DF80B20 		ldrb	r2, [sp, #11]	@ zero_extendqisi2
 1188 06ce BDF80830 		ldrh	r3, [sp, #8]
 1189 06d2 0846     		mov	r0, r1
 1190 06d4 1146     		mov	r1, r2
 1191 06d6 019A     		ldr	r2, [sp, #4]
 1192 06d8 00F00AFA 		bl	I2C_SENSORTILE_ReadData
 1193 06dc 0346     		mov	r3, r0
 1194              		.loc 1 516 0
 1195 06de 1846     		mov	r0, r3
 1196 06e0 07B0     		add	sp, sp, #28
 1197              		@ sp needed
 1198 06e2 5DF804FB 		ldr	pc, [sp], #4
 1199              		.cfi_endproc
 1200              	.LFE138:
 1201              		.size	Sensor_IO_I2C_Read, .-Sensor_IO_I2C_Read
 1202 06e6 00BF     		.align	2
 1203 06e8 AFF30080 		.p2align 4,,15
 1203      AFF30080 
 1204              		.global	Sensor_IO_SPI_Write
 1205              		.thumb
 1206              		.thumb_func
 1207              		.type	Sensor_IO_SPI_Write, %function
 1208              	Sensor_IO_SPI_Write:
 1209              	.LFB139:
 1210              		.loc 1 529 0
 1211              		.cfi_startproc
 1212              		@ args = 0, pretend = 0, frame = 24
 1213              		@ frame_needed = 0, uses_anonymous_args = 0
 1214 06f0 00B5     		push	{lr}
 1215              		.cfi_def_cfa_offset 4
 1216              		.cfi_offset 14, -4
 1217 06f2 87B0     		sub	sp, sp, #28
 1218              		.cfi_def_cfa_offset 32
 1219 06f4 0390     		str	r0, [sp, #12]
 1220 06f6 0192     		str	r2, [sp, #4]
 1221 06f8 0A46     		mov	r2, r1
 1222 06fa 8DF80B20 		strb	r2, [sp, #11]
 1223 06fe ADF80830 		strh	r3, [sp, #8]	@ movhi
 1224              		.loc 1 533 0
 1225 0702 0398     		ldr	r0, [sp, #12]
 1226 0704 FFF7FEFF 		bl	Sensor_IO_SPI_CS_Enable
 1227              		.loc 1 535 0
 1228 0708 9DF80B30 		ldrb	r3, [sp, #11]	@ zero_extendqisi2
 1229 070c 1248     		ldr	r0, .L70
 1230 070e 1946     		mov	r1, r3
 1231 0710 FFF7FEFF 		bl	SPI_Write
 1232              		.loc 1 537 0
 1233 0714 0023     		movs	r3, #0
 1234 0716 8DF81730 		strb	r3, [sp, #23]
 1235 071a 0DE0     		b	.L67
ARM GAS  /tmp/cc602Zqo.s 			page 23


 1236              	.L68:
 1237              		.loc 1 539 0 discriminator 2
 1238 071c 9DF81730 		ldrb	r3, [sp, #23]	@ zero_extendqisi2
 1239 0720 019A     		ldr	r2, [sp, #4]
 1240 0722 1344     		add	r3, r3, r2
 1241 0724 1B78     		ldrb	r3, [r3]	@ zero_extendqisi2
 1242 0726 0C48     		ldr	r0, .L70
 1243 0728 1946     		mov	r1, r3
 1244 072a FFF7FEFF 		bl	SPI_Write
 1245              		.loc 1 537 0 discriminator 2
 1246 072e 9DF81730 		ldrb	r3, [sp, #23]	@ zero_extendqisi2
 1247 0732 0133     		adds	r3, r3, #1
 1248 0734 8DF81730 		strb	r3, [sp, #23]
 1249              	.L67:
 1250              		.loc 1 537 0 is_stmt 0 discriminator 1
 1251 0738 9DF81730 		ldrb	r3, [sp, #23]	@ zero_extendqisi2
 1252 073c 9BB2     		uxth	r3, r3
 1253 073e BDF80820 		ldrh	r2, [sp, #8]
 1254 0742 9A42     		cmp	r2, r3
 1255 0744 EAD8     		bhi	.L68
 1256              		.loc 1 542 0 is_stmt 1
 1257 0746 0398     		ldr	r0, [sp, #12]
 1258 0748 FFF7FEFF 		bl	Sensor_IO_SPI_CS_Disable
 1259              		.loc 1 544 0
 1260 074c 0023     		movs	r3, #0
 1261              		.loc 1 545 0
 1262 074e 1846     		mov	r0, r3
 1263 0750 07B0     		add	sp, sp, #28
 1264              		@ sp needed
 1265 0752 5DF804FB 		ldr	pc, [sp], #4
 1266              	.L71:
 1267 0756 00BF     		.align	2
 1268              	.L70:
 1269 0758 4C000000 		.word	SPI_Sensor_Handle
 1270              		.cfi_endproc
 1271              	.LFE139:
 1272              		.size	Sensor_IO_SPI_Write, .-Sensor_IO_SPI_Write
 1273              		.align	2
 1274 075c AFF30080 		.p2align 4,,15
 1275              		.global	Sensor_IO_SPI_Read
 1276              		.thumb
 1277              		.thumb_func
 1278              		.type	Sensor_IO_SPI_Read, %function
 1279              	Sensor_IO_SPI_Read:
 1280              	.LFB140:
 1281              		.loc 1 557 0
 1282              		.cfi_startproc
 1283              		@ args = 0, pretend = 0, frame = 24
 1284              		@ frame_needed = 0, uses_anonymous_args = 0
 1285 0760 00B5     		push	{lr}
 1286              		.cfi_def_cfa_offset 4
 1287              		.cfi_offset 14, -4
 1288 0762 87B0     		sub	sp, sp, #28
 1289              		.cfi_def_cfa_offset 32
 1290 0764 0390     		str	r0, [sp, #12]
 1291 0766 0192     		str	r2, [sp, #4]
 1292 0768 0A46     		mov	r2, r1
ARM GAS  /tmp/cc602Zqo.s 			page 24


 1293 076a 8DF80B20 		strb	r2, [sp, #11]
 1294 076e ADF80830 		strh	r3, [sp, #8]	@ movhi
 1295              		.loc 1 561 0
 1296 0772 0398     		ldr	r0, [sp, #12]
 1297 0774 FFF7FEFF 		bl	Sensor_IO_SPI_CS_Enable
 1298              		.loc 1 563 0
 1299 0778 9DF80B30 		ldrb	r3, [sp, #11]
 1300 077c 63F07F03 		orn	r3, r3, #127
 1301 0780 DBB2     		uxtb	r3, r3
 1302 0782 2148     		ldr	r0, .L76
 1303 0784 1946     		mov	r1, r3
 1304 0786 FFF7FEFF 		bl	SPI_Write
 1305              		.loc 1 565 0
 1306 078a 1F4B     		ldr	r3, .L76
 1307 078c 1B68     		ldr	r3, [r3]
 1308 078e 1E4A     		ldr	r2, .L76
 1309 0790 1268     		ldr	r2, [r2]
 1310 0792 1268     		ldr	r2, [r2]
 1311 0794 22F04002 		bic	r2, r2, #64
 1312 0798 1A60     		str	r2, [r3]
 1313              		.loc 1 566 0
 1314 079a 1B4B     		ldr	r3, .L76
 1315 079c 1B68     		ldr	r3, [r3]
 1316 079e 1A4A     		ldr	r2, .L76
 1317 07a0 1268     		ldr	r2, [r2]
 1318 07a2 1268     		ldr	r2, [r2]
 1319 07a4 22F48042 		bic	r2, r2, #16384
 1320 07a8 1A60     		str	r2, [r3]
 1321              		.loc 1 569 0
 1322 07aa 0023     		movs	r3, #0
 1323 07ac 8DF81730 		strb	r3, [sp, #23]
 1324 07b0 0BE0     		b	.L73
 1325              	.L74:
 1326              		.loc 1 571 0 discriminator 2
 1327 07b2 019B     		ldr	r3, [sp, #4]
 1328 07b4 5A1C     		adds	r2, r3, #1
 1329 07b6 0192     		str	r2, [sp, #4]
 1330 07b8 1348     		ldr	r0, .L76
 1331 07ba 1946     		mov	r1, r3
 1332 07bc FFF7FEFF 		bl	SPI_Read
 1333              		.loc 1 569 0 discriminator 2
 1334 07c0 9DF81730 		ldrb	r3, [sp, #23]	@ zero_extendqisi2
 1335 07c4 0133     		adds	r3, r3, #1
 1336 07c6 8DF81730 		strb	r3, [sp, #23]
 1337              	.L73:
 1338              		.loc 1 569 0 is_stmt 0 discriminator 1
 1339 07ca 9DF81730 		ldrb	r3, [sp, #23]	@ zero_extendqisi2
 1340 07ce 9BB2     		uxth	r3, r3
 1341 07d0 BDF80820 		ldrh	r2, [sp, #8]
 1342 07d4 9A42     		cmp	r2, r3
 1343 07d6 ECD8     		bhi	.L74
 1344              		.loc 1 575 0 is_stmt 1
 1345 07d8 0398     		ldr	r0, [sp, #12]
 1346 07da FFF7FEFF 		bl	Sensor_IO_SPI_CS_Disable
 1347              		.loc 1 578 0
 1348 07de 0A4B     		ldr	r3, .L76
 1349 07e0 1B68     		ldr	r3, [r3]
ARM GAS  /tmp/cc602Zqo.s 			page 25


 1350 07e2 094A     		ldr	r2, .L76
 1351 07e4 1268     		ldr	r2, [r2]
 1352 07e6 1268     		ldr	r2, [r2]
 1353 07e8 42F48042 		orr	r2, r2, #16384
 1354 07ec 1A60     		str	r2, [r3]
 1355              		.loc 1 579 0
 1356 07ee 064B     		ldr	r3, .L76
 1357 07f0 1B68     		ldr	r3, [r3]
 1358 07f2 054A     		ldr	r2, .L76
 1359 07f4 1268     		ldr	r2, [r2]
 1360 07f6 1268     		ldr	r2, [r2]
 1361 07f8 42F04002 		orr	r2, r2, #64
 1362 07fc 1A60     		str	r2, [r3]
 1363              		.loc 1 582 0
 1364 07fe 0023     		movs	r3, #0
 1365              		.loc 1 583 0
 1366 0800 1846     		mov	r0, r3
 1367 0802 07B0     		add	sp, sp, #28
 1368              		@ sp needed
 1369 0804 5DF804FB 		ldr	pc, [sp], #4
 1370              	.L77:
 1371              		.align	2
 1372              	.L76:
 1373 0808 4C000000 		.word	SPI_Sensor_Handle
 1374              		.cfi_endproc
 1375              	.LFE140:
 1376              		.size	Sensor_IO_SPI_Read, .-Sensor_IO_SPI_Read
 1377              		.align	2
 1378 080c AFF30080 		.p2align 4,,15
 1379              		.global	Sensor_IO_SPI_CS_Enable
 1380              		.thumb
 1381              		.thumb_func
 1382              		.type	Sensor_IO_SPI_CS_Enable, %function
 1383              	Sensor_IO_SPI_CS_Enable:
 1384              	.LFB141:
 1385              		.loc 1 587 0
 1386              		.cfi_startproc
 1387              		@ args = 0, pretend = 0, frame = 16
 1388              		@ frame_needed = 0, uses_anonymous_args = 0
 1389 0810 00B5     		push	{lr}
 1390              		.cfi_def_cfa_offset 4
 1391              		.cfi_offset 14, -4
 1392 0812 85B0     		sub	sp, sp, #20
 1393              		.cfi_def_cfa_offset 24
 1394 0814 0190     		str	r0, [sp, #4]
 1395              		.loc 1 588 0
 1396 0816 019B     		ldr	r3, [sp, #4]
 1397 0818 0393     		str	r3, [sp, #12]
 1398              		.loc 1 590 0
 1399 081a 039B     		ldr	r3, [sp, #12]
 1400 081c DB78     		ldrb	r3, [r3, #3]	@ zero_extendqisi2
 1401 081e 032B     		cmp	r3, #3
 1402 0820 24D8     		bhi	.L79
 1403 0822 01A2     		adr	r2, .L81
 1404 0824 52F823F0 		ldr	pc, [r2, r3, lsl #2]
 1405              		.p2align 2
 1406              	.L81:
ARM GAS  /tmp/cc602Zqo.s 			page 26


 1407 0828 39080000 		.word	.L80+1
 1408 082c 47080000 		.word	.L82+1
 1409 0830 53080000 		.word	.L83+1
 1410 0834 5F080000 		.word	.L84+1
 1411              		.p2align 1
 1412              	.L80:
 1413              		.loc 1 593 0
 1414 0838 0F48     		ldr	r0, .L86
 1415 083a 4FF48051 		mov	r1, #4096
 1416 083e 0022     		movs	r2, #0
 1417 0840 FFF7FEFF 		bl	HAL_GPIO_WritePin
 1418              		.loc 1 594 0
 1419 0844 12E0     		b	.L79
 1420              	.L82:
 1421              		.loc 1 596 0
 1422 0846 0D48     		ldr	r0, .L86+4
 1423 0848 1021     		movs	r1, #16
 1424 084a 0022     		movs	r2, #0
 1425 084c FFF7FEFF 		bl	HAL_GPIO_WritePin
 1426              		.loc 1 597 0
 1427 0850 0CE0     		b	.L79
 1428              	.L83:
 1429              		.loc 1 599 0
 1430 0852 0948     		ldr	r0, .L86
 1431 0854 0221     		movs	r1, #2
 1432 0856 0022     		movs	r2, #0
 1433 0858 FFF7FEFF 		bl	HAL_GPIO_WritePin
 1434              		.loc 1 600 0
 1435 085c 06E0     		b	.L79
 1436              	.L84:
 1437              		.loc 1 602 0
 1438 085e 4FF09040 		mov	r0, #1207959552
 1439 0862 0821     		movs	r1, #8
 1440 0864 0022     		movs	r2, #0
 1441 0866 FFF7FEFF 		bl	HAL_GPIO_WritePin
 1442              		.loc 1 603 0
 1443 086a 00BF     		nop
 1444              	.L79:
 1445              		.loc 1 605 0
 1446 086c 0023     		movs	r3, #0
 1447              		.loc 1 606 0
 1448 086e 1846     		mov	r0, r3
 1449 0870 05B0     		add	sp, sp, #20
 1450              		@ sp needed
 1451 0872 5DF804FB 		ldr	pc, [sp], #4
 1452              	.L87:
 1453 0876 00BF     		.align	2
 1454              	.L86:
 1455 0878 00040048 		.word	1207960576
 1456 087c 00080048 		.word	1207961600
 1457              		.cfi_endproc
 1458              	.LFE141:
 1459              		.size	Sensor_IO_SPI_CS_Enable, .-Sensor_IO_SPI_CS_Enable
 1460              		.align	2
 1461              		.p2align 4,,15
 1462              		.global	Sensor_IO_SPI_CS_Disable
 1463              		.thumb
ARM GAS  /tmp/cc602Zqo.s 			page 27


 1464              		.thumb_func
 1465              		.type	Sensor_IO_SPI_CS_Disable, %function
 1466              	Sensor_IO_SPI_CS_Disable:
 1467              	.LFB142:
 1468              		.loc 1 609 0
 1469              		.cfi_startproc
 1470              		@ args = 0, pretend = 0, frame = 16
 1471              		@ frame_needed = 0, uses_anonymous_args = 0
 1472 0880 00B5     		push	{lr}
 1473              		.cfi_def_cfa_offset 4
 1474              		.cfi_offset 14, -4
 1475 0882 85B0     		sub	sp, sp, #20
 1476              		.cfi_def_cfa_offset 24
 1477 0884 0190     		str	r0, [sp, #4]
 1478              		.loc 1 610 0
 1479 0886 019B     		ldr	r3, [sp, #4]
 1480 0888 0393     		str	r3, [sp, #12]
 1481              		.loc 1 612 0
 1482 088a 039B     		ldr	r3, [sp, #12]
 1483 088c DB78     		ldrb	r3, [r3, #3]	@ zero_extendqisi2
 1484 088e 032B     		cmp	r3, #3
 1485 0890 24D8     		bhi	.L89
 1486 0892 01A2     		adr	r2, .L91
 1487 0894 52F823F0 		ldr	pc, [r2, r3, lsl #2]
 1488              		.p2align 2
 1489              	.L91:
 1490 0898 A9080000 		.word	.L90+1
 1491 089c B7080000 		.word	.L92+1
 1492 08a0 C3080000 		.word	.L93+1
 1493 08a4 CF080000 		.word	.L94+1
 1494              		.p2align 1
 1495              	.L90:
 1496              		.loc 1 615 0
 1497 08a8 0F48     		ldr	r0, .L96
 1498 08aa 4FF48051 		mov	r1, #4096
 1499 08ae 0122     		movs	r2, #1
 1500 08b0 FFF7FEFF 		bl	HAL_GPIO_WritePin
 1501              		.loc 1 616 0
 1502 08b4 12E0     		b	.L89
 1503              	.L92:
 1504              		.loc 1 618 0
 1505 08b6 0D48     		ldr	r0, .L96+4
 1506 08b8 1021     		movs	r1, #16
 1507 08ba 0122     		movs	r2, #1
 1508 08bc FFF7FEFF 		bl	HAL_GPIO_WritePin
 1509              		.loc 1 619 0
 1510 08c0 0CE0     		b	.L89
 1511              	.L93:
 1512              		.loc 1 621 0
 1513 08c2 0948     		ldr	r0, .L96
 1514 08c4 0221     		movs	r1, #2
 1515 08c6 0122     		movs	r2, #1
 1516 08c8 FFF7FEFF 		bl	HAL_GPIO_WritePin
 1517              		.loc 1 622 0
 1518 08cc 06E0     		b	.L89
 1519              	.L94:
 1520              		.loc 1 624 0
ARM GAS  /tmp/cc602Zqo.s 			page 28


 1521 08ce 4FF09040 		mov	r0, #1207959552
 1522 08d2 0821     		movs	r1, #8
 1523 08d4 0122     		movs	r2, #1
 1524 08d6 FFF7FEFF 		bl	HAL_GPIO_WritePin
 1525              		.loc 1 625 0
 1526 08da 00BF     		nop
 1527              	.L89:
 1528              		.loc 1 627 0
 1529 08dc 0023     		movs	r3, #0
 1530              		.loc 1 628 0
 1531 08de 1846     		mov	r0, r3
 1532 08e0 05B0     		add	sp, sp, #20
 1533              		@ sp needed
 1534 08e2 5DF804FB 		ldr	pc, [sp], #4
 1535              	.L97:
 1536 08e6 00BF     		.align	2
 1537              	.L96:
 1538 08e8 00040048 		.word	1207960576
 1539 08ec 00080048 		.word	1207961600
 1540              		.cfi_endproc
 1541              	.LFE142:
 1542              		.size	Sensor_IO_SPI_CS_Disable, .-Sensor_IO_SPI_CS_Disable
 1543              		.align	2
 1544              		.p2align 4,,15
 1545              		.global	LSM6DSM_Sensor_IO_ITConfig
 1546              		.thumb
 1547              		.thumb_func
 1548              		.type	LSM6DSM_Sensor_IO_ITConfig, %function
 1549              	LSM6DSM_Sensor_IO_ITConfig:
 1550              	.LFB143:
 1551              		.loc 1 637 0
 1552              		.cfi_startproc
 1553              		@ args = 0, pretend = 0, frame = 24
 1554              		@ frame_needed = 0, uses_anonymous_args = 0
 1555 08f0 00B5     		push	{lr}
 1556              		.cfi_def_cfa_offset 4
 1557              		.cfi_offset 14, -4
 1558 08f2 87B0     		sub	sp, sp, #28
 1559              		.cfi_def_cfa_offset 32
 1560              	.LBB19:
 1561              		.loc 1 643 0
 1562 08f4 134B     		ldr	r3, .L100
 1563 08f6 134A     		ldr	r2, .L100
 1564 08f8 D26C     		ldr	r2, [r2, #76]
 1565 08fa 42F00102 		orr	r2, r2, #1
 1566 08fe DA64     		str	r2, [r3, #76]
 1567 0900 104B     		ldr	r3, .L100
 1568 0902 DB6C     		ldr	r3, [r3, #76]
 1569 0904 03F00103 		and	r3, r3, #1
 1570 0908 0093     		str	r3, [sp]
 1571 090a 009B     		ldr	r3, [sp]
 1572              	.LBE19:
 1573              		.loc 1 646 0
 1574 090c 0423     		movs	r3, #4
 1575 090e 0193     		str	r3, [sp, #4]
 1576              		.loc 1 647 0
 1577 0910 0D4B     		ldr	r3, .L100+4
ARM GAS  /tmp/cc602Zqo.s 			page 29


 1578 0912 0293     		str	r3, [sp, #8]
 1579              		.loc 1 648 0
 1580 0914 0223     		movs	r3, #2
 1581 0916 0493     		str	r3, [sp, #16]
 1582              		.loc 1 649 0
 1583 0918 0023     		movs	r3, #0
 1584 091a 0393     		str	r3, [sp, #12]
 1585              		.loc 1 650 0
 1586 091c 01AB     		add	r3, sp, #4
 1587 091e 4FF09040 		mov	r0, #1207959552
 1588 0922 1946     		mov	r1, r3
 1589 0924 FFF7FEFF 		bl	HAL_GPIO_Init
 1590              		.loc 1 653 0
 1591 0928 0820     		movs	r0, #8
 1592 092a 0021     		movs	r1, #0
 1593 092c 0022     		movs	r2, #0
 1594 092e FFF7FEFF 		bl	HAL_NVIC_SetPriority
 1595              		.loc 1 654 0
 1596 0932 0820     		movs	r0, #8
 1597 0934 FFF7FEFF 		bl	HAL_NVIC_EnableIRQ
 1598              		.loc 1 656 0
 1599 0938 0023     		movs	r3, #0
 1600              		.loc 1 657 0
 1601 093a 1846     		mov	r0, r3
 1602 093c 07B0     		add	sp, sp, #28
 1603              		@ sp needed
 1604 093e 5DF804FB 		ldr	pc, [sp], #4
 1605              	.L101:
 1606 0942 00BF     		.align	2
 1607              	.L100:
 1608 0944 00100240 		.word	1073876992
 1609 0948 00001110 		.word	269549568
 1610              		.cfi_endproc
 1611              	.LFE143:
 1612              		.size	LSM6DSM_Sensor_IO_ITConfig, .-LSM6DSM_Sensor_IO_ITConfig
 1613              		.align	2
 1614 094c AFF30080 		.p2align 4,,15
 1615              		.global	SPI_Read
 1616              		.thumb
 1617              		.thumb_func
 1618              		.type	SPI_Read, %function
 1619              	SPI_Read:
 1620              	.LFB144:
 1621              		.loc 1 667 0
 1622              		.cfi_startproc
 1623              		@ args = 0, pretend = 0, frame = 8
 1624              		@ frame_needed = 0, uses_anonymous_args = 0
 1625              		@ link register save eliminated.
 1626 0950 82B0     		sub	sp, sp, #8
 1627              		.cfi_def_cfa_offset 8
 1628 0952 0190     		str	r0, [sp, #4]
 1629 0954 0091     		str	r1, [sp]
 1630              	.LBB20:
 1631              	.LBB21:
 1632              		.file 2 "../../../../../../ChibiOS/os/ext/CMSIS/include/core_cmFunc.h"
 1633              		.loc 2 344 0
 1634              	@ 344 "../../../../../../ChibiOS/os/ext/CMSIS/include/core_cmFunc.h" 1
ARM GAS  /tmp/cc602Zqo.s 			page 30


 1635 0956 72B6     		cpsid i
 1636              	@ 0 "" 2
 1637              		.thumb
 1638              	.LBE21:
 1639              	.LBE20:
 1640              		.loc 1 675 0
 1641 0958 019B     		ldr	r3, [sp, #4]
 1642 095a 1B68     		ldr	r3, [r3]
 1643 095c 019A     		ldr	r2, [sp, #4]
 1644 095e 1268     		ldr	r2, [r2]
 1645 0960 1268     		ldr	r2, [r2]
 1646 0962 42F04002 		orr	r2, r2, #64
 1647 0966 1A60     		str	r2, [r3]
 1648              		.loc 1 676 0
 1649              	@ 676 "../../../../../Drivers/BSP/SensorTile/SensorTile.c" 1
 1650 0968 BFF34F8F 		dsb
 1651              	
 1652              	@ 0 "" 2
 1653              		.loc 1 677 0
 1654              	@ 677 "../../../../../Drivers/BSP/SensorTile/SensorTile.c" 1
 1655 096c BFF34F8F 		dsb
 1656              	
 1657              	@ 0 "" 2
 1658              		.loc 1 678 0
 1659              		.thumb
 1660 0970 019B     		ldr	r3, [sp, #4]
 1661 0972 1B68     		ldr	r3, [r3]
 1662 0974 019A     		ldr	r2, [sp, #4]
 1663 0976 1268     		ldr	r2, [r2]
 1664 0978 1268     		ldr	r2, [r2]
 1665 097a 22F04002 		bic	r2, r2, #64
 1666 097e 1A60     		str	r2, [r3]
 1667              	.LBB22:
 1668              	.LBB23:
 1669              		.loc 2 333 0
 1670              	@ 333 "../../../../../../ChibiOS/os/ext/CMSIS/include/core_cmFunc.h" 1
 1671 0980 62B6     		cpsie i
 1672              	@ 0 "" 2
 1673              		.thumb
 1674              	.LBE23:
 1675              	.LBE22:
 1676              		.loc 1 682 0
 1677 0982 00BF     		nop
 1678              	.L103:
 1679              		.loc 1 682 0 is_stmt 0 discriminator 1
 1680 0984 019B     		ldr	r3, [sp, #4]
 1681 0986 1B68     		ldr	r3, [r3]
 1682 0988 9B68     		ldr	r3, [r3, #8]
 1683 098a 03F00103 		and	r3, r3, #1
 1684 098e 002B     		cmp	r3, #0
 1685 0990 F8D0     		beq	.L103
 1686              		.loc 1 684 0 is_stmt 1
 1687 0992 019B     		ldr	r3, [sp, #4]
 1688 0994 1B68     		ldr	r3, [r3]
 1689 0996 0C33     		adds	r3, r3, #12
 1690 0998 1B78     		ldrb	r3, [r3]
 1691 099a DAB2     		uxtb	r2, r3
ARM GAS  /tmp/cc602Zqo.s 			page 31


 1692 099c 009B     		ldr	r3, [sp]
 1693 099e 1A70     		strb	r2, [r3]
 1694              		.loc 1 685 0
 1695 09a0 00BF     		nop
 1696              	.L104:
 1697              		.loc 1 685 0 is_stmt 0 discriminator 1
 1698 09a2 019B     		ldr	r3, [sp, #4]
 1699 09a4 1B68     		ldr	r3, [r3]
 1700 09a6 9B68     		ldr	r3, [r3, #8]
 1701 09a8 03F08003 		and	r3, r3, #128
 1702 09ac 002B     		cmp	r3, #0
 1703 09ae F8D1     		bne	.L104
 1704              		.loc 1 686 0 is_stmt 1
 1705 09b0 02B0     		add	sp, sp, #8
 1706              		@ sp needed
 1707 09b2 7047     		bx	lr
 1708              		.cfi_endproc
 1709              	.LFE144:
 1710              		.size	SPI_Read, .-SPI_Read
 1711              		.align	2
 1712 09b4 AFF30080 		.p2align 4,,15
 1712      AFF30080 
 1712      AFF30080 
 1713              		.global	SPI_Write
 1714              		.thumb
 1715              		.thumb_func
 1716              		.type	SPI_Write, %function
 1717              	SPI_Write:
 1718              	.LFB145:
 1719              		.loc 1 695 0
 1720              		.cfi_startproc
 1721              		@ args = 0, pretend = 0, frame = 8
 1722              		@ frame_needed = 0, uses_anonymous_args = 0
 1723              		@ link register save eliminated.
 1724 09c0 82B0     		sub	sp, sp, #8
 1725              		.cfi_def_cfa_offset 8
 1726 09c2 0190     		str	r0, [sp, #4]
 1727 09c4 0B46     		mov	r3, r1
 1728 09c6 8DF80330 		strb	r3, [sp, #3]
 1729              		.loc 1 697 0
 1730 09ca 00BF     		nop
 1731              	.L106:
 1732              		.loc 1 697 0 is_stmt 0 discriminator 1
 1733 09cc 019B     		ldr	r3, [sp, #4]
 1734 09ce 1B68     		ldr	r3, [r3]
 1735 09d0 9B68     		ldr	r3, [r3, #8]
 1736 09d2 03F00203 		and	r3, r3, #2
 1737 09d6 002B     		cmp	r3, #0
 1738 09d8 F8D0     		beq	.L106
 1739              		.loc 1 700 0 is_stmt 1
 1740 09da 019B     		ldr	r3, [sp, #4]
 1741 09dc 1B68     		ldr	r3, [r3]
 1742 09de 0C33     		adds	r3, r3, #12
 1743 09e0 9DF80320 		ldrb	r2, [sp, #3]
 1744 09e4 1A70     		strb	r2, [r3]
 1745              		.loc 1 703 0
 1746 09e6 00BF     		nop
ARM GAS  /tmp/cc602Zqo.s 			page 32


 1747              	.L107:
 1748              		.loc 1 703 0 is_stmt 0 discriminator 1
 1749 09e8 019B     		ldr	r3, [sp, #4]
 1750 09ea 1B68     		ldr	r3, [r3]
 1751 09ec 9B68     		ldr	r3, [r3, #8]
 1752 09ee 03F4C053 		and	r3, r3, #6144
 1753 09f2 002B     		cmp	r3, #0
 1754 09f4 F8D1     		bne	.L107
 1755              		.loc 1 704 0 is_stmt 1
 1756 09f6 00BF     		nop
 1757              	.L108:
 1758              		.loc 1 704 0 is_stmt 0 discriminator 1
 1759 09f8 019B     		ldr	r3, [sp, #4]
 1760 09fa 1B68     		ldr	r3, [r3]
 1761 09fc 9B68     		ldr	r3, [r3, #8]
 1762 09fe 03F08003 		and	r3, r3, #128
 1763 0a02 002B     		cmp	r3, #0
 1764 0a04 F8D1     		bne	.L108
 1765              		.loc 1 705 0 is_stmt 1
 1766 0a06 02B0     		add	sp, sp, #8
 1767              		@ sp needed
 1768 0a08 7047     		bx	lr
 1769              		.cfi_endproc
 1770              	.LFE145:
 1771              		.size	SPI_Write, .-SPI_Write
 1772 0a0a 00BF     		.align	2
 1773 0a0c AFF30080 		.p2align 4,,15
 1774              		.thumb
 1775              		.thumb_func
 1776              		.type	I2C_SENSORTILE_Init, %function
 1777              	I2C_SENSORTILE_Init:
 1778              	.LFB146:
 1779              		.loc 1 717 0
 1780              		.cfi_startproc
 1781              		@ args = 0, pretend = 0, frame = 0
 1782              		@ frame_needed = 0, uses_anonymous_args = 0
 1783 0a10 08B5     		push	{r3, lr}
 1784              		.cfi_def_cfa_offset 8
 1785              		.cfi_offset 3, -8
 1786              		.cfi_offset 14, -4
 1787              		.loc 1 718 0
 1788 0a12 1148     		ldr	r0, .L113
 1789 0a14 FFF7FEFF 		bl	HAL_I2C_GetState
 1790 0a18 0346     		mov	r3, r0
 1791 0a1a 002B     		cmp	r3, #0
 1792 0a1c 10D1     		bne	.L110
 1793              		.loc 1 721 0
 1794 0a1e 0E4B     		ldr	r3, .L113
 1795 0a20 0E4A     		ldr	r2, .L113+4
 1796 0a22 5A60     		str	r2, [r3, #4]
 1797              		.loc 1 722 0
 1798 0a24 0C4B     		ldr	r3, .L113
 1799 0a26 3322     		movs	r2, #51
 1800 0a28 9A60     		str	r2, [r3, #8]
 1801              		.loc 1 723 0
 1802 0a2a 0B4B     		ldr	r3, .L113
 1803 0a2c 0122     		movs	r2, #1
ARM GAS  /tmp/cc602Zqo.s 			page 33


 1804 0a2e DA60     		str	r2, [r3, #12]
 1805              		.loc 1 724 0
 1806 0a30 094B     		ldr	r3, .L113
 1807 0a32 0B4A     		ldr	r2, .L113+8
 1808 0a34 1A60     		str	r2, [r3]
 1809              		.loc 1 727 0
 1810 0a36 00F0ABF8 		bl	I2C_SENSORTILE_MspInit
 1811              		.loc 1 728 0
 1812 0a3a 0748     		ldr	r0, .L113
 1813 0a3c FFF7FEFF 		bl	HAL_I2C_Init
 1814              	.L110:
 1815              		.loc 1 731 0
 1816 0a40 0548     		ldr	r0, .L113
 1817 0a42 FFF7FEFF 		bl	HAL_I2C_GetState
 1818 0a46 0346     		mov	r3, r0
 1819 0a48 202B     		cmp	r3, #32
 1820 0a4a 01D1     		bne	.L111
 1821              		.loc 1 733 0
 1822 0a4c 0023     		movs	r3, #0
 1823 0a4e 00E0     		b	.L112
 1824              	.L111:
 1825              		.loc 1 737 0
 1826 0a50 0123     		movs	r3, #1
 1827              	.L112:
 1828              		.loc 1 739 0
 1829 0a52 1846     		mov	r0, r3
 1830 0a54 08BD     		pop	{r3, pc}
 1831              	.L114:
 1832 0a56 00BF     		.align	2
 1833              	.L113:
 1834 0a58 00000000 		.word	I2C_SENSORTILE_Handle
 1835 0a5c EC9C9010 		.word	277912812
 1836 0a60 005C0040 		.word	1073765376
 1837              		.cfi_endproc
 1838              	.LFE146:
 1839              		.size	I2C_SENSORTILE_Init, .-I2C_SENSORTILE_Init
 1840              		.align	2
 1841 0a64 AFF30080 		.p2align 4,,15
 1841      AFF30080 
 1841      AFF30080 
 1842              		.thumb
 1843              		.thumb_func
 1844              		.type	I2C_SENSORTILE_WriteData, %function
 1845              	I2C_SENSORTILE_WriteData:
 1846              	.LFB147:
 1847              		.loc 1 753 0
 1848              		.cfi_startproc
 1849              		@ args = 0, pretend = 0, frame = 16
 1850              		@ frame_needed = 0, uses_anonymous_args = 0
 1851 0a70 00B5     		push	{lr}
 1852              		.cfi_def_cfa_offset 4
 1853              		.cfi_offset 14, -4
 1854 0a72 89B0     		sub	sp, sp, #36
 1855              		.cfi_def_cfa_offset 40
 1856 0a74 0492     		str	r2, [sp, #16]
 1857 0a76 0246     		mov	r2, r0
 1858 0a78 8DF81720 		strb	r2, [sp, #23]
ARM GAS  /tmp/cc602Zqo.s 			page 34


 1859 0a7c 0A46     		mov	r2, r1
 1860 0a7e 8DF81620 		strb	r2, [sp, #22]
 1861 0a82 ADF81430 		strh	r3, [sp, #20]	@ movhi
 1862              		.loc 1 755 0
 1863 0a86 0023     		movs	r3, #0
 1864 0a88 8DF81F30 		strb	r3, [sp, #31]
 1865              		.loc 1 757 0
 1866 0a8c 9DF81730 		ldrb	r3, [sp, #23]	@ zero_extendqisi2
 1867 0a90 9AB2     		uxth	r2, r3
 1868 0a92 9DF81630 		ldrb	r3, [sp, #22]	@ zero_extendqisi2
 1869 0a96 9BB2     		uxth	r3, r3
 1870 0a98 1049     		ldr	r1, .L118
 1871 0a9a 0968     		ldr	r1, [r1]
 1872 0a9c 0498     		ldr	r0, [sp, #16]
 1873 0a9e 0090     		str	r0, [sp]
 1874 0aa0 BDF81400 		ldrh	r0, [sp, #20]
 1875 0aa4 0190     		str	r0, [sp, #4]
 1876 0aa6 0291     		str	r1, [sp, #8]
 1877 0aa8 0D48     		ldr	r0, .L118+4
 1878 0aaa 1146     		mov	r1, r2
 1879 0aac 1A46     		mov	r2, r3
 1880 0aae 0123     		movs	r3, #1
 1881 0ab0 FFF7FEFF 		bl	HAL_I2C_Mem_Write
 1882 0ab4 0346     		mov	r3, r0
 1883 0ab6 8DF81F30 		strb	r3, [sp, #31]
 1884              		.loc 1 760 0
 1885 0aba 9DF81F30 		ldrb	r3, [sp, #31]	@ zero_extendqisi2
 1886 0abe 002B     		cmp	r3, #0
 1887 0ac0 06D0     		beq	.L116
 1888              		.loc 1 764 0
 1889 0ac2 9DF81730 		ldrb	r3, [sp, #23]	@ zero_extendqisi2
 1890 0ac6 1846     		mov	r0, r3
 1891 0ac8 00F052F8 		bl	I2C_SENSORTILE_Error
 1892              		.loc 1 765 0
 1893 0acc 0123     		movs	r3, #1
 1894 0ace 00E0     		b	.L117
 1895              	.L116:
 1896              		.loc 1 769 0
 1897 0ad0 0023     		movs	r3, #0
 1898              	.L117:
 1899              		.loc 1 771 0
 1900 0ad2 1846     		mov	r0, r3
 1901 0ad4 09B0     		add	sp, sp, #36
 1902              		@ sp needed
 1903 0ad6 5DF804FB 		ldr	pc, [sp], #4
 1904              	.L119:
 1905 0ada 00BF     		.align	2
 1906              	.L118:
 1907 0adc 00000000 		.word	I2C_SENSORTILE_Timeout
 1908 0ae0 00000000 		.word	I2C_SENSORTILE_Handle
 1909              		.cfi_endproc
 1910              	.LFE147:
 1911              		.size	I2C_SENSORTILE_WriteData, .-I2C_SENSORTILE_WriteData
 1912              		.align	2
 1913 0ae4 AFF30080 		.p2align 4,,15
 1913      AFF30080 
 1913      AFF30080 
ARM GAS  /tmp/cc602Zqo.s 			page 35


 1914              		.thumb
 1915              		.thumb_func
 1916              		.type	I2C_SENSORTILE_ReadData, %function
 1917              	I2C_SENSORTILE_ReadData:
 1918              	.LFB148:
 1919              		.loc 1 785 0
 1920              		.cfi_startproc
 1921              		@ args = 0, pretend = 0, frame = 16
 1922              		@ frame_needed = 0, uses_anonymous_args = 0
 1923 0af0 00B5     		push	{lr}
 1924              		.cfi_def_cfa_offset 4
 1925              		.cfi_offset 14, -4
 1926 0af2 89B0     		sub	sp, sp, #36
 1927              		.cfi_def_cfa_offset 40
 1928 0af4 0492     		str	r2, [sp, #16]
 1929 0af6 0246     		mov	r2, r0
 1930 0af8 8DF81720 		strb	r2, [sp, #23]
 1931 0afc 0A46     		mov	r2, r1
 1932 0afe 8DF81620 		strb	r2, [sp, #22]
 1933 0b02 ADF81430 		strh	r3, [sp, #20]	@ movhi
 1934              		.loc 1 787 0
 1935 0b06 0023     		movs	r3, #0
 1936 0b08 8DF81F30 		strb	r3, [sp, #31]
 1937              		.loc 1 789 0
 1938 0b0c 9DF81730 		ldrb	r3, [sp, #23]	@ zero_extendqisi2
 1939 0b10 9AB2     		uxth	r2, r3
 1940 0b12 9DF81630 		ldrb	r3, [sp, #22]	@ zero_extendqisi2
 1941 0b16 9BB2     		uxth	r3, r3
 1942 0b18 1049     		ldr	r1, .L123
 1943 0b1a 0968     		ldr	r1, [r1]
 1944 0b1c 0498     		ldr	r0, [sp, #16]
 1945 0b1e 0090     		str	r0, [sp]
 1946 0b20 BDF81400 		ldrh	r0, [sp, #20]
 1947 0b24 0190     		str	r0, [sp, #4]
 1948 0b26 0291     		str	r1, [sp, #8]
 1949 0b28 0D48     		ldr	r0, .L123+4
 1950 0b2a 1146     		mov	r1, r2
 1951 0b2c 1A46     		mov	r2, r3
 1952 0b2e 0123     		movs	r3, #1
 1953 0b30 FFF7FEFF 		bl	HAL_I2C_Mem_Read
 1954 0b34 0346     		mov	r3, r0
 1955 0b36 8DF81F30 		strb	r3, [sp, #31]
 1956              		.loc 1 792 0
 1957 0b3a 9DF81F30 		ldrb	r3, [sp, #31]	@ zero_extendqisi2
 1958 0b3e 002B     		cmp	r3, #0
 1959 0b40 06D0     		beq	.L121
 1960              		.loc 1 796 0
 1961 0b42 9DF81730 		ldrb	r3, [sp, #23]	@ zero_extendqisi2
 1962 0b46 1846     		mov	r0, r3
 1963 0b48 00F012F8 		bl	I2C_SENSORTILE_Error
 1964              		.loc 1 797 0
 1965 0b4c 0123     		movs	r3, #1
 1966 0b4e 00E0     		b	.L122
 1967              	.L121:
 1968              		.loc 1 801 0
 1969 0b50 0023     		movs	r3, #0
 1970              	.L122:
ARM GAS  /tmp/cc602Zqo.s 			page 36


 1971              		.loc 1 803 0
 1972 0b52 1846     		mov	r0, r3
 1973 0b54 09B0     		add	sp, sp, #36
 1974              		@ sp needed
 1975 0b56 5DF804FB 		ldr	pc, [sp], #4
 1976              	.L124:
 1977 0b5a 00BF     		.align	2
 1978              	.L123:
 1979 0b5c 00000000 		.word	I2C_SENSORTILE_Timeout
 1980 0b60 00000000 		.word	I2C_SENSORTILE_Handle
 1981              		.cfi_endproc
 1982              	.LFE148:
 1983              		.size	I2C_SENSORTILE_ReadData, .-I2C_SENSORTILE_ReadData
 1984              		.align	2
 1985 0b64 AFF30080 		.p2align 4,,15
 1985      AFF30080 
 1985      AFF30080 
 1986              		.thumb
 1987              		.thumb_func
 1988              		.type	I2C_SENSORTILE_Error, %function
 1989              	I2C_SENSORTILE_Error:
 1990              	.LFB149:
 1991              		.loc 1 813 0
 1992              		.cfi_startproc
 1993              		@ args = 0, pretend = 0, frame = 8
 1994              		@ frame_needed = 0, uses_anonymous_args = 0
 1995 0b70 00B5     		push	{lr}
 1996              		.cfi_def_cfa_offset 4
 1997              		.cfi_offset 14, -4
 1998 0b72 83B0     		sub	sp, sp, #12
 1999              		.cfi_def_cfa_offset 16
 2000 0b74 0346     		mov	r3, r0
 2001 0b76 8DF80730 		strb	r3, [sp, #7]
 2002              		.loc 1 815 0
 2003 0b7a 0448     		ldr	r0, .L126
 2004 0b7c FFF7FEFF 		bl	HAL_I2C_DeInit
 2005              		.loc 1 818 0
 2006 0b80 FFF746FF 		bl	I2C_SENSORTILE_Init
 2007              		.loc 1 819 0
 2008 0b84 03B0     		add	sp, sp, #12
 2009              		@ sp needed
 2010 0b86 5DF804FB 		ldr	pc, [sp], #4
 2011              	.L127:
 2012 0b8a 00BF     		.align	2
 2013              	.L126:
 2014 0b8c 00000000 		.word	I2C_SENSORTILE_Handle
 2015              		.cfi_endproc
 2016              	.LFE149:
 2017              		.size	I2C_SENSORTILE_Error, .-I2C_SENSORTILE_Error
 2018              		.align	2
 2019              		.p2align 4,,15
 2020              		.thumb
 2021              		.thumb_func
 2022              		.type	I2C_SENSORTILE_MspInit, %function
 2023              	I2C_SENSORTILE_MspInit:
 2024              	.LFB150:
 2025              		.loc 1 830 0
ARM GAS  /tmp/cc602Zqo.s 			page 37


 2026              		.cfi_startproc
 2027              		@ args = 0, pretend = 0, frame = 168
 2028              		@ frame_needed = 0, uses_anonymous_args = 0
 2029 0b90 00B5     		push	{lr}
 2030              		.cfi_def_cfa_offset 4
 2031              		.cfi_offset 14, -4
 2032 0b92 ABB0     		sub	sp, sp, #172
 2033              		.cfi_def_cfa_offset 176
 2034              		.loc 1 836 0
 2035 0b94 4FF48073 		mov	r3, #256
 2036 0b98 0393     		str	r3, [sp, #12]
 2037              		.loc 1 837 0
 2038 0b9a 4FF48033 		mov	r3, #65536
 2039 0b9e 1993     		str	r3, [sp, #100]
 2040              		.loc 1 838 0
 2041 0ba0 03AB     		add	r3, sp, #12
 2042 0ba2 1846     		mov	r0, r3
 2043 0ba4 FFF7FEFF 		bl	HAL_RCCEx_PeriphCLKConfig
 2044              	.LBB24:
 2045              		.loc 1 841 0
 2046 0ba8 224B     		ldr	r3, .L129
 2047 0baa 224A     		ldr	r2, .L129
 2048 0bac D26C     		ldr	r2, [r2, #76]
 2049 0bae 42F00402 		orr	r2, r2, #4
 2050 0bb2 DA64     		str	r2, [r3, #76]
 2051 0bb4 1F4B     		ldr	r3, .L129
 2052 0bb6 DB6C     		ldr	r3, [r3, #76]
 2053 0bb8 03F00403 		and	r3, r3, #4
 2054 0bbc 0293     		str	r3, [sp, #8]
 2055 0bbe 029B     		ldr	r3, [sp, #8]
 2056              	.LBE24:
 2057              		.loc 1 844 0
 2058 0bc0 0323     		movs	r3, #3
 2059 0bc2 2593     		str	r3, [sp, #148]
 2060              		.loc 1 845 0
 2061 0bc4 1223     		movs	r3, #18
 2062 0bc6 2693     		str	r3, [sp, #152]
 2063              		.loc 1 846 0
 2064 0bc8 0223     		movs	r3, #2
 2065 0bca 2893     		str	r3, [sp, #160]
 2066              		.loc 1 847 0
 2067 0bcc 0123     		movs	r3, #1
 2068 0bce 2793     		str	r3, [sp, #156]
 2069              		.loc 1 848 0
 2070 0bd0 0423     		movs	r3, #4
 2071 0bd2 2993     		str	r3, [sp, #164]
 2072              		.loc 1 850 0
 2073 0bd4 25AB     		add	r3, sp, #148
 2074 0bd6 1848     		ldr	r0, .L129+4
 2075 0bd8 1946     		mov	r1, r3
 2076 0bda FFF7FEFF 		bl	HAL_GPIO_Init
 2077              	.LBB25:
 2078              		.loc 1 853 0
 2079 0bde 154B     		ldr	r3, .L129
 2080 0be0 144A     		ldr	r2, .L129
 2081 0be2 926D     		ldr	r2, [r2, #88]
 2082 0be4 42F40002 		orr	r2, r2, #8388608
ARM GAS  /tmp/cc602Zqo.s 			page 38


 2083 0be8 9A65     		str	r2, [r3, #88]
 2084 0bea 124B     		ldr	r3, .L129
 2085 0bec 9B6D     		ldr	r3, [r3, #88]
 2086 0bee 03F40003 		and	r3, r3, #8388608
 2087 0bf2 0193     		str	r3, [sp, #4]
 2088 0bf4 019B     		ldr	r3, [sp, #4]
 2089              	.LBE25:
 2090              		.loc 1 856 0
 2091 0bf6 0F4B     		ldr	r3, .L129
 2092 0bf8 0E4A     		ldr	r2, .L129
 2093 0bfa 926B     		ldr	r2, [r2, #56]
 2094 0bfc 42F40002 		orr	r2, r2, #8388608
 2095 0c00 9A63     		str	r2, [r3, #56]
 2096              		.loc 1 859 0
 2097 0c02 0C4B     		ldr	r3, .L129
 2098 0c04 0B4A     		ldr	r2, .L129
 2099 0c06 926B     		ldr	r2, [r2, #56]
 2100 0c08 22F40002 		bic	r2, r2, #8388608
 2101 0c0c 9A63     		str	r2, [r3, #56]
 2102              		.loc 1 862 0
 2103 0c0e 4820     		movs	r0, #72
 2104 0c10 0021     		movs	r1, #0
 2105 0c12 0022     		movs	r2, #0
 2106 0c14 FFF7FEFF 		bl	HAL_NVIC_SetPriority
 2107              		.loc 1 863 0
 2108 0c18 4820     		movs	r0, #72
 2109 0c1a FFF7FEFF 		bl	HAL_NVIC_EnableIRQ
 2110              		.loc 1 866 0
 2111 0c1e 4920     		movs	r0, #73
 2112 0c20 0021     		movs	r1, #0
 2113 0c22 0022     		movs	r2, #0
 2114 0c24 FFF7FEFF 		bl	HAL_NVIC_SetPriority
 2115              		.loc 1 867 0
 2116 0c28 4920     		movs	r0, #73
 2117 0c2a FFF7FEFF 		bl	HAL_NVIC_EnableIRQ
 2118              		.loc 1 869 0
 2119 0c2e 2BB0     		add	sp, sp, #172
 2120              		@ sp needed
 2121 0c30 5DF804FB 		ldr	pc, [sp], #4
 2122              	.L130:
 2123              		.align	2
 2124              	.L129:
 2125 0c34 00100240 		.word	1073876992
 2126 0c38 00080048 		.word	1207961600
 2127              		.cfi_endproc
 2128              	.LFE150:
 2129              		.size	I2C_SENSORTILE_MspInit, .-I2C_SENSORTILE_MspInit
 2130              		.align	2
 2131 0c3c AFF30080 		.p2align 4,,15
 2132              		.thumb
 2133              		.thumb_func
 2134              		.type	SD_IO_SPI_MspInit, %function
 2135              	SD_IO_SPI_MspInit:
 2136              	.LFB151:
 2137              		.loc 1 879 0
 2138              		.cfi_startproc
 2139              		@ args = 0, pretend = 0, frame = 48
ARM GAS  /tmp/cc602Zqo.s 			page 39


 2140              		@ frame_needed = 0, uses_anonymous_args = 0
 2141 0c40 00B5     		push	{lr}
 2142              		.cfi_def_cfa_offset 4
 2143              		.cfi_offset 14, -4
 2144 0c42 8DB0     		sub	sp, sp, #52
 2145              		.cfi_def_cfa_offset 56
 2146 0c44 0190     		str	r0, [sp, #4]
 2147              	.LBB26:
 2148              		.loc 1 883 0
 2149 0c46 2A4B     		ldr	r3, .L132
 2150 0c48 294A     		ldr	r2, .L132
 2151 0c4a 926D     		ldr	r2, [r2, #88]
 2152 0c4c 42F08052 		orr	r2, r2, #268435456
 2153 0c50 9A65     		str	r2, [r3, #88]
 2154 0c52 274B     		ldr	r3, .L132
 2155 0c54 9B6D     		ldr	r3, [r3, #88]
 2156 0c56 03F08053 		and	r3, r3, #268435456
 2157 0c5a 0693     		str	r3, [sp, #24]
 2158 0c5c 069B     		ldr	r3, [sp, #24]
 2159              	.LBE26:
 2160              		.loc 1 884 0
 2161 0c5e FFF7FEFF 		bl	HAL_PWREx_EnableVddIO2
 2162              	.LBB27:
 2163              		.loc 1 888 0
 2164 0c62 234B     		ldr	r3, .L132
 2165 0c64 224A     		ldr	r2, .L132
 2166 0c66 D26C     		ldr	r2, [r2, #76]
 2167 0c68 42F04002 		orr	r2, r2, #64
 2168 0c6c DA64     		str	r2, [r3, #76]
 2169 0c6e 204B     		ldr	r3, .L132
 2170 0c70 DB6C     		ldr	r3, [r3, #76]
 2171 0c72 03F04003 		and	r3, r3, #64
 2172 0c76 0593     		str	r3, [sp, #20]
 2173 0c78 059B     		ldr	r3, [sp, #20]
 2174              	.LBE27:
 2175              	.LBB28:
 2176              		.loc 1 889 0
 2177 0c7a 1D4B     		ldr	r3, .L132
 2178 0c7c 1C4A     		ldr	r2, .L132
 2179 0c7e D26C     		ldr	r2, [r2, #76]
 2180 0c80 42F04002 		orr	r2, r2, #64
 2181 0c84 DA64     		str	r2, [r3, #76]
 2182 0c86 1A4B     		ldr	r3, .L132
 2183 0c88 DB6C     		ldr	r3, [r3, #76]
 2184 0c8a 03F04003 		and	r3, r3, #64
 2185 0c8e 0493     		str	r3, [sp, #16]
 2186 0c90 049B     		ldr	r3, [sp, #16]
 2187              	.LBE28:
 2188              		.loc 1 892 0
 2189 0c92 4FF40073 		mov	r3, #512
 2190 0c96 0793     		str	r3, [sp, #28]
 2191              		.loc 1 893 0
 2192 0c98 0223     		movs	r3, #2
 2193 0c9a 0893     		str	r3, [sp, #32]
 2194              		.loc 1 894 0
 2195 0c9c 0023     		movs	r3, #0
 2196 0c9e 0993     		str	r3, [sp, #36]
ARM GAS  /tmp/cc602Zqo.s 			page 40


 2197              		.loc 1 895 0
 2198 0ca0 0323     		movs	r3, #3
 2199 0ca2 0A93     		str	r3, [sp, #40]
 2200              		.loc 1 896 0
 2201 0ca4 0623     		movs	r3, #6
 2202 0ca6 0B93     		str	r3, [sp, #44]
 2203              		.loc 1 897 0
 2204 0ca8 07AB     		add	r3, sp, #28
 2205 0caa 1248     		ldr	r0, .L132+4
 2206 0cac 1946     		mov	r1, r3
 2207 0cae FFF7FEFF 		bl	HAL_GPIO_Init
 2208              		.loc 1 900 0
 2209 0cb2 4FF44063 		mov	r3, #3072
 2210 0cb6 0793     		str	r3, [sp, #28]
 2211              		.loc 1 901 0
 2212 0cb8 0223     		movs	r3, #2
 2213 0cba 0893     		str	r3, [sp, #32]
 2214              		.loc 1 902 0
 2215 0cbc 0023     		movs	r3, #0
 2216 0cbe 0993     		str	r3, [sp, #36]
 2217              		.loc 1 903 0
 2218 0cc0 0323     		movs	r3, #3
 2219 0cc2 0A93     		str	r3, [sp, #40]
 2220              		.loc 1 904 0
 2221 0cc4 0623     		movs	r3, #6
 2222 0cc6 0B93     		str	r3, [sp, #44]
 2223              		.loc 1 905 0
 2224 0cc8 07AB     		add	r3, sp, #28
 2225 0cca 0A48     		ldr	r0, .L132+4
 2226 0ccc 1946     		mov	r1, r3
 2227 0cce FFF7FEFF 		bl	HAL_GPIO_Init
 2228              	.LBB29:
 2229              		.loc 1 909 0
 2230 0cd2 074B     		ldr	r3, .L132
 2231 0cd4 064A     		ldr	r2, .L132
 2232 0cd6 926D     		ldr	r2, [r2, #88]
 2233 0cd8 42F40042 		orr	r2, r2, #32768
 2234 0cdc 9A65     		str	r2, [r3, #88]
 2235 0cde 044B     		ldr	r3, .L132
 2236 0ce0 9B6D     		ldr	r3, [r3, #88]
 2237 0ce2 03F40043 		and	r3, r3, #32768
 2238 0ce6 0393     		str	r3, [sp, #12]
 2239 0ce8 039B     		ldr	r3, [sp, #12]
 2240              	.LBE29:
 2241              		.loc 1 910 0
 2242 0cea 0DB0     		add	sp, sp, #52
 2243              		@ sp needed
 2244 0cec 5DF804FB 		ldr	pc, [sp], #4
 2245              	.L133:
 2246              		.align	2
 2247              	.L132:
 2248 0cf0 00100240 		.word	1073876992
 2249 0cf4 00180048 		.word	1207965696
 2250              		.cfi_endproc
 2251              	.LFE151:
 2252              		.size	SD_IO_SPI_MspInit, .-SD_IO_SPI_MspInit
 2253              		.align	2
ARM GAS  /tmp/cc602Zqo.s 			page 41


 2254 0cf8 AFF30080 		.p2align 4,,15
 2254      AFF30080 
 2255              		.thumb
 2256              		.thumb_func
 2257              		.type	SD_IO_SPI_Init_LS, %function
 2258              	SD_IO_SPI_Init_LS:
 2259              	.LFB152:
 2260              		.loc 1 918 0
 2261              		.cfi_startproc
 2262              		@ args = 0, pretend = 0, frame = 0
 2263              		@ frame_needed = 0, uses_anonymous_args = 0
 2264 0d00 08B5     		push	{r3, lr}
 2265              		.cfi_def_cfa_offset 8
 2266              		.cfi_offset 3, -8
 2267              		.cfi_offset 14, -4
 2268              		.loc 1 919 0
 2269 0d02 1A48     		ldr	r0, .L136
 2270 0d04 FFF7FEFF 		bl	HAL_SPI_GetState
 2271 0d08 0346     		mov	r3, r0
 2272 0d0a 002B     		cmp	r3, #0
 2273 0d0c 2CD1     		bne	.L134
 2274              		.loc 1 922 0
 2275 0d0e 174B     		ldr	r3, .L136
 2276 0d10 174A     		ldr	r2, .L136+4
 2277 0d12 1A60     		str	r2, [r3]
 2278              		.loc 1 924 0
 2279 0d14 154B     		ldr	r3, .L136
 2280 0d16 3022     		movs	r2, #48
 2281 0d18 DA61     		str	r2, [r3, #28]
 2282              		.loc 1 925 0
 2283 0d1a 144B     		ldr	r3, .L136
 2284 0d1c 0022     		movs	r2, #0
 2285 0d1e 9A60     		str	r2, [r3, #8]
 2286              		.loc 1 926 0
 2287 0d20 124B     		ldr	r3, .L136
 2288 0d22 0122     		movs	r2, #1
 2289 0d24 5A61     		str	r2, [r3, #20]
 2290              		.loc 1 927 0
 2291 0d26 114B     		ldr	r3, .L136
 2292 0d28 0222     		movs	r2, #2
 2293 0d2a 1A61     		str	r2, [r3, #16]
 2294              		.loc 1 928 0
 2295 0d2c 0F4B     		ldr	r3, .L136
 2296 0d2e 0022     		movs	r2, #0
 2297 0d30 9A62     		str	r2, [r3, #40]
 2298              		.loc 1 929 0
 2299 0d32 0E4B     		ldr	r3, .L136
 2300 0d34 0722     		movs	r2, #7
 2301 0d36 DA62     		str	r2, [r3, #44]
 2302              		.loc 1 930 0
 2303 0d38 0C4B     		ldr	r3, .L136
 2304 0d3a 4FF4E062 		mov	r2, #1792
 2305 0d3e DA60     		str	r2, [r3, #12]
 2306              		.loc 1 931 0
 2307 0d40 0A4B     		ldr	r3, .L136
 2308 0d42 0022     		movs	r2, #0
 2309 0d44 1A62     		str	r2, [r3, #32]
ARM GAS  /tmp/cc602Zqo.s 			page 42


 2310              		.loc 1 932 0
 2311 0d46 094B     		ldr	r3, .L136
 2312 0d48 4FF40072 		mov	r2, #512
 2313 0d4c 9A61     		str	r2, [r3, #24]
 2314              		.loc 1 933 0
 2315 0d4e 074B     		ldr	r3, .L136
 2316 0d50 0022     		movs	r2, #0
 2317 0d52 5A62     		str	r2, [r3, #36]
 2318              		.loc 1 934 0
 2319 0d54 054B     		ldr	r3, .L136
 2320 0d56 4FF48272 		mov	r2, #260
 2321 0d5a 5A60     		str	r2, [r3, #4]
 2322              		.loc 1 936 0
 2323 0d5c 0348     		ldr	r0, .L136
 2324 0d5e FFF76FFF 		bl	SD_IO_SPI_MspInit
 2325              		.loc 1 937 0
 2326 0d62 0248     		ldr	r0, .L136
 2327 0d64 FFF7FEFF 		bl	HAL_SPI_Init
 2328              	.L134:
 2329              		.loc 1 939 0
 2330 0d68 08BD     		pop	{r3, pc}
 2331              	.L137:
 2332 0d6a 00BF     		.align	2
 2333              	.L136:
 2334 0d6c B0000000 		.word	SPI_SD_Handle
 2335 0d70 003C0040 		.word	1073757184
 2336              		.cfi_endproc
 2337              	.LFE152:
 2338              		.size	SD_IO_SPI_Init_LS, .-SD_IO_SPI_Init_LS
 2339              		.align	2
 2340 0d74 AFF30080 		.p2align 4,,15
 2340      AFF30080 
 2340      AFF30080 
 2341              		.thumb
 2342              		.thumb_func
 2343              		.type	SD_IO_SPI_Init, %function
 2344              	SD_IO_SPI_Init:
 2345              	.LFB153:
 2346              		.loc 1 945 0
 2347              		.cfi_startproc
 2348              		@ args = 0, pretend = 0, frame = 0
 2349              		@ frame_needed = 0, uses_anonymous_args = 0
 2350 0d80 08B5     		push	{r3, lr}
 2351              		.cfi_def_cfa_offset 8
 2352              		.cfi_offset 3, -8
 2353              		.cfi_offset 14, -4
 2354              		.loc 1 946 0
 2355 0d82 1A48     		ldr	r0, .L140
 2356 0d84 FFF7FEFF 		bl	HAL_SPI_GetState
 2357 0d88 0346     		mov	r3, r0
 2358 0d8a 002B     		cmp	r3, #0
 2359 0d8c 2CD1     		bne	.L138
 2360              		.loc 1 949 0
 2361 0d8e 174B     		ldr	r3, .L140
 2362 0d90 174A     		ldr	r2, .L140+4
 2363 0d92 1A60     		str	r2, [r3]
 2364              		.loc 1 951 0
ARM GAS  /tmp/cc602Zqo.s 			page 43


 2365 0d94 154B     		ldr	r3, .L140
 2366 0d96 0822     		movs	r2, #8
 2367 0d98 DA61     		str	r2, [r3, #28]
 2368              		.loc 1 952 0
 2369 0d9a 144B     		ldr	r3, .L140
 2370 0d9c 0022     		movs	r2, #0
 2371 0d9e 9A60     		str	r2, [r3, #8]
 2372              		.loc 1 953 0
 2373 0da0 124B     		ldr	r3, .L140
 2374 0da2 0122     		movs	r2, #1
 2375 0da4 5A61     		str	r2, [r3, #20]
 2376              		.loc 1 954 0
 2377 0da6 114B     		ldr	r3, .L140
 2378 0da8 0222     		movs	r2, #2
 2379 0daa 1A61     		str	r2, [r3, #16]
 2380              		.loc 1 955 0
 2381 0dac 0F4B     		ldr	r3, .L140
 2382 0dae 0022     		movs	r2, #0
 2383 0db0 9A62     		str	r2, [r3, #40]
 2384              		.loc 1 956 0
 2385 0db2 0E4B     		ldr	r3, .L140
 2386 0db4 0722     		movs	r2, #7
 2387 0db6 DA62     		str	r2, [r3, #44]
 2388              		.loc 1 957 0
 2389 0db8 0C4B     		ldr	r3, .L140
 2390 0dba 4FF4E062 		mov	r2, #1792
 2391 0dbe DA60     		str	r2, [r3, #12]
 2392              		.loc 1 958 0
 2393 0dc0 0A4B     		ldr	r3, .L140
 2394 0dc2 0022     		movs	r2, #0
 2395 0dc4 1A62     		str	r2, [r3, #32]
 2396              		.loc 1 959 0
 2397 0dc6 094B     		ldr	r3, .L140
 2398 0dc8 4FF40072 		mov	r2, #512
 2399 0dcc 9A61     		str	r2, [r3, #24]
 2400              		.loc 1 960 0
 2401 0dce 074B     		ldr	r3, .L140
 2402 0dd0 0022     		movs	r2, #0
 2403 0dd2 5A62     		str	r2, [r3, #36]
 2404              		.loc 1 961 0
 2405 0dd4 054B     		ldr	r3, .L140
 2406 0dd6 4FF48272 		mov	r2, #260
 2407 0dda 5A60     		str	r2, [r3, #4]
 2408              		.loc 1 963 0
 2409 0ddc 0348     		ldr	r0, .L140
 2410 0dde FFF72FFF 		bl	SD_IO_SPI_MspInit
 2411              		.loc 1 964 0
 2412 0de2 0248     		ldr	r0, .L140
 2413 0de4 FFF7FEFF 		bl	HAL_SPI_Init
 2414              	.L138:
 2415              		.loc 1 968 0
 2416 0de8 08BD     		pop	{r3, pc}
 2417              	.L141:
 2418 0dea 00BF     		.align	2
 2419              	.L140:
 2420 0dec B0000000 		.word	SPI_SD_Handle
 2421 0df0 003C0040 		.word	1073757184
ARM GAS  /tmp/cc602Zqo.s 			page 44


 2422              		.cfi_endproc
 2423              	.LFE153:
 2424              		.size	SD_IO_SPI_Init, .-SD_IO_SPI_Init
 2425              		.align	2
 2426 0df4 AFF30080 		.p2align 4,,15
 2426      AFF30080 
 2426      AFF30080 
 2427              		.thumb
 2428              		.thumb_func
 2429              		.type	SD_IO_SPI_Read, %function
 2430              	SD_IO_SPI_Read:
 2431              	.LFB154:
 2432              		.loc 1 976 0
 2433              		.cfi_startproc
 2434              		@ args = 0, pretend = 0, frame = 16
 2435              		@ frame_needed = 0, uses_anonymous_args = 0
 2436 0e00 00B5     		push	{lr}
 2437              		.cfi_def_cfa_offset 4
 2438              		.cfi_offset 14, -4
 2439 0e02 87B0     		sub	sp, sp, #28
 2440              		.cfi_def_cfa_offset 32
 2441              		.loc 1 977 0
 2442 0e04 0023     		movs	r3, #0
 2443 0e06 8DF81730 		strb	r3, [sp, #23]
 2444              		.loc 1 978 0
 2445 0e0a 0023     		movs	r3, #0
 2446 0e0c 0493     		str	r3, [sp, #16]
 2447              		.loc 1 979 0
 2448 0e0e 4FF0FF33 		mov	r3, #-1
 2449 0e12 0393     		str	r3, [sp, #12]
 2450              		.loc 1 981 0
 2451 0e14 0C4B     		ldr	r3, .L145
 2452 0e16 1968     		ldr	r1, [r3]
 2453 0e18 03AA     		add	r2, sp, #12
 2454 0e1a 04AB     		add	r3, sp, #16
 2455 0e1c 0091     		str	r1, [sp]
 2456 0e1e 0B48     		ldr	r0, .L145+4
 2457 0e20 1146     		mov	r1, r2
 2458 0e22 1A46     		mov	r2, r3
 2459 0e24 0123     		movs	r3, #1
 2460 0e26 FFF7FEFF 		bl	HAL_SPI_TransmitReceive
 2461 0e2a 0346     		mov	r3, r0
 2462 0e2c 8DF81730 		strb	r3, [sp, #23]
 2463              		.loc 1 984 0
 2464 0e30 9DF81730 		ldrb	r3, [sp, #23]	@ zero_extendqisi2
 2465 0e34 002B     		cmp	r3, #0
 2466 0e36 01D0     		beq	.L143
 2467              		.loc 1 987 0
 2468 0e38 00F032F8 		bl	SD_IO_SPI_Error
 2469              	.L143:
 2470              		.loc 1 990 0
 2471 0e3c 049B     		ldr	r3, [sp, #16]
 2472              		.loc 1 991 0
 2473 0e3e 1846     		mov	r0, r3
 2474 0e40 07B0     		add	sp, sp, #28
 2475              		@ sp needed
 2476 0e42 5DF804FB 		ldr	pc, [sp], #4
ARM GAS  /tmp/cc602Zqo.s 			page 45


 2477              	.L146:
 2478 0e46 00BF     		.align	2
 2479              	.L145:
 2480 0e48 00000000 		.word	SpixTimeout
 2481 0e4c B0000000 		.word	SPI_SD_Handle
 2482              		.cfi_endproc
 2483              	.LFE154:
 2484              		.size	SD_IO_SPI_Read, .-SD_IO_SPI_Read
 2485              		.align	2
 2486              		.p2align 4,,15
 2487              		.thumb
 2488              		.thumb_func
 2489              		.type	SD_IO_SPI_Write, %function
 2490              	SD_IO_SPI_Write:
 2491              	.LFB155:
 2492              		.loc 1 999 0
 2493              		.cfi_startproc
 2494              		@ args = 0, pretend = 0, frame = 16
 2495              		@ frame_needed = 0, uses_anonymous_args = 0
 2496 0e50 00B5     		push	{lr}
 2497              		.cfi_def_cfa_offset 4
 2498              		.cfi_offset 14, -4
 2499 0e52 85B0     		sub	sp, sp, #20
 2500              		.cfi_def_cfa_offset 24
 2501 0e54 0346     		mov	r3, r0
 2502 0e56 8DF80730 		strb	r3, [sp, #7]
 2503              		.loc 1 1000 0
 2504 0e5a 0023     		movs	r3, #0
 2505 0e5c 8DF80F30 		strb	r3, [sp, #15]
 2506              		.loc 1 1002 0
 2507 0e60 0A4B     		ldr	r3, .L149
 2508 0e62 1B68     		ldr	r3, [r3]
 2509 0e64 0DF10702 		add	r2, sp, #7
 2510 0e68 0948     		ldr	r0, .L149+4
 2511 0e6a 1146     		mov	r1, r2
 2512 0e6c 0122     		movs	r2, #1
 2513 0e6e FFF7FEFF 		bl	HAL_SPI_Transmit
 2514 0e72 0346     		mov	r3, r0
 2515 0e74 8DF80F30 		strb	r3, [sp, #15]
 2516              		.loc 1 1005 0
 2517 0e78 9DF80F30 		ldrb	r3, [sp, #15]	@ zero_extendqisi2
 2518 0e7c 002B     		cmp	r3, #0
 2519 0e7e 01D0     		beq	.L147
 2520              		.loc 1 1008 0
 2521 0e80 00F00EF8 		bl	SD_IO_SPI_Error
 2522              	.L147:
 2523              		.loc 1 1010 0
 2524 0e84 05B0     		add	sp, sp, #20
 2525              		@ sp needed
 2526 0e86 5DF804FB 		ldr	pc, [sp], #4
 2527              	.L150:
 2528 0e8a 00BF     		.align	2
 2529              	.L149:
 2530 0e8c 00000000 		.word	SpixTimeout
 2531 0e90 B0000000 		.word	SPI_SD_Handle
 2532              		.cfi_endproc
 2533              	.LFE155:
ARM GAS  /tmp/cc602Zqo.s 			page 46


 2534              		.size	SD_IO_SPI_Write, .-SD_IO_SPI_Write
 2535              		.align	2
 2536 0e94 AFF30080 		.p2align 4,,15
 2536      AFF30080 
 2536      AFF30080 
 2537              		.thumb
 2538              		.thumb_func
 2539              		.type	SD_IO_SPI_Error, %function
 2540              	SD_IO_SPI_Error:
 2541              	.LFB156:
 2542              		.loc 1 1018 0
 2543              		.cfi_startproc
 2544              		@ args = 0, pretend = 0, frame = 0
 2545              		@ frame_needed = 0, uses_anonymous_args = 0
 2546 0ea0 08B5     		push	{r3, lr}
 2547              		.cfi_def_cfa_offset 8
 2548              		.cfi_offset 3, -8
 2549              		.cfi_offset 14, -4
 2550              		.loc 1 1020 0
 2551 0ea2 0348     		ldr	r0, .L152
 2552 0ea4 FFF7FEFF 		bl	HAL_SPI_DeInit
 2553              		.loc 1 1023 0
 2554 0ea8 FFF76AFF 		bl	SD_IO_SPI_Init
 2555              		.loc 1 1024 0
 2556 0eac 08BD     		pop	{r3, pc}
 2557              	.L153:
 2558 0eae 00BF     		.align	2
 2559              	.L152:
 2560 0eb0 B0000000 		.word	SPI_SD_Handle
 2561              		.cfi_endproc
 2562              	.LFE156:
 2563              		.size	SD_IO_SPI_Error, .-SD_IO_SPI_Error
 2564              		.align	2
 2565 0eb4 AFF30080 		.p2align 4,,15
 2565      AFF30080 
 2565      AFF30080 
 2566              		.global	SD_IO_Init
 2567              		.thumb
 2568              		.thumb_func
 2569              		.type	SD_IO_Init, %function
 2570              	SD_IO_Init:
 2571              	.LFB157:
 2572              		.loc 1 1035 0
 2573              		.cfi_startproc
 2574              		@ args = 0, pretend = 0, frame = 8
 2575              		@ frame_needed = 0, uses_anonymous_args = 0
 2576 0ec0 00B5     		push	{lr}
 2577              		.cfi_def_cfa_offset 4
 2578              		.cfi_offset 14, -4
 2579 0ec2 83B0     		sub	sp, sp, #12
 2580              		.cfi_def_cfa_offset 16
 2581              		.loc 1 1039 0
 2582 0ec4 FFF7FEFF 		bl	SD_IO_CS_Init
 2583              		.loc 1 1042 0
 2584 0ec8 FFF75AFF 		bl	SD_IO_SPI_Init
 2585              		.loc 1 1044 0
 2586 0ecc 0C48     		ldr	r0, .L157
ARM GAS  /tmp/cc602Zqo.s 			page 47


 2587 0ece 4FF48051 		mov	r1, #4096
 2588 0ed2 0122     		movs	r2, #1
 2589 0ed4 FFF7FEFF 		bl	HAL_GPIO_WritePin
 2590              		.loc 1 1048 0
 2591 0ed8 0023     		movs	r3, #0
 2592 0eda 8DF80730 		strb	r3, [sp, #7]
 2593 0ede 07E0     		b	.L155
 2594              	.L156:
 2595              		.loc 1 1051 0 discriminator 2
 2596 0ee0 FF20     		movs	r0, #255
 2597 0ee2 FFF7FEFF 		bl	SD_IO_WriteByte
 2598              		.loc 1 1048 0 discriminator 2
 2599 0ee6 9DF80730 		ldrb	r3, [sp, #7]	@ zero_extendqisi2
 2600 0eea 0133     		adds	r3, r3, #1
 2601 0eec 8DF80730 		strb	r3, [sp, #7]
 2602              	.L155:
 2603              		.loc 1 1048 0 is_stmt 0 discriminator 1
 2604 0ef0 9DF80730 		ldrb	r3, [sp, #7]	@ zero_extendqisi2
 2605 0ef4 092B     		cmp	r3, #9
 2606 0ef6 F3D9     		bls	.L156
 2607              		.loc 1 1053 0 is_stmt 1
 2608 0ef8 03B0     		add	sp, sp, #12
 2609              		@ sp needed
 2610 0efa 5DF804FB 		ldr	pc, [sp], #4
 2611              	.L158:
 2612 0efe 00BF     		.align	2
 2613              	.L157:
 2614 0f00 00180048 		.word	1207965696
 2615              		.cfi_endproc
 2616              	.LFE157:
 2617              		.size	SD_IO_Init, .-SD_IO_Init
 2618              		.align	2
 2619 0f04 AFF30080 		.p2align 4,,15
 2619      AFF30080 
 2619      AFF30080 
 2620              		.global	SD_IO_Init_LS
 2621              		.thumb
 2622              		.thumb_func
 2623              		.type	SD_IO_Init_LS, %function
 2624              	SD_IO_Init_LS:
 2625              	.LFB158:
 2626              		.loc 1 1062 0
 2627              		.cfi_startproc
 2628              		@ args = 0, pretend = 0, frame = 8
 2629              		@ frame_needed = 0, uses_anonymous_args = 0
 2630 0f10 00B5     		push	{lr}
 2631              		.cfi_def_cfa_offset 4
 2632              		.cfi_offset 14, -4
 2633 0f12 83B0     		sub	sp, sp, #12
 2634              		.cfi_def_cfa_offset 16
 2635              		.loc 1 1066 0
 2636 0f14 FFF7FEFF 		bl	SD_IO_CS_Init
 2637              		.loc 1 1069 0
 2638 0f18 FFF7F2FE 		bl	SD_IO_SPI_Init_LS
 2639              		.loc 1 1071 0
 2640 0f1c 0C48     		ldr	r0, .L162
 2641 0f1e 4FF48051 		mov	r1, #4096
ARM GAS  /tmp/cc602Zqo.s 			page 48


 2642 0f22 0122     		movs	r2, #1
 2643 0f24 FFF7FEFF 		bl	HAL_GPIO_WritePin
 2644              		.loc 1 1075 0
 2645 0f28 0023     		movs	r3, #0
 2646 0f2a 8DF80730 		strb	r3, [sp, #7]
 2647 0f2e 07E0     		b	.L160
 2648              	.L161:
 2649              		.loc 1 1078 0 discriminator 2
 2650 0f30 FF20     		movs	r0, #255
 2651 0f32 FFF7FEFF 		bl	SD_IO_WriteByte
 2652              		.loc 1 1075 0 discriminator 2
 2653 0f36 9DF80730 		ldrb	r3, [sp, #7]	@ zero_extendqisi2
 2654 0f3a 0133     		adds	r3, r3, #1
 2655 0f3c 8DF80730 		strb	r3, [sp, #7]
 2656              	.L160:
 2657              		.loc 1 1075 0 is_stmt 0 discriminator 1
 2658 0f40 9DF80730 		ldrb	r3, [sp, #7]	@ zero_extendqisi2
 2659 0f44 092B     		cmp	r3, #9
 2660 0f46 F3D9     		bls	.L161
 2661              		.loc 1 1080 0 is_stmt 1
 2662 0f48 03B0     		add	sp, sp, #12
 2663              		@ sp needed
 2664 0f4a 5DF804FB 		ldr	pc, [sp], #4
 2665              	.L163:
 2666 0f4e 00BF     		.align	2
 2667              	.L162:
 2668 0f50 00180048 		.word	1207965696
 2669              		.cfi_endproc
 2670              	.LFE158:
 2671              		.size	SD_IO_Init_LS, .-SD_IO_Init_LS
 2672              		.align	2
 2673 0f54 AFF30080 		.p2align 4,,15
 2673      AFF30080 
 2673      AFF30080 
 2674              		.global	SD_IO_CS_Init
 2675              		.thumb
 2676              		.thumb_func
 2677              		.type	SD_IO_CS_Init, %function
 2678              	SD_IO_CS_Init:
 2679              	.LFB159:
 2680              		.loc 1 1083 0
 2681              		.cfi_startproc
 2682              		@ args = 0, pretend = 0, frame = 24
 2683              		@ frame_needed = 0, uses_anonymous_args = 0
 2684 0f60 00B5     		push	{lr}
 2685              		.cfi_def_cfa_offset 4
 2686              		.cfi_offset 14, -4
 2687 0f62 87B0     		sub	sp, sp, #28
 2688              		.cfi_def_cfa_offset 32
 2689              	.LBB30:
 2690              		.loc 1 1087 0
 2691 0f64 0E4B     		ldr	r3, .L165
 2692 0f66 0E4A     		ldr	r2, .L165
 2693 0f68 D26C     		ldr	r2, [r2, #76]
 2694 0f6a 42F04002 		orr	r2, r2, #64
 2695 0f6e DA64     		str	r2, [r3, #76]
 2696 0f70 0B4B     		ldr	r3, .L165
ARM GAS  /tmp/cc602Zqo.s 			page 49


 2697 0f72 DB6C     		ldr	r3, [r3, #76]
 2698 0f74 03F04003 		and	r3, r3, #64
 2699 0f78 0093     		str	r3, [sp]
 2700 0f7a 009B     		ldr	r3, [sp]
 2701              	.LBE30:
 2702              		.loc 1 1090 0
 2703 0f7c 4FF48053 		mov	r3, #4096
 2704 0f80 0193     		str	r3, [sp, #4]
 2705              		.loc 1 1091 0
 2706 0f82 0123     		movs	r3, #1
 2707 0f84 0293     		str	r3, [sp, #8]
 2708              		.loc 1 1092 0
 2709 0f86 0123     		movs	r3, #1
 2710 0f88 0393     		str	r3, [sp, #12]
 2711              		.loc 1 1093 0
 2712 0f8a 0323     		movs	r3, #3
 2713 0f8c 0493     		str	r3, [sp, #16]
 2714              		.loc 1 1094 0
 2715 0f8e 01AB     		add	r3, sp, #4
 2716 0f90 0448     		ldr	r0, .L165+4
 2717 0f92 1946     		mov	r1, r3
 2718 0f94 FFF7FEFF 		bl	HAL_GPIO_Init
 2719              		.loc 1 1098 0
 2720 0f98 07B0     		add	sp, sp, #28
 2721              		@ sp needed
 2722 0f9a 5DF804FB 		ldr	pc, [sp], #4
 2723              	.L166:
 2724 0f9e 00BF     		.align	2
 2725              	.L165:
 2726 0fa0 00100240 		.word	1073876992
 2727 0fa4 00180048 		.word	1207965696
 2728              		.cfi_endproc
 2729              	.LFE159:
 2730              		.size	SD_IO_CS_Init, .-SD_IO_CS_Init
 2731              		.align	2
 2732 0fa8 AFF30080 		.p2align 4,,15
 2732      AFF30080 
 2733              		.global	SD_IO_CS_DeInit
 2734              		.thumb
 2735              		.thumb_func
 2736              		.type	SD_IO_CS_DeInit, %function
 2737              	SD_IO_CS_DeInit:
 2738              	.LFB160:
 2739              		.loc 1 1101 0
 2740              		.cfi_startproc
 2741              		@ args = 0, pretend = 0, frame = 24
 2742              		@ frame_needed = 0, uses_anonymous_args = 0
 2743 0fb0 00B5     		push	{lr}
 2744              		.cfi_def_cfa_offset 4
 2745              		.cfi_offset 14, -4
 2746 0fb2 87B0     		sub	sp, sp, #28
 2747              		.cfi_def_cfa_offset 32
 2748              		.loc 1 1105 0
 2749 0fb4 4FF48053 		mov	r3, #4096
 2750 0fb8 0193     		str	r3, [sp, #4]
 2751              		.loc 1 1106 0
 2752 0fba 0323     		movs	r3, #3
ARM GAS  /tmp/cc602Zqo.s 			page 50


 2753 0fbc 0293     		str	r3, [sp, #8]
 2754              		.loc 1 1107 0
 2755 0fbe 0023     		movs	r3, #0
 2756 0fc0 0393     		str	r3, [sp, #12]
 2757              		.loc 1 1108 0
 2758 0fc2 0323     		movs	r3, #3
 2759 0fc4 0493     		str	r3, [sp, #16]
 2760              		.loc 1 1109 0
 2761 0fc6 01AB     		add	r3, sp, #4
 2762 0fc8 0348     		ldr	r0, .L168
 2763 0fca 1946     		mov	r1, r3
 2764 0fcc FFF7FEFF 		bl	HAL_GPIO_Init
 2765              		.loc 1 1110 0
 2766 0fd0 07B0     		add	sp, sp, #28
 2767              		@ sp needed
 2768 0fd2 5DF804FB 		ldr	pc, [sp], #4
 2769              	.L169:
 2770 0fd6 00BF     		.align	2
 2771              	.L168:
 2772 0fd8 00180048 		.word	1207965696
 2773              		.cfi_endproc
 2774              	.LFE160:
 2775              		.size	SD_IO_CS_DeInit, .-SD_IO_CS_DeInit
 2776              		.align	2
 2777 0fdc AFF30080 		.p2align 4,,15
 2778              		.global	SD_IO_WriteByte
 2779              		.thumb
 2780              		.thumb_func
 2781              		.type	SD_IO_WriteByte, %function
 2782              	SD_IO_WriteByte:
 2783              	.LFB161:
 2784              		.loc 1 1118 0
 2785              		.cfi_startproc
 2786              		@ args = 0, pretend = 0, frame = 8
 2787              		@ frame_needed = 0, uses_anonymous_args = 0
 2788 0fe0 00B5     		push	{lr}
 2789              		.cfi_def_cfa_offset 4
 2790              		.cfi_offset 14, -4
 2791 0fe2 83B0     		sub	sp, sp, #12
 2792              		.cfi_def_cfa_offset 16
 2793 0fe4 0346     		mov	r3, r0
 2794 0fe6 8DF80730 		strb	r3, [sp, #7]
 2795              		.loc 1 1120 0
 2796 0fea 9DF80730 		ldrb	r3, [sp, #7]	@ zero_extendqisi2
 2797 0fee 1846     		mov	r0, r3
 2798 0ff0 FFF72EFF 		bl	SD_IO_SPI_Write
 2799              		.loc 1 1121 0
 2800 0ff4 03B0     		add	sp, sp, #12
 2801              		@ sp needed
 2802 0ff6 5DF804FB 		ldr	pc, [sp], #4
 2803              		.cfi_endproc
 2804              	.LFE161:
 2805              		.size	SD_IO_WriteByte, .-SD_IO_WriteByte
 2806 0ffa 00BF     		.align	2
 2807 0ffc AFF30080 		.p2align 4,,15
 2808              		.global	SD_IO_ReadByte
 2809              		.thumb
ARM GAS  /tmp/cc602Zqo.s 			page 51


 2810              		.thumb_func
 2811              		.type	SD_IO_ReadByte, %function
 2812              	SD_IO_ReadByte:
 2813              	.LFB162:
 2814              		.loc 1 1129 0
 2815              		.cfi_startproc
 2816              		@ args = 0, pretend = 0, frame = 8
 2817              		@ frame_needed = 0, uses_anonymous_args = 0
 2818 1000 00B5     		push	{lr}
 2819              		.cfi_def_cfa_offset 4
 2820              		.cfi_offset 14, -4
 2821 1002 83B0     		sub	sp, sp, #12
 2822              		.cfi_def_cfa_offset 16
 2823              		.loc 1 1130 0
 2824 1004 0023     		movs	r3, #0
 2825 1006 8DF80730 		strb	r3, [sp, #7]
 2826              		.loc 1 1138 0
 2827 100a FFF7F9FE 		bl	SD_IO_SPI_Read
 2828 100e 0346     		mov	r3, r0
 2829 1010 8DF80730 		strb	r3, [sp, #7]
 2830              		.loc 1 1141 0
 2831 1014 9DF80730 		ldrb	r3, [sp, #7]	@ zero_extendqisi2
 2832              		.loc 1 1142 0
 2833 1018 1846     		mov	r0, r3
 2834 101a 03B0     		add	sp, sp, #12
 2835              		@ sp needed
 2836 101c 5DF804FB 		ldr	pc, [sp], #4
 2837              		.cfi_endproc
 2838              	.LFE162:
 2839              		.size	SD_IO_ReadByte, .-SD_IO_ReadByte
 2840              		.align	2
 2841              		.p2align 4,,15
 2842              		.global	SD_IO_WriteCmd_wResp
 2843              		.thumb
 2844              		.thumb_func
 2845              		.type	SD_IO_WriteCmd_wResp, %function
 2846              	SD_IO_WriteCmd_wResp:
 2847              	.LFB163:
 2848              		.loc 1 1154 0
 2849              		.cfi_startproc
 2850              		@ args = 0, pretend = 0, frame = 24
 2851              		@ frame_needed = 0, uses_anonymous_args = 0
 2852 1020 00B5     		push	{lr}
 2853              		.cfi_def_cfa_offset 4
 2854              		.cfi_offset 14, -4
 2855 1022 87B0     		sub	sp, sp, #28
 2856              		.cfi_def_cfa_offset 32
 2857 1024 0091     		str	r1, [sp]
 2858 1026 1346     		mov	r3, r2
 2859 1028 0246     		mov	r2, r0
 2860 102a 8DF80720 		strb	r2, [sp, #7]
 2861 102e 8DF80630 		strb	r3, [sp, #6]
 2862              		.loc 1 1155 0
 2863 1032 0023     		movs	r3, #0
 2864 1034 0593     		str	r3, [sp, #20]
 2865              		.loc 1 1159 0
 2866 1036 9DF80730 		ldrb	r3, [sp, #7]
ARM GAS  /tmp/cc602Zqo.s 			page 52


 2867 103a 43F04003 		orr	r3, r3, #64
 2868 103e DBB2     		uxtb	r3, r3
 2869 1040 8DF80830 		strb	r3, [sp, #8]
 2870              		.loc 1 1160 0
 2871 1044 009B     		ldr	r3, [sp]
 2872 1046 1B0E     		lsrs	r3, r3, #24
 2873 1048 DBB2     		uxtb	r3, r3
 2874 104a 8DF80930 		strb	r3, [sp, #9]
 2875              		.loc 1 1161 0
 2876 104e 009B     		ldr	r3, [sp]
 2877 1050 1B0C     		lsrs	r3, r3, #16
 2878 1052 DBB2     		uxtb	r3, r3
 2879 1054 8DF80A30 		strb	r3, [sp, #10]
 2880              		.loc 1 1162 0
 2881 1058 009B     		ldr	r3, [sp]
 2882 105a 1B0A     		lsrs	r3, r3, #8
 2883 105c DBB2     		uxtb	r3, r3
 2884 105e 8DF80B30 		strb	r3, [sp, #11]
 2885              		.loc 1 1163 0
 2886 1062 009B     		ldr	r3, [sp]
 2887 1064 DBB2     		uxtb	r3, r3
 2888 1066 8DF80C30 		strb	r3, [sp, #12]
 2889              		.loc 1 1164 0
 2890 106a 9DF80630 		ldrb	r3, [sp, #6]
 2891 106e 8DF80D30 		strb	r3, [sp, #13]
 2892              		.loc 1 1167 0
 2893 1072 1648     		ldr	r0, .L179
 2894 1074 4FF48051 		mov	r1, #4096
 2895 1078 0022     		movs	r2, #0
 2896 107a FFF7FEFF 		bl	HAL_GPIO_WritePin
 2897              		.loc 1 1170 0
 2898 107e 0023     		movs	r3, #0
 2899 1080 0593     		str	r3, [sp, #20]
 2900 1082 09E0     		b	.L174
 2901              	.L175:
 2902              		.loc 1 1172 0 discriminator 2
 2903 1084 02AA     		add	r2, sp, #8
 2904 1086 059B     		ldr	r3, [sp, #20]
 2905 1088 1344     		add	r3, r3, r2
 2906 108a 1B78     		ldrb	r3, [r3]	@ zero_extendqisi2
 2907 108c 1846     		mov	r0, r3
 2908 108e FFF7FEFF 		bl	SD_IO_WriteByte
 2909              		.loc 1 1170 0 discriminator 2
 2910 1092 059B     		ldr	r3, [sp, #20]
 2911 1094 0133     		adds	r3, r3, #1
 2912 1096 0593     		str	r3, [sp, #20]
 2913              	.L174:
 2914              		.loc 1 1170 0 is_stmt 0 discriminator 1
 2915 1098 059B     		ldr	r3, [sp, #20]
 2916 109a 052B     		cmp	r3, #5
 2917 109c F2D9     		bls	.L175
 2918              		.loc 1 1175 0 is_stmt 1
 2919 109e 0A23     		movs	r3, #10
 2920 10a0 0593     		str	r3, [sp, #20]
 2921              	.L177:
 2922              		.loc 1 1177 0 discriminator 1
 2923 10a2 FFF7FEFF 		bl	SD_IO_ReadByte
ARM GAS  /tmp/cc602Zqo.s 			page 53


 2924 10a6 0346     		mov	r3, r0
 2925 10a8 0493     		str	r3, [sp, #16]
 2926              		.loc 1 1178 0 discriminator 1
 2927 10aa 049B     		ldr	r3, [sp, #16]
 2928 10ac 03F08003 		and	r3, r3, #128
 2929 10b0 002B     		cmp	r3, #0
 2930 10b2 05D0     		beq	.L176
 2931 10b4 059B     		ldr	r3, [sp, #20]
 2932 10b6 013B     		subs	r3, r3, #1
 2933 10b8 0593     		str	r3, [sp, #20]
 2934 10ba 059B     		ldr	r3, [sp, #20]
 2935 10bc 002B     		cmp	r3, #0
 2936 10be F0D1     		bne	.L177
 2937              	.L176:
 2938              		.loc 1 1180 0
 2939 10c0 049B     		ldr	r3, [sp, #16]
 2940 10c2 DBB2     		uxtb	r3, r3
 2941              		.loc 1 1181 0
 2942 10c4 1846     		mov	r0, r3
 2943 10c6 07B0     		add	sp, sp, #28
 2944              		@ sp needed
 2945 10c8 5DF804FB 		ldr	pc, [sp], #4
 2946              	.L180:
 2947              		.align	2
 2948              	.L179:
 2949 10cc 00180048 		.word	1207965696
 2950              		.cfi_endproc
 2951              	.LFE163:
 2952              		.size	SD_IO_WriteCmd_wResp, .-SD_IO_WriteCmd_wResp
 2953              		.align	2
 2954              		.p2align 4,,15
 2955              		.global	SD_IO_WriteCmd
 2956              		.thumb
 2957              		.thumb_func
 2958              		.type	SD_IO_WriteCmd, %function
 2959              	SD_IO_WriteCmd:
 2960              	.LFB164:
 2961              		.loc 1 1193 0
 2962              		.cfi_startproc
 2963              		@ args = 0, pretend = 0, frame = 24
 2964              		@ frame_needed = 0, uses_anonymous_args = 0
 2965 10d0 00B5     		push	{lr}
 2966              		.cfi_def_cfa_offset 4
 2967              		.cfi_offset 14, -4
 2968 10d2 87B0     		sub	sp, sp, #28
 2969              		.cfi_def_cfa_offset 32
 2970 10d4 0091     		str	r1, [sp]
 2971 10d6 0146     		mov	r1, r0
 2972 10d8 8DF80710 		strb	r1, [sp, #7]
 2973 10dc 8DF80620 		strb	r2, [sp, #6]
 2974 10e0 8DF80530 		strb	r3, [sp, #5]
 2975              		.loc 1 1194 0
 2976 10e4 0023     		movs	r3, #0
 2977 10e6 0593     		str	r3, [sp, #20]
 2978              		.loc 1 1198 0
 2979 10e8 9DF80730 		ldrb	r3, [sp, #7]
 2980 10ec 43F04003 		orr	r3, r3, #64
ARM GAS  /tmp/cc602Zqo.s 			page 54


 2981 10f0 DBB2     		uxtb	r3, r3
 2982 10f2 8DF80C30 		strb	r3, [sp, #12]
 2983              		.loc 1 1199 0
 2984 10f6 009B     		ldr	r3, [sp]
 2985 10f8 1B0E     		lsrs	r3, r3, #24
 2986 10fa DBB2     		uxtb	r3, r3
 2987 10fc 8DF80D30 		strb	r3, [sp, #13]
 2988              		.loc 1 1200 0
 2989 1100 009B     		ldr	r3, [sp]
 2990 1102 1B0C     		lsrs	r3, r3, #16
 2991 1104 DBB2     		uxtb	r3, r3
 2992 1106 8DF80E30 		strb	r3, [sp, #14]
 2993              		.loc 1 1201 0
 2994 110a 009B     		ldr	r3, [sp]
 2995 110c 1B0A     		lsrs	r3, r3, #8
 2996 110e DBB2     		uxtb	r3, r3
 2997 1110 8DF80F30 		strb	r3, [sp, #15]
 2998              		.loc 1 1202 0
 2999 1114 009B     		ldr	r3, [sp]
 3000 1116 DBB2     		uxtb	r3, r3
 3001 1118 8DF81030 		strb	r3, [sp, #16]
 3002              		.loc 1 1203 0
 3003 111c 9DF80630 		ldrb	r3, [sp, #6]
 3004 1120 8DF81130 		strb	r3, [sp, #17]
 3005              		.loc 1 1206 0
 3006 1124 1248     		ldr	r0, .L187
 3007 1126 4FF48051 		mov	r1, #4096
 3008 112a 0022     		movs	r2, #0
 3009 112c FFF7FEFF 		bl	HAL_GPIO_WritePin
 3010              		.loc 1 1209 0
 3011 1130 0023     		movs	r3, #0
 3012 1132 0593     		str	r3, [sp, #20]
 3013 1134 09E0     		b	.L182
 3014              	.L183:
 3015              		.loc 1 1211 0 discriminator 2
 3016 1136 03AA     		add	r2, sp, #12
 3017 1138 059B     		ldr	r3, [sp, #20]
 3018 113a 1344     		add	r3, r3, r2
 3019 113c 1B78     		ldrb	r3, [r3]	@ zero_extendqisi2
 3020 113e 1846     		mov	r0, r3
 3021 1140 FFF7FEFF 		bl	SD_IO_WriteByte
 3022              		.loc 1 1209 0 discriminator 2
 3023 1144 059B     		ldr	r3, [sp, #20]
 3024 1146 0133     		adds	r3, r3, #1
 3025 1148 0593     		str	r3, [sp, #20]
 3026              	.L182:
 3027              		.loc 1 1209 0 is_stmt 0 discriminator 1
 3028 114a 059B     		ldr	r3, [sp, #20]
 3029 114c 052B     		cmp	r3, #5
 3030 114e F2D9     		bls	.L183
 3031              		.loc 1 1214 0 is_stmt 1
 3032 1150 9DF80530 		ldrb	r3, [sp, #5]	@ zero_extendqisi2
 3033 1154 802B     		cmp	r3, #128
 3034 1156 06D0     		beq	.L184
 3035              		.loc 1 1216 0
 3036 1158 9DF80530 		ldrb	r3, [sp, #5]	@ zero_extendqisi2
 3037 115c 1846     		mov	r0, r3
ARM GAS  /tmp/cc602Zqo.s 			page 55


 3038 115e FFF7FEFF 		bl	SD_IO_WaitResponse
 3039 1162 0346     		mov	r3, r0
 3040 1164 00E0     		b	.L186
 3041              	.L184:
 3042              		.loc 1 1219 0
 3043 1166 0023     		movs	r3, #0
 3044              	.L186:
 3045              		.loc 1 1220 0
 3046 1168 1846     		mov	r0, r3
 3047 116a 07B0     		add	sp, sp, #28
 3048              		@ sp needed
 3049 116c 5DF804FB 		ldr	pc, [sp], #4
 3050              	.L188:
 3051              		.align	2
 3052              	.L187:
 3053 1170 00180048 		.word	1207965696
 3054              		.cfi_endproc
 3055              	.LFE164:
 3056              		.size	SD_IO_WriteCmd, .-SD_IO_WriteCmd
 3057              		.align	2
 3058 1174 AFF30080 		.p2align 4,,15
 3058      AFF30080 
 3058      AFF30080 
 3059              		.global	SD_IO_WaitResponse
 3060              		.thumb
 3061              		.thumb_func
 3062              		.type	SD_IO_WaitResponse, %function
 3063              	SD_IO_WaitResponse:
 3064              	.LFB165:
 3065              		.loc 1 1228 0
 3066              		.cfi_startproc
 3067              		@ args = 0, pretend = 0, frame = 16
 3068              		@ frame_needed = 0, uses_anonymous_args = 0
 3069 1180 00B5     		push	{lr}
 3070              		.cfi_def_cfa_offset 4
 3071              		.cfi_offset 14, -4
 3072 1182 85B0     		sub	sp, sp, #20
 3073              		.cfi_def_cfa_offset 24
 3074 1184 0346     		mov	r3, r0
 3075 1186 8DF80730 		strb	r3, [sp, #7]
 3076              		.loc 1 1229 0
 3077 118a FF23     		movs	r3, #255
 3078 118c 0393     		str	r3, [sp, #12]
 3079              		.loc 1 1232 0
 3080 118e 02E0     		b	.L190
 3081              	.L192:
 3082              		.loc 1 1234 0
 3083 1190 039B     		ldr	r3, [sp, #12]
 3084 1192 013B     		subs	r3, r3, #1
 3085 1194 0393     		str	r3, [sp, #12]
 3086              	.L190:
 3087              		.loc 1 1232 0 discriminator 1
 3088 1196 FFF7FEFF 		bl	SD_IO_ReadByte
 3089 119a 0346     		mov	r3, r0
 3090 119c 9DF80720 		ldrb	r2, [sp, #7]	@ zero_extendqisi2
 3091 11a0 9A42     		cmp	r2, r3
 3092 11a2 02D0     		beq	.L191
ARM GAS  /tmp/cc602Zqo.s 			page 56


 3093              		.loc 1 1232 0 is_stmt 0 discriminator 2
 3094 11a4 039B     		ldr	r3, [sp, #12]
 3095 11a6 002B     		cmp	r3, #0
 3096 11a8 F2D1     		bne	.L192
 3097              	.L191:
 3098              		.loc 1 1237 0 is_stmt 1
 3099 11aa 039B     		ldr	r3, [sp, #12]
 3100 11ac 002B     		cmp	r3, #0
 3101 11ae 01D1     		bne	.L193
 3102              		.loc 1 1240 0
 3103 11b0 0323     		movs	r3, #3
 3104 11b2 00E0     		b	.L194
 3105              	.L193:
 3106              		.loc 1 1245 0
 3107 11b4 0023     		movs	r3, #0
 3108              	.L194:
 3109              		.loc 1 1247 0
 3110 11b6 1846     		mov	r0, r3
 3111 11b8 05B0     		add	sp, sp, #20
 3112              		@ sp needed
 3113 11ba 5DF804FB 		ldr	pc, [sp], #4
 3114              		.cfi_endproc
 3115              	.LFE165:
 3116              		.size	SD_IO_WaitResponse, .-SD_IO_WaitResponse
 3117 11be 00BF     		.align	2
 3118              		.p2align 4,,15
 3119              		.global	SD_IO_WriteDummy
 3120              		.thumb
 3121              		.thumb_func
 3122              		.type	SD_IO_WriteDummy, %function
 3123              	SD_IO_WriteDummy:
 3124              	.LFB166:
 3125              		.loc 1 1255 0
 3126              		.cfi_startproc
 3127              		@ args = 0, pretend = 0, frame = 0
 3128              		@ frame_needed = 0, uses_anonymous_args = 0
 3129 11c0 08B5     		push	{r3, lr}
 3130              		.cfi_def_cfa_offset 8
 3131              		.cfi_offset 3, -8
 3132              		.cfi_offset 14, -4
 3133              		.loc 1 1257 0
 3134 11c2 0548     		ldr	r0, .L196
 3135 11c4 4FF48051 		mov	r1, #4096
 3136 11c8 0122     		movs	r2, #1
 3137 11ca FFF7FEFF 		bl	HAL_GPIO_WritePin
 3138              		.loc 1 1260 0
 3139 11ce FF20     		movs	r0, #255
 3140 11d0 FFF7FEFF 		bl	SD_IO_WriteByte
 3141              		.loc 1 1261 0
 3142 11d4 08BD     		pop	{r3, pc}
 3143              	.L197:
 3144 11d6 00BF     		.align	2
 3145              	.L196:
 3146 11d8 00180048 		.word	1207965696
 3147              		.cfi_endproc
 3148              	.LFE166:
 3149              		.size	SD_IO_WriteDummy, .-SD_IO_WriteDummy
ARM GAS  /tmp/cc602Zqo.s 			page 57


 3150              	.Letext0:
 3151              		.file 3 "/nfs/nfs5/home/research/hardware/arm2/gcc-arm-embedded/gcc-arm-none-eabi-4_8-2014q2/arm-n
 3152              		.file 4 "/nfs/nfs5/home/research/hardware/arm2/gcc-arm-embedded/gcc-arm-none-eabi-4_8-2014q2/arm-n
 3153              		.file 5 "../../../../../../ChibiOS/os/ext/CMSIS/ST/STM32L4xx/stm32l476xx.h"
 3154              		.file 6 "../../../../../Drivers/STM32L4xx_HAL_Driver/Inc/stm32l4xx_hal_def.h"
 3155              		.file 7 "../../../../../Drivers/STM32L4xx_HAL_Driver/Inc/stm32l4xx_hal_rcc_ex.h"
 3156              		.file 8 "../../../../../Drivers/STM32L4xx_HAL_Driver/Inc/stm32l4xx_hal_gpio.h"
 3157              		.file 9 "../../../../../Drivers/STM32L4xx_HAL_Driver/Inc/stm32l4xx_hal_dma.h"
 3158              		.file 10 "../../../../../Drivers/STM32L4xx_HAL_Driver/Inc/stm32l4xx_hal_i2c.h"
 3159              		.file 11 "../../../../../Drivers/STM32L4xx_HAL_Driver/Inc/stm32l4xx_hal_spi.h"
 3160              		.file 12 "../../../../../Drivers/BSP/Components/Common/component.h"
 3161              		.file 13 "../../../../../Drivers/BSP/SensorTile/SensorTile.h"
 3162              		.file 14 "../../../../../../ChibiOS/os/ext/CMSIS/include/core_cm4.h"