ARM GAS  /tmp/ccMec9uz.s 			page 1


   1              		.syntax unified
   2              		.cpu cortex-m4
   3              		.fpu softvfp
   4              		.eabi_attribute 20, 1
   5              		.eabi_attribute 21, 1
   6              		.eabi_attribute 23, 3
   7              		.eabi_attribute 24, 1
   8              		.eabi_attribute 25, 1
   9              		.eabi_attribute 26, 1
  10              		.eabi_attribute 30, 6
  11              		.eabi_attribute 34, 1
  12              		.eabi_attribute 18, 4
  13              		.thumb
  14              		.file	"SensorTile_BlueNRG.c"
  15              		.text
  16              	.Ltext0:
  17              		.cfi_sections	.debug_frame
  18              		.comm	SpiHandle,100,4
  19              		.align	2
  20              		.p2align 4,,15
  21              		.global	HAL_SPI_MspInit
  22              		.thumb
  23              		.thumb_func
  24              		.type	HAL_SPI_MspInit, %function
  25              	HAL_SPI_MspInit:
  26              	.LFB125:
  27              		.file 1 "../../../../../Drivers/BSP/SensorTile/SensorTile_BlueNRG.c"
  28              		.loc 1 120 0
  29              		.cfi_startproc
  30              		@ args = 0, pretend = 0, frame = 56
  31              		@ frame_needed = 0, uses_anonymous_args = 0
  32 0000 00B5     		push	{lr}
  33              		.cfi_def_cfa_offset 4
  34              		.cfi_offset 14, -4
  35 0002 8FB0     		sub	sp, sp, #60
  36              		.cfi_def_cfa_offset 64
  37 0004 0190     		str	r0, [sp, #4]
  38              		.loc 1 122 0
  39 0006 019B     		ldr	r3, [sp, #4]
  40 0008 1A68     		ldr	r2, [r3]
  41 000a 634B     		ldr	r3, .L3
  42 000c 9A42     		cmp	r2, r3
  43 000e 40F0C080 		bne	.L1
  44              	.LBB24:
  45              		.loc 1 127 0
  46 0012 624B     		ldr	r3, .L3+4
  47 0014 614A     		ldr	r2, .L3+4
  48 0016 D26C     		ldr	r2, [r2, #76]
  49 0018 42F08002 		orr	r2, r2, #128
  50 001c DA64     		str	r2, [r3, #76]
  51 001e 5F4B     		ldr	r3, .L3+4
  52 0020 DB6C     		ldr	r3, [r3, #76]
  53 0022 03F08003 		and	r3, r3, #128
  54 0026 0893     		str	r3, [sp, #32]
  55 0028 089B     		ldr	r3, [sp, #32]
  56              	.LBE24:
  57              	.LBB25:
ARM GAS  /tmp/ccMec9uz.s 			page 2


  58              		.loc 1 128 0
  59 002a 5C4B     		ldr	r3, .L3+4
  60 002c 5B4A     		ldr	r2, .L3+4
  61 002e D26C     		ldr	r2, [r2, #76]
  62 0030 42F00102 		orr	r2, r2, #1
  63 0034 DA64     		str	r2, [r3, #76]
  64 0036 594B     		ldr	r3, .L3+4
  65 0038 DB6C     		ldr	r3, [r3, #76]
  66 003a 03F00103 		and	r3, r3, #1
  67 003e 0793     		str	r3, [sp, #28]
  68 0040 079B     		ldr	r3, [sp, #28]
  69              	.LBE25:
  70              	.LBB26:
  71              		.loc 1 129 0
  72 0042 564B     		ldr	r3, .L3+4
  73 0044 554A     		ldr	r2, .L3+4
  74 0046 D26C     		ldr	r2, [r2, #76]
  75 0048 42F00102 		orr	r2, r2, #1
  76 004c DA64     		str	r2, [r3, #76]
  77 004e 534B     		ldr	r3, .L3+4
  78 0050 DB6C     		ldr	r3, [r3, #76]
  79 0052 03F00103 		and	r3, r3, #1
  80 0056 0693     		str	r3, [sp, #24]
  81 0058 069B     		ldr	r3, [sp, #24]
  82              	.LBE26:
  83              	.LBB27:
  84              		.loc 1 130 0
  85 005a 504B     		ldr	r3, .L3+4
  86 005c 4F4A     		ldr	r2, .L3+4
  87 005e D26C     		ldr	r2, [r2, #76]
  88 0060 42F00102 		orr	r2, r2, #1
  89 0064 DA64     		str	r2, [r3, #76]
  90 0066 4D4B     		ldr	r3, .L3+4
  91 0068 DB6C     		ldr	r3, [r3, #76]
  92 006a 03F00103 		and	r3, r3, #1
  93 006e 0593     		str	r3, [sp, #20]
  94 0070 059B     		ldr	r3, [sp, #20]
  95              	.LBE27:
  96              	.LBB28:
  97              		.loc 1 131 0
  98 0072 4A4B     		ldr	r3, .L3+4
  99 0074 494A     		ldr	r2, .L3+4
 100 0076 D26C     		ldr	r2, [r2, #76]
 101 0078 42F00202 		orr	r2, r2, #2
 102 007c DA64     		str	r2, [r3, #76]
 103 007e 474B     		ldr	r3, .L3+4
 104 0080 DB6C     		ldr	r3, [r3, #76]
 105 0082 03F00203 		and	r3, r3, #2
 106 0086 0493     		str	r3, [sp, #16]
 107 0088 049B     		ldr	r3, [sp, #16]
 108              	.LBE28:
 109              	.LBB29:
 110              		.loc 1 132 0
 111 008a 444B     		ldr	r3, .L3+4
 112 008c 434A     		ldr	r2, .L3+4
 113 008e D26C     		ldr	r2, [r2, #76]
 114 0090 42F00402 		orr	r2, r2, #4
ARM GAS  /tmp/ccMec9uz.s 			page 3


 115 0094 DA64     		str	r2, [r3, #76]
 116 0096 414B     		ldr	r3, .L3+4
 117 0098 DB6C     		ldr	r3, [r3, #76]
 118 009a 03F00403 		and	r3, r3, #4
 119 009e 0393     		str	r3, [sp, #12]
 120 00a0 039B     		ldr	r3, [sp, #12]
 121              	.LBE29:
 122              	.LBB30:
 123              		.loc 1 135 0
 124 00a2 3E4B     		ldr	r3, .L3+4
 125 00a4 3D4A     		ldr	r2, .L3+4
 126 00a6 126E     		ldr	r2, [r2, #96]
 127 00a8 42F48052 		orr	r2, r2, #4096
 128 00ac 1A66     		str	r2, [r3, #96]
 129 00ae 3B4B     		ldr	r3, .L3+4
 130 00b0 1B6E     		ldr	r3, [r3, #96]
 131 00b2 03F48053 		and	r3, r3, #4096
 132 00b6 0293     		str	r3, [sp, #8]
 133 00b8 029B     		ldr	r3, [sp, #8]
 134              	.LBE30:
 135              		.loc 1 138 0
 136 00ba 0123     		movs	r3, #1
 137 00bc 0993     		str	r3, [sp, #36]
 138              		.loc 1 139 0
 139 00be 0123     		movs	r3, #1
 140 00c0 0A93     		str	r3, [sp, #40]
 141              		.loc 1 140 0
 142 00c2 0123     		movs	r3, #1
 143 00c4 0B93     		str	r3, [sp, #44]
 144              		.loc 1 141 0
 145 00c6 0023     		movs	r3, #0
 146 00c8 0C93     		str	r3, [sp, #48]
 147              		.loc 1 142 0
 148 00ca 0023     		movs	r3, #0
 149 00cc 0D93     		str	r3, [sp, #52]
 150              		.loc 1 143 0
 151 00ce 09AB     		add	r3, sp, #36
 152 00d0 3348     		ldr	r0, .L3+8
 153 00d2 1946     		mov	r1, r3
 154 00d4 FFF7FEFF 		bl	HAL_GPIO_Init
 155              		.loc 1 144 0
 156 00d8 3148     		ldr	r0, .L3+8
 157 00da 0121     		movs	r1, #1
 158 00dc 0022     		movs	r2, #0
 159 00de FFF7FEFF 		bl	HAL_GPIO_WritePin
 160              		.loc 1 147 0
 161 00e2 2023     		movs	r3, #32
 162 00e4 0993     		str	r3, [sp, #36]
 163              		.loc 1 148 0
 164 00e6 0223     		movs	r3, #2
 165 00e8 0A93     		str	r3, [sp, #40]
 166              		.loc 1 149 0
 167 00ea 0223     		movs	r3, #2
 168 00ec 0B93     		str	r3, [sp, #44]
 169              		.loc 1 150 0
 170 00ee 0323     		movs	r3, #3
 171 00f0 0C93     		str	r3, [sp, #48]
ARM GAS  /tmp/ccMec9uz.s 			page 4


 172              		.loc 1 151 0
 173 00f2 0523     		movs	r3, #5
 174 00f4 0D93     		str	r3, [sp, #52]
 175              		.loc 1 152 0
 176 00f6 09AB     		add	r3, sp, #36
 177 00f8 4FF09040 		mov	r0, #1207959552
 178 00fc 1946     		mov	r1, r3
 179 00fe FFF7FEFF 		bl	HAL_GPIO_Init
 180              		.loc 1 155 0
 181 0102 4023     		movs	r3, #64
 182 0104 0993     		str	r3, [sp, #36]
 183              		.loc 1 156 0
 184 0106 0223     		movs	r3, #2
 185 0108 0A93     		str	r3, [sp, #40]
 186              		.loc 1 157 0
 187 010a 0023     		movs	r3, #0
 188 010c 0B93     		str	r3, [sp, #44]
 189              		.loc 1 158 0
 190 010e 0323     		movs	r3, #3
 191 0110 0C93     		str	r3, [sp, #48]
 192              		.loc 1 159 0
 193 0112 0523     		movs	r3, #5
 194 0114 0D93     		str	r3, [sp, #52]
 195              		.loc 1 160 0
 196 0116 09AB     		add	r3, sp, #36
 197 0118 4FF09040 		mov	r0, #1207959552
 198 011c 1946     		mov	r1, r3
 199 011e FFF7FEFF 		bl	HAL_GPIO_Init
 200              		.loc 1 163 0
 201 0122 8023     		movs	r3, #128
 202 0124 0993     		str	r3, [sp, #36]
 203              		.loc 1 164 0
 204 0126 0223     		movs	r3, #2
 205 0128 0A93     		str	r3, [sp, #40]
 206              		.loc 1 165 0
 207 012a 0023     		movs	r3, #0
 208 012c 0B93     		str	r3, [sp, #44]
 209              		.loc 1 166 0
 210 012e 0323     		movs	r3, #3
 211 0130 0C93     		str	r3, [sp, #48]
 212              		.loc 1 167 0
 213 0132 0523     		movs	r3, #5
 214 0134 0D93     		str	r3, [sp, #52]
 215              		.loc 1 168 0
 216 0136 09AB     		add	r3, sp, #36
 217 0138 4FF09040 		mov	r0, #1207959552
 218 013c 1946     		mov	r1, r3
 219 013e FFF7FEFF 		bl	HAL_GPIO_Init
 220              		.loc 1 171 0
 221 0142 0423     		movs	r3, #4
 222 0144 0993     		str	r3, [sp, #36]
 223              		.loc 1 172 0
 224 0146 0123     		movs	r3, #1
 225 0148 0A93     		str	r3, [sp, #40]
 226              		.loc 1 173 0
 227 014a 0123     		movs	r3, #1
 228 014c 0B93     		str	r3, [sp, #44]
ARM GAS  /tmp/ccMec9uz.s 			page 5


 229              		.loc 1 174 0
 230 014e 0323     		movs	r3, #3
 231 0150 0C93     		str	r3, [sp, #48]
 232              		.loc 1 175 0
 233 0152 0023     		movs	r3, #0
 234 0154 0D93     		str	r3, [sp, #52]
 235              		.loc 1 176 0
 236 0156 09AB     		add	r3, sp, #36
 237 0158 1248     		ldr	r0, .L3+12
 238 015a 1946     		mov	r1, r3
 239 015c FFF7FEFF 		bl	HAL_GPIO_Init
 240              		.loc 1 177 0
 241 0160 1048     		ldr	r0, .L3+12
 242 0162 0421     		movs	r1, #4
 243 0164 0122     		movs	r2, #1
 244 0166 FFF7FEFF 		bl	HAL_GPIO_WritePin
 245              		.loc 1 180 0
 246 016a 2023     		movs	r3, #32
 247 016c 0993     		str	r3, [sp, #36]
 248              		.loc 1 181 0
 249 016e 0E4B     		ldr	r3, .L3+16
 250 0170 0A93     		str	r3, [sp, #40]
 251              		.loc 1 182 0
 252 0172 0023     		movs	r3, #0
 253 0174 0B93     		str	r3, [sp, #44]
 254              		.loc 1 183 0
 255 0176 0323     		movs	r3, #3
 256 0178 0C93     		str	r3, [sp, #48]
 257              		.loc 1 184 0
 258 017a 0023     		movs	r3, #0
 259 017c 0D93     		str	r3, [sp, #52]
 260              		.loc 1 185 0
 261 017e 09AB     		add	r3, sp, #36
 262 0180 0A48     		ldr	r0, .L3+20
 263 0182 1946     		mov	r1, r3
 264 0184 FFF7FEFF 		bl	HAL_GPIO_Init
 265              		.loc 1 188 0
 266 0188 1720     		movs	r0, #23
 267 018a 0321     		movs	r1, #3
 268 018c 0022     		movs	r2, #0
 269 018e FFF7FEFF 		bl	HAL_NVIC_SetPriority
 270              	.L1:
 271              		.loc 1 191 0
 272 0192 0FB0     		add	sp, sp, #60
 273              		@ sp needed
 274 0194 5DF804FB 		ldr	pc, [sp], #4
 275              	.L4:
 276              		.align	2
 277              	.L3:
 278 0198 00300140 		.word	1073819648
 279 019c 00100240 		.word	1073876992
 280 01a0 001C0048 		.word	1207966720
 281 01a4 00040048 		.word	1207960576
 282 01a8 00001110 		.word	269549568
 283 01ac 00080048 		.word	1207961600
 284              		.cfi_endproc
 285              	.LFE125:
ARM GAS  /tmp/ccMec9uz.s 			page 6


 286              		.size	HAL_SPI_MspInit, .-HAL_SPI_MspInit
 287              		.align	2
 288              		.p2align 4,,15
 289              		.global	Hal_Write_Serial
 290              		.thumb
 291              		.thumb_func
 292              		.type	Hal_Write_Serial, %function
 293              	Hal_Write_Serial:
 294              	.LFB126:
 295              		.loc 1 203 0
 296              		.cfi_startproc
 297              		@ args = 0, pretend = 0, frame = 24
 298              		@ frame_needed = 0, uses_anonymous_args = 0
 299 01b0 00B5     		push	{lr}
 300              		.cfi_def_cfa_offset 4
 301              		.cfi_offset 14, -4
 302 01b2 89B0     		sub	sp, sp, #36
 303              		.cfi_def_cfa_offset 40
 304 01b4 0590     		str	r0, [sp, #20]
 305 01b6 0491     		str	r1, [sp, #16]
 306 01b8 0392     		str	r2, [sp, #12]
 307 01ba 0293     		str	r3, [sp, #8]
 308              		.loc 1 206 0
 309 01bc 06AB     		add	r3, sp, #24
 310 01be 1846     		mov	r0, r3
 311 01c0 6421     		movs	r1, #100
 312 01c2 FFF7FEFF 		bl	Timer_Set
 313              	.L9:
 314              		.loc 1 220 0
 315 01c6 039B     		ldr	r3, [sp, #12]
 316 01c8 DBB2     		uxtb	r3, r3
 317 01ca 029A     		ldr	r2, [sp, #8]
 318 01cc D2B2     		uxtb	r2, r2
 319 01ce 0092     		str	r2, [sp]
 320 01d0 0A48     		ldr	r0, .L10
 321 01d2 0599     		ldr	r1, [sp, #20]
 322 01d4 049A     		ldr	r2, [sp, #16]
 323 01d6 FFF7FEFF 		bl	BlueNRG_SPI_Write
 324 01da 0346     		mov	r3, r0
 325 01dc 002B     		cmp	r3, #0
 326 01de 00D1     		bne	.L6
 327              		.loc 1 220 0 is_stmt 0 discriminator 1
 328 01e0 08E0     		b	.L5
 329              	.L6:
 330              		.loc 1 221 0 is_stmt 1
 331 01e2 06AB     		add	r3, sp, #24
 332 01e4 1846     		mov	r0, r3
 333 01e6 FFF7FEFF 		bl	Timer_Expired
 334 01ea 0346     		mov	r3, r0
 335 01ec 002B     		cmp	r3, #0
 336 01ee 00D0     		beq	.L8
 337              		.loc 1 222 0
 338 01f0 00E0     		b	.L5
 339              	.L8:
 340              		.loc 1 224 0
 341 01f2 E8E7     		b	.L9
 342              	.L5:
ARM GAS  /tmp/ccMec9uz.s 			page 7


 343              		.loc 1 225 0
 344 01f4 09B0     		add	sp, sp, #36
 345              		@ sp needed
 346 01f6 5DF804FB 		ldr	pc, [sp], #4
 347              	.L11:
 348 01fa 00BF     		.align	2
 349              	.L10:
 350 01fc 00000000 		.word	SpiHandle
 351              		.cfi_endproc
 352              	.LFE126:
 353              		.size	Hal_Write_Serial, .-Hal_Write_Serial
 354              		.align	2
 355              		.p2align 4,,15
 356              		.global	BNRG_SPI_Init
 357              		.thumb
 358              		.thumb_func
 359              		.type	BNRG_SPI_Init, %function
 360              	BNRG_SPI_Init:
 361              	.LFB127:
 362              		.loc 1 234 0
 363              		.cfi_startproc
 364              		@ args = 0, pretend = 0, frame = 0
 365              		@ frame_needed = 0, uses_anonymous_args = 0
 366 0200 08B5     		push	{r3, lr}
 367              		.cfi_def_cfa_offset 8
 368              		.cfi_offset 3, -8
 369              		.cfi_offset 14, -4
 370              		.loc 1 235 0
 371 0202 154B     		ldr	r3, .L13
 372 0204 154A     		ldr	r2, .L13+4
 373 0206 1A60     		str	r2, [r3]
 374              		.loc 1 236 0
 375 0208 134B     		ldr	r3, .L13
 376 020a 4FF48272 		mov	r2, #260
 377 020e 5A60     		str	r2, [r3, #4]
 378              		.loc 1 237 0
 379 0210 114B     		ldr	r3, .L13
 380 0212 0022     		movs	r2, #0
 381 0214 9A60     		str	r2, [r3, #8]
 382              		.loc 1 238 0
 383 0216 104B     		ldr	r3, .L13
 384 0218 4FF4E062 		mov	r2, #1792
 385 021c DA60     		str	r2, [r3, #12]
 386              		.loc 1 239 0
 387 021e 0E4B     		ldr	r3, .L13
 388 0220 0022     		movs	r2, #0
 389 0222 1A61     		str	r2, [r3, #16]
 390              		.loc 1 240 0
 391 0224 0C4B     		ldr	r3, .L13
 392 0226 0022     		movs	r2, #0
 393 0228 5A61     		str	r2, [r3, #20]
 394              		.loc 1 241 0
 395 022a 0B4B     		ldr	r3, .L13
 396 022c 4FF40072 		mov	r2, #512
 397 0230 9A61     		str	r2, [r3, #24]
 398              		.loc 1 242 0
 399 0232 094B     		ldr	r3, .L13
ARM GAS  /tmp/ccMec9uz.s 			page 8


 400 0234 0022     		movs	r2, #0
 401 0236 1A62     		str	r2, [r3, #32]
 402              		.loc 1 243 0
 403 0238 074B     		ldr	r3, .L13
 404 023a 0022     		movs	r2, #0
 405 023c 5A62     		str	r2, [r3, #36]
 406              		.loc 1 244 0
 407 023e 064B     		ldr	r3, .L13
 408 0240 0722     		movs	r2, #7
 409 0242 DA62     		str	r2, [r3, #44]
 410              		.loc 1 245 0
 411 0244 044B     		ldr	r3, .L13
 412 0246 1822     		movs	r2, #24
 413 0248 DA61     		str	r2, [r3, #28]
 414              		.loc 1 246 0
 415 024a 034B     		ldr	r3, .L13
 416 024c 0022     		movs	r2, #0
 417 024e 9A62     		str	r2, [r3, #40]
 418              		.loc 1 248 0
 419 0250 0148     		ldr	r0, .L13
 420 0252 FFF7FEFF 		bl	HAL_SPI_Init
 421              		.loc 1 249 0
 422 0256 08BD     		pop	{r3, pc}
 423              	.L14:
 424              		.align	2
 425              	.L13:
 426 0258 00000000 		.word	SpiHandle
 427 025c 00300140 		.word	1073819648
 428              		.cfi_endproc
 429              	.LFE127:
 430              		.size	BNRG_SPI_Init, .-BNRG_SPI_Init
 431              		.align	2
 432              		.p2align 4,,15
 433              		.global	BlueNRG_RST
 434              		.thumb
 435              		.thumb_func
 436              		.type	BlueNRG_RST, %function
 437              	BlueNRG_RST:
 438              	.LFB128:
 439              		.loc 1 257 0
 440              		.cfi_startproc
 441              		@ args = 0, pretend = 0, frame = 0
 442              		@ frame_needed = 0, uses_anonymous_args = 0
 443 0260 08B5     		push	{r3, lr}
 444              		.cfi_def_cfa_offset 8
 445              		.cfi_offset 3, -8
 446              		.cfi_offset 14, -4
 447              		.loc 1 258 0
 448 0262 0848     		ldr	r0, .L16
 449 0264 0121     		movs	r1, #1
 450 0266 0022     		movs	r2, #0
 451 0268 FFF7FEFF 		bl	HAL_GPIO_WritePin
 452              		.loc 1 259 0
 453 026c 0520     		movs	r0, #5
 454 026e FFF7FEFF 		bl	HAL_Delay
 455              		.loc 1 260 0
 456 0272 0448     		ldr	r0, .L16
ARM GAS  /tmp/ccMec9uz.s 			page 9


 457 0274 0121     		movs	r1, #1
 458 0276 0122     		movs	r2, #1
 459 0278 FFF7FEFF 		bl	HAL_GPIO_WritePin
 460              		.loc 1 261 0
 461 027c 0520     		movs	r0, #5
 462 027e FFF7FEFF 		bl	HAL_Delay
 463              		.loc 1 262 0
 464 0282 08BD     		pop	{r3, pc}
 465              	.L17:
 466              		.align	2
 467              	.L16:
 468 0284 001C0048 		.word	1207966720
 469              		.cfi_endproc
 470              	.LFE128:
 471              		.size	BlueNRG_RST, .-BlueNRG_RST
 472              		.align	2
 473 0288 AFF30080 		.p2align 4,,15
 473      AFF30080 
 474              		.global	BlueNRG_DataPresent
 475              		.thumb
 476              		.thumb_func
 477              		.type	BlueNRG_DataPresent, %function
 478              	BlueNRG_DataPresent:
 479              	.LFB129:
 480              		.loc 1 271 0
 481              		.cfi_startproc
 482              		@ args = 0, pretend = 0, frame = 0
 483              		@ frame_needed = 0, uses_anonymous_args = 0
 484 0290 08B5     		push	{r3, lr}
 485              		.cfi_def_cfa_offset 8
 486              		.cfi_offset 3, -8
 487              		.cfi_offset 14, -4
 488              		.loc 1 272 0
 489 0292 0648     		ldr	r0, .L21
 490 0294 2021     		movs	r1, #32
 491 0296 FFF7FEFF 		bl	HAL_GPIO_ReadPin
 492 029a 0346     		mov	r3, r0
 493 029c 012B     		cmp	r3, #1
 494 029e 01D1     		bne	.L19
 495              		.loc 1 273 0
 496 02a0 0123     		movs	r3, #1
 497 02a2 00E0     		b	.L20
 498              	.L19:
 499              		.loc 1 275 0
 500 02a4 0023     		movs	r3, #0
 501              	.L20:
 502              		.loc 1 276 0
 503 02a6 1846     		mov	r0, r3
 504 02a8 08BD     		pop	{r3, pc}
 505              	.L22:
 506 02aa 00BF     		.align	2
 507              	.L21:
 508 02ac 00080048 		.word	1207961600
 509              		.cfi_endproc
 510              	.LFE129:
 511              		.size	BlueNRG_DataPresent, .-BlueNRG_DataPresent
 512              		.align	2
ARM GAS  /tmp/ccMec9uz.s 			page 10


 513              		.p2align 4,,15
 514              		.global	BlueNRG_HW_Bootloader
 515              		.thumb
 516              		.thumb_func
 517              		.type	BlueNRG_HW_Bootloader, %function
 518              	BlueNRG_HW_Bootloader:
 519              	.LFB130:
 520              		.loc 1 284 0
 521              		.cfi_startproc
 522              		@ args = 0, pretend = 0, frame = 0
 523              		@ frame_needed = 0, uses_anonymous_args = 0
 524 02b0 08B5     		push	{r3, lr}
 525              		.cfi_def_cfa_offset 8
 526              		.cfi_offset 3, -8
 527              		.cfi_offset 14, -4
 528              		.loc 1 285 0
 529 02b2 FFF7FEFF 		bl	Disable_SPI_IRQ
 530              		.loc 1 286 0
 531 02b6 FFF7FEFF 		bl	set_irq_as_output
 532              		.loc 1 287 0
 533 02ba FFF7FEFF 		bl	BlueNRG_RST
 534              		.loc 1 288 0
 535 02be FFF7FEFF 		bl	set_irq_as_input
 536              		.loc 1 289 0
 537 02c2 FFF7FEFF 		bl	Enable_SPI_IRQ
 538              		.loc 1 290 0
 539 02c6 08BD     		pop	{r3, pc}
 540              		.cfi_endproc
 541              	.LFE130:
 542              		.size	BlueNRG_HW_Bootloader, .-BlueNRG_HW_Bootloader
 543              		.align	2
 544 02c8 AFF30080 		.p2align 4,,15
 544      AFF30080 
 545              		.global	BlueNRG_SPI_Read_All
 546              		.thumb
 547              		.thumb_func
 548              		.type	BlueNRG_SPI_Read_All, %function
 549              	BlueNRG_SPI_Read_All:
 550              	.LFB131:
 551              		.loc 1 301 0
 552              		.cfi_startproc
 553              		@ args = 0, pretend = 0, frame = 40
 554              		@ frame_needed = 0, uses_anonymous_args = 0
 555 02d0 00B5     		push	{lr}
 556              		.cfi_def_cfa_offset 4
 557              		.cfi_offset 14, -4
 558 02d2 8DB0     		sub	sp, sp, #52
 559              		.cfi_def_cfa_offset 56
 560 02d4 0590     		str	r0, [sp, #20]
 561 02d6 0491     		str	r1, [sp, #16]
 562 02d8 1346     		mov	r3, r2
 563 02da 8DF80F30 		strb	r3, [sp, #15]
 564              		.loc 1 303 0
 565 02de 0023     		movs	r3, #0
 566 02e0 8DF82D30 		strb	r3, [sp, #45]
 567              		.loc 1 304 0
 568 02e4 FF23     		movs	r3, #255
ARM GAS  /tmp/ccMec9uz.s 			page 11


 569 02e6 8DF82C30 		strb	r3, [sp, #44]
 570              		.loc 1 307 0
 571 02ea 0B23     		movs	r3, #11
 572 02ec 8DF82430 		strb	r3, [sp, #36]
 573 02f0 0023     		movs	r3, #0
 574 02f2 8DF82530 		strb	r3, [sp, #37]
 575 02f6 0023     		movs	r3, #0
 576 02f8 8DF82630 		strb	r3, [sp, #38]
 577 02fc 0023     		movs	r3, #0
 578 02fe 8DF82730 		strb	r3, [sp, #39]
 579 0302 0023     		movs	r3, #0
 580 0304 8DF82830 		strb	r3, [sp, #40]
 581              		.loc 1 311 0
 582 0308 3248     		ldr	r0, .L32
 583 030a 0421     		movs	r1, #4
 584 030c 0022     		movs	r2, #0
 585 030e FFF7FEFF 		bl	HAL_GPIO_WritePin
 586              		.loc 1 314 0
 587 0312 09AA     		add	r2, sp, #36
 588 0314 07AB     		add	r3, sp, #28
 589 0316 0F21     		movs	r1, #15
 590 0318 0091     		str	r1, [sp]
 591 031a 0598     		ldr	r0, [sp, #20]
 592 031c 1146     		mov	r1, r2
 593 031e 1A46     		mov	r2, r3
 594 0320 0523     		movs	r3, #5
 595 0322 FFF7FEFF 		bl	HAL_SPI_TransmitReceive
 596              		.loc 1 316 0
 597 0326 9DF81C30 		ldrb	r3, [sp, #28]	@ zero_extendqisi2
 598 032a 022B     		cmp	r3, #2
 599 032c 3DD1     		bne	.L25
 600              		.loc 1 318 0
 601 032e 9DF82030 		ldrb	r3, [sp, #32]	@ zero_extendqisi2
 602 0332 1B02     		lsls	r3, r3, #8
 603 0334 9AB2     		uxth	r2, r3
 604 0336 9DF81F30 		ldrb	r3, [sp, #31]	@ zero_extendqisi2
 605 033a 1343     		orrs	r3, r3, r2
 606 033c 9BB2     		uxth	r3, r3
 607 033e ADF82E30 		strh	r3, [sp, #46]	@ movhi
 608              		.loc 1 319 0
 609 0342 BDF82E30 		ldrh	r3, [sp, #46]
 610 0346 002B     		cmp	r3, #0
 611 0348 2FD0     		beq	.L25
 612              		.loc 1 322 0
 613 034a 9DF80F30 		ldrb	r3, [sp, #15]	@ zero_extendqisi2
 614 034e 9BB2     		uxth	r3, r3
 615 0350 BDF82E20 		ldrh	r2, [sp, #46]
 616 0354 9A42     		cmp	r2, r3
 617 0356 03D9     		bls	.L26
 618              		.loc 1 323 0
 619 0358 9DF80F30 		ldrb	r3, [sp, #15]	@ zero_extendqisi2
 620 035c ADF82E30 		strh	r3, [sp, #46]	@ movhi
 621              	.L26:
 622              		.loc 1 326 0
 623 0360 0023     		movs	r3, #0
 624 0362 8DF82D30 		strb	r3, [sp, #45]
 625 0366 19E0     		b	.L27
ARM GAS  /tmp/ccMec9uz.s 			page 12


 626              	.L28:
 627              	.LBB31:
 628              	.LBB32:
 629              		.file 2 "../../../../../../ChibiOS/os/ext/CMSIS/include/core_cmFunc.h"
 630              		.loc 2 344 0 discriminator 2
 631              	@ 344 "../../../../../../ChibiOS/os/ext/CMSIS/include/core_cmFunc.h" 1
 632 0368 72B6     		cpsid i
 633              	@ 0 "" 2
 634              		.thumb
 635              	.LBE32:
 636              	.LBE31:
 637              		.loc 1 328 0 discriminator 2
 638 036a 0BAA     		add	r2, sp, #44
 639 036c 0DF12B03 		add	r3, sp, #43
 640 0370 0F21     		movs	r1, #15
 641 0372 0091     		str	r1, [sp]
 642 0374 0598     		ldr	r0, [sp, #20]
 643 0376 1146     		mov	r1, r2
 644 0378 1A46     		mov	r2, r3
 645 037a 0123     		movs	r3, #1
 646 037c FFF7FEFF 		bl	HAL_SPI_TransmitReceive
 647              	.LBB33:
 648              	.LBB34:
 649              		.loc 2 333 0 discriminator 2
 650              	@ 333 "../../../../../../ChibiOS/os/ext/CMSIS/include/core_cmFunc.h" 1
 651 0380 62B6     		cpsie i
 652              	@ 0 "" 2
 653              		.thumb
 654              	.LBE34:
 655              	.LBE33:
 656              		.loc 1 330 0 discriminator 2
 657 0382 9DF82D30 		ldrb	r3, [sp, #45]	@ zero_extendqisi2
 658 0386 049A     		ldr	r2, [sp, #16]
 659 0388 1344     		add	r3, r3, r2
 660 038a 9DF82B20 		ldrb	r2, [sp, #43]
 661 038e D2B2     		uxtb	r2, r2
 662 0390 1A70     		strb	r2, [r3]
 663              		.loc 1 326 0 discriminator 2
 664 0392 9DF82D30 		ldrb	r3, [sp, #45]	@ zero_extendqisi2
 665 0396 0133     		adds	r3, r3, #1
 666 0398 8DF82D30 		strb	r3, [sp, #45]
 667              	.L27:
 668              		.loc 1 326 0 is_stmt 0 discriminator 1
 669 039c 9DF82D30 		ldrb	r3, [sp, #45]	@ zero_extendqisi2
 670 03a0 9BB2     		uxth	r3, r3
 671 03a2 BDF82E20 		ldrh	r2, [sp, #46]
 672 03a6 9A42     		cmp	r2, r3
 673 03a8 DED8     		bhi	.L28
 674              	.L25:
 675              		.loc 1 335 0 is_stmt 1
 676 03aa 0A48     		ldr	r0, .L32
 677 03ac 0421     		movs	r1, #4
 678 03ae 0122     		movs	r2, #1
 679 03b0 FFF7FEFF 		bl	HAL_GPIO_WritePin
 680              	.LBB35:
 681              		.loc 1 339 0
 682 03b4 0023     		movs	r3, #0
ARM GAS  /tmp/ccMec9uz.s 			page 13


 683 03b6 0693     		str	r3, [sp, #24]
 684 03b8 03E0     		b	.L29
 685              	.L30:
 686              	.LBB36:
 687              	.LBB37:
 688              		.file 3 "../../../../../../ChibiOS/os/ext/CMSIS/include/core_cmInstr.h"
 689              		.loc 3 423 0 discriminator 2
 690              	@ 423 "../../../../../../ChibiOS/os/ext/CMSIS/include/core_cmInstr.h" 1
 691 03ba 00BF     		nop
 692              	@ 0 "" 2
 693              		.thumb
 694              	.LBE37:
 695              	.LBE36:
 696              		.loc 1 339 0 discriminator 2
 697 03bc 069B     		ldr	r3, [sp, #24]
 698 03be 0133     		adds	r3, r3, #1
 699 03c0 0693     		str	r3, [sp, #24]
 700              	.L29:
 701              		.loc 1 339 0 is_stmt 0 discriminator 1
 702 03c2 069B     		ldr	r3, [sp, #24]
 703 03c4 012B     		cmp	r3, #1
 704 03c6 F8DD     		ble	.L30
 705              	.LBE35:
 706              		.loc 1 351 0 is_stmt 1
 707 03c8 9DF82D30 		ldrb	r3, [sp, #45]	@ zero_extendqisi2
 708              		.loc 1 352 0
 709 03cc 1846     		mov	r0, r3
 710 03ce 0DB0     		add	sp, sp, #52
 711              		@ sp needed
 712 03d0 5DF804FB 		ldr	pc, [sp], #4
 713              	.L33:
 714              		.align	2
 715              	.L32:
 716 03d4 00040048 		.word	1207960576
 717              		.cfi_endproc
 718              	.LFE131:
 719              		.size	BlueNRG_SPI_Read_All, .-BlueNRG_SPI_Read_All
 720              		.align	2
 721 03d8 AFF30080 		.p2align 4,,15
 721      AFF30080 
 722              		.global	BlueNRG_SPI_Write
 723              		.thumb
 724              		.thumb_func
 725              		.type	BlueNRG_SPI_Write, %function
 726              	BlueNRG_SPI_Write:
 727              	.LFB132:
 728              		.loc 1 365 0
 729              		.cfi_startproc
 730              		@ args = 4, pretend = 0, frame = 296
 731              		@ frame_needed = 0, uses_anonymous_args = 0
 732 03e0 10B5     		push	{r4, lr}
 733              		.cfi_def_cfa_offset 8
 734              		.cfi_offset 4, -8
 735              		.cfi_offset 14, -4
 736 03e2 CCB0     		sub	sp, sp, #304
 737              		.cfi_def_cfa_offset 312
 738 03e4 05AC     		add	r4, sp, #20
ARM GAS  /tmp/ccMec9uz.s 			page 14


 739 03e6 2060     		str	r0, [r4]
 740 03e8 04A8     		add	r0, sp, #16
 741 03ea 0160     		str	r1, [r0]
 742 03ec 03A9     		add	r1, sp, #12
 743 03ee 0A60     		str	r2, [r1]
 744 03f0 1A46     		mov	r2, r3
 745 03f2 0DF10B03 		add	r3, sp, #11
 746 03f6 1A70     		strb	r2, [r3]
 747              		.loc 1 366 0
 748 03f8 0023     		movs	r3, #0
 749 03fa 4B93     		str	r3, [sp, #300]
 750              		.loc 1 368 0
 751 03fc 0023     		movs	r3, #0
 752 03fe 4A93     		str	r3, [sp, #296]
 753              		.loc 1 374 0
 754 0400 0A23     		movs	r3, #10
 755 0402 8DF82031 		strb	r3, [sp, #288]
 756 0406 0023     		movs	r3, #0
 757 0408 8DF82131 		strb	r3, [sp, #289]
 758 040c 0023     		movs	r3, #0
 759 040e 8DF82231 		strb	r3, [sp, #290]
 760 0412 0023     		movs	r3, #0
 761 0414 8DF82331 		strb	r3, [sp, #291]
 762 0418 0023     		movs	r3, #0
 763 041a 8DF82431 		strb	r3, [sp, #292]
 764              		.loc 1 375 0
 765 041e AA23     		movs	r3, #170
 766 0420 8DF81831 		strb	r3, [sp, #280]
 767 0424 0023     		movs	r3, #0
 768 0426 8DF81931 		strb	r3, [sp, #281]
 769 042a 0023     		movs	r3, #0
 770 042c 8DF81A31 		strb	r3, [sp, #282]
 771 0430 0023     		movs	r3, #0
 772 0432 8DF81B31 		strb	r3, [sp, #283]
 773 0436 0023     		movs	r3, #0
 774 0438 8DF81C31 		strb	r3, [sp, #284]
 775              		.loc 1 379 0
 776 043c FFF7FEFF 		bl	Disable_SPI_IRQ
 777              		.loc 1 387 0
 778 0440 4A9B     		ldr	r3, [sp, #296]
 779 0442 002B     		cmp	r3, #0
 780 0444 03D0     		beq	.L35
 781              		.loc 1 388 0
 782 0446 FFF7FEFF 		bl	set_irq_as_output
 783              		.loc 1 391 0
 784 044a 00F0A1F8 		bl	us150Delay
 785              	.L35:
 786              		.loc 1 395 0
 787 044e 2F48     		ldr	r0, .L44
 788 0450 0421     		movs	r1, #4
 789 0452 0022     		movs	r2, #0
 790 0454 FFF7FEFF 		bl	HAL_GPIO_WritePin
 791              	.LBB38:
 792              	.LBB39:
 793              		.loc 2 344 0
 794              	@ 344 "../../../../../../ChibiOS/os/ext/CMSIS/include/core_cmFunc.h" 1
 795 0458 72B6     		cpsid i
ARM GAS  /tmp/ccMec9uz.s 			page 15


 796              	@ 0 "" 2
 797              		.thumb
 798              	.LBE39:
 799              	.LBE38:
 800              		.loc 1 399 0
 801 045a 05A9     		add	r1, sp, #20
 802 045c 48AA     		add	r2, sp, #288
 803 045e 46AB     		add	r3, sp, #280
 804 0460 0F20     		movs	r0, #15
 805 0462 0090     		str	r0, [sp]
 806 0464 0868     		ldr	r0, [r1]
 807 0466 1146     		mov	r1, r2
 808 0468 1A46     		mov	r2, r3
 809 046a 0523     		movs	r3, #5
 810 046c FFF7FEFF 		bl	HAL_SPI_TransmitReceive
 811              	.LBB40:
 812              	.LBB41:
 813              		.loc 2 333 0
 814              	@ 333 "../../../../../../ChibiOS/os/ext/CMSIS/include/core_cmFunc.h" 1
 815 0470 62B6     		cpsie i
 816              	@ 0 "" 2
 817              		.thumb
 818              	.LBE41:
 819              	.LBE40:
 820              		.loc 1 402 0
 821 0472 4A9B     		ldr	r3, [sp, #296]
 822 0474 002B     		cmp	r3, #0
 823 0476 01D0     		beq	.L36
 824              		.loc 1 403 0
 825 0478 FFF7FEFF 		bl	set_irq_as_input
 826              	.L36:
 827              		.loc 1 406 0
 828 047c 9DF81831 		ldrb	r3, [sp, #280]	@ zero_extendqisi2
 829 0480 022B     		cmp	r3, #2
 830 0482 35D1     		bne	.L37
 831              		.loc 1 408 0
 832 0484 9DF81931 		ldrb	r3, [sp, #281]	@ zero_extendqisi2
 833 0488 1A46     		mov	r2, r3
 834 048a 0DF10B03 		add	r3, sp, #11
 835 048e 1978     		ldrb	r1, [r3]	@ zero_extendqisi2
 836 0490 9DF83831 		ldrb	r3, [sp, #312]	@ zero_extendqisi2
 837 0494 0B44     		add	r3, r3, r1
 838 0496 9A42     		cmp	r2, r3
 839 0498 26DB     		blt	.L38
 840              		.loc 1 411 0
 841 049a 0DF10B03 		add	r3, sp, #11
 842 049e 1B78     		ldrb	r3, [r3]	@ zero_extendqisi2
 843 04a0 002B     		cmp	r3, #0
 844 04a2 0ED0     		beq	.L39
 845              	.LBB42:
 846              	.LBB43:
 847              		.loc 2 344 0
 848              	@ 344 "../../../../../../ChibiOS/os/ext/CMSIS/include/core_cmFunc.h" 1
 849 04a4 72B6     		cpsid i
 850              	@ 0 "" 2
 851              		.thumb
 852              	.LBE43:
ARM GAS  /tmp/ccMec9uz.s 			page 16


 853              	.LBE42:
 854              		.loc 1 413 0
 855 04a6 0DF10B03 		add	r3, sp, #11
 856 04aa 1B78     		ldrb	r3, [r3]	@ zero_extendqisi2
 857 04ac 9BB2     		uxth	r3, r3
 858 04ae 05A8     		add	r0, sp, #20
 859 04b0 04A9     		add	r1, sp, #16
 860 04b2 06AA     		add	r2, sp, #24
 861 04b4 0F24     		movs	r4, #15
 862 04b6 0094     		str	r4, [sp]
 863 04b8 0068     		ldr	r0, [r0]
 864 04ba 0968     		ldr	r1, [r1]
 865 04bc FFF7FEFF 		bl	HAL_SPI_TransmitReceive
 866              	.LBB44:
 867              	.LBB45:
 868              		.loc 2 333 0
 869              	@ 333 "../../../../../../ChibiOS/os/ext/CMSIS/include/core_cmFunc.h" 1
 870 04c0 62B6     		cpsie i
 871              	@ 0 "" 2
 872              		.thumb
 873              	.L39:
 874              	.LBE45:
 875              	.LBE44:
 876              		.loc 1 417 0
 877 04c2 9DF83831 		ldrb	r3, [sp, #312]	@ zero_extendqisi2
 878 04c6 002B     		cmp	r3, #0
 879 04c8 15D0     		beq	.L42
 880              	.LBB46:
 881              	.LBB47:
 882              		.loc 2 344 0
 883              	@ 344 "../../../../../../ChibiOS/os/ext/CMSIS/include/core_cmFunc.h" 1
 884 04ca 72B6     		cpsid i
 885              	@ 0 "" 2
 886              		.thumb
 887              	.LBE47:
 888              	.LBE46:
 889              		.loc 1 419 0
 890 04cc 9DF83831 		ldrb	r3, [sp, #312]	@ zero_extendqisi2
 891 04d0 9BB2     		uxth	r3, r3
 892 04d2 05A8     		add	r0, sp, #20
 893 04d4 03A9     		add	r1, sp, #12
 894 04d6 06AA     		add	r2, sp, #24
 895 04d8 0F24     		movs	r4, #15
 896 04da 0094     		str	r4, [sp]
 897 04dc 0068     		ldr	r0, [r0]
 898 04de 0968     		ldr	r1, [r1]
 899 04e0 FFF7FEFF 		bl	HAL_SPI_TransmitReceive
 900              	.LBB48:
 901              	.LBB49:
 902              		.loc 2 333 0
 903              	@ 333 "../../../../../../ChibiOS/os/ext/CMSIS/include/core_cmFunc.h" 1
 904 04e4 62B6     		cpsie i
 905              	@ 0 "" 2
 906              		.thumb
 907              	.LBE49:
 908              	.LBE48:
 909 04e6 06E0     		b	.L42
ARM GAS  /tmp/ccMec9uz.s 			page 17


 910              	.L38:
 911              		.loc 1 426 0
 912 04e8 6FF00103 		mvn	r3, #1
 913 04ec 4B93     		str	r3, [sp, #300]
 914 04ee 02E0     		b	.L42
 915              	.L37:
 916              		.loc 1 430 0
 917 04f0 4FF0FF33 		mov	r3, #-1
 918 04f4 4B93     		str	r3, [sp, #300]
 919              	.L42:
 920              		.loc 1 434 0
 921 04f6 0548     		ldr	r0, .L44
 922 04f8 0421     		movs	r1, #4
 923 04fa 0122     		movs	r2, #1
 924 04fc FFF7FEFF 		bl	HAL_GPIO_WritePin
 925              		.loc 1 437 0
 926 0500 FFF7FEFF 		bl	Enable_SPI_IRQ
 927              		.loc 1 439 0
 928 0504 4B9B     		ldr	r3, [sp, #300]
 929              		.loc 1 440 0
 930 0506 1846     		mov	r0, r3
 931 0508 4CB0     		add	sp, sp, #304
 932              		@ sp needed
 933 050a 10BD     		pop	{r4, pc}
 934              	.L45:
 935              		.align	2
 936              	.L44:
 937 050c 00040048 		.word	1207960576
 938              		.cfi_endproc
 939              	.LFE132:
 940              		.size	BlueNRG_SPI_Write, .-BlueNRG_SPI_Write
 941              		.align	2
 942              		.p2align 4,,15
 943              		.global	set_irq_as_output
 944              		.thumb
 945              		.thumb_func
 946              		.type	set_irq_as_output, %function
 947              	set_irq_as_output:
 948              	.LFB133:
 949              		.loc 1 448 0
 950              		.cfi_startproc
 951              		@ args = 0, pretend = 0, frame = 24
 952              		@ frame_needed = 0, uses_anonymous_args = 0
 953 0510 00B5     		push	{lr}
 954              		.cfi_def_cfa_offset 4
 955              		.cfi_offset 14, -4
 956 0512 87B0     		sub	sp, sp, #28
 957              		.cfi_def_cfa_offset 32
 958              		.loc 1 452 0
 959 0514 2023     		movs	r3, #32
 960 0516 0193     		str	r3, [sp, #4]
 961              		.loc 1 453 0
 962 0518 0123     		movs	r3, #1
 963 051a 0293     		str	r3, [sp, #8]
 964              		.loc 1 454 0
 965 051c 0323     		movs	r3, #3
 966 051e 0493     		str	r3, [sp, #16]
ARM GAS  /tmp/ccMec9uz.s 			page 18


 967              		.loc 1 455 0
 968 0520 0023     		movs	r3, #0
 969 0522 0393     		str	r3, [sp, #12]
 970              		.loc 1 456 0
 971 0524 01AB     		add	r3, sp, #4
 972 0526 0648     		ldr	r0, .L47
 973 0528 1946     		mov	r1, r3
 974 052a FFF7FEFF 		bl	HAL_GPIO_Init
 975              		.loc 1 457 0
 976 052e 0448     		ldr	r0, .L47
 977 0530 2021     		movs	r1, #32
 978 0532 0122     		movs	r2, #1
 979 0534 FFF7FEFF 		bl	HAL_GPIO_WritePin
 980              		.loc 1 458 0
 981 0538 07B0     		add	sp, sp, #28
 982              		@ sp needed
 983 053a 5DF804FB 		ldr	pc, [sp], #4
 984              	.L48:
 985 053e 00BF     		.align	2
 986              	.L47:
 987 0540 00080048 		.word	1207961600
 988              		.cfi_endproc
 989              	.LFE133:
 990              		.size	set_irq_as_output, .-set_irq_as_output
 991              		.align	2
 992 0544 AFF30080 		.p2align 4,,15
 992      AFF30080 
 992      AFF30080 
 993              		.global	set_irq_as_input
 994              		.thumb
 995              		.thumb_func
 996              		.type	set_irq_as_input, %function
 997              	set_irq_as_input:
 998              	.LFB134:
 999              		.loc 1 466 0
 1000              		.cfi_startproc
 1001              		@ args = 0, pretend = 0, frame = 24
 1002              		@ frame_needed = 0, uses_anonymous_args = 0
 1003 0550 00B5     		push	{lr}
 1004              		.cfi_def_cfa_offset 4
 1005              		.cfi_offset 14, -4
 1006 0552 87B0     		sub	sp, sp, #28
 1007              		.cfi_def_cfa_offset 32
 1008              		.loc 1 470 0
 1009 0554 2023     		movs	r3, #32
 1010 0556 0193     		str	r3, [sp, #4]
 1011              		.loc 1 471 0
 1012 0558 0B4B     		ldr	r3, .L50
 1013 055a 0293     		str	r3, [sp, #8]
 1014              		.loc 1 472 0
 1015 055c 0223     		movs	r3, #2
 1016 055e 0393     		str	r3, [sp, #12]
 1017              		.loc 1 473 0
 1018 0560 0323     		movs	r3, #3
 1019 0562 0493     		str	r3, [sp, #16]
 1020              		.loc 1 474 0
 1021 0564 0023     		movs	r3, #0
ARM GAS  /tmp/ccMec9uz.s 			page 19


 1022 0566 0593     		str	r3, [sp, #20]
 1023              		.loc 1 475 0
 1024 0568 01AB     		add	r3, sp, #4
 1025 056a 0848     		ldr	r0, .L50+4
 1026 056c 1946     		mov	r1, r3
 1027 056e FFF7FEFF 		bl	HAL_GPIO_Init
 1028              		.loc 1 477 0
 1029 0572 0023     		movs	r3, #0
 1030 0574 0393     		str	r3, [sp, #12]
 1031              		.loc 1 478 0
 1032 0576 01AB     		add	r3, sp, #4
 1033 0578 0448     		ldr	r0, .L50+4
 1034 057a 1946     		mov	r1, r3
 1035 057c FFF7FEFF 		bl	HAL_GPIO_Init
 1036              		.loc 1 479 0
 1037 0580 07B0     		add	sp, sp, #28
 1038              		@ sp needed
 1039 0582 5DF804FB 		ldr	pc, [sp], #4
 1040              	.L51:
 1041 0586 00BF     		.align	2
 1042              	.L50:
 1043 0588 00001110 		.word	269549568
 1044 058c 00080048 		.word	1207961600
 1045              		.cfi_endproc
 1046              	.LFE134:
 1047              		.size	set_irq_as_input, .-set_irq_as_input
 1048              		.align	2
 1049              		.p2align 4,,15
 1050              		.thumb
 1051              		.thumb_func
 1052              		.type	us150Delay, %function
 1053              	us150Delay:
 1054              	.LFB135:
 1055              		.loc 1 488 0
 1056              		.cfi_startproc
 1057              		@ args = 0, pretend = 0, frame = 8
 1058              		@ frame_needed = 0, uses_anonymous_args = 0
 1059              		@ link register save eliminated.
 1060 0590 82B0     		sub	sp, sp, #8
 1061              		.cfi_def_cfa_offset 8
 1062              	.LBB50:
 1063              		.loc 1 494 0
 1064 0592 0023     		movs	r3, #0
 1065 0594 0193     		str	r3, [sp, #4]
 1066 0596 03E0     		b	.L53
 1067              	.L54:
 1068              	.LBB51:
 1069              	.LBB52:
 1070              		.loc 3 423 0 discriminator 2
 1071              	@ 423 "../../../../../../ChibiOS/os/ext/CMSIS/include/core_cmInstr.h" 1
 1072 0598 00BF     		nop
 1073              	@ 0 "" 2
 1074              		.thumb
 1075              	.LBE52:
 1076              	.LBE51:
 1077              		.loc 1 494 0 discriminator 2
 1078 059a 019B     		ldr	r3, [sp, #4]
ARM GAS  /tmp/ccMec9uz.s 			page 20


 1079 059c 0133     		adds	r3, r3, #1
 1080 059e 0193     		str	r3, [sp, #4]
 1081              	.L53:
 1082              		.loc 1 494 0 is_stmt 0 discriminator 1
 1083 05a0 019B     		ldr	r3, [sp, #4]
 1084 05a2 B3F5866F 		cmp	r3, #1072
 1085 05a6 F7DB     		blt	.L54
 1086              	.LBE50:
 1087              		.loc 1 502 0 is_stmt 1
 1088 05a8 02B0     		add	sp, sp, #8
 1089              		@ sp needed
 1090 05aa 7047     		bx	lr
 1091              		.cfi_endproc
 1092              	.LFE135:
 1093              		.size	us150Delay, .-us150Delay
 1094              		.align	2
 1095 05ac AFF30080 		.p2align 4,,15
 1096              		.global	Enable_SPI_IRQ
 1097              		.thumb
 1098              		.thumb_func
 1099              		.type	Enable_SPI_IRQ, %function
 1100              	Enable_SPI_IRQ:
 1101              	.LFB136:
 1102              		.loc 1 510 0
 1103              		.cfi_startproc
 1104              		@ args = 0, pretend = 0, frame = 0
 1105              		@ frame_needed = 0, uses_anonymous_args = 0
 1106 05b0 08B5     		push	{r3, lr}
 1107              		.cfi_def_cfa_offset 8
 1108              		.cfi_offset 3, -8
 1109              		.cfi_offset 14, -4
 1110              		.loc 1 511 0
 1111 05b2 1720     		movs	r0, #23
 1112 05b4 FFF7FEFF 		bl	HAL_NVIC_EnableIRQ
 1113              		.loc 1 512 0
 1114 05b8 08BD     		pop	{r3, pc}
 1115              		.cfi_endproc
 1116              	.LFE136:
 1117              		.size	Enable_SPI_IRQ, .-Enable_SPI_IRQ
 1118 05ba 00BF     		.align	2
 1119 05bc AFF30080 		.p2align 4,,15
 1120              		.global	Disable_SPI_IRQ
 1121              		.thumb
 1122              		.thumb_func
 1123              		.type	Disable_SPI_IRQ, %function
 1124              	Disable_SPI_IRQ:
 1125              	.LFB137:
 1126              		.loc 1 520 0
 1127              		.cfi_startproc
 1128              		@ args = 0, pretend = 0, frame = 0
 1129              		@ frame_needed = 0, uses_anonymous_args = 0
 1130 05c0 08B5     		push	{r3, lr}
 1131              		.cfi_def_cfa_offset 8
 1132              		.cfi_offset 3, -8
 1133              		.cfi_offset 14, -4
 1134              		.loc 1 521 0
 1135 05c2 1720     		movs	r0, #23
ARM GAS  /tmp/ccMec9uz.s 			page 21


 1136 05c4 FFF7FEFF 		bl	HAL_NVIC_DisableIRQ
 1137              		.loc 1 522 0
 1138 05c8 08BD     		pop	{r3, pc}
 1139              		.cfi_endproc
 1140              	.LFE137:
 1141              		.size	Disable_SPI_IRQ, .-Disable_SPI_IRQ
 1142 05ca 00BF     		.align	2
 1143 05cc AFF30080 		.p2align 4,,15
 1144              		.global	Clear_SPI_IRQ
 1145              		.thumb
 1146              		.thumb_func
 1147              		.type	Clear_SPI_IRQ, %function
 1148              	Clear_SPI_IRQ:
 1149              	.LFB138:
 1150              		.loc 1 530 0
 1151              		.cfi_startproc
 1152              		@ args = 0, pretend = 0, frame = 0
 1153              		@ frame_needed = 0, uses_anonymous_args = 0
 1154 05d0 08B5     		push	{r3, lr}
 1155              		.cfi_def_cfa_offset 8
 1156              		.cfi_offset 3, -8
 1157              		.cfi_offset 14, -4
 1158              		.loc 1 531 0
 1159 05d2 1720     		movs	r0, #23
 1160 05d4 FFF7FEFF 		bl	HAL_NVIC_ClearPendingIRQ
 1161              		.loc 1 532 0
 1162 05d8 08BD     		pop	{r3, pc}
 1163              		.cfi_endproc
 1164              	.LFE138:
 1165              		.size	Clear_SPI_IRQ, .-Clear_SPI_IRQ
 1166 05da 00BF     		.align	2
 1167 05dc AFF30080 		.p2align 4,,15
 1168              		.global	Clear_SPI_EXTI_Flag
 1169              		.thumb
 1170              		.thumb_func
 1171              		.type	Clear_SPI_EXTI_Flag, %function
 1172              	Clear_SPI_EXTI_Flag:
 1173              	.LFB139:
 1174              		.loc 1 540 0
 1175              		.cfi_startproc
 1176              		@ args = 0, pretend = 0, frame = 0
 1177              		@ frame_needed = 0, uses_anonymous_args = 0
 1178              		@ link register save eliminated.
 1179              		.loc 1 541 0
 1180 05e0 014B     		ldr	r3, .L59
 1181 05e2 2022     		movs	r2, #32
 1182 05e4 5A61     		str	r2, [r3, #20]
 1183              		.loc 1 542 0
 1184 05e6 7047     		bx	lr
 1185              	.L60:
 1186              		.align	2
 1187              	.L59:
 1188 05e8 00040140 		.word	1073808384
 1189              		.cfi_endproc
 1190              	.LFE139:
 1191              		.size	Clear_SPI_EXTI_Flag, .-Clear_SPI_EXTI_Flag
 1192              	.Letext0:
ARM GAS  /tmp/ccMec9uz.s 			page 22


 1193              		.file 4 "/nfs/nfs5/home/research/hardware/arm2/gcc-arm-embedded/gcc-arm-none-eabi-4_8-2014q2/arm-n
 1194              		.file 5 "/nfs/nfs5/home/research/hardware/arm2/gcc-arm-embedded/gcc-arm-none-eabi-4_8-2014q2/arm-n
 1195              		.file 6 "../../../../../../ChibiOS/os/ext/CMSIS/ST/STM32L4xx/stm32l476xx.h"
 1196              		.file 7 "../../../../../Drivers/STM32L4xx_HAL_Driver/Inc/stm32l4xx_hal_def.h"
 1197              		.file 8 "../../../../../Drivers/STM32L4xx_HAL_Driver/Inc/stm32l4xx_hal_gpio.h"
 1198              		.file 9 "../../../../../Drivers/STM32L4xx_HAL_Driver/Inc/stm32l4xx_hal_dma.h"
 1199              		.file 10 "../../../../../Drivers/STM32L4xx_HAL_Driver/Inc/stm32l4xx_hal_spi.h"
 1200              		.file 11 "../../../../../Middlewares/ST/STM32_BlueNRG/SimpleBlueNRG_HCI/includes/ble_clock.h"
 1201              		.file 12 "../../../../../Middlewares/ST/STM32_BlueNRG/SimpleBlueNRG_HCI/includes/gp_timer.h"
 1202              		.file 13 "../../../../../../ChibiOS/os/ext/CMSIS/include/core_cm4.h"