ARM GAS  /tmp/ccyLkxL8.s 			page 1


   1              		.syntax unified
   2              		.cpu cortex-m4
   3              		.fpu softvfp
   4              		.eabi_attribute 20, 1
   5              		.eabi_attribute 21, 1
   6              		.eabi_attribute 23, 3
   7              		.eabi_attribute 24, 1
   8              		.eabi_attribute 25, 1
   9              		.eabi_attribute 26, 1
  10              		.eabi_attribute 30, 6
  11              		.eabi_attribute 34, 1
  12              		.eabi_attribute 18, 4
  13              		.thumb
  14              		.file	"SensorTile_gyro.c"
  15              		.text
  16              	.Ltext0:
  17              		.cfi_sections	.debug_frame
  18              		.bss
  19              		.align	2
  20              	GYRO_SensorHandle:
  21 0000 00000000 		.space	20
  21      00000000 
  21      00000000 
  21      00000000 
  21      00000000 
  22              		.align	2
  23              	GYRO_Data:
  24 0014 00000000 		.space	8
  24      00000000 
  25              		.align	2
  26              	LSM6DSM_G_0_Data:
  27 001c 00000000 		.space	8
  27      00000000 
  28              		.text
  29              		.align	2
  30              		.p2align 4,,15
  31              		.global	BSP_GYRO_Init
  32              		.thumb
  33              		.thumb_func
  34              		.type	BSP_GYRO_Init, %function
  35              	BSP_GYRO_Init:
  36              	.LFB125:
  37              		.file 1 "../../../../../Drivers/BSP/SensorTile/SensorTile_gyro.c"
  38              		.loc 1 89 0
  39              		.cfi_startproc
  40              		@ args = 0, pretend = 0, frame = 8
  41              		@ frame_needed = 0, uses_anonymous_args = 0
  42 0000 00B5     		push	{lr}
  43              		.cfi_def_cfa_offset 4
  44              		.cfi_offset 14, -4
  45 0002 83B0     		sub	sp, sp, #12
  46              		.cfi_def_cfa_offset 16
  47 0004 0346     		mov	r3, r0
  48 0006 0091     		str	r1, [sp]
  49 0008 8DF80730 		strb	r3, [sp, #7]
  50              		.loc 1 91 0
  51 000c 009B     		ldr	r3, [sp]
ARM GAS  /tmp/ccyLkxL8.s 			page 2


  52 000e 0022     		movs	r2, #0
  53 0010 1A60     		str	r2, [r3]
  54              		.loc 1 93 0
  55 0012 9DF90730 		ldrsb	r3, [sp, #7]
  56 0016 002B     		cmp	r3, #0
  57 0018 08D0     		beq	.L3
  58              		.loc 1 98 0
  59 001a 0098     		ldr	r0, [sp]
  60 001c 00F018F8 		bl	BSP_LSM6DSM_GYRO_Init
  61 0020 0346     		mov	r3, r0
  62 0022 012B     		cmp	r3, #1
  63 0024 01D1     		bne	.L4
  64              		.loc 1 100 0
  65 0026 0123     		movs	r3, #1
  66 0028 0AE0     		b	.L5
  67              	.L4:
  68              		.loc 1 102 0
  69 002a 08E0     		b	.L6
  70              	.L3:
  71              		.loc 1 106 0
  72 002c 0098     		ldr	r0, [sp]
  73 002e 00F00FF8 		bl	BSP_LSM6DSM_GYRO_Init
  74 0032 0346     		mov	r3, r0
  75 0034 012B     		cmp	r3, #1
  76 0036 01D1     		bne	.L7
  77              		.loc 1 108 0
  78 0038 0123     		movs	r3, #1
  79 003a 01E0     		b	.L5
  80              	.L7:
  81              		.loc 1 110 0
  82 003c 00BF     		nop
  83              	.L6:
  84              		.loc 1 114 0
  85 003e 0023     		movs	r3, #0
  86              	.L5:
  87              		.loc 1 115 0
  88 0040 1846     		mov	r0, r3
  89 0042 03B0     		add	sp, sp, #12
  90              		@ sp needed
  91 0044 5DF804FB 		ldr	pc, [sp], #4
  92              		.cfi_endproc
  93              	.LFE125:
  94              		.size	BSP_GYRO_Init, .-BSP_GYRO_Init
  95              		.align	2
  96 0048 AFF30080 		.p2align 4,,15
  96      AFF30080 
  97              		.thumb
  98              		.thumb_func
  99              		.type	BSP_LSM6DSM_GYRO_Init, %function
 100              	BSP_LSM6DSM_GYRO_Init:
 101              	.LFB126:
 102              		.loc 1 120 0
 103              		.cfi_startproc
 104              		@ args = 0, pretend = 0, frame = 16
 105              		@ frame_needed = 0, uses_anonymous_args = 0
 106 0050 00B5     		push	{lr}
 107              		.cfi_def_cfa_offset 4
ARM GAS  /tmp/ccyLkxL8.s 			page 3


 108              		.cfi_offset 14, -4
 109 0052 85B0     		sub	sp, sp, #20
 110              		.cfi_def_cfa_offset 24
 111 0054 0190     		str	r0, [sp, #4]
 112              		.loc 1 121 0
 113 0056 0023     		movs	r3, #0
 114 0058 0393     		str	r3, [sp, #12]
 115              		.loc 1 122 0
 116 005a 0C23     		movs	r3, #12
 117 005c 8DF80B30 		strb	r3, [sp, #11]
 118              		.loc 1 124 0
 119 0060 3F4B     		ldr	r3, .L16
 120 0062 5B79     		ldrb	r3, [r3, #5]	@ zero_extendqisi2
 121 0064 012B     		cmp	r3, #1
 122 0066 01D1     		bne	.L9
 123              		.loc 1 127 0
 124 0068 0123     		movs	r3, #1
 125 006a 75E0     		b	.L15
 126              	.L9:
 127              		.loc 1 130 0
 128 006c FFF7FEFF 		bl	Sensor_IO_SPI_Init
 129 0070 0346     		mov	r3, r0
 130 0072 012B     		cmp	r3, #1
 131 0074 01D1     		bne	.L11
 132              		.loc 1 132 0
 133 0076 0123     		movs	r3, #1
 134 0078 6EE0     		b	.L15
 135              	.L11:
 136              		.loc 1 137 0
 137 007a 394B     		ldr	r3, .L16
 138 007c 6A22     		movs	r2, #106
 139 007e 1A70     		strb	r2, [r3]
 140              		.loc 1 138 0
 141 0080 374B     		ldr	r3, .L16
 142 0082 0122     		movs	r2, #1
 143 0084 5A70     		strb	r2, [r3, #1]
 144              		.loc 1 139 0
 145 0086 364B     		ldr	r3, .L16
 146 0088 D622     		movs	r2, #214
 147 008a 9A70     		strb	r2, [r3, #2]
 148              		.loc 1 140 0
 149 008c 344B     		ldr	r3, .L16
 150 008e 0022     		movs	r2, #0
 151 0090 DA70     		strb	r2, [r3, #3]
 152              		.loc 1 141 0
 153 0092 334B     		ldr	r3, .L16
 154 0094 0022     		movs	r2, #0
 155 0096 1A71     		strb	r2, [r3, #4]
 156              		.loc 1 142 0
 157 0098 314B     		ldr	r3, .L16
 158 009a 0022     		movs	r2, #0
 159 009c 5A71     		strb	r2, [r3, #5]
 160              		.loc 1 143 0
 161 009e 304B     		ldr	r3, .L16
 162 00a0 0022     		movs	r2, #0
 163 00a2 9A71     		strb	r2, [r3, #6]
 164              		.loc 1 144 0
ARM GAS  /tmp/ccyLkxL8.s 			page 4


 165 00a4 2E4B     		ldr	r3, .L16
 166 00a6 0122     		movs	r2, #1
 167 00a8 DA71     		strb	r2, [r3, #7]
 168              		.loc 1 145 0
 169 00aa 2D4B     		ldr	r3, .L16
 170 00ac 2D4A     		ldr	r2, .L16+4
 171 00ae 9A60     		str	r2, [r3, #8]
 172              		.loc 1 146 0
 173 00b0 2B4B     		ldr	r3, .L16
 174 00b2 2D4A     		ldr	r2, .L16+8
 175 00b4 DA60     		str	r2, [r3, #12]
 176              		.loc 1 147 0
 177 00b6 2A4B     		ldr	r3, .L16
 178 00b8 0022     		movs	r2, #0
 179 00ba 1A61     		str	r2, [r3, #16]
 180              		.loc 1 149 0
 181 00bc 2B4B     		ldr	r3, .L16+12
 182 00be 2C4A     		ldr	r2, .L16+16
 183 00c0 1A60     		str	r2, [r3]
 184              		.loc 1 150 0
 185 00c2 284B     		ldr	r3, .L16+4
 186 00c4 294A     		ldr	r2, .L16+12
 187 00c6 1A60     		str	r2, [r3]
 188              		.loc 1 151 0
 189 00c8 264B     		ldr	r3, .L16+4
 190 00ca 0022     		movs	r2, #0
 191 00cc 5A60     		str	r2, [r3, #4]
 192              		.loc 1 153 0
 193 00ce 019B     		ldr	r3, [sp, #4]
 194 00d0 234A     		ldr	r2, .L16
 195 00d2 1A60     		str	r2, [r3]
 196              		.loc 1 155 0
 197 00d4 019B     		ldr	r3, [sp, #4]
 198 00d6 1B68     		ldr	r3, [r3]
 199 00d8 1846     		mov	r0, r3
 200 00da FFF7FEFF 		bl	Sensor_IO_SPI_CS_Init
 201              		.loc 1 157 0
 202 00de 244B     		ldr	r3, .L16+16
 203 00e0 1B78     		ldrb	r3, [r3]	@ zero_extendqisi2
 204 00e2 002B     		cmp	r3, #0
 205 00e4 0ED1     		bne	.L12
 206              		.loc 1 160 0
 207 00e6 019B     		ldr	r3, [sp, #4]
 208 00e8 1A68     		ldr	r2, [r3]
 209 00ea 0DF10B03 		add	r3, sp, #11
 210 00ee 1046     		mov	r0, r2
 211 00f0 1221     		movs	r1, #18
 212 00f2 1A46     		mov	r2, r3
 213 00f4 0123     		movs	r3, #1
 214 00f6 FFF7FEFF 		bl	Sensor_IO_Write
 215 00fa 0346     		mov	r3, r0
 216 00fc 002B     		cmp	r3, #0
 217 00fe 01D0     		beq	.L12
 218              		.loc 1 162 0
 219 0100 0123     		movs	r3, #1
 220 0102 29E0     		b	.L15
 221              	.L12:
ARM GAS  /tmp/ccyLkxL8.s 			page 5


 222              		.loc 1 166 0
 223 0104 019B     		ldr	r3, [sp, #4]
 224 0106 1B68     		ldr	r3, [r3]
 225 0108 DB68     		ldr	r3, [r3, #12]
 226 010a 0393     		str	r3, [sp, #12]
 227              		.loc 1 168 0
 228 010c 039B     		ldr	r3, [sp, #12]
 229 010e 1B68     		ldr	r3, [r3]
 230 0110 002B     		cmp	r3, #0
 231 0112 0BD1     		bne	.L13
 232              		.loc 1 170 0
 233 0114 019B     		ldr	r3, [sp, #4]
 234 0116 1B68     		ldr	r3, [r3]
 235 0118 1846     		mov	r0, r3
 236 011a 0021     		movs	r1, #0
 237 011c 1422     		movs	r2, #20
 238 011e FFF7FEFF 		bl	memset
 239              		.loc 1 171 0
 240 0122 019B     		ldr	r3, [sp, #4]
 241 0124 0022     		movs	r2, #0
 242 0126 1A60     		str	r2, [r3]
 243              		.loc 1 172 0
 244 0128 0123     		movs	r3, #1
 245 012a 15E0     		b	.L15
 246              	.L13:
 247              		.loc 1 175 0
 248 012c 039B     		ldr	r3, [sp, #12]
 249 012e 1B68     		ldr	r3, [r3]
 250 0130 019A     		ldr	r2, [sp, #4]
 251 0132 1268     		ldr	r2, [r2]
 252 0134 1046     		mov	r0, r2
 253 0136 9847     		blx	r3
 254 0138 0346     		mov	r3, r0
 255 013a 012B     		cmp	r3, #1
 256 013c 0BD1     		bne	.L14
 257              		.loc 1 177 0
 258 013e 019B     		ldr	r3, [sp, #4]
 259 0140 1B68     		ldr	r3, [r3]
 260 0142 1846     		mov	r0, r3
 261 0144 0021     		movs	r1, #0
 262 0146 1422     		movs	r2, #20
 263 0148 FFF7FEFF 		bl	memset
 264              		.loc 1 178 0
 265 014c 019B     		ldr	r3, [sp, #4]
 266 014e 0022     		movs	r2, #0
 267 0150 1A60     		str	r2, [r3]
 268              		.loc 1 179 0
 269 0152 0123     		movs	r3, #1
 270 0154 00E0     		b	.L15
 271              	.L14:
 272              		.loc 1 182 0
 273 0156 0023     		movs	r3, #0
 274              	.L15:
 275              		.loc 1 183 0
 276 0158 1846     		mov	r0, r3
 277 015a 05B0     		add	sp, sp, #20
 278              		@ sp needed
ARM GAS  /tmp/ccyLkxL8.s 			page 6


 279 015c 5DF804FB 		ldr	pc, [sp], #4
 280              	.L17:
 281              		.align	2
 282              	.L16:
 283 0160 00000000 		.word	GYRO_SensorHandle
 284 0164 14000000 		.word	GYRO_Data
 285 0168 00000000 		.word	LSM6DSM_G_Drv
 286 016c 1C000000 		.word	LSM6DSM_G_0_Data
 287 0170 00000000 		.word	LSM6DSM_Combo_Data
 288              		.cfi_endproc
 289              	.LFE126:
 290              		.size	BSP_LSM6DSM_GYRO_Init, .-BSP_LSM6DSM_GYRO_Init
 291              		.align	2
 292 0174 AFF30080 		.p2align 4,,15
 292      AFF30080 
 292      AFF30080 
 293              		.global	BSP_GYRO_DeInit
 294              		.thumb
 295              		.thumb_func
 296              		.type	BSP_GYRO_DeInit, %function
 297              	BSP_GYRO_DeInit:
 298              	.LFB127:
 299              		.loc 1 193 0
 300              		.cfi_startproc
 301              		@ args = 0, pretend = 0, frame = 16
 302              		@ frame_needed = 0, uses_anonymous_args = 0
 303 0180 00B5     		push	{lr}
 304              		.cfi_def_cfa_offset 4
 305              		.cfi_offset 14, -4
 306 0182 85B0     		sub	sp, sp, #20
 307              		.cfi_def_cfa_offset 24
 308 0184 0190     		str	r0, [sp, #4]
 309              		.loc 1 195 0
 310 0186 019B     		ldr	r3, [sp, #4]
 311 0188 1B68     		ldr	r3, [r3]
 312 018a 0393     		str	r3, [sp, #12]
 313              		.loc 1 196 0
 314 018c 0023     		movs	r3, #0
 315 018e 0293     		str	r3, [sp, #8]
 316              		.loc 1 198 0
 317 0190 039B     		ldr	r3, [sp, #12]
 318 0192 002B     		cmp	r3, #0
 319 0194 01D1     		bne	.L19
 320              		.loc 1 200 0
 321 0196 0123     		movs	r3, #1
 322 0198 1AE0     		b	.L20
 323              	.L19:
 324              		.loc 1 203 0
 325 019a 039B     		ldr	r3, [sp, #12]
 326 019c DB68     		ldr	r3, [r3, #12]
 327 019e 0293     		str	r3, [sp, #8]
 328              		.loc 1 205 0
 329 01a0 029B     		ldr	r3, [sp, #8]
 330 01a2 5B68     		ldr	r3, [r3, #4]
 331 01a4 002B     		cmp	r3, #0
 332 01a6 01D1     		bne	.L21
 333              		.loc 1 207 0
ARM GAS  /tmp/ccyLkxL8.s 			page 7


 334 01a8 0123     		movs	r3, #1
 335 01aa 11E0     		b	.L20
 336              	.L21:
 337              		.loc 1 210 0
 338 01ac 029B     		ldr	r3, [sp, #8]
 339 01ae 5B68     		ldr	r3, [r3, #4]
 340 01b0 0398     		ldr	r0, [sp, #12]
 341 01b2 9847     		blx	r3
 342 01b4 0346     		mov	r3, r0
 343 01b6 012B     		cmp	r3, #1
 344 01b8 01D1     		bne	.L22
 345              		.loc 1 212 0
 346 01ba 0123     		movs	r3, #1
 347 01bc 08E0     		b	.L20
 348              	.L22:
 349              		.loc 1 215 0
 350 01be 0398     		ldr	r0, [sp, #12]
 351 01c0 0021     		movs	r1, #0
 352 01c2 1422     		movs	r2, #20
 353 01c4 FFF7FEFF 		bl	memset
 354              		.loc 1 217 0
 355 01c8 019B     		ldr	r3, [sp, #4]
 356 01ca 0022     		movs	r2, #0
 357 01cc 1A60     		str	r2, [r3]
 358              		.loc 1 219 0
 359 01ce 0023     		movs	r3, #0
 360              	.L20:
 361              		.loc 1 220 0
 362 01d0 1846     		mov	r0, r3
 363 01d2 05B0     		add	sp, sp, #20
 364              		@ sp needed
 365 01d4 5DF804FB 		ldr	pc, [sp], #4
 366              		.cfi_endproc
 367              	.LFE127:
 368              		.size	BSP_GYRO_DeInit, .-BSP_GYRO_DeInit
 369              		.align	2
 370 01d8 AFF30080 		.p2align 4,,15
 370      AFF30080 
 371              		.global	BSP_GYRO_Sensor_Enable
 372              		.thumb
 373              		.thumb_func
 374              		.type	BSP_GYRO_Sensor_Enable, %function
 375              	BSP_GYRO_Sensor_Enable:
 376              	.LFB128:
 377              		.loc 1 231 0
 378              		.cfi_startproc
 379              		@ args = 0, pretend = 0, frame = 16
 380              		@ frame_needed = 0, uses_anonymous_args = 0
 381 01e0 00B5     		push	{lr}
 382              		.cfi_def_cfa_offset 4
 383              		.cfi_offset 14, -4
 384 01e2 85B0     		sub	sp, sp, #20
 385              		.cfi_def_cfa_offset 24
 386 01e4 0190     		str	r0, [sp, #4]
 387              		.loc 1 233 0
 388 01e6 019B     		ldr	r3, [sp, #4]
 389 01e8 0393     		str	r3, [sp, #12]
ARM GAS  /tmp/ccyLkxL8.s 			page 8


 390              		.loc 1 234 0
 391 01ea 0023     		movs	r3, #0
 392 01ec 0293     		str	r3, [sp, #8]
 393              		.loc 1 236 0
 394 01ee 039B     		ldr	r3, [sp, #12]
 395 01f0 002B     		cmp	r3, #0
 396 01f2 01D1     		bne	.L24
 397              		.loc 1 238 0
 398 01f4 0123     		movs	r3, #1
 399 01f6 12E0     		b	.L25
 400              	.L24:
 401              		.loc 1 241 0
 402 01f8 039B     		ldr	r3, [sp, #12]
 403 01fa DB68     		ldr	r3, [r3, #12]
 404 01fc 0293     		str	r3, [sp, #8]
 405              		.loc 1 243 0
 406 01fe 029B     		ldr	r3, [sp, #8]
 407 0200 9B68     		ldr	r3, [r3, #8]
 408 0202 002B     		cmp	r3, #0
 409 0204 01D1     		bne	.L26
 410              		.loc 1 245 0
 411 0206 0123     		movs	r3, #1
 412 0208 09E0     		b	.L25
 413              	.L26:
 414              		.loc 1 248 0
 415 020a 029B     		ldr	r3, [sp, #8]
 416 020c 9B68     		ldr	r3, [r3, #8]
 417 020e 0398     		ldr	r0, [sp, #12]
 418 0210 9847     		blx	r3
 419 0212 0346     		mov	r3, r0
 420 0214 012B     		cmp	r3, #1
 421 0216 01D1     		bne	.L27
 422              		.loc 1 250 0
 423 0218 0123     		movs	r3, #1
 424 021a 00E0     		b	.L25
 425              	.L27:
 426              		.loc 1 253 0
 427 021c 0023     		movs	r3, #0
 428              	.L25:
 429              		.loc 1 254 0
 430 021e 1846     		mov	r0, r3
 431 0220 05B0     		add	sp, sp, #20
 432              		@ sp needed
 433 0222 5DF804FB 		ldr	pc, [sp], #4
 434              		.cfi_endproc
 435              	.LFE128:
 436              		.size	BSP_GYRO_Sensor_Enable, .-BSP_GYRO_Sensor_Enable
 437 0226 00BF     		.align	2
 438 0228 AFF30080 		.p2align 4,,15
 438      AFF30080 
 439              		.global	BSP_GYRO_Sensor_Disable
 440              		.thumb
 441              		.thumb_func
 442              		.type	BSP_GYRO_Sensor_Disable, %function
 443              	BSP_GYRO_Sensor_Disable:
 444              	.LFB129:
 445              		.loc 1 265 0
ARM GAS  /tmp/ccyLkxL8.s 			page 9


 446              		.cfi_startproc
 447              		@ args = 0, pretend = 0, frame = 16
 448              		@ frame_needed = 0, uses_anonymous_args = 0
 449 0230 00B5     		push	{lr}
 450              		.cfi_def_cfa_offset 4
 451              		.cfi_offset 14, -4
 452 0232 85B0     		sub	sp, sp, #20
 453              		.cfi_def_cfa_offset 24
 454 0234 0190     		str	r0, [sp, #4]
 455              		.loc 1 267 0
 456 0236 019B     		ldr	r3, [sp, #4]
 457 0238 0393     		str	r3, [sp, #12]
 458              		.loc 1 268 0
 459 023a 0023     		movs	r3, #0
 460 023c 0293     		str	r3, [sp, #8]
 461              		.loc 1 270 0
 462 023e 039B     		ldr	r3, [sp, #12]
 463 0240 002B     		cmp	r3, #0
 464 0242 01D1     		bne	.L29
 465              		.loc 1 272 0
 466 0244 0123     		movs	r3, #1
 467 0246 12E0     		b	.L30
 468              	.L29:
 469              		.loc 1 275 0
 470 0248 039B     		ldr	r3, [sp, #12]
 471 024a DB68     		ldr	r3, [r3, #12]
 472 024c 0293     		str	r3, [sp, #8]
 473              		.loc 1 277 0
 474 024e 029B     		ldr	r3, [sp, #8]
 475 0250 DB68     		ldr	r3, [r3, #12]
 476 0252 002B     		cmp	r3, #0
 477 0254 01D1     		bne	.L31
 478              		.loc 1 279 0
 479 0256 0123     		movs	r3, #1
 480 0258 09E0     		b	.L30
 481              	.L31:
 482              		.loc 1 282 0
 483 025a 029B     		ldr	r3, [sp, #8]
 484 025c DB68     		ldr	r3, [r3, #12]
 485 025e 0398     		ldr	r0, [sp, #12]
 486 0260 9847     		blx	r3
 487 0262 0346     		mov	r3, r0
 488 0264 012B     		cmp	r3, #1
 489 0266 01D1     		bne	.L32
 490              		.loc 1 284 0
 491 0268 0123     		movs	r3, #1
 492 026a 00E0     		b	.L30
 493              	.L32:
 494              		.loc 1 287 0
 495 026c 0023     		movs	r3, #0
 496              	.L30:
 497              		.loc 1 288 0
 498 026e 1846     		mov	r0, r3
 499 0270 05B0     		add	sp, sp, #20
 500              		@ sp needed
 501 0272 5DF804FB 		ldr	pc, [sp], #4
 502              		.cfi_endproc
ARM GAS  /tmp/ccyLkxL8.s 			page 10


 503              	.LFE129:
 504              		.size	BSP_GYRO_Sensor_Disable, .-BSP_GYRO_Sensor_Disable
 505 0276 00BF     		.align	2
 506 0278 AFF30080 		.p2align 4,,15
 506      AFF30080 
 507              		.global	BSP_GYRO_IsInitialized
 508              		.thumb
 509              		.thumb_func
 510              		.type	BSP_GYRO_IsInitialized, %function
 511              	BSP_GYRO_IsInitialized:
 512              	.LFB130:
 513              		.loc 1 299 0
 514              		.cfi_startproc
 515              		@ args = 0, pretend = 0, frame = 16
 516              		@ frame_needed = 0, uses_anonymous_args = 0
 517              		@ link register save eliminated.
 518 0280 84B0     		sub	sp, sp, #16
 519              		.cfi_def_cfa_offset 16
 520 0282 0190     		str	r0, [sp, #4]
 521 0284 0091     		str	r1, [sp]
 522              		.loc 1 300 0
 523 0286 019B     		ldr	r3, [sp, #4]
 524 0288 0393     		str	r3, [sp, #12]
 525              		.loc 1 302 0
 526 028a 039B     		ldr	r3, [sp, #12]
 527 028c 002B     		cmp	r3, #0
 528 028e 01D1     		bne	.L34
 529              		.loc 1 304 0
 530 0290 0123     		movs	r3, #1
 531 0292 09E0     		b	.L35
 532              	.L34:
 533              		.loc 1 307 0
 534 0294 009B     		ldr	r3, [sp]
 535 0296 002B     		cmp	r3, #0
 536 0298 01D1     		bne	.L36
 537              		.loc 1 309 0
 538 029a 0123     		movs	r3, #1
 539 029c 04E0     		b	.L35
 540              	.L36:
 541              		.loc 1 312 0
 542 029e 039B     		ldr	r3, [sp, #12]
 543 02a0 5A79     		ldrb	r2, [r3, #5]	@ zero_extendqisi2
 544 02a2 009B     		ldr	r3, [sp]
 545 02a4 1A70     		strb	r2, [r3]
 546              		.loc 1 314 0
 547 02a6 0023     		movs	r3, #0
 548              	.L35:
 549              		.loc 1 315 0
 550 02a8 1846     		mov	r0, r3
 551 02aa 04B0     		add	sp, sp, #16
 552              		@ sp needed
 553 02ac 7047     		bx	lr
 554              		.cfi_endproc
 555              	.LFE130:
 556              		.size	BSP_GYRO_IsInitialized, .-BSP_GYRO_IsInitialized
 557 02ae 00BF     		.align	2
 558              		.p2align 4,,15
ARM GAS  /tmp/ccyLkxL8.s 			page 11


 559              		.global	BSP_GYRO_IsEnabled
 560              		.thumb
 561              		.thumb_func
 562              		.type	BSP_GYRO_IsEnabled, %function
 563              	BSP_GYRO_IsEnabled:
 564              	.LFB131:
 565              		.loc 1 326 0
 566              		.cfi_startproc
 567              		@ args = 0, pretend = 0, frame = 16
 568              		@ frame_needed = 0, uses_anonymous_args = 0
 569              		@ link register save eliminated.
 570 02b0 84B0     		sub	sp, sp, #16
 571              		.cfi_def_cfa_offset 16
 572 02b2 0190     		str	r0, [sp, #4]
 573 02b4 0091     		str	r1, [sp]
 574              		.loc 1 327 0
 575 02b6 019B     		ldr	r3, [sp, #4]
 576 02b8 0393     		str	r3, [sp, #12]
 577              		.loc 1 329 0
 578 02ba 039B     		ldr	r3, [sp, #12]
 579 02bc 002B     		cmp	r3, #0
 580 02be 01D1     		bne	.L38
 581              		.loc 1 331 0
 582 02c0 0123     		movs	r3, #1
 583 02c2 09E0     		b	.L39
 584              	.L38:
 585              		.loc 1 334 0
 586 02c4 009B     		ldr	r3, [sp]
 587 02c6 002B     		cmp	r3, #0
 588 02c8 01D1     		bne	.L40
 589              		.loc 1 336 0
 590 02ca 0123     		movs	r3, #1
 591 02cc 04E0     		b	.L39
 592              	.L40:
 593              		.loc 1 339 0
 594 02ce 039B     		ldr	r3, [sp, #12]
 595 02d0 9A79     		ldrb	r2, [r3, #6]	@ zero_extendqisi2
 596 02d2 009B     		ldr	r3, [sp]
 597 02d4 1A70     		strb	r2, [r3]
 598              		.loc 1 341 0
 599 02d6 0023     		movs	r3, #0
 600              	.L39:
 601              		.loc 1 342 0
 602 02d8 1846     		mov	r0, r3
 603 02da 04B0     		add	sp, sp, #16
 604              		@ sp needed
 605 02dc 7047     		bx	lr
 606              		.cfi_endproc
 607              	.LFE131:
 608              		.size	BSP_GYRO_IsEnabled, .-BSP_GYRO_IsEnabled
 609 02de 00BF     		.align	2
 610              		.p2align 4,,15
 611              		.global	BSP_GYRO_IsCombo
 612              		.thumb
 613              		.thumb_func
 614              		.type	BSP_GYRO_IsCombo, %function
 615              	BSP_GYRO_IsCombo:
ARM GAS  /tmp/ccyLkxL8.s 			page 12


 616              	.LFB132:
 617              		.loc 1 353 0
 618              		.cfi_startproc
 619              		@ args = 0, pretend = 0, frame = 16
 620              		@ frame_needed = 0, uses_anonymous_args = 0
 621              		@ link register save eliminated.
 622 02e0 84B0     		sub	sp, sp, #16
 623              		.cfi_def_cfa_offset 16
 624 02e2 0190     		str	r0, [sp, #4]
 625 02e4 0091     		str	r1, [sp]
 626              		.loc 1 354 0
 627 02e6 019B     		ldr	r3, [sp, #4]
 628 02e8 0393     		str	r3, [sp, #12]
 629              		.loc 1 356 0
 630 02ea 039B     		ldr	r3, [sp, #12]
 631 02ec 002B     		cmp	r3, #0
 632 02ee 01D1     		bne	.L42
 633              		.loc 1 358 0
 634 02f0 0123     		movs	r3, #1
 635 02f2 09E0     		b	.L43
 636              	.L42:
 637              		.loc 1 361 0
 638 02f4 009B     		ldr	r3, [sp]
 639 02f6 002B     		cmp	r3, #0
 640 02f8 01D1     		bne	.L44
 641              		.loc 1 363 0
 642 02fa 0123     		movs	r3, #1
 643 02fc 04E0     		b	.L43
 644              	.L44:
 645              		.loc 1 366 0
 646 02fe 039B     		ldr	r3, [sp, #12]
 647 0300 DA79     		ldrb	r2, [r3, #7]	@ zero_extendqisi2
 648 0302 009B     		ldr	r3, [sp]
 649 0304 1A70     		strb	r2, [r3]
 650              		.loc 1 368 0
 651 0306 0023     		movs	r3, #0
 652              	.L43:
 653              		.loc 1 369 0
 654 0308 1846     		mov	r0, r3
 655 030a 04B0     		add	sp, sp, #16
 656              		@ sp needed
 657 030c 7047     		bx	lr
 658              		.cfi_endproc
 659              	.LFE132:
 660              		.size	BSP_GYRO_IsCombo, .-BSP_GYRO_IsCombo
 661 030e 00BF     		.align	2
 662              		.p2align 4,,15
 663              		.global	BSP_GYRO_Get_Instance
 664              		.thumb
 665              		.thumb_func
 666              		.type	BSP_GYRO_Get_Instance, %function
 667              	BSP_GYRO_Get_Instance:
 668              	.LFB133:
 669              		.loc 1 380 0
 670              		.cfi_startproc
 671              		@ args = 0, pretend = 0, frame = 16
 672              		@ frame_needed = 0, uses_anonymous_args = 0
ARM GAS  /tmp/ccyLkxL8.s 			page 13


 673              		@ link register save eliminated.
 674 0310 84B0     		sub	sp, sp, #16
 675              		.cfi_def_cfa_offset 16
 676 0312 0190     		str	r0, [sp, #4]
 677 0314 0091     		str	r1, [sp]
 678              		.loc 1 381 0
 679 0316 019B     		ldr	r3, [sp, #4]
 680 0318 0393     		str	r3, [sp, #12]
 681              		.loc 1 383 0
 682 031a 039B     		ldr	r3, [sp, #12]
 683 031c 002B     		cmp	r3, #0
 684 031e 01D1     		bne	.L46
 685              		.loc 1 385 0
 686 0320 0123     		movs	r3, #1
 687 0322 09E0     		b	.L47
 688              	.L46:
 689              		.loc 1 388 0
 690 0324 009B     		ldr	r3, [sp]
 691 0326 002B     		cmp	r3, #0
 692 0328 01D1     		bne	.L48
 693              		.loc 1 390 0
 694 032a 0123     		movs	r3, #1
 695 032c 04E0     		b	.L47
 696              	.L48:
 697              		.loc 1 393 0
 698 032e 039B     		ldr	r3, [sp, #12]
 699 0330 1A79     		ldrb	r2, [r3, #4]	@ zero_extendqisi2
 700 0332 009B     		ldr	r3, [sp]
 701 0334 1A70     		strb	r2, [r3]
 702              		.loc 1 395 0
 703 0336 0023     		movs	r3, #0
 704              	.L47:
 705              		.loc 1 396 0
 706 0338 1846     		mov	r0, r3
 707 033a 04B0     		add	sp, sp, #16
 708              		@ sp needed
 709 033c 7047     		bx	lr
 710              		.cfi_endproc
 711              	.LFE133:
 712              		.size	BSP_GYRO_Get_Instance, .-BSP_GYRO_Get_Instance
 713 033e 00BF     		.align	2
 714              		.p2align 4,,15
 715              		.global	BSP_GYRO_Get_WhoAmI
 716              		.thumb
 717              		.thumb_func
 718              		.type	BSP_GYRO_Get_WhoAmI, %function
 719              	BSP_GYRO_Get_WhoAmI:
 720              	.LFB134:
 721              		.loc 1 408 0
 722              		.cfi_startproc
 723              		@ args = 0, pretend = 0, frame = 16
 724              		@ frame_needed = 0, uses_anonymous_args = 0
 725 0340 00B5     		push	{lr}
 726              		.cfi_def_cfa_offset 4
 727              		.cfi_offset 14, -4
 728 0342 85B0     		sub	sp, sp, #20
 729              		.cfi_def_cfa_offset 24
ARM GAS  /tmp/ccyLkxL8.s 			page 14


 730 0344 0190     		str	r0, [sp, #4]
 731 0346 0091     		str	r1, [sp]
 732              		.loc 1 410 0
 733 0348 019B     		ldr	r3, [sp, #4]
 734 034a 0393     		str	r3, [sp, #12]
 735              		.loc 1 411 0
 736 034c 0023     		movs	r3, #0
 737 034e 0293     		str	r3, [sp, #8]
 738              		.loc 1 413 0
 739 0350 039B     		ldr	r3, [sp, #12]
 740 0352 002B     		cmp	r3, #0
 741 0354 01D1     		bne	.L50
 742              		.loc 1 415 0
 743 0356 0123     		movs	r3, #1
 744 0358 18E0     		b	.L51
 745              	.L50:
 746              		.loc 1 418 0
 747 035a 039B     		ldr	r3, [sp, #12]
 748 035c DB68     		ldr	r3, [r3, #12]
 749 035e 0293     		str	r3, [sp, #8]
 750              		.loc 1 420 0
 751 0360 009B     		ldr	r3, [sp]
 752 0362 002B     		cmp	r3, #0
 753 0364 01D1     		bne	.L52
 754              		.loc 1 422 0
 755 0366 0123     		movs	r3, #1
 756 0368 10E0     		b	.L51
 757              	.L52:
 758              		.loc 1 424 0
 759 036a 029B     		ldr	r3, [sp, #8]
 760 036c 1B69     		ldr	r3, [r3, #16]
 761 036e 002B     		cmp	r3, #0
 762 0370 01D1     		bne	.L53
 763              		.loc 1 426 0
 764 0372 0123     		movs	r3, #1
 765 0374 0AE0     		b	.L51
 766              	.L53:
 767              		.loc 1 428 0
 768 0376 029B     		ldr	r3, [sp, #8]
 769 0378 1B69     		ldr	r3, [r3, #16]
 770 037a 0398     		ldr	r0, [sp, #12]
 771 037c 0099     		ldr	r1, [sp]
 772 037e 9847     		blx	r3
 773 0380 0346     		mov	r3, r0
 774 0382 012B     		cmp	r3, #1
 775 0384 01D1     		bne	.L54
 776              		.loc 1 430 0
 777 0386 0123     		movs	r3, #1
 778 0388 00E0     		b	.L51
 779              	.L54:
 780              		.loc 1 433 0
 781 038a 0023     		movs	r3, #0
 782              	.L51:
 783              		.loc 1 434 0
 784 038c 1846     		mov	r0, r3
 785 038e 05B0     		add	sp, sp, #20
 786              		@ sp needed
ARM GAS  /tmp/ccyLkxL8.s 			page 15


 787 0390 5DF804FB 		ldr	pc, [sp], #4
 788              		.cfi_endproc
 789              	.LFE134:
 790              		.size	BSP_GYRO_Get_WhoAmI, .-BSP_GYRO_Get_WhoAmI
 791              		.align	2
 792 0394 AFF30080 		.p2align 4,,15
 792      AFF30080 
 792      AFF30080 
 793              		.global	BSP_GYRO_Check_WhoAmI
 794              		.thumb
 795              		.thumb_func
 796              		.type	BSP_GYRO_Check_WhoAmI, %function
 797              	BSP_GYRO_Check_WhoAmI:
 798              	.LFB135:
 799              		.loc 1 445 0
 800              		.cfi_startproc
 801              		@ args = 0, pretend = 0, frame = 16
 802              		@ frame_needed = 0, uses_anonymous_args = 0
 803 03a0 00B5     		push	{lr}
 804              		.cfi_def_cfa_offset 4
 805              		.cfi_offset 14, -4
 806 03a2 85B0     		sub	sp, sp, #20
 807              		.cfi_def_cfa_offset 24
 808 03a4 0190     		str	r0, [sp, #4]
 809              		.loc 1 447 0
 810 03a6 019B     		ldr	r3, [sp, #4]
 811 03a8 0393     		str	r3, [sp, #12]
 812              		.loc 1 448 0
 813 03aa 0023     		movs	r3, #0
 814 03ac 0293     		str	r3, [sp, #8]
 815              		.loc 1 450 0
 816 03ae 039B     		ldr	r3, [sp, #12]
 817 03b0 002B     		cmp	r3, #0
 818 03b2 01D1     		bne	.L56
 819              		.loc 1 452 0
 820 03b4 0123     		movs	r3, #1
 821 03b6 12E0     		b	.L57
 822              	.L56:
 823              		.loc 1 455 0
 824 03b8 039B     		ldr	r3, [sp, #12]
 825 03ba DB68     		ldr	r3, [r3, #12]
 826 03bc 0293     		str	r3, [sp, #8]
 827              		.loc 1 457 0
 828 03be 029B     		ldr	r3, [sp, #8]
 829 03c0 5B69     		ldr	r3, [r3, #20]
 830 03c2 002B     		cmp	r3, #0
 831 03c4 01D1     		bne	.L58
 832              		.loc 1 459 0
 833 03c6 0123     		movs	r3, #1
 834 03c8 09E0     		b	.L57
 835              	.L58:
 836              		.loc 1 461 0
 837 03ca 029B     		ldr	r3, [sp, #8]
 838 03cc 5B69     		ldr	r3, [r3, #20]
 839 03ce 0398     		ldr	r0, [sp, #12]
 840 03d0 9847     		blx	r3
 841 03d2 0346     		mov	r3, r0
ARM GAS  /tmp/ccyLkxL8.s 			page 16


 842 03d4 012B     		cmp	r3, #1
 843 03d6 01D1     		bne	.L59
 844              		.loc 1 463 0
 845 03d8 0123     		movs	r3, #1
 846 03da 00E0     		b	.L57
 847              	.L59:
 848              		.loc 1 466 0
 849 03dc 0023     		movs	r3, #0
 850              	.L57:
 851              		.loc 1 467 0
 852 03de 1846     		mov	r0, r3
 853 03e0 05B0     		add	sp, sp, #20
 854              		@ sp needed
 855 03e2 5DF804FB 		ldr	pc, [sp], #4
 856              		.cfi_endproc
 857              	.LFE135:
 858              		.size	BSP_GYRO_Check_WhoAmI, .-BSP_GYRO_Check_WhoAmI
 859 03e6 00BF     		.align	2
 860 03e8 AFF30080 		.p2align 4,,15
 860      AFF30080 
 861              		.global	BSP_GYRO_Get_Axes
 862              		.thumb
 863              		.thumb_func
 864              		.type	BSP_GYRO_Get_Axes, %function
 865              	BSP_GYRO_Get_Axes:
 866              	.LFB136:
 867              		.loc 1 479 0
 868              		.cfi_startproc
 869              		@ args = 0, pretend = 0, frame = 16
 870              		@ frame_needed = 0, uses_anonymous_args = 0
 871 03f0 00B5     		push	{lr}
 872              		.cfi_def_cfa_offset 4
 873              		.cfi_offset 14, -4
 874 03f2 85B0     		sub	sp, sp, #20
 875              		.cfi_def_cfa_offset 24
 876 03f4 0190     		str	r0, [sp, #4]
 877 03f6 0091     		str	r1, [sp]
 878              		.loc 1 481 0
 879 03f8 019B     		ldr	r3, [sp, #4]
 880 03fa 0393     		str	r3, [sp, #12]
 881              		.loc 1 482 0
 882 03fc 0023     		movs	r3, #0
 883 03fe 0293     		str	r3, [sp, #8]
 884              		.loc 1 484 0
 885 0400 039B     		ldr	r3, [sp, #12]
 886 0402 002B     		cmp	r3, #0
 887 0404 01D1     		bne	.L61
 888              		.loc 1 486 0
 889 0406 0123     		movs	r3, #1
 890 0408 18E0     		b	.L62
 891              	.L61:
 892              		.loc 1 489 0
 893 040a 039B     		ldr	r3, [sp, #12]
 894 040c DB68     		ldr	r3, [r3, #12]
 895 040e 0293     		str	r3, [sp, #8]
 896              		.loc 1 491 0
 897 0410 009B     		ldr	r3, [sp]
ARM GAS  /tmp/ccyLkxL8.s 			page 17


 898 0412 002B     		cmp	r3, #0
 899 0414 01D1     		bne	.L63
 900              		.loc 1 493 0
 901 0416 0123     		movs	r3, #1
 902 0418 10E0     		b	.L62
 903              	.L63:
 904              		.loc 1 495 0
 905 041a 029B     		ldr	r3, [sp, #8]
 906 041c 9B69     		ldr	r3, [r3, #24]
 907 041e 002B     		cmp	r3, #0
 908 0420 01D1     		bne	.L64
 909              		.loc 1 497 0
 910 0422 0123     		movs	r3, #1
 911 0424 0AE0     		b	.L62
 912              	.L64:
 913              		.loc 1 499 0
 914 0426 029B     		ldr	r3, [sp, #8]
 915 0428 9B69     		ldr	r3, [r3, #24]
 916 042a 0398     		ldr	r0, [sp, #12]
 917 042c 0099     		ldr	r1, [sp]
 918 042e 9847     		blx	r3
 919 0430 0346     		mov	r3, r0
 920 0432 012B     		cmp	r3, #1
 921 0434 01D1     		bne	.L65
 922              		.loc 1 501 0
 923 0436 0123     		movs	r3, #1
 924 0438 00E0     		b	.L62
 925              	.L65:
 926              		.loc 1 504 0
 927 043a 0023     		movs	r3, #0
 928              	.L62:
 929              		.loc 1 505 0
 930 043c 1846     		mov	r0, r3
 931 043e 05B0     		add	sp, sp, #20
 932              		@ sp needed
 933 0440 5DF804FB 		ldr	pc, [sp], #4
 934              		.cfi_endproc
 935              	.LFE136:
 936              		.size	BSP_GYRO_Get_Axes, .-BSP_GYRO_Get_Axes
 937              		.align	2
 938 0444 AFF30080 		.p2align 4,,15
 938      AFF30080 
 938      AFF30080 
 939              		.global	BSP_GYRO_Get_AxesRaw
 940              		.thumb
 941              		.thumb_func
 942              		.type	BSP_GYRO_Get_AxesRaw, %function
 943              	BSP_GYRO_Get_AxesRaw:
 944              	.LFB137:
 945              		.loc 1 517 0
 946              		.cfi_startproc
 947              		@ args = 0, pretend = 0, frame = 16
 948              		@ frame_needed = 0, uses_anonymous_args = 0
 949 0450 00B5     		push	{lr}
 950              		.cfi_def_cfa_offset 4
 951              		.cfi_offset 14, -4
 952 0452 85B0     		sub	sp, sp, #20
ARM GAS  /tmp/ccyLkxL8.s 			page 18


 953              		.cfi_def_cfa_offset 24
 954 0454 0190     		str	r0, [sp, #4]
 955 0456 0091     		str	r1, [sp]
 956              		.loc 1 519 0
 957 0458 019B     		ldr	r3, [sp, #4]
 958 045a 0393     		str	r3, [sp, #12]
 959              		.loc 1 520 0
 960 045c 0023     		movs	r3, #0
 961 045e 0293     		str	r3, [sp, #8]
 962              		.loc 1 522 0
 963 0460 039B     		ldr	r3, [sp, #12]
 964 0462 002B     		cmp	r3, #0
 965 0464 01D1     		bne	.L67
 966              		.loc 1 524 0
 967 0466 0123     		movs	r3, #1
 968 0468 18E0     		b	.L68
 969              	.L67:
 970              		.loc 1 527 0
 971 046a 039B     		ldr	r3, [sp, #12]
 972 046c DB68     		ldr	r3, [r3, #12]
 973 046e 0293     		str	r3, [sp, #8]
 974              		.loc 1 529 0
 975 0470 009B     		ldr	r3, [sp]
 976 0472 002B     		cmp	r3, #0
 977 0474 01D1     		bne	.L69
 978              		.loc 1 531 0
 979 0476 0123     		movs	r3, #1
 980 0478 10E0     		b	.L68
 981              	.L69:
 982              		.loc 1 534 0
 983 047a 029B     		ldr	r3, [sp, #8]
 984 047c DB69     		ldr	r3, [r3, #28]
 985 047e 002B     		cmp	r3, #0
 986 0480 01D1     		bne	.L70
 987              		.loc 1 536 0
 988 0482 0123     		movs	r3, #1
 989 0484 0AE0     		b	.L68
 990              	.L70:
 991              		.loc 1 539 0
 992 0486 029B     		ldr	r3, [sp, #8]
 993 0488 DB69     		ldr	r3, [r3, #28]
 994 048a 0398     		ldr	r0, [sp, #12]
 995 048c 0099     		ldr	r1, [sp]
 996 048e 9847     		blx	r3
 997 0490 0346     		mov	r3, r0
 998 0492 012B     		cmp	r3, #1
 999 0494 01D1     		bne	.L71
 1000              		.loc 1 541 0
 1001 0496 0123     		movs	r3, #1
 1002 0498 00E0     		b	.L68
 1003              	.L71:
 1004              		.loc 1 544 0
 1005 049a 0023     		movs	r3, #0
 1006              	.L68:
 1007              		.loc 1 545 0
 1008 049c 1846     		mov	r0, r3
 1009 049e 05B0     		add	sp, sp, #20
ARM GAS  /tmp/ccyLkxL8.s 			page 19


 1010              		@ sp needed
 1011 04a0 5DF804FB 		ldr	pc, [sp], #4
 1012              		.cfi_endproc
 1013              	.LFE137:
 1014              		.size	BSP_GYRO_Get_AxesRaw, .-BSP_GYRO_Get_AxesRaw
 1015              		.align	2
 1016 04a4 AFF30080 		.p2align 4,,15
 1016      AFF30080 
 1016      AFF30080 
 1017              		.global	BSP_GYRO_Get_Sensitivity
 1018              		.thumb
 1019              		.thumb_func
 1020              		.type	BSP_GYRO_Get_Sensitivity, %function
 1021              	BSP_GYRO_Get_Sensitivity:
 1022              	.LFB138:
 1023              		.loc 1 556 0
 1024              		.cfi_startproc
 1025              		@ args = 0, pretend = 0, frame = 16
 1026              		@ frame_needed = 0, uses_anonymous_args = 0
 1027 04b0 00B5     		push	{lr}
 1028              		.cfi_def_cfa_offset 4
 1029              		.cfi_offset 14, -4
 1030 04b2 85B0     		sub	sp, sp, #20
 1031              		.cfi_def_cfa_offset 24
 1032 04b4 0190     		str	r0, [sp, #4]
 1033 04b6 0091     		str	r1, [sp]
 1034              		.loc 1 558 0
 1035 04b8 019B     		ldr	r3, [sp, #4]
 1036 04ba 0393     		str	r3, [sp, #12]
 1037              		.loc 1 559 0
 1038 04bc 0023     		movs	r3, #0
 1039 04be 0293     		str	r3, [sp, #8]
 1040              		.loc 1 561 0
 1041 04c0 039B     		ldr	r3, [sp, #12]
 1042 04c2 002B     		cmp	r3, #0
 1043 04c4 01D1     		bne	.L73
 1044              		.loc 1 563 0
 1045 04c6 0123     		movs	r3, #1
 1046 04c8 18E0     		b	.L74
 1047              	.L73:
 1048              		.loc 1 566 0
 1049 04ca 039B     		ldr	r3, [sp, #12]
 1050 04cc DB68     		ldr	r3, [r3, #12]
 1051 04ce 0293     		str	r3, [sp, #8]
 1052              		.loc 1 568 0
 1053 04d0 009B     		ldr	r3, [sp]
 1054 04d2 002B     		cmp	r3, #0
 1055 04d4 01D1     		bne	.L75
 1056              		.loc 1 570 0
 1057 04d6 0123     		movs	r3, #1
 1058 04d8 10E0     		b	.L74
 1059              	.L75:
 1060              		.loc 1 572 0
 1061 04da 029B     		ldr	r3, [sp, #8]
 1062 04dc 1B6A     		ldr	r3, [r3, #32]
 1063 04de 002B     		cmp	r3, #0
 1064 04e0 01D1     		bne	.L76
ARM GAS  /tmp/ccyLkxL8.s 			page 20


 1065              		.loc 1 574 0
 1066 04e2 0123     		movs	r3, #1
 1067 04e4 0AE0     		b	.L74
 1068              	.L76:
 1069              		.loc 1 576 0
 1070 04e6 029B     		ldr	r3, [sp, #8]
 1071 04e8 1B6A     		ldr	r3, [r3, #32]
 1072 04ea 0398     		ldr	r0, [sp, #12]
 1073 04ec 0099     		ldr	r1, [sp]
 1074 04ee 9847     		blx	r3
 1075 04f0 0346     		mov	r3, r0
 1076 04f2 012B     		cmp	r3, #1
 1077 04f4 01D1     		bne	.L77
 1078              		.loc 1 578 0
 1079 04f6 0123     		movs	r3, #1
 1080 04f8 00E0     		b	.L74
 1081              	.L77:
 1082              		.loc 1 581 0
 1083 04fa 0023     		movs	r3, #0
 1084              	.L74:
 1085              		.loc 1 582 0
 1086 04fc 1846     		mov	r0, r3
 1087 04fe 05B0     		add	sp, sp, #20
 1088              		@ sp needed
 1089 0500 5DF804FB 		ldr	pc, [sp], #4
 1090              		.cfi_endproc
 1091              	.LFE138:
 1092              		.size	BSP_GYRO_Get_Sensitivity, .-BSP_GYRO_Get_Sensitivity
 1093              		.align	2
 1094 0504 AFF30080 		.p2align 4,,15
 1094      AFF30080 
 1094      AFF30080 
 1095              		.global	BSP_GYRO_Get_ODR
 1096              		.thumb
 1097              		.thumb_func
 1098              		.type	BSP_GYRO_Get_ODR, %function
 1099              	BSP_GYRO_Get_ODR:
 1100              	.LFB139:
 1101              		.loc 1 594 0
 1102              		.cfi_startproc
 1103              		@ args = 0, pretend = 0, frame = 16
 1104              		@ frame_needed = 0, uses_anonymous_args = 0
 1105 0510 00B5     		push	{lr}
 1106              		.cfi_def_cfa_offset 4
 1107              		.cfi_offset 14, -4
 1108 0512 85B0     		sub	sp, sp, #20
 1109              		.cfi_def_cfa_offset 24
 1110 0514 0190     		str	r0, [sp, #4]
 1111 0516 0091     		str	r1, [sp]
 1112              		.loc 1 596 0
 1113 0518 019B     		ldr	r3, [sp, #4]
 1114 051a 0393     		str	r3, [sp, #12]
 1115              		.loc 1 597 0
 1116 051c 0023     		movs	r3, #0
 1117 051e 0293     		str	r3, [sp, #8]
 1118              		.loc 1 599 0
 1119 0520 039B     		ldr	r3, [sp, #12]
ARM GAS  /tmp/ccyLkxL8.s 			page 21


 1120 0522 002B     		cmp	r3, #0
 1121 0524 01D1     		bne	.L79
 1122              		.loc 1 601 0
 1123 0526 0123     		movs	r3, #1
 1124 0528 18E0     		b	.L80
 1125              	.L79:
 1126              		.loc 1 604 0
 1127 052a 039B     		ldr	r3, [sp, #12]
 1128 052c DB68     		ldr	r3, [r3, #12]
 1129 052e 0293     		str	r3, [sp, #8]
 1130              		.loc 1 606 0
 1131 0530 009B     		ldr	r3, [sp]
 1132 0532 002B     		cmp	r3, #0
 1133 0534 01D1     		bne	.L81
 1134              		.loc 1 608 0
 1135 0536 0123     		movs	r3, #1
 1136 0538 10E0     		b	.L80
 1137              	.L81:
 1138              		.loc 1 610 0
 1139 053a 029B     		ldr	r3, [sp, #8]
 1140 053c 5B6A     		ldr	r3, [r3, #36]
 1141 053e 002B     		cmp	r3, #0
 1142 0540 01D1     		bne	.L82
 1143              		.loc 1 612 0
 1144 0542 0123     		movs	r3, #1
 1145 0544 0AE0     		b	.L80
 1146              	.L82:
 1147              		.loc 1 614 0
 1148 0546 029B     		ldr	r3, [sp, #8]
 1149 0548 5B6A     		ldr	r3, [r3, #36]
 1150 054a 0398     		ldr	r0, [sp, #12]
 1151 054c 0099     		ldr	r1, [sp]
 1152 054e 9847     		blx	r3
 1153 0550 0346     		mov	r3, r0
 1154 0552 012B     		cmp	r3, #1
 1155 0554 01D1     		bne	.L83
 1156              		.loc 1 616 0
 1157 0556 0123     		movs	r3, #1
 1158 0558 00E0     		b	.L80
 1159              	.L83:
 1160              		.loc 1 619 0
 1161 055a 0023     		movs	r3, #0
 1162              	.L80:
 1163              		.loc 1 620 0
 1164 055c 1846     		mov	r0, r3
 1165 055e 05B0     		add	sp, sp, #20
 1166              		@ sp needed
 1167 0560 5DF804FB 		ldr	pc, [sp], #4
 1168              		.cfi_endproc
 1169              	.LFE139:
 1170              		.size	BSP_GYRO_Get_ODR, .-BSP_GYRO_Get_ODR
 1171              		.align	2
 1172 0564 AFF30080 		.p2align 4,,15
 1172      AFF30080 
 1172      AFF30080 
 1173              		.global	BSP_GYRO_Set_ODR
 1174              		.thumb
ARM GAS  /tmp/ccyLkxL8.s 			page 22


 1175              		.thumb_func
 1176              		.type	BSP_GYRO_Set_ODR, %function
 1177              	BSP_GYRO_Set_ODR:
 1178              	.LFB140:
 1179              		.loc 1 632 0
 1180              		.cfi_startproc
 1181              		@ args = 0, pretend = 0, frame = 16
 1182              		@ frame_needed = 0, uses_anonymous_args = 0
 1183 0570 00B5     		push	{lr}
 1184              		.cfi_def_cfa_offset 4
 1185              		.cfi_offset 14, -4
 1186 0572 85B0     		sub	sp, sp, #20
 1187              		.cfi_def_cfa_offset 24
 1188 0574 0190     		str	r0, [sp, #4]
 1189 0576 0B46     		mov	r3, r1
 1190 0578 8DF80330 		strb	r3, [sp, #3]
 1191              		.loc 1 634 0
 1192 057c 019B     		ldr	r3, [sp, #4]
 1193 057e 0393     		str	r3, [sp, #12]
 1194              		.loc 1 635 0
 1195 0580 0023     		movs	r3, #0
 1196 0582 0293     		str	r3, [sp, #8]
 1197              		.loc 1 637 0
 1198 0584 039B     		ldr	r3, [sp, #12]
 1199 0586 002B     		cmp	r3, #0
 1200 0588 01D1     		bne	.L85
 1201              		.loc 1 639 0
 1202 058a 0123     		movs	r3, #1
 1203 058c 15E0     		b	.L86
 1204              	.L85:
 1205              		.loc 1 642 0
 1206 058e 039B     		ldr	r3, [sp, #12]
 1207 0590 DB68     		ldr	r3, [r3, #12]
 1208 0592 0293     		str	r3, [sp, #8]
 1209              		.loc 1 644 0
 1210 0594 029B     		ldr	r3, [sp, #8]
 1211 0596 9B6A     		ldr	r3, [r3, #40]
 1212 0598 002B     		cmp	r3, #0
 1213 059a 01D1     		bne	.L87
 1214              		.loc 1 646 0
 1215 059c 0123     		movs	r3, #1
 1216 059e 0CE0     		b	.L86
 1217              	.L87:
 1218              		.loc 1 648 0
 1219 05a0 029B     		ldr	r3, [sp, #8]
 1220 05a2 9B6A     		ldr	r3, [r3, #40]
 1221 05a4 9DF80320 		ldrb	r2, [sp, #3]	@ zero_extendqisi2
 1222 05a8 0398     		ldr	r0, [sp, #12]
 1223 05aa 1146     		mov	r1, r2
 1224 05ac 9847     		blx	r3
 1225 05ae 0346     		mov	r3, r0
 1226 05b0 012B     		cmp	r3, #1
 1227 05b2 01D1     		bne	.L88
 1228              		.loc 1 650 0
 1229 05b4 0123     		movs	r3, #1
 1230 05b6 00E0     		b	.L86
 1231              	.L88:
ARM GAS  /tmp/ccyLkxL8.s 			page 23


 1232              		.loc 1 653 0
 1233 05b8 0023     		movs	r3, #0
 1234              	.L86:
 1235              		.loc 1 654 0
 1236 05ba 1846     		mov	r0, r3
 1237 05bc 05B0     		add	sp, sp, #20
 1238              		@ sp needed
 1239 05be 5DF804FB 		ldr	pc, [sp], #4
 1240              		.cfi_endproc
 1241              	.LFE140:
 1242              		.size	BSP_GYRO_Set_ODR, .-BSP_GYRO_Set_ODR
 1243 05c2 00BF     		.align	2
 1244 05c4 AFF30080 		.p2align 4,,15
 1244      AFF30080 
 1244      AFF30080 
 1245              		.global	BSP_GYRO_Set_ODR_Value
 1246              		.thumb
 1247              		.thumb_func
 1248              		.type	BSP_GYRO_Set_ODR_Value, %function
 1249              	BSP_GYRO_Set_ODR_Value:
 1250              	.LFB141:
 1251              		.loc 1 666 0
 1252              		.cfi_startproc
 1253              		@ args = 0, pretend = 0, frame = 16
 1254              		@ frame_needed = 0, uses_anonymous_args = 0
 1255 05d0 00B5     		push	{lr}
 1256              		.cfi_def_cfa_offset 4
 1257              		.cfi_offset 14, -4
 1258 05d2 85B0     		sub	sp, sp, #20
 1259              		.cfi_def_cfa_offset 24
 1260 05d4 0190     		str	r0, [sp, #4]
 1261 05d6 0091     		str	r1, [sp]	@ float
 1262              		.loc 1 668 0
 1263 05d8 019B     		ldr	r3, [sp, #4]
 1264 05da 0393     		str	r3, [sp, #12]
 1265              		.loc 1 669 0
 1266 05dc 0023     		movs	r3, #0
 1267 05de 0293     		str	r3, [sp, #8]
 1268              		.loc 1 671 0
 1269 05e0 039B     		ldr	r3, [sp, #12]
 1270 05e2 002B     		cmp	r3, #0
 1271 05e4 01D1     		bne	.L90
 1272              		.loc 1 673 0
 1273 05e6 0123     		movs	r3, #1
 1274 05e8 13E0     		b	.L91
 1275              	.L90:
 1276              		.loc 1 676 0
 1277 05ea 039B     		ldr	r3, [sp, #12]
 1278 05ec DB68     		ldr	r3, [r3, #12]
 1279 05ee 0293     		str	r3, [sp, #8]
 1280              		.loc 1 678 0
 1281 05f0 029B     		ldr	r3, [sp, #8]
 1282 05f2 DB6A     		ldr	r3, [r3, #44]
 1283 05f4 002B     		cmp	r3, #0
 1284 05f6 01D1     		bne	.L92
 1285              		.loc 1 680 0
 1286 05f8 0123     		movs	r3, #1
ARM GAS  /tmp/ccyLkxL8.s 			page 24


 1287 05fa 0AE0     		b	.L91
 1288              	.L92:
 1289              		.loc 1 682 0
 1290 05fc 029B     		ldr	r3, [sp, #8]
 1291 05fe DB6A     		ldr	r3, [r3, #44]
 1292 0600 0398     		ldr	r0, [sp, #12]
 1293 0602 0099     		ldr	r1, [sp]	@ float
 1294 0604 9847     		blx	r3
 1295 0606 0346     		mov	r3, r0
 1296 0608 012B     		cmp	r3, #1
 1297 060a 01D1     		bne	.L93
 1298              		.loc 1 684 0
 1299 060c 0123     		movs	r3, #1
 1300 060e 00E0     		b	.L91
 1301              	.L93:
 1302              		.loc 1 687 0
 1303 0610 0023     		movs	r3, #0
 1304              	.L91:
 1305              		.loc 1 688 0
 1306 0612 1846     		mov	r0, r3
 1307 0614 05B0     		add	sp, sp, #20
 1308              		@ sp needed
 1309 0616 5DF804FB 		ldr	pc, [sp], #4
 1310              		.cfi_endproc
 1311              	.LFE141:
 1312              		.size	BSP_GYRO_Set_ODR_Value, .-BSP_GYRO_Set_ODR_Value
 1313 061a 00BF     		.align	2
 1314 061c AFF30080 		.p2align 4,,15
 1315              		.global	BSP_GYRO_Get_FS
 1316              		.thumb
 1317              		.thumb_func
 1318              		.type	BSP_GYRO_Get_FS, %function
 1319              	BSP_GYRO_Get_FS:
 1320              	.LFB142:
 1321              		.loc 1 700 0
 1322              		.cfi_startproc
 1323              		@ args = 0, pretend = 0, frame = 16
 1324              		@ frame_needed = 0, uses_anonymous_args = 0
 1325 0620 00B5     		push	{lr}
 1326              		.cfi_def_cfa_offset 4
 1327              		.cfi_offset 14, -4
 1328 0622 85B0     		sub	sp, sp, #20
 1329              		.cfi_def_cfa_offset 24
 1330 0624 0190     		str	r0, [sp, #4]
 1331 0626 0091     		str	r1, [sp]
 1332              		.loc 1 702 0
 1333 0628 019B     		ldr	r3, [sp, #4]
 1334 062a 0393     		str	r3, [sp, #12]
 1335              		.loc 1 703 0
 1336 062c 0023     		movs	r3, #0
 1337 062e 0293     		str	r3, [sp, #8]
 1338              		.loc 1 705 0
 1339 0630 039B     		ldr	r3, [sp, #12]
 1340 0632 002B     		cmp	r3, #0
 1341 0634 01D1     		bne	.L95
 1342              		.loc 1 707 0
 1343 0636 0123     		movs	r3, #1
ARM GAS  /tmp/ccyLkxL8.s 			page 25


 1344 0638 18E0     		b	.L96
 1345              	.L95:
 1346              		.loc 1 710 0
 1347 063a 039B     		ldr	r3, [sp, #12]
 1348 063c DB68     		ldr	r3, [r3, #12]
 1349 063e 0293     		str	r3, [sp, #8]
 1350              		.loc 1 712 0
 1351 0640 009B     		ldr	r3, [sp]
 1352 0642 002B     		cmp	r3, #0
 1353 0644 01D1     		bne	.L97
 1354              		.loc 1 714 0
 1355 0646 0123     		movs	r3, #1
 1356 0648 10E0     		b	.L96
 1357              	.L97:
 1358              		.loc 1 716 0
 1359 064a 029B     		ldr	r3, [sp, #8]
 1360 064c 1B6B     		ldr	r3, [r3, #48]
 1361 064e 002B     		cmp	r3, #0
 1362 0650 01D1     		bne	.L98
 1363              		.loc 1 718 0
 1364 0652 0123     		movs	r3, #1
 1365 0654 0AE0     		b	.L96
 1366              	.L98:
 1367              		.loc 1 720 0
 1368 0656 029B     		ldr	r3, [sp, #8]
 1369 0658 1B6B     		ldr	r3, [r3, #48]
 1370 065a 0398     		ldr	r0, [sp, #12]
 1371 065c 0099     		ldr	r1, [sp]
 1372 065e 9847     		blx	r3
 1373 0660 0346     		mov	r3, r0
 1374 0662 012B     		cmp	r3, #1
 1375 0664 01D1     		bne	.L99
 1376              		.loc 1 722 0
 1377 0666 0123     		movs	r3, #1
 1378 0668 00E0     		b	.L96
 1379              	.L99:
 1380              		.loc 1 725 0
 1381 066a 0023     		movs	r3, #0
 1382              	.L96:
 1383              		.loc 1 726 0
 1384 066c 1846     		mov	r0, r3
 1385 066e 05B0     		add	sp, sp, #20
 1386              		@ sp needed
 1387 0670 5DF804FB 		ldr	pc, [sp], #4
 1388              		.cfi_endproc
 1389              	.LFE142:
 1390              		.size	BSP_GYRO_Get_FS, .-BSP_GYRO_Get_FS
 1391              		.align	2
 1392 0674 AFF30080 		.p2align 4,,15
 1392      AFF30080 
 1392      AFF30080 
 1393              		.global	BSP_GYRO_Set_FS
 1394              		.thumb
 1395              		.thumb_func
 1396              		.type	BSP_GYRO_Set_FS, %function
 1397              	BSP_GYRO_Set_FS:
 1398              	.LFB143:
ARM GAS  /tmp/ccyLkxL8.s 			page 26


 1399              		.loc 1 738 0
 1400              		.cfi_startproc
 1401              		@ args = 0, pretend = 0, frame = 16
 1402              		@ frame_needed = 0, uses_anonymous_args = 0
 1403 0680 00B5     		push	{lr}
 1404              		.cfi_def_cfa_offset 4
 1405              		.cfi_offset 14, -4
 1406 0682 85B0     		sub	sp, sp, #20
 1407              		.cfi_def_cfa_offset 24
 1408 0684 0190     		str	r0, [sp, #4]
 1409 0686 0B46     		mov	r3, r1
 1410 0688 8DF80330 		strb	r3, [sp, #3]
 1411              		.loc 1 740 0
 1412 068c 019B     		ldr	r3, [sp, #4]
 1413 068e 0393     		str	r3, [sp, #12]
 1414              		.loc 1 741 0
 1415 0690 0023     		movs	r3, #0
 1416 0692 0293     		str	r3, [sp, #8]
 1417              		.loc 1 743 0
 1418 0694 039B     		ldr	r3, [sp, #12]
 1419 0696 002B     		cmp	r3, #0
 1420 0698 01D1     		bne	.L101
 1421              		.loc 1 745 0
 1422 069a 0123     		movs	r3, #1
 1423 069c 15E0     		b	.L102
 1424              	.L101:
 1425              		.loc 1 748 0
 1426 069e 039B     		ldr	r3, [sp, #12]
 1427 06a0 DB68     		ldr	r3, [r3, #12]
 1428 06a2 0293     		str	r3, [sp, #8]
 1429              		.loc 1 750 0
 1430 06a4 029B     		ldr	r3, [sp, #8]
 1431 06a6 5B6B     		ldr	r3, [r3, #52]
 1432 06a8 002B     		cmp	r3, #0
 1433 06aa 01D1     		bne	.L103
 1434              		.loc 1 752 0
 1435 06ac 0123     		movs	r3, #1
 1436 06ae 0CE0     		b	.L102
 1437              	.L103:
 1438              		.loc 1 754 0
 1439 06b0 029B     		ldr	r3, [sp, #8]
 1440 06b2 5B6B     		ldr	r3, [r3, #52]
 1441 06b4 9DF80320 		ldrb	r2, [sp, #3]	@ zero_extendqisi2
 1442 06b8 0398     		ldr	r0, [sp, #12]
 1443 06ba 1146     		mov	r1, r2
 1444 06bc 9847     		blx	r3
 1445 06be 0346     		mov	r3, r0
 1446 06c0 012B     		cmp	r3, #1
 1447 06c2 01D1     		bne	.L104
 1448              		.loc 1 756 0
 1449 06c4 0123     		movs	r3, #1
 1450 06c6 00E0     		b	.L102
 1451              	.L104:
 1452              		.loc 1 759 0
 1453 06c8 0023     		movs	r3, #0
 1454              	.L102:
 1455              		.loc 1 760 0
ARM GAS  /tmp/ccyLkxL8.s 			page 27


 1456 06ca 1846     		mov	r0, r3
 1457 06cc 05B0     		add	sp, sp, #20
 1458              		@ sp needed
 1459 06ce 5DF804FB 		ldr	pc, [sp], #4
 1460              		.cfi_endproc
 1461              	.LFE143:
 1462              		.size	BSP_GYRO_Set_FS, .-BSP_GYRO_Set_FS
 1463 06d2 00BF     		.align	2
 1464 06d4 AFF30080 		.p2align 4,,15
 1464      AFF30080 
 1464      AFF30080 
 1465              		.global	BSP_GYRO_Set_FS_Value
 1466              		.thumb
 1467              		.thumb_func
 1468              		.type	BSP_GYRO_Set_FS_Value, %function
 1469              	BSP_GYRO_Set_FS_Value:
 1470              	.LFB144:
 1471              		.loc 1 772 0
 1472              		.cfi_startproc
 1473              		@ args = 0, pretend = 0, frame = 16
 1474              		@ frame_needed = 0, uses_anonymous_args = 0
 1475 06e0 00B5     		push	{lr}
 1476              		.cfi_def_cfa_offset 4
 1477              		.cfi_offset 14, -4
 1478 06e2 85B0     		sub	sp, sp, #20
 1479              		.cfi_def_cfa_offset 24
 1480 06e4 0190     		str	r0, [sp, #4]
 1481 06e6 0091     		str	r1, [sp]	@ float
 1482              		.loc 1 774 0
 1483 06e8 019B     		ldr	r3, [sp, #4]
 1484 06ea 0393     		str	r3, [sp, #12]
 1485              		.loc 1 775 0
 1486 06ec 0023     		movs	r3, #0
 1487 06ee 0293     		str	r3, [sp, #8]
 1488              		.loc 1 777 0
 1489 06f0 039B     		ldr	r3, [sp, #12]
 1490 06f2 002B     		cmp	r3, #0
 1491 06f4 01D1     		bne	.L106
 1492              		.loc 1 779 0
 1493 06f6 0123     		movs	r3, #1
 1494 06f8 13E0     		b	.L107
 1495              	.L106:
 1496              		.loc 1 782 0
 1497 06fa 039B     		ldr	r3, [sp, #12]
 1498 06fc DB68     		ldr	r3, [r3, #12]
 1499 06fe 0293     		str	r3, [sp, #8]
 1500              		.loc 1 784 0
 1501 0700 029B     		ldr	r3, [sp, #8]
 1502 0702 9B6B     		ldr	r3, [r3, #56]
 1503 0704 002B     		cmp	r3, #0
 1504 0706 01D1     		bne	.L108
 1505              		.loc 1 786 0
 1506 0708 0123     		movs	r3, #1
 1507 070a 0AE0     		b	.L107
 1508              	.L108:
 1509              		.loc 1 788 0
 1510 070c 029B     		ldr	r3, [sp, #8]
ARM GAS  /tmp/ccyLkxL8.s 			page 28


 1511 070e 9B6B     		ldr	r3, [r3, #56]
 1512 0710 0398     		ldr	r0, [sp, #12]
 1513 0712 0099     		ldr	r1, [sp]	@ float
 1514 0714 9847     		blx	r3
 1515 0716 0346     		mov	r3, r0
 1516 0718 012B     		cmp	r3, #1
 1517 071a 01D1     		bne	.L109
 1518              		.loc 1 790 0
 1519 071c 0123     		movs	r3, #1
 1520 071e 00E0     		b	.L107
 1521              	.L109:
 1522              		.loc 1 793 0
 1523 0720 0023     		movs	r3, #0
 1524              	.L107:
 1525              		.loc 1 794 0
 1526 0722 1846     		mov	r0, r3
 1527 0724 05B0     		add	sp, sp, #20
 1528              		@ sp needed
 1529 0726 5DF804FB 		ldr	pc, [sp], #4
 1530              		.cfi_endproc
 1531              	.LFE144:
 1532              		.size	BSP_GYRO_Set_FS_Value, .-BSP_GYRO_Set_FS_Value
 1533 072a 00BF     		.align	2
 1534 072c AFF30080 		.p2align 4,,15
 1535              		.global	BSP_GYRO_Get_Axes_Status
 1536              		.thumb
 1537              		.thumb_func
 1538              		.type	BSP_GYRO_Get_Axes_Status, %function
 1539              	BSP_GYRO_Get_Axes_Status:
 1540              	.LFB145:
 1541              		.loc 1 806 0
 1542              		.cfi_startproc
 1543              		@ args = 0, pretend = 0, frame = 16
 1544              		@ frame_needed = 0, uses_anonymous_args = 0
 1545 0730 00B5     		push	{lr}
 1546              		.cfi_def_cfa_offset 4
 1547              		.cfi_offset 14, -4
 1548 0732 85B0     		sub	sp, sp, #20
 1549              		.cfi_def_cfa_offset 24
 1550 0734 0190     		str	r0, [sp, #4]
 1551 0736 0091     		str	r1, [sp]
 1552              		.loc 1 808 0
 1553 0738 019B     		ldr	r3, [sp, #4]
 1554 073a 0393     		str	r3, [sp, #12]
 1555              		.loc 1 809 0
 1556 073c 0023     		movs	r3, #0
 1557 073e 0293     		str	r3, [sp, #8]
 1558              		.loc 1 811 0
 1559 0740 039B     		ldr	r3, [sp, #12]
 1560 0742 002B     		cmp	r3, #0
 1561 0744 01D1     		bne	.L111
 1562              		.loc 1 813 0
 1563 0746 0123     		movs	r3, #1
 1564 0748 18E0     		b	.L112
 1565              	.L111:
 1566              		.loc 1 816 0
 1567 074a 039B     		ldr	r3, [sp, #12]
ARM GAS  /tmp/ccyLkxL8.s 			page 29


 1568 074c DB68     		ldr	r3, [r3, #12]
 1569 074e 0293     		str	r3, [sp, #8]
 1570              		.loc 1 818 0
 1571 0750 009B     		ldr	r3, [sp]
 1572 0752 002B     		cmp	r3, #0
 1573 0754 01D1     		bne	.L113
 1574              		.loc 1 820 0
 1575 0756 0123     		movs	r3, #1
 1576 0758 10E0     		b	.L112
 1577              	.L113:
 1578              		.loc 1 822 0
 1579 075a 029B     		ldr	r3, [sp, #8]
 1580 075c DB6B     		ldr	r3, [r3, #60]
 1581 075e 002B     		cmp	r3, #0
 1582 0760 01D1     		bne	.L114
 1583              		.loc 1 824 0
 1584 0762 0123     		movs	r3, #1
 1585 0764 0AE0     		b	.L112
 1586              	.L114:
 1587              		.loc 1 826 0
 1588 0766 029B     		ldr	r3, [sp, #8]
 1589 0768 DB6B     		ldr	r3, [r3, #60]
 1590 076a 0398     		ldr	r0, [sp, #12]
 1591 076c 0099     		ldr	r1, [sp]
 1592 076e 9847     		blx	r3
 1593 0770 0346     		mov	r3, r0
 1594 0772 012B     		cmp	r3, #1
 1595 0774 01D1     		bne	.L115
 1596              		.loc 1 828 0
 1597 0776 0123     		movs	r3, #1
 1598 0778 00E0     		b	.L112
 1599              	.L115:
 1600              		.loc 1 831 0
 1601 077a 0023     		movs	r3, #0
 1602              	.L112:
 1603              		.loc 1 832 0
 1604 077c 1846     		mov	r0, r3
 1605 077e 05B0     		add	sp, sp, #20
 1606              		@ sp needed
 1607 0780 5DF804FB 		ldr	pc, [sp], #4
 1608              		.cfi_endproc
 1609              	.LFE145:
 1610              		.size	BSP_GYRO_Get_Axes_Status, .-BSP_GYRO_Get_Axes_Status
 1611              		.align	2
 1612 0784 AFF30080 		.p2align 4,,15
 1612      AFF30080 
 1612      AFF30080 
 1613              		.global	BSP_GYRO_Read_Reg
 1614              		.thumb
 1615              		.thumb_func
 1616              		.type	BSP_GYRO_Read_Reg, %function
 1617              	BSP_GYRO_Read_Reg:
 1618              	.LFB146:
 1619              		.loc 1 844 0
 1620              		.cfi_startproc
 1621              		@ args = 0, pretend = 0, frame = 24
 1622              		@ frame_needed = 0, uses_anonymous_args = 0
ARM GAS  /tmp/ccyLkxL8.s 			page 30


 1623 0790 00B5     		push	{lr}
 1624              		.cfi_def_cfa_offset 4
 1625              		.cfi_offset 14, -4
 1626 0792 87B0     		sub	sp, sp, #28
 1627              		.cfi_def_cfa_offset 32
 1628 0794 0390     		str	r0, [sp, #12]
 1629 0796 0B46     		mov	r3, r1
 1630 0798 0192     		str	r2, [sp, #4]
 1631 079a 8DF80B30 		strb	r3, [sp, #11]
 1632              		.loc 1 846 0
 1633 079e 039B     		ldr	r3, [sp, #12]
 1634 07a0 0593     		str	r3, [sp, #20]
 1635              		.loc 1 847 0
 1636 07a2 0023     		movs	r3, #0
 1637 07a4 0493     		str	r3, [sp, #16]
 1638              		.loc 1 849 0
 1639 07a6 059B     		ldr	r3, [sp, #20]
 1640 07a8 002B     		cmp	r3, #0
 1641 07aa 01D1     		bne	.L117
 1642              		.loc 1 851 0
 1643 07ac 0123     		movs	r3, #1
 1644 07ae 1BE0     		b	.L118
 1645              	.L117:
 1646              		.loc 1 854 0
 1647 07b0 059B     		ldr	r3, [sp, #20]
 1648 07b2 DB68     		ldr	r3, [r3, #12]
 1649 07b4 0493     		str	r3, [sp, #16]
 1650              		.loc 1 856 0
 1651 07b6 019B     		ldr	r3, [sp, #4]
 1652 07b8 002B     		cmp	r3, #0
 1653 07ba 01D1     		bne	.L119
 1654              		.loc 1 858 0
 1655 07bc 0123     		movs	r3, #1
 1656 07be 13E0     		b	.L118
 1657              	.L119:
 1658              		.loc 1 861 0
 1659 07c0 049B     		ldr	r3, [sp, #16]
 1660 07c2 5B6C     		ldr	r3, [r3, #68]
 1661 07c4 002B     		cmp	r3, #0
 1662 07c6 01D1     		bne	.L120
 1663              		.loc 1 863 0
 1664 07c8 0123     		movs	r3, #1
 1665 07ca 0DE0     		b	.L118
 1666              	.L120:
 1667              		.loc 1 866 0
 1668 07cc 049B     		ldr	r3, [sp, #16]
 1669 07ce 5B6C     		ldr	r3, [r3, #68]
 1670 07d0 9DF80B20 		ldrb	r2, [sp, #11]	@ zero_extendqisi2
 1671 07d4 0598     		ldr	r0, [sp, #20]
 1672 07d6 1146     		mov	r1, r2
 1673 07d8 019A     		ldr	r2, [sp, #4]
 1674 07da 9847     		blx	r3
 1675 07dc 0346     		mov	r3, r0
 1676 07de 012B     		cmp	r3, #1
 1677 07e0 01D1     		bne	.L121
 1678              		.loc 1 868 0
 1679 07e2 0123     		movs	r3, #1
ARM GAS  /tmp/ccyLkxL8.s 			page 31


 1680 07e4 00E0     		b	.L118
 1681              	.L121:
 1682              		.loc 1 871 0
 1683 07e6 0023     		movs	r3, #0
 1684              	.L118:
 1685              		.loc 1 872 0
 1686 07e8 1846     		mov	r0, r3
 1687 07ea 07B0     		add	sp, sp, #28
 1688              		@ sp needed
 1689 07ec 5DF804FB 		ldr	pc, [sp], #4
 1690              		.cfi_endproc
 1691              	.LFE146:
 1692              		.size	BSP_GYRO_Read_Reg, .-BSP_GYRO_Read_Reg
 1693              		.align	2
 1694              		.p2align 4,,15
 1695              		.global	BSP_GYRO_Write_Reg
 1696              		.thumb
 1697              		.thumb_func
 1698              		.type	BSP_GYRO_Write_Reg, %function
 1699              	BSP_GYRO_Write_Reg:
 1700              	.LFB147:
 1701              		.loc 1 884 0
 1702              		.cfi_startproc
 1703              		@ args = 0, pretend = 0, frame = 16
 1704              		@ frame_needed = 0, uses_anonymous_args = 0
 1705 07f0 00B5     		push	{lr}
 1706              		.cfi_def_cfa_offset 4
 1707              		.cfi_offset 14, -4
 1708 07f2 85B0     		sub	sp, sp, #20
 1709              		.cfi_def_cfa_offset 24
 1710 07f4 0190     		str	r0, [sp, #4]
 1711 07f6 1346     		mov	r3, r2
 1712 07f8 0A46     		mov	r2, r1
 1713 07fa 8DF80320 		strb	r2, [sp, #3]
 1714 07fe 8DF80230 		strb	r3, [sp, #2]
 1715              		.loc 1 886 0
 1716 0802 019B     		ldr	r3, [sp, #4]
 1717 0804 0393     		str	r3, [sp, #12]
 1718              		.loc 1 887 0
 1719 0806 0023     		movs	r3, #0
 1720 0808 0293     		str	r3, [sp, #8]
 1721              		.loc 1 889 0
 1722 080a 039B     		ldr	r3, [sp, #12]
 1723 080c 002B     		cmp	r3, #0
 1724 080e 01D1     		bne	.L123
 1725              		.loc 1 891 0
 1726 0810 0123     		movs	r3, #1
 1727 0812 16E0     		b	.L124
 1728              	.L123:
 1729              		.loc 1 894 0
 1730 0814 039B     		ldr	r3, [sp, #12]
 1731 0816 DB68     		ldr	r3, [r3, #12]
 1732 0818 0293     		str	r3, [sp, #8]
 1733              		.loc 1 896 0
 1734 081a 029B     		ldr	r3, [sp, #8]
 1735 081c 9B6C     		ldr	r3, [r3, #72]
 1736 081e 002B     		cmp	r3, #0
ARM GAS  /tmp/ccyLkxL8.s 			page 32


 1737 0820 01D1     		bne	.L125
 1738              		.loc 1 898 0
 1739 0822 0123     		movs	r3, #1
 1740 0824 0DE0     		b	.L124
 1741              	.L125:
 1742              		.loc 1 901 0
 1743 0826 029B     		ldr	r3, [sp, #8]
 1744 0828 9B6C     		ldr	r3, [r3, #72]
 1745 082a 9DF80310 		ldrb	r1, [sp, #3]	@ zero_extendqisi2
 1746 082e 9DF80220 		ldrb	r2, [sp, #2]	@ zero_extendqisi2
 1747 0832 0398     		ldr	r0, [sp, #12]
 1748 0834 9847     		blx	r3
 1749 0836 0346     		mov	r3, r0
 1750 0838 012B     		cmp	r3, #1
 1751 083a 01D1     		bne	.L126
 1752              		.loc 1 903 0
 1753 083c 0123     		movs	r3, #1
 1754 083e 00E0     		b	.L124
 1755              	.L126:
 1756              		.loc 1 906 0
 1757 0840 0023     		movs	r3, #0
 1758              	.L124:
 1759              		.loc 1 907 0
 1760 0842 1846     		mov	r0, r3
 1761 0844 05B0     		add	sp, sp, #20
 1762              		@ sp needed
 1763 0846 5DF804FB 		ldr	pc, [sp], #4
 1764              		.cfi_endproc
 1765              	.LFE147:
 1766              		.size	BSP_GYRO_Write_Reg, .-BSP_GYRO_Write_Reg
 1767 084a 00BF     		.align	2
 1768 084c AFF30080 		.p2align 4,,15
 1769              		.global	BSP_GYRO_Get_DRDY_Status
 1770              		.thumb
 1771              		.thumb_func
 1772              		.type	BSP_GYRO_Get_DRDY_Status, %function
 1773              	BSP_GYRO_Get_DRDY_Status:
 1774              	.LFB148:
 1775              		.loc 1 918 0
 1776              		.cfi_startproc
 1777              		@ args = 0, pretend = 0, frame = 16
 1778              		@ frame_needed = 0, uses_anonymous_args = 0
 1779 0850 00B5     		push	{lr}
 1780              		.cfi_def_cfa_offset 4
 1781              		.cfi_offset 14, -4
 1782 0852 85B0     		sub	sp, sp, #20
 1783              		.cfi_def_cfa_offset 24
 1784 0854 0190     		str	r0, [sp, #4]
 1785 0856 0091     		str	r1, [sp]
 1786              		.loc 1 920 0
 1787 0858 019B     		ldr	r3, [sp, #4]
 1788 085a 0393     		str	r3, [sp, #12]
 1789              		.loc 1 921 0
 1790 085c 0023     		movs	r3, #0
 1791 085e 0293     		str	r3, [sp, #8]
 1792              		.loc 1 923 0
 1793 0860 039B     		ldr	r3, [sp, #12]
ARM GAS  /tmp/ccyLkxL8.s 			page 33


 1794 0862 002B     		cmp	r3, #0
 1795 0864 01D1     		bne	.L128
 1796              		.loc 1 925 0
 1797 0866 0123     		movs	r3, #1
 1798 0868 13E0     		b	.L129
 1799              	.L128:
 1800              		.loc 1 928 0
 1801 086a 039B     		ldr	r3, [sp, #12]
 1802 086c DB68     		ldr	r3, [r3, #12]
 1803 086e 0293     		str	r3, [sp, #8]
 1804              		.loc 1 930 0
 1805 0870 029B     		ldr	r3, [sp, #8]
 1806 0872 DB6C     		ldr	r3, [r3, #76]
 1807 0874 002B     		cmp	r3, #0
 1808 0876 01D1     		bne	.L130
 1809              		.loc 1 932 0
 1810 0878 0123     		movs	r3, #1
 1811 087a 0AE0     		b	.L129
 1812              	.L130:
 1813              		.loc 1 935 0
 1814 087c 029B     		ldr	r3, [sp, #8]
 1815 087e DB6C     		ldr	r3, [r3, #76]
 1816 0880 0398     		ldr	r0, [sp, #12]
 1817 0882 0099     		ldr	r1, [sp]
 1818 0884 9847     		blx	r3
 1819 0886 0346     		mov	r3, r0
 1820 0888 012B     		cmp	r3, #1
 1821 088a 01D1     		bne	.L131
 1822              		.loc 1 937 0
 1823 088c 0123     		movs	r3, #1
 1824 088e 00E0     		b	.L129
 1825              	.L131:
 1826              		.loc 1 940 0
 1827 0890 0023     		movs	r3, #0
 1828              	.L129:
 1829              		.loc 1 941 0
 1830 0892 1846     		mov	r0, r3
 1831 0894 05B0     		add	sp, sp, #20
 1832              		@ sp needed
 1833 0896 5DF804FB 		ldr	pc, [sp], #4
 1834              		.cfi_endproc
 1835              	.LFE148:
 1836              		.size	BSP_GYRO_Get_DRDY_Status, .-BSP_GYRO_Get_DRDY_Status
 1837 089a 00BF     		.align	2
 1838 089c AFF30080 		.p2align 4,,15
 1839              		.global	BSP_GYRO_Set_Axes_Status
 1840              		.thumb
 1841              		.thumb_func
 1842              		.type	BSP_GYRO_Set_Axes_Status, %function
 1843              	BSP_GYRO_Set_Axes_Status:
 1844              	.LFB149:
 1845              		.loc 1 952 0
 1846              		.cfi_startproc
 1847              		@ args = 0, pretend = 0, frame = 16
 1848              		@ frame_needed = 0, uses_anonymous_args = 0
 1849 08a0 00B5     		push	{lr}
 1850              		.cfi_def_cfa_offset 4
ARM GAS  /tmp/ccyLkxL8.s 			page 34


 1851              		.cfi_offset 14, -4
 1852 08a2 85B0     		sub	sp, sp, #20
 1853              		.cfi_def_cfa_offset 24
 1854 08a4 0190     		str	r0, [sp, #4]
 1855 08a6 0091     		str	r1, [sp]
 1856              		.loc 1 954 0
 1857 08a8 019B     		ldr	r3, [sp, #4]
 1858 08aa 0393     		str	r3, [sp, #12]
 1859              		.loc 1 955 0
 1860 08ac 0023     		movs	r3, #0
 1861 08ae 0293     		str	r3, [sp, #8]
 1862              		.loc 1 957 0
 1863 08b0 039B     		ldr	r3, [sp, #12]
 1864 08b2 002B     		cmp	r3, #0
 1865 08b4 01D1     		bne	.L133
 1866              		.loc 1 959 0
 1867 08b6 0123     		movs	r3, #1
 1868 08b8 18E0     		b	.L134
 1869              	.L133:
 1870              		.loc 1 962 0
 1871 08ba 039B     		ldr	r3, [sp, #12]
 1872 08bc DB68     		ldr	r3, [r3, #12]
 1873 08be 0293     		str	r3, [sp, #8]
 1874              		.loc 1 964 0
 1875 08c0 009B     		ldr	r3, [sp]
 1876 08c2 002B     		cmp	r3, #0
 1877 08c4 01D1     		bne	.L135
 1878              		.loc 1 966 0
 1879 08c6 0123     		movs	r3, #1
 1880 08c8 10E0     		b	.L134
 1881              	.L135:
 1882              		.loc 1 968 0
 1883 08ca 029B     		ldr	r3, [sp, #8]
 1884 08cc 1B6C     		ldr	r3, [r3, #64]
 1885 08ce 002B     		cmp	r3, #0
 1886 08d0 01D1     		bne	.L136
 1887              		.loc 1 970 0
 1888 08d2 0123     		movs	r3, #1
 1889 08d4 0AE0     		b	.L134
 1890              	.L136:
 1891              		.loc 1 972 0
 1892 08d6 029B     		ldr	r3, [sp, #8]
 1893 08d8 1B6C     		ldr	r3, [r3, #64]
 1894 08da 0398     		ldr	r0, [sp, #12]
 1895 08dc 0099     		ldr	r1, [sp]
 1896 08de 9847     		blx	r3
 1897 08e0 0346     		mov	r3, r0
 1898 08e2 012B     		cmp	r3, #1
 1899 08e4 01D1     		bne	.L137
 1900              		.loc 1 974 0
 1901 08e6 0123     		movs	r3, #1
 1902 08e8 00E0     		b	.L134
 1903              	.L137:
 1904              		.loc 1 977 0
 1905 08ea 0023     		movs	r3, #0
 1906              	.L134:
 1907              		.loc 1 978 0
ARM GAS  /tmp/ccyLkxL8.s 			page 35


 1908 08ec 1846     		mov	r0, r3
 1909 08ee 05B0     		add	sp, sp, #20
 1910              		@ sp needed
 1911 08f0 5DF804FB 		ldr	pc, [sp], #4
 1912              		.cfi_endproc
 1913              	.LFE149:
 1914              		.size	BSP_GYRO_Set_Axes_Status, .-BSP_GYRO_Set_Axes_Status
 1915              	.Letext0:
 1916              		.file 2 "/nfs/nfs5/home/research/hardware/arm2/gcc-arm-embedded/gcc-arm-none-eabi-4_8-2014q2/arm-n
 1917              		.file 3 "/nfs/nfs5/home/research/hardware/arm2/gcc-arm-embedded/gcc-arm-none-eabi-4_8-2014q2/arm-n
 1918              		.file 4 "../../../../../Drivers/BSP/Components/Common/component.h"
 1919              		.file 5 "../../../../../Drivers/BSP/Components/Common/sensor.h"
 1920              		.file 6 "../../../../../Drivers/BSP/Components/Common/gyroscope.h"
 1921              		.file 7 "../../../../../Drivers/BSP/Components/lsm6dsm/LSM6DSM_ACC_GYRO_driver_HL.h"
 1922              		.file 8 "../../../../../Drivers/BSP/SensorTile/SensorTile.h"
 1923              		.file 9 "../../../../../Drivers/BSP/SensorTile/SensorTile_gyro.h"
 1924              		.file 10 "../../../../../../ChibiOS/os/ext/CMSIS/include/core_cm4.h"