ARM GAS  /tmp/ccGf2LCS.s 			page 1


   1              		.syntax unified
   2              		.cpu cortex-m4
   3              		.fpu softvfp
   4              		.eabi_attribute 20, 1
   5              		.eabi_attribute 21, 1
   6              		.eabi_attribute 23, 3
   7              		.eabi_attribute 24, 1
   8              		.eabi_attribute 25, 1
   9              		.eabi_attribute 26, 1
  10              		.eabi_attribute 30, 6
  11              		.eabi_attribute 34, 1
  12              		.eabi_attribute 18, 4
  13              		.thumb
  14              		.file	"SensorTile_audio_in.c"
  15              		.text
  16              	.Ltext0:
  17              		.cfi_sections	.debug_frame
  18              		.bss
  19              		.align	2
  20              	SENSORTILE_AudioIn_Handler:
  21 0000 00000000 		.space	60
  21      00000000 
  21      00000000 
  21      00000000 
  21      00000000 
  22              		.comm	haudio_in_dfsdmchannel,224,4
  23              		.comm	haudio_in_dfsdmfilter,336,4
  24              		.comm	hdma_dfsdmReg_FLT,288,4
  25              		.comm	RecBuff,3072,4
  26              		.data
  27              		.align	1
  28              		.type	AudioInVolume, %object
  29              		.size	AudioInVolume, 2
  30              	AudioInVolume:
  31 0000 4000     		.short	64
  32              		.text
  33              		.align	2
  34              		.p2align 4,,15
  35              		.global	BSP_AUDIO_IN_Init
  36              		.thumb
  37              		.thumb_func
  38              		.type	BSP_AUDIO_IN_Init, %function
  39              	BSP_AUDIO_IN_Init:
  40              	.LFB125:
  41              		.file 1 "../../../../../Drivers/BSP/SensorTile/SensorTile_audio_in.c"
  42              		.loc 1 147 0
  43              		.cfi_startproc
  44              		@ args = 0, pretend = 0, frame = 16
  45              		@ frame_needed = 0, uses_anonymous_args = 0
  46 0000 00B5     		push	{lr}
  47              		.cfi_def_cfa_offset 4
  48              		.cfi_offset 14, -4
  49 0002 85B0     		sub	sp, sp, #20
  50              		.cfi_def_cfa_offset 24
  51 0004 0390     		str	r0, [sp, #12]
  52 0006 0291     		str	r1, [sp, #8]
  53 0008 0192     		str	r2, [sp, #4]
ARM GAS  /tmp/ccGf2LCS.s 			page 2


  54              		.loc 1 150 0
  55 000a 0A4B     		ldr	r3, .L3
  56 000c 019A     		ldr	r2, [sp, #4]
  57 000e 1A60     		str	r2, [r3]
  58              		.loc 1 151 0
  59 0010 084B     		ldr	r3, .L3
  60 0012 039A     		ldr	r2, [sp, #12]
  61 0014 5A60     		str	r2, [r3, #4]
  62              		.loc 1 154 0
  63 0016 074B     		ldr	r3, .L3
  64 0018 5B68     		ldr	r3, [r3, #4]
  65 001a 1846     		mov	r0, r3
  66 001c 0021     		movs	r1, #0
  67 001e FFF7FEFF 		bl	BSP_AUDIO_IN_ClockConfig
  68              		.loc 1 157 0
  69 0022 0398     		ldr	r0, [sp, #12]
  70 0024 0199     		ldr	r1, [sp, #4]
  71 0026 00F023F9 		bl	DFSDMx_Init
  72 002a 0346     		mov	r3, r0
  73              		.loc 1 158 0
  74 002c 1846     		mov	r0, r3
  75 002e 05B0     		add	sp, sp, #20
  76              		@ sp needed
  77 0030 5DF804FB 		ldr	pc, [sp], #4
  78              	.L4:
  79              		.align	2
  80              	.L3:
  81 0034 00000000 		.word	SENSORTILE_AudioIn_Handler
  82              		.cfi_endproc
  83              	.LFE125:
  84              		.size	BSP_AUDIO_IN_Init, .-BSP_AUDIO_IN_Init
  85              		.align	2
  86 0038 AFF30080 		.p2align 4,,15
  86      AFF30080 
  87              		.global	BSP_AUDIO_IN_DeInit
  88              		.thumb
  89              		.thumb_func
  90              		.type	BSP_AUDIO_IN_DeInit, %function
  91              	BSP_AUDIO_IN_DeInit:
  92              	.LFB126:
  93              		.loc 1 165 0
  94              		.cfi_startproc
  95              		@ args = 0, pretend = 0, frame = 0
  96              		@ frame_needed = 0, uses_anonymous_args = 0
  97 0040 08B5     		push	{r3, lr}
  98              		.cfi_def_cfa_offset 8
  99              		.cfi_offset 3, -8
 100              		.cfi_offset 14, -4
 101              		.loc 1 166 0
 102 0042 00F07DFF 		bl	DFSDMx_DeInit
 103 0046 0346     		mov	r3, r0
 104              		.loc 1 167 0
 105 0048 1846     		mov	r0, r3
 106 004a 08BD     		pop	{r3, pc}
 107              		.cfi_endproc
 108              	.LFE126:
 109              		.size	BSP_AUDIO_IN_DeInit, .-BSP_AUDIO_IN_DeInit
ARM GAS  /tmp/ccGf2LCS.s 			page 3


 110              		.align	2
 111 004c AFF30080 		.p2align 4,,15
 112              		.weak	BSP_AUDIO_IN_ClockConfig
 113              		.thumb
 114              		.thumb_func
 115              		.type	BSP_AUDIO_IN_ClockConfig, %function
 116              	BSP_AUDIO_IN_ClockConfig:
 117              	.LFB127:
 118              		.loc 1 179 0
 119              		.cfi_startproc
 120              		@ args = 0, pretend = 0, frame = 144
 121              		@ frame_needed = 0, uses_anonymous_args = 0
 122 0050 00B5     		push	{lr}
 123              		.cfi_def_cfa_offset 4
 124              		.cfi_offset 14, -4
 125 0052 A5B0     		sub	sp, sp, #148
 126              		.cfi_def_cfa_offset 152
 127 0054 0190     		str	r0, [sp, #4]
 128 0056 0091     		str	r1, [sp]
 129              		.loc 1 181 0
 130 0058 2B23     		movs	r3, #43
 131 005a 0593     		str	r3, [sp, #20]
 132              		.loc 1 182 0
 133 005c 0723     		movs	r3, #7
 134 005e 0693     		str	r3, [sp, #24]
 135              		.loc 1 187 0
 136 0060 4FF40063 		mov	r3, #2048
 137 0064 0293     		str	r3, [sp, #8]
 138              		.loc 1 188 0
 139 0066 4FF48033 		mov	r3, #65536
 140 006a 0993     		str	r3, [sp, #36]
 141              		.loc 1 189 0
 142 006c 0023     		movs	r3, #0
 143 006e 1B93     		str	r3, [sp, #108]
 144              		.loc 1 190 0
 145 0070 0123     		movs	r3, #1
 146 0072 0393     		str	r3, [sp, #12]
 147              		.loc 1 191 0
 148 0074 0623     		movs	r3, #6
 149 0076 0493     		str	r3, [sp, #16]
 150              		.loc 1 193 0
 151 0078 02AB     		add	r3, sp, #8
 152 007a 1846     		mov	r0, r3
 153 007c FFF7FEFF 		bl	HAL_RCCEx_PeriphCLKConfig
 154 0080 0346     		mov	r3, r0
 155 0082 002B     		cmp	r3, #0
 156 0084 01D0     		beq	.L8
 157              		.loc 1 195 0
 158 0086 0123     		movs	r3, #1
 159 0088 00E0     		b	.L10
 160              	.L8:
 161              		.loc 1 198 0
 162 008a 0023     		movs	r3, #0
 163              	.L10:
 164              		.loc 1 199 0
 165 008c 1846     		mov	r0, r3
 166 008e 25B0     		add	sp, sp, #148
ARM GAS  /tmp/ccGf2LCS.s 			page 4


 167              		@ sp needed
 168 0090 5DF804FB 		ldr	pc, [sp], #4
 169              		.cfi_endproc
 170              	.LFE127:
 171              		.size	BSP_AUDIO_IN_ClockConfig, .-BSP_AUDIO_IN_ClockConfig
 172              		.align	2
 173 0094 AFF30080 		.p2align 4,,15
 173      AFF30080 
 173      AFF30080 
 174              		.global	BSP_AUDIO_IN_Record
 175              		.thumb
 176              		.thumb_func
 177              		.type	BSP_AUDIO_IN_Record, %function
 178              	BSP_AUDIO_IN_Record:
 179              	.LFB128:
 180              		.loc 1 210 0
 181              		.cfi_startproc
 182              		@ args = 0, pretend = 0, frame = 16
 183              		@ frame_needed = 0, uses_anonymous_args = 0
 184 00a0 00B5     		push	{lr}
 185              		.cfi_def_cfa_offset 4
 186              		.cfi_offset 14, -4
 187 00a2 85B0     		sub	sp, sp, #20
 188              		.cfi_def_cfa_offset 24
 189 00a4 0190     		str	r0, [sp, #4]
 190 00a6 0091     		str	r1, [sp]
 191              		.loc 1 211 0
 192 00a8 0023     		movs	r3, #0
 193 00aa 0393     		str	r3, [sp, #12]
 194              		.loc 1 212 0
 195 00ac 184B     		ldr	r3, .L16
 196 00ae 019A     		ldr	r2, [sp, #4]
 197 00b0 9A63     		str	r2, [r3, #56]
 198              		.loc 1 214 0
 199 00b2 174B     		ldr	r3, .L16
 200 00b4 1B68     		ldr	r3, [r3]
 201 00b6 0393     		str	r3, [sp, #12]
 202 00b8 22E0     		b	.L12
 203              	.L15:
 204              		.loc 1 216 0
 205 00ba 039B     		ldr	r3, [sp, #12]
 206 00bc 013B     		subs	r3, r3, #1
 207 00be 5422     		movs	r2, #84
 208 00c0 02FB03F2 		mul	r2, r2, r3
 209 00c4 134B     		ldr	r3, .L16+4
 210 00c6 D118     		adds	r1, r2, r3
 211              		.loc 1 217 0
 212 00c8 039B     		ldr	r3, [sp, #12]
 213 00ca 5A1E     		subs	r2, r3, #1
 214 00cc 1346     		mov	r3, r2
 215 00ce 5B00     		lsls	r3, r3, #1
 216 00d0 1344     		add	r3, r3, r2
 217 00d2 1B02     		lsls	r3, r3, #8
 218 00d4 104A     		ldr	r2, .L16+8
 219 00d6 1A44     		add	r2, r2, r3
 220              		.loc 1 218 0
 221 00d8 0D4B     		ldr	r3, .L16
ARM GAS  /tmp/ccGf2LCS.s 			page 5


 222 00da 5868     		ldr	r0, [r3, #4]
 223 00dc 0F4B     		ldr	r3, .L16+12
 224 00de A3FB00C3 		umull	ip, r3, r3, r0
 225 00e2 9B09     		lsrs	r3, r3, #6
 226              		.loc 1 216 0
 227 00e4 5B00     		lsls	r3, r3, #1
 228 00e6 0846     		mov	r0, r1
 229 00e8 1146     		mov	r1, r2
 230 00ea 1A46     		mov	r2, r3
 231 00ec FFF7FEFF 		bl	HAL_DFSDM_FilterRegularStart_DMA
 232 00f0 0346     		mov	r3, r0
 233 00f2 002B     		cmp	r3, #0
 234 00f4 01D0     		beq	.L13
 235              		.loc 1 220 0
 236 00f6 0123     		movs	r3, #1
 237 00f8 06E0     		b	.L14
 238              	.L13:
 239              		.loc 1 214 0
 240 00fa 039B     		ldr	r3, [sp, #12]
 241 00fc 013B     		subs	r3, r3, #1
 242 00fe 0393     		str	r3, [sp, #12]
 243              	.L12:
 244              		.loc 1 214 0 is_stmt 0 discriminator 1
 245 0100 039B     		ldr	r3, [sp, #12]
 246 0102 002B     		cmp	r3, #0
 247 0104 D9DC     		bgt	.L15
 248              		.loc 1 223 0 is_stmt 1
 249 0106 0023     		movs	r3, #0
 250              	.L14:
 251              		.loc 1 224 0
 252 0108 1846     		mov	r0, r3
 253 010a 05B0     		add	sp, sp, #20
 254              		@ sp needed
 255 010c 5DF804FB 		ldr	pc, [sp], #4
 256              	.L17:
 257              		.align	2
 258              	.L16:
 259 0110 00000000 		.word	SENSORTILE_AudioIn_Handler
 260 0114 00000000 		.word	haudio_in_dfsdmfilter
 261 0118 00000000 		.word	RecBuff
 262 011c D34D6210 		.word	274877907
 263              		.cfi_endproc
 264              	.LFE128:
 265              		.size	BSP_AUDIO_IN_Record, .-BSP_AUDIO_IN_Record
 266              		.align	2
 267              		.p2align 4,,15
 268              		.global	BSP_AUDIO_IN_Stop
 269              		.thumb
 270              		.thumb_func
 271              		.type	BSP_AUDIO_IN_Stop, %function
 272              	BSP_AUDIO_IN_Stop:
 273              	.LFB129:
 274              		.loc 1 232 0
 275              		.cfi_startproc
 276              		@ args = 0, pretend = 0, frame = 8
 277              		@ frame_needed = 0, uses_anonymous_args = 0
 278 0120 00B5     		push	{lr}
ARM GAS  /tmp/ccGf2LCS.s 			page 6


 279              		.cfi_def_cfa_offset 4
 280              		.cfi_offset 14, -4
 281 0122 83B0     		sub	sp, sp, #12
 282              		.cfi_def_cfa_offset 16
 283              		.loc 1 233 0
 284 0124 0023     		movs	r3, #0
 285 0126 0193     		str	r3, [sp, #4]
 286              		.loc 1 234 0
 287 0128 0E4B     		ldr	r3, .L23
 288 012a 1B68     		ldr	r3, [r3]
 289 012c 0193     		str	r3, [sp, #4]
 290 012e 11E0     		b	.L19
 291              	.L22:
 292              		.loc 1 236 0
 293 0130 019B     		ldr	r3, [sp, #4]
 294 0132 013B     		subs	r3, r3, #1
 295 0134 5422     		movs	r2, #84
 296 0136 02FB03F2 		mul	r2, r2, r3
 297 013a 0B4B     		ldr	r3, .L23+4
 298 013c 1344     		add	r3, r3, r2
 299 013e 1846     		mov	r0, r3
 300 0140 FFF7FEFF 		bl	HAL_DFSDM_FilterRegularStop_DMA
 301 0144 0346     		mov	r3, r0
 302 0146 002B     		cmp	r3, #0
 303 0148 01D0     		beq	.L20
 304              		.loc 1 238 0
 305 014a 0123     		movs	r3, #1
 306 014c 06E0     		b	.L21
 307              	.L20:
 308              		.loc 1 234 0
 309 014e 019B     		ldr	r3, [sp, #4]
 310 0150 013B     		subs	r3, r3, #1
 311 0152 0193     		str	r3, [sp, #4]
 312              	.L19:
 313              		.loc 1 234 0 is_stmt 0 discriminator 1
 314 0154 019B     		ldr	r3, [sp, #4]
 315 0156 002B     		cmp	r3, #0
 316 0158 EADC     		bgt	.L22
 317              		.loc 1 242 0 is_stmt 1
 318 015a 0023     		movs	r3, #0
 319              	.L21:
 320              		.loc 1 243 0
 321 015c 1846     		mov	r0, r3
 322 015e 03B0     		add	sp, sp, #12
 323              		@ sp needed
 324 0160 5DF804FB 		ldr	pc, [sp], #4
 325              	.L24:
 326              		.align	2
 327              	.L23:
 328 0164 00000000 		.word	SENSORTILE_AudioIn_Handler
 329 0168 00000000 		.word	haudio_in_dfsdmfilter
 330              		.cfi_endproc
 331              	.LFE129:
 332              		.size	BSP_AUDIO_IN_Stop, .-BSP_AUDIO_IN_Stop
 333              		.align	2
 334 016c AFF30080 		.p2align 4,,15
 335              		.global	BSP_AUDIO_IN_Pause
ARM GAS  /tmp/ccGf2LCS.s 			page 7


 336              		.thumb
 337              		.thumb_func
 338              		.type	BSP_AUDIO_IN_Pause, %function
 339              	BSP_AUDIO_IN_Pause:
 340              	.LFB130:
 341              		.loc 1 252 0
 342              		.cfi_startproc
 343              		@ args = 0, pretend = 0, frame = 8
 344              		@ frame_needed = 0, uses_anonymous_args = 0
 345 0170 00B5     		push	{lr}
 346              		.cfi_def_cfa_offset 4
 347              		.cfi_offset 14, -4
 348 0172 83B0     		sub	sp, sp, #12
 349              		.cfi_def_cfa_offset 16
 350              		.loc 1 253 0
 351 0174 0023     		movs	r3, #0
 352 0176 0193     		str	r3, [sp, #4]
 353              		.loc 1 254 0
 354 0178 0E4B     		ldr	r3, .L30
 355 017a 1B68     		ldr	r3, [r3]
 356 017c 0193     		str	r3, [sp, #4]
 357 017e 11E0     		b	.L26
 358              	.L29:
 359              		.loc 1 256 0
 360 0180 019B     		ldr	r3, [sp, #4]
 361 0182 013B     		subs	r3, r3, #1
 362 0184 5422     		movs	r2, #84
 363 0186 02FB03F2 		mul	r2, r2, r3
 364 018a 0B4B     		ldr	r3, .L30+4
 365 018c 1344     		add	r3, r3, r2
 366 018e 1846     		mov	r0, r3
 367 0190 FFF7FEFF 		bl	HAL_DFSDM_FilterRegularStop_DMA
 368 0194 0346     		mov	r3, r0
 369 0196 002B     		cmp	r3, #0
 370 0198 01D0     		beq	.L27
 371              		.loc 1 258 0
 372 019a 0123     		movs	r3, #1
 373 019c 06E0     		b	.L28
 374              	.L27:
 375              		.loc 1 254 0
 376 019e 019B     		ldr	r3, [sp, #4]
 377 01a0 013B     		subs	r3, r3, #1
 378 01a2 0193     		str	r3, [sp, #4]
 379              	.L26:
 380              		.loc 1 254 0 is_stmt 0 discriminator 1
 381 01a4 019B     		ldr	r3, [sp, #4]
 382 01a6 002B     		cmp	r3, #0
 383 01a8 EADC     		bgt	.L29
 384              		.loc 1 262 0 is_stmt 1
 385 01aa 0023     		movs	r3, #0
 386              	.L28:
 387              		.loc 1 263 0
 388 01ac 1846     		mov	r0, r3
 389 01ae 03B0     		add	sp, sp, #12
 390              		@ sp needed
 391 01b0 5DF804FB 		ldr	pc, [sp], #4
 392              	.L31:
ARM GAS  /tmp/ccGf2LCS.s 			page 8


 393              		.align	2
 394              	.L30:
 395 01b4 00000000 		.word	SENSORTILE_AudioIn_Handler
 396 01b8 00000000 		.word	haudio_in_dfsdmfilter
 397              		.cfi_endproc
 398              	.LFE130:
 399              		.size	BSP_AUDIO_IN_Pause, .-BSP_AUDIO_IN_Pause
 400              		.align	2
 401 01bc AFF30080 		.p2align 4,,15
 402              		.global	BSP_AUDIO_IN_Resume
 403              		.thumb
 404              		.thumb_func
 405              		.type	BSP_AUDIO_IN_Resume, %function
 406              	BSP_AUDIO_IN_Resume:
 407              	.LFB131:
 408              		.loc 1 271 0
 409              		.cfi_startproc
 410              		@ args = 0, pretend = 0, frame = 8
 411              		@ frame_needed = 0, uses_anonymous_args = 0
 412 01c0 00B5     		push	{lr}
 413              		.cfi_def_cfa_offset 4
 414              		.cfi_offset 14, -4
 415 01c2 83B0     		sub	sp, sp, #12
 416              		.cfi_def_cfa_offset 16
 417              		.loc 1 272 0
 418 01c4 0023     		movs	r3, #0
 419 01c6 0193     		str	r3, [sp, #4]
 420              		.loc 1 273 0
 421 01c8 174B     		ldr	r3, .L37
 422 01ca 1B68     		ldr	r3, [r3]
 423 01cc 0193     		str	r3, [sp, #4]
 424 01ce 22E0     		b	.L33
 425              	.L36:
 426              		.loc 1 275 0
 427 01d0 019B     		ldr	r3, [sp, #4]
 428 01d2 013B     		subs	r3, r3, #1
 429 01d4 5422     		movs	r2, #84
 430 01d6 02FB03F2 		mul	r2, r2, r3
 431 01da 144B     		ldr	r3, .L37+4
 432 01dc D118     		adds	r1, r2, r3
 433              		.loc 1 276 0
 434 01de 019B     		ldr	r3, [sp, #4]
 435 01e0 5A1E     		subs	r2, r3, #1
 436 01e2 1346     		mov	r3, r2
 437 01e4 5B00     		lsls	r3, r3, #1
 438 01e6 1344     		add	r3, r3, r2
 439 01e8 1B02     		lsls	r3, r3, #8
 440 01ea 114A     		ldr	r2, .L37+8
 441 01ec 1A44     		add	r2, r2, r3
 442              		.loc 1 277 0
 443 01ee 0E4B     		ldr	r3, .L37
 444 01f0 5868     		ldr	r0, [r3, #4]
 445 01f2 104B     		ldr	r3, .L37+12
 446 01f4 A3FB00C3 		umull	ip, r3, r3, r0
 447 01f8 9B09     		lsrs	r3, r3, #6
 448              		.loc 1 275 0
 449 01fa 5B00     		lsls	r3, r3, #1
ARM GAS  /tmp/ccGf2LCS.s 			page 9


 450 01fc 0846     		mov	r0, r1
 451 01fe 1146     		mov	r1, r2
 452 0200 1A46     		mov	r2, r3
 453 0202 FFF7FEFF 		bl	HAL_DFSDM_FilterRegularStart_DMA
 454 0206 0346     		mov	r3, r0
 455 0208 002B     		cmp	r3, #0
 456 020a 01D0     		beq	.L34
 457              		.loc 1 279 0
 458 020c 0123     		movs	r3, #1
 459 020e 06E0     		b	.L35
 460              	.L34:
 461              		.loc 1 273 0
 462 0210 019B     		ldr	r3, [sp, #4]
 463 0212 013B     		subs	r3, r3, #1
 464 0214 0193     		str	r3, [sp, #4]
 465              	.L33:
 466              		.loc 1 273 0 is_stmt 0 discriminator 1
 467 0216 019B     		ldr	r3, [sp, #4]
 468 0218 002B     		cmp	r3, #0
 469 021a D9DC     		bgt	.L36
 470              		.loc 1 282 0 is_stmt 1
 471 021c 0023     		movs	r3, #0
 472              	.L35:
 473              		.loc 1 283 0
 474 021e 1846     		mov	r0, r3
 475 0220 03B0     		add	sp, sp, #12
 476              		@ sp needed
 477 0222 5DF804FB 		ldr	pc, [sp], #4
 478              	.L38:
 479 0226 00BF     		.align	2
 480              	.L37:
 481 0228 00000000 		.word	SENSORTILE_AudioIn_Handler
 482 022c 00000000 		.word	haudio_in_dfsdmfilter
 483 0230 00000000 		.word	RecBuff
 484 0234 D34D6210 		.word	274877907
 485              		.cfi_endproc
 486              	.LFE131:
 487              		.size	BSP_AUDIO_IN_Resume, .-BSP_AUDIO_IN_Resume
 488              		.align	2
 489 0238 AFF30080 		.p2align 4,,15
 489      AFF30080 
 490              		.global	BSP_AUDIO_IN_SetVolume
 491              		.thumb
 492              		.thumb_func
 493              		.type	BSP_AUDIO_IN_SetVolume, %function
 494              	BSP_AUDIO_IN_SetVolume:
 495              	.LFB132:
 496              		.loc 1 296 0
 497              		.cfi_startproc
 498              		@ args = 0, pretend = 0, frame = 8
 499              		@ frame_needed = 0, uses_anonymous_args = 0
 500              		@ link register save eliminated.
 501 0240 82B0     		sub	sp, sp, #8
 502              		.cfi_def_cfa_offset 8
 503 0242 0346     		mov	r3, r0
 504 0244 8DF80730 		strb	r3, [sp, #7]
 505              		.loc 1 297 0
ARM GAS  /tmp/ccGf2LCS.s 			page 10


 506 0248 9DF80730 		ldrb	r3, [sp, #7]	@ zero_extendqisi2
 507 024c 9AB2     		uxth	r2, r3
 508 024e 034B     		ldr	r3, .L41
 509 0250 1A80     		strh	r2, [r3]	@ movhi
 510              		.loc 1 298 0
 511 0252 0023     		movs	r3, #0
 512              		.loc 1 299 0
 513 0254 1846     		mov	r0, r3
 514 0256 02B0     		add	sp, sp, #8
 515              		@ sp needed
 516 0258 7047     		bx	lr
 517              	.L42:
 518 025a 00BF     		.align	2
 519              	.L41:
 520 025c 00000000 		.word	AudioInVolume
 521              		.cfi_endproc
 522              	.LFE132:
 523              		.size	BSP_AUDIO_IN_SetVolume, .-BSP_AUDIO_IN_SetVolume
 524              		.align	2
 525              		.p2align 4,,15
 526              		.weak	BSP_AUDIO_IN_Error_Callback
 527              		.thumb
 528              		.thumb_func
 529              		.type	BSP_AUDIO_IN_Error_Callback, %function
 530              	BSP_AUDIO_IN_Error_Callback:
 531              	.LFB133:
 532              		.loc 1 307 0
 533              		.cfi_startproc
 534              		@ args = 0, pretend = 0, frame = 0
 535              		@ frame_needed = 0, uses_anonymous_args = 0
 536              		@ link register save eliminated.
 537              		.loc 1 310 0
 538 0260 7047     		bx	lr
 539              		.cfi_endproc
 540              	.LFE133:
 541              		.size	BSP_AUDIO_IN_Error_Callback, .-BSP_AUDIO_IN_Error_Callback
 542 0262 00BF     		.align	2
 543 0264 AFF30080 		.p2align 4,,15
 543      AFF30080 
 543      AFF30080 
 544              		.thumb
 545              		.thumb_func
 546              		.type	DFSDMx_Init, %function
 547              	DFSDMx_Init:
 548              	.LFB134:
 549              		.loc 1 326 0
 550              		.cfi_startproc
 551              		@ args = 0, pretend = 0, frame = 104
 552              		@ frame_needed = 0, uses_anonymous_args = 0
 553 0270 00B5     		push	{lr}
 554              		.cfi_def_cfa_offset 4
 555              		.cfi_offset 14, -4
 556 0272 9BB0     		sub	sp, sp, #108
 557              		.cfi_def_cfa_offset 112
 558 0274 0190     		str	r0, [sp, #4]
 559 0276 0091     		str	r1, [sp]
 560              		.loc 1 327 0
ARM GAS  /tmp/ccGf2LCS.s 			page 11


 561 0278 0023     		movs	r3, #0
 562 027a ADF86630 		strh	r3, [sp, #102]	@ movhi
 563              		.loc 1 328 0
 564 027e 0023     		movs	r3, #0
 565 0280 1893     		str	r3, [sp, #96]
 566              		.loc 1 329 0
 567 0282 019B     		ldr	r3, [sp, #4]
 568 0284 B3F5FA5F 		cmp	r3, #8000
 569 0288 22D0     		beq	.L45
 570              		.loc 1 329 0 is_stmt 0 discriminator 1
 571 028a 019A     		ldr	r2, [sp, #4]
 572 028c 42F61133 		movw	r3, #11025
 573 0290 9A42     		cmp	r2, r3
 574 0292 1DD0     		beq	.L45
 575 0294 019B     		ldr	r3, [sp, #4]
 576 0296 B3F57A5F 		cmp	r3, #16000
 577 029a 19D0     		beq	.L45
 578              		.loc 1 329 0 discriminator 2
 579 029c 019A     		ldr	r2, [sp, #4]
 580 029e 45F22263 		movw	r3, #22050
 581 02a2 9A42     		cmp	r2, r3
 582 02a4 14D0     		beq	.L45
 583              		.loc 1 329 0 discriminator 3
 584 02a6 019B     		ldr	r3, [sp, #4]
 585 02a8 B3F5FA4F 		cmp	r3, #32000
 586 02ac 10D0     		beq	.L45
 587              		.loc 1 329 0 discriminator 4
 588 02ae 019A     		ldr	r2, [sp, #4]
 589 02b0 4AF64443 		movw	r3, #44100
 590 02b4 9A42     		cmp	r2, r3
 591 02b6 0BD0     		beq	.L45
 592              		.loc 1 329 0 discriminator 5
 593 02b8 019A     		ldr	r2, [sp, #4]
 594 02ba 4BF68033 		movw	r3, #48000
 595 02be 9A42     		cmp	r2, r3
 596 02c0 06D0     		beq	.L45
 597              		.loc 1 331 0 is_stmt 1
 598 02c2 0523     		movs	r3, #5
 599 02c4 ADF86630 		strh	r3, [sp, #102]	@ movhi
 600              		.loc 1 332 0
 601 02c8 4FF02043 		mov	r3, #-1610612736
 602 02cc 1893     		str	r3, [sp, #96]
 603 02ce 3EE0     		b	.L46
 604              	.L45:
 605              		.loc 1 334 0
 606 02d0 019B     		ldr	r3, [sp, #4]
 607 02d2 B3F5FA5F 		cmp	r3, #8000
 608 02d6 0DD0     		beq	.L47
 609              		.loc 1 334 0 is_stmt 0 discriminator 1
 610 02d8 019A     		ldr	r2, [sp, #4]
 611 02da 42F61133 		movw	r3, #11025
 612 02de 9A42     		cmp	r2, r3
 613 02e0 0FD0     		beq	.L48
 614 02e2 019B     		ldr	r3, [sp, #4]
 615 02e4 B3F57A5F 		cmp	r3, #16000
 616 02e8 04D0     		beq	.L47
 617              		.loc 1 334 0 discriminator 2
ARM GAS  /tmp/ccGf2LCS.s 			page 12


 618 02ea 019A     		ldr	r2, [sp, #4]
 619 02ec 45F22263 		movw	r3, #22050
 620 02f0 9A42     		cmp	r2, r3
 621 02f2 06D1     		bne	.L48
 622              	.L47:
 623              		.loc 1 336 0 is_stmt 1
 624 02f4 0823     		movs	r3, #8
 625 02f6 ADF86630 		strh	r3, [sp, #102]	@ movhi
 626              		.loc 1 337 0
 627 02fa 4FF00043 		mov	r3, #-2147483648
 628 02fe 1893     		str	r3, [sp, #96]
 629 0300 25E0     		b	.L46
 630              	.L48:
 631              		.loc 1 339 0
 632 0302 019B     		ldr	r3, [sp, #4]
 633 0304 B3F5FA5F 		cmp	r3, #8000
 634 0308 21D0     		beq	.L46
 635              		.loc 1 339 0 is_stmt 0 discriminator 1
 636 030a 019A     		ldr	r2, [sp, #4]
 637 030c 42F61133 		movw	r3, #11025
 638 0310 9A42     		cmp	r2, r3
 639 0312 1CD0     		beq	.L46
 640 0314 019B     		ldr	r3, [sp, #4]
 641 0316 B3F57A5F 		cmp	r3, #16000
 642 031a 18D0     		beq	.L46
 643              		.loc 1 339 0 discriminator 2
 644 031c 019A     		ldr	r2, [sp, #4]
 645 031e 45F22263 		movw	r3, #22050
 646 0322 9A42     		cmp	r2, r3
 647 0324 13D0     		beq	.L46
 648              		.loc 1 339 0 discriminator 3
 649 0326 019B     		ldr	r3, [sp, #4]
 650 0328 B3F5FA4F 		cmp	r3, #32000
 651 032c 09D0     		beq	.L49
 652              		.loc 1 339 0 discriminator 4
 653 032e 019A     		ldr	r2, [sp, #4]
 654 0330 4AF64443 		movw	r3, #44100
 655 0334 9A42     		cmp	r2, r3
 656 0336 04D0     		beq	.L49
 657              		.loc 1 339 0 discriminator 5
 658 0338 019A     		ldr	r2, [sp, #4]
 659 033a 4BF68033 		movw	r3, #48000
 660 033e 9A42     		cmp	r2, r3
 661 0340 05D1     		bne	.L46
 662              	.L49:
 663              		.loc 1 341 0 is_stmt 1
 664 0342 0A23     		movs	r3, #10
 665 0344 ADF86630 		strh	r3, [sp, #102]	@ movhi
 666              		.loc 1 342 0
 667 0348 4FF02043 		mov	r3, #-1610612736
 668 034c 1893     		str	r3, [sp, #96]
 669              	.L46:
 670              		.loc 1 345 0
 671 034e 009B     		ldr	r3, [sp]
 672 0350 012B     		cmp	r3, #1
 673 0352 40F01581 		bne	.L50
 674              		.loc 1 348 0
ARM GAS  /tmp/ccGf2LCS.s 			page 13


 675 0356 A34B     		ldr	r3, .L206
 676 0358 0122     		movs	r2, #1
 677 035a 1A71     		strb	r2, [r3, #4]
 678              		.loc 1 349 0
 679 035c A14B     		ldr	r3, .L206
 680 035e 4FF08042 		mov	r2, #1073741824
 681 0362 9A60     		str	r2, [r3, #8]
 682              		.loc 1 351 0
 683 0364 019B     		ldr	r3, [sp, #4]
 684 0366 B3F5FA5F 		cmp	r3, #8000
 685 036a 22D0     		beq	.L51
 686              		.loc 1 351 0 is_stmt 0 discriminator 1
 687 036c 019A     		ldr	r2, [sp, #4]
 688 036e 42F61133 		movw	r3, #11025
 689 0372 9A42     		cmp	r2, r3
 690 0374 1BD0     		beq	.L52
 691              		.loc 1 351 0 discriminator 3
 692 0376 019B     		ldr	r3, [sp, #4]
 693 0378 B3F57A5F 		cmp	r3, #16000
 694 037c 15D0     		beq	.L53
 695              		.loc 1 351 0 discriminator 5
 696 037e 019A     		ldr	r2, [sp, #4]
 697 0380 45F22263 		movw	r3, #22050
 698 0384 9A42     		cmp	r2, r3
 699 0386 0ED0     		beq	.L54
 700              		.loc 1 351 0 discriminator 7
 701 0388 019B     		ldr	r3, [sp, #4]
 702 038a B3F5FA4F 		cmp	r3, #32000
 703 038e 08D0     		beq	.L55
 704              		.loc 1 351 0 discriminator 9
 705 0390 019A     		ldr	r2, [sp, #4]
 706 0392 4AF64443 		movw	r3, #44100
 707 0396 9A42     		cmp	r2, r3
 708 0398 01D1     		bne	.L56
 709              		.loc 1 351 0 discriminator 11
 710 039a 0423     		movs	r3, #4
 711 039c 0AE0     		b	.L62
 712              	.L56:
 713              		.loc 1 351 0 discriminator 12
 714 039e 1023     		movs	r3, #16
 715 03a0 08E0     		b	.L62
 716              	.L55:
 717              		.loc 1 351 0 discriminator 10
 718 03a2 1823     		movs	r3, #24
 719 03a4 06E0     		b	.L62
 720              	.L54:
 721              		.loc 1 351 0 discriminator 8
 722 03a6 0423     		movs	r3, #4
 723 03a8 04E0     		b	.L62
 724              	.L53:
 725              		.loc 1 351 0 discriminator 6
 726 03aa 1823     		movs	r3, #24
 727 03ac 02E0     		b	.L62
 728              	.L52:
 729              		.loc 1 351 0 discriminator 4
 730 03ae 0423     		movs	r3, #4
 731 03b0 00E0     		b	.L62
ARM GAS  /tmp/ccGf2LCS.s 			page 14


 732              	.L51:
 733              		.loc 1 351 0 discriminator 2
 734 03b2 3023     		movs	r3, #48
 735              	.L62:
 736              		.loc 1 351 0 discriminator 13
 737 03b4 8B4A     		ldr	r2, .L206
 738 03b6 D360     		str	r3, [r2, #12]
 739              		.loc 1 352 0 is_stmt 1 discriminator 13
 740 03b8 8A4B     		ldr	r3, .L206
 741 03ba 0022     		movs	r2, #0
 742 03bc 1A61     		str	r2, [r3, #16]
 743              		.loc 1 353 0 discriminator 13
 744 03be 894B     		ldr	r3, .L206
 745 03c0 0022     		movs	r2, #0
 746 03c2 5A61     		str	r2, [r3, #20]
 747              		.loc 1 354 0 discriminator 13
 748 03c4 874B     		ldr	r3, .L206
 749 03c6 0022     		movs	r2, #0
 750 03c8 9A61     		str	r2, [r3, #24]
 751              		.loc 1 355 0 discriminator 13
 752 03ca 864B     		ldr	r3, .L206
 753 03cc 0022     		movs	r2, #0
 754 03ce DA61     		str	r2, [r3, #28]
 755              		.loc 1 356 0 discriminator 13
 756 03d0 844B     		ldr	r3, .L206
 757 03d2 0422     		movs	r2, #4
 758 03d4 1A62     		str	r2, [r3, #32]
 759              		.loc 1 357 0 discriminator 13
 760 03d6 834B     		ldr	r3, .L206
 761 03d8 4FF48002 		mov	r2, #4194304
 762 03dc 5A62     		str	r2, [r3, #36]
 763              		.loc 1 358 0 discriminator 13
 764 03de 814B     		ldr	r3, .L206
 765 03e0 0A22     		movs	r2, #10
 766 03e2 9A62     		str	r2, [r3, #40]
 767              		.loc 1 359 0 discriminator 13
 768 03e4 7F4B     		ldr	r3, .L206
 769 03e6 0022     		movs	r2, #0
 770 03e8 DA62     		str	r2, [r3, #44]
 771              		.loc 1 360 0 discriminator 13
 772 03ea BDF86620 		ldrh	r2, [sp, #102]
 773 03ee 7D4B     		ldr	r3, .L206
 774 03f0 1A63     		str	r2, [r3, #48]
 775              		.loc 1 361 0 discriminator 13
 776 03f2 7C4B     		ldr	r3, .L206
 777 03f4 7C4A     		ldr	r2, .L206+4
 778 03f6 1A60     		str	r2, [r3]
 779              		.loc 1 363 0 discriminator 13
 780 03f8 7A48     		ldr	r0, .L206
 781 03fa FFF7FEFF 		bl	HAL_DFSDM_ChannelGetState
 782 03fe 0346     		mov	r3, r0
 783 0400 002B     		cmp	r3, #0
 784 0402 41D1     		bne	.L63
 785              	.LBB2:
 786              	.LBB3:
 787              		.loc 1 369 0
 788 0404 794B     		ldr	r3, .L206+8
ARM GAS  /tmp/ccGf2LCS.s 			page 15


 789 0406 794A     		ldr	r2, .L206+8
 790 0408 126E     		ldr	r2, [r2, #96]
 791 040a 42F08072 		orr	r2, r2, #16777216
 792 040e 1A66     		str	r2, [r3, #96]
 793 0410 764B     		ldr	r3, .L206+8
 794 0412 1B6E     		ldr	r3, [r3, #96]
 795 0414 03F08073 		and	r3, r3, #16777216
 796 0418 1293     		str	r3, [sp, #72]
 797 041a 129B     		ldr	r3, [sp, #72]
 798              	.LBE3:
 799              	.LBB4:
 800              		.loc 1 371 0
 801 041c 734B     		ldr	r3, .L206+8
 802 041e 734A     		ldr	r2, .L206+8
 803 0420 D26C     		ldr	r2, [r2, #76]
 804 0422 42F00402 		orr	r2, r2, #4
 805 0426 DA64     		str	r2, [r3, #76]
 806 0428 704B     		ldr	r3, .L206+8
 807 042a DB6C     		ldr	r3, [r3, #76]
 808 042c 03F00403 		and	r3, r3, #4
 809 0430 1193     		str	r3, [sp, #68]
 810 0432 119B     		ldr	r3, [sp, #68]
 811              	.LBE4:
 812              	.LBB5:
 813              		.loc 1 372 0
 814 0434 6D4B     		ldr	r3, .L206+8
 815 0436 6D4A     		ldr	r2, .L206+8
 816 0438 D26C     		ldr	r2, [r2, #76]
 817 043a 42F00202 		orr	r2, r2, #2
 818 043e DA64     		str	r2, [r3, #76]
 819 0440 6A4B     		ldr	r3, .L206+8
 820 0442 DB6C     		ldr	r3, [r3, #76]
 821 0444 03F00203 		and	r3, r3, #2
 822 0448 1093     		str	r3, [sp, #64]
 823 044a 109B     		ldr	r3, [sp, #64]
 824              	.LBE5:
 825              		.loc 1 375 0
 826 044c 0423     		movs	r3, #4
 827 044e 1393     		str	r3, [sp, #76]
 828              		.loc 1 376 0
 829 0450 0223     		movs	r3, #2
 830 0452 1493     		str	r3, [sp, #80]
 831              		.loc 1 377 0
 832 0454 0023     		movs	r3, #0
 833 0456 1593     		str	r3, [sp, #84]
 834              		.loc 1 378 0
 835 0458 0323     		movs	r3, #3
 836 045a 1693     		str	r3, [sp, #88]
 837              		.loc 1 379 0
 838 045c 0623     		movs	r3, #6
 839 045e 1793     		str	r3, [sp, #92]
 840              		.loc 1 380 0
 841 0460 13AB     		add	r3, sp, #76
 842 0462 6348     		ldr	r0, .L206+12
 843 0464 1946     		mov	r1, r3
 844 0466 FFF7FEFF 		bl	HAL_GPIO_Init
 845              		.loc 1 382 0
ARM GAS  /tmp/ccGf2LCS.s 			page 16


 846 046a 4023     		movs	r3, #64
 847 046c 1393     		str	r3, [sp, #76]
 848              		.loc 1 383 0
 849 046e 0223     		movs	r3, #2
 850 0470 1493     		str	r3, [sp, #80]
 851              		.loc 1 384 0
 852 0472 0023     		movs	r3, #0
 853 0474 1593     		str	r3, [sp, #84]
 854              		.loc 1 385 0
 855 0476 0323     		movs	r3, #3
 856 0478 1693     		str	r3, [sp, #88]
 857              		.loc 1 386 0
 858 047a 0623     		movs	r3, #6
 859 047c 1793     		str	r3, [sp, #92]
 860              		.loc 1 387 0
 861 047e 13AB     		add	r3, sp, #76
 862 0480 5C48     		ldr	r0, .L206+16
 863 0482 1946     		mov	r1, r3
 864 0484 FFF7FEFF 		bl	HAL_GPIO_Init
 865              	.L63:
 866              	.LBE2:
 867              		.loc 1 390 0
 868 0488 5648     		ldr	r0, .L206
 869 048a FFF7FEFF 		bl	HAL_DFSDM_ChannelInit
 870 048e 0346     		mov	r3, r0
 871 0490 002B     		cmp	r3, #0
 872 0492 02D0     		beq	.L64
 873              		.loc 1 392 0
 874 0494 0123     		movs	r3, #1
 875 0496 00F080BC 		b	.L65
 876              	.L64:
 877              		.loc 1 396 0
 878 049a 574B     		ldr	r3, .L206+20
 879 049c 0022     		movs	r2, #0
 880 049e 5A60     		str	r2, [r3, #4]
 881              		.loc 1 397 0
 882 04a0 554B     		ldr	r3, .L206+20
 883 04a2 0122     		movs	r2, #1
 884 04a4 1A72     		strb	r2, [r3, #8]
 885              		.loc 1 398 0
 886 04a6 544B     		ldr	r3, .L206+20
 887 04a8 0122     		movs	r2, #1
 888 04aa 5A72     		strb	r2, [r3, #9]
 889              		.loc 1 399 0
 890 04ac 524B     		ldr	r3, .L206+20
 891 04ae 0022     		movs	r2, #0
 892 04b0 DA60     		str	r2, [r3, #12]
 893              		.loc 1 400 0
 894 04b2 514B     		ldr	r3, .L206+20
 895 04b4 0022     		movs	r2, #0
 896 04b6 1A74     		strb	r2, [r3, #16]
 897              		.loc 1 401 0
 898 04b8 4F4B     		ldr	r3, .L206+20
 899 04ba 0022     		movs	r2, #0
 900 04bc 5A74     		strb	r2, [r3, #17]
 901              		.loc 1 402 0
 902 04be 4E4B     		ldr	r3, .L206+20
ARM GAS  /tmp/ccGf2LCS.s 			page 17


 903 04c0 4FF40072 		mov	r2, #512
 904 04c4 5A61     		str	r2, [r3, #20]
 905              		.loc 1 403 0
 906 04c6 4C4B     		ldr	r3, .L206+20
 907 04c8 4FF4C042 		mov	r2, #24576
 908 04cc 9A61     		str	r2, [r3, #24]
 909              		.loc 1 404 0
 910 04ce 4A4B     		ldr	r3, .L206+20
 911 04d0 189A     		ldr	r2, [sp, #96]
 912 04d2 DA61     		str	r2, [r3, #28]
 913              		.loc 1 406 0
 914 04d4 019B     		ldr	r3, [sp, #4]
 915 04d6 B3F5FA5F 		cmp	r3, #8000
 916 04da 2AD0     		beq	.L66
 917              		.loc 1 406 0 is_stmt 0 discriminator 1
 918 04dc 019A     		ldr	r2, [sp, #4]
 919 04de 42F61133 		movw	r3, #11025
 920 04e2 9A42     		cmp	r2, r3
 921 04e4 22D0     		beq	.L67
 922              		.loc 1 406 0 discriminator 3
 923 04e6 019B     		ldr	r3, [sp, #4]
 924 04e8 B3F57A5F 		cmp	r3, #16000
 925 04ec 1CD0     		beq	.L68
 926              		.loc 1 406 0 discriminator 5
 927 04ee 019A     		ldr	r2, [sp, #4]
 928 04f0 45F22263 		movw	r3, #22050
 929 04f4 9A42     		cmp	r2, r3
 930 04f6 15D0     		beq	.L69
 931              		.loc 1 406 0 discriminator 7
 932 04f8 019B     		ldr	r3, [sp, #4]
 933 04fa B3F5FA4F 		cmp	r3, #32000
 934 04fe 0FD0     		beq	.L70
 935              		.loc 1 406 0 discriminator 9
 936 0500 019A     		ldr	r2, [sp, #4]
 937 0502 4AF64443 		movw	r3, #44100
 938 0506 9A42     		cmp	r2, r3
 939 0508 08D0     		beq	.L71
 940              		.loc 1 406 0 discriminator 11
 941 050a 019A     		ldr	r2, [sp, #4]
 942 050c 4BF68033 		movw	r3, #48000
 943 0510 9A42     		cmp	r2, r3
 944 0512 01D1     		bne	.L72
 945              		.loc 1 406 0 discriminator 13
 946 0514 4023     		movs	r3, #64
 947 0516 0DE0     		b	.L79
 948              	.L72:
 949              		.loc 1 406 0 discriminator 14
 950 0518 2023     		movs	r3, #32
 951 051a 0BE0     		b	.L79
 952              	.L71:
 953              		.loc 1 406 0 discriminator 12
 954 051c 4023     		movs	r3, #64
 955 051e 09E0     		b	.L79
 956              	.L70:
 957              		.loc 1 406 0 discriminator 10
 958 0520 4023     		movs	r3, #64
 959 0522 07E0     		b	.L79
ARM GAS  /tmp/ccGf2LCS.s 			page 18


 960              	.L69:
 961              		.loc 1 406 0 discriminator 8
 962 0524 8023     		movs	r3, #128
 963 0526 05E0     		b	.L79
 964              	.L68:
 965              		.loc 1 406 0 discriminator 6
 966 0528 8023     		movs	r3, #128
 967 052a 03E0     		b	.L79
 968              	.L67:
 969              		.loc 1 406 0 discriminator 4
 970 052c 4FF48073 		mov	r3, #256
 971 0530 00E0     		b	.L79
 972              	.L66:
 973              		.loc 1 406 0 discriminator 2
 974 0532 8023     		movs	r3, #128
 975              	.L79:
 976              		.loc 1 406 0 discriminator 15
 977 0534 304A     		ldr	r2, .L206+20
 978 0536 1362     		str	r3, [r2, #32]
 979              		.loc 1 407 0 is_stmt 1 discriminator 15
 980 0538 2F4B     		ldr	r3, .L206+20
 981 053a 0122     		movs	r2, #1
 982 053c 5A62     		str	r2, [r3, #36]
 983              		.loc 1 408 0 discriminator 15
 984 053e 2E4B     		ldr	r3, .L206+20
 985 0540 2E4A     		ldr	r2, .L206+24
 986 0542 1A60     		str	r2, [r3]
 987              		.loc 1 410 0 discriminator 15
 988 0544 2C48     		ldr	r0, .L206+20
 989 0546 FFF7FEFF 		bl	HAL_DFSDM_FilterGetState
 990 054a 0346     		mov	r3, r0
 991 054c 002B     		cmp	r3, #0
 992 054e 02D1     		bne	.L80
 993              		.loc 1 413 0
 994 0550 2948     		ldr	r0, .L206+20
 995 0552 00F03DFC 		bl	DFSDMx_FilterMspInit
 996              	.L80:
 997              		.loc 1 416 0
 998 0556 2848     		ldr	r0, .L206+20
 999 0558 FFF7FEFF 		bl	HAL_DFSDM_FilterInit
 1000 055c 0346     		mov	r3, r0
 1001 055e 002B     		cmp	r3, #0
 1002 0560 02D0     		beq	.L81
 1003              		.loc 1 418 0
 1004 0562 0123     		movs	r3, #1
 1005 0564 00F019BC 		b	.L65
 1006              	.L81:
 1007              		.loc 1 422 0
 1008 0568 2348     		ldr	r0, .L206+20
 1009 056a 2549     		ldr	r1, .L206+28
 1010 056c 0122     		movs	r2, #1
 1011 056e FFF7FEFF 		bl	HAL_DFSDM_FilterConfigRegChannel
 1012 0572 0346     		mov	r3, r0
 1013 0574 002B     		cmp	r3, #0
 1014 0576 00F00F84 		beq	.L82
 1015              		.loc 1 424 0
 1016 057a 0123     		movs	r3, #1
ARM GAS  /tmp/ccGf2LCS.s 			page 19


 1017 057c 00F00DBC 		b	.L65
 1018              	.L50:
 1019              		.loc 1 429 0
 1020 0580 009B     		ldr	r3, [sp]
 1021 0582 012B     		cmp	r3, #1
 1022 0584 40F20E82 		bls	.L83
 1023              		.loc 1 433 0
 1024 0588 164B     		ldr	r3, .L206
 1025 058a 0122     		movs	r2, #1
 1026 058c 1A71     		strb	r2, [r3, #4]
 1027              		.loc 1 434 0
 1028 058e 154B     		ldr	r3, .L206
 1029 0590 4FF08042 		mov	r2, #1073741824
 1030 0594 9A60     		str	r2, [r3, #8]
 1031              		.loc 1 436 0
 1032 0596 019B     		ldr	r3, [sp, #4]
 1033 0598 B3F5FA5F 		cmp	r3, #8000
 1034 059c 32D0     		beq	.L84
 1035              		.loc 1 436 0 is_stmt 0 discriminator 1
 1036 059e 019A     		ldr	r2, [sp, #4]
 1037 05a0 42F61133 		movw	r3, #11025
 1038 05a4 9A42     		cmp	r2, r3
 1039 05a6 1BD0     		beq	.L85
 1040              		.loc 1 436 0 discriminator 3
 1041 05a8 019B     		ldr	r3, [sp, #4]
 1042 05aa B3F57A5F 		cmp	r3, #16000
 1043 05ae 15D0     		beq	.L86
 1044              		.loc 1 436 0 discriminator 5
 1045 05b0 019A     		ldr	r2, [sp, #4]
 1046 05b2 45F22263 		movw	r3, #22050
 1047 05b6 9A42     		cmp	r2, r3
 1048 05b8 0ED0     		beq	.L87
 1049              		.loc 1 436 0 discriminator 7
 1050 05ba 019B     		ldr	r3, [sp, #4]
 1051 05bc B3F5FA4F 		cmp	r3, #32000
 1052 05c0 08D0     		beq	.L88
 1053              		.loc 1 436 0 discriminator 9
 1054 05c2 019A     		ldr	r2, [sp, #4]
 1055 05c4 4AF64443 		movw	r3, #44100
 1056 05c8 9A42     		cmp	r2, r3
 1057 05ca 01D1     		bne	.L89
 1058              		.loc 1 436 0 discriminator 11
 1059 05cc 0423     		movs	r3, #4
 1060 05ce 1AE0     		b	.L95
 1061              	.L89:
 1062              		.loc 1 436 0 discriminator 12
 1063 05d0 1023     		movs	r3, #16
 1064 05d2 18E0     		b	.L95
 1065              	.L88:
 1066              		.loc 1 436 0 discriminator 10
 1067 05d4 1823     		movs	r3, #24
 1068 05d6 16E0     		b	.L95
 1069              	.L87:
 1070              		.loc 1 436 0 discriminator 8
 1071 05d8 0423     		movs	r3, #4
 1072 05da 14E0     		b	.L95
 1073              	.L86:
ARM GAS  /tmp/ccGf2LCS.s 			page 20


 1074              		.loc 1 436 0 discriminator 6
 1075 05dc 1823     		movs	r3, #24
 1076 05de 12E0     		b	.L95
 1077              	.L85:
 1078              		.loc 1 436 0 discriminator 4
 1079 05e0 0423     		movs	r3, #4
 1080 05e2 10E0     		b	.L95
 1081              	.L207:
 1082              		.align	2
 1083              	.L206:
 1084 05e4 00000000 		.word	haudio_in_dfsdmchannel
 1085 05e8 A0600140 		.word	1073832096
 1086 05ec 00100240 		.word	1073876992
 1087 05f0 00080048 		.word	1207961600
 1088 05f4 00040048 		.word	1207960576
 1089 05f8 00000000 		.word	haudio_in_dfsdmfilter
 1090 05fc 00610140 		.word	1073832192
 1091 0600 20000500 		.word	327712
 1092              	.L84:
 1093              		.loc 1 436 0 discriminator 2
 1094 0604 3023     		movs	r3, #48
 1095              	.L95:
 1096              		.loc 1 436 0 discriminator 13
 1097 0606 9F4A     		ldr	r2, .L208
 1098 0608 D360     		str	r3, [r2, #12]
 1099              		.loc 1 437 0 is_stmt 1 discriminator 13
 1100 060a 9E4B     		ldr	r3, .L208
 1101 060c 0022     		movs	r2, #0
 1102 060e 1A61     		str	r2, [r3, #16]
 1103              		.loc 1 438 0 discriminator 13
 1104 0610 9C4B     		ldr	r3, .L208
 1105 0612 0022     		movs	r2, #0
 1106 0614 5A61     		str	r2, [r3, #20]
 1107              		.loc 1 439 0 discriminator 13
 1108 0616 9B4B     		ldr	r3, .L208
 1109 0618 0022     		movs	r2, #0
 1110 061a 9A61     		str	r2, [r3, #24]
 1111              		.loc 1 440 0 discriminator 13
 1112 061c 994B     		ldr	r3, .L208
 1113 061e 0022     		movs	r2, #0
 1114 0620 DA61     		str	r2, [r3, #28]
 1115              		.loc 1 441 0 discriminator 13
 1116 0622 984B     		ldr	r3, .L208
 1117 0624 0422     		movs	r2, #4
 1118 0626 1A62     		str	r2, [r3, #32]
 1119              		.loc 1 442 0 discriminator 13
 1120 0628 964B     		ldr	r3, .L208
 1121 062a 4FF48002 		mov	r2, #4194304
 1122 062e 5A62     		str	r2, [r3, #36]
 1123              		.loc 1 443 0 discriminator 13
 1124 0630 944B     		ldr	r3, .L208
 1125 0632 0A22     		movs	r2, #10
 1126 0634 9A62     		str	r2, [r3, #40]
 1127              		.loc 1 444 0 discriminator 13
 1128 0636 934B     		ldr	r3, .L208
 1129 0638 0022     		movs	r2, #0
 1130 063a DA62     		str	r2, [r3, #44]
ARM GAS  /tmp/ccGf2LCS.s 			page 21


 1131              		.loc 1 445 0 discriminator 13
 1132 063c BDF86620 		ldrh	r2, [sp, #102]
 1133 0640 904B     		ldr	r3, .L208
 1134 0642 1A63     		str	r2, [r3, #48]
 1135              		.loc 1 446 0 discriminator 13
 1136 0644 8F4B     		ldr	r3, .L208
 1137 0646 904A     		ldr	r2, .L208+4
 1138 0648 1A60     		str	r2, [r3]
 1139              		.loc 1 448 0 discriminator 13
 1140 064a 8E48     		ldr	r0, .L208
 1141 064c FFF7FEFF 		bl	HAL_DFSDM_ChannelGetState
 1142 0650 0346     		mov	r3, r0
 1143 0652 002B     		cmp	r3, #0
 1144 0654 42D1     		bne	.L96
 1145              	.LBB6:
 1146              	.LBB7:
 1147              		.loc 1 454 0
 1148 0656 8D4B     		ldr	r3, .L208+8
 1149 0658 8C4A     		ldr	r2, .L208+8
 1150 065a 126E     		ldr	r2, [r2, #96]
 1151 065c 42F08072 		orr	r2, r2, #16777216
 1152 0660 1A66     		str	r2, [r3, #96]
 1153 0662 8A4B     		ldr	r3, .L208+8
 1154 0664 1B6E     		ldr	r3, [r3, #96]
 1155 0666 03F08073 		and	r3, r3, #16777216
 1156 066a 0A93     		str	r3, [sp, #40]
 1157 066c 0A9B     		ldr	r3, [sp, #40]
 1158              	.LBE7:
 1159              	.LBB8:
 1160              		.loc 1 456 0
 1161 066e 874B     		ldr	r3, .L208+8
 1162 0670 864A     		ldr	r2, .L208+8
 1163 0672 D26C     		ldr	r2, [r2, #76]
 1164 0674 42F00402 		orr	r2, r2, #4
 1165 0678 DA64     		str	r2, [r3, #76]
 1166 067a 844B     		ldr	r3, .L208+8
 1167 067c DB6C     		ldr	r3, [r3, #76]
 1168 067e 03F00403 		and	r3, r3, #4
 1169 0682 0993     		str	r3, [sp, #36]
 1170 0684 099B     		ldr	r3, [sp, #36]
 1171              	.LBE8:
 1172              	.LBB9:
 1173              		.loc 1 457 0
 1174 0686 814B     		ldr	r3, .L208+8
 1175 0688 804A     		ldr	r2, .L208+8
 1176 068a D26C     		ldr	r2, [r2, #76]
 1177 068c 42F00202 		orr	r2, r2, #2
 1178 0690 DA64     		str	r2, [r3, #76]
 1179 0692 7E4B     		ldr	r3, .L208+8
 1180 0694 DB6C     		ldr	r3, [r3, #76]
 1181 0696 03F00203 		and	r3, r3, #2
 1182 069a 0893     		str	r3, [sp, #32]
 1183 069c 089B     		ldr	r3, [sp, #32]
 1184              	.LBE9:
 1185              		.loc 1 460 0
 1186 069e 0423     		movs	r3, #4
 1187 06a0 0B93     		str	r3, [sp, #44]
ARM GAS  /tmp/ccGf2LCS.s 			page 22


 1188              		.loc 1 461 0
 1189 06a2 0223     		movs	r3, #2
 1190 06a4 0C93     		str	r3, [sp, #48]
 1191              		.loc 1 462 0
 1192 06a6 0023     		movs	r3, #0
 1193 06a8 0D93     		str	r3, [sp, #52]
 1194              		.loc 1 463 0
 1195 06aa 0323     		movs	r3, #3
 1196 06ac 0E93     		str	r3, [sp, #56]
 1197              		.loc 1 464 0
 1198 06ae 0623     		movs	r3, #6
 1199 06b0 0F93     		str	r3, [sp, #60]
 1200              		.loc 1 465 0
 1201 06b2 0BAB     		add	r3, sp, #44
 1202 06b4 7648     		ldr	r0, .L208+12
 1203 06b6 1946     		mov	r1, r3
 1204 06b8 FFF7FEFF 		bl	HAL_GPIO_Init
 1205              		.loc 1 467 0
 1206 06bc 4FF48073 		mov	r3, #256
 1207 06c0 0B93     		str	r3, [sp, #44]
 1208              		.loc 1 468 0
 1209 06c2 0223     		movs	r3, #2
 1210 06c4 0C93     		str	r3, [sp, #48]
 1211              		.loc 1 469 0
 1212 06c6 0023     		movs	r3, #0
 1213 06c8 0D93     		str	r3, [sp, #52]
 1214              		.loc 1 470 0
 1215 06ca 0323     		movs	r3, #3
 1216 06cc 0E93     		str	r3, [sp, #56]
 1217              		.loc 1 471 0
 1218 06ce 0623     		movs	r3, #6
 1219 06d0 0F93     		str	r3, [sp, #60]
 1220              		.loc 1 472 0
 1221 06d2 0BAB     		add	r3, sp, #44
 1222 06d4 6F48     		ldr	r0, .L208+16
 1223 06d6 1946     		mov	r1, r3
 1224 06d8 FFF7FEFF 		bl	HAL_GPIO_Init
 1225              	.L96:
 1226              	.LBE6:
 1227              		.loc 1 475 0
 1228 06dc 6948     		ldr	r0, .L208
 1229 06de FFF7FEFF 		bl	HAL_DFSDM_ChannelInit
 1230 06e2 0346     		mov	r3, r0
 1231 06e4 002B     		cmp	r3, #0
 1232 06e6 01D0     		beq	.L97
 1233              		.loc 1 477 0
 1234 06e8 0123     		movs	r3, #1
 1235 06ea 56E3     		b	.L65
 1236              	.L97:
 1237              		.loc 1 481 0
 1238 06ec 6A4B     		ldr	r3, .L208+20
 1239 06ee 0022     		movs	r2, #0
 1240 06f0 5A60     		str	r2, [r3, #4]
 1241              		.loc 1 482 0
 1242 06f2 694B     		ldr	r3, .L208+20
 1243 06f4 0122     		movs	r2, #1
 1244 06f6 1A72     		strb	r2, [r3, #8]
ARM GAS  /tmp/ccGf2LCS.s 			page 23


 1245              		.loc 1 483 0
 1246 06f8 674B     		ldr	r3, .L208+20
 1247 06fa 0122     		movs	r2, #1
 1248 06fc 5A72     		strb	r2, [r3, #9]
 1249              		.loc 1 484 0
 1250 06fe 664B     		ldr	r3, .L208+20
 1251 0700 0022     		movs	r2, #0
 1252 0702 DA60     		str	r2, [r3, #12]
 1253              		.loc 1 485 0
 1254 0704 644B     		ldr	r3, .L208+20
 1255 0706 0022     		movs	r2, #0
 1256 0708 1A74     		strb	r2, [r3, #16]
 1257              		.loc 1 486 0
 1258 070a 634B     		ldr	r3, .L208+20
 1259 070c 0022     		movs	r2, #0
 1260 070e 5A74     		strb	r2, [r3, #17]
 1261              		.loc 1 487 0
 1262 0710 614B     		ldr	r3, .L208+20
 1263 0712 4FF40072 		mov	r2, #512
 1264 0716 5A61     		str	r2, [r3, #20]
 1265              		.loc 1 488 0
 1266 0718 5F4B     		ldr	r3, .L208+20
 1267 071a 4FF4C042 		mov	r2, #24576
 1268 071e 9A61     		str	r2, [r3, #24]
 1269              		.loc 1 489 0
 1270 0720 5D4B     		ldr	r3, .L208+20
 1271 0722 189A     		ldr	r2, [sp, #96]
 1272 0724 DA61     		str	r2, [r3, #28]
 1273              		.loc 1 491 0
 1274 0726 019B     		ldr	r3, [sp, #4]
 1275 0728 B3F5FA5F 		cmp	r3, #8000
 1276 072c 2AD0     		beq	.L98
 1277              		.loc 1 491 0 is_stmt 0 discriminator 1
 1278 072e 019A     		ldr	r2, [sp, #4]
 1279 0730 42F61133 		movw	r3, #11025
 1280 0734 9A42     		cmp	r2, r3
 1281 0736 22D0     		beq	.L99
 1282              		.loc 1 491 0 discriminator 3
 1283 0738 019B     		ldr	r3, [sp, #4]
 1284 073a B3F57A5F 		cmp	r3, #16000
 1285 073e 1CD0     		beq	.L100
 1286              		.loc 1 491 0 discriminator 5
 1287 0740 019A     		ldr	r2, [sp, #4]
 1288 0742 45F22263 		movw	r3, #22050
 1289 0746 9A42     		cmp	r2, r3
 1290 0748 15D0     		beq	.L101
 1291              		.loc 1 491 0 discriminator 7
 1292 074a 019B     		ldr	r3, [sp, #4]
 1293 074c B3F5FA4F 		cmp	r3, #32000
 1294 0750 0FD0     		beq	.L102
 1295              		.loc 1 491 0 discriminator 9
 1296 0752 019A     		ldr	r2, [sp, #4]
 1297 0754 4AF64443 		movw	r3, #44100
 1298 0758 9A42     		cmp	r2, r3
 1299 075a 08D0     		beq	.L103
 1300              		.loc 1 491 0 discriminator 11
 1301 075c 019A     		ldr	r2, [sp, #4]
ARM GAS  /tmp/ccGf2LCS.s 			page 24


 1302 075e 4BF68033 		movw	r3, #48000
 1303 0762 9A42     		cmp	r2, r3
 1304 0764 01D1     		bne	.L104
 1305              		.loc 1 491 0 discriminator 13
 1306 0766 4023     		movs	r3, #64
 1307 0768 0DE0     		b	.L111
 1308              	.L104:
 1309              		.loc 1 491 0 discriminator 14
 1310 076a 2023     		movs	r3, #32
 1311 076c 0BE0     		b	.L111
 1312              	.L103:
 1313              		.loc 1 491 0 discriminator 12
 1314 076e 4023     		movs	r3, #64
 1315 0770 09E0     		b	.L111
 1316              	.L102:
 1317              		.loc 1 491 0 discriminator 10
 1318 0772 4023     		movs	r3, #64
 1319 0774 07E0     		b	.L111
 1320              	.L101:
 1321              		.loc 1 491 0 discriminator 8
 1322 0776 8023     		movs	r3, #128
 1323 0778 05E0     		b	.L111
 1324              	.L100:
 1325              		.loc 1 491 0 discriminator 6
 1326 077a 8023     		movs	r3, #128
 1327 077c 03E0     		b	.L111
 1328              	.L99:
 1329              		.loc 1 491 0 discriminator 4
 1330 077e 4FF48073 		mov	r3, #256
 1331 0782 00E0     		b	.L111
 1332              	.L98:
 1333              		.loc 1 491 0 discriminator 2
 1334 0784 8023     		movs	r3, #128
 1335              	.L111:
 1336              		.loc 1 491 0 discriminator 15
 1337 0786 444A     		ldr	r2, .L208+20
 1338 0788 1362     		str	r3, [r2, #32]
 1339              		.loc 1 492 0 is_stmt 1 discriminator 15
 1340 078a 434B     		ldr	r3, .L208+20
 1341 078c 0122     		movs	r2, #1
 1342 078e 5A62     		str	r2, [r3, #36]
 1343              		.loc 1 493 0 discriminator 15
 1344 0790 414B     		ldr	r3, .L208+20
 1345 0792 424A     		ldr	r2, .L208+24
 1346 0794 1A60     		str	r2, [r3]
 1347              		.loc 1 495 0 discriminator 15
 1348 0796 4048     		ldr	r0, .L208+20
 1349 0798 FFF7FEFF 		bl	HAL_DFSDM_FilterGetState
 1350 079c 0346     		mov	r3, r0
 1351 079e 002B     		cmp	r3, #0
 1352 07a0 02D1     		bne	.L112
 1353              		.loc 1 498 0
 1354 07a2 3D48     		ldr	r0, .L208+20
 1355 07a4 00F014FB 		bl	DFSDMx_FilterMspInit
 1356              	.L112:
 1357              		.loc 1 501 0
 1358 07a8 3B48     		ldr	r0, .L208+20
ARM GAS  /tmp/ccGf2LCS.s 			page 25


 1359 07aa FFF7FEFF 		bl	HAL_DFSDM_FilterInit
 1360 07ae 0346     		mov	r3, r0
 1361 07b0 002B     		cmp	r3, #0
 1362 07b2 01D0     		beq	.L113
 1363              		.loc 1 503 0
 1364 07b4 0123     		movs	r3, #1
 1365 07b6 F0E2     		b	.L65
 1366              	.L113:
 1367              		.loc 1 507 0
 1368 07b8 3748     		ldr	r0, .L208+20
 1369 07ba 3949     		ldr	r1, .L208+28
 1370 07bc 0122     		movs	r2, #1
 1371 07be FFF7FEFF 		bl	HAL_DFSDM_FilterConfigRegChannel
 1372 07c2 0346     		mov	r3, r0
 1373 07c4 002B     		cmp	r3, #0
 1374 07c6 01D0     		beq	.L114
 1375              		.loc 1 509 0
 1376 07c8 0123     		movs	r3, #1
 1377 07ca E6E2     		b	.L65
 1378              	.L114:
 1379              		.loc 1 513 0
 1380 07cc 2D4B     		ldr	r3, .L208
 1381 07ce 0122     		movs	r2, #1
 1382 07d0 83F83C20 		strb	r2, [r3, #60]
 1383              		.loc 1 514 0
 1384 07d4 2B4B     		ldr	r3, .L208
 1385 07d6 4FF08042 		mov	r2, #1073741824
 1386 07da 1A64     		str	r2, [r3, #64]
 1387              		.loc 1 516 0
 1388 07dc 019B     		ldr	r3, [sp, #4]
 1389 07de B3F5FA5F 		cmp	r3, #8000
 1390 07e2 22D0     		beq	.L115
 1391              		.loc 1 516 0 is_stmt 0 discriminator 1
 1392 07e4 019A     		ldr	r2, [sp, #4]
 1393 07e6 42F61133 		movw	r3, #11025
 1394 07ea 9A42     		cmp	r2, r3
 1395 07ec 1BD0     		beq	.L116
 1396              		.loc 1 516 0 discriminator 3
 1397 07ee 019B     		ldr	r3, [sp, #4]
 1398 07f0 B3F57A5F 		cmp	r3, #16000
 1399 07f4 15D0     		beq	.L117
 1400              		.loc 1 516 0 discriminator 5
 1401 07f6 019A     		ldr	r2, [sp, #4]
 1402 07f8 45F22263 		movw	r3, #22050
 1403 07fc 9A42     		cmp	r2, r3
 1404 07fe 0ED0     		beq	.L118
 1405              		.loc 1 516 0 discriminator 7
 1406 0800 019B     		ldr	r3, [sp, #4]
 1407 0802 B3F5FA4F 		cmp	r3, #32000
 1408 0806 08D0     		beq	.L119
 1409              		.loc 1 516 0 discriminator 9
 1410 0808 019A     		ldr	r2, [sp, #4]
 1411 080a 4AF64443 		movw	r3, #44100
 1412 080e 9A42     		cmp	r2, r3
 1413 0810 01D1     		bne	.L120
 1414              		.loc 1 516 0 discriminator 11
 1415 0812 0423     		movs	r3, #4
ARM GAS  /tmp/ccGf2LCS.s 			page 26


 1416 0814 0AE0     		b	.L126
 1417              	.L120:
 1418              		.loc 1 516 0 discriminator 12
 1419 0816 1023     		movs	r3, #16
 1420 0818 08E0     		b	.L126
 1421              	.L119:
 1422              		.loc 1 516 0 discriminator 10
 1423 081a 1823     		movs	r3, #24
 1424 081c 06E0     		b	.L126
 1425              	.L118:
 1426              		.loc 1 516 0 discriminator 8
 1427 081e 0423     		movs	r3, #4
 1428 0820 04E0     		b	.L126
 1429              	.L117:
 1430              		.loc 1 516 0 discriminator 6
 1431 0822 1823     		movs	r3, #24
 1432 0824 02E0     		b	.L126
 1433              	.L116:
 1434              		.loc 1 516 0 discriminator 4
 1435 0826 0423     		movs	r3, #4
 1436 0828 00E0     		b	.L126
 1437              	.L115:
 1438              		.loc 1 516 0 discriminator 2
 1439 082a 3023     		movs	r3, #48
 1440              	.L126:
 1441              		.loc 1 516 0 discriminator 13
 1442 082c 154A     		ldr	r2, .L208
 1443 082e 5364     		str	r3, [r2, #68]
 1444              		.loc 1 517 0 is_stmt 1 discriminator 13
 1445 0830 144B     		ldr	r3, .L208
 1446 0832 0022     		movs	r2, #0
 1447 0834 9A64     		str	r2, [r3, #72]
 1448              		.loc 1 518 0 discriminator 13
 1449 0836 134B     		ldr	r3, .L208
 1450 0838 0022     		movs	r2, #0
 1451 083a DA64     		str	r2, [r3, #76]
 1452              		.loc 1 519 0 discriminator 13
 1453 083c 114B     		ldr	r3, .L208
 1454 083e 4FF48072 		mov	r2, #256
 1455 0842 1A65     		str	r2, [r3, #80]
 1456              		.loc 1 520 0 discriminator 13
 1457 0844 0F4B     		ldr	r3, .L208
 1458 0846 0122     		movs	r2, #1
 1459 0848 5A65     		str	r2, [r3, #84]
 1460              		.loc 1 521 0 discriminator 13
 1461 084a 0E4B     		ldr	r3, .L208
 1462 084c 0422     		movs	r2, #4
 1463 084e 9A65     		str	r2, [r3, #88]
 1464              		.loc 1 522 0 discriminator 13
 1465 0850 0C4B     		ldr	r3, .L208
 1466 0852 4FF48002 		mov	r2, #4194304
 1467 0856 DA65     		str	r2, [r3, #92]
 1468              		.loc 1 523 0 discriminator 13
 1469 0858 0A4B     		ldr	r3, .L208
 1470 085a 0A22     		movs	r2, #10
 1471 085c 1A66     		str	r2, [r3, #96]
 1472              		.loc 1 524 0 discriminator 13
ARM GAS  /tmp/ccGf2LCS.s 			page 27


 1473 085e 094B     		ldr	r3, .L208
 1474 0860 0022     		movs	r2, #0
 1475 0862 5A66     		str	r2, [r3, #100]
 1476              		.loc 1 525 0 discriminator 13
 1477 0864 BDF86620 		ldrh	r2, [sp, #102]
 1478 0868 064B     		ldr	r3, .L208
 1479 086a 9A66     		str	r2, [r3, #104]
 1480              		.loc 1 526 0 discriminator 13
 1481 086c 054B     		ldr	r3, .L208
 1482 086e 0D4A     		ldr	r2, .L208+32
 1483 0870 9A63     		str	r2, [r3, #56]
 1484              		.loc 1 529 0 discriminator 13
 1485 0872 0D48     		ldr	r0, .L208+36
 1486 0874 FFF7FEFF 		bl	HAL_DFSDM_ChannelInit
 1487 0878 0346     		mov	r3, r0
 1488 087a 002B     		cmp	r3, #0
 1489 087c 16D0     		beq	.L127
 1490              		.loc 1 531 0
 1491 087e 0123     		movs	r3, #1
 1492 0880 8BE2     		b	.L65
 1493              	.L209:
 1494 0882 00BF     		.align	2
 1495              	.L208:
 1496 0884 00000000 		.word	haudio_in_dfsdmchannel
 1497 0888 C0600140 		.word	1073832128
 1498 088c 00100240 		.word	1073876992
 1499 0890 00080048 		.word	1207961600
 1500 0894 00040048 		.word	1207960576
 1501 0898 00000000 		.word	haudio_in_dfsdmfilter
 1502 089c 00610140 		.word	1073832192
 1503 08a0 40000600 		.word	393280
 1504 08a4 A0600140 		.word	1073832096
 1505 08a8 38000000 		.word	haudio_in_dfsdmchannel+56
 1506              	.L127:
 1507              		.loc 1 534 0
 1508 08ac AC4B     		ldr	r3, .L210
 1509 08ae 0122     		movs	r2, #1
 1510 08b0 9A65     		str	r2, [r3, #88]
 1511              		.loc 1 535 0
 1512 08b2 AB4B     		ldr	r3, .L210
 1513 08b4 0122     		movs	r2, #1
 1514 08b6 83F85C20 		strb	r2, [r3, #92]
 1515              		.loc 1 536 0
 1516 08ba A94B     		ldr	r3, .L210
 1517 08bc 0122     		movs	r2, #1
 1518 08be 83F85D20 		strb	r2, [r3, #93]
 1519              		.loc 1 537 0
 1520 08c2 A74B     		ldr	r3, .L210
 1521 08c4 0022     		movs	r2, #0
 1522 08c6 1A66     		str	r2, [r3, #96]
 1523              		.loc 1 538 0
 1524 08c8 A54B     		ldr	r3, .L210
 1525 08ca 0122     		movs	r2, #1
 1526 08cc 83F86420 		strb	r2, [r3, #100]
 1527              		.loc 1 539 0
 1528 08d0 A34B     		ldr	r3, .L210
 1529 08d2 0122     		movs	r2, #1
ARM GAS  /tmp/ccGf2LCS.s 			page 28


 1530 08d4 83F86520 		strb	r2, [r3, #101]
 1531              		.loc 1 540 0
 1532 08d8 A14B     		ldr	r3, .L210
 1533 08da 4FF40072 		mov	r2, #512
 1534 08de 9A66     		str	r2, [r3, #104]
 1535              		.loc 1 541 0
 1536 08e0 009B     		ldr	r3, [sp]
 1537 08e2 012B     		cmp	r3, #1
 1538 08e4 04D1     		bne	.L128
 1539              		.loc 1 543 0
 1540 08e6 9E4B     		ldr	r3, .L210
 1541 08e8 4FF40052 		mov	r2, #8192
 1542 08ec DA66     		str	r2, [r3, #108]
 1543 08ee 03E0     		b	.L129
 1544              	.L128:
 1545              		.loc 1 547 0
 1546 08f0 9B4B     		ldr	r3, .L210
 1547 08f2 4FF4C042 		mov	r2, #24576
 1548 08f6 DA66     		str	r2, [r3, #108]
 1549              	.L129:
 1550              		.loc 1 549 0
 1551 08f8 994B     		ldr	r3, .L210
 1552 08fa 189A     		ldr	r2, [sp, #96]
 1553 08fc 1A67     		str	r2, [r3, #112]
 1554              		.loc 1 551 0
 1555 08fe 019B     		ldr	r3, [sp, #4]
 1556 0900 B3F5FA5F 		cmp	r3, #8000
 1557 0904 2AD0     		beq	.L130
 1558              		.loc 1 551 0 is_stmt 0 discriminator 1
 1559 0906 019A     		ldr	r2, [sp, #4]
 1560 0908 42F61133 		movw	r3, #11025
 1561 090c 9A42     		cmp	r2, r3
 1562 090e 22D0     		beq	.L131
 1563              		.loc 1 551 0 discriminator 3
 1564 0910 019B     		ldr	r3, [sp, #4]
 1565 0912 B3F57A5F 		cmp	r3, #16000
 1566 0916 1CD0     		beq	.L132
 1567              		.loc 1 551 0 discriminator 5
 1568 0918 019A     		ldr	r2, [sp, #4]
 1569 091a 45F22263 		movw	r3, #22050
 1570 091e 9A42     		cmp	r2, r3
 1571 0920 15D0     		beq	.L133
 1572              		.loc 1 551 0 discriminator 7
 1573 0922 019B     		ldr	r3, [sp, #4]
 1574 0924 B3F5FA4F 		cmp	r3, #32000
 1575 0928 0FD0     		beq	.L134
 1576              		.loc 1 551 0 discriminator 9
 1577 092a 019A     		ldr	r2, [sp, #4]
 1578 092c 4AF64443 		movw	r3, #44100
 1579 0930 9A42     		cmp	r2, r3
 1580 0932 08D0     		beq	.L135
 1581              		.loc 1 551 0 discriminator 11
 1582 0934 019A     		ldr	r2, [sp, #4]
 1583 0936 4BF68033 		movw	r3, #48000
 1584 093a 9A42     		cmp	r2, r3
 1585 093c 01D1     		bne	.L136
 1586              		.loc 1 551 0 discriminator 13
ARM GAS  /tmp/ccGf2LCS.s 			page 29


 1587 093e 4023     		movs	r3, #64
 1588 0940 0DE0     		b	.L143
 1589              	.L136:
 1590              		.loc 1 551 0 discriminator 14
 1591 0942 2023     		movs	r3, #32
 1592 0944 0BE0     		b	.L143
 1593              	.L135:
 1594              		.loc 1 551 0 discriminator 12
 1595 0946 4023     		movs	r3, #64
 1596 0948 09E0     		b	.L143
 1597              	.L134:
 1598              		.loc 1 551 0 discriminator 10
 1599 094a 4023     		movs	r3, #64
 1600 094c 07E0     		b	.L143
 1601              	.L133:
 1602              		.loc 1 551 0 discriminator 8
 1603 094e 8023     		movs	r3, #128
 1604 0950 05E0     		b	.L143
 1605              	.L132:
 1606              		.loc 1 551 0 discriminator 6
 1607 0952 8023     		movs	r3, #128
 1608 0954 03E0     		b	.L143
 1609              	.L131:
 1610              		.loc 1 551 0 discriminator 4
 1611 0956 4FF48073 		mov	r3, #256
 1612 095a 00E0     		b	.L143
 1613              	.L130:
 1614              		.loc 1 551 0 discriminator 2
 1615 095c 8023     		movs	r3, #128
 1616              	.L143:
 1617              		.loc 1 551 0 discriminator 15
 1618 095e 804A     		ldr	r2, .L210
 1619 0960 5367     		str	r3, [r2, #116]
 1620              		.loc 1 552 0 is_stmt 1 discriminator 15
 1621 0962 7F4B     		ldr	r3, .L210
 1622 0964 0122     		movs	r2, #1
 1623 0966 9A67     		str	r2, [r3, #120]
 1624              		.loc 1 553 0 discriminator 15
 1625 0968 7D4B     		ldr	r3, .L210
 1626 096a 7E4A     		ldr	r2, .L210+4
 1627 096c 5A65     		str	r2, [r3, #84]
 1628              		.loc 1 555 0 discriminator 15
 1629 096e 7E48     		ldr	r0, .L210+8
 1630 0970 FFF7FEFF 		bl	HAL_DFSDM_FilterGetState
 1631 0974 0346     		mov	r3, r0
 1632 0976 002B     		cmp	r3, #0
 1633 0978 02D1     		bne	.L144
 1634              		.loc 1 558 0
 1635 097a 7B48     		ldr	r0, .L210+8
 1636 097c 00F028FA 		bl	DFSDMx_FilterMspInit
 1637              	.L144:
 1638              		.loc 1 561 0
 1639 0980 7948     		ldr	r0, .L210+8
 1640 0982 FFF7FEFF 		bl	HAL_DFSDM_FilterInit
 1641 0986 0346     		mov	r3, r0
 1642 0988 002B     		cmp	r3, #0
 1643 098a 01D0     		beq	.L145
ARM GAS  /tmp/ccGf2LCS.s 			page 30


 1644              		.loc 1 563 0
 1645 098c 0123     		movs	r3, #1
 1646 098e 04E2     		b	.L65
 1647              	.L145:
 1648              		.loc 1 567 0
 1649 0990 7548     		ldr	r0, .L210+8
 1650 0992 7649     		ldr	r1, .L210+12
 1651 0994 0122     		movs	r2, #1
 1652 0996 FFF7FEFF 		bl	HAL_DFSDM_FilterConfigRegChannel
 1653 099a 0346     		mov	r3, r0
 1654 099c 002B     		cmp	r3, #0
 1655 099e 01D0     		beq	.L83
 1656              		.loc 1 569 0
 1657 09a0 0123     		movs	r3, #1
 1658 09a2 FAE1     		b	.L65
 1659              	.L83:
 1660              		.loc 1 573 0
 1661 09a4 009B     		ldr	r3, [sp]
 1662 09a6 032B     		cmp	r3, #3
 1663 09a8 40F2F681 		bls	.L82
 1664              		.loc 1 576 0
 1665 09ac 704B     		ldr	r3, .L210+16
 1666 09ae 0122     		movs	r2, #1
 1667 09b0 83F87420 		strb	r2, [r3, #116]
 1668              		.loc 1 577 0
 1669 09b4 6E4B     		ldr	r3, .L210+16
 1670 09b6 4FF08042 		mov	r2, #1073741824
 1671 09ba 9A67     		str	r2, [r3, #120]
 1672              		.loc 1 579 0
 1673 09bc 019B     		ldr	r3, [sp, #4]
 1674 09be B3F5FA5F 		cmp	r3, #8000
 1675 09c2 22D0     		beq	.L146
 1676              		.loc 1 579 0 is_stmt 0 discriminator 1
 1677 09c4 019A     		ldr	r2, [sp, #4]
 1678 09c6 42F61133 		movw	r3, #11025
 1679 09ca 9A42     		cmp	r2, r3
 1680 09cc 1BD0     		beq	.L147
 1681              		.loc 1 579 0 discriminator 3
 1682 09ce 019B     		ldr	r3, [sp, #4]
 1683 09d0 B3F57A5F 		cmp	r3, #16000
 1684 09d4 15D0     		beq	.L148
 1685              		.loc 1 579 0 discriminator 5
 1686 09d6 019A     		ldr	r2, [sp, #4]
 1687 09d8 45F22263 		movw	r3, #22050
 1688 09dc 9A42     		cmp	r2, r3
 1689 09de 0ED0     		beq	.L149
 1690              		.loc 1 579 0 discriminator 7
 1691 09e0 019B     		ldr	r3, [sp, #4]
 1692 09e2 B3F5FA4F 		cmp	r3, #32000
 1693 09e6 08D0     		beq	.L150
 1694              		.loc 1 579 0 discriminator 9
 1695 09e8 019A     		ldr	r2, [sp, #4]
 1696 09ea 4AF64443 		movw	r3, #44100
 1697 09ee 9A42     		cmp	r2, r3
 1698 09f0 01D1     		bne	.L151
 1699              		.loc 1 579 0 discriminator 11
 1700 09f2 0423     		movs	r3, #4
ARM GAS  /tmp/ccGf2LCS.s 			page 31


 1701 09f4 0AE0     		b	.L157
 1702              	.L151:
 1703              		.loc 1 579 0 discriminator 12
 1704 09f6 1023     		movs	r3, #16
 1705 09f8 08E0     		b	.L157
 1706              	.L150:
 1707              		.loc 1 579 0 discriminator 10
 1708 09fa 1823     		movs	r3, #24
 1709 09fc 06E0     		b	.L157
 1710              	.L149:
 1711              		.loc 1 579 0 discriminator 8
 1712 09fe 0423     		movs	r3, #4
 1713 0a00 04E0     		b	.L157
 1714              	.L148:
 1715              		.loc 1 579 0 discriminator 6
 1716 0a02 1823     		movs	r3, #24
 1717 0a04 02E0     		b	.L157
 1718              	.L147:
 1719              		.loc 1 579 0 discriminator 4
 1720 0a06 0423     		movs	r3, #4
 1721 0a08 00E0     		b	.L157
 1722              	.L146:
 1723              		.loc 1 579 0 discriminator 2
 1724 0a0a 3023     		movs	r3, #48
 1725              	.L157:
 1726              		.loc 1 579 0 discriminator 13
 1727 0a0c 584A     		ldr	r2, .L210+16
 1728 0a0e D367     		str	r3, [r2, #124]
 1729              		.loc 1 580 0 is_stmt 1 discriminator 13
 1730 0a10 574B     		ldr	r3, .L210+16
 1731 0a12 0022     		movs	r2, #0
 1732 0a14 C3F88020 		str	r2, [r3, #128]
 1733              		.loc 1 581 0 discriminator 13
 1734 0a18 554B     		ldr	r3, .L210+16
 1735 0a1a 0022     		movs	r2, #0
 1736 0a1c C3F88420 		str	r2, [r3, #132]
 1737              		.loc 1 582 0 discriminator 13
 1738 0a20 534B     		ldr	r3, .L210+16
 1739 0a22 0022     		movs	r2, #0
 1740 0a24 C3F88820 		str	r2, [r3, #136]
 1741              		.loc 1 583 0 discriminator 13
 1742 0a28 514B     		ldr	r3, .L210+16
 1743 0a2a 0022     		movs	r2, #0
 1744 0a2c C3F88C20 		str	r2, [r3, #140]
 1745              		.loc 1 584 0 discriminator 13
 1746 0a30 4F4B     		ldr	r3, .L210+16
 1747 0a32 0422     		movs	r2, #4
 1748 0a34 C3F89020 		str	r2, [r3, #144]
 1749              		.loc 1 585 0 discriminator 13
 1750 0a38 4D4B     		ldr	r3, .L210+16
 1751 0a3a 4FF48002 		mov	r2, #4194304
 1752 0a3e C3F89420 		str	r2, [r3, #148]
 1753              		.loc 1 586 0 discriminator 13
 1754 0a42 4B4B     		ldr	r3, .L210+16
 1755 0a44 0A22     		movs	r2, #10
 1756 0a46 C3F89820 		str	r2, [r3, #152]
 1757              		.loc 1 587 0 discriminator 13
ARM GAS  /tmp/ccGf2LCS.s 			page 32


 1758 0a4a 494B     		ldr	r3, .L210+16
 1759 0a4c 0022     		movs	r2, #0
 1760 0a4e C3F89C20 		str	r2, [r3, #156]
 1761              		.loc 1 588 0 discriminator 13
 1762 0a52 BDF86620 		ldrh	r2, [sp, #102]
 1763 0a56 464B     		ldr	r3, .L210+16
 1764 0a58 C3F8A020 		str	r2, [r3, #160]
 1765              		.loc 1 589 0 discriminator 13
 1766 0a5c 444B     		ldr	r3, .L210+16
 1767 0a5e 454A     		ldr	r2, .L210+20
 1768 0a60 1A67     		str	r2, [r3, #112]
 1769              		.loc 1 591 0 discriminator 13
 1770 0a62 4548     		ldr	r0, .L210+24
 1771 0a64 FFF7FEFF 		bl	HAL_DFSDM_ChannelGetState
 1772 0a68 0346     		mov	r3, r0
 1773 0a6a 002B     		cmp	r3, #0
 1774 0a6c 1AD1     		bne	.L158
 1775              	.LBB10:
 1776              	.LBB11:
 1777              		.loc 1 597 0
 1778 0a6e 434B     		ldr	r3, .L210+28
 1779 0a70 424A     		ldr	r2, .L210+28
 1780 0a72 D26C     		ldr	r2, [r2, #76]
 1781 0a74 42F00402 		orr	r2, r2, #4
 1782 0a78 DA64     		str	r2, [r3, #76]
 1783 0a7a 404B     		ldr	r3, .L210+28
 1784 0a7c DB6C     		ldr	r3, [r3, #76]
 1785 0a7e 03F00403 		and	r3, r3, #4
 1786 0a82 0293     		str	r3, [sp, #8]
 1787 0a84 029B     		ldr	r3, [sp, #8]
 1788              	.LBE11:
 1789              		.loc 1 599 0
 1790 0a86 0123     		movs	r3, #1
 1791 0a88 0393     		str	r3, [sp, #12]
 1792              		.loc 1 600 0
 1793 0a8a 0223     		movs	r3, #2
 1794 0a8c 0493     		str	r3, [sp, #16]
 1795              		.loc 1 601 0
 1796 0a8e 0023     		movs	r3, #0
 1797 0a90 0593     		str	r3, [sp, #20]
 1798              		.loc 1 602 0
 1799 0a92 0323     		movs	r3, #3
 1800 0a94 0693     		str	r3, [sp, #24]
 1801              		.loc 1 603 0
 1802 0a96 0623     		movs	r3, #6
 1803 0a98 0793     		str	r3, [sp, #28]
 1804              		.loc 1 604 0
 1805 0a9a 03AB     		add	r3, sp, #12
 1806 0a9c 3848     		ldr	r0, .L210+32
 1807 0a9e 1946     		mov	r1, r3
 1808 0aa0 FFF7FEFF 		bl	HAL_GPIO_Init
 1809              	.L158:
 1810              	.LBE10:
 1811              		.loc 1 608 0
 1812 0aa4 3448     		ldr	r0, .L210+24
 1813 0aa6 FFF7FEFF 		bl	HAL_DFSDM_ChannelInit
 1814 0aaa 0346     		mov	r3, r0
ARM GAS  /tmp/ccGf2LCS.s 			page 33


 1815 0aac 002B     		cmp	r3, #0
 1816 0aae 01D0     		beq	.L159
 1817              		.loc 1 610 0
 1818 0ab0 0123     		movs	r3, #1
 1819 0ab2 72E1     		b	.L65
 1820              	.L159:
 1821              		.loc 1 614 0
 1822 0ab4 2A4B     		ldr	r3, .L210
 1823 0ab6 0122     		movs	r2, #1
 1824 0ab8 C3F8AC20 		str	r2, [r3, #172]
 1825              		.loc 1 615 0
 1826 0abc 284B     		ldr	r3, .L210
 1827 0abe 0122     		movs	r2, #1
 1828 0ac0 83F8B020 		strb	r2, [r3, #176]
 1829              		.loc 1 616 0
 1830 0ac4 264B     		ldr	r3, .L210
 1831 0ac6 0122     		movs	r2, #1
 1832 0ac8 83F8B120 		strb	r2, [r3, #177]
 1833              		.loc 1 617 0
 1834 0acc 244B     		ldr	r3, .L210
 1835 0ace 0022     		movs	r2, #0
 1836 0ad0 C3F8B420 		str	r2, [r3, #180]
 1837              		.loc 1 618 0
 1838 0ad4 224B     		ldr	r3, .L210
 1839 0ad6 0022     		movs	r2, #0
 1840 0ad8 83F8B820 		strb	r2, [r3, #184]
 1841              		.loc 1 619 0
 1842 0adc 204B     		ldr	r3, .L210
 1843 0ade 0022     		movs	r2, #0
 1844 0ae0 83F8B920 		strb	r2, [r3, #185]
 1845              		.loc 1 620 0
 1846 0ae4 1E4B     		ldr	r3, .L210
 1847 0ae6 4FF40072 		mov	r2, #512
 1848 0aea C3F8BC20 		str	r2, [r3, #188]
 1849              		.loc 1 621 0
 1850 0aee 1C4B     		ldr	r3, .L210
 1851 0af0 4FF4C042 		mov	r2, #24576
 1852 0af4 C3F8C020 		str	r2, [r3, #192]
 1853              		.loc 1 622 0
 1854 0af8 194B     		ldr	r3, .L210
 1855 0afa 189A     		ldr	r2, [sp, #96]
 1856 0afc C3F8C420 		str	r2, [r3, #196]
 1857              		.loc 1 624 0
 1858 0b00 019B     		ldr	r3, [sp, #4]
 1859 0b02 B3F5FA5F 		cmp	r3, #8000
 1860 0b06 3DD0     		beq	.L160
 1861              		.loc 1 624 0 is_stmt 0 discriminator 1
 1862 0b08 019A     		ldr	r2, [sp, #4]
 1863 0b0a 42F61133 		movw	r3, #11025
 1864 0b0e 9A42     		cmp	r2, r3
 1865 0b10 22D0     		beq	.L161
 1866              		.loc 1 624 0 discriminator 3
 1867 0b12 019B     		ldr	r3, [sp, #4]
 1868 0b14 B3F57A5F 		cmp	r3, #16000
 1869 0b18 1CD0     		beq	.L162
 1870              		.loc 1 624 0 discriminator 5
 1871 0b1a 019A     		ldr	r2, [sp, #4]
ARM GAS  /tmp/ccGf2LCS.s 			page 34


 1872 0b1c 45F22263 		movw	r3, #22050
 1873 0b20 9A42     		cmp	r2, r3
 1874 0b22 15D0     		beq	.L163
 1875              		.loc 1 624 0 discriminator 7
 1876 0b24 019B     		ldr	r3, [sp, #4]
 1877 0b26 B3F5FA4F 		cmp	r3, #32000
 1878 0b2a 0FD0     		beq	.L164
 1879              		.loc 1 624 0 discriminator 9
 1880 0b2c 019A     		ldr	r2, [sp, #4]
 1881 0b2e 4AF64443 		movw	r3, #44100
 1882 0b32 9A42     		cmp	r2, r3
 1883 0b34 08D0     		beq	.L165
 1884              		.loc 1 624 0 discriminator 11
 1885 0b36 019A     		ldr	r2, [sp, #4]
 1886 0b38 4BF68033 		movw	r3, #48000
 1887 0b3c 9A42     		cmp	r2, r3
 1888 0b3e 01D1     		bne	.L166
 1889              		.loc 1 624 0 discriminator 13
 1890 0b40 4023     		movs	r3, #64
 1891 0b42 20E0     		b	.L173
 1892              	.L166:
 1893              		.loc 1 624 0 discriminator 14
 1894 0b44 2023     		movs	r3, #32
 1895 0b46 1EE0     		b	.L173
 1896              	.L165:
 1897              		.loc 1 624 0 discriminator 12
 1898 0b48 4023     		movs	r3, #64
 1899 0b4a 1CE0     		b	.L173
 1900              	.L164:
 1901              		.loc 1 624 0 discriminator 10
 1902 0b4c 4023     		movs	r3, #64
 1903 0b4e 1AE0     		b	.L173
 1904              	.L163:
 1905              		.loc 1 624 0 discriminator 8
 1906 0b50 8023     		movs	r3, #128
 1907 0b52 18E0     		b	.L173
 1908              	.L162:
 1909              		.loc 1 624 0 discriminator 6
 1910 0b54 8023     		movs	r3, #128
 1911 0b56 16E0     		b	.L173
 1912              	.L161:
 1913              		.loc 1 624 0 discriminator 4
 1914 0b58 4FF48073 		mov	r3, #256
 1915 0b5c 13E0     		b	.L173
 1916              	.L211:
 1917 0b5e 00BF     		.align	2
 1918              	.L210:
 1919 0b60 00000000 		.word	haudio_in_dfsdmfilter
 1920 0b64 80610140 		.word	1073832320
 1921 0b68 54000000 		.word	haudio_in_dfsdmfilter+84
 1922 0b6c 20000500 		.word	327712
 1923 0b70 00000000 		.word	haudio_in_dfsdmchannel
 1924 0b74 80600140 		.word	1073832064
 1925 0b78 70000000 		.word	haudio_in_dfsdmchannel+112
 1926 0b7c 00100240 		.word	1073876992
 1927 0b80 00080048 		.word	1207961600
 1928              	.L160:
ARM GAS  /tmp/ccGf2LCS.s 			page 35


 1929              		.loc 1 624 0 discriminator 2
 1930 0b84 8023     		movs	r3, #128
 1931              	.L173:
 1932              		.loc 1 624 0 discriminator 15
 1933 0b86 874A     		ldr	r2, .L212
 1934 0b88 C2F8C830 		str	r3, [r2, #200]
 1935              		.loc 1 625 0 is_stmt 1 discriminator 15
 1936 0b8c 854B     		ldr	r3, .L212
 1937 0b8e 0122     		movs	r2, #1
 1938 0b90 C3F8CC20 		str	r2, [r3, #204]
 1939              		.loc 1 626 0 discriminator 15
 1940 0b94 834B     		ldr	r3, .L212
 1941 0b96 844A     		ldr	r2, .L212+4
 1942 0b98 C3F8A820 		str	r2, [r3, #168]
 1943              		.loc 1 628 0 discriminator 15
 1944 0b9c 8348     		ldr	r0, .L212+8
 1945 0b9e FFF7FEFF 		bl	HAL_DFSDM_FilterGetState
 1946 0ba2 0346     		mov	r3, r0
 1947 0ba4 002B     		cmp	r3, #0
 1948 0ba6 02D1     		bne	.L174
 1949              		.loc 1 631 0
 1950 0ba8 8048     		ldr	r0, .L212+8
 1951 0baa 00F011F9 		bl	DFSDMx_FilterMspInit
 1952              	.L174:
 1953              		.loc 1 634 0
 1954 0bae 7F48     		ldr	r0, .L212+8
 1955 0bb0 FFF7FEFF 		bl	HAL_DFSDM_FilterInit
 1956 0bb4 0346     		mov	r3, r0
 1957 0bb6 002B     		cmp	r3, #0
 1958 0bb8 01D0     		beq	.L175
 1959              		.loc 1 636 0
 1960 0bba 0123     		movs	r3, #1
 1961 0bbc EDE0     		b	.L65
 1962              	.L175:
 1963              		.loc 1 640 0
 1964 0bbe 7B48     		ldr	r0, .L212+8
 1965 0bc0 7B49     		ldr	r1, .L212+12
 1966 0bc2 0122     		movs	r2, #1
 1967 0bc4 FFF7FEFF 		bl	HAL_DFSDM_FilterConfigRegChannel
 1968 0bc8 0346     		mov	r3, r0
 1969 0bca 002B     		cmp	r3, #0
 1970 0bcc 01D0     		beq	.L176
 1971              		.loc 1 642 0
 1972 0bce 0123     		movs	r3, #1
 1973 0bd0 E3E0     		b	.L65
 1974              	.L176:
 1975              		.loc 1 646 0
 1976 0bd2 784B     		ldr	r3, .L212+16
 1977 0bd4 0122     		movs	r2, #1
 1978 0bd6 83F8AC20 		strb	r2, [r3, #172]
 1979              		.loc 1 647 0
 1980 0bda 764B     		ldr	r3, .L212+16
 1981 0bdc 4FF08042 		mov	r2, #1073741824
 1982 0be0 C3F8B020 		str	r2, [r3, #176]
 1983              		.loc 1 649 0
 1984 0be4 019B     		ldr	r3, [sp, #4]
 1985 0be6 B3F5FA5F 		cmp	r3, #8000
ARM GAS  /tmp/ccGf2LCS.s 			page 36


 1986 0bea 22D0     		beq	.L177
 1987              		.loc 1 649 0 is_stmt 0 discriminator 1
 1988 0bec 019A     		ldr	r2, [sp, #4]
 1989 0bee 42F61133 		movw	r3, #11025
 1990 0bf2 9A42     		cmp	r2, r3
 1991 0bf4 1BD0     		beq	.L178
 1992              		.loc 1 649 0 discriminator 3
 1993 0bf6 019B     		ldr	r3, [sp, #4]
 1994 0bf8 B3F57A5F 		cmp	r3, #16000
 1995 0bfc 15D0     		beq	.L179
 1996              		.loc 1 649 0 discriminator 5
 1997 0bfe 019A     		ldr	r2, [sp, #4]
 1998 0c00 45F22263 		movw	r3, #22050
 1999 0c04 9A42     		cmp	r2, r3
 2000 0c06 0ED0     		beq	.L180
 2001              		.loc 1 649 0 discriminator 7
 2002 0c08 019B     		ldr	r3, [sp, #4]
 2003 0c0a B3F5FA4F 		cmp	r3, #32000
 2004 0c0e 08D0     		beq	.L181
 2005              		.loc 1 649 0 discriminator 9
 2006 0c10 019A     		ldr	r2, [sp, #4]
 2007 0c12 4AF64443 		movw	r3, #44100
 2008 0c16 9A42     		cmp	r2, r3
 2009 0c18 01D1     		bne	.L182
 2010              		.loc 1 649 0 discriminator 11
 2011 0c1a 0423     		movs	r3, #4
 2012 0c1c 0AE0     		b	.L188
 2013              	.L182:
 2014              		.loc 1 649 0 discriminator 12
 2015 0c1e 1023     		movs	r3, #16
 2016 0c20 08E0     		b	.L188
 2017              	.L181:
 2018              		.loc 1 649 0 discriminator 10
 2019 0c22 1823     		movs	r3, #24
 2020 0c24 06E0     		b	.L188
 2021              	.L180:
 2022              		.loc 1 649 0 discriminator 8
 2023 0c26 0423     		movs	r3, #4
 2024 0c28 04E0     		b	.L188
 2025              	.L179:
 2026              		.loc 1 649 0 discriminator 6
 2027 0c2a 1823     		movs	r3, #24
 2028 0c2c 02E0     		b	.L188
 2029              	.L178:
 2030              		.loc 1 649 0 discriminator 4
 2031 0c2e 0423     		movs	r3, #4
 2032 0c30 00E0     		b	.L188
 2033              	.L177:
 2034              		.loc 1 649 0 discriminator 2
 2035 0c32 3023     		movs	r3, #48
 2036              	.L188:
 2037              		.loc 1 649 0 discriminator 13
 2038 0c34 5F4A     		ldr	r2, .L212+16
 2039 0c36 C2F8B430 		str	r3, [r2, #180]
 2040              		.loc 1 650 0 is_stmt 1 discriminator 13
 2041 0c3a 5E4B     		ldr	r3, .L212+16
 2042 0c3c 0022     		movs	r2, #0
ARM GAS  /tmp/ccGf2LCS.s 			page 37


 2043 0c3e C3F8B820 		str	r2, [r3, #184]
 2044              		.loc 1 651 0 discriminator 13
 2045 0c42 5C4B     		ldr	r3, .L212+16
 2046 0c44 0022     		movs	r2, #0
 2047 0c46 C3F8BC20 		str	r2, [r3, #188]
 2048              		.loc 1 652 0 discriminator 13
 2049 0c4a 5A4B     		ldr	r3, .L212+16
 2050 0c4c 4FF48072 		mov	r2, #256
 2051 0c50 C3F8C020 		str	r2, [r3, #192]
 2052              		.loc 1 653 0 discriminator 13
 2053 0c54 574B     		ldr	r3, .L212+16
 2054 0c56 0122     		movs	r2, #1
 2055 0c58 C3F8C420 		str	r2, [r3, #196]
 2056              		.loc 1 654 0 discriminator 13
 2057 0c5c 554B     		ldr	r3, .L212+16
 2058 0c5e 0422     		movs	r2, #4
 2059 0c60 C3F8C820 		str	r2, [r3, #200]
 2060              		.loc 1 655 0 discriminator 13
 2061 0c64 534B     		ldr	r3, .L212+16
 2062 0c66 4FF48002 		mov	r2, #4194304
 2063 0c6a C3F8CC20 		str	r2, [r3, #204]
 2064              		.loc 1 656 0 discriminator 13
 2065 0c6e 514B     		ldr	r3, .L212+16
 2066 0c70 0A22     		movs	r2, #10
 2067 0c72 C3F8D020 		str	r2, [r3, #208]
 2068              		.loc 1 657 0 discriminator 13
 2069 0c76 4F4B     		ldr	r3, .L212+16
 2070 0c78 0022     		movs	r2, #0
 2071 0c7a C3F8D420 		str	r2, [r3, #212]
 2072              		.loc 1 658 0 discriminator 13
 2073 0c7e BDF86620 		ldrh	r2, [sp, #102]
 2074 0c82 4C4B     		ldr	r3, .L212+16
 2075 0c84 C3F8D820 		str	r2, [r3, #216]
 2076              		.loc 1 659 0 discriminator 13
 2077 0c88 4A4B     		ldr	r3, .L212+16
 2078 0c8a 4B4A     		ldr	r2, .L212+20
 2079 0c8c C3F8A820 		str	r2, [r3, #168]
 2080              		.loc 1 661 0 discriminator 13
 2081 0c90 4A48     		ldr	r0, .L212+24
 2082 0c92 FFF7FEFF 		bl	HAL_DFSDM_ChannelInit
 2083 0c96 0346     		mov	r3, r0
 2084 0c98 002B     		cmp	r3, #0
 2085 0c9a 01D0     		beq	.L189
 2086              		.loc 1 663 0
 2087 0c9c 0123     		movs	r3, #1
 2088 0c9e 7CE0     		b	.L65
 2089              	.L189:
 2090              		.loc 1 667 0
 2091 0ca0 404B     		ldr	r3, .L212
 2092 0ca2 0122     		movs	r2, #1
 2093 0ca4 C3F80021 		str	r2, [r3, #256]
 2094              		.loc 1 668 0
 2095 0ca8 3E4B     		ldr	r3, .L212
 2096 0caa 0122     		movs	r2, #1
 2097 0cac 83F80421 		strb	r2, [r3, #260]
 2098              		.loc 1 669 0
 2099 0cb0 3C4B     		ldr	r3, .L212
ARM GAS  /tmp/ccGf2LCS.s 			page 38


 2100 0cb2 0122     		movs	r2, #1
 2101 0cb4 83F80521 		strb	r2, [r3, #261]
 2102              		.loc 1 670 0
 2103 0cb8 3A4B     		ldr	r3, .L212
 2104 0cba 0022     		movs	r2, #0
 2105 0cbc C3F80821 		str	r2, [r3, #264]
 2106              		.loc 1 671 0
 2107 0cc0 384B     		ldr	r3, .L212
 2108 0cc2 0022     		movs	r2, #0
 2109 0cc4 83F80C21 		strb	r2, [r3, #268]
 2110              		.loc 1 672 0
 2111 0cc8 364B     		ldr	r3, .L212
 2112 0cca 0022     		movs	r2, #0
 2113 0ccc 83F80D21 		strb	r2, [r3, #269]
 2114              		.loc 1 673 0
 2115 0cd0 344B     		ldr	r3, .L212
 2116 0cd2 4FF40072 		mov	r2, #512
 2117 0cd6 C3F81021 		str	r2, [r3, #272]
 2118              		.loc 1 674 0
 2119 0cda 324B     		ldr	r3, .L212
 2120 0cdc 4FF4C042 		mov	r2, #24576
 2121 0ce0 C3F81421 		str	r2, [r3, #276]
 2122              		.loc 1 675 0
 2123 0ce4 2F4B     		ldr	r3, .L212
 2124 0ce6 189A     		ldr	r2, [sp, #96]
 2125 0ce8 C3F81821 		str	r2, [r3, #280]
 2126              		.loc 1 677 0
 2127 0cec 019B     		ldr	r3, [sp, #4]
 2128 0cee B3F5FA5F 		cmp	r3, #8000
 2129 0cf2 2AD0     		beq	.L190
 2130              		.loc 1 677 0 is_stmt 0 discriminator 1
 2131 0cf4 019A     		ldr	r2, [sp, #4]
 2132 0cf6 42F61133 		movw	r3, #11025
 2133 0cfa 9A42     		cmp	r2, r3
 2134 0cfc 22D0     		beq	.L191
 2135              		.loc 1 677 0 discriminator 3
 2136 0cfe 019B     		ldr	r3, [sp, #4]
 2137 0d00 B3F57A5F 		cmp	r3, #16000
 2138 0d04 1CD0     		beq	.L192
 2139              		.loc 1 677 0 discriminator 5
 2140 0d06 019A     		ldr	r2, [sp, #4]
 2141 0d08 45F22263 		movw	r3, #22050
 2142 0d0c 9A42     		cmp	r2, r3
 2143 0d0e 15D0     		beq	.L193
 2144              		.loc 1 677 0 discriminator 7
 2145 0d10 019B     		ldr	r3, [sp, #4]
 2146 0d12 B3F5FA4F 		cmp	r3, #32000
 2147 0d16 0FD0     		beq	.L194
 2148              		.loc 1 677 0 discriminator 9
 2149 0d18 019A     		ldr	r2, [sp, #4]
 2150 0d1a 4AF64443 		movw	r3, #44100
 2151 0d1e 9A42     		cmp	r2, r3
 2152 0d20 08D0     		beq	.L195
 2153              		.loc 1 677 0 discriminator 11
 2154 0d22 019A     		ldr	r2, [sp, #4]
 2155 0d24 4BF68033 		movw	r3, #48000
 2156 0d28 9A42     		cmp	r2, r3
ARM GAS  /tmp/ccGf2LCS.s 			page 39


 2157 0d2a 01D1     		bne	.L196
 2158              		.loc 1 677 0 discriminator 13
 2159 0d2c 4023     		movs	r3, #64
 2160 0d2e 0DE0     		b	.L203
 2161              	.L196:
 2162              		.loc 1 677 0 discriminator 14
 2163 0d30 2023     		movs	r3, #32
 2164 0d32 0BE0     		b	.L203
 2165              	.L195:
 2166              		.loc 1 677 0 discriminator 12
 2167 0d34 4023     		movs	r3, #64
 2168 0d36 09E0     		b	.L203
 2169              	.L194:
 2170              		.loc 1 677 0 discriminator 10
 2171 0d38 4023     		movs	r3, #64
 2172 0d3a 07E0     		b	.L203
 2173              	.L193:
 2174              		.loc 1 677 0 discriminator 8
 2175 0d3c 8023     		movs	r3, #128
 2176 0d3e 05E0     		b	.L203
 2177              	.L192:
 2178              		.loc 1 677 0 discriminator 6
 2179 0d40 8023     		movs	r3, #128
 2180 0d42 03E0     		b	.L203
 2181              	.L191:
 2182              		.loc 1 677 0 discriminator 4
 2183 0d44 4FF48073 		mov	r3, #256
 2184 0d48 00E0     		b	.L203
 2185              	.L190:
 2186              		.loc 1 677 0 discriminator 2
 2187 0d4a 8023     		movs	r3, #128
 2188              	.L203:
 2189              		.loc 1 677 0 discriminator 15
 2190 0d4c 154A     		ldr	r2, .L212
 2191 0d4e C2F81C31 		str	r3, [r2, #284]
 2192              		.loc 1 678 0 is_stmt 1 discriminator 15
 2193 0d52 144B     		ldr	r3, .L212
 2194 0d54 0122     		movs	r2, #1
 2195 0d56 C3F82021 		str	r2, [r3, #288]
 2196              		.loc 1 679 0 discriminator 15
 2197 0d5a 124B     		ldr	r3, .L212
 2198 0d5c 184A     		ldr	r2, .L212+28
 2199 0d5e C3F8FC20 		str	r2, [r3, #252]
 2200              		.loc 1 681 0 discriminator 15
 2201 0d62 1848     		ldr	r0, .L212+32
 2202 0d64 FFF7FEFF 		bl	HAL_DFSDM_FilterGetState
 2203 0d68 0346     		mov	r3, r0
 2204 0d6a 002B     		cmp	r3, #0
 2205 0d6c 02D1     		bne	.L204
 2206              		.loc 1 684 0
 2207 0d6e 1548     		ldr	r0, .L212+32
 2208 0d70 00F02EF8 		bl	DFSDMx_FilterMspInit
 2209              	.L204:
 2210              		.loc 1 687 0
 2211 0d74 1348     		ldr	r0, .L212+32
 2212 0d76 FFF7FEFF 		bl	HAL_DFSDM_FilterInit
 2213 0d7a 0346     		mov	r3, r0
ARM GAS  /tmp/ccGf2LCS.s 			page 40


 2214 0d7c 002B     		cmp	r3, #0
 2215 0d7e 01D0     		beq	.L205
 2216              		.loc 1 689 0
 2217 0d80 0123     		movs	r3, #1
 2218 0d82 0AE0     		b	.L65
 2219              	.L205:
 2220              		.loc 1 693 0
 2221 0d84 0F48     		ldr	r0, .L212+32
 2222 0d86 1049     		ldr	r1, .L212+36
 2223 0d88 0122     		movs	r2, #1
 2224 0d8a FFF7FEFF 		bl	HAL_DFSDM_FilterConfigRegChannel
 2225 0d8e 0346     		mov	r3, r0
 2226 0d90 002B     		cmp	r3, #0
 2227 0d92 01D0     		beq	.L82
 2228              		.loc 1 695 0
 2229 0d94 0123     		movs	r3, #1
 2230 0d96 00E0     		b	.L65
 2231              	.L82:
 2232              		.loc 1 703 0
 2233 0d98 0023     		movs	r3, #0
 2234              	.L65:
 2235              		.loc 1 704 0
 2236 0d9a 1846     		mov	r0, r3
 2237 0d9c 1BB0     		add	sp, sp, #108
 2238              		@ sp needed
 2239 0d9e 5DF804FB 		ldr	pc, [sp], #4
 2240              	.L213:
 2241 0da2 00BF     		.align	2
 2242              	.L212:
 2243 0da4 00000000 		.word	haudio_in_dfsdmfilter
 2244 0da8 00620140 		.word	1073832448
 2245 0dac A8000000 		.word	haudio_in_dfsdmfilter+168
 2246 0db0 10000400 		.word	262160
 2247 0db4 00000000 		.word	haudio_in_dfsdmchannel
 2248 0db8 60600140 		.word	1073832032
 2249 0dbc A8000000 		.word	haudio_in_dfsdmchannel+168
 2250 0dc0 80620140 		.word	1073832576
 2251 0dc4 FC000000 		.word	haudio_in_dfsdmfilter+252
 2252 0dc8 08000300 		.word	196616
 2253              		.cfi_endproc
 2254              	.LFE134:
 2255              		.size	DFSDMx_Init, .-DFSDMx_Init
 2256              		.align	2
 2257 0dcc AFF30080 		.p2align 4,,15
 2258              		.thumb
 2259              		.thumb_func
 2260              		.type	DFSDMx_FilterMspInit, %function
 2261              	DFSDMx_FilterMspInit:
 2262              	.LFB135:
 2263              		.loc 1 712 0
 2264              		.cfi_startproc
 2265              		@ args = 0, pretend = 0, frame = 24
 2266              		@ frame_needed = 0, uses_anonymous_args = 0
 2267 0dd0 00B5     		push	{lr}
 2268              		.cfi_def_cfa_offset 4
 2269              		.cfi_offset 14, -4
 2270 0dd2 87B0     		sub	sp, sp, #28
ARM GAS  /tmp/ccGf2LCS.s 			page 41


 2271              		.cfi_def_cfa_offset 32
 2272 0dd4 0190     		str	r0, [sp, #4]
 2273              		.loc 1 713 0
 2274 0dd6 0023     		movs	r3, #0
 2275 0dd8 0593     		str	r3, [sp, #20]
 2276              	.LBB12:
 2277              		.loc 1 716 0
 2278 0dda 494B     		ldr	r3, .L224
 2279 0ddc 484A     		ldr	r2, .L224
 2280 0dde 126E     		ldr	r2, [r2, #96]
 2281 0de0 42F08072 		orr	r2, r2, #16777216
 2282 0de4 1A66     		str	r2, [r3, #96]
 2283 0de6 464B     		ldr	r3, .L224
 2284 0de8 1B6E     		ldr	r3, [r3, #96]
 2285 0dea 03F08073 		and	r3, r3, #16777216
 2286 0dee 0493     		str	r3, [sp, #16]
 2287 0df0 049B     		ldr	r3, [sp, #16]
 2288              	.LBE12:
 2289              	.LBB13:
 2290              		.loc 1 718 0
 2291 0df2 434B     		ldr	r3, .L224
 2292 0df4 424A     		ldr	r2, .L224
 2293 0df6 926C     		ldr	r2, [r2, #72]
 2294 0df8 42F00102 		orr	r2, r2, #1
 2295 0dfc 9A64     		str	r2, [r3, #72]
 2296 0dfe 404B     		ldr	r3, .L224
 2297 0e00 9B6C     		ldr	r3, [r3, #72]
 2298 0e02 03F00103 		and	r3, r3, #1
 2299 0e06 0393     		str	r3, [sp, #12]
 2300 0e08 039B     		ldr	r3, [sp, #12]
 2301              	.LBE13:
 2302              		.loc 1 720 0
 2303 0e0a 019B     		ldr	r3, [sp, #4]
 2304 0e0c 1A68     		ldr	r2, [r3]
 2305 0e0e 3D4B     		ldr	r3, .L224+4
 2306 0e10 9A42     		cmp	r2, r3
 2307 0e12 02D1     		bne	.L215
 2308              		.loc 1 722 0
 2309 0e14 3C4B     		ldr	r3, .L224+8
 2310 0e16 0593     		str	r3, [sp, #20]
 2311 0e18 16E0     		b	.L216
 2312              	.L215:
 2313              		.loc 1 724 0
 2314 0e1a 019B     		ldr	r3, [sp, #4]
 2315 0e1c 1A68     		ldr	r2, [r3]
 2316 0e1e 3B4B     		ldr	r3, .L224+12
 2317 0e20 9A42     		cmp	r2, r3
 2318 0e22 02D1     		bne	.L217
 2319              		.loc 1 726 0
 2320 0e24 3A4B     		ldr	r3, .L224+16
 2321 0e26 0593     		str	r3, [sp, #20]
 2322 0e28 0EE0     		b	.L216
 2323              	.L217:
 2324              		.loc 1 728 0
 2325 0e2a 019B     		ldr	r3, [sp, #4]
 2326 0e2c 1A68     		ldr	r2, [r3]
 2327 0e2e 394B     		ldr	r3, .L224+20
ARM GAS  /tmp/ccGf2LCS.s 			page 42


 2328 0e30 9A42     		cmp	r2, r3
 2329 0e32 02D1     		bne	.L218
 2330              		.loc 1 730 0
 2331 0e34 384B     		ldr	r3, .L224+24
 2332 0e36 0593     		str	r3, [sp, #20]
 2333 0e38 06E0     		b	.L216
 2334              	.L218:
 2335              		.loc 1 732 0
 2336 0e3a 019B     		ldr	r3, [sp, #4]
 2337 0e3c 1A68     		ldr	r2, [r3]
 2338 0e3e 374B     		ldr	r3, .L224+28
 2339 0e40 9A42     		cmp	r2, r3
 2340 0e42 01D1     		bne	.L216
 2341              		.loc 1 734 0
 2342 0e44 364B     		ldr	r3, .L224+32
 2343 0e46 0593     		str	r3, [sp, #20]
 2344              	.L216:
 2345              		.loc 1 738 0
 2346 0e48 059B     		ldr	r3, [sp, #20]
 2347 0e4a 0022     		movs	r2, #0
 2348 0e4c 5A60     		str	r2, [r3, #4]
 2349              		.loc 1 739 0
 2350 0e4e 059B     		ldr	r3, [sp, #20]
 2351 0e50 0022     		movs	r2, #0
 2352 0e52 9A60     		str	r2, [r3, #8]
 2353              		.loc 1 740 0
 2354 0e54 059B     		ldr	r3, [sp, #20]
 2355 0e56 0022     		movs	r2, #0
 2356 0e58 DA60     		str	r2, [r3, #12]
 2357              		.loc 1 741 0
 2358 0e5a 059B     		ldr	r3, [sp, #20]
 2359 0e5c 8022     		movs	r2, #128
 2360 0e5e 1A61     		str	r2, [r3, #16]
 2361              		.loc 1 742 0
 2362 0e60 059B     		ldr	r3, [sp, #20]
 2363 0e62 4FF40072 		mov	r2, #512
 2364 0e66 5A61     		str	r2, [r3, #20]
 2365              		.loc 1 743 0
 2366 0e68 059B     		ldr	r3, [sp, #20]
 2367 0e6a 4FF40062 		mov	r2, #2048
 2368 0e6e 9A61     		str	r2, [r3, #24]
 2369              		.loc 1 744 0
 2370 0e70 059B     		ldr	r3, [sp, #20]
 2371 0e72 2022     		movs	r2, #32
 2372 0e74 DA61     		str	r2, [r3, #28]
 2373              		.loc 1 745 0
 2374 0e76 059B     		ldr	r3, [sp, #20]
 2375 0e78 4FF40052 		mov	r2, #8192
 2376 0e7c 1A62     		str	r2, [r3, #32]
 2377              		.loc 1 747 0
 2378 0e7e 019B     		ldr	r3, [sp, #4]
 2379 0e80 1A68     		ldr	r2, [r3]
 2380 0e82 204B     		ldr	r3, .L224+4
 2381 0e84 9A42     		cmp	r2, r3
 2382 0e86 03D1     		bne	.L219
 2383              		.loc 1 749 0
 2384 0e88 059B     		ldr	r3, [sp, #20]
ARM GAS  /tmp/ccGf2LCS.s 			page 43


 2385 0e8a 264A     		ldr	r2, .L224+36
 2386 0e8c 1A60     		str	r2, [r3]
 2387 0e8e 19E0     		b	.L220
 2388              	.L219:
 2389              		.loc 1 751 0
 2390 0e90 019B     		ldr	r3, [sp, #4]
 2391 0e92 1A68     		ldr	r2, [r3]
 2392 0e94 1D4B     		ldr	r3, .L224+12
 2393 0e96 9A42     		cmp	r2, r3
 2394 0e98 03D1     		bne	.L221
 2395              		.loc 1 753 0
 2396 0e9a 059B     		ldr	r3, [sp, #20]
 2397 0e9c 224A     		ldr	r2, .L224+40
 2398 0e9e 1A60     		str	r2, [r3]
 2399 0ea0 10E0     		b	.L220
 2400              	.L221:
 2401              		.loc 1 755 0
 2402 0ea2 019B     		ldr	r3, [sp, #4]
 2403 0ea4 1A68     		ldr	r2, [r3]
 2404 0ea6 1B4B     		ldr	r3, .L224+20
 2405 0ea8 9A42     		cmp	r2, r3
 2406 0eaa 03D1     		bne	.L222
 2407              		.loc 1 757 0
 2408 0eac 059B     		ldr	r3, [sp, #20]
 2409 0eae 1F4A     		ldr	r2, .L224+44
 2410 0eb0 1A60     		str	r2, [r3]
 2411 0eb2 07E0     		b	.L220
 2412              	.L222:
 2413              		.loc 1 759 0
 2414 0eb4 019B     		ldr	r3, [sp, #4]
 2415 0eb6 1A68     		ldr	r2, [r3]
 2416 0eb8 184B     		ldr	r3, .L224+28
 2417 0eba 9A42     		cmp	r2, r3
 2418 0ebc 02D1     		bne	.L220
 2419              		.loc 1 761 0
 2420 0ebe 059B     		ldr	r3, [sp, #20]
 2421 0ec0 1B4A     		ldr	r2, .L224+48
 2422 0ec2 1A60     		str	r2, [r3]
 2423              	.L220:
 2424              		.loc 1 765 0
 2425 0ec4 019B     		ldr	r3, [sp, #4]
 2426 0ec6 059A     		ldr	r2, [sp, #20]
 2427 0ec8 9A62     		str	r2, [r3, #40]
 2428 0eca 059B     		ldr	r3, [sp, #20]
 2429 0ecc 019A     		ldr	r2, [sp, #4]
 2430 0ece 9A62     		str	r2, [r3, #40]
 2431              		.loc 1 768 0
 2432 0ed0 059B     		ldr	r3, [sp, #20]
 2433 0ed2 0022     		movs	r2, #0
 2434 0ed4 83F82520 		strb	r2, [r3, #37]
 2435              		.loc 1 771 0
 2436 0ed8 0598     		ldr	r0, [sp, #20]
 2437 0eda FFF7FEFF 		bl	HAL_DMA_Init
 2438              		.loc 1 774 0
 2439 0ede 019B     		ldr	r3, [sp, #4]
 2440 0ee0 1A68     		ldr	r2, [r3]
 2441 0ee2 084B     		ldr	r3, .L224+4
ARM GAS  /tmp/ccGf2LCS.s 			page 44


 2442 0ee4 9A42     		cmp	r2, r3
 2443 0ee6 07D1     		bne	.L214
 2444              		.loc 1 776 0
 2445 0ee8 0E20     		movs	r0, #14
 2446 0eea 0621     		movs	r1, #6
 2447 0eec 0022     		movs	r2, #0
 2448 0eee FFF7FEFF 		bl	HAL_NVIC_SetPriority
 2449              		.loc 1 778 0
 2450 0ef2 0E20     		movs	r0, #14
 2451 0ef4 FFF7FEFF 		bl	HAL_NVIC_EnableIRQ
 2452              	.L214:
 2453              		.loc 1 780 0
 2454 0ef8 07B0     		add	sp, sp, #28
 2455              		@ sp needed
 2456 0efa 5DF804FB 		ldr	pc, [sp], #4
 2457              	.L225:
 2458 0efe 00BF     		.align	2
 2459              	.L224:
 2460 0f00 00100240 		.word	1073876992
 2461 0f04 00610140 		.word	1073832192
 2462 0f08 00000000 		.word	hdma_dfsdmReg_FLT
 2463 0f0c 80610140 		.word	1073832320
 2464 0f10 48000000 		.word	hdma_dfsdmReg_FLT+72
 2465 0f14 00620140 		.word	1073832448
 2466 0f18 90000000 		.word	hdma_dfsdmReg_FLT+144
 2467 0f1c 80620140 		.word	1073832576
 2468 0f20 D8000000 		.word	hdma_dfsdmReg_FLT+216
 2469 0f24 44000240 		.word	1073872964
 2470 0f28 58000240 		.word	1073872984
 2471 0f2c 6C000240 		.word	1073873004
 2472 0f30 80000240 		.word	1073873024
 2473              		.cfi_endproc
 2474              	.LFE135:
 2475              		.size	DFSDMx_FilterMspInit, .-DFSDMx_FilterMspInit
 2476              		.align	2
 2477 0f34 AFF30080 		.p2align 4,,15
 2477      AFF30080 
 2477      AFF30080 
 2478              		.thumb
 2479              		.thumb_func
 2480              		.type	DFSDMx_DeInit, %function
 2481              	DFSDMx_DeInit:
 2482              	.LFB136:
 2483              		.loc 1 787 0
 2484              		.cfi_startproc
 2485              		@ args = 0, pretend = 0, frame = 8
 2486              		@ frame_needed = 0, uses_anonymous_args = 0
 2487 0f40 00B5     		push	{lr}
 2488              		.cfi_def_cfa_offset 4
 2489              		.cfi_offset 14, -4
 2490 0f42 83B0     		sub	sp, sp, #12
 2491              		.cfi_def_cfa_offset 16
 2492              		.loc 1 789 0
 2493 0f44 0023     		movs	r3, #0
 2494 0f46 ADF80630 		strh	r3, [sp, #6]	@ movhi
 2495              		.loc 1 791 0
 2496 0f4a 0023     		movs	r3, #0
ARM GAS  /tmp/ccGf2LCS.s 			page 45


 2497 0f4c ADF80630 		strh	r3, [sp, #6]	@ movhi
 2498 0f50 38E0     		b	.L227
 2499              	.L231:
 2500              		.loc 1 793 0
 2501 0f52 BDF80630 		ldrh	r3, [sp, #6]
 2502 0f56 5422     		movs	r2, #84
 2503 0f58 02FB03F2 		mul	r2, r2, r3
 2504 0f5c 1F4B     		ldr	r3, .L232
 2505 0f5e 1344     		add	r3, r3, r2
 2506 0f60 1846     		mov	r0, r3
 2507 0f62 FFF7FEFF 		bl	HAL_DFSDM_FilterDeInit
 2508 0f66 0346     		mov	r3, r0
 2509 0f68 002B     		cmp	r3, #0
 2510 0f6a 01D0     		beq	.L228
 2511              		.loc 1 795 0
 2512 0f6c 0123     		movs	r3, #1
 2513 0f6e 30E0     		b	.L229
 2514              	.L228:
 2515              		.loc 1 797 0
 2516 0f70 BDF80620 		ldrh	r2, [sp, #6]
 2517 0f74 1346     		mov	r3, r2
 2518 0f76 DB00     		lsls	r3, r3, #3
 2519 0f78 9B1A     		subs	r3, r3, r2
 2520 0f7a DB00     		lsls	r3, r3, #3
 2521 0f7c 184A     		ldr	r2, .L232+4
 2522 0f7e 1344     		add	r3, r3, r2
 2523 0f80 1846     		mov	r0, r3
 2524 0f82 FFF7FEFF 		bl	HAL_DFSDM_ChannelDeInit
 2525 0f86 0346     		mov	r3, r0
 2526 0f88 002B     		cmp	r3, #0
 2527 0f8a 01D0     		beq	.L230
 2528              		.loc 1 799 0
 2529 0f8c 0123     		movs	r3, #1
 2530 0f8e 20E0     		b	.L229
 2531              	.L230:
 2532              		.loc 1 801 0
 2533 0f90 BDF80630 		ldrh	r3, [sp, #6]
 2534 0f94 5422     		movs	r2, #84
 2535 0f96 02FB03F2 		mul	r2, r2, r3
 2536 0f9a 104B     		ldr	r3, .L232
 2537 0f9c 1344     		add	r3, r3, r2
 2538 0f9e 1846     		mov	r0, r3
 2539 0fa0 00F03EF8 		bl	DFSDMx_FilterMspDeInit
 2540              		.loc 1 802 0
 2541 0fa4 BDF80620 		ldrh	r2, [sp, #6]
 2542 0fa8 1346     		mov	r3, r2
 2543 0faa DB00     		lsls	r3, r3, #3
 2544 0fac 9B1A     		subs	r3, r3, r2
 2545 0fae DB00     		lsls	r3, r3, #3
 2546 0fb0 0B4A     		ldr	r2, .L232+4
 2547 0fb2 1344     		add	r3, r3, r2
 2548 0fb4 1846     		mov	r0, r3
 2549 0fb6 00F01BF8 		bl	DFSDMx_ChannelMspDeInit
 2550              		.loc 1 791 0
 2551 0fba BDF80630 		ldrh	r3, [sp, #6]
 2552 0fbe 0133     		adds	r3, r3, #1
 2553 0fc0 ADF80630 		strh	r3, [sp, #6]	@ movhi
ARM GAS  /tmp/ccGf2LCS.s 			page 46


 2554              	.L227:
 2555              		.loc 1 791 0 is_stmt 0 discriminator 1
 2556 0fc4 BDF80620 		ldrh	r2, [sp, #6]
 2557 0fc8 064B     		ldr	r3, .L232+8
 2558 0fca 1B68     		ldr	r3, [r3]
 2559 0fcc 9A42     		cmp	r2, r3
 2560 0fce C0D3     		bcc	.L231
 2561              		.loc 1 805 0 is_stmt 1
 2562 0fd0 0023     		movs	r3, #0
 2563              	.L229:
 2564              		.loc 1 806 0
 2565 0fd2 1846     		mov	r0, r3
 2566 0fd4 03B0     		add	sp, sp, #12
 2567              		@ sp needed
 2568 0fd6 5DF804FB 		ldr	pc, [sp], #4
 2569              	.L233:
 2570 0fda 00BF     		.align	2
 2571              	.L232:
 2572 0fdc 00000000 		.word	haudio_in_dfsdmfilter
 2573 0fe0 00000000 		.word	haudio_in_dfsdmchannel
 2574 0fe4 00000000 		.word	SENSORTILE_AudioIn_Handler
 2575              		.cfi_endproc
 2576              	.LFE136:
 2577              		.size	DFSDMx_DeInit, .-DFSDMx_DeInit
 2578              		.align	2
 2579 0fe8 AFF30080 		.p2align 4,,15
 2579      AFF30080 
 2580              		.thumb
 2581              		.thumb_func
 2582              		.type	DFSDMx_ChannelMspDeInit, %function
 2583              	DFSDMx_ChannelMspDeInit:
 2584              	.LFB137:
 2585              		.loc 1 814 0
 2586              		.cfi_startproc
 2587              		@ args = 0, pretend = 0, frame = 32
 2588              		@ frame_needed = 0, uses_anonymous_args = 0
 2589 0ff0 00B5     		push	{lr}
 2590              		.cfi_def_cfa_offset 4
 2591              		.cfi_offset 14, -4
 2592 0ff2 89B0     		sub	sp, sp, #36
 2593              		.cfi_def_cfa_offset 40
 2594 0ff4 0190     		str	r0, [sp, #4]
 2595              		.loc 1 818 0
 2596 0ff6 0423     		movs	r3, #4
 2597 0ff8 0393     		str	r3, [sp, #12]
 2598              		.loc 1 819 0
 2599 0ffa 039B     		ldr	r3, [sp, #12]
 2600 0ffc 0648     		ldr	r0, .L235
 2601 0ffe 1946     		mov	r1, r3
 2602 1000 FFF7FEFF 		bl	HAL_GPIO_DeInit
 2603              		.loc 1 821 0
 2604 1004 4023     		movs	r3, #64
 2605 1006 0393     		str	r3, [sp, #12]
 2606              		.loc 1 822 0
 2607 1008 039B     		ldr	r3, [sp, #12]
 2608 100a 0448     		ldr	r0, .L235+4
 2609 100c 1946     		mov	r1, r3
ARM GAS  /tmp/ccGf2LCS.s 			page 47


 2610 100e FFF7FEFF 		bl	HAL_GPIO_DeInit
 2611              		.loc 1 823 0
 2612 1012 09B0     		add	sp, sp, #36
 2613              		@ sp needed
 2614 1014 5DF804FB 		ldr	pc, [sp], #4
 2615              	.L236:
 2616              		.align	2
 2617              	.L235:
 2618 1018 00080048 		.word	1207961600
 2619 101c 00040048 		.word	1207960576
 2620              		.cfi_endproc
 2621              	.LFE137:
 2622              		.size	DFSDMx_ChannelMspDeInit, .-DFSDMx_ChannelMspDeInit
 2623              		.align	2
 2624              		.p2align 4,,15
 2625              		.thumb
 2626              		.thumb_func
 2627              		.type	DFSDMx_FilterMspDeInit, %function
 2628              	DFSDMx_FilterMspDeInit:
 2629              	.LFB138:
 2630              		.loc 1 831 0
 2631              		.cfi_startproc
 2632              		@ args = 0, pretend = 0, frame = 16
 2633              		@ frame_needed = 0, uses_anonymous_args = 0
 2634 1020 00B5     		push	{lr}
 2635              		.cfi_def_cfa_offset 4
 2636              		.cfi_offset 14, -4
 2637 1022 85B0     		sub	sp, sp, #20
 2638              		.cfi_def_cfa_offset 24
 2639 1024 0190     		str	r0, [sp, #4]
 2640              		.loc 1 832 0
 2641 1026 0023     		movs	r3, #0
 2642 1028 0393     		str	r3, [sp, #12]
 2643              		.loc 1 834 0
 2644 102a 019B     		ldr	r3, [sp, #4]
 2645 102c 1A68     		ldr	r2, [r3]
 2646 102e 114B     		ldr	r3, .L242
 2647 1030 9A42     		cmp	r2, r3
 2648 1032 02D1     		bne	.L238
 2649              		.loc 1 836 0
 2650 1034 104B     		ldr	r3, .L242+4
 2651 1036 0393     		str	r3, [sp, #12]
 2652 1038 16E0     		b	.L239
 2653              	.L238:
 2654              		.loc 1 838 0
 2655 103a 019B     		ldr	r3, [sp, #4]
 2656 103c 1A68     		ldr	r2, [r3]
 2657 103e 0F4B     		ldr	r3, .L242+8
 2658 1040 9A42     		cmp	r2, r3
 2659 1042 02D1     		bne	.L240
 2660              		.loc 1 840 0
 2661 1044 0E4B     		ldr	r3, .L242+12
 2662 1046 0393     		str	r3, [sp, #12]
 2663 1048 0EE0     		b	.L239
 2664              	.L240:
 2665              		.loc 1 842 0
 2666 104a 019B     		ldr	r3, [sp, #4]
ARM GAS  /tmp/ccGf2LCS.s 			page 48


 2667 104c 1A68     		ldr	r2, [r3]
 2668 104e 0D4B     		ldr	r3, .L242+16
 2669 1050 9A42     		cmp	r2, r3
 2670 1052 02D1     		bne	.L241
 2671              		.loc 1 844 0
 2672 1054 0C4B     		ldr	r3, .L242+20
 2673 1056 0393     		str	r3, [sp, #12]
 2674 1058 06E0     		b	.L239
 2675              	.L241:
 2676              		.loc 1 846 0
 2677 105a 019B     		ldr	r3, [sp, #4]
 2678 105c 1A68     		ldr	r2, [r3]
 2679 105e 0B4B     		ldr	r3, .L242+24
 2680 1060 9A42     		cmp	r2, r3
 2681 1062 01D1     		bne	.L239
 2682              		.loc 1 848 0
 2683 1064 0A4B     		ldr	r3, .L242+28
 2684 1066 0393     		str	r3, [sp, #12]
 2685              	.L239:
 2686              		.loc 1 852 0
 2687 1068 0398     		ldr	r0, [sp, #12]
 2688 106a FFF7FEFF 		bl	HAL_DMA_DeInit
 2689              		.loc 1 853 0
 2690 106e 05B0     		add	sp, sp, #20
 2691              		@ sp needed
 2692 1070 5DF804FB 		ldr	pc, [sp], #4
 2693              	.L243:
 2694              		.align	2
 2695              	.L242:
 2696 1074 00610140 		.word	1073832192
 2697 1078 00000000 		.word	hdma_dfsdmReg_FLT
 2698 107c 80610140 		.word	1073832320
 2699 1080 48000000 		.word	hdma_dfsdmReg_FLT+72
 2700 1084 00620140 		.word	1073832448
 2701 1088 90000000 		.word	hdma_dfsdmReg_FLT+144
 2702 108c 80620140 		.word	1073832576
 2703 1090 D8000000 		.word	hdma_dfsdmReg_FLT+216
 2704              		.cfi_endproc
 2705              	.LFE138:
 2706              		.size	DFSDMx_FilterMspDeInit, .-DFSDMx_FilterMspDeInit
 2707              		.align	2
 2708 1094 AFF30080 		.p2align 4,,15
 2708      AFF30080 
 2708      AFF30080 
 2709              		.global	HAL_DFSDM_FilterRegConvCpltCallback
 2710              		.thumb
 2711              		.thumb_func
 2712              		.type	HAL_DFSDM_FilterRegConvCpltCallback, %function
 2713              	HAL_DFSDM_FilterRegConvCpltCallback:
 2714              	.LFB139:
 2715              		.loc 1 862 0
 2716              		.cfi_startproc
 2717              		@ args = 0, pretend = 0, frame = 16
 2718              		@ frame_needed = 0, uses_anonymous_args = 0
 2719 10a0 00B5     		push	{lr}
 2720              		.cfi_def_cfa_offset 4
 2721              		.cfi_offset 14, -4
ARM GAS  /tmp/ccGf2LCS.s 			page 49


 2722 10a2 85B0     		sub	sp, sp, #20
 2723              		.cfi_def_cfa_offset 24
 2724 10a4 0190     		str	r0, [sp, #4]
 2725              		.loc 1 863 0
 2726 10a6 0023     		movs	r3, #0
 2727 10a8 0293     		str	r3, [sp, #8]
 2728              		.loc 1 865 0
 2729 10aa 019A     		ldr	r2, [sp, #4]
 2730 10ac 574B     		ldr	r3, .L253
 2731 10ae 9A42     		cmp	r2, r3
 2732 10b0 40F0A980 		bne	.L244
 2733              		.loc 1 867 0
 2734 10b4 0023     		movs	r3, #0
 2735 10b6 0293     		str	r3, [sp, #8]
 2736 10b8 9DE0     		b	.L246
 2737              	.L252:
 2738              		.loc 1 869 0
 2739 10ba 0023     		movs	r3, #0
 2740 10bc 0393     		str	r3, [sp, #12]
 2741 10be 8DE0     		b	.L247
 2742              	.L251:
 2743              		.loc 1 871 0
 2744 10c0 534B     		ldr	r3, .L253+4
 2745 10c2 5A68     		ldr	r2, [r3, #4]
 2746 10c4 534B     		ldr	r3, .L253+8
 2747 10c6 A3FB0213 		umull	r1, r3, r3, r2
 2748 10ca 9A09     		lsrs	r2, r3, #6
 2749 10cc 039B     		ldr	r3, [sp, #12]
 2750 10ce D018     		adds	r0, r2, r3
 2751 10d0 5149     		ldr	r1, .L253+12
 2752 10d2 029A     		ldr	r2, [sp, #8]
 2753 10d4 1346     		mov	r3, r2
 2754 10d6 5B00     		lsls	r3, r3, #1
 2755 10d8 1344     		add	r3, r3, r2
 2756 10da 9B01     		lsls	r3, r3, #6
 2757 10dc 0344     		add	r3, r3, r0
 2758 10de 51F82330 		ldr	r3, [r1, r3, lsl #2]
 2759 10e2 1B12     		asrs	r3, r3, #8
 2760 10e4 4D4A     		ldr	r2, .L253+16
 2761 10e6 1288     		ldrh	r2, [r2]
 2762 10e8 02FB03F3 		mul	r3, r2, r3
 2763 10ec D911     		asrs	r1, r3, #7
 2764 10ee 4848     		ldr	r0, .L253+4
 2765 10f0 029A     		ldr	r2, [sp, #8]
 2766 10f2 1346     		mov	r3, r2
 2767 10f4 5B00     		lsls	r3, r3, #1
 2768 10f6 1344     		add	r3, r3, r2
 2769 10f8 9B00     		lsls	r3, r3, #2
 2770 10fa 0344     		add	r3, r3, r0
 2771 10fc 0833     		adds	r3, r3, #8
 2772 10fe 1960     		str	r1, [r3]
 2773              		.loc 1 872 0
 2774 1100 4349     		ldr	r1, .L253+4
 2775 1102 029A     		ldr	r2, [sp, #8]
 2776 1104 1346     		mov	r3, r2
 2777 1106 5B00     		lsls	r3, r3, #1
 2778 1108 1344     		add	r3, r3, r2
ARM GAS  /tmp/ccGf2LCS.s 			page 50


 2779 110a 9B00     		lsls	r3, r3, #2
 2780 110c 0B44     		add	r3, r3, r1
 2781 110e 0833     		adds	r3, r3, #8
 2782 1110 5968     		ldr	r1, [r3, #4]
 2783 1112 3F48     		ldr	r0, .L253+4
 2784 1114 029A     		ldr	r2, [sp, #8]
 2785 1116 1346     		mov	r3, r2
 2786 1118 5B00     		lsls	r3, r3, #1
 2787 111a 1344     		add	r3, r3, r2
 2788 111c 9B00     		lsls	r3, r3, #2
 2789 111e 0344     		add	r3, r3, r0
 2790 1120 0833     		adds	r3, r3, #8
 2791 1122 1B68     		ldr	r3, [r3]
 2792 1124 1944     		add	r1, r1, r3
 2793 1126 3A48     		ldr	r0, .L253+4
 2794 1128 029A     		ldr	r2, [sp, #8]
 2795 112a 1346     		mov	r3, r2
 2796 112c 5B00     		lsls	r3, r3, #1
 2797 112e 1344     		add	r3, r3, r2
 2798 1130 9B00     		lsls	r3, r3, #2
 2799 1132 0344     		add	r3, r3, r0
 2800 1134 1033     		adds	r3, r3, #16
 2801 1136 1B68     		ldr	r3, [r3]
 2802 1138 CA1A     		subs	r2, r1, r3
 2803 113a 1346     		mov	r3, r2
 2804 113c 9B01     		lsls	r3, r3, #6
 2805 113e 9B1A     		subs	r3, r3, r2
 2806 1140 9B00     		lsls	r3, r3, #2
 2807 1142 002B     		cmp	r3, #0
 2808 1144 00DA     		bge	.L248
 2809 1146 FF33     		adds	r3, r3, #255
 2810              	.L248:
 2811 1148 1B12     		asrs	r3, r3, #8
 2812 114a 1946     		mov	r1, r3
 2813 114c 3048     		ldr	r0, .L253+4
 2814 114e 029A     		ldr	r2, [sp, #8]
 2815 1150 1346     		mov	r3, r2
 2816 1152 5B00     		lsls	r3, r3, #1
 2817 1154 1344     		add	r3, r3, r2
 2818 1156 9B00     		lsls	r3, r3, #2
 2819 1158 0344     		add	r3, r3, r0
 2820 115a 0833     		adds	r3, r3, #8
 2821 115c 5960     		str	r1, [r3, #4]
 2822              		.loc 1 873 0
 2823 115e 2C49     		ldr	r1, .L253+4
 2824 1160 029A     		ldr	r2, [sp, #8]
 2825 1162 1346     		mov	r3, r2
 2826 1164 5B00     		lsls	r3, r3, #1
 2827 1166 1344     		add	r3, r3, r2
 2828 1168 9B00     		lsls	r3, r3, #2
 2829 116a 0B44     		add	r3, r3, r1
 2830 116c 0833     		adds	r3, r3, #8
 2831 116e 1968     		ldr	r1, [r3]
 2832 1170 2748     		ldr	r0, .L253+4
 2833 1172 029A     		ldr	r2, [sp, #8]
 2834 1174 1346     		mov	r3, r2
 2835 1176 5B00     		lsls	r3, r3, #1
ARM GAS  /tmp/ccGf2LCS.s 			page 51


 2836 1178 1344     		add	r3, r3, r2
 2837 117a 9B00     		lsls	r3, r3, #2
 2838 117c 0344     		add	r3, r3, r0
 2839 117e 1033     		adds	r3, r3, #16
 2840 1180 1960     		str	r1, [r3]
 2841              		.loc 1 874 0
 2842 1182 234B     		ldr	r3, .L253+4
 2843 1184 9A6B     		ldr	r2, [r3, #56]
 2844 1186 224B     		ldr	r3, .L253+4
 2845 1188 1B68     		ldr	r3, [r3]
 2846 118a 0399     		ldr	r1, [sp, #12]
 2847 118c 01FB03F1 		mul	r1, r1, r3
 2848 1190 029B     		ldr	r3, [sp, #8]
 2849 1192 0B44     		add	r3, r3, r1
 2850 1194 5B00     		lsls	r3, r3, #1
 2851 1196 D118     		adds	r1, r2, r3
 2852 1198 1D48     		ldr	r0, .L253+4
 2853 119a 029A     		ldr	r2, [sp, #8]
 2854 119c 1346     		mov	r3, r2
 2855 119e 5B00     		lsls	r3, r3, #1
 2856 11a0 1344     		add	r3, r3, r2
 2857 11a2 9B00     		lsls	r3, r3, #2
 2858 11a4 0344     		add	r3, r3, r0
 2859 11a6 0833     		adds	r3, r3, #8
 2860 11a8 5A68     		ldr	r2, [r3, #4]
 2861 11aa 1D4B     		ldr	r3, .L253+20
 2862 11ac 9A42     		cmp	r2, r3
 2863 11ae 0FDB     		blt	.L249
 2864              		.loc 1 874 0 is_stmt 0 discriminator 1
 2865 11b0 1748     		ldr	r0, .L253+4
 2866 11b2 029A     		ldr	r2, [sp, #8]
 2867 11b4 1346     		mov	r3, r2
 2868 11b6 5B00     		lsls	r3, r3, #1
 2869 11b8 1344     		add	r3, r3, r2
 2870 11ba 9B00     		lsls	r3, r3, #2
 2871 11bc 0344     		add	r3, r3, r0
 2872 11be 0833     		adds	r3, r3, #8
 2873 11c0 5A68     		ldr	r2, [r3, #4]
 2874 11c2 47F6F873 		movw	r3, #32760
 2875 11c6 9A42     		cmp	r2, r3
 2876 11c8 B8BF     		it	lt
 2877 11ca 1346     		movlt	r3, r2
 2878 11cc 9BB2     		uxth	r3, r3
 2879 11ce 01E0     		b	.L250
 2880              	.L249:
 2881              		.loc 1 874 0 discriminator 2
 2882 11d0 48F20803 		movw	r3, #32776
 2883              	.L250:
 2884              		.loc 1 874 0 discriminator 3
 2885 11d4 0B80     		strh	r3, [r1]	@ movhi
 2886              		.loc 1 869 0 is_stmt 1 discriminator 3
 2887 11d6 039B     		ldr	r3, [sp, #12]
 2888 11d8 0133     		adds	r3, r3, #1
 2889 11da 0393     		str	r3, [sp, #12]
 2890              	.L247:
 2891              		.loc 1 869 0 is_stmt 0 discriminator 1
 2892 11dc 0C4B     		ldr	r3, .L253+4
ARM GAS  /tmp/ccGf2LCS.s 			page 52


 2893 11de 5A68     		ldr	r2, [r3, #4]
 2894 11e0 0C4B     		ldr	r3, .L253+8
 2895 11e2 A3FB0213 		umull	r1, r3, r3, r2
 2896 11e6 9A09     		lsrs	r2, r3, #6
 2897 11e8 039B     		ldr	r3, [sp, #12]
 2898 11ea 9A42     		cmp	r2, r3
 2899 11ec 3FF668AF 		bhi	.L251
 2900              		.loc 1 867 0 is_stmt 1
 2901 11f0 029B     		ldr	r3, [sp, #8]
 2902 11f2 0133     		adds	r3, r3, #1
 2903 11f4 0293     		str	r3, [sp, #8]
 2904              	.L246:
 2905              		.loc 1 867 0 is_stmt 0 discriminator 1
 2906 11f6 064B     		ldr	r3, .L253+4
 2907 11f8 1A68     		ldr	r2, [r3]
 2908 11fa 029B     		ldr	r3, [sp, #8]
 2909 11fc 9A42     		cmp	r2, r3
 2910 11fe 3FF65CAF 		bhi	.L252
 2911              		.loc 1 877 0 is_stmt 1
 2912 1202 FFF7FEFF 		bl	BSP_AUDIO_IN_TransferComplete_CallBack
 2913              	.L244:
 2914              		.loc 1 879 0
 2915 1206 05B0     		add	sp, sp, #20
 2916              		@ sp needed
 2917 1208 5DF804FB 		ldr	pc, [sp], #4
 2918              	.L254:
 2919              		.align	2
 2920              	.L253:
 2921 120c 00000000 		.word	haudio_in_dfsdmfilter
 2922 1210 00000000 		.word	SENSORTILE_AudioIn_Handler
 2923 1214 D34D6210 		.word	274877907
 2924 1218 00000000 		.word	RecBuff
 2925 121c 00000000 		.word	AudioInVolume
 2926 1220 0880FFFF 		.word	-32760
 2927              		.cfi_endproc
 2928              	.LFE139:
 2929              		.size	HAL_DFSDM_FilterRegConvCpltCallback, .-HAL_DFSDM_FilterRegConvCpltCallback
 2930              		.align	2
 2931 1224 AFF30080 		.p2align 4,,15
 2931      AFF30080 
 2931      AFF30080 
 2932              		.global	HAL_DFSDM_FilterRegConvHalfCpltCallback
 2933              		.thumb
 2934              		.thumb_func
 2935              		.type	HAL_DFSDM_FilterRegConvHalfCpltCallback, %function
 2936              	HAL_DFSDM_FilterRegConvHalfCpltCallback:
 2937              	.LFB140:
 2938              		.loc 1 887 0
 2939              		.cfi_startproc
 2940              		@ args = 0, pretend = 0, frame = 16
 2941              		@ frame_needed = 0, uses_anonymous_args = 0
 2942 1230 00B5     		push	{lr}
 2943              		.cfi_def_cfa_offset 4
 2944              		.cfi_offset 14, -4
 2945 1232 85B0     		sub	sp, sp, #20
 2946              		.cfi_def_cfa_offset 24
 2947 1234 0190     		str	r0, [sp, #4]
ARM GAS  /tmp/ccGf2LCS.s 			page 53


 2948              		.loc 1 888 0
 2949 1236 0023     		movs	r3, #0
 2950 1238 0293     		str	r3, [sp, #8]
 2951              		.loc 1 889 0
 2952 123a 019A     		ldr	r2, [sp, #4]
 2953 123c 544B     		ldr	r3, .L264
 2954 123e 9A42     		cmp	r2, r3
 2955 1240 40F0A280 		bne	.L255
 2956              		.loc 1 891 0
 2957 1244 0023     		movs	r3, #0
 2958 1246 0293     		str	r3, [sp, #8]
 2959 1248 96E0     		b	.L257
 2960              	.L263:
 2961              		.loc 1 893 0
 2962 124a 0023     		movs	r3, #0
 2963 124c 0393     		str	r3, [sp, #12]
 2964 124e 86E0     		b	.L258
 2965              	.L262:
 2966              		.loc 1 895 0
 2967 1250 5049     		ldr	r1, .L264+4
 2968 1252 029A     		ldr	r2, [sp, #8]
 2969 1254 1346     		mov	r3, r2
 2970 1256 5B00     		lsls	r3, r3, #1
 2971 1258 1344     		add	r3, r3, r2
 2972 125a 9B01     		lsls	r3, r3, #6
 2973 125c 039A     		ldr	r2, [sp, #12]
 2974 125e 1344     		add	r3, r3, r2
 2975 1260 51F82330 		ldr	r3, [r1, r3, lsl #2]
 2976 1264 1B12     		asrs	r3, r3, #8
 2977 1266 4C4A     		ldr	r2, .L264+8
 2978 1268 1288     		ldrh	r2, [r2]
 2979 126a 02FB03F3 		mul	r3, r2, r3
 2980 126e D911     		asrs	r1, r3, #7
 2981 1270 4A48     		ldr	r0, .L264+12
 2982 1272 029A     		ldr	r2, [sp, #8]
 2983 1274 1346     		mov	r3, r2
 2984 1276 5B00     		lsls	r3, r3, #1
 2985 1278 1344     		add	r3, r3, r2
 2986 127a 9B00     		lsls	r3, r3, #2
 2987 127c 0344     		add	r3, r3, r0
 2988 127e 0833     		adds	r3, r3, #8
 2989 1280 1960     		str	r1, [r3]
 2990              		.loc 1 896 0
 2991 1282 4649     		ldr	r1, .L264+12
 2992 1284 029A     		ldr	r2, [sp, #8]
 2993 1286 1346     		mov	r3, r2
 2994 1288 5B00     		lsls	r3, r3, #1
 2995 128a 1344     		add	r3, r3, r2
 2996 128c 9B00     		lsls	r3, r3, #2
 2997 128e 0B44     		add	r3, r3, r1
 2998 1290 0833     		adds	r3, r3, #8
 2999 1292 5968     		ldr	r1, [r3, #4]
 3000 1294 4148     		ldr	r0, .L264+12
 3001 1296 029A     		ldr	r2, [sp, #8]
 3002 1298 1346     		mov	r3, r2
 3003 129a 5B00     		lsls	r3, r3, #1
 3004 129c 1344     		add	r3, r3, r2
ARM GAS  /tmp/ccGf2LCS.s 			page 54


 3005 129e 9B00     		lsls	r3, r3, #2
 3006 12a0 0344     		add	r3, r3, r0
 3007 12a2 0833     		adds	r3, r3, #8
 3008 12a4 1B68     		ldr	r3, [r3]
 3009 12a6 1944     		add	r1, r1, r3
 3010 12a8 3C48     		ldr	r0, .L264+12
 3011 12aa 029A     		ldr	r2, [sp, #8]
 3012 12ac 1346     		mov	r3, r2
 3013 12ae 5B00     		lsls	r3, r3, #1
 3014 12b0 1344     		add	r3, r3, r2
 3015 12b2 9B00     		lsls	r3, r3, #2
 3016 12b4 0344     		add	r3, r3, r0
 3017 12b6 1033     		adds	r3, r3, #16
 3018 12b8 1B68     		ldr	r3, [r3]
 3019 12ba CA1A     		subs	r2, r1, r3
 3020 12bc 1346     		mov	r3, r2
 3021 12be 9B01     		lsls	r3, r3, #6
 3022 12c0 9B1A     		subs	r3, r3, r2
 3023 12c2 9B00     		lsls	r3, r3, #2
 3024 12c4 002B     		cmp	r3, #0
 3025 12c6 00DA     		bge	.L259
 3026 12c8 FF33     		adds	r3, r3, #255
 3027              	.L259:
 3028 12ca 1B12     		asrs	r3, r3, #8
 3029 12cc 1946     		mov	r1, r3
 3030 12ce 3348     		ldr	r0, .L264+12
 3031 12d0 029A     		ldr	r2, [sp, #8]
 3032 12d2 1346     		mov	r3, r2
 3033 12d4 5B00     		lsls	r3, r3, #1
 3034 12d6 1344     		add	r3, r3, r2
 3035 12d8 9B00     		lsls	r3, r3, #2
 3036 12da 0344     		add	r3, r3, r0
 3037 12dc 0833     		adds	r3, r3, #8
 3038 12de 5960     		str	r1, [r3, #4]
 3039              		.loc 1 897 0
 3040 12e0 2E49     		ldr	r1, .L264+12
 3041 12e2 029A     		ldr	r2, [sp, #8]
 3042 12e4 1346     		mov	r3, r2
 3043 12e6 5B00     		lsls	r3, r3, #1
 3044 12e8 1344     		add	r3, r3, r2
 3045 12ea 9B00     		lsls	r3, r3, #2
 3046 12ec 0B44     		add	r3, r3, r1
 3047 12ee 0833     		adds	r3, r3, #8
 3048 12f0 1968     		ldr	r1, [r3]
 3049 12f2 2A48     		ldr	r0, .L264+12
 3050 12f4 029A     		ldr	r2, [sp, #8]
 3051 12f6 1346     		mov	r3, r2
 3052 12f8 5B00     		lsls	r3, r3, #1
 3053 12fa 1344     		add	r3, r3, r2
 3054 12fc 9B00     		lsls	r3, r3, #2
 3055 12fe 0344     		add	r3, r3, r0
 3056 1300 1033     		adds	r3, r3, #16
 3057 1302 1960     		str	r1, [r3]
 3058              		.loc 1 898 0
 3059 1304 254B     		ldr	r3, .L264+12
 3060 1306 9A6B     		ldr	r2, [r3, #56]
 3061 1308 244B     		ldr	r3, .L264+12
ARM GAS  /tmp/ccGf2LCS.s 			page 55


 3062 130a 1B68     		ldr	r3, [r3]
 3063 130c 0399     		ldr	r1, [sp, #12]
 3064 130e 01FB03F1 		mul	r1, r1, r3
 3065 1312 029B     		ldr	r3, [sp, #8]
 3066 1314 0B44     		add	r3, r3, r1
 3067 1316 5B00     		lsls	r3, r3, #1
 3068 1318 D118     		adds	r1, r2, r3
 3069 131a 2048     		ldr	r0, .L264+12
 3070 131c 029A     		ldr	r2, [sp, #8]
 3071 131e 1346     		mov	r3, r2
 3072 1320 5B00     		lsls	r3, r3, #1
 3073 1322 1344     		add	r3, r3, r2
 3074 1324 9B00     		lsls	r3, r3, #2
 3075 1326 0344     		add	r3, r3, r0
 3076 1328 0833     		adds	r3, r3, #8
 3077 132a 5A68     		ldr	r2, [r3, #4]
 3078 132c 1C4B     		ldr	r3, .L264+16
 3079 132e 9A42     		cmp	r2, r3
 3080 1330 0FDB     		blt	.L260
 3081              		.loc 1 898 0 is_stmt 0 discriminator 1
 3082 1332 1A48     		ldr	r0, .L264+12
 3083 1334 029A     		ldr	r2, [sp, #8]
 3084 1336 1346     		mov	r3, r2
 3085 1338 5B00     		lsls	r3, r3, #1
 3086 133a 1344     		add	r3, r3, r2
 3087 133c 9B00     		lsls	r3, r3, #2
 3088 133e 0344     		add	r3, r3, r0
 3089 1340 0833     		adds	r3, r3, #8
 3090 1342 5A68     		ldr	r2, [r3, #4]
 3091 1344 47F6F873 		movw	r3, #32760
 3092 1348 9A42     		cmp	r2, r3
 3093 134a B8BF     		it	lt
 3094 134c 1346     		movlt	r3, r2
 3095 134e 9BB2     		uxth	r3, r3
 3096 1350 01E0     		b	.L261
 3097              	.L260:
 3098              		.loc 1 898 0 discriminator 2
 3099 1352 48F20803 		movw	r3, #32776
 3100              	.L261:
 3101              		.loc 1 898 0 discriminator 3
 3102 1356 0B80     		strh	r3, [r1]	@ movhi
 3103              		.loc 1 893 0 is_stmt 1 discriminator 3
 3104 1358 039B     		ldr	r3, [sp, #12]
 3105 135a 0133     		adds	r3, r3, #1
 3106 135c 0393     		str	r3, [sp, #12]
 3107              	.L258:
 3108              		.loc 1 893 0 is_stmt 0 discriminator 1
 3109 135e 0F4B     		ldr	r3, .L264+12
 3110 1360 5A68     		ldr	r2, [r3, #4]
 3111 1362 104B     		ldr	r3, .L264+20
 3112 1364 A3FB0213 		umull	r1, r3, r3, r2
 3113 1368 9A09     		lsrs	r2, r3, #6
 3114 136a 039B     		ldr	r3, [sp, #12]
 3115 136c 9A42     		cmp	r2, r3
 3116 136e 3FF66FAF 		bhi	.L262
 3117              		.loc 1 891 0 is_stmt 1
 3118 1372 029B     		ldr	r3, [sp, #8]
ARM GAS  /tmp/ccGf2LCS.s 			page 56


 3119 1374 0133     		adds	r3, r3, #1
 3120 1376 0293     		str	r3, [sp, #8]
 3121              	.L257:
 3122              		.loc 1 891 0 is_stmt 0 discriminator 1
 3123 1378 084B     		ldr	r3, .L264+12
 3124 137a 1A68     		ldr	r2, [r3]
 3125 137c 029B     		ldr	r3, [sp, #8]
 3126 137e 9A42     		cmp	r2, r3
 3127 1380 3FF663AF 		bhi	.L263
 3128              		.loc 1 901 0 is_stmt 1
 3129 1384 FFF7FEFF 		bl	BSP_AUDIO_IN_HalfTransfer_CallBack
 3130              	.L255:
 3131              		.loc 1 903 0
 3132 1388 05B0     		add	sp, sp, #20
 3133              		@ sp needed
 3134 138a 5DF804FB 		ldr	pc, [sp], #4
 3135              	.L265:
 3136 138e 00BF     		.align	2
 3137              	.L264:
 3138 1390 00000000 		.word	haudio_in_dfsdmfilter
 3139 1394 00000000 		.word	RecBuff
 3140 1398 00000000 		.word	AudioInVolume
 3141 139c 00000000 		.word	SENSORTILE_AudioIn_Handler
 3142 13a0 0880FFFF 		.word	-32760
 3143 13a4 D34D6210 		.word	274877907
 3144              		.cfi_endproc
 3145              	.LFE140:
 3146              		.size	HAL_DFSDM_FilterRegConvHalfCpltCallback, .-HAL_DFSDM_FilterRegConvHalfCpltCallback
 3147              		.align	2
 3148 13a8 AFF30080 		.p2align 4,,15
 3148      AFF30080 
 3149              		.weak	BSP_AUDIO_IN_TransferComplete_CallBack
 3150              		.thumb
 3151              		.thumb_func
 3152              		.type	BSP_AUDIO_IN_TransferComplete_CallBack, %function
 3153              	BSP_AUDIO_IN_TransferComplete_CallBack:
 3154              	.LFB141:
 3155              		.loc 1 910 0
 3156              		.cfi_startproc
 3157              		@ args = 0, pretend = 0, frame = 0
 3158              		@ frame_needed = 0, uses_anonymous_args = 0
 3159              		@ link register save eliminated.
 3160              		.loc 1 914 0
 3161 13b0 7047     		bx	lr
 3162              		.cfi_endproc
 3163              	.LFE141:
 3164              		.size	BSP_AUDIO_IN_TransferComplete_CallBack, .-BSP_AUDIO_IN_TransferComplete_CallBack
 3165 13b2 00BF     		.align	2
 3166 13b4 AFF30080 		.p2align 4,,15
 3166      AFF30080 
 3166      AFF30080 
 3167              		.weak	BSP_AUDIO_IN_HalfTransfer_CallBack
 3168              		.thumb
 3169              		.thumb_func
 3170              		.type	BSP_AUDIO_IN_HalfTransfer_CallBack, %function
 3171              	BSP_AUDIO_IN_HalfTransfer_CallBack:
 3172              	.LFB142:
ARM GAS  /tmp/ccGf2LCS.s 			page 57


 3173              		.loc 1 921 0
 3174              		.cfi_startproc
 3175              		@ args = 0, pretend = 0, frame = 0
 3176              		@ frame_needed = 0, uses_anonymous_args = 0
 3177              		@ link register save eliminated.
 3178              		.loc 1 925 0
 3179 13c0 7047     		bx	lr
 3180              		.cfi_endproc
 3181              	.LFE142:
 3182              		.size	BSP_AUDIO_IN_HalfTransfer_CallBack, .-BSP_AUDIO_IN_HalfTransfer_CallBack
 3183              	.Letext0:
 3184              		.file 2 "/nfs/nfs5/home/research/hardware/arm2/gcc-arm-embedded/gcc-arm-none-eabi-4_8-2014q2/arm-n
 3185              		.file 3 "/nfs/nfs5/home/research/hardware/arm2/gcc-arm-embedded/gcc-arm-none-eabi-4_8-2014q2/arm-n
 3186              		.file 4 "../../../../../../ChibiOS/os/ext/CMSIS/ST/STM32L4xx/stm32l476xx.h"
 3187              		.file 5 "../../../../../../ChibiOS/os/ext/CMSIS/ST/STM32L4xx/stm32l4xx.h"
 3188              		.file 6 "../../../../../Drivers/STM32L4xx_HAL_Driver/Inc/stm32l4xx_hal_def.h"
 3189              		.file 7 "../../../../../Drivers/STM32L4xx_HAL_Driver/Inc/stm32l4xx_hal_rcc_ex.h"
 3190              		.file 8 "../../../../../Drivers/STM32L4xx_HAL_Driver/Inc/stm32l4xx_hal_gpio.h"
 3191              		.file 9 "../../../../../Drivers/STM32L4xx_HAL_Driver/Inc/stm32l4xx_hal_dma.h"
 3192              		.file 10 "../../../../../Drivers/STM32L4xx_HAL_Driver/Inc/stm32l4xx_hal_dfsdm.h"
 3193              		.file 11 "../../../../../Drivers/BSP/SensorTile/SensorTile_audio_in.h"
 3194              		.file 12 "../../../../../../ChibiOS/os/ext/CMSIS/include/core_cm4.h"
 3195 13c2 00BFAFF3 		.section	.debug_info,"",%progbits
 3195      0080AFF3 
 3195      0080AFF3 
 3195      0080
 3196              	.Ldebug_info0:
 3197 0000 FC140000 		.4byte	0x14fc
 3198 0004 0400     		.2byte	0x4
 3199 0006 00000000 		.4byte	.Ldebug_abbrev0
 3200 000a 04       		.byte	0x4
 3201 000b 01       		.uleb128 0x1
 3202 000c FA0F0000 		.4byte	.LASF366
 3203 0010 01       		.byte	0x1
 3204 0011 A5130000 		.4byte	.LASF367
 3205 0015 40080000 		.4byte	.LASF368
 3206 0019 00000000 		.4byte	.Ltext0
 3207 001d C2130000 		.4byte	.Letext0-.Ltext0
 3208 0021 00000000 		.4byte	.Ldebug_line0
 3209 0025 02       		.uleb128 0x2
 3210 0026 01       		.byte	0x1
 3211 0027 04       		.byte	0x4
 3212 0028 55       		.byte	0x55
 3213 0029 5B020000 		.4byte	0x25b
 3214 002d 03       		.uleb128 0x3
 3215 002e C00E0000 		.4byte	.LASF0
 3216 0032 72       		.sleb128 -14
 3217 0033 03       		.uleb128 0x3
 3218 0034 58140000 		.4byte	.LASF1
 3219 0038 73       		.sleb128 -13
 3220 0039 03       		.uleb128 0x3
 3221 003a 0B040000 		.4byte	.LASF2
 3222 003e 74       		.sleb128 -12
 3223 003f 03       		.uleb128 0x3
 3224 0040 A40B0000 		.4byte	.LASF3
 3225 0044 75       		.sleb128 -11
 3226 0045 03       		.uleb128 0x3
ARM GAS  /tmp/ccGf2LCS.s 			page 58


 3227 0046 66010000 		.4byte	.LASF4
 3228 004a 76       		.sleb128 -10
 3229 004b 03       		.uleb128 0x3
 3230 004c C2120000 		.4byte	.LASF5
 3231 0050 7B       		.sleb128 -5
 3232 0051 03       		.uleb128 0x3
 3233 0052 39120000 		.4byte	.LASF6
 3234 0056 7C       		.sleb128 -4
 3235 0057 03       		.uleb128 0x3
 3236 0058 71030000 		.4byte	.LASF7
 3237 005c 7E       		.sleb128 -2
 3238 005d 03       		.uleb128 0x3
 3239 005e 31110000 		.4byte	.LASF8
 3240 0062 7F       		.sleb128 -1
 3241 0063 03       		.uleb128 0x3
 3242 0064 F20A0000 		.4byte	.LASF9
 3243 0068 00       		.sleb128 0
 3244 0069 03       		.uleb128 0x3
 3245 006a 63040000 		.4byte	.LASF10
 3246 006e 01       		.sleb128 1
 3247 006f 03       		.uleb128 0x3
 3248 0070 79040000 		.4byte	.LASF11
 3249 0074 02       		.sleb128 2
 3250 0075 03       		.uleb128 0x3
 3251 0076 6E070000 		.4byte	.LASF12
 3252 007a 03       		.sleb128 3
 3253 007b 03       		.uleb128 0x3
 3254 007c 31020000 		.4byte	.LASF13
 3255 0080 04       		.sleb128 4
 3256 0081 03       		.uleb128 0x3
 3257 0082 E6030000 		.4byte	.LASF14
 3258 0086 05       		.sleb128 5
 3259 0087 03       		.uleb128 0x3
 3260 0088 7B110000 		.4byte	.LASF15
 3261 008c 06       		.sleb128 6
 3262 008d 03       		.uleb128 0x3
 3263 008e 0B0A0000 		.4byte	.LASF16
 3264 0092 07       		.sleb128 7
 3265 0093 03       		.uleb128 0x3
 3266 0094 2A080000 		.4byte	.LASF17
 3267 0098 08       		.sleb128 8
 3268 0099 03       		.uleb128 0x3
 3269 009a 2D140000 		.4byte	.LASF18
 3270 009e 09       		.sleb128 9
 3271 009f 03       		.uleb128 0x3
 3272 00a0 FE0B0000 		.4byte	.LASF19
 3273 00a4 0A       		.sleb128 10
 3274 00a5 03       		.uleb128 0x3
 3275 00a6 9E090000 		.4byte	.LASF20
 3276 00aa 0B       		.sleb128 11
 3277 00ab 03       		.uleb128 0x3
 3278 00ac 95010000 		.4byte	.LASF21
 3279 00b0 0C       		.sleb128 12
 3280 00b1 03       		.uleb128 0x3
 3281 00b2 A40C0000 		.4byte	.LASF22
 3282 00b6 0D       		.sleb128 13
 3283 00b7 03       		.uleb128 0x3
ARM GAS  /tmp/ccGf2LCS.s 			page 59


 3284 00b8 BD0D0000 		.4byte	.LASF23
 3285 00bc 0E       		.sleb128 14
 3286 00bd 03       		.uleb128 0x3
 3287 00be 5C130000 		.4byte	.LASF24
 3288 00c2 0F       		.sleb128 15
 3289 00c3 03       		.uleb128 0x3
 3290 00c4 3E090000 		.4byte	.LASF25
 3291 00c8 10       		.sleb128 16
 3292 00c9 03       		.uleb128 0x3
 3293 00ca F8010000 		.4byte	.LASF26
 3294 00ce 11       		.sleb128 17
 3295 00cf 03       		.uleb128 0x3
 3296 00d0 95150000 		.4byte	.LASF27
 3297 00d4 12       		.sleb128 18
 3298 00d5 03       		.uleb128 0x3
 3299 00d6 150D0000 		.4byte	.LASF28
 3300 00da 13       		.sleb128 19
 3301 00db 03       		.uleb128 0x3
 3302 00dc 490D0000 		.4byte	.LASF29
 3303 00e0 14       		.sleb128 20
 3304 00e1 03       		.uleb128 0x3
 3305 00e2 9F050000 		.4byte	.LASF30
 3306 00e6 15       		.sleb128 21
 3307 00e7 03       		.uleb128 0x3
 3308 00e8 CB000000 		.4byte	.LASF31
 3309 00ec 16       		.sleb128 22
 3310 00ed 03       		.uleb128 0x3
 3311 00ee AB120000 		.4byte	.LASF32
 3312 00f2 17       		.sleb128 23
 3313 00f3 03       		.uleb128 0x3
 3314 00f4 B0040000 		.4byte	.LASF33
 3315 00f8 18       		.sleb128 24
 3316 00f9 03       		.uleb128 0x3
 3317 00fa 9B0E0000 		.4byte	.LASF34
 3318 00fe 19       		.sleb128 25
 3319 00ff 03       		.uleb128 0x3
 3320 0100 88030000 		.4byte	.LASF35
 3321 0104 1A       		.sleb128 26
 3322 0105 03       		.uleb128 0x3
 3323 0106 200F0000 		.4byte	.LASF36
 3324 010a 1B       		.sleb128 27
 3325 010b 03       		.uleb128 0x3
 3326 010c 98110000 		.4byte	.LASF37
 3327 0110 1C       		.sleb128 28
 3328 0111 03       		.uleb128 0x3
 3329 0112 64090000 		.4byte	.LASF38
 3330 0116 1D       		.sleb128 29
 3331 0117 03       		.uleb128 0x3
 3332 0118 8B010000 		.4byte	.LASF39
 3333 011c 1E       		.sleb128 30
 3334 011d 03       		.uleb128 0x3
 3335 011e EB0C0000 		.4byte	.LASF40
 3336 0122 1F       		.sleb128 31
 3337 0123 03       		.uleb128 0x3
 3338 0124 E2100000 		.4byte	.LASF41
 3339 0128 20       		.sleb128 32
 3340 0129 03       		.uleb128 0x3
ARM GAS  /tmp/ccGf2LCS.s 			page 60


 3341 012a E4080000 		.4byte	.LASF42
 3342 012e 21       		.sleb128 33
 3343 012f 03       		.uleb128 0x3
 3344 0130 89040000 		.4byte	.LASF43
 3345 0134 22       		.sleb128 34
 3346 0135 03       		.uleb128 0x3
 3347 0136 E7040000 		.4byte	.LASF44
 3348 013a 23       		.sleb128 35
 3349 013b 03       		.uleb128 0x3
 3350 013c 1F130000 		.4byte	.LASF45
 3351 0140 24       		.sleb128 36
 3352 0141 03       		.uleb128 0x3
 3353 0142 7C140000 		.4byte	.LASF46
 3354 0146 25       		.sleb128 37
 3355 0147 03       		.uleb128 0x3
 3356 0148 96060000 		.4byte	.LASF47
 3357 014c 26       		.sleb128 38
 3358 014d 03       		.uleb128 0x3
 3359 014e 29150000 		.4byte	.LASF48
 3360 0152 27       		.sleb128 39
 3361 0153 03       		.uleb128 0x3
 3362 0154 CE020000 		.4byte	.LASF49
 3363 0158 28       		.sleb128 40
 3364 0159 03       		.uleb128 0x3
 3365 015a 8F0D0000 		.4byte	.LASF50
 3366 015e 29       		.sleb128 41
 3367 015f 03       		.uleb128 0x3
 3368 0160 B8090000 		.4byte	.LASF51
 3369 0164 2A       		.sleb128 42
 3370 0165 03       		.uleb128 0x3
 3371 0166 F5130000 		.4byte	.LASF52
 3372 016a 2B       		.sleb128 43
 3373 016b 03       		.uleb128 0x3
 3374 016c 6C0D0000 		.4byte	.LASF53
 3375 0170 2C       		.sleb128 44
 3376 0171 03       		.uleb128 0x3
 3377 0172 B70C0000 		.4byte	.LASF54
 3378 0176 2D       		.sleb128 45
 3379 0177 03       		.uleb128 0x3
 3380 0178 4A0F0000 		.4byte	.LASF55
 3381 017c 2E       		.sleb128 46
 3382 017d 03       		.uleb128 0x3
 3383 017e 2F0C0000 		.4byte	.LASF56
 3384 0182 2F       		.sleb128 47
 3385 0183 03       		.uleb128 0x3
 3386 0184 59060000 		.4byte	.LASF57
 3387 0188 30       		.sleb128 48
 3388 0189 03       		.uleb128 0x3
 3389 018a 600D0000 		.4byte	.LASF58
 3390 018e 31       		.sleb128 49
 3391 018f 03       		.uleb128 0x3
 3392 0190 9A0C0000 		.4byte	.LASF59
 3393 0194 32       		.sleb128 50
 3394 0195 03       		.uleb128 0x3
 3395 0196 20090000 		.4byte	.LASF60
 3396 019a 33       		.sleb128 51
 3397 019b 03       		.uleb128 0x3
ARM GAS  /tmp/ccGf2LCS.s 			page 61


 3398 019c 7D030000 		.4byte	.LASF61
 3399 01a0 34       		.sleb128 52
 3400 01a1 03       		.uleb128 0x3
 3401 01a2 870E0000 		.4byte	.LASF62
 3402 01a6 35       		.sleb128 53
 3403 01a7 03       		.uleb128 0x3
 3404 01a8 4B120000 		.4byte	.LASF63
 3405 01ac 36       		.sleb128 54
 3406 01ad 03       		.uleb128 0x3
 3407 01ae 800B0000 		.4byte	.LASF64
 3408 01b2 37       		.sleb128 55
 3409 01b3 03       		.uleb128 0x3
 3410 01b4 570F0000 		.4byte	.LASF65
 3411 01b8 38       		.sleb128 56
 3412 01b9 03       		.uleb128 0x3
 3413 01ba A5140000 		.4byte	.LASF66
 3414 01be 39       		.sleb128 57
 3415 01bf 03       		.uleb128 0x3
 3416 01c0 750C0000 		.4byte	.LASF67
 3417 01c4 3A       		.sleb128 58
 3418 01c5 03       		.uleb128 0x3
 3419 01c6 CC040000 		.4byte	.LASF68
 3420 01ca 3B       		.sleb128 59
 3421 01cb 03       		.uleb128 0x3
 3422 01cc AD100000 		.4byte	.LASF69
 3423 01d0 3C       		.sleb128 60
 3424 01d1 03       		.uleb128 0x3
 3425 01d2 790D0000 		.4byte	.LASF70
 3426 01d6 3D       		.sleb128 61
 3427 01d7 03       		.uleb128 0x3
 3428 01d8 8E050000 		.4byte	.LASF71
 3429 01dc 3E       		.sleb128 62
 3430 01dd 03       		.uleb128 0x3
 3431 01de 94130000 		.4byte	.LASF72
 3432 01e2 3F       		.sleb128 63
 3433 01e3 03       		.uleb128 0x3
 3434 01e4 84050000 		.4byte	.LASF73
 3435 01e8 C000     		.sleb128 64
 3436 01ea 03       		.uleb128 0x3
 3437 01eb 2D120000 		.4byte	.LASF74
 3438 01ef C100     		.sleb128 65
 3439 01f1 03       		.uleb128 0x3
 3440 01f2 FF090000 		.4byte	.LASF75
 3441 01f6 C200     		.sleb128 66
 3442 01f8 03       		.uleb128 0x3
 3443 01f9 96040000 		.4byte	.LASF76
 3444 01fd C300     		.sleb128 67
 3445 01ff 03       		.uleb128 0x3
 3446 0200 F1080000 		.4byte	.LASF77
 3447 0204 C400     		.sleb128 68
 3448 0206 03       		.uleb128 0x3
 3449 0207 92000000 		.4byte	.LASF78
 3450 020b C500     		.sleb128 69
 3451 020d 03       		.uleb128 0x3
 3452 020e 75000000 		.4byte	.LASF79
 3453 0212 C600     		.sleb128 70
 3454 0214 03       		.uleb128 0x3
ARM GAS  /tmp/ccGf2LCS.s 			page 62


 3455 0215 45110000 		.4byte	.LASF80
 3456 0219 C700     		.sleb128 71
 3457 021b 03       		.uleb128 0x3
 3458 021c 78120000 		.4byte	.LASF81
 3459 0220 C800     		.sleb128 72
 3460 0222 03       		.uleb128 0x3
 3461 0223 27070000 		.4byte	.LASF82
 3462 0227 C900     		.sleb128 73
 3463 0229 03       		.uleb128 0x3
 3464 022a 19120000 		.4byte	.LASF83
 3465 022e CA00     		.sleb128 74
 3466 0230 03       		.uleb128 0x3
 3467 0231 F5090000 		.4byte	.LASF84
 3468 0235 CB00     		.sleb128 75
 3469 0237 03       		.uleb128 0x3
 3470 0238 6E090000 		.4byte	.LASF85
 3471 023c CC00     		.sleb128 76
 3472 023e 03       		.uleb128 0x3
 3473 023f 770B0000 		.4byte	.LASF86
 3474 0243 CD00     		.sleb128 77
 3475 0245 03       		.uleb128 0x3
 3476 0246 0E0C0000 		.4byte	.LASF87
 3477 024a CE00     		.sleb128 78
 3478 024c 03       		.uleb128 0x3
 3479 024d 6A0F0000 		.4byte	.LASF88
 3480 0251 D000     		.sleb128 80
 3481 0253 03       		.uleb128 0x3
 3482 0254 72150000 		.4byte	.LASF89
 3483 0258 D100     		.sleb128 81
 3484 025a 00       		.byte	0
 3485 025b 04       		.uleb128 0x4
 3486 025c 01       		.byte	0x1
 3487 025d 06       		.byte	0x6
 3488 025e E9130000 		.4byte	.LASF90
 3489 0262 05       		.uleb128 0x5
 3490 0263 B30F0000 		.4byte	.LASF93
 3491 0267 02       		.byte	0x2
 3492 0268 1C       		.byte	0x1c
 3493 0269 6D020000 		.4byte	0x26d
 3494 026d 04       		.uleb128 0x4
 3495 026e 01       		.byte	0x1
 3496 026f 08       		.byte	0x8
 3497 0270 6A120000 		.4byte	.LASF91
 3498 0274 04       		.uleb128 0x4
 3499 0275 02       		.byte	0x2
 3500 0276 05       		.byte	0x5
 3501 0277 3F0C0000 		.4byte	.LASF92
 3502 027b 05       		.uleb128 0x5
 3503 027c 35080000 		.4byte	.LASF94
 3504 0280 02       		.byte	0x2
 3505 0281 26       		.byte	0x26
 3506 0282 86020000 		.4byte	0x286
 3507 0286 04       		.uleb128 0x4
 3508 0287 02       		.byte	0x2
 3509 0288 07       		.byte	0x7
 3510 0289 1A140000 		.4byte	.LASF95
 3511 028d 05       		.uleb128 0x5
ARM GAS  /tmp/ccGf2LCS.s 			page 63


 3512 028e 82090000 		.4byte	.LASF96
 3513 0292 02       		.byte	0x2
 3514 0293 37       		.byte	0x37
 3515 0294 98020000 		.4byte	0x298
 3516 0298 04       		.uleb128 0x4
 3517 0299 04       		.byte	0x4
 3518 029a 05       		.byte	0x5
 3519 029b 750E0000 		.4byte	.LASF97
 3520 029f 05       		.uleb128 0x5
 3521 02a0 85120000 		.4byte	.LASF98
 3522 02a4 02       		.byte	0x2
 3523 02a5 38       		.byte	0x38
 3524 02a6 AA020000 		.4byte	0x2aa
 3525 02aa 04       		.uleb128 0x4
 3526 02ab 04       		.byte	0x4
 3527 02ac 07       		.byte	0x7
 3528 02ad 86110000 		.4byte	.LASF99
 3529 02b1 04       		.uleb128 0x4
 3530 02b2 08       		.byte	0x8
 3531 02b3 05       		.byte	0x5
 3532 02b4 E40A0000 		.4byte	.LASF100
 3533 02b8 04       		.uleb128 0x4
 3534 02b9 08       		.byte	0x8
 3535 02ba 07       		.byte	0x7
 3536 02bb 1C050000 		.4byte	.LASF101
 3537 02bf 06       		.uleb128 0x6
 3538 02c0 04       		.byte	0x4
 3539 02c1 05       		.byte	0x5
 3540 02c2 696E7400 		.ascii	"int\000"
 3541 02c6 04       		.uleb128 0x4
 3542 02c7 04       		.byte	0x4
 3543 02c8 07       		.byte	0x7
 3544 02c9 D8090000 		.4byte	.LASF102
 3545 02cd 05       		.uleb128 0x5
 3546 02ce ED090000 		.4byte	.LASF103
 3547 02d2 03       		.byte	0x3
 3548 02d3 2A       		.byte	0x2a
 3549 02d4 62020000 		.4byte	0x262
 3550 02d8 05       		.uleb128 0x5
 3551 02d9 220D0000 		.4byte	.LASF104
 3552 02dd 03       		.byte	0x3
 3553 02de 36       		.byte	0x36
 3554 02df 7B020000 		.4byte	0x27b
 3555 02e3 05       		.uleb128 0x5
 3556 02e4 D0110000 		.4byte	.LASF105
 3557 02e8 03       		.byte	0x3
 3558 02e9 41       		.byte	0x41
 3559 02ea 8D020000 		.4byte	0x28d
 3560 02ee 05       		.uleb128 0x5
 3561 02ef 5A040000 		.4byte	.LASF106
 3562 02f3 03       		.byte	0x3
 3563 02f4 42       		.byte	0x42
 3564 02f5 9F020000 		.4byte	0x29f
 3565 02f9 04       		.uleb128 0x4
 3566 02fa 04       		.byte	0x4
 3567 02fb 07       		.byte	0x7
 3568 02fc 52110000 		.4byte	.LASF107
ARM GAS  /tmp/ccGf2LCS.s 			page 64


 3569 0300 07       		.uleb128 0x7
 3570 0301 EE020000 		.4byte	0x2ee
 3571 0305 08       		.uleb128 0x8
 3572 0306 EE020000 		.4byte	0x2ee
 3573 030a 15030000 		.4byte	0x315
 3574 030e 09       		.uleb128 0x9
 3575 030f F9020000 		.4byte	0x2f9
 3576 0313 01       		.byte	0x1
 3577 0314 00       		.byte	0
 3578 0315 0A       		.uleb128 0xa
 3579 0316 3C       		.byte	0x3c
 3580 0317 04       		.byte	0x4
 3581 0318 7501     		.2byte	0x175
 3582 031a E2030000 		.4byte	0x3e2
 3583 031e 0B       		.uleb128 0xb
 3584 031f 74110000 		.4byte	.LASF108
 3585 0323 04       		.byte	0x4
 3586 0324 7701     		.2byte	0x177
 3587 0326 00030000 		.4byte	0x300
 3588 032a 00       		.byte	0
 3589 032b 0B       		.uleb128 0xb
 3590 032c FC0A0000 		.4byte	.LASF109
 3591 0330 04       		.byte	0x4
 3592 0331 7801     		.2byte	0x178
 3593 0333 00030000 		.4byte	0x300
 3594 0337 04       		.byte	0x4
 3595 0338 0B       		.uleb128 0xb
 3596 0339 030B0000 		.4byte	.LASF110
 3597 033d 04       		.byte	0x4
 3598 033e 7901     		.2byte	0x179
 3599 0340 00030000 		.4byte	0x300
 3600 0344 08       		.byte	0x8
 3601 0345 0B       		.uleb128 0xb
 3602 0346 AD050000 		.4byte	.LASF111
 3603 034a 04       		.byte	0x4
 3604 034b 7A01     		.2byte	0x17a
 3605 034d 00030000 		.4byte	0x300
 3606 0351 0C       		.byte	0xc
 3607 0352 0B       		.uleb128 0xb
 3608 0353 C4050000 		.4byte	.LASF112
 3609 0357 04       		.byte	0x4
 3610 0358 7B01     		.2byte	0x17b
 3611 035a 00030000 		.4byte	0x300
 3612 035e 10       		.byte	0x10
 3613 035f 0B       		.uleb128 0xb
 3614 0360 D4010000 		.4byte	.LASF113
 3615 0364 04       		.byte	0x4
 3616 0365 7C01     		.2byte	0x17c
 3617 0367 00030000 		.4byte	0x300
 3618 036b 14       		.byte	0x14
 3619 036c 0B       		.uleb128 0xb
 3620 036d B8120000 		.4byte	.LASF114
 3621 0371 04       		.byte	0x4
 3622 0372 7D01     		.2byte	0x17d
 3623 0374 00030000 		.4byte	0x300
 3624 0378 18       		.byte	0x18
 3625 0379 0B       		.uleb128 0xb
ARM GAS  /tmp/ccGf2LCS.s 			page 65


 3626 037a 950F0000 		.4byte	.LASF115
 3627 037e 04       		.byte	0x4
 3628 037f 7E01     		.2byte	0x17e
 3629 0381 00030000 		.4byte	0x300
 3630 0385 1C       		.byte	0x1c
 3631 0386 0B       		.uleb128 0xb
 3632 0387 10120000 		.4byte	.LASF116
 3633 038b 04       		.byte	0x4
 3634 038c 7F01     		.2byte	0x17f
 3635 038e 00030000 		.4byte	0x300
 3636 0392 20       		.byte	0x20
 3637 0393 0B       		.uleb128 0xb
 3638 0394 17090000 		.4byte	.LASF117
 3639 0398 04       		.byte	0x4
 3640 0399 8001     		.2byte	0x180
 3641 039b 00030000 		.4byte	0x300
 3642 039f 24       		.byte	0x24
 3643 03a0 0B       		.uleb128 0xb
 3644 03a1 08120000 		.4byte	.LASF118
 3645 03a5 04       		.byte	0x4
 3646 03a6 8101     		.2byte	0x181
 3647 03a8 00030000 		.4byte	0x300
 3648 03ac 28       		.byte	0x28
 3649 03ad 0B       		.uleb128 0xb
 3650 03ae 03140000 		.4byte	.LASF119
 3651 03b2 04       		.byte	0x4
 3652 03b3 8201     		.2byte	0x182
 3653 03b5 00030000 		.4byte	0x300
 3654 03b9 2C       		.byte	0x2c
 3655 03ba 0B       		.uleb128 0xb
 3656 03bb 9F0F0000 		.4byte	.LASF120
 3657 03bf 04       		.byte	0x4
 3658 03c0 8301     		.2byte	0x183
 3659 03c2 00030000 		.4byte	0x300
 3660 03c6 30       		.byte	0x30
 3661 03c7 0B       		.uleb128 0xb
 3662 03c8 64050000 		.4byte	.LASF121
 3663 03cc 04       		.byte	0x4
 3664 03cd 8401     		.2byte	0x184
 3665 03cf 00030000 		.4byte	0x300
 3666 03d3 34       		.byte	0x34
 3667 03d4 0B       		.uleb128 0xb
 3668 03d5 10070000 		.4byte	.LASF122
 3669 03d9 04       		.byte	0x4
 3670 03da 8501     		.2byte	0x185
 3671 03dc 00030000 		.4byte	0x300
 3672 03e0 38       		.byte	0x38
 3673 03e1 00       		.byte	0
 3674 03e2 0C       		.uleb128 0xc
 3675 03e3 41010000 		.4byte	.LASF123
 3676 03e7 04       		.byte	0x4
 3677 03e8 8601     		.2byte	0x186
 3678 03ea 15030000 		.4byte	0x315
 3679 03ee 0A       		.uleb128 0xa
 3680 03ef 14       		.byte	0x14
 3681 03f0 04       		.byte	0x4
 3682 03f1 8B01     		.2byte	0x18b
ARM GAS  /tmp/ccGf2LCS.s 			page 66


 3683 03f3 39040000 		.4byte	0x439
 3684 03f7 0B       		.uleb128 0xb
 3685 03f8 82000000 		.4byte	.LASF124
 3686 03fc 04       		.byte	0x4
 3687 03fd 8D01     		.2byte	0x18d
 3688 03ff 00030000 		.4byte	0x300
 3689 0403 00       		.byte	0
 3690 0404 0B       		.uleb128 0xb
 3691 0405 8A000000 		.4byte	.LASF125
 3692 0409 04       		.byte	0x4
 3693 040a 8E01     		.2byte	0x18e
 3694 040c 00030000 		.4byte	0x300
 3695 0410 04       		.byte	0x4
 3696 0411 0B       		.uleb128 0xb
 3697 0412 6C000000 		.4byte	.LASF126
 3698 0416 04       		.byte	0x4
 3699 0417 8F01     		.2byte	0x18f
 3700 0419 00030000 		.4byte	0x300
 3701 041d 08       		.byte	0x8
 3702 041e 0B       		.uleb128 0xb
 3703 041f DD020000 		.4byte	.LASF127
 3704 0423 04       		.byte	0x4
 3705 0424 9101     		.2byte	0x191
 3706 0426 00030000 		.4byte	0x300
 3707 042a 0C       		.byte	0xc
 3708 042b 0B       		.uleb128 0xb
 3709 042c C5020000 		.4byte	.LASF128
 3710 0430 04       		.byte	0x4
 3711 0431 9201     		.2byte	0x192
 3712 0433 00030000 		.4byte	0x300
 3713 0437 10       		.byte	0x10
 3714 0438 00       		.byte	0
 3715 0439 0C       		.uleb128 0xc
 3716 043a 58070000 		.4byte	.LASF129
 3717 043e 04       		.byte	0x4
 3718 043f 9301     		.2byte	0x193
 3719 0441 EE030000 		.4byte	0x3ee
 3720 0445 0A       		.uleb128 0xa
 3721 0446 10       		.byte	0x10
 3722 0447 04       		.byte	0x4
 3723 0448 A701     		.2byte	0x1a7
 3724 044a 83040000 		.4byte	0x483
 3725 044e 0D       		.uleb128 0xd
 3726 044f 43435200 		.ascii	"CCR\000"
 3727 0453 04       		.byte	0x4
 3728 0454 A901     		.2byte	0x1a9
 3729 0456 00030000 		.4byte	0x300
 3730 045a 00       		.byte	0
 3731 045b 0B       		.uleb128 0xb
 3732 045c E0030000 		.4byte	.LASF130
 3733 0460 04       		.byte	0x4
 3734 0461 AA01     		.2byte	0x1aa
 3735 0463 00030000 		.4byte	0x300
 3736 0467 04       		.byte	0x4
 3737 0468 0B       		.uleb128 0xb
 3738 0469 19020000 		.4byte	.LASF131
 3739 046d 04       		.byte	0x4
ARM GAS  /tmp/ccGf2LCS.s 			page 67


 3740 046e AB01     		.2byte	0x1ab
 3741 0470 00030000 		.4byte	0x300
 3742 0474 08       		.byte	0x8
 3743 0475 0B       		.uleb128 0xb
 3744 0476 5E020000 		.4byte	.LASF132
 3745 047a 04       		.byte	0x4
 3746 047b AC01     		.2byte	0x1ac
 3747 047d 00030000 		.4byte	0x300
 3748 0481 0C       		.byte	0xc
 3749 0482 00       		.byte	0
 3750 0483 0C       		.uleb128 0xc
 3751 0484 5E150000 		.4byte	.LASF133
 3752 0488 04       		.byte	0x4
 3753 0489 AD01     		.2byte	0x1ad
 3754 048b 45040000 		.4byte	0x445
 3755 048f 0A       		.uleb128 0xa
 3756 0490 08       		.byte	0x8
 3757 0491 04       		.byte	0x4
 3758 0492 AF01     		.2byte	0x1af
 3759 0494 B3040000 		.4byte	0x4b3
 3760 0498 0D       		.uleb128 0xd
 3761 0499 49535200 		.ascii	"ISR\000"
 3762 049d 04       		.byte	0x4
 3763 049e B101     		.2byte	0x1b1
 3764 04a0 00030000 		.4byte	0x300
 3765 04a4 00       		.byte	0
 3766 04a5 0B       		.uleb128 0xb
 3767 04a6 38140000 		.4byte	.LASF134
 3768 04aa 04       		.byte	0x4
 3769 04ab B201     		.2byte	0x1b2
 3770 04ad 00030000 		.4byte	0x300
 3771 04b1 04       		.byte	0x4
 3772 04b2 00       		.byte	0
 3773 04b3 0C       		.uleb128 0xc
 3774 04b4 B20B0000 		.4byte	.LASF135
 3775 04b8 04       		.byte	0x4
 3776 04b9 B301     		.2byte	0x1b3
 3777 04bb 8F040000 		.4byte	0x48f
 3778 04bf 0A       		.uleb128 0xa
 3779 04c0 30       		.byte	0x30
 3780 04c1 04       		.byte	0x4
 3781 04c2 2602     		.2byte	0x226
 3782 04c4 58050000 		.4byte	0x558
 3783 04c8 0B       		.uleb128 0xb
 3784 04c9 52070000 		.4byte	.LASF136
 3785 04cd 04       		.byte	0x4
 3786 04ce 2802     		.2byte	0x228
 3787 04d0 00030000 		.4byte	0x300
 3788 04d4 00       		.byte	0
 3789 04d5 0B       		.uleb128 0xb
 3790 04d6 2D0F0000 		.4byte	.LASF137
 3791 04da 04       		.byte	0x4
 3792 04db 2902     		.2byte	0x229
 3793 04dd 00030000 		.4byte	0x300
 3794 04e1 04       		.byte	0x4
 3795 04e2 0B       		.uleb128 0xb
 3796 04e3 FE0C0000 		.4byte	.LASF138
ARM GAS  /tmp/ccGf2LCS.s 			page 68


 3797 04e7 04       		.byte	0x4
 3798 04e8 2A02     		.2byte	0x22a
 3799 04ea 00030000 		.4byte	0x300
 3800 04ee 08       		.byte	0x8
 3801 04ef 0B       		.uleb128 0xb
 3802 04f0 22060000 		.4byte	.LASF139
 3803 04f4 04       		.byte	0x4
 3804 04f5 2B02     		.2byte	0x22b
 3805 04f7 00030000 		.4byte	0x300
 3806 04fb 0C       		.byte	0xc
 3807 04fc 0D       		.uleb128 0xd
 3808 04fd 49445200 		.ascii	"IDR\000"
 3809 0501 04       		.byte	0x4
 3810 0502 2C02     		.2byte	0x22c
 3811 0504 00030000 		.4byte	0x300
 3812 0508 10       		.byte	0x10
 3813 0509 0D       		.uleb128 0xd
 3814 050a 4F445200 		.ascii	"ODR\000"
 3815 050e 04       		.byte	0x4
 3816 050f 2D02     		.2byte	0x22d
 3817 0511 00030000 		.4byte	0x300
 3818 0515 14       		.byte	0x14
 3819 0516 0B       		.uleb128 0xb
 3820 0517 67000000 		.4byte	.LASF140
 3821 051b 04       		.byte	0x4
 3822 051c 2E02     		.2byte	0x22e
 3823 051e 00030000 		.4byte	0x300
 3824 0522 18       		.byte	0x18
 3825 0523 0B       		.uleb128 0xb
 3826 0524 B4150000 		.4byte	.LASF141
 3827 0528 04       		.byte	0x4
 3828 0529 2F02     		.2byte	0x22f
 3829 052b 00030000 		.4byte	0x300
 3830 052f 1C       		.byte	0x1c
 3831 0530 0D       		.uleb128 0xd
 3832 0531 41465200 		.ascii	"AFR\000"
 3833 0535 04       		.byte	0x4
 3834 0536 3002     		.2byte	0x230
 3835 0538 58050000 		.4byte	0x558
 3836 053c 20       		.byte	0x20
 3837 053d 0D       		.uleb128 0xd
 3838 053e 42525200 		.ascii	"BRR\000"
 3839 0542 04       		.byte	0x4
 3840 0543 3102     		.2byte	0x231
 3841 0545 00030000 		.4byte	0x300
 3842 0549 28       		.byte	0x28
 3843 054a 0B       		.uleb128 0xb
 3844 054b 460A0000 		.4byte	.LASF142
 3845 054f 04       		.byte	0x4
 3846 0550 3202     		.2byte	0x232
 3847 0552 00030000 		.4byte	0x300
 3848 0556 2C       		.byte	0x2c
 3849 0557 00       		.byte	0
 3850 0558 07       		.uleb128 0x7
 3851 0559 05030000 		.4byte	0x305
 3852 055d 0C       		.uleb128 0xc
 3853 055e FB110000 		.4byte	.LASF143
ARM GAS  /tmp/ccGf2LCS.s 			page 69


 3854 0562 04       		.byte	0x4
 3855 0563 3402     		.2byte	0x234
 3856 0565 BF040000 		.4byte	0x4bf
 3857 0569 0A       		.uleb128 0xa
 3858 056a 98       		.byte	0x98
 3859 056b 04       		.byte	0x4
 3860 056c C002     		.2byte	0x2c0
 3861 056e 60070000 		.4byte	0x760
 3862 0572 0D       		.uleb128 0xd
 3863 0573 435200   		.ascii	"CR\000"
 3864 0576 04       		.byte	0x4
 3865 0577 C202     		.2byte	0x2c2
 3866 0579 00030000 		.4byte	0x300
 3867 057d 00       		.byte	0
 3868 057e 0B       		.uleb128 0xb
 3869 057f 390C0000 		.4byte	.LASF144
 3870 0583 04       		.byte	0x4
 3871 0584 C302     		.2byte	0x2c3
 3872 0586 00030000 		.4byte	0x300
 3873 058a 04       		.byte	0x4
 3874 058b 0B       		.uleb128 0xb
 3875 058c 730F0000 		.4byte	.LASF145
 3876 0590 04       		.byte	0x4
 3877 0591 C402     		.2byte	0x2c4
 3878 0593 00030000 		.4byte	0x300
 3879 0597 08       		.byte	0x8
 3880 0598 0B       		.uleb128 0xb
 3881 0599 E5090000 		.4byte	.LASF146
 3882 059d 04       		.byte	0x4
 3883 059e C502     		.2byte	0x2c5
 3884 05a0 00030000 		.4byte	0x300
 3885 05a4 0C       		.byte	0xc
 3886 05a5 0B       		.uleb128 0xb
 3887 05a6 BE0B0000 		.4byte	.LASF147
 3888 05aa 04       		.byte	0x4
 3889 05ab C602     		.2byte	0x2c6
 3890 05ad 00030000 		.4byte	0x300
 3891 05b1 10       		.byte	0x10
 3892 05b2 0B       		.uleb128 0xb
 3893 05b3 4E040000 		.4byte	.LASF148
 3894 05b7 04       		.byte	0x4
 3895 05b8 C702     		.2byte	0x2c7
 3896 05ba 00030000 		.4byte	0x300
 3897 05be 14       		.byte	0x14
 3898 05bf 0B       		.uleb128 0xb
 3899 05c0 00000000 		.4byte	.LASF149
 3900 05c4 04       		.byte	0x4
 3901 05c5 C802     		.2byte	0x2c8
 3902 05c7 00030000 		.4byte	0x300
 3903 05cb 18       		.byte	0x18
 3904 05cc 0B       		.uleb128 0xb
 3905 05cd F5120000 		.4byte	.LASF150
 3906 05d1 04       		.byte	0x4
 3907 05d2 C902     		.2byte	0x2c9
 3908 05d4 00030000 		.4byte	0x300
 3909 05d8 1C       		.byte	0x1c
 3910 05d9 0B       		.uleb128 0xb
ARM GAS  /tmp/ccGf2LCS.s 			page 70


 3911 05da 8A0D0000 		.4byte	.LASF151
 3912 05de 04       		.byte	0x4
 3913 05df CA02     		.2byte	0x2ca
 3914 05e1 00030000 		.4byte	0x300
 3915 05e5 20       		.byte	0x20
 3916 05e6 0B       		.uleb128 0xb
 3917 05e7 D00D0000 		.4byte	.LASF152
 3918 05eb 04       		.byte	0x4
 3919 05ec CB02     		.2byte	0x2cb
 3920 05ee EE020000 		.4byte	0x2ee
 3921 05f2 24       		.byte	0x24
 3922 05f3 0B       		.uleb128 0xb
 3923 05f4 AB150000 		.4byte	.LASF153
 3924 05f8 04       		.byte	0x4
 3925 05f9 CC02     		.2byte	0x2cc
 3926 05fb 00030000 		.4byte	0x300
 3927 05ff 28       		.byte	0x28
 3928 0600 0B       		.uleb128 0xb
 3929 0601 570D0000 		.4byte	.LASF154
 3930 0605 04       		.byte	0x4
 3931 0606 CD02     		.2byte	0x2cd
 3932 0608 00030000 		.4byte	0x300
 3933 060c 2C       		.byte	0x2c
 3934 060d 0B       		.uleb128 0xb
 3935 060e CD050000 		.4byte	.LASF155
 3936 0612 04       		.byte	0x4
 3937 0613 CE02     		.2byte	0x2ce
 3938 0615 00030000 		.4byte	0x300
 3939 0619 30       		.byte	0x30
 3940 061a 0B       		.uleb128 0xb
 3941 061b 600B0000 		.4byte	.LASF156
 3942 061f 04       		.byte	0x4
 3943 0620 CF02     		.2byte	0x2cf
 3944 0622 EE020000 		.4byte	0x2ee
 3945 0626 34       		.byte	0x34
 3946 0627 0B       		.uleb128 0xb
 3947 0628 230E0000 		.4byte	.LASF157
 3948 062c 04       		.byte	0x4
 3949 062d D002     		.2byte	0x2d0
 3950 062f 00030000 		.4byte	0x300
 3951 0633 38       		.byte	0x38
 3952 0634 0B       		.uleb128 0xb
 3953 0635 BB060000 		.4byte	.LASF158
 3954 0639 04       		.byte	0x4
 3955 063a D102     		.2byte	0x2d1
 3956 063c 00030000 		.4byte	0x300
 3957 0640 3C       		.byte	0x3c
 3958 0641 0B       		.uleb128 0xb
 3959 0642 C2000000 		.4byte	.LASF159
 3960 0646 04       		.byte	0x4
 3961 0647 D202     		.2byte	0x2d2
 3962 0649 00030000 		.4byte	0x300
 3963 064d 40       		.byte	0x40
 3964 064e 0B       		.uleb128 0xb
 3965 064f B8140000 		.4byte	.LASF160
 3966 0653 04       		.byte	0x4
 3967 0654 D302     		.2byte	0x2d3
ARM GAS  /tmp/ccGf2LCS.s 			page 71


 3968 0656 EE020000 		.4byte	0x2ee
 3969 065a 44       		.byte	0x44
 3970 065b 0B       		.uleb128 0xb
 3971 065c C4040000 		.4byte	.LASF161
 3972 0660 04       		.byte	0x4
 3973 0661 D402     		.2byte	0x2d4
 3974 0663 00030000 		.4byte	0x300
 3975 0667 48       		.byte	0x48
 3976 0668 0B       		.uleb128 0xb
 3977 0669 DB010000 		.4byte	.LASF162
 3978 066d 04       		.byte	0x4
 3979 066e D502     		.2byte	0x2d5
 3980 0670 00030000 		.4byte	0x300
 3981 0674 4C       		.byte	0x4c
 3982 0675 0B       		.uleb128 0xb
 3983 0676 F3070000 		.4byte	.LASF163
 3984 067a 04       		.byte	0x4
 3985 067b D602     		.2byte	0x2d6
 3986 067d 00030000 		.4byte	0x300
 3987 0681 50       		.byte	0x50
 3988 0682 0B       		.uleb128 0xb
 3989 0683 FB0D0000 		.4byte	.LASF164
 3990 0687 04       		.byte	0x4
 3991 0688 D702     		.2byte	0x2d7
 3992 068a EE020000 		.4byte	0x2ee
 3993 068e 54       		.byte	0x54
 3994 068f 0B       		.uleb128 0xb
 3995 0690 BD0F0000 		.4byte	.LASF165
 3996 0694 04       		.byte	0x4
 3997 0695 D802     		.2byte	0x2d8
 3998 0697 00030000 		.4byte	0x300
 3999 069b 58       		.byte	0x58
 4000 069c 0B       		.uleb128 0xb
 4001 069d C60F0000 		.4byte	.LASF166
 4002 06a1 04       		.byte	0x4
 4003 06a2 D902     		.2byte	0x2d9
 4004 06a4 00030000 		.4byte	0x300
 4005 06a8 5C       		.byte	0x5c
 4006 06a9 0B       		.uleb128 0xb
 4007 06aa 880C0000 		.4byte	.LASF167
 4008 06ae 04       		.byte	0x4
 4009 06af DA02     		.2byte	0x2da
 4010 06b1 00030000 		.4byte	0x300
 4011 06b5 60       		.byte	0x60
 4012 06b6 0B       		.uleb128 0xb
 4013 06b7 D4140000 		.4byte	.LASF168
 4014 06bb 04       		.byte	0x4
 4015 06bc DB02     		.2byte	0x2db
 4016 06be EE020000 		.4byte	0x2ee
 4017 06c2 64       		.byte	0x64
 4018 06c3 0B       		.uleb128 0xb
 4019 06c4 F2060000 		.4byte	.LASF169
 4020 06c8 04       		.byte	0x4
 4021 06c9 DC02     		.2byte	0x2dc
 4022 06cb 00030000 		.4byte	0x300
 4023 06cf 68       		.byte	0x68
 4024 06d0 0B       		.uleb128 0xb
ARM GAS  /tmp/ccGf2LCS.s 			page 72


 4025 06d1 7B150000 		.4byte	.LASF170
 4026 06d5 04       		.byte	0x4
 4027 06d6 DD02     		.2byte	0x2dd
 4028 06d8 00030000 		.4byte	0x300
 4029 06dc 6C       		.byte	0x6c
 4030 06dd 0B       		.uleb128 0xb
 4031 06de 780F0000 		.4byte	.LASF171
 4032 06e2 04       		.byte	0x4
 4033 06e3 DE02     		.2byte	0x2de
 4034 06e5 00030000 		.4byte	0x300
 4035 06e9 70       		.byte	0x70
 4036 06ea 0B       		.uleb128 0xb
 4037 06eb 190E0000 		.4byte	.LASF172
 4038 06ef 04       		.byte	0x4
 4039 06f0 DF02     		.2byte	0x2df
 4040 06f2 EE020000 		.4byte	0x2ee
 4041 06f6 74       		.byte	0x74
 4042 06f7 0B       		.uleb128 0xb
 4043 06f8 D50C0000 		.4byte	.LASF173
 4044 06fc 04       		.byte	0x4
 4045 06fd E002     		.2byte	0x2e0
 4046 06ff 00030000 		.4byte	0x300
 4047 0703 78       		.byte	0x78
 4048 0704 0B       		.uleb128 0xb
 4049 0705 E00C0000 		.4byte	.LASF174
 4050 0709 04       		.byte	0x4
 4051 070a E102     		.2byte	0x2e1
 4052 070c 00030000 		.4byte	0x300
 4053 0710 7C       		.byte	0x7c
 4054 0711 0B       		.uleb128 0xb
 4055 0712 15130000 		.4byte	.LASF175
 4056 0716 04       		.byte	0x4
 4057 0717 E202     		.2byte	0x2e2
 4058 0719 00030000 		.4byte	0x300
 4059 071d 80       		.byte	0x80
 4060 071e 0B       		.uleb128 0xb
 4061 071f 33050000 		.4byte	.LASF176
 4062 0723 04       		.byte	0x4
 4063 0724 E302     		.2byte	0x2e3
 4064 0726 EE020000 		.4byte	0x2ee
 4065 072a 84       		.byte	0x84
 4066 072b 0B       		.uleb128 0xb
 4067 072c F80C0000 		.4byte	.LASF177
 4068 0730 04       		.byte	0x4
 4069 0731 E402     		.2byte	0x2e4
 4070 0733 00030000 		.4byte	0x300
 4071 0737 88       		.byte	0x88
 4072 0738 0B       		.uleb128 0xb
 4073 0739 2D0E0000 		.4byte	.LASF178
 4074 073d 04       		.byte	0x4
 4075 073e E502     		.2byte	0x2e5
 4076 0740 00030000 		.4byte	0x300
 4077 0744 8C       		.byte	0x8c
 4078 0745 0B       		.uleb128 0xb
 4079 0746 14020000 		.4byte	.LASF179
 4080 074a 04       		.byte	0x4
 4081 074b E602     		.2byte	0x2e6
ARM GAS  /tmp/ccGf2LCS.s 			page 73


 4082 074d 00030000 		.4byte	0x300
 4083 0751 90       		.byte	0x90
 4084 0752 0D       		.uleb128 0xd
 4085 0753 43535200 		.ascii	"CSR\000"
 4086 0757 04       		.byte	0x4
 4087 0758 E702     		.2byte	0x2e7
 4088 075a 00030000 		.4byte	0x300
 4089 075e 94       		.byte	0x94
 4090 075f 00       		.byte	0
 4091 0760 0C       		.uleb128 0xc
 4092 0761 1B070000 		.4byte	.LASF180
 4093 0765 04       		.byte	0x4
 4094 0766 E802     		.2byte	0x2e8
 4095 0768 69050000 		.4byte	0x569
 4096 076c 02       		.uleb128 0x2
 4097 076d 01       		.byte	0x1
 4098 076e 05       		.byte	0x5
 4099 076f B4       		.byte	0xb4
 4100 0770 81070000 		.4byte	0x781
 4101 0774 03       		.uleb128 0x3
 4102 0775 7A090000 		.4byte	.LASF181
 4103 0779 00       		.sleb128 0
 4104 077a 03       		.uleb128 0x3
 4105 077b 3E110000 		.4byte	.LASF182
 4106 077f 01       		.sleb128 1
 4107 0780 00       		.byte	0
 4108 0781 05       		.uleb128 0x5
 4109 0782 C4010000 		.4byte	.LASF183
 4110 0786 05       		.byte	0x5
 4111 0787 B7       		.byte	0xb7
 4112 0788 6C070000 		.4byte	0x76c
 4113 078c 0E       		.uleb128 0xe
 4114 078d 04       		.byte	0x4
 4115 078e 04       		.uleb128 0x4
 4116 078f 01       		.byte	0x1
 4117 0790 08       		.byte	0x8
 4118 0791 39090000 		.4byte	.LASF184
 4119 0795 02       		.uleb128 0x2
 4120 0796 01       		.byte	0x1
 4121 0797 06       		.byte	0x6
 4122 0798 3A       		.byte	0x3a
 4123 0799 B6070000 		.4byte	0x7b6
 4124 079d 03       		.uleb128 0x3
 4125 079e B4050000 		.4byte	.LASF185
 4126 07a2 00       		.sleb128 0
 4127 07a3 03       		.uleb128 0x3
 4128 07a4 12050000 		.4byte	.LASF186
 4129 07a8 01       		.sleb128 1
 4130 07a9 03       		.uleb128 0x3
 4131 07aa 0B020000 		.4byte	.LASF187
 4132 07ae 02       		.sleb128 2
 4133 07af 03       		.uleb128 0x3
 4134 07b0 D4030000 		.4byte	.LASF188
 4135 07b4 03       		.sleb128 3
 4136 07b5 00       		.byte	0
 4137 07b6 02       		.uleb128 0x2
 4138 07b7 01       		.byte	0x1
ARM GAS  /tmp/ccGf2LCS.s 			page 74


 4139 07b8 06       		.byte	0x6
 4140 07b9 45       		.byte	0x45
 4141 07ba CB070000 		.4byte	0x7cb
 4142 07be 03       		.uleb128 0x3
 4143 07bf 980A0000 		.4byte	.LASF189
 4144 07c3 00       		.sleb128 0
 4145 07c4 03       		.uleb128 0x3
 4146 07c5 A80F0000 		.4byte	.LASF190
 4147 07c9 01       		.sleb128 1
 4148 07ca 00       		.byte	0
 4149 07cb 05       		.uleb128 0x5
 4150 07cc D2100000 		.4byte	.LASF191
 4151 07d0 06       		.byte	0x6
 4152 07d1 48       		.byte	0x48
 4153 07d2 B6070000 		.4byte	0x7b6
 4154 07d6 0F       		.uleb128 0xf
 4155 07d7 1C       		.byte	0x1c
 4156 07d8 07       		.byte	0x7
 4157 07d9 42       		.byte	0x42
 4158 07da 33080000 		.4byte	0x833
 4159 07de 10       		.uleb128 0x10
 4160 07df F00B0000 		.4byte	.LASF192
 4161 07e3 07       		.byte	0x7
 4162 07e4 45       		.byte	0x45
 4163 07e5 EE020000 		.4byte	0x2ee
 4164 07e9 00       		.byte	0
 4165 07ea 10       		.uleb128 0x10
 4166 07eb AE0E0000 		.4byte	.LASF193
 4167 07ef 07       		.byte	0x7
 4168 07f0 48       		.byte	0x48
 4169 07f1 EE020000 		.4byte	0x2ee
 4170 07f5 04       		.byte	0x4
 4171 07f6 10       		.uleb128 0x10
 4172 07f7 B70E0000 		.4byte	.LASF194
 4173 07fb 07       		.byte	0x7
 4174 07fc 4B       		.byte	0x4b
 4175 07fd EE020000 		.4byte	0x2ee
 4176 0801 08       		.byte	0x8
 4177 0802 10       		.uleb128 0x10
 4178 0803 D40E0000 		.4byte	.LASF195
 4179 0807 07       		.byte	0x7
 4180 0808 4E       		.byte	0x4e
 4181 0809 EE020000 		.4byte	0x2ee
 4182 080d 0C       		.byte	0xc
 4183 080e 10       		.uleb128 0x10
 4184 080f DD0E0000 		.4byte	.LASF196
 4185 0813 07       		.byte	0x7
 4186 0814 51       		.byte	0x51
 4187 0815 EE020000 		.4byte	0x2ee
 4188 0819 10       		.byte	0x10
 4189 081a 10       		.uleb128 0x10
 4190 081b E60E0000 		.4byte	.LASF197
 4191 081f 07       		.byte	0x7
 4192 0820 54       		.byte	0x54
 4193 0821 EE020000 		.4byte	0x2ee
 4194 0825 14       		.byte	0x14
 4195 0826 10       		.uleb128 0x10
ARM GAS  /tmp/ccGf2LCS.s 			page 75


 4196 0827 EA0F0000 		.4byte	.LASF198
 4197 082b 07       		.byte	0x7
 4198 082c 57       		.byte	0x57
 4199 082d EE020000 		.4byte	0x2ee
 4200 0831 18       		.byte	0x18
 4201 0832 00       		.byte	0
 4202 0833 05       		.uleb128 0x5
 4203 0834 490C0000 		.4byte	.LASF199
 4204 0838 07       		.byte	0x7
 4205 0839 59       		.byte	0x59
 4206 083a D6070000 		.4byte	0x7d6
 4207 083e 0F       		.uleb128 0xf
 4208 083f 18       		.byte	0x18
 4209 0840 07       		.byte	0x7
 4210 0841 60       		.byte	0x60
 4211 0842 8F080000 		.4byte	0x88f
 4212 0846 10       		.uleb128 0x10
 4213 0847 A4020000 		.4byte	.LASF200
 4214 084b 07       		.byte	0x7
 4215 084c 63       		.byte	0x63
 4216 084d EE020000 		.4byte	0x2ee
 4217 0851 00       		.byte	0
 4218 0852 10       		.uleb128 0x10
 4219 0853 6C0E0000 		.4byte	.LASF201
 4220 0857 07       		.byte	0x7
 4221 0858 66       		.byte	0x66
 4222 0859 EE020000 		.4byte	0x2ee
 4223 085d 04       		.byte	0x4
 4224 085e 10       		.uleb128 0x10
 4225 085f 7E0E0000 		.4byte	.LASF202
 4226 0863 07       		.byte	0x7
 4227 0864 69       		.byte	0x69
 4228 0865 EE020000 		.4byte	0x2ee
 4229 0869 08       		.byte	0x8
 4230 086a 10       		.uleb128 0x10
 4231 086b 920E0000 		.4byte	.LASF203
 4232 086f 07       		.byte	0x7
 4233 0870 6C       		.byte	0x6c
 4234 0871 EE020000 		.4byte	0x2ee
 4235 0875 0C       		.byte	0xc
 4236 0876 10       		.uleb128 0x10
 4237 0877 C9100000 		.4byte	.LASF204
 4238 087b 07       		.byte	0x7
 4239 087c 6F       		.byte	0x6f
 4240 087d EE020000 		.4byte	0x2ee
 4241 0881 10       		.byte	0x10
 4242 0882 10       		.uleb128 0x10
 4243 0883 B2000000 		.4byte	.LASF205
 4244 0887 07       		.byte	0x7
 4245 0888 72       		.byte	0x72
 4246 0889 EE020000 		.4byte	0x2ee
 4247 088d 14       		.byte	0x14
 4248 088e 00       		.byte	0
 4249 088f 05       		.uleb128 0x5
 4250 0890 E40D0000 		.4byte	.LASF206
 4251 0894 07       		.byte	0x7
 4252 0895 74       		.byte	0x74
ARM GAS  /tmp/ccGf2LCS.s 			page 76


 4253 0896 3E080000 		.4byte	0x83e
 4254 089a 0F       		.uleb128 0xf
 4255 089b 88       		.byte	0x88
 4256 089c 07       		.byte	0x7
 4257 089d 7B       		.byte	0x7b
 4258 089e B7090000 		.4byte	0x9b7
 4259 08a2 10       		.uleb128 0x10
 4260 08a3 76010000 		.4byte	.LASF207
 4261 08a7 07       		.byte	0x7
 4262 08a8 7D       		.byte	0x7d
 4263 08a9 EE020000 		.4byte	0x2ee
 4264 08ad 00       		.byte	0
 4265 08ae 10       		.uleb128 0x10
 4266 08af 46020000 		.4byte	.LASF208
 4267 08b3 07       		.byte	0x7
 4268 08b4 80       		.byte	0x80
 4269 08b5 33080000 		.4byte	0x833
 4270 08b9 04       		.byte	0x4
 4271 08ba 10       		.uleb128 0x10
 4272 08bb 4E020000 		.4byte	.LASF209
 4273 08bf 07       		.byte	0x7
 4274 08c0 85       		.byte	0x85
 4275 08c1 8F080000 		.4byte	0x88f
 4276 08c5 20       		.byte	0x20
 4277 08c6 10       		.uleb128 0x10
 4278 08c7 DB0B0000 		.4byte	.LASF210
 4279 08cb 07       		.byte	0x7
 4280 08cc 8A       		.byte	0x8a
 4281 08cd EE020000 		.4byte	0x2ee
 4282 08d1 38       		.byte	0x38
 4283 08d2 10       		.uleb128 0x10
 4284 08d3 B7070000 		.4byte	.LASF211
 4285 08d7 07       		.byte	0x7
 4286 08d8 8D       		.byte	0x8d
 4287 08d9 EE020000 		.4byte	0x2ee
 4288 08dd 3C       		.byte	0x3c
 4289 08de 10       		.uleb128 0x10
 4290 08df 7C070000 		.4byte	.LASF212
 4291 08e3 07       		.byte	0x7
 4292 08e4 92       		.byte	0x92
 4293 08e5 EE020000 		.4byte	0x2ee
 4294 08e9 40       		.byte	0x40
 4295 08ea 10       		.uleb128 0x10
 4296 08eb 840A0000 		.4byte	.LASF213
 4297 08ef 07       		.byte	0x7
 4298 08f0 99       		.byte	0x99
 4299 08f1 EE020000 		.4byte	0x2ee
 4300 08f5 44       		.byte	0x44
 4301 08f6 10       		.uleb128 0x10
 4302 08f7 320A0000 		.4byte	.LASF214
 4303 08fb 07       		.byte	0x7
 4304 08fc A0       		.byte	0xa0
 4305 08fd EE020000 		.4byte	0x2ee
 4306 0901 48       		.byte	0x48
 4307 0902 10       		.uleb128 0x10
 4308 0903 340F0000 		.4byte	.LASF215
 4309 0907 07       		.byte	0x7
ARM GAS  /tmp/ccGf2LCS.s 			page 77


 4310 0908 A5       		.byte	0xa5
 4311 0909 EE020000 		.4byte	0x2ee
 4312 090d 4C       		.byte	0x4c
 4313 090e 10       		.uleb128 0x10
 4314 090f B2020000 		.4byte	.LASF216
 4315 0913 07       		.byte	0x7
 4316 0914 A8       		.byte	0xa8
 4317 0915 EE020000 		.4byte	0x2ee
 4318 0919 50       		.byte	0x50
 4319 091a 10       		.uleb128 0x10
 4320 091b 63020000 		.4byte	.LASF217
 4321 091f 07       		.byte	0x7
 4322 0920 AD       		.byte	0xad
 4323 0921 EE020000 		.4byte	0x2ee
 4324 0925 54       		.byte	0x54
 4325 0926 10       		.uleb128 0x10
 4326 0927 1E020000 		.4byte	.LASF218
 4327 092b 07       		.byte	0x7
 4328 092c B2       		.byte	0xb2
 4329 092d EE020000 		.4byte	0x2ee
 4330 0931 58       		.byte	0x58
 4331 0932 10       		.uleb128 0x10
 4332 0933 D9000000 		.4byte	.LASF219
 4333 0937 07       		.byte	0x7
 4334 0938 B5       		.byte	0xb5
 4335 0939 EE020000 		.4byte	0x2ee
 4336 093d 5C       		.byte	0x5c
 4337 093e 10       		.uleb128 0x10
 4338 093f 67140000 		.4byte	.LASF220
 4339 0943 07       		.byte	0x7
 4340 0944 B8       		.byte	0xb8
 4341 0945 EE020000 		.4byte	0x2ee
 4342 0949 60       		.byte	0x60
 4343 094a 10       		.uleb128 0x10
 4344 094b 51090000 		.4byte	.LASF221
 4345 094f 07       		.byte	0x7
 4346 0950 BB       		.byte	0xbb
 4347 0951 EE020000 		.4byte	0x2ee
 4348 0955 64       		.byte	0x64
 4349 0956 10       		.uleb128 0x10
 4350 0957 04090000 		.4byte	.LASF222
 4351 095b 07       		.byte	0x7
 4352 095c C0       		.byte	0xc0
 4353 095d EE020000 		.4byte	0x2ee
 4354 0961 68       		.byte	0x68
 4355 0962 10       		.uleb128 0x10
 4356 0963 F9030000 		.4byte	.LASF223
 4357 0967 07       		.byte	0x7
 4358 0968 C7       		.byte	0xc7
 4359 0969 EE020000 		.4byte	0x2ee
 4360 096d 6C       		.byte	0x6c
 4361 096e 10       		.uleb128 0x10
 4362 096f 27030000 		.4byte	.LASF224
 4363 0973 07       		.byte	0x7
 4364 0974 CE       		.byte	0xce
 4365 0975 EE020000 		.4byte	0x2ee
 4366 0979 70       		.byte	0x70
ARM GAS  /tmp/ccGf2LCS.s 			page 78


 4367 097a 10       		.uleb128 0x10
 4368 097b 52050000 		.4byte	.LASF225
 4369 097f 07       		.byte	0x7
 4370 0980 D3       		.byte	0xd3
 4371 0981 EE020000 		.4byte	0x2ee
 4372 0985 74       		.byte	0x74
 4373 0986 10       		.uleb128 0x10
 4374 0987 D20A0000 		.4byte	.LASF226
 4375 098b 07       		.byte	0x7
 4376 098c D6       		.byte	0xd6
 4377 098d EE020000 		.4byte	0x2ee
 4378 0991 78       		.byte	0x78
 4379 0992 10       		.uleb128 0x10
 4380 0993 DE070000 		.4byte	.LASF227
 4381 0997 07       		.byte	0x7
 4382 0998 DB       		.byte	0xdb
 4383 0999 EE020000 		.4byte	0x2ee
 4384 099d 7C       		.byte	0x7c
 4385 099e 10       		.uleb128 0x10
 4386 099f 600C0000 		.4byte	.LASF228
 4387 09a3 07       		.byte	0x7
 4388 09a4 E2       		.byte	0xe2
 4389 09a5 EE020000 		.4byte	0x2ee
 4390 09a9 80       		.byte	0x80
 4391 09aa 10       		.uleb128 0x10
 4392 09ab 370E0000 		.4byte	.LASF229
 4393 09af 07       		.byte	0x7
 4394 09b0 E7       		.byte	0xe7
 4395 09b1 EE020000 		.4byte	0x2ee
 4396 09b5 84       		.byte	0x84
 4397 09b6 00       		.byte	0
 4398 09b7 05       		.uleb128 0x5
 4399 09b8 5B110000 		.4byte	.LASF230
 4400 09bc 07       		.byte	0x7
 4401 09bd E9       		.byte	0xe9
 4402 09be 9A080000 		.4byte	0x89a
 4403 09c2 0F       		.uleb128 0xf
 4404 09c3 14       		.byte	0x14
 4405 09c4 08       		.byte	0x8
 4406 09c5 41       		.byte	0x41
 4407 09c6 070A0000 		.4byte	0xa07
 4408 09ca 11       		.uleb128 0x11
 4409 09cb 50696E00 		.ascii	"Pin\000"
 4410 09cf 08       		.byte	0x8
 4411 09d0 43       		.byte	0x43
 4412 09d1 EE020000 		.4byte	0x2ee
 4413 09d5 00       		.byte	0
 4414 09d6 10       		.uleb128 0x10
 4415 09d7 670E0000 		.4byte	.LASF231
 4416 09db 08       		.byte	0x8
 4417 09dc 46       		.byte	0x46
 4418 09dd EE020000 		.4byte	0x2ee
 4419 09e1 04       		.byte	0x4
 4420 09e2 10       		.uleb128 0x10
 4421 09e3 91060000 		.4byte	.LASF232
 4422 09e7 08       		.byte	0x8
 4423 09e8 49       		.byte	0x49
ARM GAS  /tmp/ccGf2LCS.s 			page 79


 4424 09e9 EE020000 		.4byte	0x2ee
 4425 09ed 08       		.byte	0x8
 4426 09ee 10       		.uleb128 0x10
 4427 09ef 98090000 		.4byte	.LASF233
 4428 09f3 08       		.byte	0x8
 4429 09f4 4C       		.byte	0x4c
 4430 09f5 EE020000 		.4byte	0x2ee
 4431 09f9 0C       		.byte	0xc
 4432 09fa 10       		.uleb128 0x10
 4433 09fb DA0D0000 		.4byte	.LASF234
 4434 09ff 08       		.byte	0x8
 4435 0a00 4F       		.byte	0x4f
 4436 0a01 EE020000 		.4byte	0x2ee
 4437 0a05 10       		.byte	0x10
 4438 0a06 00       		.byte	0
 4439 0a07 05       		.uleb128 0x5
 4440 0a08 59120000 		.4byte	.LASF235
 4441 0a0c 08       		.byte	0x8
 4442 0a0d 51       		.byte	0x51
 4443 0a0e C2090000 		.4byte	0x9c2
 4444 0a12 0F       		.uleb128 0xf
 4445 0a13 20       		.byte	0x20
 4446 0a14 09       		.byte	0x9
 4447 0a15 42       		.byte	0x42
 4448 0a16 7B0A0000 		.4byte	0xa7b
 4449 0a1a 10       		.uleb128 0x10
 4450 0a1b 8A0B0000 		.4byte	.LASF236
 4451 0a1f 09       		.byte	0x9
 4452 0a20 44       		.byte	0x44
 4453 0a21 EE020000 		.4byte	0x2ee
 4454 0a25 00       		.byte	0
 4455 0a26 10       		.uleb128 0x10
 4456 0a27 23120000 		.4byte	.LASF237
 4457 0a2b 09       		.byte	0x9
 4458 0a2c 47       		.byte	0x47
 4459 0a2d EE020000 		.4byte	0x2ee
 4460 0a31 04       		.byte	0x4
 4461 0a32 10       		.uleb128 0x10
 4462 0a33 A1150000 		.4byte	.LASF238
 4463 0a37 09       		.byte	0x9
 4464 0a38 4B       		.byte	0x4b
 4465 0a39 EE020000 		.4byte	0x2ee
 4466 0a3d 08       		.byte	0x8
 4467 0a3e 10       		.uleb128 0x10
 4468 0a3f BD010000 		.4byte	.LASF239
 4469 0a43 09       		.byte	0x9
 4470 0a44 4E       		.byte	0x4e
 4471 0a45 EE020000 		.4byte	0x2ee
 4472 0a49 0C       		.byte	0xc
 4473 0a4a 10       		.uleb128 0x10
 4474 0a4b C5060000 		.4byte	.LASF240
 4475 0a4f 09       		.byte	0x9
 4476 0a50 51       		.byte	0x51
 4477 0a51 EE020000 		.4byte	0x2ee
 4478 0a55 10       		.byte	0x10
 4479 0a56 10       		.uleb128 0x10
 4480 0a57 0F0F0000 		.4byte	.LASF241
ARM GAS  /tmp/ccGf2LCS.s 			page 80


 4481 0a5b 09       		.byte	0x9
 4482 0a5c 54       		.byte	0x54
 4483 0a5d EE020000 		.4byte	0x2ee
 4484 0a61 14       		.byte	0x14
 4485 0a62 10       		.uleb128 0x10
 4486 0a63 670E0000 		.4byte	.LASF231
 4487 0a67 09       		.byte	0x9
 4488 0a68 57       		.byte	0x57
 4489 0a69 EE020000 		.4byte	0x2ee
 4490 0a6d 18       		.byte	0x18
 4491 0a6e 10       		.uleb128 0x10
 4492 0a6f 88140000 		.4byte	.LASF242
 4493 0a73 09       		.byte	0x9
 4494 0a74 5C       		.byte	0x5c
 4495 0a75 EE020000 		.4byte	0x2ee
 4496 0a79 1C       		.byte	0x1c
 4497 0a7a 00       		.byte	0
 4498 0a7b 05       		.uleb128 0x5
 4499 0a7c 570E0000 		.4byte	.LASF243
 4500 0a80 09       		.byte	0x9
 4501 0a81 5E       		.byte	0x5e
 4502 0a82 120A0000 		.4byte	0xa12
 4503 0a86 02       		.uleb128 0x2
 4504 0a87 01       		.byte	0x1
 4505 0a88 09       		.byte	0x9
 4506 0a89 64       		.byte	0x64
 4507 0a8a A70A0000 		.4byte	0xaa7
 4508 0a8e 03       		.uleb128 0x3
 4509 0a8f 3C030000 		.4byte	.LASF244
 4510 0a93 00       		.sleb128 0
 4511 0a94 03       		.uleb128 0x3
 4512 0a95 91140000 		.4byte	.LASF245
 4513 0a99 01       		.sleb128 1
 4514 0a9a 03       		.uleb128 0x3
 4515 0a9b 6A060000 		.4byte	.LASF246
 4516 0a9f 02       		.sleb128 2
 4517 0aa0 03       		.uleb128 0x3
 4518 0aa1 32040000 		.4byte	.LASF247
 4519 0aa5 03       		.sleb128 3
 4520 0aa6 00       		.byte	0
 4521 0aa7 05       		.uleb128 0x5
 4522 0aa8 E3010000 		.4byte	.LASF248
 4523 0aac 09       		.byte	0x9
 4524 0aad 69       		.byte	0x69
 4525 0aae 860A0000 		.4byte	0xa86
 4526 0ab2 12       		.uleb128 0x12
 4527 0ab3 A50A0000 		.4byte	.LASF369
 4528 0ab7 48       		.byte	0x48
 4529 0ab8 09       		.byte	0x9
 4530 0ab9 85       		.byte	0x85
 4531 0aba 4F0B0000 		.4byte	0xb4f
 4532 0abe 10       		.uleb128 0x10
 4533 0abf 70040000 		.4byte	.LASF249
 4534 0ac3 09       		.byte	0x9
 4535 0ac4 87       		.byte	0x87
 4536 0ac5 4F0B0000 		.4byte	0xb4f
 4537 0ac9 00       		.byte	0
ARM GAS  /tmp/ccGf2LCS.s 			page 81


 4538 0aca 10       		.uleb128 0x10
 4539 0acb 7D060000 		.4byte	.LASF250
 4540 0acf 09       		.byte	0x9
 4541 0ad0 89       		.byte	0x89
 4542 0ad1 7B0A0000 		.4byte	0xa7b
 4543 0ad5 04       		.byte	0x4
 4544 0ad6 10       		.uleb128 0x10
 4545 0ad7 AD000000 		.4byte	.LASF251
 4546 0adb 09       		.byte	0x9
 4547 0adc 8B       		.byte	0x8b
 4548 0add CB070000 		.4byte	0x7cb
 4549 0ae1 24       		.byte	0x24
 4550 0ae2 10       		.uleb128 0x10
 4551 0ae3 03030000 		.4byte	.LASF252
 4552 0ae7 09       		.byte	0x9
 4553 0ae8 8D       		.byte	0x8d
 4554 0ae9 550B0000 		.4byte	0xb55
 4555 0aed 25       		.byte	0x25
 4556 0aee 10       		.uleb128 0x10
 4557 0aef B1090000 		.4byte	.LASF253
 4558 0af3 09       		.byte	0x9
 4559 0af4 8F       		.byte	0x8f
 4560 0af5 8C070000 		.4byte	0x78c
 4561 0af9 28       		.byte	0x28
 4562 0afa 10       		.uleb128 0x10
 4563 0afb 21040000 		.4byte	.LASF254
 4564 0aff 09       		.byte	0x9
 4565 0b00 91       		.byte	0x91
 4566 0b01 6B0B0000 		.4byte	0xb6b
 4567 0b05 2C       		.byte	0x2c
 4568 0b06 10       		.uleb128 0x10
 4569 0b07 14000000 		.4byte	.LASF255
 4570 0b0b 09       		.byte	0x9
 4571 0b0c 93       		.byte	0x93
 4572 0b0d 6B0B0000 		.4byte	0xb6b
 4573 0b11 30       		.byte	0x30
 4574 0b12 10       		.uleb128 0x10
 4575 0b13 D2080000 		.4byte	.LASF256
 4576 0b17 09       		.byte	0x9
 4577 0b18 95       		.byte	0x95
 4578 0b19 6B0B0000 		.4byte	0xb6b
 4579 0b1d 34       		.byte	0x34
 4580 0b1e 10       		.uleb128 0x10
 4581 0b1f 920B0000 		.4byte	.LASF257
 4582 0b23 09       		.byte	0x9
 4583 0b24 97       		.byte	0x97
 4584 0b25 6B0B0000 		.4byte	0xb6b
 4585 0b29 38       		.byte	0x38
 4586 0b2a 10       		.uleb128 0x10
 4587 0b2b 900C0000 		.4byte	.LASF258
 4588 0b2f 09       		.byte	0x9
 4589 0b30 99       		.byte	0x99
 4590 0b31 00030000 		.4byte	0x300
 4591 0b35 3C       		.byte	0x3c
 4592 0b36 10       		.uleb128 0x10
 4593 0b37 060D0000 		.4byte	.LASF259
 4594 0b3b 09       		.byte	0x9
ARM GAS  /tmp/ccGf2LCS.s 			page 82


 4595 0b3c 9B       		.byte	0x9b
 4596 0b3d 710B0000 		.4byte	0xb71
 4597 0b41 40       		.byte	0x40
 4598 0b42 10       		.uleb128 0x10
 4599 0b43 0A060000 		.4byte	.LASF260
 4600 0b47 09       		.byte	0x9
 4601 0b48 9D       		.byte	0x9d
 4602 0b49 EE020000 		.4byte	0x2ee
 4603 0b4d 44       		.byte	0x44
 4604 0b4e 00       		.byte	0
 4605 0b4f 13       		.uleb128 0x13
 4606 0b50 04       		.byte	0x4
 4607 0b51 83040000 		.4byte	0x483
 4608 0b55 07       		.uleb128 0x7
 4609 0b56 A70A0000 		.4byte	0xaa7
 4610 0b5a 14       		.uleb128 0x14
 4611 0b5b 650B0000 		.4byte	0xb65
 4612 0b5f 15       		.uleb128 0x15
 4613 0b60 650B0000 		.4byte	0xb65
 4614 0b64 00       		.byte	0
 4615 0b65 13       		.uleb128 0x13
 4616 0b66 04       		.byte	0x4
 4617 0b67 B20A0000 		.4byte	0xab2
 4618 0b6b 13       		.uleb128 0x13
 4619 0b6c 04       		.byte	0x4
 4620 0b6d 5A0B0000 		.4byte	0xb5a
 4621 0b71 13       		.uleb128 0x13
 4622 0b72 04       		.byte	0x4
 4623 0b73 B3040000 		.4byte	0x4b3
 4624 0b77 05       		.uleb128 0x5
 4625 0b78 CC070000 		.4byte	.LASF261
 4626 0b7c 09       		.byte	0x9
 4627 0b7d 9E       		.byte	0x9e
 4628 0b7e B20A0000 		.4byte	0xab2
 4629 0b82 02       		.uleb128 0x2
 4630 0b83 01       		.byte	0x1
 4631 0b84 0A       		.byte	0xa
 4632 0b85 43       		.byte	0x43
 4633 0b86 9E0B0000 		.4byte	0xb9e
 4634 0b8a 03       		.uleb128 0x3
 4635 0b8b 34070000 		.4byte	.LASF262
 4636 0b8f 00       		.sleb128 0
 4637 0b90 03       		.uleb128 0x3
 4638 0b91 09030000 		.4byte	.LASF263
 4639 0b95 01       		.sleb128 1
 4640 0b96 03       		.uleb128 0x3
 4641 0b97 2B0D0000 		.4byte	.LASF264
 4642 0b9b FF01     		.sleb128 255
 4643 0b9d 00       		.byte	0
 4644 0b9e 05       		.uleb128 0x5
 4645 0b9f 9E0D0000 		.4byte	.LASF265
 4646 0ba3 0A       		.byte	0xa
 4647 0ba4 47       		.byte	0x47
 4648 0ba5 820B0000 		.4byte	0xb82
 4649 0ba9 0F       		.uleb128 0xf
 4650 0baa 0C       		.byte	0xc
 4651 0bab 0A       		.byte	0xa
ARM GAS  /tmp/ccGf2LCS.s 			page 83


 4652 0bac 4C       		.byte	0x4c
 4653 0bad D60B0000 		.4byte	0xbd6
 4654 0bb1 10       		.uleb128 0x10
 4655 0bb2 91070000 		.4byte	.LASF266
 4656 0bb6 0A       		.byte	0xa
 4657 0bb7 4E       		.byte	0x4e
 4658 0bb8 81070000 		.4byte	0x781
 4659 0bbc 00       		.byte	0
 4660 0bbd 10       		.uleb128 0x10
 4661 0bbe EF030000 		.4byte	.LASF267
 4662 0bc2 0A       		.byte	0xa
 4663 0bc3 4F       		.byte	0x4f
 4664 0bc4 EE020000 		.4byte	0x2ee
 4665 0bc8 04       		.byte	0x4
 4666 0bc9 10       		.uleb128 0x10
 4667 0bca A3120000 		.4byte	.LASF268
 4668 0bce 0A       		.byte	0xa
 4669 0bcf 51       		.byte	0x51
 4670 0bd0 EE020000 		.4byte	0x2ee
 4671 0bd4 08       		.byte	0x8
 4672 0bd5 00       		.byte	0
 4673 0bd6 05       		.uleb128 0x5
 4674 0bd7 F1040000 		.4byte	.LASF269
 4675 0bdb 0A       		.byte	0xa
 4676 0bdc 53       		.byte	0x53
 4677 0bdd A90B0000 		.4byte	0xba9
 4678 0be1 0F       		.uleb128 0xf
 4679 0be2 0C       		.byte	0xc
 4680 0be3 0A       		.byte	0xa
 4681 0be4 58       		.byte	0x58
 4682 0be5 0E0C0000 		.4byte	0xc0e
 4683 0be9 10       		.uleb128 0x10
 4684 0bea C90C0000 		.4byte	.LASF270
 4685 0bee 0A       		.byte	0xa
 4686 0bef 5A       		.byte	0x5a
 4687 0bf0 EE020000 		.4byte	0x2ee
 4688 0bf4 00       		.byte	0
 4689 0bf5 10       		.uleb128 0x10
 4690 0bf6 820F0000 		.4byte	.LASF271
 4691 0bfa 0A       		.byte	0xa
 4692 0bfb 5C       		.byte	0x5c
 4693 0bfc EE020000 		.4byte	0x2ee
 4694 0c00 04       		.byte	0x4
 4695 0c01 10       		.uleb128 0x10
 4696 0c02 0A0F0000 		.4byte	.LASF272
 4697 0c06 0A       		.byte	0xa
 4698 0c07 5E       		.byte	0x5e
 4699 0c08 EE020000 		.4byte	0x2ee
 4700 0c0c 08       		.byte	0x8
 4701 0c0d 00       		.byte	0
 4702 0c0e 05       		.uleb128 0x5
 4703 0c0f FA120000 		.4byte	.LASF273
 4704 0c13 0A       		.byte	0xa
 4705 0c14 60       		.byte	0x60
 4706 0c15 E10B0000 		.4byte	0xbe1
 4707 0c19 0F       		.uleb128 0xf
 4708 0c1a 08       		.byte	0x8
ARM GAS  /tmp/ccGf2LCS.s 			page 84


 4709 0c1b 0A       		.byte	0xa
 4710 0c1c 65       		.byte	0x65
 4711 0c1d 3A0C0000 		.4byte	0xc3a
 4712 0c21 10       		.uleb128 0x10
 4713 0c22 560A0000 		.4byte	.LASF274
 4714 0c26 0A       		.byte	0xa
 4715 0c27 67       		.byte	0x67
 4716 0c28 EE020000 		.4byte	0x2ee
 4717 0c2c 00       		.byte	0
 4718 0c2d 10       		.uleb128 0x10
 4719 0c2e 49050000 		.4byte	.LASF275
 4720 0c32 0A       		.byte	0xa
 4721 0c33 69       		.byte	0x69
 4722 0c34 EE020000 		.4byte	0x2ee
 4723 0c38 04       		.byte	0x4
 4724 0c39 00       		.byte	0
 4725 0c3a 05       		.uleb128 0x5
 4726 0c3b 29000000 		.4byte	.LASF276
 4727 0c3f 0A       		.byte	0xa
 4728 0c40 6B       		.byte	0x6b
 4729 0c41 190C0000 		.4byte	0xc19
 4730 0c45 0F       		.uleb128 0xf
 4731 0c46 08       		.byte	0x8
 4732 0c47 0A       		.byte	0xa
 4733 0c48 70       		.byte	0x70
 4734 0c49 660C0000 		.4byte	0xc66
 4735 0c4d 10       		.uleb128 0x10
 4736 0c4e 97120000 		.4byte	.LASF277
 4737 0c52 0A       		.byte	0xa
 4738 0c53 72       		.byte	0x72
 4739 0c54 EE020000 		.4byte	0x2ee
 4740 0c58 00       		.byte	0
 4741 0c59 10       		.uleb128 0x10
 4742 0c5a 6A0B0000 		.4byte	.LASF278
 4743 0c5e 0A       		.byte	0xa
 4744 0c5f 74       		.byte	0x74
 4745 0c60 EE020000 		.4byte	0x2ee
 4746 0c64 04       		.byte	0x4
 4747 0c65 00       		.byte	0
 4748 0c66 05       		.uleb128 0x5
 4749 0c67 B90A0000 		.4byte	.LASF279
 4750 0c6b 0A       		.byte	0xa
 4751 0c6c 76       		.byte	0x76
 4752 0c6d 450C0000 		.4byte	0xc45
 4753 0c71 0F       		.uleb128 0xf
 4754 0c72 30       		.byte	0x30
 4755 0c73 0A       		.byte	0xa
 4756 0c74 7B       		.byte	0x7b
 4757 0c75 C20C0000 		.4byte	0xcc2
 4758 0c79 10       		.uleb128 0x10
 4759 0c7a 35150000 		.4byte	.LASF280
 4760 0c7e 0A       		.byte	0xa
 4761 0c7f 7D       		.byte	0x7d
 4762 0c80 D60B0000 		.4byte	0xbd6
 4763 0c84 00       		.byte	0
 4764 0c85 10       		.uleb128 0x10
 4765 0c86 48040000 		.4byte	.LASF281
ARM GAS  /tmp/ccGf2LCS.s 			page 85


 4766 0c8a 0A       		.byte	0xa
 4767 0c8b 7E       		.byte	0x7e
 4768 0c8c 0E0C0000 		.4byte	0xc0e
 4769 0c90 0C       		.byte	0xc
 4770 0c91 10       		.uleb128 0x10
 4771 0c92 A2110000 		.4byte	.LASF282
 4772 0c96 0A       		.byte	0xa
 4773 0c97 7F       		.byte	0x7f
 4774 0c98 3A0C0000 		.4byte	0xc3a
 4775 0c9c 18       		.byte	0x18
 4776 0c9d 11       		.uleb128 0x11
 4777 0c9e 41776400 		.ascii	"Awd\000"
 4778 0ca2 0A       		.byte	0xa
 4779 0ca3 80       		.byte	0x80
 4780 0ca4 660C0000 		.4byte	0xc66
 4781 0ca8 20       		.byte	0x20
 4782 0ca9 10       		.uleb128 0x10
 4783 0caa 5B0A0000 		.4byte	.LASF283
 4784 0cae 0A       		.byte	0xa
 4785 0caf 81       		.byte	0x81
 4786 0cb0 E3020000 		.4byte	0x2e3
 4787 0cb4 28       		.byte	0x28
 4788 0cb5 10       		.uleb128 0x10
 4789 0cb6 A2040000 		.4byte	.LASF284
 4790 0cba 0A       		.byte	0xa
 4791 0cbb 83       		.byte	0x83
 4792 0cbc EE020000 		.4byte	0x2ee
 4793 0cc0 2C       		.byte	0x2c
 4794 0cc1 00       		.byte	0
 4795 0cc2 05       		.uleb128 0x5
 4796 0cc3 250B0000 		.4byte	.LASF285
 4797 0cc7 0A       		.byte	0xa
 4798 0cc8 85       		.byte	0x85
 4799 0cc9 710C0000 		.4byte	0xc71
 4800 0ccd 0F       		.uleb128 0xf
 4801 0cce 38       		.byte	0x38
 4802 0ccf 0A       		.byte	0xa
 4803 0cd0 8A       		.byte	0x8a
 4804 0cd1 FA0C0000 		.4byte	0xcfa
 4805 0cd5 10       		.uleb128 0x10
 4806 0cd6 70040000 		.4byte	.LASF249
 4807 0cda 0A       		.byte	0xa
 4808 0cdb 8C       		.byte	0x8c
 4809 0cdc FA0C0000 		.4byte	0xcfa
 4810 0ce0 00       		.byte	0
 4811 0ce1 10       		.uleb128 0x10
 4812 0ce2 7D060000 		.4byte	.LASF250
 4813 0ce6 0A       		.byte	0xa
 4814 0ce7 8D       		.byte	0x8d
 4815 0ce8 C20C0000 		.4byte	0xcc2
 4816 0cec 04       		.byte	0x4
 4817 0ced 10       		.uleb128 0x10
 4818 0cee 03030000 		.4byte	.LASF252
 4819 0cf2 0A       		.byte	0xa
 4820 0cf3 8E       		.byte	0x8e
 4821 0cf4 9E0B0000 		.4byte	0xb9e
 4822 0cf8 34       		.byte	0x34
ARM GAS  /tmp/ccGf2LCS.s 			page 86


 4823 0cf9 00       		.byte	0
 4824 0cfa 13       		.uleb128 0x13
 4825 0cfb 04       		.byte	0x4
 4826 0cfc 39040000 		.4byte	0x439
 4827 0d00 05       		.uleb128 0x5
 4828 0d01 40130000 		.4byte	.LASF286
 4829 0d05 0A       		.byte	0xa
 4830 0d06 8F       		.byte	0x8f
 4831 0d07 CD0C0000 		.4byte	0xccd
 4832 0d0b 02       		.uleb128 0x2
 4833 0d0c 01       		.byte	0x1
 4834 0d0d 0A       		.byte	0xa
 4835 0d0e 95       		.byte	0x95
 4836 0d0f 390D0000 		.4byte	0xd39
 4837 0d13 03       		.uleb128 0x3
 4838 0d14 B7030000 		.4byte	.LASF287
 4839 0d18 00       		.sleb128 0
 4840 0d19 03       		.uleb128 0x3
 4841 0d1a 41150000 		.4byte	.LASF288
 4842 0d1e 01       		.sleb128 1
 4843 0d1f 03       		.uleb128 0x3
 4844 0d20 79130000 		.4byte	.LASF289
 4845 0d24 02       		.sleb128 2
 4846 0d25 03       		.uleb128 0x3
 4847 0d26 3D140000 		.4byte	.LASF290
 4848 0d2a 03       		.sleb128 3
 4849 0d2b 03       		.uleb128 0x3
 4850 0d2c FB070000 		.4byte	.LASF291
 4851 0d30 04       		.sleb128 4
 4852 0d31 03       		.uleb128 0x3
 4853 0d32 02010000 		.4byte	.LASF292
 4854 0d36 FF01     		.sleb128 255
 4855 0d38 00       		.byte	0
 4856 0d39 05       		.uleb128 0x5
 4857 0d3a 0B150000 		.4byte	.LASF293
 4858 0d3e 0A       		.byte	0xa
 4859 0d3f 9C       		.byte	0x9c
 4860 0d40 0B0D0000 		.4byte	0xd0b
 4861 0d44 0F       		.uleb128 0xf
 4862 0d45 08       		.byte	0x8
 4863 0d46 0A       		.byte	0xa
 4864 0d47 A1       		.byte	0xa1
 4865 0d48 710D0000 		.4byte	0xd71
 4866 0d4c 10       		.uleb128 0x10
 4867 0d4d E20F0000 		.4byte	.LASF294
 4868 0d51 0A       		.byte	0xa
 4869 0d52 A3       		.byte	0xa3
 4870 0d53 EE020000 		.4byte	0x2ee
 4871 0d57 00       		.byte	0
 4872 0d58 10       		.uleb128 0x10
 4873 0d59 BB050000 		.4byte	.LASF295
 4874 0d5d 0A       		.byte	0xa
 4875 0d5e A5       		.byte	0xa5
 4876 0d5f 81070000 		.4byte	0x781
 4877 0d63 04       		.byte	0x4
 4878 0d64 10       		.uleb128 0x10
 4879 0d65 E1130000 		.4byte	.LASF296
ARM GAS  /tmp/ccGf2LCS.s 			page 87


 4880 0d69 0A       		.byte	0xa
 4881 0d6a A6       		.byte	0xa6
 4882 0d6b 81070000 		.4byte	0x781
 4883 0d6f 05       		.byte	0x5
 4884 0d70 00       		.byte	0
 4885 0d71 05       		.uleb128 0x5
 4886 0d72 50030000 		.4byte	.LASF297
 4887 0d76 0A       		.byte	0xa
 4888 0d77 A7       		.byte	0xa7
 4889 0d78 440D0000 		.4byte	0xd44
 4890 0d7c 0F       		.uleb128 0xf
 4891 0d7d 10       		.byte	0x10
 4892 0d7e 0A       		.byte	0xa
 4893 0d7f AC       		.byte	0xac
 4894 0d80 C10D0000 		.4byte	0xdc1
 4895 0d84 10       		.uleb128 0x10
 4896 0d85 E20F0000 		.4byte	.LASF294
 4897 0d89 0A       		.byte	0xa
 4898 0d8a AE       		.byte	0xae
 4899 0d8b EE020000 		.4byte	0x2ee
 4900 0d8f 00       		.byte	0
 4901 0d90 10       		.uleb128 0x10
 4902 0d91 28060000 		.4byte	.LASF298
 4903 0d95 0A       		.byte	0xa
 4904 0d96 B0       		.byte	0xb0
 4905 0d97 81070000 		.4byte	0x781
 4906 0d9b 04       		.byte	0x4
 4907 0d9c 10       		.uleb128 0x10
 4908 0d9d E1130000 		.4byte	.LASF296
 4909 0da1 0A       		.byte	0xa
 4910 0da2 B1       		.byte	0xb1
 4911 0da3 81070000 		.4byte	0x781
 4912 0da7 05       		.byte	0x5
 4913 0da8 10       		.uleb128 0x10
 4914 0da9 4B0A0000 		.4byte	.LASF299
 4915 0dad 0A       		.byte	0xa
 4916 0dae B2       		.byte	0xb2
 4917 0daf EE020000 		.4byte	0x2ee
 4918 0db3 08       		.byte	0x8
 4919 0db4 10       		.uleb128 0x10
 4920 0db5 2A090000 		.4byte	.LASF300
 4921 0db9 0A       		.byte	0xa
 4922 0dba B4       		.byte	0xb4
 4923 0dbb EE020000 		.4byte	0x2ee
 4924 0dbf 0C       		.byte	0xc
 4925 0dc0 00       		.byte	0
 4926 0dc1 05       		.uleb128 0x5
 4927 0dc2 1F010000 		.4byte	.LASF301
 4928 0dc6 0A       		.byte	0xa
 4929 0dc7 B6       		.byte	0xb6
 4930 0dc8 7C0D0000 		.4byte	0xd7c
 4931 0dcc 0F       		.uleb128 0xf
 4932 0dcd 0C       		.byte	0xc
 4933 0dce 0A       		.byte	0xa
 4934 0dcf BB       		.byte	0xbb
 4935 0dd0 F90D0000 		.4byte	0xdf9
 4936 0dd4 10       		.uleb128 0x10
ARM GAS  /tmp/ccGf2LCS.s 			page 88


 4937 0dd5 6F130000 		.4byte	.LASF302
 4938 0dd9 0A       		.byte	0xa
 4939 0dda BD       		.byte	0xbd
 4940 0ddb EE020000 		.4byte	0x2ee
 4941 0ddf 00       		.byte	0
 4942 0de0 10       		.uleb128 0x10
 4943 0de1 6A0B0000 		.4byte	.LASF278
 4944 0de5 0A       		.byte	0xa
 4945 0de6 BF       		.byte	0xbf
 4946 0de7 EE020000 		.4byte	0x2ee
 4947 0deb 04       		.byte	0x4
 4948 0dec 10       		.uleb128 0x10
 4949 0ded 85150000 		.4byte	.LASF303
 4950 0df1 0A       		.byte	0xa
 4951 0df2 C1       		.byte	0xc1
 4952 0df3 EE020000 		.4byte	0x2ee
 4953 0df7 08       		.byte	0x8
 4954 0df8 00       		.byte	0
 4955 0df9 05       		.uleb128 0x5
 4956 0dfa 76020000 		.4byte	.LASF304
 4957 0dfe 0A       		.byte	0xa
 4958 0dff C3       		.byte	0xc3
 4959 0e00 CC0D0000 		.4byte	0xdcc
 4960 0e04 0F       		.uleb128 0xf
 4961 0e05 24       		.byte	0x24
 4962 0e06 0A       		.byte	0xa
 4963 0e07 C8       		.byte	0xc8
 4964 0e08 310E0000 		.4byte	0xe31
 4965 0e0c 10       		.uleb128 0x10
 4966 0e0d 3F0B0000 		.4byte	.LASF305
 4967 0e11 0A       		.byte	0xa
 4968 0e12 CA       		.byte	0xca
 4969 0e13 710D0000 		.4byte	0xd71
 4970 0e17 00       		.byte	0
 4971 0e18 10       		.uleb128 0x10
 4972 0e19 E7120000 		.4byte	.LASF306
 4973 0e1d 0A       		.byte	0xa
 4974 0e1e CB       		.byte	0xcb
 4975 0e1f C10D0000 		.4byte	0xdc1
 4976 0e23 08       		.byte	0x8
 4977 0e24 10       		.uleb128 0x10
 4978 0e25 C4110000 		.4byte	.LASF307
 4979 0e29 0A       		.byte	0xa
 4980 0e2a CC       		.byte	0xcc
 4981 0e2b F90D0000 		.4byte	0xdf9
 4982 0e2f 18       		.byte	0x18
 4983 0e30 00       		.byte	0
 4984 0e31 05       		.uleb128 0x5
 4985 0e32 A2060000 		.4byte	.LASF308
 4986 0e36 0A       		.byte	0xa
 4987 0e37 CD       		.byte	0xcd
 4988 0e38 040E0000 		.4byte	0xe04
 4989 0e3c 0F       		.uleb128 0xf
 4990 0e3d 54       		.byte	0x54
 4991 0e3e 0A       		.byte	0xa
 4992 0e3f D2       		.byte	0xd2
 4993 0e40 E10E0000 		.4byte	0xee1
ARM GAS  /tmp/ccGf2LCS.s 			page 89


 4994 0e44 10       		.uleb128 0x10
 4995 0e45 70040000 		.4byte	.LASF249
 4996 0e49 0A       		.byte	0xa
 4997 0e4a D4       		.byte	0xd4
 4998 0e4b E10E0000 		.4byte	0xee1
 4999 0e4f 00       		.byte	0
 5000 0e50 10       		.uleb128 0x10
 5001 0e51 7D060000 		.4byte	.LASF250
 5002 0e55 0A       		.byte	0xa
 5003 0e56 D5       		.byte	0xd5
 5004 0e57 310E0000 		.4byte	0xe31
 5005 0e5b 04       		.byte	0x4
 5006 0e5c 10       		.uleb128 0x10
 5007 0e5d A5000000 		.4byte	.LASF309
 5008 0e61 0A       		.byte	0xa
 5009 0e62 D6       		.byte	0xd6
 5010 0e63 E70E0000 		.4byte	0xee7
 5011 0e67 28       		.byte	0x28
 5012 0e68 10       		.uleb128 0x10
 5013 0e69 0C000000 		.4byte	.LASF310
 5014 0e6d 0A       		.byte	0xa
 5015 0e6e D7       		.byte	0xd7
 5016 0e6f E70E0000 		.4byte	0xee7
 5017 0e73 2C       		.byte	0x2c
 5018 0e74 10       		.uleb128 0x10
 5019 0e75 13110000 		.4byte	.LASF311
 5020 0e79 0A       		.byte	0xa
 5021 0e7a D8       		.byte	0xd8
 5022 0e7b EE020000 		.4byte	0x2ee
 5023 0e7f 30       		.byte	0x30
 5024 0e80 10       		.uleb128 0x10
 5025 0e81 82060000 		.4byte	.LASF312
 5026 0e85 0A       		.byte	0xa
 5027 0e86 D9       		.byte	0xd9
 5028 0e87 EE020000 		.4byte	0x2ee
 5029 0e8b 34       		.byte	0x34
 5030 0e8c 10       		.uleb128 0x10
 5031 0e8d 1A080000 		.4byte	.LASF313
 5032 0e91 0A       		.byte	0xa
 5033 0e92 DA       		.byte	0xda
 5034 0e93 EE020000 		.4byte	0x2ee
 5035 0e97 38       		.byte	0x38
 5036 0e98 10       		.uleb128 0x10
 5037 0e99 2A090000 		.4byte	.LASF300
 5038 0e9d 0A       		.byte	0xa
 5039 0e9e DB       		.byte	0xdb
 5040 0e9f EE020000 		.4byte	0x2ee
 5041 0ea3 3C       		.byte	0x3c
 5042 0ea4 10       		.uleb128 0x10
 5043 0ea5 F9050000 		.4byte	.LASF314
 5044 0ea9 0A       		.byte	0xa
 5045 0eaa DC       		.byte	0xdc
 5046 0eab 81070000 		.4byte	0x781
 5047 0eaf 40       		.byte	0x40
 5048 0eb0 10       		.uleb128 0x10
 5049 0eb1 D3120000 		.4byte	.LASF315
 5050 0eb5 0A       		.byte	0xa
ARM GAS  /tmp/ccGf2LCS.s 			page 90


 5051 0eb6 DD       		.byte	0xdd
 5052 0eb7 EE020000 		.4byte	0x2ee
 5053 0ebb 44       		.byte	0x44
 5054 0ebc 10       		.uleb128 0x10
 5055 0ebd CA0B0000 		.4byte	.LASF316
 5056 0ec1 0A       		.byte	0xa
 5057 0ec2 DE       		.byte	0xde
 5058 0ec3 EE020000 		.4byte	0x2ee
 5059 0ec7 48       		.byte	0x48
 5060 0ec8 10       		.uleb128 0x10
 5061 0ec9 03030000 		.4byte	.LASF252
 5062 0ecd 0A       		.byte	0xa
 5063 0ece DF       		.byte	0xdf
 5064 0ecf 390D0000 		.4byte	0xd39
 5065 0ed3 4C       		.byte	0x4c
 5066 0ed4 10       		.uleb128 0x10
 5067 0ed5 900C0000 		.4byte	.LASF258
 5068 0ed9 0A       		.byte	0xa
 5069 0eda E0       		.byte	0xe0
 5070 0edb EE020000 		.4byte	0x2ee
 5071 0edf 50       		.byte	0x50
 5072 0ee0 00       		.byte	0
 5073 0ee1 13       		.uleb128 0x13
 5074 0ee2 04       		.byte	0x4
 5075 0ee3 E2030000 		.4byte	0x3e2
 5076 0ee7 13       		.uleb128 0x13
 5077 0ee8 04       		.byte	0x4
 5078 0ee9 770B0000 		.4byte	0xb77
 5079 0eed 05       		.uleb128 0x5
 5080 0eee EF0E0000 		.4byte	.LASF317
 5081 0ef2 0A       		.byte	0xa
 5082 0ef3 E1       		.byte	0xe1
 5083 0ef4 3C0E0000 		.4byte	0xe3c
 5084 0ef8 0F       		.uleb128 0xf
 5085 0ef9 0C       		.byte	0xc
 5086 0efa 0B       		.byte	0xb
 5087 0efb 43       		.byte	0x43
 5088 0efc 230F0000 		.4byte	0xf23
 5089 0f00 11       		.uleb128 0x11
 5090 0f01 5A00     		.ascii	"Z\000"
 5091 0f03 0B       		.byte	0xb
 5092 0f04 44       		.byte	0x44
 5093 0f05 E3020000 		.4byte	0x2e3
 5094 0f09 00       		.byte	0
 5095 0f0a 10       		.uleb128 0x10
 5096 0f0b 8E0F0000 		.4byte	.LASF318
 5097 0f0f 0B       		.byte	0xb
 5098 0f10 45       		.byte	0x45
 5099 0f11 E3020000 		.4byte	0x2e3
 5100 0f15 04       		.byte	0x4
 5101 0f16 10       		.uleb128 0x10
 5102 0f17 FD020000 		.4byte	.LASF319
 5103 0f1b 0B       		.byte	0xb
 5104 0f1c 46       		.byte	0x46
 5105 0f1d E3020000 		.4byte	0x2e3
 5106 0f21 08       		.byte	0x8
 5107 0f22 00       		.byte	0
ARM GAS  /tmp/ccGf2LCS.s 			page 91


 5108 0f23 05       		.uleb128 0x5
 5109 0f24 6D050000 		.4byte	.LASF320
 5110 0f28 0B       		.byte	0xb
 5111 0f29 47       		.byte	0x47
 5112 0f2a F80E0000 		.4byte	0xef8
 5113 0f2e 0F       		.uleb128 0xf
 5114 0f2f 3C       		.byte	0x3c
 5115 0f30 0B       		.byte	0xb
 5116 0f31 4C       		.byte	0x4c
 5117 0f32 670F0000 		.4byte	0xf67
 5118 0f36 10       		.uleb128 0x10
 5119 0f37 3D050000 		.4byte	.LASF321
 5120 0f3b 0B       		.byte	0xb
 5121 0f3c 4D       		.byte	0x4d
 5122 0f3d EE020000 		.4byte	0x2ee
 5123 0f41 00       		.byte	0
 5124 0f42 10       		.uleb128 0x10
 5125 0f43 96020000 		.4byte	.LASF322
 5126 0f47 0B       		.byte	0xb
 5127 0f48 4F       		.byte	0x4f
 5128 0f49 EE020000 		.4byte	0x2ee
 5129 0f4d 04       		.byte	0x4
 5130 0f4e 10       		.uleb128 0x10
 5131 0f4f 17060000 		.4byte	.LASF323
 5132 0f53 0B       		.byte	0xb
 5133 0f54 51       		.byte	0x51
 5134 0f55 670F0000 		.4byte	0xf67
 5135 0f59 08       		.byte	0x8
 5136 0f5a 10       		.uleb128 0x10
 5137 0f5b C0100000 		.4byte	.LASF324
 5138 0f5f 0B       		.byte	0xb
 5139 0f60 53       		.byte	0x53
 5140 0f61 770F0000 		.4byte	0xf77
 5141 0f65 38       		.byte	0x38
 5142 0f66 00       		.byte	0
 5143 0f67 08       		.uleb128 0x8
 5144 0f68 230F0000 		.4byte	0xf23
 5145 0f6c 770F0000 		.4byte	0xf77
 5146 0f70 09       		.uleb128 0x9
 5147 0f71 F9020000 		.4byte	0x2f9
 5148 0f75 03       		.byte	0x3
 5149 0f76 00       		.byte	0
 5150 0f77 13       		.uleb128 0x13
 5151 0f78 04       		.byte	0x4
 5152 0f79 D8020000 		.4byte	0x2d8
 5153 0f7d 05       		.uleb128 0x5
 5154 0f7e 620A0000 		.4byte	.LASF325
 5155 0f82 0B       		.byte	0xb
 5156 0f83 57       		.byte	0x57
 5157 0f84 2E0F0000 		.4byte	0xf2e
 5158 0f88 16       		.uleb128 0x16
 5159 0f89 B2110000 		.4byte	.LASF329
 5160 0f8d 01       		.byte	0x1
 5161 0f8e 92       		.byte	0x92
 5162 0f8f CD020000 		.4byte	0x2cd
 5163 0f93 00000000 		.4byte	.LFB125
 5164 0f97 38000000 		.4byte	.LFE125-.LFB125
ARM GAS  /tmp/ccGf2LCS.s 			page 92


 5165 0f9b 01       		.uleb128 0x1
 5166 0f9c 9C       		.byte	0x9c
 5167 0f9d CC0F0000 		.4byte	0xfcc
 5168 0fa1 17       		.uleb128 0x17
 5169 0fa2 3C020000 		.4byte	.LASF326
 5170 0fa6 01       		.byte	0x1
 5171 0fa7 92       		.byte	0x92
 5172 0fa8 EE020000 		.4byte	0x2ee
 5173 0fac 02       		.uleb128 0x2
 5174 0fad 91       		.byte	0x91
 5175 0fae 74       		.sleb128 -12
 5176 0faf 17       		.uleb128 0x17
 5177 0fb0 05000000 		.4byte	.LASF327
 5178 0fb4 01       		.byte	0x1
 5179 0fb5 92       		.byte	0x92
 5180 0fb6 EE020000 		.4byte	0x2ee
 5181 0fba 02       		.uleb128 0x2
 5182 0fbb 91       		.byte	0x91
 5183 0fbc 70       		.sleb128 -16
 5184 0fbd 17       		.uleb128 0x17
 5185 0fbe DF040000 		.4byte	.LASF328
 5186 0fc2 01       		.byte	0x1
 5187 0fc3 92       		.byte	0x92
 5188 0fc4 EE020000 		.4byte	0x2ee
 5189 0fc8 02       		.uleb128 0x2
 5190 0fc9 91       		.byte	0x91
 5191 0fca 6C       		.sleb128 -20
 5192 0fcb 00       		.byte	0
 5193 0fcc 18       		.uleb128 0x18
 5194 0fcd 050E0000 		.4byte	.LASF370
 5195 0fd1 01       		.byte	0x1
 5196 0fd2 A4       		.byte	0xa4
 5197 0fd3 CD020000 		.4byte	0x2cd
 5198 0fd7 40000000 		.4byte	.LFB126
 5199 0fdb 0C000000 		.4byte	.LFE126-.LFB126
 5200 0fdf 01       		.uleb128 0x1
 5201 0fe0 9C       		.byte	0x9c
 5202 0fe1 16       		.uleb128 0x16
 5203 0fe2 4E000000 		.4byte	.LASF330
 5204 0fe6 01       		.byte	0x1
 5205 0fe7 B2       		.byte	0xb2
 5206 0fe8 CD020000 		.4byte	0x2cd
 5207 0fec 50000000 		.4byte	.LFB127
 5208 0ff0 44000000 		.4byte	.LFE127-.LFB127
 5209 0ff4 01       		.uleb128 0x1
 5210 0ff5 9C       		.byte	0x9c
 5211 0ff6 28100000 		.4byte	0x1028
 5212 0ffa 17       		.uleb128 0x17
 5213 0ffb 3C020000 		.4byte	.LASF326
 5214 0fff 01       		.byte	0x1
 5215 1000 B2       		.byte	0xb2
 5216 1001 EE020000 		.4byte	0x2ee
 5217 1005 03       		.uleb128 0x3
 5218 1006 91       		.byte	0x91
 5219 1007 EC7E     		.sleb128 -148
 5220 1009 17       		.uleb128 0x17
 5221 100a B9150000 		.4byte	.LASF331
ARM GAS  /tmp/ccGf2LCS.s 			page 93


 5222 100e 01       		.byte	0x1
 5223 100f B2       		.byte	0xb2
 5224 1010 8C070000 		.4byte	0x78c
 5225 1014 03       		.uleb128 0x3
 5226 1015 91       		.byte	0x91
 5227 1016 E87E     		.sleb128 -152
 5228 1018 19       		.uleb128 0x19
 5229 1019 4C0B0000 		.4byte	.LASF335
 5230 101d 01       		.byte	0x1
 5231 101e B4       		.byte	0xb4
 5232 101f B7090000 		.4byte	0x9b7
 5233 1023 03       		.uleb128 0x3
 5234 1024 91       		.byte	0x91
 5235 1025 F07E     		.sleb128 -144
 5236 1027 00       		.byte	0
 5237 1028 16       		.uleb128 0x16
 5238 1029 EE000000 		.4byte	.LASF332
 5239 102d 01       		.byte	0x1
 5240 102e D1       		.byte	0xd1
 5241 102f CD020000 		.4byte	0x2cd
 5242 1033 A0000000 		.4byte	.LFB128
 5243 1037 80000000 		.4byte	.LFE128-.LFB128
 5244 103b 01       		.uleb128 0x1
 5245 103c 9C       		.byte	0x9c
 5246 103d 6C100000 		.4byte	0x106c
 5247 1041 17       		.uleb128 0x17
 5248 1042 CE120000 		.4byte	.LASF333
 5249 1046 01       		.byte	0x1
 5250 1047 D1       		.byte	0xd1
 5251 1048 770F0000 		.4byte	0xf77
 5252 104c 02       		.uleb128 0x2
 5253 104d 91       		.byte	0x91
 5254 104e 6C       		.sleb128 -20
 5255 104f 17       		.uleb128 0x17
 5256 1050 090C0000 		.4byte	.LASF334
 5257 1054 01       		.byte	0x1
 5258 1055 D1       		.byte	0xd1
 5259 1056 EE020000 		.4byte	0x2ee
 5260 105a 02       		.uleb128 0x2
 5261 105b 91       		.byte	0x91
 5262 105c 68       		.sleb128 -24
 5263 105d 19       		.uleb128 0x19
 5264 105e 62060000 		.4byte	.LASF336
 5265 1062 01       		.byte	0x1
 5266 1063 D3       		.byte	0xd3
 5267 1064 E3020000 		.4byte	0x2e3
 5268 1068 02       		.uleb128 0x2
 5269 1069 91       		.byte	0x91
 5270 106a 74       		.sleb128 -12
 5271 106b 00       		.byte	0
 5272 106c 16       		.uleb128 0x16
 5273 106d D9060000 		.4byte	.LASF337
 5274 1071 01       		.byte	0x1
 5275 1072 E7       		.byte	0xe7
 5276 1073 CD020000 		.4byte	0x2cd
 5277 1077 20010000 		.4byte	.LFB129
 5278 107b 4C000000 		.4byte	.LFE129-.LFB129
ARM GAS  /tmp/ccGf2LCS.s 			page 94


 5279 107f 01       		.uleb128 0x1
 5280 1080 9C       		.byte	0x9c
 5281 1081 94100000 		.4byte	0x1094
 5282 1085 19       		.uleb128 0x19
 5283 1086 62060000 		.4byte	.LASF336
 5284 108a 01       		.byte	0x1
 5285 108b E9       		.byte	0xe9
 5286 108c E3020000 		.4byte	0x2e3
 5287 1090 02       		.uleb128 0x2
 5288 1091 91       		.byte	0x91
 5289 1092 74       		.sleb128 -12
 5290 1093 00       		.byte	0
 5291 1094 16       		.uleb128 0x16
 5292 1095 CF0F0000 		.4byte	.LASF338
 5293 1099 01       		.byte	0x1
 5294 109a FB       		.byte	0xfb
 5295 109b CD020000 		.4byte	0x2cd
 5296 109f 70010000 		.4byte	.LFB130
 5297 10a3 4C000000 		.4byte	.LFE130-.LFB130
 5298 10a7 01       		.uleb128 0x1
 5299 10a8 9C       		.byte	0x9c
 5300 10a9 BC100000 		.4byte	0x10bc
 5301 10ad 19       		.uleb128 0x19
 5302 10ae 62060000 		.4byte	.LASF336
 5303 10b2 01       		.byte	0x1
 5304 10b3 FD       		.byte	0xfd
 5305 10b4 E3020000 		.4byte	0x2e3
 5306 10b8 02       		.uleb128 0x2
 5307 10b9 91       		.byte	0x91
 5308 10ba 74       		.sleb128 -12
 5309 10bb 00       		.byte	0
 5310 10bc 1A       		.uleb128 0x1a
 5311 10bd FC060000 		.4byte	.LASF339
 5312 10c1 01       		.byte	0x1
 5313 10c2 0E01     		.2byte	0x10e
 5314 10c4 CD020000 		.4byte	0x2cd
 5315 10c8 C0010000 		.4byte	.LFB131
 5316 10cc 78000000 		.4byte	.LFE131-.LFB131
 5317 10d0 01       		.uleb128 0x1
 5318 10d1 9C       		.byte	0x9c
 5319 10d2 E6100000 		.4byte	0x10e6
 5320 10d6 1B       		.uleb128 0x1b
 5321 10d7 62060000 		.4byte	.LASF336
 5322 10db 01       		.byte	0x1
 5323 10dc 1001     		.2byte	0x110
 5324 10de E3020000 		.4byte	0x2e3
 5325 10e2 02       		.uleb128 0x2
 5326 10e3 91       		.byte	0x91
 5327 10e4 74       		.sleb128 -12
 5328 10e5 00       		.byte	0
 5329 10e6 1C       		.uleb128 0x1c
 5330 10e7 E6020000 		.4byte	.LASF340
 5331 10eb 01       		.byte	0x1
 5332 10ec 2701     		.2byte	0x127
 5333 10ee CD020000 		.4byte	0x2cd
 5334 10f2 40020000 		.4byte	.LFB132
 5335 10f6 20000000 		.4byte	.LFE132-.LFB132
ARM GAS  /tmp/ccGf2LCS.s 			page 95


 5336 10fa 01       		.uleb128 0x1
 5337 10fb 9C       		.byte	0x9c
 5338 10fc 10110000 		.4byte	0x1110
 5339 1100 1D       		.uleb128 0x1d
 5340 1101 90120000 		.4byte	.LASF341
 5341 1105 01       		.byte	0x1
 5342 1106 2701     		.2byte	0x127
 5343 1108 CD020000 		.4byte	0x2cd
 5344 110c 02       		.uleb128 0x2
 5345 110d 91       		.byte	0x91
 5346 110e 7F       		.sleb128 -1
 5347 110f 00       		.byte	0
 5348 1110 1E       		.uleb128 0x1e
 5349 1111 160A0000 		.4byte	.LASF356
 5350 1115 01       		.byte	0x1
 5351 1116 3201     		.2byte	0x132
 5352 1118 60020000 		.4byte	.LFB133
 5353 111c 02000000 		.4byte	.LFE133-.LFB133
 5354 1120 01       		.uleb128 0x1
 5355 1121 9C       		.byte	0x9c
 5356 1122 1F       		.uleb128 0x1f
 5357 1123 8C090000 		.4byte	.LASF347
 5358 1127 01       		.byte	0x1
 5359 1128 4501     		.2byte	0x145
 5360 112a CD020000 		.4byte	0x2cd
 5361 112e 70020000 		.4byte	.LFB134
 5362 1132 5C0B0000 		.4byte	.LFE134-.LFB134
 5363 1136 01       		.uleb128 0x1
 5364 1137 9C       		.byte	0x9c
 5365 1138 93120000 		.4byte	0x1293
 5366 113c 1D       		.uleb128 0x1d
 5367 113d 3C020000 		.4byte	.LASF326
 5368 1141 01       		.byte	0x1
 5369 1142 4501     		.2byte	0x145
 5370 1144 EE020000 		.4byte	0x2ee
 5371 1148 03       		.uleb128 0x3
 5372 1149 91       		.byte	0x91
 5373 114a 947F     		.sleb128 -108
 5374 114c 1D       		.uleb128 0x1d
 5375 114d DF040000 		.4byte	.LASF328
 5376 1151 01       		.byte	0x1
 5377 1152 4501     		.2byte	0x145
 5378 1154 EE020000 		.4byte	0x2ee
 5379 1158 03       		.uleb128 0x3
 5380 1159 91       		.byte	0x91
 5381 115a 907F     		.sleb128 -112
 5382 115c 1B       		.uleb128 0x1b
 5383 115d D6050000 		.4byte	.LASF342
 5384 1161 01       		.byte	0x1
 5385 1162 4701     		.2byte	0x147
 5386 1164 D8020000 		.4byte	0x2d8
 5387 1168 02       		.uleb128 0x2
 5388 1169 91       		.byte	0x91
 5389 116a 76       		.sleb128 -10
 5390 116b 1B       		.uleb128 0x1b
 5391 116c 6F130000 		.4byte	.LASF302
 5392 1170 01       		.byte	0x1
ARM GAS  /tmp/ccGf2LCS.s 			page 96


 5393 1171 4801     		.2byte	0x148
 5394 1173 EE020000 		.4byte	0x2ee
 5395 1177 02       		.uleb128 0x2
 5396 1178 91       		.byte	0x91
 5397 1179 70       		.sleb128 -16
 5398 117a 20       		.uleb128 0x20
 5399 117b 04040000 		.4byte	.LBB2
 5400 117f 84000000 		.4byte	.LBE2-.LBB2
 5401 1183 EA110000 		.4byte	0x11ea
 5402 1187 1B       		.uleb128 0x1b
 5403 1188 56010000 		.4byte	.LASF343
 5404 118c 01       		.byte	0x1
 5405 118d 6E01     		.2byte	0x16e
 5406 118f 070A0000 		.4byte	0xa07
 5407 1193 02       		.uleb128 0x2
 5408 1194 91       		.byte	0x91
 5409 1195 5C       		.sleb128 -36
 5410 1196 20       		.uleb128 0x20
 5411 1197 04040000 		.4byte	.LBB3
 5412 119b 18000000 		.4byte	.LBE3-.LBB3
 5413 119f B3110000 		.4byte	0x11b3
 5414 11a3 1B       		.uleb128 0x1b
 5415 11a4 EB060000 		.4byte	.LASF344
 5416 11a8 01       		.byte	0x1
 5417 11a9 7101     		.2byte	0x171
 5418 11ab 00030000 		.4byte	0x300
 5419 11af 02       		.uleb128 0x2
 5420 11b0 91       		.byte	0x91
 5421 11b1 58       		.sleb128 -40
 5422 11b2 00       		.byte	0
 5423 11b3 20       		.uleb128 0x20
 5424 11b4 1C040000 		.4byte	.LBB4
 5425 11b8 18000000 		.4byte	.LBE4-.LBB4
 5426 11bc D0110000 		.4byte	0x11d0
 5427 11c0 1B       		.uleb128 0x1b
 5428 11c1 EB060000 		.4byte	.LASF344
 5429 11c5 01       		.byte	0x1
 5430 11c6 7301     		.2byte	0x173
 5431 11c8 00030000 		.4byte	0x300
 5432 11cc 02       		.uleb128 0x2
 5433 11cd 91       		.byte	0x91
 5434 11ce 54       		.sleb128 -44
 5435 11cf 00       		.byte	0
 5436 11d0 21       		.uleb128 0x21
 5437 11d1 34040000 		.4byte	.LBB5
 5438 11d5 18000000 		.4byte	.LBE5-.LBB5
 5439 11d9 1B       		.uleb128 0x1b
 5440 11da EB060000 		.4byte	.LASF344
 5441 11de 01       		.byte	0x1
 5442 11df 7401     		.2byte	0x174
 5443 11e1 00030000 		.4byte	0x300
 5444 11e5 02       		.uleb128 0x2
 5445 11e6 91       		.byte	0x91
 5446 11e7 50       		.sleb128 -48
 5447 11e8 00       		.byte	0
 5448 11e9 00       		.byte	0
 5449 11ea 20       		.uleb128 0x20
ARM GAS  /tmp/ccGf2LCS.s 			page 97


 5450 11eb 56060000 		.4byte	.LBB6
 5451 11ef 86000000 		.4byte	.LBE6-.LBB6
 5452 11f3 5E120000 		.4byte	0x125e
 5453 11f7 1B       		.uleb128 0x1b
 5454 11f8 56010000 		.4byte	.LASF343
 5455 11fc 01       		.byte	0x1
 5456 11fd C301     		.2byte	0x1c3
 5457 11ff 070A0000 		.4byte	0xa07
 5458 1203 03       		.uleb128 0x3
 5459 1204 91       		.byte	0x91
 5460 1205 BC7F     		.sleb128 -68
 5461 1207 20       		.uleb128 0x20
 5462 1208 56060000 		.4byte	.LBB7
 5463 120c 18000000 		.4byte	.LBE7-.LBB7
 5464 1210 25120000 		.4byte	0x1225
 5465 1214 1B       		.uleb128 0x1b
 5466 1215 EB060000 		.4byte	.LASF344
 5467 1219 01       		.byte	0x1
 5468 121a C601     		.2byte	0x1c6
 5469 121c 00030000 		.4byte	0x300
 5470 1220 03       		.uleb128 0x3
 5471 1221 91       		.byte	0x91
 5472 1222 B87F     		.sleb128 -72
 5473 1224 00       		.byte	0
 5474 1225 20       		.uleb128 0x20
 5475 1226 6E060000 		.4byte	.LBB8
 5476 122a 18000000 		.4byte	.LBE8-.LBB8
 5477 122e 43120000 		.4byte	0x1243
 5478 1232 1B       		.uleb128 0x1b
 5479 1233 EB060000 		.4byte	.LASF344
 5480 1237 01       		.byte	0x1
 5481 1238 C801     		.2byte	0x1c8
 5482 123a 00030000 		.4byte	0x300
 5483 123e 03       		.uleb128 0x3
 5484 123f 91       		.byte	0x91
 5485 1240 B47F     		.sleb128 -76
 5486 1242 00       		.byte	0
 5487 1243 21       		.uleb128 0x21
 5488 1244 86060000 		.4byte	.LBB9
 5489 1248 18000000 		.4byte	.LBE9-.LBB9
 5490 124c 1B       		.uleb128 0x1b
 5491 124d EB060000 		.4byte	.LASF344
 5492 1251 01       		.byte	0x1
 5493 1252 C901     		.2byte	0x1c9
 5494 1254 00030000 		.4byte	0x300
 5495 1258 03       		.uleb128 0x3
 5496 1259 91       		.byte	0x91
 5497 125a B07F     		.sleb128 -80
 5498 125c 00       		.byte	0
 5499 125d 00       		.byte	0
 5500 125e 21       		.uleb128 0x21
 5501 125f 6E0A0000 		.4byte	.LBB10
 5502 1263 36000000 		.4byte	.LBE10-.LBB10
 5503 1267 1B       		.uleb128 0x1b
 5504 1268 56010000 		.4byte	.LASF343
 5505 126c 01       		.byte	0x1
 5506 126d 5302     		.2byte	0x253
ARM GAS  /tmp/ccGf2LCS.s 			page 98


 5507 126f 070A0000 		.4byte	0xa07
 5508 1273 03       		.uleb128 0x3
 5509 1274 91       		.byte	0x91
 5510 1275 9C7F     		.sleb128 -100
 5511 1277 21       		.uleb128 0x21
 5512 1278 6E0A0000 		.4byte	.LBB11
 5513 127c 18000000 		.4byte	.LBE11-.LBB11
 5514 1280 1B       		.uleb128 0x1b
 5515 1281 EB060000 		.4byte	.LASF344
 5516 1285 01       		.byte	0x1
 5517 1286 5502     		.2byte	0x255
 5518 1288 00030000 		.4byte	0x300
 5519 128c 03       		.uleb128 0x3
 5520 128d 91       		.byte	0x91
 5521 128e 987F     		.sleb128 -104
 5522 1290 00       		.byte	0
 5523 1291 00       		.byte	0
 5524 1292 00       		.byte	0
 5525 1293 22       		.uleb128 0x22
 5526 1294 A8010000 		.4byte	.LASF350
 5527 1298 01       		.byte	0x1
 5528 1299 C702     		.2byte	0x2c7
 5529 129b D00D0000 		.4byte	.LFB135
 5530 129f 64010000 		.4byte	.LFE135-.LFB135
 5531 12a3 01       		.uleb128 0x1
 5532 12a4 9C       		.byte	0x9c
 5533 12a5 FE120000 		.4byte	0x12fe
 5534 12a9 1D       		.uleb128 0x1d
 5535 12aa 0C140000 		.4byte	.LASF345
 5536 12ae 01       		.byte	0x1
 5537 12af C702     		.2byte	0x2c7
 5538 12b1 FE120000 		.4byte	0x12fe
 5539 12b5 02       		.uleb128 0x2
 5540 12b6 91       		.byte	0x91
 5541 12b7 64       		.sleb128 -28
 5542 12b8 1B       		.uleb128 0x1b
 5543 12b9 A9070000 		.4byte	.LASF346
 5544 12bd 01       		.byte	0x1
 5545 12be C902     		.2byte	0x2c9
 5546 12c0 E70E0000 		.4byte	0xee7
 5547 12c4 02       		.uleb128 0x2
 5548 12c5 91       		.byte	0x91
 5549 12c6 74       		.sleb128 -12
 5550 12c7 20       		.uleb128 0x20
 5551 12c8 DA0D0000 		.4byte	.LBB12
 5552 12cc 18000000 		.4byte	.LBE12-.LBB12
 5553 12d0 E4120000 		.4byte	0x12e4
 5554 12d4 1B       		.uleb128 0x1b
 5555 12d5 EB060000 		.4byte	.LASF344
 5556 12d9 01       		.byte	0x1
 5557 12da CC02     		.2byte	0x2cc
 5558 12dc 00030000 		.4byte	0x300
 5559 12e0 02       		.uleb128 0x2
 5560 12e1 91       		.byte	0x91
 5561 12e2 70       		.sleb128 -16
 5562 12e3 00       		.byte	0
 5563 12e4 21       		.uleb128 0x21
ARM GAS  /tmp/ccGf2LCS.s 			page 99


 5564 12e5 F20D0000 		.4byte	.LBB13
 5565 12e9 18000000 		.4byte	.LBE13-.LBB13
 5566 12ed 1B       		.uleb128 0x1b
 5567 12ee EB060000 		.4byte	.LASF344
 5568 12f2 01       		.byte	0x1
 5569 12f3 CE02     		.2byte	0x2ce
 5570 12f5 00030000 		.4byte	0x300
 5571 12f9 02       		.uleb128 0x2
 5572 12fa 91       		.byte	0x91
 5573 12fb 6C       		.sleb128 -20
 5574 12fc 00       		.byte	0
 5575 12fd 00       		.byte	0
 5576 12fe 13       		.uleb128 0x13
 5577 12ff 04       		.byte	0x4
 5578 1300 ED0E0000 		.4byte	0xeed
 5579 1304 1F       		.uleb128 0x1f
 5580 1305 23110000 		.4byte	.LASF348
 5581 1309 01       		.byte	0x1
 5582 130a 1203     		.2byte	0x312
 5583 130c CD020000 		.4byte	0x2cd
 5584 1310 400F0000 		.4byte	.LFB136
 5585 1314 A8000000 		.4byte	.LFE136-.LFB136
 5586 1318 01       		.uleb128 0x1
 5587 1319 9C       		.byte	0x9c
 5588 131a 2E130000 		.4byte	0x132e
 5589 131e 1B       		.uleb128 0x1b
 5590 131f 05150000 		.4byte	.LASF349
 5591 1323 01       		.byte	0x1
 5592 1324 1503     		.2byte	0x315
 5593 1326 D8020000 		.4byte	0x2d8
 5594 132a 02       		.uleb128 0x2
 5595 132b 91       		.byte	0x91
 5596 132c 76       		.sleb128 -10
 5597 132d 00       		.byte	0
 5598 132e 22       		.uleb128 0x22
 5599 132f 170C0000 		.4byte	.LASF351
 5600 1333 01       		.byte	0x1
 5601 1334 2D03     		.2byte	0x32d
 5602 1336 F00F0000 		.4byte	.LFB137
 5603 133a 30000000 		.4byte	.LFE137-.LFB137
 5604 133e 01       		.uleb128 0x1
 5605 133f 9C       		.byte	0x9c
 5606 1340 63130000 		.4byte	0x1363
 5607 1344 1D       		.uleb128 0x1d
 5608 1345 C9090000 		.4byte	.LASF352
 5609 1349 01       		.byte	0x1
 5610 134a 2D03     		.2byte	0x32d
 5611 134c 63130000 		.4byte	0x1363
 5612 1350 02       		.uleb128 0x2
 5613 1351 91       		.byte	0x91
 5614 1352 5C       		.sleb128 -36
 5615 1353 1B       		.uleb128 0x1b
 5616 1354 56010000 		.4byte	.LASF343
 5617 1358 01       		.byte	0x1
 5618 1359 2F03     		.2byte	0x32f
 5619 135b 070A0000 		.4byte	0xa07
 5620 135f 02       		.uleb128 0x2
ARM GAS  /tmp/ccGf2LCS.s 			page 100


 5621 1360 91       		.byte	0x91
 5622 1361 64       		.sleb128 -28
 5623 1362 00       		.byte	0
 5624 1363 13       		.uleb128 0x13
 5625 1364 04       		.byte	0x4
 5626 1365 000D0000 		.4byte	0xd00
 5627 1369 22       		.uleb128 0x22
 5628 136a 29130000 		.4byte	.LASF353
 5629 136e 01       		.byte	0x1
 5630 136f 3E03     		.2byte	0x33e
 5631 1371 20100000 		.4byte	.LFB138
 5632 1375 74000000 		.4byte	.LFE138-.LFB138
 5633 1379 01       		.uleb128 0x1
 5634 137a 9C       		.byte	0x9c
 5635 137b 9E130000 		.4byte	0x139e
 5636 137f 1D       		.uleb128 0x1d
 5637 1380 0C140000 		.4byte	.LASF345
 5638 1384 01       		.byte	0x1
 5639 1385 3E03     		.2byte	0x33e
 5640 1387 FE120000 		.4byte	0x12fe
 5641 138b 02       		.uleb128 0x2
 5642 138c 91       		.byte	0x91
 5643 138d 6C       		.sleb128 -20
 5644 138e 1B       		.uleb128 0x1b
 5645 138f A9070000 		.4byte	.LASF346
 5646 1393 01       		.byte	0x1
 5647 1394 4003     		.2byte	0x340
 5648 1396 E70E0000 		.4byte	0xee7
 5649 139a 02       		.uleb128 0x2
 5650 139b 91       		.byte	0x91
 5651 139c 74       		.sleb128 -12
 5652 139d 00       		.byte	0
 5653 139e 23       		.uleb128 0x23
 5654 139f EF100000 		.4byte	.LASF354
 5655 13a3 01       		.byte	0x1
 5656 13a4 5D03     		.2byte	0x35d
 5657 13a6 A0100000 		.4byte	.LFB139
 5658 13aa 84010000 		.4byte	.LFE139-.LFB139
 5659 13ae 01       		.uleb128 0x1
 5660 13af 9C       		.byte	0x9c
 5661 13b0 DE130000 		.4byte	0x13de
 5662 13b4 1D       		.uleb128 0x1d
 5663 13b5 0C140000 		.4byte	.LASF345
 5664 13b9 01       		.byte	0x1
 5665 13ba 5D03     		.2byte	0x35d
 5666 13bc FE120000 		.4byte	0x12fe
 5667 13c0 02       		.uleb128 0x2
 5668 13c1 91       		.byte	0x91
 5669 13c2 6C       		.sleb128 -20
 5670 13c3 24       		.uleb128 0x24
 5671 13c4 6900     		.ascii	"i\000"
 5672 13c6 01       		.byte	0x1
 5673 13c7 5F03     		.2byte	0x35f
 5674 13c9 EE020000 		.4byte	0x2ee
 5675 13cd 02       		.uleb128 0x2
 5676 13ce 91       		.byte	0x91
 5677 13cf 74       		.sleb128 -12
ARM GAS  /tmp/ccGf2LCS.s 			page 101


 5678 13d0 24       		.uleb128 0x24
 5679 13d1 6A00     		.ascii	"j\000"
 5680 13d3 01       		.byte	0x1
 5681 13d4 5F03     		.2byte	0x35f
 5682 13d6 EE020000 		.4byte	0x2ee
 5683 13da 02       		.uleb128 0x2
 5684 13db 91       		.byte	0x91
 5685 13dc 70       		.sleb128 -16
 5686 13dd 00       		.byte	0
 5687 13de 23       		.uleb128 0x23
 5688 13df 31060000 		.4byte	.LASF355
 5689 13e3 01       		.byte	0x1
 5690 13e4 7603     		.2byte	0x376
 5691 13e6 30120000 		.4byte	.LFB140
 5692 13ea 78010000 		.4byte	.LFE140-.LFB140
 5693 13ee 01       		.uleb128 0x1
 5694 13ef 9C       		.byte	0x9c
 5695 13f0 1E140000 		.4byte	0x141e
 5696 13f4 1D       		.uleb128 0x1d
 5697 13f5 0C140000 		.4byte	.LASF345
 5698 13f9 01       		.byte	0x1
 5699 13fa 7603     		.2byte	0x376
 5700 13fc FE120000 		.4byte	0x12fe
 5701 1400 02       		.uleb128 0x2
 5702 1401 91       		.byte	0x91
 5703 1402 6C       		.sleb128 -20
 5704 1403 24       		.uleb128 0x24
 5705 1404 6900     		.ascii	"i\000"
 5706 1406 01       		.byte	0x1
 5707 1407 7803     		.2byte	0x378
 5708 1409 EE020000 		.4byte	0x2ee
 5709 140d 02       		.uleb128 0x2
 5710 140e 91       		.byte	0x91
 5711 140f 74       		.sleb128 -12
 5712 1410 24       		.uleb128 0x24
 5713 1411 6A00     		.ascii	"j\000"
 5714 1413 01       		.byte	0x1
 5715 1414 7803     		.2byte	0x378
 5716 1416 EE020000 		.4byte	0x2ee
 5717 141a 02       		.uleb128 0x2
 5718 141b 91       		.byte	0x91
 5719 141c 70       		.sleb128 -16
 5720 141d 00       		.byte	0
 5721 141e 1E       		.uleb128 0x1e
 5722 141f DE140000 		.4byte	.LASF357
 5723 1423 01       		.byte	0x1
 5724 1424 8E03     		.2byte	0x38e
 5725 1426 B0130000 		.4byte	.LFB141
 5726 142a 02000000 		.4byte	.LFE141-.LFB141
 5727 142e 01       		.uleb128 0x1
 5728 142f 9C       		.byte	0x9c
 5729 1430 1E       		.uleb128 0x1e
 5730 1431 D8110000 		.4byte	.LASF358
 5731 1435 01       		.byte	0x1
 5732 1436 9903     		.2byte	0x399
 5733 1438 C0130000 		.4byte	.LFB142
 5734 143c 02000000 		.4byte	.LFE142-.LFB142
ARM GAS  /tmp/ccGf2LCS.s 			page 102


 5735 1440 01       		.uleb128 0x1
 5736 1441 9C       		.byte	0x9c
 5737 1442 19       		.uleb128 0x19
 5738 1443 0A0B0000 		.4byte	.LASF359
 5739 1447 01       		.byte	0x1
 5740 1448 6A       		.byte	0x6a
 5741 1449 7D0F0000 		.4byte	0xf7d
 5742 144d 05       		.uleb128 0x5
 5743 144e 03       		.byte	0x3
 5744 144f 00000000 		.4byte	SENSORTILE_AudioIn_Handler
 5745 1453 19       		.uleb128 0x19
 5746 1454 490E0000 		.4byte	.LASF360
 5747 1458 01       		.byte	0x1
 5748 1459 6F       		.byte	0x6f
 5749 145a D8020000 		.4byte	0x2d8
 5750 145e 05       		.uleb128 0x5
 5751 145f 03       		.byte	0x3
 5752 1460 00000000 		.4byte	AudioInVolume
 5753 1464 25       		.uleb128 0x25
 5754 1465 9C070000 		.4byte	.LASF361
 5755 1469 0C       		.byte	0xc
 5756 146a FA06     		.2byte	0x6fa
 5757 146c 70140000 		.4byte	0x1470
 5758 1470 07       		.uleb128 0x7
 5759 1471 E3020000 		.4byte	0x2e3
 5760 1475 08       		.uleb128 0x8
 5761 1476 770B0000 		.4byte	0xb77
 5762 147a 85140000 		.4byte	0x1485
 5763 147e 09       		.uleb128 0x9
 5764 147f F9020000 		.4byte	0x2f9
 5765 1483 03       		.byte	0x3
 5766 1484 00       		.byte	0
 5767 1485 26       		.uleb128 0x26
 5768 1486 C2140000 		.4byte	.LASF362
 5769 148a 01       		.byte	0x1
 5770 148b 6D       		.byte	0x6d
 5771 148c 75140000 		.4byte	0x1475
 5772 1490 05       		.uleb128 0x5
 5773 1491 03       		.byte	0x3
 5774 1492 00000000 		.4byte	hdma_dfsdmReg_FLT
 5775 1496 08       		.uleb128 0x8
 5776 1497 000D0000 		.4byte	0xd00
 5777 149b A6140000 		.4byte	0x14a6
 5778 149f 09       		.uleb128 0x9
 5779 14a0 F9020000 		.4byte	0x2f9
 5780 14a4 03       		.byte	0x3
 5781 14a5 00       		.byte	0
 5782 14a6 26       		.uleb128 0x26
 5783 14a7 A0030000 		.4byte	.LASF363
 5784 14ab 01       		.byte	0x1
 5785 14ac 6B       		.byte	0x6b
 5786 14ad 96140000 		.4byte	0x1496
 5787 14b1 05       		.uleb128 0x5
 5788 14b2 03       		.byte	0x3
 5789 14b3 00000000 		.4byte	haudio_in_dfsdmchannel
 5790 14b7 08       		.uleb128 0x8
 5791 14b8 ED0E0000 		.4byte	0xeed
ARM GAS  /tmp/ccGf2LCS.s 			page 103


 5792 14bc C7140000 		.4byte	0x14c7
 5793 14c0 09       		.uleb128 0x9
 5794 14c1 F9020000 		.4byte	0x2f9
 5795 14c5 03       		.byte	0x3
 5796 14c6 00       		.byte	0
 5797 14c7 26       		.uleb128 0x26
 5798 14c8 E3050000 		.4byte	.LASF364
 5799 14cc 01       		.byte	0x1
 5800 14cd 6C       		.byte	0x6c
 5801 14ce B7140000 		.4byte	0x14b7
 5802 14d2 05       		.uleb128 0x5
 5803 14d3 03       		.byte	0x3
 5804 14d4 00000000 		.4byte	haudio_in_dfsdmfilter
 5805 14d8 08       		.uleb128 0x8
 5806 14d9 E3020000 		.4byte	0x2e3
 5807 14dd EE140000 		.4byte	0x14ee
 5808 14e1 09       		.uleb128 0x9
 5809 14e2 F9020000 		.4byte	0x2f9
 5810 14e6 03       		.byte	0x3
 5811 14e7 09       		.uleb128 0x9
 5812 14e8 F9020000 		.4byte	0x2f9
 5813 14ec BF       		.byte	0xbf
 5814 14ed 00       		.byte	0
 5815 14ee 26       		.uleb128 0x26
 5816 14ef 56020000 		.4byte	.LASF365
 5817 14f3 01       		.byte	0x1
 5818 14f4 6E       		.byte	0x6e
 5819 14f5 D8140000 		.4byte	0x14d8
 5820 14f9 05       		.uleb128 0x5
 5821 14fa 03       		.byte	0x3
 5822 14fb 00000000 		.4byte	RecBuff
 5823 14ff 00       		.byte	0
 5824              		.section	.debug_abbrev,"",%progbits
 5825              	.Ldebug_abbrev0:
 5826 0000 01       		.uleb128 0x1
 5827 0001 11       		.uleb128 0x11
 5828 0002 01       		.byte	0x1
 5829 0003 25       		.uleb128 0x25
 5830 0004 0E       		.uleb128 0xe
 5831 0005 13       		.uleb128 0x13
 5832 0006 0B       		.uleb128 0xb
 5833 0007 03       		.uleb128 0x3
 5834 0008 0E       		.uleb128 0xe
 5835 0009 1B       		.uleb128 0x1b
 5836 000a 0E       		.uleb128 0xe
 5837 000b 11       		.uleb128 0x11
 5838 000c 01       		.uleb128 0x1
 5839 000d 12       		.uleb128 0x12
 5840 000e 06       		.uleb128 0x6
 5841 000f 10       		.uleb128 0x10
 5842 0010 17       		.uleb128 0x17
 5843 0011 00       		.byte	0
 5844 0012 00       		.byte	0
 5845 0013 02       		.uleb128 0x2
 5846 0014 04       		.uleb128 0x4
 5847 0015 01       		.byte	0x1
 5848 0016 0B       		.uleb128 0xb
ARM GAS  /tmp/ccGf2LCS.s 			page 104


 5849 0017 0B       		.uleb128 0xb
 5850 0018 3A       		.uleb128 0x3a
 5851 0019 0B       		.uleb128 0xb
 5852 001a 3B       		.uleb128 0x3b
 5853 001b 0B       		.uleb128 0xb
 5854 001c 01       		.uleb128 0x1
 5855 001d 13       		.uleb128 0x13
 5856 001e 00       		.byte	0
 5857 001f 00       		.byte	0
 5858 0020 03       		.uleb128 0x3
 5859 0021 28       		.uleb128 0x28
 5860 0022 00       		.byte	0
 5861 0023 03       		.uleb128 0x3
 5862 0024 0E       		.uleb128 0xe
 5863 0025 1C       		.uleb128 0x1c
 5864 0026 0D       		.uleb128 0xd
 5865 0027 00       		.byte	0
 5866 0028 00       		.byte	0
 5867 0029 04       		.uleb128 0x4
 5868 002a 24       		.uleb128 0x24
 5869 002b 00       		.byte	0
 5870 002c 0B       		.uleb128 0xb
 5871 002d 0B       		.uleb128 0xb
 5872 002e 3E       		.uleb128 0x3e
 5873 002f 0B       		.uleb128 0xb
 5874 0030 03       		.uleb128 0x3
 5875 0031 0E       		.uleb128 0xe
 5876 0032 00       		.byte	0
 5877 0033 00       		.byte	0
 5878 0034 05       		.uleb128 0x5
 5879 0035 16       		.uleb128 0x16
 5880 0036 00       		.byte	0
 5881 0037 03       		.uleb128 0x3
 5882 0038 0E       		.uleb128 0xe
 5883 0039 3A       		.uleb128 0x3a
 5884 003a 0B       		.uleb128 0xb
 5885 003b 3B       		.uleb128 0x3b
 5886 003c 0B       		.uleb128 0xb
 5887 003d 49       		.uleb128 0x49
 5888 003e 13       		.uleb128 0x13
 5889 003f 00       		.byte	0
 5890 0040 00       		.byte	0
 5891 0041 06       		.uleb128 0x6
 5892 0042 24       		.uleb128 0x24
 5893 0043 00       		.byte	0
 5894 0044 0B       		.uleb128 0xb
 5895 0045 0B       		.uleb128 0xb
 5896 0046 3E       		.uleb128 0x3e
 5897 0047 0B       		.uleb128 0xb
 5898 0048 03       		.uleb128 0x3
 5899 0049 08       		.uleb128 0x8
 5900 004a 00       		.byte	0
 5901 004b 00       		.byte	0
 5902 004c 07       		.uleb128 0x7
 5903 004d 35       		.uleb128 0x35
 5904 004e 00       		.byte	0
 5905 004f 49       		.uleb128 0x49
ARM GAS  /tmp/ccGf2LCS.s 			page 105


 5906 0050 13       		.uleb128 0x13
 5907 0051 00       		.byte	0
 5908 0052 00       		.byte	0
 5909 0053 08       		.uleb128 0x8
 5910 0054 01       		.uleb128 0x1
 5911 0055 01       		.byte	0x1
 5912 0056 49       		.uleb128 0x49
 5913 0057 13       		.uleb128 0x13
 5914 0058 01       		.uleb128 0x1
 5915 0059 13       		.uleb128 0x13
 5916 005a 00       		.byte	0
 5917 005b 00       		.byte	0
 5918 005c 09       		.uleb128 0x9
 5919 005d 21       		.uleb128 0x21
 5920 005e 00       		.byte	0
 5921 005f 49       		.uleb128 0x49
 5922 0060 13       		.uleb128 0x13
 5923 0061 2F       		.uleb128 0x2f
 5924 0062 0B       		.uleb128 0xb
 5925 0063 00       		.byte	0
 5926 0064 00       		.byte	0
 5927 0065 0A       		.uleb128 0xa
 5928 0066 13       		.uleb128 0x13
 5929 0067 01       		.byte	0x1
 5930 0068 0B       		.uleb128 0xb
 5931 0069 0B       		.uleb128 0xb
 5932 006a 3A       		.uleb128 0x3a
 5933 006b 0B       		.uleb128 0xb
 5934 006c 3B       		.uleb128 0x3b
 5935 006d 05       		.uleb128 0x5
 5936 006e 01       		.uleb128 0x1
 5937 006f 13       		.uleb128 0x13
 5938 0070 00       		.byte	0
 5939 0071 00       		.byte	0
 5940 0072 0B       		.uleb128 0xb
 5941 0073 0D       		.uleb128 0xd
 5942 0074 00       		.byte	0
 5943 0075 03       		.uleb128 0x3
 5944 0076 0E       		.uleb128 0xe
 5945 0077 3A       		.uleb128 0x3a
 5946 0078 0B       		.uleb128 0xb
 5947 0079 3B       		.uleb128 0x3b
 5948 007a 05       		.uleb128 0x5
 5949 007b 49       		.uleb128 0x49
 5950 007c 13       		.uleb128 0x13
 5951 007d 38       		.uleb128 0x38
 5952 007e 0B       		.uleb128 0xb
 5953 007f 00       		.byte	0
 5954 0080 00       		.byte	0
 5955 0081 0C       		.uleb128 0xc
 5956 0082 16       		.uleb128 0x16
 5957 0083 00       		.byte	0
 5958 0084 03       		.uleb128 0x3
 5959 0085 0E       		.uleb128 0xe
 5960 0086 3A       		.uleb128 0x3a
 5961 0087 0B       		.uleb128 0xb
 5962 0088 3B       		.uleb128 0x3b
ARM GAS  /tmp/ccGf2LCS.s 			page 106


 5963 0089 05       		.uleb128 0x5
 5964 008a 49       		.uleb128 0x49
 5965 008b 13       		.uleb128 0x13
 5966 008c 00       		.byte	0
 5967 008d 00       		.byte	0
 5968 008e 0D       		.uleb128 0xd
 5969 008f 0D       		.uleb128 0xd
 5970 0090 00       		.byte	0
 5971 0091 03       		.uleb128 0x3
 5972 0092 08       		.uleb128 0x8
 5973 0093 3A       		.uleb128 0x3a
 5974 0094 0B       		.uleb128 0xb
 5975 0095 3B       		.uleb128 0x3b
 5976 0096 05       		.uleb128 0x5
 5977 0097 49       		.uleb128 0x49
 5978 0098 13       		.uleb128 0x13
 5979 0099 38       		.uleb128 0x38
 5980 009a 0B       		.uleb128 0xb
 5981 009b 00       		.byte	0
 5982 009c 00       		.byte	0
 5983 009d 0E       		.uleb128 0xe
 5984 009e 0F       		.uleb128 0xf
 5985 009f 00       		.byte	0
 5986 00a0 0B       		.uleb128 0xb
 5987 00a1 0B       		.uleb128 0xb
 5988 00a2 00       		.byte	0
 5989 00a3 00       		.byte	0
 5990 00a4 0F       		.uleb128 0xf
 5991 00a5 13       		.uleb128 0x13
 5992 00a6 01       		.byte	0x1
 5993 00a7 0B       		.uleb128 0xb
 5994 00a8 0B       		.uleb128 0xb
 5995 00a9 3A       		.uleb128 0x3a
 5996 00aa 0B       		.uleb128 0xb
 5997 00ab 3B       		.uleb128 0x3b
 5998 00ac 0B       		.uleb128 0xb
 5999 00ad 01       		.uleb128 0x1
 6000 00ae 13       		.uleb128 0x13
 6001 00af 00       		.byte	0
 6002 00b0 00       		.byte	0
 6003 00b1 10       		.uleb128 0x10
 6004 00b2 0D       		.uleb128 0xd
 6005 00b3 00       		.byte	0
 6006 00b4 03       		.uleb128 0x3
 6007 00b5 0E       		.uleb128 0xe
 6008 00b6 3A       		.uleb128 0x3a
 6009 00b7 0B       		.uleb128 0xb
 6010 00b8 3B       		.uleb128 0x3b
 6011 00b9 0B       		.uleb128 0xb
 6012 00ba 49       		.uleb128 0x49
 6013 00bb 13       		.uleb128 0x13
 6014 00bc 38       		.uleb128 0x38
 6015 00bd 0B       		.uleb128 0xb
 6016 00be 00       		.byte	0
 6017 00bf 00       		.byte	0
 6018 00c0 11       		.uleb128 0x11
 6019 00c1 0D       		.uleb128 0xd
ARM GAS  /tmp/ccGf2LCS.s 			page 107


 6020 00c2 00       		.byte	0
 6021 00c3 03       		.uleb128 0x3
 6022 00c4 08       		.uleb128 0x8
 6023 00c5 3A       		.uleb128 0x3a
 6024 00c6 0B       		.uleb128 0xb
 6025 00c7 3B       		.uleb128 0x3b
 6026 00c8 0B       		.uleb128 0xb
 6027 00c9 49       		.uleb128 0x49
 6028 00ca 13       		.uleb128 0x13
 6029 00cb 38       		.uleb128 0x38
 6030 00cc 0B       		.uleb128 0xb
 6031 00cd 00       		.byte	0
 6032 00ce 00       		.byte	0
 6033 00cf 12       		.uleb128 0x12
 6034 00d0 13       		.uleb128 0x13
 6035 00d1 01       		.byte	0x1
 6036 00d2 03       		.uleb128 0x3
 6037 00d3 0E       		.uleb128 0xe
 6038 00d4 0B       		.uleb128 0xb
 6039 00d5 0B       		.uleb128 0xb
 6040 00d6 3A       		.uleb128 0x3a
 6041 00d7 0B       		.uleb128 0xb
 6042 00d8 3B       		.uleb128 0x3b
 6043 00d9 0B       		.uleb128 0xb
 6044 00da 01       		.uleb128 0x1
 6045 00db 13       		.uleb128 0x13
 6046 00dc 00       		.byte	0
 6047 00dd 00       		.byte	0
 6048 00de 13       		.uleb128 0x13
 6049 00df 0F       		.uleb128 0xf
 6050 00e0 00       		.byte	0
 6051 00e1 0B       		.uleb128 0xb
 6052 00e2 0B       		.uleb128 0xb
 6053 00e3 49       		.uleb128 0x49
 6054 00e4 13       		.uleb128 0x13
 6055 00e5 00       		.byte	0
 6056 00e6 00       		.byte	0
 6057 00e7 14       		.uleb128 0x14
 6058 00e8 15       		.uleb128 0x15
 6059 00e9 01       		.byte	0x1
 6060 00ea 27       		.uleb128 0x27
 6061 00eb 19       		.uleb128 0x19
 6062 00ec 01       		.uleb128 0x1
 6063 00ed 13       		.uleb128 0x13
 6064 00ee 00       		.byte	0
 6065 00ef 00       		.byte	0
 6066 00f0 15       		.uleb128 0x15
 6067 00f1 05       		.uleb128 0x5
 6068 00f2 00       		.byte	0
 6069 00f3 49       		.uleb128 0x49
 6070 00f4 13       		.uleb128 0x13
 6071 00f5 00       		.byte	0
 6072 00f6 00       		.byte	0
 6073 00f7 16       		.uleb128 0x16
 6074 00f8 2E       		.uleb128 0x2e
 6075 00f9 01       		.byte	0x1
 6076 00fa 3F       		.uleb128 0x3f
ARM GAS  /tmp/ccGf2LCS.s 			page 108


 6077 00fb 19       		.uleb128 0x19
 6078 00fc 03       		.uleb128 0x3
 6079 00fd 0E       		.uleb128 0xe
 6080 00fe 3A       		.uleb128 0x3a
 6081 00ff 0B       		.uleb128 0xb
 6082 0100 3B       		.uleb128 0x3b
 6083 0101 0B       		.uleb128 0xb
 6084 0102 27       		.uleb128 0x27
 6085 0103 19       		.uleb128 0x19
 6086 0104 49       		.uleb128 0x49
 6087 0105 13       		.uleb128 0x13
 6088 0106 11       		.uleb128 0x11
 6089 0107 01       		.uleb128 0x1
 6090 0108 12       		.uleb128 0x12
 6091 0109 06       		.uleb128 0x6
 6092 010a 40       		.uleb128 0x40
 6093 010b 18       		.uleb128 0x18
 6094 010c 9642     		.uleb128 0x2116
 6095 010e 19       		.uleb128 0x19
 6096 010f 01       		.uleb128 0x1
 6097 0110 13       		.uleb128 0x13
 6098 0111 00       		.byte	0
 6099 0112 00       		.byte	0
 6100 0113 17       		.uleb128 0x17
 6101 0114 05       		.uleb128 0x5
 6102 0115 00       		.byte	0
 6103 0116 03       		.uleb128 0x3
 6104 0117 0E       		.uleb128 0xe
 6105 0118 3A       		.uleb128 0x3a
 6106 0119 0B       		.uleb128 0xb
 6107 011a 3B       		.uleb128 0x3b
 6108 011b 0B       		.uleb128 0xb
 6109 011c 49       		.uleb128 0x49
 6110 011d 13       		.uleb128 0x13
 6111 011e 02       		.uleb128 0x2
 6112 011f 18       		.uleb128 0x18
 6113 0120 00       		.byte	0
 6114 0121 00       		.byte	0
 6115 0122 18       		.uleb128 0x18
 6116 0123 2E       		.uleb128 0x2e
 6117 0124 00       		.byte	0
 6118 0125 3F       		.uleb128 0x3f
 6119 0126 19       		.uleb128 0x19
 6120 0127 03       		.uleb128 0x3
 6121 0128 0E       		.uleb128 0xe
 6122 0129 3A       		.uleb128 0x3a
 6123 012a 0B       		.uleb128 0xb
 6124 012b 3B       		.uleb128 0x3b
 6125 012c 0B       		.uleb128 0xb
 6126 012d 27       		.uleb128 0x27
 6127 012e 19       		.uleb128 0x19
 6128 012f 49       		.uleb128 0x49
 6129 0130 13       		.uleb128 0x13
 6130 0131 11       		.uleb128 0x11
 6131 0132 01       		.uleb128 0x1
 6132 0133 12       		.uleb128 0x12
 6133 0134 06       		.uleb128 0x6
ARM GAS  /tmp/ccGf2LCS.s 			page 109


 6134 0135 40       		.uleb128 0x40
 6135 0136 18       		.uleb128 0x18
 6136 0137 9642     		.uleb128 0x2116
 6137 0139 19       		.uleb128 0x19
 6138 013a 00       		.byte	0
 6139 013b 00       		.byte	0
 6140 013c 19       		.uleb128 0x19
 6141 013d 34       		.uleb128 0x34
 6142 013e 00       		.byte	0
 6143 013f 03       		.uleb128 0x3
 6144 0140 0E       		.uleb128 0xe
 6145 0141 3A       		.uleb128 0x3a
 6146 0142 0B       		.uleb128 0xb
 6147 0143 3B       		.uleb128 0x3b
 6148 0144 0B       		.uleb128 0xb
 6149 0145 49       		.uleb128 0x49
 6150 0146 13       		.uleb128 0x13
 6151 0147 02       		.uleb128 0x2
 6152 0148 18       		.uleb128 0x18
 6153 0149 00       		.byte	0
 6154 014a 00       		.byte	0
 6155 014b 1A       		.uleb128 0x1a
 6156 014c 2E       		.uleb128 0x2e
 6157 014d 01       		.byte	0x1
 6158 014e 3F       		.uleb128 0x3f
 6159 014f 19       		.uleb128 0x19
 6160 0150 03       		.uleb128 0x3
 6161 0151 0E       		.uleb128 0xe
 6162 0152 3A       		.uleb128 0x3a
 6163 0153 0B       		.uleb128 0xb
 6164 0154 3B       		.uleb128 0x3b
 6165 0155 05       		.uleb128 0x5
 6166 0156 27       		.uleb128 0x27
 6167 0157 19       		.uleb128 0x19
 6168 0158 49       		.uleb128 0x49
 6169 0159 13       		.uleb128 0x13
 6170 015a 11       		.uleb128 0x11
 6171 015b 01       		.uleb128 0x1
 6172 015c 12       		.uleb128 0x12
 6173 015d 06       		.uleb128 0x6
 6174 015e 40       		.uleb128 0x40
 6175 015f 18       		.uleb128 0x18
 6176 0160 9642     		.uleb128 0x2116
 6177 0162 19       		.uleb128 0x19
 6178 0163 01       		.uleb128 0x1
 6179 0164 13       		.uleb128 0x13
 6180 0165 00       		.byte	0
 6181 0166 00       		.byte	0
 6182 0167 1B       		.uleb128 0x1b
 6183 0168 34       		.uleb128 0x34
 6184 0169 00       		.byte	0
 6185 016a 03       		.uleb128 0x3
 6186 016b 0E       		.uleb128 0xe
 6187 016c 3A       		.uleb128 0x3a
 6188 016d 0B       		.uleb128 0xb
 6189 016e 3B       		.uleb128 0x3b
 6190 016f 05       		.uleb128 0x5
ARM GAS  /tmp/ccGf2LCS.s 			page 110


 6191 0170 49       		.uleb128 0x49
 6192 0171 13       		.uleb128 0x13
 6193 0172 02       		.uleb128 0x2
 6194 0173 18       		.uleb128 0x18
 6195 0174 00       		.byte	0
 6196 0175 00       		.byte	0
 6197 0176 1C       		.uleb128 0x1c
 6198 0177 2E       		.uleb128 0x2e
 6199 0178 01       		.byte	0x1
 6200 0179 3F       		.uleb128 0x3f
 6201 017a 19       		.uleb128 0x19
 6202 017b 03       		.uleb128 0x3
 6203 017c 0E       		.uleb128 0xe
 6204 017d 3A       		.uleb128 0x3a
 6205 017e 0B       		.uleb128 0xb
 6206 017f 3B       		.uleb128 0x3b
 6207 0180 05       		.uleb128 0x5
 6208 0181 27       		.uleb128 0x27
 6209 0182 19       		.uleb128 0x19
 6210 0183 49       		.uleb128 0x49
 6211 0184 13       		.uleb128 0x13
 6212 0185 11       		.uleb128 0x11
 6213 0186 01       		.uleb128 0x1
 6214 0187 12       		.uleb128 0x12
 6215 0188 06       		.uleb128 0x6
 6216 0189 40       		.uleb128 0x40
 6217 018a 18       		.uleb128 0x18
 6218 018b 9742     		.uleb128 0x2117
 6219 018d 19       		.uleb128 0x19
 6220 018e 01       		.uleb128 0x1
 6221 018f 13       		.uleb128 0x13
 6222 0190 00       		.byte	0
 6223 0191 00       		.byte	0
 6224 0192 1D       		.uleb128 0x1d
 6225 0193 05       		.uleb128 0x5
 6226 0194 00       		.byte	0
 6227 0195 03       		.uleb128 0x3
 6228 0196 0E       		.uleb128 0xe
 6229 0197 3A       		.uleb128 0x3a
 6230 0198 0B       		.uleb128 0xb
 6231 0199 3B       		.uleb128 0x3b
 6232 019a 05       		.uleb128 0x5
 6233 019b 49       		.uleb128 0x49
 6234 019c 13       		.uleb128 0x13
 6235 019d 02       		.uleb128 0x2
 6236 019e 18       		.uleb128 0x18
 6237 019f 00       		.byte	0
 6238 01a0 00       		.byte	0
 6239 01a1 1E       		.uleb128 0x1e
 6240 01a2 2E       		.uleb128 0x2e
 6241 01a3 00       		.byte	0
 6242 01a4 3F       		.uleb128 0x3f
 6243 01a5 19       		.uleb128 0x19
 6244 01a6 03       		.uleb128 0x3
 6245 01a7 0E       		.uleb128 0xe
 6246 01a8 3A       		.uleb128 0x3a
 6247 01a9 0B       		.uleb128 0xb
ARM GAS  /tmp/ccGf2LCS.s 			page 111


 6248 01aa 3B       		.uleb128 0x3b
 6249 01ab 05       		.uleb128 0x5
 6250 01ac 27       		.uleb128 0x27
 6251 01ad 19       		.uleb128 0x19
 6252 01ae 11       		.uleb128 0x11
 6253 01af 01       		.uleb128 0x1
 6254 01b0 12       		.uleb128 0x12
 6255 01b1 06       		.uleb128 0x6
 6256 01b2 40       		.uleb128 0x40
 6257 01b3 18       		.uleb128 0x18
 6258 01b4 9742     		.uleb128 0x2117
 6259 01b6 19       		.uleb128 0x19
 6260 01b7 00       		.byte	0
 6261 01b8 00       		.byte	0
 6262 01b9 1F       		.uleb128 0x1f
 6263 01ba 2E       		.uleb128 0x2e
 6264 01bb 01       		.byte	0x1
 6265 01bc 03       		.uleb128 0x3
 6266 01bd 0E       		.uleb128 0xe
 6267 01be 3A       		.uleb128 0x3a
 6268 01bf 0B       		.uleb128 0xb
 6269 01c0 3B       		.uleb128 0x3b
 6270 01c1 05       		.uleb128 0x5
 6271 01c2 27       		.uleb128 0x27
 6272 01c3 19       		.uleb128 0x19
 6273 01c4 49       		.uleb128 0x49
 6274 01c5 13       		.uleb128 0x13
 6275 01c6 11       		.uleb128 0x11
 6276 01c7 01       		.uleb128 0x1
 6277 01c8 12       		.uleb128 0x12
 6278 01c9 06       		.uleb128 0x6
 6279 01ca 40       		.uleb128 0x40
 6280 01cb 18       		.uleb128 0x18
 6281 01cc 9642     		.uleb128 0x2116
 6282 01ce 19       		.uleb128 0x19
 6283 01cf 01       		.uleb128 0x1
 6284 01d0 13       		.uleb128 0x13
 6285 01d1 00       		.byte	0
 6286 01d2 00       		.byte	0
 6287 01d3 20       		.uleb128 0x20
 6288 01d4 0B       		.uleb128 0xb
 6289 01d5 01       		.byte	0x1
 6290 01d6 11       		.uleb128 0x11
 6291 01d7 01       		.uleb128 0x1
 6292 01d8 12       		.uleb128 0x12
 6293 01d9 06       		.uleb128 0x6
 6294 01da 01       		.uleb128 0x1
 6295 01db 13       		.uleb128 0x13
 6296 01dc 00       		.byte	0
 6297 01dd 00       		.byte	0
 6298 01de 21       		.uleb128 0x21
 6299 01df 0B       		.uleb128 0xb
 6300 01e0 01       		.byte	0x1
 6301 01e1 11       		.uleb128 0x11
 6302 01e2 01       		.uleb128 0x1
 6303 01e3 12       		.uleb128 0x12
 6304 01e4 06       		.uleb128 0x6
ARM GAS  /tmp/ccGf2LCS.s 			page 112


 6305 01e5 00       		.byte	0
 6306 01e6 00       		.byte	0
 6307 01e7 22       		.uleb128 0x22
 6308 01e8 2E       		.uleb128 0x2e
 6309 01e9 01       		.byte	0x1
 6310 01ea 03       		.uleb128 0x3
 6311 01eb 0E       		.uleb128 0xe
 6312 01ec 3A       		.uleb128 0x3a
 6313 01ed 0B       		.uleb128 0xb
 6314 01ee 3B       		.uleb128 0x3b
 6315 01ef 05       		.uleb128 0x5
 6316 01f0 27       		.uleb128 0x27
 6317 01f1 19       		.uleb128 0x19
 6318 01f2 11       		.uleb128 0x11
 6319 01f3 01       		.uleb128 0x1
 6320 01f4 12       		.uleb128 0x12
 6321 01f5 06       		.uleb128 0x6
 6322 01f6 40       		.uleb128 0x40
 6323 01f7 18       		.uleb128 0x18
 6324 01f8 9642     		.uleb128 0x2116
 6325 01fa 19       		.uleb128 0x19
 6326 01fb 01       		.uleb128 0x1
 6327 01fc 13       		.uleb128 0x13
 6328 01fd 00       		.byte	0
 6329 01fe 00       		.byte	0
 6330 01ff 23       		.uleb128 0x23
 6331 0200 2E       		.uleb128 0x2e
 6332 0201 01       		.byte	0x1
 6333 0202 3F       		.uleb128 0x3f
 6334 0203 19       		.uleb128 0x19
 6335 0204 03       		.uleb128 0x3
 6336 0205 0E       		.uleb128 0xe
 6337 0206 3A       		.uleb128 0x3a
 6338 0207 0B       		.uleb128 0xb
 6339 0208 3B       		.uleb128 0x3b
 6340 0209 05       		.uleb128 0x5
 6341 020a 27       		.uleb128 0x27
 6342 020b 19       		.uleb128 0x19
 6343 020c 11       		.uleb128 0x11
 6344 020d 01       		.uleb128 0x1
 6345 020e 12       		.uleb128 0x12
 6346 020f 06       		.uleb128 0x6
 6347 0210 40       		.uleb128 0x40
 6348 0211 18       		.uleb128 0x18
 6349 0212 9642     		.uleb128 0x2116
 6350 0214 19       		.uleb128 0x19
 6351 0215 01       		.uleb128 0x1
 6352 0216 13       		.uleb128 0x13
 6353 0217 00       		.byte	0
 6354 0218 00       		.byte	0
 6355 0219 24       		.uleb128 0x24
 6356 021a 34       		.uleb128 0x34
 6357 021b 00       		.byte	0
 6358 021c 03       		.uleb128 0x3
 6359 021d 08       		.uleb128 0x8
 6360 021e 3A       		.uleb128 0x3a
 6361 021f 0B       		.uleb128 0xb
ARM GAS  /tmp/ccGf2LCS.s 			page 113


 6362 0220 3B       		.uleb128 0x3b
 6363 0221 05       		.uleb128 0x5
 6364 0222 49       		.uleb128 0x49
 6365 0223 13       		.uleb128 0x13
 6366 0224 02       		.uleb128 0x2
 6367 0225 18       		.uleb128 0x18
 6368 0226 00       		.byte	0
 6369 0227 00       		.byte	0
 6370 0228 25       		.uleb128 0x25
 6371 0229 34       		.uleb128 0x34
 6372 022a 00       		.byte	0
 6373 022b 03       		.uleb128 0x3
 6374 022c 0E       		.uleb128 0xe
 6375 022d 3A       		.uleb128 0x3a
 6376 022e 0B       		.uleb128 0xb
 6377 022f 3B       		.uleb128 0x3b
 6378 0230 05       		.uleb128 0x5
 6379 0231 49       		.uleb128 0x49
 6380 0232 13       		.uleb128 0x13
 6381 0233 3F       		.uleb128 0x3f
 6382 0234 19       		.uleb128 0x19
 6383 0235 3C       		.uleb128 0x3c
 6384 0236 19       		.uleb128 0x19
 6385 0237 00       		.byte	0
 6386 0238 00       		.byte	0
 6387 0239 26       		.uleb128 0x26
 6388 023a 34       		.uleb128 0x34
 6389 023b 00       		.byte	0
 6390 023c 03       		.uleb128 0x3
 6391 023d 0E       		.uleb128 0xe
 6392 023e 3A       		.uleb128 0x3a
 6393 023f 0B       		.uleb128 0xb
 6394 0240 3B       		.uleb128 0x3b
 6395 0241 0B       		.uleb128 0xb
 6396 0242 49       		.uleb128 0x49
 6397 0243 13       		.uleb128 0x13
 6398 0244 3F       		.uleb128 0x3f
 6399 0245 19       		.uleb128 0x19
 6400 0246 02       		.uleb128 0x2
 6401 0247 18       		.uleb128 0x18
 6402 0248 00       		.byte	0
 6403 0249 00       		.byte	0
 6404 024a 00       		.byte	0
 6405              		.section	.debug_aranges,"",%progbits
 6406 0000 1C000000 		.4byte	0x1c
 6407 0004 0200     		.2byte	0x2
 6408 0006 00000000 		.4byte	.Ldebug_info0
 6409 000a 04       		.byte	0x4
 6410 000b 00       		.byte	0
 6411 000c 0000     		.2byte	0
 6412 000e 0000     		.2byte	0
 6413 0010 00000000 		.4byte	.Ltext0
 6414 0014 C2130000 		.4byte	.Letext0-.Ltext0
 6415 0018 00000000 		.4byte	0
 6416 001c 00000000 		.4byte	0
 6417              		.section	.debug_line,"",%progbits
 6418              	.Ldebug_line0:
ARM GAS  /tmp/ccGf2LCS.s 			page 114


 6419 0000 FA080000 		.section	.debug_str,"MS",%progbits,1
 6419      0200A102 
 6419      00000201 
 6419      FB0E0D00 
 6419      01010101 
 6420              	.LASF149:
 6421 0000 43494552 		.ascii	"CIER\000"
 6421      00
 6422              	.LASF327:
 6423 0005 42697452 		.ascii	"BitRes\000"
 6423      657300
 6424              	.LASF310:
 6425 000c 68646D61 		.ascii	"hdmaInj\000"
 6425      496E6A00 
 6426              	.LASF255:
 6427 0014 58666572 		.ascii	"XferHalfCpltCallback\000"
 6427      48616C66 
 6427      43706C74 
 6427      43616C6C 
 6427      6261636B 
 6428              	.LASF276:
 6429 0029 44465344 		.ascii	"DFSDM_Channel_SerialInterfaceTypeDef\000"
 6429      4D5F4368 
 6429      616E6E65 
 6429      6C5F5365 
 6429      7269616C 
 6430              	.LASF330:
 6431 004e 4253505F 		.ascii	"BSP_AUDIO_IN_ClockConfig\000"
 6431      41554449 
 6431      4F5F494E 
 6431      5F436C6F 
 6431      636B436F 
 6432              	.LASF140:
 6433 0067 42535252 		.ascii	"BSRR\000"
 6433      00
 6434              	.LASF126:
 6435 006c 43484157 		.ascii	"CHAWSCDR\000"
 6435      53434452 
 6435      00
 6436              	.LASF79:
 6437 0075 4C505541 		.ascii	"LPUART1_IRQn\000"
 6437      5254315F 
 6437      4952516E 
 6437      00
 6438              	.LASF124:
 6439 0082 43484346 		.ascii	"CHCFGR1\000"
 6439      47523100 
 6440              	.LASF125:
 6441 008a 43484346 		.ascii	"CHCFGR2\000"
 6441      47523200 
 6442              	.LASF78:
 6443 0092 444D4132 		.ascii	"DMA2_Channel7_IRQn\000"
 6443      5F436861 
 6443      6E6E656C 
 6443      375F4952 
 6443      516E00
 6444              	.LASF309:
ARM GAS  /tmp/ccGf2LCS.s 			page 115


 6445 00a5 68646D61 		.ascii	"hdmaReg\000"
 6445      52656700 
 6446              	.LASF251:
 6447 00ad 4C6F636B 		.ascii	"Lock\000"
 6447      00
 6448              	.LASF205:
 6449 00b2 504C4C53 		.ascii	"PLLSAI2ClockOut\000"
 6449      41493243 
 6449      6C6F636B 
 6449      4F757400 
 6450              	.LASF159:
 6451 00c2 41504232 		.ascii	"APB2RSTR\000"
 6451      52535452 
 6451      00
 6452              	.LASF31:
 6453 00cb 43414E31 		.ascii	"CAN1_SCE_IRQn\000"
 6453      5F534345 
 6453      5F495251 
 6453      6E00
 6454              	.LASF219:
 6455 00d9 4C707469 		.ascii	"Lptim1ClockSelection\000"
 6455      6D31436C 
 6455      6F636B53 
 6455      656C6563 
 6455      74696F6E 
 6456              	.LASF332:
 6457 00ee 4253505F 		.ascii	"BSP_AUDIO_IN_Record\000"
 6457      41554449 
 6457      4F5F494E 
 6457      5F526563 
 6457      6F726400 
 6458              	.LASF292:
 6459 0102 48414C5F 		.ascii	"HAL_DFSDM_FILTER_STATE_ERROR\000"
 6459      44465344 
 6459      4D5F4649 
 6459      4C544552 
 6459      5F535441 
 6460              	.LASF301:
 6461 011f 44465344 		.ascii	"DFSDM_Filter_InjectedParamTypeDef\000"
 6461      4D5F4669 
 6461      6C746572 
 6461      5F496E6A 
 6461      65637465 
 6462              	.LASF123:
 6463 0141 44465344 		.ascii	"DFSDM_Filter_TypeDef\000"
 6463      4D5F4669 
 6463      6C746572 
 6463      5F547970 
 6463      65446566 
 6464              	.LASF343:
 6465 0156 4750494F 		.ascii	"GPIO_InitStruct\000"
 6465      5F496E69 
 6465      74537472 
 6465      75637400 
 6466              	.LASF4:
 6467 0166 55736167 		.ascii	"UsageFault_IRQn\000"
 6467      65466175 
ARM GAS  /tmp/ccGf2LCS.s 			page 116


 6467      6C745F49 
 6467      52516E00 
 6468              	.LASF207:
 6469 0176 50657269 		.ascii	"PeriphClockSelection\000"
 6469      7068436C 
 6469      6F636B53 
 6469      656C6563 
 6469      74696F6E 
 6470              	.LASF39:
 6471 018b 54494D34 		.ascii	"TIM4_IRQn\000"
 6471      5F495251 
 6471      6E00
 6472              	.LASF21:
 6473 0195 444D4131 		.ascii	"DMA1_Channel2_IRQn\000"
 6473      5F436861 
 6473      6E6E656C 
 6473      325F4952 
 6473      516E00
 6474              	.LASF350:
 6475 01a8 44465344 		.ascii	"DFSDMx_FilterMspInit\000"
 6475      4D785F46 
 6475      696C7465 
 6475      724D7370 
 6475      496E6974 
 6476              	.LASF239:
 6477 01bd 4D656D49 		.ascii	"MemInc\000"
 6477      6E6300
 6478              	.LASF183:
 6479 01c4 46756E63 		.ascii	"FunctionalState\000"
 6479      74696F6E 
 6479      616C5374 
 6479      61746500 
 6480              	.LASF113:
 6481 01d4 464C5446 		.ascii	"FLTFCR\000"
 6481      435200
 6482              	.LASF162:
 6483 01db 41484232 		.ascii	"AHB2ENR\000"
 6483      454E5200 
 6484              	.LASF248:
 6485 01e3 48414C5F 		.ascii	"HAL_DMA_StateTypeDef\000"
 6485      444D415F 
 6485      53746174 
 6485      65547970 
 6485      65446566 
 6486              	.LASF26:
 6487 01f8 444D4131 		.ascii	"DMA1_Channel7_IRQn\000"
 6487      5F436861 
 6487      6E6E656C 
 6487      375F4952 
 6487      516E00
 6488              	.LASF187:
 6489 020b 48414C5F 		.ascii	"HAL_BUSY\000"
 6489      42555359 
 6489      00
 6490              	.LASF179:
 6491 0214 42444352 		.ascii	"BDCR\000"
 6491      00
ARM GAS  /tmp/ccGf2LCS.s 			page 117


 6492              	.LASF131:
 6493 0219 43504152 		.ascii	"CPAR\000"
 6493      00
 6494              	.LASF218:
 6495 021e 49326333 		.ascii	"I2c3ClockSelection\000"
 6495      436C6F63 
 6495      6B53656C 
 6495      65637469 
 6495      6F6E00
 6496              	.LASF13:
 6497 0231 464C4153 		.ascii	"FLASH_IRQn\000"
 6497      485F4952 
 6497      516E00
 6498              	.LASF326:
 6499 023c 41756469 		.ascii	"AudioFreq\000"
 6499      6F467265 
 6499      7100
 6500              	.LASF208:
 6501 0246 504C4C53 		.ascii	"PLLSAI1\000"
 6501      41493100 
 6502              	.LASF209:
 6503 024e 504C4C53 		.ascii	"PLLSAI2\000"
 6503      41493200 
 6504              	.LASF365:
 6505 0256 52656342 		.ascii	"RecBuff\000"
 6505      75666600 
 6506              	.LASF132:
 6507 025e 434D4152 		.ascii	"CMAR\000"
 6507      00
 6508              	.LASF217:
 6509 0263 49326332 		.ascii	"I2c2ClockSelection\000"
 6509      436C6F63 
 6509      6B53656C 
 6509      65637469 
 6509      6F6E00
 6510              	.LASF304:
 6511 0276 44465344 		.ascii	"DFSDM_Filter_FilterParamTypeDef\000"
 6511      4D5F4669 
 6511      6C746572 
 6511      5F46696C 
 6511      74657250 
 6512              	.LASF322:
 6513 0296 53616D70 		.ascii	"Sampling_Freq\000"
 6513      6C696E67 
 6513      5F467265 
 6513      7100
 6514              	.LASF200:
 6515 02a4 504C4C53 		.ascii	"PLLSAI2Source\000"
 6515      41493253 
 6515      6F757263 
 6515      6500
 6516              	.LASF216:
 6517 02b2 49326331 		.ascii	"I2c1ClockSelection\000"
 6517      436C6F63 
 6517      6B53656C 
 6517      65637469 
 6517      6F6E00
ARM GAS  /tmp/ccGf2LCS.s 			page 118


 6518              	.LASF128:
 6519 02c5 43484441 		.ascii	"CHDATINR\000"
 6519      54494E52 
 6519      00
 6520              	.LASF49:
 6521 02ce 45585449 		.ascii	"EXTI15_10_IRQn\000"
 6521      31355F31 
 6521      305F4952 
 6521      516E00
 6522              	.LASF127:
 6523 02dd 43485744 		.ascii	"CHWDATAR\000"
 6523      41544152 
 6523      00
 6524              	.LASF340:
 6525 02e6 4253505F 		.ascii	"BSP_AUDIO_IN_SetVolume\000"
 6525      41554449 
 6525      4F5F494E 
 6525      5F536574 
 6525      566F6C75 
 6526              	.LASF319:
 6527 02fd 6F6C6449 		.ascii	"oldIn\000"
 6527      6E00
 6528              	.LASF252:
 6529 0303 53746174 		.ascii	"State\000"
 6529      6500
 6530              	.LASF263:
 6531 0309 48414C5F 		.ascii	"HAL_DFSDM_CHANNEL_STATE_READY\000"
 6531      44465344 
 6531      4D5F4348 
 6531      414E4E45 
 6531      4C5F5354 
 6532              	.LASF224:
 6533 0327 53646D6D 		.ascii	"Sdmmc1ClockSelection\000"
 6533      6331436C 
 6533      6F636B53 
 6533      656C6563 
 6533      74696F6E 
 6534              	.LASF244:
 6535 033c 48414C5F 		.ascii	"HAL_DMA_STATE_RESET\000"
 6535      444D415F 
 6535      53544154 
 6535      455F5245 
 6535      53455400 
 6536              	.LASF297:
 6537 0350 44465344 		.ascii	"DFSDM_Filter_RegularParamTypeDef\000"
 6537      4D5F4669 
 6537      6C746572 
 6537      5F526567 
 6537      756C6172 
 6538              	.LASF7:
 6539 0371 50656E64 		.ascii	"PendSV_IRQn\000"
 6539      53565F49 
 6539      52516E00 
 6540              	.LASF61:
 6541 037d 55415254 		.ascii	"UART4_IRQn\000"
 6541      345F4952 
 6541      516E00
ARM GAS  /tmp/ccGf2LCS.s 			page 119


 6542              	.LASF35:
 6543 0388 54494D31 		.ascii	"TIM1_TRG_COM_TIM17_IRQn\000"
 6543      5F545247 
 6543      5F434F4D 
 6543      5F54494D 
 6543      31375F49 
 6544              	.LASF363:
 6545 03a0 68617564 		.ascii	"haudio_in_dfsdmchannel\000"
 6545      696F5F69 
 6545      6E5F6466 
 6545      73646D63 
 6545      68616E6E 
 6546              	.LASF287:
 6547 03b7 48414C5F 		.ascii	"HAL_DFSDM_FILTER_STATE_RESET\000"
 6547      44465344 
 6547      4D5F4649 
 6547      4C544552 
 6547      5F535441 
 6548              	.LASF188:
 6549 03d4 48414C5F 		.ascii	"HAL_TIMEOUT\000"
 6549      54494D45 
 6549      4F555400 
 6550              	.LASF130:
 6551 03e0 434E4454 		.ascii	"CNDTR\000"
 6551      5200
 6552              	.LASF14:
 6553 03e6 5243435F 		.ascii	"RCC_IRQn\000"
 6553      4952516E 
 6553      00
 6554              	.LASF267:
 6555 03ef 53656C65 		.ascii	"Selection\000"
 6555      6374696F 
 6555      6E00
 6556              	.LASF223:
 6557 03f9 55736243 		.ascii	"UsbClockSelection\000"
 6557      6C6F636B 
 6557      53656C65 
 6557      6374696F 
 6557      6E00
 6558              	.LASF2:
 6559 040b 4D656D6F 		.ascii	"MemoryManagement_IRQn\000"
 6559      72794D61 
 6559      6E616765 
 6559      6D656E74 
 6559      5F495251 
 6560              	.LASF254:
 6561 0421 58666572 		.ascii	"XferCpltCallback\000"
 6561      43706C74 
 6561      43616C6C 
 6561      6261636B 
 6561      00
 6562              	.LASF247:
 6563 0432 48414C5F 		.ascii	"HAL_DMA_STATE_TIMEOUT\000"
 6563      444D415F 
 6563      53544154 
 6563      455F5449 
 6563      4D454F55 
ARM GAS  /tmp/ccGf2LCS.s 			page 120


 6564              	.LASF281:
 6565 0448 496E7075 		.ascii	"Input\000"
 6565      7400
 6566              	.LASF148:
 6567 044e 504C4C53 		.ascii	"PLLSAI2CFGR\000"
 6567      41493243 
 6567      46475200 
 6568              	.LASF106:
 6569 045a 75696E74 		.ascii	"uint32_t\000"
 6569      33325F74 
 6569      00
 6570              	.LASF10:
 6571 0463 5056445F 		.ascii	"PVD_PVM_IRQn\000"
 6571      50564D5F 
 6571      4952516E 
 6571      00
 6572              	.LASF249:
 6573 0470 496E7374 		.ascii	"Instance\000"
 6573      616E6365 
 6573      00
 6574              	.LASF11:
 6575 0479 54414D50 		.ascii	"TAMP_STAMP_IRQn\000"
 6575      5F535441 
 6575      4D505F49 
 6575      52516E00 
 6576              	.LASF43:
 6577 0489 49324332 		.ascii	"I2C2_ER_IRQn\000"
 6577      5F45525F 
 6577      4952516E 
 6577      00
 6578              	.LASF76:
 6579 0496 4F54475F 		.ascii	"OTG_FS_IRQn\000"
 6579      46535F49 
 6579      52516E00 
 6580              	.LASF284:
 6581 04a2 52696768 		.ascii	"RightBitShift\000"
 6581      74426974 
 6581      53686966 
 6581      7400
 6582              	.LASF33:
 6583 04b0 54494D31 		.ascii	"TIM1_BRK_TIM15_IRQn\000"
 6583      5F42524B 
 6583      5F54494D 
 6583      31355F49 
 6583      52516E00 
 6584              	.LASF161:
 6585 04c4 41484231 		.ascii	"AHB1ENR\000"
 6585      454E5200 
 6586              	.LASF68:
 6587 04cc 444D4132 		.ascii	"DMA2_Channel4_IRQn\000"
 6587      5F436861 
 6587      6E6E656C 
 6587      345F4952 
 6587      516E00
 6588              	.LASF328:
 6589 04df 43686E6C 		.ascii	"ChnlNbr\000"
 6589      4E627200 
ARM GAS  /tmp/ccGf2LCS.s 			page 121


 6590              	.LASF44:
 6591 04e7 53504931 		.ascii	"SPI1_IRQn\000"
 6591      5F495251 
 6591      6E00
 6592              	.LASF269:
 6593 04f1 44465344 		.ascii	"DFSDM_Channel_OutputClockTypeDef\000"
 6593      4D5F4368 
 6593      616E6E65 
 6593      6C5F4F75 
 6593      74707574 
 6594              	.LASF186:
 6595 0512 48414C5F 		.ascii	"HAL_ERROR\000"
 6595      4552524F 
 6595      5200
 6596              	.LASF101:
 6597 051c 6C6F6E67 		.ascii	"long long unsigned int\000"
 6597      206C6F6E 
 6597      6720756E 
 6597      7369676E 
 6597      65642069 
 6598              	.LASF176:
 6599 0533 52455345 		.ascii	"RESERVED6\000"
 6599      52564544 
 6599      3600
 6600              	.LASF321:
 6601 053d 4D696343 		.ascii	"MicChannels\000"
 6601      68616E6E 
 6601      656C7300 
 6602              	.LASF275:
 6603 0549 53706943 		.ascii	"SpiClock\000"
 6603      6C6F636B 
 6603      00
 6604              	.LASF225:
 6605 0552 526E6743 		.ascii	"RngClockSelection\000"
 6605      6C6F636B 
 6605      53656C65 
 6605      6374696F 
 6605      6E00
 6606              	.LASF121:
 6607 0564 464C5445 		.ascii	"FLTEXMIN\000"
 6607      584D494E 
 6607      00
 6608              	.LASF320:
 6609 056d 48505F46 		.ascii	"HP_FilterState_TypeDef\000"
 6609      696C7465 
 6609      72537461 
 6609      74655F54 
 6609      79706544 
 6610              	.LASF73:
 6611 0584 434F4D50 		.ascii	"COMP_IRQn\000"
 6611      5F495251 
 6611      6E00
 6612              	.LASF71:
 6613 058e 44465344 		.ascii	"DFSDM1_FLT1_IRQn\000"
 6613      4D315F46 
 6613      4C54315F 
 6613      4952516E 
ARM GAS  /tmp/ccGf2LCS.s 			page 122


 6613      00
 6614              	.LASF30:
 6615 059f 43414E31 		.ascii	"CAN1_RX1_IRQn\000"
 6615      5F525831 
 6615      5F495251 
 6615      6E00
 6616              	.LASF111:
 6617 05ad 464C5449 		.ascii	"FLTICR\000"
 6617      435200
 6618              	.LASF185:
 6619 05b4 48414C5F 		.ascii	"HAL_OK\000"
 6619      4F4B00
 6620              	.LASF295:
 6621 05bb 46617374 		.ascii	"FastMode\000"
 6621      4D6F6465 
 6621      00
 6622              	.LASF112:
 6623 05c4 464C544A 		.ascii	"FLTJCHGR\000"
 6623      43484752 
 6623      00
 6624              	.LASF155:
 6625 05cd 41484233 		.ascii	"AHB3RSTR\000"
 6625      52535452 
 6625      00
 6626              	.LASF342:
 6627 05d6 73686966 		.ascii	"shift_amount\000"
 6627      745F616D 
 6627      6F756E74 
 6627      00
 6628              	.LASF364:
 6629 05e3 68617564 		.ascii	"haudio_in_dfsdmfilter\000"
 6629      696F5F69 
 6629      6E5F6466 
 6629      73646D66 
 6629      696C7465 
 6630              	.LASF314:
 6631 05f9 496E6A65 		.ascii	"InjectedScanMode\000"
 6631      63746564 
 6631      5363616E 
 6631      4D6F6465 
 6631      00
 6632              	.LASF260:
 6633 060a 4368616E 		.ascii	"ChannelIndex\000"
 6633      6E656C49 
 6633      6E646578 
 6633      00
 6634              	.LASF323:
 6635 0617 48505F46 		.ascii	"HP_Filters\000"
 6635      696C7465 
 6635      727300
 6636              	.LASF139:
 6637 0622 50555044 		.ascii	"PUPDR\000"
 6637      5200
 6638              	.LASF298:
 6639 0628 5363616E 		.ascii	"ScanMode\000"
 6639      4D6F6465 
 6639      00
ARM GAS  /tmp/ccGf2LCS.s 			page 123


 6640              	.LASF355:
 6641 0631 48414C5F 		.ascii	"HAL_DFSDM_FilterRegConvHalfCpltCallback\000"
 6641      44465344 
 6641      4D5F4669 
 6641      6C746572 
 6641      52656743 
 6642              	.LASF57:
 6643 0659 464D435F 		.ascii	"FMC_IRQn\000"
 6643      4952516E 
 6643      00
 6644              	.LASF336:
 6645 0662 636F756E 		.ascii	"counter\000"
 6645      74657200 
 6646              	.LASF246:
 6647 066a 48414C5F 		.ascii	"HAL_DMA_STATE_BUSY\000"
 6647      444D415F 
 6647      53544154 
 6647      455F4255 
 6647      535900
 6648              	.LASF250:
 6649 067d 496E6974 		.ascii	"Init\000"
 6649      00
 6650              	.LASF312:
 6651 0682 52656775 		.ascii	"RegularTrigger\000"
 6651      6C617254 
 6651      72696767 
 6651      657200
 6652              	.LASF232:
 6653 0691 50756C6C 		.ascii	"Pull\000"
 6653      00
 6654              	.LASF47:
 6655 0696 55534152 		.ascii	"USART2_IRQn\000"
 6655      54325F49 
 6655      52516E00 
 6656              	.LASF308:
 6657 06a2 44465344 		.ascii	"DFSDM_Filter_InitTypeDef\000"
 6657      4D5F4669 
 6657      6C746572 
 6657      5F496E69 
 6657      74547970 
 6658              	.LASF158:
 6659 06bb 41504231 		.ascii	"APB1RSTR2\000"
 6659      52535452 
 6659      3200
 6660              	.LASF240:
 6661 06c5 50657269 		.ascii	"PeriphDataAlignment\000"
 6661      70684461 
 6661      7461416C 
 6661      69676E6D 
 6661      656E7400 
 6662              	.LASF337:
 6663 06d9 4253505F 		.ascii	"BSP_AUDIO_IN_Stop\000"
 6663      41554449 
 6663      4F5F494E 
 6663      5F53746F 
 6663      7000
 6664              	.LASF344:
ARM GAS  /tmp/ccGf2LCS.s 			page 124


 6665 06eb 746D7072 		.ascii	"tmpreg\000"
 6665      656700
 6666              	.LASF169:
 6667 06f2 41484231 		.ascii	"AHB1SMENR\000"
 6667      534D454E 
 6667      5200
 6668              	.LASF339:
 6669 06fc 4253505F 		.ascii	"BSP_AUDIO_IN_Resume\000"
 6669      41554449 
 6669      4F5F494E 
 6669      5F526573 
 6669      756D6500 
 6670              	.LASF122:
 6671 0710 464C5443 		.ascii	"FLTCNVTIMR\000"
 6671      4E565449 
 6671      4D5200
 6672              	.LASF180:
 6673 071b 5243435F 		.ascii	"RCC_TypeDef\000"
 6673      54797065 
 6673      44656600 
 6674              	.LASF82:
 6675 0727 49324333 		.ascii	"I2C3_ER_IRQn\000"
 6675      5F45525F 
 6675      4952516E 
 6675      00
 6676              	.LASF262:
 6677 0734 48414C5F 		.ascii	"HAL_DFSDM_CHANNEL_STATE_RESET\000"
 6677      44465344 
 6677      4D5F4348 
 6677      414E4E45 
 6677      4C5F5354 
 6678              	.LASF136:
 6679 0752 4D4F4445 		.ascii	"MODER\000"
 6679      5200
 6680              	.LASF129:
 6681 0758 44465344 		.ascii	"DFSDM_Channel_TypeDef\000"
 6681      4D5F4368 
 6681      616E6E65 
 6681      6C5F5479 
 6681      70654465 
 6682              	.LASF12:
 6683 076e 5254435F 		.ascii	"RTC_WKUP_IRQn\000"
 6683      574B5550 
 6683      5F495251 
 6683      6E00
 6684              	.LASF212:
 6685 077c 55736172 		.ascii	"Usart3ClockSelection\000"
 6685      7433436C 
 6685      6F636B53 
 6685      656C6563 
 6685      74696F6E 
 6686              	.LASF266:
 6687 0791 41637469 		.ascii	"Activation\000"
 6687      76617469 
 6687      6F6E00
 6688              	.LASF361:
 6689 079c 49544D5F 		.ascii	"ITM_RxBuffer\000"
ARM GAS  /tmp/ccGf2LCS.s 			page 125


 6689      52784275 
 6689      66666572 
 6689      00
 6690              	.LASF346:
 6691 07a9 68646D61 		.ascii	"hdma_dfsdmReg\000"
 6691      5F646673 
 6691      646D5265 
 6691      6700
 6692              	.LASF211:
 6693 07b7 55736172 		.ascii	"Usart2ClockSelection\000"
 6693      7432436C 
 6693      6F636B53 
 6693      656C6563 
 6693      74696F6E 
 6694              	.LASF261:
 6695 07cc 444D415F 		.ascii	"DMA_HandleTypeDef\000"
 6695      48616E64 
 6695      6C655479 
 6695      70654465 
 6695      6600
 6696              	.LASF227:
 6697 07de 5377706D 		.ascii	"Swpmi1ClockSelection\000"
 6697      6931436C 
 6697      6F636B53 
 6697      656C6563 
 6697      74696F6E 
 6698              	.LASF163:
 6699 07f3 41484233 		.ascii	"AHB3ENR\000"
 6699      454E5200 
 6700              	.LASF291:
 6701 07fb 48414C5F 		.ascii	"HAL_DFSDM_FILTER_STATE_REG_INJ\000"
 6701      44465344 
 6701      4D5F4649 
 6701      4C544552 
 6701      5F535441 
 6702              	.LASF313:
 6703 081a 496E6A65 		.ascii	"InjectedTrigger\000"
 6703      63746564 
 6703      54726967 
 6703      67657200 
 6704              	.LASF17:
 6705 082a 45585449 		.ascii	"EXTI2_IRQn\000"
 6705      325F4952 
 6705      516E00
 6706              	.LASF94:
 6707 0835 5F5F7569 		.ascii	"__uint16_t\000"
 6707      6E743136 
 6707      5F7400
 6708              	.LASF368:
 6709 0840 2F752F65 		.ascii	"/u/elawton2/p442-submissions/sensortile/reference/b"
 6709      6C617774 
 6709      6F6E322F 
 6709      70343432 
 6709      2D737562 
 6710 0873 6C75656D 		.ascii	"luemicrosystem2/BlueMicrosystem2_V2.2.0/Projects/Mu"
 6710      6963726F 
 6710      73797374 
ARM GAS  /tmp/ccGf2LCS.s 			page 126


 6710      656D322F 
 6710      426C7565 
 6711 08a6 6C74692F 		.ascii	"lti/Applications/BlueMicrosystem2/bluechibi\000"
 6711      4170706C 
 6711      69636174 
 6711      696F6E73 
 6711      2F426C75 
 6712              	.LASF256:
 6713 08d2 58666572 		.ascii	"XferErrorCallback\000"
 6713      4572726F 
 6713      7243616C 
 6713      6C626163 
 6713      6B00
 6714              	.LASF42:
 6715 08e4 49324332 		.ascii	"I2C2_EV_IRQn\000"
 6715      5F45565F 
 6715      4952516E 
 6715      00
 6716              	.LASF77:
 6717 08f1 444D4132 		.ascii	"DMA2_Channel6_IRQn\000"
 6717      5F436861 
 6717      6E6E656C 
 6717      365F4952 
 6717      516E00
 6718              	.LASF222:
 6719 0904 53616932 		.ascii	"Sai2ClockSelection\000"
 6719      436C6F63 
 6719      6B53656C 
 6719      65637469 
 6719      6F6E00
 6720              	.LASF117:
 6721 0917 464C5441 		.ascii	"FLTAWLTR\000"
 6721      574C5452 
 6721      00
 6722              	.LASF60:
 6723 0920 53504933 		.ascii	"SPI3_IRQn\000"
 6723      5F495251 
 6723      6E00
 6724              	.LASF300:
 6725 092a 45787454 		.ascii	"ExtTriggerEdge\000"
 6725      72696767 
 6725      65724564 
 6725      676500
 6726              	.LASF184:
 6727 0939 63686172 		.ascii	"char\000"
 6727      00
 6728              	.LASF25:
 6729 093e 444D4131 		.ascii	"DMA1_Channel6_IRQn\000"
 6729      5F436861 
 6729      6E6E656C 
 6729      365F4952 
 6729      516E00
 6730              	.LASF221:
 6731 0951 53616931 		.ascii	"Sai1ClockSelection\000"
 6731      436C6F63 
 6731      6B53656C 
 6731      65637469 
ARM GAS  /tmp/ccGf2LCS.s 			page 127


 6731      6F6E00
 6732              	.LASF38:
 6733 0964 54494D33 		.ascii	"TIM3_IRQn\000"
 6733      5F495251 
 6733      6E00
 6734              	.LASF85:
 6735 096e 5357504D 		.ascii	"SWPMI1_IRQn\000"
 6735      49315F49 
 6735      52516E00 
 6736              	.LASF181:
 6737 097a 44495341 		.ascii	"DISABLE\000"
 6737      424C4500 
 6738              	.LASF96:
 6739 0982 5F5F696E 		.ascii	"__int32_t\000"
 6739      7433325F 
 6739      7400
 6740              	.LASF347:
 6741 098c 44465344 		.ascii	"DFSDMx_Init\000"
 6741      4D785F49 
 6741      6E697400 
 6742              	.LASF233:
 6743 0998 53706565 		.ascii	"Speed\000"
 6743      6400
 6744              	.LASF20:
 6745 099e 444D4131 		.ascii	"DMA1_Channel1_IRQn\000"
 6745      5F436861 
 6745      6E6E656C 
 6745      315F4952 
 6745      516E00
 6746              	.LASF253:
 6747 09b1 50617265 		.ascii	"Parent\000"
 6747      6E7400
 6748              	.LASF51:
 6749 09b8 44465344 		.ascii	"DFSDM1_FLT3_IRQn\000"
 6749      4D315F46 
 6749      4C54335F 
 6749      4952516E 
 6749      00
 6750              	.LASF352:
 6751 09c9 68646673 		.ascii	"hdfsdm_channel\000"
 6751      646D5F63 
 6751      68616E6E 
 6751      656C00
 6752              	.LASF102:
 6753 09d8 756E7369 		.ascii	"unsigned int\000"
 6753      676E6564 
 6753      20696E74 
 6753      00
 6754              	.LASF146:
 6755 09e5 504C4C43 		.ascii	"PLLCFGR\000"
 6755      46475200 
 6756              	.LASF103:
 6757 09ed 75696E74 		.ascii	"uint8_t\000"
 6757      385F7400 
 6758              	.LASF84:
 6759 09f5 53414932 		.ascii	"SAI2_IRQn\000"
 6759      5F495251 
ARM GAS  /tmp/ccGf2LCS.s 			page 128


 6759      6E00
 6760              	.LASF75:
 6761 09ff 4C505449 		.ascii	"LPTIM2_IRQn\000"
 6761      4D325F49 
 6761      52516E00 
 6762              	.LASF16:
 6763 0a0b 45585449 		.ascii	"EXTI1_IRQn\000"
 6763      315F4952 
 6763      516E00
 6764              	.LASF356:
 6765 0a16 4253505F 		.ascii	"BSP_AUDIO_IN_Error_Callback\000"
 6765      41554449 
 6765      4F5F494E 
 6765      5F457272 
 6765      6F725F43 
 6766              	.LASF214:
 6767 0a32 55617274 		.ascii	"Uart5ClockSelection\000"
 6767      35436C6F 
 6767      636B5365 
 6767      6C656374 
 6767      696F6E00 
 6768              	.LASF142:
 6769 0a46 41534352 		.ascii	"ASCR\000"
 6769      00
 6770              	.LASF299:
 6771 0a4b 45787454 		.ascii	"ExtTrigger\000"
 6771      72696767 
 6771      657200
 6772              	.LASF274:
 6773 0a56 54797065 		.ascii	"Type\000"
 6773      00
 6774              	.LASF283:
 6775 0a5b 4F666673 		.ascii	"Offset\000"
 6775      657400
 6776              	.LASF325:
 6777 0a62 53454E53 		.ascii	"SENSORTILE_AudioIn_HandlerTypeDef\000"
 6777      4F525449 
 6777      4C455F41 
 6777      7564696F 
 6777      496E5F48 
 6778              	.LASF213:
 6779 0a84 55617274 		.ascii	"Uart4ClockSelection\000"
 6779      34436C6F 
 6779      636B5365 
 6779      6C656374 
 6779      696F6E00 
 6780              	.LASF189:
 6781 0a98 48414C5F 		.ascii	"HAL_UNLOCKED\000"
 6781      554E4C4F 
 6781      434B4544 
 6781      00
 6782              	.LASF369:
 6783 0aa5 5F5F444D 		.ascii	"__DMA_HandleTypeDef\000"
 6783      415F4861 
 6783      6E646C65 
 6783      54797065 
 6783      44656600 
ARM GAS  /tmp/ccGf2LCS.s 			page 129


 6784              	.LASF279:
 6785 0ab9 44465344 		.ascii	"DFSDM_Channel_AwdTypeDef\000"
 6785      4D5F4368 
 6785      616E6E65 
 6785      6C5F4177 
 6785      64547970 
 6786              	.LASF226:
 6787 0ad2 41646343 		.ascii	"AdcClockSelection\000"
 6787      6C6F636B 
 6787      53656C65 
 6787      6374696F 
 6787      6E00
 6788              	.LASF100:
 6789 0ae4 6C6F6E67 		.ascii	"long long int\000"
 6789      206C6F6E 
 6789      6720696E 
 6789      7400
 6790              	.LASF9:
 6791 0af2 57574447 		.ascii	"WWDG_IRQn\000"
 6791      5F495251 
 6791      6E00
 6792              	.LASF109:
 6793 0afc 464C5443 		.ascii	"FLTCR2\000"
 6793      523200
 6794              	.LASF110:
 6795 0b03 464C5449 		.ascii	"FLTISR\000"
 6795      535200
 6796              	.LASF359:
 6797 0b0a 53454E53 		.ascii	"SENSORTILE_AudioIn_Handler\000"
 6797      4F525449 
 6797      4C455F41 
 6797      7564696F 
 6797      496E5F48 
 6798              	.LASF285:
 6799 0b25 44465344 		.ascii	"DFSDM_Channel_InitTypeDef\000"
 6799      4D5F4368 
 6799      616E6E65 
 6799      6C5F496E 
 6799      69745479 
 6800              	.LASF305:
 6801 0b3f 52656775 		.ascii	"RegularParam\000"
 6801      6C617250 
 6801      6172616D 
 6801      00
 6802              	.LASF335:
 6803 0b4c 5243435F 		.ascii	"RCC_ExCLKInitStruct\000"
 6803      4578434C 
 6803      4B496E69 
 6803      74537472 
 6803      75637400 
 6804              	.LASF156:
 6805 0b60 52455345 		.ascii	"RESERVED1\000"
 6805      52564544 
 6805      3100
 6806              	.LASF278:
 6807 0b6a 4F766572 		.ascii	"Oversampling\000"
 6807      73616D70 
ARM GAS  /tmp/ccGf2LCS.s 			page 130


 6807      6C696E67 
 6807      00
 6808              	.LASF86:
 6809 0b77 5453435F 		.ascii	"TSC_IRQn\000"
 6809      4952516E 
 6809      00
 6810              	.LASF64:
 6811 0b80 54494D37 		.ascii	"TIM7_IRQn\000"
 6811      5F495251 
 6811      6E00
 6812              	.LASF236:
 6813 0b8a 52657175 		.ascii	"Request\000"
 6813      65737400 
 6814              	.LASF257:
 6815 0b92 58666572 		.ascii	"XferAbortCallback\000"
 6815      41626F72 
 6815      7443616C 
 6815      6C626163 
 6815      6B00
 6816              	.LASF3:
 6817 0ba4 42757346 		.ascii	"BusFault_IRQn\000"
 6817      61756C74 
 6817      5F495251 
 6817      6E00
 6818              	.LASF135:
 6819 0bb2 444D415F 		.ascii	"DMA_TypeDef\000"
 6819      54797065 
 6819      44656600 
 6820              	.LASF147:
 6821 0bbe 504C4C53 		.ascii	"PLLSAI1CFGR\000"
 6821      41493143 
 6821      46475200 
 6822              	.LASF316:
 6823 0bca 496E6A43 		.ascii	"InjConvRemaining\000"
 6823      6F6E7652 
 6823      656D6169 
 6823      6E696E67 
 6823      00
 6824              	.LASF210:
 6825 0bdb 55736172 		.ascii	"Usart1ClockSelection\000"
 6825      7431436C 
 6825      6F636B53 
 6825      656C6563 
 6825      74696F6E 
 6826              	.LASF192:
 6827 0bf0 504C4C53 		.ascii	"PLLSAI1Source\000"
 6827      41493153 
 6827      6F757263 
 6827      6500
 6828              	.LASF19:
 6829 0bfe 45585449 		.ascii	"EXTI4_IRQn\000"
 6829      345F4952 
 6829      516E00
 6830              	.LASF334:
 6831 0c09 73697A65 		.ascii	"size\000"
 6831      00
 6832              	.LASF87:
ARM GAS  /tmp/ccGf2LCS.s 			page 131


 6833 0c0e 4C43445F 		.ascii	"LCD_IRQn\000"
 6833      4952516E 
 6833      00
 6834              	.LASF351:
 6835 0c17 44465344 		.ascii	"DFSDMx_ChannelMspDeInit\000"
 6835      4D785F43 
 6835      68616E6E 
 6835      656C4D73 
 6835      70446549 
 6836              	.LASF56:
 6837 0c2f 41444333 		.ascii	"ADC3_IRQn\000"
 6837      5F495251 
 6837      6E00
 6838              	.LASF144:
 6839 0c39 49435343 		.ascii	"ICSCR\000"
 6839      5200
 6840              	.LASF92:
 6841 0c3f 73686F72 		.ascii	"short int\000"
 6841      7420696E 
 6841      7400
 6842              	.LASF199:
 6843 0c49 5243435F 		.ascii	"RCC_PLLSAI1InitTypeDef\000"
 6843      504C4C53 
 6843      41493149 
 6843      6E697454 
 6843      79706544 
 6844              	.LASF228:
 6845 0c60 44667364 		.ascii	"Dfsdm1ClockSelection\000"
 6845      6D31436C 
 6845      6F636B53 
 6845      656C6563 
 6845      74696F6E 
 6846              	.LASF67:
 6847 0c75 444D4132 		.ascii	"DMA2_Channel3_IRQn\000"
 6847      5F436861 
 6847      6E6E656C 
 6847      335F4952 
 6847      516E00
 6848              	.LASF167:
 6849 0c88 41504232 		.ascii	"APB2ENR\000"
 6849      454E5200 
 6850              	.LASF258:
 6851 0c90 4572726F 		.ascii	"ErrorCode\000"
 6851      72436F64 
 6851      6500
 6852              	.LASF59:
 6853 0c9a 54494D35 		.ascii	"TIM5_IRQn\000"
 6853      5F495251 
 6853      6E00
 6854              	.LASF22:
 6855 0ca4 444D4131 		.ascii	"DMA1_Channel3_IRQn\000"
 6855      5F436861 
 6855      6E6E656C 
 6855      335F4952 
 6855      516E00
 6856              	.LASF54:
 6857 0cb7 54494D38 		.ascii	"TIM8_TRG_COM_IRQn\000"
ARM GAS  /tmp/ccGf2LCS.s 			page 132


 6857      5F545247 
 6857      5F434F4D 
 6857      5F495251 
 6857      6E00
 6858              	.LASF270:
 6859 0cc9 4D756C74 		.ascii	"Multiplexer\000"
 6859      69706C65 
 6859      78657200 
 6860              	.LASF173:
 6861 0cd5 41504231 		.ascii	"APB1SMENR1\000"
 6861      534D454E 
 6861      523100
 6862              	.LASF174:
 6863 0ce0 41504231 		.ascii	"APB1SMENR2\000"
 6863      534D454E 
 6863      523200
 6864              	.LASF40:
 6865 0ceb 49324331 		.ascii	"I2C1_EV_IRQn\000"
 6865      5F45565F 
 6865      4952516E 
 6865      00
 6866              	.LASF177:
 6867 0cf8 43434950 		.ascii	"CCIPR\000"
 6867      5200
 6868              	.LASF138:
 6869 0cfe 4F535045 		.ascii	"OSPEEDR\000"
 6869      45445200 
 6870              	.LASF259:
 6871 0d06 446D6142 		.ascii	"DmaBaseAddress\000"
 6871      61736541 
 6871      64647265 
 6871      737300
 6872              	.LASF28:
 6873 0d15 43414E31 		.ascii	"CAN1_TX_IRQn\000"
 6873      5F54585F 
 6873      4952516E 
 6873      00
 6874              	.LASF104:
 6875 0d22 75696E74 		.ascii	"uint16_t\000"
 6875      31365F74 
 6875      00
 6876              	.LASF264:
 6877 0d2b 48414C5F 		.ascii	"HAL_DFSDM_CHANNEL_STATE_ERROR\000"
 6877      44465344 
 6877      4D5F4348 
 6877      414E4E45 
 6877      4C5F5354 
 6878              	.LASF29:
 6879 0d49 43414E31 		.ascii	"CAN1_RX0_IRQn\000"
 6879      5F525830 
 6879      5F495251 
 6879      6E00
 6880              	.LASF154:
 6881 0d57 41484232 		.ascii	"AHB2RSTR\000"
 6881      52535452 
 6881      00
 6882              	.LASF58:
ARM GAS  /tmp/ccGf2LCS.s 			page 133


 6883 0d60 53444D4D 		.ascii	"SDMMC1_IRQn\000"
 6883      43315F49 
 6883      52516E00 
 6884              	.LASF53:
 6885 0d6c 54494D38 		.ascii	"TIM8_UP_IRQn\000"
 6885      5F55505F 
 6885      4952516E 
 6885      00
 6886              	.LASF70:
 6887 0d79 44465344 		.ascii	"DFSDM1_FLT0_IRQn\000"
 6887      4D315F46 
 6887      4C54305F 
 6887      4952516E 
 6887      00
 6888              	.LASF151:
 6889 0d8a 43494352 		.ascii	"CICR\000"
 6889      00
 6890              	.LASF50:
 6891 0d8f 5254435F 		.ascii	"RTC_Alarm_IRQn\000"
 6891      416C6172 
 6891      6D5F4952 
 6891      516E00
 6892              	.LASF265:
 6893 0d9e 48414C5F 		.ascii	"HAL_DFSDM_Channel_StateTypeDef\000"
 6893      44465344 
 6893      4D5F4368 
 6893      616E6E65 
 6893      6C5F5374 
 6894              	.LASF23:
 6895 0dbd 444D4131 		.ascii	"DMA1_Channel4_IRQn\000"
 6895      5F436861 
 6895      6E6E656C 
 6895      345F4952 
 6895      516E00
 6896              	.LASF152:
 6897 0dd0 52455345 		.ascii	"RESERVED0\000"
 6897      52564544 
 6897      3000
 6898              	.LASF234:
 6899 0dda 416C7465 		.ascii	"Alternate\000"
 6899      726E6174 
 6899      6500
 6900              	.LASF206:
 6901 0de4 5243435F 		.ascii	"RCC_PLLSAI2InitTypeDef\000"
 6901      504C4C53 
 6901      41493249 
 6901      6E697454 
 6901      79706544 
 6902              	.LASF164:
 6903 0dfb 52455345 		.ascii	"RESERVED3\000"
 6903      52564544 
 6903      3300
 6904              	.LASF370:
 6905 0e05 4253505F 		.ascii	"BSP_AUDIO_IN_DeInit\000"
 6905      41554449 
 6905      4F5F494E 
 6905      5F446549 
ARM GAS  /tmp/ccGf2LCS.s 			page 134


 6905      6E697400 
 6906              	.LASF172:
 6907 0e19 52455345 		.ascii	"RESERVED5\000"
 6907      52564544 
 6907      3500
 6908              	.LASF157:
 6909 0e23 41504231 		.ascii	"APB1RSTR1\000"
 6909      52535452 
 6909      3100
 6910              	.LASF178:
 6911 0e2d 52455345 		.ascii	"RESERVED7\000"
 6911      52564544 
 6911      3700
 6912              	.LASF229:
 6913 0e37 52544343 		.ascii	"RTCClockSelection\000"
 6913      6C6F636B 
 6913      53656C65 
 6913      6374696F 
 6913      6E00
 6914              	.LASF360:
 6915 0e49 41756469 		.ascii	"AudioInVolume\000"
 6915      6F496E56 
 6915      6F6C756D 
 6915      6500
 6916              	.LASF243:
 6917 0e57 444D415F 		.ascii	"DMA_InitTypeDef\000"
 6917      496E6974 
 6917      54797065 
 6917      44656600 
 6918              	.LASF231:
 6919 0e67 4D6F6465 		.ascii	"Mode\000"
 6919      00
 6920              	.LASF201:
 6921 0e6c 504C4C53 		.ascii	"PLLSAI2M\000"
 6921      4149324D 
 6921      00
 6922              	.LASF97:
 6923 0e75 6C6F6E67 		.ascii	"long int\000"
 6923      20696E74 
 6923      00
 6924              	.LASF202:
 6925 0e7e 504C4C53 		.ascii	"PLLSAI2N\000"
 6925      4149324E 
 6925      00
 6926              	.LASF62:
 6927 0e87 55415254 		.ascii	"UART5_IRQn\000"
 6927      355F4952 
 6927      516E00
 6928              	.LASF203:
 6929 0e92 504C4C53 		.ascii	"PLLSAI2P\000"
 6929      41493250 
 6929      00
 6930              	.LASF34:
 6931 0e9b 54494D31 		.ascii	"TIM1_UP_TIM16_IRQn\000"
 6931      5F55505F 
 6931      54494D31 
 6931      365F4952 
ARM GAS  /tmp/ccGf2LCS.s 			page 135


 6931      516E00
 6932              	.LASF193:
 6933 0eae 504C4C53 		.ascii	"PLLSAI1M\000"
 6933      4149314D 
 6933      00
 6934              	.LASF194:
 6935 0eb7 504C4C53 		.ascii	"PLLSAI1N\000"
 6935      4149314E 
 6935      00
 6936              	.LASF0:
 6937 0ec0 4E6F6E4D 		.ascii	"NonMaskableInt_IRQn\000"
 6937      61736B61 
 6937      626C6549 
 6937      6E745F49 
 6937      52516E00 
 6938              	.LASF195:
 6939 0ed4 504C4C53 		.ascii	"PLLSAI1P\000"
 6939      41493150 
 6939      00
 6940              	.LASF196:
 6941 0edd 504C4C53 		.ascii	"PLLSAI1Q\000"
 6941      41493151 
 6941      00
 6942              	.LASF197:
 6943 0ee6 504C4C53 		.ascii	"PLLSAI1R\000"
 6943      41493152 
 6943      00
 6944              	.LASF317:
 6945 0eef 44465344 		.ascii	"DFSDM_Filter_HandleTypeDef\000"
 6945      4D5F4669 
 6945      6C746572 
 6945      5F48616E 
 6945      646C6554 
 6946              	.LASF272:
 6947 0f0a 50696E73 		.ascii	"Pins\000"
 6947      00
 6948              	.LASF241:
 6949 0f0f 4D656D44 		.ascii	"MemDataAlignment\000"
 6949      61746141 
 6949      6C69676E 
 6949      6D656E74 
 6949      00
 6950              	.LASF36:
 6951 0f20 54494D31 		.ascii	"TIM1_CC_IRQn\000"
 6951      5F43435F 
 6951      4952516E 
 6951      00
 6952              	.LASF137:
 6953 0f2d 4F545950 		.ascii	"OTYPER\000"
 6953      455200
 6954              	.LASF215:
 6955 0f34 4C707561 		.ascii	"Lpuart1ClockSelection\000"
 6955      72743143 
 6955      6C6F636B 
 6955      53656C65 
 6955      6374696F 
 6956              	.LASF55:
ARM GAS  /tmp/ccGf2LCS.s 			page 136


 6957 0f4a 54494D38 		.ascii	"TIM8_CC_IRQn\000"
 6957      5F43435F 
 6957      4952516E 
 6957      00
 6958              	.LASF65:
 6959 0f57 444D4132 		.ascii	"DMA2_Channel1_IRQn\000"
 6959      5F436861 
 6959      6E6E656C 
 6959      315F4952 
 6959      516E00
 6960              	.LASF88:
 6961 0f6a 524E475F 		.ascii	"RNG_IRQn\000"
 6961      4952516E 
 6961      00
 6962              	.LASF145:
 6963 0f73 43464752 		.ascii	"CFGR\000"
 6963      00
 6964              	.LASF171:
 6965 0f78 41484233 		.ascii	"AHB3SMENR\000"
 6965      534D454E 
 6965      5200
 6966              	.LASF271:
 6967 0f82 44617461 		.ascii	"DataPacking\000"
 6967      5061636B 
 6967      696E6700 
 6968              	.LASF318:
 6969 0f8e 6F6C644F 		.ascii	"oldOut\000"
 6969      757400
 6970              	.LASF115:
 6971 0f95 464C5452 		.ascii	"FLTRDATAR\000"
 6971      44415441 
 6971      5200
 6972              	.LASF120:
 6973 0f9f 464C5445 		.ascii	"FLTEXMAX\000"
 6973      584D4158 
 6973      00
 6974              	.LASF190:
 6975 0fa8 48414C5F 		.ascii	"HAL_LOCKED\000"
 6975      4C4F434B 
 6975      454400
 6976              	.LASF93:
 6977 0fb3 5F5F7569 		.ascii	"__uint8_t\000"
 6977      6E74385F 
 6977      7400
 6978              	.LASF165:
 6979 0fbd 41504231 		.ascii	"APB1ENR1\000"
 6979      454E5231 
 6979      00
 6980              	.LASF166:
 6981 0fc6 41504231 		.ascii	"APB1ENR2\000"
 6981      454E5232 
 6981      00
 6982              	.LASF338:
 6983 0fcf 4253505F 		.ascii	"BSP_AUDIO_IN_Pause\000"
 6983      41554449 
 6983      4F5F494E 
 6983      5F506175 
ARM GAS  /tmp/ccGf2LCS.s 			page 137


 6983      736500
 6984              	.LASF294:
 6985 0fe2 54726967 		.ascii	"Trigger\000"
 6985      67657200 
 6986              	.LASF198:
 6987 0fea 504C4C53 		.ascii	"PLLSAI1ClockOut\000"
 6987      41493143 
 6987      6C6F636B 
 6987      4F757400 
 6988              	.LASF366:
 6989 0ffa 474E5520 		.ascii	"GNU C 4.8.4 20140526 (release) [ARM/embedded-4_8-br"
 6989      4320342E 
 6989      382E3420 
 6989      32303134 
 6989      30353236 
 6990 102d 616E6368 		.ascii	"anch revision 211358] -mcpu=cortex-m4 -mno-thumb-in"
 6990      20726576 
 6990      6973696F 
 6990      6E203231 
 6990      31333538 
 6991 1060 74657277 		.ascii	"terwork -mthumb -ggdb -O0 -std=c99 -fomit-frame-poi"
 6991      6F726B20 
 6991      2D6D7468 
 6991      756D6220 
 6991      2D676764 
 6992 1093 6E746572 		.ascii	"nter -falign-functions=16\000"
 6992      202D6661 
 6992      6C69676E 
 6992      2D66756E 
 6992      6374696F 
 6993              	.LASF69:
 6994 10ad 444D4132 		.ascii	"DMA2_Channel5_IRQn\000"
 6994      5F436861 
 6994      6E6E656C 
 6994      355F4952 
 6994      516E00
 6995              	.LASF324:
 6996 10c0 50434D5F 		.ascii	"PCM_Data\000"
 6996      44617461 
 6996      00
 6997              	.LASF204:
 6998 10c9 504C4C53 		.ascii	"PLLSAI2R\000"
 6998      41493252 
 6998      00
 6999              	.LASF191:
 7000 10d2 48414C5F 		.ascii	"HAL_LockTypeDef\000"
 7000      4C6F636B 
 7000      54797065 
 7000      44656600 
 7001              	.LASF41:
 7002 10e2 49324331 		.ascii	"I2C1_ER_IRQn\000"
 7002      5F45525F 
 7002      4952516E 
 7002      00
 7003              	.LASF354:
 7004 10ef 48414C5F 		.ascii	"HAL_DFSDM_FilterRegConvCpltCallback\000"
 7004      44465344 
ARM GAS  /tmp/ccGf2LCS.s 			page 138


 7004      4D5F4669 
 7004      6C746572 
 7004      52656743 
 7005              	.LASF311:
 7006 1113 52656775 		.ascii	"RegularContMode\000"
 7006      6C617243 
 7006      6F6E744D 
 7006      6F646500 
 7007              	.LASF348:
 7008 1123 44465344 		.ascii	"DFSDMx_DeInit\000"
 7008      4D785F44 
 7008      65496E69 
 7008      7400
 7009              	.LASF8:
 7010 1131 53797354 		.ascii	"SysTick_IRQn\000"
 7010      69636B5F 
 7010      4952516E 
 7010      00
 7011              	.LASF182:
 7012 113e 454E4142 		.ascii	"ENABLE\000"
 7012      4C4500
 7013              	.LASF80:
 7014 1145 51554144 		.ascii	"QUADSPI_IRQn\000"
 7014      5350495F 
 7014      4952516E 
 7014      00
 7015              	.LASF107:
 7016 1152 73697A65 		.ascii	"sizetype\000"
 7016      74797065 
 7016      00
 7017              	.LASF230:
 7018 115b 5243435F 		.ascii	"RCC_PeriphCLKInitTypeDef\000"
 7018      50657269 
 7018      7068434C 
 7018      4B496E69 
 7018      74547970 
 7019              	.LASF108:
 7020 1174 464C5443 		.ascii	"FLTCR1\000"
 7020      523100
 7021              	.LASF15:
 7022 117b 45585449 		.ascii	"EXTI0_IRQn\000"
 7022      305F4952 
 7022      516E00
 7023              	.LASF99:
 7024 1186 6C6F6E67 		.ascii	"long unsigned int\000"
 7024      20756E73 
 7024      69676E65 
 7024      6420696E 
 7024      7400
 7025              	.LASF37:
 7026 1198 54494D32 		.ascii	"TIM2_IRQn\000"
 7026      5F495251 
 7026      6E00
 7027              	.LASF282:
 7028 11a2 53657269 		.ascii	"SerialInterface\000"
 7028      616C496E 
 7028      74657266 
ARM GAS  /tmp/ccGf2LCS.s 			page 139


 7028      61636500 
 7029              	.LASF329:
 7030 11b2 4253505F 		.ascii	"BSP_AUDIO_IN_Init\000"
 7030      41554449 
 7030      4F5F494E 
 7030      5F496E69 
 7030      7400
 7031              	.LASF307:
 7032 11c4 46696C74 		.ascii	"FilterParam\000"
 7032      65725061 
 7032      72616D00 
 7033              	.LASF105:
 7034 11d0 696E7433 		.ascii	"int32_t\000"
 7034      325F7400 
 7035              	.LASF358:
 7036 11d8 4253505F 		.ascii	"BSP_AUDIO_IN_HalfTransfer_CallBack\000"
 7036      41554449 
 7036      4F5F494E 
 7036      5F48616C 
 7036      66547261 
 7037              	.LASF143:
 7038 11fb 4750494F 		.ascii	"GPIO_TypeDef\000"
 7038      5F547970 
 7038      65446566 
 7038      00
 7039              	.LASF118:
 7040 1208 464C5441 		.ascii	"FLTAWSR\000"
 7040      57535200 
 7041              	.LASF116:
 7042 1210 464C5441 		.ascii	"FLTAWHTR\000"
 7042      57485452 
 7042      00
 7043              	.LASF83:
 7044 1219 53414931 		.ascii	"SAI1_IRQn\000"
 7044      5F495251 
 7044      6E00
 7045              	.LASF237:
 7046 1223 44697265 		.ascii	"Direction\000"
 7046      6374696F 
 7046      6E00
 7047              	.LASF74:
 7048 122d 4C505449 		.ascii	"LPTIM1_IRQn\000"
 7048      4D315F49 
 7048      52516E00 
 7049              	.LASF6:
 7050 1239 44656275 		.ascii	"DebugMonitor_IRQn\000"
 7050      674D6F6E 
 7050      69746F72 
 7050      5F495251 
 7050      6E00
 7051              	.LASF63:
 7052 124b 54494D36 		.ascii	"TIM6_DAC_IRQn\000"
 7052      5F444143 
 7052      5F495251 
 7052      6E00
 7053              	.LASF235:
 7054 1259 4750494F 		.ascii	"GPIO_InitTypeDef\000"
ARM GAS  /tmp/ccGf2LCS.s 			page 140


 7054      5F496E69 
 7054      74547970 
 7054      65446566 
 7054      00
 7055              	.LASF91:
 7056 126a 756E7369 		.ascii	"unsigned char\000"
 7056      676E6564 
 7056      20636861 
 7056      7200
 7057              	.LASF81:
 7058 1278 49324333 		.ascii	"I2C3_EV_IRQn\000"
 7058      5F45565F 
 7058      4952516E 
 7058      00
 7059              	.LASF98:
 7060 1285 5F5F7569 		.ascii	"__uint32_t\000"
 7060      6E743332 
 7060      5F7400
 7061              	.LASF341:
 7062 1290 566F6C75 		.ascii	"Volume\000"
 7062      6D6500
 7063              	.LASF277:
 7064 1297 46696C74 		.ascii	"FilterOrder\000"
 7064      65724F72 
 7064      64657200 
 7065              	.LASF268:
 7066 12a3 44697669 		.ascii	"Divider\000"
 7066      64657200 
 7067              	.LASF32:
 7068 12ab 45585449 		.ascii	"EXTI9_5_IRQn\000"
 7068      395F355F 
 7068      4952516E 
 7068      00
 7069              	.LASF114:
 7070 12b8 464C544A 		.ascii	"FLTJDATAR\000"
 7070      44415441 
 7070      5200
 7071              	.LASF5:
 7072 12c2 53564361 		.ascii	"SVCall_IRQn\000"
 7072      6C6C5F49 
 7072      52516E00 
 7073              	.LASF333:
 7074 12ce 70627566 		.ascii	"pbuf\000"
 7074      00
 7075              	.LASF315:
 7076 12d3 496E6A65 		.ascii	"InjectedChannelsNbr\000"
 7076      63746564 
 7076      4368616E 
 7076      6E656C73 
 7076      4E627200 
 7077              	.LASF306:
 7078 12e7 496E6A65 		.ascii	"InjectedParam\000"
 7078      63746564 
 7078      50617261 
 7078      6D00
 7079              	.LASF150:
 7080 12f5 43494652 		.ascii	"CIFR\000"
ARM GAS  /tmp/ccGf2LCS.s 			page 141


 7080      00
 7081              	.LASF273:
 7082 12fa 44465344 		.ascii	"DFSDM_Channel_InputTypeDef\000"
 7082      4D5F4368 
 7082      616E6E65 
 7082      6C5F496E 
 7082      70757454 
 7083              	.LASF175:
 7084 1315 41504232 		.ascii	"APB2SMENR\000"
 7084      534D454E 
 7084      5200
 7085              	.LASF45:
 7086 131f 53504932 		.ascii	"SPI2_IRQn\000"
 7086      5F495251 
 7086      6E00
 7087              	.LASF353:
 7088 1329 44465344 		.ascii	"DFSDMx_FilterMspDeInit\000"
 7088      4D785F46 
 7088      696C7465 
 7088      724D7370 
 7088      4465496E 
 7089              	.LASF286:
 7090 1340 44465344 		.ascii	"DFSDM_Channel_HandleTypeDef\000"
 7090      4D5F4368 
 7090      616E6E65 
 7090      6C5F4861 
 7090      6E646C65 
 7091              	.LASF24:
 7092 135c 444D4131 		.ascii	"DMA1_Channel5_IRQn\000"
 7092      5F436861 
 7092      6E6E656C 
 7092      355F4952 
 7092      516E00
 7093              	.LASF302:
 7094 136f 53696E63 		.ascii	"SincOrder\000"
 7094      4F726465 
 7094      7200
 7095              	.LASF289:
 7096 1379 48414C5F 		.ascii	"HAL_DFSDM_FILTER_STATE_REG\000"
 7096      44465344 
 7096      4D5F4649 
 7096      4C544552 
 7096      5F535441 
 7097              	.LASF72:
 7098 1394 44465344 		.ascii	"DFSDM1_FLT2_IRQn\000"
 7098      4D315F46 
 7098      4C54325F 
 7098      4952516E 
 7098      00
 7099              	.LASF367:
 7100 13a5 2E2E2F2E 		.ascii	"../../../../../Drivers/BSP/SensorTile/SensorTile_au"
 7100      2E2F2E2E 
 7100      2F2E2E2F 
 7100      2E2E2F44 
 7100      72697665 
 7101 13d8 64696F5F 		.ascii	"dio_in.c\000"
 7101      696E2E63 
ARM GAS  /tmp/ccGf2LCS.s 			page 142


 7101      00
 7102              	.LASF296:
 7103 13e1 446D614D 		.ascii	"DmaMode\000"
 7103      6F646500 
 7104              	.LASF90:
 7105 13e9 7369676E 		.ascii	"signed char\000"
 7105      65642063 
 7105      68617200 
 7106              	.LASF52:
 7107 13f5 54494D38 		.ascii	"TIM8_BRK_IRQn\000"
 7107      5F42524B 
 7107      5F495251 
 7107      6E00
 7108              	.LASF119:
 7109 1403 464C5441 		.ascii	"FLTAWCFR\000"
 7109      57434652 
 7109      00
 7110              	.LASF345:
 7111 140c 68646673 		.ascii	"hdfsdm_filter\000"
 7111      646D5F66 
 7111      696C7465 
 7111      7200
 7112              	.LASF95:
 7113 141a 73686F72 		.ascii	"short unsigned int\000"
 7113      7420756E 
 7113      7369676E 
 7113      65642069 
 7113      6E7400
 7114              	.LASF18:
 7115 142d 45585449 		.ascii	"EXTI3_IRQn\000"
 7115      335F4952 
 7115      516E00
 7116              	.LASF134:
 7117 1438 49464352 		.ascii	"IFCR\000"
 7117      00
 7118              	.LASF290:
 7119 143d 48414C5F 		.ascii	"HAL_DFSDM_FILTER_STATE_INJ\000"
 7119      44465344 
 7119      4D5F4649 
 7119      4C544552 
 7119      5F535441 
 7120              	.LASF1:
 7121 1458 48617264 		.ascii	"HardFault_IRQn\000"
 7121      4661756C 
 7121      745F4952 
 7121      516E00
 7122              	.LASF220:
 7123 1467 4C707469 		.ascii	"Lptim2ClockSelection\000"
 7123      6D32436C 
 7123      6F636B53 
 7123      656C6563 
 7123      74696F6E 
 7124              	.LASF46:
 7125 147c 55534152 		.ascii	"USART1_IRQn\000"
 7125      54315F49 
 7125      52516E00 
 7126              	.LASF242:
ARM GAS  /tmp/ccGf2LCS.s 			page 143


 7127 1488 5072696F 		.ascii	"Priority\000"
 7127      72697479 
 7127      00
 7128              	.LASF245:
 7129 1491 48414C5F 		.ascii	"HAL_DMA_STATE_READY\000"
 7129      444D415F 
 7129      53544154 
 7129      455F5245 
 7129      41445900 
 7130              	.LASF66:
 7131 14a5 444D4132 		.ascii	"DMA2_Channel2_IRQn\000"
 7131      5F436861 
 7131      6E6E656C 
 7131      325F4952 
 7131      516E00
 7132              	.LASF160:
 7133 14b8 52455345 		.ascii	"RESERVED2\000"
 7133      52564544 
 7133      3200
 7134              	.LASF362:
 7135 14c2 68646D61 		.ascii	"hdma_dfsdmReg_FLT\000"
 7135      5F646673 
 7135      646D5265 
 7135      675F464C 
 7135      5400
 7136              	.LASF168:
 7137 14d4 52455345 		.ascii	"RESERVED4\000"
 7137      52564544 
 7137      3400
 7138              	.LASF357:
 7139 14de 4253505F 		.ascii	"BSP_AUDIO_IN_TransferComplete_CallBack\000"
 7139      41554449 
 7139      4F5F494E 
 7139      5F547261 
 7139      6E736665 
 7140              	.LASF349:
 7141 1505 696E6465 		.ascii	"index\000"
 7141      7800
 7142              	.LASF293:
 7143 150b 48414C5F 		.ascii	"HAL_DFSDM_Filter_StateTypeDef\000"
 7143      44465344 
 7143      4D5F4669 
 7143      6C746572 
 7143      5F537461 
 7144              	.LASF48:
 7145 1529 55534152 		.ascii	"USART3_IRQn\000"
 7145      54335F49 
 7145      52516E00 
 7146              	.LASF280:
 7147 1535 4F757470 		.ascii	"OutputClock\000"
 7147      7574436C 
 7147      6F636B00 
 7148              	.LASF288:
 7149 1541 48414C5F 		.ascii	"HAL_DFSDM_FILTER_STATE_READY\000"
 7149      44465344 
 7149      4D5F4649 
 7149      4C544552 
ARM GAS  /tmp/ccGf2LCS.s 			page 144


 7149      5F535441 
 7150              	.LASF133:
 7151 155e 444D415F 		.ascii	"DMA_Channel_TypeDef\000"
 7151      4368616E 
 7151      6E656C5F 
 7151      54797065 
 7151      44656600 
 7152              	.LASF89:
 7153 1572 4650555F 		.ascii	"FPU_IRQn\000"
 7153      4952516E 
 7153      00
 7154              	.LASF170:
 7155 157b 41484232 		.ascii	"AHB2SMENR\000"
 7155      534D454E 
 7155      5200
 7156              	.LASF303:
 7157 1585 496E744F 		.ascii	"IntOversampling\000"
 7157      76657273 
 7157      616D706C 
 7157      696E6700 
 7158              	.LASF27:
 7159 1595 41444331 		.ascii	"ADC1_2_IRQn\000"
 7159      5F325F49 
 7159      52516E00 
 7160              	.LASF238:
 7161 15a1 50657269 		.ascii	"PeriphInc\000"
 7161      7068496E 
 7161      6300
 7162              	.LASF153:
 7163 15ab 41484231 		.ascii	"AHB1RSTR\000"
 7163      52535452 
 7163      00
 7164              	.LASF141:
 7165 15b4 4C434B52 		.ascii	"LCKR\000"
 7165      00
 7166              	.LASF331:
 7167 15b9 50617261 		.ascii	"Params\000"
 7167      6D7300
 7168              		.ident	"GCC: (GNU Tools for ARM Embedded Processors) 4.8.4 20140526 (release) [ARM/embedded-4_8-br
ARM GAS  /tmp/ccGf2LCS.s 			page 145


DEFINED SYMBOLS
                            *ABS*:00000000 SensorTile_audio_in.c
     /tmp/ccGf2LCS.s:19     .bss:00000000 $d
     /tmp/ccGf2LCS.s:20     .bss:00000000 SENSORTILE_AudioIn_Handler
                            *COM*:000000e0 haudio_in_dfsdmchannel
                            *COM*:00000150 haudio_in_dfsdmfilter
                            *COM*:00000120 hdma_dfsdmReg_FLT
                            *COM*:00000c00 RecBuff
     /tmp/ccGf2LCS.s:27     .data:00000000 $d
     /tmp/ccGf2LCS.s:30     .data:00000000 AudioInVolume
     /tmp/ccGf2LCS.s:33     .text:00000000 $t
     /tmp/ccGf2LCS.s:39     .text:00000000 BSP_AUDIO_IN_Init
     /tmp/ccGf2LCS.s:116    .text:00000050 BSP_AUDIO_IN_ClockConfig
     /tmp/ccGf2LCS.s:547    .text:00000270 DFSDMx_Init
     /tmp/ccGf2LCS.s:81     .text:00000034 $d
     /tmp/ccGf2LCS.s:85     .text:00000038 $t
     /tmp/ccGf2LCS.s:91     .text:00000040 BSP_AUDIO_IN_DeInit
     /tmp/ccGf2LCS.s:2481   .text:00000f40 DFSDMx_DeInit
     /tmp/ccGf2LCS.s:178    .text:000000a0 BSP_AUDIO_IN_Record
     /tmp/ccGf2LCS.s:259    .text:00000110 $d
     /tmp/ccGf2LCS.s:266    .text:00000120 $t
     /tmp/ccGf2LCS.s:272    .text:00000120 BSP_AUDIO_IN_Stop
     /tmp/ccGf2LCS.s:328    .text:00000164 $d
     /tmp/ccGf2LCS.s:333    .text:0000016c $t
     /tmp/ccGf2LCS.s:339    .text:00000170 BSP_AUDIO_IN_Pause
     /tmp/ccGf2LCS.s:395    .text:000001b4 $d
     /tmp/ccGf2LCS.s:400    .text:000001bc $t
     /tmp/ccGf2LCS.s:406    .text:000001c0 BSP_AUDIO_IN_Resume
     /tmp/ccGf2LCS.s:481    .text:00000228 $d
     /tmp/ccGf2LCS.s:488    .text:00000238 $t
     /tmp/ccGf2LCS.s:494    .text:00000240 BSP_AUDIO_IN_SetVolume
     /tmp/ccGf2LCS.s:520    .text:0000025c $d
     /tmp/ccGf2LCS.s:524    .text:00000260 $t
     /tmp/ccGf2LCS.s:530    .text:00000260 BSP_AUDIO_IN_Error_Callback
     /tmp/ccGf2LCS.s:2261   .text:00000dd0 DFSDMx_FilterMspInit
     /tmp/ccGf2LCS.s:1084   .text:000005e4 $d
     /tmp/ccGf2LCS.s:1094   .text:00000604 $t
     /tmp/ccGf2LCS.s:1496   .text:00000884 $d
     /tmp/ccGf2LCS.s:1508   .text:000008ac $t
     /tmp/ccGf2LCS.s:1919   .text:00000b60 $d
     /tmp/ccGf2LCS.s:1930   .text:00000b84 $t
     /tmp/ccGf2LCS.s:2243   .text:00000da4 $d
     /tmp/ccGf2LCS.s:2256   .text:00000dcc $t
     /tmp/ccGf2LCS.s:2460   .text:00000f00 $d
     /tmp/ccGf2LCS.s:2476   .text:00000f34 $t
     /tmp/ccGf2LCS.s:2628   .text:00001020 DFSDMx_FilterMspDeInit
     /tmp/ccGf2LCS.s:2583   .text:00000ff0 DFSDMx_ChannelMspDeInit
     /tmp/ccGf2LCS.s:2572   .text:00000fdc $d
     /tmp/ccGf2LCS.s:2578   .text:00000fe8 $t
     /tmp/ccGf2LCS.s:2618   .text:00001018 $d
     /tmp/ccGf2LCS.s:2623   .text:00001020 $t
     /tmp/ccGf2LCS.s:2696   .text:00001074 $d
     /tmp/ccGf2LCS.s:2707   .text:00001094 $t
     /tmp/ccGf2LCS.s:2713   .text:000010a0 HAL_DFSDM_FilterRegConvCpltCallback
     /tmp/ccGf2LCS.s:3153   .text:000013b0 BSP_AUDIO_IN_TransferComplete_CallBack
     /tmp/ccGf2LCS.s:2921   .text:0000120c $d
     /tmp/ccGf2LCS.s:2930   .text:00001224 $t
ARM GAS  /tmp/ccGf2LCS.s 			page 146


     /tmp/ccGf2LCS.s:2936   .text:00001230 HAL_DFSDM_FilterRegConvHalfCpltCallback
     /tmp/ccGf2LCS.s:3171   .text:000013c0 BSP_AUDIO_IN_HalfTransfer_CallBack
     /tmp/ccGf2LCS.s:3138   .text:00001390 $d
     /tmp/ccGf2LCS.s:3147   .text:000013a8 $t
                     .debug_frame:00000010 $d

UNDEFINED SYMBOLS
HAL_RCCEx_PeriphCLKConfig
HAL_DFSDM_FilterRegularStart_DMA
HAL_DFSDM_FilterRegularStop_DMA
HAL_DFSDM_ChannelGetState
HAL_GPIO_Init
HAL_DFSDM_ChannelInit
HAL_DFSDM_FilterGetState
HAL_DFSDM_FilterInit
HAL_DFSDM_FilterConfigRegChannel
HAL_DMA_Init
HAL_NVIC_SetPriority
HAL_NVIC_EnableIRQ
HAL_DFSDM_FilterDeInit
HAL_DFSDM_ChannelDeInit
HAL_GPIO_DeInit
HAL_DMA_DeInit
