ARM GAS  /tmp/ccNtBBEs.s 			page 1


   1              		.syntax unified
   2              		.cpu cortex-m4
   3              		.fpu softvfp
   4              		.eabi_attribute 20, 1
   5              		.eabi_attribute 21, 1
   6              		.eabi_attribute 23, 3
   7              		.eabi_attribute 24, 1
   8              		.eabi_attribute 25, 1
   9              		.eabi_attribute 26, 1
  10              		.eabi_attribute 30, 6
  11              		.eabi_attribute 34, 1
  12              		.eabi_attribute 18, 4
  13              		.thumb
  14              		.file	"sensor_service.c"
  15              		.text
  16              	.Ltext0:
  17              		.cfi_sections	.debug_frame
  18              		.global	connected
  19              		.bss
  20              		.align	2
  21              		.type	connected, %object
  22              		.size	connected, 4
  23              	connected:
  24 0000 00000000 		.space	4
  25              		.global	set_connectable
  26              		.data
  27              		.type	set_connectable, %object
  28              		.size	set_connectable, 1
  29              	set_connectable:
  30 0000 01       		.byte	1
  31              		.bss
  32              		.align	1
  33              	HWServW2STHandle:
  34 0004 0000     		.space	2
  35              		.align	1
  36              	EnvironmentalCharHandle:
  37 0006 0000     		.space	2
  38              		.align	1
  39              	AccGyroMagCharHandle:
  40 0008 0000     		.space	2
  41              		.align	1
  42              	AccEventCharHandle:
  43 000a 0000     		.space	2
  44              		.align	1
  45              	AudioLevelCharHandle:
  46 000c 0000     		.space	2
  47              		.align	1
  48              	GGCharHandle:
  49 000e 0000     		.space	2
  50              		.align	1
  51              	QuaternionsCharHandle:
  52 0010 0000     		.space	2
  53              		.align	1
  54              	ECompassCharHandle:
  55 0012 0000     		.space	2
  56              		.align	1
  57              	ActivityRecCharHandle:
ARM GAS  /tmp/ccNtBBEs.s 			page 2


  58 0014 0000     		.space	2
  59              		.align	1
  60              	CarryPosRecCharHandle:
  61 0016 0000     		.space	2
  62              		.align	1
  63              	GestureRecCharHandle:
  64 0018 0000     		.space	2
  65              		.comm	BLUEVOICE_tx_handle,6,4
  66              		.comm	BLUEVOICE_Char_uuids,48,4
  67              		.align	1
  68              	ConfigServW2STHandle:
  69 001a 0000     		.space	2
  70              		.align	1
  71              	ConfigCharHandle:
  72 001c 0000     		.space	2
  73              		.align	1
  74              	ConsoleW2STHandle:
  75 001e 0000     		.space	2
  76              		.align	1
  77              	TermCharHandle:
  78 0020 0000     		.space	2
  79              		.align	1
  80              	StdErrCharHandle:
  81 0022 0000     		.space	2
  82              		.align	2
  83              	LastStderrBuffer:
  84 0024 00000000 		.space	20
  84      00000000 
  84      00000000 
  84      00000000 
  84      00000000 
  85              	LastStderrLen:
  86 0038 00       		.space	1
  87 0039 000000   		.align	2
  88              	LastTermBuffer:
  89 003c 00000000 		.space	20
  89      00000000 
  89      00000000 
  89      00000000 
  89      00000000 
  90              	LastTermLen:
  91 0050 00       		.space	1
  92              		.data
  93              		.type	EnvironmentalCharSize, %object
  94              		.size	EnvironmentalCharSize, 1
  95              	EnvironmentalCharSize:
  96 0001 02       		.byte	2
  97              		.bss
  98 0051 000000   		.align	2
  99              	SizeOfUpdateBlueFW:
 100 0054 00000000 		.space	4
 101              		.align	1
 102              	connection_handle:
 103 0058 0000     		.space	2
 104 005a 0000     		.align	2
 105              	breath:
 106 005c 00000000 		.space	4
ARM GAS  /tmp/ccNtBBEs.s 			page 3


 107              		.text
 108              		.align	2
 109              		.p2align 4,,15
 110              		.global	safe_aci_gatt_update_char_value
 111              		.thumb
 112              		.thumb_func
 113              		.type	safe_aci_gatt_update_char_value, %function
 114              	safe_aci_gatt_update_char_value:
 115              	.LFB269:
 116              		.file 1 "../../../../../Projects/Multi/Applications/BlueMicrosystem2/Src/sensor_service.c"
 117              		.loc 1 209 0
 118              		.cfi_startproc
 119              		@ args = 4, pretend = 0, frame = 16
 120              		@ frame_needed = 0, uses_anonymous_args = 0
 121 0000 10B5     		push	{r4, lr}
 122              		.cfi_def_cfa_offset 8
 123              		.cfi_offset 4, -8
 124              		.cfi_offset 14, -4
 125 0002 86B0     		sub	sp, sp, #24
 126              		.cfi_def_cfa_offset 32
 127 0004 ADF80E00 		strh	r0, [sp, #14]	@ movhi
 128 0008 ADF80C10 		strh	r1, [sp, #12]	@ movhi
 129 000c 8DF80B20 		strb	r2, [sp, #11]
 130 0010 8DF80A30 		strb	r3, [sp, #10]
 131              		.loc 1 210 0
 132 0014 6423     		movs	r3, #100
 133 0016 8DF81730 		strb	r3, [sp, #23]
 134              		.loc 1 212 0
 135 001a 124B     		ldr	r3, .L5
 136 001c 1B68     		ldr	r3, [r3]
 137 001e 002B     		cmp	r3, #0
 138 0020 05DD     		ble	.L2
 139              		.loc 1 213 0
 140 0022 104B     		ldr	r3, .L5
 141 0024 1B68     		ldr	r3, [r3]
 142 0026 5A1E     		subs	r2, r3, #1
 143 0028 0E4B     		ldr	r3, .L5
 144 002a 1A60     		str	r2, [r3]
 145 002c 15E0     		b	.L3
 146              	.L2:
 147              		.loc 1 215 0
 148 002e BDF80E00 		ldrh	r0, [sp, #14]
 149 0032 BDF80C10 		ldrh	r1, [sp, #12]
 150 0036 9DF80B20 		ldrb	r2, [sp, #11]	@ zero_extendqisi2
 151 003a 9DF80A30 		ldrb	r3, [sp, #10]	@ zero_extendqisi2
 152 003e 089C     		ldr	r4, [sp, #32]
 153 0040 0094     		str	r4, [sp]
 154 0042 FFF7FEFF 		bl	aci_gatt_update_char_value
 155 0046 0346     		mov	r3, r0
 156 0048 8DF81730 		strb	r3, [sp, #23]
 157              		.loc 1 217 0
 158 004c 9DF81730 		ldrb	r3, [sp, #23]	@ zero_extendqisi2
 159 0050 002B     		cmp	r3, #0
 160 0052 02D0     		beq	.L3
 161              		.loc 1 218 0
 162 0054 034B     		ldr	r3, .L5
 163 0056 1E22     		movs	r2, #30
ARM GAS  /tmp/ccNtBBEs.s 			page 4


 164 0058 1A60     		str	r2, [r3]
 165              	.L3:
 166              		.loc 1 222 0
 167 005a 9DF81730 		ldrb	r3, [sp, #23]	@ zero_extendqisi2
 168              		.loc 1 223 0
 169 005e 1846     		mov	r0, r3
 170 0060 06B0     		add	sp, sp, #24
 171              		@ sp needed
 172 0062 10BD     		pop	{r4, pc}
 173              	.L6:
 174              		.align	2
 175              	.L5:
 176 0064 5C000000 		.word	breath
 177              		.cfi_endproc
 178              	.LFE269:
 179              		.size	safe_aci_gatt_update_char_value, .-safe_aci_gatt_update_char_value
 180              		.align	2
 181 0068 AFF30080 		.p2align 4,,15
 181      AFF30080 
 182              		.global	Add_ConfigW2ST_Service
 183              		.thumb
 184              		.thumb_func
 185              		.type	Add_ConfigW2ST_Service, %function
 186              	Add_ConfigW2ST_Service:
 187              	.LFB270:
 188              		.loc 1 236 0
 189              		.cfi_startproc
 190              		@ args = 0, pretend = 0, frame = 24
 191              		@ frame_needed = 0, uses_anonymous_args = 0
 192 0070 00B5     		push	{lr}
 193              		.cfi_def_cfa_offset 4
 194              		.cfi_offset 14, -4
 195 0072 8DB0     		sub	sp, sp, #52
 196              		.cfi_def_cfa_offset 56
 197              		.loc 1 241 0
 198 0074 1B23     		movs	r3, #27
 199 0076 8DF81C30 		strb	r3, [sp, #28]
 200 007a C523     		movs	r3, #197
 201 007c 8DF81D30 		strb	r3, [sp, #29]
 202 0080 D523     		movs	r3, #213
 203 0082 8DF81E30 		strb	r3, [sp, #30]
 204 0086 A523     		movs	r3, #165
 205 0088 8DF81F30 		strb	r3, [sp, #31]
 206 008c 0223     		movs	r3, #2
 207 008e 8DF82030 		strb	r3, [sp, #32]
 208 0092 0023     		movs	r3, #0
 209 0094 8DF82130 		strb	r3, [sp, #33]
 210 0098 B423     		movs	r3, #180
 211 009a 8DF82230 		strb	r3, [sp, #34]
 212 009e 9A23     		movs	r3, #154
 213 00a0 8DF82330 		strb	r3, [sp, #35]
 214 00a4 E123     		movs	r3, #225
 215 00a6 8DF82430 		strb	r3, [sp, #36]
 216 00aa 1123     		movs	r3, #17
 217 00ac 8DF82530 		strb	r3, [sp, #37]
 218 00b0 0F23     		movs	r3, #15
 219 00b2 8DF82630 		strb	r3, [sp, #38]
ARM GAS  /tmp/ccNtBBEs.s 			page 5


 220 00b6 0023     		movs	r3, #0
 221 00b8 8DF82730 		strb	r3, [sp, #39]
 222 00bc 0023     		movs	r3, #0
 223 00be 8DF82830 		strb	r3, [sp, #40]
 224 00c2 0023     		movs	r3, #0
 225 00c4 8DF82930 		strb	r3, [sp, #41]
 226 00c8 0023     		movs	r3, #0
 227 00ca 8DF82A30 		strb	r3, [sp, #42]
 228 00ce 0023     		movs	r3, #0
 229 00d0 8DF82B30 		strb	r3, [sp, #43]
 230              		.loc 1 242 0
 231 00d4 07AB     		add	r3, sp, #28
 232 00d6 324A     		ldr	r2, .L13
 233 00d8 0092     		str	r2, [sp]
 234 00da 0220     		movs	r0, #2
 235 00dc 1946     		mov	r1, r3
 236 00de 0122     		movs	r2, #1
 237 00e0 0423     		movs	r3, #4
 238 00e2 FFF7FEFF 		bl	aci_gatt_add_serv
 239 00e6 0346     		mov	r3, r0
 240 00e8 8DF82F30 		strb	r3, [sp, #47]
 241              		.loc 1 244 0
 242 00ec 9DF82F30 		ldrb	r3, [sp, #47]	@ zero_extendqisi2
 243 00f0 002B     		cmp	r3, #0
 244 00f2 00D0     		beq	.L8
 245              		.loc 1 245 0
 246 00f4 4EE0     		b	.L9
 247              	.L8:
 248              		.loc 1 247 0
 249 00f6 1B23     		movs	r3, #27
 250 00f8 8DF81C30 		strb	r3, [sp, #28]
 251 00fc C523     		movs	r3, #197
 252 00fe 8DF81D30 		strb	r3, [sp, #29]
 253 0102 D523     		movs	r3, #213
 254 0104 8DF81E30 		strb	r3, [sp, #30]
 255 0108 A523     		movs	r3, #165
 256 010a 8DF81F30 		strb	r3, [sp, #31]
 257 010e 0223     		movs	r3, #2
 258 0110 8DF82030 		strb	r3, [sp, #32]
 259 0114 0023     		movs	r3, #0
 260 0116 8DF82130 		strb	r3, [sp, #33]
 261 011a 3623     		movs	r3, #54
 262 011c 8DF82230 		strb	r3, [sp, #34]
 263 0120 AC23     		movs	r3, #172
 264 0122 8DF82330 		strb	r3, [sp, #35]
 265 0126 E123     		movs	r3, #225
 266 0128 8DF82430 		strb	r3, [sp, #36]
 267 012c 1123     		movs	r3, #17
 268 012e 8DF82530 		strb	r3, [sp, #37]
 269 0132 0F23     		movs	r3, #15
 270 0134 8DF82630 		strb	r3, [sp, #38]
 271 0138 0023     		movs	r3, #0
 272 013a 8DF82730 		strb	r3, [sp, #39]
 273 013e 0223     		movs	r3, #2
 274 0140 8DF82830 		strb	r3, [sp, #40]
 275 0144 0023     		movs	r3, #0
 276 0146 8DF82930 		strb	r3, [sp, #41]
ARM GAS  /tmp/ccNtBBEs.s 			page 6


 277 014a 0023     		movs	r3, #0
 278 014c 8DF82A30 		strb	r3, [sp, #42]
 279 0150 0023     		movs	r3, #0
 280 0152 8DF82B30 		strb	r3, [sp, #43]
 281              		.loc 1 248 0
 282 0156 124B     		ldr	r3, .L13
 283 0158 1A88     		ldrh	r2, [r3]
 284 015a 07AB     		add	r3, sp, #28
 285 015c 1421     		movs	r1, #20
 286 015e 0091     		str	r1, [sp]
 287 0160 0021     		movs	r1, #0
 288 0162 0191     		str	r1, [sp, #4]
 289 0164 0521     		movs	r1, #5
 290 0166 0291     		str	r1, [sp, #8]
 291 0168 1021     		movs	r1, #16
 292 016a 0391     		str	r1, [sp, #12]
 293 016c 0121     		movs	r1, #1
 294 016e 0491     		str	r1, [sp, #16]
 295 0170 0C49     		ldr	r1, .L13+4
 296 0172 0591     		str	r1, [sp, #20]
 297 0174 1046     		mov	r0, r2
 298 0176 0221     		movs	r1, #2
 299 0178 1A46     		mov	r2, r3
 300 017a 1423     		movs	r3, #20
 301 017c FFF7FEFF 		bl	aci_gatt_add_char
 302 0180 0346     		mov	r3, r0
 303 0182 8DF82F30 		strb	r3, [sp, #47]
 304              		.loc 1 254 0
 305 0186 9DF82F30 		ldrb	r3, [sp, #47]	@ zero_extendqisi2
 306 018a 002B     		cmp	r3, #0
 307 018c 00D0     		beq	.L10
 308              		.loc 1 255 0
 309 018e 01E0     		b	.L9
 310              	.L10:
 311              		.loc 1 258 0
 312 0190 0023     		movs	r3, #0
 313 0192 00E0     		b	.L12
 314              	.L9:
 315              		.loc 1 262 0
 316 0194 4723     		movs	r3, #71
 317              	.L12:
 318              		.loc 1 263 0
 319 0196 1846     		mov	r0, r3
 320 0198 0DB0     		add	sp, sp, #52
 321              		@ sp needed
 322 019a 5DF804FB 		ldr	pc, [sp], #4
 323              	.L14:
 324 019e 00BF     		.align	2
 325              	.L13:
 326 01a0 1A000000 		.word	ConfigServW2STHandle
 327 01a4 1C000000 		.word	ConfigCharHandle
 328              		.cfi_endproc
 329              	.LFE270:
 330              		.size	Add_ConfigW2ST_Service, .-Add_ConfigW2ST_Service
 331              		.align	2
 332 01a8 AFF30080 		.p2align 4,,15
 332      AFF30080 
ARM GAS  /tmp/ccNtBBEs.s 			page 7


 333              		.global	Add_ConsoleW2ST_Service
 334              		.thumb
 335              		.thumb_func
 336              		.type	Add_ConsoleW2ST_Service, %function
 337              	Add_ConsoleW2ST_Service:
 338              	.LFB271:
 339              		.loc 1 272 0
 340              		.cfi_startproc
 341              		@ args = 0, pretend = 0, frame = 24
 342              		@ frame_needed = 0, uses_anonymous_args = 0
 343 01b0 00B5     		push	{lr}
 344              		.cfi_def_cfa_offset 4
 345              		.cfi_offset 14, -4
 346 01b2 8DB0     		sub	sp, sp, #52
 347              		.cfi_def_cfa_offset 56
 348              		.loc 1 277 0
 349 01b4 1B23     		movs	r3, #27
 350 01b6 8DF81C30 		strb	r3, [sp, #28]
 351 01ba C523     		movs	r3, #197
 352 01bc 8DF81D30 		strb	r3, [sp, #29]
 353 01c0 D523     		movs	r3, #213
 354 01c2 8DF81E30 		strb	r3, [sp, #30]
 355 01c6 A523     		movs	r3, #165
 356 01c8 8DF81F30 		strb	r3, [sp, #31]
 357 01cc 0223     		movs	r3, #2
 358 01ce 8DF82030 		strb	r3, [sp, #32]
 359 01d2 0023     		movs	r3, #0
 360 01d4 8DF82130 		strb	r3, [sp, #33]
 361 01d8 B423     		movs	r3, #180
 362 01da 8DF82230 		strb	r3, [sp, #34]
 363 01de 9A23     		movs	r3, #154
 364 01e0 8DF82330 		strb	r3, [sp, #35]
 365 01e4 E123     		movs	r3, #225
 366 01e6 8DF82430 		strb	r3, [sp, #36]
 367 01ea 1123     		movs	r3, #17
 368 01ec 8DF82530 		strb	r3, [sp, #37]
 369 01f0 0E23     		movs	r3, #14
 370 01f2 8DF82630 		strb	r3, [sp, #38]
 371 01f6 0023     		movs	r3, #0
 372 01f8 8DF82730 		strb	r3, [sp, #39]
 373 01fc 0023     		movs	r3, #0
 374 01fe 8DF82830 		strb	r3, [sp, #40]
 375 0202 0023     		movs	r3, #0
 376 0204 8DF82930 		strb	r3, [sp, #41]
 377 0208 0023     		movs	r3, #0
 378 020a 8DF82A30 		strb	r3, [sp, #42]
 379 020e 0023     		movs	r3, #0
 380 0210 8DF82B30 		strb	r3, [sp, #43]
 381              		.loc 1 278 0
 382 0214 07AB     		add	r3, sp, #28
 383 0216 584A     		ldr	r2, .L22
 384 0218 0092     		str	r2, [sp]
 385 021a 0220     		movs	r0, #2
 386 021c 1946     		mov	r1, r3
 387 021e 0122     		movs	r2, #1
 388 0220 0723     		movs	r3, #7
 389 0222 FFF7FEFF 		bl	aci_gatt_add_serv
ARM GAS  /tmp/ccNtBBEs.s 			page 8


 390 0226 0346     		mov	r3, r0
 391 0228 8DF82F30 		strb	r3, [sp, #47]
 392              		.loc 1 280 0
 393 022c 9DF82F30 		ldrb	r3, [sp, #47]	@ zero_extendqisi2
 394 0230 002B     		cmp	r3, #0
 395 0232 00D0     		beq	.L16
 396              		.loc 1 281 0
 397 0234 9BE0     		b	.L17
 398              	.L16:
 399              		.loc 1 284 0
 400 0236 1B23     		movs	r3, #27
 401 0238 8DF81C30 		strb	r3, [sp, #28]
 402 023c C523     		movs	r3, #197
 403 023e 8DF81D30 		strb	r3, [sp, #29]
 404 0242 D523     		movs	r3, #213
 405 0244 8DF81E30 		strb	r3, [sp, #30]
 406 0248 A523     		movs	r3, #165
 407 024a 8DF81F30 		strb	r3, [sp, #31]
 408 024e 0223     		movs	r3, #2
 409 0250 8DF82030 		strb	r3, [sp, #32]
 410 0254 0023     		movs	r3, #0
 411 0256 8DF82130 		strb	r3, [sp, #33]
 412 025a 3623     		movs	r3, #54
 413 025c 8DF82230 		strb	r3, [sp, #34]
 414 0260 AC23     		movs	r3, #172
 415 0262 8DF82330 		strb	r3, [sp, #35]
 416 0266 E123     		movs	r3, #225
 417 0268 8DF82430 		strb	r3, [sp, #36]
 418 026c 1123     		movs	r3, #17
 419 026e 8DF82530 		strb	r3, [sp, #37]
 420 0272 0E23     		movs	r3, #14
 421 0274 8DF82630 		strb	r3, [sp, #38]
 422 0278 0023     		movs	r3, #0
 423 027a 8DF82730 		strb	r3, [sp, #39]
 424 027e 0123     		movs	r3, #1
 425 0280 8DF82830 		strb	r3, [sp, #40]
 426 0284 0023     		movs	r3, #0
 427 0286 8DF82930 		strb	r3, [sp, #41]
 428 028a 0023     		movs	r3, #0
 429 028c 8DF82A30 		strb	r3, [sp, #42]
 430 0290 0023     		movs	r3, #0
 431 0292 8DF82B30 		strb	r3, [sp, #43]
 432              		.loc 1 285 0
 433 0296 384B     		ldr	r3, .L22
 434 0298 1A88     		ldrh	r2, [r3]
 435 029a 07AB     		add	r3, sp, #28
 436 029c 1E21     		movs	r1, #30
 437 029e 0091     		str	r1, [sp]
 438 02a0 0021     		movs	r1, #0
 439 02a2 0191     		str	r1, [sp, #4]
 440 02a4 0521     		movs	r1, #5
 441 02a6 0291     		str	r1, [sp, #8]
 442 02a8 1021     		movs	r1, #16
 443 02aa 0391     		str	r1, [sp, #12]
 444 02ac 0121     		movs	r1, #1
 445 02ae 0491     		str	r1, [sp, #16]
 446 02b0 3249     		ldr	r1, .L22+4
ARM GAS  /tmp/ccNtBBEs.s 			page 9


 447 02b2 0591     		str	r1, [sp, #20]
 448 02b4 1046     		mov	r0, r2
 449 02b6 0221     		movs	r1, #2
 450 02b8 1A46     		mov	r2, r3
 451 02ba 1423     		movs	r3, #20
 452 02bc FFF7FEFF 		bl	aci_gatt_add_char
 453 02c0 0346     		mov	r3, r0
 454 02c2 8DF82F30 		strb	r3, [sp, #47]
 455              		.loc 1 291 0
 456 02c6 9DF82F30 		ldrb	r3, [sp, #47]	@ zero_extendqisi2
 457 02ca 002B     		cmp	r3, #0
 458 02cc 00D0     		beq	.L18
 459              		.loc 1 292 0
 460 02ce 4EE0     		b	.L17
 461              	.L18:
 462              		.loc 1 295 0
 463 02d0 1B23     		movs	r3, #27
 464 02d2 8DF81C30 		strb	r3, [sp, #28]
 465 02d6 C523     		movs	r3, #197
 466 02d8 8DF81D30 		strb	r3, [sp, #29]
 467 02dc D523     		movs	r3, #213
 468 02de 8DF81E30 		strb	r3, [sp, #30]
 469 02e2 A523     		movs	r3, #165
 470 02e4 8DF81F30 		strb	r3, [sp, #31]
 471 02e8 0223     		movs	r3, #2
 472 02ea 8DF82030 		strb	r3, [sp, #32]
 473 02ee 0023     		movs	r3, #0
 474 02f0 8DF82130 		strb	r3, [sp, #33]
 475 02f4 3623     		movs	r3, #54
 476 02f6 8DF82230 		strb	r3, [sp, #34]
 477 02fa AC23     		movs	r3, #172
 478 02fc 8DF82330 		strb	r3, [sp, #35]
 479 0300 E123     		movs	r3, #225
 480 0302 8DF82430 		strb	r3, [sp, #36]
 481 0306 1123     		movs	r3, #17
 482 0308 8DF82530 		strb	r3, [sp, #37]
 483 030c 0E23     		movs	r3, #14
 484 030e 8DF82630 		strb	r3, [sp, #38]
 485 0312 0023     		movs	r3, #0
 486 0314 8DF82730 		strb	r3, [sp, #39]
 487 0318 0223     		movs	r3, #2
 488 031a 8DF82830 		strb	r3, [sp, #40]
 489 031e 0023     		movs	r3, #0
 490 0320 8DF82930 		strb	r3, [sp, #41]
 491 0324 0023     		movs	r3, #0
 492 0326 8DF82A30 		strb	r3, [sp, #42]
 493 032a 0023     		movs	r3, #0
 494 032c 8DF82B30 		strb	r3, [sp, #43]
 495              		.loc 1 296 0
 496 0330 114B     		ldr	r3, .L22
 497 0332 1A88     		ldrh	r2, [r3]
 498 0334 07AB     		add	r3, sp, #28
 499 0336 1221     		movs	r1, #18
 500 0338 0091     		str	r1, [sp]
 501 033a 0021     		movs	r1, #0
 502 033c 0191     		str	r1, [sp, #4]
 503 033e 0421     		movs	r1, #4
ARM GAS  /tmp/ccNtBBEs.s 			page 10


 504 0340 0291     		str	r1, [sp, #8]
 505 0342 1021     		movs	r1, #16
 506 0344 0391     		str	r1, [sp, #12]
 507 0346 0121     		movs	r1, #1
 508 0348 0491     		str	r1, [sp, #16]
 509 034a 0D49     		ldr	r1, .L22+8
 510 034c 0591     		str	r1, [sp, #20]
 511 034e 1046     		mov	r0, r2
 512 0350 0221     		movs	r1, #2
 513 0352 1A46     		mov	r2, r3
 514 0354 1423     		movs	r3, #20
 515 0356 FFF7FEFF 		bl	aci_gatt_add_char
 516 035a 0346     		mov	r3, r0
 517 035c 8DF82F30 		strb	r3, [sp, #47]
 518              		.loc 1 302 0
 519 0360 9DF82F30 		ldrb	r3, [sp, #47]	@ zero_extendqisi2
 520 0364 002B     		cmp	r3, #0
 521 0366 00D0     		beq	.L19
 522              		.loc 1 303 0
 523 0368 01E0     		b	.L17
 524              	.L19:
 525              		.loc 1 306 0
 526 036a 0023     		movs	r3, #0
 527 036c 00E0     		b	.L21
 528              	.L17:
 529              		.loc 1 310 0
 530 036e 4723     		movs	r3, #71
 531              	.L21:
 532              		.loc 1 311 0
 533 0370 1846     		mov	r0, r3
 534 0372 0DB0     		add	sp, sp, #52
 535              		@ sp needed
 536 0374 5DF804FB 		ldr	pc, [sp], #4
 537              	.L23:
 538              		.align	2
 539              	.L22:
 540 0378 1E000000 		.word	ConsoleW2STHandle
 541 037c 20000000 		.word	TermCharHandle
 542 0380 22000000 		.word	StdErrCharHandle
 543              		.cfi_endproc
 544              	.LFE271:
 545              		.size	Add_ConsoleW2ST_Service, .-Add_ConsoleW2ST_Service
 546              		.align	2
 547 0384 AFF30080 		.p2align 4,,15
 547      AFF30080 
 547      AFF30080 
 548              		.global	Stderr_Update
 549              		.thumb
 550              		.thumb_func
 551              		.type	Stderr_Update, %function
 552              	Stderr_Update:
 553              	.LFB272:
 554              		.loc 1 320 0
 555              		.cfi_startproc
 556              		@ args = 0, pretend = 0, frame = 16
 557              		@ frame_needed = 0, uses_anonymous_args = 0
 558 0390 00B5     		push	{lr}
ARM GAS  /tmp/ccNtBBEs.s 			page 11


 559              		.cfi_def_cfa_offset 4
 560              		.cfi_offset 14, -4
 561 0392 87B0     		sub	sp, sp, #28
 562              		.cfi_def_cfa_offset 32
 563 0394 0390     		str	r0, [sp, #12]
 564 0396 0B46     		mov	r3, r1
 565 0398 8DF80B30 		strb	r3, [sp, #11]
 566              		.loc 1 326 0
 567 039c 0023     		movs	r3, #0
 568 039e 8DF81730 		strb	r3, [sp, #23]
 569 03a2 3DE0     		b	.L25
 570              	.L28:
 571              		.loc 1 327 0
 572 03a4 9DF80B20 		ldrb	r2, [sp, #11]
 573 03a8 9DF81730 		ldrb	r3, [sp, #23]
 574 03ac D31A     		subs	r3, r2, r3
 575 03ae 8DF81630 		strb	r3, [sp, #22]
 576              		.loc 1 328 0
 577 03b2 9DF81630 		ldrb	r3, [sp, #22]	@ zero_extendqisi2
 578 03b6 142B     		cmp	r3, #20
 579 03b8 28BF     		it	cs
 580 03ba 1423     		movcs	r3, #20
 581 03bc 8DF81630 		strb	r3, [sp, #22]
 582              		.loc 1 331 0
 583 03c0 9DF81730 		ldrb	r3, [sp, #23]	@ zero_extendqisi2
 584 03c4 039A     		ldr	r2, [sp, #12]
 585 03c6 1A44     		add	r2, r2, r3
 586 03c8 9DF81630 		ldrb	r3, [sp, #22]	@ zero_extendqisi2
 587 03cc 1A48     		ldr	r0, .L29
 588 03ce 1146     		mov	r1, r2
 589 03d0 1A46     		mov	r2, r3
 590 03d2 FFF7FEFF 		bl	memcpy
 591              		.loc 1 332 0
 592 03d6 194B     		ldr	r3, .L29+4
 593 03d8 9DF81620 		ldrb	r2, [sp, #22]
 594 03dc 1A70     		strb	r2, [r3]
 595              		.loc 1 334 0
 596 03de 184B     		ldr	r3, .L29+8
 597 03e0 1988     		ldrh	r1, [r3]
 598 03e2 184B     		ldr	r3, .L29+12
 599 03e4 1A88     		ldrh	r2, [r3]
 600 03e6 9DF81730 		ldrb	r3, [sp, #23]	@ zero_extendqisi2
 601 03ea 0398     		ldr	r0, [sp, #12]
 602 03ec 1844     		add	r0, r0, r3
 603 03ee 9DF81630 		ldrb	r3, [sp, #22]	@ zero_extendqisi2
 604 03f2 0090     		str	r0, [sp]
 605 03f4 0846     		mov	r0, r1
 606 03f6 1146     		mov	r1, r2
 607 03f8 0022     		movs	r2, #0
 608 03fa FFF7FEFF 		bl	aci_gatt_update_char_value
 609 03fe 0346     		mov	r3, r0
 610 0400 8DF81530 		strb	r3, [sp, #21]
 611              		.loc 1 335 0
 612 0404 9DF81530 		ldrb	r3, [sp, #21]	@ zero_extendqisi2
 613 0408 002B     		cmp	r3, #0
 614 040a 01D0     		beq	.L26
 615              		.loc 1 336 0
ARM GAS  /tmp/ccNtBBEs.s 			page 12


 616 040c 4723     		movs	r3, #71
 617 040e 0EE0     		b	.L27
 618              	.L26:
 619              		.loc 1 338 0
 620 0410 0A20     		movs	r0, #10
 621 0412 FFF7FEFF 		bl	HAL_Delay
 622              		.loc 1 326 0
 623 0416 9DF81730 		ldrb	r3, [sp, #23]
 624 041a 1433     		adds	r3, r3, #20
 625 041c 8DF81730 		strb	r3, [sp, #23]
 626              	.L25:
 627              		.loc 1 326 0 is_stmt 0 discriminator 1
 628 0420 9DF81720 		ldrb	r2, [sp, #23]	@ zero_extendqisi2
 629 0424 9DF80B30 		ldrb	r3, [sp, #11]	@ zero_extendqisi2
 630 0428 9A42     		cmp	r2, r3
 631 042a BBD3     		bcc	.L28
 632              		.loc 1 341 0 is_stmt 1
 633 042c 0023     		movs	r3, #0
 634              	.L27:
 635              		.loc 1 342 0
 636 042e 1846     		mov	r0, r3
 637 0430 07B0     		add	sp, sp, #28
 638              		@ sp needed
 639 0432 5DF804FB 		ldr	pc, [sp], #4
 640              	.L30:
 641 0436 00BF     		.align	2
 642              	.L29:
 643 0438 24000000 		.word	LastStderrBuffer
 644 043c 38000000 		.word	LastStderrLen
 645 0440 1E000000 		.word	ConsoleW2STHandle
 646 0444 22000000 		.word	StdErrCharHandle
 647              		.cfi_endproc
 648              	.LFE272:
 649              		.size	Stderr_Update, .-Stderr_Update
 650              		.align	2
 651 0448 AFF30080 		.p2align 4,,15
 651      AFF30080 
 652              		.global	Term_Update
 653              		.thumb
 654              		.thumb_func
 655              		.type	Term_Update, %function
 656              	Term_Update:
 657              	.LFB273:
 658              		.loc 1 351 0
 659              		.cfi_startproc
 660              		@ args = 0, pretend = 0, frame = 16
 661              		@ frame_needed = 0, uses_anonymous_args = 0
 662 0450 00B5     		push	{lr}
 663              		.cfi_def_cfa_offset 4
 664              		.cfi_offset 14, -4
 665 0452 87B0     		sub	sp, sp, #28
 666              		.cfi_def_cfa_offset 32
 667 0454 0390     		str	r0, [sp, #12]
 668 0456 0B46     		mov	r3, r1
 669 0458 8DF80B30 		strb	r3, [sp, #11]
 670              		.loc 1 357 0
 671 045c 0023     		movs	r3, #0
ARM GAS  /tmp/ccNtBBEs.s 			page 13


 672 045e 8DF81730 		strb	r3, [sp, #23]
 673 0462 3DE0     		b	.L32
 674              	.L35:
 675              		.loc 1 358 0
 676 0464 9DF80B20 		ldrb	r2, [sp, #11]
 677 0468 9DF81730 		ldrb	r3, [sp, #23]
 678 046c D31A     		subs	r3, r2, r3
 679 046e 8DF81630 		strb	r3, [sp, #22]
 680              		.loc 1 359 0
 681 0472 9DF81630 		ldrb	r3, [sp, #22]	@ zero_extendqisi2
 682 0476 142B     		cmp	r3, #20
 683 0478 28BF     		it	cs
 684 047a 1423     		movcs	r3, #20
 685 047c 8DF81630 		strb	r3, [sp, #22]
 686              		.loc 1 362 0
 687 0480 9DF81730 		ldrb	r3, [sp, #23]	@ zero_extendqisi2
 688 0484 039A     		ldr	r2, [sp, #12]
 689 0486 1A44     		add	r2, r2, r3
 690 0488 9DF81630 		ldrb	r3, [sp, #22]	@ zero_extendqisi2
 691 048c 1A48     		ldr	r0, .L36
 692 048e 1146     		mov	r1, r2
 693 0490 1A46     		mov	r2, r3
 694 0492 FFF7FEFF 		bl	memcpy
 695              		.loc 1 363 0
 696 0496 194B     		ldr	r3, .L36+4
 697 0498 9DF81620 		ldrb	r2, [sp, #22]
 698 049c 1A70     		strb	r2, [r3]
 699              		.loc 1 365 0
 700 049e 184B     		ldr	r3, .L36+8
 701 04a0 1988     		ldrh	r1, [r3]
 702 04a2 184B     		ldr	r3, .L36+12
 703 04a4 1A88     		ldrh	r2, [r3]
 704 04a6 9DF81730 		ldrb	r3, [sp, #23]	@ zero_extendqisi2
 705 04aa 0398     		ldr	r0, [sp, #12]
 706 04ac 1844     		add	r0, r0, r3
 707 04ae 9DF81630 		ldrb	r3, [sp, #22]	@ zero_extendqisi2
 708 04b2 0090     		str	r0, [sp]
 709 04b4 0846     		mov	r0, r1
 710 04b6 1146     		mov	r1, r2
 711 04b8 0022     		movs	r2, #0
 712 04ba FFF7FEFF 		bl	aci_gatt_update_char_value
 713 04be 0346     		mov	r3, r0
 714 04c0 8DF81530 		strb	r3, [sp, #21]
 715              		.loc 1 366 0
 716 04c4 9DF81530 		ldrb	r3, [sp, #21]	@ zero_extendqisi2
 717 04c8 002B     		cmp	r3, #0
 718 04ca 01D0     		beq	.L33
 719              		.loc 1 368 0
 720 04cc 4723     		movs	r3, #71
 721 04ce 0EE0     		b	.L34
 722              	.L33:
 723              		.loc 1 370 0
 724 04d0 1420     		movs	r0, #20
 725 04d2 FFF7FEFF 		bl	HAL_Delay
 726              		.loc 1 357 0
 727 04d6 9DF81730 		ldrb	r3, [sp, #23]
 728 04da 1433     		adds	r3, r3, #20
ARM GAS  /tmp/ccNtBBEs.s 			page 14


 729 04dc 8DF81730 		strb	r3, [sp, #23]
 730              	.L32:
 731              		.loc 1 357 0 is_stmt 0 discriminator 1
 732 04e0 9DF81720 		ldrb	r2, [sp, #23]	@ zero_extendqisi2
 733 04e4 9DF80B30 		ldrb	r3, [sp, #11]	@ zero_extendqisi2
 734 04e8 9A42     		cmp	r2, r3
 735 04ea BBD3     		bcc	.L35
 736              		.loc 1 373 0 is_stmt 1
 737 04ec 0023     		movs	r3, #0
 738              	.L34:
 739              		.loc 1 374 0
 740 04ee 1846     		mov	r0, r3
 741 04f0 07B0     		add	sp, sp, #28
 742              		@ sp needed
 743 04f2 5DF804FB 		ldr	pc, [sp], #4
 744              	.L37:
 745 04f6 00BF     		.align	2
 746              	.L36:
 747 04f8 3C000000 		.word	LastTermBuffer
 748 04fc 50000000 		.word	LastTermLen
 749 0500 1E000000 		.word	ConsoleW2STHandle
 750 0504 20000000 		.word	TermCharHandle
 751              		.cfi_endproc
 752              	.LFE273:
 753              		.size	Term_Update, .-Term_Update
 754              		.align	2
 755 0508 AFF30080 		.p2align 4,,15
 755      AFF30080 
 756              		.thumb
 757              		.thumb_func
 758              		.type	Stderr_Update_AfterRead, %function
 759              	Stderr_Update_AfterRead:
 760              	.LFB274:
 761              		.loc 1 382 0
 762              		.cfi_startproc
 763              		@ args = 0, pretend = 0, frame = 8
 764              		@ frame_needed = 0, uses_anonymous_args = 0
 765 0510 00B5     		push	{lr}
 766              		.cfi_def_cfa_offset 4
 767              		.cfi_offset 14, -4
 768 0512 85B0     		sub	sp, sp, #20
 769              		.cfi_def_cfa_offset 24
 770              		.loc 1 385 0
 771 0514 0D4B     		ldr	r3, .L41
 772 0516 1988     		ldrh	r1, [r3]
 773 0518 0D4B     		ldr	r3, .L41+4
 774 051a 1A88     		ldrh	r2, [r3]
 775 051c 0D4B     		ldr	r3, .L41+8
 776 051e 1B78     		ldrb	r3, [r3]	@ zero_extendqisi2
 777 0520 0D48     		ldr	r0, .L41+12
 778 0522 0090     		str	r0, [sp]
 779 0524 0846     		mov	r0, r1
 780 0526 1146     		mov	r1, r2
 781 0528 0022     		movs	r2, #0
 782 052a FFF7FEFF 		bl	aci_gatt_update_char_value
 783 052e 0346     		mov	r3, r0
 784 0530 8DF80F30 		strb	r3, [sp, #15]
ARM GAS  /tmp/ccNtBBEs.s 			page 15


 785              		.loc 1 386 0
 786 0534 9DF80F30 		ldrb	r3, [sp, #15]	@ zero_extendqisi2
 787 0538 002B     		cmp	r3, #0
 788 053a 01D0     		beq	.L39
 789              		.loc 1 387 0
 790 053c 4723     		movs	r3, #71
 791 053e 00E0     		b	.L40
 792              	.L39:
 793              		.loc 1 390 0
 794 0540 0023     		movs	r3, #0
 795              	.L40:
 796              		.loc 1 391 0
 797 0542 1846     		mov	r0, r3
 798 0544 05B0     		add	sp, sp, #20
 799              		@ sp needed
 800 0546 5DF804FB 		ldr	pc, [sp], #4
 801              	.L42:
 802 054a 00BF     		.align	2
 803              	.L41:
 804 054c 1E000000 		.word	ConsoleW2STHandle
 805 0550 22000000 		.word	StdErrCharHandle
 806 0554 38000000 		.word	LastStderrLen
 807 0558 24000000 		.word	LastStderrBuffer
 808              		.cfi_endproc
 809              	.LFE274:
 810              		.size	Stderr_Update_AfterRead, .-Stderr_Update_AfterRead
 811              		.section	.rodata
 812              		.align	2
 813              	.LC2:
 814 0000 4572726F 		.ascii	"Error Updating Stdout Char\015\012\000"
 814      72205570 
 814      64617469 
 814      6E672053 
 814      74646F75 
 815              		.text
 816              		.align	2
 817 055c AFF30080 		.p2align 4,,15
 818              		.thumb
 819              		.thumb_func
 820              		.type	Term_Update_AfterRead, %function
 821              	Term_Update_AfterRead:
 822              	.LFB275:
 823              		.loc 1 399 0
 824              		.cfi_startproc
 825              		@ args = 0, pretend = 0, frame = 8
 826              		@ frame_needed = 0, uses_anonymous_args = 0
 827 0560 30B5     		push	{r4, r5, lr}
 828              		.cfi_def_cfa_offset 12
 829              		.cfi_offset 4, -12
 830              		.cfi_offset 5, -8
 831              		.cfi_offset 14, -4
 832 0562 85B0     		sub	sp, sp, #20
 833              		.cfi_def_cfa_offset 32
 834              		.loc 1 402 0
 835 0564 1C4B     		ldr	r3, .L47
 836 0566 1988     		ldrh	r1, [r3]
 837 0568 1C4B     		ldr	r3, .L47+4
ARM GAS  /tmp/ccNtBBEs.s 			page 16


 838 056a 1A88     		ldrh	r2, [r3]
 839 056c 1C4B     		ldr	r3, .L47+8
 840 056e 1B78     		ldrb	r3, [r3]	@ zero_extendqisi2
 841 0570 1C48     		ldr	r0, .L47+12
 842 0572 0090     		str	r0, [sp]
 843 0574 0846     		mov	r0, r1
 844 0576 1146     		mov	r1, r2
 845 0578 0022     		movs	r2, #0
 846 057a FFF7FEFF 		bl	aci_gatt_update_char_value
 847 057e 0346     		mov	r3, r0
 848 0580 8DF80F30 		strb	r3, [sp, #15]
 849              		.loc 1 403 0
 850 0584 9DF80F30 		ldrb	r3, [sp, #15]	@ zero_extendqisi2
 851 0588 002B     		cmp	r3, #0
 852 058a 20D0     		beq	.L44
 853              		.loc 1 404 0
 854 058c 164B     		ldr	r3, .L47+16
 855 058e 1B68     		ldr	r3, [r3]
 856 0590 03F40063 		and	r3, r3, #2048
 857 0594 002B     		cmp	r3, #0
 858 0596 18D0     		beq	.L45
 859              		.loc 1 405 0
 860 0598 144A     		ldr	r2, .L47+20
 861 059a 154B     		ldr	r3, .L47+24
 862 059c 1546     		mov	r5, r2
 863 059e 1C46     		mov	r4, r3
 864 05a0 0FCC     		ldmia	r4!, {r0, r1, r2, r3}
 865 05a2 2860     		str	r0, [r5]	@ unaligned
 866 05a4 6960     		str	r1, [r5, #4]	@ unaligned
 867 05a6 AA60     		str	r2, [r5, #8]	@ unaligned
 868 05a8 EB60     		str	r3, [r5, #12]	@ unaligned
 869 05aa 07CC     		ldmia	r4!, {r0, r1, r2}
 870 05ac 2861     		str	r0, [r5, #16]	@ unaligned
 871 05ae 6961     		str	r1, [r5, #20]	@ unaligned
 872 05b0 AA61     		str	r2, [r5, #24]	@ unaligned
 873 05b2 2378     		ldrb	r3, [r4]
 874 05b4 2B77     		strb	r3, [r5, #28]
 875 05b6 0F4B     		ldr	r3, .L47+28
 876 05b8 1C22     		movs	r2, #28
 877 05ba 1A60     		str	r2, [r3]
 878              		.loc 1 406 0
 879 05bc 0D4B     		ldr	r3, .L47+28
 880 05be 1B68     		ldr	r3, [r3]
 881 05c0 DBB2     		uxtb	r3, r3
 882 05c2 0A48     		ldr	r0, .L47+20
 883 05c4 1946     		mov	r1, r3
 884 05c6 FFF7FEFF 		bl	Stderr_Update
 885              	.L45:
 886              		.loc 1 410 0
 887 05ca 4723     		movs	r3, #71
 888 05cc 00E0     		b	.L46
 889              	.L44:
 890              		.loc 1 413 0
 891 05ce 0023     		movs	r3, #0
 892              	.L46:
 893              		.loc 1 414 0
 894 05d0 1846     		mov	r0, r3
ARM GAS  /tmp/ccNtBBEs.s 			page 17


 895 05d2 05B0     		add	sp, sp, #20
 896              		@ sp needed
 897 05d4 30BD     		pop	{r4, r5, pc}
 898              	.L48:
 899 05d6 00BF     		.align	2
 900              	.L47:
 901 05d8 1E000000 		.word	ConsoleW2STHandle
 902 05dc 20000000 		.word	TermCharHandle
 903 05e0 50000000 		.word	LastTermLen
 904 05e4 3C000000 		.word	LastTermBuffer
 905 05e8 00000000 		.word	ConnectionBleStatus
 906 05ec 00000000 		.word	BufferToWrite
 907 05f0 00000000 		.word	.LC2
 908 05f4 00000000 		.word	BytesToWrite
 909              		.cfi_endproc
 910              	.LFE275:
 911              		.size	Term_Update_AfterRead, .-Term_Update_AfterRead
 912              		.section	.rodata
 913 001d 000000   		.align	2
 914              	.LC3:
 915 0020 4572726F 		.ascii	"Error Updating Quat Char\015\012\000"
 915      72205570 
 915      64617469 
 915      6E672051 
 915      75617420 
 916              		.text
 917              		.align	2
 918 05f8 AFF30080 		.p2align 4,,15
 918      AFF30080 
 919              		.global	Quat_Update
 920              		.thumb
 921              		.thumb_func
 922              		.type	Quat_Update, %function
 923              	Quat_Update:
 924              	.LFB276:
 925              		.loc 1 423 0
 926              		.cfi_startproc
 927              		@ args = 0, pretend = 0, frame = 32
 928              		@ frame_needed = 0, uses_anonymous_args = 0
 929 0600 30B5     		push	{r4, r5, lr}
 930              		.cfi_def_cfa_offset 12
 931              		.cfi_offset 4, -12
 932              		.cfi_offset 5, -8
 933              		.cfi_offset 14, -4
 934 0602 8BB0     		sub	sp, sp, #44
 935              		.cfi_def_cfa_offset 56
 936 0604 0390     		str	r0, [sp, #12]
 937              		.loc 1 428 0
 938 0606 FFF7FEFF 		bl	HAL_GetTick
 939 060a 0346     		mov	r3, r0
 940 060c DB08     		lsrs	r3, r3, #3
 941 060e DBB2     		uxtb	r3, r3
 942 0610 8DF81030 		strb	r3, [sp, #16]
 943 0614 FFF7FEFF 		bl	HAL_GetTick
 944 0618 0346     		mov	r3, r0
 945 061a DB0A     		lsrs	r3, r3, #11
 946 061c DBB2     		uxtb	r3, r3
ARM GAS  /tmp/ccNtBBEs.s 			page 18


 947 061e 8DF81130 		strb	r3, [sp, #17]
 948              		.loc 1 443 0
 949 0622 039B     		ldr	r3, [sp, #12]
 950 0624 1B68     		ldr	r3, [r3]
 951 0626 DBB2     		uxtb	r3, r3
 952 0628 8DF81230 		strb	r3, [sp, #18]
 953 062c 039B     		ldr	r3, [sp, #12]
 954 062e 1B68     		ldr	r3, [r3]
 955 0630 1B12     		asrs	r3, r3, #8
 956 0632 DBB2     		uxtb	r3, r3
 957 0634 8DF81330 		strb	r3, [sp, #19]
 958              		.loc 1 444 0
 959 0638 039B     		ldr	r3, [sp, #12]
 960 063a 5B68     		ldr	r3, [r3, #4]
 961 063c DBB2     		uxtb	r3, r3
 962 063e 8DF81430 		strb	r3, [sp, #20]
 963 0642 039B     		ldr	r3, [sp, #12]
 964 0644 5B68     		ldr	r3, [r3, #4]
 965 0646 1B12     		asrs	r3, r3, #8
 966 0648 DBB2     		uxtb	r3, r3
 967 064a 8DF81530 		strb	r3, [sp, #21]
 968              		.loc 1 445 0
 969 064e 039B     		ldr	r3, [sp, #12]
 970 0650 9B68     		ldr	r3, [r3, #8]
 971 0652 DBB2     		uxtb	r3, r3
 972 0654 8DF81630 		strb	r3, [sp, #22]
 973 0658 039B     		ldr	r3, [sp, #12]
 974 065a 9B68     		ldr	r3, [r3, #8]
 975 065c 1B12     		asrs	r3, r3, #8
 976 065e DBB2     		uxtb	r3, r3
 977 0660 8DF81730 		strb	r3, [sp, #23]
 978              		.loc 1 447 0
 979 0664 039B     		ldr	r3, [sp, #12]
 980 0666 0C33     		adds	r3, r3, #12
 981 0668 1B68     		ldr	r3, [r3]
 982 066a DBB2     		uxtb	r3, r3
 983 066c 8DF81830 		strb	r3, [sp, #24]
 984 0670 039B     		ldr	r3, [sp, #12]
 985 0672 0C33     		adds	r3, r3, #12
 986 0674 1B68     		ldr	r3, [r3]
 987 0676 1B12     		asrs	r3, r3, #8
 988 0678 DBB2     		uxtb	r3, r3
 989 067a 8DF81930 		strb	r3, [sp, #25]
 990              		.loc 1 448 0
 991 067e 039B     		ldr	r3, [sp, #12]
 992 0680 0C33     		adds	r3, r3, #12
 993 0682 5B68     		ldr	r3, [r3, #4]
 994 0684 DBB2     		uxtb	r3, r3
 995 0686 8DF81A30 		strb	r3, [sp, #26]
 996 068a 039B     		ldr	r3, [sp, #12]
 997 068c 0C33     		adds	r3, r3, #12
 998 068e 5B68     		ldr	r3, [r3, #4]
 999 0690 1B12     		asrs	r3, r3, #8
 1000 0692 DBB2     		uxtb	r3, r3
 1001 0694 8DF81B30 		strb	r3, [sp, #27]
 1002              		.loc 1 449 0
 1003 0698 039B     		ldr	r3, [sp, #12]
ARM GAS  /tmp/ccNtBBEs.s 			page 19


 1004 069a 0C33     		adds	r3, r3, #12
 1005 069c 9B68     		ldr	r3, [r3, #8]
 1006 069e DBB2     		uxtb	r3, r3
 1007 06a0 8DF81C30 		strb	r3, [sp, #28]
 1008 06a4 039B     		ldr	r3, [sp, #12]
 1009 06a6 0C33     		adds	r3, r3, #12
 1010 06a8 9B68     		ldr	r3, [r3, #8]
 1011 06aa 1B12     		asrs	r3, r3, #8
 1012 06ac DBB2     		uxtb	r3, r3
 1013 06ae 8DF81D30 		strb	r3, [sp, #29]
 1014              		.loc 1 451 0
 1015 06b2 039B     		ldr	r3, [sp, #12]
 1016 06b4 1833     		adds	r3, r3, #24
 1017 06b6 1B68     		ldr	r3, [r3]
 1018 06b8 DBB2     		uxtb	r3, r3
 1019 06ba 8DF81E30 		strb	r3, [sp, #30]
 1020 06be 039B     		ldr	r3, [sp, #12]
 1021 06c0 1833     		adds	r3, r3, #24
 1022 06c2 1B68     		ldr	r3, [r3]
 1023 06c4 1B12     		asrs	r3, r3, #8
 1024 06c6 DBB2     		uxtb	r3, r3
 1025 06c8 8DF81F30 		strb	r3, [sp, #31]
 1026              		.loc 1 452 0
 1027 06cc 039B     		ldr	r3, [sp, #12]
 1028 06ce 1833     		adds	r3, r3, #24
 1029 06d0 5B68     		ldr	r3, [r3, #4]
 1030 06d2 DBB2     		uxtb	r3, r3
 1031 06d4 8DF82030 		strb	r3, [sp, #32]
 1032 06d8 039B     		ldr	r3, [sp, #12]
 1033 06da 1833     		adds	r3, r3, #24
 1034 06dc 5B68     		ldr	r3, [r3, #4]
 1035 06de 1B12     		asrs	r3, r3, #8
 1036 06e0 DBB2     		uxtb	r3, r3
 1037 06e2 8DF82130 		strb	r3, [sp, #33]
 1038              		.loc 1 453 0
 1039 06e6 039B     		ldr	r3, [sp, #12]
 1040 06e8 1833     		adds	r3, r3, #24
 1041 06ea 9B68     		ldr	r3, [r3, #8]
 1042 06ec DBB2     		uxtb	r3, r3
 1043 06ee 8DF82230 		strb	r3, [sp, #34]
 1044 06f2 039B     		ldr	r3, [sp, #12]
 1045 06f4 1833     		adds	r3, r3, #24
 1046 06f6 9B68     		ldr	r3, [r3, #8]
 1047 06f8 1B12     		asrs	r3, r3, #8
 1048 06fa DBB2     		uxtb	r3, r3
 1049 06fc 8DF82330 		strb	r3, [sp, #35]
 1050              		.loc 1 457 0
 1051 0700 1C4B     		ldr	r3, .L54
 1052 0702 1A88     		ldrh	r2, [r3]
 1053 0704 1C4B     		ldr	r3, .L54+4
 1054 0706 1B88     		ldrh	r3, [r3]
 1055 0708 04A9     		add	r1, sp, #16
 1056 070a 0091     		str	r1, [sp]
 1057 070c 1046     		mov	r0, r2
 1058 070e 1946     		mov	r1, r3
 1059 0710 0022     		movs	r2, #0
 1060 0712 1423     		movs	r3, #20
ARM GAS  /tmp/ccNtBBEs.s 			page 20


 1061 0714 FFF7FEFF 		bl	safe_aci_gatt_update_char_value
 1062 0718 0346     		mov	r3, r0
 1063 071a 8DF82730 		strb	r3, [sp, #39]
 1064              		.loc 1 459 0
 1065 071e 9DF82730 		ldrb	r3, [sp, #39]	@ zero_extendqisi2
 1066 0722 002B     		cmp	r3, #0
 1067 0724 21D0     		beq	.L50
 1068              		.loc 1 460 0
 1069 0726 154B     		ldr	r3, .L54+8
 1070 0728 1B68     		ldr	r3, [r3]
 1071 072a 03F40063 		and	r3, r3, #2048
 1072 072e 002B     		cmp	r3, #0
 1073 0730 19D0     		beq	.L51
 1074              		.loc 1 461 0
 1075 0732 134A     		ldr	r2, .L54+12
 1076 0734 134B     		ldr	r3, .L54+16
 1077 0736 1546     		mov	r5, r2
 1078 0738 1C46     		mov	r4, r3
 1079 073a 0FCC     		ldmia	r4!, {r0, r1, r2, r3}
 1080 073c 2860     		str	r0, [r5]	@ unaligned
 1081 073e 6960     		str	r1, [r5, #4]	@ unaligned
 1082 0740 AA60     		str	r2, [r5, #8]	@ unaligned
 1083 0742 EB60     		str	r3, [r5, #12]	@ unaligned
 1084 0744 03CC     		ldmia	r4!, {r0, r1}
 1085 0746 2861     		str	r0, [r5, #16]	@ unaligned
 1086 0748 6961     		str	r1, [r5, #20]	@ unaligned
 1087 074a 2288     		ldrh	r2, [r4]	@ unaligned
 1088 074c A378     		ldrb	r3, [r4, #2]
 1089 074e 2A83     		strh	r2, [r5, #24]	@ unaligned
 1090 0750 AB76     		strb	r3, [r5, #26]
 1091 0752 0D4B     		ldr	r3, .L54+20
 1092 0754 1A22     		movs	r2, #26
 1093 0756 1A60     		str	r2, [r3]
 1094              		.loc 1 462 0
 1095 0758 0B4B     		ldr	r3, .L54+20
 1096 075a 1B68     		ldr	r3, [r3]
 1097 075c DBB2     		uxtb	r3, r3
 1098 075e 0848     		ldr	r0, .L54+12
 1099 0760 1946     		mov	r1, r3
 1100 0762 FFF7FEFF 		bl	Stderr_Update
 1101              	.L51:
 1102              		.loc 1 466 0
 1103 0766 4723     		movs	r3, #71
 1104 0768 00E0     		b	.L53
 1105              	.L50:
 1106              		.loc 1 468 0
 1107 076a 0023     		movs	r3, #0
 1108              	.L53:
 1109              		.loc 1 469 0
 1110 076c 1846     		mov	r0, r3
 1111 076e 0BB0     		add	sp, sp, #44
 1112              		@ sp needed
 1113 0770 30BD     		pop	{r4, r5, pc}
 1114              	.L55:
 1115 0772 00BF     		.align	2
 1116              	.L54:
 1117 0774 04000000 		.word	HWServW2STHandle
ARM GAS  /tmp/ccNtBBEs.s 			page 21


 1118 0778 10000000 		.word	QuaternionsCharHandle
 1119 077c 00000000 		.word	ConnectionBleStatus
 1120 0780 00000000 		.word	BufferToWrite
 1121 0784 20000000 		.word	.LC3
 1122 0788 00000000 		.word	BytesToWrite
 1123              		.cfi_endproc
 1124              	.LFE276:
 1125              		.size	Quat_Update, .-Quat_Update
 1126              		.section	.rodata
 1127 003b 00       		.align	2
 1128              	.LC4:
 1129 003c 4572726F 		.ascii	"Error Updating E-Compass Char\015\012\000"
 1129      72205570 
 1129      64617469 
 1129      6E672045 
 1129      2D436F6D 
 1130              		.text
 1131              		.align	2
 1132 078c AFF30080 		.p2align 4,,15
 1133              		.global	ECompass_Update
 1134              		.thumb
 1135              		.thumb_func
 1136              		.type	ECompass_Update, %function
 1137              	ECompass_Update:
 1138              	.LFB277:
 1139              		.loc 1 477 0
 1140              		.cfi_startproc
 1141              		@ args = 0, pretend = 0, frame = 16
 1142              		@ frame_needed = 0, uses_anonymous_args = 0
 1143 0790 30B5     		push	{r4, r5, lr}
 1144              		.cfi_def_cfa_offset 12
 1145              		.cfi_offset 4, -12
 1146              		.cfi_offset 5, -8
 1147              		.cfi_offset 14, -4
 1148 0792 87B0     		sub	sp, sp, #28
 1149              		.cfi_def_cfa_offset 40
 1150 0794 0346     		mov	r3, r0
 1151 0796 ADF80E30 		strh	r3, [sp, #14]	@ movhi
 1152              		.loc 1 482 0
 1153 079a FFF7FEFF 		bl	HAL_GetTick
 1154 079e 0346     		mov	r3, r0
 1155 07a0 DB08     		lsrs	r3, r3, #3
 1156 07a2 DBB2     		uxtb	r3, r3
 1157 07a4 8DF81030 		strb	r3, [sp, #16]
 1158 07a8 FFF7FEFF 		bl	HAL_GetTick
 1159 07ac 0346     		mov	r3, r0
 1160 07ae DB0A     		lsrs	r3, r3, #11
 1161 07b0 DBB2     		uxtb	r3, r3
 1162 07b2 8DF81130 		strb	r3, [sp, #17]
 1163              		.loc 1 483 0
 1164 07b6 BDF80E30 		ldrh	r3, [sp, #14]	@ movhi
 1165 07ba DBB2     		uxtb	r3, r3
 1166 07bc 8DF81230 		strb	r3, [sp, #18]
 1167 07c0 BDF80E30 		ldrh	r3, [sp, #14]
 1168 07c4 1B0A     		lsrs	r3, r3, #8
 1169 07c6 9BB2     		uxth	r3, r3
 1170 07c8 DBB2     		uxtb	r3, r3
ARM GAS  /tmp/ccNtBBEs.s 			page 22


 1171 07ca 8DF81330 		strb	r3, [sp, #19]
 1172              		.loc 1 485 0
 1173 07ce 1B4B     		ldr	r3, .L61
 1174 07d0 1A88     		ldrh	r2, [r3]
 1175 07d2 1B4B     		ldr	r3, .L61+4
 1176 07d4 1B88     		ldrh	r3, [r3]
 1177 07d6 04A9     		add	r1, sp, #16
 1178 07d8 0091     		str	r1, [sp]
 1179 07da 1046     		mov	r0, r2
 1180 07dc 1946     		mov	r1, r3
 1181 07de 0022     		movs	r2, #0
 1182 07e0 0423     		movs	r3, #4
 1183 07e2 FFF7FEFF 		bl	safe_aci_gatt_update_char_value
 1184 07e6 0346     		mov	r3, r0
 1185 07e8 8DF81730 		strb	r3, [sp, #23]
 1186              		.loc 1 487 0
 1187 07ec 9DF81730 		ldrb	r3, [sp, #23]	@ zero_extendqisi2
 1188 07f0 002B     		cmp	r3, #0
 1189 07f2 1FD0     		beq	.L57
 1190              		.loc 1 488 0
 1191 07f4 134B     		ldr	r3, .L61+8
 1192 07f6 1B68     		ldr	r3, [r3]
 1193 07f8 03F40063 		and	r3, r3, #2048
 1194 07fc 002B     		cmp	r3, #0
 1195 07fe 17D0     		beq	.L58
 1196              		.loc 1 489 0
 1197 0800 114A     		ldr	r2, .L61+12
 1198 0802 124B     		ldr	r3, .L61+16
 1199 0804 1446     		mov	r4, r2
 1200 0806 1D46     		mov	r5, r3
 1201 0808 0FCD     		ldmia	r5!, {r0, r1, r2, r3}
 1202 080a 2060     		str	r0, [r4]	@ unaligned
 1203 080c 6160     		str	r1, [r4, #4]	@ unaligned
 1204 080e A260     		str	r2, [r4, #8]	@ unaligned
 1205 0810 E360     		str	r3, [r4, #12]	@ unaligned
 1206 0812 0FCD     		ldmia	r5!, {r0, r1, r2, r3}
 1207 0814 2061     		str	r0, [r4, #16]	@ unaligned
 1208 0816 6161     		str	r1, [r4, #20]	@ unaligned
 1209 0818 A261     		str	r2, [r4, #24]	@ unaligned
 1210 081a E361     		str	r3, [r4, #28]	@ unaligned
 1211 081c 0C4B     		ldr	r3, .L61+20
 1212 081e 1F22     		movs	r2, #31
 1213 0820 1A60     		str	r2, [r3]
 1214              		.loc 1 490 0
 1215 0822 0B4B     		ldr	r3, .L61+20
 1216 0824 1B68     		ldr	r3, [r3]
 1217 0826 DBB2     		uxtb	r3, r3
 1218 0828 0748     		ldr	r0, .L61+12
 1219 082a 1946     		mov	r1, r3
 1220 082c FFF7FEFF 		bl	Stderr_Update
 1221              	.L58:
 1222              		.loc 1 494 0
 1223 0830 4723     		movs	r3, #71
 1224 0832 00E0     		b	.L60
 1225              	.L57:
 1226              		.loc 1 496 0
 1227 0834 0023     		movs	r3, #0
ARM GAS  /tmp/ccNtBBEs.s 			page 23


 1228              	.L60:
 1229              		.loc 1 497 0
 1230 0836 1846     		mov	r0, r3
 1231 0838 07B0     		add	sp, sp, #28
 1232              		@ sp needed
 1233 083a 30BD     		pop	{r4, r5, pc}
 1234              	.L62:
 1235              		.align	2
 1236              	.L61:
 1237 083c 04000000 		.word	HWServW2STHandle
 1238 0840 12000000 		.word	ECompassCharHandle
 1239 0844 00000000 		.word	ConnectionBleStatus
 1240 0848 00000000 		.word	BufferToWrite
 1241 084c 3C000000 		.word	.LC4
 1242 0850 00000000 		.word	BytesToWrite
 1243              		.cfi_endproc
 1244              	.LFE277:
 1245              		.size	ECompass_Update, .-ECompass_Update
 1246              		.section	.rodata
 1247              		.align	2
 1248              	.LC5:
 1249 005c 4572726F 		.ascii	"Error Updating ActivityRec Char\015\012\000"
 1249      72205570 
 1249      64617469 
 1249      6E672041 
 1249      63746976 
 1250              		.text
 1251              		.align	2
 1252 0854 AFF30080 		.p2align 4,,15
 1252      AFF30080 
 1252      AFF30080 
 1253              		.global	ActivityRec_Update
 1254              		.thumb
 1255              		.thumb_func
 1256              		.type	ActivityRec_Update, %function
 1257              	ActivityRec_Update:
 1258              	.LFB278:
 1259              		.loc 1 507 0
 1260              		.cfi_startproc
 1261              		@ args = 0, pretend = 0, frame = 16
 1262              		@ frame_needed = 0, uses_anonymous_args = 0
 1263 0860 F0B5     		push	{r4, r5, r6, r7, lr}
 1264              		.cfi_def_cfa_offset 20
 1265              		.cfi_offset 4, -20
 1266              		.cfi_offset 5, -16
 1267              		.cfi_offset 6, -12
 1268              		.cfi_offset 7, -8
 1269              		.cfi_offset 14, -4
 1270 0862 87B0     		sub	sp, sp, #28
 1271              		.cfi_def_cfa_offset 48
 1272 0864 0346     		mov	r3, r0
 1273 0866 8DF80F30 		strb	r3, [sp, #15]
 1274              		.loc 1 512 0
 1275 086a FFF7FEFF 		bl	HAL_GetTick
 1276 086e 0346     		mov	r3, r0
 1277 0870 DB08     		lsrs	r3, r3, #3
 1278 0872 DBB2     		uxtb	r3, r3
ARM GAS  /tmp/ccNtBBEs.s 			page 24


 1279 0874 8DF81430 		strb	r3, [sp, #20]
 1280 0878 FFF7FEFF 		bl	HAL_GetTick
 1281 087c 0346     		mov	r3, r0
 1282 087e DB0A     		lsrs	r3, r3, #11
 1283 0880 DBB2     		uxtb	r3, r3
 1284 0882 8DF81530 		strb	r3, [sp, #21]
 1285              		.loc 1 513 0
 1286 0886 9DF80F30 		ldrb	r3, [sp, #15]
 1287 088a 8DF81630 		strb	r3, [sp, #22]
 1288              		.loc 1 515 0
 1289 088e 1F4B     		ldr	r3, .L69
 1290 0890 1A88     		ldrh	r2, [r3]
 1291 0892 1F4B     		ldr	r3, .L69+4
 1292 0894 1B88     		ldrh	r3, [r3]
 1293 0896 05A9     		add	r1, sp, #20
 1294 0898 0091     		str	r1, [sp]
 1295 089a 1046     		mov	r0, r2
 1296 089c 1946     		mov	r1, r3
 1297 089e 0022     		movs	r2, #0
 1298 08a0 0323     		movs	r3, #3
 1299 08a2 FFF7FEFF 		bl	aci_gatt_update_char_value
 1300 08a6 0346     		mov	r3, r0
 1301 08a8 8DF81730 		strb	r3, [sp, #23]
 1302              		.loc 1 517 0
 1303 08ac 9DF81730 		ldrb	r3, [sp, #23]	@ zero_extendqisi2
 1304 08b0 002B     		cmp	r3, #0
 1305 08b2 26D0     		beq	.L64
 1306              		.loc 1 518 0
 1307 08b4 174B     		ldr	r3, .L69+8
 1308 08b6 1B68     		ldr	r3, [r3]
 1309 08b8 03F40063 		and	r3, r3, #2048
 1310 08bc 002B     		cmp	r3, #0
 1311 08be 1ED0     		beq	.L65
 1312              		.loc 1 519 0
 1313 08c0 154B     		ldr	r3, .L69+12
 1314 08c2 164A     		ldr	r2, .L69+16
 1315 08c4 1446     		mov	r4, r2
 1316 08c6 1D46     		mov	r5, r3
 1317 08c8 04F1200E 		add	lr, r4, #32
 1318              	.L66:
 1319 08cc 2E46     		mov	r6, r5
 1320 08ce 2746     		mov	r7, r4
 1321 08d0 0FCF     		ldmia	r7!, {r0, r1, r2, r3}
 1322 08d2 3060     		str	r0, [r6]	@ unaligned
 1323 08d4 7160     		str	r1, [r6, #4]	@ unaligned
 1324 08d6 B260     		str	r2, [r6, #8]	@ unaligned
 1325 08d8 F360     		str	r3, [r6, #12]	@ unaligned
 1326 08da 1034     		adds	r4, r4, #16
 1327 08dc 1035     		adds	r5, r5, #16
 1328 08de 7445     		cmp	r4, lr
 1329 08e0 F4D1     		bne	.L66
 1330 08e2 2B46     		mov	r3, r5
 1331 08e4 2246     		mov	r2, r4
 1332 08e6 1288     		ldrh	r2, [r2]	@ unaligned
 1333 08e8 1A80     		strh	r2, [r3]	@ unaligned
 1334 08ea 0D4B     		ldr	r3, .L69+20
 1335 08ec 2122     		movs	r2, #33
ARM GAS  /tmp/ccNtBBEs.s 			page 25


 1336 08ee 1A60     		str	r2, [r3]
 1337              		.loc 1 520 0
 1338 08f0 0B4B     		ldr	r3, .L69+20
 1339 08f2 1B68     		ldr	r3, [r3]
 1340 08f4 DBB2     		uxtb	r3, r3
 1341 08f6 0848     		ldr	r0, .L69+12
 1342 08f8 1946     		mov	r1, r3
 1343 08fa FFF7FEFF 		bl	Stderr_Update
 1344              	.L65:
 1345              		.loc 1 524 0
 1346 08fe 4723     		movs	r3, #71
 1347 0900 00E0     		b	.L68
 1348              	.L64:
 1349              		.loc 1 526 0
 1350 0902 0023     		movs	r3, #0
 1351              	.L68:
 1352              		.loc 1 527 0
 1353 0904 1846     		mov	r0, r3
 1354 0906 07B0     		add	sp, sp, #28
 1355              		@ sp needed
 1356 0908 F0BD     		pop	{r4, r5, r6, r7, pc}
 1357              	.L70:
 1358 090a 00BF     		.align	2
 1359              	.L69:
 1360 090c 04000000 		.word	HWServW2STHandle
 1361 0910 14000000 		.word	ActivityRecCharHandle
 1362 0914 00000000 		.word	ConnectionBleStatus
 1363 0918 00000000 		.word	BufferToWrite
 1364 091c 5C000000 		.word	.LC5
 1365 0920 00000000 		.word	BytesToWrite
 1366              		.cfi_endproc
 1367              	.LFE278:
 1368              		.size	ActivityRec_Update, .-ActivityRec_Update
 1369              		.section	.rodata
 1370 007e 0000     		.align	2
 1371              	.LC6:
 1372 0080 4572726F 		.ascii	"Error Updating CarryPosRec Char\015\012\000"
 1372      72205570 
 1372      64617469 
 1372      6E672043 
 1372      61727279 
 1373              		.text
 1374              		.align	2
 1375 0924 AFF30080 		.p2align 4,,15
 1375      AFF30080 
 1375      AFF30080 
 1376              		.global	CarryPosRec_Update
 1377              		.thumb
 1378              		.thumb_func
 1379              		.type	CarryPosRec_Update, %function
 1380              	CarryPosRec_Update:
 1381              	.LFB279:
 1382              		.loc 1 537 0
 1383              		.cfi_startproc
 1384              		@ args = 0, pretend = 0, frame = 16
 1385              		@ frame_needed = 0, uses_anonymous_args = 0
 1386 0930 F0B5     		push	{r4, r5, r6, r7, lr}
ARM GAS  /tmp/ccNtBBEs.s 			page 26


 1387              		.cfi_def_cfa_offset 20
 1388              		.cfi_offset 4, -20
 1389              		.cfi_offset 5, -16
 1390              		.cfi_offset 6, -12
 1391              		.cfi_offset 7, -8
 1392              		.cfi_offset 14, -4
 1393 0932 87B0     		sub	sp, sp, #28
 1394              		.cfi_def_cfa_offset 48
 1395 0934 0346     		mov	r3, r0
 1396 0936 8DF80F30 		strb	r3, [sp, #15]
 1397              		.loc 1 542 0
 1398 093a FFF7FEFF 		bl	HAL_GetTick
 1399 093e 0346     		mov	r3, r0
 1400 0940 DB08     		lsrs	r3, r3, #3
 1401 0942 DBB2     		uxtb	r3, r3
 1402 0944 8DF81430 		strb	r3, [sp, #20]
 1403 0948 FFF7FEFF 		bl	HAL_GetTick
 1404 094c 0346     		mov	r3, r0
 1405 094e DB0A     		lsrs	r3, r3, #11
 1406 0950 DBB2     		uxtb	r3, r3
 1407 0952 8DF81530 		strb	r3, [sp, #21]
 1408              		.loc 1 543 0
 1409 0956 9DF80F30 		ldrb	r3, [sp, #15]
 1410 095a 8DF81630 		strb	r3, [sp, #22]
 1411              		.loc 1 545 0
 1412 095e 1F4B     		ldr	r3, .L77
 1413 0960 1A88     		ldrh	r2, [r3]
 1414 0962 1F4B     		ldr	r3, .L77+4
 1415 0964 1B88     		ldrh	r3, [r3]
 1416 0966 05A9     		add	r1, sp, #20
 1417 0968 0091     		str	r1, [sp]
 1418 096a 1046     		mov	r0, r2
 1419 096c 1946     		mov	r1, r3
 1420 096e 0022     		movs	r2, #0
 1421 0970 0323     		movs	r3, #3
 1422 0972 FFF7FEFF 		bl	aci_gatt_update_char_value
 1423 0976 0346     		mov	r3, r0
 1424 0978 8DF81730 		strb	r3, [sp, #23]
 1425              		.loc 1 547 0
 1426 097c 9DF81730 		ldrb	r3, [sp, #23]	@ zero_extendqisi2
 1427 0980 002B     		cmp	r3, #0
 1428 0982 26D0     		beq	.L72
 1429              		.loc 1 548 0
 1430 0984 174B     		ldr	r3, .L77+8
 1431 0986 1B68     		ldr	r3, [r3]
 1432 0988 03F40063 		and	r3, r3, #2048
 1433 098c 002B     		cmp	r3, #0
 1434 098e 1ED0     		beq	.L73
 1435              		.loc 1 549 0
 1436 0990 154B     		ldr	r3, .L77+12
 1437 0992 164A     		ldr	r2, .L77+16
 1438 0994 1446     		mov	r4, r2
 1439 0996 1D46     		mov	r5, r3
 1440 0998 04F1200E 		add	lr, r4, #32
 1441              	.L74:
 1442 099c 2E46     		mov	r6, r5
 1443 099e 2746     		mov	r7, r4
ARM GAS  /tmp/ccNtBBEs.s 			page 27


 1444 09a0 0FCF     		ldmia	r7!, {r0, r1, r2, r3}
 1445 09a2 3060     		str	r0, [r6]	@ unaligned
 1446 09a4 7160     		str	r1, [r6, #4]	@ unaligned
 1447 09a6 B260     		str	r2, [r6, #8]	@ unaligned
 1448 09a8 F360     		str	r3, [r6, #12]	@ unaligned
 1449 09aa 1034     		adds	r4, r4, #16
 1450 09ac 1035     		adds	r5, r5, #16
 1451 09ae 7445     		cmp	r4, lr
 1452 09b0 F4D1     		bne	.L74
 1453 09b2 2B46     		mov	r3, r5
 1454 09b4 2246     		mov	r2, r4
 1455 09b6 1288     		ldrh	r2, [r2]	@ unaligned
 1456 09b8 1A80     		strh	r2, [r3]	@ unaligned
 1457 09ba 0D4B     		ldr	r3, .L77+20
 1458 09bc 2122     		movs	r2, #33
 1459 09be 1A60     		str	r2, [r3]
 1460              		.loc 1 550 0
 1461 09c0 0B4B     		ldr	r3, .L77+20
 1462 09c2 1B68     		ldr	r3, [r3]
 1463 09c4 DBB2     		uxtb	r3, r3
 1464 09c6 0848     		ldr	r0, .L77+12
 1465 09c8 1946     		mov	r1, r3
 1466 09ca FFF7FEFF 		bl	Stderr_Update
 1467              	.L73:
 1468              		.loc 1 554 0
 1469 09ce 4723     		movs	r3, #71
 1470 09d0 00E0     		b	.L76
 1471              	.L72:
 1472              		.loc 1 556 0
 1473 09d2 0023     		movs	r3, #0
 1474              	.L76:
 1475              		.loc 1 557 0
 1476 09d4 1846     		mov	r0, r3
 1477 09d6 07B0     		add	sp, sp, #28
 1478              		@ sp needed
 1479 09d8 F0BD     		pop	{r4, r5, r6, r7, pc}
 1480              	.L78:
 1481 09da 00BF     		.align	2
 1482              	.L77:
 1483 09dc 04000000 		.word	HWServW2STHandle
 1484 09e0 16000000 		.word	CarryPosRecCharHandle
 1485 09e4 00000000 		.word	ConnectionBleStatus
 1486 09e8 00000000 		.word	BufferToWrite
 1487 09ec 80000000 		.word	.LC6
 1488 09f0 00000000 		.word	BytesToWrite
 1489              		.cfi_endproc
 1490              	.LFE279:
 1491              		.size	CarryPosRec_Update, .-CarryPosRec_Update
 1492              		.section	.rodata
 1493 00a2 0000     		.align	2
 1494              	.LC7:
 1495 00a4 4572726F 		.ascii	"Error Updating Gesture Rec Char\015\012\000"
 1495      72205570 
 1495      64617469 
 1495      6E672047 
 1495      65737475 
 1496              		.text
ARM GAS  /tmp/ccNtBBEs.s 			page 28


 1497              		.align	2
 1498 09f4 AFF30080 		.p2align 4,,15
 1498      AFF30080 
 1498      AFF30080 
 1499              		.global	GestureRec_Update
 1500              		.thumb
 1501              		.thumb_func
 1502              		.type	GestureRec_Update, %function
 1503              	GestureRec_Update:
 1504              	.LFB280:
 1505              		.loc 1 567 0
 1506              		.cfi_startproc
 1507              		@ args = 0, pretend = 0, frame = 16
 1508              		@ frame_needed = 0, uses_anonymous_args = 0
 1509 0a00 F0B5     		push	{r4, r5, r6, r7, lr}
 1510              		.cfi_def_cfa_offset 20
 1511              		.cfi_offset 4, -20
 1512              		.cfi_offset 5, -16
 1513              		.cfi_offset 6, -12
 1514              		.cfi_offset 7, -8
 1515              		.cfi_offset 14, -4
 1516 0a02 87B0     		sub	sp, sp, #28
 1517              		.cfi_def_cfa_offset 48
 1518 0a04 0346     		mov	r3, r0
 1519 0a06 8DF80F30 		strb	r3, [sp, #15]
 1520              		.loc 1 572 0
 1521 0a0a FFF7FEFF 		bl	HAL_GetTick
 1522 0a0e 0346     		mov	r3, r0
 1523 0a10 DB08     		lsrs	r3, r3, #3
 1524 0a12 DBB2     		uxtb	r3, r3
 1525 0a14 8DF81430 		strb	r3, [sp, #20]
 1526 0a18 FFF7FEFF 		bl	HAL_GetTick
 1527 0a1c 0346     		mov	r3, r0
 1528 0a1e DB0A     		lsrs	r3, r3, #11
 1529 0a20 DBB2     		uxtb	r3, r3
 1530 0a22 8DF81530 		strb	r3, [sp, #21]
 1531              		.loc 1 573 0
 1532 0a26 9DF80F30 		ldrb	r3, [sp, #15]
 1533 0a2a 8DF81630 		strb	r3, [sp, #22]
 1534              		.loc 1 575 0
 1535 0a2e 1F4B     		ldr	r3, .L85
 1536 0a30 1A88     		ldrh	r2, [r3]
 1537 0a32 1F4B     		ldr	r3, .L85+4
 1538 0a34 1B88     		ldrh	r3, [r3]
 1539 0a36 05A9     		add	r1, sp, #20
 1540 0a38 0091     		str	r1, [sp]
 1541 0a3a 1046     		mov	r0, r2
 1542 0a3c 1946     		mov	r1, r3
 1543 0a3e 0022     		movs	r2, #0
 1544 0a40 0323     		movs	r3, #3
 1545 0a42 FFF7FEFF 		bl	aci_gatt_update_char_value
 1546 0a46 0346     		mov	r3, r0
 1547 0a48 8DF81730 		strb	r3, [sp, #23]
 1548              		.loc 1 577 0
 1549 0a4c 9DF81730 		ldrb	r3, [sp, #23]	@ zero_extendqisi2
 1550 0a50 002B     		cmp	r3, #0
 1551 0a52 26D0     		beq	.L80
ARM GAS  /tmp/ccNtBBEs.s 			page 29


 1552              		.loc 1 578 0
 1553 0a54 174B     		ldr	r3, .L85+8
 1554 0a56 1B68     		ldr	r3, [r3]
 1555 0a58 03F40063 		and	r3, r3, #2048
 1556 0a5c 002B     		cmp	r3, #0
 1557 0a5e 1ED0     		beq	.L81
 1558              		.loc 1 579 0
 1559 0a60 154B     		ldr	r3, .L85+12
 1560 0a62 164A     		ldr	r2, .L85+16
 1561 0a64 1446     		mov	r4, r2
 1562 0a66 1D46     		mov	r5, r3
 1563 0a68 04F1200E 		add	lr, r4, #32
 1564              	.L82:
 1565 0a6c 2E46     		mov	r6, r5
 1566 0a6e 2746     		mov	r7, r4
 1567 0a70 0FCF     		ldmia	r7!, {r0, r1, r2, r3}
 1568 0a72 3060     		str	r0, [r6]	@ unaligned
 1569 0a74 7160     		str	r1, [r6, #4]	@ unaligned
 1570 0a76 B260     		str	r2, [r6, #8]	@ unaligned
 1571 0a78 F360     		str	r3, [r6, #12]	@ unaligned
 1572 0a7a 1034     		adds	r4, r4, #16
 1573 0a7c 1035     		adds	r5, r5, #16
 1574 0a7e 7445     		cmp	r4, lr
 1575 0a80 F4D1     		bne	.L82
 1576 0a82 2B46     		mov	r3, r5
 1577 0a84 2246     		mov	r2, r4
 1578 0a86 1288     		ldrh	r2, [r2]	@ unaligned
 1579 0a88 1A80     		strh	r2, [r3]	@ unaligned
 1580 0a8a 0D4B     		ldr	r3, .L85+20
 1581 0a8c 2122     		movs	r2, #33
 1582 0a8e 1A60     		str	r2, [r3]
 1583              		.loc 1 580 0
 1584 0a90 0B4B     		ldr	r3, .L85+20
 1585 0a92 1B68     		ldr	r3, [r3]
 1586 0a94 DBB2     		uxtb	r3, r3
 1587 0a96 0848     		ldr	r0, .L85+12
 1588 0a98 1946     		mov	r1, r3
 1589 0a9a FFF7FEFF 		bl	Stderr_Update
 1590              	.L81:
 1591              		.loc 1 584 0
 1592 0a9e 4723     		movs	r3, #71
 1593 0aa0 00E0     		b	.L84
 1594              	.L80:
 1595              		.loc 1 586 0
 1596 0aa2 0023     		movs	r3, #0
 1597              	.L84:
 1598              		.loc 1 587 0
 1599 0aa4 1846     		mov	r0, r3
 1600 0aa6 07B0     		add	sp, sp, #28
 1601              		@ sp needed
 1602 0aa8 F0BD     		pop	{r4, r5, r6, r7, pc}
 1603              	.L86:
 1604 0aaa 00BF     		.align	2
 1605              	.L85:
 1606 0aac 04000000 		.word	HWServW2STHandle
 1607 0ab0 18000000 		.word	GestureRecCharHandle
 1608 0ab4 00000000 		.word	ConnectionBleStatus
ARM GAS  /tmp/ccNtBBEs.s 			page 30


 1609 0ab8 00000000 		.word	BufferToWrite
 1610 0abc A4000000 		.word	.LC7
 1611 0ac0 00000000 		.word	BytesToWrite
 1612              		.cfi_endproc
 1613              	.LFE280:
 1614              		.size	GestureRec_Update, .-GestureRec_Update
 1615              		.section	.rodata
 1616 00c6 0000     		.align	2
 1617              	.LC8:
 1618 00c8 4572726F 		.ascii	"Error Updating Configuration Char\015\012\000"
 1618      72205570 
 1618      64617469 
 1618      6E672043 
 1618      6F6E6669 
 1619              		.text
 1620              		.align	2
 1621 0ac4 AFF30080 		.p2align 4,,15
 1621      AFF30080 
 1621      AFF30080 
 1622              		.global	Config_Notify
 1623              		.thumb
 1624              		.thumb_func
 1625              		.type	Config_Notify, %function
 1626              	Config_Notify:
 1627              	.LFB281:
 1628              		.loc 1 597 0
 1629              		.cfi_startproc
 1630              		@ args = 0, pretend = 0, frame = 24
 1631              		@ frame_needed = 0, uses_anonymous_args = 0
 1632 0ad0 F0B5     		push	{r4, r5, r6, r7, lr}
 1633              		.cfi_def_cfa_offset 20
 1634              		.cfi_offset 4, -20
 1635              		.cfi_offset 5, -16
 1636              		.cfi_offset 6, -12
 1637              		.cfi_offset 7, -8
 1638              		.cfi_offset 14, -4
 1639 0ad2 89B0     		sub	sp, sp, #36
 1640              		.cfi_def_cfa_offset 56
 1641 0ad4 0390     		str	r0, [sp, #12]
 1642 0ad6 1346     		mov	r3, r2
 1643 0ad8 0A46     		mov	r2, r1
 1644 0ada 8DF80B20 		strb	r2, [sp, #11]
 1645 0ade 8DF80A30 		strb	r3, [sp, #10]
 1646              		.loc 1 601 0
 1647 0ae2 FFF7FEFF 		bl	HAL_GetTick
 1648 0ae6 0346     		mov	r3, r0
 1649 0ae8 DB08     		lsrs	r3, r3, #3
 1650 0aea DBB2     		uxtb	r3, r3
 1651 0aec 8DF81430 		strb	r3, [sp, #20]
 1652 0af0 FFF7FEFF 		bl	HAL_GetTick
 1653 0af4 0346     		mov	r3, r0
 1654 0af6 DB0A     		lsrs	r3, r3, #11
 1655 0af8 DBB2     		uxtb	r3, r3
 1656 0afa 8DF81530 		strb	r3, [sp, #21]
 1657              		.loc 1 602 0
 1658 0afe 039B     		ldr	r3, [sp, #12]
 1659 0b00 DBB2     		uxtb	r3, r3
ARM GAS  /tmp/ccNtBBEs.s 			page 31


 1660 0b02 8DF81930 		strb	r3, [sp, #25]
 1661 0b06 039B     		ldr	r3, [sp, #12]
 1662 0b08 1B0A     		lsrs	r3, r3, #8
 1663 0b0a DBB2     		uxtb	r3, r3
 1664 0b0c 8DF81830 		strb	r3, [sp, #24]
 1665 0b10 039B     		ldr	r3, [sp, #12]
 1666 0b12 1B0C     		lsrs	r3, r3, #16
 1667 0b14 DBB2     		uxtb	r3, r3
 1668 0b16 8DF81730 		strb	r3, [sp, #23]
 1669 0b1a 039B     		ldr	r3, [sp, #12]
 1670 0b1c 1B0E     		lsrs	r3, r3, #24
 1671 0b1e DBB2     		uxtb	r3, r3
 1672 0b20 8DF81630 		strb	r3, [sp, #22]
 1673              		.loc 1 603 0
 1674 0b24 9DF80B30 		ldrb	r3, [sp, #11]
 1675 0b28 8DF81A30 		strb	r3, [sp, #26]
 1676              		.loc 1 604 0
 1677 0b2c 9DF80A30 		ldrb	r3, [sp, #10]
 1678 0b30 8DF81B30 		strb	r3, [sp, #27]
 1679              		.loc 1 606 0
 1680 0b34 1E4B     		ldr	r3, .L93
 1681 0b36 1A88     		ldrh	r2, [r3]
 1682 0b38 1E4B     		ldr	r3, .L93+4
 1683 0b3a 1B88     		ldrh	r3, [r3]
 1684 0b3c 05A9     		add	r1, sp, #20
 1685 0b3e 0091     		str	r1, [sp]
 1686 0b40 1046     		mov	r0, r2
 1687 0b42 1946     		mov	r1, r3
 1688 0b44 0022     		movs	r2, #0
 1689 0b46 0823     		movs	r3, #8
 1690 0b48 FFF7FEFF 		bl	aci_gatt_update_char_value
 1691 0b4c 0346     		mov	r3, r0
 1692 0b4e 8DF81F30 		strb	r3, [sp, #31]
 1693              		.loc 1 607 0
 1694 0b52 9DF81F30 		ldrb	r3, [sp, #31]	@ zero_extendqisi2
 1695 0b56 002B     		cmp	r3, #0
 1696 0b58 26D0     		beq	.L88
 1697              		.loc 1 608 0
 1698 0b5a 174B     		ldr	r3, .L93+8
 1699 0b5c 1B68     		ldr	r3, [r3]
 1700 0b5e 03F40063 		and	r3, r3, #2048
 1701 0b62 002B     		cmp	r3, #0
 1702 0b64 1ED0     		beq	.L89
 1703              		.loc 1 609 0
 1704 0b66 154B     		ldr	r3, .L93+12
 1705 0b68 154A     		ldr	r2, .L93+16
 1706 0b6a 1446     		mov	r4, r2
 1707 0b6c 1D46     		mov	r5, r3
 1708 0b6e 04F1200E 		add	lr, r4, #32
 1709              	.L90:
 1710 0b72 2E46     		mov	r6, r5
 1711 0b74 2746     		mov	r7, r4
 1712 0b76 0FCF     		ldmia	r7!, {r0, r1, r2, r3}
 1713 0b78 3060     		str	r0, [r6]	@ unaligned
 1714 0b7a 7160     		str	r1, [r6, #4]	@ unaligned
 1715 0b7c B260     		str	r2, [r6, #8]	@ unaligned
 1716 0b7e F360     		str	r3, [r6, #12]	@ unaligned
ARM GAS  /tmp/ccNtBBEs.s 			page 32


 1717 0b80 1034     		adds	r4, r4, #16
 1718 0b82 1035     		adds	r5, r5, #16
 1719 0b84 7445     		cmp	r4, lr
 1720 0b86 F4D1     		bne	.L90
 1721 0b88 2B46     		mov	r3, r5
 1722 0b8a 2246     		mov	r2, r4
 1723 0b8c 1068     		ldr	r0, [r2]	@ unaligned
 1724 0b8e 1860     		str	r0, [r3]	@ unaligned
 1725 0b90 0C4B     		ldr	r3, .L93+20
 1726 0b92 2322     		movs	r2, #35
 1727 0b94 1A60     		str	r2, [r3]
 1728              		.loc 1 610 0
 1729 0b96 0B4B     		ldr	r3, .L93+20
 1730 0b98 1B68     		ldr	r3, [r3]
 1731 0b9a DBB2     		uxtb	r3, r3
 1732 0b9c 0748     		ldr	r0, .L93+12
 1733 0b9e 1946     		mov	r1, r3
 1734 0ba0 FFF7FEFF 		bl	Stderr_Update
 1735              	.L89:
 1736              		.loc 1 614 0
 1737 0ba4 4723     		movs	r3, #71
 1738 0ba6 00E0     		b	.L92
 1739              	.L88:
 1740              		.loc 1 616 0
 1741 0ba8 0023     		movs	r3, #0
 1742              	.L92:
 1743              		.loc 1 617 0
 1744 0baa 1846     		mov	r0, r3
 1745 0bac 09B0     		add	sp, sp, #36
 1746              		@ sp needed
 1747 0bae F0BD     		pop	{r4, r5, r6, r7, pc}
 1748              	.L94:
 1749              		.align	2
 1750              	.L93:
 1751 0bb0 1A000000 		.word	ConfigServW2STHandle
 1752 0bb4 1C000000 		.word	ConfigCharHandle
 1753 0bb8 00000000 		.word	ConnectionBleStatus
 1754 0bbc 00000000 		.word	BufferToWrite
 1755 0bc0 C8000000 		.word	.LC8
 1756 0bc4 00000000 		.word	BytesToWrite
 1757              		.cfi_endproc
 1758              	.LFE281:
 1759              		.size	Config_Notify, .-Config_Notify
 1760              		.section	.rodata
 1761              		.align	2
 1762              	.LC9:
 1763 00ec 4572726F 		.ascii	"Error Updating AccEvent_Notify Char\015\012\000"
 1763      72205570 
 1763      64617469 
 1763      6E672041 
 1763      63634576 
 1764              		.text
 1765              		.align	2
 1766 0bc8 AFF30080 		.p2align 4,,15
 1766      AFF30080 
 1767              		.global	AccEvent_Notify
 1768              		.thumb
ARM GAS  /tmp/ccNtBBEs.s 			page 33


 1769              		.thumb_func
 1770              		.type	AccEvent_Notify, %function
 1771              	AccEvent_Notify:
 1772              	.LFB282:
 1773              		.loc 1 625 0
 1774              		.cfi_startproc
 1775              		@ args = 0, pretend = 0, frame = 16
 1776              		@ frame_needed = 0, uses_anonymous_args = 0
 1777 0bd0 F0B5     		push	{r4, r5, r6, r7, lr}
 1778              		.cfi_def_cfa_offset 20
 1779              		.cfi_offset 4, -20
 1780              		.cfi_offset 5, -16
 1781              		.cfi_offset 6, -12
 1782              		.cfi_offset 7, -8
 1783              		.cfi_offset 14, -4
 1784 0bd2 87B0     		sub	sp, sp, #28
 1785              		.cfi_def_cfa_offset 48
 1786 0bd4 0346     		mov	r3, r0
 1787 0bd6 ADF80E30 		strh	r3, [sp, #14]	@ movhi
 1788              		.loc 1 629 0
 1789 0bda FFF7FEFF 		bl	HAL_GetTick
 1790 0bde 0346     		mov	r3, r0
 1791 0be0 DB08     		lsrs	r3, r3, #3
 1792 0be2 DBB2     		uxtb	r3, r3
 1793 0be4 8DF81030 		strb	r3, [sp, #16]
 1794 0be8 FFF7FEFF 		bl	HAL_GetTick
 1795 0bec 0346     		mov	r3, r0
 1796 0bee DB0A     		lsrs	r3, r3, #11
 1797 0bf0 DBB2     		uxtb	r3, r3
 1798 0bf2 8DF81130 		strb	r3, [sp, #17]
 1799              		.loc 1 630 0
 1800 0bf6 BDF80E30 		ldrh	r3, [sp, #14]	@ movhi
 1801 0bfa DBB2     		uxtb	r3, r3
 1802 0bfc 8DF81230 		strb	r3, [sp, #18]
 1803 0c00 BDF80E30 		ldrh	r3, [sp, #14]
 1804 0c04 1B0A     		lsrs	r3, r3, #8
 1805 0c06 9BB2     		uxth	r3, r3
 1806 0c08 DBB2     		uxtb	r3, r3
 1807 0c0a 8DF81330 		strb	r3, [sp, #19]
 1808              		.loc 1 632 0
 1809 0c0e 204B     		ldr	r3, .L101
 1810 0c10 1A88     		ldrh	r2, [r3]
 1811 0c12 204B     		ldr	r3, .L101+4
 1812 0c14 1B88     		ldrh	r3, [r3]
 1813 0c16 04A9     		add	r1, sp, #16
 1814 0c18 0091     		str	r1, [sp]
 1815 0c1a 1046     		mov	r0, r2
 1816 0c1c 1946     		mov	r1, r3
 1817 0c1e 0022     		movs	r2, #0
 1818 0c20 0423     		movs	r3, #4
 1819 0c22 FFF7FEFF 		bl	aci_gatt_update_char_value
 1820 0c26 0346     		mov	r3, r0
 1821 0c28 8DF81730 		strb	r3, [sp, #23]
 1822              		.loc 1 633 0
 1823 0c2c 9DF81730 		ldrb	r3, [sp, #23]	@ zero_extendqisi2
 1824 0c30 002B     		cmp	r3, #0
 1825 0c32 28D0     		beq	.L96
ARM GAS  /tmp/ccNtBBEs.s 			page 34


 1826              		.loc 1 634 0
 1827 0c34 184B     		ldr	r3, .L101+8
 1828 0c36 1B68     		ldr	r3, [r3]
 1829 0c38 03F40063 		and	r3, r3, #2048
 1830 0c3c 002B     		cmp	r3, #0
 1831 0c3e 20D0     		beq	.L97
 1832              		.loc 1 635 0
 1833 0c40 164B     		ldr	r3, .L101+12
 1834 0c42 174A     		ldr	r2, .L101+16
 1835 0c44 1446     		mov	r4, r2
 1836 0c46 1D46     		mov	r5, r3
 1837 0c48 04F1200E 		add	lr, r4, #32
 1838              	.L98:
 1839 0c4c 2E46     		mov	r6, r5
 1840 0c4e 2746     		mov	r7, r4
 1841 0c50 0FCF     		ldmia	r7!, {r0, r1, r2, r3}
 1842 0c52 3060     		str	r0, [r6]	@ unaligned
 1843 0c54 7160     		str	r1, [r6, #4]	@ unaligned
 1844 0c56 B260     		str	r2, [r6, #8]	@ unaligned
 1845 0c58 F360     		str	r3, [r6, #12]	@ unaligned
 1846 0c5a 1034     		adds	r4, r4, #16
 1847 0c5c 1035     		adds	r5, r5, #16
 1848 0c5e 7445     		cmp	r4, lr
 1849 0c60 F4D1     		bne	.L98
 1850 0c62 2B46     		mov	r3, r5
 1851 0c64 2246     		mov	r2, r4
 1852 0c66 1068     		ldr	r0, [r2]	@ unaligned
 1853 0c68 1860     		str	r0, [r3]	@ unaligned
 1854 0c6a 9288     		ldrh	r2, [r2, #4]	@ unaligned
 1855 0c6c 9A80     		strh	r2, [r3, #4]	@ unaligned
 1856 0c6e 0D4B     		ldr	r3, .L101+20
 1857 0c70 2522     		movs	r2, #37
 1858 0c72 1A60     		str	r2, [r3]
 1859              		.loc 1 636 0
 1860 0c74 0B4B     		ldr	r3, .L101+20
 1861 0c76 1B68     		ldr	r3, [r3]
 1862 0c78 DBB2     		uxtb	r3, r3
 1863 0c7a 0848     		ldr	r0, .L101+12
 1864 0c7c 1946     		mov	r1, r3
 1865 0c7e FFF7FEFF 		bl	Stderr_Update
 1866              	.L97:
 1867              		.loc 1 640 0
 1868 0c82 4723     		movs	r3, #71
 1869 0c84 00E0     		b	.L100
 1870              	.L96:
 1871              		.loc 1 642 0
 1872 0c86 0023     		movs	r3, #0
 1873              	.L100:
 1874              		.loc 1 643 0
 1875 0c88 1846     		mov	r0, r3
 1876 0c8a 07B0     		add	sp, sp, #28
 1877              		@ sp needed
 1878 0c8c F0BD     		pop	{r4, r5, r6, r7, pc}
 1879              	.L102:
 1880 0c8e 00BF     		.align	2
 1881              	.L101:
 1882 0c90 04000000 		.word	HWServW2STHandle
ARM GAS  /tmp/ccNtBBEs.s 			page 35


 1883 0c94 0A000000 		.word	AccEventCharHandle
 1884 0c98 00000000 		.word	ConnectionBleStatus
 1885 0c9c 00000000 		.word	BufferToWrite
 1886 0ca0 EC000000 		.word	.LC9
 1887 0ca4 00000000 		.word	BytesToWrite
 1888              		.cfi_endproc
 1889              	.LFE282:
 1890              		.size	AccEvent_Notify, .-AccEvent_Notify
 1891              		.align	2
 1892 0ca8 AFF30080 		.p2align 4,,15
 1892      AFF30080 
 1893              		.global	Add_HW_SW_ServW2ST_Service
 1894              		.thumb
 1895              		.thumb_func
 1896              		.type	Add_HW_SW_ServW2ST_Service, %function
 1897              	Add_HW_SW_ServW2ST_Service:
 1898              	.LFB283:
 1899              		.loc 1 651 0
 1900              		.cfi_startproc
 1901              		@ args = 0, pretend = 0, frame = 24
 1902              		@ frame_needed = 0, uses_anonymous_args = 0
 1903 0cb0 00B5     		push	{lr}
 1904              		.cfi_def_cfa_offset 4
 1905              		.cfi_offset 14, -4
 1906 0cb2 8DB0     		sub	sp, sp, #52
 1907              		.cfi_def_cfa_offset 56
 1908              		.loc 1 657 0
 1909 0cb4 0423     		movs	r3, #4
 1910 0cb6 8DF82F30 		strb	r3, [sp, #47]
 1911              		.loc 1 660 0
 1912 0cba A94B     		ldr	r3, .L124
 1913 0cbc 1B6B     		ldr	r3, [r3, #48]
 1914 0cbe 002B     		cmp	r3, #0
 1915 0cc0 04D0     		beq	.L104
 1916              		.loc 1 662 0
 1917 0cc2 9DF82F30 		ldrb	r3, [sp, #47]	@ zero_extendqisi2
 1918 0cc6 0133     		adds	r3, r3, #1
 1919 0cc8 8DF82F30 		strb	r3, [sp, #47]
 1920              	.L104:
 1921              		.loc 1 668 0
 1922 0ccc 9DF82F30 		ldrb	r3, [sp, #47]	@ zero_extendqisi2
 1923 0cd0 0133     		adds	r3, r3, #1
 1924 0cd2 8DF82F30 		strb	r3, [sp, #47]
 1925              		.loc 1 671 0
 1926 0cd6 A24B     		ldr	r3, .L124
 1927 0cd8 93F82D30 		ldrb	r3, [r3, #45]	@ zero_extendqisi2
 1928 0cdc 012B     		cmp	r3, #1
 1929 0cde 04D1     		bne	.L105
 1930              		.loc 1 673 0
 1931 0ce0 9DF82F30 		ldrb	r3, [sp, #47]	@ zero_extendqisi2
 1932 0ce4 0133     		adds	r3, r3, #1
 1933 0ce6 8DF82F30 		strb	r3, [sp, #47]
 1934              	.L105:
 1935              		.loc 1 678 0
 1936 0cea 9DF82F30 		ldrb	r3, [sp, #47]	@ zero_extendqisi2
 1937 0cee 0133     		adds	r3, r3, #1
 1938 0cf0 8DF82F30 		strb	r3, [sp, #47]
ARM GAS  /tmp/ccNtBBEs.s 			page 36


 1939              		.loc 1 682 0
 1940 0cf4 9DF82F30 		ldrb	r3, [sp, #47]	@ zero_extendqisi2
 1941 0cf8 0133     		adds	r3, r3, #1
 1942 0cfa 8DF82F30 		strb	r3, [sp, #47]
 1943              		.loc 1 686 0
 1944 0cfe 9DF82F30 		ldrb	r3, [sp, #47]	@ zero_extendqisi2
 1945 0d02 0133     		adds	r3, r3, #1
 1946 0d04 8DF82F30 		strb	r3, [sp, #47]
 1947              		.loc 1 690 0
 1948 0d08 9DF82F30 		ldrb	r3, [sp, #47]
 1949 0d0c 0233     		adds	r3, r3, #2
 1950 0d0e 8DF82F30 		strb	r3, [sp, #47]
 1951              		.loc 1 697 0
 1952 0d12 1B23     		movs	r3, #27
 1953 0d14 8DF81C30 		strb	r3, [sp, #28]
 1954 0d18 C523     		movs	r3, #197
 1955 0d1a 8DF81D30 		strb	r3, [sp, #29]
 1956 0d1e D523     		movs	r3, #213
 1957 0d20 8DF81E30 		strb	r3, [sp, #30]
 1958 0d24 A523     		movs	r3, #165
 1959 0d26 8DF81F30 		strb	r3, [sp, #31]
 1960 0d2a 0223     		movs	r3, #2
 1961 0d2c 8DF82030 		strb	r3, [sp, #32]
 1962 0d30 0023     		movs	r3, #0
 1963 0d32 8DF82130 		strb	r3, [sp, #33]
 1964 0d36 B423     		movs	r3, #180
 1965 0d38 8DF82230 		strb	r3, [sp, #34]
 1966 0d3c 9A23     		movs	r3, #154
 1967 0d3e 8DF82330 		strb	r3, [sp, #35]
 1968 0d42 E123     		movs	r3, #225
 1969 0d44 8DF82430 		strb	r3, [sp, #36]
 1970 0d48 1123     		movs	r3, #17
 1971 0d4a 8DF82530 		strb	r3, [sp, #37]
 1972 0d4e 0123     		movs	r3, #1
 1973 0d50 8DF82630 		strb	r3, [sp, #38]
 1974 0d54 0023     		movs	r3, #0
 1975 0d56 8DF82730 		strb	r3, [sp, #39]
 1976 0d5a 0023     		movs	r3, #0
 1977 0d5c 8DF82830 		strb	r3, [sp, #40]
 1978 0d60 0023     		movs	r3, #0
 1979 0d62 8DF82930 		strb	r3, [sp, #41]
 1980 0d66 0023     		movs	r3, #0
 1981 0d68 8DF82A30 		strb	r3, [sp, #42]
 1982 0d6c 0023     		movs	r3, #0
 1983 0d6e 8DF82B30 		strb	r3, [sp, #43]
 1984              		.loc 1 698 0
 1985 0d72 9DF82F30 		ldrb	r3, [sp, #47]
 1986 0d76 1A46     		mov	r2, r3
 1987 0d78 5200     		lsls	r2, r2, #1
 1988 0d7a 1344     		add	r3, r3, r2
 1989 0d7c DBB2     		uxtb	r3, r3
 1990 0d7e 0133     		adds	r3, r3, #1
 1991 0d80 DBB2     		uxtb	r3, r3
 1992 0d82 07AA     		add	r2, sp, #28
 1993 0d84 7749     		ldr	r1, .L124+4
 1994 0d86 0091     		str	r1, [sp]
 1995 0d88 0220     		movs	r0, #2
ARM GAS  /tmp/ccNtBBEs.s 			page 37


 1996 0d8a 1146     		mov	r1, r2
 1997 0d8c 0122     		movs	r2, #1
 1998 0d8e FFF7FEFF 		bl	aci_gatt_add_serv
 1999 0d92 0346     		mov	r3, r0
 2000 0d94 8DF82E30 		strb	r3, [sp, #46]
 2001              		.loc 1 702 0
 2002 0d98 9DF82E30 		ldrb	r3, [sp, #46]	@ zero_extendqisi2
 2003 0d9c 002B     		cmp	r3, #0
 2004 0d9e 00D0     		beq	.L106
 2005              		.loc 1 703 0
 2006 0da0 FDE3     		b	.L107
 2007              	.L106:
 2008              		.loc 1 707 0
 2009 0da2 1B23     		movs	r3, #27
 2010 0da4 8DF81C30 		strb	r3, [sp, #28]
 2011 0da8 C523     		movs	r3, #197
 2012 0daa 8DF81D30 		strb	r3, [sp, #29]
 2013 0dae D523     		movs	r3, #213
 2014 0db0 8DF81E30 		strb	r3, [sp, #30]
 2015 0db4 A523     		movs	r3, #165
 2016 0db6 8DF81F30 		strb	r3, [sp, #31]
 2017 0dba 0223     		movs	r3, #2
 2018 0dbc 8DF82030 		strb	r3, [sp, #32]
 2019 0dc0 0023     		movs	r3, #0
 2020 0dc2 8DF82130 		strb	r3, [sp, #33]
 2021 0dc6 3623     		movs	r3, #54
 2022 0dc8 8DF82230 		strb	r3, [sp, #34]
 2023 0dcc AC23     		movs	r3, #172
 2024 0dce 8DF82330 		strb	r3, [sp, #35]
 2025 0dd2 E123     		movs	r3, #225
 2026 0dd4 8DF82430 		strb	r3, [sp, #36]
 2027 0dd8 1123     		movs	r3, #17
 2028 0dda 8DF82530 		strb	r3, [sp, #37]
 2029 0dde 0123     		movs	r3, #1
 2030 0de0 8DF82630 		strb	r3, [sp, #38]
 2031 0de4 0023     		movs	r3, #0
 2032 0de6 8DF82730 		strb	r3, [sp, #39]
 2033 0dea 0023     		movs	r3, #0
 2034 0dec 8DF82830 		strb	r3, [sp, #40]
 2035 0df0 0023     		movs	r3, #0
 2036 0df2 8DF82930 		strb	r3, [sp, #41]
 2037 0df6 0023     		movs	r3, #0
 2038 0df8 8DF82A30 		strb	r3, [sp, #42]
 2039 0dfc 0023     		movs	r3, #0
 2040 0dfe 8DF82B30 		strb	r3, [sp, #43]
 2041              		.loc 1 708 0
 2042 0e02 574B     		ldr	r3, .L124
 2043 0e04 5B68     		ldr	r3, [r3, #4]
 2044 0e06 022B     		cmp	r3, #2
 2045 0e08 0DD1     		bne	.L108
 2046              		.loc 1 709 0
 2047 0e0a 9DF82A30 		ldrb	r3, [sp, #42]	@ zero_extendqisi2
 2048 0e0e 43F00503 		orr	r3, r3, #5
 2049 0e12 DBB2     		uxtb	r3, r3
 2050 0e14 8DF82A30 		strb	r3, [sp, #42]
 2051              		.loc 1 710 0
 2052 0e18 534B     		ldr	r3, .L124+8
ARM GAS  /tmp/ccNtBBEs.s 			page 38


 2053 0e1a 1B78     		ldrb	r3, [r3]	@ zero_extendqisi2
 2054 0e1c 0433     		adds	r3, r3, #4
 2055 0e1e DAB2     		uxtb	r2, r3
 2056 0e20 514B     		ldr	r3, .L124+8
 2057 0e22 1A70     		strb	r2, [r3]
 2058 0e24 10E0     		b	.L109
 2059              	.L108:
 2060              		.loc 1 711 0
 2061 0e26 4E4B     		ldr	r3, .L124
 2062 0e28 5B68     		ldr	r3, [r3, #4]
 2063 0e2a 012B     		cmp	r3, #1
 2064 0e2c 0CD1     		bne	.L109
 2065              		.loc 1 712 0
 2066 0e2e 9DF82A30 		ldrb	r3, [sp, #42]	@ zero_extendqisi2
 2067 0e32 43F00403 		orr	r3, r3, #4
 2068 0e36 DBB2     		uxtb	r3, r3
 2069 0e38 8DF82A30 		strb	r3, [sp, #42]
 2070              		.loc 1 713 0
 2071 0e3c 4A4B     		ldr	r3, .L124+8
 2072 0e3e 1B78     		ldrb	r3, [r3]	@ zero_extendqisi2
 2073 0e40 0233     		adds	r3, r3, #2
 2074 0e42 DAB2     		uxtb	r2, r3
 2075 0e44 484B     		ldr	r3, .L124+8
 2076 0e46 1A70     		strb	r2, [r3]
 2077              	.L109:
 2078              		.loc 1 716 0
 2079 0e48 454B     		ldr	r3, .L124
 2080 0e4a 5B69     		ldr	r3, [r3, #20]
 2081 0e4c 002B     		cmp	r3, #0
 2082 0e4e 0CD0     		beq	.L110
 2083              		.loc 1 717 0
 2084 0e50 9DF82A30 		ldrb	r3, [sp, #42]	@ zero_extendqisi2
 2085 0e54 43F00803 		orr	r3, r3, #8
 2086 0e58 DBB2     		uxtb	r3, r3
 2087 0e5a 8DF82A30 		strb	r3, [sp, #42]
 2088              		.loc 1 718 0
 2089 0e5e 424B     		ldr	r3, .L124+8
 2090 0e60 1B78     		ldrb	r3, [r3]	@ zero_extendqisi2
 2091 0e62 0233     		adds	r3, r3, #2
 2092 0e64 DAB2     		uxtb	r2, r3
 2093 0e66 404B     		ldr	r3, .L124+8
 2094 0e68 1A70     		strb	r2, [r3]
 2095              	.L110:
 2096              		.loc 1 721 0
 2097 0e6a 3D4B     		ldr	r3, .L124
 2098 0e6c 1B69     		ldr	r3, [r3, #16]
 2099 0e6e 002B     		cmp	r3, #0
 2100 0e70 0CD0     		beq	.L111
 2101              		.loc 1 722 0
 2102 0e72 9DF82A30 		ldrb	r3, [sp, #42]	@ zero_extendqisi2
 2103 0e76 43F01003 		orr	r3, r3, #16
 2104 0e7a DBB2     		uxtb	r3, r3
 2105 0e7c 8DF82A30 		strb	r3, [sp, #42]
 2106              		.loc 1 723 0
 2107 0e80 394B     		ldr	r3, .L124+8
 2108 0e82 1B78     		ldrb	r3, [r3]	@ zero_extendqisi2
 2109 0e84 0433     		adds	r3, r3, #4
ARM GAS  /tmp/ccNtBBEs.s 			page 39


 2110 0e86 DAB2     		uxtb	r2, r3
 2111 0e88 374B     		ldr	r3, .L124+8
 2112 0e8a 1A70     		strb	r2, [r3]
 2113              	.L111:
 2114              		.loc 1 726 0
 2115 0e8c 354B     		ldr	r3, .L124+4
 2116 0e8e 1988     		ldrh	r1, [r3]
 2117 0e90 354B     		ldr	r3, .L124+8
 2118 0e92 1B78     		ldrb	r3, [r3]	@ zero_extendqisi2
 2119 0e94 07AA     		add	r2, sp, #28
 2120 0e96 1220     		movs	r0, #18
 2121 0e98 0090     		str	r0, [sp]
 2122 0e9a 0020     		movs	r0, #0
 2123 0e9c 0190     		str	r0, [sp, #4]
 2124 0e9e 0420     		movs	r0, #4
 2125 0ea0 0290     		str	r0, [sp, #8]
 2126 0ea2 1020     		movs	r0, #16
 2127 0ea4 0390     		str	r0, [sp, #12]
 2128 0ea6 0020     		movs	r0, #0
 2129 0ea8 0490     		str	r0, [sp, #16]
 2130 0eaa 3048     		ldr	r0, .L124+12
 2131 0eac 0590     		str	r0, [sp, #20]
 2132 0eae 0846     		mov	r0, r1
 2133 0eb0 0221     		movs	r1, #2
 2134 0eb2 FFF7FEFF 		bl	aci_gatt_add_char
 2135 0eb6 0346     		mov	r3, r0
 2136 0eb8 8DF82E30 		strb	r3, [sp, #46]
 2137              		.loc 1 732 0
 2138 0ebc 9DF82E30 		ldrb	r3, [sp, #46]	@ zero_extendqisi2
 2139 0ec0 002B     		cmp	r3, #0
 2140 0ec2 00D0     		beq	.L112
 2141              		.loc 1 733 0
 2142 0ec4 6BE3     		b	.L107
 2143              	.L112:
 2144              		.loc 1 736 0
 2145 0ec6 1B23     		movs	r3, #27
 2146 0ec8 8DF81C30 		strb	r3, [sp, #28]
 2147 0ecc C523     		movs	r3, #197
 2148 0ece 8DF81D30 		strb	r3, [sp, #29]
 2149 0ed2 D523     		movs	r3, #213
 2150 0ed4 8DF81E30 		strb	r3, [sp, #30]
 2151 0ed8 A523     		movs	r3, #165
 2152 0eda 8DF81F30 		strb	r3, [sp, #31]
 2153 0ede 0223     		movs	r3, #2
 2154 0ee0 8DF82030 		strb	r3, [sp, #32]
 2155 0ee4 0023     		movs	r3, #0
 2156 0ee6 8DF82130 		strb	r3, [sp, #33]
 2157 0eea 3623     		movs	r3, #54
 2158 0eec 8DF82230 		strb	r3, [sp, #34]
 2159 0ef0 AC23     		movs	r3, #172
 2160 0ef2 8DF82330 		strb	r3, [sp, #35]
 2161 0ef6 E123     		movs	r3, #225
 2162 0ef8 8DF82430 		strb	r3, [sp, #36]
 2163 0efc 1123     		movs	r3, #17
 2164 0efe 8DF82530 		strb	r3, [sp, #37]
 2165 0f02 0123     		movs	r3, #1
 2166 0f04 8DF82630 		strb	r3, [sp, #38]
ARM GAS  /tmp/ccNtBBEs.s 			page 40


 2167 0f08 0023     		movs	r3, #0
 2168 0f0a 8DF82730 		strb	r3, [sp, #39]
 2169 0f0e 0023     		movs	r3, #0
 2170 0f10 8DF82830 		strb	r3, [sp, #40]
 2171 0f14 0023     		movs	r3, #0
 2172 0f16 8DF82930 		strb	r3, [sp, #41]
 2173 0f1a E023     		movs	r3, #224
 2174 0f1c 8DF82A30 		strb	r3, [sp, #42]
 2175 0f20 0023     		movs	r3, #0
 2176 0f22 8DF82B30 		strb	r3, [sp, #43]
 2177              		.loc 1 737 0
 2178 0f26 0F4B     		ldr	r3, .L124+4
 2179 0f28 1A88     		ldrh	r2, [r3]
 2180 0f2a 07AB     		add	r3, sp, #28
 2181 0f2c 1021     		movs	r1, #16
 2182 0f2e 0091     		str	r1, [sp]
 2183 0f30 0021     		movs	r1, #0
 2184 0f32 0191     		str	r1, [sp, #4]
 2185 0f34 0421     		movs	r1, #4
 2186 0f36 0291     		str	r1, [sp, #8]
 2187 0f38 1021     		movs	r1, #16
 2188 0f3a 0391     		str	r1, [sp, #12]
 2189 0f3c 0021     		movs	r1, #0
 2190 0f3e 0491     		str	r1, [sp, #16]
 2191 0f40 0B49     		ldr	r1, .L124+16
 2192 0f42 0591     		str	r1, [sp, #20]
 2193 0f44 1046     		mov	r0, r2
 2194 0f46 0221     		movs	r1, #2
 2195 0f48 1A46     		mov	r2, r3
 2196 0f4a 1423     		movs	r3, #20
 2197 0f4c FFF7FEFF 		bl	aci_gatt_add_char
 2198 0f50 0346     		mov	r3, r0
 2199 0f52 8DF82E30 		strb	r3, [sp, #46]
 2200              		.loc 1 743 0
 2201 0f56 9DF82E30 		ldrb	r3, [sp, #46]	@ zero_extendqisi2
 2202 0f5a 002B     		cmp	r3, #0
 2203 0f5c 0AD0     		beq	.L113
 2204              		.loc 1 744 0
 2205 0f5e 1EE3     		b	.L107
 2206              	.L125:
 2207              		.align	2
 2208              	.L124:
 2209 0f60 00000000 		.word	TargetBoardFeatures
 2210 0f64 04000000 		.word	HWServW2STHandle
 2211 0f68 01000000 		.word	EnvironmentalCharSize
 2212 0f6c 06000000 		.word	EnvironmentalCharHandle
 2213 0f70 08000000 		.word	AccGyroMagCharHandle
 2214              	.L113:
 2215              		.loc 1 747 0
 2216 0f74 1B23     		movs	r3, #27
 2217 0f76 8DF81C30 		strb	r3, [sp, #28]
 2218 0f7a C523     		movs	r3, #197
 2219 0f7c 8DF81D30 		strb	r3, [sp, #29]
 2220 0f80 D523     		movs	r3, #213
 2221 0f82 8DF81E30 		strb	r3, [sp, #30]
 2222 0f86 A523     		movs	r3, #165
 2223 0f88 8DF81F30 		strb	r3, [sp, #31]
ARM GAS  /tmp/ccNtBBEs.s 			page 41


 2224 0f8c 0223     		movs	r3, #2
 2225 0f8e 8DF82030 		strb	r3, [sp, #32]
 2226 0f92 0023     		movs	r3, #0
 2227 0f94 8DF82130 		strb	r3, [sp, #33]
 2228 0f98 3623     		movs	r3, #54
 2229 0f9a 8DF82230 		strb	r3, [sp, #34]
 2230 0f9e AC23     		movs	r3, #172
 2231 0fa0 8DF82330 		strb	r3, [sp, #35]
 2232 0fa4 E123     		movs	r3, #225
 2233 0fa6 8DF82430 		strb	r3, [sp, #36]
 2234 0faa 1123     		movs	r3, #17
 2235 0fac 8DF82530 		strb	r3, [sp, #37]
 2236 0fb0 0123     		movs	r3, #1
 2237 0fb2 8DF82630 		strb	r3, [sp, #38]
 2238 0fb6 0023     		movs	r3, #0
 2239 0fb8 8DF82730 		strb	r3, [sp, #39]
 2240 0fbc 0023     		movs	r3, #0
 2241 0fbe 8DF82830 		strb	r3, [sp, #40]
 2242 0fc2 0423     		movs	r3, #4
 2243 0fc4 8DF82930 		strb	r3, [sp, #41]
 2244 0fc8 0023     		movs	r3, #0
 2245 0fca 8DF82A30 		strb	r3, [sp, #42]
 2246 0fce 0023     		movs	r3, #0
 2247 0fd0 8DF82B30 		strb	r3, [sp, #43]
 2248              		.loc 1 748 0
 2249 0fd4 AC4B     		ldr	r3, .L126
 2250 0fd6 1A88     		ldrh	r2, [r3]
 2251 0fd8 07AB     		add	r3, sp, #28
 2252 0fda 1221     		movs	r1, #18
 2253 0fdc 0091     		str	r1, [sp]
 2254 0fde 0021     		movs	r1, #0
 2255 0fe0 0191     		str	r1, [sp, #4]
 2256 0fe2 0421     		movs	r1, #4
 2257 0fe4 0291     		str	r1, [sp, #8]
 2258 0fe6 1021     		movs	r1, #16
 2259 0fe8 0391     		str	r1, [sp, #12]
 2260 0fea 0021     		movs	r1, #0
 2261 0fec 0491     		str	r1, [sp, #16]
 2262 0fee A749     		ldr	r1, .L126+4
 2263 0ff0 0591     		str	r1, [sp, #20]
 2264 0ff2 1046     		mov	r0, r2
 2265 0ff4 0221     		movs	r1, #2
 2266 0ff6 1A46     		mov	r2, r3
 2267 0ff8 0423     		movs	r3, #4
 2268 0ffa FFF7FEFF 		bl	aci_gatt_add_char
 2269 0ffe 0346     		mov	r3, r0
 2270 1000 8DF82E30 		strb	r3, [sp, #46]
 2271              		.loc 1 754 0
 2272 1004 9DF82E30 		ldrb	r3, [sp, #46]	@ zero_extendqisi2
 2273 1008 002B     		cmp	r3, #0
 2274 100a 00D0     		beq	.L114
 2275              		.loc 1 755 0
 2276 100c C7E2     		b	.L107
 2277              	.L114:
 2278              		.loc 1 758 0
 2279 100e 1B23     		movs	r3, #27
 2280 1010 8DF81C30 		strb	r3, [sp, #28]
ARM GAS  /tmp/ccNtBBEs.s 			page 42


 2281 1014 C523     		movs	r3, #197
 2282 1016 8DF81D30 		strb	r3, [sp, #29]
 2283 101a D523     		movs	r3, #213
 2284 101c 8DF81E30 		strb	r3, [sp, #30]
 2285 1020 A523     		movs	r3, #165
 2286 1022 8DF81F30 		strb	r3, [sp, #31]
 2287 1026 0223     		movs	r3, #2
 2288 1028 8DF82030 		strb	r3, [sp, #32]
 2289 102c 0023     		movs	r3, #0
 2290 102e 8DF82130 		strb	r3, [sp, #33]
 2291 1032 3623     		movs	r3, #54
 2292 1034 8DF82230 		strb	r3, [sp, #34]
 2293 1038 AC23     		movs	r3, #172
 2294 103a 8DF82330 		strb	r3, [sp, #35]
 2295 103e E123     		movs	r3, #225
 2296 1040 8DF82430 		strb	r3, [sp, #36]
 2297 1044 1123     		movs	r3, #17
 2298 1046 8DF82530 		strb	r3, [sp, #37]
 2299 104a 0123     		movs	r3, #1
 2300 104c 8DF82630 		strb	r3, [sp, #38]
 2301 1050 0023     		movs	r3, #0
 2302 1052 8DF82730 		strb	r3, [sp, #39]
 2303 1056 0023     		movs	r3, #0
 2304 1058 8DF82830 		strb	r3, [sp, #40]
 2305 105c 0023     		movs	r3, #0
 2306 105e 8DF82930 		strb	r3, [sp, #41]
 2307 1062 0023     		movs	r3, #0
 2308 1064 8DF82A30 		strb	r3, [sp, #42]
 2309 1068 0423     		movs	r3, #4
 2310 106a 8DF82B30 		strb	r3, [sp, #43]
 2311              		.loc 1 759 0
 2312 106e 864B     		ldr	r3, .L126
 2313 1070 1A88     		ldrh	r2, [r3]
 2314 1072 07AB     		add	r3, sp, #28
 2315 1074 1021     		movs	r1, #16
 2316 1076 0091     		str	r1, [sp]
 2317 1078 0021     		movs	r1, #0
 2318 107a 0191     		str	r1, [sp, #4]
 2319 107c 0421     		movs	r1, #4
 2320 107e 0291     		str	r1, [sp, #8]
 2321 1080 1021     		movs	r1, #16
 2322 1082 0391     		str	r1, [sp, #12]
 2323 1084 0021     		movs	r1, #0
 2324 1086 0491     		str	r1, [sp, #16]
 2325 1088 8149     		ldr	r1, .L126+8
 2326 108a 0591     		str	r1, [sp, #20]
 2327 108c 1046     		mov	r0, r2
 2328 108e 0221     		movs	r1, #2
 2329 1090 1A46     		mov	r2, r3
 2330 1092 0323     		movs	r3, #3
 2331 1094 FFF7FEFF 		bl	aci_gatt_add_char
 2332 1098 0346     		mov	r3, r0
 2333 109a 8DF82E30 		strb	r3, [sp, #46]
 2334              		.loc 1 765 0
 2335 109e 9DF82E30 		ldrb	r3, [sp, #46]	@ zero_extendqisi2
 2336 10a2 002B     		cmp	r3, #0
 2337 10a4 00D0     		beq	.L115
ARM GAS  /tmp/ccNtBBEs.s 			page 43


 2338              		.loc 1 766 0
 2339 10a6 7AE2     		b	.L107
 2340              	.L115:
 2341              		.loc 1 770 0
 2342 10a8 7A4B     		ldr	r3, .L126+12
 2343 10aa 1B6B     		ldr	r3, [r3, #48]
 2344 10ac 002B     		cmp	r3, #0
 2345 10ae 4CD0     		beq	.L116
 2346              		.loc 1 771 0
 2347 10b0 1B23     		movs	r3, #27
 2348 10b2 8DF81C30 		strb	r3, [sp, #28]
 2349 10b6 C523     		movs	r3, #197
 2350 10b8 8DF81D30 		strb	r3, [sp, #29]
 2351 10bc D523     		movs	r3, #213
 2352 10be 8DF81E30 		strb	r3, [sp, #30]
 2353 10c2 A523     		movs	r3, #165
 2354 10c4 8DF81F30 		strb	r3, [sp, #31]
 2355 10c8 0223     		movs	r3, #2
 2356 10ca 8DF82030 		strb	r3, [sp, #32]
 2357 10ce 0023     		movs	r3, #0
 2358 10d0 8DF82130 		strb	r3, [sp, #33]
 2359 10d4 3623     		movs	r3, #54
 2360 10d6 8DF82230 		strb	r3, [sp, #34]
 2361 10da AC23     		movs	r3, #172
 2362 10dc 8DF82330 		strb	r3, [sp, #35]
 2363 10e0 E123     		movs	r3, #225
 2364 10e2 8DF82430 		strb	r3, [sp, #36]
 2365 10e6 1123     		movs	r3, #17
 2366 10e8 8DF82530 		strb	r3, [sp, #37]
 2367 10ec 0123     		movs	r3, #1
 2368 10ee 8DF82630 		strb	r3, [sp, #38]
 2369 10f2 0023     		movs	r3, #0
 2370 10f4 8DF82730 		strb	r3, [sp, #39]
 2371 10f8 0023     		movs	r3, #0
 2372 10fa 8DF82830 		strb	r3, [sp, #40]
 2373 10fe 0023     		movs	r3, #0
 2374 1100 8DF82930 		strb	r3, [sp, #41]
 2375 1104 0223     		movs	r3, #2
 2376 1106 8DF82A30 		strb	r3, [sp, #42]
 2377 110a 0023     		movs	r3, #0
 2378 110c 8DF82B30 		strb	r3, [sp, #43]
 2379              		.loc 1 772 0
 2380 1110 5D4B     		ldr	r3, .L126
 2381 1112 1A88     		ldrh	r2, [r3]
 2382 1114 07AB     		add	r3, sp, #28
 2383 1116 1221     		movs	r1, #18
 2384 1118 0091     		str	r1, [sp]
 2385 111a 0021     		movs	r1, #0
 2386 111c 0191     		str	r1, [sp, #4]
 2387 111e 0421     		movs	r1, #4
 2388 1120 0291     		str	r1, [sp, #8]
 2389 1122 1021     		movs	r1, #16
 2390 1124 0391     		str	r1, [sp, #12]
 2391 1126 0021     		movs	r1, #0
 2392 1128 0491     		str	r1, [sp, #16]
 2393 112a 5B49     		ldr	r1, .L126+16
 2394 112c 0591     		str	r1, [sp, #20]
ARM GAS  /tmp/ccNtBBEs.s 			page 44


 2395 112e 1046     		mov	r0, r2
 2396 1130 0221     		movs	r1, #2
 2397 1132 1A46     		mov	r2, r3
 2398 1134 0923     		movs	r3, #9
 2399 1136 FFF7FEFF 		bl	aci_gatt_add_char
 2400 113a 0346     		mov	r3, r0
 2401 113c 8DF82E30 		strb	r3, [sp, #46]
 2402              		.loc 1 778 0
 2403 1140 9DF82E30 		ldrb	r3, [sp, #46]	@ zero_extendqisi2
 2404 1144 002B     		cmp	r3, #0
 2405 1146 00D0     		beq	.L116
 2406              		.loc 1 779 0
 2407 1148 29E2     		b	.L107
 2408              	.L116:
 2409              		.loc 1 785 0
 2410 114a 1B23     		movs	r3, #27
 2411 114c 8DF81C30 		strb	r3, [sp, #28]
 2412 1150 C523     		movs	r3, #197
 2413 1152 8DF81D30 		strb	r3, [sp, #29]
 2414 1156 D523     		movs	r3, #213
 2415 1158 8DF81E30 		strb	r3, [sp, #30]
 2416 115c A523     		movs	r3, #165
 2417 115e 8DF81F30 		strb	r3, [sp, #31]
 2418 1162 0223     		movs	r3, #2
 2419 1164 8DF82030 		strb	r3, [sp, #32]
 2420 1168 0023     		movs	r3, #0
 2421 116a 8DF82130 		strb	r3, [sp, #33]
 2422 116e 3623     		movs	r3, #54
 2423 1170 8DF82230 		strb	r3, [sp, #34]
 2424 1174 AC23     		movs	r3, #172
 2425 1176 8DF82330 		strb	r3, [sp, #35]
 2426 117a E123     		movs	r3, #225
 2427 117c 8DF82430 		strb	r3, [sp, #36]
 2428 1180 1123     		movs	r3, #17
 2429 1182 8DF82530 		strb	r3, [sp, #37]
 2430 1186 0123     		movs	r3, #1
 2431 1188 8DF82630 		strb	r3, [sp, #38]
 2432 118c 0023     		movs	r3, #0
 2433 118e 8DF82730 		strb	r3, [sp, #39]
 2434 1192 0023     		movs	r3, #0
 2435 1194 8DF82830 		strb	r3, [sp, #40]
 2436 1198 0123     		movs	r3, #1
 2437 119a 8DF82930 		strb	r3, [sp, #41]
 2438 119e 0023     		movs	r3, #0
 2439 11a0 8DF82A30 		strb	r3, [sp, #42]
 2440 11a4 0023     		movs	r3, #0
 2441 11a6 8DF82B30 		strb	r3, [sp, #43]
 2442              		.loc 1 786 0
 2443 11aa 374B     		ldr	r3, .L126
 2444 11ac 1A88     		ldrh	r2, [r3]
 2445 11ae 07AB     		add	r3, sp, #28
 2446 11b0 1021     		movs	r1, #16
 2447 11b2 0091     		str	r1, [sp]
 2448 11b4 0021     		movs	r1, #0
 2449 11b6 0191     		str	r1, [sp, #4]
 2450 11b8 0421     		movs	r1, #4
 2451 11ba 0291     		str	r1, [sp, #8]
ARM GAS  /tmp/ccNtBBEs.s 			page 45


 2452 11bc 1021     		movs	r1, #16
 2453 11be 0391     		str	r1, [sp, #12]
 2454 11c0 0021     		movs	r1, #0
 2455 11c2 0491     		str	r1, [sp, #16]
 2456 11c4 3549     		ldr	r1, .L126+20
 2457 11c6 0591     		str	r1, [sp, #20]
 2458 11c8 1046     		mov	r0, r2
 2459 11ca 0221     		movs	r1, #2
 2460 11cc 1A46     		mov	r2, r3
 2461 11ce 1423     		movs	r3, #20
 2462 11d0 FFF7FEFF 		bl	aci_gatt_add_char
 2463 11d4 0346     		mov	r3, r0
 2464 11d6 8DF82E30 		strb	r3, [sp, #46]
 2465              		.loc 1 792 0
 2466 11da 9DF82E30 		ldrb	r3, [sp, #46]	@ zero_extendqisi2
 2467 11de 002B     		cmp	r3, #0
 2468 11e0 00D0     		beq	.L117
 2469              		.loc 1 793 0
 2470 11e2 DCE1     		b	.L107
 2471              	.L117:
 2472              		.loc 1 797 0
 2473 11e4 2B4B     		ldr	r3, .L126+12
 2474 11e6 93F82D30 		ldrb	r3, [r3, #45]	@ zero_extendqisi2
 2475 11ea 012B     		cmp	r3, #1
 2476 11ec 5AD1     		bne	.L118
 2477              		.loc 1 799 0
 2478 11ee 1B23     		movs	r3, #27
 2479 11f0 8DF81C30 		strb	r3, [sp, #28]
 2480 11f4 C523     		movs	r3, #197
 2481 11f6 8DF81D30 		strb	r3, [sp, #29]
 2482 11fa D523     		movs	r3, #213
 2483 11fc 8DF81E30 		strb	r3, [sp, #30]
 2484 1200 A523     		movs	r3, #165
 2485 1202 8DF81F30 		strb	r3, [sp, #31]
 2486 1206 0223     		movs	r3, #2
 2487 1208 8DF82030 		strb	r3, [sp, #32]
 2488 120c 0023     		movs	r3, #0
 2489 120e 8DF82130 		strb	r3, [sp, #33]
 2490 1212 3623     		movs	r3, #54
 2491 1214 8DF82230 		strb	r3, [sp, #34]
 2492 1218 AC23     		movs	r3, #172
 2493 121a 8DF82330 		strb	r3, [sp, #35]
 2494 121e E123     		movs	r3, #225
 2495 1220 8DF82430 		strb	r3, [sp, #36]
 2496 1224 1123     		movs	r3, #17
 2497 1226 8DF82530 		strb	r3, [sp, #37]
 2498 122a 0123     		movs	r3, #1
 2499 122c 8DF82630 		strb	r3, [sp, #38]
 2500 1230 0023     		movs	r3, #0
 2501 1232 8DF82730 		strb	r3, [sp, #39]
 2502 1236 4023     		movs	r3, #64
 2503 1238 8DF82830 		strb	r3, [sp, #40]
 2504 123c 0023     		movs	r3, #0
 2505 123e 8DF82930 		strb	r3, [sp, #41]
 2506 1242 0023     		movs	r3, #0
 2507 1244 8DF82A30 		strb	r3, [sp, #42]
 2508 1248 0023     		movs	r3, #0
ARM GAS  /tmp/ccNtBBEs.s 			page 46


 2509 124a 8DF82B30 		strb	r3, [sp, #43]
 2510              		.loc 1 800 0
 2511 124e 0E4B     		ldr	r3, .L126
 2512 1250 1A88     		ldrh	r2, [r3]
 2513 1252 07AB     		add	r3, sp, #28
 2514 1254 1021     		movs	r1, #16
 2515 1256 0091     		str	r1, [sp]
 2516 1258 0021     		movs	r1, #0
 2517 125a 0191     		str	r1, [sp, #4]
 2518 125c 0421     		movs	r1, #4
 2519 125e 0291     		str	r1, [sp, #8]
 2520 1260 1021     		movs	r1, #16
 2521 1262 0391     		str	r1, [sp, #12]
 2522 1264 0021     		movs	r1, #0
 2523 1266 0491     		str	r1, [sp, #16]
 2524 1268 0D49     		ldr	r1, .L126+24
 2525 126a 0591     		str	r1, [sp, #20]
 2526 126c 1046     		mov	r0, r2
 2527 126e 0221     		movs	r1, #2
 2528 1270 1A46     		mov	r2, r3
 2529 1272 0423     		movs	r3, #4
 2530 1274 FFF7FEFF 		bl	aci_gatt_add_char
 2531 1278 0346     		mov	r3, r0
 2532 127a 8DF82E30 		strb	r3, [sp, #46]
 2533              		.loc 1 806 0
 2534 127e 9DF82E30 		ldrb	r3, [sp, #46]	@ zero_extendqisi2
 2535 1282 002B     		cmp	r3, #0
 2536 1284 0ED0     		beq	.L118
 2537              		.loc 1 807 0
 2538 1286 8AE1     		b	.L107
 2539              	.L127:
 2540              		.align	2
 2541              	.L126:
 2542 1288 04000000 		.word	HWServW2STHandle
 2543 128c 0A000000 		.word	AccEventCharHandle
 2544 1290 0C000000 		.word	AudioLevelCharHandle
 2545 1294 00000000 		.word	TargetBoardFeatures
 2546 1298 0E000000 		.word	GGCharHandle
 2547 129c 10000000 		.word	QuaternionsCharHandle
 2548 12a0 12000000 		.word	ECompassCharHandle
 2549              	.L118:
 2550              		.loc 1 813 0
 2551 12a4 1B23     		movs	r3, #27
 2552 12a6 8DF81C30 		strb	r3, [sp, #28]
 2553 12aa C523     		movs	r3, #197
 2554 12ac 8DF81D30 		strb	r3, [sp, #29]
 2555 12b0 D523     		movs	r3, #213
 2556 12b2 8DF81E30 		strb	r3, [sp, #30]
 2557 12b6 A523     		movs	r3, #165
 2558 12b8 8DF81F30 		strb	r3, [sp, #31]
 2559 12bc 0223     		movs	r3, #2
 2560 12be 8DF82030 		strb	r3, [sp, #32]
 2561 12c2 0023     		movs	r3, #0
 2562 12c4 8DF82130 		strb	r3, [sp, #33]
 2563 12c8 3623     		movs	r3, #54
 2564 12ca 8DF82230 		strb	r3, [sp, #34]
 2565 12ce AC23     		movs	r3, #172
ARM GAS  /tmp/ccNtBBEs.s 			page 47


 2566 12d0 8DF82330 		strb	r3, [sp, #35]
 2567 12d4 E123     		movs	r3, #225
 2568 12d6 8DF82430 		strb	r3, [sp, #36]
 2569 12da 1123     		movs	r3, #17
 2570 12dc 8DF82530 		strb	r3, [sp, #37]
 2571 12e0 0123     		movs	r3, #1
 2572 12e2 8DF82630 		strb	r3, [sp, #38]
 2573 12e6 0023     		movs	r3, #0
 2574 12e8 8DF82730 		strb	r3, [sp, #39]
 2575 12ec 1023     		movs	r3, #16
 2576 12ee 8DF82830 		strb	r3, [sp, #40]
 2577 12f2 0023     		movs	r3, #0
 2578 12f4 8DF82930 		strb	r3, [sp, #41]
 2579 12f8 0023     		movs	r3, #0
 2580 12fa 8DF82A30 		strb	r3, [sp, #42]
 2581 12fe 0023     		movs	r3, #0
 2582 1300 8DF82B30 		strb	r3, [sp, #43]
 2583              		.loc 1 814 0
 2584 1304 A84B     		ldr	r3, .L128
 2585 1306 1A88     		ldrh	r2, [r3]
 2586 1308 07AB     		add	r3, sp, #28
 2587 130a 1221     		movs	r1, #18
 2588 130c 0091     		str	r1, [sp]
 2589 130e 0021     		movs	r1, #0
 2590 1310 0191     		str	r1, [sp, #4]
 2591 1312 0421     		movs	r1, #4
 2592 1314 0291     		str	r1, [sp, #8]
 2593 1316 1021     		movs	r1, #16
 2594 1318 0391     		str	r1, [sp, #12]
 2595 131a 0021     		movs	r1, #0
 2596 131c 0491     		str	r1, [sp, #16]
 2597 131e A349     		ldr	r1, .L128+4
 2598 1320 0591     		str	r1, [sp, #20]
 2599 1322 1046     		mov	r0, r2
 2600 1324 0221     		movs	r1, #2
 2601 1326 1A46     		mov	r2, r3
 2602 1328 0323     		movs	r3, #3
 2603 132a FFF7FEFF 		bl	aci_gatt_add_char
 2604 132e 0346     		mov	r3, r0
 2605 1330 8DF82E30 		strb	r3, [sp, #46]
 2606              		.loc 1 820 0
 2607 1334 9DF82E30 		ldrb	r3, [sp, #46]	@ zero_extendqisi2
 2608 1338 002B     		cmp	r3, #0
 2609 133a 00D0     		beq	.L119
 2610              		.loc 1 821 0
 2611 133c 2FE1     		b	.L107
 2612              	.L119:
 2613              		.loc 1 826 0
 2614 133e 1B23     		movs	r3, #27
 2615 1340 8DF81C30 		strb	r3, [sp, #28]
 2616 1344 C523     		movs	r3, #197
 2617 1346 8DF81D30 		strb	r3, [sp, #29]
 2618 134a D523     		movs	r3, #213
 2619 134c 8DF81E30 		strb	r3, [sp, #30]
 2620 1350 A523     		movs	r3, #165
 2621 1352 8DF81F30 		strb	r3, [sp, #31]
 2622 1356 0223     		movs	r3, #2
ARM GAS  /tmp/ccNtBBEs.s 			page 48


 2623 1358 8DF82030 		strb	r3, [sp, #32]
 2624 135c 0023     		movs	r3, #0
 2625 135e 8DF82130 		strb	r3, [sp, #33]
 2626 1362 3623     		movs	r3, #54
 2627 1364 8DF82230 		strb	r3, [sp, #34]
 2628 1368 AC23     		movs	r3, #172
 2629 136a 8DF82330 		strb	r3, [sp, #35]
 2630 136e E123     		movs	r3, #225
 2631 1370 8DF82430 		strb	r3, [sp, #36]
 2632 1374 1123     		movs	r3, #17
 2633 1376 8DF82530 		strb	r3, [sp, #37]
 2634 137a 0123     		movs	r3, #1
 2635 137c 8DF82630 		strb	r3, [sp, #38]
 2636 1380 0023     		movs	r3, #0
 2637 1382 8DF82730 		strb	r3, [sp, #39]
 2638 1386 0823     		movs	r3, #8
 2639 1388 8DF82830 		strb	r3, [sp, #40]
 2640 138c 0023     		movs	r3, #0
 2641 138e 8DF82930 		strb	r3, [sp, #41]
 2642 1392 0023     		movs	r3, #0
 2643 1394 8DF82A30 		strb	r3, [sp, #42]
 2644 1398 0023     		movs	r3, #0
 2645 139a 8DF82B30 		strb	r3, [sp, #43]
 2646              		.loc 1 827 0
 2647 139e 824B     		ldr	r3, .L128
 2648 13a0 1A88     		ldrh	r2, [r3]
 2649 13a2 07AB     		add	r3, sp, #28
 2650 13a4 1221     		movs	r1, #18
 2651 13a6 0091     		str	r1, [sp]
 2652 13a8 0021     		movs	r1, #0
 2653 13aa 0191     		str	r1, [sp, #4]
 2654 13ac 0421     		movs	r1, #4
 2655 13ae 0291     		str	r1, [sp, #8]
 2656 13b0 1021     		movs	r1, #16
 2657 13b2 0391     		str	r1, [sp, #12]
 2658 13b4 0021     		movs	r1, #0
 2659 13b6 0491     		str	r1, [sp, #16]
 2660 13b8 7D49     		ldr	r1, .L128+8
 2661 13ba 0591     		str	r1, [sp, #20]
 2662 13bc 1046     		mov	r0, r2
 2663 13be 0221     		movs	r1, #2
 2664 13c0 1A46     		mov	r2, r3
 2665 13c2 0323     		movs	r3, #3
 2666 13c4 FFF7FEFF 		bl	aci_gatt_add_char
 2667 13c8 0346     		mov	r3, r0
 2668 13ca 8DF82E30 		strb	r3, [sp, #46]
 2669              		.loc 1 833 0
 2670 13ce 9DF82E30 		ldrb	r3, [sp, #46]	@ zero_extendqisi2
 2671 13d2 002B     		cmp	r3, #0
 2672 13d4 00D0     		beq	.L120
 2673              		.loc 1 834 0
 2674 13d6 E2E0     		b	.L107
 2675              	.L120:
 2676              		.loc 1 839 0
 2677 13d8 1B23     		movs	r3, #27
 2678 13da 8DF81C30 		strb	r3, [sp, #28]
 2679 13de C523     		movs	r3, #197
ARM GAS  /tmp/ccNtBBEs.s 			page 49


 2680 13e0 8DF81D30 		strb	r3, [sp, #29]
 2681 13e4 D523     		movs	r3, #213
 2682 13e6 8DF81E30 		strb	r3, [sp, #30]
 2683 13ea A523     		movs	r3, #165
 2684 13ec 8DF81F30 		strb	r3, [sp, #31]
 2685 13f0 0223     		movs	r3, #2
 2686 13f2 8DF82030 		strb	r3, [sp, #32]
 2687 13f6 0023     		movs	r3, #0
 2688 13f8 8DF82130 		strb	r3, [sp, #33]
 2689 13fc 3623     		movs	r3, #54
 2690 13fe 8DF82230 		strb	r3, [sp, #34]
 2691 1402 AC23     		movs	r3, #172
 2692 1404 8DF82330 		strb	r3, [sp, #35]
 2693 1408 E123     		movs	r3, #225
 2694 140a 8DF82430 		strb	r3, [sp, #36]
 2695 140e 1123     		movs	r3, #17
 2696 1410 8DF82530 		strb	r3, [sp, #37]
 2697 1414 0123     		movs	r3, #1
 2698 1416 8DF82630 		strb	r3, [sp, #38]
 2699 141a 0023     		movs	r3, #0
 2700 141c 8DF82730 		strb	r3, [sp, #39]
 2701 1420 0223     		movs	r3, #2
 2702 1422 8DF82830 		strb	r3, [sp, #40]
 2703 1426 0023     		movs	r3, #0
 2704 1428 8DF82930 		strb	r3, [sp, #41]
 2705 142c 0023     		movs	r3, #0
 2706 142e 8DF82A30 		strb	r3, [sp, #42]
 2707 1432 0023     		movs	r3, #0
 2708 1434 8DF82B30 		strb	r3, [sp, #43]
 2709              		.loc 1 840 0
 2710 1438 5B4B     		ldr	r3, .L128
 2711 143a 1A88     		ldrh	r2, [r3]
 2712 143c 07AB     		add	r3, sp, #28
 2713 143e 1221     		movs	r1, #18
 2714 1440 0091     		str	r1, [sp]
 2715 1442 0021     		movs	r1, #0
 2716 1444 0191     		str	r1, [sp, #4]
 2717 1446 0421     		movs	r1, #4
 2718 1448 0291     		str	r1, [sp, #8]
 2719 144a 1021     		movs	r1, #16
 2720 144c 0391     		str	r1, [sp, #12]
 2721 144e 0021     		movs	r1, #0
 2722 1450 0491     		str	r1, [sp, #16]
 2723 1452 5849     		ldr	r1, .L128+12
 2724 1454 0591     		str	r1, [sp, #20]
 2725 1456 1046     		mov	r0, r2
 2726 1458 0221     		movs	r1, #2
 2727 145a 1A46     		mov	r2, r3
 2728 145c 0323     		movs	r3, #3
 2729 145e FFF7FEFF 		bl	aci_gatt_add_char
 2730 1462 0346     		mov	r3, r0
 2731 1464 8DF82E30 		strb	r3, [sp, #46]
 2732              		.loc 1 846 0
 2733 1468 9DF82E30 		ldrb	r3, [sp, #46]	@ zero_extendqisi2
 2734 146c 002B     		cmp	r3, #0
 2735 146e 00D0     		beq	.L121
 2736              		.loc 1 847 0
ARM GAS  /tmp/ccNtBBEs.s 			page 50


 2737 1470 95E0     		b	.L107
 2738              	.L121:
 2739              		.loc 1 865 0
 2740 1472 4D4B     		ldr	r3, .L128
 2741 1474 1A88     		ldrh	r2, [r3]
 2742 1476 504B     		ldr	r3, .L128+16
 2743 1478 1A80     		strh	r2, [r3]	@ movhi
 2744              		.loc 1 867 0
 2745 147a 1B23     		movs	r3, #27
 2746 147c 8DF81C30 		strb	r3, [sp, #28]
 2747 1480 C523     		movs	r3, #197
 2748 1482 8DF81D30 		strb	r3, [sp, #29]
 2749 1486 D523     		movs	r3, #213
 2750 1488 8DF81E30 		strb	r3, [sp, #30]
 2751 148c A523     		movs	r3, #165
 2752 148e 8DF81F30 		strb	r3, [sp, #31]
 2753 1492 0223     		movs	r3, #2
 2754 1494 8DF82030 		strb	r3, [sp, #32]
 2755 1498 0023     		movs	r3, #0
 2756 149a 8DF82130 		strb	r3, [sp, #33]
 2757 149e 3623     		movs	r3, #54
 2758 14a0 8DF82230 		strb	r3, [sp, #34]
 2759 14a4 AC23     		movs	r3, #172
 2760 14a6 8DF82330 		strb	r3, [sp, #35]
 2761 14aa E123     		movs	r3, #225
 2762 14ac 8DF82430 		strb	r3, [sp, #36]
 2763 14b0 1123     		movs	r3, #17
 2764 14b2 8DF82530 		strb	r3, [sp, #37]
 2765 14b6 0123     		movs	r3, #1
 2766 14b8 8DF82630 		strb	r3, [sp, #38]
 2767 14bc 0023     		movs	r3, #0
 2768 14be 8DF82730 		strb	r3, [sp, #39]
 2769 14c2 0023     		movs	r3, #0
 2770 14c4 8DF82830 		strb	r3, [sp, #40]
 2771 14c8 0023     		movs	r3, #0
 2772 14ca 8DF82930 		strb	r3, [sp, #41]
 2773 14ce 0023     		movs	r3, #0
 2774 14d0 8DF82A30 		strb	r3, [sp, #42]
 2775 14d4 0823     		movs	r3, #8
 2776 14d6 8DF82B30 		strb	r3, [sp, #43]
 2777              		.loc 1 868 0
 2778 14da 334B     		ldr	r3, .L128
 2779 14dc 1A88     		ldrh	r2, [r3]
 2780 14de 07AB     		add	r3, sp, #28
 2781 14e0 1021     		movs	r1, #16
 2782 14e2 0091     		str	r1, [sp]
 2783 14e4 0021     		movs	r1, #0
 2784 14e6 0191     		str	r1, [sp, #4]
 2785 14e8 0021     		movs	r1, #0
 2786 14ea 0291     		str	r1, [sp, #8]
 2787 14ec 1021     		movs	r1, #16
 2788 14ee 0391     		str	r1, [sp, #12]
 2789 14f0 0121     		movs	r1, #1
 2790 14f2 0491     		str	r1, [sp, #16]
 2791 14f4 3149     		ldr	r1, .L128+20
 2792 14f6 0591     		str	r1, [sp, #20]
 2793 14f8 1046     		mov	r0, r2
ARM GAS  /tmp/ccNtBBEs.s 			page 51


 2794 14fa 0221     		movs	r1, #2
 2795 14fc 1A46     		mov	r2, r3
 2796 14fe 1423     		movs	r3, #20
 2797 1500 FFF7FEFF 		bl	aci_gatt_add_char
 2798 1504 0346     		mov	r3, r0
 2799 1506 8DF82E30 		strb	r3, [sp, #46]
 2800              		.loc 1 873 0
 2801 150a 1B23     		movs	r3, #27
 2802 150c 8DF81C30 		strb	r3, [sp, #28]
 2803 1510 C523     		movs	r3, #197
 2804 1512 8DF81D30 		strb	r3, [sp, #29]
 2805 1516 D523     		movs	r3, #213
 2806 1518 8DF81E30 		strb	r3, [sp, #30]
 2807 151c A523     		movs	r3, #165
 2808 151e 8DF81F30 		strb	r3, [sp, #31]
 2809 1522 0223     		movs	r3, #2
 2810 1524 8DF82030 		strb	r3, [sp, #32]
 2811 1528 0023     		movs	r3, #0
 2812 152a 8DF82130 		strb	r3, [sp, #33]
 2813 152e 3623     		movs	r3, #54
 2814 1530 8DF82230 		strb	r3, [sp, #34]
 2815 1534 AC23     		movs	r3, #172
 2816 1536 8DF82330 		strb	r3, [sp, #35]
 2817 153a E123     		movs	r3, #225
 2818 153c 8DF82430 		strb	r3, [sp, #36]
 2819 1540 1123     		movs	r3, #17
 2820 1542 8DF82530 		strb	r3, [sp, #37]
 2821 1546 0123     		movs	r3, #1
 2822 1548 8DF82630 		strb	r3, [sp, #38]
 2823 154c 0023     		movs	r3, #0
 2824 154e 8DF82730 		strb	r3, [sp, #39]
 2825 1552 0023     		movs	r3, #0
 2826 1554 8DF82830 		strb	r3, [sp, #40]
 2827 1558 0023     		movs	r3, #0
 2828 155a 8DF82930 		strb	r3, [sp, #41]
 2829 155e 0023     		movs	r3, #0
 2830 1560 8DF82A30 		strb	r3, [sp, #42]
 2831 1564 4023     		movs	r3, #64
 2832 1566 8DF82B30 		strb	r3, [sp, #43]
 2833              		.loc 1 874 0
 2834 156a 0F4B     		ldr	r3, .L128
 2835 156c 1A88     		ldrh	r2, [r3]
 2836 156e 07AB     		add	r3, sp, #28
 2837 1570 1021     		movs	r1, #16
 2838 1572 0091     		str	r1, [sp]
 2839 1574 0021     		movs	r1, #0
 2840 1576 0191     		str	r1, [sp, #4]
 2841 1578 0021     		movs	r1, #0
 2842 157a 0291     		str	r1, [sp, #8]
 2843 157c 1021     		movs	r1, #16
 2844 157e 0391     		str	r1, [sp, #12]
 2845 1580 0121     		movs	r1, #1
 2846 1582 0491     		str	r1, [sp, #16]
 2847 1584 0E49     		ldr	r1, .L128+24
 2848 1586 0591     		str	r1, [sp, #20]
 2849 1588 1046     		mov	r0, r2
 2850 158a 0221     		movs	r1, #2
ARM GAS  /tmp/ccNtBBEs.s 			page 52


 2851 158c 1A46     		mov	r2, r3
 2852 158e 0623     		movs	r3, #6
 2853 1590 FFF7FEFF 		bl	aci_gatt_add_char
 2854 1594 0346     		mov	r3, r0
 2855 1596 8DF82E30 		strb	r3, [sp, #46]
 2856              		.loc 1 880 0
 2857 159a 0023     		movs	r3, #0
 2858 159c 00E0     		b	.L123
 2859              	.L107:
 2860              		.loc 1 884 0
 2861 159e 4723     		movs	r3, #71
 2862              	.L123:
 2863              		.loc 1 885 0
 2864 15a0 1846     		mov	r0, r3
 2865 15a2 0DB0     		add	sp, sp, #52
 2866              		@ sp needed
 2867 15a4 5DF804FB 		ldr	pc, [sp], #4
 2868              	.L129:
 2869              		.align	2
 2870              	.L128:
 2871 15a8 04000000 		.word	HWServW2STHandle
 2872 15ac 14000000 		.word	ActivityRecCharHandle
 2873 15b0 16000000 		.word	CarryPosRecCharHandle
 2874 15b4 18000000 		.word	GestureRecCharHandle
 2875 15b8 00000000 		.word	BLUEVOICE_tx_handle
 2876 15bc 02000000 		.word	BLUEVOICE_tx_handle+2
 2877 15c0 04000000 		.word	BLUEVOICE_tx_handle+4
 2878              		.cfi_endproc
 2879              	.LFE283:
 2880              		.size	Add_HW_SW_ServW2ST_Service, .-Add_HW_SW_ServW2ST_Service
 2881              		.section	.rodata
 2882 0112 0000     		.align	2
 2883              	.LC10:
 2884 0114 4572726F 		.ascii	"Error Updating Acc/Gyro/Mag Char\015\012\000"
 2884      72205570 
 2884      64617469 
 2884      6E672041 
 2884      63632F47 
 2885              		.text
 2886              		.align	2
 2887 15c4 AFF30080 		.p2align 4,,15
 2887      AFF30080 
 2887      AFF30080 
 2888              		.global	AccGyroMag_Update
 2889              		.thumb
 2890              		.thumb_func
 2891              		.type	AccGyroMag_Update, %function
 2892              	AccGyroMag_Update:
 2893              	.LFB284:
 2894              		.loc 1 895 0
 2895              		.cfi_startproc
 2896              		@ args = 0, pretend = 0, frame = 56
 2897              		@ frame_needed = 0, uses_anonymous_args = 0
 2898 15d0 F0B5     		push	{r4, r5, r6, r7, lr}
 2899              		.cfi_def_cfa_offset 20
 2900              		.cfi_offset 4, -20
 2901              		.cfi_offset 5, -16
ARM GAS  /tmp/ccNtBBEs.s 			page 53


 2902              		.cfi_offset 6, -12
 2903              		.cfi_offset 7, -8
 2904              		.cfi_offset 14, -4
 2905 15d2 91B0     		sub	sp, sp, #68
 2906              		.cfi_def_cfa_offset 88
 2907 15d4 0590     		str	r0, [sp, #20]
 2908 15d6 0491     		str	r1, [sp, #16]
 2909 15d8 0392     		str	r2, [sp, #12]
 2910              		.loc 1 903 0
 2911 15da FFF7FEFF 		bl	HAL_GetTick
 2912 15de 0346     		mov	r3, r0
 2913 15e0 DB08     		lsrs	r3, r3, #3
 2914 15e2 DBB2     		uxtb	r3, r3
 2915 15e4 8DF81C30 		strb	r3, [sp, #28]
 2916 15e8 FFF7FEFF 		bl	HAL_GetTick
 2917 15ec 0346     		mov	r3, r0
 2918 15ee DB0A     		lsrs	r3, r3, #11
 2919 15f0 DBB2     		uxtb	r3, r3
 2920 15f2 8DF81D30 		strb	r3, [sp, #29]
 2921              		.loc 1 905 0
 2922 15f6 059B     		ldr	r3, [sp, #20]
 2923 15f8 1B68     		ldr	r3, [r3]
 2924 15fa DBB2     		uxtb	r3, r3
 2925 15fc 8DF81E30 		strb	r3, [sp, #30]
 2926 1600 059B     		ldr	r3, [sp, #20]
 2927 1602 1B68     		ldr	r3, [r3]
 2928 1604 1B12     		asrs	r3, r3, #8
 2929 1606 DBB2     		uxtb	r3, r3
 2930 1608 8DF81F30 		strb	r3, [sp, #31]
 2931              		.loc 1 906 0
 2932 160c 059B     		ldr	r3, [sp, #20]
 2933 160e 5B68     		ldr	r3, [r3, #4]
 2934 1610 DBB2     		uxtb	r3, r3
 2935 1612 8DF82030 		strb	r3, [sp, #32]
 2936 1616 059B     		ldr	r3, [sp, #20]
 2937 1618 5B68     		ldr	r3, [r3, #4]
 2938 161a 1B12     		asrs	r3, r3, #8
 2939 161c DBB2     		uxtb	r3, r3
 2940 161e 8DF82130 		strb	r3, [sp, #33]
 2941              		.loc 1 907 0
 2942 1622 059B     		ldr	r3, [sp, #20]
 2943 1624 9B68     		ldr	r3, [r3, #8]
 2944 1626 DBB2     		uxtb	r3, r3
 2945 1628 8DF82230 		strb	r3, [sp, #34]
 2946 162c 059B     		ldr	r3, [sp, #20]
 2947 162e 9B68     		ldr	r3, [r3, #8]
 2948 1630 1B12     		asrs	r3, r3, #8
 2949 1632 DBB2     		uxtb	r3, r3
 2950 1634 8DF82330 		strb	r3, [sp, #35]
 2951              		.loc 1 909 0
 2952 1638 049B     		ldr	r3, [sp, #16]
 2953 163a 1B68     		ldr	r3, [r3]
 2954 163c 564A     		ldr	r2, .L136
 2955 163e 82FB0312 		smull	r1, r2, r2, r3
 2956 1642 5211     		asrs	r2, r2, #5
 2957 1644 DB17     		asrs	r3, r3, #31
 2958 1646 D21A     		subs	r2, r2, r3
ARM GAS  /tmp/ccNtBBEs.s 			page 54


 2959 1648 049B     		ldr	r3, [sp, #16]
 2960 164a 1A60     		str	r2, [r3]
 2961              		.loc 1 910 0
 2962 164c 049B     		ldr	r3, [sp, #16]
 2963 164e 5B68     		ldr	r3, [r3, #4]
 2964 1650 514A     		ldr	r2, .L136
 2965 1652 82FB0312 		smull	r1, r2, r2, r3
 2966 1656 5211     		asrs	r2, r2, #5
 2967 1658 DB17     		asrs	r3, r3, #31
 2968 165a D21A     		subs	r2, r2, r3
 2969 165c 049B     		ldr	r3, [sp, #16]
 2970 165e 5A60     		str	r2, [r3, #4]
 2971              		.loc 1 911 0
 2972 1660 049B     		ldr	r3, [sp, #16]
 2973 1662 9B68     		ldr	r3, [r3, #8]
 2974 1664 4C4A     		ldr	r2, .L136
 2975 1666 82FB0312 		smull	r1, r2, r2, r3
 2976 166a 5211     		asrs	r2, r2, #5
 2977 166c DB17     		asrs	r3, r3, #31
 2978 166e D21A     		subs	r2, r2, r3
 2979 1670 049B     		ldr	r3, [sp, #16]
 2980 1672 9A60     		str	r2, [r3, #8]
 2981              		.loc 1 913 0
 2982 1674 049B     		ldr	r3, [sp, #16]
 2983 1676 1B68     		ldr	r3, [r3]
 2984 1678 DBB2     		uxtb	r3, r3
 2985 167a 8DF82430 		strb	r3, [sp, #36]
 2986 167e 049B     		ldr	r3, [sp, #16]
 2987 1680 1B68     		ldr	r3, [r3]
 2988 1682 1B12     		asrs	r3, r3, #8
 2989 1684 DBB2     		uxtb	r3, r3
 2990 1686 8DF82530 		strb	r3, [sp, #37]
 2991              		.loc 1 914 0
 2992 168a 049B     		ldr	r3, [sp, #16]
 2993 168c 5B68     		ldr	r3, [r3, #4]
 2994 168e DBB2     		uxtb	r3, r3
 2995 1690 8DF82630 		strb	r3, [sp, #38]
 2996 1694 049B     		ldr	r3, [sp, #16]
 2997 1696 5B68     		ldr	r3, [r3, #4]
 2998 1698 1B12     		asrs	r3, r3, #8
 2999 169a DBB2     		uxtb	r3, r3
 3000 169c 8DF82730 		strb	r3, [sp, #39]
 3001              		.loc 1 915 0
 3002 16a0 049B     		ldr	r3, [sp, #16]
 3003 16a2 9B68     		ldr	r3, [r3, #8]
 3004 16a4 DBB2     		uxtb	r3, r3
 3005 16a6 8DF82830 		strb	r3, [sp, #40]
 3006 16aa 049B     		ldr	r3, [sp, #16]
 3007 16ac 9B68     		ldr	r3, [r3, #8]
 3008 16ae 1B12     		asrs	r3, r3, #8
 3009 16b0 DBB2     		uxtb	r3, r3
 3010 16b2 8DF82930 		strb	r3, [sp, #41]
 3011              		.loc 1 918 0
 3012 16b6 039B     		ldr	r3, [sp, #12]
 3013 16b8 1A68     		ldr	r2, [r3]
 3014 16ba 384B     		ldr	r3, .L136+4
 3015 16bc 1B88     		ldrh	r3, [r3]
ARM GAS  /tmp/ccNtBBEs.s 			page 55


 3016 16be 1BB2     		sxth	r3, r3
 3017 16c0 D31A     		subs	r3, r2, r3
 3018 16c2 0F93     		str	r3, [sp, #60]
 3019              		.loc 1 919 0
 3020 16c4 039B     		ldr	r3, [sp, #12]
 3021 16c6 5A68     		ldr	r2, [r3, #4]
 3022 16c8 344B     		ldr	r3, .L136+4
 3023 16ca 5B88     		ldrh	r3, [r3, #2]
 3024 16cc 1BB2     		sxth	r3, r3
 3025 16ce D31A     		subs	r3, r2, r3
 3026 16d0 0E93     		str	r3, [sp, #56]
 3027              		.loc 1 920 0
 3028 16d2 039B     		ldr	r3, [sp, #12]
 3029 16d4 9A68     		ldr	r2, [r3, #8]
 3030 16d6 314B     		ldr	r3, .L136+4
 3031 16d8 9B88     		ldrh	r3, [r3, #4]
 3032 16da 1BB2     		sxth	r3, r3
 3033 16dc D31A     		subs	r3, r2, r3
 3034 16de 0D93     		str	r3, [sp, #52]
 3035              		.loc 1 922 0
 3036 16e0 0F9B     		ldr	r3, [sp, #60]
 3037 16e2 DBB2     		uxtb	r3, r3
 3038 16e4 8DF82A30 		strb	r3, [sp, #42]
 3039 16e8 0F9B     		ldr	r3, [sp, #60]
 3040 16ea 1B12     		asrs	r3, r3, #8
 3041 16ec DBB2     		uxtb	r3, r3
 3042 16ee 8DF82B30 		strb	r3, [sp, #43]
 3043              		.loc 1 923 0
 3044 16f2 0E9B     		ldr	r3, [sp, #56]
 3045 16f4 DBB2     		uxtb	r3, r3
 3046 16f6 8DF82C30 		strb	r3, [sp, #44]
 3047 16fa 0E9B     		ldr	r3, [sp, #56]
 3048 16fc 1B12     		asrs	r3, r3, #8
 3049 16fe DBB2     		uxtb	r3, r3
 3050 1700 8DF82D30 		strb	r3, [sp, #45]
 3051              		.loc 1 924 0
 3052 1704 0D9B     		ldr	r3, [sp, #52]
 3053 1706 DBB2     		uxtb	r3, r3
 3054 1708 8DF82E30 		strb	r3, [sp, #46]
 3055 170c 0D9B     		ldr	r3, [sp, #52]
 3056 170e 1B12     		asrs	r3, r3, #8
 3057 1710 DBB2     		uxtb	r3, r3
 3058 1712 8DF82F30 		strb	r3, [sp, #47]
 3059              		.loc 1 926 0
 3060 1716 224B     		ldr	r3, .L136+8
 3061 1718 1A88     		ldrh	r2, [r3]
 3062 171a 224B     		ldr	r3, .L136+12
 3063 171c 1B88     		ldrh	r3, [r3]
 3064 171e 07A9     		add	r1, sp, #28
 3065 1720 0091     		str	r1, [sp]
 3066 1722 1046     		mov	r0, r2
 3067 1724 1946     		mov	r1, r3
 3068 1726 0022     		movs	r2, #0
 3069 1728 1423     		movs	r3, #20
 3070 172a FFF7FEFF 		bl	safe_aci_gatt_update_char_value
 3071 172e 0346     		mov	r3, r0
 3072 1730 8DF83330 		strb	r3, [sp, #51]
ARM GAS  /tmp/ccNtBBEs.s 			page 56


 3073              		.loc 1 928 0
 3074 1734 9DF83330 		ldrb	r3, [sp, #51]	@ zero_extendqisi2
 3075 1738 002B     		cmp	r3, #0
 3076 173a 28D0     		beq	.L131
 3077              		.loc 1 929 0
 3078 173c 1A4B     		ldr	r3, .L136+16
 3079 173e 1B68     		ldr	r3, [r3]
 3080 1740 03F40063 		and	r3, r3, #2048
 3081 1744 002B     		cmp	r3, #0
 3082 1746 20D0     		beq	.L132
 3083              		.loc 1 930 0
 3084 1748 184B     		ldr	r3, .L136+20
 3085 174a 194A     		ldr	r2, .L136+24
 3086 174c 1446     		mov	r4, r2
 3087 174e 1D46     		mov	r5, r3
 3088 1750 04F1200E 		add	lr, r4, #32
 3089              	.L133:
 3090 1754 2E46     		mov	r6, r5
 3091 1756 2746     		mov	r7, r4
 3092 1758 0FCF     		ldmia	r7!, {r0, r1, r2, r3}
 3093 175a 3060     		str	r0, [r6]	@ unaligned
 3094 175c 7160     		str	r1, [r6, #4]	@ unaligned
 3095 175e B260     		str	r2, [r6, #8]	@ unaligned
 3096 1760 F360     		str	r3, [r6, #12]	@ unaligned
 3097 1762 1034     		adds	r4, r4, #16
 3098 1764 1035     		adds	r5, r5, #16
 3099 1766 7445     		cmp	r4, lr
 3100 1768 F4D1     		bne	.L133
 3101 176a 2B46     		mov	r3, r5
 3102 176c 2246     		mov	r2, r4
 3103 176e 1188     		ldrh	r1, [r2]	@ unaligned
 3104 1770 9278     		ldrb	r2, [r2, #2]
 3105 1772 1980     		strh	r1, [r3]	@ unaligned
 3106 1774 9A70     		strb	r2, [r3, #2]
 3107 1776 0F4B     		ldr	r3, .L136+28
 3108 1778 2222     		movs	r2, #34
 3109 177a 1A60     		str	r2, [r3]
 3110              		.loc 1 931 0
 3111 177c 0D4B     		ldr	r3, .L136+28
 3112 177e 1B68     		ldr	r3, [r3]
 3113 1780 DBB2     		uxtb	r3, r3
 3114 1782 0A48     		ldr	r0, .L136+20
 3115 1784 1946     		mov	r1, r3
 3116 1786 FFF7FEFF 		bl	Stderr_Update
 3117              	.L132:
 3118              		.loc 1 935 0
 3119 178a 4723     		movs	r3, #71
 3120 178c 00E0     		b	.L135
 3121              	.L131:
 3122              		.loc 1 937 0
 3123 178e 0023     		movs	r3, #0
 3124              	.L135:
 3125              		.loc 1 938 0
 3126 1790 1846     		mov	r0, r3
 3127 1792 11B0     		add	sp, sp, #68
 3128              		@ sp needed
 3129 1794 F0BD     		pop	{r4, r5, r6, r7, pc}
ARM GAS  /tmp/ccNtBBEs.s 			page 57


 3130              	.L137:
 3131 1796 00BF     		.align	2
 3132              	.L136:
 3133 1798 1F85EB51 		.word	1374389535
 3134 179c 00000000 		.word	magOffset
 3135 17a0 04000000 		.word	HWServW2STHandle
 3136 17a4 08000000 		.word	AccGyroMagCharHandle
 3137 17a8 00000000 		.word	ConnectionBleStatus
 3138 17ac 00000000 		.word	BufferToWrite
 3139 17b0 14010000 		.word	.LC10
 3140 17b4 00000000 		.word	BytesToWrite
 3141              		.cfi_endproc
 3142              	.LFE284:
 3143              		.size	AccGyroMag_Update, .-AccGyroMag_Update
 3144              		.section	.rodata
 3145 0137 00       		.align	2
 3146              	.LC11:
 3147 0138 4572726F 		.ascii	"Error Updating Environmental Char\015\012\000"
 3147      72205570 
 3147      64617469 
 3147      6E672045 
 3147      6E766972 
 3148              		.text
 3149              		.align	2
 3150 17b8 AFF30080 		.p2align 4,,15
 3150      AFF30080 
 3151              		.global	Environmental_Update
 3152              		.thumb
 3153              		.thumb_func
 3154              		.type	Environmental_Update, %function
 3155              	Environmental_Update:
 3156              	.LFB285:
 3157              		.loc 1 949 0
 3158              		.cfi_startproc
 3159              		@ args = 0, pretend = 0, frame = 32
 3160              		@ frame_needed = 0, uses_anonymous_args = 0
 3161 17c0 F0B5     		push	{r4, r5, r6, r7, lr}
 3162              		.cfi_def_cfa_offset 20
 3163              		.cfi_offset 4, -20
 3164              		.cfi_offset 5, -16
 3165              		.cfi_offset 6, -12
 3166              		.cfi_offset 7, -8
 3167              		.cfi_offset 14, -4
 3168 17c2 8BB0     		sub	sp, sp, #44
 3169              		.cfi_def_cfa_offset 64
 3170 17c4 0590     		str	r0, [sp, #20]
 3171 17c6 ADF81210 		strh	r1, [sp, #18]	@ movhi
 3172 17ca ADF81020 		strh	r2, [sp, #16]	@ movhi
 3173 17ce ADF80E30 		strh	r3, [sp, #14]	@ movhi
 3174              		.loc 1 955 0
 3175 17d2 FFF7FEFF 		bl	HAL_GetTick
 3176 17d6 0346     		mov	r3, r0
 3177 17d8 DB08     		lsrs	r3, r3, #3
 3178 17da DBB2     		uxtb	r3, r3
 3179 17dc 8DF81830 		strb	r3, [sp, #24]
 3180 17e0 FFF7FEFF 		bl	HAL_GetTick
 3181 17e4 0346     		mov	r3, r0
ARM GAS  /tmp/ccNtBBEs.s 			page 58


 3182 17e6 DB0A     		lsrs	r3, r3, #11
 3183 17e8 DBB2     		uxtb	r3, r3
 3184 17ea 8DF81930 		strb	r3, [sp, #25]
 3185              		.loc 1 956 0
 3186 17ee 0223     		movs	r3, #2
 3187 17f0 8DF82730 		strb	r3, [sp, #39]
 3188              		.loc 1 958 0
 3189 17f4 6B4B     		ldr	r3, .L148
 3190 17f6 1B69     		ldr	r3, [r3, #16]
 3191 17f8 002B     		cmp	r3, #0
 3192 17fa 26D0     		beq	.L139
 3193              		.loc 1 959 0
 3194 17fc 9DF82730 		ldrb	r3, [sp, #39]	@ zero_extendqisi2
 3195 1800 06AA     		add	r2, sp, #24
 3196 1802 1344     		add	r3, r3, r2
 3197 1804 059A     		ldr	r2, [sp, #20]
 3198 1806 D2B2     		uxtb	r2, r2
 3199 1808 1A70     		strb	r2, [r3]
 3200 180a 9DF82730 		ldrb	r3, [sp, #39]	@ zero_extendqisi2
 3201 180e 0133     		adds	r3, r3, #1
 3202 1810 06AA     		add	r2, sp, #24
 3203 1812 1344     		add	r3, r3, r2
 3204 1814 059A     		ldr	r2, [sp, #20]
 3205 1816 1212     		asrs	r2, r2, #8
 3206 1818 D2B2     		uxtb	r2, r2
 3207 181a 1A70     		strb	r2, [r3]
 3208 181c 9DF82730 		ldrb	r3, [sp, #39]	@ zero_extendqisi2
 3209 1820 0233     		adds	r3, r3, #2
 3210 1822 06AA     		add	r2, sp, #24
 3211 1824 1344     		add	r3, r3, r2
 3212 1826 059A     		ldr	r2, [sp, #20]
 3213 1828 1214     		asrs	r2, r2, #16
 3214 182a D2B2     		uxtb	r2, r2
 3215 182c 1A70     		strb	r2, [r3]
 3216 182e 9DF82730 		ldrb	r3, [sp, #39]	@ zero_extendqisi2
 3217 1832 0333     		adds	r3, r3, #3
 3218 1834 06AA     		add	r2, sp, #24
 3219 1836 1344     		add	r3, r3, r2
 3220 1838 059A     		ldr	r2, [sp, #20]
 3221 183a 1216     		asrs	r2, r2, #24
 3222 183c D2B2     		uxtb	r2, r2
 3223 183e 1A70     		strb	r2, [r3]
 3224              		.loc 1 960 0
 3225 1840 9DF82730 		ldrb	r3, [sp, #39]
 3226 1844 0433     		adds	r3, r3, #4
 3227 1846 8DF82730 		strb	r3, [sp, #39]
 3228              	.L139:
 3229              		.loc 1 963 0
 3230 184a 564B     		ldr	r3, .L148
 3231 184c 5B69     		ldr	r3, [r3, #20]
 3232 184e 002B     		cmp	r3, #0
 3233 1850 17D0     		beq	.L140
 3234              		.loc 1 964 0
 3235 1852 9DF82730 		ldrb	r3, [sp, #39]	@ zero_extendqisi2
 3236 1856 06AA     		add	r2, sp, #24
 3237 1858 1344     		add	r3, r3, r2
 3238 185a BDF81220 		ldrh	r2, [sp, #18]	@ movhi
ARM GAS  /tmp/ccNtBBEs.s 			page 59


 3239 185e D2B2     		uxtb	r2, r2
 3240 1860 1A70     		strb	r2, [r3]
 3241 1862 9DF82730 		ldrb	r3, [sp, #39]	@ zero_extendqisi2
 3242 1866 0133     		adds	r3, r3, #1
 3243 1868 06AA     		add	r2, sp, #24
 3244 186a 1344     		add	r3, r3, r2
 3245 186c BDF81220 		ldrh	r2, [sp, #18]
 3246 1870 120A     		lsrs	r2, r2, #8
 3247 1872 92B2     		uxth	r2, r2
 3248 1874 D2B2     		uxtb	r2, r2
 3249 1876 1A70     		strb	r2, [r3]
 3250              		.loc 1 965 0
 3251 1878 9DF82730 		ldrb	r3, [sp, #39]
 3252 187c 0233     		adds	r3, r3, #2
 3253 187e 8DF82730 		strb	r3, [sp, #39]
 3254              	.L140:
 3255              		.loc 1 968 0
 3256 1882 484B     		ldr	r3, .L148
 3257 1884 5B68     		ldr	r3, [r3, #4]
 3258 1886 022B     		cmp	r3, #2
 3259 1888 30D1     		bne	.L141
 3260              		.loc 1 969 0
 3261 188a 9DF82730 		ldrb	r3, [sp, #39]	@ zero_extendqisi2
 3262 188e 06AA     		add	r2, sp, #24
 3263 1890 1344     		add	r3, r3, r2
 3264 1892 BDF81020 		ldrh	r2, [sp, #16]	@ movhi
 3265 1896 D2B2     		uxtb	r2, r2
 3266 1898 1A70     		strb	r2, [r3]
 3267 189a 9DF82730 		ldrb	r3, [sp, #39]	@ zero_extendqisi2
 3268 189e 0133     		adds	r3, r3, #1
 3269 18a0 06AA     		add	r2, sp, #24
 3270 18a2 1344     		add	r3, r3, r2
 3271 18a4 BDF91020 		ldrsh	r2, [sp, #16]
 3272 18a8 1212     		asrs	r2, r2, #8
 3273 18aa 92B2     		uxth	r2, r2
 3274 18ac D2B2     		uxtb	r2, r2
 3275 18ae 1A70     		strb	r2, [r3]
 3276              		.loc 1 970 0
 3277 18b0 9DF82730 		ldrb	r3, [sp, #39]
 3278 18b4 0233     		adds	r3, r3, #2
 3279 18b6 8DF82730 		strb	r3, [sp, #39]
 3280              		.loc 1 972 0
 3281 18ba 9DF82730 		ldrb	r3, [sp, #39]	@ zero_extendqisi2
 3282 18be 06AA     		add	r2, sp, #24
 3283 18c0 1344     		add	r3, r3, r2
 3284 18c2 BDF80E20 		ldrh	r2, [sp, #14]	@ movhi
 3285 18c6 D2B2     		uxtb	r2, r2
 3286 18c8 1A70     		strb	r2, [r3]
 3287 18ca 9DF82730 		ldrb	r3, [sp, #39]	@ zero_extendqisi2
 3288 18ce 0133     		adds	r3, r3, #1
 3289 18d0 06AA     		add	r2, sp, #24
 3290 18d2 1344     		add	r3, r3, r2
 3291 18d4 BDF90E20 		ldrsh	r2, [sp, #14]
 3292 18d8 1212     		asrs	r2, r2, #8
 3293 18da 92B2     		uxth	r2, r2
 3294 18dc D2B2     		uxtb	r2, r2
 3295 18de 1A70     		strb	r2, [r3]
ARM GAS  /tmp/ccNtBBEs.s 			page 60


 3296              		.loc 1 973 0
 3297 18e0 9DF82730 		ldrb	r3, [sp, #39]
 3298 18e4 0233     		adds	r3, r3, #2
 3299 18e6 8DF82730 		strb	r3, [sp, #39]
 3300 18ea 1BE0     		b	.L142
 3301              	.L141:
 3302              		.loc 1 974 0
 3303 18ec 2D4B     		ldr	r3, .L148
 3304 18ee 5B68     		ldr	r3, [r3, #4]
 3305 18f0 012B     		cmp	r3, #1
 3306 18f2 17D1     		bne	.L142
 3307              		.loc 1 975 0
 3308 18f4 9DF82730 		ldrb	r3, [sp, #39]	@ zero_extendqisi2
 3309 18f8 06AA     		add	r2, sp, #24
 3310 18fa 1344     		add	r3, r3, r2
 3311 18fc BDF80E20 		ldrh	r2, [sp, #14]	@ movhi
 3312 1900 D2B2     		uxtb	r2, r2
 3313 1902 1A70     		strb	r2, [r3]
 3314 1904 9DF82730 		ldrb	r3, [sp, #39]	@ zero_extendqisi2
 3315 1908 0133     		adds	r3, r3, #1
 3316 190a 06AA     		add	r2, sp, #24
 3317 190c 1344     		add	r3, r3, r2
 3318 190e BDF90E20 		ldrsh	r2, [sp, #14]
 3319 1912 1212     		asrs	r2, r2, #8
 3320 1914 92B2     		uxth	r2, r2
 3321 1916 D2B2     		uxtb	r2, r2
 3322 1918 1A70     		strb	r2, [r3]
 3323              		.loc 1 976 0
 3324 191a 9DF82730 		ldrb	r3, [sp, #39]
 3325 191e 0233     		adds	r3, r3, #2
 3326 1920 8DF82730 		strb	r3, [sp, #39]
 3327              	.L142:
 3328              		.loc 1 979 0
 3329 1924 204B     		ldr	r3, .L148+4
 3330 1926 1988     		ldrh	r1, [r3]
 3331 1928 204B     		ldr	r3, .L148+8
 3332 192a 1A88     		ldrh	r2, [r3]
 3333 192c 204B     		ldr	r3, .L148+12
 3334 192e 1B78     		ldrb	r3, [r3]	@ zero_extendqisi2
 3335 1930 06A8     		add	r0, sp, #24
 3336 1932 0090     		str	r0, [sp]
 3337 1934 0846     		mov	r0, r1
 3338 1936 1146     		mov	r1, r2
 3339 1938 0022     		movs	r2, #0
 3340 193a FFF7FEFF 		bl	aci_gatt_update_char_value
 3341 193e 0346     		mov	r3, r0
 3342 1940 8DF82630 		strb	r3, [sp, #38]
 3343              		.loc 1 981 0
 3344 1944 9DF82630 		ldrb	r3, [sp, #38]	@ zero_extendqisi2
 3345 1948 002B     		cmp	r3, #0
 3346 194a 26D0     		beq	.L143
 3347              		.loc 1 982 0
 3348 194c 194B     		ldr	r3, .L148+16
 3349 194e 1B68     		ldr	r3, [r3]
 3350 1950 03F40063 		and	r3, r3, #2048
 3351 1954 002B     		cmp	r3, #0
 3352 1956 1ED0     		beq	.L144
ARM GAS  /tmp/ccNtBBEs.s 			page 61


 3353              		.loc 1 983 0
 3354 1958 174B     		ldr	r3, .L148+20
 3355 195a 184A     		ldr	r2, .L148+24
 3356 195c 1446     		mov	r4, r2
 3357 195e 1D46     		mov	r5, r3
 3358 1960 04F1200E 		add	lr, r4, #32
 3359              	.L145:
 3360 1964 2E46     		mov	r6, r5
 3361 1966 2746     		mov	r7, r4
 3362 1968 0FCF     		ldmia	r7!, {r0, r1, r2, r3}
 3363 196a 3060     		str	r0, [r6]	@ unaligned
 3364 196c 7160     		str	r1, [r6, #4]	@ unaligned
 3365 196e B260     		str	r2, [r6, #8]	@ unaligned
 3366 1970 F360     		str	r3, [r6, #12]	@ unaligned
 3367 1972 1034     		adds	r4, r4, #16
 3368 1974 1035     		adds	r5, r5, #16
 3369 1976 7445     		cmp	r4, lr
 3370 1978 F4D1     		bne	.L145
 3371 197a 2B46     		mov	r3, r5
 3372 197c 2246     		mov	r2, r4
 3373 197e 1068     		ldr	r0, [r2]	@ unaligned
 3374 1980 1860     		str	r0, [r3]	@ unaligned
 3375 1982 0F4B     		ldr	r3, .L148+28
 3376 1984 2322     		movs	r2, #35
 3377 1986 1A60     		str	r2, [r3]
 3378              		.loc 1 984 0
 3379 1988 0D4B     		ldr	r3, .L148+28
 3380 198a 1B68     		ldr	r3, [r3]
 3381 198c DBB2     		uxtb	r3, r3
 3382 198e 0A48     		ldr	r0, .L148+20
 3383 1990 1946     		mov	r1, r3
 3384 1992 FFF7FEFF 		bl	Stderr_Update
 3385              	.L144:
 3386              		.loc 1 988 0
 3387 1996 4723     		movs	r3, #71
 3388 1998 00E0     		b	.L147
 3389              	.L143:
 3390              		.loc 1 990 0
 3391 199a 0023     		movs	r3, #0
 3392              	.L147:
 3393              		.loc 1 991 0
 3394 199c 1846     		mov	r0, r3
 3395 199e 0BB0     		add	sp, sp, #44
 3396              		@ sp needed
 3397 19a0 F0BD     		pop	{r4, r5, r6, r7, pc}
 3398              	.L149:
 3399 19a2 00BF     		.align	2
 3400              	.L148:
 3401 19a4 00000000 		.word	TargetBoardFeatures
 3402 19a8 04000000 		.word	HWServW2STHandle
 3403 19ac 06000000 		.word	EnvironmentalCharHandle
 3404 19b0 01000000 		.word	EnvironmentalCharSize
 3405 19b4 00000000 		.word	ConnectionBleStatus
 3406 19b8 00000000 		.word	BufferToWrite
 3407 19bc 38010000 		.word	.LC11
 3408 19c0 00000000 		.word	BytesToWrite
 3409              		.cfi_endproc
ARM GAS  /tmp/ccNtBBEs.s 			page 62


 3410              	.LFE285:
 3411              		.size	Environmental_Update, .-Environmental_Update
 3412              		.section	.rodata
 3413              		.align	2
 3414              	.LC12:
 3415 015c 4572726F 		.ascii	"Error Updating Mic Char\015\012\000"
 3415      72205570 
 3415      64617469 
 3415      6E67204D 
 3415      69632043 
 3416              		.text
 3417              		.align	2
 3418 19c4 AFF30080 		.p2align 4,,15
 3418      AFF30080 
 3418      AFF30080 
 3419              		.global	AudioLevel_Update
 3420              		.thumb
 3421              		.thumb_func
 3422              		.type	AudioLevel_Update, %function
 3423              	AudioLevel_Update:
 3424              	.LFB286:
 3425              		.loc 1 999 0
 3426              		.cfi_startproc
 3427              		@ args = 0, pretend = 0, frame = 16
 3428              		@ frame_needed = 0, uses_anonymous_args = 0
 3429 19d0 30B5     		push	{r4, r5, lr}
 3430              		.cfi_def_cfa_offset 12
 3431              		.cfi_offset 4, -12
 3432              		.cfi_offset 5, -8
 3433              		.cfi_offset 14, -4
 3434 19d2 87B0     		sub	sp, sp, #28
 3435              		.cfi_def_cfa_offset 40
 3436 19d4 0390     		str	r0, [sp, #12]
 3437              		.loc 1 1005 0
 3438 19d6 FFF7FEFF 		bl	HAL_GetTick
 3439 19da 0346     		mov	r3, r0
 3440 19dc DB08     		lsrs	r3, r3, #3
 3441 19de DBB2     		uxtb	r3, r3
 3442 19e0 8DF81030 		strb	r3, [sp, #16]
 3443 19e4 FFF7FEFF 		bl	HAL_GetTick
 3444 19e8 0346     		mov	r3, r0
 3445 19ea DB0A     		lsrs	r3, r3, #11
 3446 19ec DBB2     		uxtb	r3, r3
 3447 19ee 8DF81130 		strb	r3, [sp, #17]
 3448              		.loc 1 1006 0
 3449 19f2 0023     		movs	r3, #0
 3450 19f4 ADF81630 		strh	r3, [sp, #22]	@ movhi
 3451 19f8 12E0     		b	.L151
 3452              	.L152:
 3453              		.loc 1 1007 0 discriminator 2
 3454 19fa BDF81630 		ldrh	r3, [sp, #22]
 3455 19fe 0233     		adds	r3, r3, #2
 3456 1a00 BDF81620 		ldrh	r2, [sp, #22]
 3457 1a04 5200     		lsls	r2, r2, #1
 3458 1a06 0399     		ldr	r1, [sp, #12]
 3459 1a08 0A44     		add	r2, r2, r1
 3460 1a0a 1288     		ldrh	r2, [r2]
ARM GAS  /tmp/ccNtBBEs.s 			page 63


 3461 1a0c D2B2     		uxtb	r2, r2
 3462 1a0e 06A9     		add	r1, sp, #24
 3463 1a10 0B44     		add	r3, r3, r1
 3464 1a12 03F8082C 		strb	r2, [r3, #-8]
 3465              		.loc 1 1006 0 discriminator 2
 3466 1a16 BDF81630 		ldrh	r3, [sp, #22]
 3467 1a1a 0133     		adds	r3, r3, #1
 3468 1a1c ADF81630 		strh	r3, [sp, #22]	@ movhi
 3469              	.L151:
 3470              		.loc 1 1006 0 is_stmt 0 discriminator 1
 3471 1a20 BDF81630 		ldrh	r3, [sp, #22]
 3472 1a24 002B     		cmp	r3, #0
 3473 1a26 E8D0     		beq	.L152
 3474              		.loc 1 1010 0 is_stmt 1
 3475 1a28 1B4B     		ldr	r3, .L157
 3476 1a2a 1A88     		ldrh	r2, [r3]
 3477 1a2c 1B4B     		ldr	r3, .L157+4
 3478 1a2e 1B88     		ldrh	r3, [r3]
 3479 1a30 04A9     		add	r1, sp, #16
 3480 1a32 0091     		str	r1, [sp]
 3481 1a34 1046     		mov	r0, r2
 3482 1a36 1946     		mov	r1, r3
 3483 1a38 0022     		movs	r2, #0
 3484 1a3a 0323     		movs	r3, #3
 3485 1a3c FFF7FEFF 		bl	safe_aci_gatt_update_char_value
 3486 1a40 0346     		mov	r3, r0
 3487 1a42 8DF81530 		strb	r3, [sp, #21]
 3488              		.loc 1 1012 0
 3489 1a46 9DF81530 		ldrb	r3, [sp, #21]	@ zero_extendqisi2
 3490 1a4a 002B     		cmp	r3, #0
 3491 1a4c 1FD0     		beq	.L153
 3492              		.loc 1 1013 0
 3493 1a4e 144B     		ldr	r3, .L157+8
 3494 1a50 1B68     		ldr	r3, [r3]
 3495 1a52 03F40063 		and	r3, r3, #2048
 3496 1a56 002B     		cmp	r3, #0
 3497 1a58 17D0     		beq	.L154
 3498              		.loc 1 1014 0
 3499 1a5a 124A     		ldr	r2, .L157+12
 3500 1a5c 124B     		ldr	r3, .L157+16
 3501 1a5e 1546     		mov	r5, r2
 3502 1a60 1C46     		mov	r4, r3
 3503 1a62 0FCC     		ldmia	r4!, {r0, r1, r2, r3}
 3504 1a64 2860     		str	r0, [r5]	@ unaligned
 3505 1a66 6960     		str	r1, [r5, #4]	@ unaligned
 3506 1a68 AA60     		str	r2, [r5, #8]	@ unaligned
 3507 1a6a EB60     		str	r3, [r5, #12]	@ unaligned
 3508 1a6c 03CC     		ldmia	r4!, {r0, r1}
 3509 1a6e 2861     		str	r0, [r5, #16]	@ unaligned
 3510 1a70 6961     		str	r1, [r5, #20]	@ unaligned
 3511 1a72 2388     		ldrh	r3, [r4]	@ unaligned
 3512 1a74 2B83     		strh	r3, [r5, #24]	@ unaligned
 3513 1a76 0D4B     		ldr	r3, .L157+20
 3514 1a78 1922     		movs	r2, #25
 3515 1a7a 1A60     		str	r2, [r3]
 3516              		.loc 1 1015 0
 3517 1a7c 0B4B     		ldr	r3, .L157+20
ARM GAS  /tmp/ccNtBBEs.s 			page 64


 3518 1a7e 1B68     		ldr	r3, [r3]
 3519 1a80 DBB2     		uxtb	r3, r3
 3520 1a82 0848     		ldr	r0, .L157+12
 3521 1a84 1946     		mov	r1, r3
 3522 1a86 FFF7FEFF 		bl	Stderr_Update
 3523              	.L154:
 3524              		.loc 1 1017 0
 3525 1a8a 4723     		movs	r3, #71
 3526 1a8c 00E0     		b	.L156
 3527              	.L153:
 3528              		.loc 1 1019 0
 3529 1a8e 0023     		movs	r3, #0
 3530              	.L156:
 3531              		.loc 1 1020 0
 3532 1a90 1846     		mov	r0, r3
 3533 1a92 07B0     		add	sp, sp, #28
 3534              		@ sp needed
 3535 1a94 30BD     		pop	{r4, r5, pc}
 3536              	.L158:
 3537 1a96 00BF     		.align	2
 3538              	.L157:
 3539 1a98 04000000 		.word	HWServW2STHandle
 3540 1a9c 0C000000 		.word	AudioLevelCharHandle
 3541 1aa0 00000000 		.word	ConnectionBleStatus
 3542 1aa4 00000000 		.word	BufferToWrite
 3543 1aa8 5C010000 		.word	.LC12
 3544 1aac 00000000 		.word	BytesToWrite
 3545              		.cfi_endproc
 3546              	.LFE286:
 3547              		.size	AudioLevel_Update, .-AudioLevel_Update
 3548              		.section	.rodata
 3549 0176 0000     		.align	2
 3550              	.LC13:
 3551 0178 4572726F 		.ascii	"Error Updating GG Char\015\012\000"
 3551      72205570 
 3551      64617469 
 3551      6E672047 
 3551      47204368 
 3552              		.text
 3553              		.align	2
 3554              		.p2align 4,,15
 3555              		.global	GG_Update
 3556              		.thumb
 3557              		.thumb_func
 3558              		.type	GG_Update, %function
 3559              	GG_Update:
 3560              	.LFB287:
 3561              		.loc 1 1029 0
 3562              		.cfi_startproc
 3563              		@ args = 0, pretend = 0, frame = 32
 3564              		@ frame_needed = 0, uses_anonymous_args = 0
 3565 1ab0 30B5     		push	{r4, r5, lr}
 3566              		.cfi_def_cfa_offset 12
 3567              		.cfi_offset 4, -12
 3568              		.cfi_offset 5, -8
 3569              		.cfi_offset 14, -4
 3570 1ab2 8BB0     		sub	sp, sp, #44
ARM GAS  /tmp/ccNtBBEs.s 			page 65


 3571              		.cfi_def_cfa_offset 56
 3572              		.loc 1 1038 0
 3573 1ab4 544B     		ldr	r3, .L168
 3574 1ab6 1A6B     		ldr	r2, [r3, #48]
 3575 1ab8 0DF11703 		add	r3, sp, #23
 3576 1abc 1046     		mov	r0, r2
 3577 1abe 1946     		mov	r1, r3
 3578 1ac0 FFF7FEFF 		bl	BSP_GG_Task
 3579              		.loc 1 1041 0
 3580 1ac4 504B     		ldr	r3, .L168
 3581 1ac6 1A6B     		ldr	r2, [r3, #48]
 3582 1ac8 08AB     		add	r3, sp, #32
 3583 1aca 1046     		mov	r0, r2
 3584 1acc 1946     		mov	r1, r3
 3585 1ace FFF7FEFF 		bl	BSP_GG_GetVoltage
 3586              		.loc 1 1042 0
 3587 1ad2 4D4B     		ldr	r3, .L168
 3588 1ad4 1A6B     		ldr	r2, [r3, #48]
 3589 1ad6 06AB     		add	r3, sp, #24
 3590 1ad8 1046     		mov	r0, r2
 3591 1ada 1946     		mov	r1, r3
 3592 1adc FFF7FEFF 		bl	BSP_GG_GetCurrent
 3593              		.loc 1 1043 0
 3594 1ae0 494B     		ldr	r3, .L168
 3595 1ae2 1A6B     		ldr	r2, [r3, #48]
 3596 1ae4 07AB     		add	r3, sp, #28
 3597 1ae6 1046     		mov	r0, r2
 3598 1ae8 1946     		mov	r1, r3
 3599 1aea FFF7FEFF 		bl	BSP_GG_GetSOC
 3600              		.loc 1 1045 0
 3601 1aee FFF7FEFF 		bl	HAL_GetTick
 3602 1af2 0346     		mov	r3, r0
 3603 1af4 DB08     		lsrs	r3, r3, #3
 3604 1af6 DBB2     		uxtb	r3, r3
 3605 1af8 8DF80C30 		strb	r3, [sp, #12]
 3606 1afc FFF7FEFF 		bl	HAL_GetTick
 3607 1b00 0346     		mov	r3, r0
 3608 1b02 DB0A     		lsrs	r3, r3, #11
 3609 1b04 DBB2     		uxtb	r3, r3
 3610 1b06 8DF80D30 		strb	r3, [sp, #13]
 3611              		.loc 1 1046 0
 3612 1b0a 079B     		ldr	r3, [sp, #28]
 3613 1b0c DBB2     		uxtb	r3, r3
 3614 1b0e 1A46     		mov	r2, r3
 3615 1b10 9200     		lsls	r2, r2, #2
 3616 1b12 1344     		add	r3, r3, r2
 3617 1b14 5B00     		lsls	r3, r3, #1
 3618 1b16 DBB2     		uxtb	r3, r3
 3619 1b18 8DF80E30 		strb	r3, [sp, #14]
 3620 1b1c 079A     		ldr	r2, [sp, #28]
 3621 1b1e 1346     		mov	r3, r2
 3622 1b20 9B00     		lsls	r3, r3, #2
 3623 1b22 1344     		add	r3, r3, r2
 3624 1b24 5B00     		lsls	r3, r3, #1
 3625 1b26 1B0A     		lsrs	r3, r3, #8
 3626 1b28 DBB2     		uxtb	r3, r3
 3627 1b2a 8DF80F30 		strb	r3, [sp, #15]
ARM GAS  /tmp/ccNtBBEs.s 			page 66


 3628              		.loc 1 1047 0
 3629 1b2e 089B     		ldr	r3, [sp, #32]
 3630 1b30 DBB2     		uxtb	r3, r3
 3631 1b32 8DF81030 		strb	r3, [sp, #16]
 3632 1b36 089B     		ldr	r3, [sp, #32]
 3633 1b38 1B0A     		lsrs	r3, r3, #8
 3634 1b3a DBB2     		uxtb	r3, r3
 3635 1b3c 8DF81130 		strb	r3, [sp, #17]
 3636              		.loc 1 1048 0
 3637 1b40 069B     		ldr	r3, [sp, #24]
 3638 1b42 DBB2     		uxtb	r3, r3
 3639 1b44 8DF81230 		strb	r3, [sp, #18]
 3640 1b48 069B     		ldr	r3, [sp, #24]
 3641 1b4a 1B12     		asrs	r3, r3, #8
 3642 1b4c DBB2     		uxtb	r3, r3
 3643 1b4e 8DF81330 		strb	r3, [sp, #19]
 3644              		.loc 1 1050 0
 3645 1b52 079B     		ldr	r3, [sp, #28]
 3646 1b54 0E2B     		cmp	r3, #14
 3647 1b56 03D8     		bhi	.L160
 3648              		.loc 1 1052 0
 3649 1b58 0023     		movs	r3, #0
 3650 1b5a 8DF81430 		strb	r3, [sp, #20]
 3651 1b5e 1CE0     		b	.L161
 3652              	.L160:
 3653              	.LBB2:
 3654              		.loc 1 1056 0
 3655 1b60 2A4B     		ldr	r3, .L168+4
 3656 1b62 1B68     		ldr	r3, [r3]
 3657 1b64 002B     		cmp	r3, #0
 3658 1b66 10D0     		beq	.L162
 3659              		.loc 1 1057 0
 3660 1b68 284B     		ldr	r3, .L168+4
 3661 1b6a 1A68     		ldr	r2, [r3]
 3662 1b6c 089B     		ldr	r3, [sp, #32]
 3663 1b6e 9A42     		cmp	r2, r3
 3664 1b70 03D9     		bls	.L163
 3665              		.loc 1 1058 0
 3666 1b72 274B     		ldr	r3, .L168+8
 3667 1b74 0122     		movs	r2, #1
 3668 1b76 1A60     		str	r2, [r3]
 3669 1b78 07E0     		b	.L162
 3670              	.L163:
 3671              		.loc 1 1059 0
 3672 1b7a 244B     		ldr	r3, .L168+4
 3673 1b7c 1A68     		ldr	r2, [r3]
 3674 1b7e 089B     		ldr	r3, [sp, #32]
 3675 1b80 9A42     		cmp	r2, r3
 3676 1b82 02D2     		bcs	.L162
 3677              		.loc 1 1060 0
 3678 1b84 224B     		ldr	r3, .L168+8
 3679 1b86 0322     		movs	r2, #3
 3680 1b88 1A60     		str	r2, [r3]
 3681              	.L162:
 3682              		.loc 1 1063 0
 3683 1b8a 214B     		ldr	r3, .L168+8
 3684 1b8c 1B68     		ldr	r3, [r3]
ARM GAS  /tmp/ccNtBBEs.s 			page 67


 3685 1b8e DBB2     		uxtb	r3, r3
 3686 1b90 8DF81430 		strb	r3, [sp, #20]
 3687              		.loc 1 1064 0
 3688 1b94 089A     		ldr	r2, [sp, #32]
 3689 1b96 1D4B     		ldr	r3, .L168+4
 3690 1b98 1A60     		str	r2, [r3]
 3691              	.L161:
 3692              	.LBE2:
 3693              		.loc 1 1067 0
 3694 1b9a 1E4B     		ldr	r3, .L168+12
 3695 1b9c 1A88     		ldrh	r2, [r3]
 3696 1b9e 1E4B     		ldr	r3, .L168+16
 3697 1ba0 1B88     		ldrh	r3, [r3]
 3698 1ba2 03A9     		add	r1, sp, #12
 3699 1ba4 0091     		str	r1, [sp]
 3700 1ba6 1046     		mov	r0, r2
 3701 1ba8 1946     		mov	r1, r3
 3702 1baa 0022     		movs	r2, #0
 3703 1bac 0923     		movs	r3, #9
 3704 1bae FFF7FEFF 		bl	aci_gatt_update_char_value
 3705 1bb2 0346     		mov	r3, r0
 3706 1bb4 8DF82730 		strb	r3, [sp, #39]
 3707              		.loc 1 1069 0
 3708 1bb8 9DF82730 		ldrb	r3, [sp, #39]	@ zero_extendqisi2
 3709 1bbc 002B     		cmp	r3, #0
 3710 1bbe 1FD0     		beq	.L164
 3711              		.loc 1 1070 0
 3712 1bc0 164B     		ldr	r3, .L168+20
 3713 1bc2 1B68     		ldr	r3, [r3]
 3714 1bc4 03F40063 		and	r3, r3, #2048
 3715 1bc8 002B     		cmp	r3, #0
 3716 1bca 17D0     		beq	.L165
 3717              		.loc 1 1071 0
 3718 1bcc 144A     		ldr	r2, .L168+24
 3719 1bce 154B     		ldr	r3, .L168+28
 3720 1bd0 1546     		mov	r5, r2
 3721 1bd2 1C46     		mov	r4, r3
 3722 1bd4 0FCC     		ldmia	r4!, {r0, r1, r2, r3}
 3723 1bd6 2860     		str	r0, [r5]	@ unaligned
 3724 1bd8 6960     		str	r1, [r5, #4]	@ unaligned
 3725 1bda AA60     		str	r2, [r5, #8]	@ unaligned
 3726 1bdc EB60     		str	r3, [r5, #12]	@ unaligned
 3727 1bde 03CC     		ldmia	r4!, {r0, r1}
 3728 1be0 2861     		str	r0, [r5, #16]	@ unaligned
 3729 1be2 6961     		str	r1, [r5, #20]	@ unaligned
 3730 1be4 2378     		ldrb	r3, [r4]
 3731 1be6 2B76     		strb	r3, [r5, #24]
 3732 1be8 0F4B     		ldr	r3, .L168+32
 3733 1bea 1822     		movs	r2, #24
 3734 1bec 1A60     		str	r2, [r3]
 3735              		.loc 1 1072 0
 3736 1bee 0E4B     		ldr	r3, .L168+32
 3737 1bf0 1B68     		ldr	r3, [r3]
 3738 1bf2 DBB2     		uxtb	r3, r3
 3739 1bf4 0A48     		ldr	r0, .L168+24
 3740 1bf6 1946     		mov	r1, r3
 3741 1bf8 FFF7FEFF 		bl	Stderr_Update
ARM GAS  /tmp/ccNtBBEs.s 			page 68


 3742              	.L165:
 3743              		.loc 1 1076 0
 3744 1bfc 4723     		movs	r3, #71
 3745 1bfe 00E0     		b	.L167
 3746              	.L164:
 3747              		.loc 1 1078 0
 3748 1c00 0023     		movs	r3, #0
 3749              	.L167:
 3750              		.loc 1 1079 0
 3751 1c02 1846     		mov	r0, r3
 3752 1c04 0BB0     		add	sp, sp, #44
 3753              		@ sp needed
 3754 1c06 30BD     		pop	{r4, r5, pc}
 3755              	.L169:
 3756              		.align	2
 3757              	.L168:
 3758 1c08 00000000 		.word	TargetBoardFeatures
 3759 1c0c 60000000 		.word	PreVoltage.18743
 3760 1c10 04000000 		.word	Status.18744
 3761 1c14 04000000 		.word	HWServW2STHandle
 3762 1c18 0E000000 		.word	GGCharHandle
 3763 1c1c 00000000 		.word	ConnectionBleStatus
 3764 1c20 00000000 		.word	BufferToWrite
 3765 1c24 78010000 		.word	.LC13
 3766 1c28 00000000 		.word	BytesToWrite
 3767              		.cfi_endproc
 3768              	.LFE287:
 3769              		.size	GG_Update, .-GG_Update
 3770              		.section	.rodata
 3771 0191 000000   		.align	2
 3772              	.LC0:
 3773 0194 09       		.byte	9
 3774 0195 42       		.byte	66
 3775 0196 4D       		.byte	77
 3776 0197 32       		.byte	50
 3777 0198 56       		.byte	86
 3778 0199 32       		.byte	50
 3779 019a 32       		.byte	50
 3780 019b 30       		.byte	48
 3781              		.align	2
 3782              	.LC1:
 3783 019c 02       		.byte	2
 3784 019d 0A       		.byte	10
 3785 019e 00       		.byte	0
 3786 019f 08       		.byte	8
 3787 01a0 09       		.byte	9
 3788 01a1 42       		.byte	66
 3789 01a2 4D       		.byte	77
 3790 01a3 32       		.byte	50
 3791 01a4 56       		.byte	86
 3792 01a5 32       		.byte	50
 3793 01a6 32       		.byte	50
 3794 01a7 30       		.byte	48
 3795 01a8 0D       		.byte	13
 3796 01a9 FF       		.byte	-1
 3797 01aa 01       		.byte	1
 3798 01ab 02       		.byte	2
ARM GAS  /tmp/ccNtBBEs.s 			page 69


 3799 01ac 00       		.byte	0
 3800 01ad E0       		.byte	-32
 3801 01ae 00       		.byte	0
 3802 01af 00       		.byte	0
 3803 01b0 00       		.byte	0
 3804 01b1 00       		.byte	0
 3805 01b2 00       		.byte	0
 3806 01b3 00       		.byte	0
 3807 01b4 00       		.byte	0
 3808 01b5 00       		.byte	0
 3809              		.text
 3810              		.align	2
 3811 1c2c AFF30080 		.p2align 4,,15
 3812              		.global	setConnectable
 3813              		.thumb
 3814              		.thumb_func
 3815              		.type	setConnectable, %function
 3816              	setConnectable:
 3817              	.LFB288:
 3818              		.loc 1 1118 0
 3819              		.cfi_startproc
 3820              		@ args = 0, pretend = 0, frame = 40
 3821              		@ frame_needed = 0, uses_anonymous_args = 0
 3822 1c30 30B5     		push	{r4, r5, lr}
 3823              		.cfi_def_cfa_offset 12
 3824              		.cfi_offset 4, -12
 3825              		.cfi_offset 5, -8
 3826              		.cfi_offset 14, -4
 3827 1c32 93B0     		sub	sp, sp, #76
 3828              		.cfi_def_cfa_offset 88
 3829              		.loc 1 1119 0
 3830 1c34 6A4A     		ldr	r2, .L182
 3831 1c36 10AB     		add	r3, sp, #64
 3832 1c38 1068     		ldr	r0, [r2]	@ unaligned
 3833 1c3a 5168     		ldr	r1, [r2, #4]	@ unaligned
 3834 1c3c 03C3     		stmia	r3!, {r0, r1}
 3835              		.loc 1 1120 0
 3836 1c3e 694B     		ldr	r3, .L182+4
 3837 1c40 09AC     		add	r4, sp, #36
 3838 1c42 1D46     		mov	r5, r3
 3839 1c44 2868     		ldr	r0, [r5]	@ unaligned
 3840 1c46 6968     		ldr	r1, [r5, #4]	@ unaligned
 3841 1c48 AA68     		ldr	r2, [r5, #8]	@ unaligned
 3842 1c4a EB68     		ldr	r3, [r5, #12]	@ unaligned
 3843 1c4c 0FC4     		stmia	r4!, {r0, r1, r2, r3}
 3844 1c4e 2869     		ldr	r0, [r5, #16]	@ unaligned
 3845 1c50 6969     		ldr	r1, [r5, #20]	@ unaligned
 3846 1c52 03C4     		stmia	r4!, {r0, r1}
 3847 1c54 2B8B     		ldrh	r3, [r5, #24]	@ unaligned
 3848 1c56 2380     		strh	r3, [r4]	@ unaligned
 3849              		.loc 1 1142 0
 3850 1c58 634B     		ldr	r3, .L182+8
 3851 1c5a 5B79     		ldrb	r3, [r3, #5]	@ zero_extendqisi2
 3852 1c5c 8DF83830 		strb	r3, [sp, #56]
 3853              		.loc 1 1143 0
 3854 1c60 614B     		ldr	r3, .L182+8
 3855 1c62 1B79     		ldrb	r3, [r3, #4]	@ zero_extendqisi2
ARM GAS  /tmp/ccNtBBEs.s 			page 70


 3856 1c64 8DF83930 		strb	r3, [sp, #57]
 3857              		.loc 1 1144 0
 3858 1c68 5F4B     		ldr	r3, .L182+8
 3859 1c6a DB78     		ldrb	r3, [r3, #3]	@ zero_extendqisi2
 3860 1c6c 8DF83A30 		strb	r3, [sp, #58]
 3861              		.loc 1 1145 0
 3862 1c70 5D4B     		ldr	r3, .L182+8
 3863 1c72 9B78     		ldrb	r3, [r3, #2]	@ zero_extendqisi2
 3864 1c74 8DF83B30 		strb	r3, [sp, #59]
 3865              		.loc 1 1146 0
 3866 1c78 5B4B     		ldr	r3, .L182+8
 3867 1c7a 5B78     		ldrb	r3, [r3, #1]	@ zero_extendqisi2
 3868 1c7c 8DF83C30 		strb	r3, [sp, #60]
 3869              		.loc 1 1147 0
 3870 1c80 594B     		ldr	r3, .L182+8
 3871 1c82 1B78     		ldrb	r3, [r3]	@ zero_extendqisi2
 3872 1c84 8DF83D30 		strb	r3, [sp, #61]
 3873              		.loc 1 1150 0
 3874 1c88 584B     		ldr	r3, .L182+12
 3875 1c8a 1B6B     		ldr	r3, [r3, #48]
 3876 1c8c 002B     		cmp	r3, #0
 3877 1c8e 06D0     		beq	.L171
 3878              		.loc 1 1151 0
 3879 1c90 9DF83530 		ldrb	r3, [sp, #53]	@ zero_extendqisi2
 3880 1c94 43F00203 		orr	r3, r3, #2
 3881 1c98 DBB2     		uxtb	r3, r3
 3882 1c9a 8DF83530 		strb	r3, [sp, #53]
 3883              	.L171:
 3884              		.loc 1 1155 0
 3885 1c9e 9DF83430 		ldrb	r3, [sp, #52]	@ zero_extendqisi2
 3886 1ca2 43F00403 		orr	r3, r3, #4
 3887 1ca6 DBB2     		uxtb	r3, r3
 3888 1ca8 8DF83430 		strb	r3, [sp, #52]
 3889              		.loc 1 1157 0
 3890 1cac 4F4B     		ldr	r3, .L182+12
 3891 1cae 5B68     		ldr	r3, [r3, #4]
 3892 1cb0 022B     		cmp	r3, #2
 3893 1cb2 07D1     		bne	.L172
 3894              		.loc 1 1158 0
 3895 1cb4 9DF83530 		ldrb	r3, [sp, #53]	@ zero_extendqisi2
 3896 1cb8 43F00503 		orr	r3, r3, #5
 3897 1cbc DBB2     		uxtb	r3, r3
 3898 1cbe 8DF83530 		strb	r3, [sp, #53]
 3899 1cc2 0AE0     		b	.L173
 3900              	.L172:
 3901              		.loc 1 1159 0
 3902 1cc4 494B     		ldr	r3, .L182+12
 3903 1cc6 5B68     		ldr	r3, [r3, #4]
 3904 1cc8 012B     		cmp	r3, #1
 3905 1cca 06D1     		bne	.L173
 3906              		.loc 1 1160 0
 3907 1ccc 9DF83530 		ldrb	r3, [sp, #53]	@ zero_extendqisi2
 3908 1cd0 43F00403 		orr	r3, r3, #4
 3909 1cd4 DBB2     		uxtb	r3, r3
 3910 1cd6 8DF83530 		strb	r3, [sp, #53]
 3911              	.L173:
 3912              		.loc 1 1163 0
ARM GAS  /tmp/ccNtBBEs.s 			page 71


 3913 1cda 444B     		ldr	r3, .L182+12
 3914 1cdc 5B69     		ldr	r3, [r3, #20]
 3915 1cde 002B     		cmp	r3, #0
 3916 1ce0 06D0     		beq	.L174
 3917              		.loc 1 1164 0
 3918 1ce2 9DF83530 		ldrb	r3, [sp, #53]	@ zero_extendqisi2
 3919 1ce6 43F00803 		orr	r3, r3, #8
 3920 1cea DBB2     		uxtb	r3, r3
 3921 1cec 8DF83530 		strb	r3, [sp, #53]
 3922              	.L174:
 3923              		.loc 1 1167 0
 3924 1cf0 3E4B     		ldr	r3, .L182+12
 3925 1cf2 1B69     		ldr	r3, [r3, #16]
 3926 1cf4 002B     		cmp	r3, #0
 3927 1cf6 06D0     		beq	.L175
 3928              		.loc 1 1168 0
 3929 1cf8 9DF83530 		ldrb	r3, [sp, #53]	@ zero_extendqisi2
 3930 1cfc 43F01003 		orr	r3, r3, #16
 3931 1d00 DBB2     		uxtb	r3, r3
 3932 1d02 8DF83530 		strb	r3, [sp, #53]
 3933              	.L175:
 3934              		.loc 1 1172 0
 3935 1d06 394B     		ldr	r3, .L182+12
 3936 1d08 9B69     		ldr	r3, [r3, #24]
 3937 1d0a 002B     		cmp	r3, #0
 3938 1d0c 06D0     		beq	.L176
 3939              		.loc 1 1174 0
 3940 1d0e 9DF83630 		ldrb	r3, [sp, #54]	@ zero_extendqisi2
 3941 1d12 43F00403 		orr	r3, r3, #4
 3942 1d16 DBB2     		uxtb	r3, r3
 3943 1d18 8DF83630 		strb	r3, [sp, #54]
 3944              	.L176:
 3945              		.loc 1 1178 0
 3946 1d1c 334B     		ldr	r3, .L182+12
 3947 1d1e 5B6B     		ldr	r3, [r3, #52]
 3948 1d20 002B     		cmp	r3, #0
 3949 1d22 12D0     		beq	.L177
 3950              		.loc 1 1179 0
 3951 1d24 9DF83630 		ldrb	r3, [sp, #54]	@ zero_extendqisi2
 3952 1d28 43F00103 		orr	r3, r3, #1
 3953 1d2c DBB2     		uxtb	r3, r3
 3954 1d2e 8DF83630 		strb	r3, [sp, #54]
 3955              		.loc 1 1181 0
 3956 1d32 2E4B     		ldr	r3, .L182+12
 3957 1d34 93F82D30 		ldrb	r3, [r3, #45]	@ zero_extendqisi2
 3958 1d38 012B     		cmp	r3, #1
 3959 1d3a 06D1     		bne	.L177
 3960              		.loc 1 1183 0
 3961 1d3c 9DF83730 		ldrb	r3, [sp, #55]	@ zero_extendqisi2
 3962 1d40 43F04003 		orr	r3, r3, #64
 3963 1d44 DBB2     		uxtb	r3, r3
 3964 1d46 8DF83730 		strb	r3, [sp, #55]
 3965              	.L177:
 3966              		.loc 1 1189 0
 3967 1d4a 284B     		ldr	r3, .L182+12
 3968 1d4c 9B6B     		ldr	r3, [r3, #56]
 3969 1d4e 002B     		cmp	r3, #0
ARM GAS  /tmp/ccNtBBEs.s 			page 72


 3970 1d50 06D0     		beq	.L178
 3971              		.loc 1 1190 0
 3972 1d52 9DF83730 		ldrb	r3, [sp, #55]	@ zero_extendqisi2
 3973 1d56 43F01003 		orr	r3, r3, #16
 3974 1d5a DBB2     		uxtb	r3, r3
 3975 1d5c 8DF83730 		strb	r3, [sp, #55]
 3976              	.L178:
 3977              		.loc 1 1195 0
 3978 1d60 224B     		ldr	r3, .L182+12
 3979 1d62 DB6B     		ldr	r3, [r3, #60]
 3980 1d64 002B     		cmp	r3, #0
 3981 1d66 06D0     		beq	.L179
 3982              		.loc 1 1196 0
 3983 1d68 9DF83730 		ldrb	r3, [sp, #55]	@ zero_extendqisi2
 3984 1d6c 43F00803 		orr	r3, r3, #8
 3985 1d70 DBB2     		uxtb	r3, r3
 3986 1d72 8DF83730 		strb	r3, [sp, #55]
 3987              	.L179:
 3988              		.loc 1 1201 0
 3989 1d76 1D4B     		ldr	r3, .L182+12
 3990 1d78 1B6C     		ldr	r3, [r3, #64]
 3991 1d7a 002B     		cmp	r3, #0
 3992 1d7c 06D0     		beq	.L180
 3993              		.loc 1 1202 0
 3994 1d7e 9DF83730 		ldrb	r3, [sp, #55]	@ zero_extendqisi2
 3995 1d82 43F00203 		orr	r3, r3, #2
 3996 1d86 DBB2     		uxtb	r3, r3
 3997 1d88 8DF83730 		strb	r3, [sp, #55]
 3998              	.L180:
 3999              		.loc 1 1207 0
 4000 1d8c 174B     		ldr	r3, .L182+12
 4001 1d8e 5B6C     		ldr	r3, [r3, #68]
 4002 1d90 002B     		cmp	r3, #0
 4003 1d92 06D0     		beq	.L181
 4004              		.loc 1 1208 0
 4005 1d94 9DF83430 		ldrb	r3, [sp, #52]	@ zero_extendqisi2
 4006 1d98 43F04803 		orr	r3, r3, #72
 4007 1d9c DBB2     		uxtb	r3, r3
 4008 1d9e 8DF83430 		strb	r3, [sp, #52]
 4009              	.L181:
 4010              		.loc 1 1220 0
 4011 1da2 0020     		movs	r0, #0
 4012 1da4 0021     		movs	r1, #0
 4013 1da6 FFF7FEFF 		bl	hci_le_set_scan_resp_data
 4014              		.loc 1 1221 0
 4015 1daa 0023     		movs	r3, #0
 4016 1dac 0093     		str	r3, [sp]
 4017 1dae 0823     		movs	r3, #8
 4018 1db0 0193     		str	r3, [sp, #4]
 4019 1db2 10AB     		add	r3, sp, #64
 4020 1db4 0293     		str	r3, [sp, #8]
 4021 1db6 0023     		movs	r3, #0
 4022 1db8 0393     		str	r3, [sp, #12]
 4023 1dba 0023     		movs	r3, #0
 4024 1dbc 0493     		str	r3, [sp, #16]
 4025 1dbe 0023     		movs	r3, #0
 4026 1dc0 0593     		str	r3, [sp, #20]
ARM GAS  /tmp/ccNtBBEs.s 			page 73


 4027 1dc2 0023     		movs	r3, #0
 4028 1dc4 0693     		str	r3, [sp, #24]
 4029 1dc6 0020     		movs	r0, #0
 4030 1dc8 0021     		movs	r1, #0
 4031 1dca 0022     		movs	r2, #0
 4032 1dcc 0123     		movs	r3, #1
 4033 1dce FFF7FEFF 		bl	aci_gap_set_discoverable
 4034              		.loc 1 1235 0
 4035 1dd2 09AB     		add	r3, sp, #36
 4036 1dd4 1A20     		movs	r0, #26
 4037 1dd6 1946     		mov	r1, r3
 4038 1dd8 FFF7FEFF 		bl	aci_gap_update_adv_data
 4039              		.loc 1 1236 0
 4040 1ddc 13B0     		add	sp, sp, #76
 4041              		@ sp needed
 4042 1dde 30BD     		pop	{r4, r5, pc}
 4043              	.L183:
 4044              		.align	2
 4045              	.L182:
 4046 1de0 94010000 		.word	.LC0
 4047 1de4 9C010000 		.word	.LC1
 4048 1de8 00000000 		.word	bdaddr
 4049 1dec 00000000 		.word	TargetBoardFeatures
 4050              		.cfi_endproc
 4051              	.LFE288:
 4052              		.size	setConnectable, .-setConnectable
 4053              		.align	2
 4054              		.p2align 4,,15
 4055              		.thumb
 4056              		.thumb_func
 4057              		.type	GAP_ConnectionComplete_CB, %function
 4058              	GAP_ConnectionComplete_CB:
 4059              	.LFB289:
 4060              		.loc 1 1245 0
 4061              		.cfi_startproc
 4062              		@ args = 0, pretend = 0, frame = 16
 4063              		@ frame_needed = 0, uses_anonymous_args = 0
 4064 1df0 00B5     		push	{lr}
 4065              		.cfi_def_cfa_offset 4
 4066              		.cfi_offset 14, -4
 4067 1df2 87B0     		sub	sp, sp, #28
 4068              		.cfi_def_cfa_offset 32
 4069 1df4 0390     		str	r0, [sp, #12]
 4070 1df6 0B46     		mov	r3, r1
 4071 1df8 ADF80A30 		strh	r3, [sp, #10]	@ movhi
 4072              		.loc 1 1246 0
 4073 1dfc 164B     		ldr	r3, .L188
 4074 1dfe 0122     		movs	r2, #1
 4075 1e00 1A60     		str	r2, [r3]
 4076              		.loc 1 1247 0
 4077 1e02 164B     		ldr	r3, .L188+4
 4078 1e04 BDF80A20 		ldrh	r2, [sp, #10]	@ movhi
 4079 1e08 1A80     		strh	r2, [r3]	@ movhi
 4080              		.loc 1 1253 0
 4081 1e0a 154B     		ldr	r3, .L188+8
 4082 1e0c 0022     		movs	r2, #0
 4083 1e0e 1A60     		str	r2, [r3]
ARM GAS  /tmp/ccNtBBEs.s 			page 74


 4084              		.loc 1 1255 0
 4085 1e10 144B     		ldr	r3, .L188+12
 4086 1e12 9B69     		ldr	r3, [r3, #24]
 4087 1e14 002B     		cmp	r3, #0
 4088 1e16 01D0     		beq	.L185
 4089              		.loc 1 1256 0
 4090 1e18 FFF7FEFF 		bl	DisableHWFeatures
 4091              	.L185:
 4092              		.loc 1 1259 0
 4093 1e1c 124B     		ldr	r3, .L188+16
 4094 1e1e 0022     		movs	r2, #0
 4095 1e20 1A60     		str	r2, [r3]
 4096              		.loc 1 1260 0
 4097 1e22 124B     		ldr	r3, .L188+20
 4098 1e24 0022     		movs	r2, #0
 4099 1e26 1A60     		str	r2, [r3]
 4100              		.loc 1 1263 0
 4101 1e28 0E4B     		ldr	r3, .L188+12
 4102 1e2a 5B6C     		ldr	r3, [r3, #68]
 4103 1e2c 002B     		cmp	r3, #0
 4104 1e2e 10D0     		beq	.L184
 4105              	.LBB3:
 4106              		.loc 1 1267 0
 4107 1e30 BDF80A30 		ldrh	r3, [sp, #10]
 4108 1e34 4FF4C872 		mov	r2, #400
 4109 1e38 0092     		str	r2, [sp]
 4110 1e3a 1846     		mov	r0, r3
 4111 1e3c 0821     		movs	r1, #8
 4112 1e3e 1122     		movs	r2, #17
 4113 1e40 0023     		movs	r3, #0
 4114 1e42 FFF7FEFF 		bl	aci_l2cap_connection_parameter_update_request
 4115 1e46 0346     		mov	r3, r0
 4116 1e48 0593     		str	r3, [sp, #20]
 4117              		.loc 1 1272 0
 4118 1e4a 059B     		ldr	r3, [sp, #20]
 4119 1e4c 002B     		cmp	r3, #0
 4120 1e4e 00D0     		beq	.L184
 4121              	.L187:
 4122              		.loc 1 1275 0 discriminator 1
 4123 1e50 FEE7     		b	.L187
 4124              	.L184:
 4125              	.LBE3:
 4126              		.loc 1 1280 0
 4127 1e52 07B0     		add	sp, sp, #28
 4128              		@ sp needed
 4129 1e54 5DF804FB 		ldr	pc, [sp], #4
 4130              	.L189:
 4131              		.align	2
 4132              	.L188:
 4133 1e58 00000000 		.word	connected
 4134 1e5c 58000000 		.word	connection_handle
 4135 1e60 00000000 		.word	ConnectionBleStatus
 4136 1e64 00000000 		.word	TargetBoardFeatures
 4137 1e68 00000000 		.word	ForceReCalibration
 4138 1e6c 00000000 		.word	FirstConnectionConfig
 4139              		.cfi_endproc
 4140              	.LFE289:
ARM GAS  /tmp/ccNtBBEs.s 			page 75


 4141              		.size	GAP_ConnectionComplete_CB, .-GAP_ConnectionComplete_CB
 4142              		.align	2
 4143              		.p2align 4,,15
 4144              		.thumb
 4145              		.thumb_func
 4146              		.type	GAP_DisconnectionComplete_CB, %function
 4147              	GAP_DisconnectionComplete_CB:
 4148              	.LFB290:
 4149              		.loc 1 1288 0
 4150              		.cfi_startproc
 4151              		@ args = 0, pretend = 0, frame = 0
 4152              		@ frame_needed = 0, uses_anonymous_args = 0
 4153 1e70 08B5     		push	{r3, lr}
 4154              		.cfi_def_cfa_offset 8
 4155              		.cfi_offset 3, -8
 4156              		.cfi_offset 14, -4
 4157              		.loc 1 1289 0
 4158 1e72 264B     		ldr	r3, .L198
 4159 1e74 0022     		movs	r2, #0
 4160 1e76 1A60     		str	r2, [r3]
 4161              		.loc 1 1302 0
 4162 1e78 254B     		ldr	r3, .L198+4
 4163 1e7a 0122     		movs	r2, #1
 4164 1e7c 1A70     		strb	r2, [r3]
 4165              		.loc 1 1304 0
 4166 1e7e 254B     		ldr	r3, .L198+8
 4167 1e80 0022     		movs	r2, #0
 4168 1e82 1A60     		str	r2, [r3]
 4169              		.loc 1 1306 0
 4170 1e84 244B     		ldr	r3, .L198+12
 4171 1e86 9B69     		ldr	r3, [r3, #24]
 4172 1e88 002B     		cmp	r3, #0
 4173 1e8a 01D0     		beq	.L191
 4174              		.loc 1 1307 0
 4175 1e8c FFF7FEFF 		bl	DisableHWFeatures
 4176              	.L191:
 4177              		.loc 1 1310 0
 4178 1e90 224B     		ldr	r3, .L198+16
 4179 1e92 0022     		movs	r2, #0
 4180 1e94 1A60     		str	r2, [r3]
 4181              		.loc 1 1311 0
 4182 1e96 224B     		ldr	r3, .L198+20
 4183 1e98 0022     		movs	r2, #0
 4184 1e9a 1A60     		str	r2, [r3]
 4185              		.loc 1 1314 0
 4186 1e9c 214B     		ldr	r3, .L198+24
 4187 1e9e 0022     		movs	r2, #0
 4188 1ea0 1A60     		str	r2, [r3]
 4189              		.loc 1 1322 0
 4190 1ea2 2148     		ldr	r0, .L198+28
 4191 1ea4 0021     		movs	r1, #0
 4192 1ea6 FFF7FEFF 		bl	HAL_TIM_OC_Stop_IT
 4193 1eaa 0346     		mov	r3, r0
 4194 1eac 002B     		cmp	r3, #0
 4195 1eae 01D0     		beq	.L192
 4196              		.loc 1 1324 0
 4197 1eb0 FFF7FEFF 		bl	Error_Handler
ARM GAS  /tmp/ccNtBBEs.s 			page 76


 4198              	.L192:
 4199              		.loc 1 1330 0
 4200 1eb4 1C48     		ldr	r0, .L198+28
 4201 1eb6 0421     		movs	r1, #4
 4202 1eb8 FFF7FEFF 		bl	HAL_TIM_OC_Stop_IT
 4203 1ebc 0346     		mov	r3, r0
 4204 1ebe 002B     		cmp	r3, #0
 4205 1ec0 01D0     		beq	.L193
 4206              		.loc 1 1332 0
 4207 1ec2 FFF7FEFF 		bl	Error_Handler
 4208              	.L193:
 4209              		.loc 1 1338 0
 4210 1ec6 1848     		ldr	r0, .L198+28
 4211 1ec8 0821     		movs	r1, #8
 4212 1eca FFF7FEFF 		bl	HAL_TIM_OC_Stop_IT
 4213 1ece 0346     		mov	r3, r0
 4214 1ed0 002B     		cmp	r3, #0
 4215 1ed2 01D0     		beq	.L194
 4216              		.loc 1 1340 0
 4217 1ed4 FFF7FEFF 		bl	Error_Handler
 4218              	.L194:
 4219              		.loc 1 1345 0
 4220 1ed8 1348     		ldr	r0, .L198+28
 4221 1eda 0C21     		movs	r1, #12
 4222 1edc FFF7FEFF 		bl	HAL_TIM_OC_Stop_IT
 4223 1ee0 0346     		mov	r3, r0
 4224 1ee2 002B     		cmp	r3, #0
 4225 1ee4 01D0     		beq	.L195
 4226              		.loc 1 1347 0
 4227 1ee6 FFF7FEFF 		bl	Error_Handler
 4228              	.L195:
 4229              		.loc 1 1351 0
 4230 1eea 1048     		ldr	r0, .L198+32
 4231 1eec FFF7FEFF 		bl	HAL_TIM_Base_Stop_IT
 4232 1ef0 0346     		mov	r3, r0
 4233 1ef2 002B     		cmp	r3, #0
 4234 1ef4 01D0     		beq	.L196
 4235              		.loc 1 1353 0
 4236 1ef6 FFF7FEFF 		bl	Error_Handler
 4237              	.L196:
 4238              		.loc 1 1357 0
 4239 1efa 0D48     		ldr	r0, .L198+36
 4240 1efc FFF7FEFF 		bl	HAL_TIM_Base_Stop_IT
 4241 1f00 0346     		mov	r3, r0
 4242 1f02 002B     		cmp	r3, #0
 4243 1f04 01D0     		beq	.L190
 4244              		.loc 1 1359 0
 4245 1f06 FFF7FEFF 		bl	Error_Handler
 4246              	.L190:
 4247              		.loc 1 1361 0
 4248 1f0a 08BD     		pop	{r3, pc}
 4249              	.L199:
 4250              		.align	2
 4251              	.L198:
 4252 1f0c 00000000 		.word	connected
 4253 1f10 00000000 		.word	set_connectable
 4254 1f14 00000000 		.word	ConnectionBleStatus
ARM GAS  /tmp/ccNtBBEs.s 			page 77


 4255 1f18 00000000 		.word	TargetBoardFeatures
 4256 1f1c 00000000 		.word	ForceReCalibration
 4257 1f20 00000000 		.word	FirstConnectionConfig
 4258 1f24 54000000 		.word	SizeOfUpdateBlueFW
 4259 1f28 00000000 		.word	TimCCHandle
 4260 1f2c 00000000 		.word	TimEnvHandle
 4261 1f30 00000000 		.word	TimAudioDataHandle
 4262              		.cfi_endproc
 4263              	.LFE290:
 4264              		.size	GAP_DisconnectionComplete_CB, .-GAP_DisconnectionComplete_CB
 4265              		.global	__aeabi_f2iz
 4266              		.global	__aeabi_i2f
 4267              		.global	__aeabi_fsub
 4268              		.global	__aeabi_fmul
 4269              		.align	2
 4270 1f34 AFF30080 		.p2align 4,,15
 4270      AFF30080 
 4270      AFF30080 
 4271              		.global	Read_Request_CB
 4272              		.thumb
 4273              		.thumb_func
 4274              		.type	Read_Request_CB, %function
 4275              	Read_Request_CB:
 4276              	.LFB291:
 4277              		.loc 1 1369 0
 4278              		.cfi_startproc
 4279              		@ args = 0, pretend = 0, frame = 40
 4280              		@ frame_needed = 0, uses_anonymous_args = 0
 4281 1f40 10B5     		push	{r4, lr}
 4282              		.cfi_def_cfa_offset 8
 4283              		.cfi_offset 4, -8
 4284              		.cfi_offset 14, -4
 4285 1f42 8AB0     		sub	sp, sp, #40
 4286              		.cfi_def_cfa_offset 48
 4287 1f44 0346     		mov	r3, r0
 4288 1f46 ADF80630 		strh	r3, [sp, #6]	@ movhi
 4289              		.loc 1 1371 0
 4290 1f4a BDF80620 		ldrh	r2, [sp, #6]
 4291 1f4e A14B     		ldr	r3, .L219
 4292 1f50 1B88     		ldrh	r3, [r3]
 4293 1f52 0133     		adds	r3, r3, #1
 4294 1f54 9A42     		cmp	r2, r3
 4295 1f56 40F04581 		bne	.L201
 4296              	.LBB4:
 4297              		.loc 1 1374 0
 4298 1f5a 0023     		movs	r3, #0
 4299 1f5c 0993     		str	r3, [sp, #36]
 4300              		.loc 1 1375 0
 4301 1f5e 0023     		movs	r3, #0
 4302 1f60 ADF82230 		strh	r3, [sp, #34]	@ movhi
 4303              		.loc 1 1376 0
 4304 1f64 0023     		movs	r3, #0
 4305 1f66 ADF82030 		strh	r3, [sp, #32]	@ movhi
 4306 1f6a 0023     		movs	r3, #0
 4307 1f6c ADF81E30 		strh	r3, [sp, #30]	@ movhi
 4308              		.loc 1 1379 0
 4309 1f70 994B     		ldr	r3, .L219+4
ARM GAS  /tmp/ccNtBBEs.s 			page 78


 4310 1f72 1B69     		ldr	r3, [r3, #16]
 4311 1f74 002B     		cmp	r3, #0
 4312 1f76 32D0     		beq	.L202
 4313              		.loc 1 1380 0
 4314 1f78 974B     		ldr	r3, .L219+4
 4315 1f7a 1A69     		ldr	r2, [r3, #16]
 4316 1f7c 0DF11303 		add	r3, sp, #19
 4317 1f80 1046     		mov	r0, r2
 4318 1f82 1946     		mov	r1, r3
 4319 1f84 FFF7FEFF 		bl	BSP_PRESSURE_IsInitialized
 4320 1f88 0346     		mov	r3, r0
 4321 1f8a 002B     		cmp	r3, #0
 4322 1f8c 27D1     		bne	.L202
 4323              		.loc 1 1381 0
 4324 1f8e 924B     		ldr	r3, .L219+4
 4325 1f90 1A69     		ldr	r2, [r3, #16]
 4326 1f92 03AB     		add	r3, sp, #12
 4327 1f94 1046     		mov	r0, r2
 4328 1f96 1946     		mov	r1, r3
 4329 1f98 FFF7FEFF 		bl	BSP_PRESSURE_Get_Press
 4330              		.loc 1 1382 0
 4331 1f9c 039B     		ldr	r3, [sp, #12]	@ float
 4332 1f9e 1846     		mov	r0, r3
 4333 1fa0 FFF7FEFF 		bl	__aeabi_f2iz
 4334 1fa4 0346     		mov	r3, r0
 4335 1fa6 0693     		str	r3, [sp, #24]
 4336 1fa8 039C     		ldr	r4, [sp, #12]	@ float
 4337 1faa 0698     		ldr	r0, [sp, #24]
 4338 1fac FFF7FEFF 		bl	__aeabi_i2f
 4339 1fb0 0346     		mov	r3, r0
 4340 1fb2 2046     		mov	r0, r4
 4341 1fb4 1946     		mov	r1, r3
 4342 1fb6 FFF7FEFF 		bl	__aeabi_fsub
 4343 1fba 0346     		mov	r3, r0
 4344 1fbc 1846     		mov	r0, r3
 4345 1fbe 8749     		ldr	r1, .L219+8
 4346 1fc0 FFF7FEFF 		bl	__aeabi_fmul
 4347 1fc4 0346     		mov	r3, r0
 4348 1fc6 1846     		mov	r0, r3
 4349 1fc8 FFF7FEFF 		bl	__aeabi_f2iz
 4350 1fcc 0346     		mov	r3, r0
 4351 1fce 0593     		str	r3, [sp, #20]
 4352              		.loc 1 1383 0
 4353 1fd0 069B     		ldr	r3, [sp, #24]
 4354 1fd2 6422     		movs	r2, #100
 4355 1fd4 02FB03F2 		mul	r2, r2, r3
 4356 1fd8 059B     		ldr	r3, [sp, #20]
 4357 1fda 1344     		add	r3, r3, r2
 4358 1fdc 0993     		str	r3, [sp, #36]
 4359              	.L202:
 4360              		.loc 1 1387 0
 4361 1fde 7E4B     		ldr	r3, .L219+4
 4362 1fe0 5B69     		ldr	r3, [r3, #20]
 4363 1fe2 002B     		cmp	r3, #0
 4364 1fe4 37D0     		beq	.L203
 4365              		.loc 1 1388 0
 4366 1fe6 7C4B     		ldr	r3, .L219+4
ARM GAS  /tmp/ccNtBBEs.s 			page 79


 4367 1fe8 5A69     		ldr	r2, [r3, #20]
 4368 1fea 0DF11303 		add	r3, sp, #19
 4369 1fee 1046     		mov	r0, r2
 4370 1ff0 1946     		mov	r1, r3
 4371 1ff2 FFF7FEFF 		bl	BSP_HUMIDITY_IsInitialized
 4372 1ff6 0346     		mov	r3, r0
 4373 1ff8 002B     		cmp	r3, #0
 4374 1ffa 2CD1     		bne	.L203
 4375              		.loc 1 1389 0
 4376 1ffc 764B     		ldr	r3, .L219+4
 4377 1ffe 5A69     		ldr	r2, [r3, #20]
 4378 2000 03AB     		add	r3, sp, #12
 4379 2002 1046     		mov	r0, r2
 4380 2004 1946     		mov	r1, r3
 4381 2006 FFF7FEFF 		bl	BSP_HUMIDITY_Get_Hum
 4382              		.loc 1 1390 0
 4383 200a 039B     		ldr	r3, [sp, #12]	@ float
 4384 200c 1846     		mov	r0, r3
 4385 200e FFF7FEFF 		bl	__aeabi_f2iz
 4386 2012 0346     		mov	r3, r0
 4387 2014 0693     		str	r3, [sp, #24]
 4388 2016 039C     		ldr	r4, [sp, #12]	@ float
 4389 2018 0698     		ldr	r0, [sp, #24]
 4390 201a FFF7FEFF 		bl	__aeabi_i2f
 4391 201e 0346     		mov	r3, r0
 4392 2020 2046     		mov	r0, r4
 4393 2022 1946     		mov	r1, r3
 4394 2024 FFF7FEFF 		bl	__aeabi_fsub
 4395 2028 0346     		mov	r3, r0
 4396 202a 1846     		mov	r0, r3
 4397 202c 6C49     		ldr	r1, .L219+12
 4398 202e FFF7FEFF 		bl	__aeabi_fmul
 4399 2032 0346     		mov	r3, r0
 4400 2034 1846     		mov	r0, r3
 4401 2036 FFF7FEFF 		bl	__aeabi_f2iz
 4402 203a 0346     		mov	r3, r0
 4403 203c 0593     		str	r3, [sp, #20]
 4404              		.loc 1 1391 0
 4405 203e 069B     		ldr	r3, [sp, #24]
 4406 2040 9BB2     		uxth	r3, r3
 4407 2042 1A46     		mov	r2, r3	@ movhi
 4408 2044 9200     		lsls	r2, r2, #2
 4409 2046 1344     		add	r3, r3, r2
 4410 2048 5B00     		lsls	r3, r3, #1
 4411 204a 9AB2     		uxth	r2, r3
 4412 204c 059B     		ldr	r3, [sp, #20]
 4413 204e 9BB2     		uxth	r3, r3
 4414 2050 1344     		add	r3, r3, r2
 4415 2052 ADF82230 		strh	r3, [sp, #34]	@ movhi
 4416              	.L203:
 4417              		.loc 1 1395 0
 4418 2056 604B     		ldr	r3, .L219+4
 4419 2058 5B68     		ldr	r3, [r3, #4]
 4420 205a 022B     		cmp	r3, #2
 4421 205c 72D1     		bne	.L204
 4422              		.loc 1 1396 0
 4423 205e 5E4B     		ldr	r3, .L219+4
ARM GAS  /tmp/ccNtBBEs.s 			page 80


 4424 2060 9A68     		ldr	r2, [r3, #8]
 4425 2062 0DF11303 		add	r3, sp, #19
 4426 2066 1046     		mov	r0, r2
 4427 2068 1946     		mov	r1, r3
 4428 206a FFF7FEFF 		bl	BSP_TEMPERATURE_IsInitialized
 4429 206e 0346     		mov	r3, r0
 4430 2070 002B     		cmp	r3, #0
 4431 2072 2DD1     		bne	.L205
 4432              		.loc 1 1397 0
 4433 2074 584B     		ldr	r3, .L219+4
 4434 2076 9A68     		ldr	r2, [r3, #8]
 4435 2078 03AB     		add	r3, sp, #12
 4436 207a 1046     		mov	r0, r2
 4437 207c 1946     		mov	r1, r3
 4438 207e FFF7FEFF 		bl	BSP_TEMPERATURE_Get_Temp
 4439              		.loc 1 1398 0
 4440 2082 039B     		ldr	r3, [sp, #12]	@ float
 4441 2084 1846     		mov	r0, r3
 4442 2086 FFF7FEFF 		bl	__aeabi_f2iz
 4443 208a 0346     		mov	r3, r0
 4444 208c 0693     		str	r3, [sp, #24]
 4445 208e 039C     		ldr	r4, [sp, #12]	@ float
 4446 2090 0698     		ldr	r0, [sp, #24]
 4447 2092 FFF7FEFF 		bl	__aeabi_i2f
 4448 2096 0346     		mov	r3, r0
 4449 2098 2046     		mov	r0, r4
 4450 209a 1946     		mov	r1, r3
 4451 209c FFF7FEFF 		bl	__aeabi_fsub
 4452 20a0 0346     		mov	r3, r0
 4453 20a2 1846     		mov	r0, r3
 4454 20a4 4E49     		ldr	r1, .L219+12
 4455 20a6 FFF7FEFF 		bl	__aeabi_fmul
 4456 20aa 0346     		mov	r3, r0
 4457 20ac 1846     		mov	r0, r3
 4458 20ae FFF7FEFF 		bl	__aeabi_f2iz
 4459 20b2 0346     		mov	r3, r0
 4460 20b4 0593     		str	r3, [sp, #20]
 4461              		.loc 1 1399 0
 4462 20b6 069B     		ldr	r3, [sp, #24]
 4463 20b8 9BB2     		uxth	r3, r3
 4464 20ba 1A46     		mov	r2, r3	@ movhi
 4465 20bc 9200     		lsls	r2, r2, #2
 4466 20be 1344     		add	r3, r3, r2
 4467 20c0 5B00     		lsls	r3, r3, #1
 4468 20c2 9AB2     		uxth	r2, r3
 4469 20c4 059B     		ldr	r3, [sp, #20]
 4470 20c6 9BB2     		uxth	r3, r3
 4471 20c8 1344     		add	r3, r3, r2
 4472 20ca 9BB2     		uxth	r3, r3
 4473 20cc ADF81E30 		strh	r3, [sp, #30]	@ movhi
 4474              	.L205:
 4475              		.loc 1 1402 0
 4476 20d0 414B     		ldr	r3, .L219+4
 4477 20d2 DA68     		ldr	r2, [r3, #12]
 4478 20d4 0DF11303 		add	r3, sp, #19
 4479 20d8 1046     		mov	r0, r2
 4480 20da 1946     		mov	r1, r3
ARM GAS  /tmp/ccNtBBEs.s 			page 81


 4481 20dc FFF7FEFF 		bl	BSP_TEMPERATURE_IsInitialized
 4482 20e0 0346     		mov	r3, r0
 4483 20e2 002B     		cmp	r3, #0
 4484 20e4 6BD1     		bne	.L207
 4485              		.loc 1 1403 0
 4486 20e6 3C4B     		ldr	r3, .L219+4
 4487 20e8 DA68     		ldr	r2, [r3, #12]
 4488 20ea 03AB     		add	r3, sp, #12
 4489 20ec 1046     		mov	r0, r2
 4490 20ee 1946     		mov	r1, r3
 4491 20f0 FFF7FEFF 		bl	BSP_TEMPERATURE_Get_Temp
 4492              		.loc 1 1404 0
 4493 20f4 039B     		ldr	r3, [sp, #12]	@ float
 4494 20f6 1846     		mov	r0, r3
 4495 20f8 FFF7FEFF 		bl	__aeabi_f2iz
 4496 20fc 0346     		mov	r3, r0
 4497 20fe 0693     		str	r3, [sp, #24]
 4498 2100 039C     		ldr	r4, [sp, #12]	@ float
 4499 2102 0698     		ldr	r0, [sp, #24]
 4500 2104 FFF7FEFF 		bl	__aeabi_i2f
 4501 2108 0346     		mov	r3, r0
 4502 210a 2046     		mov	r0, r4
 4503 210c 1946     		mov	r1, r3
 4504 210e FFF7FEFF 		bl	__aeabi_fsub
 4505 2112 0346     		mov	r3, r0
 4506 2114 1846     		mov	r0, r3
 4507 2116 3249     		ldr	r1, .L219+12
 4508 2118 FFF7FEFF 		bl	__aeabi_fmul
 4509 211c 0346     		mov	r3, r0
 4510 211e 1846     		mov	r0, r3
 4511 2120 FFF7FEFF 		bl	__aeabi_f2iz
 4512 2124 0346     		mov	r3, r0
 4513 2126 0593     		str	r3, [sp, #20]
 4514              		.loc 1 1405 0
 4515 2128 069B     		ldr	r3, [sp, #24]
 4516 212a 9BB2     		uxth	r3, r3
 4517 212c 1A46     		mov	r2, r3	@ movhi
 4518 212e 9200     		lsls	r2, r2, #2
 4519 2130 1344     		add	r3, r3, r2
 4520 2132 5B00     		lsls	r3, r3, #1
 4521 2134 9AB2     		uxth	r2, r3
 4522 2136 059B     		ldr	r3, [sp, #20]
 4523 2138 9BB2     		uxth	r3, r3
 4524 213a 1344     		add	r3, r3, r2
 4525 213c 9BB2     		uxth	r3, r3
 4526 213e ADF82030 		strh	r3, [sp, #32]	@ movhi
 4527 2142 3CE0     		b	.L207
 4528              	.L204:
 4529              		.loc 1 1407 0
 4530 2144 244B     		ldr	r3, .L219+4
 4531 2146 5B68     		ldr	r3, [r3, #4]
 4532 2148 012B     		cmp	r3, #1
 4533 214a 38D1     		bne	.L207
 4534              		.loc 1 1408 0
 4535 214c 224B     		ldr	r3, .L219+4
 4536 214e 9A68     		ldr	r2, [r3, #8]
 4537 2150 0DF11303 		add	r3, sp, #19
ARM GAS  /tmp/ccNtBBEs.s 			page 82


 4538 2154 1046     		mov	r0, r2
 4539 2156 1946     		mov	r1, r3
 4540 2158 FFF7FEFF 		bl	BSP_TEMPERATURE_IsInitialized
 4541 215c 0346     		mov	r3, r0
 4542 215e 002B     		cmp	r3, #0
 4543 2160 2DD1     		bne	.L207
 4544              		.loc 1 1409 0
 4545 2162 1D4B     		ldr	r3, .L219+4
 4546 2164 9A68     		ldr	r2, [r3, #8]
 4547 2166 03AB     		add	r3, sp, #12
 4548 2168 1046     		mov	r0, r2
 4549 216a 1946     		mov	r1, r3
 4550 216c FFF7FEFF 		bl	BSP_TEMPERATURE_Get_Temp
 4551              		.loc 1 1410 0
 4552 2170 039B     		ldr	r3, [sp, #12]	@ float
 4553 2172 1846     		mov	r0, r3
 4554 2174 FFF7FEFF 		bl	__aeabi_f2iz
 4555 2178 0346     		mov	r3, r0
 4556 217a 0693     		str	r3, [sp, #24]
 4557 217c 039C     		ldr	r4, [sp, #12]	@ float
 4558 217e 0698     		ldr	r0, [sp, #24]
 4559 2180 FFF7FEFF 		bl	__aeabi_i2f
 4560 2184 0346     		mov	r3, r0
 4561 2186 2046     		mov	r0, r4
 4562 2188 1946     		mov	r1, r3
 4563 218a FFF7FEFF 		bl	__aeabi_fsub
 4564 218e 0346     		mov	r3, r0
 4565 2190 1846     		mov	r0, r3
 4566 2192 1349     		ldr	r1, .L219+12
 4567 2194 FFF7FEFF 		bl	__aeabi_fmul
 4568 2198 0346     		mov	r3, r0
 4569 219a 1846     		mov	r0, r3
 4570 219c FFF7FEFF 		bl	__aeabi_f2iz
 4571 21a0 0346     		mov	r3, r0
 4572 21a2 0593     		str	r3, [sp, #20]
 4573              		.loc 1 1411 0
 4574 21a4 069B     		ldr	r3, [sp, #24]
 4575 21a6 9BB2     		uxth	r3, r3
 4576 21a8 1A46     		mov	r2, r3	@ movhi
 4577 21aa 9200     		lsls	r2, r2, #2
 4578 21ac 1344     		add	r3, r3, r2
 4579 21ae 5B00     		lsls	r3, r3, #1
 4580 21b0 9AB2     		uxth	r2, r3
 4581 21b2 059B     		ldr	r3, [sp, #20]
 4582 21b4 9BB2     		uxth	r3, r3
 4583 21b6 1344     		add	r3, r3, r2
 4584 21b8 9BB2     		uxth	r3, r3
 4585 21ba ADF81E30 		strh	r3, [sp, #30]	@ movhi
 4586              	.L207:
 4587              		.loc 1 1414 0 discriminator 1
 4588 21be BDF82210 		ldrh	r1, [sp, #34]
 4589 21c2 BDF92020 		ldrsh	r2, [sp, #32]
 4590 21c6 BDF91E30 		ldrsh	r3, [sp, #30]
 4591 21ca 0998     		ldr	r0, [sp, #36]
 4592 21cc FFF7FEFF 		bl	Environmental_Update
 4593              	.LBE4:
 4594 21d0 6CE0     		b	.L208
ARM GAS  /tmp/ccNtBBEs.s 			page 83


 4595              	.L220:
 4596 21d2 00BF     		.align	2
 4597              	.L219:
 4598 21d4 06000000 		.word	EnvironmentalCharHandle
 4599 21d8 00000000 		.word	TargetBoardFeatures
 4600 21dc 0000C842 		.word	1120403456
 4601 21e0 00002041 		.word	1092616192
 4602              	.L201:
 4603              		.loc 1 1415 0
 4604 21e4 BDF80620 		ldrh	r2, [sp, #6]
 4605 21e8 364B     		ldr	r3, .L221
 4606 21ea 1B88     		ldrh	r3, [r3]
 4607 21ec 0133     		adds	r3, r3, #1
 4608 21ee 9A42     		cmp	r2, r3
 4609 21f0 18D1     		bne	.L209
 4610              		.loc 1 1417 0
 4611 21f2 354B     		ldr	r3, .L221+4
 4612 21f4 9B69     		ldr	r3, [r3, #24]
 4613 21f6 002B     		cmp	r3, #0
 4614 21f8 58D0     		beq	.L208
 4615              	.LBB5:
 4616              		.loc 1 1419 0
 4617 21fa 344B     		ldr	r3, .L221+8
 4618 21fc 1B68     		ldr	r3, [r3]
 4619 21fe 03F00103 		and	r3, r3, #1
 4620 2202 002B     		cmp	r3, #0
 4621 2204 05D0     		beq	.L211
 4622              		.loc 1 1420 0
 4623 2206 FFF7FEFF 		bl	GetStepHWPedometer
 4624 220a 0346     		mov	r3, r0
 4625 220c ADF81C30 		strh	r3, [sp, #28]	@ movhi
 4626 2210 02E0     		b	.L212
 4627              	.L211:
 4628              		.loc 1 1422 0
 4629 2212 0023     		movs	r3, #0
 4630 2214 ADF81C30 		strh	r3, [sp, #28]	@ movhi
 4631              	.L212:
 4632              		.loc 1 1424 0
 4633 2218 BDF81C30 		ldrh	r3, [sp, #28]
 4634 221c 1846     		mov	r0, r3
 4635 221e FFF7FEFF 		bl	AccEvent_Notify
 4636 2222 43E0     		b	.L208
 4637              	.L209:
 4638              	.LBE5:
 4639              		.loc 1 1426 0
 4640 2224 BDF80620 		ldrh	r2, [sp, #6]
 4641 2228 294B     		ldr	r3, .L221+12
 4642 222a 1B88     		ldrh	r3, [r3]
 4643 222c 0133     		adds	r3, r3, #1
 4644 222e 9A42     		cmp	r2, r3
 4645 2230 02D1     		bne	.L213
 4646              		.loc 1 1428 0
 4647 2232 FEF76DF9 		bl	Stderr_Update_AfterRead
 4648 2236 39E0     		b	.L208
 4649              	.L213:
 4650              		.loc 1 1429 0
 4651 2238 BDF80620 		ldrh	r2, [sp, #6]
ARM GAS  /tmp/ccNtBBEs.s 			page 84


 4652 223c 254B     		ldr	r3, .L221+16
 4653 223e 1B88     		ldrh	r3, [r3]
 4654 2240 0133     		adds	r3, r3, #1
 4655 2242 9A42     		cmp	r2, r3
 4656 2244 02D1     		bne	.L214
 4657              		.loc 1 1431 0
 4658 2246 FEF78BF9 		bl	Term_Update_AfterRead
 4659 224a 2FE0     		b	.L208
 4660              	.L214:
 4661              		.loc 1 1433 0
 4662 224c BDF80620 		ldrh	r2, [sp, #6]
 4663 2250 214B     		ldr	r3, .L221+20
 4664 2252 1B88     		ldrh	r3, [r3]
 4665 2254 0133     		adds	r3, r3, #1
 4666 2256 9A42     		cmp	r2, r3
 4667 2258 05D1     		bne	.L215
 4668              		.loc 1 1434 0
 4669 225a 204B     		ldr	r3, .L221+24
 4670 225c 1B78     		ldrb	r3, [r3]	@ zero_extendqisi2
 4671 225e 1846     		mov	r0, r3
 4672 2260 FFF7FEFF 		bl	ActivityRec_Update
 4673 2264 22E0     		b	.L208
 4674              	.L215:
 4675              		.loc 1 1437 0
 4676 2266 BDF80620 		ldrh	r2, [sp, #6]
 4677 226a 1D4B     		ldr	r3, .L221+28
 4678 226c 1B88     		ldrh	r3, [r3]
 4679 226e 0133     		adds	r3, r3, #1
 4680 2270 9A42     		cmp	r2, r3
 4681 2272 05D1     		bne	.L216
 4682              		.loc 1 1438 0
 4683 2274 1B4B     		ldr	r3, .L221+32
 4684 2276 1B78     		ldrb	r3, [r3]	@ zero_extendqisi2
 4685 2278 1846     		mov	r0, r3
 4686 227a FFF7FEFF 		bl	CarryPosRec_Update
 4687 227e 15E0     		b	.L208
 4688              	.L216:
 4689              		.loc 1 1442 0
 4690 2280 BDF80620 		ldrh	r2, [sp, #6]
 4691 2284 184B     		ldr	r3, .L221+36
 4692 2286 1B88     		ldrh	r3, [r3]
 4693 2288 0133     		adds	r3, r3, #1
 4694 228a 9A42     		cmp	r2, r3
 4695 228c 05D1     		bne	.L217
 4696              		.loc 1 1443 0
 4697 228e 174B     		ldr	r3, .L221+40
 4698 2290 1B78     		ldrb	r3, [r3]	@ zero_extendqisi2
 4699 2292 1846     		mov	r0, r3
 4700 2294 FFF7FEFF 		bl	GestureRec_Update
 4701 2298 08E0     		b	.L208
 4702              	.L217:
 4703              		.loc 1 1447 0
 4704 229a BDF80620 		ldrh	r2, [sp, #6]
 4705 229e 144B     		ldr	r3, .L221+44
 4706 22a0 1B88     		ldrh	r3, [r3]
 4707 22a2 0133     		adds	r3, r3, #1
 4708 22a4 9A42     		cmp	r2, r3
ARM GAS  /tmp/ccNtBBEs.s 			page 85


 4709 22a6 01D1     		bne	.L208
 4710              		.loc 1 1448 0
 4711 22a8 FFF7FEFF 		bl	GG_Update
 4712              	.L208:
 4713              		.loc 1 1453 0
 4714 22ac 114B     		ldr	r3, .L221+48
 4715 22ae 1B88     		ldrh	r3, [r3]
 4716 22b0 002B     		cmp	r3, #0
 4717 22b2 04D0     		beq	.L200
 4718              		.loc 1 1454 0
 4719 22b4 0F4B     		ldr	r3, .L221+48
 4720 22b6 1B88     		ldrh	r3, [r3]
 4721 22b8 1846     		mov	r0, r3
 4722 22ba FFF7FEFF 		bl	aci_gatt_allow_read
 4723              	.L200:
 4724              		.loc 1 1455 0
 4725 22be 0AB0     		add	sp, sp, #40
 4726              		@ sp needed
 4727 22c0 10BD     		pop	{r4, pc}
 4728              	.L222:
 4729 22c2 00BF     		.align	2
 4730              	.L221:
 4731 22c4 0A000000 		.word	AccEventCharHandle
 4732 22c8 00000000 		.word	TargetBoardFeatures
 4733 22cc 00000000 		.word	HWAdvanceFeaturesStatus
 4734 22d0 22000000 		.word	StdErrCharHandle
 4735 22d4 20000000 		.word	TermCharHandle
 4736 22d8 14000000 		.word	ActivityRecCharHandle
 4737 22dc 00000000 		.word	ActivityCode
 4738 22e0 16000000 		.word	CarryPosRecCharHandle
 4739 22e4 00000000 		.word	CarryPositionCode
 4740 22e8 18000000 		.word	GestureRecCharHandle
 4741 22ec 00000000 		.word	GestureRecognitionCode
 4742 22f0 0E000000 		.word	GGCharHandle
 4743 22f4 58000000 		.word	connection_handle
 4744              		.cfi_endproc
 4745              	.LFE291:
 4746              		.size	Read_Request_CB, .-Read_Request_CB
 4747              		.section	.rodata
 4748 01b6 0000     		.align	2
 4749              	.LC14:
 4750 01b8 204F4E0D 		.ascii	" ON\015\012\000"
 4750      0A00
 4751 01be 0000     		.align	2
 4752              	.LC15:
 4753 01c0 204F4646 		.ascii	" OFF\015\012\012\000"
 4753      0D0A0A00 
 4754              		.align	2
 4755              	.LC16:
 4756 01c8 2D2D2D3E 		.ascii	"--->Quater=%s\000"
 4756      51756174 
 4756      65723D25 
 4756      7300
 4757 01d6 0000     		.align	2
 4758              	.LC17:
 4759 01d8 2D2D2D3E 		.ascii	"--->ECompass=%s\000"
 4759      45436F6D 
ARM GAS  /tmp/ccNtBBEs.s 			page 86


 4759      70617373 
 4759      3D257300 
 4760              		.align	2
 4761              	.LC18:
 4762 01e8 204F4646 		.ascii	" OFF\015\012\000"
 4762      0D0A00
 4763 01ef 00       		.align	2
 4764              	.LC19:
 4765 01f0 2D2D2D3E 		.ascii	"--->BV_ADPCM=%s\000"
 4765      42565F41 
 4765      4450434D 
 4765      3D257300 
 4766              		.align	2
 4767              	.LC20:
 4768 0200 2D2D2D3E 		.ascii	"--->BV_ADPCM_Sync=%s\000"
 4768      42565F41 
 4768      4450434D 
 4768      5F53796E 
 4768      633D2573 
 4769 0215 000000   		.align	2
 4770              	.LC21:
 4771 0218 2D2D2D3E 		.ascii	"--->ActRec=%s\000"
 4771      41637452 
 4771      65633D25 
 4771      7300
 4772 0226 0000     		.align	2
 4773              	.LC22:
 4774 0228 2D2D2D3E 		.ascii	"--->CarryPosRec=%s\000"
 4774      43617272 
 4774      79506F73 
 4774      5265633D 
 4774      257300
 4775 023b 00       		.align	2
 4776              	.LC23:
 4777 023c 2D2D2D3E 		.ascii	"--->GestureRec=%s\000"
 4777      47657374 
 4777      75726552 
 4777      65633D25 
 4777      7300
 4778 024e 0000     		.align	2
 4779              	.LC24:
 4780 0250 2D2D2D47 		.ascii	"---GG=%s\000"
 4780      473D2573 
 4780      00
 4781 0259 000000   		.align	2
 4782              	.LC25:
 4783 025c 4F4E00   		.ascii	"ON\000"
 4784 025f 00       		.align	2
 4785              	.LC26:
 4786 0260 4F464600 		.ascii	"OFF\000"
 4787              		.align	2
 4788              	.LC27:
 4789 0264 2D2D2D3E 		.ascii	"--->Calib=%s\015\012\012\000"
 4789      43616C69 
 4789      623D2573 
 4789      0D0A0A00 
 4790              		.align	2
ARM GAS  /tmp/ccNtBBEs.s 			page 87


 4791              	.LC28:
 4792 0274 2D2D2D3E 		.ascii	"--->Acc/Gyro/Mag=%s\000"
 4792      4163632F 
 4792      4779726F 
 4792      2F4D6167 
 4792      3D257300 
 4793              		.align	2
 4794              	.LC29:
 4795 0288 2D2D2D3E 		.ascii	"--->AccEvent=%s\000"
 4795      41636345 
 4795      76656E74 
 4795      3D257300 
 4796              		.align	2
 4797              	.LC30:
 4798 0298 2D2D2D3E 		.ascii	"--->Env=%s\000"
 4798      456E763D 
 4798      257300
 4799 02a3 00       		.align	2
 4800              	.LC31:
 4801 02a4 54686520 		.ascii	"The Board will restart in 5 seconds\015\012\000"
 4801      426F6172 
 4801      64207769 
 4801      6C6C2072 
 4801      65737461 
 4802 02ca 0000     		.align	2
 4803              	.LC32:
 4804 02cc 2D2D2D3E 		.ascii	"--->dB Noise AudioLevel=%s\000"
 4804      6442204E 
 4804      6F697365 
 4804      20417564 
 4804      696F4C65 
 4805 02e7 00       		.align	2
 4806              	.LC33:
 4807 02e8 4E6F7469 		.ascii	"Notification UNKNOW handle\015\012\000"
 4807      66696361 
 4807      74696F6E 
 4807      20554E4B 
 4807      4E4F5720 
 4808              		.text
 4809              		.align	2
 4810 22f8 AFF30080 		.p2align 4,,15
 4810      AFF30080 
 4811              		.global	Attribute_Modified_CB
 4812              		.thumb
 4813              		.thumb_func
 4814              		.type	Attribute_Modified_CB, %function
 4815              	Attribute_Modified_CB:
 4816              	.LFB292:
 4817              		.loc 1 1466 0
 4818              		.cfi_startproc
 4819              		@ args = 0, pretend = 0, frame = 48
 4820              		@ frame_needed = 0, uses_anonymous_args = 0
 4821 2300 F0B5     		push	{r4, r5, r6, r7, lr}
 4822              		.cfi_def_cfa_offset 20
 4823              		.cfi_offset 4, -20
 4824              		.cfi_offset 5, -16
 4825              		.cfi_offset 6, -12
ARM GAS  /tmp/ccNtBBEs.s 			page 88


 4826              		.cfi_offset 7, -8
 4827              		.cfi_offset 14, -4
 4828 2302 8FB0     		sub	sp, sp, #60
 4829              		.cfi_def_cfa_offset 80
 4830 2304 0291     		str	r1, [sp, #8]
 4831 2306 1346     		mov	r3, r2
 4832 2308 0246     		mov	r2, r0	@ movhi
 4833 230a ADF80E20 		strh	r2, [sp, #14]	@ movhi
 4834 230e 8DF80D30 		strb	r3, [sp, #13]
 4835              		.loc 1 1474 0
 4836 2312 BDF80E20 		ldrh	r2, [sp, #14]
 4837 2316 984B     		ldr	r3, .L314
 4838 2318 1B88     		ldrh	r3, [r3]
 4839 231a 0233     		adds	r3, r3, #2
 4840 231c 9A42     		cmp	r2, r3
 4841 231e 50D1     		bne	.L224
 4842              		.loc 1 1475 0
 4843 2320 029B     		ldr	r3, [sp, #8]
 4844 2322 1B78     		ldrb	r3, [r3]	@ zero_extendqisi2
 4845 2324 012B     		cmp	r3, #1
 4846 2326 18D1     		bne	.L225
 4847              		.loc 1 1476 0
 4848 2328 944B     		ldr	r3, .L314+4
 4849 232a 1B68     		ldr	r3, [r3]
 4850 232c 43F01002 		orr	r2, r3, #16
 4851 2330 924B     		ldr	r3, .L314+4
 4852 2332 1A60     		str	r2, [r3]
 4853              		.loc 1 1479 0
 4854 2334 9248     		ldr	r0, .L314+8
 4855 2336 0021     		movs	r1, #0
 4856 2338 FFF7FEFF 		bl	HAL_TIM_OC_Start_IT
 4857 233c 0346     		mov	r3, r0
 4858 233e 002B     		cmp	r3, #0
 4859 2340 01D0     		beq	.L226
 4860              		.loc 1 1481 0
 4861 2342 FFF7FEFF 		bl	Error_Handler
 4862              	.L226:
 4863              	.LBB6:
 4864              		.loc 1 1485 0
 4865 2346 8E4B     		ldr	r3, .L314+8
 4866 2348 1B68     		ldr	r3, [r3]
 4867 234a 5B6A     		ldr	r3, [r3, #36]
 4868 234c 0B93     		str	r3, [sp, #44]
 4869              		.loc 1 1487 0
 4870 234e 8C4B     		ldr	r3, .L314+8
 4871 2350 1B68     		ldr	r3, [r3]
 4872 2352 0B9A     		ldr	r2, [sp, #44]
 4873 2354 6432     		adds	r2, r2, #100
 4874 2356 5A63     		str	r2, [r3, #52]
 4875              	.LBE6:
 4876 2358 12E0     		b	.L227
 4877              	.L225:
 4878              		.loc 1 1489 0
 4879 235a 029B     		ldr	r3, [sp, #8]
 4880 235c 1B78     		ldrb	r3, [r3]	@ zero_extendqisi2
 4881 235e 002B     		cmp	r3, #0
 4882 2360 0ED1     		bne	.L227
ARM GAS  /tmp/ccNtBBEs.s 			page 89


 4883              		.loc 1 1490 0
 4884 2362 864B     		ldr	r3, .L314+4
 4885 2364 1B68     		ldr	r3, [r3]
 4886 2366 23F01002 		bic	r2, r3, #16
 4887 236a 844B     		ldr	r3, .L314+4
 4888 236c 1A60     		str	r2, [r3]
 4889              		.loc 1 1493 0
 4890 236e 8448     		ldr	r0, .L314+8
 4891 2370 0021     		movs	r1, #0
 4892 2372 FFF7FEFF 		bl	HAL_TIM_OC_Stop_IT
 4893 2376 0346     		mov	r3, r0
 4894 2378 002B     		cmp	r3, #0
 4895 237a 01D0     		beq	.L227
 4896              		.loc 1 1495 0
 4897 237c FFF7FEFF 		bl	Error_Handler
 4898              	.L227:
 4899              		.loc 1 1499 0
 4900 2380 7E4B     		ldr	r3, .L314+4
 4901 2382 1B68     		ldr	r3, [r3]
 4902 2384 03F48063 		and	r3, r3, #1024
 4903 2388 002B     		cmp	r3, #0
 4904 238a 00F02A85 		beq	.L223
 4905              		.loc 1 1500 0
 4906 238e 7B4B     		ldr	r3, .L314+4
 4907 2390 1B68     		ldr	r3, [r3]
 4908 2392 03F01003 		and	r3, r3, #16
 4909 2396 002B     		cmp	r3, #0
 4910 2398 01D0     		beq	.L229
 4911              		.loc 1 1500 0 is_stmt 0 discriminator 1
 4912 239a 7A4B     		ldr	r3, .L314+12
 4913 239c 00E0     		b	.L230
 4914              	.L229:
 4915              		.loc 1 1500 0 discriminator 2
 4916 239e 7A4B     		ldr	r3, .L314+16
 4917              	.L230:
 4918              		.loc 1 1500 0 discriminator 1
 4919 23a0 7A48     		ldr	r0, .L314+20
 4920 23a2 7B49     		ldr	r1, .L314+24
 4921 23a4 1A46     		mov	r2, r3
 4922 23a6 FFF7FEFF 		bl	sprintf
 4923 23aa 0246     		mov	r2, r0
 4924 23ac 794B     		ldr	r3, .L314+28
 4925 23ae 1A60     		str	r2, [r3]
 4926              		.loc 1 1501 0 is_stmt 1 discriminator 1
 4927 23b0 784B     		ldr	r3, .L314+28
 4928 23b2 1B68     		ldr	r3, [r3]
 4929 23b4 DBB2     		uxtb	r3, r3
 4930 23b6 7548     		ldr	r0, .L314+20
 4931 23b8 1946     		mov	r1, r3
 4932 23ba FFF7FEFF 		bl	Term_Update
 4933 23be 00F010BD 		b	.L223
 4934              	.L224:
 4935              		.loc 1 1506 0
 4936 23c2 BDF80E20 		ldrh	r2, [sp, #14]
 4937 23c6 744B     		ldr	r3, .L314+32
 4938 23c8 1B88     		ldrh	r3, [r3]
 4939 23ca 0233     		adds	r3, r3, #2
ARM GAS  /tmp/ccNtBBEs.s 			page 90


 4940 23cc 9A42     		cmp	r2, r3
 4941 23ce 50D1     		bne	.L231
 4942              		.loc 1 1507 0
 4943 23d0 029B     		ldr	r3, [sp, #8]
 4944 23d2 1B78     		ldrb	r3, [r3]	@ zero_extendqisi2
 4945 23d4 012B     		cmp	r3, #1
 4946 23d6 18D1     		bne	.L232
 4947              		.loc 1 1508 0
 4948 23d8 684B     		ldr	r3, .L314+4
 4949 23da 1B68     		ldr	r3, [r3]
 4950 23dc 43F02002 		orr	r2, r3, #32
 4951 23e0 664B     		ldr	r3, .L314+4
 4952 23e2 1A60     		str	r2, [r3]
 4953              		.loc 1 1511 0
 4954 23e4 6648     		ldr	r0, .L314+8
 4955 23e6 0021     		movs	r1, #0
 4956 23e8 FFF7FEFF 		bl	HAL_TIM_OC_Start_IT
 4957 23ec 0346     		mov	r3, r0
 4958 23ee 002B     		cmp	r3, #0
 4959 23f0 01D0     		beq	.L233
 4960              		.loc 1 1513 0
 4961 23f2 FFF7FEFF 		bl	Error_Handler
 4962              	.L233:
 4963              	.LBB7:
 4964              		.loc 1 1517 0
 4965 23f6 624B     		ldr	r3, .L314+8
 4966 23f8 1B68     		ldr	r3, [r3]
 4967 23fa 5B6A     		ldr	r3, [r3, #36]
 4968 23fc 0A93     		str	r3, [sp, #40]
 4969              		.loc 1 1519 0
 4970 23fe 604B     		ldr	r3, .L314+8
 4971 2400 1B68     		ldr	r3, [r3]
 4972 2402 0A9A     		ldr	r2, [sp, #40]
 4973 2404 6432     		adds	r2, r2, #100
 4974 2406 5A63     		str	r2, [r3, #52]
 4975              	.LBE7:
 4976 2408 12E0     		b	.L234
 4977              	.L232:
 4978              		.loc 1 1521 0
 4979 240a 029B     		ldr	r3, [sp, #8]
 4980 240c 1B78     		ldrb	r3, [r3]	@ zero_extendqisi2
 4981 240e 002B     		cmp	r3, #0
 4982 2410 0ED1     		bne	.L234
 4983              		.loc 1 1522 0
 4984 2412 5A4B     		ldr	r3, .L314+4
 4985 2414 1B68     		ldr	r3, [r3]
 4986 2416 23F02002 		bic	r2, r3, #32
 4987 241a 584B     		ldr	r3, .L314+4
 4988 241c 1A60     		str	r2, [r3]
 4989              		.loc 1 1525 0
 4990 241e 5848     		ldr	r0, .L314+8
 4991 2420 0021     		movs	r1, #0
 4992 2422 FFF7FEFF 		bl	HAL_TIM_OC_Stop_IT
 4993 2426 0346     		mov	r3, r0
 4994 2428 002B     		cmp	r3, #0
 4995 242a 01D0     		beq	.L234
 4996              		.loc 1 1527 0
ARM GAS  /tmp/ccNtBBEs.s 			page 91


 4997 242c FFF7FEFF 		bl	Error_Handler
 4998              	.L234:
 4999              		.loc 1 1531 0
 5000 2430 524B     		ldr	r3, .L314+4
 5001 2432 1B68     		ldr	r3, [r3]
 5002 2434 03F48063 		and	r3, r3, #1024
 5003 2438 002B     		cmp	r3, #0
 5004 243a 00F0D284 		beq	.L223
 5005              		.loc 1 1532 0
 5006 243e 4F4B     		ldr	r3, .L314+4
 5007 2440 1B68     		ldr	r3, [r3]
 5008 2442 03F02003 		and	r3, r3, #32
 5009 2446 002B     		cmp	r3, #0
 5010 2448 01D0     		beq	.L235
 5011              		.loc 1 1532 0 is_stmt 0 discriminator 1
 5012 244a 4E4B     		ldr	r3, .L314+12
 5013 244c 00E0     		b	.L236
 5014              	.L235:
 5015              		.loc 1 1532 0 discriminator 2
 5016 244e 4E4B     		ldr	r3, .L314+16
 5017              	.L236:
 5018              		.loc 1 1532 0 discriminator 3
 5019 2450 4E48     		ldr	r0, .L314+20
 5020 2452 5249     		ldr	r1, .L314+36
 5021 2454 1A46     		mov	r2, r3
 5022 2456 FFF7FEFF 		bl	sprintf
 5023 245a 0246     		mov	r2, r0
 5024 245c 4D4B     		ldr	r3, .L314+28
 5025 245e 1A60     		str	r2, [r3]
 5026              		.loc 1 1533 0 is_stmt 1 discriminator 3
 5027 2460 4C4B     		ldr	r3, .L314+28
 5028 2462 1B68     		ldr	r3, [r3]
 5029 2464 DBB2     		uxtb	r3, r3
 5030 2466 4948     		ldr	r0, .L314+20
 5031 2468 1946     		mov	r1, r3
 5032 246a FFF7FEFF 		bl	Term_Update
 5033 246e 00F0B8BC 		b	.L223
 5034              	.L231:
 5035              		.loc 1 1539 0
 5036 2472 BDF80E20 		ldrh	r2, [sp, #14]
 5037 2476 4A4B     		ldr	r3, .L314+40
 5038 2478 5B88     		ldrh	r3, [r3, #2]
 5039 247a 0233     		adds	r3, r3, #2
 5040 247c 9A42     		cmp	r2, r3
 5041 247e 3ED1     		bne	.L237
 5042              		.loc 1 1540 0
 5043 2480 029B     		ldr	r3, [sp, #8]
 5044 2482 1B78     		ldrb	r3, [r3]	@ zero_extendqisi2
 5045 2484 012B     		cmp	r3, #1
 5046 2486 0BD1     		bne	.L238
 5047              		.loc 1 1542 0
 5048 2488 4FF4FA50 		mov	r0, #8000
 5049 248c 4021     		movs	r1, #64
 5050 248e FFF7FEFF 		bl	InitMics
 5051              		.loc 1 1544 0
 5052 2492 3A4B     		ldr	r3, .L314+4
 5053 2494 1B68     		ldr	r3, [r3]
ARM GAS  /tmp/ccNtBBEs.s 			page 92


 5054 2496 43F40052 		orr	r2, r3, #8192
 5055 249a 384B     		ldr	r3, .L314+4
 5056 249c 1A60     		str	r2, [r3]
 5057 249e 0DE0     		b	.L239
 5058              	.L238:
 5059              		.loc 1 1545 0
 5060 24a0 029B     		ldr	r3, [sp, #8]
 5061 24a2 1B78     		ldrb	r3, [r3]	@ zero_extendqisi2
 5062 24a4 002B     		cmp	r3, #0
 5063 24a6 09D1     		bne	.L239
 5064              		.loc 1 1546 0
 5065 24a8 FFF7FEFF 		bl	LedOffTargetPlatform
 5066              		.loc 1 1548 0
 5067 24ac FFF7FEFF 		bl	DeInitMics
 5068              		.loc 1 1550 0
 5069 24b0 324B     		ldr	r3, .L314+4
 5070 24b2 1B68     		ldr	r3, [r3]
 5071 24b4 23F40052 		bic	r2, r3, #8192
 5072 24b8 304B     		ldr	r3, .L314+4
 5073 24ba 1A60     		str	r2, [r3]
 5074              	.L239:
 5075              		.loc 1 1553 0
 5076 24bc 2F4B     		ldr	r3, .L314+4
 5077 24be 1B68     		ldr	r3, [r3]
 5078 24c0 03F48063 		and	r3, r3, #1024
 5079 24c4 002B     		cmp	r3, #0
 5080 24c6 00F08C84 		beq	.L223
 5081              		.loc 1 1554 0
 5082 24ca 2C4B     		ldr	r3, .L314+4
 5083 24cc 1B68     		ldr	r3, [r3]
 5084 24ce 03F40053 		and	r3, r3, #8192
 5085 24d2 002B     		cmp	r3, #0
 5086 24d4 01D0     		beq	.L240
 5087              		.loc 1 1554 0 is_stmt 0 discriminator 1
 5088 24d6 2B4B     		ldr	r3, .L314+12
 5089 24d8 00E0     		b	.L241
 5090              	.L240:
 5091              		.loc 1 1554 0 discriminator 2
 5092 24da 324B     		ldr	r3, .L314+44
 5093              	.L241:
 5094              		.loc 1 1554 0 discriminator 5
 5095 24dc 2B48     		ldr	r0, .L314+20
 5096 24de 3249     		ldr	r1, .L314+48
 5097 24e0 1A46     		mov	r2, r3
 5098 24e2 FFF7FEFF 		bl	sprintf
 5099 24e6 0246     		mov	r2, r0
 5100 24e8 2A4B     		ldr	r3, .L314+28
 5101 24ea 1A60     		str	r2, [r3]
 5102              		.loc 1 1555 0 is_stmt 1 discriminator 5
 5103 24ec 294B     		ldr	r3, .L314+28
 5104 24ee 1B68     		ldr	r3, [r3]
 5105 24f0 DBB2     		uxtb	r3, r3
 5106 24f2 2648     		ldr	r0, .L314+20
 5107 24f4 1946     		mov	r1, r3
 5108 24f6 FFF7FEFF 		bl	Term_Update
 5109 24fa 00F072BC 		b	.L223
 5110              	.L237:
ARM GAS  /tmp/ccNtBBEs.s 			page 93


 5111              		.loc 1 1559 0
 5112 24fe BDF80E20 		ldrh	r2, [sp, #14]
 5113 2502 274B     		ldr	r3, .L314+40
 5114 2504 9B88     		ldrh	r3, [r3, #4]
 5115 2506 0233     		adds	r3, r3, #2
 5116 2508 9A42     		cmp	r2, r3
 5117 250a 51D1     		bne	.L242
 5118              		.loc 1 1560 0
 5119 250c 029B     		ldr	r3, [sp, #8]
 5120 250e 1B78     		ldrb	r3, [r3]	@ zero_extendqisi2
 5121 2510 012B     		cmp	r3, #1
 5122 2512 06D1     		bne	.L243
 5123              		.loc 1 1561 0
 5124 2514 194B     		ldr	r3, .L314+4
 5125 2516 1B68     		ldr	r3, [r3]
 5126 2518 43F48042 		orr	r2, r3, #16384
 5127 251c 174B     		ldr	r3, .L314+4
 5128 251e 1A60     		str	r2, [r3]
 5129 2520 09E0     		b	.L244
 5130              	.L243:
 5131              		.loc 1 1562 0
 5132 2522 029B     		ldr	r3, [sp, #8]
 5133 2524 1B78     		ldrb	r3, [r3]	@ zero_extendqisi2
 5134 2526 002B     		cmp	r3, #0
 5135 2528 05D1     		bne	.L244
 5136              		.loc 1 1563 0
 5137 252a 144B     		ldr	r3, .L314+4
 5138 252c 1B68     		ldr	r3, [r3]
 5139 252e 23F48042 		bic	r2, r3, #16384
 5140 2532 124B     		ldr	r3, .L314+4
 5141 2534 1A60     		str	r2, [r3]
 5142              	.L244:
 5143              		.loc 1 1566 0
 5144 2536 114B     		ldr	r3, .L314+4
 5145 2538 1B68     		ldr	r3, [r3]
 5146 253a 03F48063 		and	r3, r3, #1024
 5147 253e 002B     		cmp	r3, #0
 5148 2540 00F04F84 		beq	.L223
 5149              		.loc 1 1567 0
 5150 2544 0D4B     		ldr	r3, .L314+4
 5151 2546 1B68     		ldr	r3, [r3]
 5152 2548 03F48043 		and	r3, r3, #16384
 5153 254c 002B     		cmp	r3, #0
 5154 254e 01D0     		beq	.L245
 5155              		.loc 1 1567 0 is_stmt 0 discriminator 1
 5156 2550 0C4B     		ldr	r3, .L314+12
 5157 2552 00E0     		b	.L246
 5158              	.L245:
 5159              		.loc 1 1567 0 discriminator 2
 5160 2554 0C4B     		ldr	r3, .L314+16
 5161              	.L246:
 5162              		.loc 1 1567 0 discriminator 7
 5163 2556 0D48     		ldr	r0, .L314+20
 5164 2558 1449     		ldr	r1, .L314+52
 5165 255a 1A46     		mov	r2, r3
 5166 255c FFF7FEFF 		bl	sprintf
 5167 2560 0246     		mov	r2, r0
ARM GAS  /tmp/ccNtBBEs.s 			page 94


 5168 2562 0C4B     		ldr	r3, .L314+28
 5169 2564 1A60     		str	r2, [r3]
 5170              		.loc 1 1568 0 is_stmt 1 discriminator 7
 5171 2566 0B4B     		ldr	r3, .L314+28
 5172 2568 1B68     		ldr	r3, [r3]
 5173 256a DBB2     		uxtb	r3, r3
 5174 256c 0748     		ldr	r0, .L314+20
 5175 256e 1946     		mov	r1, r3
 5176 2570 FFF7FEFF 		bl	Term_Update
 5177 2574 00F035BC 		b	.L223
 5178              	.L315:
 5179              		.align	2
 5180              	.L314:
 5181 2578 10000000 		.word	QuaternionsCharHandle
 5182 257c 00000000 		.word	ConnectionBleStatus
 5183 2580 00000000 		.word	TimCCHandle
 5184 2584 B8010000 		.word	.LC14
 5185 2588 C0010000 		.word	.LC15
 5186 258c 00000000 		.word	BufferToWrite
 5187 2590 C8010000 		.word	.LC16
 5188 2594 00000000 		.word	BytesToWrite
 5189 2598 12000000 		.word	ECompassCharHandle
 5190 259c D8010000 		.word	.LC17
 5191 25a0 00000000 		.word	BLUEVOICE_tx_handle
 5192 25a4 E8010000 		.word	.LC18
 5193 25a8 F0010000 		.word	.LC19
 5194 25ac 00020000 		.word	.LC20
 5195              	.L242:
 5196              		.loc 1 1575 0
 5197 25b0 BDF80E20 		ldrh	r2, [sp, #14]
 5198 25b4 944B     		ldr	r3, .L316
 5199 25b6 1B88     		ldrh	r3, [r3]
 5200 25b8 0233     		adds	r3, r3, #2
 5201 25ba 9A42     		cmp	r2, r3
 5202 25bc 54D1     		bne	.L247
 5203              		.loc 1 1576 0
 5204 25be 029B     		ldr	r3, [sp, #8]
 5205 25c0 1B78     		ldrb	r3, [r3]	@ zero_extendqisi2
 5206 25c2 012B     		cmp	r3, #1
 5207 25c4 1BD1     		bne	.L248
 5208              		.loc 1 1578 0
 5209 25c6 FFF7FEFF 		bl	Set4GAccelerometerFullScale
 5210              		.loc 1 1580 0
 5211 25ca 904B     		ldr	r3, .L316+4
 5212 25cc 1B68     		ldr	r3, [r3]
 5213 25ce 43F04002 		orr	r2, r3, #64
 5214 25d2 8E4B     		ldr	r3, .L316+4
 5215 25d4 1A60     		str	r2, [r3]
 5216              		.loc 1 1583 0
 5217 25d6 8E48     		ldr	r0, .L316+8
 5218 25d8 0821     		movs	r1, #8
 5219 25da FFF7FEFF 		bl	HAL_TIM_OC_Start_IT
 5220 25de 0346     		mov	r3, r0
 5221 25e0 002B     		cmp	r3, #0
 5222 25e2 01D0     		beq	.L249
 5223              		.loc 1 1585 0
 5224 25e4 FFF7FEFF 		bl	Error_Handler
ARM GAS  /tmp/ccNtBBEs.s 			page 95


 5225              	.L249:
 5226              	.LBB8:
 5227              		.loc 1 1589 0
 5228 25e8 894B     		ldr	r3, .L316+8
 5229 25ea 1B68     		ldr	r3, [r3]
 5230 25ec 5B6A     		ldr	r3, [r3, #36]
 5231 25ee 0993     		str	r3, [sp, #36]
 5232              		.loc 1 1591 0
 5233 25f0 874B     		ldr	r3, .L316+8
 5234 25f2 1B68     		ldr	r3, [r3]
 5235 25f4 099A     		ldr	r2, [sp, #36]
 5236 25f6 02F27122 		addw	r2, r2, #625
 5237 25fa DA63     		str	r2, [r3, #60]
 5238              	.LBE8:
 5239 25fc 14E0     		b	.L250
 5240              	.L248:
 5241              		.loc 1 1593 0
 5242 25fe 029B     		ldr	r3, [sp, #8]
 5243 2600 1B78     		ldrb	r3, [r3]	@ zero_extendqisi2
 5244 2602 002B     		cmp	r3, #0
 5245 2604 10D1     		bne	.L250
 5246              		.loc 1 1595 0
 5247 2606 FFF7FEFF 		bl	Set2GAccelerometerFullScale
 5248              		.loc 1 1597 0
 5249 260a 804B     		ldr	r3, .L316+4
 5250 260c 1B68     		ldr	r3, [r3]
 5251 260e 23F04002 		bic	r2, r3, #64
 5252 2612 7E4B     		ldr	r3, .L316+4
 5253 2614 1A60     		str	r2, [r3]
 5254              		.loc 1 1600 0
 5255 2616 7E48     		ldr	r0, .L316+8
 5256 2618 0821     		movs	r1, #8
 5257 261a FFF7FEFF 		bl	HAL_TIM_OC_Stop_IT
 5258 261e 0346     		mov	r3, r0
 5259 2620 002B     		cmp	r3, #0
 5260 2622 01D0     		beq	.L250
 5261              		.loc 1 1602 0
 5262 2624 FFF7FEFF 		bl	Error_Handler
 5263              	.L250:
 5264              		.loc 1 1606 0
 5265 2628 784B     		ldr	r3, .L316+4
 5266 262a 1B68     		ldr	r3, [r3]
 5267 262c 03F48063 		and	r3, r3, #1024
 5268 2630 002B     		cmp	r3, #0
 5269 2632 00F0D683 		beq	.L223
 5270              		.loc 1 1607 0
 5271 2636 754B     		ldr	r3, .L316+4
 5272 2638 1B68     		ldr	r3, [r3]
 5273 263a 03F04003 		and	r3, r3, #64
 5274 263e 002B     		cmp	r3, #0
 5275 2640 01D0     		beq	.L251
 5276              		.loc 1 1607 0 is_stmt 0 discriminator 1
 5277 2642 744B     		ldr	r3, .L316+12
 5278 2644 00E0     		b	.L252
 5279              	.L251:
 5280              		.loc 1 1607 0 discriminator 2
 5281 2646 744B     		ldr	r3, .L316+16
ARM GAS  /tmp/ccNtBBEs.s 			page 96


 5282              	.L252:
 5283              		.loc 1 1607 0 discriminator 9
 5284 2648 7448     		ldr	r0, .L316+20
 5285 264a 7549     		ldr	r1, .L316+24
 5286 264c 1A46     		mov	r2, r3
 5287 264e FFF7FEFF 		bl	sprintf
 5288 2652 0246     		mov	r2, r0
 5289 2654 734B     		ldr	r3, .L316+28
 5290 2656 1A60     		str	r2, [r3]
 5291              		.loc 1 1608 0 is_stmt 1 discriminator 9
 5292 2658 724B     		ldr	r3, .L316+28
 5293 265a 1B68     		ldr	r3, [r3]
 5294 265c DBB2     		uxtb	r3, r3
 5295 265e 6F48     		ldr	r0, .L316+20
 5296 2660 1946     		mov	r1, r3
 5297 2662 FFF7FEFF 		bl	Term_Update
 5298 2666 BCE3     		b	.L223
 5299              	.L247:
 5300              		.loc 1 1615 0
 5301 2668 BDF80E20 		ldrh	r2, [sp, #14]
 5302 266c 6E4B     		ldr	r3, .L316+32
 5303 266e 1B88     		ldrh	r3, [r3]
 5304 2670 0233     		adds	r3, r3, #2
 5305 2672 9A42     		cmp	r2, r3
 5306 2674 53D1     		bne	.L253
 5307              		.loc 1 1616 0
 5308 2676 029B     		ldr	r3, [sp, #8]
 5309 2678 1B78     		ldrb	r3, [r3]	@ zero_extendqisi2
 5310 267a 012B     		cmp	r3, #1
 5311 267c 1AD1     		bne	.L254
 5312              		.loc 1 1618 0
 5313 267e FFF7FEFF 		bl	Set4GAccelerometerFullScale
 5314              		.loc 1 1620 0
 5315 2682 624B     		ldr	r3, .L316+4
 5316 2684 1B68     		ldr	r3, [r3]
 5317 2686 43F08002 		orr	r2, r3, #128
 5318 268a 604B     		ldr	r3, .L316+4
 5319 268c 1A60     		str	r2, [r3]
 5320              		.loc 1 1623 0
 5321 268e 6048     		ldr	r0, .L316+8
 5322 2690 0421     		movs	r1, #4
 5323 2692 FFF7FEFF 		bl	HAL_TIM_OC_Start_IT
 5324 2696 0346     		mov	r3, r0
 5325 2698 002B     		cmp	r3, #0
 5326 269a 01D0     		beq	.L255
 5327              		.loc 1 1625 0
 5328 269c FFF7FEFF 		bl	Error_Handler
 5329              	.L255:
 5330              	.LBB9:
 5331              		.loc 1 1629 0
 5332 26a0 5B4B     		ldr	r3, .L316+8
 5333 26a2 1B68     		ldr	r3, [r3]
 5334 26a4 5B6A     		ldr	r3, [r3, #36]
 5335 26a6 0893     		str	r3, [sp, #32]
 5336              		.loc 1 1631 0
 5337 26a8 594B     		ldr	r3, .L316+8
 5338 26aa 1B68     		ldr	r3, [r3]
ARM GAS  /tmp/ccNtBBEs.s 			page 97


 5339 26ac 089A     		ldr	r2, [sp, #32]
 5340 26ae C832     		adds	r2, r2, #200
 5341 26b0 9A63     		str	r2, [r3, #56]
 5342              	.LBE9:
 5343 26b2 14E0     		b	.L256
 5344              	.L254:
 5345              		.loc 1 1633 0
 5346 26b4 029B     		ldr	r3, [sp, #8]
 5347 26b6 1B78     		ldrb	r3, [r3]	@ zero_extendqisi2
 5348 26b8 002B     		cmp	r3, #0
 5349 26ba 10D1     		bne	.L256
 5350              		.loc 1 1635 0
 5351 26bc FFF7FEFF 		bl	Set2GAccelerometerFullScale
 5352              		.loc 1 1637 0
 5353 26c0 524B     		ldr	r3, .L316+4
 5354 26c2 1B68     		ldr	r3, [r3]
 5355 26c4 23F08002 		bic	r2, r3, #128
 5356 26c8 504B     		ldr	r3, .L316+4
 5357 26ca 1A60     		str	r2, [r3]
 5358              		.loc 1 1640 0
 5359 26cc 5048     		ldr	r0, .L316+8
 5360 26ce 0421     		movs	r1, #4
 5361 26d0 FFF7FEFF 		bl	HAL_TIM_OC_Stop_IT
 5362 26d4 0346     		mov	r3, r0
 5363 26d6 002B     		cmp	r3, #0
 5364 26d8 01D0     		beq	.L256
 5365              		.loc 1 1642 0
 5366 26da FFF7FEFF 		bl	Error_Handler
 5367              	.L256:
 5368              		.loc 1 1646 0
 5369 26de 4B4B     		ldr	r3, .L316+4
 5370 26e0 1B68     		ldr	r3, [r3]
 5371 26e2 03F48063 		and	r3, r3, #1024
 5372 26e6 002B     		cmp	r3, #0
 5373 26e8 00F07B83 		beq	.L223
 5374              		.loc 1 1647 0
 5375 26ec 474B     		ldr	r3, .L316+4
 5376 26ee 1B68     		ldr	r3, [r3]
 5377 26f0 03F08003 		and	r3, r3, #128
 5378 26f4 002B     		cmp	r3, #0
 5379 26f6 01D0     		beq	.L257
 5380              		.loc 1 1647 0 is_stmt 0 discriminator 1
 5381 26f8 464B     		ldr	r3, .L316+12
 5382 26fa 00E0     		b	.L258
 5383              	.L257:
 5384              		.loc 1 1647 0 discriminator 2
 5385 26fc 464B     		ldr	r3, .L316+16
 5386              	.L258:
 5387              		.loc 1 1647 0 discriminator 11
 5388 26fe 4748     		ldr	r0, .L316+20
 5389 2700 4A49     		ldr	r1, .L316+36
 5390 2702 1A46     		mov	r2, r3
 5391 2704 FFF7FEFF 		bl	sprintf
 5392 2708 0246     		mov	r2, r0
 5393 270a 464B     		ldr	r3, .L316+28
 5394 270c 1A60     		str	r2, [r3]
 5395              		.loc 1 1648 0 is_stmt 1 discriminator 11
ARM GAS  /tmp/ccNtBBEs.s 			page 98


 5396 270e 454B     		ldr	r3, .L316+28
 5397 2710 1B68     		ldr	r3, [r3]
 5398 2712 DBB2     		uxtb	r3, r3
 5399 2714 4148     		ldr	r0, .L316+20
 5400 2716 1946     		mov	r1, r3
 5401 2718 FFF7FEFF 		bl	Term_Update
 5402 271c 61E3     		b	.L223
 5403              	.L253:
 5404              		.loc 1 1655 0
 5405 271e BDF80E20 		ldrh	r2, [sp, #14]
 5406 2722 434B     		ldr	r3, .L316+40
 5407 2724 1B88     		ldrh	r3, [r3]
 5408 2726 0233     		adds	r3, r3, #2
 5409 2728 9A42     		cmp	r2, r3
 5410 272a 53D1     		bne	.L259
 5411              		.loc 1 1656 0
 5412 272c 029B     		ldr	r3, [sp, #8]
 5413 272e 1B78     		ldrb	r3, [r3]	@ zero_extendqisi2
 5414 2730 012B     		cmp	r3, #1
 5415 2732 1AD1     		bne	.L260
 5416              		.loc 1 1658 0
 5417 2734 FFF7FEFF 		bl	Set4GAccelerometerFullScale
 5418              		.loc 1 1660 0
 5419 2738 344B     		ldr	r3, .L316+4
 5420 273a 1B68     		ldr	r3, [r3]
 5421 273c 43F48072 		orr	r2, r3, #256
 5422 2740 324B     		ldr	r3, .L316+4
 5423 2742 1A60     		str	r2, [r3]
 5424              		.loc 1 1663 0
 5425 2744 3248     		ldr	r0, .L316+8
 5426 2746 0021     		movs	r1, #0
 5427 2748 FFF7FEFF 		bl	HAL_TIM_OC_Start_IT
 5428 274c 0346     		mov	r3, r0
 5429 274e 002B     		cmp	r3, #0
 5430 2750 01D0     		beq	.L261
 5431              		.loc 1 1665 0
 5432 2752 FFF7FEFF 		bl	Error_Handler
 5433              	.L261:
 5434              	.LBB10:
 5435              		.loc 1 1669 0
 5436 2756 2E4B     		ldr	r3, .L316+8
 5437 2758 1B68     		ldr	r3, [r3]
 5438 275a 5B6A     		ldr	r3, [r3, #36]
 5439 275c 0793     		str	r3, [sp, #28]
 5440              		.loc 1 1671 0
 5441 275e 2C4B     		ldr	r3, .L316+8
 5442 2760 1B68     		ldr	r3, [r3]
 5443 2762 079A     		ldr	r2, [sp, #28]
 5444 2764 6432     		adds	r2, r2, #100
 5445 2766 5A63     		str	r2, [r3, #52]
 5446              	.LBE10:
 5447 2768 14E0     		b	.L262
 5448              	.L260:
 5449              		.loc 1 1673 0
 5450 276a 029B     		ldr	r3, [sp, #8]
 5451 276c 1B78     		ldrb	r3, [r3]	@ zero_extendqisi2
 5452 276e 002B     		cmp	r3, #0
ARM GAS  /tmp/ccNtBBEs.s 			page 99


 5453 2770 10D1     		bne	.L262
 5454              		.loc 1 1675 0
 5455 2772 FFF7FEFF 		bl	Set2GAccelerometerFullScale
 5456              		.loc 1 1677 0
 5457 2776 254B     		ldr	r3, .L316+4
 5458 2778 1B68     		ldr	r3, [r3]
 5459 277a 23F48072 		bic	r2, r3, #256
 5460 277e 234B     		ldr	r3, .L316+4
 5461 2780 1A60     		str	r2, [r3]
 5462              		.loc 1 1680 0
 5463 2782 2348     		ldr	r0, .L316+8
 5464 2784 0021     		movs	r1, #0
 5465 2786 FFF7FEFF 		bl	HAL_TIM_OC_Stop_IT
 5466 278a 0346     		mov	r3, r0
 5467 278c 002B     		cmp	r3, #0
 5468 278e 01D0     		beq	.L262
 5469              		.loc 1 1682 0
 5470 2790 FFF7FEFF 		bl	Error_Handler
 5471              	.L262:
 5472              		.loc 1 1686 0
 5473 2794 1D4B     		ldr	r3, .L316+4
 5474 2796 1B68     		ldr	r3, [r3]
 5475 2798 03F48063 		and	r3, r3, #1024
 5476 279c 002B     		cmp	r3, #0
 5477 279e 00F02083 		beq	.L223
 5478              		.loc 1 1687 0
 5479 27a2 1A4B     		ldr	r3, .L316+4
 5480 27a4 1B68     		ldr	r3, [r3]
 5481 27a6 03F48073 		and	r3, r3, #256
 5482 27aa 002B     		cmp	r3, #0
 5483 27ac 01D0     		beq	.L263
 5484              		.loc 1 1687 0 is_stmt 0 discriminator 1
 5485 27ae 194B     		ldr	r3, .L316+12
 5486 27b0 00E0     		b	.L264
 5487              	.L263:
 5488              		.loc 1 1687 0 discriminator 2
 5489 27b2 194B     		ldr	r3, .L316+16
 5490              	.L264:
 5491              		.loc 1 1687 0 discriminator 13
 5492 27b4 1948     		ldr	r0, .L316+20
 5493 27b6 1F49     		ldr	r1, .L316+44
 5494 27b8 1A46     		mov	r2, r3
 5495 27ba FFF7FEFF 		bl	sprintf
 5496 27be 0246     		mov	r2, r0
 5497 27c0 184B     		ldr	r3, .L316+28
 5498 27c2 1A60     		str	r2, [r3]
 5499              		.loc 1 1688 0 is_stmt 1 discriminator 13
 5500 27c4 174B     		ldr	r3, .L316+28
 5501 27c6 1B68     		ldr	r3, [r3]
 5502 27c8 DBB2     		uxtb	r3, r3
 5503 27ca 1448     		ldr	r0, .L316+20
 5504 27cc 1946     		mov	r1, r3
 5505 27ce FFF7FEFF 		bl	Term_Update
 5506 27d2 06E3     		b	.L223
 5507              	.L259:
 5508              		.loc 1 1732 0
 5509 27d4 BDF80E20 		ldrh	r2, [sp, #14]
ARM GAS  /tmp/ccNtBBEs.s 			page 100


 5510 27d8 174B     		ldr	r3, .L316+48
 5511 27da 1B88     		ldrh	r3, [r3]
 5512 27dc 0233     		adds	r3, r3, #2
 5513 27de 9A42     		cmp	r2, r3
 5514 27e0 60D1     		bne	.L265
 5515              		.loc 1 1733 0
 5516 27e2 029B     		ldr	r3, [sp, #8]
 5517 27e4 1B78     		ldrb	r3, [r3]	@ zero_extendqisi2
 5518 27e6 012B     		cmp	r3, #1
 5519 27e8 2AD1     		bne	.L266
 5520              		.loc 1 1734 0
 5521 27ea 084B     		ldr	r3, .L316+4
 5522 27ec 1B68     		ldr	r3, [r3]
 5523 27ee 43F40042 		orr	r2, r3, #32768
 5524 27f2 064B     		ldr	r3, .L316+4
 5525 27f4 1A60     		str	r2, [r3]
 5526              		.loc 1 1736 0
 5527 27f6 1148     		ldr	r0, .L316+52
 5528 27f8 FFF7FEFF 		bl	HAL_TIM_Base_Start_IT
 5529 27fc 0346     		mov	r3, r0
 5530 27fe 002B     		cmp	r3, #0
 5531 2800 30D0     		beq	.L268
 5532              		.loc 1 1738 0
 5533 2802 FFF7FEFF 		bl	Error_Handler
 5534 2806 2DE0     		b	.L268
 5535              	.L317:
 5536              		.align	2
 5537              	.L316:
 5538 2808 14000000 		.word	ActivityRecCharHandle
 5539 280c 00000000 		.word	ConnectionBleStatus
 5540 2810 00000000 		.word	TimCCHandle
 5541 2814 B8010000 		.word	.LC14
 5542 2818 C0010000 		.word	.LC15
 5543 281c 00000000 		.word	BufferToWrite
 5544 2820 18020000 		.word	.LC21
 5545 2824 00000000 		.word	BytesToWrite
 5546 2828 16000000 		.word	CarryPosRecCharHandle
 5547 282c 28020000 		.word	.LC22
 5548 2830 18000000 		.word	GestureRecCharHandle
 5549 2834 3C020000 		.word	.LC23
 5550 2838 0E000000 		.word	GGCharHandle
 5551 283c 00000000 		.word	TimEnvHandle
 5552              	.L266:
 5553              		.loc 1 1740 0
 5554 2840 029B     		ldr	r3, [sp, #8]
 5555 2842 1B78     		ldrb	r3, [r3]	@ zero_extendqisi2
 5556 2844 002B     		cmp	r3, #0
 5557 2846 0DD1     		bne	.L268
 5558              		.loc 1 1741 0
 5559 2848 994B     		ldr	r3, .L318
 5560 284a 1B68     		ldr	r3, [r3]
 5561 284c 23F40042 		bic	r2, r3, #32768
 5562 2850 974B     		ldr	r3, .L318
 5563 2852 1A60     		str	r2, [r3]
 5564              		.loc 1 1743 0
 5565 2854 9748     		ldr	r0, .L318+4
 5566 2856 FFF7FEFF 		bl	HAL_TIM_Base_Stop_IT
ARM GAS  /tmp/ccNtBBEs.s 			page 101


 5567 285a 0346     		mov	r3, r0
 5568 285c 002B     		cmp	r3, #0
 5569 285e 01D0     		beq	.L268
 5570              		.loc 1 1745 0
 5571 2860 FFF7FEFF 		bl	Error_Handler
 5572              	.L268:
 5573              		.loc 1 1749 0
 5574 2864 924B     		ldr	r3, .L318
 5575 2866 1B68     		ldr	r3, [r3]
 5576 2868 03F48063 		and	r3, r3, #1024
 5577 286c 002B     		cmp	r3, #0
 5578 286e 00F0B882 		beq	.L223
 5579              		.loc 1 1750 0
 5580 2872 8F4B     		ldr	r3, .L318
 5581 2874 1B68     		ldr	r3, [r3]
 5582 2876 03F40043 		and	r3, r3, #32768
 5583 287a 002B     		cmp	r3, #0
 5584 287c 01D0     		beq	.L269
 5585              		.loc 1 1750 0 is_stmt 0 discriminator 1
 5586 287e 8E4B     		ldr	r3, .L318+8
 5587 2880 00E0     		b	.L270
 5588              	.L269:
 5589              		.loc 1 1750 0 discriminator 2
 5590 2882 8E4B     		ldr	r3, .L318+12
 5591              	.L270:
 5592              		.loc 1 1750 0 discriminator 15
 5593 2884 8E48     		ldr	r0, .L318+16
 5594 2886 8F49     		ldr	r1, .L318+20
 5595 2888 1A46     		mov	r2, r3
 5596 288a FFF7FEFF 		bl	sprintf
 5597 288e 0246     		mov	r2, r0
 5598 2890 8D4B     		ldr	r3, .L318+24
 5599 2892 1A60     		str	r2, [r3]
 5600              		.loc 1 1751 0 is_stmt 1 discriminator 15
 5601 2894 8C4B     		ldr	r3, .L318+24
 5602 2896 1B68     		ldr	r3, [r3]
 5603 2898 DBB2     		uxtb	r3, r3
 5604 289a 8948     		ldr	r0, .L318+16
 5605 289c 1946     		mov	r1, r3
 5606 289e FFF7FEFF 		bl	Term_Update
 5607 28a2 9EE2     		b	.L223
 5608              	.L265:
 5609              		.loc 1 1757 0
 5610 28a4 BDF80E20 		ldrh	r2, [sp, #14]
 5611 28a8 884B     		ldr	r3, .L318+28
 5612 28aa 1B88     		ldrh	r3, [r3]
 5613 28ac 0233     		adds	r3, r3, #2
 5614 28ae 9A42     		cmp	r2, r3
 5615 28b0 2CD1     		bne	.L271
 5616              		.loc 1 1758 0
 5617 28b2 029B     		ldr	r3, [sp, #8]
 5618 28b4 1B78     		ldrb	r3, [r3]	@ zero_extendqisi2
 5619 28b6 012B     		cmp	r3, #1
 5620 28b8 03D1     		bne	.L272
 5621              		.loc 1 1759 0
 5622 28ba 854B     		ldr	r3, .L318+32
 5623 28bc 0122     		movs	r2, #1
ARM GAS  /tmp/ccNtBBEs.s 			page 102


 5624 28be 1A60     		str	r2, [r3]
 5625 28c0 06E0     		b	.L273
 5626              	.L272:
 5627              		.loc 1 1760 0
 5628 28c2 029B     		ldr	r3, [sp, #8]
 5629 28c4 1B78     		ldrb	r3, [r3]	@ zero_extendqisi2
 5630 28c6 002B     		cmp	r3, #0
 5631 28c8 02D1     		bne	.L273
 5632              		.loc 1 1761 0
 5633 28ca 814B     		ldr	r3, .L318+32
 5634 28cc 0022     		movs	r2, #0
 5635 28ce 1A60     		str	r2, [r3]
 5636              	.L273:
 5637              		.loc 1 1764 0
 5638 28d0 774B     		ldr	r3, .L318
 5639 28d2 1B68     		ldr	r3, [r3]
 5640 28d4 03F48063 		and	r3, r3, #1024
 5641 28d8 002B     		cmp	r3, #0
 5642 28da 00F08282 		beq	.L223
 5643              		.loc 1 1765 0
 5644 28de 7C4B     		ldr	r3, .L318+32
 5645 28e0 1B68     		ldr	r3, [r3]
 5646 28e2 002B     		cmp	r3, #0
 5647 28e4 01D0     		beq	.L274
 5648              		.loc 1 1765 0 is_stmt 0 discriminator 1
 5649 28e6 7B4B     		ldr	r3, .L318+36
 5650 28e8 00E0     		b	.L275
 5651              	.L274:
 5652              		.loc 1 1765 0 discriminator 2
 5653 28ea 7B4B     		ldr	r3, .L318+40
 5654              	.L275:
 5655              		.loc 1 1765 0 discriminator 17
 5656 28ec 7448     		ldr	r0, .L318+16
 5657 28ee 7B49     		ldr	r1, .L318+44
 5658 28f0 1A46     		mov	r2, r3
 5659 28f2 FFF7FEFF 		bl	sprintf
 5660 28f6 0246     		mov	r2, r0
 5661 28f8 734B     		ldr	r3, .L318+24
 5662 28fa 1A60     		str	r2, [r3]
 5663              		.loc 1 1766 0 is_stmt 1 discriminator 17
 5664 28fc 724B     		ldr	r3, .L318+24
 5665 28fe 1B68     		ldr	r3, [r3]
 5666 2900 DBB2     		uxtb	r3, r3
 5667 2902 6F48     		ldr	r0, .L318+16
 5668 2904 1946     		mov	r1, r3
 5669 2906 FFF7FEFF 		bl	Term_Update
 5670 290a 6AE2     		b	.L223
 5671              	.L271:
 5672              		.loc 1 1770 0
 5673 290c BDF80E20 		ldrh	r2, [sp, #14]
 5674 2910 734B     		ldr	r3, .L318+48
 5675 2912 1B88     		ldrh	r3, [r3]
 5676 2914 0233     		adds	r3, r3, #2
 5677 2916 9A42     		cmp	r2, r3
 5678 2918 51D1     		bne	.L276
 5679              		.loc 1 1771 0
 5680 291a 029B     		ldr	r3, [sp, #8]
ARM GAS  /tmp/ccNtBBEs.s 			page 103


 5681 291c 1B78     		ldrb	r3, [r3]	@ zero_extendqisi2
 5682 291e 012B     		cmp	r3, #1
 5683 2920 1AD1     		bne	.L277
 5684              		.loc 1 1772 0
 5685 2922 634B     		ldr	r3, .L318
 5686 2924 1B68     		ldr	r3, [r3]
 5687 2926 43F00402 		orr	r2, r3, #4
 5688 292a 614B     		ldr	r3, .L318
 5689 292c 1A60     		str	r2, [r3]
 5690              		.loc 1 1775 0
 5691 292e 6D48     		ldr	r0, .L318+52
 5692 2930 0C21     		movs	r1, #12
 5693 2932 FFF7FEFF 		bl	HAL_TIM_OC_Start_IT
 5694 2936 0346     		mov	r3, r0
 5695 2938 002B     		cmp	r3, #0
 5696 293a 01D0     		beq	.L278
 5697              		.loc 1 1777 0
 5698 293c FFF7FEFF 		bl	Error_Handler
 5699              	.L278:
 5700              	.LBB11:
 5701              		.loc 1 1782 0
 5702 2940 684B     		ldr	r3, .L318+52
 5703 2942 1B68     		ldr	r3, [r3]
 5704 2944 5B6A     		ldr	r3, [r3, #36]
 5705 2946 0693     		str	r3, [sp, #24]
 5706              		.loc 1 1784 0
 5707 2948 664B     		ldr	r3, .L318+52
 5708 294a 1B68     		ldr	r3, [r3]
 5709 294c 664A     		ldr	r2, .L318+56
 5710 294e 1168     		ldr	r1, [r2]
 5711 2950 069A     		ldr	r2, [sp, #24]
 5712 2952 0A44     		add	r2, r2, r1
 5713 2954 1A64     		str	r2, [r3, #64]
 5714              	.LBE11:
 5715 2956 12E0     		b	.L279
 5716              	.L277:
 5717              		.loc 1 1786 0
 5718 2958 029B     		ldr	r3, [sp, #8]
 5719 295a 1B78     		ldrb	r3, [r3]	@ zero_extendqisi2
 5720 295c 002B     		cmp	r3, #0
 5721 295e 0ED1     		bne	.L279
 5722              		.loc 1 1787 0
 5723 2960 534B     		ldr	r3, .L318
 5724 2962 1B68     		ldr	r3, [r3]
 5725 2964 23F00402 		bic	r2, r3, #4
 5726 2968 514B     		ldr	r3, .L318
 5727 296a 1A60     		str	r2, [r3]
 5728              		.loc 1 1790 0
 5729 296c 5D48     		ldr	r0, .L318+52
 5730 296e 0C21     		movs	r1, #12
 5731 2970 FFF7FEFF 		bl	HAL_TIM_OC_Stop_IT
 5732 2974 0346     		mov	r3, r0
 5733 2976 002B     		cmp	r3, #0
 5734 2978 01D0     		beq	.L279
 5735              		.loc 1 1792 0
 5736 297a FFF7FEFF 		bl	Error_Handler
 5737              	.L279:
ARM GAS  /tmp/ccNtBBEs.s 			page 104


 5738              		.loc 1 1796 0
 5739 297e 4C4B     		ldr	r3, .L318
 5740 2980 1B68     		ldr	r3, [r3]
 5741 2982 03F48063 		and	r3, r3, #1024
 5742 2986 002B     		cmp	r3, #0
 5743 2988 00F02B82 		beq	.L223
 5744              		.loc 1 1797 0
 5745 298c 484B     		ldr	r3, .L318
 5746 298e 1B68     		ldr	r3, [r3]
 5747 2990 03F00403 		and	r3, r3, #4
 5748 2994 002B     		cmp	r3, #0
 5749 2996 01D0     		beq	.L280
 5750              		.loc 1 1797 0 is_stmt 0 discriminator 1
 5751 2998 474B     		ldr	r3, .L318+8
 5752 299a 00E0     		b	.L281
 5753              	.L280:
 5754              		.loc 1 1797 0 discriminator 2
 5755 299c 474B     		ldr	r3, .L318+12
 5756              	.L281:
 5757              		.loc 1 1797 0 discriminator 19
 5758 299e 4848     		ldr	r0, .L318+16
 5759 29a0 5249     		ldr	r1, .L318+60
 5760 29a2 1A46     		mov	r2, r3
 5761 29a4 FFF7FEFF 		bl	sprintf
 5762 29a8 0246     		mov	r2, r0
 5763 29aa 474B     		ldr	r3, .L318+24
 5764 29ac 1A60     		str	r2, [r3]
 5765              		.loc 1 1798 0 is_stmt 1 discriminator 19
 5766 29ae 464B     		ldr	r3, .L318+24
 5767 29b0 1B68     		ldr	r3, [r3]
 5768 29b2 DBB2     		uxtb	r3, r3
 5769 29b4 4248     		ldr	r0, .L318+16
 5770 29b6 1946     		mov	r1, r3
 5771 29b8 FFF7FEFF 		bl	Term_Update
 5772 29bc 11E2     		b	.L223
 5773              	.L276:
 5774              		.loc 1 1802 0
 5775 29be BDF80E20 		ldrh	r2, [sp, #14]
 5776 29c2 4B4B     		ldr	r3, .L318+64
 5777 29c4 1B88     		ldrh	r3, [r3]
 5778 29c6 0233     		adds	r3, r3, #2
 5779 29c8 9A42     		cmp	r2, r3
 5780 29ca 36D1     		bne	.L282
 5781              		.loc 1 1803 0
 5782 29cc 029B     		ldr	r3, [sp, #8]
 5783 29ce 1B78     		ldrb	r3, [r3]	@ zero_extendqisi2
 5784 29d0 012B     		cmp	r3, #1
 5785 29d2 06D1     		bne	.L283
 5786              		.loc 1 1804 0
 5787 29d4 364B     		ldr	r3, .L318
 5788 29d6 1B68     		ldr	r3, [r3]
 5789 29d8 43F48052 		orr	r2, r3, #4096
 5790 29dc 344B     		ldr	r3, .L318
 5791 29de 1A60     		str	r2, [r3]
 5792 29e0 0BE0     		b	.L284
 5793              	.L283:
 5794              		.loc 1 1805 0
ARM GAS  /tmp/ccNtBBEs.s 			page 105


 5795 29e2 029B     		ldr	r3, [sp, #8]
 5796 29e4 1B78     		ldrb	r3, [r3]	@ zero_extendqisi2
 5797 29e6 002B     		cmp	r3, #0
 5798 29e8 07D1     		bne	.L284
 5799              		.loc 1 1806 0
 5800 29ea 314B     		ldr	r3, .L318
 5801 29ec 1B68     		ldr	r3, [r3]
 5802 29ee 23F48052 		bic	r2, r3, #4096
 5803 29f2 2F4B     		ldr	r3, .L318
 5804 29f4 1A60     		str	r2, [r3]
 5805              		.loc 1 1807 0
 5806 29f6 FFF7FEFF 		bl	DisableHWFeatures
 5807              	.L284:
 5808              		.loc 1 1810 0
 5809 29fa 2D4B     		ldr	r3, .L318
 5810 29fc 1B68     		ldr	r3, [r3]
 5811 29fe 03F48063 		and	r3, r3, #1024
 5812 2a02 002B     		cmp	r3, #0
 5813 2a04 00F0ED81 		beq	.L223
 5814              		.loc 1 1811 0
 5815 2a08 294B     		ldr	r3, .L318
 5816 2a0a 1B68     		ldr	r3, [r3]
 5817 2a0c 03F48053 		and	r3, r3, #4096
 5818 2a10 002B     		cmp	r3, #0
 5819 2a12 01D0     		beq	.L285
 5820              		.loc 1 1811 0 is_stmt 0 discriminator 1
 5821 2a14 284B     		ldr	r3, .L318+8
 5822 2a16 00E0     		b	.L286
 5823              	.L285:
 5824              		.loc 1 1811 0 discriminator 2
 5825 2a18 284B     		ldr	r3, .L318+12
 5826              	.L286:
 5827              		.loc 1 1811 0 discriminator 21
 5828 2a1a 2948     		ldr	r0, .L318+16
 5829 2a1c 3549     		ldr	r1, .L318+68
 5830 2a1e 1A46     		mov	r2, r3
 5831 2a20 FFF7FEFF 		bl	sprintf
 5832 2a24 0246     		mov	r2, r0
 5833 2a26 284B     		ldr	r3, .L318+24
 5834 2a28 1A60     		str	r2, [r3]
 5835              		.loc 1 1812 0 is_stmt 1 discriminator 21
 5836 2a2a 274B     		ldr	r3, .L318+24
 5837 2a2c 1B68     		ldr	r3, [r3]
 5838 2a2e DBB2     		uxtb	r3, r3
 5839 2a30 2348     		ldr	r0, .L318+16
 5840 2a32 1946     		mov	r1, r3
 5841 2a34 FFF7FEFF 		bl	Term_Update
 5842 2a38 D3E1     		b	.L223
 5843              	.L282:
 5844              		.loc 1 1816 0
 5845 2a3a BDF80E20 		ldrh	r2, [sp, #14]
 5846 2a3e 2E4B     		ldr	r3, .L318+72
 5847 2a40 1B88     		ldrh	r3, [r3]
 5848 2a42 0233     		adds	r3, r3, #2
 5849 2a44 9A42     		cmp	r2, r3
 5850 2a46 6AD1     		bne	.L287
 5851              		.loc 1 1817 0
ARM GAS  /tmp/ccNtBBEs.s 			page 106


 5852 2a48 029B     		ldr	r3, [sp, #8]
 5853 2a4a 1B78     		ldrb	r3, [r3]	@ zero_extendqisi2
 5854 2a4c 012B     		cmp	r3, #1
 5855 2a4e 0ED1     		bne	.L288
 5856              		.loc 1 1818 0
 5857 2a50 174B     		ldr	r3, .L318
 5858 2a52 1B68     		ldr	r3, [r3]
 5859 2a54 43F00102 		orr	r2, r3, #1
 5860 2a58 154B     		ldr	r3, .L318
 5861 2a5a 1A60     		str	r2, [r3]
 5862              		.loc 1 1821 0
 5863 2a5c 1548     		ldr	r0, .L318+4
 5864 2a5e FFF7FEFF 		bl	HAL_TIM_Base_Start_IT
 5865 2a62 0346     		mov	r3, r0
 5866 2a64 002B     		cmp	r3, #0
 5867 2a66 14D0     		beq	.L290
 5868              		.loc 1 1823 0
 5869 2a68 FFF7FEFF 		bl	Error_Handler
 5870 2a6c 11E0     		b	.L290
 5871              	.L288:
 5872              		.loc 1 1825 0
 5873 2a6e 029B     		ldr	r3, [sp, #8]
 5874 2a70 1B78     		ldrb	r3, [r3]	@ zero_extendqisi2
 5875 2a72 002B     		cmp	r3, #0
 5876 2a74 0DD1     		bne	.L290
 5877              		.loc 1 1826 0
 5878 2a76 0E4B     		ldr	r3, .L318
 5879 2a78 1B68     		ldr	r3, [r3]
 5880 2a7a 23F00102 		bic	r2, r3, #1
 5881 2a7e 0C4B     		ldr	r3, .L318
 5882 2a80 1A60     		str	r2, [r3]
 5883              		.loc 1 1829 0
 5884 2a82 0C48     		ldr	r0, .L318+4
 5885 2a84 FFF7FEFF 		bl	HAL_TIM_Base_Stop_IT
 5886 2a88 0346     		mov	r3, r0
 5887 2a8a 002B     		cmp	r3, #0
 5888 2a8c 01D0     		beq	.L290
 5889              		.loc 1 1831 0
 5890 2a8e FFF7FEFF 		bl	Error_Handler
 5891              	.L290:
 5892              		.loc 1 1835 0
 5893 2a92 074B     		ldr	r3, .L318
 5894 2a94 1B68     		ldr	r3, [r3]
 5895 2a96 03F48063 		and	r3, r3, #1024
 5896 2a9a 002B     		cmp	r3, #0
 5897 2a9c 00F0A181 		beq	.L223
 5898              		.loc 1 1836 0
 5899 2aa0 034B     		ldr	r3, .L318
 5900 2aa2 1B68     		ldr	r3, [r3]
 5901 2aa4 03F00103 		and	r3, r3, #1
 5902 2aa8 002B     		cmp	r3, #0
 5903 2aaa 27D0     		beq	.L291
 5904              		.loc 1 1836 0 is_stmt 0 discriminator 1
 5905 2aac 024B     		ldr	r3, .L318+8
 5906 2aae 26E0     		b	.L292
 5907              	.L319:
 5908              		.align	2
ARM GAS  /tmp/ccNtBBEs.s 			page 107


 5909              	.L318:
 5910 2ab0 00000000 		.word	ConnectionBleStatus
 5911 2ab4 00000000 		.word	TimEnvHandle
 5912 2ab8 B8010000 		.word	.LC14
 5913 2abc C0010000 		.word	.LC15
 5914 2ac0 00000000 		.word	BufferToWrite
 5915 2ac4 50020000 		.word	.LC24
 5916 2ac8 00000000 		.word	BytesToWrite
 5917 2acc 1C000000 		.word	ConfigCharHandle
 5918 2ad0 00000000 		.word	FirstConnectionConfig
 5919 2ad4 5C020000 		.word	.LC25
 5920 2ad8 60020000 		.word	.LC26
 5921 2adc 64020000 		.word	.LC27
 5922 2ae0 08000000 		.word	AccGyroMagCharHandle
 5923 2ae4 00000000 		.word	TimCCHandle
 5924 2ae8 00000000 		.word	uhCCR4_Val
 5925 2aec 74020000 		.word	.LC28
 5926 2af0 0A000000 		.word	AccEventCharHandle
 5927 2af4 88020000 		.word	.LC29
 5928 2af8 06000000 		.word	EnvironmentalCharHandle
 5929              	.L291:
 5930              		.loc 1 1836 0 discriminator 2
 5931 2afc 974B     		ldr	r3, .L320
 5932              	.L292:
 5933              		.loc 1 1836 0 discriminator 23
 5934 2afe 9848     		ldr	r0, .L320+4
 5935 2b00 9849     		ldr	r1, .L320+8
 5936 2b02 1A46     		mov	r2, r3
 5937 2b04 FFF7FEFF 		bl	sprintf
 5938 2b08 0246     		mov	r2, r0
 5939 2b0a 974B     		ldr	r3, .L320+12
 5940 2b0c 1A60     		str	r2, [r3]
 5941              		.loc 1 1837 0 is_stmt 1 discriminator 23
 5942 2b0e 964B     		ldr	r3, .L320+12
 5943 2b10 1B68     		ldr	r3, [r3]
 5944 2b12 DBB2     		uxtb	r3, r3
 5945 2b14 9248     		ldr	r0, .L320+4
 5946 2b16 1946     		mov	r1, r3
 5947 2b18 FFF7FEFF 		bl	Term_Update
 5948 2b1c 61E1     		b	.L223
 5949              	.L287:
 5950              		.loc 1 1841 0
 5951 2b1e BDF80E20 		ldrh	r2, [sp, #14]
 5952 2b22 924B     		ldr	r3, .L320+16
 5953 2b24 1B88     		ldrh	r3, [r3]
 5954 2b26 0233     		adds	r3, r3, #2
 5955 2b28 9A42     		cmp	r2, r3
 5956 2b2a 16D1     		bne	.L293
 5957              		.loc 1 1842 0
 5958 2b2c 029B     		ldr	r3, [sp, #8]
 5959 2b2e 1B78     		ldrb	r3, [r3]	@ zero_extendqisi2
 5960 2b30 012B     		cmp	r3, #1
 5961 2b32 06D1     		bne	.L294
 5962              		.loc 1 1843 0
 5963 2b34 8E4B     		ldr	r3, .L320+20
 5964 2b36 1B68     		ldr	r3, [r3]
 5965 2b38 43F40062 		orr	r2, r3, #2048
ARM GAS  /tmp/ccNtBBEs.s 			page 108


 5966 2b3c 8C4B     		ldr	r3, .L320+20
 5967 2b3e 1A60     		str	r2, [r3]
 5968 2b40 4FE1     		b	.L223
 5969              	.L294:
 5970              		.loc 1 1844 0
 5971 2b42 029B     		ldr	r3, [sp, #8]
 5972 2b44 1B78     		ldrb	r3, [r3]	@ zero_extendqisi2
 5973 2b46 002B     		cmp	r3, #0
 5974 2b48 40F04B81 		bne	.L223
 5975              		.loc 1 1845 0
 5976 2b4c 884B     		ldr	r3, .L320+20
 5977 2b4e 1B68     		ldr	r3, [r3]
 5978 2b50 23F40062 		bic	r2, r3, #2048
 5979 2b54 864B     		ldr	r3, .L320+20
 5980 2b56 1A60     		str	r2, [r3]
 5981 2b58 43E1     		b	.L223
 5982              	.L293:
 5983              		.loc 1 1847 0
 5984 2b5a BDF80E20 		ldrh	r2, [sp, #14]
 5985 2b5e 854B     		ldr	r3, .L320+24
 5986 2b60 1B88     		ldrh	r3, [r3]
 5987 2b62 0233     		adds	r3, r3, #2
 5988 2b64 9A42     		cmp	r2, r3
 5989 2b66 16D1     		bne	.L296
 5990              		.loc 1 1848 0
 5991 2b68 029B     		ldr	r3, [sp, #8]
 5992 2b6a 1B78     		ldrb	r3, [r3]	@ zero_extendqisi2
 5993 2b6c 012B     		cmp	r3, #1
 5994 2b6e 06D1     		bne	.L297
 5995              		.loc 1 1849 0
 5996 2b70 7F4B     		ldr	r3, .L320+20
 5997 2b72 1B68     		ldr	r3, [r3]
 5998 2b74 43F48062 		orr	r2, r3, #1024
 5999 2b78 7D4B     		ldr	r3, .L320+20
 6000 2b7a 1A60     		str	r2, [r3]
 6001 2b7c 31E1     		b	.L223
 6002              	.L297:
 6003              		.loc 1 1850 0
 6004 2b7e 029B     		ldr	r3, [sp, #8]
 6005 2b80 1B78     		ldrb	r3, [r3]	@ zero_extendqisi2
 6006 2b82 002B     		cmp	r3, #0
 6007 2b84 40F02D81 		bne	.L223
 6008              		.loc 1 1851 0
 6009 2b88 794B     		ldr	r3, .L320+20
 6010 2b8a 1B68     		ldr	r3, [r3]
 6011 2b8c 23F48062 		bic	r2, r3, #1024
 6012 2b90 774B     		ldr	r3, .L320+20
 6013 2b92 1A60     		str	r2, [r3]
 6014 2b94 25E1     		b	.L223
 6015              	.L296:
 6016              		.loc 1 1853 0
 6017 2b96 BDF80E20 		ldrh	r2, [sp, #14]
 6018 2b9a 764B     		ldr	r3, .L320+24
 6019 2b9c 1B88     		ldrh	r3, [r3]
 6020 2b9e 0133     		adds	r3, r3, #1
 6021 2ba0 9A42     		cmp	r2, r3
 6022 2ba2 62D1     		bne	.L299
ARM GAS  /tmp/ccNtBBEs.s 			page 109


 6023              	.LBB12:
 6024              		.loc 1 1854 0
 6025 2ba4 0123     		movs	r3, #1
 6026 2ba6 0D93     		str	r3, [sp, #52]
 6027              		.loc 1 1856 0
 6028 2ba8 734B     		ldr	r3, .L320+28
 6029 2baa 1B68     		ldr	r3, [r3]
 6030 2bac 002B     		cmp	r3, #0
 6031 2bae 4AD0     		beq	.L300
 6032              	.LBB13:
 6033              		.loc 1 1858 0
 6034 2bb0 9DF80D30 		ldrb	r3, [sp, #13]	@ zero_extendqisi2
 6035 2bb4 7048     		ldr	r0, .L320+28
 6036 2bb6 0299     		ldr	r1, [sp, #8]
 6037 2bb8 1A46     		mov	r2, r3
 6038 2bba 0123     		movs	r3, #1
 6039 2bbc FFF7FEFF 		bl	UpdateFWBlueMS
 6040 2bc0 0346     		mov	r3, r0
 6041 2bc2 8DF81730 		strb	r3, [sp, #23]
 6042              		.loc 1 1859 0
 6043 2bc6 9DF81730 		ldrb	r3, [sp, #23]	@ zero_extendqisi2
 6044 2bca 002B     		cmp	r3, #0
 6045 2bcc 38D0     		beq	.L301
 6046              		.loc 1 1860 0
 6047 2bce 6B4B     		ldr	r3, .L320+32
 6048 2bd0 1A88     		ldrh	r2, [r3]
 6049 2bd2 684B     		ldr	r3, .L320+24
 6050 2bd4 1B88     		ldrh	r3, [r3]
 6051 2bd6 0DF11701 		add	r1, sp, #23
 6052 2bda 0091     		str	r1, [sp]
 6053 2bdc 1046     		mov	r0, r2
 6054 2bde 1946     		mov	r1, r3
 6055 2be0 0022     		movs	r2, #0
 6056 2be2 0123     		movs	r3, #1
 6057 2be4 FFF7FEFF 		bl	aci_gatt_update_char_value
 6058              		.loc 1 1861 0
 6059 2be8 9DF81730 		ldrb	r3, [sp, #23]	@ zero_extendqisi2
 6060 2bec 5BB2     		sxtb	r3, r3
 6061 2bee 012B     		cmp	r3, #1
 6062 2bf0 26D1     		bne	.L301
 6063              		.loc 1 1863 0
 6064 2bf2 5B4B     		ldr	r3, .L320+4
 6065 2bf4 624A     		ldr	r2, .L320+36
 6066 2bf6 1446     		mov	r4, r2
 6067 2bf8 1D46     		mov	r5, r3
 6068 2bfa 04F1200E 		add	lr, r4, #32
 6069              	.L302:
 6070 2bfe 2E46     		mov	r6, r5
 6071 2c00 2746     		mov	r7, r4
 6072 2c02 0FCF     		ldmia	r7!, {r0, r1, r2, r3}
 6073 2c04 3060     		str	r0, [r6]	@ unaligned
 6074 2c06 7160     		str	r1, [r6, #4]	@ unaligned
 6075 2c08 B260     		str	r2, [r6, #8]	@ unaligned
 6076 2c0a F360     		str	r3, [r6, #12]	@ unaligned
 6077 2c0c 1034     		adds	r4, r4, #16
 6078 2c0e 1035     		adds	r5, r5, #16
 6079 2c10 7445     		cmp	r4, lr
ARM GAS  /tmp/ccNtBBEs.s 			page 110


 6080 2c12 F4D1     		bne	.L302
 6081 2c14 2B46     		mov	r3, r5
 6082 2c16 2246     		mov	r2, r4
 6083 2c18 1068     		ldr	r0, [r2]	@ unaligned
 6084 2c1a 1860     		str	r0, [r3]	@ unaligned
 6085 2c1c 9288     		ldrh	r2, [r2, #4]	@ unaligned
 6086 2c1e 9A80     		strh	r2, [r3, #4]	@ unaligned
 6087 2c20 514B     		ldr	r3, .L320+12
 6088 2c22 2522     		movs	r2, #37
 6089 2c24 1A60     		str	r2, [r3]
 6090              		.loc 1 1864 0
 6091 2c26 504B     		ldr	r3, .L320+12
 6092 2c28 1B68     		ldr	r3, [r3]
 6093 2c2a DBB2     		uxtb	r3, r3
 6094 2c2c 4C48     		ldr	r0, .L320+4
 6095 2c2e 1946     		mov	r1, r3
 6096 2c30 FFF7FEFF 		bl	Term_Update
 6097              		.loc 1 1866 0
 6098 2c34 41F28830 		movw	r0, #5000
 6099 2c38 FFF7FEFF 		bl	HAL_Delay
 6100              		.loc 1 1867 0
 6101 2c3c FFF7FEFF 		bl	HAL_NVIC_SystemReset
 6102              	.L301:
 6103              		.loc 1 1870 0
 6104 2c40 0023     		movs	r3, #0
 6105 2c42 0D93     		str	r3, [sp, #52]
 6106              	.LBE13:
 6107 2c44 06E0     		b	.L303
 6108              	.L300:
 6109              		.loc 1 1873 0
 6110 2c46 9DF80D30 		ldrb	r3, [sp, #13]	@ zero_extendqisi2
 6111 2c4a 0298     		ldr	r0, [sp, #8]
 6112 2c4c 1946     		mov	r1, r3
 6113 2c4e 00F0D7F8 		bl	DebugConsoleCommandParsing
 6114 2c52 0D90     		str	r0, [sp, #52]
 6115              	.L303:
 6116              		.loc 1 1877 0
 6117 2c54 0D9B     		ldr	r3, [sp, #52]
 6118 2c56 002B     		cmp	r3, #0
 6119 2c58 06D0     		beq	.L304
 6120              		.loc 1 1878 0
 6121 2c5a 9DF80D30 		ldrb	r3, [sp, #13]	@ zero_extendqisi2
 6122 2c5e 0298     		ldr	r0, [sp, #8]
 6123 2c60 1946     		mov	r1, r3
 6124 2c62 FFF7FEFF 		bl	Term_Update
 6125              	.LBE12:
 6126 2c66 BCE0     		b	.L223
 6127              	.L304:
 6128 2c68 BBE0     		b	.L223
 6129              	.L299:
 6130              		.loc 1 1880 0
 6131 2c6a BDF80E20 		ldrh	r2, [sp, #14]
 6132 2c6e 454B     		ldr	r3, .L320+40
 6133 2c70 1B88     		ldrh	r3, [r3]
 6134 2c72 0233     		adds	r3, r3, #2
 6135 2c74 9A42     		cmp	r2, r3
 6136 2c76 62D1     		bne	.L305
ARM GAS  /tmp/ccNtBBEs.s 			page 111


 6137              		.loc 1 1882 0
 6138 2c78 029B     		ldr	r3, [sp, #8]
 6139 2c7a 1B78     		ldrb	r3, [r3]	@ zero_extendqisi2
 6140 2c7c 012B     		cmp	r3, #1
 6141 2c7e 2BD1     		bne	.L306
 6142              	.LBB14:
 6143              		.loc 1 1886 0
 6144 2c80 3B4B     		ldr	r3, .L320+20
 6145 2c82 1B68     		ldr	r3, [r3]
 6146 2c84 43F00802 		orr	r2, r3, #8
 6147 2c88 394B     		ldr	r3, .L320+20
 6148 2c8a 1A60     		str	r2, [r3]
 6149              		.loc 1 1888 0
 6150 2c8c 4FF47A50 		mov	r0, #16000
 6151 2c90 0421     		movs	r1, #4
 6152 2c92 FFF7FEFF 		bl	InitMics
 6153              		.loc 1 1890 0
 6154 2c96 0023     		movs	r3, #0
 6155 2c98 0C93     		str	r3, [sp, #48]
 6156 2c9a 0EE0     		b	.L307
 6157              	.L308:
 6158              		.loc 1 1891 0 discriminator 2
 6159 2c9c 3A4B     		ldr	r3, .L320+44
 6160 2c9e 0C9A     		ldr	r2, [sp, #48]
 6161 2ca0 4FF00001 		mov	r1, #0
 6162 2ca4 43F82210 		str	r1, [r3, r2, lsl #2]	@ float
 6163              		.loc 1 1892 0 discriminator 2
 6164 2ca8 384B     		ldr	r3, .L320+48
 6165 2caa 0C9A     		ldr	r2, [sp, #48]
 6166 2cac 4FF00001 		mov	r1, #0
 6167 2cb0 43F82210 		str	r1, [r3, r2, lsl #2]	@ float
 6168              		.loc 1 1890 0 discriminator 2
 6169 2cb4 0C9B     		ldr	r3, [sp, #48]
 6170 2cb6 0133     		adds	r3, r3, #1
 6171 2cb8 0C93     		str	r3, [sp, #48]
 6172              	.L307:
 6173              		.loc 1 1890 0 is_stmt 0 discriminator 1
 6174 2cba 354B     		ldr	r3, .L320+52
 6175 2cbc 9A6A     		ldr	r2, [r3, #40]
 6176 2cbe 0C9B     		ldr	r3, [sp, #48]
 6177 2cc0 9A42     		cmp	r2, r3
 6178 2cc2 EBDC     		bgt	.L308
 6179              		.loc 1 1896 0 is_stmt 1
 6180 2cc4 3348     		ldr	r0, .L320+56
 6181 2cc6 FFF7FEFF 		bl	HAL_TIM_Base_Start_IT
 6182 2cca 0346     		mov	r3, r0
 6183 2ccc 002B     		cmp	r3, #0
 6184 2cce 02D0     		beq	.L309
 6185              		.loc 1 1898 0
 6186 2cd0 FFF7FEFF 		bl	Error_Handler
 6187              	.LBE14:
 6188 2cd4 14E0     		b	.L310
 6189              	.L309:
 6190 2cd6 13E0     		b	.L310
 6191              	.L306:
 6192              		.loc 1 1900 0
 6193 2cd8 029B     		ldr	r3, [sp, #8]
ARM GAS  /tmp/ccNtBBEs.s 			page 112


 6194 2cda 1B78     		ldrb	r3, [r3]	@ zero_extendqisi2
 6195 2cdc 002B     		cmp	r3, #0
 6196 2cde 0FD1     		bne	.L310
 6197              		.loc 1 1901 0
 6198 2ce0 234B     		ldr	r3, .L320+20
 6199 2ce2 1B68     		ldr	r3, [r3]
 6200 2ce4 23F00802 		bic	r2, r3, #8
 6201 2ce8 214B     		ldr	r3, .L320+20
 6202 2cea 1A60     		str	r2, [r3]
 6203              		.loc 1 1903 0
 6204 2cec FFF7FEFF 		bl	DeInitMics
 6205              		.loc 1 1906 0
 6206 2cf0 2848     		ldr	r0, .L320+56
 6207 2cf2 FFF7FEFF 		bl	HAL_TIM_Base_Stop_IT
 6208 2cf6 0346     		mov	r3, r0
 6209 2cf8 002B     		cmp	r3, #0
 6210 2cfa 01D0     		beq	.L310
 6211              		.loc 1 1908 0
 6212 2cfc FFF7FEFF 		bl	Error_Handler
 6213              	.L310:
 6214              		.loc 1 1912 0
 6215 2d00 1B4B     		ldr	r3, .L320+20
 6216 2d02 1B68     		ldr	r3, [r3]
 6217 2d04 03F48063 		and	r3, r3, #1024
 6218 2d08 002B     		cmp	r3, #0
 6219 2d0a 6AD0     		beq	.L223
 6220              		.loc 1 1913 0
 6221 2d0c 184B     		ldr	r3, .L320+20
 6222 2d0e 1B68     		ldr	r3, [r3]
 6223 2d10 03F00803 		and	r3, r3, #8
 6224 2d14 002B     		cmp	r3, #0
 6225 2d16 01D0     		beq	.L311
 6226              		.loc 1 1913 0 is_stmt 0 discriminator 1
 6227 2d18 1F4B     		ldr	r3, .L320+60
 6228 2d1a 00E0     		b	.L312
 6229              	.L311:
 6230              		.loc 1 1913 0 discriminator 2
 6231 2d1c 0F4B     		ldr	r3, .L320
 6232              	.L312:
 6233              		.loc 1 1913 0 discriminator 27
 6234 2d1e 1048     		ldr	r0, .L320+4
 6235 2d20 1E49     		ldr	r1, .L320+64
 6236 2d22 1A46     		mov	r2, r3
 6237 2d24 FFF7FEFF 		bl	sprintf
 6238 2d28 0246     		mov	r2, r0
 6239 2d2a 0F4B     		ldr	r3, .L320+12
 6240 2d2c 1A60     		str	r2, [r3]
 6241              		.loc 1 1914 0 is_stmt 1 discriminator 27
 6242 2d2e 0E4B     		ldr	r3, .L320+12
 6243 2d30 1B68     		ldr	r3, [r3]
 6244 2d32 DBB2     		uxtb	r3, r3
 6245 2d34 0A48     		ldr	r0, .L320+4
 6246 2d36 1946     		mov	r1, r3
 6247 2d38 FFF7FEFF 		bl	Term_Update
 6248 2d3c 51E0     		b	.L223
 6249              	.L305:
 6250              		.loc 1 1919 0
ARM GAS  /tmp/ccNtBBEs.s 			page 113


 6251 2d3e BDF80E20 		ldrh	r2, [sp, #14]
 6252 2d42 174B     		ldr	r3, .L320+68
 6253 2d44 1B88     		ldrh	r3, [r3]
 6254 2d46 0133     		adds	r3, r3, #1
 6255 2d48 9A42     		cmp	r2, r3
 6256 2d4a 2BD1     		bne	.L313
 6257              		.loc 1 1921 0
 6258 2d4c 9DF80D30 		ldrb	r3, [sp, #13]	@ zero_extendqisi2
 6259 2d50 0298     		ldr	r0, [sp, #8]
 6260 2d52 1946     		mov	r1, r3
 6261 2d54 00F064FD 		bl	ConfigCommandParsing
 6262 2d58 43E0     		b	.L223
 6263              	.L321:
 6264 2d5a 00BF     		.align	2
 6265              	.L320:
 6266 2d5c C0010000 		.word	.LC15
 6267 2d60 00000000 		.word	BufferToWrite
 6268 2d64 98020000 		.word	.LC30
 6269 2d68 00000000 		.word	BytesToWrite
 6270 2d6c 22000000 		.word	StdErrCharHandle
 6271 2d70 00000000 		.word	ConnectionBleStatus
 6272 2d74 20000000 		.word	TermCharHandle
 6273 2d78 54000000 		.word	SizeOfUpdateBlueFW
 6274 2d7c 1E000000 		.word	ConsoleW2STHandle
 6275 2d80 A4020000 		.word	.LC31
 6276 2d84 0C000000 		.word	AudioLevelCharHandle
 6277 2d88 00000000 		.word	RMS_Ch
 6278 2d8c 00000000 		.word	DBNOISE_Value_Old_Ch
 6279 2d90 00000000 		.word	TargetBoardFeatures
 6280 2d94 00000000 		.word	TimAudioDataHandle
 6281 2d98 B8010000 		.word	.LC14
 6282 2d9c CC020000 		.word	.LC32
 6283 2da0 1C000000 		.word	ConfigCharHandle
 6284              	.L313:
 6285              		.loc 1 1923 0
 6286 2da4 104B     		ldr	r3, .L322
 6287 2da6 1B68     		ldr	r3, [r3]
 6288 2da8 03F40063 		and	r3, r3, #2048
 6289 2dac 002B     		cmp	r3, #0
 6290 2dae 18D0     		beq	.L223
 6291              		.loc 1 1924 0
 6292 2db0 0E4A     		ldr	r2, .L322+4
 6293 2db2 0F4B     		ldr	r3, .L322+8
 6294 2db4 1546     		mov	r5, r2
 6295 2db6 1C46     		mov	r4, r3
 6296 2db8 0FCC     		ldmia	r4!, {r0, r1, r2, r3}
 6297 2dba 2860     		str	r0, [r5]	@ unaligned
 6298 2dbc 6960     		str	r1, [r5, #4]	@ unaligned
 6299 2dbe AA60     		str	r2, [r5, #8]	@ unaligned
 6300 2dc0 EB60     		str	r3, [r5, #12]	@ unaligned
 6301 2dc2 07CC     		ldmia	r4!, {r0, r1, r2}
 6302 2dc4 2861     		str	r0, [r5, #16]	@ unaligned
 6303 2dc6 6961     		str	r1, [r5, #20]	@ unaligned
 6304 2dc8 AA61     		str	r2, [r5, #24]	@ unaligned
 6305 2dca 2378     		ldrb	r3, [r4]
 6306 2dcc 2B77     		strb	r3, [r5, #28]
 6307 2dce 094B     		ldr	r3, .L322+12
ARM GAS  /tmp/ccNtBBEs.s 			page 114


 6308 2dd0 1C22     		movs	r2, #28
 6309 2dd2 1A60     		str	r2, [r3]
 6310              		.loc 1 1925 0
 6311 2dd4 074B     		ldr	r3, .L322+12
 6312 2dd6 1B68     		ldr	r3, [r3]
 6313 2dd8 DBB2     		uxtb	r3, r3
 6314 2dda 0448     		ldr	r0, .L322+4
 6315 2ddc 1946     		mov	r1, r3
 6316 2dde FFF7FEFF 		bl	Stderr_Update
 6317              	.L223:
 6318              		.loc 1 1930 0
 6319 2de2 0FB0     		add	sp, sp, #60
 6320              		@ sp needed
 6321 2de4 F0BD     		pop	{r4, r5, r6, r7, pc}
 6322              	.L323:
 6323 2de6 00BF     		.align	2
 6324              	.L322:
 6325 2de8 00000000 		.word	ConnectionBleStatus
 6326 2dec 00000000 		.word	BufferToWrite
 6327 2df0 E8020000 		.word	.LC33
 6328 2df4 00000000 		.word	BytesToWrite
 6329              		.cfi_endproc
 6330              	.LFE292:
 6331              		.size	Attribute_Modified_CB, .-Attribute_Modified_CB
 6332              		.section	.rodata
 6333 0305 000000   		.align	2
 6334              	.LC34:
 6335 0308 436F6D6D 		.ascii	"Command:\015\012pr->HW pedometer reset\015\012info-"
 6335      616E643A 
 6335      0D0A7072 
 6335      2D3E4857 
 6335      20706564 
 6336 032f 3E205379 		.ascii	"> System Info\015\012powerstatus-> Battery Status ["
 6336      7374656D 
 6336      20496E66 
 6336      6F0D0A70 
 6336      6F776572 
 6337 035c 2525206D 		.ascii	"%% mV]\015\012versionFw-> FW Version\015\012version"
 6337      565D0D0A 
 6337      76657273 
 6337      696F6E46 
 6337      772D3E20 
 6338 0383 426C652D 		.ascii	"Ble-> Ble Version\015\012\000"
 6338      3E20426C 
 6338      65205665 
 6338      7273696F 
 6338      6E0D0A00 
 6339 0397 00       		.align	2
 6340              	.LC35:
 6341 0398 76657273 		.ascii	"versionFw\000"
 6341      696F6E46 
 6341      7700
 6342 03a2 0000     		.align	2
 6343              	.LC36:
 6344 03a4 25735F25 		.ascii	"%s_%s_%c.%c.%c\015\012\000"
 6344      735F2563 
 6344      2E25632E 
ARM GAS  /tmp/ccNtBBEs.s 			page 115


 6344      25630D0A 
 6344      00
 6345 03b5 000000   		.align	2
 6346              	.LC37:
 6347 03b8 46343736 		.ascii	"F476\000"
 6347      00
 6348 03bd 000000   		.align	2
 6349              	.LC38:
 6350 03c0 424C5545 		.ascii	"BLUEMICROSYSTEM2\000"
 6350      4D494352 
 6350      4F535953 
 6350      54454D32 
 6350      00
 6351 03d1 000000   		.align	2
 6352              	.LC39:
 6353 03d4 706F7765 		.ascii	"powerstatus\000"
 6353      72737461 
 6353      74757300 
 6354              		.align	2
 6355              	.LC40:
 6356 03e0 42617474 		.ascii	"Battery %ld%% %ld mV Current=%d mA\015\012\000"
 6356      65727920 
 6356      256C6425 
 6356      2520256C 
 6356      64206D56 
 6357 0405 000000   		.align	2
 6358              	.LC41:
 6359 0408 42617474 		.ascii	"Battery not present\015\012\000"
 6359      65727920 
 6359      6E6F7420 
 6359      70726573 
 6359      656E740D 
 6360 041e 0000     		.align	2
 6361              	.LC42:
 6362 0420 696E666F 		.ascii	"info\000"
 6362      00
 6363 0425 000000   		.align	2
 6364              	.LC43:
 6365 0428 0D0A4272 		.ascii	"\015\012Bryce H's STMicroelectronics %s:\015\012\011"
 6365      79636520 
 6365      48277320 
 6365      53544D69 
 6365      63726F65 
 6366 044d 56657273 		.ascii	"Version %c.%c.%c\015\012\011DDDDDDDD  Bryce's STM32"
 6366      696F6E20 
 6366      25632E25 
 6366      632E2563 
 6366      0D0A0944 
 6367 0477 34373652 		.ascii	"476RG-SensorTile board\015\012\000"
 6367      472D5365 
 6367      6E736F72 
 6367      54696C65 
 6367      20626F61 
 6368              		.align	2
 6369              	.LC44:
 6370 0490 09284841 		.ascii	"\011(HAL %ld.%ld.%ld_%ld)\015\012\011Compiled %s %s"
 6370      4C20256C 
ARM GAS  /tmp/ccNtBBEs.s 			page 116


 6370      642E256C 
 6370      642E256C 
 6370      645F256C 
 6371 04b7 20286F70 		.ascii	" (openstm32)\015\012\000"
 6371      656E7374 
 6371      6D333229 
 6371      0D0A00
 6372 04c6 0000     		.align	2
 6373              	.LC45:
 6374 04c8 41707220 		.ascii	"Apr 24 2017\000"
 6374      32342032 
 6374      30313700 
 6375              		.align	2
 6376              	.LC46:
 6377 04d4 31323A30 		.ascii	"12:05:41\000"
 6377      353A3431 
 6377      00
 6378 04dd 000000   		.align	2
 6379              	.LC47:
 6380 04e0 75706772 		.ascii	"upgradeFw\000"
 6380      61646546 
 6380      7700
 6381 04ea 0000     		.align	2
 6382              	.LC48:
 6383 04ec 76657273 		.ascii	"versionBle\000"
 6383      696F6E42 
 6383      6C6500
 6384 04f7 00       		.align	2
 6385              	.LC49:
 6386 04f8 426C654D 		.ascii	"BleMS\000"
 6386      5300
 6387 04fe 0000     		.align	2
 6388              	.LC50:
 6389 0500 426C6500 		.ascii	"Ble\000"
 6390              		.align	2
 6391              	.LC51:
 6392 0504 25735F25 		.ascii	"%s_%d.%d.%c\015\012\000"
 6392      642E2564 
 6392      2E25630D 
 6392      0A00
 6393 0512 0000     		.align	2
 6394              	.LC52:
 6395 0514 252E3258 		.ascii	"%.2X%.2X%.2X%.2X%.2X%.2X%.2X%.2X%.2X%.2X%.2X%.2X_%."
 6395      252E3258 
 6395      252E3258 
 6395      252E3258 
 6395      252E3258 
 6396 0547 336C580D 		.ascii	"3lX\015\012\000"
 6396      0A00
 6397 054d 000000   		.align	2
 6398              	.LC53:
 6399 0550 4F4B00   		.ascii	"OK\000"
 6400 0553 00       		.align	2
 6401              	.LC54:
 6402 0554 2D2D00   		.ascii	"--\000"
 6403 0557 00       		.align	2
 6404              	.LC55:
ARM GAS  /tmp/ccNtBBEs.s 			page 117


 6405 0558 6F737825 		.ascii	"osx%s%s %s\015\012\000"
 6405      73257320 
 6405      25730D0A 
 6405      00
 6406 0565 000000   		.align	2
 6407              	.LC56:
 6408 0568 52657365 		.ascii	"Reset of All the osx licenses\015\012\000"
 6408      74206F66 
 6408      20416C6C 
 6408      20746865 
 6408      206F7378 
 6409              		.align	2
 6410              	.LC57:
 6411 0588 4C696365 		.ascii	"License Write Successful\015\012\000"
 6411      6E736520 
 6411      57726974 
 6411      65205375 
 6411      63636573 
 6412              		.text
 6413              		.align	2
 6414 2df8 AFF30080 		.p2align 4,,15
 6414      AFF30080 
 6415              		.thumb
 6416              		.thumb_func
 6417              		.type	DebugConsoleCommandParsing, %function
 6418              	DebugConsoleCommandParsing:
 6419              	.LFB293:
 6420              		.loc 1 1939 0
 6421              		.cfi_startproc
 6422              		@ args = 0, pretend = 0, frame = 96
 6423              		@ frame_needed = 0, uses_anonymous_args = 0
 6424 2e00 2DE9F043 		push	{r4, r5, r6, r7, r8, r9, lr}
 6425              		.cfi_def_cfa_offset 28
 6426              		.cfi_offset 4, -28
 6427              		.cfi_offset 5, -24
 6428              		.cfi_offset 6, -20
 6429              		.cfi_offset 7, -16
 6430              		.cfi_offset 8, -12
 6431              		.cfi_offset 9, -8
 6432              		.cfi_offset 14, -4
 6433 2e04 A5B0     		sub	sp, sp, #148
 6434              		.cfi_def_cfa_offset 176
 6435 2e06 0D90     		str	r0, [sp, #52]
 6436 2e08 0B46     		mov	r3, r1
 6437 2e0a 8DF83330 		strb	r3, [sp, #51]
 6438              		.loc 1 1940 0
 6439 2e0e 0123     		movs	r3, #1
 6440 2e10 2393     		str	r3, [sp, #140]
 6441              		.loc 1 1943 0
 6442 2e12 584B     		ldr	r3, .L384
 6443 2e14 1B68     		ldr	r3, [r3]
 6444 2e16 002B     		cmp	r3, #0
 6445 2e18 40F06C83 		bne	.L325
 6446              		.loc 1 1945 0
 6447 2e1c 0D9B     		ldr	r3, [sp, #52]
 6448 2e1e 1B78     		ldrb	r3, [r3]	@ zero_extendqisi2
 6449 2e20 3F2B     		cmp	r3, #63
ARM GAS  /tmp/ccNtBBEs.s 			page 118


 6450 2e22 14BF     		ite	ne
 6451 2e24 0023     		movne	r3, #0
 6452 2e26 0123     		moveq	r3, #1
 6453 2e28 DAB2     		uxtb	r2, r3
 6454 2e2a 0D9B     		ldr	r3, [sp, #52]
 6455 2e2c 0133     		adds	r3, r3, #1
 6456 2e2e 1B78     		ldrb	r3, [r3]	@ zero_extendqisi2
 6457 2e30 3F2B     		cmp	r3, #63
 6458 2e32 14BF     		ite	ne
 6459 2e34 0023     		movne	r3, #0
 6460 2e36 0123     		moveq	r3, #1
 6461 2e38 DBB2     		uxtb	r3, r3
 6462 2e3a 1340     		ands	r3, r3, r2
 6463 2e3c DBB2     		uxtb	r3, r3
 6464 2e3e 002B     		cmp	r3, #0
 6465 2e40 10D0     		beq	.L326
 6466              		.loc 1 1947 0
 6467 2e42 0023     		movs	r3, #0
 6468 2e44 2393     		str	r3, [sp, #140]
 6469              		.loc 1 1949 0
 6470 2e46 4C48     		ldr	r0, .L384+4
 6471 2e48 4C49     		ldr	r1, .L384+8
 6472 2e4a FFF7FEFF 		bl	sprintf
 6473 2e4e 0246     		mov	r2, r0
 6474 2e50 4B4B     		ldr	r3, .L384+12
 6475 2e52 1A60     		str	r2, [r3]
 6476              		.loc 1 1957 0
 6477 2e54 4A4B     		ldr	r3, .L384+12
 6478 2e56 1B68     		ldr	r3, [r3]
 6479 2e58 DBB2     		uxtb	r3, r3
 6480 2e5a 4748     		ldr	r0, .L384+4
 6481 2e5c 1946     		mov	r1, r3
 6482 2e5e FFF7FEFF 		bl	Term_Update
 6483 2e62 E5E0     		b	.L327
 6484              	.L326:
 6485              		.loc 1 1959 0
 6486 2e64 0D9B     		ldr	r3, [sp, #52]
 6487 2e66 1B78     		ldrb	r3, [r3]	@ zero_extendqisi2
 6488 2e68 702B     		cmp	r3, #112
 6489 2e6a 14BF     		ite	ne
 6490 2e6c 0023     		movne	r3, #0
 6491 2e6e 0123     		moveq	r3, #1
 6492 2e70 DAB2     		uxtb	r2, r3
 6493 2e72 0D9B     		ldr	r3, [sp, #52]
 6494 2e74 0133     		adds	r3, r3, #1
 6495 2e76 1B78     		ldrb	r3, [r3]	@ zero_extendqisi2
 6496 2e78 722B     		cmp	r3, #114
 6497 2e7a 14BF     		ite	ne
 6498 2e7c 0023     		movne	r3, #0
 6499 2e7e 0123     		moveq	r3, #1
 6500 2e80 DBB2     		uxtb	r3, r3
 6501 2e82 1340     		ands	r3, r3, r2
 6502 2e84 DBB2     		uxtb	r3, r3
 6503 2e86 002B     		cmp	r3, #0
 6504 2e88 04D0     		beq	.L328
 6505              		.loc 1 1961 0
 6506 2e8a FFF7FEFF 		bl	ResetHWPedometer
ARM GAS  /tmp/ccNtBBEs.s 			page 119


 6507              		.loc 1 1962 0
 6508 2e8e 0023     		movs	r3, #0
 6509 2e90 2393     		str	r3, [sp, #140]
 6510 2e92 CDE0     		b	.L327
 6511              	.L328:
 6512              		.loc 1 1964 0
 6513 2e94 3B48     		ldr	r0, .L384+16
 6514 2e96 0D99     		ldr	r1, [sp, #52]
 6515 2e98 0922     		movs	r2, #9
 6516 2e9a FFF7FEFF 		bl	strncmp
 6517 2e9e 0346     		mov	r3, r0
 6518 2ea0 002B     		cmp	r3, #0
 6519 2ea2 18D1     		bne	.L329
 6520              		.loc 1 1965 0
 6521 2ea4 3223     		movs	r3, #50
 6522 2ea6 0093     		str	r3, [sp]
 6523 2ea8 3223     		movs	r3, #50
 6524 2eaa 0193     		str	r3, [sp, #4]
 6525 2eac 3023     		movs	r3, #48
 6526 2eae 0293     		str	r3, [sp, #8]
 6527 2eb0 3148     		ldr	r0, .L384+4
 6528 2eb2 3549     		ldr	r1, .L384+20
 6529 2eb4 354A     		ldr	r2, .L384+24
 6530 2eb6 364B     		ldr	r3, .L384+28
 6531 2eb8 FFF7FEFF 		bl	sprintf
 6532 2ebc 0246     		mov	r2, r0
 6533 2ebe 304B     		ldr	r3, .L384+12
 6534 2ec0 1A60     		str	r2, [r3]
 6535              		.loc 1 1979 0
 6536 2ec2 2F4B     		ldr	r3, .L384+12
 6537 2ec4 1B68     		ldr	r3, [r3]
 6538 2ec6 DBB2     		uxtb	r3, r3
 6539 2ec8 2B48     		ldr	r0, .L384+4
 6540 2eca 1946     		mov	r1, r3
 6541 2ecc FFF7FEFF 		bl	Term_Update
 6542              		.loc 1 1980 0
 6543 2ed0 0023     		movs	r3, #0
 6544 2ed2 2393     		str	r3, [sp, #140]
 6545 2ed4 ACE0     		b	.L327
 6546              	.L329:
 6547              		.loc 1 1982 0
 6548 2ed6 2F48     		ldr	r0, .L384+32
 6549 2ed8 0D99     		ldr	r1, [sp, #52]
 6550 2eda 0B22     		movs	r2, #11
 6551 2edc FFF7FEFF 		bl	strncmp
 6552 2ee0 0346     		mov	r3, r0
 6553 2ee2 002B     		cmp	r3, #0
 6554 2ee4 5ED1     		bne	.L330
 6555              		.loc 1 1983 0
 6556 2ee6 0023     		movs	r3, #0
 6557 2ee8 2393     		str	r3, [sp, #140]
 6558              		.loc 1 1984 0
 6559 2eea 2B4B     		ldr	r3, .L384+36
 6560 2eec 1B6B     		ldr	r3, [r3, #48]
 6561 2eee 002B     		cmp	r3, #0
 6562 2ef0 28D0     		beq	.L331
 6563              	.LBB15:
ARM GAS  /tmp/ccNtBBEs.s 			page 120


 6564              		.loc 1 1989 0
 6565 2ef2 294B     		ldr	r3, .L384+36
 6566 2ef4 1A6B     		ldr	r2, [r3, #48]
 6567 2ef6 0DF15F03 		add	r3, sp, #95
 6568 2efa 1046     		mov	r0, r2
 6569 2efc 1946     		mov	r1, r3
 6570 2efe FFF7FEFF 		bl	BSP_GG_Task
 6571              		.loc 1 1992 0
 6572 2f02 254B     		ldr	r3, .L384+36
 6573 2f04 1A6B     		ldr	r2, [r3, #48]
 6574 2f06 19AB     		add	r3, sp, #100
 6575 2f08 1046     		mov	r0, r2
 6576 2f0a 1946     		mov	r1, r3
 6577 2f0c FFF7FEFF 		bl	BSP_GG_GetVoltage
 6578              		.loc 1 1993 0
 6579 2f10 214B     		ldr	r3, .L384+36
 6580 2f12 1A6B     		ldr	r2, [r3, #48]
 6581 2f14 18AB     		add	r3, sp, #96
 6582 2f16 1046     		mov	r0, r2
 6583 2f18 1946     		mov	r1, r3
 6584 2f1a FFF7FEFF 		bl	BSP_GG_GetSOC
 6585              		.loc 1 1994 0
 6586 2f1e 1E4B     		ldr	r3, .L384+36
 6587 2f20 1A6B     		ldr	r2, [r3, #48]
 6588 2f22 16AB     		add	r3, sp, #88
 6589 2f24 1046     		mov	r0, r2
 6590 2f26 1946     		mov	r1, r3
 6591 2f28 FFF7FEFF 		bl	BSP_GG_GetCurrent
 6592              		.loc 1 1996 0
 6593 2f2c 189A     		ldr	r2, [sp, #96]
 6594 2f2e 199B     		ldr	r3, [sp, #100]
 6595 2f30 1699     		ldr	r1, [sp, #88]
 6596 2f32 0091     		str	r1, [sp]
 6597 2f34 1048     		ldr	r0, .L384+4
 6598 2f36 1949     		ldr	r1, .L384+40
 6599 2f38 FFF7FEFF 		bl	sprintf
 6600 2f3c 0246     		mov	r2, r0
 6601 2f3e 104B     		ldr	r3, .L384+12
 6602 2f40 1A60     		str	r2, [r3]
 6603              	.LBE15:
 6604 2f42 0FE0     		b	.L332
 6605              	.L331:
 6606              		.loc 1 1998 0
 6607 2f44 0C4A     		ldr	r2, .L384+4
 6608 2f46 164B     		ldr	r3, .L384+44
 6609 2f48 1546     		mov	r5, r2
 6610 2f4a 1C46     		mov	r4, r3
 6611 2f4c 0FCC     		ldmia	r4!, {r0, r1, r2, r3}
 6612 2f4e 2860     		str	r0, [r5]	@ unaligned
 6613 2f50 6960     		str	r1, [r5, #4]	@ unaligned
 6614 2f52 AA60     		str	r2, [r5, #8]	@ unaligned
 6615 2f54 EB60     		str	r3, [r5, #12]	@ unaligned
 6616 2f56 2068     		ldr	r0, [r4]	@ unaligned
 6617 2f58 2861     		str	r0, [r5, #16]	@ unaligned
 6618 2f5a A388     		ldrh	r3, [r4, #4]	@ unaligned
 6619 2f5c AB82     		strh	r3, [r5, #20]	@ unaligned
 6620 2f5e 084B     		ldr	r3, .L384+12
ARM GAS  /tmp/ccNtBBEs.s 			page 121


 6621 2f60 1522     		movs	r2, #21
 6622 2f62 1A60     		str	r2, [r3]
 6623              	.L332:
 6624              		.loc 1 2000 0 discriminator 1
 6625 2f64 064B     		ldr	r3, .L384+12
 6626 2f66 1B68     		ldr	r3, [r3]
 6627 2f68 DBB2     		uxtb	r3, r3
 6628 2f6a 0348     		ldr	r0, .L384+4
 6629 2f6c 1946     		mov	r1, r3
 6630 2f6e FFF7FEFF 		bl	Term_Update
 6631 2f72 5DE0     		b	.L327
 6632              	.L385:
 6633              		.align	2
 6634              	.L384:
 6635 2f74 64000000 		.word	osxLicenseStart.18793
 6636 2f78 00000000 		.word	BufferToWrite
 6637 2f7c 08030000 		.word	.LC34
 6638 2f80 00000000 		.word	BytesToWrite
 6639 2f84 98030000 		.word	.LC35
 6640 2f88 A4030000 		.word	.LC36
 6641 2f8c B8030000 		.word	.LC37
 6642 2f90 C0030000 		.word	.LC38
 6643 2f94 D4030000 		.word	.LC39
 6644 2f98 00000000 		.word	TargetBoardFeatures
 6645 2f9c E0030000 		.word	.LC40
 6646 2fa0 08040000 		.word	.LC41
 6647              	.L330:
 6648              		.loc 1 2002 0
 6649 2fa4 9048     		ldr	r0, .L386
 6650 2fa6 0D99     		ldr	r1, [sp, #52]
 6651 2fa8 0422     		movs	r2, #4
 6652 2faa FFF7FEFF 		bl	strncmp
 6653 2fae 0346     		mov	r3, r0
 6654 2fb0 002B     		cmp	r3, #0
 6655 2fb2 3DD1     		bne	.L327
 6656              		.loc 1 2003 0
 6657 2fb4 0023     		movs	r3, #0
 6658 2fb6 2393     		str	r3, [sp, #140]
 6659              		.loc 1 2005 0
 6660 2fb8 3223     		movs	r3, #50
 6661 2fba 0093     		str	r3, [sp]
 6662 2fbc 3023     		movs	r3, #48
 6663 2fbe 0193     		str	r3, [sp, #4]
 6664 2fc0 8A48     		ldr	r0, .L386+4
 6665 2fc2 8B49     		ldr	r1, .L386+8
 6666 2fc4 8B4A     		ldr	r2, .L386+12
 6667 2fc6 3223     		movs	r3, #50
 6668 2fc8 FFF7FEFF 		bl	sprintf
 6669 2fcc 0246     		mov	r2, r0
 6670 2fce 8A4B     		ldr	r3, .L386+16
 6671 2fd0 1A60     		str	r2, [r3]
 6672              		.loc 1 2021 0
 6673 2fd2 894B     		ldr	r3, .L386+16
 6674 2fd4 1B68     		ldr	r3, [r3]
 6675 2fd6 DBB2     		uxtb	r3, r3
 6676 2fd8 8448     		ldr	r0, .L386+4
 6677 2fda 1946     		mov	r1, r3
ARM GAS  /tmp/ccNtBBEs.s 			page 122


 6678 2fdc FFF7FEFF 		bl	Term_Update
 6679              		.loc 1 2032 0
 6680 2fe0 FFF7FEFF 		bl	HAL_GetHalVersion
 6681 2fe4 0346     		mov	r3, r0
 6682              		.loc 1 2023 0
 6683 2fe6 1D0E     		lsrs	r5, r3, #24
 6684              		.loc 1 2033 0
 6685 2fe8 FFF7FEFF 		bl	HAL_GetHalVersion
 6686 2fec 0346     		mov	r3, r0
 6687 2fee 1B0C     		lsrs	r3, r3, #16
 6688              		.loc 1 2023 0
 6689 2ff0 DCB2     		uxtb	r4, r3
 6690              		.loc 1 2034 0
 6691 2ff2 FFF7FEFF 		bl	HAL_GetHalVersion
 6692 2ff6 0346     		mov	r3, r0
 6693 2ff8 1B0A     		lsrs	r3, r3, #8
 6694              		.loc 1 2023 0
 6695 2ffa DEB2     		uxtb	r6, r3
 6696              		.loc 1 2035 0
 6697 2ffc FFF7FEFF 		bl	HAL_GetHalVersion
 6698 3000 0346     		mov	r3, r0
 6699              		.loc 1 2023 0
 6700 3002 DBB2     		uxtb	r3, r3
 6701 3004 0096     		str	r6, [sp]
 6702 3006 0193     		str	r3, [sp, #4]
 6703 3008 7C4B     		ldr	r3, .L386+20
 6704 300a 0293     		str	r3, [sp, #8]
 6705 300c 7C4B     		ldr	r3, .L386+24
 6706 300e 0393     		str	r3, [sp, #12]
 6707 3010 7648     		ldr	r0, .L386+4
 6708 3012 7C49     		ldr	r1, .L386+28
 6709 3014 2A46     		mov	r2, r5
 6710 3016 2346     		mov	r3, r4
 6711 3018 FFF7FEFF 		bl	sprintf
 6712 301c 0246     		mov	r2, r0
 6713 301e 764B     		ldr	r3, .L386+16
 6714 3020 1A60     		str	r2, [r3]
 6715              		.loc 1 2037 0
 6716 3022 754B     		ldr	r3, .L386+16
 6717 3024 1B68     		ldr	r3, [r3]
 6718 3026 DBB2     		uxtb	r3, r3
 6719 3028 7048     		ldr	r0, .L386+4
 6720 302a 1946     		mov	r1, r3
 6721 302c FFF7FEFF 		bl	Term_Update
 6722              	.L327:
 6723              		.loc 1 2048 0
 6724 3030 7548     		ldr	r0, .L386+32
 6725 3032 0D99     		ldr	r1, [sp, #52]
 6726 3034 0922     		movs	r2, #9
 6727 3036 FFF7FEFF 		bl	strncmp
 6728 303a 0346     		mov	r3, r0
 6729 303c 002B     		cmp	r3, #0
 6730 303e 40F09180 		bne	.L333
 6731              	.LBB16:
 6732              		.loc 1 2050 0
 6733 3042 724B     		ldr	r3, .L386+36
 6734 3044 2093     		str	r3, [sp, #128]
ARM GAS  /tmp/ccNtBBEs.s 			page 123


 6735              		.loc 1 2052 0
 6736 3046 0D9B     		ldr	r3, [sp, #52]
 6737 3048 0933     		adds	r3, r3, #9
 6738 304a 1846     		mov	r0, r3
 6739 304c FFF7FEFF 		bl	atoi
 6740 3050 0346     		mov	r3, r0
 6741 3052 1A46     		mov	r2, r3
 6742 3054 6D4B     		ldr	r3, .L386+36
 6743 3056 1A60     		str	r2, [r3]
 6744              		.loc 1 2053 0
 6745 3058 0D9B     		ldr	r3, [sp, #52]
 6746 305a 5A7A     		ldrb	r2, [r3, #9]	@ zero_extendqisi2
 6747 305c 209B     		ldr	r3, [sp, #128]
 6748 305e 1A70     		strb	r2, [r3]
 6749              		.loc 1 2054 0
 6750 3060 209B     		ldr	r3, [sp, #128]
 6751 3062 0133     		adds	r3, r3, #1
 6752 3064 0D9A     		ldr	r2, [sp, #52]
 6753 3066 927A     		ldrb	r2, [r2, #10]	@ zero_extendqisi2
 6754 3068 1A70     		strb	r2, [r3]
 6755              		.loc 1 2055 0
 6756 306a 209B     		ldr	r3, [sp, #128]
 6757 306c 0233     		adds	r3, r3, #2
 6758 306e 0D9A     		ldr	r2, [sp, #52]
 6759 3070 D27A     		ldrb	r2, [r2, #11]	@ zero_extendqisi2
 6760 3072 1A70     		strb	r2, [r3]
 6761              		.loc 1 2056 0
 6762 3074 209B     		ldr	r3, [sp, #128]
 6763 3076 0333     		adds	r3, r3, #3
 6764 3078 0D9A     		ldr	r2, [sp, #52]
 6765 307a 127B     		ldrb	r2, [r2, #12]	@ zero_extendqisi2
 6766 307c 1A70     		strb	r2, [r3]
 6767              		.loc 1 2059 0
 6768 307e 634B     		ldr	r3, .L386+36
 6769 3080 1A68     		ldr	r2, [r3]
 6770 3082 634B     		ldr	r3, .L386+40
 6771 3084 9A42     		cmp	r2, r3
 6772 3086 23D9     		bls	.L334
 6773              		.loc 1 2062 0
 6774 3088 0D9B     		ldr	r3, [sp, #52]
 6775 308a 5A7B     		ldrb	r2, [r3, #13]	@ zero_extendqisi2
 6776 308c 209B     		ldr	r3, [sp, #128]
 6777 308e 1A70     		strb	r2, [r3]
 6778              		.loc 1 2063 0
 6779 3090 209B     		ldr	r3, [sp, #128]
 6780 3092 0133     		adds	r3, r3, #1
 6781 3094 0D9A     		ldr	r2, [sp, #52]
 6782 3096 0E32     		adds	r2, r2, #14
 6783 3098 1278     		ldrb	r2, [r2]	@ zero_extendqisi2
 6784 309a 002A     		cmp	r2, #0
 6785 309c 14BF     		ite	ne
 6786 309e 0022     		movne	r2, #0
 6787 30a0 0122     		moveq	r2, #1
 6788 30a2 D2B2     		uxtb	r2, r2
 6789 30a4 1A70     		strb	r2, [r3]
 6790              		.loc 1 2064 0
 6791 30a6 209B     		ldr	r3, [sp, #128]
ARM GAS  /tmp/ccNtBBEs.s 			page 124


 6792 30a8 0233     		adds	r3, r3, #2
 6793 30aa 0D9A     		ldr	r2, [sp, #52]
 6794 30ac D27B     		ldrb	r2, [r2, #15]	@ zero_extendqisi2
 6795 30ae 1A70     		strb	r2, [r3]
 6796              		.loc 1 2065 0
 6797 30b0 209B     		ldr	r3, [sp, #128]
 6798 30b2 0333     		adds	r3, r3, #3
 6799 30b4 0D9A     		ldr	r2, [sp, #52]
 6800 30b6 127C     		ldrb	r2, [r2, #16]	@ zero_extendqisi2
 6801 30b8 1A70     		strb	r2, [r3]
 6802              		.loc 1 2066 0
 6803 30ba 4F4B     		ldr	r3, .L386+16
 6804 30bc 0422     		movs	r2, #4
 6805 30be 1A60     		str	r2, [r3]
 6806              		.loc 1 2067 0
 6807 30c0 4D4B     		ldr	r3, .L386+16
 6808 30c2 1B68     		ldr	r3, [r3]
 6809 30c4 DBB2     		uxtb	r3, r3
 6810 30c6 4948     		ldr	r0, .L386+4
 6811 30c8 1946     		mov	r1, r3
 6812 30ca FFF7FEFF 		bl	Term_Update
 6813 30ce 46E0     		b	.L335
 6814              	.L334:
 6815              		.loc 1 2069 0
 6816 30d0 15AB     		add	r3, sp, #84
 6817 30d2 2093     		str	r3, [sp, #128]
 6818              		.loc 1 2070 0
 6819 30d4 0D9B     		ldr	r3, [sp, #52]
 6820 30d6 5A7B     		ldrb	r2, [r3, #13]	@ zero_extendqisi2
 6821 30d8 209B     		ldr	r3, [sp, #128]
 6822 30da 1A70     		strb	r2, [r3]
 6823              		.loc 1 2071 0
 6824 30dc 209B     		ldr	r3, [sp, #128]
 6825 30de 0133     		adds	r3, r3, #1
 6826 30e0 0D9A     		ldr	r2, [sp, #52]
 6827 30e2 927B     		ldrb	r2, [r2, #14]	@ zero_extendqisi2
 6828 30e4 1A70     		strb	r2, [r3]
 6829              		.loc 1 2072 0
 6830 30e6 209B     		ldr	r3, [sp, #128]
 6831 30e8 0233     		adds	r3, r3, #2
 6832 30ea 0D9A     		ldr	r2, [sp, #52]
 6833 30ec D27B     		ldrb	r2, [r2, #15]	@ zero_extendqisi2
 6834 30ee 1A70     		strb	r2, [r3]
 6835              		.loc 1 2073 0
 6836 30f0 209B     		ldr	r3, [sp, #128]
 6837 30f2 0333     		adds	r3, r3, #3
 6838 30f4 0D9A     		ldr	r2, [sp, #52]
 6839 30f6 127C     		ldrb	r2, [r2, #16]	@ zero_extendqisi2
 6840 30f8 1A70     		strb	r2, [r3]
 6841              		.loc 1 2078 0
 6842 30fa 444B     		ldr	r3, .L386+36
 6843 30fc 1A68     		ldr	r2, [r3]
 6844 30fe 159B     		ldr	r3, [sp, #84]
 6845 3100 1046     		mov	r0, r2
 6846 3102 1946     		mov	r1, r3
 6847 3104 FFF7FEFF 		bl	StartUpdateFWBlueMS
 6848              	.LBB17:
ARM GAS  /tmp/ccNtBBEs.s 			page 125


 6849              		.loc 1 2089 0
 6850 3108 424B     		ldr	r3, .L386+44
 6851 310a 1B88     		ldrh	r3, [r3]
 6852 310c 4FF4C872 		mov	r2, #400
 6853 3110 0092     		str	r2, [sp]
 6854 3112 1846     		mov	r0, r3
 6855 3114 0A21     		movs	r1, #10
 6856 3116 0A22     		movs	r2, #10
 6857 3118 0023     		movs	r3, #0
 6858 311a FFF7FEFF 		bl	aci_l2cap_connection_parameter_update_request
 6859 311e 0346     		mov	r3, r0
 6860 3120 1F93     		str	r3, [sp, #124]
 6861              		.loc 1 2095 0
 6862 3122 1F9B     		ldr	r3, [sp, #124]
 6863 3124 002B     		cmp	r3, #0
 6864 3126 00D0     		beq	.L336
 6865              	.L337:
 6866              		.loc 1 2098 0 discriminator 1
 6867 3128 FEE7     		b	.L337
 6868              	.L336:
 6869              	.LBE17:
 6870              		.loc 1 2103 0
 6871 312a 209B     		ldr	r3, [sp, #128]
 6872 312c 1A78     		ldrb	r2, [r3]	@ zero_extendqisi2
 6873 312e 2F4B     		ldr	r3, .L386+4
 6874 3130 1A70     		strb	r2, [r3]
 6875              		.loc 1 2104 0
 6876 3132 209B     		ldr	r3, [sp, #128]
 6877 3134 5A78     		ldrb	r2, [r3, #1]	@ zero_extendqisi2
 6878 3136 2D4B     		ldr	r3, .L386+4
 6879 3138 5A70     		strb	r2, [r3, #1]
 6880              		.loc 1 2105 0
 6881 313a 209B     		ldr	r3, [sp, #128]
 6882 313c 9A78     		ldrb	r2, [r3, #2]	@ zero_extendqisi2
 6883 313e 2B4B     		ldr	r3, .L386+4
 6884 3140 9A70     		strb	r2, [r3, #2]
 6885              		.loc 1 2106 0
 6886 3142 209B     		ldr	r3, [sp, #128]
 6887 3144 DA78     		ldrb	r2, [r3, #3]	@ zero_extendqisi2
 6888 3146 294B     		ldr	r3, .L386+4
 6889 3148 DA70     		strb	r2, [r3, #3]
 6890              		.loc 1 2107 0
 6891 314a 2B4B     		ldr	r3, .L386+16
 6892 314c 0422     		movs	r2, #4
 6893 314e 1A60     		str	r2, [r3]
 6894              		.loc 1 2108 0
 6895 3150 294B     		ldr	r3, .L386+16
 6896 3152 1B68     		ldr	r3, [r3]
 6897 3154 DBB2     		uxtb	r3, r3
 6898 3156 2548     		ldr	r0, .L386+4
 6899 3158 1946     		mov	r1, r3
 6900 315a FFF7FEFF 		bl	Term_Update
 6901              	.L335:
 6902              		.loc 1 2111 0 discriminator 1
 6903 315e 0023     		movs	r3, #0
 6904 3160 2393     		str	r3, [sp, #140]
 6905              	.LBE16:
ARM GAS  /tmp/ccNtBBEs.s 			page 126


 6906 3162 51E2     		b	.L352
 6907              	.L333:
 6908              		.loc 1 2113 0
 6909 3164 2C48     		ldr	r0, .L386+48
 6910 3166 0D99     		ldr	r1, [sp, #52]
 6911 3168 0A22     		movs	r2, #10
 6912 316a FFF7FEFF 		bl	strncmp
 6913 316e 0346     		mov	r3, r0
 6914 3170 002B     		cmp	r3, #0
 6915 3172 59D1     		bne	.L339
 6916              	.LBB18:
 6917              		.loc 1 2117 0
 6918 3174 0DF15302 		add	r2, sp, #83
 6919 3178 14AB     		add	r3, sp, #80
 6920 317a 1046     		mov	r0, r2
 6921 317c 1946     		mov	r1, r3
 6922 317e FFF7FEFF 		bl	getBlueNRGVersion
 6923              		.loc 1 2119 0
 6924 3182 9DF85330 		ldrb	r3, [sp, #83]	@ zero_extendqisi2
 6925              		.loc 1 2118 0
 6926 3186 302B     		cmp	r3, #48
 6927 3188 01D9     		bls	.L340
 6928              		.loc 1 2118 0 is_stmt 0 discriminator 1
 6929 318a 244B     		ldr	r3, .L386+52
 6930 318c 00E0     		b	.L341
 6931              	.L340:
 6932              		.loc 1 2118 0 discriminator 2
 6933 318e 244B     		ldr	r3, .L386+56
 6934              	.L341:
 6935              		.loc 1 2118 0 discriminator 3
 6936 3190 BDF85020 		ldrh	r2, [sp, #80]
 6937 3194 120A     		lsrs	r2, r2, #8
 6938 3196 92B2     		uxth	r2, r2
 6939 3198 1446     		mov	r4, r2
 6940 319a BDF85020 		ldrh	r2, [sp, #80]
 6941 319e 1209     		lsrs	r2, r2, #4
 6942 31a0 92B2     		uxth	r2, r2
 6943 31a2 02F00F01 		and	r1, r2, #15
 6944              		.loc 1 2122 0 is_stmt 1 discriminator 3
 6945 31a6 9DF85320 		ldrb	r2, [sp, #83]	@ zero_extendqisi2
 6946              		.loc 1 2118 0 discriminator 3
 6947 31aa 302A     		cmp	r2, #48
 6948 31ac 05D9     		bls	.L342
 6949              		.loc 1 2122 0
 6950 31ae BDF85020 		ldrh	r2, [sp, #80]
 6951 31b2 02F00F02 		and	r2, r2, #15
 6952              		.loc 1 2118 0
 6953 31b6 6032     		adds	r2, r2, #96
 6954 31b8 00E0     		b	.L343
 6955              	.L342:
 6956              		.loc 1 2118 0 is_stmt 0 discriminator 4
 6957 31ba 6122     		movs	r2, #97
 6958              	.L343:
 6959              		.loc 1 2118 0 discriminator 1
 6960 31bc 0091     		str	r1, [sp]
 6961 31be 0192     		str	r2, [sp, #4]
 6962 31c0 0A48     		ldr	r0, .L386+4
ARM GAS  /tmp/ccNtBBEs.s 			page 127


 6963 31c2 1849     		ldr	r1, .L386+60
 6964 31c4 1A46     		mov	r2, r3
 6965 31c6 2346     		mov	r3, r4
 6966 31c8 FFF7FEFF 		bl	sprintf
 6967 31cc 0246     		mov	r2, r0
 6968 31ce 0A4B     		ldr	r3, .L386+16
 6969 31d0 1A60     		str	r2, [r3]
 6970              		.loc 1 2123 0 is_stmt 1 discriminator 1
 6971 31d2 094B     		ldr	r3, .L386+16
 6972 31d4 1B68     		ldr	r3, [r3]
 6973 31d6 DBB2     		uxtb	r3, r3
 6974 31d8 0448     		ldr	r0, .L386+4
 6975 31da 1946     		mov	r1, r3
 6976 31dc FFF7FEFF 		bl	Term_Update
 6977              		.loc 1 2124 0 discriminator 1
 6978 31e0 0023     		movs	r3, #0
 6979 31e2 2393     		str	r3, [sp, #140]
 6980              	.LBE18:
 6981 31e4 10E2     		b	.L352
 6982              	.L387:
 6983 31e6 00BF     		.align	2
 6984              	.L386:
 6985 31e8 20040000 		.word	.LC42
 6986 31ec 00000000 		.word	BufferToWrite
 6987 31f0 28040000 		.word	.LC43
 6988 31f4 C0030000 		.word	.LC38
 6989 31f8 00000000 		.word	BytesToWrite
 6990 31fc C8040000 		.word	.LC45
 6991 3200 D4040000 		.word	.LC46
 6992 3204 90040000 		.word	.LC44
 6993 3208 E0040000 		.word	.LC47
 6994 320c 54000000 		.word	SizeOfUpdateBlueFW
 6995 3210 F8BF0300 		.word	245752
 6996 3214 58000000 		.word	connection_handle
 6997 3218 EC040000 		.word	.LC48
 6998 321c F8040000 		.word	.LC49
 6999 3220 00050000 		.word	.LC50
 7000 3224 04050000 		.word	.LC51
 7001              	.L339:
 7002              		.loc 1 2125 0
 7003 3228 0D9B     		ldr	r3, [sp, #52]
 7004 322a 1B78     		ldrb	r3, [r3]	@ zero_extendqisi2
 7005 322c 752B     		cmp	r3, #117
 7006 322e 14BF     		ite	ne
 7007 3230 0023     		movne	r3, #0
 7008 3232 0123     		moveq	r3, #1
 7009 3234 DAB2     		uxtb	r2, r3
 7010 3236 0D9B     		ldr	r3, [sp, #52]
 7011 3238 0133     		adds	r3, r3, #1
 7012 323a 1B78     		ldrb	r3, [r3]	@ zero_extendqisi2
 7013 323c 692B     		cmp	r3, #105
 7014 323e 14BF     		ite	ne
 7015 3240 0023     		movne	r3, #0
 7016 3242 0123     		moveq	r3, #1
 7017 3244 DBB2     		uxtb	r3, r3
 7018 3246 1340     		ands	r3, r3, r2
 7019 3248 DBB2     		uxtb	r3, r3
ARM GAS  /tmp/ccNtBBEs.s 			page 128


 7020 324a 1A46     		mov	r2, r3
 7021 324c 0D9B     		ldr	r3, [sp, #52]
 7022 324e 0233     		adds	r3, r3, #2
 7023 3250 1B78     		ldrb	r3, [r3]	@ zero_extendqisi2
 7024 3252 642B     		cmp	r3, #100
 7025 3254 14BF     		ite	ne
 7026 3256 0023     		movne	r3, #0
 7027 3258 0123     		moveq	r3, #1
 7028 325a DBB2     		uxtb	r3, r3
 7029 325c 1340     		ands	r3, r3, r2
 7030 325e 002B     		cmp	r3, #0
 7031 3260 54D0     		beq	.L344
 7032              	.LBB19:
 7033              		.loc 1 2127 0
 7034 3262 974B     		ldr	r3, .L388
 7035 3264 1E93     		str	r3, [sp, #120]
 7036              		.loc 1 2128 0
 7037 3266 974B     		ldr	r3, .L388+4
 7038 3268 1B68     		ldr	r3, [r3]
 7039 326a C3F30B03 		ubfx	r3, r3, #0, #12
 7040 326e 1D93     		str	r3, [sp, #116]
 7041              		.loc 1 2130 0
 7042 3270 1E9B     		ldr	r3, [sp, #120]
 7043 3272 0333     		adds	r3, r3, #3
 7044 3274 1B78     		ldrb	r3, [r3]	@ zero_extendqisi2
 7045              		.loc 1 2129 0
 7046 3276 1A46     		mov	r2, r3
 7047              		.loc 1 2130 0
 7048 3278 1E9B     		ldr	r3, [sp, #120]
 7049 327a 0233     		adds	r3, r3, #2
 7050 327c 1B78     		ldrb	r3, [r3]	@ zero_extendqisi2
 7051 327e 1E99     		ldr	r1, [sp, #120]
 7052 3280 0131     		adds	r1, r1, #1
 7053 3282 0978     		ldrb	r1, [r1]	@ zero_extendqisi2
 7054              		.loc 1 2129 0
 7055 3284 8946     		mov	r9, r1
 7056              		.loc 1 2130 0
 7057 3286 1E99     		ldr	r1, [sp, #120]
 7058 3288 0978     		ldrb	r1, [r1]	@ zero_extendqisi2
 7059              		.loc 1 2129 0
 7060 328a 8846     		mov	r8, r1
 7061              		.loc 1 2131 0
 7062 328c 1E99     		ldr	r1, [sp, #120]
 7063 328e 0731     		adds	r1, r1, #7
 7064 3290 0978     		ldrb	r1, [r1]	@ zero_extendqisi2
 7065              		.loc 1 2129 0
 7066 3292 8C46     		mov	ip, r1
 7067              		.loc 1 2131 0
 7068 3294 1E99     		ldr	r1, [sp, #120]
 7069 3296 0631     		adds	r1, r1, #6
 7070 3298 0978     		ldrb	r1, [r1]	@ zero_extendqisi2
 7071              		.loc 1 2129 0
 7072 329a 8E46     		mov	lr, r1
 7073              		.loc 1 2131 0
 7074 329c 1E99     		ldr	r1, [sp, #120]
 7075 329e 0531     		adds	r1, r1, #5
 7076 32a0 0978     		ldrb	r1, [r1]	@ zero_extendqisi2
ARM GAS  /tmp/ccNtBBEs.s 			page 129


 7077              		.loc 1 2129 0
 7078 32a2 0F46     		mov	r7, r1
 7079              		.loc 1 2131 0
 7080 32a4 1E99     		ldr	r1, [sp, #120]
 7081 32a6 0431     		adds	r1, r1, #4
 7082 32a8 0978     		ldrb	r1, [r1]	@ zero_extendqisi2
 7083              		.loc 1 2129 0
 7084 32aa 0E46     		mov	r6, r1
 7085              		.loc 1 2132 0
 7086 32ac 1E99     		ldr	r1, [sp, #120]
 7087 32ae 0B31     		adds	r1, r1, #11
 7088 32b0 0978     		ldrb	r1, [r1]	@ zero_extendqisi2
 7089              		.loc 1 2129 0
 7090 32b2 0D46     		mov	r5, r1
 7091              		.loc 1 2132 0
 7092 32b4 1E99     		ldr	r1, [sp, #120]
 7093 32b6 0A31     		adds	r1, r1, #10
 7094 32b8 0978     		ldrb	r1, [r1]	@ zero_extendqisi2
 7095              		.loc 1 2129 0
 7096 32ba 0C46     		mov	r4, r1
 7097              		.loc 1 2132 0
 7098 32bc 1E99     		ldr	r1, [sp, #120]
 7099 32be 0931     		adds	r1, r1, #9
 7100 32c0 0978     		ldrb	r1, [r1]	@ zero_extendqisi2
 7101              		.loc 1 2129 0
 7102 32c2 0846     		mov	r0, r1
 7103              		.loc 1 2132 0
 7104 32c4 1E99     		ldr	r1, [sp, #120]
 7105 32c6 0831     		adds	r1, r1, #8
 7106 32c8 0978     		ldrb	r1, [r1]	@ zero_extendqisi2
 7107              		.loc 1 2129 0
 7108 32ca CDF80090 		str	r9, [sp]
 7109 32ce CDF80480 		str	r8, [sp, #4]
 7110 32d2 CDF808C0 		str	ip, [sp, #8]
 7111 32d6 CDF80CE0 		str	lr, [sp, #12]
 7112 32da 0497     		str	r7, [sp, #16]
 7113 32dc 0596     		str	r6, [sp, #20]
 7114 32de 0695     		str	r5, [sp, #24]
 7115 32e0 0794     		str	r4, [sp, #28]
 7116 32e2 0890     		str	r0, [sp, #32]
 7117 32e4 0991     		str	r1, [sp, #36]
 7118 32e6 1D99     		ldr	r1, [sp, #116]
 7119 32e8 0A91     		str	r1, [sp, #40]
 7120 32ea 7748     		ldr	r0, .L388+8
 7121 32ec 7749     		ldr	r1, .L388+12
 7122 32ee FFF7FEFF 		bl	sprintf
 7123 32f2 0246     		mov	r2, r0
 7124 32f4 764B     		ldr	r3, .L388+16
 7125 32f6 1A60     		str	r2, [r3]
 7126              		.loc 1 2134 0
 7127 32f8 754B     		ldr	r3, .L388+16
 7128 32fa 1B68     		ldr	r3, [r3]
 7129 32fc DBB2     		uxtb	r3, r3
 7130 32fe 7248     		ldr	r0, .L388+8
 7131 3300 1946     		mov	r1, r3
 7132 3302 FFF7FEFF 		bl	Term_Update
 7133              		.loc 1 2135 0
ARM GAS  /tmp/ccNtBBEs.s 			page 130


 7134 3306 0023     		movs	r3, #0
 7135 3308 2393     		str	r3, [sp, #140]
 7136              	.LBE19:
 7137 330a 7DE1     		b	.L352
 7138              	.L344:
 7139              		.loc 1 2136 0
 7140 330c 0D9B     		ldr	r3, [sp, #52]
 7141 330e 1B78     		ldrb	r3, [r3]	@ zero_extendqisi2
 7142 3310 6C2B     		cmp	r3, #108
 7143 3312 14BF     		ite	ne
 7144 3314 0023     		movne	r3, #0
 7145 3316 0123     		moveq	r3, #1
 7146 3318 DAB2     		uxtb	r2, r3
 7147 331a 0D9B     		ldr	r3, [sp, #52]
 7148 331c 0133     		adds	r3, r3, #1
 7149 331e 1B78     		ldrb	r3, [r3]	@ zero_extendqisi2
 7150 3320 692B     		cmp	r3, #105
 7151 3322 14BF     		ite	ne
 7152 3324 0023     		movne	r3, #0
 7153 3326 0123     		moveq	r3, #1
 7154 3328 DBB2     		uxtb	r3, r3
 7155 332a 1340     		ands	r3, r3, r2
 7156 332c DBB2     		uxtb	r3, r3
 7157 332e 1A46     		mov	r2, r3
 7158 3330 0D9B     		ldr	r3, [sp, #52]
 7159 3332 0233     		adds	r3, r3, #2
 7160 3334 1B78     		ldrb	r3, [r3]	@ zero_extendqisi2
 7161 3336 632B     		cmp	r3, #99
 7162 3338 14BF     		ite	ne
 7163 333a 0023     		movne	r3, #0
 7164 333c 0123     		moveq	r3, #1
 7165 333e DBB2     		uxtb	r3, r3
 7166 3340 1340     		ands	r3, r3, r2
 7167 3342 002B     		cmp	r3, #0
 7168 3344 4BD0     		beq	.L345
 7169              	.LBB20:
 7170              		.loc 1 2138 0
 7171 3346 0023     		movs	r3, #0
 7172 3348 2293     		str	r3, [sp, #136]
 7173              		.loc 1 2139 0
 7174 334a 6249     		ldr	r1, .L388+20
 7175 334c 229A     		ldr	r2, [sp, #136]
 7176 334e 1346     		mov	r3, r2
 7177 3350 5B00     		lsls	r3, r3, #1
 7178 3352 1344     		add	r3, r3, r2
 7179 3354 1A01     		lsls	r2, r3, #4
 7180 3356 D21A     		subs	r2, r2, r3
 7181 3358 8B18     		adds	r3, r1, r2
 7182 335a 1B78     		ldrb	r3, [r3]
 7183 335c 8DF88730 		strb	r3, [sp, #135]
 7184              		.loc 1 2140 0
 7185 3360 36E0     		b	.L346
 7186              	.L349:
 7187              		.loc 1 2142 0
 7188 3362 9DF88730 		ldrb	r3, [sp, #135]	@ zero_extendqisi2
 7189 3366 5B01     		lsls	r3, r3, #5
 7190 3368 03F11002 		add	r2, r3, #16
ARM GAS  /tmp/ccNtBBEs.s 			page 131


 7191 336c 5A4B     		ldr	r3, .L388+24
 7192 336e D518     		adds	r5, r2, r3
 7193 3370 9DF88730 		ldrb	r3, [sp, #135]	@ zero_extendqisi2
 7194 3374 5A01     		lsls	r2, r3, #5
 7195 3376 584B     		ldr	r3, .L388+24
 7196 3378 1344     		add	r3, r3, r2
 7197 337a 1C1D     		adds	r4, r3, #4
 7198 337c 9DF88730 		ldrb	r3, [sp, #135]	@ zero_extendqisi2
 7199 3380 1846     		mov	r0, r3
 7200 3382 FFF7FEFF 		bl	MetaDataLicenseStatus
 7201 3386 0346     		mov	r3, r0
 7202 3388 002B     		cmp	r3, #0
 7203 338a 01D0     		beq	.L347
 7204              		.loc 1 2142 0 is_stmt 0 discriminator 1
 7205 338c 534B     		ldr	r3, .L388+28
 7206 338e 00E0     		b	.L348
 7207              	.L347:
 7208              		.loc 1 2142 0 discriminator 2
 7209 3390 534B     		ldr	r3, .L388+32
 7210              	.L348:
 7211              		.loc 1 2142 0 discriminator 3
 7212 3392 0093     		str	r3, [sp]
 7213 3394 4C48     		ldr	r0, .L388+8
 7214 3396 5349     		ldr	r1, .L388+36
 7215 3398 2A46     		mov	r2, r5
 7216 339a 2346     		mov	r3, r4
 7217 339c FFF7FEFF 		bl	sprintf
 7218 33a0 0246     		mov	r2, r0
 7219 33a2 4B4B     		ldr	r3, .L388+16
 7220 33a4 1A60     		str	r2, [r3]
 7221              		.loc 1 2143 0 is_stmt 1 discriminator 3
 7222 33a6 4A4B     		ldr	r3, .L388+16
 7223 33a8 1B68     		ldr	r3, [r3]
 7224 33aa DBB2     		uxtb	r3, r3
 7225 33ac 4648     		ldr	r0, .L388+8
 7226 33ae 1946     		mov	r1, r3
 7227 33b0 FFF7FEFF 		bl	Term_Update
 7228              		.loc 1 2144 0 discriminator 3
 7229 33b4 229B     		ldr	r3, [sp, #136]
 7230 33b6 0133     		adds	r3, r3, #1
 7231 33b8 2293     		str	r3, [sp, #136]
 7232 33ba 4649     		ldr	r1, .L388+20
 7233 33bc 229A     		ldr	r2, [sp, #136]
 7234 33be 1346     		mov	r3, r2
 7235 33c0 5B00     		lsls	r3, r3, #1
 7236 33c2 1344     		add	r3, r3, r2
 7237 33c4 1A01     		lsls	r2, r3, #4
 7238 33c6 D21A     		subs	r2, r2, r3
 7239 33c8 8B18     		adds	r3, r1, r2
 7240 33ca 1B78     		ldrb	r3, [r3]
 7241 33cc 8DF88730 		strb	r3, [sp, #135]
 7242              	.L346:
 7243              		.loc 1 2140 0 discriminator 1
 7244 33d0 9DF88730 		ldrb	r3, [sp, #135]	@ zero_extendqisi2
 7245 33d4 002B     		cmp	r3, #0
 7246 33d6 C4D1     		bne	.L349
 7247              		.loc 1 2146 0
ARM GAS  /tmp/ccNtBBEs.s 			page 132


 7248 33d8 0023     		movs	r3, #0
 7249 33da 2393     		str	r3, [sp, #140]
 7250              	.LBE20:
 7251 33dc 14E1     		b	.L352
 7252              	.L345:
 7253              		.loc 1 2147 0
 7254 33de 0D9B     		ldr	r3, [sp, #52]
 7255 33e0 1B78     		ldrb	r3, [r3]	@ zero_extendqisi2
 7256 33e2 582B     		cmp	r3, #88
 7257 33e4 14BF     		ite	ne
 7258 33e6 0023     		movne	r3, #0
 7259 33e8 0123     		moveq	r3, #1
 7260 33ea DAB2     		uxtb	r2, r3
 7261 33ec 0D9B     		ldr	r3, [sp, #52]
 7262 33ee 0133     		adds	r3, r3, #1
 7263 33f0 1B78     		ldrb	r3, [r3]	@ zero_extendqisi2
 7264 33f2 582B     		cmp	r3, #88
 7265 33f4 14BF     		ite	ne
 7266 33f6 0023     		movne	r3, #0
 7267 33f8 0123     		moveq	r3, #1
 7268 33fa DBB2     		uxtb	r3, r3
 7269 33fc 1340     		ands	r3, r3, r2
 7270 33fe DBB2     		uxtb	r3, r3
 7271 3400 1A46     		mov	r2, r3
 7272 3402 0D9B     		ldr	r3, [sp, #52]
 7273 3404 0233     		adds	r3, r3, #2
 7274 3406 1B78     		ldrb	r3, [r3]	@ zero_extendqisi2
 7275 3408 302B     		cmp	r3, #48
 7276 340a 14BF     		ite	ne
 7277 340c 0023     		movne	r3, #0
 7278 340e 0123     		moveq	r3, #1
 7279 3410 DBB2     		uxtb	r3, r3
 7280 3412 1340     		ands	r3, r3, r2
 7281 3414 002B     		cmp	r3, #0
 7282 3416 41D0     		beq	.L350
 7283              		.loc 1 2148 0
 7284 3418 2B4A     		ldr	r2, .L388+8
 7285 341a 334B     		ldr	r3, .L388+40
 7286 341c 1446     		mov	r4, r2
 7287 341e 1D46     		mov	r5, r3
 7288 3420 0FCD     		ldmia	r5!, {r0, r1, r2, r3}
 7289 3422 2060     		str	r0, [r4]	@ unaligned
 7290 3424 6160     		str	r1, [r4, #4]	@ unaligned
 7291 3426 A260     		str	r2, [r4, #8]	@ unaligned
 7292 3428 E360     		str	r3, [r4, #12]	@ unaligned
 7293 342a 0FCD     		ldmia	r5!, {r0, r1, r2, r3}
 7294 342c 2061     		str	r0, [r4, #16]	@ unaligned
 7295 342e 6161     		str	r1, [r4, #20]	@ unaligned
 7296 3430 A261     		str	r2, [r4, #24]	@ unaligned
 7297 3432 E361     		str	r3, [r4, #28]	@ unaligned
 7298 3434 264B     		ldr	r3, .L388+16
 7299 3436 1F22     		movs	r2, #31
 7300 3438 1A60     		str	r2, [r3]
 7301              		.loc 1 2149 0
 7302 343a 254B     		ldr	r3, .L388+16
 7303 343c 1B68     		ldr	r3, [r3]
 7304 343e DBB2     		uxtb	r3, r3
ARM GAS  /tmp/ccNtBBEs.s 			page 133


 7305 3440 2148     		ldr	r0, .L388+8
 7306 3442 1946     		mov	r1, r3
 7307 3444 FFF7FEFF 		bl	Term_Update
 7308              		.loc 1 2150 0
 7309 3448 1F4B     		ldr	r3, .L388+8
 7310 344a 284A     		ldr	r2, .L388+44
 7311 344c 1446     		mov	r4, r2
 7312 344e 1D46     		mov	r5, r3
 7313 3450 04F1200E 		add	lr, r4, #32
 7314              	.L351:
 7315 3454 2E46     		mov	r6, r5
 7316 3456 2746     		mov	r7, r4
 7317 3458 0FCF     		ldmia	r7!, {r0, r1, r2, r3}
 7318 345a 3060     		str	r0, [r6]	@ unaligned
 7319 345c 7160     		str	r1, [r6, #4]	@ unaligned
 7320 345e B260     		str	r2, [r6, #8]	@ unaligned
 7321 3460 F360     		str	r3, [r6, #12]	@ unaligned
 7322 3462 1034     		adds	r4, r4, #16
 7323 3464 1035     		adds	r5, r5, #16
 7324 3466 7445     		cmp	r4, lr
 7325 3468 F4D1     		bne	.L351
 7326 346a 2B46     		mov	r3, r5
 7327 346c 2246     		mov	r2, r4
 7328 346e 1068     		ldr	r0, [r2]	@ unaligned
 7329 3470 1860     		str	r0, [r3]	@ unaligned
 7330 3472 9288     		ldrh	r2, [r2, #4]	@ unaligned
 7331 3474 9A80     		strh	r2, [r3, #4]	@ unaligned
 7332 3476 164B     		ldr	r3, .L388+16
 7333 3478 2522     		movs	r2, #37
 7334 347a 1A60     		str	r2, [r3]
 7335              		.loc 1 2151 0
 7336 347c 144B     		ldr	r3, .L388+16
 7337 347e 1B68     		ldr	r3, [r3]
 7338 3480 DBB2     		uxtb	r3, r3
 7339 3482 1148     		ldr	r0, .L388+8
 7340 3484 1946     		mov	r1, r3
 7341 3486 FFF7FEFF 		bl	Term_Update
 7342              		.loc 1 2152 0
 7343 348a FFF7FEFF 		bl	EraseMetaDataManager
 7344              		.loc 1 2153 0
 7345 348e 41F28830 		movw	r0, #5000
 7346 3492 FFF7FEFF 		bl	HAL_Delay
 7347              		.loc 1 2154 0
 7348 3496 FFF7FEFF 		bl	HAL_NVIC_SystemReset
 7349 349a B5E0     		b	.L352
 7350              	.L350:
 7351              		.loc 1 2157 0
 7352 349c 9DF83330 		ldrb	r3, [sp, #51]	@ zero_extendqisi2
 7353 34a0 0D98     		ldr	r0, [sp, #52]
 7354 34a2 1946     		mov	r1, r3
 7355 34a4 FFF7FEFF 		bl	MDM_LicenseParsing
 7356 34a8 0246     		mov	r2, r0
 7357 34aa 114B     		ldr	r3, .L388+48
 7358 34ac 1A60     		str	r2, [r3]
 7359              		.loc 1 2158 0
 7360 34ae 104B     		ldr	r3, .L388+48
 7361 34b0 1B68     		ldr	r3, [r3]
ARM GAS  /tmp/ccNtBBEs.s 			page 134


 7362 34b2 002B     		cmp	r3, #0
 7363 34b4 00F0A880 		beq	.L352
 7364              		.loc 1 2159 0
 7365 34b8 0023     		movs	r3, #0
 7366 34ba 2393     		str	r3, [sp, #140]
 7367 34bc A4E0     		b	.L352
 7368              	.L389:
 7369 34be 00BF     		.align	2
 7370              	.L388:
 7371 34c0 9075FF1F 		.word	536835472
 7372 34c4 002004E0 		.word	-536600576
 7373 34c8 00000000 		.word	BufferToWrite
 7374 34cc 14050000 		.word	.LC52
 7375 34d0 00000000 		.word	BytesToWrite
 7376 34d4 00000000 		.word	known_OsxLic
 7377 34d8 00000000 		.word	MDM_LicTable
 7378 34dc 50050000 		.word	.LC53
 7379 34e0 54050000 		.word	.LC54
 7380 34e4 58050000 		.word	.LC55
 7381 34e8 68050000 		.word	.LC56
 7382 34ec A4020000 		.word	.LC31
 7383 34f0 64000000 		.word	osxLicenseStart.18793
 7384              	.L325:
 7385              		.loc 1 2164 0
 7386 34f4 9DF83330 		ldrb	r3, [sp, #51]	@ zero_extendqisi2
 7387 34f8 0D98     		ldr	r0, [sp, #52]
 7388 34fa 1946     		mov	r1, r3
 7389 34fc FFF7FEFF 		bl	MDM_LicenseParsing
 7390 3500 0246     		mov	r2, r0
 7391 3502 BD4B     		ldr	r3, .L390
 7392 3504 1A60     		str	r2, [r3]
 7393              		.loc 1 2165 0
 7394 3506 BC4B     		ldr	r3, .L390
 7395 3508 1B68     		ldr	r3, [r3]
 7396 350a 002B     		cmp	r3, #0
 7397 350c 7ADA     		bge	.L353
 7398              	.LBB21:
 7399              		.loc 1 2166 0
 7400 350e BA4B     		ldr	r3, .L390
 7401 3510 1B68     		ldr	r3, [r3]
 7402 3512 DBB2     		uxtb	r3, r3
 7403 3514 5B42     		negs	r3, r3
 7404 3516 8DF87330 		strb	r3, [sp, #115]
 7405              		.loc 1 2167 0
 7406 351a 9DF87330 		ldrb	r3, [sp, #115]	@ zero_extendqisi2
 7407 351e B74A     		ldr	r2, .L390+4
 7408 3520 5B01     		lsls	r3, r3, #5
 7409 3522 1344     		add	r3, r3, r2
 7410 3524 1833     		adds	r3, r3, #24
 7411 3526 5B68     		ldr	r3, [r3, #4]
 7412 3528 1B93     		str	r3, [sp, #108]
 7413              		.loc 1 2169 0
 7414 352a B34B     		ldr	r3, .L390
 7415 352c 0022     		movs	r2, #0
 7416 352e 1A60     		str	r2, [r3]
 7417              		.loc 1 2170 0
 7418 3530 9DF87330 		ldrb	r3, [sp, #115]	@ zero_extendqisi2
ARM GAS  /tmp/ccNtBBEs.s 			page 135


 7419 3534 013B     		subs	r3, r3, #1
 7420 3536 072B     		cmp	r3, #7
 7421 3538 49D8     		bhi	.L354
 7422 353a 01A2     		adr	r2, .L356
 7423 353c 52F823F0 		ldr	pc, [r2, r3, lsl #2]
 7424              		.p2align 2
 7425              	.L356:
 7426 3540 61350000 		.word	.L355+1
 7427 3544 77350000 		.word	.L357+1
 7428 3548 8D350000 		.word	.L358+1
 7429 354c A3350000 		.word	.L359+1
 7430 3550 CF350000 		.word	.L354+1
 7431 3554 CF350000 		.word	.L354+1
 7432 3558 CF350000 		.word	.L354+1
 7433 355c B9350000 		.word	.L360+1
 7434              		.p2align 1
 7435              	.L355:
 7436              		.loc 1 2174 0
 7437 3560 1B9B     		ldr	r3, [sp, #108]
 7438 3562 2C33     		adds	r3, r3, #44
 7439 3564 A648     		ldr	r0, .L390+8
 7440 3566 1946     		mov	r1, r3
 7441 3568 3022     		movs	r2, #48
 7442 356a FFF7FEFF 		bl	memcpy
 7443              		.loc 1 2175 0
 7444 356e 1B98     		ldr	r0, [sp, #108]
 7445 3570 FFF7FEFF 		bl	MotionFX_License_init
 7446              		.loc 1 2176 0
 7447 3574 2CE0     		b	.L361
 7448              	.L357:
 7449              		.loc 1 2181 0
 7450 3576 1B9B     		ldr	r3, [sp, #108]
 7451 3578 2C33     		adds	r3, r3, #44
 7452 357a A248     		ldr	r0, .L390+12
 7453 357c 1946     		mov	r1, r3
 7454 357e 3022     		movs	r2, #48
 7455 3580 FFF7FEFF 		bl	memcpy
 7456              		.loc 1 2182 0
 7457 3584 1B98     		ldr	r0, [sp, #108]
 7458 3586 FFF7FEFF 		bl	MotionAR_License_init
 7459              		.loc 1 2183 0
 7460 358a 21E0     		b	.L361
 7461              	.L358:
 7462              		.loc 1 2188 0
 7463 358c 1B9B     		ldr	r3, [sp, #108]
 7464 358e 2C33     		adds	r3, r3, #44
 7465 3590 9D48     		ldr	r0, .L390+16
 7466 3592 1946     		mov	r1, r3
 7467 3594 3022     		movs	r2, #48
 7468 3596 FFF7FEFF 		bl	memcpy
 7469              		.loc 1 2189 0
 7470 359a 1B98     		ldr	r0, [sp, #108]
 7471 359c FFF7FEFF 		bl	MotionCP_License_init
 7472              		.loc 1 2190 0
 7473 35a0 16E0     		b	.L361
 7474              	.L359:
 7475              		.loc 1 2195 0
ARM GAS  /tmp/ccNtBBEs.s 			page 136


 7476 35a2 1B9B     		ldr	r3, [sp, #108]
 7477 35a4 2C33     		adds	r3, r3, #44
 7478 35a6 9948     		ldr	r0, .L390+20
 7479 35a8 1946     		mov	r1, r3
 7480 35aa 3022     		movs	r2, #48
 7481 35ac FFF7FEFF 		bl	memcpy
 7482              		.loc 1 2196 0
 7483 35b0 1B98     		ldr	r0, [sp, #108]
 7484 35b2 FFF7FEFF 		bl	MotionGR_License_init
 7485              		.loc 1 2197 0
 7486 35b6 0BE0     		b	.L361
 7487              	.L360:
 7488              		.loc 1 2209 0
 7489 35b8 1B9B     		ldr	r3, [sp, #108]
 7490 35ba 2C33     		adds	r3, r3, #44
 7491 35bc 9448     		ldr	r0, .L390+24
 7492 35be 1946     		mov	r1, r3
 7493 35c0 3022     		movs	r2, #48
 7494 35c2 FFF7FEFF 		bl	memcpy
 7495              		.loc 1 2210 0
 7496 35c6 1B98     		ldr	r0, [sp, #108]
 7497 35c8 FFF7FEFF 		bl	AudioBV_License_init
 7498              		.loc 1 2211 0
 7499 35cc 00E0     		b	.L361
 7500              	.L354:
 7501              		.loc 1 2217 0 discriminator 1
 7502 35ce FEE7     		b	.L354
 7503              	.L361:
 7504              		.loc 1 2219 0
 7505 35d0 904A     		ldr	r2, .L390+28
 7506 35d2 914B     		ldr	r3, .L390+32
 7507 35d4 1546     		mov	r5, r2
 7508 35d6 1C46     		mov	r4, r3
 7509 35d8 0FCC     		ldmia	r4!, {r0, r1, r2, r3}
 7510 35da 2860     		str	r0, [r5]	@ unaligned
 7511 35dc 6960     		str	r1, [r5, #4]	@ unaligned
 7512 35de AA60     		str	r2, [r5, #8]	@ unaligned
 7513 35e0 EB60     		str	r3, [r5, #12]	@ unaligned
 7514 35e2 03CC     		ldmia	r4!, {r0, r1}
 7515 35e4 2861     		str	r0, [r5, #16]	@ unaligned
 7516 35e6 6961     		str	r1, [r5, #20]	@ unaligned
 7517 35e8 2288     		ldrh	r2, [r4]	@ unaligned
 7518 35ea A378     		ldrb	r3, [r4, #2]
 7519 35ec 2A83     		strh	r2, [r5, #24]	@ unaligned
 7520 35ee AB76     		strb	r3, [r5, #26]
 7521 35f0 8A4B     		ldr	r3, .L390+36
 7522 35f2 1A22     		movs	r2, #26
 7523 35f4 1A60     		str	r2, [r3]
 7524              		.loc 1 2220 0
 7525 35f6 894B     		ldr	r3, .L390+36
 7526 35f8 1B68     		ldr	r3, [r3]
 7527 35fa DBB2     		uxtb	r3, r3
 7528 35fc 8548     		ldr	r0, .L390+28
 7529 35fe 1946     		mov	r1, r3
 7530 3600 FFF7FEFF 		bl	Term_Update
 7531              	.L353:
 7532              	.LBE21:
ARM GAS  /tmp/ccNtBBEs.s 			page 137


 7533              		.loc 1 2222 0
 7534 3604 0023     		movs	r3, #0
 7535 3606 2393     		str	r3, [sp, #140]
 7536              	.L352:
 7537              		.loc 1 2228 0
 7538 3608 239B     		ldr	r3, [sp, #140]
 7539 360a 002B     		cmp	r3, #0
 7540 360c 00F0EE80 		beq	.L362
 7541              		.loc 1 2229 0
 7542 3610 0D9B     		ldr	r3, [sp, #52]
 7543 3612 1B78     		ldrb	r3, [r3]	@ zero_extendqisi2
 7544 3614 402B     		cmp	r3, #64
 7545 3616 40F0E980 		bne	.L362
 7546              		.loc 1 2231 0
 7547 361a 0D9B     		ldr	r3, [sp, #52]
 7548 361c 0133     		adds	r3, r3, #1
 7549 361e 1B78     		ldrb	r3, [r3]	@ zero_extendqisi2
 7550 3620 542B     		cmp	r3, #84
 7551 3622 48D1     		bne	.L363
 7552              	.LBB22:
 7553              		.loc 1 2233 0
 7554 3624 0623     		movs	r3, #6
 7555 3626 8DF86B30 		strb	r3, [sp, #107]
 7556              		.loc 1 2235 0
 7557 362a 0023     		movs	r3, #0
 7558 362c 8DF84830 		strb	r3, [sp, #72]
 7559              		.loc 1 2236 0
 7560 3630 0423     		movs	r3, #4
 7561 3632 8DF84930 		strb	r3, [sp, #73]
 7562              		.loc 1 2237 0
 7563 3636 0023     		movs	r3, #0
 7564 3638 8DF84A30 		strb	r3, [sp, #74]
 7565              		.loc 1 2238 0
 7566 363c 0023     		movs	r3, #0
 7567 363e 8DF84B30 		strb	r3, [sp, #75]
 7568              		.loc 1 2239 0
 7569 3642 FF23     		movs	r3, #255
 7570 3644 8DF84C30 		strb	r3, [sp, #76]
 7571              		.loc 1 2241 0
 7572 3648 0D9B     		ldr	r3, [sp, #52]
 7573 364a 0233     		adds	r3, r3, #2
 7574 364c 1B78     		ldrb	r3, [r3]	@ zero_extendqisi2
 7575 364e 443B     		subs	r3, r3, #68
 7576 3650 092B     		cmp	r3, #9
 7577 3652 27D8     		bhi	.L364
 7578 3654 01A2     		adr	r2, .L366
 7579 3656 52F823F0 		ldr	pc, [r2, r3, lsl #2]
 7580 365a 00BF     		.p2align 2
 7581              	.L366:
 7582 365c 9D360000 		.word	.L365+1
 7583 3660 A5360000 		.word	.L364+1
 7584 3664 A5360000 		.word	.L364+1
 7585 3668 A5360000 		.word	.L364+1
 7586 366c 95360000 		.word	.L367+1
 7587 3670 A5360000 		.word	.L364+1
 7588 3674 A5360000 		.word	.L364+1
 7589 3678 A5360000 		.word	.L364+1
ARM GAS  /tmp/ccNtBBEs.s 			page 138


 7590 367c 85360000 		.word	.L368+1
 7591 3680 8D360000 		.word	.L369+1
 7592              		.p2align 1
 7593              	.L368:
 7594              		.loc 1 2243 0
 7595 3684 3223     		movs	r3, #50
 7596 3686 8DF84D30 		strb	r3, [sp, #77]
 7597              		.loc 1 2244 0
 7598 368a 0BE0     		b	.L364
 7599              	.L369:
 7600              		.loc 1 2246 0
 7601 368c 0A23     		movs	r3, #10
 7602 368e 8DF84D30 		strb	r3, [sp, #77]
 7603              		.loc 1 2247 0
 7604 3692 07E0     		b	.L364
 7605              	.L367:
 7606              		.loc 1 2249 0
 7607 3694 0123     		movs	r3, #1
 7608 3696 8DF84D30 		strb	r3, [sp, #77]
 7609              		.loc 1 2250 0
 7610 369a 03E0     		b	.L364
 7611              	.L365:
 7612              		.loc 1 2252 0
 7613 369c 0023     		movs	r3, #0
 7614 369e 8DF84D30 		strb	r3, [sp, #77]
 7615              		.loc 1 2253 0
 7616 36a2 00BF     		nop
 7617              	.L364:
 7618              		.loc 1 2255 0
 7619 36a4 12AA     		add	r2, sp, #72
 7620 36a6 9DF86B30 		ldrb	r3, [sp, #107]	@ zero_extendqisi2
 7621 36aa 1046     		mov	r0, r2
 7622 36ac 1946     		mov	r1, r3
 7623 36ae 00F0B7F8 		bl	ConfigCommandParsing
 7624 36b2 2390     		str	r0, [sp, #140]
 7625              	.LBE22:
 7626 36b4 9AE0     		b	.L362
 7627              	.L363:
 7628              		.loc 1 2256 0
 7629 36b6 0D9B     		ldr	r3, [sp, #52]
 7630 36b8 0133     		adds	r3, r3, #1
 7631 36ba 1B78     		ldrb	r3, [r3]	@ zero_extendqisi2
 7632 36bc 412B     		cmp	r3, #65
 7633 36be 48D1     		bne	.L370
 7634              	.LBB23:
 7635              		.loc 1 2258 0
 7636 36c0 0623     		movs	r3, #6
 7637 36c2 8DF86A30 		strb	r3, [sp, #106]
 7638              		.loc 1 2260 0
 7639 36c6 0023     		movs	r3, #0
 7640 36c8 8DF84030 		strb	r3, [sp, #64]
 7641              		.loc 1 2261 0
 7642 36cc 8023     		movs	r3, #128
 7643 36ce 8DF84130 		strb	r3, [sp, #65]
 7644              		.loc 1 2262 0
 7645 36d2 0023     		movs	r3, #0
 7646 36d4 8DF84230 		strb	r3, [sp, #66]
ARM GAS  /tmp/ccNtBBEs.s 			page 139


 7647              		.loc 1 2263 0
 7648 36d8 0023     		movs	r3, #0
 7649 36da 8DF84330 		strb	r3, [sp, #67]
 7650              		.loc 1 2264 0
 7651 36de FF23     		movs	r3, #255
 7652 36e0 8DF84430 		strb	r3, [sp, #68]
 7653              		.loc 1 2266 0
 7654 36e4 0D9B     		ldr	r3, [sp, #52]
 7655 36e6 0233     		adds	r3, r3, #2
 7656 36e8 1B78     		ldrb	r3, [r3]	@ zero_extendqisi2
 7657 36ea 443B     		subs	r3, r3, #68
 7658 36ec 092B     		cmp	r3, #9
 7659 36ee 27D8     		bhi	.L371
 7660 36f0 01A2     		adr	r2, .L373
 7661 36f2 52F823F0 		ldr	pc, [r2, r3, lsl #2]
 7662 36f6 00BF     		.p2align 2
 7663              	.L373:
 7664 36f8 39370000 		.word	.L372+1
 7665 36fc 41370000 		.word	.L371+1
 7666 3700 41370000 		.word	.L371+1
 7667 3704 41370000 		.word	.L371+1
 7668 3708 31370000 		.word	.L374+1
 7669 370c 41370000 		.word	.L371+1
 7670 3710 41370000 		.word	.L371+1
 7671 3714 41370000 		.word	.L371+1
 7672 3718 21370000 		.word	.L375+1
 7673 371c 29370000 		.word	.L376+1
 7674              		.p2align 1
 7675              	.L375:
 7676              		.loc 1 2268 0
 7677 3720 3223     		movs	r3, #50
 7678 3722 8DF84530 		strb	r3, [sp, #69]
 7679              		.loc 1 2269 0
 7680 3726 0BE0     		b	.L371
 7681              	.L376:
 7682              		.loc 1 2271 0
 7683 3728 0A23     		movs	r3, #10
 7684 372a 8DF84530 		strb	r3, [sp, #69]
 7685              		.loc 1 2272 0
 7686 372e 07E0     		b	.L371
 7687              	.L374:
 7688              		.loc 1 2274 0
 7689 3730 0123     		movs	r3, #1
 7690 3732 8DF84530 		strb	r3, [sp, #69]
 7691              		.loc 1 2275 0
 7692 3736 03E0     		b	.L371
 7693              	.L372:
 7694              		.loc 1 2277 0
 7695 3738 0023     		movs	r3, #0
 7696 373a 8DF84530 		strb	r3, [sp, #69]
 7697              		.loc 1 2278 0
 7698 373e 00BF     		nop
 7699              	.L371:
 7700              		.loc 1 2280 0
 7701 3740 10AA     		add	r2, sp, #64
 7702 3742 9DF86A30 		ldrb	r3, [sp, #106]	@ zero_extendqisi2
 7703 3746 1046     		mov	r0, r2
ARM GAS  /tmp/ccNtBBEs.s 			page 140


 7704 3748 1946     		mov	r1, r3
 7705 374a 00F069F8 		bl	ConfigCommandParsing
 7706 374e 2390     		str	r0, [sp, #140]
 7707              	.LBE23:
 7708 3750 4CE0     		b	.L362
 7709              	.L370:
 7710              		.loc 1 2281 0
 7711 3752 0D9B     		ldr	r3, [sp, #52]
 7712 3754 0133     		adds	r3, r3, #1
 7713 3756 1B78     		ldrb	r3, [r3]	@ zero_extendqisi2
 7714 3758 4D2B     		cmp	r3, #77
 7715 375a 47D1     		bne	.L362
 7716              	.LBB24:
 7717              		.loc 1 2283 0
 7718 375c 0623     		movs	r3, #6
 7719 375e 8DF86930 		strb	r3, [sp, #105]
 7720              		.loc 1 2285 0
 7721 3762 0423     		movs	r3, #4
 7722 3764 8DF83830 		strb	r3, [sp, #56]
 7723              		.loc 1 2286 0
 7724 3768 0023     		movs	r3, #0
 7725 376a 8DF83930 		strb	r3, [sp, #57]
 7726              		.loc 1 2287 0
 7727 376e 0023     		movs	r3, #0
 7728 3770 8DF83A30 		strb	r3, [sp, #58]
 7729              		.loc 1 2288 0
 7730 3774 0023     		movs	r3, #0
 7731 3776 8DF83B30 		strb	r3, [sp, #59]
 7732              		.loc 1 2289 0
 7733 377a FF23     		movs	r3, #255
 7734 377c 8DF83C30 		strb	r3, [sp, #60]
 7735              		.loc 1 2291 0
 7736 3780 0D9B     		ldr	r3, [sp, #52]
 7737 3782 0233     		adds	r3, r3, #2
 7738 3784 1B78     		ldrb	r3, [r3]	@ zero_extendqisi2
 7739 3786 443B     		subs	r3, r3, #68
 7740 3788 092B     		cmp	r3, #9
 7741 378a 27D8     		bhi	.L377
 7742 378c 01A2     		adr	r2, .L379
 7743 378e 52F823F0 		ldr	pc, [r2, r3, lsl #2]
 7744 3792 00BF     		.p2align 2
 7745              	.L379:
 7746 3794 D5370000 		.word	.L378+1
 7747 3798 DD370000 		.word	.L377+1
 7748 379c DD370000 		.word	.L377+1
 7749 37a0 DD370000 		.word	.L377+1
 7750 37a4 CD370000 		.word	.L380+1
 7751 37a8 DD370000 		.word	.L377+1
 7752 37ac DD370000 		.word	.L377+1
 7753 37b0 DD370000 		.word	.L377+1
 7754 37b4 BD370000 		.word	.L381+1
 7755 37b8 C5370000 		.word	.L382+1
 7756              		.p2align 1
 7757              	.L381:
 7758              		.loc 1 2293 0
 7759 37bc 3223     		movs	r3, #50
 7760 37be 8DF83D30 		strb	r3, [sp, #61]
ARM GAS  /tmp/ccNtBBEs.s 			page 141


 7761              		.loc 1 2294 0
 7762 37c2 0BE0     		b	.L377
 7763              	.L382:
 7764              		.loc 1 2296 0
 7765 37c4 0A23     		movs	r3, #10
 7766 37c6 8DF83D30 		strb	r3, [sp, #61]
 7767              		.loc 1 2297 0
 7768 37ca 07E0     		b	.L377
 7769              	.L380:
 7770              		.loc 1 2299 0
 7771 37cc 0123     		movs	r3, #1
 7772 37ce 8DF83D30 		strb	r3, [sp, #61]
 7773              		.loc 1 2300 0
 7774 37d2 03E0     		b	.L377
 7775              	.L378:
 7776              		.loc 1 2302 0
 7777 37d4 0023     		movs	r3, #0
 7778 37d6 8DF83D30 		strb	r3, [sp, #61]
 7779              		.loc 1 2303 0
 7780 37da 00BF     		nop
 7781              	.L377:
 7782              		.loc 1 2305 0
 7783 37dc 0EAA     		add	r2, sp, #56
 7784 37de 9DF86930 		ldrb	r3, [sp, #105]	@ zero_extendqisi2
 7785 37e2 1046     		mov	r0, r2
 7786 37e4 1946     		mov	r1, r3
 7787 37e6 00F01BF8 		bl	ConfigCommandParsing
 7788 37ea 2390     		str	r0, [sp, #140]
 7789              	.L362:
 7790              	.LBE24:
 7791              		.loc 1 2311 0
 7792 37ec 239B     		ldr	r3, [sp, #140]
 7793              		.loc 1 2312 0
 7794 37ee 1846     		mov	r0, r3
 7795 37f0 25B0     		add	sp, sp, #148
 7796              		@ sp needed
 7797 37f2 BDE8F083 		pop	{r4, r5, r6, r7, r8, r9, pc}
 7798              	.L391:
 7799 37f6 00BF     		.align	2
 7800              	.L390:
 7801 37f8 64000000 		.word	osxLicenseStart.18793
 7802 37fc 00000000 		.word	MDM_LicTable
 7803 3800 00000000 		.word	osx_mfx_license
 7804 3804 00000000 		.word	osx_mar_license
 7805 3808 00000000 		.word	osx_mcp_license
 7806 380c 00000000 		.word	osx_mgr_license
 7807 3810 00000000 		.word	osx_bv_license
 7808 3814 00000000 		.word	BufferToWrite
 7809 3818 88050000 		.word	.LC57
 7810 381c 00000000 		.word	BytesToWrite
 7811              		.cfi_endproc
 7812              	.LFE293:
 7813              		.size	DebugConsoleCommandParsing, .-DebugConsoleCommandParsing
 7814              		.section	.rodata
 7815 05a3 00       		.align	2
 7816              	.LC58:
 7817 05a4 43616C69 		.ascii	"Calibration STATUS Signal For Features=%lx\012\015\000"
ARM GAS  /tmp/ccNtBBEs.s 			page 142


 7817      62726174 
 7817      696F6E20 
 7817      53544154 
 7817      55532053 
 7818 05d1 000000   		.align	2
 7819              	.LC59:
 7820 05d4 43616C69 		.ascii	"Calibration RESET Signal For Feature=%lx\012\015\000"
 7820      62726174 
 7820      696F6E20 
 7820      52455345 
 7820      54205369 
 7821 05ff 00       		.align	2
 7822              	.LC60:
 7823 0600 43616C69 		.ascii	"Calibration STOP Signal For Feature=%lx\012\015\000"
 7823      62726174 
 7823      696F6E20 
 7823      53544F50 
 7823      20536967 
 7824 062a 0000     		.align	2
 7825              	.LC61:
 7826 062c 43616C69 		.ascii	"Calibration UNKNOW Signal For Feature=%lx\012\015\000"
 7826      62726174 
 7826      696F6E20 
 7826      554E4B4E 
 7826      4F572053 
 7827              		.align	2
 7828              	.LC62:
 7829 0658 436F6E66 		.ascii	"Conf Sig F=%lx C=%c D=%x\012\015\000"
 7829      20536967 
 7829      20463D25 
 7829      6C782043 
 7829      3D256320 
 7830 0673 00       		.align	2
 7831              	.LC63:
 7832 0674 436F6E66 		.ascii	"Conf Sig F=%lx C=%2x Data=%2x\012\015\000"
 7832      20536967 
 7832      20463D25 
 7832      6C782043 
 7832      3D253278 
 7833              		.text
 7834              		.align	2
 7835              		.p2align 4,,15
 7836              		.thumb
 7837              		.thumb_func
 7838              		.type	ConfigCommandParsing, %function
 7839              	ConfigCommandParsing:
 7840              	.LFB294:
 7841              		.loc 1 2321 0
 7842              		.cfi_startproc
 7843              		@ args = 0, pretend = 0, frame = 24
 7844              		@ frame_needed = 0, uses_anonymous_args = 0
 7845 3820 00B5     		push	{lr}
 7846              		.cfi_def_cfa_offset 4
 7847              		.cfi_offset 14, -4
 7848 3822 89B0     		sub	sp, sp, #36
 7849              		.cfi_def_cfa_offset 40
 7850 3824 0390     		str	r0, [sp, #12]
ARM GAS  /tmp/ccNtBBEs.s 			page 143


 7851 3826 0B46     		mov	r3, r1
 7852 3828 8DF80B30 		strb	r3, [sp, #11]
 7853              		.loc 1 2322 0
 7854 382c 039B     		ldr	r3, [sp, #12]
 7855 382e 0333     		adds	r3, r3, #3
 7856 3830 1B78     		ldrb	r3, [r3]	@ zero_extendqisi2
 7857 3832 1A46     		mov	r2, r3
 7858 3834 039B     		ldr	r3, [sp, #12]
 7859 3836 0233     		adds	r3, r3, #2
 7860 3838 1B78     		ldrb	r3, [r3]	@ zero_extendqisi2
 7861 383a 1B02     		lsls	r3, r3, #8
 7862 383c 1A43     		orrs	r2, r2, r3
 7863 383e 039B     		ldr	r3, [sp, #12]
 7864 3840 0133     		adds	r3, r3, #1
 7865 3842 1B78     		ldrb	r3, [r3]	@ zero_extendqisi2
 7866 3844 1B04     		lsls	r3, r3, #16
 7867 3846 1A43     		orrs	r2, r2, r3
 7868 3848 039B     		ldr	r3, [sp, #12]
 7869 384a 1B78     		ldrb	r3, [r3]	@ zero_extendqisi2
 7870 384c 1B06     		lsls	r3, r3, #24
 7871 384e 1343     		orrs	r3, r3, r2
 7872 3850 0693     		str	r3, [sp, #24]
 7873              		.loc 1 2323 0
 7874 3852 039B     		ldr	r3, [sp, #12]
 7875 3854 1B79     		ldrb	r3, [r3, #4]
 7876 3856 8DF81730 		strb	r3, [sp, #23]
 7877              		.loc 1 2324 0
 7878 385a 039B     		ldr	r3, [sp, #12]
 7879 385c 5B79     		ldrb	r3, [r3, #5]
 7880 385e 8DF81630 		strb	r3, [sp, #22]
 7881              		.loc 1 2325 0
 7882 3862 0123     		movs	r3, #1
 7883 3864 0793     		str	r3, [sp, #28]
 7884              		.loc 1 2327 0
 7885 3866 069B     		ldr	r3, [sp, #24]
 7886 3868 B3F5002F 		cmp	r3, #524288
 7887 386c 00F0F181 		beq	.L394
 7888 3870 B3F5002F 		cmp	r3, #524288
 7889 3874 13D8     		bhi	.L395
 7890 3876 B3F5806F 		cmp	r3, #1024
 7891 387a 00F09B80 		beq	.L396
 7892 387e B3F5806F 		cmp	r3, #1024
 7893 3882 03D8     		bhi	.L397
 7894 3884 B3F5807F 		cmp	r3, #256
 7895 3888 22D0     		beq	.L398
 7896 388a B8E2     		b	.L393
 7897              	.L397:
 7898 388c B3F5803F 		cmp	r3, #65536
 7899 3890 00F0DF81 		beq	.L394
 7900 3894 B3F5802F 		cmp	r3, #262144
 7901 3898 00F0DB81 		beq	.L394
 7902 389c AFE2     		b	.L393
 7903              	.L395:
 7904 389e B3F5800F 		cmp	r3, #4194304
 7905 38a2 00F02582 		beq	.L399
 7906 38a6 B3F5800F 		cmp	r3, #4194304
 7907 38aa 08D8     		bhi	.L400
ARM GAS  /tmp/ccNtBBEs.s 			page 144


 7908 38ac B3F5801F 		cmp	r3, #1048576
 7909 38b0 00F0CF81 		beq	.L394
 7910 38b4 B3F5001F 		cmp	r3, #2097152
 7911 38b8 00F01A82 		beq	.L399
 7912 38bc 9FE2     		b	.L393
 7913              	.L400:
 7914 38be B3F5000F 		cmp	r3, #8388608
 7915 38c2 00F01582 		beq	.L399
 7916 38c6 B3F1806F 		cmp	r3, #67108864
 7917 38ca 00F04682 		beq	.L401
 7918 38ce 96E2     		b	.L393
 7919              	.L398:
 7920              		.loc 1 2330 0
 7921 38d0 9DF81730 		ldrb	r3, [sp, #23]	@ zero_extendqisi2
 7922 38d4 012B     		cmp	r3, #1
 7923 38d6 41D0     		beq	.L403
 7924 38d8 FF2B     		cmp	r3, #255
 7925 38da 02D0     		beq	.L404
 7926 38dc 002B     		cmp	r3, #0
 7927 38de 24D0     		beq	.L405
 7928 38e0 52E0     		b	.L459
 7929              	.L404:
 7930              		.loc 1 2333 0
 7931 38e2 BA4B     		ldr	r3, .L462
 7932 38e4 1B68     		ldr	r3, [r3]
 7933 38e6 03F48063 		and	r3, r3, #1024
 7934 38ea 002B     		cmp	r3, #0
 7935 38ec 0ED0     		beq	.L406
 7936              		.loc 1 2334 0
 7937 38ee B848     		ldr	r0, .L462+4
 7938 38f0 B849     		ldr	r1, .L462+8
 7939 38f2 069A     		ldr	r2, [sp, #24]
 7940 38f4 FFF7FEFF 		bl	sprintf
 7941 38f8 0246     		mov	r2, r0
 7942 38fa B74B     		ldr	r3, .L462+12
 7943 38fc 1A60     		str	r2, [r3]
 7944              		.loc 1 2335 0
 7945 38fe B64B     		ldr	r3, .L462+12
 7946 3900 1B68     		ldr	r3, [r3]
 7947 3902 DBB2     		uxtb	r3, r3
 7948 3904 B248     		ldr	r0, .L462+4
 7949 3906 1946     		mov	r1, r3
 7950 3908 FFF7FEFF 		bl	Term_Update
 7951              	.L406:
 7952              	.LBB25:
 7953              		.loc 1 2345 0
 7954 390c 9DF81530 		ldrb	r3, [sp, #21]	@ zero_extendqisi2
 7955 3910 002B     		cmp	r3, #0
 7956 3912 01D0     		beq	.L407
 7957              		.loc 1 2345 0 is_stmt 0 discriminator 1
 7958 3914 6423     		movs	r3, #100
 7959 3916 00E0     		b	.L408
 7960              	.L407:
 7961              		.loc 1 2345 0 discriminator 2
 7962 3918 0023     		movs	r3, #0
 7963              	.L408:
 7964              		.loc 1 2345 0 discriminator 3
ARM GAS  /tmp/ccNtBBEs.s 			page 145


 7965 391a 9DF81720 		ldrb	r2, [sp, #23]	@ zero_extendqisi2
 7966 391e 0698     		ldr	r0, [sp, #24]
 7967 3920 1146     		mov	r1, r2
 7968 3922 1A46     		mov	r2, r3
 7969 3924 FFF7FEFF 		bl	Config_Notify
 7970              	.LBE25:
 7971              		.loc 1 2347 0 is_stmt 1 discriminator 3
 7972 3928 43E0     		b	.L409
 7973              	.L405:
 7974              		.loc 1 2350 0
 7975 392a A84B     		ldr	r3, .L462
 7976 392c 1B68     		ldr	r3, [r3]
 7977 392e 03F48063 		and	r3, r3, #1024
 7978 3932 002B     		cmp	r3, #0
 7979 3934 0ED0     		beq	.L410
 7980              		.loc 1 2351 0
 7981 3936 A648     		ldr	r0, .L462+4
 7982 3938 A849     		ldr	r1, .L462+16
 7983 393a 069A     		ldr	r2, [sp, #24]
 7984 393c FFF7FEFF 		bl	sprintf
 7985 3940 0246     		mov	r2, r0
 7986 3942 A54B     		ldr	r3, .L462+12
 7987 3944 1A60     		str	r2, [r3]
 7988              		.loc 1 2352 0
 7989 3946 A44B     		ldr	r3, .L462+12
 7990 3948 1B68     		ldr	r3, [r3]
 7991 394a DBB2     		uxtb	r3, r3
 7992 394c A048     		ldr	r0, .L462+4
 7993 394e 1946     		mov	r1, r3
 7994 3950 FFF7FEFF 		bl	Term_Update
 7995              	.L410:
 7996              		.loc 1 2358 0
 7997 3954 A24B     		ldr	r3, .L462+20
 7998 3956 0122     		movs	r2, #1
 7999 3958 1A60     		str	r2, [r3]
 8000              		.loc 1 2359 0
 8001 395a 2AE0     		b	.L409
 8002              	.L403:
 8003              		.loc 1 2362 0
 8004 395c 9B4B     		ldr	r3, .L462
 8005 395e 1B68     		ldr	r3, [r3]
 8006 3960 03F48063 		and	r3, r3, #1024
 8007 3964 002B     		cmp	r3, #0
 8008 3966 0ED0     		beq	.L411
 8009              		.loc 1 2363 0
 8010 3968 9948     		ldr	r0, .L462+4
 8011 396a 9E49     		ldr	r1, .L462+24
 8012 396c 069A     		ldr	r2, [sp, #24]
 8013 396e FFF7FEFF 		bl	sprintf
 8014 3972 0246     		mov	r2, r0
 8015 3974 984B     		ldr	r3, .L462+12
 8016 3976 1A60     		str	r2, [r3]
 8017              		.loc 1 2364 0
 8018 3978 974B     		ldr	r3, .L462+12
 8019 397a 1B68     		ldr	r3, [r3]
 8020 397c DBB2     		uxtb	r3, r3
 8021 397e 9448     		ldr	r0, .L462+4
ARM GAS  /tmp/ccNtBBEs.s 			page 146


 8022 3980 1946     		mov	r1, r3
 8023 3982 FFF7FEFF 		bl	Term_Update
 8024              	.L411:
 8025              		.loc 1 2370 0
 8026 3986 14E0     		b	.L409
 8027              	.L459:
 8028              		.loc 1 2372 0
 8029 3988 904B     		ldr	r3, .L462
 8030 398a 1B68     		ldr	r3, [r3]
 8031 398c 03F40063 		and	r3, r3, #2048
 8032 3990 002B     		cmp	r3, #0
 8033 3992 0ED0     		beq	.L409
 8034              		.loc 1 2373 0
 8035 3994 8E48     		ldr	r0, .L462+4
 8036 3996 9449     		ldr	r1, .L462+28
 8037 3998 069A     		ldr	r2, [sp, #24]
 8038 399a FFF7FEFF 		bl	sprintf
 8039 399e 0246     		mov	r2, r0
 8040 39a0 8D4B     		ldr	r3, .L462+12
 8041 39a2 1A60     		str	r2, [r3]
 8042              		.loc 1 2374 0
 8043 39a4 8C4B     		ldr	r3, .L462+12
 8044 39a6 1B68     		ldr	r3, [r3]
 8045 39a8 DBB2     		uxtb	r3, r3
 8046 39aa 8948     		ldr	r0, .L462+4
 8047 39ac 1946     		mov	r1, r3
 8048 39ae FFF7FEFF 		bl	Stderr_Update
 8049              	.L409:
 8050              		.loc 1 2379 0
 8051 39b2 24E2     		b	.L393
 8052              	.L396:
 8053              		.loc 1 2383 0
 8054 39b4 854B     		ldr	r3, .L462
 8055 39b6 1B68     		ldr	r3, [r3]
 8056 39b8 03F48063 		and	r3, r3, #1024
 8057 39bc 002B     		cmp	r3, #0
 8058 39be 13D0     		beq	.L412
 8059              		.loc 1 2384 0
 8060 39c0 9DF81730 		ldrb	r3, [sp, #23]	@ zero_extendqisi2
 8061 39c4 9DF81620 		ldrb	r2, [sp, #22]	@ zero_extendqisi2
 8062 39c8 0092     		str	r2, [sp]
 8063 39ca 8148     		ldr	r0, .L462+4
 8064 39cc 8749     		ldr	r1, .L462+32
 8065 39ce 069A     		ldr	r2, [sp, #24]
 8066 39d0 FFF7FEFF 		bl	sprintf
 8067 39d4 0246     		mov	r2, r0
 8068 39d6 804B     		ldr	r3, .L462+12
 8069 39d8 1A60     		str	r2, [r3]
 8070              		.loc 1 2385 0
 8071 39da 7F4B     		ldr	r3, .L462+12
 8072 39dc 1B68     		ldr	r3, [r3]
 8073 39de DBB2     		uxtb	r3, r3
 8074 39e0 7B48     		ldr	r0, .L462+4
 8075 39e2 1946     		mov	r1, r3
 8076 39e4 FFF7FEFF 		bl	Term_Update
 8077              	.L412:
 8078              		.loc 1 2390 0
ARM GAS  /tmp/ccNtBBEs.s 			page 147


 8079 39e8 9DF81730 		ldrb	r3, [sp, #23]	@ zero_extendqisi2
 8080 39ec 643B     		subs	r3, r3, #100
 8081 39ee 132B     		cmp	r3, #19
 8082 39f0 00F20482 		bhi	.L460
 8083 39f4 01A2     		adr	r2, .L415
 8084 39f6 52F823F0 		ldr	pc, [r2, r3, lsl #2]
 8085 39fa 00BF     		.p2align 2
 8086              	.L415:
 8087 39fc 913A0000 		.word	.L414+1
 8088 3a00 FD3D0000 		.word	.L460+1
 8089 3a04 4D3A0000 		.word	.L416+1
 8090 3a08 FD3D0000 		.word	.L460+1
 8091 3a0c FD3D0000 		.word	.L460+1
 8092 3a10 FD3D0000 		.word	.L460+1
 8093 3a14 FD3D0000 		.word	.L460+1
 8094 3a18 FD3D0000 		.word	.L460+1
 8095 3a1c FD3D0000 		.word	.L460+1
 8096 3a20 FD3D0000 		.word	.L460+1
 8097 3a24 FD3D0000 		.word	.L460+1
 8098 3a28 0D3C0000 		.word	.L417+1
 8099 3a2c 193B0000 		.word	.L418+1
 8100 3a30 FD3D0000 		.word	.L460+1
 8101 3a34 FD3D0000 		.word	.L460+1
 8102 3a38 D53A0000 		.word	.L419+1
 8103 3a3c A53B0000 		.word	.L420+1
 8104 3a40 FD3D0000 		.word	.L460+1
 8105 3a44 FD3D0000 		.word	.L460+1
 8106 3a48 613B0000 		.word	.L421+1
 8107              		.p2align 1
 8108              	.L416:
 8109              		.loc 1 2393 0
 8110 3a4c 9DF81630 		ldrb	r3, [sp, #22]	@ zero_extendqisi2
 8111 3a50 002B     		cmp	r3, #0
 8112 3a52 0FD0     		beq	.L423
 8113 3a54 012B     		cmp	r3, #1
 8114 3a56 00D0     		beq	.L424
 8115              		.loc 1 2403 0
 8116 3a58 FAE0     		b	.L413
 8117              	.L424:
 8118              		.loc 1 2395 0
 8119 3a5a FFF7FEFF 		bl	EnableHWFreeFall
 8120              		.loc 1 2396 0
 8121 3a5e 9DF81720 		ldrb	r2, [sp, #23]	@ zero_extendqisi2
 8122 3a62 9DF81630 		ldrb	r3, [sp, #22]	@ zero_extendqisi2
 8123 3a66 4FF48060 		mov	r0, #1024
 8124 3a6a 1146     		mov	r1, r2
 8125 3a6c 1A46     		mov	r2, r3
 8126 3a6e FFF7FEFF 		bl	Config_Notify
 8127              		.loc 1 2397 0
 8128 3a72 0CE0     		b	.L422
 8129              	.L423:
 8130              		.loc 1 2399 0
 8131 3a74 FFF7FEFF 		bl	DisableHWFreeFall
 8132              		.loc 1 2400 0
 8133 3a78 9DF81720 		ldrb	r2, [sp, #23]	@ zero_extendqisi2
 8134 3a7c 9DF81630 		ldrb	r3, [sp, #22]	@ zero_extendqisi2
 8135 3a80 4FF48060 		mov	r0, #1024
ARM GAS  /tmp/ccNtBBEs.s 			page 148


 8136 3a84 1146     		mov	r1, r2
 8137 3a86 1A46     		mov	r2, r3
 8138 3a88 FFF7FEFF 		bl	Config_Notify
 8139              		.loc 1 2401 0
 8140 3a8c 00BF     		nop
 8141              	.L422:
 8142              		.loc 1 2403 0
 8143 3a8e DFE0     		b	.L413
 8144              	.L414:
 8145              		.loc 1 2406 0
 8146 3a90 9DF81630 		ldrb	r3, [sp, #22]	@ zero_extendqisi2
 8147 3a94 002B     		cmp	r3, #0
 8148 3a96 0FD0     		beq	.L426
 8149 3a98 012B     		cmp	r3, #1
 8150 3a9a 00D0     		beq	.L427
 8151              		.loc 1 2416 0
 8152 3a9c D8E0     		b	.L413
 8153              	.L427:
 8154              		.loc 1 2408 0
 8155 3a9e FFF7FEFF 		bl	EnableHWDoubleTap
 8156              		.loc 1 2409 0
 8157 3aa2 9DF81720 		ldrb	r2, [sp, #23]	@ zero_extendqisi2
 8158 3aa6 9DF81630 		ldrb	r3, [sp, #22]	@ zero_extendqisi2
 8159 3aaa 4FF48060 		mov	r0, #1024
 8160 3aae 1146     		mov	r1, r2
 8161 3ab0 1A46     		mov	r2, r3
 8162 3ab2 FFF7FEFF 		bl	Config_Notify
 8163              		.loc 1 2410 0
 8164 3ab6 0CE0     		b	.L425
 8165              	.L426:
 8166              		.loc 1 2412 0
 8167 3ab8 FFF7FEFF 		bl	DisableHWDoubleTap
 8168              		.loc 1 2413 0
 8169 3abc 9DF81720 		ldrb	r2, [sp, #23]	@ zero_extendqisi2
 8170 3ac0 9DF81630 		ldrb	r3, [sp, #22]	@ zero_extendqisi2
 8171 3ac4 4FF48060 		mov	r0, #1024
 8172 3ac8 1146     		mov	r1, r2
 8173 3aca 1A46     		mov	r2, r3
 8174 3acc FFF7FEFF 		bl	Config_Notify
 8175              		.loc 1 2414 0
 8176 3ad0 00BF     		nop
 8177              	.L425:
 8178              		.loc 1 2416 0
 8179 3ad2 BDE0     		b	.L413
 8180              	.L419:
 8181              		.loc 1 2419 0
 8182 3ad4 9DF81630 		ldrb	r3, [sp, #22]	@ zero_extendqisi2
 8183 3ad8 002B     		cmp	r3, #0
 8184 3ada 0FD0     		beq	.L429
 8185 3adc 012B     		cmp	r3, #1
 8186 3ade 00D0     		beq	.L430
 8187              		.loc 1 2429 0
 8188 3ae0 B6E0     		b	.L413
 8189              	.L430:
 8190              		.loc 1 2421 0
 8191 3ae2 FFF7FEFF 		bl	EnableHWSingleTap
 8192              		.loc 1 2422 0
ARM GAS  /tmp/ccNtBBEs.s 			page 149


 8193 3ae6 9DF81720 		ldrb	r2, [sp, #23]	@ zero_extendqisi2
 8194 3aea 9DF81630 		ldrb	r3, [sp, #22]	@ zero_extendqisi2
 8195 3aee 4FF48060 		mov	r0, #1024
 8196 3af2 1146     		mov	r1, r2
 8197 3af4 1A46     		mov	r2, r3
 8198 3af6 FFF7FEFF 		bl	Config_Notify
 8199              		.loc 1 2423 0
 8200 3afa 0CE0     		b	.L428
 8201              	.L429:
 8202              		.loc 1 2425 0
 8203 3afc FFF7FEFF 		bl	DisableHWSingleTap
 8204              		.loc 1 2426 0
 8205 3b00 9DF81720 		ldrb	r2, [sp, #23]	@ zero_extendqisi2
 8206 3b04 9DF81630 		ldrb	r3, [sp, #22]	@ zero_extendqisi2
 8207 3b08 4FF48060 		mov	r0, #1024
 8208 3b0c 1146     		mov	r1, r2
 8209 3b0e 1A46     		mov	r2, r3
 8210 3b10 FFF7FEFF 		bl	Config_Notify
 8211              		.loc 1 2427 0
 8212 3b14 00BF     		nop
 8213              	.L428:
 8214              		.loc 1 2429 0
 8215 3b16 9BE0     		b	.L413
 8216              	.L418:
 8217              		.loc 1 2432 0
 8218 3b18 9DF81630 		ldrb	r3, [sp, #22]	@ zero_extendqisi2
 8219 3b1c 002B     		cmp	r3, #0
 8220 3b1e 11D0     		beq	.L432
 8221 3b20 012B     		cmp	r3, #1
 8222 3b22 00D0     		beq	.L433
 8223              		.loc 1 2443 0
 8224 3b24 94E0     		b	.L413
 8225              	.L433:
 8226              		.loc 1 2434 0
 8227 3b26 FFF7FEFF 		bl	EnableHWPedometer
 8228              		.loc 1 2435 0
 8229 3b2a FFF7FEFF 		bl	ResetHWPedometer
 8230              		.loc 1 2436 0
 8231 3b2e 9DF81720 		ldrb	r2, [sp, #23]	@ zero_extendqisi2
 8232 3b32 9DF81630 		ldrb	r3, [sp, #22]	@ zero_extendqisi2
 8233 3b36 4FF48060 		mov	r0, #1024
 8234 3b3a 1146     		mov	r1, r2
 8235 3b3c 1A46     		mov	r2, r3
 8236 3b3e FFF7FEFF 		bl	Config_Notify
 8237              		.loc 1 2437 0
 8238 3b42 0CE0     		b	.L431
 8239              	.L432:
 8240              		.loc 1 2439 0
 8241 3b44 FFF7FEFF 		bl	DisableHWPedometer
 8242              		.loc 1 2440 0
 8243 3b48 9DF81720 		ldrb	r2, [sp, #23]	@ zero_extendqisi2
 8244 3b4c 9DF81630 		ldrb	r3, [sp, #22]	@ zero_extendqisi2
 8245 3b50 4FF48060 		mov	r0, #1024
 8246 3b54 1146     		mov	r1, r2
 8247 3b56 1A46     		mov	r2, r3
 8248 3b58 FFF7FEFF 		bl	Config_Notify
 8249              		.loc 1 2441 0
ARM GAS  /tmp/ccNtBBEs.s 			page 150


 8250 3b5c 00BF     		nop
 8251              	.L431:
 8252              		.loc 1 2443 0
 8253 3b5e 77E0     		b	.L413
 8254              	.L421:
 8255              		.loc 1 2446 0
 8256 3b60 9DF81630 		ldrb	r3, [sp, #22]	@ zero_extendqisi2
 8257 3b64 002B     		cmp	r3, #0
 8258 3b66 0FD0     		beq	.L435
 8259 3b68 012B     		cmp	r3, #1
 8260 3b6a 00D0     		beq	.L436
 8261              		.loc 1 2456 0
 8262 3b6c 70E0     		b	.L413
 8263              	.L436:
 8264              		.loc 1 2448 0
 8265 3b6e FFF7FEFF 		bl	EnableHWWakeUp
 8266              		.loc 1 2449 0
 8267 3b72 9DF81720 		ldrb	r2, [sp, #23]	@ zero_extendqisi2
 8268 3b76 9DF81630 		ldrb	r3, [sp, #22]	@ zero_extendqisi2
 8269 3b7a 4FF48060 		mov	r0, #1024
 8270 3b7e 1146     		mov	r1, r2
 8271 3b80 1A46     		mov	r2, r3
 8272 3b82 FFF7FEFF 		bl	Config_Notify
 8273              		.loc 1 2450 0
 8274 3b86 0CE0     		b	.L434
 8275              	.L435:
 8276              		.loc 1 2452 0
 8277 3b88 FFF7FEFF 		bl	DisableHWWakeUp
 8278              		.loc 1 2453 0
 8279 3b8c 9DF81720 		ldrb	r2, [sp, #23]	@ zero_extendqisi2
 8280 3b90 9DF81630 		ldrb	r3, [sp, #22]	@ zero_extendqisi2
 8281 3b94 4FF48060 		mov	r0, #1024
 8282 3b98 1146     		mov	r1, r2
 8283 3b9a 1A46     		mov	r2, r3
 8284 3b9c FFF7FEFF 		bl	Config_Notify
 8285              		.loc 1 2454 0
 8286 3ba0 00BF     		nop
 8287              	.L434:
 8288              		.loc 1 2456 0
 8289 3ba2 55E0     		b	.L413
 8290              	.L420:
 8291              		.loc 1 2459 0
 8292 3ba4 9DF81630 		ldrb	r3, [sp, #22]	@ zero_extendqisi2
 8293 3ba8 002B     		cmp	r3, #0
 8294 3baa 21D0     		beq	.L438
 8295 3bac 012B     		cmp	r3, #1
 8296 3bae 00D0     		beq	.L439
 8297              		.loc 1 2469 0
 8298 3bb0 4EE0     		b	.L413
 8299              	.L439:
 8300              		.loc 1 2461 0
 8301 3bb2 FFF7FEFF 		bl	EnableHWTilt
 8302              		.loc 1 2462 0
 8303 3bb6 9DF81720 		ldrb	r2, [sp, #23]	@ zero_extendqisi2
 8304 3bba 9DF81630 		ldrb	r3, [sp, #22]	@ zero_extendqisi2
 8305 3bbe 4FF48060 		mov	r0, #1024
 8306 3bc2 1146     		mov	r1, r2
ARM GAS  /tmp/ccNtBBEs.s 			page 151


 8307 3bc4 1A46     		mov	r2, r3
 8308 3bc6 FFF7FEFF 		bl	Config_Notify
 8309              		.loc 1 2463 0
 8310 3bca 1EE0     		b	.L437
 8311              	.L463:
 8312              		.align	2
 8313              	.L462:
 8314 3bcc 00000000 		.word	ConnectionBleStatus
 8315 3bd0 00000000 		.word	BufferToWrite
 8316 3bd4 A4050000 		.word	.LC58
 8317 3bd8 00000000 		.word	BytesToWrite
 8318 3bdc D4050000 		.word	.LC59
 8319 3be0 00000000 		.word	ForceReCalibration
 8320 3be4 00060000 		.word	.LC60
 8321 3be8 2C060000 		.word	.LC61
 8322 3bec 58060000 		.word	.LC62
 8323              	.L438:
 8324              		.loc 1 2465 0
 8325 3bf0 FFF7FEFF 		bl	DisableHWTilt
 8326              		.loc 1 2466 0
 8327 3bf4 9DF81720 		ldrb	r2, [sp, #23]	@ zero_extendqisi2
 8328 3bf8 9DF81630 		ldrb	r3, [sp, #22]	@ zero_extendqisi2
 8329 3bfc 4FF48060 		mov	r0, #1024
 8330 3c00 1146     		mov	r1, r2
 8331 3c02 1A46     		mov	r2, r3
 8332 3c04 FFF7FEFF 		bl	Config_Notify
 8333              		.loc 1 2467 0
 8334 3c08 00BF     		nop
 8335              	.L437:
 8336              		.loc 1 2469 0
 8337 3c0a 21E0     		b	.L413
 8338              	.L417:
 8339              		.loc 1 2472 0
 8340 3c0c 9DF81630 		ldrb	r3, [sp, #22]	@ zero_extendqisi2
 8341 3c10 002B     		cmp	r3, #0
 8342 3c12 0FD0     		beq	.L441
 8343 3c14 012B     		cmp	r3, #1
 8344 3c16 00D0     		beq	.L442
 8345              		.loc 1 2482 0
 8346 3c18 19E0     		b	.L461
 8347              	.L442:
 8348              		.loc 1 2474 0
 8349 3c1a FFF7FEFF 		bl	EnableHWOrientation6D
 8350              		.loc 1 2475 0
 8351 3c1e 9DF81720 		ldrb	r2, [sp, #23]	@ zero_extendqisi2
 8352 3c22 9DF81630 		ldrb	r3, [sp, #22]	@ zero_extendqisi2
 8353 3c26 4FF48060 		mov	r0, #1024
 8354 3c2a 1146     		mov	r1, r2
 8355 3c2c 1A46     		mov	r2, r3
 8356 3c2e FFF7FEFF 		bl	Config_Notify
 8357              		.loc 1 2476 0
 8358 3c32 0CE0     		b	.L440
 8359              	.L441:
 8360              		.loc 1 2478 0
 8361 3c34 FFF7FEFF 		bl	DisableHWOrientation6D
 8362              		.loc 1 2479 0
 8363 3c38 9DF81720 		ldrb	r2, [sp, #23]	@ zero_extendqisi2
ARM GAS  /tmp/ccNtBBEs.s 			page 152


 8364 3c3c 9DF81630 		ldrb	r3, [sp, #22]	@ zero_extendqisi2
 8365 3c40 4FF48060 		mov	r0, #1024
 8366 3c44 1146     		mov	r1, r2
 8367 3c46 1A46     		mov	r2, r3
 8368 3c48 FFF7FEFF 		bl	Config_Notify
 8369              		.loc 1 2480 0
 8370 3c4c 00BF     		nop
 8371              	.L440:
 8372              	.L461:
 8373              		.loc 1 2482 0
 8374 3c4e 00BF     		nop
 8375              	.L413:
 8376              		.loc 1 2484 0
 8377 3c50 D4E0     		b	.L460
 8378              	.L394:
 8379              		.loc 1 2490 0
 8380 3c52 9DF81730 		ldrb	r3, [sp, #23]	@ zero_extendqisi2
 8381 3c56 FF2B     		cmp	r3, #255
 8382 3c58 00D0     		beq	.L444
 8383              		.loc 1 2514 0
 8384 3c5a D0E0     		b	.L393
 8385              	.L444:
 8386              		.loc 1 2493 0
 8387 3c5c 9DF81630 		ldrb	r3, [sp, #22]	@ zero_extendqisi2
 8388 3c60 002B     		cmp	r3, #0
 8389 3c62 1AD0     		beq	.L445
 8390              		.loc 1 2495 0
 8391 3c64 684B     		ldr	r3, .L464
 8392 3c66 1B68     		ldr	r3, [r3]
 8393 3c68 9DF81620 		ldrb	r2, [sp, #22]	@ zero_extendqisi2
 8394 3c6c C821     		movs	r1, #200
 8395 3c6e 01FB02F2 		mul	r2, r1, r2
 8396 3c72 013A     		subs	r2, r2, #1
 8397 3c74 DA62     		str	r2, [r3, #44]
 8398 3c76 9DF81630 		ldrb	r3, [sp, #22]	@ zero_extendqisi2
 8399 3c7a C822     		movs	r2, #200
 8400 3c7c 02FB03F3 		mul	r3, r2, r3
 8401 3c80 013B     		subs	r3, r3, #1
 8402 3c82 1A46     		mov	r2, r3
 8403 3c84 604B     		ldr	r3, .L464
 8404 3c86 DA60     		str	r2, [r3, #12]
 8405              		.loc 1 2496 0
 8406 3c88 5F4B     		ldr	r3, .L464
 8407 3c8a 1B68     		ldr	r3, [r3]
 8408 3c8c 0022     		movs	r2, #0
 8409 3c8e 5A62     		str	r2, [r3, #36]
 8410              		.loc 1 2497 0
 8411 3c90 5D4B     		ldr	r3, .L464
 8412 3c92 1B68     		ldr	r3, [r3]
 8413 3c94 0122     		movs	r2, #1
 8414 3c96 5A61     		str	r2, [r3, #20]
 8415 3c98 0CE0     		b	.L446
 8416              	.L445:
 8417              		.loc 1 2500 0
 8418 3c9a 5B4B     		ldr	r3, .L464
 8419 3c9c 1B68     		ldr	r3, [r3]
 8420 3c9e 40F2E732 		movw	r2, #999
ARM GAS  /tmp/ccNtBBEs.s 			page 153


 8421 3ca2 DA62     		str	r2, [r3, #44]
 8422 3ca4 584B     		ldr	r3, .L464
 8423 3ca6 40F2E732 		movw	r2, #999
 8424 3caa DA60     		str	r2, [r3, #12]
 8425              		.loc 1 2501 0
 8426 3cac 564B     		ldr	r3, .L464
 8427 3cae 1B68     		ldr	r3, [r3]
 8428 3cb0 0022     		movs	r2, #0
 8429 3cb2 5A62     		str	r2, [r3, #36]
 8430              	.L446:
 8431              		.loc 1 2504 0
 8432 3cb4 554B     		ldr	r3, .L464+4
 8433 3cb6 1B68     		ldr	r3, [r3]
 8434 3cb8 03F48063 		and	r3, r3, #1024
 8435 3cbc 002B     		cmp	r3, #0
 8436 3cbe 13D0     		beq	.L447
 8437              		.loc 1 2505 0
 8438 3cc0 9DF81730 		ldrb	r3, [sp, #23]	@ zero_extendqisi2
 8439 3cc4 9DF81620 		ldrb	r2, [sp, #22]	@ zero_extendqisi2
 8440 3cc8 0092     		str	r2, [sp]
 8441 3cca 5148     		ldr	r0, .L464+8
 8442 3ccc 5149     		ldr	r1, .L464+12
 8443 3cce 069A     		ldr	r2, [sp, #24]
 8444 3cd0 FFF7FEFF 		bl	sprintf
 8445 3cd4 0246     		mov	r2, r0
 8446 3cd6 504B     		ldr	r3, .L464+16
 8447 3cd8 1A60     		str	r2, [r3]
 8448              		.loc 1 2506 0
 8449 3cda 4F4B     		ldr	r3, .L464+16
 8450 3cdc 1B68     		ldr	r3, [r3]
 8451 3cde DBB2     		uxtb	r3, r3
 8452 3ce0 4B48     		ldr	r0, .L464+8
 8453 3ce2 1946     		mov	r1, r3
 8454 3ce4 FFF7FEFF 		bl	Term_Update
 8455              	.L447:
 8456              		.loc 1 2511 0
 8457 3ce8 0023     		movs	r3, #0
 8458 3cea 0793     		str	r3, [sp, #28]
 8459              		.loc 1 2512 0
 8460 3cec 00BF     		nop
 8461              		.loc 1 2514 0
 8462 3cee 86E0     		b	.L393
 8463              	.L399:
 8464              		.loc 1 2519 0
 8465 3cf0 9DF81730 		ldrb	r3, [sp, #23]	@ zero_extendqisi2
 8466 3cf4 FF2B     		cmp	r3, #255
 8467 3cf6 00D0     		beq	.L449
 8468              		.loc 1 2540 0
 8469 3cf8 81E0     		b	.L393
 8470              	.L449:
 8471              		.loc 1 2522 0
 8472 3cfa 9DF81630 		ldrb	r3, [sp, #22]	@ zero_extendqisi2
 8473 3cfe 002B     		cmp	r3, #0
 8474 3d00 09D0     		beq	.L450
 8475              		.loc 1 2524 0
 8476 3d02 9DF81630 		ldrb	r3, [sp, #22]	@ zero_extendqisi2
 8477 3d06 4FF47A72 		mov	r2, #1000
ARM GAS  /tmp/ccNtBBEs.s 			page 154


 8478 3d0a 02FB03F3 		mul	r3, r2, r3
 8479 3d0e 1A46     		mov	r2, r3
 8480 3d10 424B     		ldr	r3, .L464+20
 8481 3d12 1A60     		str	r2, [r3]
 8482 3d14 03E0     		b	.L451
 8483              	.L450:
 8484              		.loc 1 2527 0
 8485 3d16 414B     		ldr	r3, .L464+20
 8486 3d18 4FF4FA72 		mov	r2, #500
 8487 3d1c 1A60     		str	r2, [r3]
 8488              	.L451:
 8489              		.loc 1 2530 0
 8490 3d1e 3B4B     		ldr	r3, .L464+4
 8491 3d20 1B68     		ldr	r3, [r3]
 8492 3d22 03F48063 		and	r3, r3, #1024
 8493 3d26 002B     		cmp	r3, #0
 8494 3d28 13D0     		beq	.L452
 8495              		.loc 1 2531 0
 8496 3d2a 9DF81730 		ldrb	r3, [sp, #23]	@ zero_extendqisi2
 8497 3d2e 9DF81620 		ldrb	r2, [sp, #22]	@ zero_extendqisi2
 8498 3d32 0092     		str	r2, [sp]
 8499 3d34 3648     		ldr	r0, .L464+8
 8500 3d36 3749     		ldr	r1, .L464+12
 8501 3d38 069A     		ldr	r2, [sp, #24]
 8502 3d3a FFF7FEFF 		bl	sprintf
 8503 3d3e 0246     		mov	r2, r0
 8504 3d40 354B     		ldr	r3, .L464+16
 8505 3d42 1A60     		str	r2, [r3]
 8506              		.loc 1 2532 0
 8507 3d44 344B     		ldr	r3, .L464+16
 8508 3d46 1B68     		ldr	r3, [r3]
 8509 3d48 DBB2     		uxtb	r3, r3
 8510 3d4a 3148     		ldr	r0, .L464+8
 8511 3d4c 1946     		mov	r1, r3
 8512 3d4e FFF7FEFF 		bl	Term_Update
 8513              	.L452:
 8514              		.loc 1 2537 0
 8515 3d52 0023     		movs	r3, #0
 8516 3d54 0793     		str	r3, [sp, #28]
 8517              		.loc 1 2538 0
 8518 3d56 00BF     		nop
 8519              		.loc 1 2540 0
 8520 3d58 51E0     		b	.L393
 8521              	.L401:
 8522              		.loc 1 2543 0
 8523 3d5a 9DF81730 		ldrb	r3, [sp, #23]	@ zero_extendqisi2
 8524 3d5e FF2B     		cmp	r3, #255
 8525 3d60 00D0     		beq	.L454
 8526              		.loc 1 2567 0
 8527 3d62 4CE0     		b	.L393
 8528              	.L454:
 8529              		.loc 1 2546 0
 8530 3d64 9DF81630 		ldrb	r3, [sp, #22]	@ zero_extendqisi2
 8531 3d68 002B     		cmp	r3, #0
 8532 3d6a 1CD0     		beq	.L455
 8533              		.loc 1 2548 0
 8534 3d6c 2C4B     		ldr	r3, .L464+24
ARM GAS  /tmp/ccNtBBEs.s 			page 155


 8535 3d6e 1B68     		ldr	r3, [r3]
 8536 3d70 9DF81620 		ldrb	r2, [sp, #22]	@ zero_extendqisi2
 8537 3d74 4FF47A71 		mov	r1, #1000
 8538 3d78 01FB02F2 		mul	r2, r1, r2
 8539 3d7c 013A     		subs	r2, r2, #1
 8540 3d7e DA62     		str	r2, [r3, #44]
 8541 3d80 9DF81630 		ldrb	r3, [sp, #22]	@ zero_extendqisi2
 8542 3d84 4FF47A72 		mov	r2, #1000
 8543 3d88 02FB03F3 		mul	r3, r2, r3
 8544 3d8c 013B     		subs	r3, r3, #1
 8545 3d8e 1A46     		mov	r2, r3
 8546 3d90 234B     		ldr	r3, .L464+24
 8547 3d92 DA60     		str	r2, [r3, #12]
 8548              		.loc 1 2549 0
 8549 3d94 224B     		ldr	r3, .L464+24
 8550 3d96 1B68     		ldr	r3, [r3]
 8551 3d98 0022     		movs	r2, #0
 8552 3d9a 5A62     		str	r2, [r3, #36]
 8553              		.loc 1 2550 0
 8554 3d9c 204B     		ldr	r3, .L464+24
 8555 3d9e 1B68     		ldr	r3, [r3]
 8556 3da0 0122     		movs	r2, #1
 8557 3da2 5A61     		str	r2, [r3, #20]
 8558 3da4 0CE0     		b	.L456
 8559              	.L455:
 8560              		.loc 1 2553 0
 8561 3da6 1E4B     		ldr	r3, .L464+24
 8562 3da8 1B68     		ldr	r3, [r3]
 8563 3daa 40F2F312 		movw	r2, #499
 8564 3dae DA62     		str	r2, [r3, #44]
 8565 3db0 1B4B     		ldr	r3, .L464+24
 8566 3db2 40F2F312 		movw	r2, #499
 8567 3db6 DA60     		str	r2, [r3, #12]
 8568              		.loc 1 2554 0
 8569 3db8 194B     		ldr	r3, .L464+24
 8570 3dba 1B68     		ldr	r3, [r3]
 8571 3dbc 0022     		movs	r2, #0
 8572 3dbe 5A62     		str	r2, [r3, #36]
 8573              	.L456:
 8574              		.loc 1 2557 0
 8575 3dc0 124B     		ldr	r3, .L464+4
 8576 3dc2 1B68     		ldr	r3, [r3]
 8577 3dc4 03F48063 		and	r3, r3, #1024
 8578 3dc8 002B     		cmp	r3, #0
 8579 3dca 13D0     		beq	.L457
 8580              		.loc 1 2558 0
 8581 3dcc 9DF81730 		ldrb	r3, [sp, #23]	@ zero_extendqisi2
 8582 3dd0 9DF81620 		ldrb	r2, [sp, #22]	@ zero_extendqisi2
 8583 3dd4 0092     		str	r2, [sp]
 8584 3dd6 0E48     		ldr	r0, .L464+8
 8585 3dd8 0E49     		ldr	r1, .L464+12
 8586 3dda 069A     		ldr	r2, [sp, #24]
 8587 3ddc FFF7FEFF 		bl	sprintf
 8588 3de0 0246     		mov	r2, r0
 8589 3de2 0D4B     		ldr	r3, .L464+16
 8590 3de4 1A60     		str	r2, [r3]
 8591              		.loc 1 2559 0
ARM GAS  /tmp/ccNtBBEs.s 			page 156


 8592 3de6 0C4B     		ldr	r3, .L464+16
 8593 3de8 1B68     		ldr	r3, [r3]
 8594 3dea DBB2     		uxtb	r3, r3
 8595 3dec 0848     		ldr	r0, .L464+8
 8596 3dee 1946     		mov	r1, r3
 8597 3df0 FFF7FEFF 		bl	Term_Update
 8598              	.L457:
 8599              		.loc 1 2564 0
 8600 3df4 0023     		movs	r3, #0
 8601 3df6 0793     		str	r3, [sp, #28]
 8602              		.loc 1 2565 0
 8603 3df8 00BF     		nop
 8604              		.loc 1 2567 0
 8605 3dfa 00E0     		b	.L393
 8606              	.L460:
 8607              		.loc 1 2484 0
 8608 3dfc 00BF     		nop
 8609              	.L393:
 8610              		.loc 1 2569 0
 8611 3dfe 079B     		ldr	r3, [sp, #28]
 8612              		.loc 1 2570 0
 8613 3e00 1846     		mov	r0, r3
 8614 3e02 09B0     		add	sp, sp, #36
 8615              		@ sp needed
 8616 3e04 5DF804FB 		ldr	pc, [sp], #4
 8617              	.L465:
 8618              		.align	2
 8619              	.L464:
 8620 3e08 00000000 		.word	TimEnvHandle
 8621 3e0c 00000000 		.word	ConnectionBleStatus
 8622 3e10 00000000 		.word	BufferToWrite
 8623 3e14 74060000 		.word	.LC63
 8624 3e18 00000000 		.word	BytesToWrite
 8625 3e1c 00000000 		.word	uhCCR4_Val
 8626 3e20 00000000 		.word	TimAudioDataHandle
 8627              		.cfi_endproc
 8628              	.LFE294:
 8629              		.size	ConfigCommandParsing, .-ConfigCommandParsing
 8630              		.align	2
 8631 3e24 AFF30080 		.p2align 4,,15
 8631      AFF30080 
 8631      AFF30080 
 8632              		.global	HCI_Event_CB
 8633              		.thumb
 8634              		.thumb_func
 8635              		.type	HCI_Event_CB, %function
 8636              	HCI_Event_CB:
 8637              	.LFB295:
 8638              		.loc 1 2580 0
 8639              		.cfi_startproc
 8640              		@ args = 0, pretend = 0, frame = 40
 8641              		@ frame_needed = 0, uses_anonymous_args = 0
 8642 3e30 00B5     		push	{lr}
 8643              		.cfi_def_cfa_offset 4
 8644              		.cfi_offset 14, -4
 8645 3e32 8BB0     		sub	sp, sp, #44
 8646              		.cfi_def_cfa_offset 48
ARM GAS  /tmp/ccNtBBEs.s 			page 157


 8647 3e34 0190     		str	r0, [sp, #4]
 8648              		.loc 1 2581 0
 8649 3e36 019B     		ldr	r3, [sp, #4]
 8650 3e38 0993     		str	r3, [sp, #36]
 8651              		.loc 1 2582 0
 8652 3e3a 099B     		ldr	r3, [sp, #36]
 8653 3e3c 0133     		adds	r3, r3, #1
 8654 3e3e 0893     		str	r3, [sp, #32]
 8655              		.loc 1 2584 0
 8656 3e40 099B     		ldr	r3, [sp, #36]
 8657 3e42 1B78     		ldrb	r3, [r3]	@ zero_extendqisi2
 8658 3e44 042B     		cmp	r3, #4
 8659 3e46 00D0     		beq	.L467
 8660              		.loc 1 2585 0
 8661 3e48 60E0     		b	.L466
 8662              	.L467:
 8663              		.loc 1 2588 0
 8664 3e4a 089B     		ldr	r3, [sp, #32]
 8665 3e4c 1B78     		ldrb	r3, [r3]	@ zero_extendqisi2
 8666 3e4e 3E2B     		cmp	r3, #62
 8667 3e50 06D0     		beq	.L469
 8668 3e52 FF2B     		cmp	r3, #255
 8669 3e54 1BD0     		beq	.L470
 8670 3e56 052B     		cmp	r3, #5
 8671 3e58 58D1     		bne	.L466
 8672              		.loc 1 2592 0
 8673 3e5a FEF709F8 		bl	GAP_DisconnectionComplete_CB
 8674              		.loc 1 2594 0
 8675 3e5e 55E0     		b	.L466
 8676              	.L469:
 8677              	.LBB26:
 8678              		.loc 1 2597 0
 8679 3e60 089B     		ldr	r3, [sp, #32]
 8680 3e62 0233     		adds	r3, r3, #2
 8681 3e64 0793     		str	r3, [sp, #28]
 8682              		.loc 1 2599 0
 8683 3e66 079B     		ldr	r3, [sp, #28]
 8684 3e68 1B78     		ldrb	r3, [r3]	@ zero_extendqisi2
 8685 3e6a 012B     		cmp	r3, #1
 8686 3e6c 00D0     		beq	.L473
 8687              	.LBE26:
 8688              		.loc 1 2608 0
 8689 3e6e 4DE0     		b	.L466
 8690              	.L473:
 8691              	.LBB28:
 8692              	.LBB27:
 8693              		.loc 1 2602 0
 8694 3e70 079B     		ldr	r3, [sp, #28]
 8695 3e72 0133     		adds	r3, r3, #1
 8696 3e74 0693     		str	r3, [sp, #24]
 8697              		.loc 1 2603 0
 8698 3e76 069B     		ldr	r3, [sp, #24]
 8699 3e78 5A1D     		adds	r2, r3, #5
 8700 3e7a 069B     		ldr	r3, [sp, #24]
 8701 3e7c B3F80130 		ldrh	r3, [r3, #1]	@ unaligned
 8702 3e80 9BB2     		uxth	r3, r3
 8703 3e82 1046     		mov	r0, r2
ARM GAS  /tmp/ccNtBBEs.s 			page 158


 8704 3e84 1946     		mov	r1, r3
 8705 3e86 FDF7B3FF 		bl	GAP_ConnectionComplete_CB
 8706              	.LBE27:
 8707              		.loc 1 2605 0
 8708 3e8a 00BF     		nop
 8709              	.LBE28:
 8710              		.loc 1 2608 0
 8711 3e8c 3EE0     		b	.L466
 8712              	.L470:
 8713              	.LBB29:
 8714              		.loc 1 2611 0
 8715 3e8e 089B     		ldr	r3, [sp, #32]
 8716 3e90 0233     		adds	r3, r3, #2
 8717 3e92 0593     		str	r3, [sp, #20]
 8718              		.loc 1 2612 0
 8719 3e94 059B     		ldr	r3, [sp, #20]
 8720 3e96 1B88     		ldrh	r3, [r3]	@ unaligned
 8721 3e98 9BB2     		uxth	r3, r3
 8722 3e9a 40F60142 		movw	r2, #3073
 8723 3e9e 9342     		cmp	r3, r2
 8724 3ea0 0ED0     		beq	.L475
 8725 3ea2 40F61442 		movw	r2, #3092
 8726 3ea6 9342     		cmp	r3, r2
 8727 3ea8 00D0     		beq	.L476
 8728              	.LBE29:
 8729              		.loc 1 2630 0
 8730 3eaa 2FE0     		b	.L466
 8731              	.L476:
 8732              	.LBB33:
 8733              	.LBB30:
 8734              		.loc 1 2615 0
 8735 3eac 059B     		ldr	r3, [sp, #20]
 8736 3eae 0233     		adds	r3, r3, #2
 8737 3eb0 0493     		str	r3, [sp, #16]
 8738              		.loc 1 2616 0
 8739 3eb2 049B     		ldr	r3, [sp, #16]
 8740 3eb4 5B88     		ldrh	r3, [r3, #2]	@ unaligned
 8741 3eb6 9BB2     		uxth	r3, r3
 8742 3eb8 1846     		mov	r0, r3
 8743 3eba FFF7FEFF 		bl	Read_Request_CB
 8744              	.LBE30:
 8745              		.loc 1 2618 0
 8746 3ebe 24E0     		b	.L474
 8747              	.L475:
 8748              		.loc 1 2620 0
 8749 3ec0 144B     		ldr	r3, .L480
 8750 3ec2 93F82D30 		ldrb	r3, [r3, #45]	@ zero_extendqisi2
 8751 3ec6 012B     		cmp	r3, #1
 8752 3ec8 0FD1     		bne	.L477
 8753              	.LBB31:
 8754              		.loc 1 2621 0
 8755 3eca 059B     		ldr	r3, [sp, #20]
 8756 3ecc 0233     		adds	r3, r3, #2
 8757 3ece 0393     		str	r3, [sp, #12]
 8758              		.loc 1 2622 0
 8759 3ed0 039B     		ldr	r3, [sp, #12]
 8760 3ed2 5B88     		ldrh	r3, [r3, #2]	@ unaligned
ARM GAS  /tmp/ccNtBBEs.s 			page 159


 8761 3ed4 99B2     		uxth	r1, r3
 8762 3ed6 039B     		ldr	r3, [sp, #12]
 8763 3ed8 DA1D     		adds	r2, r3, #7
 8764 3eda 039B     		ldr	r3, [sp, #12]
 8765 3edc 1B79     		ldrb	r3, [r3, #4]	@ zero_extendqisi2
 8766 3ede 0846     		mov	r0, r1
 8767 3ee0 1146     		mov	r1, r2
 8768 3ee2 1A46     		mov	r2, r3
 8769 3ee4 FFF7FEFF 		bl	Attribute_Modified_CB
 8770              	.LBE31:
 8771              		.loc 1 2627 0
 8772 3ee8 0EE0     		b	.L479
 8773              	.L477:
 8774              	.LBB32:
 8775              		.loc 1 2624 0
 8776 3eea 059B     		ldr	r3, [sp, #20]
 8777 3eec 0233     		adds	r3, r3, #2
 8778 3eee 0293     		str	r3, [sp, #8]
 8779              		.loc 1 2625 0
 8780 3ef0 029B     		ldr	r3, [sp, #8]
 8781 3ef2 5B88     		ldrh	r3, [r3, #2]	@ unaligned
 8782 3ef4 99B2     		uxth	r1, r3
 8783 3ef6 029B     		ldr	r3, [sp, #8]
 8784 3ef8 5A1D     		adds	r2, r3, #5
 8785 3efa 029B     		ldr	r3, [sp, #8]
 8786 3efc 1B79     		ldrb	r3, [r3, #4]	@ zero_extendqisi2
 8787 3efe 0846     		mov	r0, r1
 8788 3f00 1146     		mov	r1, r2
 8789 3f02 1A46     		mov	r2, r3
 8790 3f04 FFF7FEFF 		bl	Attribute_Modified_CB
 8791              	.L479:
 8792              	.LBE32:
 8793              		.loc 1 2627 0
 8794 3f08 00BF     		nop
 8795              	.L474:
 8796              	.LBE33:
 8797              		.loc 1 2630 0
 8798 3f0a 00BF     		nop
 8799              	.L466:
 8800              		.loc 1 2632 0
 8801 3f0c 0BB0     		add	sp, sp, #44
 8802              		@ sp needed
 8803 3f0e 5DF804FB 		ldr	pc, [sp], #4
 8804              	.L481:
 8805 3f12 00BF     		.align	2
 8806              	.L480:
 8807 3f14 00000000 		.word	TargetBoardFeatures
 8808              		.cfi_endproc
 8809              	.LFE295:
 8810              		.size	HCI_Event_CB, .-HCI_Event_CB
 8811              		.bss
 8812              		.align	2
 8813              	PreVoltage.18743:
 8814 0060 00000000 		.space	4
 8815              		.data
 8816 0002 0000     		.align	2
 8817              		.type	Status.18744, %object
ARM GAS  /tmp/ccNtBBEs.s 			page 160


 8818              		.size	Status.18744, 4
 8819              	Status.18744:
 8820 0004 04000000 		.word	4
 8821              		.bss
 8822              		.align	2
 8823              	osxLicenseStart.18793:
 8824 0064 00000000 		.space	4
 8825              		.text
 8826              	.Letext0:
 8827              		.file 2 "/nfs/nfs5/home/research/hardware/arm2/gcc-arm-embedded/gcc-arm-none-eabi-4_8-2014q2/lib/g
 8828              		.file 3 "/nfs/nfs5/home/research/hardware/arm2/gcc-arm-embedded/gcc-arm-none-eabi-4_8-2014q2/arm-n
 8829              		.file 4 "/nfs/nfs5/home/research/hardware/arm2/gcc-arm-embedded/gcc-arm-none-eabi-4_8-2014q2/arm-n
 8830              		.file 5 "../../../../../../ChibiOS/os/ext/CMSIS/ST/STM32L4xx/stm32l476xx.h"
 8831              		.file 6 "../../../../../Drivers/STM32L4xx_HAL_Driver/Inc/stm32l4xx_hal_def.h"
 8832              		.file 7 "../../../../../Drivers/STM32L4xx_HAL_Driver/Inc/stm32l4xx_hal_dma.h"
 8833              		.file 8 "../../../../../Drivers/STM32L4xx_HAL_Driver/Inc/stm32l4xx_hal_tim.h"
 8834              		.file 9 "../../../../../Drivers/BSP/Components/Common/component.h"
 8835              		.file 10 "../../../../../Drivers/BSP/Components/Common/sensor.h"
 8836              		.file 11 "../../../../../Middlewares/ST/STM32_MetaDataManager/MetaDataManager.h"
 8837              		.file 12 "../../../../../Middlewares/ST/STM32_OSX_MotionFX_Library/Inc/osx_motion_fx.h"
 8838              		.file 13 "../../../../../Middlewares/ST/STM32_OSX_MotionAR_Library/Inc/osx_motion_ar.h"
 8839              		.file 14 "../../../../../Middlewares/ST/STM32_OSX_MotionCP_Library/Inc/osx_motion_cp.h"
 8840              		.file 15 "../../../../../Middlewares/ST/STM32_OSX_MotionGR_Library/Inc/osx_motion_gr.h"
 8841              		.file 16 "../../../../../Middlewares/ST/STM32_BlueNRG/SimpleBlueNRG_HCI/includes/ble_status.h"
 8842              		.file 17 "../../../../../Middlewares/ST/STM32_BlueNRG/SimpleBlueNRG_HCI/includes/link_layer.h"
 8843              		.file 18 "../../../../../Middlewares/ST/STM32_BlueNRG/SimpleBlueNRG_HCI/includes/hci_const.h"
 8844              		.file 19 "../../../../../Middlewares/ST/STM32_BlueNRG/SimpleBlueNRG_HCI/includes/bluenrg_aci_const
 8845              		.file 20 "../../../../../Middlewares/ST/STM32_BlueNRG/SimpleBlueNRG_HCI/includes/bluenrg_gatt_aci.
 8846              		.file 21 "../../../../../Middlewares/ST/STM32_OSX_BlueVoice_Library/Inc/osx_bluevoice.h"
 8847              		.file 22 "../../../../../Projects/Multi/Applications/BlueMicrosystem2/Inc/TargetFeatures.h"
 8848              		.file 23 "../../../../../../ChibiOS/os/rt/ports/ARMCMx/compilers/GCC/chtypes.h"
 8849              		.file 24 "../../../../../../ChibiOS/os/rt/include/chsystypes.h"
 8850              		.file 25 "../../../../../../ChibiOS/os/rt/include/chschd.h"
 8851              		.file 26 "../../../../../../ChibiOS/os/rt/ports/ARMCMx/chcore.h"
 8852              		.file 27 "../../../../../../ChibiOS/os/rt/ports/ARMCMx/chcore_v7m.h"
 8853              		.file 28 "../../../../../../ChibiOS/os/rt/include/chtm.h"
 8854              		.file 29 "../../../../../../ChibiOS/os/rt/include/chsem.h"
 8855              		.file 30 "../../../../../../ChibiOS/os/rt/include/chmtx.h"
 8856              		.file 31 "../../../../../../ChibiOS/os/ext/CMSIS/include/core_cm4.h"
 8857              		.file 32 "../../../../../Projects/Multi/Applications/BlueMicrosystem2/Inc/main.h"
 8858              		.file 33 "../../../../../Projects/Multi/Applications/BlueMicrosystem2/Inc/HWAdvanceFeatures.h"
 8859 3f18 AFF30080 		.section	.debug_info,"",%progbits
 8859      AFF30080 
 8860              	.Ldebug_info0:
 8861 0000 3C230000 		.4byte	0x233c
 8862 0004 0400     		.2byte	0x4
 8863 0006 00000000 		.4byte	.Ldebug_abbrev0
 8864 000a 04       		.byte	0x4
 8865 000b 01       		.uleb128 0x1
 8866 000c E4120000 		.4byte	.LASF461
 8867 0010 01       		.byte	0x1
 8868 0011 59030000 		.4byte	.LASF462
 8869 0015 10090000 		.4byte	.LASF463
 8870 0019 00000000 		.4byte	.Ltext0
 8871 001d 183F0000 		.4byte	.Letext0-.Ltext0
 8872 0021 00000000 		.4byte	.Ldebug_line0
 8873 0025 02       		.uleb128 0x2
ARM GAS  /tmp/ccNtBBEs.s 			page 161


 8874 0026 8A0F0000 		.4byte	.LASF1
 8875 002a 02       		.byte	0x2
 8876 002b D4       		.byte	0xd4
 8877 002c 30000000 		.4byte	0x30
 8878 0030 03       		.uleb128 0x3
 8879 0031 04       		.byte	0x4
 8880 0032 07       		.byte	0x7
 8881 0033 5B010000 		.4byte	.LASF0
 8882 0037 04       		.uleb128 0x4
 8883 0038 04       		.byte	0x4
 8884 0039 05       		.uleb128 0x5
 8885 003a 04       		.byte	0x4
 8886 003b 05       		.byte	0x5
 8887 003c 696E7400 		.ascii	"int\000"
 8888 0040 02       		.uleb128 0x2
 8889 0041 76010000 		.4byte	.LASF2
 8890 0045 03       		.byte	0x3
 8891 0046 1B       		.byte	0x1b
 8892 0047 4B000000 		.4byte	0x4b
 8893 004b 03       		.uleb128 0x3
 8894 004c 01       		.byte	0x1
 8895 004d 06       		.byte	0x6
 8896 004e DA0A0000 		.4byte	.LASF3
 8897 0052 02       		.uleb128 0x2
 8898 0053 A1120000 		.4byte	.LASF4
 8899 0057 03       		.byte	0x3
 8900 0058 1C       		.byte	0x1c
 8901 0059 5D000000 		.4byte	0x5d
 8902 005d 03       		.uleb128 0x3
 8903 005e 01       		.byte	0x1
 8904 005f 08       		.byte	0x8
 8905 0060 67150000 		.4byte	.LASF5
 8906 0064 02       		.uleb128 0x2
 8907 0065 C00C0000 		.4byte	.LASF6
 8908 0069 03       		.byte	0x3
 8909 006a 25       		.byte	0x25
 8910 006b 6F000000 		.4byte	0x6f
 8911 006f 03       		.uleb128 0x3
 8912 0070 02       		.byte	0x2
 8913 0071 05       		.byte	0x5
 8914 0072 CE100000 		.4byte	.LASF7
 8915 0076 02       		.uleb128 0x2
 8916 0077 FC080000 		.4byte	.LASF8
 8917 007b 03       		.byte	0x3
 8918 007c 26       		.byte	0x26
 8919 007d 81000000 		.4byte	0x81
 8920 0081 03       		.uleb128 0x3
 8921 0082 02       		.byte	0x2
 8922 0083 07       		.byte	0x7
 8923 0084 97170000 		.4byte	.LASF9
 8924 0088 02       		.uleb128 0x2
 8925 0089 E4010000 		.4byte	.LASF10
 8926 008d 03       		.byte	0x3
 8927 008e 37       		.byte	0x37
 8928 008f 93000000 		.4byte	0x93
 8929 0093 03       		.uleb128 0x3
 8930 0094 04       		.byte	0x4
ARM GAS  /tmp/ccNtBBEs.s 			page 162


 8931 0095 05       		.byte	0x5
 8932 0096 30110000 		.4byte	.LASF11
 8933 009a 02       		.uleb128 0x2
 8934 009b 89150000 		.4byte	.LASF12
 8935 009f 03       		.byte	0x3
 8936 00a0 38       		.byte	0x38
 8937 00a1 A5000000 		.4byte	0xa5
 8938 00a5 03       		.uleb128 0x3
 8939 00a6 04       		.byte	0x4
 8940 00a7 07       		.byte	0x7
 8941 00a8 58140000 		.4byte	.LASF13
 8942 00ac 03       		.uleb128 0x3
 8943 00ad 08       		.byte	0x8
 8944 00ae 05       		.byte	0x5
 8945 00af D60B0000 		.4byte	.LASF14
 8946 00b3 02       		.uleb128 0x2
 8947 00b4 26080000 		.4byte	.LASF15
 8948 00b8 03       		.byte	0x3
 8949 00b9 4E       		.byte	0x4e
 8950 00ba BE000000 		.4byte	0xbe
 8951 00be 03       		.uleb128 0x3
 8952 00bf 08       		.byte	0x8
 8953 00c0 07       		.byte	0x7
 8954 00c1 C0040000 		.4byte	.LASF16
 8955 00c5 03       		.uleb128 0x3
 8956 00c6 04       		.byte	0x4
 8957 00c7 07       		.byte	0x7
 8958 00c8 210D0000 		.4byte	.LASF17
 8959 00cc 03       		.uleb128 0x3
 8960 00cd 01       		.byte	0x1
 8961 00ce 08       		.byte	0x8
 8962 00cf 4D000000 		.4byte	.LASF18
 8963 00d3 06       		.uleb128 0x6
 8964 00d4 04       		.byte	0x4
 8965 00d5 D9000000 		.4byte	0xd9
 8966 00d9 07       		.uleb128 0x7
 8967 00da CC000000 		.4byte	0xcc
 8968 00de 08       		.uleb128 0x8
 8969 00df CC000000 		.4byte	0xcc
 8970 00e3 EE000000 		.4byte	0xee
 8971 00e7 09       		.uleb128 0x9
 8972 00e8 C5000000 		.4byte	0xc5
 8973 00ec 07       		.byte	0x7
 8974 00ed 00       		.byte	0
 8975 00ee 02       		.uleb128 0x2
 8976 00ef 6D040000 		.4byte	.LASF19
 8977 00f3 04       		.byte	0x4
 8978 00f4 29       		.byte	0x29
 8979 00f5 40000000 		.4byte	0x40
 8980 00f9 02       		.uleb128 0x2
 8981 00fa A60A0000 		.4byte	.LASF20
 8982 00fe 04       		.byte	0x4
 8983 00ff 2A       		.byte	0x2a
 8984 0100 52000000 		.4byte	0x52
 8985 0104 02       		.uleb128 0x2
 8986 0105 C0110000 		.4byte	.LASF21
 8987 0109 04       		.byte	0x4
ARM GAS  /tmp/ccNtBBEs.s 			page 163


 8988 010a 35       		.byte	0x35
 8989 010b 64000000 		.4byte	0x64
 8990 010f 02       		.uleb128 0x2
 8991 0110 310F0000 		.4byte	.LASF22
 8992 0114 04       		.byte	0x4
 8993 0115 36       		.byte	0x36
 8994 0116 76000000 		.4byte	0x76
 8995 011a 02       		.uleb128 0x2
 8996 011b C0140000 		.4byte	.LASF23
 8997 011f 04       		.byte	0x4
 8998 0120 41       		.byte	0x41
 8999 0121 88000000 		.4byte	0x88
 9000 0125 02       		.uleb128 0x2
 9001 0126 64040000 		.4byte	.LASF24
 9002 012a 04       		.byte	0x4
 9003 012b 42       		.byte	0x42
 9004 012c 9A000000 		.4byte	0x9a
 9005 0130 02       		.uleb128 0x2
 9006 0131 34120000 		.4byte	.LASF25
 9007 0135 04       		.byte	0x4
 9008 0136 4E       		.byte	0x4e
 9009 0137 B3000000 		.4byte	0xb3
 9010 013b 0A       		.uleb128 0xa
 9011 013c 25010000 		.4byte	0x125
 9012 0140 08       		.uleb128 0x8
 9013 0141 F9000000 		.4byte	0xf9
 9014 0145 50010000 		.4byte	0x150
 9015 0149 09       		.uleb128 0x9
 9016 014a C5000000 		.4byte	0xc5
 9017 014e 0B       		.byte	0xb
 9018 014f 00       		.byte	0
 9019 0150 0B       		.uleb128 0xb
 9020 0151 10       		.byte	0x10
 9021 0152 05       		.byte	0x5
 9022 0153 A701     		.2byte	0x1a7
 9023 0155 8E010000 		.4byte	0x18e
 9024 0159 0C       		.uleb128 0xc
 9025 015a 43435200 		.ascii	"CCR\000"
 9026 015e 05       		.byte	0x5
 9027 015f A901     		.2byte	0x1a9
 9028 0161 3B010000 		.4byte	0x13b
 9029 0165 00       		.byte	0
 9030 0166 0D       		.uleb128 0xd
 9031 0167 C2030000 		.4byte	.LASF26
 9032 016b 05       		.byte	0x5
 9033 016c AA01     		.2byte	0x1aa
 9034 016e 3B010000 		.4byte	0x13b
 9035 0172 04       		.byte	0x4
 9036 0173 0D       		.uleb128 0xd
 9037 0174 E3060000 		.4byte	.LASF27
 9038 0178 05       		.byte	0x5
 9039 0179 AB01     		.2byte	0x1ab
 9040 017b 3B010000 		.4byte	0x13b
 9041 017f 08       		.byte	0x8
 9042 0180 0D       		.uleb128 0xd
 9043 0181 20060000 		.4byte	.LASF28
 9044 0185 05       		.byte	0x5
ARM GAS  /tmp/ccNtBBEs.s 			page 164


 9045 0186 AC01     		.2byte	0x1ac
 9046 0188 3B010000 		.4byte	0x13b
 9047 018c 0C       		.byte	0xc
 9048 018d 00       		.byte	0
 9049 018e 0E       		.uleb128 0xe
 9050 018f 490D0000 		.4byte	.LASF29
 9051 0193 05       		.byte	0x5
 9052 0194 AD01     		.2byte	0x1ad
 9053 0196 50010000 		.4byte	0x150
 9054 019a 0B       		.uleb128 0xb
 9055 019b 08       		.byte	0x8
 9056 019c 05       		.byte	0x5
 9057 019d AF01     		.2byte	0x1af
 9058 019f BE010000 		.4byte	0x1be
 9059 01a3 0C       		.uleb128 0xc
 9060 01a4 49535200 		.ascii	"ISR\000"
 9061 01a8 05       		.byte	0x5
 9062 01a9 B101     		.2byte	0x1b1
 9063 01ab 3B010000 		.4byte	0x13b
 9064 01af 00       		.byte	0
 9065 01b0 0D       		.uleb128 0xd
 9066 01b1 6A120000 		.4byte	.LASF30
 9067 01b5 05       		.byte	0x5
 9068 01b6 B201     		.2byte	0x1b2
 9069 01b8 3B010000 		.4byte	0x13b
 9070 01bc 04       		.byte	0x4
 9071 01bd 00       		.byte	0
 9072 01be 0E       		.uleb128 0xe
 9073 01bf 18070000 		.4byte	.LASF31
 9074 01c3 05       		.byte	0x5
 9075 01c4 B301     		.2byte	0x1b3
 9076 01c6 9A010000 		.4byte	0x19a
 9077 01ca 08       		.uleb128 0x8
 9078 01cb 25010000 		.4byte	0x125
 9079 01cf DA010000 		.4byte	0x1da
 9080 01d3 09       		.uleb128 0x9
 9081 01d4 C5000000 		.4byte	0xc5
 9082 01d8 0F       		.byte	0xf
 9083 01d9 00       		.byte	0
 9084 01da 0B       		.uleb128 0xb
 9085 01db 68       		.byte	0x68
 9086 01dc 05       		.byte	0x5
 9087 01dd 9303     		.2byte	0x393
 9088 01df 35030000 		.4byte	0x335
 9089 01e3 0C       		.uleb128 0xc
 9090 01e4 43523100 		.ascii	"CR1\000"
 9091 01e8 05       		.byte	0x5
 9092 01e9 9503     		.2byte	0x395
 9093 01eb 3B010000 		.4byte	0x13b
 9094 01ef 00       		.byte	0
 9095 01f0 0C       		.uleb128 0xc
 9096 01f1 43523200 		.ascii	"CR2\000"
 9097 01f5 05       		.byte	0x5
 9098 01f6 9603     		.2byte	0x396
 9099 01f8 3B010000 		.4byte	0x13b
 9100 01fc 04       		.byte	0x4
 9101 01fd 0D       		.uleb128 0xd
ARM GAS  /tmp/ccNtBBEs.s 			page 165


 9102 01fe 000B0000 		.4byte	.LASF32
 9103 0202 05       		.byte	0x5
 9104 0203 9703     		.2byte	0x397
 9105 0205 3B010000 		.4byte	0x13b
 9106 0209 08       		.byte	0x8
 9107 020a 0D       		.uleb128 0xd
 9108 020b 3F080000 		.4byte	.LASF33
 9109 020f 05       		.byte	0x5
 9110 0210 9803     		.2byte	0x398
 9111 0212 3B010000 		.4byte	0x13b
 9112 0216 0C       		.byte	0xc
 9113 0217 0C       		.uleb128 0xc
 9114 0218 535200   		.ascii	"SR\000"
 9115 021b 05       		.byte	0x5
 9116 021c 9903     		.2byte	0x399
 9117 021e 3B010000 		.4byte	0x13b
 9118 0222 10       		.byte	0x10
 9119 0223 0C       		.uleb128 0xc
 9120 0224 45475200 		.ascii	"EGR\000"
 9121 0228 05       		.byte	0x5
 9122 0229 9A03     		.2byte	0x39a
 9123 022b 3B010000 		.4byte	0x13b
 9124 022f 14       		.byte	0x14
 9125 0230 0D       		.uleb128 0xd
 9126 0231 5A0E0000 		.4byte	.LASF34
 9127 0235 05       		.byte	0x5
 9128 0236 9B03     		.2byte	0x39b
 9129 0238 3B010000 		.4byte	0x13b
 9130 023c 18       		.byte	0x18
 9131 023d 0D       		.uleb128 0xd
 9132 023e 31000000 		.4byte	.LASF35
 9133 0242 05       		.byte	0x5
 9134 0243 9C03     		.2byte	0x39c
 9135 0245 3B010000 		.4byte	0x13b
 9136 0249 1C       		.byte	0x1c
 9137 024a 0D       		.uleb128 0xd
 9138 024b E9090000 		.4byte	.LASF36
 9139 024f 05       		.byte	0x5
 9140 0250 9D03     		.2byte	0x39d
 9141 0252 3B010000 		.4byte	0x13b
 9142 0256 20       		.byte	0x20
 9143 0257 0C       		.uleb128 0xc
 9144 0258 434E5400 		.ascii	"CNT\000"
 9145 025c 05       		.byte	0x5
 9146 025d 9E03     		.2byte	0x39e
 9147 025f 3B010000 		.4byte	0x13b
 9148 0263 24       		.byte	0x24
 9149 0264 0C       		.uleb128 0xc
 9150 0265 50534300 		.ascii	"PSC\000"
 9151 0269 05       		.byte	0x5
 9152 026a 9F03     		.2byte	0x39f
 9153 026c 3B010000 		.4byte	0x13b
 9154 0270 28       		.byte	0x28
 9155 0271 0C       		.uleb128 0xc
 9156 0272 41525200 		.ascii	"ARR\000"
 9157 0276 05       		.byte	0x5
 9158 0277 A003     		.2byte	0x3a0
ARM GAS  /tmp/ccNtBBEs.s 			page 166


 9159 0279 3B010000 		.4byte	0x13b
 9160 027d 2C       		.byte	0x2c
 9161 027e 0C       		.uleb128 0xc
 9162 027f 52435200 		.ascii	"RCR\000"
 9163 0283 05       		.byte	0x5
 9164 0284 A103     		.2byte	0x3a1
 9165 0286 3B010000 		.4byte	0x13b
 9166 028a 30       		.byte	0x30
 9167 028b 0D       		.uleb128 0xd
 9168 028c 16050000 		.4byte	.LASF37
 9169 0290 05       		.byte	0x5
 9170 0291 A203     		.2byte	0x3a2
 9171 0293 3B010000 		.4byte	0x13b
 9172 0297 34       		.byte	0x34
 9173 0298 0D       		.uleb128 0xd
 9174 0299 B4150000 		.4byte	.LASF38
 9175 029d 05       		.byte	0x5
 9176 029e A303     		.2byte	0x3a3
 9177 02a0 3B010000 		.4byte	0x13b
 9178 02a4 38       		.byte	0x38
 9179 02a5 0D       		.uleb128 0xd
 9180 02a6 2B050000 		.4byte	.LASF39
 9181 02aa 05       		.byte	0x5
 9182 02ab A403     		.2byte	0x3a4
 9183 02ad 3B010000 		.4byte	0x13b
 9184 02b1 3C       		.byte	0x3c
 9185 02b2 0D       		.uleb128 0xd
 9186 02b3 30050000 		.4byte	.LASF40
 9187 02b7 05       		.byte	0x5
 9188 02b8 A503     		.2byte	0x3a5
 9189 02ba 3B010000 		.4byte	0x13b
 9190 02be 40       		.byte	0x40
 9191 02bf 0D       		.uleb128 0xd
 9192 02c0 B4040000 		.4byte	.LASF41
 9193 02c4 05       		.byte	0x5
 9194 02c5 A603     		.2byte	0x3a6
 9195 02c7 3B010000 		.4byte	0x13b
 9196 02cb 44       		.byte	0x44
 9197 02cc 0C       		.uleb128 0xc
 9198 02cd 44435200 		.ascii	"DCR\000"
 9199 02d1 05       		.byte	0x5
 9200 02d2 A703     		.2byte	0x3a7
 9201 02d4 3B010000 		.4byte	0x13b
 9202 02d8 48       		.byte	0x48
 9203 02d9 0D       		.uleb128 0xd
 9204 02da 2E030000 		.4byte	.LASF42
 9205 02de 05       		.byte	0x5
 9206 02df A803     		.2byte	0x3a8
 9207 02e1 3B010000 		.4byte	0x13b
 9208 02e5 4C       		.byte	0x4c
 9209 02e6 0C       		.uleb128 0xc
 9210 02e7 4F523100 		.ascii	"OR1\000"
 9211 02eb 05       		.byte	0x5
 9212 02ec A903     		.2byte	0x3a9
 9213 02ee 3B010000 		.4byte	0x13b
 9214 02f2 50       		.byte	0x50
 9215 02f3 0D       		.uleb128 0xd
ARM GAS  /tmp/ccNtBBEs.s 			page 167


 9216 02f4 68050000 		.4byte	.LASF43
 9217 02f8 05       		.byte	0x5
 9218 02f9 AA03     		.2byte	0x3aa
 9219 02fb 3B010000 		.4byte	0x13b
 9220 02ff 54       		.byte	0x54
 9221 0300 0D       		.uleb128 0xd
 9222 0301 FE150000 		.4byte	.LASF44
 9223 0305 05       		.byte	0x5
 9224 0306 AB03     		.2byte	0x3ab
 9225 0308 3B010000 		.4byte	0x13b
 9226 030c 58       		.byte	0x58
 9227 030d 0D       		.uleb128 0xd
 9228 030e 46050000 		.4byte	.LASF45
 9229 0312 05       		.byte	0x5
 9230 0313 AC03     		.2byte	0x3ac
 9231 0315 3B010000 		.4byte	0x13b
 9232 0319 5C       		.byte	0x5c
 9233 031a 0C       		.uleb128 0xc
 9234 031b 4F523200 		.ascii	"OR2\000"
 9235 031f 05       		.byte	0x5
 9236 0320 AD03     		.2byte	0x3ad
 9237 0322 3B010000 		.4byte	0x13b
 9238 0326 60       		.byte	0x60
 9239 0327 0C       		.uleb128 0xc
 9240 0328 4F523300 		.ascii	"OR3\000"
 9241 032c 05       		.byte	0x5
 9242 032d AE03     		.2byte	0x3ae
 9243 032f 3B010000 		.4byte	0x13b
 9244 0333 64       		.byte	0x64
 9245 0334 00       		.byte	0
 9246 0335 0E       		.uleb128 0xe
 9247 0336 21040000 		.4byte	.LASF46
 9248 033a 05       		.byte	0x5
 9249 033b AF03     		.2byte	0x3af
 9250 033d DA010000 		.4byte	0x1da
 9251 0341 0F       		.uleb128 0xf
 9252 0342 01       		.byte	0x1
 9253 0343 06       		.byte	0x6
 9254 0344 3A       		.byte	0x3a
 9255 0345 62030000 		.4byte	0x362
 9256 0349 10       		.uleb128 0x10
 9257 034a 63060000 		.4byte	.LASF47
 9258 034e 00       		.sleb128 0
 9259 034f 10       		.uleb128 0x10
 9260 0350 8E050000 		.4byte	.LASF48
 9261 0354 01       		.sleb128 1
 9262 0355 10       		.uleb128 0x10
 9263 0356 BB010000 		.4byte	.LASF49
 9264 035a 02       		.sleb128 2
 9265 035b 10       		.uleb128 0x10
 9266 035c AA030000 		.4byte	.LASF50
 9267 0360 03       		.sleb128 3
 9268 0361 00       		.byte	0
 9269 0362 0F       		.uleb128 0xf
 9270 0363 01       		.byte	0x1
 9271 0364 06       		.byte	0x6
 9272 0365 45       		.byte	0x45
ARM GAS  /tmp/ccNtBBEs.s 			page 168


 9273 0366 77030000 		.4byte	0x377
 9274 036a 10       		.uleb128 0x10
 9275 036b 44080000 		.4byte	.LASF51
 9276 036f 00       		.sleb128 0
 9277 0370 10       		.uleb128 0x10
 9278 0371 7F000000 		.4byte	.LASF52
 9279 0375 01       		.sleb128 1
 9280 0376 00       		.byte	0
 9281 0377 02       		.uleb128 0x2
 9282 0378 97130000 		.4byte	.LASF53
 9283 037c 06       		.byte	0x6
 9284 037d 48       		.byte	0x48
 9285 037e 62030000 		.4byte	0x362
 9286 0382 11       		.uleb128 0x11
 9287 0383 20       		.byte	0x20
 9288 0384 07       		.byte	0x7
 9289 0385 42       		.byte	0x42
 9290 0386 EB030000 		.4byte	0x3eb
 9291 038a 12       		.uleb128 0x12
 9292 038b 51030000 		.4byte	.LASF54
 9293 038f 07       		.byte	0x7
 9294 0390 44       		.byte	0x44
 9295 0391 25010000 		.4byte	0x125
 9296 0395 00       		.byte	0
 9297 0396 12       		.uleb128 0x12
 9298 0397 28150000 		.4byte	.LASF55
 9299 039b 07       		.byte	0x7
 9300 039c 47       		.byte	0x47
 9301 039d 25010000 		.4byte	0x125
 9302 03a1 04       		.byte	0x4
 9303 03a2 12       		.uleb128 0x12
 9304 03a3 5E190000 		.4byte	.LASF56
 9305 03a7 07       		.byte	0x7
 9306 03a8 4B       		.byte	0x4b
 9307 03a9 25010000 		.4byte	0x125
 9308 03ad 08       		.byte	0x8
 9309 03ae 12       		.uleb128 0x12
 9310 03af 6F010000 		.4byte	.LASF57
 9311 03b3 07       		.byte	0x7
 9312 03b4 4E       		.byte	0x4e
 9313 03b5 25010000 		.4byte	0x125
 9314 03b9 0C       		.byte	0xc
 9315 03ba 12       		.uleb128 0x12
 9316 03bb 61070000 		.4byte	.LASF58
 9317 03bf 07       		.byte	0x7
 9318 03c0 51       		.byte	0x51
 9319 03c1 25010000 		.4byte	0x125
 9320 03c5 10       		.byte	0x10
 9321 03c6 12       		.uleb128 0x12
 9322 03c7 E6110000 		.4byte	.LASF59
 9323 03cb 07       		.byte	0x7
 9324 03cc 54       		.byte	0x54
 9325 03cd 25010000 		.4byte	0x125
 9326 03d1 14       		.byte	0x14
 9327 03d2 12       		.uleb128 0x12
 9328 03d3 7C170000 		.4byte	.LASF60
 9329 03d7 07       		.byte	0x7
ARM GAS  /tmp/ccNtBBEs.s 			page 169


 9330 03d8 57       		.byte	0x57
 9331 03d9 25010000 		.4byte	0x125
 9332 03dd 18       		.byte	0x18
 9333 03de 12       		.uleb128 0x12
 9334 03df 82020000 		.4byte	.LASF61
 9335 03e3 07       		.byte	0x7
 9336 03e4 5C       		.byte	0x5c
 9337 03e5 25010000 		.4byte	0x125
 9338 03e9 1C       		.byte	0x1c
 9339 03ea 00       		.byte	0
 9340 03eb 02       		.uleb128 0x2
 9341 03ec 0D110000 		.4byte	.LASF62
 9342 03f0 07       		.byte	0x7
 9343 03f1 5E       		.byte	0x5e
 9344 03f2 82030000 		.4byte	0x382
 9345 03f6 0F       		.uleb128 0xf
 9346 03f7 01       		.byte	0x1
 9347 03f8 07       		.byte	0x7
 9348 03f9 64       		.byte	0x64
 9349 03fa 17040000 		.4byte	0x417
 9350 03fe 10       		.uleb128 0x10
 9351 03ff 04030000 		.4byte	.LASF63
 9352 0403 00       		.sleb128 0
 9353 0404 10       		.uleb128 0x10
 9354 0405 5A180000 		.4byte	.LASF64
 9355 0409 01       		.sleb128 1
 9356 040a 10       		.uleb128 0x10
 9357 040b F1140000 		.4byte	.LASF65
 9358 040f 02       		.sleb128 2
 9359 0410 10       		.uleb128 0x10
 9360 0411 38040000 		.4byte	.LASF66
 9361 0415 03       		.sleb128 3
 9362 0416 00       		.byte	0
 9363 0417 02       		.uleb128 0x2
 9364 0418 75070000 		.4byte	.LASF67
 9365 041c 07       		.byte	0x7
 9366 041d 69       		.byte	0x69
 9367 041e F6030000 		.4byte	0x3f6
 9368 0422 13       		.uleb128 0x13
 9369 0423 7D0B0000 		.4byte	.LASF168
 9370 0427 48       		.byte	0x48
 9371 0428 07       		.byte	0x7
 9372 0429 85       		.byte	0x85
 9373 042a BF040000 		.4byte	0x4bf
 9374 042e 12       		.uleb128 0x12
 9375 042f 16120000 		.4byte	.LASF68
 9376 0433 07       		.byte	0x7
 9377 0434 87       		.byte	0x87
 9378 0435 BF040000 		.4byte	0x4bf
 9379 0439 00       		.byte	0
 9380 043a 12       		.uleb128 0x12
 9381 043b 24070000 		.4byte	.LASF69
 9382 043f 07       		.byte	0x7
 9383 0440 89       		.byte	0x89
 9384 0441 EB030000 		.4byte	0x3eb
 9385 0445 04       		.byte	0x4
 9386 0446 12       		.uleb128 0x12
ARM GAS  /tmp/ccNtBBEs.s 			page 170


 9387 0447 8A000000 		.4byte	.LASF70
 9388 044b 07       		.byte	0x7
 9389 044c 8B       		.byte	0x8b
 9390 044d 77030000 		.4byte	0x377
 9391 0451 24       		.byte	0x24
 9392 0452 12       		.uleb128 0x12
 9393 0453 B8020000 		.4byte	.LASF71
 9394 0457 07       		.byte	0x7
 9395 0458 8D       		.byte	0x8d
 9396 0459 C5040000 		.4byte	0x4c5
 9397 045d 25       		.byte	0x25
 9398 045e 12       		.uleb128 0x12
 9399 045f B0060000 		.4byte	.LASF72
 9400 0463 07       		.byte	0x7
 9401 0464 8F       		.byte	0x8f
 9402 0465 37000000 		.4byte	0x37
 9403 0469 28       		.byte	0x28
 9404 046a 12       		.uleb128 0x12
 9405 046b 41020000 		.4byte	.LASF73
 9406 046f 07       		.byte	0x7
 9407 0470 91       		.byte	0x91
 9408 0471 DB040000 		.4byte	0x4db
 9409 0475 2C       		.byte	0x2c
 9410 0476 12       		.uleb128 0x12
 9411 0477 29180000 		.4byte	.LASF74
 9412 047b 07       		.byte	0x7
 9413 047c 93       		.byte	0x93
 9414 047d DB040000 		.4byte	0x4db
 9415 0481 30       		.byte	0x30
 9416 0482 12       		.uleb128 0x12
 9417 0483 F3070000 		.4byte	.LASF75
 9418 0487 07       		.byte	0x7
 9419 0488 95       		.byte	0x95
 9420 0489 DB040000 		.4byte	0x4db
 9421 048d 34       		.byte	0x34
 9422 048e 12       		.uleb128 0x12
 9423 048f B3180000 		.4byte	.LASF76
 9424 0493 07       		.byte	0x7
 9425 0494 97       		.byte	0x97
 9426 0495 DB040000 		.4byte	0x4db
 9427 0499 38       		.byte	0x38
 9428 049a 12       		.uleb128 0x12
 9429 049b 3E0E0000 		.4byte	.LASF77
 9430 049f 07       		.byte	0x7
 9431 04a0 99       		.byte	0x99
 9432 04a1 3B010000 		.4byte	0x13b
 9433 04a5 3C       		.byte	0x3c
 9434 04a6 12       		.uleb128 0x12
 9435 04a7 DB0E0000 		.4byte	.LASF78
 9436 04ab 07       		.byte	0x7
 9437 04ac 9B       		.byte	0x9b
 9438 04ad E1040000 		.4byte	0x4e1
 9439 04b1 40       		.byte	0x40
 9440 04b2 12       		.uleb128 0x12
 9441 04b3 D6060000 		.4byte	.LASF79
 9442 04b7 07       		.byte	0x7
 9443 04b8 9D       		.byte	0x9d
ARM GAS  /tmp/ccNtBBEs.s 			page 171


 9444 04b9 25010000 		.4byte	0x125
 9445 04bd 44       		.byte	0x44
 9446 04be 00       		.byte	0
 9447 04bf 06       		.uleb128 0x6
 9448 04c0 04       		.byte	0x4
 9449 04c1 8E010000 		.4byte	0x18e
 9450 04c5 0A       		.uleb128 0xa
 9451 04c6 17040000 		.4byte	0x417
 9452 04ca 14       		.uleb128 0x14
 9453 04cb D5040000 		.4byte	0x4d5
 9454 04cf 15       		.uleb128 0x15
 9455 04d0 D5040000 		.4byte	0x4d5
 9456 04d4 00       		.byte	0
 9457 04d5 06       		.uleb128 0x6
 9458 04d6 04       		.byte	0x4
 9459 04d7 22040000 		.4byte	0x422
 9460 04db 06       		.uleb128 0x6
 9461 04dc 04       		.byte	0x4
 9462 04dd CA040000 		.4byte	0x4ca
 9463 04e1 06       		.uleb128 0x6
 9464 04e2 04       		.byte	0x4
 9465 04e3 BE010000 		.4byte	0x1be
 9466 04e7 02       		.uleb128 0x2
 9467 04e8 51080000 		.4byte	.LASF80
 9468 04ec 07       		.byte	0x7
 9469 04ed 9E       		.byte	0x9e
 9470 04ee 22040000 		.4byte	0x422
 9471 04f2 06       		.uleb128 0x6
 9472 04f3 04       		.byte	0x4
 9473 04f4 E7040000 		.4byte	0x4e7
 9474 04f8 06       		.uleb128 0x6
 9475 04f9 04       		.byte	0x4
 9476 04fa F9000000 		.4byte	0xf9
 9477 04fe 11       		.uleb128 0x11
 9478 04ff 14       		.byte	0x14
 9479 0500 08       		.byte	0x8
 9480 0501 41       		.byte	0x41
 9481 0502 43050000 		.4byte	0x543
 9482 0506 12       		.uleb128 0x12
 9483 0507 C1090000 		.4byte	.LASF81
 9484 050b 08       		.byte	0x8
 9485 050c 43       		.byte	0x43
 9486 050d 25010000 		.4byte	0x125
 9487 0511 00       		.byte	0
 9488 0512 12       		.uleb128 0x12
 9489 0513 01180000 		.4byte	.LASF82
 9490 0517 08       		.byte	0x8
 9491 0518 46       		.byte	0x46
 9492 0519 25010000 		.4byte	0x125
 9493 051d 04       		.byte	0x4
 9494 051e 12       		.uleb128 0x12
 9495 051f F20C0000 		.4byte	.LASF83
 9496 0523 08       		.byte	0x8
 9497 0524 49       		.byte	0x49
 9498 0525 25010000 		.4byte	0x125
 9499 0529 08       		.byte	0x8
 9500 052a 12       		.uleb128 0x12
ARM GAS  /tmp/ccNtBBEs.s 			page 172


 9501 052b 6E170000 		.4byte	.LASF84
 9502 052f 08       		.byte	0x8
 9503 0530 4D       		.byte	0x4d
 9504 0531 25010000 		.4byte	0x125
 9505 0535 0C       		.byte	0xc
 9506 0536 12       		.uleb128 0x12
 9507 0537 5B100000 		.4byte	.LASF85
 9508 053b 08       		.byte	0x8
 9509 053c 50       		.byte	0x50
 9510 053d 25010000 		.4byte	0x125
 9511 0541 10       		.byte	0x10
 9512 0542 00       		.byte	0
 9513 0543 02       		.uleb128 0x2
 9514 0544 DA160000 		.4byte	.LASF86
 9515 0548 08       		.byte	0x8
 9516 0549 58       		.byte	0x58
 9517 054a FE040000 		.4byte	0x4fe
 9518 054e 16       		.uleb128 0x16
 9519 054f 01       		.byte	0x1
 9520 0550 08       		.byte	0x8
 9521 0551 3501     		.2byte	0x135
 9522 0553 76050000 		.4byte	0x576
 9523 0557 10       		.uleb128 0x10
 9524 0558 720A0000 		.4byte	.LASF87
 9525 055c 00       		.sleb128 0
 9526 055d 10       		.uleb128 0x10
 9527 055e 33190000 		.4byte	.LASF88
 9528 0562 01       		.sleb128 1
 9529 0563 10       		.uleb128 0x10
 9530 0564 2B140000 		.4byte	.LASF89
 9531 0568 02       		.sleb128 2
 9532 0569 10       		.uleb128 0x10
 9533 056a 780D0000 		.4byte	.LASF90
 9534 056e 03       		.sleb128 3
 9535 056f 10       		.uleb128 0x10
 9536 0570 340B0000 		.4byte	.LASF91
 9537 0574 04       		.sleb128 4
 9538 0575 00       		.byte	0
 9539 0576 0E       		.uleb128 0xe
 9540 0577 34060000 		.4byte	.LASF92
 9541 057b 08       		.byte	0x8
 9542 057c 3B01     		.2byte	0x13b
 9543 057e 4E050000 		.4byte	0x54e
 9544 0582 16       		.uleb128 0x16
 9545 0583 01       		.byte	0x1
 9546 0584 08       		.byte	0x8
 9547 0585 4101     		.2byte	0x141
 9548 0587 B6050000 		.4byte	0x5b6
 9549 058b 10       		.uleb128 0x10
 9550 058c A40F0000 		.4byte	.LASF93
 9551 0590 01       		.sleb128 1
 9552 0591 10       		.uleb128 0x10
 9553 0592 BD0F0000 		.4byte	.LASF94
 9554 0596 02       		.sleb128 2
 9555 0597 10       		.uleb128 0x10
 9556 0598 D60F0000 		.4byte	.LASF95
 9557 059c 04       		.sleb128 4
ARM GAS  /tmp/ccNtBBEs.s 			page 173


 9558 059d 10       		.uleb128 0x10
 9559 059e 6A140000 		.4byte	.LASF96
 9560 05a2 08       		.sleb128 8
 9561 05a3 10       		.uleb128 0x10
 9562 05a4 EF0F0000 		.4byte	.LASF97
 9563 05a8 10       		.sleb128 16
 9564 05a9 10       		.uleb128 0x10
 9565 05aa 95140000 		.4byte	.LASF98
 9566 05ae 20       		.sleb128 32
 9567 05af 10       		.uleb128 0x10
 9568 05b0 EE010000 		.4byte	.LASF99
 9569 05b4 00       		.sleb128 0
 9570 05b5 00       		.byte	0
 9571 05b6 0E       		.uleb128 0xe
 9572 05b7 EA0E0000 		.4byte	.LASF100
 9573 05bb 08       		.byte	0x8
 9574 05bc 4901     		.2byte	0x149
 9575 05be 82050000 		.4byte	0x582
 9576 05c2 0B       		.uleb128 0xb
 9577 05c3 3C       		.byte	0x3c
 9578 05c4 08       		.byte	0x8
 9579 05c5 4E01     		.2byte	0x14e
 9580 05c7 1A060000 		.4byte	0x61a
 9581 05cb 0D       		.uleb128 0xd
 9582 05cc 16120000 		.4byte	.LASF68
 9583 05d0 08       		.byte	0x8
 9584 05d1 5001     		.2byte	0x150
 9585 05d3 1A060000 		.4byte	0x61a
 9586 05d7 00       		.byte	0
 9587 05d8 0D       		.uleb128 0xd
 9588 05d9 24070000 		.4byte	.LASF69
 9589 05dd 08       		.byte	0x8
 9590 05de 5101     		.2byte	0x151
 9591 05e0 43050000 		.4byte	0x543
 9592 05e4 04       		.byte	0x4
 9593 05e5 0D       		.uleb128 0xd
 9594 05e6 C8140000 		.4byte	.LASF101
 9595 05ea 08       		.byte	0x8
 9596 05eb 5201     		.2byte	0x152
 9597 05ed B6050000 		.4byte	0x5b6
 9598 05f1 18       		.byte	0x18
 9599 05f2 0D       		.uleb128 0xd
 9600 05f3 48000000 		.4byte	.LASF102
 9601 05f7 08       		.byte	0x8
 9602 05f8 5301     		.2byte	0x153
 9603 05fa 20060000 		.4byte	0x620
 9604 05fe 1C       		.byte	0x1c
 9605 05ff 0D       		.uleb128 0xd
 9606 0600 8A000000 		.4byte	.LASF70
 9607 0604 08       		.byte	0x8
 9608 0605 5501     		.2byte	0x155
 9609 0607 77030000 		.4byte	0x377
 9610 060b 38       		.byte	0x38
 9611 060c 0D       		.uleb128 0xd
 9612 060d B8020000 		.4byte	.LASF71
 9613 0611 08       		.byte	0x8
 9614 0612 5601     		.2byte	0x156
ARM GAS  /tmp/ccNtBBEs.s 			page 174


 9615 0614 30060000 		.4byte	0x630
 9616 0618 39       		.byte	0x39
 9617 0619 00       		.byte	0
 9618 061a 06       		.uleb128 0x6
 9619 061b 04       		.byte	0x4
 9620 061c 35030000 		.4byte	0x335
 9621 0620 08       		.uleb128 0x8
 9622 0621 F2040000 		.4byte	0x4f2
 9623 0625 30060000 		.4byte	0x630
 9624 0629 09       		.uleb128 0x9
 9625 062a C5000000 		.4byte	0xc5
 9626 062e 06       		.byte	0x6
 9627 062f 00       		.byte	0
 9628 0630 0A       		.uleb128 0xa
 9629 0631 76050000 		.4byte	0x576
 9630 0635 0E       		.uleb128 0xe
 9631 0636 7A120000 		.4byte	.LASF103
 9632 063a 08       		.byte	0x8
 9633 063b 5701     		.2byte	0x157
 9634 063d C2050000 		.4byte	0x5c2
 9635 0641 0F       		.uleb128 0xf
 9636 0642 01       		.byte	0x1
 9637 0643 09       		.byte	0x9
 9638 0644 79       		.byte	0x79
 9639 0645 62060000 		.4byte	0x662
 9640 0649 10       		.uleb128 0x10
 9641 064a 910B0000 		.4byte	.LASF104
 9642 064e 00       		.sleb128 0
 9643 064f 10       		.uleb128 0x10
 9644 0650 D4120000 		.4byte	.LASF105
 9645 0654 01       		.sleb128 1
 9646 0655 10       		.uleb128 0x10
 9647 0656 83140000 		.4byte	.LASF106
 9648 065a 02       		.sleb128 2
 9649 065b 10       		.uleb128 0x10
 9650 065c 78160000 		.4byte	.LASF107
 9651 0660 03       		.sleb128 3
 9652 0661 00       		.byte	0
 9653 0662 11       		.uleb128 0x11
 9654 0663 0C       		.byte	0xc
 9655 0664 0A       		.byte	0xa
 9656 0665 57       		.byte	0x57
 9657 0666 8F060000 		.4byte	0x68f
 9658 066a 12       		.uleb128 0x12
 9659 066b BF0D0000 		.4byte	.LASF108
 9660 066f 0A       		.byte	0xa
 9661 0670 59       		.byte	0x59
 9662 0671 1A010000 		.4byte	0x11a
 9663 0675 00       		.byte	0
 9664 0676 12       		.uleb128 0x12
 9665 0677 C60D0000 		.4byte	.LASF109
 9666 067b 0A       		.byte	0xa
 9667 067c 5A       		.byte	0x5a
 9668 067d 1A010000 		.4byte	0x11a
 9669 0681 04       		.byte	0x4
 9670 0682 12       		.uleb128 0x12
 9671 0683 CD0D0000 		.4byte	.LASF110
ARM GAS  /tmp/ccNtBBEs.s 			page 175


 9672 0687 0A       		.byte	0xa
 9673 0688 5B       		.byte	0x5b
 9674 0689 1A010000 		.4byte	0x11a
 9675 068d 08       		.byte	0x8
 9676 068e 00       		.byte	0
 9677 068f 02       		.uleb128 0x2
 9678 0690 070C0000 		.4byte	.LASF111
 9679 0694 0A       		.byte	0xa
 9680 0695 5C       		.byte	0x5c
 9681 0696 62060000 		.4byte	0x662
 9682 069a 06       		.uleb128 0x6
 9683 069b 04       		.byte	0x4
 9684 069c 8F060000 		.4byte	0x68f
 9685 06a0 03       		.uleb128 0x3
 9686 06a1 04       		.byte	0x4
 9687 06a2 04       		.byte	0x4
 9688 06a3 E7040000 		.4byte	.LASF112
 9689 06a7 06       		.uleb128 0x6
 9690 06a8 04       		.byte	0x4
 9691 06a9 0F010000 		.4byte	0x10f
 9692 06ad 0F       		.uleb128 0xf
 9693 06ae 01       		.byte	0x1
 9694 06af 0B       		.byte	0xb
 9695 06b0 B2       		.byte	0xb2
 9696 06b1 F8060000 		.4byte	0x6f8
 9697 06b5 10       		.uleb128 0x10
 9698 06b6 F80A0000 		.4byte	.LASF113
 9699 06ba 00       		.sleb128 0
 9700 06bb 10       		.uleb128 0x10
 9701 06bc 6D0C0000 		.4byte	.LASF114
 9702 06c0 01       		.sleb128 1
 9703 06c1 10       		.uleb128 0x10
 9704 06c2 01040000 		.4byte	.LASF115
 9705 06c6 02       		.sleb128 2
 9706 06c7 10       		.uleb128 0x10
 9707 06c8 0A070000 		.4byte	.LASF116
 9708 06cc 03       		.sleb128 3
 9709 06cd 10       		.uleb128 0x10
 9710 06ce 68190000 		.4byte	.LASF117
 9711 06d2 04       		.sleb128 4
 9712 06d3 10       		.uleb128 0x10
 9713 06d4 43030000 		.4byte	.LASF118
 9714 06d8 05       		.sleb128 5
 9715 06d9 10       		.uleb128 0x10
 9716 06da D3080000 		.4byte	.LASF119
 9717 06de 06       		.sleb128 6
 9718 06df 10       		.uleb128 0x10
 9719 06e0 D6050000 		.4byte	.LASF120
 9720 06e4 07       		.sleb128 7
 9721 06e5 10       		.uleb128 0x10
 9722 06e6 CE030000 		.4byte	.LASF121
 9723 06ea 08       		.sleb128 8
 9724 06eb 10       		.uleb128 0x10
 9725 06ec 7F110000 		.4byte	.LASF122
 9726 06f0 09       		.sleb128 9
 9727 06f1 10       		.uleb128 0x10
 9728 06f2 1B050000 		.4byte	.LASF123
ARM GAS  /tmp/ccNtBBEs.s 			page 176


 9729 06f6 0A       		.sleb128 10
 9730 06f7 00       		.byte	0
 9731 06f8 02       		.uleb128 0x2
 9732 06f9 AF130000 		.4byte	.LASF124
 9733 06fd 0B       		.byte	0xb
 9734 06fe BE       		.byte	0xbe
 9735 06ff AD060000 		.4byte	0x6ad
 9736 0703 11       		.uleb128 0x11
 9737 0704 2D       		.byte	0x2d
 9738 0705 0B       		.byte	0xb
 9739 0706 C3       		.byte	0xc3
 9740 0707 30070000 		.4byte	0x730
 9741 070b 12       		.uleb128 0x12
 9742 070c 4F160000 		.4byte	.LASF125
 9743 0710 0B       		.byte	0xb
 9744 0711 C4       		.byte	0xc4
 9745 0712 F8060000 		.4byte	0x6f8
 9746 0716 00       		.byte	0
 9747 0717 12       		.uleb128 0x12
 9748 0718 53010000 		.4byte	.LASF126
 9749 071c 0B       		.byte	0xb
 9750 071d C5       		.byte	0xc5
 9751 071e DE000000 		.4byte	0xde
 9752 0722 01       		.byte	0x1
 9753 0723 12       		.uleb128 0x12
 9754 0724 F30D0000 		.4byte	.LASF127
 9755 0728 0B       		.byte	0xb
 9756 0729 C6       		.byte	0xc6
 9757 072a 30070000 		.4byte	0x730
 9758 072e 09       		.byte	0x9
 9759 072f 00       		.byte	0
 9760 0730 08       		.uleb128 0x8
 9761 0731 CC000000 		.4byte	0xcc
 9762 0735 40070000 		.4byte	0x740
 9763 0739 09       		.uleb128 0x9
 9764 073a C5000000 		.4byte	0xc5
 9765 073e 23       		.byte	0x23
 9766 073f 00       		.byte	0
 9767 0740 02       		.uleb128 0x2
 9768 0741 B7160000 		.4byte	.LASF128
 9769 0745 0B       		.byte	0xb
 9770 0746 C7       		.byte	0xc7
 9771 0747 03070000 		.4byte	0x703
 9772 074b 11       		.uleb128 0x11
 9773 074c 20       		.byte	0x20
 9774 074d 0B       		.byte	0xb
 9775 074e CC       		.byte	0xcc
 9776 074f 84070000 		.4byte	0x784
 9777 0753 12       		.uleb128 0x12
 9778 0754 4F160000 		.4byte	.LASF125
 9779 0758 0B       		.byte	0xb
 9780 0759 CD       		.byte	0xcd
 9781 075a 25010000 		.4byte	0x125
 9782 075e 00       		.byte	0
 9783 075f 12       		.uleb128 0x12
 9784 0760 A90E0000 		.4byte	.LASF129
 9785 0764 0B       		.byte	0xb
ARM GAS  /tmp/ccNtBBEs.s 			page 177


 9786 0765 CE       		.byte	0xce
 9787 0766 40010000 		.4byte	0x140
 9788 076a 04       		.byte	0x4
 9789 076b 12       		.uleb128 0x12
 9790 076c AE140000 		.4byte	.LASF130
 9791 0770 0B       		.byte	0xb
 9792 0771 CF       		.byte	0xcf
 9793 0772 40010000 		.4byte	0x140
 9794 0776 10       		.byte	0x10
 9795 0777 12       		.uleb128 0x12
 9796 0778 52180000 		.4byte	.LASF131
 9797 077c 0B       		.byte	0xb
 9798 077d D0       		.byte	0xd0
 9799 077e 25010000 		.4byte	0x125
 9800 0782 1C       		.byte	0x1c
 9801 0783 00       		.byte	0
 9802 0784 02       		.uleb128 0x2
 9803 0785 7B080000 		.4byte	.LASF132
 9804 0789 0B       		.byte	0xb
 9805 078a D1       		.byte	0xd1
 9806 078b 4B070000 		.4byte	0x74b
 9807 078f 11       		.uleb128 0x11
 9808 0790 9C       		.byte	0x9c
 9809 0791 0B       		.byte	0xb
 9810 0792 D6       		.byte	0xd6
 9811 0793 D4070000 		.4byte	0x7d4
 9812 0797 12       		.uleb128 0x12
 9813 0798 4F160000 		.4byte	.LASF125
 9814 079c 0B       		.byte	0xb
 9815 079d D7       		.byte	0xd7
 9816 079e 25010000 		.4byte	0x125
 9817 07a2 00       		.byte	0
 9818 07a3 12       		.uleb128 0x12
 9819 07a4 C50E0000 		.4byte	.LASF133
 9820 07a8 0B       		.byte	0xb
 9821 07a9 D8       		.byte	0xd8
 9822 07aa 25010000 		.4byte	0x125
 9823 07ae 04       		.byte	0x4
 9824 07af 12       		.uleb128 0x12
 9825 07b0 F30D0000 		.4byte	.LASF127
 9826 07b4 0B       		.byte	0xb
 9827 07b5 D9       		.byte	0xd9
 9828 07b6 30070000 		.4byte	0x730
 9829 07ba 08       		.byte	0x8
 9830 07bb 12       		.uleb128 0x12
 9831 07bc 83190000 		.4byte	.LASF134
 9832 07c0 0B       		.byte	0xb
 9833 07c1 DA       		.byte	0xda
 9834 07c2 D4070000 		.4byte	0x7d4
 9835 07c6 2C       		.byte	0x2c
 9836 07c7 12       		.uleb128 0x12
 9837 07c8 05080000 		.4byte	.LASF135
 9838 07cc 0B       		.byte	0xb
 9839 07cd DB       		.byte	0xdb
 9840 07ce CA010000 		.4byte	0x1ca
 9841 07d2 5C       		.byte	0x5c
 9842 07d3 00       		.byte	0
ARM GAS  /tmp/ccNtBBEs.s 			page 178


 9843 07d4 08       		.uleb128 0x8
 9844 07d5 25010000 		.4byte	0x125
 9845 07d9 EA070000 		.4byte	0x7ea
 9846 07dd 09       		.uleb128 0x9
 9847 07de C5000000 		.4byte	0xc5
 9848 07e2 02       		.byte	0x2
 9849 07e3 09       		.uleb128 0x9
 9850 07e4 C5000000 		.4byte	0xc5
 9851 07e8 03       		.byte	0x3
 9852 07e9 00       		.byte	0
 9853 07ea 02       		.uleb128 0x2
 9854 07eb FF090000 		.4byte	.LASF136
 9855 07ef 0B       		.byte	0xb
 9856 07f0 DC       		.byte	0xdc
 9857 07f1 8F070000 		.4byte	0x78f
 9858 07f5 08       		.uleb128 0x8
 9859 07f6 F9000000 		.4byte	0xf9
 9860 07fa 05080000 		.4byte	0x805
 9861 07fe 09       		.uleb128 0x9
 9862 07ff C5000000 		.4byte	0xc5
 9863 0803 0F       		.byte	0xf
 9864 0804 00       		.byte	0
 9865 0805 11       		.uleb128 0x11
 9866 0806 18       		.byte	0x18
 9867 0807 0C       		.byte	0xc
 9868 0808 7D       		.byte	0x7d
 9869 0809 62080000 		.4byte	0x862
 9870 080d 12       		.uleb128 0x12
 9871 080e E9170000 		.4byte	.LASF137
 9872 0812 0C       		.byte	0xc
 9873 0813 7F       		.byte	0x7f
 9874 0814 6F000000 		.4byte	0x6f
 9875 0818 00       		.byte	0
 9876 0819 12       		.uleb128 0x12
 9877 081a F1170000 		.4byte	.LASF138
 9878 081e 0C       		.byte	0xc
 9879 081f 80       		.byte	0x80
 9880 0820 6F000000 		.4byte	0x6f
 9881 0824 02       		.byte	0x2
 9882 0825 12       		.uleb128 0x12
 9883 0826 F9170000 		.4byte	.LASF139
 9884 082a 0C       		.byte	0xc
 9885 082b 81       		.byte	0x81
 9886 082c 6F000000 		.4byte	0x6f
 9887 0830 04       		.byte	0x4
 9888 0831 12       		.uleb128 0x12
 9889 0832 6E0F0000 		.4byte	.LASF140
 9890 0836 0C       		.byte	0xc
 9891 0837 82       		.byte	0x82
 9892 0838 A0060000 		.4byte	0x6a0
 9893 083c 08       		.byte	0x8
 9894 083d 12       		.uleb128 0x12
 9895 083e 600E0000 		.4byte	.LASF141
 9896 0842 0C       		.byte	0xc
 9897 0843 83       		.byte	0x83
 9898 0844 A0060000 		.4byte	0x6a0
 9899 0848 0C       		.byte	0xc
ARM GAS  /tmp/ccNtBBEs.s 			page 179


 9900 0849 12       		.uleb128 0x12
 9901 084a 79020000 		.4byte	.LASF142
 9902 084e 0C       		.byte	0xc
 9903 084f 84       		.byte	0x84
 9904 0850 A0060000 		.4byte	0x6a0
 9905 0854 10       		.byte	0x10
 9906 0855 12       		.uleb128 0x12
 9907 0856 0F080000 		.4byte	.LASF143
 9908 085a 0C       		.byte	0xc
 9909 085b 85       		.byte	0x85
 9910 085c A0060000 		.4byte	0x6a0
 9911 0860 14       		.byte	0x14
 9912 0861 00       		.byte	0
 9913 0862 02       		.uleb128 0x2
 9914 0863 7B050000 		.4byte	.LASF144
 9915 0867 0C       		.byte	0xc
 9916 0868 86       		.byte	0x86
 9917 0869 05080000 		.4byte	0x805
 9918 086d 0F       		.uleb128 0xf
 9919 086e 01       		.byte	0x1
 9920 086f 0D       		.byte	0xd
 9921 0870 4C       		.byte	0x4c
 9922 0871 A0080000 		.4byte	0x8a0
 9923 0875 10       		.uleb128 0x10
 9924 0876 A6050000 		.4byte	.LASF145
 9925 087a 00       		.sleb128 0
 9926 087b 10       		.uleb128 0x10
 9927 087c A6110000 		.4byte	.LASF146
 9928 0880 01       		.sleb128 1
 9929 0881 10       		.uleb128 0x10
 9930 0882 0F0E0000 		.4byte	.LASF147
 9931 0886 02       		.sleb128 2
 9932 0887 10       		.uleb128 0x10
 9933 0888 0D020000 		.4byte	.LASF148
 9934 088c 03       		.sleb128 3
 9935 088d 10       		.uleb128 0x10
 9936 088e 91040000 		.4byte	.LASF149
 9937 0892 04       		.sleb128 4
 9938 0893 10       		.uleb128 0x10
 9939 0894 03160000 		.4byte	.LASF150
 9940 0898 05       		.sleb128 5
 9941 0899 10       		.uleb128 0x10
 9942 089a 45110000 		.4byte	.LASF151
 9943 089e 06       		.sleb128 6
 9944 089f 00       		.byte	0
 9945 08a0 02       		.uleb128 0x2
 9946 08a1 83100000 		.4byte	.LASF152
 9947 08a5 0D       		.byte	0xd
 9948 08a6 54       		.byte	0x54
 9949 08a7 6D080000 		.4byte	0x86d
 9950 08ab 0F       		.uleb128 0xf
 9951 08ac 01       		.byte	0x1
 9952 08ad 0E       		.byte	0xe
 9953 08ae 4C       		.byte	0x4c
 9954 08af DE080000 		.4byte	0x8de
 9955 08b3 10       		.uleb128 0x10
 9956 08b4 49060000 		.4byte	.LASF153
ARM GAS  /tmp/ccNtBBEs.s 			page 180


 9957 08b8 00       		.sleb128 0
 9958 08b9 10       		.uleb128 0x10
 9959 08ba 92120000 		.4byte	.LASF154
 9960 08be 01       		.sleb128 1
 9961 08bf 10       		.uleb128 0x10
 9962 08c0 DA090000 		.4byte	.LASF155
 9963 08c4 02       		.sleb128 2
 9964 08c5 10       		.uleb128 0x10
 9965 08c6 8E010000 		.4byte	.LASF156
 9966 08ca 03       		.sleb128 3
 9967 08cb 10       		.uleb128 0x10
 9968 08cc 350A0000 		.4byte	.LASF157
 9969 08d0 04       		.sleb128 4
 9970 08d1 10       		.uleb128 0x10
 9971 08d2 EB030000 		.4byte	.LASF158
 9972 08d6 05       		.sleb128 5
 9973 08d7 10       		.uleb128 0x10
 9974 08d8 EE090000 		.4byte	.LASF159
 9975 08dc 06       		.sleb128 6
 9976 08dd 00       		.byte	0
 9977 08de 02       		.uleb128 0x2
 9978 08df B0170000 		.4byte	.LASF160
 9979 08e3 0E       		.byte	0xe
 9980 08e4 54       		.byte	0x54
 9981 08e5 AB080000 		.4byte	0x8ab
 9982 08e9 0F       		.uleb128 0xf
 9983 08ea 01       		.byte	0x1
 9984 08eb 0F       		.byte	0xf
 9985 08ec 4D       		.byte	0x4d
 9986 08ed 0A090000 		.4byte	0x90a
 9987 08f1 10       		.uleb128 0x10
 9988 08f2 CC130000 		.4byte	.LASF161
 9989 08f6 00       		.sleb128 0
 9990 08f7 10       		.uleb128 0x10
 9991 08f8 25060000 		.4byte	.LASF162
 9992 08fc 01       		.sleb128 1
 9993 08fd 10       		.uleb128 0x10
 9994 08fe 22100000 		.4byte	.LASF163
 9995 0902 02       		.sleb128 2
 9996 0903 10       		.uleb128 0x10
 9997 0904 BE020000 		.4byte	.LASF164
 9998 0908 03       		.sleb128 3
 9999 0909 00       		.byte	0
 10000 090a 02       		.uleb128 0x2
 10001 090b E0140000 		.4byte	.LASF165
 10002 090f 0F       		.byte	0xf
 10003 0910 52       		.byte	0x52
 10004 0911 E9080000 		.4byte	0x8e9
 10005 0915 02       		.uleb128 0x2
 10006 0916 6F120000 		.4byte	.LASF166
 10007 091a 10       		.byte	0x10
 10008 091b 24       		.byte	0x24
 10009 091c F9000000 		.4byte	0xf9
 10010 0920 02       		.uleb128 0x2
 10011 0921 B9050000 		.4byte	.LASF167
 10012 0925 11       		.byte	0x11
 10013 0926 3A       		.byte	0x3a
ARM GAS  /tmp/ccNtBBEs.s 			page 181


 10014 0927 2B090000 		.4byte	0x92b
 10015 092b 08       		.uleb128 0x8
 10016 092c F9000000 		.4byte	0xf9
 10017 0930 3B090000 		.4byte	0x93b
 10018 0934 09       		.uleb128 0x9
 10019 0935 C5000000 		.4byte	0xc5
 10020 0939 05       		.byte	0x5
 10021 093a 00       		.byte	0
 10022 093b 13       		.uleb128 0x13
 10023 093c 770E0000 		.4byte	.LASF169
 10024 0940 01       		.byte	0x1
 10025 0941 12       		.byte	0x12
 10026 0942 23       		.byte	0x23
 10027 0943 60090000 		.4byte	0x960
 10028 0947 12       		.uleb128 0x12
 10029 0948 4A150000 		.4byte	.LASF170
 10030 094c 12       		.byte	0x12
 10031 094d 24       		.byte	0x24
 10032 094e F9000000 		.4byte	0xf9
 10033 0952 00       		.byte	0
 10034 0953 12       		.uleb128 0x12
 10035 0954 990E0000 		.4byte	.LASF171
 10036 0958 12       		.byte	0x12
 10037 0959 25       		.byte	0x25
 10038 095a 60090000 		.4byte	0x960
 10039 095e 01       		.byte	0x1
 10040 095f 00       		.byte	0
 10041 0960 08       		.uleb128 0x8
 10042 0961 F9000000 		.4byte	0xf9
 10043 0965 6F090000 		.4byte	0x96f
 10044 0969 17       		.uleb128 0x17
 10045 096a C5000000 		.4byte	0xc5
 10046 096e 00       		.byte	0
 10047 096f 02       		.uleb128 0x2
 10048 0970 31080000 		.4byte	.LASF172
 10049 0974 12       		.byte	0x12
 10050 0975 26       		.byte	0x26
 10051 0976 3B090000 		.4byte	0x93b
 10052 097a 13       		.uleb128 0x13
 10053 097b 3A150000 		.4byte	.LASF173
 10054 097f 02       		.byte	0x2
 10055 0980 12       		.byte	0x12
 10056 0981 2F       		.byte	0x2f
 10057 0982 AB090000 		.4byte	0x9ab
 10058 0986 18       		.uleb128 0x18
 10059 0987 65767400 		.ascii	"evt\000"
 10060 098b 12       		.byte	0x12
 10061 098c 30       		.byte	0x30
 10062 098d F9000000 		.4byte	0xf9
 10063 0991 00       		.byte	0
 10064 0992 12       		.uleb128 0x12
 10065 0993 CF120000 		.4byte	.LASF174
 10066 0997 12       		.byte	0x12
 10067 0998 31       		.byte	0x31
 10068 0999 F9000000 		.4byte	0xf9
 10069 099d 01       		.byte	0x1
 10070 099e 12       		.uleb128 0x12
ARM GAS  /tmp/ccNtBBEs.s 			page 182


 10071 099f 990E0000 		.4byte	.LASF171
 10072 09a3 12       		.byte	0x12
 10073 09a4 32       		.byte	0x32
 10074 09a5 60090000 		.4byte	0x960
 10075 09a9 02       		.byte	0x2
 10076 09aa 00       		.byte	0
 10077 09ab 02       		.uleb128 0x2
 10078 09ac AB120000 		.4byte	.LASF175
 10079 09b0 12       		.byte	0x12
 10080 09b1 33       		.byte	0x33
 10081 09b2 7A090000 		.4byte	0x97a
 10082 09b6 08       		.uleb128 0x8
 10083 09b7 F9000000 		.4byte	0xf9
 10084 09bb C6090000 		.4byte	0x9c6
 10085 09bf 09       		.uleb128 0x9
 10086 09c0 C5000000 		.4byte	0xc5
 10087 09c4 07       		.byte	0x7
 10088 09c5 00       		.byte	0
 10089 09c6 19       		.uleb128 0x19
 10090 09c7 770F0000 		.4byte	.LASF176
 10091 09cb 01       		.byte	0x1
 10092 09cc 12       		.byte	0x12
 10093 09cd CF01     		.2byte	0x1cf
 10094 09cf EE090000 		.4byte	0x9ee
 10095 09d3 0D       		.uleb128 0xd
 10096 09d4 35010000 		.4byte	.LASF177
 10097 09d8 12       		.byte	0x12
 10098 09d9 D001     		.2byte	0x1d0
 10099 09db F9000000 		.4byte	0xf9
 10100 09df 00       		.byte	0
 10101 09e0 0D       		.uleb128 0xd
 10102 09e1 990E0000 		.4byte	.LASF171
 10103 09e5 12       		.byte	0x12
 10104 09e6 D101     		.2byte	0x1d1
 10105 09e8 60090000 		.4byte	0x960
 10106 09ec 01       		.byte	0x1
 10107 09ed 00       		.byte	0
 10108 09ee 0E       		.uleb128 0xe
 10109 09ef 92160000 		.4byte	.LASF178
 10110 09f3 12       		.byte	0x12
 10111 09f4 D201     		.2byte	0x1d2
 10112 09f6 C6090000 		.4byte	0x9c6
 10113 09fa 19       		.uleb128 0x19
 10114 09fb 520B0000 		.4byte	.LASF179
 10115 09ff 12       		.byte	0x12
 10116 0a00 12       		.byte	0x12
 10117 0a01 D601     		.2byte	0x1d6
 10118 0a03 7D0A0000 		.4byte	0xa7d
 10119 0a07 0D       		.uleb128 0xd
 10120 0a08 AE0A0000 		.4byte	.LASF180
 10121 0a0c 12       		.byte	0x12
 10122 0a0d D701     		.2byte	0x1d7
 10123 0a0f F9000000 		.4byte	0xf9
 10124 0a13 00       		.byte	0
 10125 0a14 0D       		.uleb128 0xd
 10126 0a15 CC170000 		.4byte	.LASF181
 10127 0a19 12       		.byte	0x12
ARM GAS  /tmp/ccNtBBEs.s 			page 183


 10128 0a1a D801     		.2byte	0x1d8
 10129 0a1c 0F010000 		.4byte	0x10f
 10130 0a20 01       		.byte	0x1
 10131 0a21 0D       		.uleb128 0xd
 10132 0a22 860A0000 		.4byte	.LASF182
 10133 0a26 12       		.byte	0x12
 10134 0a27 D901     		.2byte	0x1d9
 10135 0a29 F9000000 		.4byte	0xf9
 10136 0a2d 03       		.byte	0x3
 10137 0a2e 0D       		.uleb128 0xd
 10138 0a2f 380D0000 		.4byte	.LASF183
 10139 0a33 12       		.byte	0x12
 10140 0a34 DA01     		.2byte	0x1da
 10141 0a36 F9000000 		.4byte	0xf9
 10142 0a3a 04       		.byte	0x4
 10143 0a3b 0D       		.uleb128 0xd
 10144 0a3c 5B150000 		.4byte	.LASF184
 10145 0a40 12       		.byte	0x12
 10146 0a41 DB01     		.2byte	0x1db
 10147 0a43 20090000 		.4byte	0x920
 10148 0a47 05       		.byte	0x5
 10149 0a48 0D       		.uleb128 0xd
 10150 0a49 19000000 		.4byte	.LASF185
 10151 0a4d 12       		.byte	0x12
 10152 0a4e DC01     		.2byte	0x1dc
 10153 0a50 0F010000 		.4byte	0x10f
 10154 0a54 0B       		.byte	0xb
 10155 0a55 0D       		.uleb128 0xd
 10156 0a56 B80C0000 		.4byte	.LASF186
 10157 0a5a 12       		.byte	0x12
 10158 0a5b DD01     		.2byte	0x1dd
 10159 0a5d 0F010000 		.4byte	0x10f
 10160 0a61 0D       		.byte	0xd
 10161 0a62 0D       		.uleb128 0xd
 10162 0a63 C8110000 		.4byte	.LASF187
 10163 0a67 12       		.byte	0x12
 10164 0a68 DE01     		.2byte	0x1de
 10165 0a6a 0F010000 		.4byte	0x10f
 10166 0a6e 0F       		.byte	0xf
 10167 0a6f 0D       		.uleb128 0xd
 10168 0a70 81170000 		.4byte	.LASF188
 10169 0a74 12       		.byte	0x12
 10170 0a75 DF01     		.2byte	0x1df
 10171 0a77 F9000000 		.4byte	0xf9
 10172 0a7b 11       		.byte	0x11
 10173 0a7c 00       		.byte	0
 10174 0a7d 0E       		.uleb128 0xe
 10175 0a7e 4C0C0000 		.4byte	.LASF189
 10176 0a82 12       		.byte	0x12
 10177 0a83 E001     		.2byte	0x1e0
 10178 0a85 FA090000 		.4byte	0x9fa
 10179 0a89 08       		.uleb128 0x8
 10180 0a8a F9000000 		.4byte	0xf9
 10181 0a8e 990A0000 		.4byte	0xa99
 10182 0a92 09       		.uleb128 0x9
 10183 0a93 C5000000 		.4byte	0xc5
 10184 0a97 13       		.byte	0x13
ARM GAS  /tmp/ccNtBBEs.s 			page 184


 10185 0a98 00       		.byte	0
 10186 0a99 19       		.uleb128 0x19
 10187 0a9a AF080000 		.4byte	.LASF190
 10188 0a9e 02       		.byte	0x2
 10189 0a9f 13       		.byte	0x13
 10190 0aa0 3303     		.2byte	0x333
 10191 0aa2 C10A0000 		.4byte	0xac1
 10192 0aa6 0D       		.uleb128 0xd
 10193 0aa7 5D0D0000 		.4byte	.LASF191
 10194 0aab 13       		.byte	0x13
 10195 0aac 3403     		.2byte	0x334
 10196 0aae 0F010000 		.4byte	0x10f
 10197 0ab2 00       		.byte	0
 10198 0ab3 0D       		.uleb128 0xd
 10199 0ab4 990E0000 		.4byte	.LASF171
 10200 0ab8 13       		.byte	0x13
 10201 0ab9 3503     		.2byte	0x335
 10202 0abb 60090000 		.4byte	0x960
 10203 0abf 02       		.byte	0x2
 10204 0ac0 00       		.byte	0
 10205 0ac1 0E       		.uleb128 0xe
 10206 0ac2 6A060000 		.4byte	.LASF192
 10207 0ac6 13       		.byte	0x13
 10208 0ac7 3603     		.2byte	0x336
 10209 0ac9 990A0000 		.4byte	0xa99
 10210 0acd 19       		.uleb128 0x19
 10211 0ace C4010000 		.4byte	.LASF193
 10212 0ad2 07       		.byte	0x7
 10213 0ad3 14       		.byte	0x14
 10214 0ad4 1803     		.2byte	0x318
 10215 0ad6 1C0B0000 		.4byte	0xb1c
 10216 0ada 0D       		.uleb128 0xd
 10217 0adb 15180000 		.4byte	.LASF194
 10218 0adf 14       		.byte	0x14
 10219 0ae0 1903     		.2byte	0x319
 10220 0ae2 0F010000 		.4byte	0x10f
 10221 0ae6 00       		.byte	0
 10222 0ae7 0D       		.uleb128 0xd
 10223 0ae8 B6030000 		.4byte	.LASF195
 10224 0aec 14       		.byte	0x14
 10225 0aed 1A03     		.2byte	0x31a
 10226 0aef 0F010000 		.4byte	0x10f
 10227 0af3 02       		.byte	0x2
 10228 0af4 0D       		.uleb128 0xd
 10229 0af5 57160000 		.4byte	.LASF196
 10230 0af9 14       		.byte	0x14
 10231 0afa 1B03     		.2byte	0x31b
 10232 0afc F9000000 		.4byte	0xf9
 10233 0b00 04       		.byte	0x4
 10234 0b01 0D       		.uleb128 0xd
 10235 0b02 9F050000 		.4byte	.LASF197
 10236 0b06 14       		.byte	0x14
 10237 0b07 1C03     		.2byte	0x31c
 10238 0b09 0F010000 		.4byte	0x10f
 10239 0b0d 05       		.byte	0x5
 10240 0b0e 0D       		.uleb128 0xd
 10241 0b0f 58070000 		.4byte	.LASF198
ARM GAS  /tmp/ccNtBBEs.s 			page 185


 10242 0b13 14       		.byte	0x14
 10243 0b14 1D03     		.2byte	0x31d
 10244 0b16 60090000 		.4byte	0x960
 10245 0b1a 07       		.byte	0x7
 10246 0b1b 00       		.byte	0
 10247 0b1c 0E       		.uleb128 0xe
 10248 0b1d AD000000 		.4byte	.LASF199
 10249 0b21 14       		.byte	0x14
 10250 0b22 1E03     		.2byte	0x31e
 10251 0b24 CD0A0000 		.4byte	0xacd
 10252 0b28 19       		.uleb128 0x19
 10253 0b29 490A0000 		.4byte	.LASF200
 10254 0b2d 05       		.byte	0x5
 10255 0b2e 14       		.byte	0x14
 10256 0b2f 2003     		.2byte	0x320
 10257 0b31 6A0B0000 		.4byte	0xb6a
 10258 0b35 0D       		.uleb128 0xd
 10259 0b36 15180000 		.4byte	.LASF194
 10260 0b3a 14       		.byte	0x14
 10261 0b3b 2103     		.2byte	0x321
 10262 0b3d 0F010000 		.4byte	0x10f
 10263 0b41 00       		.byte	0
 10264 0b42 0D       		.uleb128 0xd
 10265 0b43 B6030000 		.4byte	.LASF195
 10266 0b47 14       		.byte	0x14
 10267 0b48 2203     		.2byte	0x322
 10268 0b4a 0F010000 		.4byte	0x10f
 10269 0b4e 02       		.byte	0x2
 10270 0b4f 0D       		.uleb128 0xd
 10271 0b50 57160000 		.4byte	.LASF196
 10272 0b54 14       		.byte	0x14
 10273 0b55 2303     		.2byte	0x323
 10274 0b57 F9000000 		.4byte	0xf9
 10275 0b5b 04       		.byte	0x4
 10276 0b5c 0D       		.uleb128 0xd
 10277 0b5d 58070000 		.4byte	.LASF198
 10278 0b61 14       		.byte	0x14
 10279 0b62 2403     		.2byte	0x324
 10280 0b64 60090000 		.4byte	0x960
 10281 0b68 05       		.byte	0x5
 10282 0b69 00       		.byte	0
 10283 0b6a 0E       		.uleb128 0xe
 10284 0b6b 77060000 		.4byte	.LASF201
 10285 0b6f 14       		.byte	0x14
 10286 0b70 2503     		.2byte	0x325
 10287 0b72 280B0000 		.4byte	0xb28
 10288 0b76 19       		.uleb128 0x19
 10289 0b77 12160000 		.4byte	.LASF202
 10290 0b7b 07       		.byte	0x7
 10291 0b7c 14       		.byte	0x14
 10292 0b7d 1D04     		.2byte	0x41d
 10293 0b7f B80B0000 		.4byte	0xbb8
 10294 0b83 0D       		.uleb128 0xd
 10295 0b84 15180000 		.4byte	.LASF194
 10296 0b88 14       		.byte	0x14
 10297 0b89 1E04     		.2byte	0x41e
 10298 0b8b 0F010000 		.4byte	0x10f
ARM GAS  /tmp/ccNtBBEs.s 			page 186


 10299 0b8f 00       		.byte	0
 10300 0b90 0D       		.uleb128 0xd
 10301 0b91 B6030000 		.4byte	.LASF195
 10302 0b95 14       		.byte	0x14
 10303 0b96 1F04     		.2byte	0x41f
 10304 0b98 0F010000 		.4byte	0x10f
 10305 0b9c 02       		.byte	0x2
 10306 0b9d 0D       		.uleb128 0xd
 10307 0b9e 57160000 		.4byte	.LASF196
 10308 0ba2 14       		.byte	0x14
 10309 0ba3 2004     		.2byte	0x420
 10310 0ba5 F9000000 		.4byte	0xf9
 10311 0ba9 04       		.byte	0x4
 10312 0baa 0D       		.uleb128 0xd
 10313 0bab 9F050000 		.4byte	.LASF197
 10314 0baf 14       		.byte	0x14
 10315 0bb0 2104     		.2byte	0x421
 10316 0bb2 0F010000 		.4byte	0x10f
 10317 0bb6 05       		.byte	0x5
 10318 0bb7 00       		.byte	0
 10319 0bb8 0E       		.uleb128 0xe
 10320 0bb9 E4000000 		.4byte	.LASF203
 10321 0bbd 14       		.byte	0x14
 10322 0bbe 2204     		.2byte	0x422
 10323 0bc0 760B0000 		.4byte	0xb76
 10324 0bc4 11       		.uleb128 0x11
 10325 0bc5 30       		.byte	0x30
 10326 0bc6 15       		.byte	0x15
 10327 0bc7 B4       		.byte	0xb4
 10328 0bc8 F10B0000 		.4byte	0xbf1
 10329 0bcc 12       		.uleb128 0x12
 10330 0bcd E4150000 		.4byte	.LASF204
 10331 0bd1 15       		.byte	0x15
 10332 0bd2 B6       		.byte	0xb6
 10333 0bd3 F5070000 		.4byte	0x7f5
 10334 0bd7 00       		.byte	0
 10335 0bd8 12       		.uleb128 0x12
 10336 0bd9 4D0F0000 		.4byte	.LASF205
 10337 0bdd 15       		.byte	0x15
 10338 0bde B8       		.byte	0xb8
 10339 0bdf F5070000 		.4byte	0x7f5
 10340 0be3 10       		.byte	0x10
 10341 0be4 12       		.uleb128 0x12
 10342 0be5 C40B0000 		.4byte	.LASF206
 10343 0be9 15       		.byte	0x15
 10344 0bea BA       		.byte	0xba
 10345 0beb F5070000 		.4byte	0x7f5
 10346 0bef 20       		.byte	0x20
 10347 0bf0 00       		.byte	0
 10348 0bf1 02       		.uleb128 0x2
 10349 0bf2 3E010000 		.4byte	.LASF207
 10350 0bf6 15       		.byte	0x15
 10351 0bf7 BC       		.byte	0xbc
 10352 0bf8 C40B0000 		.4byte	0xbc4
 10353 0bfc 11       		.uleb128 0x11
 10354 0bfd 06       		.byte	0x6
 10355 0bfe 15       		.byte	0x15
ARM GAS  /tmp/ccNtBBEs.s 			page 187


 10356 0bff C8       		.byte	0xc8
 10357 0c00 290C0000 		.4byte	0xc29
 10358 0c04 12       		.uleb128 0x12
 10359 0c05 2A0D0000 		.4byte	.LASF208
 10360 0c09 15       		.byte	0x15
 10361 0c0a CA       		.byte	0xca
 10362 0c0b 0F010000 		.4byte	0x10f
 10363 0c0f 00       		.byte	0
 10364 0c10 12       		.uleb128 0x12
 10365 0c11 63080000 		.4byte	.LASF209
 10366 0c15 15       		.byte	0x15
 10367 0c16 CC       		.byte	0xcc
 10368 0c17 0F010000 		.4byte	0x10f
 10369 0c1b 02       		.byte	0x2
 10370 0c1c 12       		.uleb128 0x12
 10371 0c1d E8060000 		.4byte	.LASF210
 10372 0c21 15       		.byte	0x15
 10373 0c22 CE       		.byte	0xce
 10374 0c23 0F010000 		.4byte	0x10f
 10375 0c27 04       		.byte	0x4
 10376 0c28 00       		.byte	0
 10377 0c29 02       		.uleb128 0x2
 10378 0c2a BA070000 		.4byte	.LASF211
 10379 0c2e 15       		.byte	0x15
 10380 0c2f D0       		.byte	0xd0
 10381 0c30 FC0B0000 		.4byte	0xbfc
 10382 0c34 0F       		.uleb128 0xf
 10383 0c35 01       		.byte	0x1
 10384 0c36 16       		.byte	0x16
 10385 0c37 B2       		.byte	0xb2
 10386 0c38 550C0000 		.4byte	0xc55
 10387 0c3c 10       		.uleb128 0x10
 10388 0c3d 26120000 		.4byte	.LASF212
 10389 0c41 00       		.sleb128 0
 10390 0c42 10       		.uleb128 0x10
 10391 0c43 8B020000 		.4byte	.LASF213
 10392 0c47 01       		.sleb128 1
 10393 0c48 10       		.uleb128 0x10
 10394 0c49 FD000000 		.4byte	.LASF214
 10395 0c4d 02       		.sleb128 2
 10396 0c4e 10       		.uleb128 0x10
 10397 0c4f 1F170000 		.4byte	.LASF215
 10398 0c53 03       		.sleb128 3
 10399 0c54 00       		.byte	0
 10400 0c55 02       		.uleb128 0x2
 10401 0c56 FA0B0000 		.4byte	.LASF216
 10402 0c5a 16       		.byte	0x16
 10403 0c5b B7       		.byte	0xb7
 10404 0c5c 340C0000 		.4byte	0xc34
 10405 0c60 11       		.uleb128 0x11
 10406 0c61 48       		.byte	0x48
 10407 0c62 16       		.byte	0x16
 10408 0c63 BC       		.byte	0xbc
 10409 0c64 410D0000 		.4byte	0xd41
 10410 0c68 12       		.uleb128 0x12
 10411 0c69 A5080000 		.4byte	.LASF217
 10412 0c6d 16       		.byte	0x16
ARM GAS  /tmp/ccNtBBEs.s 			page 188


 10413 0c6e BE       		.byte	0xbe
 10414 0c6f 550C0000 		.4byte	0xc55
 10415 0c73 00       		.byte	0
 10416 0c74 12       		.uleb128 0x12
 10417 0c75 CB090000 		.4byte	.LASF218
 10418 0c79 16       		.byte	0x16
 10419 0c7a BF       		.byte	0xbf
 10420 0c7b 1A010000 		.4byte	0x11a
 10421 0c7f 04       		.byte	0x4
 10422 0c80 12       		.uleb128 0x12
 10423 0c81 46140000 		.4byte	.LASF219
 10424 0c85 16       		.byte	0x16
 10425 0c86 C0       		.byte	0xc0
 10426 0c87 410D0000 		.4byte	0xd41
 10427 0c8b 08       		.byte	0x8
 10428 0c8c 12       		.uleb128 0x12
 10429 0c8d C5180000 		.4byte	.LASF220
 10430 0c91 16       		.byte	0x16
 10431 0c92 C2       		.byte	0xc2
 10432 0c93 37000000 		.4byte	0x37
 10433 0c97 10       		.byte	0x10
 10434 0c98 12       		.uleb128 0x12
 10435 0c99 8E190000 		.4byte	.LASF221
 10436 0c9d 16       		.byte	0x16
 10437 0c9e C3       		.byte	0xc3
 10438 0c9f 37000000 		.4byte	0x37
 10439 0ca3 14       		.byte	0x14
 10440 0ca4 12       		.uleb128 0x12
 10441 0ca5 9B000000 		.4byte	.LASF222
 10442 0ca9 16       		.byte	0x16
 10443 0caa C5       		.byte	0xc5
 10444 0cab 1A010000 		.4byte	0x11a
 10445 0caf 18       		.byte	0x18
 10446 0cb0 12       		.uleb128 0x12
 10447 0cb1 5E170000 		.4byte	.LASF223
 10448 0cb5 16       		.byte	0x16
 10449 0cb6 C6       		.byte	0xc6
 10450 0cb7 37000000 		.4byte	0x37
 10451 0cbb 1C       		.byte	0x1c
 10452 0cbc 12       		.uleb128 0x12
 10453 0cbd 9F0C0000 		.4byte	.LASF224
 10454 0cc1 16       		.byte	0x16
 10455 0cc2 C7       		.byte	0xc7
 10456 0cc3 37000000 		.4byte	0x37
 10457 0cc7 20       		.byte	0x20
 10458 0cc8 12       		.uleb128 0x12
 10459 0cc9 3F160000 		.4byte	.LASF225
 10460 0ccd 16       		.byte	0x16
 10461 0cce C8       		.byte	0xc8
 10462 0ccf 37000000 		.4byte	0x37
 10463 0cd3 24       		.byte	0x24
 10464 0cd4 12       		.uleb128 0x12
 10465 0cd5 1C0C0000 		.4byte	.LASF226
 10466 0cd9 16       		.byte	0x16
 10467 0cda CA       		.byte	0xca
 10468 0cdb 1A010000 		.4byte	0x11a
 10469 0cdf 28       		.byte	0x28
ARM GAS  /tmp/ccNtBBEs.s 			page 189


 10470 0ce0 12       		.uleb128 0x12
 10471 0ce1 94150000 		.4byte	.LASF227
 10472 0ce5 16       		.byte	0x16
 10473 0ce6 CC       		.byte	0xcc
 10474 0ce7 F9000000 		.4byte	0xf9
 10475 0ceb 2C       		.byte	0x2c
 10476 0cec 12       		.uleb128 0x12
 10477 0ced C1050000 		.4byte	.LASF228
 10478 0cf1 16       		.byte	0x16
 10479 0cf2 CD       		.byte	0xcd
 10480 0cf3 F9000000 		.4byte	0xf9
 10481 0cf7 2D       		.byte	0x2d
 10482 0cf8 12       		.uleb128 0x12
 10483 0cf9 0F040000 		.4byte	.LASF229
 10484 0cfd 16       		.byte	0x16
 10485 0cfe D0       		.byte	0xd0
 10486 0cff 37000000 		.4byte	0x37
 10487 0d03 30       		.byte	0x30
 10488 0d04 12       		.uleb128 0x12
 10489 0d05 21020000 		.4byte	.LASF230
 10490 0d09 16       		.byte	0x16
 10491 0d0a D4       		.byte	0xd4
 10492 0d0b 25010000 		.4byte	0x125
 10493 0d0f 34       		.byte	0x34
 10494 0d10 12       		.uleb128 0x12
 10495 0d11 29070000 		.4byte	.LASF231
 10496 0d15 16       		.byte	0x16
 10497 0d16 D8       		.byte	0xd8
 10498 0d17 25010000 		.4byte	0x125
 10499 0d1b 38       		.byte	0x38
 10500 0d1c 12       		.uleb128 0x12
 10501 0d1d 090D0000 		.4byte	.LASF232
 10502 0d21 16       		.byte	0x16
 10503 0d22 DC       		.byte	0xdc
 10504 0d23 25010000 		.4byte	0x125
 10505 0d27 3C       		.byte	0x3c
 10506 0d28 12       		.uleb128 0x12
 10507 0d29 CA0C0000 		.4byte	.LASF233
 10508 0d2d 16       		.byte	0x16
 10509 0d2e E0       		.byte	0xe0
 10510 0d2f 25010000 		.4byte	0x125
 10511 0d33 40       		.byte	0x40
 10512 0d34 12       		.uleb128 0x12
 10513 0d35 31100000 		.4byte	.LASF234
 10514 0d39 16       		.byte	0x16
 10515 0d3a E4       		.byte	0xe4
 10516 0d3b 25010000 		.4byte	0x125
 10517 0d3f 44       		.byte	0x44
 10518 0d40 00       		.byte	0
 10519 0d41 08       		.uleb128 0x8
 10520 0d42 37000000 		.4byte	0x37
 10521 0d46 510D0000 		.4byte	0xd51
 10522 0d4a 09       		.uleb128 0x9
 10523 0d4b C5000000 		.4byte	0xc5
 10524 0d4f 01       		.byte	0x1
 10525 0d50 00       		.byte	0
 10526 0d51 02       		.uleb128 0x2
ARM GAS  /tmp/ccNtBBEs.s 			page 190


 10527 0d52 57050000 		.4byte	.LASF235
 10528 0d56 16       		.byte	0x16
 10529 0d57 EB       		.byte	0xeb
 10530 0d58 600C0000 		.4byte	0xc60
 10531 0d5c 02       		.uleb128 0x2
 10532 0d5d 9C0F0000 		.4byte	.LASF236
 10533 0d61 17       		.byte	0x17
 10534 0d62 39       		.byte	0x39
 10535 0d63 25010000 		.4byte	0x125
 10536 0d67 02       		.uleb128 0x2
 10537 0d68 910E0000 		.4byte	.LASF237
 10538 0d6c 17       		.byte	0x17
 10539 0d6d 3C       		.byte	0x3c
 10540 0d6e F9000000 		.4byte	0xf9
 10541 0d72 02       		.uleb128 0x2
 10542 0d73 690A0000 		.4byte	.LASF238
 10543 0d77 17       		.byte	0x17
 10544 0d78 3D       		.byte	0x3d
 10545 0d79 F9000000 		.4byte	0xf9
 10546 0d7d 02       		.uleb128 0x2
 10547 0d7e 3E140000 		.4byte	.LASF239
 10548 0d82 17       		.byte	0x17
 10549 0d83 3E       		.byte	0x3e
 10550 0d84 F9000000 		.4byte	0xf9
 10551 0d88 02       		.uleb128 0x2
 10552 0d89 A20D0000 		.4byte	.LASF240
 10553 0d8d 17       		.byte	0x17
 10554 0d8e 3F       		.byte	0x3f
 10555 0d8f F9000000 		.4byte	0xf9
 10556 0d93 02       		.uleb128 0x2
 10557 0d94 0E050000 		.4byte	.LASF241
 10558 0d98 17       		.byte	0x17
 10559 0d99 40       		.byte	0x40
 10560 0d9a 25010000 		.4byte	0x125
 10561 0d9e 02       		.uleb128 0x2
 10562 0d9f 670C0000 		.4byte	.LASF242
 10563 0da3 17       		.byte	0x17
 10564 0da4 41       		.byte	0x41
 10565 0da5 1A010000 		.4byte	0x11a
 10566 0da9 02       		.uleb128 0x2
 10567 0daa A1040000 		.4byte	.LASF243
 10568 0dae 17       		.byte	0x17
 10569 0daf 43       		.byte	0x43
 10570 0db0 25010000 		.4byte	0x125
 10571 0db4 02       		.uleb128 0x2
 10572 0db5 08060000 		.4byte	.LASF244
 10573 0db9 17       		.byte	0x17
 10574 0dba 45       		.byte	0x45
 10575 0dbb 1A010000 		.4byte	0x11a
 10576 0dbf 02       		.uleb128 0x2
 10577 0dc0 DA000000 		.4byte	.LASF245
 10578 0dc4 18       		.byte	0x18
 10579 0dc5 33       		.byte	0x33
 10580 0dc6 25010000 		.4byte	0x125
 10581 0dca 02       		.uleb128 0x2
 10582 0dcb FC060000 		.4byte	.LASF246
 10583 0dcf 18       		.byte	0x18
ARM GAS  /tmp/ccNtBBEs.s 			page 191


 10584 0dd0 3F       		.byte	0x3f
 10585 0dd1 D50D0000 		.4byte	0xdd5
 10586 0dd5 13       		.uleb128 0x13
 10587 0dd6 9F010000 		.4byte	.LASF247
 10588 0dda 44       		.byte	0x44
 10589 0ddb 19       		.byte	0x19
 10590 0ddc C2       		.byte	0xc2
 10591 0ddd CE0E0000 		.4byte	0xece
 10592 0de1 12       		.uleb128 0x12
 10593 0de2 1F120000 		.4byte	.LASF248
 10594 0de6 19       		.byte	0x19
 10595 0de7 C3       		.byte	0xc3
 10596 0de8 D90E0000 		.4byte	0xed9
 10597 0dec 00       		.byte	0
 10598 0ded 12       		.uleb128 0x12
 10599 0dee 2A0F0000 		.4byte	.LASF249
 10600 0df2 19       		.byte	0x19
 10601 0df3 C5       		.byte	0xc5
 10602 0df4 D90E0000 		.4byte	0xed9
 10603 0df8 04       		.byte	0x4
 10604 0df9 12       		.uleb128 0x12
 10605 0dfa ED040000 		.4byte	.LASF250
 10606 0dfe 19       		.byte	0x19
 10607 0dff C7       		.byte	0xc7
 10608 0e00 930D0000 		.4byte	0xd93
 10609 0e04 08       		.byte	0x8
 10610 0e05 12       		.uleb128 0x12
 10611 0e06 3D120000 		.4byte	.LASF251
 10612 0e0a 19       		.byte	0x19
 10613 0e0b C8       		.byte	0xc8
 10614 0e0c 00110000 		.4byte	0x1100
 10615 0e10 0C       		.byte	0xc
 10616 0e11 12       		.uleb128 0x12
 10617 0e12 B7060000 		.4byte	.LASF252
 10618 0e16 19       		.byte	0x19
 10619 0e17 CA       		.byte	0xca
 10620 0e18 D90E0000 		.4byte	0xed9
 10621 0e1c 10       		.byte	0x10
 10622 0e1d 12       		.uleb128 0x12
 10623 0e1e 8B0A0000 		.4byte	.LASF253
 10624 0e22 19       		.byte	0x19
 10625 0e23 CB       		.byte	0xcb
 10626 0e24 D90E0000 		.4byte	0xed9
 10627 0e28 14       		.byte	0x14
 10628 0e29 12       		.uleb128 0x12
 10629 0e2a 150F0000 		.4byte	.LASF254
 10630 0e2e 19       		.byte	0x19
 10631 0e2f D2       		.byte	0xd2
 10632 0e30 D3000000 		.4byte	0xd3
 10633 0e34 18       		.byte	0x18
 10634 0e35 12       		.uleb128 0x12
 10635 0e36 930A0000 		.4byte	.LASF255
 10636 0e3a 19       		.byte	0x19
 10637 0e3b DD       		.byte	0xdd
 10638 0e3c 720D0000 		.4byte	0xd72
 10639 0e40 1C       		.byte	0x1c
 10640 0e41 12       		.uleb128 0x12
ARM GAS  /tmp/ccNtBBEs.s 			page 192


 10641 0e42 B00C0000 		.4byte	.LASF256
 10642 0e46 19       		.byte	0x19
 10643 0e47 E1       		.byte	0xe1
 10644 0e48 670D0000 		.4byte	0xd67
 10645 0e4c 1D       		.byte	0x1d
 10646 0e4d 12       		.uleb128 0x12
 10647 0e4e A9160000 		.4byte	.LASF257
 10648 0e52 19       		.byte	0x19
 10649 0e53 E6       		.byte	0xe6
 10650 0e54 7D0D0000 		.4byte	0xd7d
 10651 0e58 1E       		.byte	0x1e
 10652 0e59 12       		.uleb128 0x12
 10653 0e5a 2B0A0000 		.4byte	.LASF258
 10654 0e5e 19       		.byte	0x19
 10655 0e5f EC       		.byte	0xec
 10656 0e60 880D0000 		.4byte	0xd88
 10657 0e64 1F       		.byte	0x1f
 10658 0e65 0C       		.uleb128 0xc
 10659 0e66 705F7500 		.ascii	"p_u\000"
 10660 0e6a 19       		.byte	0x19
 10661 0e6b 3101     		.2byte	0x131
 10662 0e6d BA110000 		.4byte	0x11ba
 10663 0e71 20       		.byte	0x20
 10664 0e72 0D       		.uleb128 0xd
 10665 0e73 AA070000 		.4byte	.LASF259
 10666 0e77 19       		.byte	0x19
 10667 0e78 3601     		.2byte	0x136
 10668 0e7a DF0E0000 		.4byte	0xedf
 10669 0e7e 24       		.byte	0x24
 10670 0e7f 0D       		.uleb128 0xd
 10671 0e80 2A010000 		.4byte	.LASF260
 10672 0e84 19       		.byte	0x19
 10673 0e85 3C01     		.2byte	0x13c
 10674 0e87 030F0000 		.4byte	0xf03
 10675 0e8b 28       		.byte	0x28
 10676 0e8c 0D       		.uleb128 0xd
 10677 0e8d 710E0000 		.4byte	.LASF261
 10678 0e91 19       		.byte	0x19
 10679 0e92 4001     		.2byte	0x140
 10680 0e94 9E0D0000 		.4byte	0xd9e
 10681 0e98 30       		.byte	0x30
 10682 0e99 0D       		.uleb128 0xd
 10683 0e9a 1D110000 		.4byte	.LASF262
 10684 0e9e 19       		.byte	0x19
 10685 0e9f 4601     		.2byte	0x146
 10686 0ea1 A90D0000 		.4byte	0xda9
 10687 0ea5 34       		.byte	0x34
 10688 0ea6 0D       		.uleb128 0xd
 10689 0ea7 EE0A0000 		.4byte	.LASF263
 10690 0eab 19       		.byte	0x19
 10691 0eac 4D01     		.2byte	0x14d
 10692 0eae 79120000 		.4byte	0x1279
 10693 0eb2 38       		.byte	0x38
 10694 0eb3 0D       		.uleb128 0xd
 10695 0eb4 78100000 		.4byte	.LASF264
 10696 0eb8 19       		.byte	0x19
 10697 0eb9 5101     		.2byte	0x151
ARM GAS  /tmp/ccNtBBEs.s 			page 193


 10698 0ebb 930D0000 		.4byte	0xd93
 10699 0ebf 3C       		.byte	0x3c
 10700 0ec0 0D       		.uleb128 0xd
 10701 0ec1 E60A0000 		.4byte	.LASF265
 10702 0ec5 19       		.byte	0x19
 10703 0ec6 5801     		.2byte	0x158
 10704 0ec8 37000000 		.4byte	0x37
 10705 0ecc 40       		.byte	0x40
 10706 0ecd 00       		.byte	0
 10707 0ece 02       		.uleb128 0x2
 10708 0ecf 3A0F0000 		.4byte	.LASF266
 10709 0ed3 18       		.byte	0x18
 10710 0ed4 44       		.byte	0x44
 10711 0ed5 D90E0000 		.4byte	0xed9
 10712 0ed9 06       		.uleb128 0x6
 10713 0eda 04       		.byte	0x4
 10714 0edb CA0D0000 		.4byte	0xdca
 10715 0edf 02       		.uleb128 0x2
 10716 0ee0 7F010000 		.4byte	.LASF267
 10717 0ee4 18       		.byte	0x18
 10718 0ee5 49       		.byte	0x49
 10719 0ee6 EA0E0000 		.4byte	0xeea
 10720 0eea 13       		.uleb128 0x13
 10721 0eeb 00000000 		.4byte	.LASF268
 10722 0eef 04       		.byte	0x4
 10723 0ef0 19       		.byte	0x19
 10724 0ef1 B0       		.byte	0xb0
 10725 0ef2 030F0000 		.4byte	0xf03
 10726 0ef6 12       		.uleb128 0x12
 10727 0ef7 1F120000 		.4byte	.LASF248
 10728 0efb 19       		.byte	0x19
 10729 0efc B1       		.byte	0xb1
 10730 0efd D90E0000 		.4byte	0xed9
 10731 0f01 00       		.byte	0
 10732 0f02 00       		.byte	0
 10733 0f03 02       		.uleb128 0x2
 10734 0f04 DD0D0000 		.4byte	.LASF269
 10735 0f08 18       		.byte	0x18
 10736 0f09 50       		.byte	0x50
 10737 0f0a 0E0F0000 		.4byte	0xf0e
 10738 0f0e 13       		.uleb128 0x13
 10739 0f0f F3020000 		.4byte	.LASF270
 10740 0f13 08       		.byte	0x8
 10741 0f14 19       		.byte	0x19
 10742 0f15 B7       		.byte	0xb7
 10743 0f16 330F0000 		.4byte	0xf33
 10744 0f1a 12       		.uleb128 0x12
 10745 0f1b 1F120000 		.4byte	.LASF248
 10746 0f1f 19       		.byte	0x19
 10747 0f20 B8       		.byte	0xb8
 10748 0f21 D90E0000 		.4byte	0xed9
 10749 0f25 00       		.byte	0
 10750 0f26 12       		.uleb128 0x12
 10751 0f27 2A0F0000 		.4byte	.LASF249
 10752 0f2b 19       		.byte	0x19
 10753 0f2c B9       		.byte	0xb9
 10754 0f2d D90E0000 		.4byte	0xed9
ARM GAS  /tmp/ccNtBBEs.s 			page 194


 10755 0f31 04       		.byte	0x4
 10756 0f32 00       		.byte	0
 10757 0f33 02       		.uleb128 0x2
 10758 0f34 CD160000 		.4byte	.LASF271
 10759 0f38 18       		.byte	0x18
 10760 0f39 57       		.byte	0x57
 10761 0f3a 3E0F0000 		.4byte	0xf3e
 10762 0f3e 19       		.uleb128 0x19
 10763 0f3f 9B020000 		.4byte	.LASF272
 10764 0f43 1C       		.byte	0x1c
 10765 0f44 19       		.byte	0x19
 10766 0f45 9001     		.2byte	0x190
 10767 0f47 9A0F0000 		.4byte	0xf9a
 10768 0f4b 0D       		.uleb128 0xd
 10769 0f4c 140C0000 		.4byte	.LASF273
 10770 0f50 19       		.byte	0x19
 10771 0f51 9101     		.2byte	0x191
 10772 0f53 030F0000 		.4byte	0xf03
 10773 0f57 00       		.byte	0
 10774 0f58 0D       		.uleb128 0xd
 10775 0f59 AD040000 		.4byte	.LASF274
 10776 0f5d 19       		.byte	0x19
 10777 0f5e 9201     		.2byte	0x192
 10778 0f60 930D0000 		.4byte	0xd93
 10779 0f64 08       		.byte	0x8
 10780 0f65 0D       		.uleb128 0xd
 10781 0f66 AA170000 		.4byte	.LASF275
 10782 0f6a 19       		.byte	0x19
 10783 0f6b 9401     		.2byte	0x194
 10784 0f6d 00110000 		.4byte	0x1100
 10785 0f71 0C       		.byte	0xc
 10786 0f72 0D       		.uleb128 0xd
 10787 0f73 190A0000 		.4byte	.LASF276
 10788 0f77 19       		.byte	0x19
 10789 0f78 9701     		.2byte	0x197
 10790 0f7a D90E0000 		.4byte	0xed9
 10791 0f7e 10       		.byte	0x10
 10792 0f7f 0D       		.uleb128 0xd
 10793 0f80 AC0D0000 		.4byte	.LASF277
 10794 0f84 19       		.byte	0x19
 10795 0f85 9801     		.2byte	0x198
 10796 0f87 D90E0000 		.4byte	0xed9
 10797 0f8b 14       		.byte	0x14
 10798 0f8c 0D       		.uleb128 0xd
 10799 0f8d E8100000 		.4byte	.LASF278
 10800 0f91 19       		.byte	0x19
 10801 0f92 9B01     		.2byte	0x19b
 10802 0f94 D90E0000 		.4byte	0xed9
 10803 0f98 18       		.byte	0x18
 10804 0f99 00       		.byte	0
 10805 0f9a 02       		.uleb128 0x2
 10806 0f9b 10000000 		.4byte	.LASF279
 10807 0f9f 18       		.byte	0x18
 10808 0fa0 5C       		.byte	0x5c
 10809 0fa1 A50F0000 		.4byte	0xfa5
 10810 0fa5 06       		.uleb128 0x6
 10811 0fa6 04       		.byte	0x4
ARM GAS  /tmp/ccNtBBEs.s 			page 195


 10812 0fa7 AB0F0000 		.4byte	0xfab
 10813 0fab 14       		.uleb128 0x14
 10814 0fac B60F0000 		.4byte	0xfb6
 10815 0fb0 15       		.uleb128 0x15
 10816 0fb1 37000000 		.4byte	0x37
 10817 0fb5 00       		.byte	0
 10818 0fb6 02       		.uleb128 0x2
 10819 0fb7 E20C0000 		.4byte	.LASF280
 10820 0fbb 18       		.byte	0x18
 10821 0fbc 61       		.byte	0x61
 10822 0fbd C10F0000 		.4byte	0xfc1
 10823 0fc1 19       		.uleb128 0x19
 10824 0fc2 35050000 		.4byte	.LASF281
 10825 0fc6 14       		.byte	0x14
 10826 0fc7 19       		.byte	0x19
 10827 0fc8 6B01     		.2byte	0x16b
 10828 0fca 10100000 		.4byte	0x1010
 10829 0fce 0D       		.uleb128 0xd
 10830 0fcf EF160000 		.4byte	.LASF282
 10831 0fd3 19       		.byte	0x19
 10832 0fd4 6C01     		.2byte	0x16c
 10833 0fd6 7F120000 		.4byte	0x127f
 10834 0fda 00       		.byte	0
 10835 0fdb 0D       		.uleb128 0xd
 10836 0fdc 3E180000 		.4byte	.LASF283
 10837 0fe0 19       		.byte	0x19
 10838 0fe1 6D01     		.2byte	0x16d
 10839 0fe3 7F120000 		.4byte	0x127f
 10840 0fe7 04       		.byte	0x4
 10841 0fe8 0D       		.uleb128 0xd
 10842 0fe9 100A0000 		.4byte	.LASF284
 10843 0fed 19       		.byte	0x19
 10844 0fee 6E01     		.2byte	0x16e
 10845 0ff0 BF0D0000 		.4byte	0xdbf
 10846 0ff4 08       		.byte	0x8
 10847 0ff5 0D       		.uleb128 0xd
 10848 0ff6 21180000 		.4byte	.LASF285
 10849 0ffa 19       		.byte	0x19
 10850 0ffb 6F01     		.2byte	0x16f
 10851 0ffd 9A0F0000 		.4byte	0xf9a
 10852 1001 0C       		.byte	0xc
 10853 1002 0D       		.uleb128 0xd
 10854 1003 B9040000 		.4byte	.LASF286
 10855 1007 19       		.byte	0x19
 10856 1008 7101     		.2byte	0x171
 10857 100a 37000000 		.4byte	0x37
 10858 100e 10       		.byte	0x10
 10859 100f 00       		.byte	0
 10860 1010 02       		.uleb128 0x2
 10861 1011 9E150000 		.4byte	.LASF287
 10862 1015 18       		.byte	0x18
 10863 1016 66       		.byte	0x66
 10864 1017 1B100000 		.4byte	0x101b
 10865 101b 19       		.uleb128 0x19
 10866 101c BF060000 		.4byte	.LASF288
 10867 1020 10       		.byte	0x10
 10868 1021 19       		.byte	0x19
ARM GAS  /tmp/ccNtBBEs.s 			page 196


 10869 1022 7B01     		.2byte	0x17b
 10870 1024 5D100000 		.4byte	0x105d
 10871 1028 0D       		.uleb128 0xd
 10872 1029 EF160000 		.4byte	.LASF282
 10873 102d 19       		.byte	0x19
 10874 102e 7C01     		.2byte	0x17c
 10875 1030 7F120000 		.4byte	0x127f
 10876 1034 00       		.byte	0
 10877 1035 0D       		.uleb128 0xd
 10878 1036 3E180000 		.4byte	.LASF283
 10879 103a 19       		.byte	0x19
 10880 103b 7E01     		.2byte	0x17e
 10881 103d 7F120000 		.4byte	0x127f
 10882 1041 04       		.byte	0x4
 10883 1042 0D       		.uleb128 0xd
 10884 1043 100A0000 		.4byte	.LASF284
 10885 1047 19       		.byte	0x19
 10886 1048 8001     		.2byte	0x180
 10887 104a BF0D0000 		.4byte	0xdbf
 10888 104e 08       		.byte	0x8
 10889 104f 0D       		.uleb128 0xd
 10890 1050 1F010000 		.4byte	.LASF289
 10891 1054 19       		.byte	0x19
 10892 1055 8201     		.2byte	0x182
 10893 1057 85120000 		.4byte	0x1285
 10894 105b 0C       		.byte	0xc
 10895 105c 00       		.byte	0
 10896 105d 02       		.uleb128 0x2
 10897 105e 9E0B0000 		.4byte	.LASF290
 10898 1062 18       		.byte	0x18
 10899 1063 6B       		.byte	0x6b
 10900 1064 68100000 		.4byte	0x1068
 10901 1068 19       		.uleb128 0x19
 10902 1069 DB030000 		.4byte	.LASF291
 10903 106d 04       		.byte	0x4
 10904 106e 19       		.byte	0x19
 10905 106f A201     		.2byte	0x1a2
 10906 1071 83100000 		.4byte	0x1083
 10907 1075 0D       		.uleb128 0xd
 10908 1076 2A0E0000 		.4byte	.LASF292
 10909 107a 19       		.byte	0x19
 10910 107b AA01     		.2byte	0x1aa
 10911 107d 8A120000 		.4byte	0x128a
 10912 1081 00       		.byte	0
 10913 1082 00       		.byte	0
 10914 1083 02       		.uleb128 0x2
 10915 1084 06170000 		.4byte	.LASF293
 10916 1088 18       		.byte	0x18
 10917 1089 70       		.byte	0x70
 10918 108a 8E100000 		.4byte	0x108e
 10919 108e 1A       		.uleb128 0x1a
 10920 108f DC110000 		.4byte	.LASF294
 10921 1093 5001     		.2byte	0x150
 10922 1095 19       		.byte	0x19
 10923 1096 C201     		.2byte	0x1c2
 10924 1098 EA100000 		.4byte	0x10ea
 10925 109c 0D       		.uleb128 0xd
ARM GAS  /tmp/ccNtBBEs.s 			page 197


 10926 109d 57120000 		.4byte	.LASF295
 10927 10a1 19       		.byte	0x19
 10928 10a2 C601     		.2byte	0x1c6
 10929 10a4 330F0000 		.4byte	0xf33
 10930 10a8 00       		.byte	0
 10931 10a9 0D       		.uleb128 0xd
 10932 10aa 5E020000 		.4byte	.LASF296
 10933 10ae 19       		.byte	0x19
 10934 10af CA01     		.2byte	0x1ca
 10935 10b1 10100000 		.4byte	0x1010
 10936 10b5 1C       		.byte	0x1c
 10937 10b6 0C       		.uleb128 0xc
 10938 10b7 64626700 		.ascii	"dbg\000"
 10939 10bb 19       		.byte	0x19
 10940 10bc CE01     		.2byte	0x1ce
 10941 10be 5D100000 		.4byte	0x105d
 10942 10c2 2C       		.byte	0x2c
 10943 10c3 0D       		.uleb128 0xd
 10944 10c4 9E0E0000 		.4byte	.LASF297
 10945 10c8 19       		.byte	0x19
 10946 10c9 D201     		.2byte	0x1d2
 10947 10cb CA0D0000 		.4byte	0xdca
 10948 10cf 30       		.byte	0x30
 10949 10d0 0C       		.uleb128 0xc
 10950 10d1 746D00   		.ascii	"tm\000"
 10951 10d4 19       		.byte	0x19
 10952 10d5 D701     		.2byte	0x1d7
 10953 10d7 AF110000 		.4byte	0x11af
 10954 10db 74       		.byte	0x74
 10955 10dc 0D       		.uleb128 0xd
 10956 10dd A9020000 		.4byte	.LASF298
 10957 10e1 19       		.byte	0x19
 10958 10e2 E301     		.2byte	0x1e3
 10959 10e4 8F120000 		.4byte	0x128f
 10960 10e8 78       		.byte	0x78
 10961 10e9 00       		.byte	0
 10962 10ea 02       		.uleb128 0x2
 10963 10eb 52000000 		.4byte	.LASF299
 10964 10ef 1A       		.byte	0x1a
 10965 10f0 65       		.byte	0x65
 10966 10f1 37000000 		.4byte	0x37
 10967 10f5 02       		.uleb128 0x2
 10968 10f6 C1170000 		.4byte	.LASF300
 10969 10fa 1A       		.byte	0x1a
 10970 10fb 6D       		.byte	0x6d
 10971 10fc 30010000 		.4byte	0x130
 10972 1100 13       		.uleb128 0x13
 10973 1101 C4130000 		.4byte	.LASF301
 10974 1105 04       		.byte	0x4
 10975 1106 1A       		.byte	0x1a
 10976 1107 89       		.byte	0x89
 10977 1108 19110000 		.4byte	0x1119
 10978 110c 18       		.uleb128 0x18
 10979 110d 72313300 		.ascii	"r13\000"
 10980 1111 1A       		.byte	0x1a
 10981 1112 8A       		.byte	0x8a
 10982 1113 94110000 		.4byte	0x1194
ARM GAS  /tmp/ccNtBBEs.s 			page 198


 10983 1117 00       		.byte	0
 10984 1118 00       		.byte	0
 10985 1119 13       		.uleb128 0x13
 10986 111a 39110000 		.4byte	.LASF302
 10987 111e 24       		.byte	0x24
 10988 111f 1B       		.byte	0x1b
 10989 1120 FD       		.byte	0xfd
 10990 1121 94110000 		.4byte	0x1194
 10991 1125 0C       		.uleb128 0xc
 10992 1126 723400   		.ascii	"r4\000"
 10993 1129 1B       		.byte	0x1b
 10994 112a 1001     		.2byte	0x110
 10995 112c EA100000 		.4byte	0x10ea
 10996 1130 00       		.byte	0
 10997 1131 0C       		.uleb128 0xc
 10998 1132 723500   		.ascii	"r5\000"
 10999 1135 1B       		.byte	0x1b
 11000 1136 1101     		.2byte	0x111
 11001 1138 EA100000 		.4byte	0x10ea
 11002 113c 04       		.byte	0x4
 11003 113d 0C       		.uleb128 0xc
 11004 113e 723600   		.ascii	"r6\000"
 11005 1141 1B       		.byte	0x1b
 11006 1142 1201     		.2byte	0x112
 11007 1144 EA100000 		.4byte	0x10ea
 11008 1148 08       		.byte	0x8
 11009 1149 0C       		.uleb128 0xc
 11010 114a 723700   		.ascii	"r7\000"
 11011 114d 1B       		.byte	0x1b
 11012 114e 1301     		.2byte	0x113
 11013 1150 EA100000 		.4byte	0x10ea
 11014 1154 0C       		.byte	0xc
 11015 1155 0C       		.uleb128 0xc
 11016 1156 723800   		.ascii	"r8\000"
 11017 1159 1B       		.byte	0x1b
 11018 115a 1401     		.2byte	0x114
 11019 115c EA100000 		.4byte	0x10ea
 11020 1160 10       		.byte	0x10
 11021 1161 0C       		.uleb128 0xc
 11022 1162 723900   		.ascii	"r9\000"
 11023 1165 1B       		.byte	0x1b
 11024 1166 1501     		.2byte	0x115
 11025 1168 EA100000 		.4byte	0x10ea
 11026 116c 14       		.byte	0x14
 11027 116d 0C       		.uleb128 0xc
 11028 116e 72313000 		.ascii	"r10\000"
 11029 1172 1B       		.byte	0x1b
 11030 1173 1601     		.2byte	0x116
 11031 1175 EA100000 		.4byte	0x10ea
 11032 1179 18       		.byte	0x18
 11033 117a 0C       		.uleb128 0xc
 11034 117b 72313100 		.ascii	"r11\000"
 11035 117f 1B       		.byte	0x1b
 11036 1180 1701     		.2byte	0x117
 11037 1182 EA100000 		.4byte	0x10ea
 11038 1186 1C       		.byte	0x1c
 11039 1187 0C       		.uleb128 0xc
ARM GAS  /tmp/ccNtBBEs.s 			page 199


 11040 1188 6C7200   		.ascii	"lr\000"
 11041 118b 1B       		.byte	0x1b
 11042 118c 1801     		.2byte	0x118
 11043 118e EA100000 		.4byte	0x10ea
 11044 1192 20       		.byte	0x20
 11045 1193 00       		.byte	0
 11046 1194 06       		.uleb128 0x6
 11047 1195 04       		.byte	0x4
 11048 1196 19110000 		.4byte	0x1119
 11049 119a 11       		.uleb128 0x11
 11050 119b 04       		.byte	0x4
 11051 119c 1C       		.byte	0x1c
 11052 119d 38       		.byte	0x38
 11053 119e AF110000 		.4byte	0x11af
 11054 11a2 12       		.uleb128 0x12
 11055 11a3 9F050000 		.4byte	.LASF197
 11056 11a7 1C       		.byte	0x1c
 11057 11a8 3C       		.byte	0x3c
 11058 11a9 5C0D0000 		.4byte	0xd5c
 11059 11ad 00       		.byte	0
 11060 11ae 00       		.byte	0
 11061 11af 02       		.uleb128 0x2
 11062 11b0 37000000 		.4byte	.LASF303
 11063 11b4 1C       		.byte	0x1c
 11064 11b5 3D       		.byte	0x3d
 11065 11b6 9A110000 		.4byte	0x119a
 11066 11ba 1B       		.uleb128 0x1b
 11067 11bb 04       		.byte	0x4
 11068 11bc 19       		.byte	0x19
 11069 11bd FA       		.byte	0xfa
 11070 11be 17120000 		.4byte	0x1217
 11071 11c2 1C       		.uleb128 0x1c
 11072 11c3 41070000 		.4byte	.LASF304
 11073 11c7 19       		.byte	0x19
 11074 11c8 0101     		.2byte	0x101
 11075 11ca 9E0D0000 		.4byte	0xd9e
 11076 11ce 1C       		.uleb128 0x1c
 11077 11cf 2A190000 		.4byte	.LASF305
 11078 11d3 19       		.byte	0x19
 11079 11d4 0801     		.2byte	0x108
 11080 11d6 9E0D0000 		.4byte	0xd9e
 11081 11da 1C       		.uleb128 0x1c
 11082 11db 57020000 		.4byte	.LASF306
 11083 11df 19       		.byte	0x19
 11084 11e0 0F01     		.2byte	0x10f
 11085 11e2 37000000 		.4byte	0x37
 11086 11e6 1C       		.uleb128 0x1c
 11087 11e7 FB180000 		.4byte	.LASF307
 11088 11eb 19       		.byte	0x19
 11089 11ec 1601     		.2byte	0x116
 11090 11ee 17120000 		.4byte	0x1217
 11091 11f2 1C       		.uleb128 0x1c
 11092 11f3 04150000 		.4byte	.LASF308
 11093 11f7 19       		.byte	0x19
 11094 11f8 1E01     		.2byte	0x11e
 11095 11fa 42120000 		.4byte	0x1242
 11096 11fe 1C       		.uleb128 0x1c
ARM GAS  /tmp/ccNtBBEs.s 			page 200


 11097 11ff 22000000 		.4byte	.LASF309
 11098 1203 19       		.byte	0x19
 11099 1204 2701     		.2byte	0x127
 11100 1206 79120000 		.4byte	0x1279
 11101 120a 1C       		.uleb128 0x1c
 11102 120b B0160000 		.4byte	.LASF310
 11103 120f 19       		.byte	0x19
 11104 1210 2F01     		.2byte	0x12f
 11105 1212 A90D0000 		.4byte	0xda9
 11106 1216 00       		.byte	0
 11107 1217 06       		.uleb128 0x6
 11108 1218 04       		.byte	0x4
 11109 1219 CE0E0000 		.4byte	0xece
 11110 121d 13       		.uleb128 0x13
 11111 121e F4040000 		.4byte	.LASF311
 11112 1222 0C       		.byte	0xc
 11113 1223 1D       		.byte	0x1d
 11114 1224 34       		.byte	0x34
 11115 1225 42120000 		.4byte	0x1242
 11116 1229 12       		.uleb128 0x12
 11117 122a 17010000 		.4byte	.LASF312
 11118 122e 1D       		.byte	0x1d
 11119 122f 35       		.byte	0x35
 11120 1230 030F0000 		.4byte	0xf03
 11121 1234 00       		.byte	0
 11122 1235 12       		.uleb128 0x12
 11123 1236 C8030000 		.4byte	.LASF313
 11124 123a 1D       		.byte	0x1d
 11125 123b 37       		.byte	0x37
 11126 123c B40D0000 		.4byte	0xdb4
 11127 1240 08       		.byte	0x8
 11128 1241 00       		.byte	0
 11129 1242 06       		.uleb128 0x6
 11130 1243 04       		.byte	0x4
 11131 1244 1D120000 		.4byte	0x121d
 11132 1248 13       		.uleb128 0x13
 11133 1249 D40D0000 		.4byte	.LASF314
 11134 124d 10       		.byte	0x10
 11135 124e 1E       		.byte	0x1e
 11136 124f 39       		.byte	0x39
 11137 1250 79120000 		.4byte	0x1279
 11138 1254 12       		.uleb128 0x12
 11139 1255 28110000 		.4byte	.LASF315
 11140 1259 1E       		.byte	0x1e
 11141 125a 3A       		.byte	0x3a
 11142 125b 030F0000 		.4byte	0xf03
 11143 125f 00       		.byte	0
 11144 1260 12       		.uleb128 0x12
 11145 1261 0F010000 		.4byte	.LASF316
 11146 1265 1E       		.byte	0x1e
 11147 1266 3C       		.byte	0x3c
 11148 1267 D90E0000 		.4byte	0xed9
 11149 126b 08       		.byte	0x8
 11150 126c 12       		.uleb128 0x12
 11151 126d 48170000 		.4byte	.LASF317
 11152 1271 1E       		.byte	0x1e
 11153 1272 3E       		.byte	0x3e
ARM GAS  /tmp/ccNtBBEs.s 			page 201


 11154 1273 AA120000 		.4byte	0x12aa
 11155 1277 0C       		.byte	0xc
 11156 1278 00       		.byte	0
 11157 1279 06       		.uleb128 0x6
 11158 127a 04       		.byte	0x4
 11159 127b 48120000 		.4byte	0x1248
 11160 127f 06       		.uleb128 0x6
 11161 1280 04       		.byte	0x4
 11162 1281 B60F0000 		.4byte	0xfb6
 11163 1285 0A       		.uleb128 0xa
 11164 1286 BF0D0000 		.4byte	0xdbf
 11165 128a 0A       		.uleb128 0xa
 11166 128b D3000000 		.4byte	0xd3
 11167 128f 08       		.uleb128 0x8
 11168 1290 F5100000 		.4byte	0x10f5
 11169 1294 9F120000 		.4byte	0x129f
 11170 1298 09       		.uleb128 0x9
 11171 1299 C5000000 		.4byte	0xc5
 11172 129d 1A       		.byte	0x1a
 11173 129e 00       		.byte	0
 11174 129f 02       		.uleb128 0x2
 11175 12a0 32150000 		.4byte	.LASF318
 11176 12a4 1E       		.byte	0x1e
 11177 12a5 34       		.byte	0x34
 11178 12a6 48120000 		.4byte	0x1248
 11179 12aa 06       		.uleb128 0x6
 11180 12ab 04       		.byte	0x4
 11181 12ac 9F120000 		.4byte	0x129f
 11182 12b0 06       		.uleb128 0x6
 11183 12b1 04       		.byte	0x4
 11184 12b2 B6120000 		.4byte	0x12b6
 11185 12b6 07       		.uleb128 0x7
 11186 12b7 F9000000 		.4byte	0xf9
 11187 12bb 03       		.uleb128 0x3
 11188 12bc 01       		.byte	0x1
 11189 12bd 02       		.byte	0x2
 11190 12be B4070000 		.4byte	.LASF319
 11191 12c2 1D       		.uleb128 0x1d
 11192 12c3 DE130000 		.4byte	.LASF325
 11193 12c7 01       		.byte	0x1
 11194 12c8 CC       		.byte	0xcc
 11195 12c9 15090000 		.4byte	0x915
 11196 12cd 00000000 		.4byte	.LFB269
 11197 12d1 68000000 		.4byte	.LFE269-.LFB269
 11198 12d5 01       		.uleb128 0x1
 11199 12d6 9C       		.byte	0x9c
 11200 12d7 30130000 		.4byte	0x1330
 11201 12db 1E       		.uleb128 0x1e
 11202 12dc 6D100000 		.4byte	.LASF320
 11203 12e0 01       		.byte	0x1
 11204 12e1 CC       		.byte	0xcc
 11205 12e2 0F010000 		.4byte	0x10f
 11206 12e6 02       		.uleb128 0x2
 11207 12e7 91       		.byte	0x91
 11208 12e8 6E       		.sleb128 -18
 11209 12e9 1E       		.uleb128 0x1e
 11210 12ea 9B0A0000 		.4byte	.LASF321
ARM GAS  /tmp/ccNtBBEs.s 			page 202


 11211 12ee 01       		.byte	0x1
 11212 12ef CD       		.byte	0xcd
 11213 12f0 0F010000 		.4byte	0x10f
 11214 12f4 02       		.uleb128 0x2
 11215 12f5 91       		.byte	0x91
 11216 12f6 6C       		.sleb128 -20
 11217 12f7 1E       		.uleb128 0x1e
 11218 12f8 1C0F0000 		.4byte	.LASF322
 11219 12fc 01       		.byte	0x1
 11220 12fd CE       		.byte	0xce
 11221 12fe F9000000 		.4byte	0xf9
 11222 1302 02       		.uleb128 0x2
 11223 1303 91       		.byte	0x91
 11224 1304 6B       		.sleb128 -21
 11225 1305 1E       		.uleb128 0x1e
 11226 1306 F7110000 		.4byte	.LASF323
 11227 130a 01       		.byte	0x1
 11228 130b CF       		.byte	0xcf
 11229 130c F9000000 		.4byte	0xf9
 11230 1310 02       		.uleb128 0x2
 11231 1311 91       		.byte	0x91
 11232 1312 6A       		.sleb128 -22
 11233 1313 1E       		.uleb128 0x1e
 11234 1314 F7160000 		.4byte	.LASF324
 11235 1318 01       		.byte	0x1
 11236 1319 D0       		.byte	0xd0
 11237 131a B0120000 		.4byte	0x12b0
 11238 131e 02       		.uleb128 0x2
 11239 131f 91       		.byte	0x91
 11240 1320 00       		.sleb128 0
 11241 1321 1F       		.uleb128 0x1f
 11242 1322 72657400 		.ascii	"ret\000"
 11243 1326 01       		.byte	0x1
 11244 1327 D2       		.byte	0xd2
 11245 1328 15090000 		.4byte	0x915
 11246 132c 02       		.uleb128 0x2
 11247 132d 91       		.byte	0x91
 11248 132e 77       		.sleb128 -9
 11249 132f 00       		.byte	0
 11250 1330 1D       		.uleb128 0x1d
 11251 1331 47190000 		.4byte	.LASF326
 11252 1335 01       		.byte	0x1
 11253 1336 EB       		.byte	0xeb
 11254 1337 15090000 		.4byte	0x915
 11255 133b 70000000 		.4byte	.LFB270
 11256 133f 38010000 		.4byte	.LFE270-.LFB270
 11257 1343 01       		.uleb128 0x1
 11258 1344 9C       		.byte	0x9c
 11259 1345 72130000 		.4byte	0x1372
 11260 1349 1F       		.uleb128 0x1f
 11261 134a 72657400 		.ascii	"ret\000"
 11262 134e 01       		.byte	0x1
 11263 134f ED       		.byte	0xed
 11264 1350 15090000 		.4byte	0x915
 11265 1354 02       		.uleb128 0x2
 11266 1355 91       		.byte	0x91
 11267 1356 77       		.sleb128 -9
ARM GAS  /tmp/ccNtBBEs.s 			page 203


 11268 1357 20       		.uleb128 0x20
 11269 1358 1A080000 		.4byte	.LASF327
 11270 135c 01       		.byte	0x1
 11271 135d EF       		.byte	0xef
 11272 135e F5070000 		.4byte	0x7f5
 11273 1362 02       		.uleb128 0x2
 11274 1363 91       		.byte	0x91
 11275 1364 64       		.sleb128 -28
 11276 1365 21       		.uleb128 0x21
 11277 1366 01170000 		.4byte	.LASF329
 11278 136a 01       		.byte	0x1
 11279 136b 0401     		.2byte	0x104
 11280 136d 94010000 		.4byte	.L9
 11281 1371 00       		.byte	0
 11282 1372 22       		.uleb128 0x22
 11283 1373 A2090000 		.4byte	.LASF328
 11284 1377 01       		.byte	0x1
 11285 1378 0F01     		.2byte	0x10f
 11286 137a 15090000 		.4byte	0x915
 11287 137e B0010000 		.4byte	.LFB271
 11288 1382 D4010000 		.4byte	.LFE271-.LFB271
 11289 1386 01       		.uleb128 0x1
 11290 1387 9C       		.byte	0x9c
 11291 1388 B7130000 		.4byte	0x13b7
 11292 138c 23       		.uleb128 0x23
 11293 138d 72657400 		.ascii	"ret\000"
 11294 1391 01       		.byte	0x1
 11295 1392 1101     		.2byte	0x111
 11296 1394 15090000 		.4byte	0x915
 11297 1398 02       		.uleb128 0x2
 11298 1399 91       		.byte	0x91
 11299 139a 77       		.sleb128 -9
 11300 139b 24       		.uleb128 0x24
 11301 139c 1A080000 		.4byte	.LASF327
 11302 13a0 01       		.byte	0x1
 11303 13a1 1301     		.2byte	0x113
 11304 13a3 F5070000 		.4byte	0x7f5
 11305 13a7 02       		.uleb128 0x2
 11306 13a8 91       		.byte	0x91
 11307 13a9 64       		.sleb128 -28
 11308 13aa 21       		.uleb128 0x21
 11309 13ab 01170000 		.4byte	.LASF329
 11310 13af 01       		.byte	0x1
 11311 13b0 3401     		.2byte	0x134
 11312 13b2 6E030000 		.4byte	.L17
 11313 13b6 00       		.byte	0
 11314 13b7 22       		.uleb128 0x22
 11315 13b8 8E0D0000 		.4byte	.LASF330
 11316 13bc 01       		.byte	0x1
 11317 13bd 3F01     		.2byte	0x13f
 11318 13bf 15090000 		.4byte	0x915
 11319 13c3 90030000 		.4byte	.LFB272
 11320 13c7 B8000000 		.4byte	.LFE272-.LFB272
 11321 13cb 01       		.uleb128 0x1
 11322 13cc 9C       		.byte	0x9c
 11323 13cd 1D140000 		.4byte	0x141d
 11324 13d1 25       		.uleb128 0x25
ARM GAS  /tmp/ccNtBBEs.s 			page 204


 11325 13d2 990E0000 		.4byte	.LASF171
 11326 13d6 01       		.byte	0x1
 11327 13d7 3F01     		.2byte	0x13f
 11328 13d9 F8040000 		.4byte	0x4f8
 11329 13dd 02       		.uleb128 0x2
 11330 13de 91       		.byte	0x91
 11331 13df 6C       		.sleb128 -20
 11332 13e0 25       		.uleb128 0x25
 11333 13e1 8D110000 		.4byte	.LASF331
 11334 13e5 01       		.byte	0x1
 11335 13e6 3F01     		.2byte	0x13f
 11336 13e8 F9000000 		.4byte	0xf9
 11337 13ec 02       		.uleb128 0x2
 11338 13ed 91       		.byte	0x91
 11339 13ee 6B       		.sleb128 -21
 11340 13ef 23       		.uleb128 0x23
 11341 13f0 72657400 		.ascii	"ret\000"
 11342 13f4 01       		.byte	0x1
 11343 13f5 4101     		.2byte	0x141
 11344 13f7 15090000 		.4byte	0x915
 11345 13fb 02       		.uleb128 0x2
 11346 13fc 91       		.byte	0x91
 11347 13fd 75       		.sleb128 -11
 11348 13fe 24       		.uleb128 0x24
 11349 13ff 6E180000 		.4byte	.LASF332
 11350 1403 01       		.byte	0x1
 11351 1404 4201     		.2byte	0x142
 11352 1406 F9000000 		.4byte	0xf9
 11353 140a 02       		.uleb128 0x2
 11354 140b 91       		.byte	0x91
 11355 140c 77       		.sleb128 -9
 11356 140d 24       		.uleb128 0x24
 11357 140e 1D150000 		.4byte	.LASF333
 11358 1412 01       		.byte	0x1
 11359 1413 4301     		.2byte	0x143
 11360 1415 F9000000 		.4byte	0xf9
 11361 1419 02       		.uleb128 0x2
 11362 141a 91       		.byte	0x91
 11363 141b 76       		.sleb128 -10
 11364 141c 00       		.byte	0
 11365 141d 22       		.uleb128 0x22
 11366 141e 0B150000 		.4byte	.LASF334
 11367 1422 01       		.byte	0x1
 11368 1423 5E01     		.2byte	0x15e
 11369 1425 15090000 		.4byte	0x915
 11370 1429 50040000 		.4byte	.LFB273
 11371 142d B8000000 		.4byte	.LFE273-.LFB273
 11372 1431 01       		.uleb128 0x1
 11373 1432 9C       		.byte	0x9c
 11374 1433 83140000 		.4byte	0x1483
 11375 1437 25       		.uleb128 0x25
 11376 1438 990E0000 		.4byte	.LASF171
 11377 143c 01       		.byte	0x1
 11378 143d 5E01     		.2byte	0x15e
 11379 143f F8040000 		.4byte	0x4f8
 11380 1443 02       		.uleb128 0x2
 11381 1444 91       		.byte	0x91
ARM GAS  /tmp/ccNtBBEs.s 			page 205


 11382 1445 6C       		.sleb128 -20
 11383 1446 25       		.uleb128 0x25
 11384 1447 8D110000 		.4byte	.LASF331
 11385 144b 01       		.byte	0x1
 11386 144c 5E01     		.2byte	0x15e
 11387 144e F9000000 		.4byte	0xf9
 11388 1452 02       		.uleb128 0x2
 11389 1453 91       		.byte	0x91
 11390 1454 6B       		.sleb128 -21
 11391 1455 23       		.uleb128 0x23
 11392 1456 72657400 		.ascii	"ret\000"
 11393 145a 01       		.byte	0x1
 11394 145b 6001     		.2byte	0x160
 11395 145d 15090000 		.4byte	0x915
 11396 1461 02       		.uleb128 0x2
 11397 1462 91       		.byte	0x91
 11398 1463 75       		.sleb128 -11
 11399 1464 24       		.uleb128 0x24
 11400 1465 6E180000 		.4byte	.LASF332
 11401 1469 01       		.byte	0x1
 11402 146a 6101     		.2byte	0x161
 11403 146c F9000000 		.4byte	0xf9
 11404 1470 02       		.uleb128 0x2
 11405 1471 91       		.byte	0x91
 11406 1472 77       		.sleb128 -9
 11407 1473 24       		.uleb128 0x24
 11408 1474 1D150000 		.4byte	.LASF333
 11409 1478 01       		.byte	0x1
 11410 1479 6201     		.2byte	0x162
 11411 147b F9000000 		.4byte	0xf9
 11412 147f 02       		.uleb128 0x2
 11413 1480 91       		.byte	0x91
 11414 1481 76       		.sleb128 -10
 11415 1482 00       		.byte	0
 11416 1483 26       		.uleb128 0x26
 11417 1484 01190000 		.4byte	.LASF335
 11418 1488 01       		.byte	0x1
 11419 1489 7D01     		.2byte	0x17d
 11420 148b 15090000 		.4byte	0x915
 11421 148f 10050000 		.4byte	.LFB274
 11422 1493 4C000000 		.4byte	.LFE274-.LFB274
 11423 1497 01       		.uleb128 0x1
 11424 1498 9C       		.byte	0x9c
 11425 1499 AD140000 		.4byte	0x14ad
 11426 149d 23       		.uleb128 0x23
 11427 149e 72657400 		.ascii	"ret\000"
 11428 14a2 01       		.byte	0x1
 11429 14a3 7F01     		.2byte	0x17f
 11430 14a5 15090000 		.4byte	0x915
 11431 14a9 02       		.uleb128 0x2
 11432 14aa 91       		.byte	0x91
 11433 14ab 77       		.sleb128 -9
 11434 14ac 00       		.byte	0
 11435 14ad 26       		.uleb128 0x26
 11436 14ae 18030000 		.4byte	.LASF336
 11437 14b2 01       		.byte	0x1
 11438 14b3 8E01     		.2byte	0x18e
ARM GAS  /tmp/ccNtBBEs.s 			page 206


 11439 14b5 15090000 		.4byte	0x915
 11440 14b9 60050000 		.4byte	.LFB275
 11441 14bd 98000000 		.4byte	.LFE275-.LFB275
 11442 14c1 01       		.uleb128 0x1
 11443 14c2 9C       		.byte	0x9c
 11444 14c3 D7140000 		.4byte	0x14d7
 11445 14c7 23       		.uleb128 0x23
 11446 14c8 72657400 		.ascii	"ret\000"
 11447 14cc 01       		.byte	0x1
 11448 14cd 9001     		.2byte	0x190
 11449 14cf 15090000 		.4byte	0x915
 11450 14d3 02       		.uleb128 0x2
 11451 14d4 91       		.byte	0x91
 11452 14d5 6F       		.sleb128 -17
 11453 14d6 00       		.byte	0
 11454 14d7 22       		.uleb128 0x22
 11455 14d8 43120000 		.4byte	.LASF337
 11456 14dc 01       		.byte	0x1
 11457 14dd A601     		.2byte	0x1a6
 11458 14df 15090000 		.4byte	0x915
 11459 14e3 00060000 		.4byte	.LFB276
 11460 14e7 8C010000 		.4byte	.LFE276-.LFB276
 11461 14eb 01       		.uleb128 0x1
 11462 14ec 9C       		.byte	0x9c
 11463 14ed 1F150000 		.4byte	0x151f
 11464 14f1 25       		.uleb128 0x25
 11465 14f2 990E0000 		.4byte	.LASF171
 11466 14f6 01       		.byte	0x1
 11467 14f7 A601     		.2byte	0x1a6
 11468 14f9 9A060000 		.4byte	0x69a
 11469 14fd 02       		.uleb128 0x2
 11470 14fe 91       		.byte	0x91
 11471 14ff 54       		.sleb128 -44
 11472 1500 23       		.uleb128 0x23
 11473 1501 72657400 		.ascii	"ret\000"
 11474 1505 01       		.byte	0x1
 11475 1506 A801     		.2byte	0x1a8
 11476 1508 15090000 		.4byte	0x915
 11477 150c 02       		.uleb128 0x2
 11478 150d 91       		.byte	0x91
 11479 150e 6F       		.sleb128 -17
 11480 150f 24       		.uleb128 0x24
 11481 1510 05070000 		.4byte	.LASF338
 11482 1514 01       		.byte	0x1
 11483 1515 AA01     		.2byte	0x1aa
 11484 1517 890A0000 		.4byte	0xa89
 11485 151b 02       		.uleb128 0x2
 11486 151c 91       		.byte	0x91
 11487 151d 58       		.sleb128 -40
 11488 151e 00       		.byte	0
 11489 151f 22       		.uleb128 0x22
 11490 1520 D7040000 		.4byte	.LASF339
 11491 1524 01       		.byte	0x1
 11492 1525 DC01     		.2byte	0x1dc
 11493 1527 15090000 		.4byte	0x915
 11494 152b 90070000 		.4byte	.LFB277
 11495 152f C4000000 		.4byte	.LFE277-.LFB277
ARM GAS  /tmp/ccNtBBEs.s 			page 207


 11496 1533 01       		.uleb128 0x1
 11497 1534 9C       		.byte	0x9c
 11498 1535 67150000 		.4byte	0x1567
 11499 1539 25       		.uleb128 0x25
 11500 153a B1100000 		.4byte	.LASF340
 11501 153e 01       		.byte	0x1
 11502 153f DC01     		.2byte	0x1dc
 11503 1541 0F010000 		.4byte	0x10f
 11504 1545 02       		.uleb128 0x2
 11505 1546 91       		.byte	0x91
 11506 1547 66       		.sleb128 -26
 11507 1548 23       		.uleb128 0x23
 11508 1549 72657400 		.ascii	"ret\000"
 11509 154d 01       		.byte	0x1
 11510 154e DE01     		.2byte	0x1de
 11511 1550 15090000 		.4byte	0x915
 11512 1554 02       		.uleb128 0x2
 11513 1555 91       		.byte	0x91
 11514 1556 6F       		.sleb128 -17
 11515 1557 24       		.uleb128 0x24
 11516 1558 05070000 		.4byte	.LASF338
 11517 155c 01       		.byte	0x1
 11518 155d E001     		.2byte	0x1e0
 11519 155f 67150000 		.4byte	0x1567
 11520 1563 02       		.uleb128 0x2
 11521 1564 91       		.byte	0x91
 11522 1565 68       		.sleb128 -24
 11523 1566 00       		.byte	0
 11524 1567 08       		.uleb128 0x8
 11525 1568 F9000000 		.4byte	0xf9
 11526 156c 77150000 		.4byte	0x1577
 11527 1570 09       		.uleb128 0x9
 11528 1571 C5000000 		.4byte	0xc5
 11529 1575 03       		.byte	0x3
 11530 1576 00       		.byte	0
 11531 1577 22       		.uleb128 0x22
 11532 1578 5B0F0000 		.4byte	.LASF341
 11533 157c 01       		.byte	0x1
 11534 157d FA01     		.2byte	0x1fa
 11535 157f 15090000 		.4byte	0x915
 11536 1583 60080000 		.4byte	.LFB278
 11537 1587 C4000000 		.4byte	.LFE278-.LFB278
 11538 158b 01       		.uleb128 0x1
 11539 158c 9C       		.byte	0x9c
 11540 158d BF150000 		.4byte	0x15bf
 11541 1591 25       		.uleb128 0x25
 11542 1592 01050000 		.4byte	.LASF342
 11543 1596 01       		.byte	0x1
 11544 1597 FA01     		.2byte	0x1fa
 11545 1599 A0080000 		.4byte	0x8a0
 11546 159d 02       		.uleb128 0x2
 11547 159e 91       		.byte	0x91
 11548 159f 5F       		.sleb128 -33
 11549 15a0 23       		.uleb128 0x23
 11550 15a1 72657400 		.ascii	"ret\000"
 11551 15a5 01       		.byte	0x1
 11552 15a6 FC01     		.2byte	0x1fc
ARM GAS  /tmp/ccNtBBEs.s 			page 208


 11553 15a8 15090000 		.4byte	0x915
 11554 15ac 02       		.uleb128 0x2
 11555 15ad 91       		.byte	0x91
 11556 15ae 67       		.sleb128 -25
 11557 15af 24       		.uleb128 0x24
 11558 15b0 05070000 		.4byte	.LASF338
 11559 15b4 01       		.byte	0x1
 11560 15b5 FE01     		.2byte	0x1fe
 11561 15b7 BF150000 		.4byte	0x15bf
 11562 15bb 02       		.uleb128 0x2
 11563 15bc 91       		.byte	0x91
 11564 15bd 64       		.sleb128 -28
 11565 15be 00       		.byte	0
 11566 15bf 08       		.uleb128 0x8
 11567 15c0 F9000000 		.4byte	0xf9
 11568 15c4 CF150000 		.4byte	0x15cf
 11569 15c8 09       		.uleb128 0x9
 11570 15c9 C5000000 		.4byte	0xc5
 11571 15cd 02       		.byte	0x2
 11572 15ce 00       		.byte	0
 11573 15cf 22       		.uleb128 0x22
 11574 15d0 E9080000 		.4byte	.LASF343
 11575 15d4 01       		.byte	0x1
 11576 15d5 1802     		.2byte	0x218
 11577 15d7 15090000 		.4byte	0x915
 11578 15db 30090000 		.4byte	.LFB279
 11579 15df C4000000 		.4byte	.LFE279-.LFB279
 11580 15e3 01       		.uleb128 0x1
 11581 15e4 9C       		.byte	0x9c
 11582 15e5 17160000 		.4byte	0x1617
 11583 15e9 25       		.uleb128 0x25
 11584 15ea 04120000 		.4byte	.LASF344
 11585 15ee 01       		.byte	0x1
 11586 15ef 1802     		.2byte	0x218
 11587 15f1 DE080000 		.4byte	0x8de
 11588 15f5 02       		.uleb128 0x2
 11589 15f6 91       		.byte	0x91
 11590 15f7 5F       		.sleb128 -33
 11591 15f8 23       		.uleb128 0x23
 11592 15f9 72657400 		.ascii	"ret\000"
 11593 15fd 01       		.byte	0x1
 11594 15fe 1A02     		.2byte	0x21a
 11595 1600 15090000 		.4byte	0x915
 11596 1604 02       		.uleb128 0x2
 11597 1605 91       		.byte	0x91
 11598 1606 67       		.sleb128 -25
 11599 1607 24       		.uleb128 0x24
 11600 1608 05070000 		.4byte	.LASF338
 11601 160c 01       		.byte	0x1
 11602 160d 1C02     		.2byte	0x21c
 11603 160f BF150000 		.4byte	0x15bf
 11604 1613 02       		.uleb128 0x2
 11605 1614 91       		.byte	0x91
 11606 1615 64       		.sleb128 -28
 11607 1616 00       		.byte	0
 11608 1617 22       		.uleb128 0x22
 11609 1618 55110000 		.4byte	.LASF345
ARM GAS  /tmp/ccNtBBEs.s 			page 209


 11610 161c 01       		.byte	0x1
 11611 161d 3602     		.2byte	0x236
 11612 161f 15090000 		.4byte	0x915
 11613 1623 000A0000 		.4byte	.LFB280
 11614 1627 C4000000 		.4byte	.LFE280-.LFB280
 11615 162b 01       		.uleb128 0x1
 11616 162c 9C       		.byte	0x9c
 11617 162d 5F160000 		.4byte	0x165f
 11618 1631 25       		.uleb128 0x25
 11619 1632 8F000000 		.4byte	.LASF346
 11620 1636 01       		.byte	0x1
 11621 1637 3602     		.2byte	0x236
 11622 1639 0A090000 		.4byte	0x90a
 11623 163d 02       		.uleb128 0x2
 11624 163e 91       		.byte	0x91
 11625 163f 5F       		.sleb128 -33
 11626 1640 23       		.uleb128 0x23
 11627 1641 72657400 		.ascii	"ret\000"
 11628 1645 01       		.byte	0x1
 11629 1646 3802     		.2byte	0x238
 11630 1648 15090000 		.4byte	0x915
 11631 164c 02       		.uleb128 0x2
 11632 164d 91       		.byte	0x91
 11633 164e 67       		.sleb128 -25
 11634 164f 24       		.uleb128 0x24
 11635 1650 05070000 		.4byte	.LASF338
 11636 1654 01       		.byte	0x1
 11637 1655 3A02     		.2byte	0x23a
 11638 1657 BF150000 		.4byte	0x15bf
 11639 165b 02       		.uleb128 0x2
 11640 165c 91       		.byte	0x91
 11641 165d 64       		.sleb128 -28
 11642 165e 00       		.byte	0
 11643 165f 22       		.uleb128 0x22
 11644 1660 CC000000 		.4byte	.LASF347
 11645 1664 01       		.byte	0x1
 11646 1665 5402     		.2byte	0x254
 11647 1667 15090000 		.4byte	0x915
 11648 166b D00A0000 		.4byte	.LFB281
 11649 166f F8000000 		.4byte	.LFE281-.LFB281
 11650 1673 01       		.uleb128 0x1
 11651 1674 9C       		.byte	0x9c
 11652 1675 C5160000 		.4byte	0x16c5
 11653 1679 25       		.uleb128 0x25
 11654 167a A7130000 		.4byte	.LASF348
 11655 167e 01       		.byte	0x1
 11656 167f 5402     		.2byte	0x254
 11657 1681 25010000 		.4byte	0x125
 11658 1685 02       		.uleb128 0x2
 11659 1686 91       		.byte	0x91
 11660 1687 54       		.sleb128 -44
 11661 1688 25       		.uleb128 0x25
 11662 1689 4F120000 		.4byte	.LASF349
 11663 168d 01       		.byte	0x1
 11664 168e 5402     		.2byte	0x254
 11665 1690 F9000000 		.4byte	0xf9
 11666 1694 02       		.uleb128 0x2
ARM GAS  /tmp/ccNtBBEs.s 			page 210


 11667 1695 91       		.byte	0x91
 11668 1696 53       		.sleb128 -45
 11669 1697 25       		.uleb128 0x25
 11670 1698 990E0000 		.4byte	.LASF171
 11671 169c 01       		.byte	0x1
 11672 169d 5402     		.2byte	0x254
 11673 169f F9000000 		.4byte	0xf9
 11674 16a3 02       		.uleb128 0x2
 11675 16a4 91       		.byte	0x91
 11676 16a5 52       		.sleb128 -46
 11677 16a6 23       		.uleb128 0x23
 11678 16a7 72657400 		.ascii	"ret\000"
 11679 16ab 01       		.byte	0x1
 11680 16ac 5602     		.2byte	0x256
 11681 16ae 15090000 		.4byte	0x915
 11682 16b2 02       		.uleb128 0x2
 11683 16b3 91       		.byte	0x91
 11684 16b4 67       		.sleb128 -25
 11685 16b5 24       		.uleb128 0x24
 11686 16b6 05070000 		.4byte	.LASF338
 11687 16ba 01       		.byte	0x1
 11688 16bb 5702     		.2byte	0x257
 11689 16bd B6090000 		.4byte	0x9b6
 11690 16c1 02       		.uleb128 0x2
 11691 16c2 91       		.byte	0x91
 11692 16c3 5C       		.sleb128 -36
 11693 16c4 00       		.byte	0
 11694 16c5 22       		.uleb128 0x22
 11695 16c6 F90C0000 		.4byte	.LASF350
 11696 16ca 01       		.byte	0x1
 11697 16cb 7002     		.2byte	0x270
 11698 16cd 15090000 		.4byte	0x915
 11699 16d1 D00B0000 		.4byte	.LFB282
 11700 16d5 D8000000 		.4byte	.LFE282-.LFB282
 11701 16d9 01       		.uleb128 0x1
 11702 16da 9C       		.byte	0x9c
 11703 16db 0D170000 		.4byte	0x170d
 11704 16df 25       		.uleb128 0x25
 11705 16e0 4F120000 		.4byte	.LASF349
 11706 16e4 01       		.byte	0x1
 11707 16e5 7002     		.2byte	0x270
 11708 16e7 0F010000 		.4byte	0x10f
 11709 16eb 02       		.uleb128 0x2
 11710 16ec 91       		.byte	0x91
 11711 16ed 5E       		.sleb128 -34
 11712 16ee 23       		.uleb128 0x23
 11713 16ef 72657400 		.ascii	"ret\000"
 11714 16f3 01       		.byte	0x1
 11715 16f4 7202     		.2byte	0x272
 11716 16f6 15090000 		.4byte	0x915
 11717 16fa 02       		.uleb128 0x2
 11718 16fb 91       		.byte	0x91
 11719 16fc 67       		.sleb128 -25
 11720 16fd 24       		.uleb128 0x24
 11721 16fe 05070000 		.4byte	.LASF338
 11722 1702 01       		.byte	0x1
 11723 1703 7302     		.2byte	0x273
ARM GAS  /tmp/ccNtBBEs.s 			page 211


 11724 1705 67150000 		.4byte	0x1567
 11725 1709 02       		.uleb128 0x2
 11726 170a 91       		.byte	0x91
 11727 170b 60       		.sleb128 -32
 11728 170c 00       		.byte	0
 11729 170d 22       		.uleb128 0x22
 11730 170e F2100000 		.4byte	.LASF351
 11731 1712 01       		.byte	0x1
 11732 1713 8A02     		.2byte	0x28a
 11733 1715 15090000 		.4byte	0x915
 11734 1719 B00C0000 		.4byte	.LFB283
 11735 171d 14090000 		.4byte	.LFE283-.LFB283
 11736 1721 01       		.uleb128 0x1
 11737 1722 9C       		.byte	0x9c
 11738 1723 61170000 		.4byte	0x1761
 11739 1727 23       		.uleb128 0x23
 11740 1728 72657400 		.ascii	"ret\000"
 11741 172c 01       		.byte	0x1
 11742 172d 8C02     		.2byte	0x28c
 11743 172f 15090000 		.4byte	0x915
 11744 1733 02       		.uleb128 0x2
 11745 1734 91       		.byte	0x91
 11746 1735 76       		.sleb128 -10
 11747 1736 24       		.uleb128 0x24
 11748 1737 1A080000 		.4byte	.LASF327
 11749 173b 01       		.byte	0x1
 11750 173c 8E02     		.2byte	0x28e
 11751 173e F5070000 		.4byte	0x7f5
 11752 1742 02       		.uleb128 0x2
 11753 1743 91       		.byte	0x91
 11754 1744 64       		.sleb128 -28
 11755 1745 24       		.uleb128 0x24
 11756 1746 80180000 		.4byte	.LASF352
 11757 174a 01       		.byte	0x1
 11758 174b 9102     		.2byte	0x291
 11759 174d F9000000 		.4byte	0xf9
 11760 1751 02       		.uleb128 0x2
 11761 1752 91       		.byte	0x91
 11762 1753 77       		.sleb128 -9
 11763 1754 21       		.uleb128 0x21
 11764 1755 01170000 		.4byte	.LASF329
 11765 1759 01       		.byte	0x1
 11766 175a 7203     		.2byte	0x372
 11767 175c 9E150000 		.4byte	.L107
 11768 1760 00       		.byte	0
 11769 1761 22       		.uleb128 0x22
 11770 1762 94110000 		.4byte	.LASF353
 11771 1766 01       		.byte	0x1
 11772 1767 7E03     		.2byte	0x37e
 11773 1769 15090000 		.4byte	0x915
 11774 176d D0150000 		.4byte	.LFB284
 11775 1771 E8010000 		.4byte	.LFE284-.LFB284
 11776 1775 01       		.uleb128 0x1
 11777 1776 9C       		.byte	0x9c
 11778 1777 F7170000 		.4byte	0x17f7
 11779 177b 27       		.uleb128 0x27
 11780 177c 41636300 		.ascii	"Acc\000"
ARM GAS  /tmp/ccNtBBEs.s 			page 212


 11781 1780 01       		.byte	0x1
 11782 1781 7E03     		.2byte	0x37e
 11783 1783 9A060000 		.4byte	0x69a
 11784 1787 03       		.uleb128 0x3
 11785 1788 91       		.byte	0x91
 11786 1789 BC7F     		.sleb128 -68
 11787 178b 25       		.uleb128 0x25
 11788 178c 52020000 		.4byte	.LASF354
 11789 1790 01       		.byte	0x1
 11790 1791 7E03     		.2byte	0x37e
 11791 1793 9A060000 		.4byte	0x69a
 11792 1797 03       		.uleb128 0x3
 11793 1798 91       		.byte	0x91
 11794 1799 B87F     		.sleb128 -72
 11795 179b 27       		.uleb128 0x27
 11796 179c 4D616700 		.ascii	"Mag\000"
 11797 17a0 01       		.byte	0x1
 11798 17a1 7E03     		.2byte	0x37e
 11799 17a3 9A060000 		.4byte	0x69a
 11800 17a7 03       		.uleb128 0x3
 11801 17a8 91       		.byte	0x91
 11802 17a9 B47F     		.sleb128 -76
 11803 17ab 23       		.uleb128 0x23
 11804 17ac 72657400 		.ascii	"ret\000"
 11805 17b0 01       		.byte	0x1
 11806 17b1 8003     		.2byte	0x380
 11807 17b3 15090000 		.4byte	0x915
 11808 17b7 02       		.uleb128 0x2
 11809 17b8 91       		.byte	0x91
 11810 17b9 5B       		.sleb128 -37
 11811 17ba 24       		.uleb128 0x24
 11812 17bb BF0D0000 		.4byte	.LASF108
 11813 17bf 01       		.byte	0x1
 11814 17c0 8103     		.2byte	0x381
 11815 17c2 1A010000 		.4byte	0x11a
 11816 17c6 02       		.uleb128 0x2
 11817 17c7 91       		.byte	0x91
 11818 17c8 64       		.sleb128 -28
 11819 17c9 24       		.uleb128 0x24
 11820 17ca C60D0000 		.4byte	.LASF109
 11821 17ce 01       		.byte	0x1
 11822 17cf 8203     		.2byte	0x382
 11823 17d1 1A010000 		.4byte	0x11a
 11824 17d5 02       		.uleb128 0x2
 11825 17d6 91       		.byte	0x91
 11826 17d7 60       		.sleb128 -32
 11827 17d8 24       		.uleb128 0x24
 11828 17d9 CD0D0000 		.4byte	.LASF110
 11829 17dd 01       		.byte	0x1
 11830 17de 8303     		.2byte	0x383
 11831 17e0 1A010000 		.4byte	0x11a
 11832 17e4 02       		.uleb128 0x2
 11833 17e5 91       		.byte	0x91
 11834 17e6 5C       		.sleb128 -36
 11835 17e7 24       		.uleb128 0x24
 11836 17e8 05070000 		.4byte	.LASF338
 11837 17ec 01       		.byte	0x1
ARM GAS  /tmp/ccNtBBEs.s 			page 213


 11838 17ed 8503     		.2byte	0x385
 11839 17ef 890A0000 		.4byte	0xa89
 11840 17f3 02       		.uleb128 0x2
 11841 17f4 91       		.byte	0x91
 11842 17f5 44       		.sleb128 -60
 11843 17f6 00       		.byte	0
 11844 17f7 22       		.uleb128 0x22
 11845 17f8 2A0C0000 		.4byte	.LASF355
 11846 17fc 01       		.byte	0x1
 11847 17fd B403     		.2byte	0x3b4
 11848 17ff 15090000 		.4byte	0x915
 11849 1803 C0170000 		.4byte	.LFB285
 11850 1807 04020000 		.4byte	.LFE285-.LFB285
 11851 180b 01       		.uleb128 0x1
 11852 180c 9C       		.byte	0x9c
 11853 180d 7B180000 		.4byte	0x187b
 11854 1811 25       		.uleb128 0x25
 11855 1812 9C0D0000 		.4byte	.LASF356
 11856 1816 01       		.byte	0x1
 11857 1817 B403     		.2byte	0x3b4
 11858 1819 1A010000 		.4byte	0x11a
 11859 181d 02       		.uleb128 0x2
 11860 181e 91       		.byte	0x91
 11861 181f 54       		.sleb128 -44
 11862 1820 27       		.uleb128 0x27
 11863 1821 48756D00 		.ascii	"Hum\000"
 11864 1825 01       		.byte	0x1
 11865 1826 B403     		.2byte	0x3b4
 11866 1828 0F010000 		.4byte	0x10f
 11867 182c 02       		.uleb128 0x2
 11868 182d 91       		.byte	0x91
 11869 182e 52       		.sleb128 -46
 11870 182f 25       		.uleb128 0x25
 11871 1830 ED0D0000 		.4byte	.LASF357
 11872 1834 01       		.byte	0x1
 11873 1835 B403     		.2byte	0x3b4
 11874 1837 04010000 		.4byte	0x104
 11875 183b 02       		.uleb128 0x2
 11876 183c 91       		.byte	0x91
 11877 183d 50       		.sleb128 -48
 11878 183e 25       		.uleb128 0x25
 11879 183f 4E040000 		.4byte	.LASF358
 11880 1843 01       		.byte	0x1
 11881 1844 B403     		.2byte	0x3b4
 11882 1846 04010000 		.4byte	0x104
 11883 184a 02       		.uleb128 0x2
 11884 184b 91       		.byte	0x91
 11885 184c 4E       		.sleb128 -50
 11886 184d 23       		.uleb128 0x23
 11887 184e 72657400 		.ascii	"ret\000"
 11888 1852 01       		.byte	0x1
 11889 1853 B603     		.2byte	0x3b6
 11890 1855 15090000 		.4byte	0x915
 11891 1859 02       		.uleb128 0x2
 11892 185a 91       		.byte	0x91
 11893 185b 66       		.sleb128 -26
 11894 185c 24       		.uleb128 0x24
ARM GAS  /tmp/ccNtBBEs.s 			page 214


 11895 185d 820C0000 		.4byte	.LASF359
 11896 1861 01       		.byte	0x1
 11897 1862 B703     		.2byte	0x3b7
 11898 1864 F9000000 		.4byte	0xf9
 11899 1868 02       		.uleb128 0x2
 11900 1869 91       		.byte	0x91
 11901 186a 67       		.sleb128 -25
 11902 186b 24       		.uleb128 0x24
 11903 186c 05070000 		.4byte	.LASF338
 11904 1870 01       		.byte	0x1
 11905 1871 B903     		.2byte	0x3b9
 11906 1873 40010000 		.4byte	0x140
 11907 1877 02       		.uleb128 0x2
 11908 1878 91       		.byte	0x91
 11909 1879 58       		.sleb128 -40
 11910 187a 00       		.byte	0
 11911 187b 22       		.uleb128 0x22
 11912 187c 480E0000 		.4byte	.LASF360
 11913 1880 01       		.byte	0x1
 11914 1881 E603     		.2byte	0x3e6
 11915 1883 15090000 		.4byte	0x915
 11916 1887 D0190000 		.4byte	.LFB286
 11917 188b E0000000 		.4byte	.LFE286-.LFB286
 11918 188f 01       		.uleb128 0x1
 11919 1890 9C       		.byte	0x9c
 11920 1891 D2180000 		.4byte	0x18d2
 11921 1895 27       		.uleb128 0x27
 11922 1896 4D696300 		.ascii	"Mic\000"
 11923 189a 01       		.byte	0x1
 11924 189b E603     		.2byte	0x3e6
 11925 189d A7060000 		.4byte	0x6a7
 11926 18a1 02       		.uleb128 0x2
 11927 18a2 91       		.byte	0x91
 11928 18a3 64       		.sleb128 -28
 11929 18a4 23       		.uleb128 0x23
 11930 18a5 72657400 		.ascii	"ret\000"
 11931 18a9 01       		.byte	0x1
 11932 18aa E803     		.2byte	0x3e8
 11933 18ac 15090000 		.4byte	0x915
 11934 18b0 02       		.uleb128 0x2
 11935 18b1 91       		.byte	0x91
 11936 18b2 6D       		.sleb128 -19
 11937 18b3 24       		.uleb128 0x24
 11938 18b4 2C0B0000 		.4byte	.LASF361
 11939 18b8 01       		.byte	0x1
 11940 18b9 E903     		.2byte	0x3e9
 11941 18bb 0F010000 		.4byte	0x10f
 11942 18bf 02       		.uleb128 0x2
 11943 18c0 91       		.byte	0x91
 11944 18c1 6E       		.sleb128 -18
 11945 18c2 24       		.uleb128 0x24
 11946 18c3 05070000 		.4byte	.LASF338
 11947 18c7 01       		.byte	0x1
 11948 18c8 EB03     		.2byte	0x3eb
 11949 18ca BF150000 		.4byte	0x15bf
 11950 18ce 02       		.uleb128 0x2
 11951 18cf 91       		.byte	0x91
ARM GAS  /tmp/ccNtBBEs.s 			page 215


 11952 18d0 68       		.sleb128 -24
 11953 18d1 00       		.byte	0
 11954 18d2 22       		.uleb128 0x22
 11955 18d3 210A0000 		.4byte	.LASF362
 11956 18d7 01       		.byte	0x1
 11957 18d8 0404     		.2byte	0x404
 11958 18da 15090000 		.4byte	0x915
 11959 18de B01A0000 		.4byte	.LFB287
 11960 18e2 7C010000 		.4byte	.LFE287-.LFB287
 11961 18e6 01       		.uleb128 0x1
 11962 18e7 9C       		.byte	0x9c
 11963 18e8 75190000 		.4byte	0x1975
 11964 18ec 23       		.uleb128 0x23
 11965 18ed 72657400 		.ascii	"ret\000"
 11966 18f1 01       		.byte	0x1
 11967 18f2 0604     		.2byte	0x406
 11968 18f4 15090000 		.4byte	0x915
 11969 18f8 02       		.uleb128 0x2
 11970 18f9 91       		.byte	0x91
 11971 18fa 6F       		.sleb128 -17
 11972 18fb 24       		.uleb128 0x24
 11973 18fc 39020000 		.4byte	.LASF363
 11974 1900 01       		.byte	0x1
 11975 1901 0704     		.2byte	0x407
 11976 1903 25010000 		.4byte	0x125
 11977 1907 02       		.uleb128 0x2
 11978 1908 91       		.byte	0x91
 11979 1909 68       		.sleb128 -24
 11980 190a 23       		.uleb128 0x23
 11981 190b 736F6300 		.ascii	"soc\000"
 11982 190f 01       		.byte	0x1
 11983 1910 0704     		.2byte	0x407
 11984 1912 25010000 		.4byte	0x125
 11985 1916 02       		.uleb128 0x2
 11986 1917 91       		.byte	0x91
 11987 1918 64       		.sleb128 -28
 11988 1919 24       		.uleb128 0x24
 11989 191a 0D180000 		.4byte	.LASF364
 11990 191e 01       		.byte	0x1
 11991 191f 0804     		.2byte	0x408
 11992 1921 1A010000 		.4byte	0x11a
 11993 1925 02       		.uleb128 0x2
 11994 1926 91       		.byte	0x91
 11995 1927 60       		.sleb128 -32
 11996 1928 24       		.uleb128 0x24
 11997 1929 BA090000 		.4byte	.LASF365
 11998 192d 01       		.byte	0x1
 11999 192e 0904     		.2byte	0x409
 12000 1930 F9000000 		.4byte	0xf9
 12001 1934 02       		.uleb128 0x2
 12002 1935 91       		.byte	0x91
 12003 1936 5F       		.sleb128 -33
 12004 1937 24       		.uleb128 0x24
 12005 1938 05070000 		.4byte	.LASF338
 12006 193c 01       		.byte	0x1
 12007 193d 0B04     		.2byte	0x40b
 12008 193f 75190000 		.4byte	0x1975
ARM GAS  /tmp/ccNtBBEs.s 			page 216


 12009 1943 02       		.uleb128 0x2
 12010 1944 91       		.byte	0x91
 12011 1945 54       		.sleb128 -44
 12012 1946 28       		.uleb128 0x28
 12013 1947 601B0000 		.4byte	.LBB2
 12014 194b 3A000000 		.4byte	.LBE2-.LBB2
 12015 194f 24       		.uleb128 0x24
 12016 1950 D8070000 		.4byte	.LASF366
 12017 1954 01       		.byte	0x1
 12018 1955 1E04     		.2byte	0x41e
 12019 1957 25010000 		.4byte	0x125
 12020 195b 05       		.uleb128 0x5
 12021 195c 03       		.byte	0x3
 12022 195d 60000000 		.4byte	PreVoltage.18743
 12023 1961 24       		.uleb128 0x24
 12024 1962 68010000 		.4byte	.LASF367
 12025 1966 01       		.byte	0x1
 12026 1967 1F04     		.2byte	0x41f
 12027 1969 25010000 		.4byte	0x125
 12028 196d 05       		.uleb128 0x5
 12029 196e 03       		.byte	0x3
 12030 196f 04000000 		.4byte	Status.18744
 12031 1973 00       		.byte	0
 12032 1974 00       		.byte	0
 12033 1975 08       		.uleb128 0x8
 12034 1976 F9000000 		.4byte	0xf9
 12035 197a 85190000 		.4byte	0x1985
 12036 197e 09       		.uleb128 0x9
 12037 197f C5000000 		.4byte	0xc5
 12038 1983 08       		.byte	0x8
 12039 1984 00       		.byte	0
 12040 1985 29       		.uleb128 0x29
 12041 1986 D7180000 		.4byte	.LASF371
 12042 198a 01       		.byte	0x1
 12043 198b 5D04     		.2byte	0x45d
 12044 198d 301C0000 		.4byte	.LFB288
 12045 1991 C0010000 		.4byte	.LFE288-.LFB288
 12046 1995 01       		.uleb128 0x1
 12047 1996 9C       		.byte	0x9c
 12048 1997 BA190000 		.4byte	0x19ba
 12049 199b 24       		.uleb128 0x24
 12050 199c 74110000 		.4byte	.LASF368
 12051 19a0 01       		.byte	0x1
 12052 19a1 5F04     		.2byte	0x45f
 12053 19a3 DE000000 		.4byte	0xde
 12054 19a7 02       		.uleb128 0x2
 12055 19a8 91       		.byte	0x91
 12056 19a9 68       		.sleb128 -24
 12057 19aa 24       		.uleb128 0x24
 12058 19ab 910F0000 		.4byte	.LASF369
 12059 19af 01       		.byte	0x1
 12060 19b0 6004     		.2byte	0x460
 12061 19b2 BA190000 		.4byte	0x19ba
 12062 19b6 02       		.uleb128 0x2
 12063 19b7 91       		.byte	0x91
 12064 19b8 4C       		.sleb128 -52
 12065 19b9 00       		.byte	0
ARM GAS  /tmp/ccNtBBEs.s 			page 217


 12066 19ba 08       		.uleb128 0x8
 12067 19bb F9000000 		.4byte	0xf9
 12068 19bf CA190000 		.4byte	0x19ca
 12069 19c3 09       		.uleb128 0x9
 12070 19c4 C5000000 		.4byte	0xc5
 12071 19c8 19       		.byte	0x19
 12072 19c9 00       		.byte	0
 12073 19ca 2A       		.uleb128 0x2a
 12074 19cb 08100000 		.4byte	.LASF464
 12075 19cf 01       		.byte	0x1
 12076 19d0 DC04     		.2byte	0x4dc
 12077 19d2 F01D0000 		.4byte	.LFB289
 12078 19d6 80000000 		.4byte	.LFE289-.LFB289
 12079 19da 01       		.uleb128 0x1
 12080 19db 9C       		.byte	0x9c
 12081 19dc 181A0000 		.4byte	0x1a18
 12082 19e0 25       		.uleb128 0x25
 12083 19e1 A4160000 		.4byte	.LASF370
 12084 19e5 01       		.byte	0x1
 12085 19e6 DC04     		.2byte	0x4dc
 12086 19e8 F8040000 		.4byte	0x4f8
 12087 19ec 02       		.uleb128 0x2
 12088 19ed 91       		.byte	0x91
 12089 19ee 6C       		.sleb128 -20
 12090 19ef 25       		.uleb128 0x25
 12091 19f0 CC170000 		.4byte	.LASF181
 12092 19f4 01       		.byte	0x1
 12093 19f5 DC04     		.2byte	0x4dc
 12094 19f7 0F010000 		.4byte	0x10f
 12095 19fb 02       		.uleb128 0x2
 12096 19fc 91       		.byte	0x91
 12097 19fd 6A       		.sleb128 -22
 12098 19fe 28       		.uleb128 0x28
 12099 19ff 301E0000 		.4byte	.LBB3
 12100 1a03 22000000 		.4byte	.LBE3-.LBB3
 12101 1a07 23       		.uleb128 0x23
 12102 1a08 72657400 		.ascii	"ret\000"
 12103 1a0c 01       		.byte	0x1
 12104 1a0d F204     		.2byte	0x4f2
 12105 1a0f 39000000 		.4byte	0x39
 12106 1a13 02       		.uleb128 0x2
 12107 1a14 91       		.byte	0x91
 12108 1a15 74       		.sleb128 -12
 12109 1a16 00       		.byte	0
 12110 1a17 00       		.byte	0
 12111 1a18 2B       		.uleb128 0x2b
 12112 1a19 94100000 		.4byte	.LASF465
 12113 1a1d 01       		.byte	0x1
 12114 1a1e 0705     		.2byte	0x507
 12115 1a20 701E0000 		.4byte	.LFB290
 12116 1a24 C4000000 		.4byte	.LFE290-.LFB290
 12117 1a28 01       		.uleb128 0x1
 12118 1a29 9C       		.byte	0x9c
 12119 1a2a 29       		.uleb128 0x29
 12120 1a2b D8100000 		.4byte	.LASF372
 12121 1a2f 01       		.byte	0x1
 12122 1a30 5805     		.2byte	0x558
ARM GAS  /tmp/ccNtBBEs.s 			page 218


 12123 1a32 401F0000 		.4byte	.LFB291
 12124 1a36 B8030000 		.4byte	.LFE291-.LFB291
 12125 1a3a 01       		.uleb128 0x1
 12126 1a3b 9C       		.byte	0x9c
 12127 1a3c EF1A0000 		.4byte	0x1aef
 12128 1a40 25       		.uleb128 0x25
 12129 1a41 CC170000 		.4byte	.LASF181
 12130 1a45 01       		.byte	0x1
 12131 1a46 5805     		.2byte	0x558
 12132 1a48 0F010000 		.4byte	0x10f
 12133 1a4c 02       		.uleb128 0x2
 12134 1a4d 91       		.byte	0x91
 12135 1a4e 56       		.sleb128 -42
 12136 1a4f 24       		.uleb128 0x24
 12137 1a50 68010000 		.4byte	.LASF367
 12138 1a54 01       		.byte	0x1
 12139 1a55 5A05     		.2byte	0x55a
 12140 1a57 F9000000 		.4byte	0xf9
 12141 1a5b 02       		.uleb128 0x2
 12142 1a5c 91       		.byte	0x91
 12143 1a5d 63       		.sleb128 -29
 12144 1a5e 2C       		.uleb128 0x2c
 12145 1a5f 5A1F0000 		.4byte	.LBB4
 12146 1a63 76020000 		.4byte	.LBE4-.LBB4
 12147 1a67 D51A0000 		.4byte	0x1ad5
 12148 1a6b 24       		.uleb128 0x24
 12149 1a6c 74040000 		.4byte	.LASF373
 12150 1a70 01       		.byte	0x1
 12151 1a71 5D05     		.2byte	0x55d
 12152 1a73 A0060000 		.4byte	0x6a0
 12153 1a77 02       		.uleb128 0x2
 12154 1a78 91       		.byte	0x91
 12155 1a79 5C       		.sleb128 -36
 12156 1a7a 24       		.uleb128 0x24
 12157 1a7b 9E070000 		.4byte	.LASF374
 12158 1a7f 01       		.byte	0x1
 12159 1a80 5E05     		.2byte	0x55e
 12160 1a82 1A010000 		.4byte	0x11a
 12161 1a86 02       		.uleb128 0x2
 12162 1a87 91       		.byte	0x91
 12163 1a88 74       		.sleb128 -12
 12164 1a89 24       		.uleb128 0x24
 12165 1a8a 8A070000 		.4byte	.LASF375
 12166 1a8e 01       		.byte	0x1
 12167 1a8f 5F05     		.2byte	0x55f
 12168 1a91 0F010000 		.4byte	0x10f
 12169 1a95 02       		.uleb128 0x2
 12170 1a96 91       		.byte	0x91
 12171 1a97 72       		.sleb128 -14
 12172 1a98 24       		.uleb128 0x24
 12173 1a99 46180000 		.4byte	.LASF376
 12174 1a9d 01       		.byte	0x1
 12175 1a9e 6005     		.2byte	0x560
 12176 1aa0 04010000 		.4byte	0x104
 12177 1aa4 02       		.uleb128 0x2
 12178 1aa5 91       		.byte	0x91
 12179 1aa6 70       		.sleb128 -16
ARM GAS  /tmp/ccNtBBEs.s 			page 219


 12180 1aa7 24       		.uleb128 0x24
 12181 1aa8 A7180000 		.4byte	.LASF377
 12182 1aac 01       		.byte	0x1
 12183 1aad 6005     		.2byte	0x560
 12184 1aaf 04010000 		.4byte	0x104
 12185 1ab3 02       		.uleb128 0x2
 12186 1ab4 91       		.byte	0x91
 12187 1ab5 6E       		.sleb128 -18
 12188 1ab6 24       		.uleb128 0x24
 12189 1ab7 690E0000 		.4byte	.LASF378
 12190 1abb 01       		.byte	0x1
 12191 1abc 6105     		.2byte	0x561
 12192 1abe 1A010000 		.4byte	0x11a
 12193 1ac2 02       		.uleb128 0x2
 12194 1ac3 91       		.byte	0x91
 12195 1ac4 64       		.sleb128 -28
 12196 1ac5 24       		.uleb128 0x24
 12197 1ac6 73080000 		.4byte	.LASF379
 12198 1aca 01       		.byte	0x1
 12199 1acb 6105     		.2byte	0x561
 12200 1acd 1A010000 		.4byte	0x11a
 12201 1ad1 02       		.uleb128 0x2
 12202 1ad2 91       		.byte	0x91
 12203 1ad3 68       		.sleb128 -24
 12204 1ad4 00       		.byte	0
 12205 1ad5 28       		.uleb128 0x28
 12206 1ad6 FA210000 		.4byte	.LBB5
 12207 1ada 2A000000 		.4byte	.LBE5-.LBB5
 12208 1ade 24       		.uleb128 0x24
 12209 1adf BA0B0000 		.4byte	.LASF380
 12210 1ae3 01       		.byte	0x1
 12211 1ae4 8A05     		.2byte	0x58a
 12212 1ae6 0F010000 		.4byte	0x10f
 12213 1aea 02       		.uleb128 0x2
 12214 1aeb 91       		.byte	0x91
 12215 1aec 6C       		.sleb128 -20
 12216 1aed 00       		.byte	0
 12217 1aee 00       		.byte	0
 12218 1aef 29       		.uleb128 0x29
 12219 1af0 E40B0000 		.4byte	.LASF381
 12220 1af4 01       		.byte	0x1
 12221 1af5 BA05     		.2byte	0x5ba
 12222 1af7 00230000 		.4byte	.LFB292
 12223 1afb F80A0000 		.4byte	.LFE292-.LFB292
 12224 1aff 01       		.uleb128 0x1
 12225 1b00 9C       		.byte	0x9c
 12226 1b01 331C0000 		.4byte	0x1c33
 12227 1b05 25       		.uleb128 0x25
 12228 1b06 B6030000 		.4byte	.LASF195
 12229 1b0a 01       		.byte	0x1
 12230 1b0b BA05     		.2byte	0x5ba
 12231 1b0d 0F010000 		.4byte	0x10f
 12232 1b11 03       		.uleb128 0x3
 12233 1b12 91       		.byte	0x91
 12234 1b13 BE7F     		.sleb128 -66
 12235 1b15 25       		.uleb128 0x25
 12236 1b16 58070000 		.4byte	.LASF198
ARM GAS  /tmp/ccNtBBEs.s 			page 220


 12237 1b1a 01       		.byte	0x1
 12238 1b1b BA05     		.2byte	0x5ba
 12239 1b1d F8040000 		.4byte	0x4f8
 12240 1b21 03       		.uleb128 0x3
 12241 1b22 91       		.byte	0x91
 12242 1b23 B87F     		.sleb128 -72
 12243 1b25 25       		.uleb128 0x25
 12244 1b26 57160000 		.4byte	.LASF196
 12245 1b2a 01       		.byte	0x1
 12246 1b2b BA05     		.2byte	0x5ba
 12247 1b2d F9000000 		.4byte	0xf9
 12248 1b31 03       		.uleb128 0x3
 12249 1b32 91       		.byte	0x91
 12250 1b33 BD7F     		.sleb128 -67
 12251 1b35 2C       		.uleb128 0x2c
 12252 1b36 46230000 		.4byte	.LBB6
 12253 1b3a 12000000 		.4byte	.LBE6-.LBB6
 12254 1b3e 521B0000 		.4byte	0x1b52
 12255 1b42 24       		.uleb128 0x24
 12256 1b43 59060000 		.4byte	.LASF382
 12257 1b47 01       		.byte	0x1
 12258 1b48 CD05     		.2byte	0x5cd
 12259 1b4a 25010000 		.4byte	0x125
 12260 1b4e 02       		.uleb128 0x2
 12261 1b4f 91       		.byte	0x91
 12262 1b50 5C       		.sleb128 -36
 12263 1b51 00       		.byte	0
 12264 1b52 2C       		.uleb128 0x2c
 12265 1b53 F6230000 		.4byte	.LBB7
 12266 1b57 12000000 		.4byte	.LBE7-.LBB7
 12267 1b5b 6F1B0000 		.4byte	0x1b6f
 12268 1b5f 24       		.uleb128 0x24
 12269 1b60 59060000 		.4byte	.LASF382
 12270 1b64 01       		.byte	0x1
 12271 1b65 ED05     		.2byte	0x5ed
 12272 1b67 25010000 		.4byte	0x125
 12273 1b6b 02       		.uleb128 0x2
 12274 1b6c 91       		.byte	0x91
 12275 1b6d 58       		.sleb128 -40
 12276 1b6e 00       		.byte	0
 12277 1b6f 2C       		.uleb128 0x2c
 12278 1b70 E8250000 		.4byte	.LBB8
 12279 1b74 14000000 		.4byte	.LBE8-.LBB8
 12280 1b78 8C1B0000 		.4byte	0x1b8c
 12281 1b7c 24       		.uleb128 0x24
 12282 1b7d 59060000 		.4byte	.LASF382
 12283 1b81 01       		.byte	0x1
 12284 1b82 3506     		.2byte	0x635
 12285 1b84 25010000 		.4byte	0x125
 12286 1b88 02       		.uleb128 0x2
 12287 1b89 91       		.byte	0x91
 12288 1b8a 54       		.sleb128 -44
 12289 1b8b 00       		.byte	0
 12290 1b8c 2C       		.uleb128 0x2c
 12291 1b8d A0260000 		.4byte	.LBB9
 12292 1b91 12000000 		.4byte	.LBE9-.LBB9
 12293 1b95 A91B0000 		.4byte	0x1ba9
ARM GAS  /tmp/ccNtBBEs.s 			page 221


 12294 1b99 24       		.uleb128 0x24
 12295 1b9a 59060000 		.4byte	.LASF382
 12296 1b9e 01       		.byte	0x1
 12297 1b9f 5D06     		.2byte	0x65d
 12298 1ba1 25010000 		.4byte	0x125
 12299 1ba5 02       		.uleb128 0x2
 12300 1ba6 91       		.byte	0x91
 12301 1ba7 50       		.sleb128 -48
 12302 1ba8 00       		.byte	0
 12303 1ba9 2C       		.uleb128 0x2c
 12304 1baa 56270000 		.4byte	.LBB10
 12305 1bae 12000000 		.4byte	.LBE10-.LBB10
 12306 1bb2 C61B0000 		.4byte	0x1bc6
 12307 1bb6 24       		.uleb128 0x24
 12308 1bb7 59060000 		.4byte	.LASF382
 12309 1bbb 01       		.byte	0x1
 12310 1bbc 8506     		.2byte	0x685
 12311 1bbe 25010000 		.4byte	0x125
 12312 1bc2 02       		.uleb128 0x2
 12313 1bc3 91       		.byte	0x91
 12314 1bc4 4C       		.sleb128 -52
 12315 1bc5 00       		.byte	0
 12316 1bc6 2C       		.uleb128 0x2c
 12317 1bc7 40290000 		.4byte	.LBB11
 12318 1bcb 16000000 		.4byte	.LBE11-.LBB11
 12319 1bcf E31B0000 		.4byte	0x1be3
 12320 1bd3 24       		.uleb128 0x24
 12321 1bd4 59060000 		.4byte	.LASF382
 12322 1bd8 01       		.byte	0x1
 12323 1bd9 F606     		.2byte	0x6f6
 12324 1bdb 25010000 		.4byte	0x125
 12325 1bdf 02       		.uleb128 0x2
 12326 1be0 91       		.byte	0x91
 12327 1be1 48       		.sleb128 -56
 12328 1be2 00       		.byte	0
 12329 1be3 2C       		.uleb128 0x2c
 12330 1be4 A42B0000 		.4byte	.LBB12
 12331 1be8 C2000000 		.4byte	.LBE12-.LBB12
 12332 1bec 191C0000 		.4byte	0x1c19
 12333 1bf0 24       		.uleb128 0x24
 12334 1bf1 5D120000 		.4byte	.LASF383
 12335 1bf5 01       		.byte	0x1
 12336 1bf6 3E07     		.2byte	0x73e
 12337 1bf8 25010000 		.4byte	0x125
 12338 1bfc 02       		.uleb128 0x2
 12339 1bfd 91       		.byte	0x91
 12340 1bfe 64       		.sleb128 -28
 12341 1bff 28       		.uleb128 0x28
 12342 1c00 B02B0000 		.4byte	.LBB13
 12343 1c04 94000000 		.4byte	.LBE13-.LBB13
 12344 1c08 24       		.uleb128 0x24
 12345 1c09 07090000 		.4byte	.LASF384
 12346 1c0d 01       		.byte	0x1
 12347 1c0e 4207     		.2byte	0x742
 12348 1c10 EE000000 		.4byte	0xee
 12349 1c14 02       		.uleb128 0x2
 12350 1c15 91       		.byte	0x91
ARM GAS  /tmp/ccNtBBEs.s 			page 222


 12351 1c16 47       		.sleb128 -57
 12352 1c17 00       		.byte	0
 12353 1c18 00       		.byte	0
 12354 1c19 28       		.uleb128 0x28
 12355 1c1a 802C0000 		.4byte	.LBB14
 12356 1c1e 54000000 		.4byte	.LBE14-.LBB14
 12357 1c22 24       		.uleb128 0x24
 12358 1c23 E3080000 		.4byte	.LASF385
 12359 1c27 01       		.byte	0x1
 12360 1c28 5B07     		.2byte	0x75b
 12361 1c2a 1A010000 		.4byte	0x11a
 12362 1c2e 02       		.uleb128 0x2
 12363 1c2f 91       		.byte	0x91
 12364 1c30 60       		.sleb128 -32
 12365 1c31 00       		.byte	0
 12366 1c32 00       		.byte	0
 12367 1c33 26       		.uleb128 0x26
 12368 1c34 B9150000 		.4byte	.LASF386
 12369 1c38 01       		.byte	0x1
 12370 1c39 9207     		.2byte	0x792
 12371 1c3b 25010000 		.4byte	0x125
 12372 1c3f 002E0000 		.4byte	.LFB293
 12373 1c43 200A0000 		.4byte	.LFE293-.LFB293
 12374 1c47 01       		.uleb128 0x1
 12375 1c48 9C       		.byte	0x9c
 12376 1c49 5C1E0000 		.4byte	0x1e5c
 12377 1c4d 25       		.uleb128 0x25
 12378 1c4e 58070000 		.4byte	.LASF198
 12379 1c52 01       		.byte	0x1
 12380 1c53 9207     		.2byte	0x792
 12381 1c55 F8040000 		.4byte	0x4f8
 12382 1c59 03       		.uleb128 0x3
 12383 1c5a 91       		.byte	0x91
 12384 1c5b 847F     		.sleb128 -124
 12385 1c5d 25       		.uleb128 0x25
 12386 1c5e 57160000 		.4byte	.LASF196
 12387 1c62 01       		.byte	0x1
 12388 1c63 9207     		.2byte	0x792
 12389 1c65 F9000000 		.4byte	0xf9
 12390 1c69 03       		.uleb128 0x3
 12391 1c6a 91       		.byte	0x91
 12392 1c6b 837F     		.sleb128 -125
 12393 1c6d 24       		.uleb128 0x24
 12394 1c6e 5D120000 		.4byte	.LASF383
 12395 1c72 01       		.byte	0x1
 12396 1c73 9407     		.2byte	0x794
 12397 1c75 25010000 		.4byte	0x125
 12398 1c79 02       		.uleb128 0x2
 12399 1c7a 91       		.byte	0x91
 12400 1c7b 5C       		.sleb128 -36
 12401 1c7c 24       		.uleb128 0x24
 12402 1c7d D0140000 		.4byte	.LASF387
 12403 1c81 01       		.byte	0x1
 12404 1c82 9507     		.2byte	0x795
 12405 1c84 1A010000 		.4byte	0x11a
 12406 1c88 05       		.uleb128 0x5
 12407 1c89 03       		.byte	0x3
ARM GAS  /tmp/ccNtBBEs.s 			page 223


 12408 1c8a 64000000 		.4byte	osxLicenseStart.18793
 12409 1c8e 2C       		.uleb128 0x2c
 12410 1c8f F22E0000 		.4byte	.LBB15
 12411 1c93 50000000 		.4byte	.LBE15-.LBB15
 12412 1c97 DC1C0000 		.4byte	0x1cdc
 12413 1c9b 24       		.uleb128 0x24
 12414 1c9c 39020000 		.4byte	.LASF363
 12415 1ca0 01       		.byte	0x1
 12416 1ca1 C107     		.2byte	0x7c1
 12417 1ca3 25010000 		.4byte	0x125
 12418 1ca7 03       		.uleb128 0x3
 12419 1ca8 91       		.byte	0x91
 12420 1ca9 B47F     		.sleb128 -76
 12421 1cab 23       		.uleb128 0x23
 12422 1cac 736F6300 		.ascii	"soc\000"
 12423 1cb0 01       		.byte	0x1
 12424 1cb1 C107     		.2byte	0x7c1
 12425 1cb3 25010000 		.4byte	0x125
 12426 1cb7 03       		.uleb128 0x3
 12427 1cb8 91       		.byte	0x91
 12428 1cb9 B07F     		.sleb128 -80
 12429 1cbb 24       		.uleb128 0x24
 12430 1cbc BA090000 		.4byte	.LASF365
 12431 1cc0 01       		.byte	0x1
 12432 1cc1 C207     		.2byte	0x7c2
 12433 1cc3 F9000000 		.4byte	0xf9
 12434 1cc7 03       		.uleb128 0x3
 12435 1cc8 91       		.byte	0x91
 12436 1cc9 AF7F     		.sleb128 -81
 12437 1ccb 24       		.uleb128 0x24
 12438 1ccc 0D180000 		.4byte	.LASF364
 12439 1cd0 01       		.byte	0x1
 12440 1cd1 C307     		.2byte	0x7c3
 12441 1cd3 1A010000 		.4byte	0x11a
 12442 1cd7 03       		.uleb128 0x3
 12443 1cd8 91       		.byte	0x91
 12444 1cd9 A87F     		.sleb128 -88
 12445 1cdb 00       		.byte	0
 12446 1cdc 2C       		.uleb128 0x2c
 12447 1cdd 42300000 		.4byte	.LBB16
 12448 1ce1 20010000 		.4byte	.LBE16-.LBB16
 12449 1ce5 221D0000 		.4byte	0x1d22
 12450 1ce9 24       		.uleb128 0x24
 12451 1cea 75180000 		.4byte	.LASF388
 12452 1cee 01       		.byte	0x1
 12453 1cef 0108     		.2byte	0x801
 12454 1cf1 25010000 		.4byte	0x125
 12455 1cf5 03       		.uleb128 0x3
 12456 1cf6 91       		.byte	0x91
 12457 1cf7 A47F     		.sleb128 -92
 12458 1cf9 24       		.uleb128 0x24
 12459 1cfa A4060000 		.4byte	.LASF389
 12460 1cfe 01       		.byte	0x1
 12461 1cff 0208     		.2byte	0x802
 12462 1d01 F8040000 		.4byte	0x4f8
 12463 1d05 02       		.uleb128 0x2
 12464 1d06 91       		.byte	0x91
ARM GAS  /tmp/ccNtBBEs.s 			page 224


 12465 1d07 50       		.sleb128 -48
 12466 1d08 28       		.uleb128 0x28
 12467 1d09 08310000 		.4byte	.LBB17
 12468 1d0d 22000000 		.4byte	.LBE17-.LBB17
 12469 1d11 23       		.uleb128 0x23
 12470 1d12 72657400 		.ascii	"ret\000"
 12471 1d16 01       		.byte	0x1
 12472 1d17 2908     		.2byte	0x829
 12473 1d19 39000000 		.4byte	0x39
 12474 1d1d 02       		.uleb128 0x2
 12475 1d1e 91       		.byte	0x91
 12476 1d1f 4C       		.sleb128 -52
 12477 1d20 00       		.byte	0
 12478 1d21 00       		.byte	0
 12479 1d22 2C       		.uleb128 0x2c
 12480 1d23 74310000 		.4byte	.LBB18
 12481 1d27 70000000 		.4byte	.LBE18-.LBB18
 12482 1d2b 501D0000 		.4byte	0x1d50
 12483 1d2f 24       		.uleb128 0x24
 12484 1d30 B6140000 		.4byte	.LASF390
 12485 1d34 01       		.byte	0x1
 12486 1d35 4208     		.2byte	0x842
 12487 1d37 F9000000 		.4byte	0xf9
 12488 1d3b 03       		.uleb128 0x3
 12489 1d3c 91       		.byte	0x91
 12490 1d3d A37F     		.sleb128 -93
 12491 1d3f 24       		.uleb128 0x24
 12492 1d40 340E0000 		.4byte	.LASF391
 12493 1d44 01       		.byte	0x1
 12494 1d45 4308     		.2byte	0x843
 12495 1d47 0F010000 		.4byte	0x10f
 12496 1d4b 03       		.uleb128 0x3
 12497 1d4c 91       		.byte	0x91
 12498 1d4d A07F     		.sleb128 -96
 12499 1d4f 00       		.byte	0
 12500 1d50 2C       		.uleb128 0x2c
 12501 1d51 62320000 		.4byte	.LBB19
 12502 1d55 A8000000 		.4byte	.LBE19-.LBB19
 12503 1d59 7C1D0000 		.4byte	0x1d7c
 12504 1d5d 23       		.uleb128 0x23
 12505 1d5e 75696400 		.ascii	"uid\000"
 12506 1d62 01       		.byte	0x1
 12507 1d63 4F08     		.2byte	0x84f
 12508 1d65 F8040000 		.4byte	0x4f8
 12509 1d69 02       		.uleb128 0x2
 12510 1d6a 91       		.byte	0x91
 12511 1d6b 48       		.sleb128 -56
 12512 1d6c 24       		.uleb128 0x24
 12513 1d6d 1F080000 		.4byte	.LASF392
 12514 1d71 01       		.byte	0x1
 12515 1d72 5008     		.2byte	0x850
 12516 1d74 25010000 		.4byte	0x125
 12517 1d78 02       		.uleb128 0x2
 12518 1d79 91       		.byte	0x91
 12519 1d7a 44       		.sleb128 -60
 12520 1d7b 00       		.byte	0
 12521 1d7c 2C       		.uleb128 0x2c
ARM GAS  /tmp/ccNtBBEs.s 			page 225


 12522 1d7d 46330000 		.4byte	.LBB20
 12523 1d81 96000000 		.4byte	.LBE20-.LBB20
 12524 1d85 A81D0000 		.4byte	0x1da8
 12525 1d89 24       		.uleb128 0x24
 12526 1d8a 17150000 		.4byte	.LASF393
 12527 1d8e 01       		.byte	0x1
 12528 1d8f 5A08     		.2byte	0x85a
 12529 1d91 1A010000 		.4byte	0x11a
 12530 1d95 02       		.uleb128 0x2
 12531 1d96 91       		.byte	0x91
 12532 1d97 58       		.sleb128 -40
 12533 1d98 24       		.uleb128 0x24
 12534 1d99 B9110000 		.4byte	.LASF394
 12535 1d9d 01       		.byte	0x1
 12536 1d9e 5B08     		.2byte	0x85b
 12537 1da0 F8060000 		.4byte	0x6f8
 12538 1da4 02       		.uleb128 0x2
 12539 1da5 91       		.byte	0x91
 12540 1da6 57       		.sleb128 -41
 12541 1da7 00       		.byte	0
 12542 1da8 2C       		.uleb128 0x2c
 12543 1da9 0E350000 		.4byte	.LBB21
 12544 1dad F6000000 		.4byte	.LBE21-.LBB21
 12545 1db1 D51D0000 		.4byte	0x1dd5
 12546 1db5 24       		.uleb128 0x24
 12547 1db6 1F0E0000 		.4byte	.LASF395
 12548 1dba 01       		.byte	0x1
 12549 1dbb 7608     		.2byte	0x876
 12550 1dbd F8060000 		.4byte	0x6f8
 12551 1dc1 02       		.uleb128 0x2
 12552 1dc2 91       		.byte	0x91
 12553 1dc3 43       		.sleb128 -61
 12554 1dc4 24       		.uleb128 0x24
 12555 1dc5 29000000 		.4byte	.LASF396
 12556 1dc9 01       		.byte	0x1
 12557 1dca 7708     		.2byte	0x877
 12558 1dcc 5C1E0000 		.4byte	0x1e5c
 12559 1dd0 03       		.uleb128 0x3
 12560 1dd1 91       		.byte	0x91
 12561 1dd2 BC7F     		.sleb128 -68
 12562 1dd4 00       		.byte	0
 12563 1dd5 2C       		.uleb128 0x2c
 12564 1dd6 24360000 		.4byte	.LBB22
 12565 1dda 90000000 		.4byte	.LBE22-.LBB22
 12566 1dde 031E0000 		.4byte	0x1e03
 12567 1de2 24       		.uleb128 0x24
 12568 1de3 3F0C0000 		.4byte	.LASF397
 12569 1de7 01       		.byte	0x1
 12570 1de8 B808     		.2byte	0x8b8
 12571 1dea 2B090000 		.4byte	0x92b
 12572 1dee 03       		.uleb128 0x3
 12573 1def 91       		.byte	0x91
 12574 1df0 987F     		.sleb128 -104
 12575 1df2 24       		.uleb128 0x24
 12576 1df3 E3070000 		.4byte	.LASF398
 12577 1df7 01       		.byte	0x1
 12578 1df8 B908     		.2byte	0x8b9
ARM GAS  /tmp/ccNtBBEs.s 			page 226


 12579 1dfa F9000000 		.4byte	0xf9
 12580 1dfe 03       		.uleb128 0x3
 12581 1dff 91       		.byte	0x91
 12582 1e00 BB7F     		.sleb128 -69
 12583 1e02 00       		.byte	0
 12584 1e03 2C       		.uleb128 0x2c
 12585 1e04 C0360000 		.4byte	.LBB23
 12586 1e08 90000000 		.4byte	.LBE23-.LBB23
 12587 1e0c 311E0000 		.4byte	0x1e31
 12588 1e10 24       		.uleb128 0x24
 12589 1e11 3F0C0000 		.4byte	.LASF397
 12590 1e15 01       		.byte	0x1
 12591 1e16 D108     		.2byte	0x8d1
 12592 1e18 2B090000 		.4byte	0x92b
 12593 1e1c 03       		.uleb128 0x3
 12594 1e1d 91       		.byte	0x91
 12595 1e1e 907F     		.sleb128 -112
 12596 1e20 24       		.uleb128 0x24
 12597 1e21 E3070000 		.4byte	.LASF398
 12598 1e25 01       		.byte	0x1
 12599 1e26 D208     		.2byte	0x8d2
 12600 1e28 F9000000 		.4byte	0xf9
 12601 1e2c 03       		.uleb128 0x3
 12602 1e2d 91       		.byte	0x91
 12603 1e2e BA7F     		.sleb128 -70
 12604 1e30 00       		.byte	0
 12605 1e31 28       		.uleb128 0x28
 12606 1e32 5C370000 		.4byte	.LBB24
 12607 1e36 90000000 		.4byte	.LBE24-.LBB24
 12608 1e3a 24       		.uleb128 0x24
 12609 1e3b 3F0C0000 		.4byte	.LASF397
 12610 1e3f 01       		.byte	0x1
 12611 1e40 EA08     		.2byte	0x8ea
 12612 1e42 2B090000 		.4byte	0x92b
 12613 1e46 03       		.uleb128 0x3
 12614 1e47 91       		.byte	0x91
 12615 1e48 887F     		.sleb128 -120
 12616 1e4a 24       		.uleb128 0x24
 12617 1e4b E3070000 		.4byte	.LASF398
 12618 1e4f 01       		.byte	0x1
 12619 1e50 EB08     		.2byte	0x8eb
 12620 1e52 F9000000 		.4byte	0xf9
 12621 1e56 03       		.uleb128 0x3
 12622 1e57 91       		.byte	0x91
 12623 1e58 B97F     		.sleb128 -71
 12624 1e5a 00       		.byte	0
 12625 1e5b 00       		.byte	0
 12626 1e5c 06       		.uleb128 0x6
 12627 1e5d 04       		.byte	0x4
 12628 1e5e EA070000 		.4byte	0x7ea
 12629 1e62 26       		.uleb128 0x26
 12630 1e63 000F0000 		.4byte	.LASF399
 12631 1e67 01       		.byte	0x1
 12632 1e68 1009     		.2byte	0x910
 12633 1e6a 25010000 		.4byte	0x125
 12634 1e6e 20380000 		.4byte	.LFB294
 12635 1e72 04060000 		.4byte	.LFE294-.LFB294
ARM GAS  /tmp/ccNtBBEs.s 			page 227


 12636 1e76 01       		.uleb128 0x1
 12637 1e77 9C       		.byte	0x9c
 12638 1e78 F01E0000 		.4byte	0x1ef0
 12639 1e7c 25       		.uleb128 0x25
 12640 1e7d 58070000 		.4byte	.LASF198
 12641 1e81 01       		.byte	0x1
 12642 1e82 1009     		.2byte	0x910
 12643 1e84 F8040000 		.4byte	0x4f8
 12644 1e88 02       		.uleb128 0x2
 12645 1e89 91       		.byte	0x91
 12646 1e8a 64       		.sleb128 -28
 12647 1e8b 25       		.uleb128 0x25
 12648 1e8c 57160000 		.4byte	.LASF196
 12649 1e90 01       		.byte	0x1
 12650 1e91 1009     		.2byte	0x910
 12651 1e93 F9000000 		.4byte	0xf9
 12652 1e97 02       		.uleb128 0x2
 12653 1e98 91       		.byte	0x91
 12654 1e99 63       		.sleb128 -29
 12655 1e9a 24       		.uleb128 0x24
 12656 1e9b 4B050000 		.4byte	.LASF400
 12657 1e9f 01       		.byte	0x1
 12658 1ea0 1209     		.2byte	0x912
 12659 1ea2 25010000 		.4byte	0x125
 12660 1ea6 02       		.uleb128 0x2
 12661 1ea7 91       		.byte	0x91
 12662 1ea8 70       		.sleb128 -16
 12663 1ea9 24       		.uleb128 0x24
 12664 1eaa 4F120000 		.4byte	.LASF349
 12665 1eae 01       		.byte	0x1
 12666 1eaf 1309     		.2byte	0x913
 12667 1eb1 F9000000 		.4byte	0xf9
 12668 1eb5 02       		.uleb128 0x2
 12669 1eb6 91       		.byte	0x91
 12670 1eb7 6F       		.sleb128 -17
 12671 1eb8 24       		.uleb128 0x24
 12672 1eb9 25190000 		.4byte	.LASF401
 12673 1ebd 01       		.byte	0x1
 12674 1ebe 1409     		.2byte	0x914
 12675 1ec0 F9000000 		.4byte	0xf9
 12676 1ec4 02       		.uleb128 0x2
 12677 1ec5 91       		.byte	0x91
 12678 1ec6 6E       		.sleb128 -18
 12679 1ec7 24       		.uleb128 0x24
 12680 1ec8 B40D0000 		.4byte	.LASF402
 12681 1ecc 01       		.byte	0x1
 12682 1ecd 1509     		.2byte	0x915
 12683 1ecf 25010000 		.4byte	0x125
 12684 1ed3 02       		.uleb128 0x2
 12685 1ed4 91       		.byte	0x91
 12686 1ed5 74       		.sleb128 -12
 12687 1ed6 28       		.uleb128 0x28
 12688 1ed7 0C390000 		.4byte	.LBB25
 12689 1edb 1C000000 		.4byte	.LBE25-.LBB25
 12690 1edf 24       		.uleb128 0x24
 12691 1ee0 8C120000 		.4byte	.LASF403
 12692 1ee4 01       		.byte	0x1
ARM GAS  /tmp/ccNtBBEs.s 			page 228


 12693 1ee5 2709     		.2byte	0x927
 12694 1ee7 5D000000 		.4byte	0x5d
 12695 1eeb 02       		.uleb128 0x2
 12696 1eec 91       		.byte	0x91
 12697 1eed 6D       		.sleb128 -19
 12698 1eee 00       		.byte	0
 12699 1eef 00       		.byte	0
 12700 1ef0 29       		.uleb128 0x29
 12701 1ef1 6E050000 		.4byte	.LASF404
 12702 1ef5 01       		.byte	0x1
 12703 1ef6 130A     		.2byte	0xa13
 12704 1ef8 303E0000 		.4byte	.LFB295
 12705 1efc E8000000 		.4byte	.LFE295-.LFB295
 12706 1f00 01       		.uleb128 0x1
 12707 1f01 9C       		.byte	0x9c
 12708 1f02 CC1F0000 		.4byte	0x1fcc
 12709 1f06 25       		.uleb128 0x25
 12710 1f07 0A0E0000 		.4byte	.LASF405
 12711 1f0b 01       		.byte	0x1
 12712 1f0c 130A     		.2byte	0xa13
 12713 1f0e 37000000 		.4byte	0x37
 12714 1f12 02       		.uleb128 0x2
 12715 1f13 91       		.byte	0x91
 12716 1f14 54       		.sleb128 -44
 12717 1f15 24       		.uleb128 0x24
 12718 1f16 2E170000 		.4byte	.LASF406
 12719 1f1a 01       		.byte	0x1
 12720 1f1b 150A     		.2byte	0xa15
 12721 1f1d CC1F0000 		.4byte	0x1fcc
 12722 1f21 02       		.uleb128 0x2
 12723 1f22 91       		.byte	0x91
 12724 1f23 74       		.sleb128 -12
 12725 1f24 24       		.uleb128 0x24
 12726 1f25 2D040000 		.4byte	.LASF407
 12727 1f29 01       		.byte	0x1
 12728 1f2a 160A     		.2byte	0xa16
 12729 1f2c D21F0000 		.4byte	0x1fd2
 12730 1f30 02       		.uleb128 0x2
 12731 1f31 91       		.byte	0x91
 12732 1f32 70       		.sleb128 -16
 12733 1f33 2D       		.uleb128 0x2d
 12734 1f34 00000000 		.4byte	.Ldebug_ranges0+0
 12735 1f38 641F0000 		.4byte	0x1f64
 12736 1f3c 23       		.uleb128 0x23
 12737 1f3d 65767400 		.ascii	"evt\000"
 12738 1f41 01       		.byte	0x1
 12739 1f42 250A     		.2byte	0xa25
 12740 1f44 D81F0000 		.4byte	0x1fd8
 12741 1f48 02       		.uleb128 0x2
 12742 1f49 91       		.byte	0x91
 12743 1f4a 6C       		.sleb128 -20
 12744 1f4b 28       		.uleb128 0x28
 12745 1f4c 703E0000 		.4byte	.LBB27
 12746 1f50 1A000000 		.4byte	.LBE27-.LBB27
 12747 1f54 23       		.uleb128 0x23
 12748 1f55 636300   		.ascii	"cc\000"
 12749 1f58 01       		.byte	0x1
ARM GAS  /tmp/ccNtBBEs.s 			page 229


 12750 1f59 2A0A     		.2byte	0xa2a
 12751 1f5b DE1F0000 		.4byte	0x1fde
 12752 1f5f 02       		.uleb128 0x2
 12753 1f60 91       		.byte	0x91
 12754 1f61 68       		.sleb128 -24
 12755 1f62 00       		.byte	0
 12756 1f63 00       		.byte	0
 12757 1f64 2E       		.uleb128 0x2e
 12758 1f65 18000000 		.4byte	.Ldebug_ranges0+0x18
 12759 1f69 24       		.uleb128 0x24
 12760 1f6a 010E0000 		.4byte	.LASF408
 12761 1f6e 01       		.byte	0x1
 12762 1f6f 330A     		.2byte	0xa33
 12763 1f71 E41F0000 		.4byte	0x1fe4
 12764 1f75 02       		.uleb128 0x2
 12765 1f76 91       		.byte	0x91
 12766 1f77 64       		.sleb128 -28
 12767 1f78 2C       		.uleb128 0x2c
 12768 1f79 AC3E0000 		.4byte	.LBB30
 12769 1f7d 12000000 		.4byte	.LBE30-.LBB30
 12770 1f81 941F0000 		.4byte	0x1f94
 12771 1f85 23       		.uleb128 0x23
 12772 1f86 707200   		.ascii	"pr\000"
 12773 1f89 01       		.byte	0x1
 12774 1f8a 370A     		.2byte	0xa37
 12775 1f8c EA1F0000 		.4byte	0x1fea
 12776 1f90 02       		.uleb128 0x2
 12777 1f91 91       		.byte	0x91
 12778 1f92 60       		.sleb128 -32
 12779 1f93 00       		.byte	0
 12780 1f94 2C       		.uleb128 0x2c
 12781 1f95 CA3E0000 		.4byte	.LBB31
 12782 1f99 1E000000 		.4byte	.LBE31-.LBB31
 12783 1f9d B11F0000 		.4byte	0x1fb1
 12784 1fa1 23       		.uleb128 0x23
 12785 1fa2 65767400 		.ascii	"evt\000"
 12786 1fa6 01       		.byte	0x1
 12787 1fa7 3D0A     		.2byte	0xa3d
 12788 1fa9 F01F0000 		.4byte	0x1ff0
 12789 1fad 02       		.uleb128 0x2
 12790 1fae 91       		.byte	0x91
 12791 1faf 5C       		.sleb128 -36
 12792 1fb0 00       		.byte	0
 12793 1fb1 28       		.uleb128 0x28
 12794 1fb2 EA3E0000 		.4byte	.LBB32
 12795 1fb6 1E000000 		.4byte	.LBE32-.LBB32
 12796 1fba 23       		.uleb128 0x23
 12797 1fbb 65767400 		.ascii	"evt\000"
 12798 1fbf 01       		.byte	0x1
 12799 1fc0 400A     		.2byte	0xa40
 12800 1fc2 F61F0000 		.4byte	0x1ff6
 12801 1fc6 02       		.uleb128 0x2
 12802 1fc7 91       		.byte	0x91
 12803 1fc8 58       		.sleb128 -40
 12804 1fc9 00       		.byte	0
 12805 1fca 00       		.byte	0
 12806 1fcb 00       		.byte	0
ARM GAS  /tmp/ccNtBBEs.s 			page 230


 12807 1fcc 06       		.uleb128 0x6
 12808 1fcd 04       		.byte	0x4
 12809 1fce 6F090000 		.4byte	0x96f
 12810 1fd2 06       		.uleb128 0x6
 12811 1fd3 04       		.byte	0x4
 12812 1fd4 AB090000 		.4byte	0x9ab
 12813 1fd8 06       		.uleb128 0x6
 12814 1fd9 04       		.byte	0x4
 12815 1fda EE090000 		.4byte	0x9ee
 12816 1fde 06       		.uleb128 0x6
 12817 1fdf 04       		.byte	0x4
 12818 1fe0 7D0A0000 		.4byte	0xa7d
 12819 1fe4 06       		.uleb128 0x6
 12820 1fe5 04       		.byte	0x4
 12821 1fe6 C10A0000 		.4byte	0xac1
 12822 1fea 06       		.uleb128 0x6
 12823 1feb 04       		.byte	0x4
 12824 1fec B80B0000 		.4byte	0xbb8
 12825 1ff0 06       		.uleb128 0x6
 12826 1ff1 04       		.byte	0x4
 12827 1ff2 1C0B0000 		.4byte	0xb1c
 12828 1ff6 06       		.uleb128 0x6
 12829 1ff7 04       		.byte	0x4
 12830 1ff8 6A0B0000 		.4byte	0xb6a
 12831 1ffc 20       		.uleb128 0x20
 12832 1ffd 37170000 		.4byte	.LASF409
 12833 2001 01       		.byte	0x1
 12834 2002 7F       		.byte	0x7f
 12835 2003 0F010000 		.4byte	0x10f
 12836 2007 05       		.uleb128 0x5
 12837 2008 03       		.byte	0x3
 12838 2009 04000000 		.4byte	HWServW2STHandle
 12839 200d 20       		.uleb128 0x20
 12840 200e C20A0000 		.4byte	.LASF410
 12841 2012 01       		.byte	0x1
 12842 2013 80       		.byte	0x80
 12843 2014 0F010000 		.4byte	0x10f
 12844 2018 05       		.uleb128 0x5
 12845 2019 03       		.byte	0x3
 12846 201a 06000000 		.4byte	EnvironmentalCharHandle
 12847 201e 20       		.uleb128 0x20
 12848 201f BA120000 		.4byte	.LASF411
 12849 2023 01       		.byte	0x1
 12850 2024 81       		.byte	0x81
 12851 2025 0F010000 		.4byte	0x10f
 12852 2029 05       		.uleb128 0x5
 12853 202a 03       		.byte	0x3
 12854 202b 08000000 		.4byte	AccGyroMagCharHandle
 12855 202f 20       		.uleb128 0x20
 12856 2030 48100000 		.4byte	.LASF412
 12857 2034 01       		.byte	0x1
 12858 2035 82       		.byte	0x82
 12859 2036 0F010000 		.4byte	0x10f
 12860 203a 05       		.uleb128 0x5
 12861 203b 03       		.byte	0x3
 12862 203c 0A000000 		.4byte	AccEventCharHandle
 12863 2040 20       		.uleb128 0x20
ARM GAS  /tmp/ccNtBBEs.s 			page 231


 12864 2041 FE130000 		.4byte	.LASF413
 12865 2045 01       		.byte	0x1
 12866 2046 83       		.byte	0x83
 12867 2047 0F010000 		.4byte	0x10f
 12868 204b 05       		.uleb128 0x5
 12869 204c 03       		.byte	0x3
 12870 204d 0C000000 		.4byte	AudioLevelCharHandle
 12871 2051 20       		.uleb128 0x20
 12872 2052 AD0B0000 		.4byte	.LASF414
 12873 2056 01       		.byte	0x1
 12874 2057 86       		.byte	0x86
 12875 2058 0F010000 		.4byte	0x10f
 12876 205c 05       		.uleb128 0x5
 12877 205d 03       		.byte	0x3
 12878 205e 0E000000 		.4byte	GGCharHandle
 12879 2062 20       		.uleb128 0x20
 12880 2063 BD080000 		.4byte	.LASF415
 12881 2067 01       		.byte	0x1
 12882 2068 8A       		.byte	0x8a
 12883 2069 0F010000 		.4byte	0x10f
 12884 206d 05       		.uleb128 0x5
 12885 206e 03       		.byte	0x3
 12886 206f 10000000 		.4byte	QuaternionsCharHandle
 12887 2073 20       		.uleb128 0x20
 12888 2074 E6050000 		.4byte	.LASF416
 12889 2078 01       		.byte	0x1
 12890 2079 8B       		.byte	0x8b
 12891 207a 0F010000 		.4byte	0x10f
 12892 207e 05       		.uleb128 0x5
 12893 207f 03       		.byte	0x3
 12894 2080 12000000 		.4byte	ECompassCharHandle
 12895 2084 20       		.uleb128 0x20
 12896 2085 91180000 		.4byte	.LASF417
 12897 2089 01       		.byte	0x1
 12898 208a 8F       		.byte	0x8f
 12899 208b 0F010000 		.4byte	0x10f
 12900 208f 05       		.uleb128 0x5
 12901 2090 03       		.byte	0x3
 12902 2091 14000000 		.4byte	ActivityRecCharHandle
 12903 2095 20       		.uleb128 0x20
 12904 2096 CD020000 		.4byte	.LASF418
 12905 209a 01       		.byte	0x1
 12906 209b 93       		.byte	0x93
 12907 209c 0F010000 		.4byte	0x10f
 12908 20a0 05       		.uleb128 0x5
 12909 20a1 03       		.byte	0x3
 12910 20a2 16000000 		.4byte	CarryPosRecCharHandle
 12911 20a6 20       		.uleb128 0x20
 12912 20a7 63160000 		.4byte	.LASF419
 12913 20ab 01       		.byte	0x1
 12914 20ac 97       		.byte	0x97
 12915 20ad 0F010000 		.4byte	0x10f
 12916 20b1 05       		.uleb128 0x5
 12917 20b2 03       		.byte	0x3
 12918 20b3 18000000 		.4byte	GestureRecCharHandle
 12919 20b7 20       		.uleb128 0x20
 12920 20b8 E6180000 		.4byte	.LASF420
ARM GAS  /tmp/ccNtBBEs.s 			page 232


 12921 20bc 01       		.byte	0x1
 12922 20bd A3       		.byte	0xa3
 12923 20be 0F010000 		.4byte	0x10f
 12924 20c2 05       		.uleb128 0x5
 12925 20c3 03       		.byte	0x3
 12926 20c4 1A000000 		.4byte	ConfigServW2STHandle
 12927 20c8 20       		.uleb128 0x20
 12928 20c9 6E000000 		.4byte	.LASF421
 12929 20cd 01       		.byte	0x1
 12930 20ce A4       		.byte	0xa4
 12931 20cf 0F010000 		.4byte	0x10f
 12932 20d3 05       		.uleb128 0x5
 12933 20d4 03       		.byte	0x3
 12934 20d5 1C000000 		.4byte	ConfigCharHandle
 12935 20d9 20       		.uleb128 0x20
 12936 20da A9010000 		.4byte	.LASF422
 12937 20de 01       		.byte	0x1
 12938 20df A6       		.byte	0xa6
 12939 20e0 0F010000 		.4byte	0x10f
 12940 20e4 05       		.uleb128 0x5
 12941 20e5 03       		.byte	0x3
 12942 20e6 1E000000 		.4byte	ConsoleW2STHandle
 12943 20ea 20       		.uleb128 0x20
 12944 20eb 4F170000 		.4byte	.LASF423
 12945 20ef 01       		.byte	0x1
 12946 20f0 A7       		.byte	0xa7
 12947 20f1 0F010000 		.4byte	0x10f
 12948 20f5 05       		.uleb128 0x5
 12949 20f6 03       		.byte	0x3
 12950 20f7 20000000 		.4byte	TermCharHandle
 12951 20fb 20       		.uleb128 0x20
 12952 20fc 80040000 		.4byte	.LASF424
 12953 2100 01       		.byte	0x1
 12954 2101 A8       		.byte	0xa8
 12955 2102 0F010000 		.4byte	0x10f
 12956 2106 05       		.uleb128 0x5
 12957 2107 03       		.byte	0x3
 12958 2108 22000000 		.4byte	StdErrCharHandle
 12959 210c 20       		.uleb128 0x20
 12960 210d 050B0000 		.4byte	.LASF425
 12961 2111 01       		.byte	0x1
 12962 2112 AA       		.byte	0xaa
 12963 2113 890A0000 		.4byte	0xa89
 12964 2117 05       		.uleb128 0x5
 12965 2118 03       		.byte	0x3
 12966 2119 24000000 		.4byte	LastStderrBuffer
 12967 211d 20       		.uleb128 0x20
 12968 211e 96060000 		.4byte	.LASF426
 12969 2122 01       		.byte	0x1
 12970 2123 AB       		.byte	0xab
 12971 2124 F9000000 		.4byte	0xf9
 12972 2128 05       		.uleb128 0x5
 12973 2129 03       		.byte	0x3
 12974 212a 38000000 		.4byte	LastStderrLen
 12975 212e 20       		.uleb128 0x20
 12976 212f 6E0B0000 		.4byte	.LASF427
 12977 2133 01       		.byte	0x1
ARM GAS  /tmp/ccNtBBEs.s 			page 233


 12978 2134 AC       		.byte	0xac
 12979 2135 890A0000 		.4byte	0xa89
 12980 2139 05       		.uleb128 0x5
 12981 213a 03       		.byte	0x3
 12982 213b 3C000000 		.4byte	LastTermBuffer
 12983 213f 20       		.uleb128 0x20
 12984 2140 4F150000 		.4byte	.LASF428
 12985 2144 01       		.byte	0x1
 12986 2145 AD       		.byte	0xad
 12987 2146 F9000000 		.4byte	0xf9
 12988 214a 05       		.uleb128 0x5
 12989 214b 03       		.byte	0x3
 12990 214c 50000000 		.4byte	LastTermLen
 12991 2150 20       		.uleb128 0x20
 12992 2151 D3170000 		.4byte	.LASF429
 12993 2155 01       		.byte	0x1
 12994 2156 AF       		.byte	0xaf
 12995 2157 F9000000 		.4byte	0xf9
 12996 215b 05       		.uleb128 0x5
 12997 215c 03       		.byte	0x3
 12998 215d 01000000 		.4byte	EnvironmentalCharSize
 12999 2161 20       		.uleb128 0x20
 13000 2162 5B000000 		.4byte	.LASF430
 13001 2166 01       		.byte	0x1
 13002 2167 B1       		.byte	0xb1
 13003 2168 25010000 		.4byte	0x125
 13004 216c 05       		.uleb128 0x5
 13005 216d 03       		.byte	0x3
 13006 216e 54000000 		.4byte	SizeOfUpdateBlueFW
 13007 2172 20       		.uleb128 0x20
 13008 2173 0E060000 		.4byte	.LASF431
 13009 2177 01       		.byte	0x1
 13010 2178 B3       		.byte	0xb3
 13011 2179 0F010000 		.4byte	0x10f
 13012 217d 05       		.uleb128 0x5
 13013 217e 03       		.byte	0x3
 13014 217f 58000000 		.4byte	connection_handle
 13015 2183 20       		.uleb128 0x20
 13016 2184 7B0C0000 		.4byte	.LASF432
 13017 2188 01       		.byte	0x1
 13018 2189 BF       		.byte	0xbf
 13019 218a 1A010000 		.4byte	0x11a
 13020 218e 05       		.uleb128 0x5
 13021 218f 03       		.byte	0x3
 13022 2190 5C000000 		.4byte	breath
 13023 2194 2F       		.uleb128 0x2f
 13024 2195 67110000 		.4byte	.LASF433
 13025 2199 1F       		.byte	0x1f
 13026 219a FA06     		.2byte	0x6fa
 13027 219c A0210000 		.4byte	0x21a0
 13028 21a0 0A       		.uleb128 0xa
 13029 21a1 1A010000 		.4byte	0x11a
 13030 21a5 08       		.uleb128 0x8
 13031 21a6 40070000 		.4byte	0x740
 13032 21aa B0210000 		.4byte	0x21b0
 13033 21ae 30       		.uleb128 0x30
 13034 21af 00       		.byte	0
ARM GAS  /tmp/ccNtBBEs.s 			page 234


 13035 21b0 2F       		.uleb128 0x2f
 13036 21b1 65020000 		.4byte	.LASF434
 13037 21b5 0B       		.byte	0xb
 13038 21b6 0A01     		.2byte	0x10a
 13039 21b8 A5210000 		.4byte	0x21a5
 13040 21bc 08       		.uleb128 0x8
 13041 21bd 84070000 		.4byte	0x784
 13042 21c1 C7210000 		.4byte	0x21c7
 13043 21c5 30       		.uleb128 0x30
 13044 21c6 00       		.byte	0
 13045 21c7 2F       		.uleb128 0x2f
 13046 21c8 12170000 		.4byte	.LASF435
 13047 21cc 0B       		.byte	0xb
 13048 21cd 0D01     		.2byte	0x10d
 13049 21cf BC210000 		.4byte	0x21bc
 13050 21d3 31       		.uleb128 0x31
 13051 21d4 B10E0000 		.4byte	.LASF436
 13052 21d8 16       		.byte	0x16
 13053 21d9 EE       		.byte	0xee
 13054 21da 510D0000 		.4byte	0xd51
 13055 21de 32       		.uleb128 0x32
 13056 21df 636800   		.ascii	"ch\000"
 13057 21e2 19       		.byte	0x19
 13058 21e3 0902     		.2byte	0x209
 13059 21e5 83100000 		.4byte	0x1083
 13060 21e9 08       		.uleb128 0x8
 13061 21ea F9000000 		.4byte	0xf9
 13062 21ee F9210000 		.4byte	0x21f9
 13063 21f2 09       		.uleb128 0x9
 13064 21f3 C5000000 		.4byte	0xc5
 13065 21f7 FF       		.byte	0xff
 13066 21f8 00       		.byte	0
 13067 21f9 31       		.uleb128 0x31
 13068 21fa F0150000 		.4byte	.LASF437
 13069 21fe 20       		.byte	0x20
 13070 21ff 71       		.byte	0x71
 13071 2200 E9210000 		.4byte	0x21e9
 13072 2204 31       		.uleb128 0x31
 13073 2205 B50A0000 		.4byte	.LASF438
 13074 2209 20       		.byte	0x20
 13075 220a 72       		.byte	0x72
 13076 220b 1A010000 		.4byte	0x11a
 13077 220f 31       		.uleb128 0x31
 13078 2210 13140000 		.4byte	.LASF439
 13079 2214 21       		.byte	0x21
 13080 2215 6A       		.byte	0x6a
 13081 2216 25010000 		.4byte	0x125
 13082 221a 33       		.uleb128 0x33
 13083 221b 94070000 		.4byte	.LASF440
 13084 221f 01       		.byte	0x1
 13085 2220 38       		.byte	0x38
 13086 2221 39000000 		.4byte	0x39
 13087 2225 05       		.uleb128 0x5
 13088 2226 03       		.byte	0x3
 13089 2227 00000000 		.4byte	connected
 13090 222b 33       		.uleb128 0x33
 13091 222c 54040000 		.4byte	.LASF441
ARM GAS  /tmp/ccNtBBEs.s 			page 235


 13092 2230 01       		.byte	0x1
 13093 2231 39       		.byte	0x39
 13094 2232 F9000000 		.4byte	0xf9
 13095 2236 05       		.uleb128 0x5
 13096 2237 03       		.byte	0x3
 13097 2238 00000000 		.4byte	set_connectable
 13098 223c 31       		.uleb128 0x31
 13099 223d 75150000 		.4byte	.LASF442
 13100 2241 01       		.byte	0x1
 13101 2242 3C       		.byte	0x3c
 13102 2243 25010000 		.4byte	0x125
 13103 2247 31       		.uleb128 0x31
 13104 2248 480B0000 		.4byte	.LASF443
 13105 224c 01       		.byte	0x1
 13106 224d 3F       		.byte	0x3f
 13107 224e 62080000 		.4byte	0x862
 13108 2252 31       		.uleb128 0x31
 13109 2253 01050000 		.4byte	.LASF342
 13110 2257 01       		.byte	0x1
 13111 2258 43       		.byte	0x43
 13112 2259 A0080000 		.4byte	0x8a0
 13113 225d 31       		.uleb128 0x31
 13114 225e 04120000 		.4byte	.LASF344
 13115 2262 01       		.byte	0x1
 13116 2263 47       		.byte	0x47
 13117 2264 DE080000 		.4byte	0x8de
 13118 2268 31       		.uleb128 0x31
 13119 2269 B7100000 		.4byte	.LASF444
 13120 226d 01       		.byte	0x1
 13121 226e 4B       		.byte	0x4b
 13122 226f 0A090000 		.4byte	0x90a
 13123 2273 31       		.uleb128 0x31
 13124 2274 2C160000 		.4byte	.LASF445
 13125 2278 01       		.byte	0x1
 13126 2279 53       		.byte	0x53
 13127 227a 25010000 		.4byte	0x125
 13128 227e 31       		.uleb128 0x31
 13129 227f 160B0000 		.4byte	.LASF446
 13130 2283 01       		.byte	0x1
 13131 2284 54       		.byte	0x54
 13132 2285 25010000 		.4byte	0x125
 13133 2289 31       		.uleb128 0x31
 13134 228a 19190000 		.4byte	.LASF447
 13135 228e 01       		.byte	0x1
 13136 228f 56       		.byte	0x56
 13137 2290 35060000 		.4byte	0x635
 13138 2294 31       		.uleb128 0x31
 13139 2295 76190000 		.4byte	.LASF448
 13140 2299 01       		.byte	0x1
 13141 229a 57       		.byte	0x57
 13142 229b 35060000 		.4byte	0x635
 13143 229f 31       		.uleb128 0x31
 13144 22a0 9E190000 		.4byte	.LASF449
 13145 22a4 01       		.byte	0x1
 13146 22a5 58       		.byte	0x58
 13147 22a6 35060000 		.4byte	0x635
 13148 22aa 08       		.uleb128 0x8
ARM GAS  /tmp/ccNtBBEs.s 			page 236


 13149 22ab A0060000 		.4byte	0x6a0
 13150 22af B5220000 		.4byte	0x22b5
 13151 22b3 30       		.uleb128 0x30
 13152 22b4 00       		.byte	0
 13153 22b5 31       		.uleb128 0x31
 13154 22b6 72020000 		.4byte	.LASF450
 13155 22ba 01       		.byte	0x1
 13156 22bb 5A       		.byte	0x5a
 13157 22bc C0220000 		.4byte	0x22c0
 13158 22c0 0A       		.uleb128 0xa
 13159 22c1 AA220000 		.4byte	0x22aa
 13160 22c5 31       		.uleb128 0x31
 13161 22c6 8A0C0000 		.4byte	.LASF451
 13162 22ca 01       		.byte	0x1
 13163 22cb 5B       		.byte	0x5b
 13164 22cc AA220000 		.4byte	0x22aa
 13165 22d0 31       		.uleb128 0x31
 13166 22d1 98050000 		.4byte	.LASF452
 13167 22d5 01       		.byte	0x1
 13168 22d6 62       		.byte	0x62
 13169 22d7 2B090000 		.4byte	0x92b
 13170 22db 31       		.uleb128 0x31
 13171 22dc 860E0000 		.4byte	.LASF453
 13172 22e0 01       		.byte	0x1
 13173 22e1 64       		.byte	0x64
 13174 22e2 25010000 		.4byte	0x125
 13175 22e6 31       		.uleb128 0x31
 13176 22e7 48070000 		.4byte	.LASF454
 13177 22eb 01       		.byte	0x1
 13178 22ec 67       		.byte	0x67
 13179 22ed D4070000 		.4byte	0x7d4
 13180 22f1 31       		.uleb128 0x31
 13181 22f2 33030000 		.4byte	.LASF455
 13182 22f6 01       		.byte	0x1
 13183 22f7 6B       		.byte	0x6b
 13184 22f8 D4070000 		.4byte	0x7d4
 13185 22fc 31       		.uleb128 0x31
 13186 22fd E3020000 		.4byte	.LASF456
 13187 2301 01       		.byte	0x1
 13188 2302 6F       		.byte	0x6f
 13189 2303 D4070000 		.4byte	0x7d4
 13190 2307 31       		.uleb128 0x31
 13191 2308 D4150000 		.4byte	.LASF457
 13192 230c 01       		.byte	0x1
 13193 230d 73       		.byte	0x73
 13194 230e D4070000 		.4byte	0x7d4
 13195 2312 31       		.uleb128 0x31
 13196 2313 F9050000 		.4byte	.LASF458
 13197 2317 01       		.byte	0x1
 13198 2318 77       		.byte	0x77
 13199 2319 D4070000 		.4byte	0x7d4
 13200 231d 33       		.uleb128 0x33
 13201 231e 91080000 		.4byte	.LASF459
 13202 2322 01       		.byte	0x1
 13203 2323 9F       		.byte	0x9f
 13204 2324 290C0000 		.4byte	0xc29
 13205 2328 05       		.uleb128 0x5
ARM GAS  /tmp/ccNtBBEs.s 			page 237


 13206 2329 03       		.byte	0x3
 13207 232a 00000000 		.4byte	BLUEVOICE_tx_handle
 13208 232e 33       		.uleb128 0x33
 13209 232f 630D0000 		.4byte	.LASF460
 13210 2333 01       		.byte	0x1
 13211 2334 A0       		.byte	0xa0
 13212 2335 F10B0000 		.4byte	0xbf1
 13213 2339 05       		.uleb128 0x5
 13214 233a 03       		.byte	0x3
 13215 233b 00000000 		.4byte	BLUEVOICE_Char_uuids
 13216 233f 00       		.byte	0
 13217              		.section	.debug_abbrev,"",%progbits
 13218              	.Ldebug_abbrev0:
 13219 0000 01       		.uleb128 0x1
 13220 0001 11       		.uleb128 0x11
 13221 0002 01       		.byte	0x1
 13222 0003 25       		.uleb128 0x25
 13223 0004 0E       		.uleb128 0xe
 13224 0005 13       		.uleb128 0x13
 13225 0006 0B       		.uleb128 0xb
 13226 0007 03       		.uleb128 0x3
 13227 0008 0E       		.uleb128 0xe
 13228 0009 1B       		.uleb128 0x1b
 13229 000a 0E       		.uleb128 0xe
 13230 000b 11       		.uleb128 0x11
 13231 000c 01       		.uleb128 0x1
 13232 000d 12       		.uleb128 0x12
 13233 000e 06       		.uleb128 0x6
 13234 000f 10       		.uleb128 0x10
 13235 0010 17       		.uleb128 0x17
 13236 0011 00       		.byte	0
 13237 0012 00       		.byte	0
 13238 0013 02       		.uleb128 0x2
 13239 0014 16       		.uleb128 0x16
 13240 0015 00       		.byte	0
 13241 0016 03       		.uleb128 0x3
 13242 0017 0E       		.uleb128 0xe
 13243 0018 3A       		.uleb128 0x3a
 13244 0019 0B       		.uleb128 0xb
 13245 001a 3B       		.uleb128 0x3b
 13246 001b 0B       		.uleb128 0xb
 13247 001c 49       		.uleb128 0x49
 13248 001d 13       		.uleb128 0x13
 13249 001e 00       		.byte	0
 13250 001f 00       		.byte	0
 13251 0020 03       		.uleb128 0x3
 13252 0021 24       		.uleb128 0x24
 13253 0022 00       		.byte	0
 13254 0023 0B       		.uleb128 0xb
 13255 0024 0B       		.uleb128 0xb
 13256 0025 3E       		.uleb128 0x3e
 13257 0026 0B       		.uleb128 0xb
 13258 0027 03       		.uleb128 0x3
 13259 0028 0E       		.uleb128 0xe
 13260 0029 00       		.byte	0
 13261 002a 00       		.byte	0
 13262 002b 04       		.uleb128 0x4
ARM GAS  /tmp/ccNtBBEs.s 			page 238


 13263 002c 0F       		.uleb128 0xf
 13264 002d 00       		.byte	0
 13265 002e 0B       		.uleb128 0xb
 13266 002f 0B       		.uleb128 0xb
 13267 0030 00       		.byte	0
 13268 0031 00       		.byte	0
 13269 0032 05       		.uleb128 0x5
 13270 0033 24       		.uleb128 0x24
 13271 0034 00       		.byte	0
 13272 0035 0B       		.uleb128 0xb
 13273 0036 0B       		.uleb128 0xb
 13274 0037 3E       		.uleb128 0x3e
 13275 0038 0B       		.uleb128 0xb
 13276 0039 03       		.uleb128 0x3
 13277 003a 08       		.uleb128 0x8
 13278 003b 00       		.byte	0
 13279 003c 00       		.byte	0
 13280 003d 06       		.uleb128 0x6
 13281 003e 0F       		.uleb128 0xf
 13282 003f 00       		.byte	0
 13283 0040 0B       		.uleb128 0xb
 13284 0041 0B       		.uleb128 0xb
 13285 0042 49       		.uleb128 0x49
 13286 0043 13       		.uleb128 0x13
 13287 0044 00       		.byte	0
 13288 0045 00       		.byte	0
 13289 0046 07       		.uleb128 0x7
 13290 0047 26       		.uleb128 0x26
 13291 0048 00       		.byte	0
 13292 0049 49       		.uleb128 0x49
 13293 004a 13       		.uleb128 0x13
 13294 004b 00       		.byte	0
 13295 004c 00       		.byte	0
 13296 004d 08       		.uleb128 0x8
 13297 004e 01       		.uleb128 0x1
 13298 004f 01       		.byte	0x1
 13299 0050 49       		.uleb128 0x49
 13300 0051 13       		.uleb128 0x13
 13301 0052 01       		.uleb128 0x1
 13302 0053 13       		.uleb128 0x13
 13303 0054 00       		.byte	0
 13304 0055 00       		.byte	0
 13305 0056 09       		.uleb128 0x9
 13306 0057 21       		.uleb128 0x21
 13307 0058 00       		.byte	0
 13308 0059 49       		.uleb128 0x49
 13309 005a 13       		.uleb128 0x13
 13310 005b 2F       		.uleb128 0x2f
 13311 005c 0B       		.uleb128 0xb
 13312 005d 00       		.byte	0
 13313 005e 00       		.byte	0
 13314 005f 0A       		.uleb128 0xa
 13315 0060 35       		.uleb128 0x35
 13316 0061 00       		.byte	0
 13317 0062 49       		.uleb128 0x49
 13318 0063 13       		.uleb128 0x13
 13319 0064 00       		.byte	0
ARM GAS  /tmp/ccNtBBEs.s 			page 239


 13320 0065 00       		.byte	0
 13321 0066 0B       		.uleb128 0xb
 13322 0067 13       		.uleb128 0x13
 13323 0068 01       		.byte	0x1
 13324 0069 0B       		.uleb128 0xb
 13325 006a 0B       		.uleb128 0xb
 13326 006b 3A       		.uleb128 0x3a
 13327 006c 0B       		.uleb128 0xb
 13328 006d 3B       		.uleb128 0x3b
 13329 006e 05       		.uleb128 0x5
 13330 006f 01       		.uleb128 0x1
 13331 0070 13       		.uleb128 0x13
 13332 0071 00       		.byte	0
 13333 0072 00       		.byte	0
 13334 0073 0C       		.uleb128 0xc
 13335 0074 0D       		.uleb128 0xd
 13336 0075 00       		.byte	0
 13337 0076 03       		.uleb128 0x3
 13338 0077 08       		.uleb128 0x8
 13339 0078 3A       		.uleb128 0x3a
 13340 0079 0B       		.uleb128 0xb
 13341 007a 3B       		.uleb128 0x3b
 13342 007b 05       		.uleb128 0x5
 13343 007c 49       		.uleb128 0x49
 13344 007d 13       		.uleb128 0x13
 13345 007e 38       		.uleb128 0x38
 13346 007f 0B       		.uleb128 0xb
 13347 0080 00       		.byte	0
 13348 0081 00       		.byte	0
 13349 0082 0D       		.uleb128 0xd
 13350 0083 0D       		.uleb128 0xd
 13351 0084 00       		.byte	0
 13352 0085 03       		.uleb128 0x3
 13353 0086 0E       		.uleb128 0xe
 13354 0087 3A       		.uleb128 0x3a
 13355 0088 0B       		.uleb128 0xb
 13356 0089 3B       		.uleb128 0x3b
 13357 008a 05       		.uleb128 0x5
 13358 008b 49       		.uleb128 0x49
 13359 008c 13       		.uleb128 0x13
 13360 008d 38       		.uleb128 0x38
 13361 008e 0B       		.uleb128 0xb
 13362 008f 00       		.byte	0
 13363 0090 00       		.byte	0
 13364 0091 0E       		.uleb128 0xe
 13365 0092 16       		.uleb128 0x16
 13366 0093 00       		.byte	0
 13367 0094 03       		.uleb128 0x3
 13368 0095 0E       		.uleb128 0xe
 13369 0096 3A       		.uleb128 0x3a
 13370 0097 0B       		.uleb128 0xb
 13371 0098 3B       		.uleb128 0x3b
 13372 0099 05       		.uleb128 0x5
 13373 009a 49       		.uleb128 0x49
 13374 009b 13       		.uleb128 0x13
 13375 009c 00       		.byte	0
 13376 009d 00       		.byte	0
ARM GAS  /tmp/ccNtBBEs.s 			page 240


 13377 009e 0F       		.uleb128 0xf
 13378 009f 04       		.uleb128 0x4
 13379 00a0 01       		.byte	0x1
 13380 00a1 0B       		.uleb128 0xb
 13381 00a2 0B       		.uleb128 0xb
 13382 00a3 3A       		.uleb128 0x3a
 13383 00a4 0B       		.uleb128 0xb
 13384 00a5 3B       		.uleb128 0x3b
 13385 00a6 0B       		.uleb128 0xb
 13386 00a7 01       		.uleb128 0x1
 13387 00a8 13       		.uleb128 0x13
 13388 00a9 00       		.byte	0
 13389 00aa 00       		.byte	0
 13390 00ab 10       		.uleb128 0x10
 13391 00ac 28       		.uleb128 0x28
 13392 00ad 00       		.byte	0
 13393 00ae 03       		.uleb128 0x3
 13394 00af 0E       		.uleb128 0xe
 13395 00b0 1C       		.uleb128 0x1c
 13396 00b1 0D       		.uleb128 0xd
 13397 00b2 00       		.byte	0
 13398 00b3 00       		.byte	0
 13399 00b4 11       		.uleb128 0x11
 13400 00b5 13       		.uleb128 0x13
 13401 00b6 01       		.byte	0x1
 13402 00b7 0B       		.uleb128 0xb
 13403 00b8 0B       		.uleb128 0xb
 13404 00b9 3A       		.uleb128 0x3a
 13405 00ba 0B       		.uleb128 0xb
 13406 00bb 3B       		.uleb128 0x3b
 13407 00bc 0B       		.uleb128 0xb
 13408 00bd 01       		.uleb128 0x1
 13409 00be 13       		.uleb128 0x13
 13410 00bf 00       		.byte	0
 13411 00c0 00       		.byte	0
 13412 00c1 12       		.uleb128 0x12
 13413 00c2 0D       		.uleb128 0xd
 13414 00c3 00       		.byte	0
 13415 00c4 03       		.uleb128 0x3
 13416 00c5 0E       		.uleb128 0xe
 13417 00c6 3A       		.uleb128 0x3a
 13418 00c7 0B       		.uleb128 0xb
 13419 00c8 3B       		.uleb128 0x3b
 13420 00c9 0B       		.uleb128 0xb
 13421 00ca 49       		.uleb128 0x49
 13422 00cb 13       		.uleb128 0x13
 13423 00cc 38       		.uleb128 0x38
 13424 00cd 0B       		.uleb128 0xb
 13425 00ce 00       		.byte	0
 13426 00cf 00       		.byte	0
 13427 00d0 13       		.uleb128 0x13
 13428 00d1 13       		.uleb128 0x13
 13429 00d2 01       		.byte	0x1
 13430 00d3 03       		.uleb128 0x3
 13431 00d4 0E       		.uleb128 0xe
 13432 00d5 0B       		.uleb128 0xb
 13433 00d6 0B       		.uleb128 0xb
ARM GAS  /tmp/ccNtBBEs.s 			page 241


 13434 00d7 3A       		.uleb128 0x3a
 13435 00d8 0B       		.uleb128 0xb
 13436 00d9 3B       		.uleb128 0x3b
 13437 00da 0B       		.uleb128 0xb
 13438 00db 01       		.uleb128 0x1
 13439 00dc 13       		.uleb128 0x13
 13440 00dd 00       		.byte	0
 13441 00de 00       		.byte	0
 13442 00df 14       		.uleb128 0x14
 13443 00e0 15       		.uleb128 0x15
 13444 00e1 01       		.byte	0x1
 13445 00e2 27       		.uleb128 0x27
 13446 00e3 19       		.uleb128 0x19
 13447 00e4 01       		.uleb128 0x1
 13448 00e5 13       		.uleb128 0x13
 13449 00e6 00       		.byte	0
 13450 00e7 00       		.byte	0
 13451 00e8 15       		.uleb128 0x15
 13452 00e9 05       		.uleb128 0x5
 13453 00ea 00       		.byte	0
 13454 00eb 49       		.uleb128 0x49
 13455 00ec 13       		.uleb128 0x13
 13456 00ed 00       		.byte	0
 13457 00ee 00       		.byte	0
 13458 00ef 16       		.uleb128 0x16
 13459 00f0 04       		.uleb128 0x4
 13460 00f1 01       		.byte	0x1
 13461 00f2 0B       		.uleb128 0xb
 13462 00f3 0B       		.uleb128 0xb
 13463 00f4 3A       		.uleb128 0x3a
 13464 00f5 0B       		.uleb128 0xb
 13465 00f6 3B       		.uleb128 0x3b
 13466 00f7 05       		.uleb128 0x5
 13467 00f8 01       		.uleb128 0x1
 13468 00f9 13       		.uleb128 0x13
 13469 00fa 00       		.byte	0
 13470 00fb 00       		.byte	0
 13471 00fc 17       		.uleb128 0x17
 13472 00fd 21       		.uleb128 0x21
 13473 00fe 00       		.byte	0
 13474 00ff 49       		.uleb128 0x49
 13475 0100 13       		.uleb128 0x13
 13476 0101 00       		.byte	0
 13477 0102 00       		.byte	0
 13478 0103 18       		.uleb128 0x18
 13479 0104 0D       		.uleb128 0xd
 13480 0105 00       		.byte	0
 13481 0106 03       		.uleb128 0x3
 13482 0107 08       		.uleb128 0x8
 13483 0108 3A       		.uleb128 0x3a
 13484 0109 0B       		.uleb128 0xb
 13485 010a 3B       		.uleb128 0x3b
 13486 010b 0B       		.uleb128 0xb
 13487 010c 49       		.uleb128 0x49
 13488 010d 13       		.uleb128 0x13
 13489 010e 38       		.uleb128 0x38
 13490 010f 0B       		.uleb128 0xb
ARM GAS  /tmp/ccNtBBEs.s 			page 242


 13491 0110 00       		.byte	0
 13492 0111 00       		.byte	0
 13493 0112 19       		.uleb128 0x19
 13494 0113 13       		.uleb128 0x13
 13495 0114 01       		.byte	0x1
 13496 0115 03       		.uleb128 0x3
 13497 0116 0E       		.uleb128 0xe
 13498 0117 0B       		.uleb128 0xb
 13499 0118 0B       		.uleb128 0xb
 13500 0119 3A       		.uleb128 0x3a
 13501 011a 0B       		.uleb128 0xb
 13502 011b 3B       		.uleb128 0x3b
 13503 011c 05       		.uleb128 0x5
 13504 011d 01       		.uleb128 0x1
 13505 011e 13       		.uleb128 0x13
 13506 011f 00       		.byte	0
 13507 0120 00       		.byte	0
 13508 0121 1A       		.uleb128 0x1a
 13509 0122 13       		.uleb128 0x13
 13510 0123 01       		.byte	0x1
 13511 0124 03       		.uleb128 0x3
 13512 0125 0E       		.uleb128 0xe
 13513 0126 0B       		.uleb128 0xb
 13514 0127 05       		.uleb128 0x5
 13515 0128 3A       		.uleb128 0x3a
 13516 0129 0B       		.uleb128 0xb
 13517 012a 3B       		.uleb128 0x3b
 13518 012b 05       		.uleb128 0x5
 13519 012c 01       		.uleb128 0x1
 13520 012d 13       		.uleb128 0x13
 13521 012e 00       		.byte	0
 13522 012f 00       		.byte	0
 13523 0130 1B       		.uleb128 0x1b
 13524 0131 17       		.uleb128 0x17
 13525 0132 01       		.byte	0x1
 13526 0133 0B       		.uleb128 0xb
 13527 0134 0B       		.uleb128 0xb
 13528 0135 3A       		.uleb128 0x3a
 13529 0136 0B       		.uleb128 0xb
 13530 0137 3B       		.uleb128 0x3b
 13531 0138 0B       		.uleb128 0xb
 13532 0139 01       		.uleb128 0x1
 13533 013a 13       		.uleb128 0x13
 13534 013b 00       		.byte	0
 13535 013c 00       		.byte	0
 13536 013d 1C       		.uleb128 0x1c
 13537 013e 0D       		.uleb128 0xd
 13538 013f 00       		.byte	0
 13539 0140 03       		.uleb128 0x3
 13540 0141 0E       		.uleb128 0xe
 13541 0142 3A       		.uleb128 0x3a
 13542 0143 0B       		.uleb128 0xb
 13543 0144 3B       		.uleb128 0x3b
 13544 0145 05       		.uleb128 0x5
 13545 0146 49       		.uleb128 0x49
 13546 0147 13       		.uleb128 0x13
 13547 0148 00       		.byte	0
ARM GAS  /tmp/ccNtBBEs.s 			page 243


 13548 0149 00       		.byte	0
 13549 014a 1D       		.uleb128 0x1d
 13550 014b 2E       		.uleb128 0x2e
 13551 014c 01       		.byte	0x1
 13552 014d 3F       		.uleb128 0x3f
 13553 014e 19       		.uleb128 0x19
 13554 014f 03       		.uleb128 0x3
 13555 0150 0E       		.uleb128 0xe
 13556 0151 3A       		.uleb128 0x3a
 13557 0152 0B       		.uleb128 0xb
 13558 0153 3B       		.uleb128 0x3b
 13559 0154 0B       		.uleb128 0xb
 13560 0155 27       		.uleb128 0x27
 13561 0156 19       		.uleb128 0x19
 13562 0157 49       		.uleb128 0x49
 13563 0158 13       		.uleb128 0x13
 13564 0159 11       		.uleb128 0x11
 13565 015a 01       		.uleb128 0x1
 13566 015b 12       		.uleb128 0x12
 13567 015c 06       		.uleb128 0x6
 13568 015d 40       		.uleb128 0x40
 13569 015e 18       		.uleb128 0x18
 13570 015f 9642     		.uleb128 0x2116
 13571 0161 19       		.uleb128 0x19
 13572 0162 01       		.uleb128 0x1
 13573 0163 13       		.uleb128 0x13
 13574 0164 00       		.byte	0
 13575 0165 00       		.byte	0
 13576 0166 1E       		.uleb128 0x1e
 13577 0167 05       		.uleb128 0x5
 13578 0168 00       		.byte	0
 13579 0169 03       		.uleb128 0x3
 13580 016a 0E       		.uleb128 0xe
 13581 016b 3A       		.uleb128 0x3a
 13582 016c 0B       		.uleb128 0xb
 13583 016d 3B       		.uleb128 0x3b
 13584 016e 0B       		.uleb128 0xb
 13585 016f 49       		.uleb128 0x49
 13586 0170 13       		.uleb128 0x13
 13587 0171 02       		.uleb128 0x2
 13588 0172 18       		.uleb128 0x18
 13589 0173 00       		.byte	0
 13590 0174 00       		.byte	0
 13591 0175 1F       		.uleb128 0x1f
 13592 0176 34       		.uleb128 0x34
 13593 0177 00       		.byte	0
 13594 0178 03       		.uleb128 0x3
 13595 0179 08       		.uleb128 0x8
 13596 017a 3A       		.uleb128 0x3a
 13597 017b 0B       		.uleb128 0xb
 13598 017c 3B       		.uleb128 0x3b
 13599 017d 0B       		.uleb128 0xb
 13600 017e 49       		.uleb128 0x49
 13601 017f 13       		.uleb128 0x13
 13602 0180 02       		.uleb128 0x2
 13603 0181 18       		.uleb128 0x18
 13604 0182 00       		.byte	0
ARM GAS  /tmp/ccNtBBEs.s 			page 244


 13605 0183 00       		.byte	0
 13606 0184 20       		.uleb128 0x20
 13607 0185 34       		.uleb128 0x34
 13608 0186 00       		.byte	0
 13609 0187 03       		.uleb128 0x3
 13610 0188 0E       		.uleb128 0xe
 13611 0189 3A       		.uleb128 0x3a
 13612 018a 0B       		.uleb128 0xb
 13613 018b 3B       		.uleb128 0x3b
 13614 018c 0B       		.uleb128 0xb
 13615 018d 49       		.uleb128 0x49
 13616 018e 13       		.uleb128 0x13
 13617 018f 02       		.uleb128 0x2
 13618 0190 18       		.uleb128 0x18
 13619 0191 00       		.byte	0
 13620 0192 00       		.byte	0
 13621 0193 21       		.uleb128 0x21
 13622 0194 0A       		.uleb128 0xa
 13623 0195 00       		.byte	0
 13624 0196 03       		.uleb128 0x3
 13625 0197 0E       		.uleb128 0xe
 13626 0198 3A       		.uleb128 0x3a
 13627 0199 0B       		.uleb128 0xb
 13628 019a 3B       		.uleb128 0x3b
 13629 019b 05       		.uleb128 0x5
 13630 019c 11       		.uleb128 0x11
 13631 019d 01       		.uleb128 0x1
 13632 019e 00       		.byte	0
 13633 019f 00       		.byte	0
 13634 01a0 22       		.uleb128 0x22
 13635 01a1 2E       		.uleb128 0x2e
 13636 01a2 01       		.byte	0x1
 13637 01a3 3F       		.uleb128 0x3f
 13638 01a4 19       		.uleb128 0x19
 13639 01a5 03       		.uleb128 0x3
 13640 01a6 0E       		.uleb128 0xe
 13641 01a7 3A       		.uleb128 0x3a
 13642 01a8 0B       		.uleb128 0xb
 13643 01a9 3B       		.uleb128 0x3b
 13644 01aa 05       		.uleb128 0x5
 13645 01ab 27       		.uleb128 0x27
 13646 01ac 19       		.uleb128 0x19
 13647 01ad 49       		.uleb128 0x49
 13648 01ae 13       		.uleb128 0x13
 13649 01af 11       		.uleb128 0x11
 13650 01b0 01       		.uleb128 0x1
 13651 01b1 12       		.uleb128 0x12
 13652 01b2 06       		.uleb128 0x6
 13653 01b3 40       		.uleb128 0x40
 13654 01b4 18       		.uleb128 0x18
 13655 01b5 9642     		.uleb128 0x2116
 13656 01b7 19       		.uleb128 0x19
 13657 01b8 01       		.uleb128 0x1
 13658 01b9 13       		.uleb128 0x13
 13659 01ba 00       		.byte	0
 13660 01bb 00       		.byte	0
 13661 01bc 23       		.uleb128 0x23
ARM GAS  /tmp/ccNtBBEs.s 			page 245


 13662 01bd 34       		.uleb128 0x34
 13663 01be 00       		.byte	0
 13664 01bf 03       		.uleb128 0x3
 13665 01c0 08       		.uleb128 0x8
 13666 01c1 3A       		.uleb128 0x3a
 13667 01c2 0B       		.uleb128 0xb
 13668 01c3 3B       		.uleb128 0x3b
 13669 01c4 05       		.uleb128 0x5
 13670 01c5 49       		.uleb128 0x49
 13671 01c6 13       		.uleb128 0x13
 13672 01c7 02       		.uleb128 0x2
 13673 01c8 18       		.uleb128 0x18
 13674 01c9 00       		.byte	0
 13675 01ca 00       		.byte	0
 13676 01cb 24       		.uleb128 0x24
 13677 01cc 34       		.uleb128 0x34
 13678 01cd 00       		.byte	0
 13679 01ce 03       		.uleb128 0x3
 13680 01cf 0E       		.uleb128 0xe
 13681 01d0 3A       		.uleb128 0x3a
 13682 01d1 0B       		.uleb128 0xb
 13683 01d2 3B       		.uleb128 0x3b
 13684 01d3 05       		.uleb128 0x5
 13685 01d4 49       		.uleb128 0x49
 13686 01d5 13       		.uleb128 0x13
 13687 01d6 02       		.uleb128 0x2
 13688 01d7 18       		.uleb128 0x18
 13689 01d8 00       		.byte	0
 13690 01d9 00       		.byte	0
 13691 01da 25       		.uleb128 0x25
 13692 01db 05       		.uleb128 0x5
 13693 01dc 00       		.byte	0
 13694 01dd 03       		.uleb128 0x3
 13695 01de 0E       		.uleb128 0xe
 13696 01df 3A       		.uleb128 0x3a
 13697 01e0 0B       		.uleb128 0xb
 13698 01e1 3B       		.uleb128 0x3b
 13699 01e2 05       		.uleb128 0x5
 13700 01e3 49       		.uleb128 0x49
 13701 01e4 13       		.uleb128 0x13
 13702 01e5 02       		.uleb128 0x2
 13703 01e6 18       		.uleb128 0x18
 13704 01e7 00       		.byte	0
 13705 01e8 00       		.byte	0
 13706 01e9 26       		.uleb128 0x26
 13707 01ea 2E       		.uleb128 0x2e
 13708 01eb 01       		.byte	0x1
 13709 01ec 03       		.uleb128 0x3
 13710 01ed 0E       		.uleb128 0xe
 13711 01ee 3A       		.uleb128 0x3a
 13712 01ef 0B       		.uleb128 0xb
 13713 01f0 3B       		.uleb128 0x3b
 13714 01f1 05       		.uleb128 0x5
 13715 01f2 27       		.uleb128 0x27
 13716 01f3 19       		.uleb128 0x19
 13717 01f4 49       		.uleb128 0x49
 13718 01f5 13       		.uleb128 0x13
ARM GAS  /tmp/ccNtBBEs.s 			page 246


 13719 01f6 11       		.uleb128 0x11
 13720 01f7 01       		.uleb128 0x1
 13721 01f8 12       		.uleb128 0x12
 13722 01f9 06       		.uleb128 0x6
 13723 01fa 40       		.uleb128 0x40
 13724 01fb 18       		.uleb128 0x18
 13725 01fc 9642     		.uleb128 0x2116
 13726 01fe 19       		.uleb128 0x19
 13727 01ff 01       		.uleb128 0x1
 13728 0200 13       		.uleb128 0x13
 13729 0201 00       		.byte	0
 13730 0202 00       		.byte	0
 13731 0203 27       		.uleb128 0x27
 13732 0204 05       		.uleb128 0x5
 13733 0205 00       		.byte	0
 13734 0206 03       		.uleb128 0x3
 13735 0207 08       		.uleb128 0x8
 13736 0208 3A       		.uleb128 0x3a
 13737 0209 0B       		.uleb128 0xb
 13738 020a 3B       		.uleb128 0x3b
 13739 020b 05       		.uleb128 0x5
 13740 020c 49       		.uleb128 0x49
 13741 020d 13       		.uleb128 0x13
 13742 020e 02       		.uleb128 0x2
 13743 020f 18       		.uleb128 0x18
 13744 0210 00       		.byte	0
 13745 0211 00       		.byte	0
 13746 0212 28       		.uleb128 0x28
 13747 0213 0B       		.uleb128 0xb
 13748 0214 01       		.byte	0x1
 13749 0215 11       		.uleb128 0x11
 13750 0216 01       		.uleb128 0x1
 13751 0217 12       		.uleb128 0x12
 13752 0218 06       		.uleb128 0x6
 13753 0219 00       		.byte	0
 13754 021a 00       		.byte	0
 13755 021b 29       		.uleb128 0x29
 13756 021c 2E       		.uleb128 0x2e
 13757 021d 01       		.byte	0x1
 13758 021e 3F       		.uleb128 0x3f
 13759 021f 19       		.uleb128 0x19
 13760 0220 03       		.uleb128 0x3
 13761 0221 0E       		.uleb128 0xe
 13762 0222 3A       		.uleb128 0x3a
 13763 0223 0B       		.uleb128 0xb
 13764 0224 3B       		.uleb128 0x3b
 13765 0225 05       		.uleb128 0x5
 13766 0226 27       		.uleb128 0x27
 13767 0227 19       		.uleb128 0x19
 13768 0228 11       		.uleb128 0x11
 13769 0229 01       		.uleb128 0x1
 13770 022a 12       		.uleb128 0x12
 13771 022b 06       		.uleb128 0x6
 13772 022c 40       		.uleb128 0x40
 13773 022d 18       		.uleb128 0x18
 13774 022e 9642     		.uleb128 0x2116
 13775 0230 19       		.uleb128 0x19
ARM GAS  /tmp/ccNtBBEs.s 			page 247


 13776 0231 01       		.uleb128 0x1
 13777 0232 13       		.uleb128 0x13
 13778 0233 00       		.byte	0
 13779 0234 00       		.byte	0
 13780 0235 2A       		.uleb128 0x2a
 13781 0236 2E       		.uleb128 0x2e
 13782 0237 01       		.byte	0x1
 13783 0238 03       		.uleb128 0x3
 13784 0239 0E       		.uleb128 0xe
 13785 023a 3A       		.uleb128 0x3a
 13786 023b 0B       		.uleb128 0xb
 13787 023c 3B       		.uleb128 0x3b
 13788 023d 05       		.uleb128 0x5
 13789 023e 27       		.uleb128 0x27
 13790 023f 19       		.uleb128 0x19
 13791 0240 11       		.uleb128 0x11
 13792 0241 01       		.uleb128 0x1
 13793 0242 12       		.uleb128 0x12
 13794 0243 06       		.uleb128 0x6
 13795 0244 40       		.uleb128 0x40
 13796 0245 18       		.uleb128 0x18
 13797 0246 9642     		.uleb128 0x2116
 13798 0248 19       		.uleb128 0x19
 13799 0249 01       		.uleb128 0x1
 13800 024a 13       		.uleb128 0x13
 13801 024b 00       		.byte	0
 13802 024c 00       		.byte	0
 13803 024d 2B       		.uleb128 0x2b
 13804 024e 2E       		.uleb128 0x2e
 13805 024f 00       		.byte	0
 13806 0250 03       		.uleb128 0x3
 13807 0251 0E       		.uleb128 0xe
 13808 0252 3A       		.uleb128 0x3a
 13809 0253 0B       		.uleb128 0xb
 13810 0254 3B       		.uleb128 0x3b
 13811 0255 05       		.uleb128 0x5
 13812 0256 27       		.uleb128 0x27
 13813 0257 19       		.uleb128 0x19
 13814 0258 11       		.uleb128 0x11
 13815 0259 01       		.uleb128 0x1
 13816 025a 12       		.uleb128 0x12
 13817 025b 06       		.uleb128 0x6
 13818 025c 40       		.uleb128 0x40
 13819 025d 18       		.uleb128 0x18
 13820 025e 9642     		.uleb128 0x2116
 13821 0260 19       		.uleb128 0x19
 13822 0261 00       		.byte	0
 13823 0262 00       		.byte	0
 13824 0263 2C       		.uleb128 0x2c
 13825 0264 0B       		.uleb128 0xb
 13826 0265 01       		.byte	0x1
 13827 0266 11       		.uleb128 0x11
 13828 0267 01       		.uleb128 0x1
 13829 0268 12       		.uleb128 0x12
 13830 0269 06       		.uleb128 0x6
 13831 026a 01       		.uleb128 0x1
 13832 026b 13       		.uleb128 0x13
ARM GAS  /tmp/ccNtBBEs.s 			page 248


 13833 026c 00       		.byte	0
 13834 026d 00       		.byte	0
 13835 026e 2D       		.uleb128 0x2d
 13836 026f 0B       		.uleb128 0xb
 13837 0270 01       		.byte	0x1
 13838 0271 55       		.uleb128 0x55
 13839 0272 17       		.uleb128 0x17
 13840 0273 01       		.uleb128 0x1
 13841 0274 13       		.uleb128 0x13
 13842 0275 00       		.byte	0
 13843 0276 00       		.byte	0
 13844 0277 2E       		.uleb128 0x2e
 13845 0278 0B       		.uleb128 0xb
 13846 0279 01       		.byte	0x1
 13847 027a 55       		.uleb128 0x55
 13848 027b 17       		.uleb128 0x17
 13849 027c 00       		.byte	0
 13850 027d 00       		.byte	0
 13851 027e 2F       		.uleb128 0x2f
 13852 027f 34       		.uleb128 0x34
 13853 0280 00       		.byte	0
 13854 0281 03       		.uleb128 0x3
 13855 0282 0E       		.uleb128 0xe
 13856 0283 3A       		.uleb128 0x3a
 13857 0284 0B       		.uleb128 0xb
 13858 0285 3B       		.uleb128 0x3b
 13859 0286 05       		.uleb128 0x5
 13860 0287 49       		.uleb128 0x49
 13861 0288 13       		.uleb128 0x13
 13862 0289 3F       		.uleb128 0x3f
 13863 028a 19       		.uleb128 0x19
 13864 028b 3C       		.uleb128 0x3c
 13865 028c 19       		.uleb128 0x19
 13866 028d 00       		.byte	0
 13867 028e 00       		.byte	0
 13868 028f 30       		.uleb128 0x30
 13869 0290 21       		.uleb128 0x21
 13870 0291 00       		.byte	0
 13871 0292 00       		.byte	0
 13872 0293 00       		.byte	0
 13873 0294 31       		.uleb128 0x31
 13874 0295 34       		.uleb128 0x34
 13875 0296 00       		.byte	0
 13876 0297 03       		.uleb128 0x3
 13877 0298 0E       		.uleb128 0xe
 13878 0299 3A       		.uleb128 0x3a
 13879 029a 0B       		.uleb128 0xb
 13880 029b 3B       		.uleb128 0x3b
 13881 029c 0B       		.uleb128 0xb
 13882 029d 49       		.uleb128 0x49
 13883 029e 13       		.uleb128 0x13
 13884 029f 3F       		.uleb128 0x3f
 13885 02a0 19       		.uleb128 0x19
 13886 02a1 3C       		.uleb128 0x3c
 13887 02a2 19       		.uleb128 0x19
 13888 02a3 00       		.byte	0
 13889 02a4 00       		.byte	0
ARM GAS  /tmp/ccNtBBEs.s 			page 249


 13890 02a5 32       		.uleb128 0x32
 13891 02a6 34       		.uleb128 0x34
 13892 02a7 00       		.byte	0
 13893 02a8 03       		.uleb128 0x3
 13894 02a9 08       		.uleb128 0x8
 13895 02aa 3A       		.uleb128 0x3a
 13896 02ab 0B       		.uleb128 0xb
 13897 02ac 3B       		.uleb128 0x3b
 13898 02ad 05       		.uleb128 0x5
 13899 02ae 49       		.uleb128 0x49
 13900 02af 13       		.uleb128 0x13
 13901 02b0 3F       		.uleb128 0x3f
 13902 02b1 19       		.uleb128 0x19
 13903 02b2 3C       		.uleb128 0x3c
 13904 02b3 19       		.uleb128 0x19
 13905 02b4 00       		.byte	0
 13906 02b5 00       		.byte	0
 13907 02b6 33       		.uleb128 0x33
 13908 02b7 34       		.uleb128 0x34
 13909 02b8 00       		.byte	0
 13910 02b9 03       		.uleb128 0x3
 13911 02ba 0E       		.uleb128 0xe
 13912 02bb 3A       		.uleb128 0x3a
 13913 02bc 0B       		.uleb128 0xb
 13914 02bd 3B       		.uleb128 0x3b
 13915 02be 0B       		.uleb128 0xb
 13916 02bf 49       		.uleb128 0x49
 13917 02c0 13       		.uleb128 0x13
 13918 02c1 3F       		.uleb128 0x3f
 13919 02c2 19       		.uleb128 0x19
 13920 02c3 02       		.uleb128 0x2
 13921 02c4 18       		.uleb128 0x18
 13922 02c5 00       		.byte	0
 13923 02c6 00       		.byte	0
 13924 02c7 00       		.byte	0
 13925              		.section	.debug_aranges,"",%progbits
 13926 0000 1C000000 		.4byte	0x1c
 13927 0004 0200     		.2byte	0x2
 13928 0006 00000000 		.4byte	.Ldebug_info0
 13929 000a 04       		.byte	0x4
 13930 000b 00       		.byte	0
 13931 000c 0000     		.2byte	0
 13932 000e 0000     		.2byte	0
 13933 0010 00000000 		.4byte	.Ltext0
 13934 0014 183F0000 		.4byte	.Letext0-.Ltext0
 13935 0018 00000000 		.4byte	0
 13936 001c 00000000 		.4byte	0
 13937              		.section	.debug_ranges,"",%progbits
 13938              	.Ldebug_ranges0:
 13939 0000 603E0000 		.4byte	.LBB26-.Ltext0
 13940 0004 6E3E0000 		.4byte	.LBE26-.Ltext0
 13941 0008 703E0000 		.4byte	.LBB28-.Ltext0
 13942 000c 8C3E0000 		.4byte	.LBE28-.Ltext0
 13943 0010 00000000 		.4byte	0
 13944 0014 00000000 		.4byte	0
 13945 0018 8E3E0000 		.4byte	.LBB29-.Ltext0
 13946 001c AA3E0000 		.4byte	.LBE29-.Ltext0
ARM GAS  /tmp/ccNtBBEs.s 			page 250


 13947 0020 AC3E0000 		.4byte	.LBB33-.Ltext0
 13948 0024 0A3F0000 		.4byte	.LBE33-.Ltext0
 13949 0028 00000000 		.4byte	0
 13950 002c 00000000 		.4byte	0
 13951              		.section	.debug_line,"",%progbits
 13952              	.Ldebug_line0:
 13953 0000 F10D0000 		.section	.debug_str,"MS",%progbits,1
 13953      02000D07 
 13953      00000201 
 13953      FB0E0D00 
 13953      01010101 
 13954              	.LASF268:
 13955 0000 63685F74 		.ascii	"ch_threads_list\000"
 13955      68726561 
 13955      64735F6C 
 13955      69737400 
 13956              	.LASF279:
 13957 0010 76746675 		.ascii	"vtfunc_t\000"
 13957      6E635F74 
 13957      00
 13958              	.LASF185:
 13959 0019 696E7465 		.ascii	"interval\000"
 13959      7276616C 
 13959      00
 13960              	.LASF309:
 13961 0022 77746D74 		.ascii	"wtmtxp\000"
 13961      787000
 13962              	.LASF396:
 13963 0029 5061794C 		.ascii	"PayLoad\000"
 13963      6F616400 
 13964              	.LASF35:
 13965 0031 43434D52 		.ascii	"CCMR2\000"
 13965      3200
 13966              	.LASF303:
 13967 0037 746D5F63 		.ascii	"tm_calibration_t\000"
 13967      616C6962 
 13967      72617469 
 13967      6F6E5F74 
 13967      00
 13968              	.LASF102:
 13969 0048 68646D61 		.ascii	"hdma\000"
 13969      00
 13970              	.LASF18:
 13971 004d 63686172 		.ascii	"char\000"
 13971      00
 13972              	.LASF299:
 13973 0052 72656761 		.ascii	"regarm_t\000"
 13973      726D5F74 
 13973      00
 13974              	.LASF430:
 13975 005b 53697A65 		.ascii	"SizeOfUpdateBlueFW\000"
 13975      4F665570 
 13975      64617465 
 13975      426C7565 
 13975      465700
 13976              	.LASF421:
 13977 006e 436F6E66 		.ascii	"ConfigCharHandle\000"
ARM GAS  /tmp/ccNtBBEs.s 			page 251


 13977      69674368 
 13977      61724861 
 13977      6E646C65 
 13977      00
 13978              	.LASF52:
 13979 007f 48414C5F 		.ascii	"HAL_LOCKED\000"
 13979      4C4F434B 
 13979      454400
 13980              	.LASF70:
 13981 008a 4C6F636B 		.ascii	"Lock\000"
 13981      00
 13982              	.LASF346:
 13983 008f 47657374 		.ascii	"GestureCode\000"
 13983      75726543 
 13983      6F646500 
 13984              	.LASF222:
 13985 009b 48574164 		.ascii	"HWAdvanceFeatures\000"
 13985      76616E63 
 13985      65466561 
 13985      74757265 
 13985      7300
 13986              	.LASF199:
 13987 00ad 6576745F 		.ascii	"evt_gatt_attr_modified_IDB05A1\000"
 13987      67617474 
 13987      5F617474 
 13987      725F6D6F 
 13987      64696669 
 13988              	.LASF347:
 13989 00cc 436F6E66 		.ascii	"Config_Notify\000"
 13989      69675F4E 
 13989      6F746966 
 13989      7900
 13990              	.LASF245:
 13991 00da 73797374 		.ascii	"systime_t\000"
 13991      696D655F 
 13991      7400
 13992              	.LASF203:
 13993 00e4 6576745F 		.ascii	"evt_gatt_read_permit_req\000"
 13993      67617474 
 13993      5F726561 
 13993      645F7065 
 13993      726D6974 
 13994              	.LASF214:
 13995 00fd 54415247 		.ascii	"TARGET_SENSORTILE\000"
 13995      45545F53 
 13995      454E534F 
 13995      5254494C 
 13995      4500
 13996              	.LASF316:
 13997 010f 6D5F6F77 		.ascii	"m_owner\000"
 13997      6E657200 
 13998              	.LASF312:
 13999 0117 735F7175 		.ascii	"s_queue\000"
 13999      65756500 
 14000              	.LASF289:
 14001 011f 76745F73 		.ascii	"vt_systime\000"
 14001      79737469 
ARM GAS  /tmp/ccNtBBEs.s 			page 252


 14001      6D6500
 14002              	.LASF260:
 14003 012a 705F6D73 		.ascii	"p_msgqueue\000"
 14003      67717565 
 14003      756500
 14004              	.LASF177:
 14005 0135 73756265 		.ascii	"subevent\000"
 14005      76656E74 
 14005      00
 14006              	.LASF207:
 14007 013e 4F53585F 		.ascii	"OSX_BLUEVOICE_uuid_t\000"
 14007      424C5545 
 14007      564F4943 
 14007      455F7575 
 14007      69645F74 
 14008              	.LASF126:
 14009 0153 6F737854 		.ascii	"osxType\000"
 14009      79706500 
 14010              	.LASF0:
 14011 015b 756E7369 		.ascii	"unsigned int\000"
 14011      676E6564 
 14011      20696E74 
 14011      00
 14012              	.LASF367:
 14013 0168 53746174 		.ascii	"Status\000"
 14013      757300
 14014              	.LASF57:
 14015 016f 4D656D49 		.ascii	"MemInc\000"
 14015      6E6300
 14016              	.LASF2:
 14017 0176 5F5F696E 		.ascii	"__int8_t\000"
 14017      74385F74 
 14017      00
 14018              	.LASF267:
 14019 017f 74687265 		.ascii	"threads_list_t\000"
 14019      6164735F 
 14019      6C697374 
 14019      5F7400
 14020              	.LASF156:
 14021 018e 4F53585F 		.ascii	"OSX_MCP_NEARHEAD\000"
 14021      4D43505F 
 14021      4E454152 
 14021      48454144 
 14021      00
 14022              	.LASF247:
 14023 019f 63685F74 		.ascii	"ch_thread\000"
 14023      68726561 
 14023      6400
 14024              	.LASF422:
 14025 01a9 436F6E73 		.ascii	"ConsoleW2STHandle\000"
 14025      6F6C6557 
 14025      32535448 
 14025      616E646C 
 14025      6500
 14026              	.LASF49:
 14027 01bb 48414C5F 		.ascii	"HAL_BUSY\000"
 14027      42555359 
ARM GAS  /tmp/ccNtBBEs.s 			page 253


 14027      00
 14028              	.LASF193:
 14029 01c4 5F657674 		.ascii	"_evt_gatt_attr_modified_IDB05A1\000"
 14029      5F676174 
 14029      745F6174 
 14029      74725F6D 
 14029      6F646966 
 14030              	.LASF10:
 14031 01e4 5F5F696E 		.ascii	"__int32_t\000"
 14031      7433325F 
 14031      7400
 14032              	.LASF99:
 14033 01ee 48414C5F 		.ascii	"HAL_TIM_ACTIVE_CHANNEL_CLEARED\000"
 14033      54494D5F 
 14033      41435449 
 14033      56455F43 
 14033      48414E4E 
 14034              	.LASF148:
 14035 020d 4F53585F 		.ascii	"OSX_MAR_FASTWALKING\000"
 14035      4D41525F 
 14035      46415354 
 14035      57414C4B 
 14035      494E4700 
 14036              	.LASF230:
 14037 0221 6F73784D 		.ascii	"osxMotionFXIsInitalized\000"
 14037      6F74696F 
 14037      6E465849 
 14037      73496E69 
 14037      74616C69 
 14038              	.LASF363:
 14039 0239 766F6C74 		.ascii	"voltage\000"
 14039      61676500 
 14040              	.LASF73:
 14041 0241 58666572 		.ascii	"XferCpltCallback\000"
 14041      43706C74 
 14041      43616C6C 
 14041      6261636B 
 14041      00
 14042              	.LASF354:
 14043 0252 4779726F 		.ascii	"Gyro\000"
 14043      00
 14044              	.LASF306:
 14045 0257 77746F62 		.ascii	"wtobjp\000"
 14045      6A7000
 14046              	.LASF296:
 14047 025e 76746C69 		.ascii	"vtlist\000"
 14047      737400
 14048              	.LASF434:
 14049 0265 6B6E6F77 		.ascii	"known_OsxLic\000"
 14049      6E5F4F73 
 14049      784C6963 
 14049      00
 14050              	.LASF450:
 14051 0272 524D535F 		.ascii	"RMS_Ch\000"
 14051      436800
 14052              	.LASF142:
 14053 0279 6D616747 		.ascii	"magGainZ\000"
ARM GAS  /tmp/ccNtBBEs.s 			page 254


 14053      61696E5A 
 14053      00
 14054              	.LASF61:
 14055 0282 5072696F 		.ascii	"Priority\000"
 14055      72697479 
 14055      00
 14056              	.LASF213:
 14057 028b 54415247 		.ascii	"TARGET_BLUECOIN\000"
 14057      45545F42 
 14057      4C554543 
 14057      4F494E00 
 14058              	.LASF272:
 14059 029b 63685F72 		.ascii	"ch_ready_list\000"
 14059      65616479 
 14059      5F6C6973 
 14059      7400
 14060              	.LASF298:
 14061 02a9 69646C65 		.ascii	"idle_thread_wa\000"
 14061      5F746872 
 14061      6561645F 
 14061      776100
 14062              	.LASF71:
 14063 02b8 53746174 		.ascii	"State\000"
 14063      6500
 14064              	.LASF164:
 14065 02be 4F53585F 		.ascii	"OSX_MGR_WAKEUP\000"
 14065      4D47525F 
 14065      57414B45 
 14065      555000
 14066              	.LASF418:
 14067 02cd 43617272 		.ascii	"CarryPosRecCharHandle\000"
 14067      79506F73 
 14067      52656343 
 14067      68617248 
 14067      616E646C 
 14068              	.LASF456:
 14069 02e3 6F73785F 		.ascii	"osx_mcp_license\000"
 14069      6D63705F 
 14069      6C696365 
 14069      6E736500 
 14070              	.LASF270:
 14071 02f3 63685F74 		.ascii	"ch_threads_queue\000"
 14071      68726561 
 14071      64735F71 
 14071      75657565 
 14071      00
 14072              	.LASF63:
 14073 0304 48414C5F 		.ascii	"HAL_DMA_STATE_RESET\000"
 14073      444D415F 
 14073      53544154 
 14073      455F5245 
 14073      53455400 
 14074              	.LASF336:
 14075 0318 5465726D 		.ascii	"Term_Update_AfterRead\000"
 14075      5F557064 
 14075      6174655F 
 14075      41667465 
ARM GAS  /tmp/ccNtBBEs.s 			page 255


 14075      72526561 
 14076              	.LASF42:
 14077 032e 444D4152 		.ascii	"DMAR\000"
 14077      00
 14078              	.LASF455:
 14079 0333 6F73785F 		.ascii	"osx_mar_license\000"
 14079      6D61725F 
 14079      6C696365 
 14079      6E736500 
 14080              	.LASF118:
 14081 0343 4F53585F 		.ascii	"OSX_MOTION_PM\000"
 14081      4D4F5449 
 14081      4F4E5F50 
 14081      4D00
 14082              	.LASF54:
 14083 0351 52657175 		.ascii	"Request\000"
 14083      65737400 
 14084              	.LASF462:
 14085 0359 2E2E2F2E 		.ascii	"../../../../../Projects/Multi/Applications/BlueMicr"
 14085      2E2F2E2E 
 14085      2F2E2E2F 
 14085      2E2E2F50 
 14085      726F6A65 
 14086 038c 6F737973 		.ascii	"osystem2/Src/sensor_service.c\000"
 14086      74656D32 
 14086      2F537263 
 14086      2F73656E 
 14086      736F725F 
 14087              	.LASF50:
 14088 03aa 48414C5F 		.ascii	"HAL_TIMEOUT\000"
 14088      54494D45 
 14088      4F555400 
 14089              	.LASF195:
 14090 03b6 61747472 		.ascii	"attr_handle\000"
 14090      5F68616E 
 14090      646C6500 
 14091              	.LASF26:
 14092 03c2 434E4454 		.ascii	"CNDTR\000"
 14092      5200
 14093              	.LASF313:
 14094 03c8 735F636E 		.ascii	"s_cnt\000"
 14094      7400
 14095              	.LASF121:
 14096 03ce 4F53585F 		.ascii	"OSX_AUDIO_BV\000"
 14096      41554449 
 14096      4F5F4256 
 14096      00
 14097              	.LASF291:
 14098 03db 63685F73 		.ascii	"ch_system_debug\000"
 14098      79737465 
 14098      6D5F6465 
 14098      62756700 
 14099              	.LASF158:
 14100 03eb 4F53585F 		.ascii	"OSX_MCP_TROUSERPOCKET\000"
 14100      4D43505F 
 14100      54524F55 
 14100      53455250 
ARM GAS  /tmp/ccNtBBEs.s 			page 256


 14100      4F434B45 
 14101              	.LASF115:
 14102 0401 4F53585F 		.ascii	"OSX_MOTION_AR\000"
 14102      4D4F5449 
 14102      4F4E5F41 
 14102      5200
 14103              	.LASF229:
 14104 040f 48616E64 		.ascii	"HandleGGComponent\000"
 14104      6C654747 
 14104      436F6D70 
 14104      6F6E656E 
 14104      7400
 14105              	.LASF46:
 14106 0421 54494D5F 		.ascii	"TIM_TypeDef\000"
 14106      54797065 
 14106      44656600 
 14107              	.LASF407:
 14108 042d 6576656E 		.ascii	"event_pckt\000"
 14108      745F7063 
 14108      6B7400
 14109              	.LASF66:
 14110 0438 48414C5F 		.ascii	"HAL_DMA_STATE_TIMEOUT\000"
 14110      444D415F 
 14110      53544154 
 14110      455F5449 
 14110      4D454F55 
 14111              	.LASF358:
 14112 044e 54656D70 		.ascii	"Temp1\000"
 14112      3100
 14113              	.LASF441:
 14114 0454 7365745F 		.ascii	"set_connectable\000"
 14114      636F6E6E 
 14114      65637461 
 14114      626C6500 
 14115              	.LASF24:
 14116 0464 75696E74 		.ascii	"uint32_t\000"
 14116      33325F74 
 14116      00
 14117              	.LASF19:
 14118 046d 696E7438 		.ascii	"int8_t\000"
 14118      5F7400
 14119              	.LASF373:
 14120 0474 53656E73 		.ascii	"SensorValue\000"
 14120      6F725661 
 14120      6C756500 
 14121              	.LASF424:
 14122 0480 53746445 		.ascii	"StdErrCharHandle\000"
 14122      72724368 
 14122      61724861 
 14122      6E646C65 
 14122      00
 14123              	.LASF149:
 14124 0491 4F53585F 		.ascii	"OSX_MAR_JOGGING\000"
 14124      4D41525F 
 14124      4A4F4747 
 14124      494E4700 
 14125              	.LASF243:
ARM GAS  /tmp/ccNtBBEs.s 			page 257


 14126 04a1 6576656E 		.ascii	"eventmask_t\000"
 14126      746D6173 
 14126      6B5F7400 
 14127              	.LASF274:
 14128 04ad 725F7072 		.ascii	"r_prio\000"
 14128      696F00
 14129              	.LASF41:
 14130 04b4 42445452 		.ascii	"BDTR\000"
 14130      00
 14131              	.LASF286:
 14132 04b9 76745F70 		.ascii	"vt_par\000"
 14132      617200
 14133              	.LASF16:
 14134 04c0 6C6F6E67 		.ascii	"long long unsigned int\000"
 14134      206C6F6E 
 14134      6720756E 
 14134      7369676E 
 14134      65642069 
 14135              	.LASF339:
 14136 04d7 45436F6D 		.ascii	"ECompass_Update\000"
 14136      70617373 
 14136      5F557064 
 14136      61746500 
 14137              	.LASF112:
 14138 04e7 666C6F61 		.ascii	"float\000"
 14138      7400
 14139              	.LASF250:
 14140 04ed 705F7072 		.ascii	"p_prio\000"
 14140      696F00
 14141              	.LASF311:
 14142 04f4 63685F73 		.ascii	"ch_semaphore\000"
 14142      656D6170 
 14142      686F7265 
 14142      00
 14143              	.LASF342:
 14144 0501 41637469 		.ascii	"ActivityCode\000"
 14144      76697479 
 14144      436F6465 
 14144      00
 14145              	.LASF241:
 14146 050e 74707269 		.ascii	"tprio_t\000"
 14146      6F5F7400 
 14147              	.LASF37:
 14148 0516 43435231 		.ascii	"CCR1\000"
 14148      00
 14149              	.LASF123:
 14150 051b 4F53585F 		.ascii	"OSX_LICENSE_NUM\000"
 14150      4C494345 
 14150      4E53455F 
 14150      4E554D00 
 14151              	.LASF39:
 14152 052b 43435233 		.ascii	"CCR3\000"
 14152      00
 14153              	.LASF40:
 14154 0530 43435234 		.ascii	"CCR4\000"
 14154      00
 14155              	.LASF281:
ARM GAS  /tmp/ccNtBBEs.s 			page 258


 14156 0535 63685F76 		.ascii	"ch_virtual_timer\000"
 14156      69727475 
 14156      616C5F74 
 14156      696D6572 
 14156      00
 14157              	.LASF45:
 14158 0546 43435236 		.ascii	"CCR6\000"
 14158      00
 14159              	.LASF400:
 14160 054b 46656174 		.ascii	"FeatureMask\000"
 14160      7572654D 
 14160      61736B00 
 14161              	.LASF235:
 14162 0557 54617267 		.ascii	"TargetFeatures_t\000"
 14162      65744665 
 14162      61747572 
 14162      65735F74 
 14162      00
 14163              	.LASF43:
 14164 0568 43434D52 		.ascii	"CCMR3\000"
 14164      3300
 14165              	.LASF404:
 14166 056e 4843495F 		.ascii	"HCI_Event_CB\000"
 14166      4576656E 
 14166      745F4342 
 14166      00
 14167              	.LASF144:
 14168 057b 6F73784D 		.ascii	"osxMFX_calibFactor\000"
 14168      46585F63 
 14168      616C6962 
 14168      46616374 
 14168      6F7200
 14169              	.LASF48:
 14170 058e 48414C5F 		.ascii	"HAL_ERROR\000"
 14170      4552524F 
 14170      5200
 14171              	.LASF452:
 14172 0598 62646164 		.ascii	"bdaddr\000"
 14172      647200
 14173              	.LASF197:
 14174 059f 6F666673 		.ascii	"offset\000"
 14174      657400
 14175              	.LASF145:
 14176 05a6 4F53585F 		.ascii	"OSX_MAR_NOACTIVITY\000"
 14176      4D41525F 
 14176      4E4F4143 
 14176      54495649 
 14176      545900
 14177              	.LASF167:
 14178 05b9 74424441 		.ascii	"tBDAddr\000"
 14178      64647200 
 14179              	.LASF228:
 14180 05c1 626E7267 		.ascii	"bnrg_expansion_board\000"
 14180      5F657870 
 14180      616E7369 
 14180      6F6E5F62 
 14180      6F617264 
ARM GAS  /tmp/ccNtBBEs.s 			page 259


 14181              	.LASF120:
 14182 05d6 4F53585F 		.ascii	"OSX_ACOUSTIC_BF\000"
 14182      41434F55 
 14182      53544943 
 14182      5F424600 
 14183              	.LASF416:
 14184 05e6 45436F6D 		.ascii	"ECompassCharHandle\000"
 14184      70617373 
 14184      43686172 
 14184      48616E64 
 14184      6C6500
 14185              	.LASF458:
 14186 05f9 6F73785F 		.ascii	"osx_bv_license\000"
 14186      62765F6C 
 14186      6963656E 
 14186      736500
 14187              	.LASF244:
 14188 0608 636E745F 		.ascii	"cnt_t\000"
 14188      7400
 14189              	.LASF431:
 14190 060e 636F6E6E 		.ascii	"connection_handle\000"
 14190      65637469 
 14190      6F6E5F68 
 14190      616E646C 
 14190      6500
 14191              	.LASF28:
 14192 0620 434D4152 		.ascii	"CMAR\000"
 14192      00
 14193              	.LASF162:
 14194 0625 4F53585F 		.ascii	"OSX_MGR_PICKUP\000"
 14194      4D47525F 
 14194      5049434B 
 14194      555000
 14195              	.LASF92:
 14196 0634 48414C5F 		.ascii	"HAL_TIM_StateTypeDef\000"
 14196      54494D5F 
 14196      53746174 
 14196      65547970 
 14196      65446566 
 14197              	.LASF153:
 14198 0649 4F53585F 		.ascii	"OSX_MCP_UNKNOWN\000"
 14198      4D43505F 
 14198      554E4B4E 
 14198      4F574E00 
 14199              	.LASF382:
 14200 0659 75684361 		.ascii	"uhCapture\000"
 14200      70747572 
 14200      6500
 14201              	.LASF47:
 14202 0663 48414C5F 		.ascii	"HAL_OK\000"
 14202      4F4B00
 14203              	.LASF192:
 14204 066a 6576745F 		.ascii	"evt_blue_aci\000"
 14204      626C7565 
 14204      5F616369 
 14204      00
 14205              	.LASF201:
ARM GAS  /tmp/ccNtBBEs.s 			page 260


 14206 0677 6576745F 		.ascii	"evt_gatt_attr_modified_IDB04A1\000"
 14206      67617474 
 14206      5F617474 
 14206      725F6D6F 
 14206      64696669 
 14207              	.LASF426:
 14208 0696 4C617374 		.ascii	"LastStderrLen\000"
 14208      53746465 
 14208      72724C65 
 14208      6E00
 14209              	.LASF389:
 14210 06a4 506F696E 		.ascii	"PointerByte\000"
 14210      74657242 
 14210      79746500 
 14211              	.LASF72:
 14212 06b0 50617265 		.ascii	"Parent\000"
 14212      6E7400
 14213              	.LASF252:
 14214 06b7 705F6E65 		.ascii	"p_newer\000"
 14214      77657200 
 14215              	.LASF288:
 14216 06bf 63685F76 		.ascii	"ch_virtual_timers_list\000"
 14216      69727475 
 14216      616C5F74 
 14216      696D6572 
 14216      735F6C69 
 14217              	.LASF79:
 14218 06d6 4368616E 		.ascii	"ChannelIndex\000"
 14218      6E656C49 
 14218      6E646578 
 14218      00
 14219              	.LASF27:
 14220 06e3 43504152 		.ascii	"CPAR\000"
 14220      00
 14221              	.LASF210:
 14222 06e8 43686172 		.ascii	"CharAudioSyncHandle\000"
 14222      41756469 
 14222      6F53796E 
 14222      6348616E 
 14222      646C6500 
 14223              	.LASF246:
 14224 06fc 74687265 		.ascii	"thread_t\000"
 14224      61645F74 
 14224      00
 14225              	.LASF338:
 14226 0705 62756666 		.ascii	"buff\000"
 14226      00
 14227              	.LASF116:
 14228 070a 4F53585F 		.ascii	"OSX_MOTION_CP\000"
 14228      4D4F5449 
 14228      4F4E5F43 
 14228      5000
 14229              	.LASF31:
 14230 0718 444D415F 		.ascii	"DMA_TypeDef\000"
 14230      54797065 
 14230      44656600 
 14231              	.LASF69:
ARM GAS  /tmp/ccNtBBEs.s 			page 261


 14232 0724 496E6974 		.ascii	"Init\000"
 14232      00
 14233              	.LASF231:
 14234 0729 6F73784D 		.ascii	"osxMotionARIsInitalized\000"
 14234      6F74696F 
 14234      6E415249 
 14234      73496E69 
 14234      74616C69 
 14235              	.LASF304:
 14236 0741 7264796D 		.ascii	"rdymsg\000"
 14236      736700
 14237              	.LASF454:
 14238 0748 6F73785F 		.ascii	"osx_mfx_license\000"
 14238      6D66785F 
 14238      6C696365 
 14238      6E736500 
 14239              	.LASF198:
 14240 0758 6174745F 		.ascii	"att_data\000"
 14240      64617461 
 14240      00
 14241              	.LASF58:
 14242 0761 50657269 		.ascii	"PeriphDataAlignment\000"
 14242      70684461 
 14242      7461416C 
 14242      69676E6D 
 14242      656E7400 
 14243              	.LASF67:
 14244 0775 48414C5F 		.ascii	"HAL_DMA_StateTypeDef\000"
 14244      444D415F 
 14244      53746174 
 14244      65547970 
 14244      65446566 
 14245              	.LASF375:
 14246 078a 48756D54 		.ascii	"HumToSend\000"
 14246      6F53656E 
 14246      6400
 14247              	.LASF440:
 14248 0794 636F6E6E 		.ascii	"connected\000"
 14248      65637465 
 14248      6400
 14249              	.LASF374:
 14250 079e 50726573 		.ascii	"PressToSend\000"
 14250      73546F53 
 14250      656E6400 
 14251              	.LASF259:
 14252 07aa 705F7761 		.ascii	"p_waiting\000"
 14252      6974696E 
 14252      6700
 14253              	.LASF319:
 14254 07b4 5F426F6F 		.ascii	"_Bool\000"
 14254      6C00
 14255              	.LASF211:
 14256 07ba 4F53585F 		.ascii	"OSX_BLUEVOICE_ProfileHandle_t\000"
 14256      424C5545 
 14256      564F4943 
 14256      455F5072 
 14256      6F66696C 
ARM GAS  /tmp/ccNtBBEs.s 			page 262


 14257              	.LASF366:
 14258 07d8 50726556 		.ascii	"PreVoltage\000"
 14258      6F6C7461 
 14258      676500
 14259              	.LASF398:
 14260 07e3 6C6F635F 		.ascii	"loc_data_length\000"
 14260      64617461 
 14260      5F6C656E 
 14260      67746800 
 14261              	.LASF75:
 14262 07f3 58666572 		.ascii	"XferErrorCallback\000"
 14262      4572726F 
 14262      7243616C 
 14262      6C626163 
 14262      6B00
 14263              	.LASF135:
 14264 0805 45787472 		.ascii	"ExtraData\000"
 14264      61446174 
 14264      6100
 14265              	.LASF143:
 14266 080f 6578704D 		.ascii	"expMagVect\000"
 14266      61675665 
 14266      637400
 14267              	.LASF327:
 14268 081a 75756964 		.ascii	"uuid\000"
 14268      00
 14269              	.LASF392:
 14270 081f 4D43555F 		.ascii	"MCU_ID\000"
 14270      494400
 14271              	.LASF15:
 14272 0826 5F5F7569 		.ascii	"__uint64_t\000"
 14272      6E743634 
 14272      5F7400
 14273              	.LASF172:
 14274 0831 6863695F 		.ascii	"hci_uart_pckt\000"
 14274      75617274 
 14274      5F70636B 
 14274      7400
 14275              	.LASF33:
 14276 083f 44494552 		.ascii	"DIER\000"
 14276      00
 14277              	.LASF51:
 14278 0844 48414C5F 		.ascii	"HAL_UNLOCKED\000"
 14278      554E4C4F 
 14278      434B4544 
 14278      00
 14279              	.LASF80:
 14280 0851 444D415F 		.ascii	"DMA_HandleTypeDef\000"
 14280      48616E64 
 14280      6C655479 
 14280      70654465 
 14280      6600
 14281              	.LASF209:
 14282 0863 43686172 		.ascii	"CharAudioHandle\000"
 14282      41756469 
 14282      6F48616E 
 14282      646C6500 
ARM GAS  /tmp/ccNtBBEs.s 			page 263


 14283              	.LASF379:
 14284 0873 696E7450 		.ascii	"intPart\000"
 14284      61727400 
 14285              	.LASF132:
 14286 087b 4D444D5F 		.ascii	"MDM_TableLicElement_t\000"
 14286      5461626C 
 14286      654C6963 
 14286      456C656D 
 14286      656E745F 
 14287              	.LASF459:
 14288 0891 424C5545 		.ascii	"BLUEVOICE_tx_handle\000"
 14288      564F4943 
 14288      455F7478 
 14288      5F68616E 
 14288      646C6500 
 14289              	.LASF217:
 14290 08a5 426F6172 		.ascii	"BoardType\000"
 14290      64547970 
 14290      6500
 14291              	.LASF190:
 14292 08af 5F657674 		.ascii	"_evt_blue_aci\000"
 14292      5F626C75 
 14292      655F6163 
 14292      6900
 14293              	.LASF415:
 14294 08bd 51756174 		.ascii	"QuaternionsCharHandle\000"
 14294      65726E69 
 14294      6F6E7343 
 14294      68617248 
 14294      616E646C 
 14295              	.LASF119:
 14296 08d3 4F53585F 		.ascii	"OSX_ACOUSTIC_SL\000"
 14296      41434F55 
 14296      53544943 
 14296      5F534C00 
 14297              	.LASF385:
 14298 08e3 436F756E 		.ascii	"Count\000"
 14298      7400
 14299              	.LASF343:
 14300 08e9 43617272 		.ascii	"CarryPosRec_Update\000"
 14300      79506F73 
 14300      5265635F 
 14300      55706461 
 14300      746500
 14301              	.LASF8:
 14302 08fc 5F5F7569 		.ascii	"__uint16_t\000"
 14302      6E743136 
 14302      5F7400
 14303              	.LASF384:
 14304 0907 52657456 		.ascii	"RetValue\000"
 14304      616C7565 
 14304      00
 14305              	.LASF463:
 14306 0910 2F752F65 		.ascii	"/u/elawton2/p442-submissions/sensortile/reference/b"
 14306      6C617774 
 14306      6F6E322F 
 14306      70343432 
ARM GAS  /tmp/ccNtBBEs.s 			page 264


 14306      2D737562 
 14307 0943 6C75656D 		.ascii	"luemicrosystem2/BlueMicrosystem2_V2.2.0/Projects/Mu"
 14307      6963726F 
 14307      73797374 
 14307      656D322F 
 14307      426C7565 
 14308 0976 6C74692F 		.ascii	"lti/Applications/BlueMicrosystem2/bluechibi\000"
 14308      4170706C 
 14308      69636174 
 14308      696F6E73 
 14308      2F426C75 
 14309              	.LASF328:
 14310 09a2 4164645F 		.ascii	"Add_ConsoleW2ST_Service\000"
 14310      436F6E73 
 14310      6F6C6557 
 14310      3253545F 
 14310      53657276 
 14311              	.LASF365:
 14312 09ba 765F6D6F 		.ascii	"v_mode\000"
 14312      646500
 14313              	.LASF81:
 14314 09c1 50726573 		.ascii	"Prescaler\000"
 14314      63616C65 
 14314      7200
 14315              	.LASF218:
 14316 09cb 4E756D54 		.ascii	"NumTempSensors\000"
 14316      656D7053 
 14316      656E736F 
 14316      727300
 14317              	.LASF155:
 14318 09da 4F53585F 		.ascii	"OSX_MCP_INHAND\000"
 14318      4D43505F 
 14318      494E4841 
 14318      4E4400
 14319              	.LASF36:
 14320 09e9 43434552 		.ascii	"CCER\000"
 14320      00
 14321              	.LASF159:
 14322 09ee 4F53585F 		.ascii	"OSX_MCP_ARMSWING\000"
 14322      4D43505F 
 14322      41524D53 
 14322      57494E47 
 14322      00
 14323              	.LASF136:
 14324 09ff 4D444D5F 		.ascii	"MDM_PayLoadLic_t\000"
 14324      5061794C 
 14324      6F61644C 
 14324      69635F74 
 14324      00
 14325              	.LASF284:
 14326 0a10 76745F64 		.ascii	"vt_delta\000"
 14326      656C7461 
 14326      00
 14327              	.LASF276:
 14328 0a19 725F6E65 		.ascii	"r_newer\000"
 14328      77657200 
 14329              	.LASF362:
ARM GAS  /tmp/ccNtBBEs.s 			page 265


 14330 0a21 47475F55 		.ascii	"GG_Update\000"
 14330      70646174 
 14330      6500
 14331              	.LASF258:
 14332 0a2b 705F7072 		.ascii	"p_preempt\000"
 14332      65656D70 
 14332      7400
 14333              	.LASF157:
 14334 0a35 4F53585F 		.ascii	"OSX_MCP_SHIRTPOCKET\000"
 14334      4D43505F 
 14334      53484952 
 14334      54504F43 
 14334      4B455400 
 14335              	.LASF200:
 14336 0a49 5F657674 		.ascii	"_evt_gatt_attr_modified_IDB04A1\000"
 14336      5F676174 
 14336      745F6174 
 14336      74725F6D 
 14336      6F646966 
 14337              	.LASF238:
 14338 0a69 74737461 		.ascii	"tstate_t\000"
 14338      74655F74 
 14338      00
 14339              	.LASF87:
 14340 0a72 48414C5F 		.ascii	"HAL_TIM_STATE_RESET\000"
 14340      54494D5F 
 14340      53544154 
 14340      455F5245 
 14340      53455400 
 14341              	.LASF182:
 14342 0a86 726F6C65 		.ascii	"role\000"
 14342      00
 14343              	.LASF253:
 14344 0a8b 705F6F6C 		.ascii	"p_older\000"
 14344      64657200 
 14345              	.LASF255:
 14346 0a93 705F7374 		.ascii	"p_state\000"
 14346      61746500 
 14347              	.LASF321:
 14348 0a9b 63686172 		.ascii	"charHandle\000"
 14348      48616E64 
 14348      6C6500
 14349              	.LASF20:
 14350 0aa6 75696E74 		.ascii	"uint8_t\000"
 14350      385F7400 
 14351              	.LASF180:
 14352 0aae 73746174 		.ascii	"status\000"
 14352      757300
 14353              	.LASF438:
 14354 0ab5 42797465 		.ascii	"BytesToWrite\000"
 14354      73546F57 
 14354      72697465 
 14354      00
 14355              	.LASF410:
 14356 0ac2 456E7669 		.ascii	"EnvironmentalCharHandle\000"
 14356      726F6E6D 
 14356      656E7461 
ARM GAS  /tmp/ccNtBBEs.s 			page 266


 14356      6C436861 
 14356      7248616E 
 14357              	.LASF3:
 14358 0ada 7369676E 		.ascii	"signed char\000"
 14358      65642063 
 14358      68617200 
 14359              	.LASF265:
 14360 0ae6 705F6D70 		.ascii	"p_mpool\000"
 14360      6F6F6C00 
 14361              	.LASF263:
 14362 0aee 705F6D74 		.ascii	"p_mtxlist\000"
 14362      786C6973 
 14362      7400
 14363              	.LASF113:
 14364 0af8 4F53585F 		.ascii	"OSX_END\000"
 14364      454E4400 
 14365              	.LASF32:
 14366 0b00 534D4352 		.ascii	"SMCR\000"
 14366      00
 14367              	.LASF425:
 14368 0b05 4C617374 		.ascii	"LastStderrBuffer\000"
 14368      53746465 
 14368      72724275 
 14368      66666572 
 14368      00
 14369              	.LASF446:
 14370 0b16 46697273 		.ascii	"FirstConnectionConfig\000"
 14370      74436F6E 
 14370      6E656374 
 14370      696F6E43 
 14370      6F6E6669 
 14371              	.LASF361:
 14372 0b2c 436F756E 		.ascii	"Counter\000"
 14372      74657200 
 14373              	.LASF91:
 14374 0b34 48414C5F 		.ascii	"HAL_TIM_STATE_ERROR\000"
 14374      54494D5F 
 14374      53544154 
 14374      455F4552 
 14374      524F5200 
 14375              	.LASF443:
 14376 0b48 6D61674F 		.ascii	"magOffset\000"
 14376      66667365 
 14376      7400
 14377              	.LASF179:
 14378 0b52 5F657674 		.ascii	"_evt_le_connection_complete\000"
 14378      5F6C655F 
 14378      636F6E6E 
 14378      65637469 
 14378      6F6E5F63 
 14379              	.LASF427:
 14380 0b6e 4C617374 		.ascii	"LastTermBuffer\000"
 14380      5465726D 
 14380      42756666 
 14380      657200
 14381              	.LASF168:
 14382 0b7d 5F5F444D 		.ascii	"__DMA_HandleTypeDef\000"
ARM GAS  /tmp/ccNtBBEs.s 			page 267


 14382      415F4861 
 14382      6E646C65 
 14382      54797065 
 14382      44656600 
 14383              	.LASF104:
 14384 0b91 434F4D50 		.ascii	"COMPONENT_OK\000"
 14384      4F4E454E 
 14384      545F4F4B 
 14384      00
 14385              	.LASF290:
 14386 0b9e 73797374 		.ascii	"system_debug_t\000"
 14386      656D5F64 
 14386      65627567 
 14386      5F7400
 14387              	.LASF414:
 14388 0bad 47474368 		.ascii	"GGCharHandle\000"
 14388      61724861 
 14388      6E646C65 
 14388      00
 14389              	.LASF380:
 14390 0bba 53746570 		.ascii	"StepCount\000"
 14390      436F756E 
 14390      7400
 14391              	.LASF206:
 14392 0bc4 43686172 		.ascii	"CharAudioSyncUUID\000"
 14392      41756469 
 14392      6F53796E 
 14392      63555549 
 14392      4400
 14393              	.LASF14:
 14394 0bd6 6C6F6E67 		.ascii	"long long int\000"
 14394      206C6F6E 
 14394      6720696E 
 14394      7400
 14395              	.LASF381:
 14396 0be4 41747472 		.ascii	"Attribute_Modified_CB\000"
 14396      69627574 
 14396      655F4D6F 
 14396      64696669 
 14396      65645F43 
 14397              	.LASF216:
 14398 0bfa 54617267 		.ascii	"TargetType_t\000"
 14398      65745479 
 14398      70655F74 
 14398      00
 14399              	.LASF111:
 14400 0c07 53656E73 		.ascii	"SensorAxes_t\000"
 14400      6F724178 
 14400      65735F74 
 14400      00
 14401              	.LASF273:
 14402 0c14 725F7175 		.ascii	"r_queue\000"
 14402      65756500 
 14403              	.LASF226:
 14404 0c1c 4E756D4D 		.ascii	"NumMicSensors\000"
 14404      69635365 
 14404      6E736F72 
ARM GAS  /tmp/ccNtBBEs.s 			page 268


 14404      7300
 14405              	.LASF355:
 14406 0c2a 456E7669 		.ascii	"Environmental_Update\000"
 14406      726F6E6D 
 14406      656E7461 
 14406      6C5F5570 
 14406      64617465 
 14407              	.LASF397:
 14408 0c3f 6C6F635F 		.ascii	"loc_att_data\000"
 14408      6174745F 
 14408      64617461 
 14408      00
 14409              	.LASF189:
 14410 0c4c 6576745F 		.ascii	"evt_le_connection_complete\000"
 14410      6C655F63 
 14410      6F6E6E65 
 14410      6374696F 
 14410      6E5F636F 
 14411              	.LASF242:
 14412 0c67 6D73675F 		.ascii	"msg_t\000"
 14412      7400
 14413              	.LASF114:
 14414 0c6d 4F53585F 		.ascii	"OSX_MOTION_FX\000"
 14414      4D4F5449 
 14414      4F4E5F46 
 14414      5800
 14415              	.LASF432:
 14416 0c7b 62726561 		.ascii	"breath\000"
 14416      746800
 14417              	.LASF359:
 14418 0c82 42756666 		.ascii	"BuffPos\000"
 14418      506F7300 
 14419              	.LASF451:
 14420 0c8a 44424E4F 		.ascii	"DBNOISE_Value_Old_Ch\000"
 14420      4953455F 
 14420      56616C75 
 14420      655F4F6C 
 14420      645F4368 
 14421              	.LASF224:
 14422 0c9f 48616E64 		.ascii	"HandleGyroSensor\000"
 14422      6C654779 
 14422      726F5365 
 14422      6E736F72 
 14422      00
 14423              	.LASF256:
 14424 0cb0 705F666C 		.ascii	"p_flags\000"
 14424      61677300 
 14425              	.LASF186:
 14426 0cb8 6C617465 		.ascii	"latency\000"
 14426      6E637900 
 14427              	.LASF6:
 14428 0cc0 5F5F696E 		.ascii	"__int16_t\000"
 14428      7431365F 
 14428      7400
 14429              	.LASF233:
 14430 0cca 6F73784D 		.ascii	"osxMotionGRIsInitalized\000"
 14430      6F74696F 
ARM GAS  /tmp/ccNtBBEs.s 			page 269


 14430      6E475249 
 14430      73496E69 
 14430      74616C69 
 14431              	.LASF280:
 14432 0ce2 76697274 		.ascii	"virtual_timer_t\000"
 14432      75616C5F 
 14432      74696D65 
 14432      725F7400 
 14433              	.LASF83:
 14434 0cf2 50657269 		.ascii	"Period\000"
 14434      6F6400
 14435              	.LASF350:
 14436 0cf9 41636345 		.ascii	"AccEvent_Notify\000"
 14436      76656E74 
 14436      5F4E6F74 
 14436      69667900 
 14437              	.LASF232:
 14438 0d09 6F73784D 		.ascii	"osxMotionCPIsInitalized\000"
 14438      6F74696F 
 14438      6E435049 
 14438      73496E69 
 14438      74616C69 
 14439              	.LASF17:
 14440 0d21 73697A65 		.ascii	"sizetype\000"
 14440      74797065 
 14440      00
 14441              	.LASF208:
 14442 0d2a 53657276 		.ascii	"ServiceHandle\000"
 14442      69636548 
 14442      616E646C 
 14442      6500
 14443              	.LASF183:
 14444 0d38 70656572 		.ascii	"peer_bdaddr_type\000"
 14444      5F626461 
 14444      6464725F 
 14444      74797065 
 14444      00
 14445              	.LASF29:
 14446 0d49 444D415F 		.ascii	"DMA_Channel_TypeDef\000"
 14446      4368616E 
 14446      6E656C5F 
 14446      54797065 
 14446      44656600 
 14447              	.LASF191:
 14448 0d5d 65636F64 		.ascii	"ecode\000"
 14448      6500
 14449              	.LASF460:
 14450 0d63 424C5545 		.ascii	"BLUEVOICE_Char_uuids\000"
 14450      564F4943 
 14450      455F4368 
 14450      61725F75 
 14450      75696473 
 14451              	.LASF90:
 14452 0d78 48414C5F 		.ascii	"HAL_TIM_STATE_TIMEOUT\000"
 14452      54494D5F 
 14452      53544154 
 14452      455F5449 
ARM GAS  /tmp/ccNtBBEs.s 			page 270


 14452      4D454F55 
 14453              	.LASF330:
 14454 0d8e 53746465 		.ascii	"Stderr_Update\000"
 14454      72725F55 
 14454      70646174 
 14454      6500
 14455              	.LASF356:
 14456 0d9c 50726573 		.ascii	"Press\000"
 14456      7300
 14457              	.LASF240:
 14458 0da2 74736C69 		.ascii	"tslices_t\000"
 14458      6365735F 
 14458      7400
 14459              	.LASF277:
 14460 0dac 725F6F6C 		.ascii	"r_older\000"
 14460      64657200 
 14461              	.LASF402:
 14462 0db4 53656E64 		.ascii	"SendItBack\000"
 14462      49744261 
 14462      636B00
 14463              	.LASF108:
 14464 0dbf 41584953 		.ascii	"AXIS_X\000"
 14464      5F5800
 14465              	.LASF109:
 14466 0dc6 41584953 		.ascii	"AXIS_Y\000"
 14466      5F5900
 14467              	.LASF110:
 14468 0dcd 41584953 		.ascii	"AXIS_Z\000"
 14468      5F5A00
 14469              	.LASF314:
 14470 0dd4 63685F6D 		.ascii	"ch_mutex\000"
 14470      75746578 
 14470      00
 14471              	.LASF269:
 14472 0ddd 74687265 		.ascii	"threads_queue_t\000"
 14472      6164735F 
 14472      71756575 
 14472      655F7400 
 14473              	.LASF357:
 14474 0ded 54656D70 		.ascii	"Temp2\000"
 14474      3200
 14475              	.LASF127:
 14476 0df3 6F73784C 		.ascii	"osxLibVersion\000"
 14476      69625665 
 14476      7273696F 
 14476      6E00
 14477              	.LASF408:
 14478 0e01 626C7565 		.ascii	"blue_evt\000"
 14478      5F657674 
 14478      00
 14479              	.LASF405:
 14480 0e0a 70636B74 		.ascii	"pckt\000"
 14480      00
 14481              	.LASF147:
 14482 0e0f 4F53585F 		.ascii	"OSX_MAR_WALKING\000"
 14482      4D41525F 
 14482      57414C4B 
ARM GAS  /tmp/ccNtBBEs.s 			page 271


 14482      494E4700 
 14483              	.LASF395:
 14484 0e1f 4F73784C 		.ascii	"OsxLicense\000"
 14484      6963656E 
 14484      736500
 14485              	.LASF292:
 14486 0e2a 70616E69 		.ascii	"panic_msg\000"
 14486      635F6D73 
 14486      6700
 14487              	.LASF391:
 14488 0e34 66775665 		.ascii	"fwVersion\000"
 14488      7273696F 
 14488      6E00
 14489              	.LASF77:
 14490 0e3e 4572726F 		.ascii	"ErrorCode\000"
 14490      72436F64 
 14490      6500
 14491              	.LASF360:
 14492 0e48 41756469 		.ascii	"AudioLevel_Update\000"
 14492      6F4C6576 
 14492      656C5F55 
 14492      70646174 
 14492      6500
 14493              	.LASF34:
 14494 0e5a 43434D52 		.ascii	"CCMR1\000"
 14494      3100
 14495              	.LASF141:
 14496 0e60 6D616747 		.ascii	"magGainY\000"
 14496      61696E59 
 14496      00
 14497              	.LASF378:
 14498 0e69 64656350 		.ascii	"decPart\000"
 14498      61727400 
 14499              	.LASF261:
 14500 0e71 705F6D73 		.ascii	"p_msg\000"
 14500      6700
 14501              	.LASF169:
 14502 0e77 5F686369 		.ascii	"_hci_uart_pckt\000"
 14502      5F756172 
 14502      745F7063 
 14502      6B7400
 14503              	.LASF453:
 14504 0e86 75684343 		.ascii	"uhCCR4_Val\000"
 14504      52345F56 
 14504      616C00
 14505              	.LASF237:
 14506 0e91 746D6F64 		.ascii	"tmode_t\000"
 14506      655F7400 
 14507              	.LASF171:
 14508 0e99 64617461 		.ascii	"data\000"
 14508      00
 14509              	.LASF297:
 14510 0e9e 6D61696E 		.ascii	"mainthread\000"
 14510      74687265 
 14510      616400
 14511              	.LASF129:
 14512 0ea9 4C69634E 		.ascii	"LicName\000"
ARM GAS  /tmp/ccNtBBEs.s 			page 272


 14512      616D6500 
 14513              	.LASF436:
 14514 0eb1 54617267 		.ascii	"TargetBoardFeatures\000"
 14514      6574426F 
 14514      61726446 
 14514      65617475 
 14514      72657300 
 14515              	.LASF133:
 14516 0ec5 6F73784C 		.ascii	"osxLicenseInitialized\000"
 14516      6963656E 
 14516      7365496E 
 14516      69746961 
 14516      6C697A65 
 14517              	.LASF78:
 14518 0edb 446D6142 		.ascii	"DmaBaseAddress\000"
 14518      61736541 
 14518      64647265 
 14518      737300
 14519              	.LASF100:
 14520 0eea 48414C5F 		.ascii	"HAL_TIM_ActiveChannel\000"
 14520      54494D5F 
 14520      41637469 
 14520      76654368 
 14520      616E6E65 
 14521              	.LASF399:
 14522 0f00 436F6E66 		.ascii	"ConfigCommandParsing\000"
 14522      6967436F 
 14522      6D6D616E 
 14522      64506172 
 14522      73696E67 
 14523              	.LASF254:
 14524 0f15 705F6E61 		.ascii	"p_name\000"
 14524      6D6500
 14525              	.LASF322:
 14526 0f1c 63686172 		.ascii	"charValOffset\000"
 14526      56616C4F 
 14526      66667365 
 14526      7400
 14527              	.LASF249:
 14528 0f2a 705F7072 		.ascii	"p_prev\000"
 14528      657600
 14529              	.LASF22:
 14530 0f31 75696E74 		.ascii	"uint16_t\000"
 14530      31365F74 
 14530      00
 14531              	.LASF266:
 14532 0f3a 74687265 		.ascii	"thread_reference_t\000"
 14532      61645F72 
 14532      65666572 
 14532      656E6365 
 14532      5F7400
 14533              	.LASF205:
 14534 0f4d 43686172 		.ascii	"CharAudioUUID\000"
 14534      41756469 
 14534      6F555549 
 14534      4400
 14535              	.LASF341:
ARM GAS  /tmp/ccNtBBEs.s 			page 273


 14536 0f5b 41637469 		.ascii	"ActivityRec_Update\000"
 14536      76697479 
 14536      5265635F 
 14536      55706461 
 14536      746500
 14537              	.LASF140:
 14538 0f6e 6D616747 		.ascii	"magGainX\000"
 14538      61696E58 
 14538      00
 14539              	.LASF176:
 14540 0f77 5F657674 		.ascii	"_evt_le_meta_event\000"
 14540      5F6C655F 
 14540      6D657461 
 14540      5F657665 
 14540      6E7400
 14541              	.LASF1:
 14542 0f8a 73697A65 		.ascii	"size_t\000"
 14542      5F7400
 14543              	.LASF369:
 14544 0f91 6D616E75 		.ascii	"manuf_data\000"
 14544      665F6461 
 14544      746100
 14545              	.LASF236:
 14546 0f9c 7274636E 		.ascii	"rtcnt_t\000"
 14546      745F7400 
 14547              	.LASF93:
 14548 0fa4 48414C5F 		.ascii	"HAL_TIM_ACTIVE_CHANNEL_1\000"
 14548      54494D5F 
 14548      41435449 
 14548      56455F43 
 14548      48414E4E 
 14549              	.LASF94:
 14550 0fbd 48414C5F 		.ascii	"HAL_TIM_ACTIVE_CHANNEL_2\000"
 14550      54494D5F 
 14550      41435449 
 14550      56455F43 
 14550      48414E4E 
 14551              	.LASF95:
 14552 0fd6 48414C5F 		.ascii	"HAL_TIM_ACTIVE_CHANNEL_3\000"
 14552      54494D5F 
 14552      41435449 
 14552      56455F43 
 14552      48414E4E 
 14553              	.LASF97:
 14554 0fef 48414C5F 		.ascii	"HAL_TIM_ACTIVE_CHANNEL_5\000"
 14554      54494D5F 
 14554      41435449 
 14554      56455F43 
 14554      48414E4E 
 14555              	.LASF464:
 14556 1008 4741505F 		.ascii	"GAP_ConnectionComplete_CB\000"
 14556      436F6E6E 
 14556      65637469 
 14556      6F6E436F 
 14556      6D706C65 
 14557              	.LASF163:
 14558 1022 4F53585F 		.ascii	"OSX_MGR_GLANCE\000"
ARM GAS  /tmp/ccNtBBEs.s 			page 274


 14558      4D47525F 
 14558      474C414E 
 14558      434500
 14559              	.LASF234:
 14560 1031 6F737841 		.ascii	"osxAudioBVIsInitalized\000"
 14560      7564696F 
 14560      42564973 
 14560      496E6974 
 14560      616C697A 
 14561              	.LASF412:
 14562 1048 41636345 		.ascii	"AccEventCharHandle\000"
 14562      76656E74 
 14562      43686172 
 14562      48616E64 
 14562      6C6500
 14563              	.LASF85:
 14564 105b 52657065 		.ascii	"RepetitionCounter\000"
 14564      74697469 
 14564      6F6E436F 
 14564      756E7465 
 14564      7200
 14565              	.LASF320:
 14566 106d 73657276 		.ascii	"servHandle\000"
 14566      48616E64 
 14566      6C6500
 14567              	.LASF264:
 14568 1078 705F7265 		.ascii	"p_realprio\000"
 14568      616C7072 
 14568      696F00
 14569              	.LASF152:
 14570 1083 6F73785F 		.ascii	"osx_MAR_output_t\000"
 14570      4D41525F 
 14570      6F757470 
 14570      75745F74 
 14570      00
 14571              	.LASF465:
 14572 1094 4741505F 		.ascii	"GAP_DisconnectionComplete_CB\000"
 14572      44697363 
 14572      6F6E6E65 
 14572      6374696F 
 14572      6E436F6D 
 14573              	.LASF340:
 14574 10b1 416E676C 		.ascii	"Angle\000"
 14574      6500
 14575              	.LASF444:
 14576 10b7 47657374 		.ascii	"GestureRecognitionCode\000"
 14576      75726552 
 14576      65636F67 
 14576      6E697469 
 14576      6F6E436F 
 14577              	.LASF7:
 14578 10ce 73686F72 		.ascii	"short int\000"
 14578      7420696E 
 14578      7400
 14579              	.LASF372:
 14580 10d8 52656164 		.ascii	"Read_Request_CB\000"
 14580      5F526571 
ARM GAS  /tmp/ccNtBBEs.s 			page 275


 14580      75657374 
 14580      5F434200 
 14581              	.LASF278:
 14582 10e8 725F6375 		.ascii	"r_current\000"
 14582      7272656E 
 14582      7400
 14583              	.LASF351:
 14584 10f2 4164645F 		.ascii	"Add_HW_SW_ServW2ST_Service\000"
 14584      48575F53 
 14584      575F5365 
 14584      72765732 
 14584      53545F53 
 14585              	.LASF62:
 14586 110d 444D415F 		.ascii	"DMA_InitTypeDef\000"
 14586      496E6974 
 14586      54797065 
 14586      44656600 
 14587              	.LASF262:
 14588 111d 705F6570 		.ascii	"p_epending\000"
 14588      656E6469 
 14588      6E6700
 14589              	.LASF315:
 14590 1128 6D5F7175 		.ascii	"m_queue\000"
 14590      65756500 
 14591              	.LASF11:
 14592 1130 6C6F6E67 		.ascii	"long int\000"
 14592      20696E74 
 14592      00
 14593              	.LASF302:
 14594 1139 706F7274 		.ascii	"port_intctx\000"
 14594      5F696E74 
 14594      63747800 
 14595              	.LASF151:
 14596 1145 4F53585F 		.ascii	"OSX_MAR_DRIVING\000"
 14596      4D41525F 
 14596      44524956 
 14596      494E4700 
 14597              	.LASF345:
 14598 1155 47657374 		.ascii	"GestureRec_Update\000"
 14598      75726552 
 14598      65635F55 
 14598      70646174 
 14598      6500
 14599              	.LASF433:
 14600 1167 49544D5F 		.ascii	"ITM_RxBuffer\000"
 14600      52784275 
 14600      66666572 
 14600      00
 14601              	.LASF368:
 14602 1174 6C6F6361 		.ascii	"local_name\000"
 14602      6C5F6E61 
 14602      6D6500
 14603              	.LASF122:
 14604 117f 4F53585F 		.ascii	"OSX_MOTION_ID\000"
 14604      4D4F5449 
 14604      4F4E5F49 
 14604      4400
ARM GAS  /tmp/ccNtBBEs.s 			page 276


 14605              	.LASF331:
 14606 118d 6C656E67 		.ascii	"length\000"
 14606      746800
 14607              	.LASF353:
 14608 1194 41636347 		.ascii	"AccGyroMag_Update\000"
 14608      79726F4D 
 14608      61675F55 
 14608      70646174 
 14608      6500
 14609              	.LASF146:
 14610 11a6 4F53585F 		.ascii	"OSX_MAR_STATIONARY\000"
 14610      4D41525F 
 14610      53544154 
 14610      494F4E41 
 14610      525900
 14611              	.LASF394:
 14612 11b9 6F73784C 		.ascii	"osxLic\000"
 14612      696300
 14613              	.LASF21:
 14614 11c0 696E7431 		.ascii	"int16_t\000"
 14614      365F7400 
 14615              	.LASF187:
 14616 11c8 73757065 		.ascii	"supervision_timeout\000"
 14616      72766973 
 14616      696F6E5F 
 14616      74696D65 
 14616      6F757400 
 14617              	.LASF294:
 14618 11dc 63685F73 		.ascii	"ch_system\000"
 14618      79737465 
 14618      6D00
 14619              	.LASF59:
 14620 11e6 4D656D44 		.ascii	"MemDataAlignment\000"
 14620      61746141 
 14620      6C69676E 
 14620      6D656E74 
 14620      00
 14621              	.LASF323:
 14622 11f7 63686172 		.ascii	"charValueLen\000"
 14622      56616C75 
 14622      654C656E 
 14622      00
 14623              	.LASF344:
 14624 1204 43617272 		.ascii	"CarryPositionCode\000"
 14624      79506F73 
 14624      6974696F 
 14624      6E436F64 
 14624      6500
 14625              	.LASF68:
 14626 1216 496E7374 		.ascii	"Instance\000"
 14626      616E6365 
 14626      00
 14627              	.LASF248:
 14628 121f 705F6E65 		.ascii	"p_next\000"
 14628      787400
 14629              	.LASF212:
 14630 1226 54415247 		.ascii	"TARGET_NUCLEO\000"
ARM GAS  /tmp/ccNtBBEs.s 			page 277


 14630      45545F4E 
 14630      55434C45 
 14630      4F00
 14631              	.LASF25:
 14632 1234 75696E74 		.ascii	"uint64_t\000"
 14632      36345F74 
 14632      00
 14633              	.LASF251:
 14634 123d 705F6374 		.ascii	"p_ctx\000"
 14634      7800
 14635              	.LASF337:
 14636 1243 51756174 		.ascii	"Quat_Update\000"
 14636      5F557064 
 14636      61746500 
 14637              	.LASF349:
 14638 124f 436F6D6D 		.ascii	"Command\000"
 14638      616E6400 
 14639              	.LASF295:
 14640 1257 726C6973 		.ascii	"rlist\000"
 14640      7400
 14641              	.LASF383:
 14642 125d 53656E64 		.ascii	"SendBackData\000"
 14642      4261636B 
 14642      44617461 
 14642      00
 14643              	.LASF30:
 14644 126a 49464352 		.ascii	"IFCR\000"
 14644      00
 14645              	.LASF166:
 14646 126f 74426C65 		.ascii	"tBleStatus\000"
 14646      53746174 
 14646      757300
 14647              	.LASF103:
 14648 127a 54494D5F 		.ascii	"TIM_HandleTypeDef\000"
 14648      48616E64 
 14648      6C655479 
 14648      70654465 
 14648      6600
 14649              	.LASF403:
 14650 128c 69734361 		.ascii	"isCal\000"
 14650      6C00
 14651              	.LASF154:
 14652 1292 4F53585F 		.ascii	"OSX_MCP_ONDESK\000"
 14652      4D43505F 
 14652      4F4E4445 
 14652      534B00
 14653              	.LASF4:
 14654 12a1 5F5F7569 		.ascii	"__uint8_t\000"
 14654      6E74385F 
 14654      7400
 14655              	.LASF175:
 14656 12ab 6863695F 		.ascii	"hci_event_pckt\000"
 14656      6576656E 
 14656      745F7063 
 14656      6B7400
 14657              	.LASF411:
 14658 12ba 41636347 		.ascii	"AccGyroMagCharHandle\000"
ARM GAS  /tmp/ccNtBBEs.s 			page 278


 14658      79726F4D 
 14658      61674368 
 14658      61724861 
 14658      6E646C65 
 14659              	.LASF174:
 14660 12cf 706C656E 		.ascii	"plen\000"
 14660      00
 14661              	.LASF105:
 14662 12d4 434F4D50 		.ascii	"COMPONENT_ERROR\000"
 14662      4F4E454E 
 14662      545F4552 
 14662      524F5200 
 14663              	.LASF461:
 14664 12e4 474E5520 		.ascii	"GNU C 4.8.4 20140526 (release) [ARM/embedded-4_8-br"
 14664      4320342E 
 14664      382E3420 
 14664      32303134 
 14664      30353236 
 14665 1317 616E6368 		.ascii	"anch revision 211358] -mcpu=cortex-m4 -mno-thumb-in"
 14665      20726576 
 14665      6973696F 
 14665      6E203231 
 14665      31333538 
 14666 134a 74657277 		.ascii	"terwork -mthumb -ggdb -O0 -std=c99 -fomit-frame-poi"
 14666      6F726B20 
 14666      2D6D7468 
 14666      756D6220 
 14666      2D676764 
 14667 137d 6E746572 		.ascii	"nter -falign-functions=16\000"
 14667      202D6661 
 14667      6C69676E 
 14667      2D66756E 
 14667      6374696F 
 14668              	.LASF53:
 14669 1397 48414C5F 		.ascii	"HAL_LockTypeDef\000"
 14669      4C6F636B 
 14669      54797065 
 14669      44656600 
 14670              	.LASF348:
 14671 13a7 46656174 		.ascii	"Feature\000"
 14671      75726500 
 14672              	.LASF124:
 14673 13af 4D444D5F 		.ascii	"MDM_OsxLicenseType_t\000"
 14673      4F73784C 
 14673      6963656E 
 14673      73655479 
 14673      70655F74 
 14674              	.LASF301:
 14675 13c4 636F6E74 		.ascii	"context\000"
 14675      65787400 
 14676              	.LASF161:
 14677 13cc 4F53585F 		.ascii	"OSX_MGR_NOGESTURE\000"
 14677      4D47525F 
 14677      4E4F4745 
 14677      53545552 
 14677      4500
 14678              	.LASF325:
ARM GAS  /tmp/ccNtBBEs.s 			page 279


 14679 13de 73616665 		.ascii	"safe_aci_gatt_update_char_value\000"
 14679      5F616369 
 14679      5F676174 
 14679      745F7570 
 14679      64617465 
 14680              	.LASF413:
 14681 13fe 41756469 		.ascii	"AudioLevelCharHandle\000"
 14681      6F4C6576 
 14681      656C4368 
 14681      61724861 
 14681      6E646C65 
 14682              	.LASF439:
 14683 1413 48574164 		.ascii	"HWAdvanceFeaturesStatus\000"
 14683      76616E63 
 14683      65466561 
 14683      74757265 
 14683      73537461 
 14684              	.LASF89:
 14685 142b 48414C5F 		.ascii	"HAL_TIM_STATE_BUSY\000"
 14685      54494D5F 
 14685      53544154 
 14685      455F4255 
 14685      535900
 14686              	.LASF239:
 14687 143e 74726566 		.ascii	"trefs_t\000"
 14687      735F7400 
 14688              	.LASF219:
 14689 1446 48616E64 		.ascii	"HandleTempSensors\000"
 14689      6C655465 
 14689      6D705365 
 14689      6E736F72 
 14689      7300
 14690              	.LASF13:
 14691 1458 6C6F6E67 		.ascii	"long unsigned int\000"
 14691      20756E73 
 14691      69676E65 
 14691      6420696E 
 14691      7400
 14692              	.LASF96:
 14693 146a 48414C5F 		.ascii	"HAL_TIM_ACTIVE_CHANNEL_4\000"
 14693      54494D5F 
 14693      41435449 
 14693      56455F43 
 14693      48414E4E 
 14694              	.LASF106:
 14695 1483 434F4D50 		.ascii	"COMPONENT_TIMEOUT\000"
 14695      4F4E454E 
 14695      545F5449 
 14695      4D454F55 
 14695      5400
 14696              	.LASF98:
 14697 1495 48414C5F 		.ascii	"HAL_TIM_ACTIVE_CHANNEL_6\000"
 14697      54494D5F 
 14697      41435449 
 14697      56455F43 
 14697      48414E4E 
 14698              	.LASF130:
ARM GAS  /tmp/ccNtBBEs.s 			page 280


 14699 14ae 4C696354 		.ascii	"LicType\000"
 14699      79706500 
 14700              	.LASF390:
 14701 14b6 68775665 		.ascii	"hwVersion\000"
 14701      7273696F 
 14701      6E00
 14702              	.LASF23:
 14703 14c0 696E7433 		.ascii	"int32_t\000"
 14703      325F7400 
 14704              	.LASF101:
 14705 14c8 4368616E 		.ascii	"Channel\000"
 14705      6E656C00 
 14706              	.LASF387:
 14707 14d0 6F73784C 		.ascii	"osxLicenseStart\000"
 14707      6963656E 
 14707      73655374 
 14707      61727400 
 14708              	.LASF165:
 14709 14e0 6F73785F 		.ascii	"osx_MGR_output_t\000"
 14709      4D47525F 
 14709      6F757470 
 14709      75745F74 
 14709      00
 14710              	.LASF65:
 14711 14f1 48414C5F 		.ascii	"HAL_DMA_STATE_BUSY\000"
 14711      444D415F 
 14711      53544154 
 14711      455F4255 
 14711      535900
 14712              	.LASF308:
 14713 1504 77747365 		.ascii	"wtsemp\000"
 14713      6D7000
 14714              	.LASF334:
 14715 150b 5465726D 		.ascii	"Term_Update\000"
 14715      5F557064 
 14715      61746500 
 14716              	.LASF393:
 14717 1517 496E6465 		.ascii	"Index\000"
 14717      7800
 14718              	.LASF333:
 14719 151d 44617461 		.ascii	"DataToSend\000"
 14719      546F5365 
 14719      6E6400
 14720              	.LASF55:
 14721 1528 44697265 		.ascii	"Direction\000"
 14721      6374696F 
 14721      6E00
 14722              	.LASF318:
 14723 1532 6D757465 		.ascii	"mutex_t\000"
 14723      785F7400 
 14724              	.LASF173:
 14725 153a 5F686369 		.ascii	"_hci_event_pckt\000"
 14725      5F657665 
 14725      6E745F70 
 14725      636B7400 
 14726              	.LASF170:
 14727 154a 74797065 		.ascii	"type\000"
ARM GAS  /tmp/ccNtBBEs.s 			page 281


 14727      00
 14728              	.LASF428:
 14729 154f 4C617374 		.ascii	"LastTermLen\000"
 14729      5465726D 
 14729      4C656E00 
 14730              	.LASF184:
 14731 155b 70656572 		.ascii	"peer_bdaddr\000"
 14731      5F626461 
 14731      64647200 
 14732              	.LASF5:
 14733 1567 756E7369 		.ascii	"unsigned char\000"
 14733      676E6564 
 14733      20636861 
 14733      7200
 14734              	.LASF442:
 14735 1575 436F6E6E 		.ascii	"ConnectionBleStatus\000"
 14735      65637469 
 14735      6F6E426C 
 14735      65537461 
 14735      74757300 
 14736              	.LASF12:
 14737 1589 5F5F7569 		.ascii	"__uint32_t\000"
 14737      6E743332 
 14737      5F7400
 14738              	.LASF227:
 14739 1594 4C656453 		.ascii	"LedStatus\000"
 14739      74617475 
 14739      7300
 14740              	.LASF287:
 14741 159e 76697274 		.ascii	"virtual_timers_list_t\000"
 14741      75616C5F 
 14741      74696D65 
 14741      72735F6C 
 14741      6973745F 
 14742              	.LASF38:
 14743 15b4 43435232 		.ascii	"CCR2\000"
 14743      00
 14744              	.LASF386:
 14745 15b9 44656275 		.ascii	"DebugConsoleCommandParsing\000"
 14745      67436F6E 
 14745      736F6C65 
 14745      436F6D6D 
 14745      616E6450 
 14746              	.LASF457:
 14747 15d4 6F73785F 		.ascii	"osx_mgr_license\000"
 14747      6D67725F 
 14747      6C696365 
 14747      6E736500 
 14748              	.LASF204:
 14749 15e4 53657276 		.ascii	"ServiceUUID\000"
 14749      69636555 
 14749      55494400 
 14750              	.LASF437:
 14751 15f0 42756666 		.ascii	"BufferToWrite\000"
 14751      6572546F 
 14751      57726974 
 14751      6500
ARM GAS  /tmp/ccNtBBEs.s 			page 282


 14752              	.LASF44:
 14753 15fe 43435235 		.ascii	"CCR5\000"
 14753      00
 14754              	.LASF150:
 14755 1603 4F53585F 		.ascii	"OSX_MAR_BIKING\000"
 14755      4D41525F 
 14755      42494B49 
 14755      4E4700
 14756              	.LASF202:
 14757 1612 5F657674 		.ascii	"_evt_gatt_read_permit_req\000"
 14757      5F676174 
 14757      745F7265 
 14757      61645F70 
 14757      65726D69 
 14758              	.LASF445:
 14759 162c 466F7263 		.ascii	"ForceReCalibration\000"
 14759      65526543 
 14759      616C6962 
 14759      72617469 
 14759      6F6E00
 14760              	.LASF225:
 14761 163f 48616E64 		.ascii	"HandleMagSensor\000"
 14761      6C654D61 
 14761      6753656E 
 14761      736F7200 
 14762              	.LASF125:
 14763 164f 4C696345 		.ascii	"LicEnum\000"
 14763      6E756D00 
 14764              	.LASF196:
 14765 1657 64617461 		.ascii	"data_length\000"
 14765      5F6C656E 
 14765      67746800 
 14766              	.LASF419:
 14767 1663 47657374 		.ascii	"GestureRecCharHandle\000"
 14767      75726552 
 14767      65634368 
 14767      61724861 
 14767      6E646C65 
 14768              	.LASF107:
 14769 1678 434F4D50 		.ascii	"COMPONENT_NOT_IMPLEMENTED\000"
 14769      4F4E454E 
 14769      545F4E4F 
 14769      545F494D 
 14769      504C454D 
 14770              	.LASF178:
 14771 1692 6576745F 		.ascii	"evt_le_meta_event\000"
 14771      6C655F6D 
 14771      6574615F 
 14771      6576656E 
 14771      7400
 14772              	.LASF370:
 14773 16a4 61646472 		.ascii	"addr\000"
 14773      00
 14774              	.LASF257:
 14775 16a9 705F7265 		.ascii	"p_refs\000"
 14775      667300
 14776              	.LASF310:
ARM GAS  /tmp/ccNtBBEs.s 			page 283


 14777 16b0 65776D61 		.ascii	"ewmask\000"
 14777      736B00
 14778              	.LASF128:
 14779 16b7 4D444D5F 		.ascii	"MDM_knownOsxLicense_t\000"
 14779      6B6E6F77 
 14779      6E4F7378 
 14779      4C696365 
 14779      6E73655F 
 14780              	.LASF271:
 14781 16cd 72656164 		.ascii	"ready_list_t\000"
 14781      795F6C69 
 14781      73745F74 
 14781      00
 14782              	.LASF86:
 14783 16da 54494D5F 		.ascii	"TIM_Base_InitTypeDef\000"
 14783      42617365 
 14783      5F496E69 
 14783      74547970 
 14783      65446566 
 14784              	.LASF282:
 14785 16ef 76745F6E 		.ascii	"vt_next\000"
 14785      65787400 
 14786              	.LASF324:
 14787 16f7 63686172 		.ascii	"charValue\000"
 14787      56616C75 
 14787      6500
 14788              	.LASF329:
 14789 1701 6661696C 		.ascii	"fail\000"
 14789      00
 14790              	.LASF293:
 14791 1706 63685F73 		.ascii	"ch_system_t\000"
 14791      79737465 
 14791      6D5F7400 
 14792              	.LASF435:
 14793 1712 4D444D5F 		.ascii	"MDM_LicTable\000"
 14793      4C696354 
 14793      61626C65 
 14793      00
 14794              	.LASF215:
 14795 171f 54415247 		.ascii	"TARGETS_NUMBER\000"
 14795      4554535F 
 14795      4E554D42 
 14795      455200
 14796              	.LASF406:
 14797 172e 6863695F 		.ascii	"hci_pckt\000"
 14797      70636B74 
 14797      00
 14798              	.LASF409:
 14799 1737 48575365 		.ascii	"HWServW2STHandle\000"
 14799      72765732 
 14799      53544861 
 14799      6E646C65 
 14799      00
 14800              	.LASF317:
 14801 1748 6D5F6E65 		.ascii	"m_next\000"
 14801      787400
 14802              	.LASF423:
ARM GAS  /tmp/ccNtBBEs.s 			page 284


 14803 174f 5465726D 		.ascii	"TermCharHandle\000"
 14803      43686172 
 14803      48616E64 
 14803      6C6500
 14804              	.LASF223:
 14805 175e 48616E64 		.ascii	"HandleAccSensor\000"
 14805      6C654163 
 14805      6353656E 
 14805      736F7200 
 14806              	.LASF84:
 14807 176e 436C6F63 		.ascii	"ClockDivision\000"
 14807      6B446976 
 14807      6973696F 
 14807      6E00
 14808              	.LASF60:
 14809 177c 4D6F6465 		.ascii	"Mode\000"
 14809      00
 14810              	.LASF188:
 14811 1781 6D617374 		.ascii	"master_clock_accuracy\000"
 14811      65725F63 
 14811      6C6F636B 
 14811      5F616363 
 14811      75726163 
 14812              	.LASF9:
 14813 1797 73686F72 		.ascii	"short unsigned int\000"
 14813      7420756E 
 14813      7369676E 
 14813      65642069 
 14813      6E7400
 14814              	.LASF275:
 14815 17aa 725F6374 		.ascii	"r_ctx\000"
 14815      7800
 14816              	.LASF160:
 14817 17b0 6F73785F 		.ascii	"osx_MCP_output_t\000"
 14817      4D43505F 
 14817      6F757470 
 14817      75745F74 
 14817      00
 14818              	.LASF300:
 14819 17c1 73746B61 		.ascii	"stkalign_t\000"
 14819      6C69676E 
 14819      5F7400
 14820              	.LASF181:
 14821 17cc 68616E64 		.ascii	"handle\000"
 14821      6C6500
 14822              	.LASF429:
 14823 17d3 456E7669 		.ascii	"EnvironmentalCharSize\000"
 14823      726F6E6D 
 14823      656E7461 
 14823      6C436861 
 14823      7253697A 
 14824              	.LASF137:
 14825 17e9 6D61674F 		.ascii	"magOffX\000"
 14825      66665800 
 14826              	.LASF138:
 14827 17f1 6D61674F 		.ascii	"magOffY\000"
 14827      66665900 
ARM GAS  /tmp/ccNtBBEs.s 			page 285


 14828              	.LASF139:
 14829 17f9 6D61674F 		.ascii	"magOffZ\000"
 14829      66665A00 
 14830              	.LASF82:
 14831 1801 436F756E 		.ascii	"CounterMode\000"
 14831      7465724D 
 14831      6F646500 
 14832              	.LASF364:
 14833 180d 63757272 		.ascii	"current\000"
 14833      656E7400 
 14834              	.LASF194:
 14835 1815 636F6E6E 		.ascii	"conn_handle\000"
 14835      5F68616E 
 14835      646C6500 
 14836              	.LASF285:
 14837 1821 76745F66 		.ascii	"vt_func\000"
 14837      756E6300 
 14838              	.LASF74:
 14839 1829 58666572 		.ascii	"XferHalfCpltCallback\000"
 14839      48616C66 
 14839      43706C74 
 14839      43616C6C 
 14839      6261636B 
 14840              	.LASF283:
 14841 183e 76745F70 		.ascii	"vt_prev\000"
 14841      72657600 
 14842              	.LASF376:
 14843 1846 54656D70 		.ascii	"Temp2ToSend\000"
 14843      32546F53 
 14843      656E6400 
 14844              	.LASF131:
 14845 1852 41646472 		.ascii	"Address\000"
 14845      65737300 
 14846              	.LASF64:
 14847 185a 48414C5F 		.ascii	"HAL_DMA_STATE_READY\000"
 14847      444D415F 
 14847      53544154 
 14847      455F5245 
 14847      41445900 
 14848              	.LASF332:
 14849 186e 4F666673 		.ascii	"Offset\000"
 14849      657400
 14850              	.LASF388:
 14851 1875 75774352 		.ascii	"uwCRCValue\000"
 14851      4356616C 
 14851      756500
 14852              	.LASF352:
 14853 1880 6D61785F 		.ascii	"max_attr_records\000"
 14853      61747472 
 14853      5F726563 
 14853      6F726473 
 14853      00
 14854              	.LASF417:
 14855 1891 41637469 		.ascii	"ActivityRecCharHandle\000"
 14855      76697479 
 14855      52656343 
 14855      68617248 
ARM GAS  /tmp/ccNtBBEs.s 			page 286


 14855      616E646C 
 14856              	.LASF377:
 14857 18a7 54656D70 		.ascii	"Temp1ToSend\000"
 14857      31546F53 
 14857      656E6400 
 14858              	.LASF76:
 14859 18b3 58666572 		.ascii	"XferAbortCallback\000"
 14859      41626F72 
 14859      7443616C 
 14859      6C626163 
 14859      6B00
 14860              	.LASF220:
 14861 18c5 48616E64 		.ascii	"HandlePressSensor\000"
 14861      6C655072 
 14861      65737353 
 14861      656E736F 
 14861      7200
 14862              	.LASF371:
 14863 18d7 73657443 		.ascii	"setConnectable\000"
 14863      6F6E6E65 
 14863      63746162 
 14863      6C6500
 14864              	.LASF420:
 14865 18e6 436F6E66 		.ascii	"ConfigServW2STHandle\000"
 14865      69675365 
 14865      72765732 
 14865      53544861 
 14865      6E646C65 
 14866              	.LASF307:
 14867 18fb 77747472 		.ascii	"wttrp\000"
 14867      7000
 14868              	.LASF335:
 14869 1901 53746465 		.ascii	"Stderr_Update_AfterRead\000"
 14869      72725F55 
 14869      70646174 
 14869      655F4166 
 14869      74657252 
 14870              	.LASF447:
 14871 1919 54696D43 		.ascii	"TimCCHandle\000"
 14871      4348616E 
 14871      646C6500 
 14872              	.LASF401:
 14873 1925 44617461 		.ascii	"Data\000"
 14873      00
 14874              	.LASF305:
 14875 192a 65786974 		.ascii	"exitcode\000"
 14875      636F6465 
 14875      00
 14876              	.LASF88:
 14877 1933 48414C5F 		.ascii	"HAL_TIM_STATE_READY\000"
 14877      54494D5F 
 14877      53544154 
 14877      455F5245 
 14877      41445900 
 14878              	.LASF326:
 14879 1947 4164645F 		.ascii	"Add_ConfigW2ST_Service\000"
 14879      436F6E66 
ARM GAS  /tmp/ccNtBBEs.s 			page 287


 14879      69675732 
 14879      53545F53 
 14879      65727669 
 14880              	.LASF56:
 14881 195e 50657269 		.ascii	"PeriphInc\000"
 14881      7068496E 
 14881      6300
 14882              	.LASF117:
 14883 1968 4F53585F 		.ascii	"OSX_MOTION_GR\000"
 14883      4D4F5449 
 14883      4F4E5F47 
 14883      5200
 14884              	.LASF448:
 14885 1976 54696D45 		.ascii	"TimEnvHandle\000"
 14885      6E764861 
 14885      6E646C65 
 14885      00
 14886              	.LASF134:
 14887 1983 6F73784C 		.ascii	"osxLicense\000"
 14887      6963656E 
 14887      736500
 14888              	.LASF221:
 14889 198e 48616E64 		.ascii	"HandleHumSensor\000"
 14889      6C654875 
 14889      6D53656E 
 14889      736F7200 
 14890              	.LASF449:
 14891 199e 54696D41 		.ascii	"TimAudioDataHandle\000"
 14891      7564696F 
 14891      44617461 
 14891      48616E64 
 14891      6C6500
 14892              		.ident	"GCC: (GNU Tools for ARM Embedded Processors) 4.8.4 20140526 (release) [ARM/embedded-4_8-br
ARM GAS  /tmp/ccNtBBEs.s 			page 288


DEFINED SYMBOLS
                            *ABS*:00000000 sensor_service.c
     /tmp/ccNtBBEs.s:23     .bss:00000000 connected
     /tmp/ccNtBBEs.s:20     .bss:00000000 $d
     /tmp/ccNtBBEs.s:29     .data:00000000 set_connectable
     /tmp/ccNtBBEs.s:33     .bss:00000004 HWServW2STHandle
     /tmp/ccNtBBEs.s:36     .bss:00000006 EnvironmentalCharHandle
     /tmp/ccNtBBEs.s:39     .bss:00000008 AccGyroMagCharHandle
     /tmp/ccNtBBEs.s:42     .bss:0000000a AccEventCharHandle
     /tmp/ccNtBBEs.s:45     .bss:0000000c AudioLevelCharHandle
     /tmp/ccNtBBEs.s:48     .bss:0000000e GGCharHandle
     /tmp/ccNtBBEs.s:51     .bss:00000010 QuaternionsCharHandle
     /tmp/ccNtBBEs.s:54     .bss:00000012 ECompassCharHandle
     /tmp/ccNtBBEs.s:57     .bss:00000014 ActivityRecCharHandle
     /tmp/ccNtBBEs.s:60     .bss:00000016 CarryPosRecCharHandle
     /tmp/ccNtBBEs.s:63     .bss:00000018 GestureRecCharHandle
                            *COM*:00000006 BLUEVOICE_tx_handle
                            *COM*:00000030 BLUEVOICE_Char_uuids
     /tmp/ccNtBBEs.s:68     .bss:0000001a ConfigServW2STHandle
     /tmp/ccNtBBEs.s:71     .bss:0000001c ConfigCharHandle
     /tmp/ccNtBBEs.s:74     .bss:0000001e ConsoleW2STHandle
     /tmp/ccNtBBEs.s:77     .bss:00000020 TermCharHandle
     /tmp/ccNtBBEs.s:80     .bss:00000022 StdErrCharHandle
     /tmp/ccNtBBEs.s:83     .bss:00000024 LastStderrBuffer
     /tmp/ccNtBBEs.s:85     .bss:00000038 LastStderrLen
     /tmp/ccNtBBEs.s:88     .bss:0000003c LastTermBuffer
     /tmp/ccNtBBEs.s:90     .bss:00000050 LastTermLen
     /tmp/ccNtBBEs.s:95     .data:00000001 EnvironmentalCharSize
     /tmp/ccNtBBEs.s:99     .bss:00000054 SizeOfUpdateBlueFW
     /tmp/ccNtBBEs.s:102    .bss:00000058 connection_handle
     /tmp/ccNtBBEs.s:105    .bss:0000005c breath
     /tmp/ccNtBBEs.s:108    .text:00000000 $t
     /tmp/ccNtBBEs.s:114    .text:00000000 safe_aci_gatt_update_char_value
     /tmp/ccNtBBEs.s:176    .text:00000064 $d
     /tmp/ccNtBBEs.s:180    .text:00000068 $t
     /tmp/ccNtBBEs.s:186    .text:00000070 Add_ConfigW2ST_Service
     /tmp/ccNtBBEs.s:326    .text:000001a0 $d
     /tmp/ccNtBBEs.s:331    .text:000001a8 $t
     /tmp/ccNtBBEs.s:337    .text:000001b0 Add_ConsoleW2ST_Service
     /tmp/ccNtBBEs.s:540    .text:00000378 $d
     /tmp/ccNtBBEs.s:546    .text:00000384 $t
     /tmp/ccNtBBEs.s:552    .text:00000390 Stderr_Update
     /tmp/ccNtBBEs.s:643    .text:00000438 $d
     /tmp/ccNtBBEs.s:650    .text:00000448 $t
     /tmp/ccNtBBEs.s:656    .text:00000450 Term_Update
     /tmp/ccNtBBEs.s:747    .text:000004f8 $d
     /tmp/ccNtBBEs.s:754    .text:00000508 $t
     /tmp/ccNtBBEs.s:759    .text:00000510 Stderr_Update_AfterRead
     /tmp/ccNtBBEs.s:804    .text:0000054c $d
     /tmp/ccNtBBEs.s:812    .rodata:00000000 $d
     /tmp/ccNtBBEs.s:816    .text:0000055c $t
     /tmp/ccNtBBEs.s:821    .text:00000560 Term_Update_AfterRead
     /tmp/ccNtBBEs.s:901    .text:000005d8 $d
     /tmp/ccNtBBEs.s:917    .text:000005f8 $t
     /tmp/ccNtBBEs.s:923    .text:00000600 Quat_Update
     /tmp/ccNtBBEs.s:1117   .text:00000774 $d
     /tmp/ccNtBBEs.s:1131   .text:0000078c $t
ARM GAS  /tmp/ccNtBBEs.s 			page 289


     /tmp/ccNtBBEs.s:1137   .text:00000790 ECompass_Update
     /tmp/ccNtBBEs.s:1237   .text:0000083c $d
     /tmp/ccNtBBEs.s:1251   .text:00000854 $t
     /tmp/ccNtBBEs.s:1257   .text:00000860 ActivityRec_Update
     /tmp/ccNtBBEs.s:1360   .text:0000090c $d
     /tmp/ccNtBBEs.s:1374   .text:00000924 $t
     /tmp/ccNtBBEs.s:1380   .text:00000930 CarryPosRec_Update
     /tmp/ccNtBBEs.s:1483   .text:000009dc $d
     /tmp/ccNtBBEs.s:1497   .text:000009f4 $t
     /tmp/ccNtBBEs.s:1503   .text:00000a00 GestureRec_Update
     /tmp/ccNtBBEs.s:1606   .text:00000aac $d
     /tmp/ccNtBBEs.s:1620   .text:00000ac4 $t
     /tmp/ccNtBBEs.s:1626   .text:00000ad0 Config_Notify
     /tmp/ccNtBBEs.s:1751   .text:00000bb0 $d
     /tmp/ccNtBBEs.s:1765   .text:00000bc8 $t
     /tmp/ccNtBBEs.s:1771   .text:00000bd0 AccEvent_Notify
     /tmp/ccNtBBEs.s:1882   .text:00000c90 $d
     /tmp/ccNtBBEs.s:1891   .text:00000ca8 $t
     /tmp/ccNtBBEs.s:1897   .text:00000cb0 Add_HW_SW_ServW2ST_Service
     /tmp/ccNtBBEs.s:2209   .text:00000f60 $d
     /tmp/ccNtBBEs.s:2216   .text:00000f74 $t
     /tmp/ccNtBBEs.s:2542   .text:00001288 $d
     /tmp/ccNtBBEs.s:2551   .text:000012a4 $t
     /tmp/ccNtBBEs.s:2871   .text:000015a8 $d
     /tmp/ccNtBBEs.s:2886   .text:000015c4 $t
     /tmp/ccNtBBEs.s:2892   .text:000015d0 AccGyroMag_Update
     /tmp/ccNtBBEs.s:3133   .text:00001798 $d
     /tmp/ccNtBBEs.s:3149   .text:000017b8 $t
     /tmp/ccNtBBEs.s:3155   .text:000017c0 Environmental_Update
     /tmp/ccNtBBEs.s:3401   .text:000019a4 $d
     /tmp/ccNtBBEs.s:3417   .text:000019c4 $t
     /tmp/ccNtBBEs.s:3423   .text:000019d0 AudioLevel_Update
     /tmp/ccNtBBEs.s:3539   .text:00001a98 $d
     /tmp/ccNtBBEs.s:3553   .text:00001ab0 $t
     /tmp/ccNtBBEs.s:3559   .text:00001ab0 GG_Update
     /tmp/ccNtBBEs.s:3758   .text:00001c08 $d
     /tmp/ccNtBBEs.s:8813   .bss:00000060 PreVoltage.18743
     /tmp/ccNtBBEs.s:8819   .data:00000004 Status.18744
     /tmp/ccNtBBEs.s:3810   .text:00001c2c $t
     /tmp/ccNtBBEs.s:3816   .text:00001c30 setConnectable
     /tmp/ccNtBBEs.s:4046   .text:00001de0 $d
     /tmp/ccNtBBEs.s:4053   .text:00001df0 $t
     /tmp/ccNtBBEs.s:4058   .text:00001df0 GAP_ConnectionComplete_CB
     /tmp/ccNtBBEs.s:4133   .text:00001e58 $d
     /tmp/ccNtBBEs.s:4142   .text:00001e70 $t
     /tmp/ccNtBBEs.s:4147   .text:00001e70 GAP_DisconnectionComplete_CB
     /tmp/ccNtBBEs.s:4252   .text:00001f0c $d
     /tmp/ccNtBBEs.s:4269   .text:00001f34 $t
     /tmp/ccNtBBEs.s:4275   .text:00001f40 Read_Request_CB
     /tmp/ccNtBBEs.s:4598   .text:000021d4 $d
     /tmp/ccNtBBEs.s:4604   .text:000021e4 $t
     /tmp/ccNtBBEs.s:4731   .text:000022c4 $d
     /tmp/ccNtBBEs.s:4809   .text:000022f8 $t
     /tmp/ccNtBBEs.s:4815   .text:00002300 Attribute_Modified_CB
     /tmp/ccNtBBEs.s:5181   .text:00002578 $d
     /tmp/ccNtBBEs.s:5197   .text:000025b0 $t
     /tmp/ccNtBBEs.s:5538   .text:00002808 $d
ARM GAS  /tmp/ccNtBBEs.s 			page 290


     /tmp/ccNtBBEs.s:5554   .text:00002840 $t
     /tmp/ccNtBBEs.s:5910   .text:00002ab0 $d
     /tmp/ccNtBBEs.s:5931   .text:00002afc $t
     /tmp/ccNtBBEs.s:6418   .text:00002e00 DebugConsoleCommandParsing
     /tmp/ccNtBBEs.s:7839   .text:00003820 ConfigCommandParsing
     /tmp/ccNtBBEs.s:6266   .text:00002d5c $d
     /tmp/ccNtBBEs.s:6286   .text:00002da4 $t
     /tmp/ccNtBBEs.s:6325   .text:00002de8 $d
     /tmp/ccNtBBEs.s:6413   .text:00002df8 $t
     /tmp/ccNtBBEs.s:6635   .text:00002f74 $d
     /tmp/ccNtBBEs.s:8823   .bss:00000064 osxLicenseStart.18793
     /tmp/ccNtBBEs.s:6649   .text:00002fa4 $t
     /tmp/ccNtBBEs.s:6985   .text:000031e8 $d
     /tmp/ccNtBBEs.s:7003   .text:00003228 $t
     /tmp/ccNtBBEs.s:7371   .text:000034c0 $d
     /tmp/ccNtBBEs.s:7386   .text:000034f4 $t
     /tmp/ccNtBBEs.s:7426   .text:00003540 $d
     /tmp/ccNtBBEs.s:7434   .text:00003560 $t
     /tmp/ccNtBBEs.s:7582   .text:0000365c $d
     /tmp/ccNtBBEs.s:7592   .text:00003684 $t
     /tmp/ccNtBBEs.s:7664   .text:000036f8 $d
     /tmp/ccNtBBEs.s:7674   .text:00003720 $t
     /tmp/ccNtBBEs.s:7746   .text:00003794 $d
     /tmp/ccNtBBEs.s:7756   .text:000037bc $t
     /tmp/ccNtBBEs.s:7801   .text:000037f8 $d
     /tmp/ccNtBBEs.s:7834   .text:00003820 $t
     /tmp/ccNtBBEs.s:8087   .text:000039fc $d
     /tmp/ccNtBBEs.s:8107   .text:00003a4c $t
     /tmp/ccNtBBEs.s:8314   .text:00003bcc $d
     /tmp/ccNtBBEs.s:8325   .text:00003bf0 $t
     /tmp/ccNtBBEs.s:8620   .text:00003e08 $d
     /tmp/ccNtBBEs.s:8630   .text:00003e24 $t
     /tmp/ccNtBBEs.s:8636   .text:00003e30 HCI_Event_CB
     /tmp/ccNtBBEs.s:8807   .text:00003f14 $d
     /tmp/ccNtBBEs.s:8816   .data:00000002 $d
                     .debug_frame:00000010 $d
     /tmp/ccNtBBEs.s:8859   .text:00003f18 $t

UNDEFINED SYMBOLS
aci_gatt_update_char_value
aci_gatt_add_serv
aci_gatt_add_char
memcpy
HAL_Delay
ConnectionBleStatus
BufferToWrite
BytesToWrite
HAL_GetTick
TargetBoardFeatures
magOffset
BSP_GG_Task
BSP_GG_GetVoltage
BSP_GG_GetCurrent
BSP_GG_GetSOC
hci_le_set_scan_resp_data
aci_gap_set_discoverable
aci_gap_update_adv_data
ARM GAS  /tmp/ccNtBBEs.s 			page 291


bdaddr
DisableHWFeatures
aci_l2cap_connection_parameter_update_request
ForceReCalibration
FirstConnectionConfig
HAL_TIM_OC_Stop_IT
Error_Handler
HAL_TIM_Base_Stop_IT
TimCCHandle
TimEnvHandle
TimAudioDataHandle
__aeabi_f2iz
__aeabi_i2f
__aeabi_fsub
__aeabi_fmul
BSP_PRESSURE_IsInitialized
BSP_PRESSURE_Get_Press
BSP_HUMIDITY_IsInitialized
BSP_HUMIDITY_Get_Hum
BSP_TEMPERATURE_IsInitialized
BSP_TEMPERATURE_Get_Temp
GetStepHWPedometer
aci_gatt_allow_read
HWAdvanceFeaturesStatus
ActivityCode
CarryPositionCode
GestureRecognitionCode
HAL_TIM_OC_Start_IT
sprintf
InitMics
LedOffTargetPlatform
DeInitMics
Set4GAccelerometerFullScale
Set2GAccelerometerFullScale
HAL_TIM_Base_Start_IT
uhCCR4_Val
UpdateFWBlueMS
HAL_NVIC_SystemReset
RMS_Ch
DBNOISE_Value_Old_Ch
ResetHWPedometer
strncmp
HAL_GetHalVersion
atoi
StartUpdateFWBlueMS
getBlueNRGVersion
MetaDataLicenseStatus
EraseMetaDataManager
MDM_LicenseParsing
known_OsxLic
MDM_LicTable
MotionFX_License_init
MotionAR_License_init
MotionCP_License_init
MotionGR_License_init
AudioBV_License_init
osx_mfx_license
ARM GAS  /tmp/ccNtBBEs.s 			page 292


osx_mar_license
osx_mcp_license
osx_mgr_license
osx_bv_license
EnableHWFreeFall
DisableHWFreeFall
EnableHWDoubleTap
DisableHWDoubleTap
EnableHWSingleTap
DisableHWSingleTap
EnableHWPedometer
DisableHWPedometer
EnableHWWakeUp
DisableHWWakeUp
EnableHWTilt
DisableHWTilt
EnableHWOrientation6D
DisableHWOrientation6D
