ARM GAS  /tmp/ccGf2LCS.s 			page 1


   1              		.syntax unified
   2              		.cpu cortex-m4
   3              		.fpu softvfp
   4              		.eabi_attribute 20, 1
   5              		.eabi_attribute 21, 1
   6              		.eabi_attribute 23, 3
   7              		.eabi_attribute 24, 1
   8              		.eabi_attribute 25, 1
   9              		.eabi_attribute 26, 1
  10              		.eabi_attribute 30, 6
  11              		.eabi_attribute 34, 1
  12              		.eabi_attribute 18, 4
  13              		.thumb
  14              		.file	"SensorTile_audio_in.c"
  15              		.text
  16              	.Ltext0:
  17              		.cfi_sections	.debug_frame
  18              		.bss
  19              		.align	2
  20              	SENSORTILE_AudioIn_Handler:
  21 0000 00000000 		.space	60
  21      00000000 
  21      00000000 
  21      00000000 
  21      00000000 
  22              		.comm	haudio_in_dfsdmchannel,224,4
  23              		.comm	haudio_in_dfsdmfilter,336,4
  24              		.comm	hdma_dfsdmReg_FLT,288,4
  25              		.comm	RecBuff,3072,4
  26              		.data
  27              		.align	1
  28              		.type	AudioInVolume, %object
  29              		.size	AudioInVolume, 2
  30              	AudioInVolume:
  31 0000 4000     		.short	64
  32              		.text
  33              		.align	2
  34              		.p2align 4,,15
  35              		.global	BSP_AUDIO_IN_Init
  36              		.thumb
  37              		.thumb_func
  38              		.type	BSP_AUDIO_IN_Init, %function
  39              	BSP_AUDIO_IN_Init:
  40              	.LFB125:
  41              		.file 1 "../../../../../Drivers/BSP/SensorTile/SensorTile_audio_in.c"
  42              		.loc 1 147 0
  43              		.cfi_startproc
  44              		@ args = 0, pretend = 0, frame = 16
  45              		@ frame_needed = 0, uses_anonymous_args = 0
  46 0000 00B5     		push	{lr}
  47              		.cfi_def_cfa_offset 4
  48              		.cfi_offset 14, -4
  49 0002 85B0     		sub	sp, sp, #20
  50              		.cfi_def_cfa_offset 24
  51 0004 0390     		str	r0, [sp, #12]
  52 0006 0291     		str	r1, [sp, #8]
  53 0008 0192     		str	r2, [sp, #4]
ARM GAS  /tmp/ccGf2LCS.s 			page 2


  54              		.loc 1 150 0
  55 000a 0A4B     		ldr	r3, .L3
  56 000c 019A     		ldr	r2, [sp, #4]
  57 000e 1A60     		str	r2, [r3]
  58              		.loc 1 151 0
  59 0010 084B     		ldr	r3, .L3
  60 0012 039A     		ldr	r2, [sp, #12]
  61 0014 5A60     		str	r2, [r3, #4]
  62              		.loc 1 154 0
  63 0016 074B     		ldr	r3, .L3
  64 0018 5B68     		ldr	r3, [r3, #4]
  65 001a 1846     		mov	r0, r3
  66 001c 0021     		movs	r1, #0
  67 001e FFF7FEFF 		bl	BSP_AUDIO_IN_ClockConfig
  68              		.loc 1 157 0
  69 0022 0398     		ldr	r0, [sp, #12]
  70 0024 0199     		ldr	r1, [sp, #4]
  71 0026 00F023F9 		bl	DFSDMx_Init
  72 002a 0346     		mov	r3, r0
  73              		.loc 1 158 0
  74 002c 1846     		mov	r0, r3
  75 002e 05B0     		add	sp, sp, #20
  76              		@ sp needed
  77 0030 5DF804FB 		ldr	pc, [sp], #4
  78              	.L4:
  79              		.align	2
  80              	.L3:
  81 0034 00000000 		.word	SENSORTILE_AudioIn_Handler
  82              		.cfi_endproc
  83              	.LFE125:
  84              		.size	BSP_AUDIO_IN_Init, .-BSP_AUDIO_IN_Init
  85              		.align	2
  86 0038 AFF30080 		.p2align 4,,15
  86      AFF30080 
  87              		.global	BSP_AUDIO_IN_DeInit
  88              		.thumb
  89              		.thumb_func
  90              		.type	BSP_AUDIO_IN_DeInit, %function
  91              	BSP_AUDIO_IN_DeInit:
  92              	.LFB126:
  93              		.loc 1 165 0
  94              		.cfi_startproc
  95              		@ args = 0, pretend = 0, frame = 0
  96              		@ frame_needed = 0, uses_anonymous_args = 0
  97 0040 08B5     		push	{r3, lr}
  98              		.cfi_def_cfa_offset 8
  99              		.cfi_offset 3, -8
 100              		.cfi_offset 14, -4
 101              		.loc 1 166 0
 102 0042 00F07DFF 		bl	DFSDMx_DeInit
 103 0046 0346     		mov	r3, r0
 104              		.loc 1 167 0
 105 0048 1846     		mov	r0, r3
 106 004a 08BD     		pop	{r3, pc}
 107              		.cfi_endproc
 108              	.LFE126:
 109              		.size	BSP_AUDIO_IN_DeInit, .-BSP_AUDIO_IN_DeInit
ARM GAS  /tmp/ccGf2LCS.s 			page 3


 110              		.align	2
 111 004c AFF30080 		.p2align 4,,15
 112              		.weak	BSP_AUDIO_IN_ClockConfig
 113              		.thumb
 114              		.thumb_func
 115              		.type	BSP_AUDIO_IN_ClockConfig, %function
 116              	BSP_AUDIO_IN_ClockConfig:
 117              	.LFB127:
 118              		.loc 1 179 0
 119              		.cfi_startproc
 120              		@ args = 0, pretend = 0, frame = 144
 121              		@ frame_needed = 0, uses_anonymous_args = 0
 122 0050 00B5     		push	{lr}
 123              		.cfi_def_cfa_offset 4
 124              		.cfi_offset 14, -4
 125 0052 A5B0     		sub	sp, sp, #148
 126              		.cfi_def_cfa_offset 152
 127 0054 0190     		str	r0, [sp, #4]
 128 0056 0091     		str	r1, [sp]
 129              		.loc 1 181 0
 130 0058 2B23     		movs	r3, #43
 131 005a 0593     		str	r3, [sp, #20]
 132              		.loc 1 182 0
 133 005c 0723     		movs	r3, #7
 134 005e 0693     		str	r3, [sp, #24]
 135              		.loc 1 187 0
 136 0060 4FF40063 		mov	r3, #2048
 137 0064 0293     		str	r3, [sp, #8]
 138              		.loc 1 188 0
 139 0066 4FF48033 		mov	r3, #65536
 140 006a 0993     		str	r3, [sp, #36]
 141              		.loc 1 189 0
 142 006c 0023     		movs	r3, #0
 143 006e 1B93     		str	r3, [sp, #108]
 144              		.loc 1 190 0
 145 0070 0123     		movs	r3, #1
 146 0072 0393     		str	r3, [sp, #12]
 147              		.loc 1 191 0
 148 0074 0623     		movs	r3, #6
 149 0076 0493     		str	r3, [sp, #16]
 150              		.loc 1 193 0
 151 0078 02AB     		add	r3, sp, #8
 152 007a 1846     		mov	r0, r3
 153 007c FFF7FEFF 		bl	HAL_RCCEx_PeriphCLKConfig
 154 0080 0346     		mov	r3, r0
 155 0082 002B     		cmp	r3, #0
 156 0084 01D0     		beq	.L8
 157              		.loc 1 195 0
 158 0086 0123     		movs	r3, #1
 159 0088 00E0     		b	.L10
 160              	.L8:
 161              		.loc 1 198 0
 162 008a 0023     		movs	r3, #0
 163              	.L10:
 164              		.loc 1 199 0
 165 008c 1846     		mov	r0, r3
 166 008e 25B0     		add	sp, sp, #148
ARM GAS  /tmp/ccGf2LCS.s 			page 4


 167              		@ sp needed
 168 0090 5DF804FB 		ldr	pc, [sp], #4
 169              		.cfi_endproc
 170              	.LFE127:
 171              		.size	BSP_AUDIO_IN_ClockConfig, .-BSP_AUDIO_IN_ClockConfig
 172              		.align	2
 173 0094 AFF30080 		.p2align 4,,15
 173      AFF30080 
 173      AFF30080 
 174              		.global	BSP_AUDIO_IN_Record
 175              		.thumb
 176              		.thumb_func
 177              		.type	BSP_AUDIO_IN_Record, %function
 178              	BSP_AUDIO_IN_Record:
 179              	.LFB128:
 180              		.loc 1 210 0
 181              		.cfi_startproc
 182              		@ args = 0, pretend = 0, frame = 16
 183              		@ frame_needed = 0, uses_anonymous_args = 0
 184 00a0 00B5     		push	{lr}
 185              		.cfi_def_cfa_offset 4
 186              		.cfi_offset 14, -4
 187 00a2 85B0     		sub	sp, sp, #20
 188              		.cfi_def_cfa_offset 24
 189 00a4 0190     		str	r0, [sp, #4]
 190 00a6 0091     		str	r1, [sp]
 191              		.loc 1 211 0
 192 00a8 0023     		movs	r3, #0
 193 00aa 0393     		str	r3, [sp, #12]
 194              		.loc 1 212 0
 195 00ac 184B     		ldr	r3, .L16
 196 00ae 019A     		ldr	r2, [sp, #4]
 197 00b0 9A63     		str	r2, [r3, #56]
 198              		.loc 1 214 0
 199 00b2 174B     		ldr	r3, .L16
 200 00b4 1B68     		ldr	r3, [r3]
 201 00b6 0393     		str	r3, [sp, #12]
 202 00b8 22E0     		b	.L12
 203              	.L15:
 204              		.loc 1 216 0
 205 00ba 039B     		ldr	r3, [sp, #12]
 206 00bc 013B     		subs	r3, r3, #1
 207 00be 5422     		movs	r2, #84
 208 00c0 02FB03F2 		mul	r2, r2, r3
 209 00c4 134B     		ldr	r3, .L16+4
 210 00c6 D118     		adds	r1, r2, r3
 211              		.loc 1 217 0
 212 00c8 039B     		ldr	r3, [sp, #12]
 213 00ca 5A1E     		subs	r2, r3, #1
 214 00cc 1346     		mov	r3, r2
 215 00ce 5B00     		lsls	r3, r3, #1
 216 00d0 1344     		add	r3, r3, r2
 217 00d2 1B02     		lsls	r3, r3, #8
 218 00d4 104A     		ldr	r2, .L16+8
 219 00d6 1A44     		add	r2, r2, r3
 220              		.loc 1 218 0
 221 00d8 0D4B     		ldr	r3, .L16
ARM GAS  /tmp/ccGf2LCS.s 			page 5


 222 00da 5868     		ldr	r0, [r3, #4]
 223 00dc 0F4B     		ldr	r3, .L16+12
 224 00de A3FB00C3 		umull	ip, r3, r3, r0
 225 00e2 9B09     		lsrs	r3, r3, #6
 226              		.loc 1 216 0
 227 00e4 5B00     		lsls	r3, r3, #1
 228 00e6 0846     		mov	r0, r1
 229 00e8 1146     		mov	r1, r2
 230 00ea 1A46     		mov	r2, r3
 231 00ec FFF7FEFF 		bl	HAL_DFSDM_FilterRegularStart_DMA
 232 00f0 0346     		mov	r3, r0
 233 00f2 002B     		cmp	r3, #0
 234 00f4 01D0     		beq	.L13
 235              		.loc 1 220 0
 236 00f6 0123     		movs	r3, #1
 237 00f8 06E0     		b	.L14
 238              	.L13:
 239              		.loc 1 214 0
 240 00fa 039B     		ldr	r3, [sp, #12]
 241 00fc 013B     		subs	r3, r3, #1
 242 00fe 0393     		str	r3, [sp, #12]
 243              	.L12:
 244              		.loc 1 214 0 is_stmt 0 discriminator 1
 245 0100 039B     		ldr	r3, [sp, #12]
 246 0102 002B     		cmp	r3, #0
 247 0104 D9DC     		bgt	.L15
 248              		.loc 1 223 0 is_stmt 1
 249 0106 0023     		movs	r3, #0
 250              	.L14:
 251              		.loc 1 224 0
 252 0108 1846     		mov	r0, r3
 253 010a 05B0     		add	sp, sp, #20
 254              		@ sp needed
 255 010c 5DF804FB 		ldr	pc, [sp], #4
 256              	.L17:
 257              		.align	2
 258              	.L16:
 259 0110 00000000 		.word	SENSORTILE_AudioIn_Handler
 260 0114 00000000 		.word	haudio_in_dfsdmfilter
 261 0118 00000000 		.word	RecBuff
 262 011c D34D6210 		.word	274877907
 263              		.cfi_endproc
 264              	.LFE128:
 265              		.size	BSP_AUDIO_IN_Record, .-BSP_AUDIO_IN_Record
 266              		.align	2
 267              		.p2align 4,,15
 268              		.global	BSP_AUDIO_IN_Stop
 269              		.thumb
 270              		.thumb_func
 271              		.type	BSP_AUDIO_IN_Stop, %function
 272              	BSP_AUDIO_IN_Stop:
 273              	.LFB129:
 274              		.loc 1 232 0
 275              		.cfi_startproc
 276              		@ args = 0, pretend = 0, frame = 8
 277              		@ frame_needed = 0, uses_anonymous_args = 0
 278 0120 00B5     		push	{lr}
ARM GAS  /tmp/ccGf2LCS.s 			page 6


 279              		.cfi_def_cfa_offset 4
 280              		.cfi_offset 14, -4
 281 0122 83B0     		sub	sp, sp, #12
 282              		.cfi_def_cfa_offset 16
 283              		.loc 1 233 0
 284 0124 0023     		movs	r3, #0
 285 0126 0193     		str	r3, [sp, #4]
 286              		.loc 1 234 0
 287 0128 0E4B     		ldr	r3, .L23
 288 012a 1B68     		ldr	r3, [r3]
 289 012c 0193     		str	r3, [sp, #4]
 290 012e 11E0     		b	.L19
 291              	.L22:
 292              		.loc 1 236 0
 293 0130 019B     		ldr	r3, [sp, #4]
 294 0132 013B     		subs	r3, r3, #1
 295 0134 5422     		movs	r2, #84
 296 0136 02FB03F2 		mul	r2, r2, r3
 297 013a 0B4B     		ldr	r3, .L23+4
 298 013c 1344     		add	r3, r3, r2
 299 013e 1846     		mov	r0, r3
 300 0140 FFF7FEFF 		bl	HAL_DFSDM_FilterRegularStop_DMA
 301 0144 0346     		mov	r3, r0
 302 0146 002B     		cmp	r3, #0
 303 0148 01D0     		beq	.L20
 304              		.loc 1 238 0
 305 014a 0123     		movs	r3, #1
 306 014c 06E0     		b	.L21
 307              	.L20:
 308              		.loc 1 234 0
 309 014e 019B     		ldr	r3, [sp, #4]
 310 0150 013B     		subs	r3, r3, #1
 311 0152 0193     		str	r3, [sp, #4]
 312              	.L19:
 313              		.loc 1 234 0 is_stmt 0 discriminator 1
 314 0154 019B     		ldr	r3, [sp, #4]
 315 0156 002B     		cmp	r3, #0
 316 0158 EADC     		bgt	.L22
 317              		.loc 1 242 0 is_stmt 1
 318 015a 0023     		movs	r3, #0
 319              	.L21:
 320              		.loc 1 243 0
 321 015c 1846     		mov	r0, r3
 322 015e 03B0     		add	sp, sp, #12
 323              		@ sp needed
 324 0160 5DF804FB 		ldr	pc, [sp], #4
 325              	.L24:
 326              		.align	2
 327              	.L23:
 328 0164 00000000 		.word	SENSORTILE_AudioIn_Handler
 329 0168 00000000 		.word	haudio_in_dfsdmfilter
 330              		.cfi_endproc
 331              	.LFE129:
 332              		.size	BSP_AUDIO_IN_Stop, .-BSP_AUDIO_IN_Stop
 333              		.align	2
 334 016c AFF30080 		.p2align 4,,15
 335              		.global	BSP_AUDIO_IN_Pause
ARM GAS  /tmp/ccGf2LCS.s 			page 7


 336              		.thumb
 337              		.thumb_func
 338              		.type	BSP_AUDIO_IN_Pause, %function
 339              	BSP_AUDIO_IN_Pause:
 340              	.LFB130:
 341              		.loc 1 252 0
 342              		.cfi_startproc
 343              		@ args = 0, pretend = 0, frame = 8
 344              		@ frame_needed = 0, uses_anonymous_args = 0
 345 0170 00B5     		push	{lr}
 346              		.cfi_def_cfa_offset 4
 347              		.cfi_offset 14, -4
 348 0172 83B0     		sub	sp, sp, #12
 349              		.cfi_def_cfa_offset 16
 350              		.loc 1 253 0
 351 0174 0023     		movs	r3, #0
 352 0176 0193     		str	r3, [sp, #4]
 353              		.loc 1 254 0
 354 0178 0E4B     		ldr	r3, .L30
 355 017a 1B68     		ldr	r3, [r3]
 356 017c 0193     		str	r3, [sp, #4]
 357 017e 11E0     		b	.L26
 358              	.L29:
 359              		.loc 1 256 0
 360 0180 019B     		ldr	r3, [sp, #4]
 361 0182 013B     		subs	r3, r3, #1
 362 0184 5422     		movs	r2, #84
 363 0186 02FB03F2 		mul	r2, r2, r3
 364 018a 0B4B     		ldr	r3, .L30+4
 365 018c 1344     		add	r3, r3, r2
 366 018e 1846     		mov	r0, r3
 367 0190 FFF7FEFF 		bl	HAL_DFSDM_FilterRegularStop_DMA
 368 0194 0346     		mov	r3, r0
 369 0196 002B     		cmp	r3, #0
 370 0198 01D0     		beq	.L27
 371              		.loc 1 258 0
 372 019a 0123     		movs	r3, #1
 373 019c 06E0     		b	.L28
 374              	.L27:
 375              		.loc 1 254 0
 376 019e 019B     		ldr	r3, [sp, #4]
 377 01a0 013B     		subs	r3, r3, #1
 378 01a2 0193     		str	r3, [sp, #4]
 379              	.L26:
 380              		.loc 1 254 0 is_stmt 0 discriminator 1
 381 01a4 019B     		ldr	r3, [sp, #4]
 382 01a6 002B     		cmp	r3, #0
 383 01a8 EADC     		bgt	.L29
 384              		.loc 1 262 0 is_stmt 1
 385 01aa 0023     		movs	r3, #0
 386              	.L28:
 387              		.loc 1 263 0
 388 01ac 1846     		mov	r0, r3
 389 01ae 03B0     		add	sp, sp, #12
 390              		@ sp needed
 391 01b0 5DF804FB 		ldr	pc, [sp], #4
 392              	.L31:
ARM GAS  /tmp/ccGf2LCS.s 			page 8


 393              		.align	2
 394              	.L30:
 395 01b4 00000000 		.word	SENSORTILE_AudioIn_Handler
 396 01b8 00000000 		.word	haudio_in_dfsdmfilter
 397              		.cfi_endproc
 398              	.LFE130:
 399              		.size	BSP_AUDIO_IN_Pause, .-BSP_AUDIO_IN_Pause
 400              		.align	2
 401 01bc AFF30080 		.p2align 4,,15
 402              		.global	BSP_AUDIO_IN_Resume
 403              		.thumb
 404              		.thumb_func
 405              		.type	BSP_AUDIO_IN_Resume, %function
 406              	BSP_AUDIO_IN_Resume:
 407              	.LFB131:
 408              		.loc 1 271 0
 409              		.cfi_startproc
 410              		@ args = 0, pretend = 0, frame = 8
 411              		@ frame_needed = 0, uses_anonymous_args = 0
 412 01c0 00B5     		push	{lr}
 413              		.cfi_def_cfa_offset 4
 414              		.cfi_offset 14, -4
 415 01c2 83B0     		sub	sp, sp, #12
 416              		.cfi_def_cfa_offset 16
 417              		.loc 1 272 0
 418 01c4 0023     		movs	r3, #0
 419 01c6 0193     		str	r3, [sp, #4]
 420              		.loc 1 273 0
 421 01c8 174B     		ldr	r3, .L37
 422 01ca 1B68     		ldr	r3, [r3]
 423 01cc 0193     		str	r3, [sp, #4]
 424 01ce 22E0     		b	.L33
 425              	.L36:
 426              		.loc 1 275 0
 427 01d0 019B     		ldr	r3, [sp, #4]
 428 01d2 013B     		subs	r3, r3, #1
 429 01d4 5422     		movs	r2, #84
 430 01d6 02FB03F2 		mul	r2, r2, r3
 431 01da 144B     		ldr	r3, .L37+4
 432 01dc D118     		adds	r1, r2, r3
 433              		.loc 1 276 0
 434 01de 019B     		ldr	r3, [sp, #4]
 435 01e0 5A1E     		subs	r2, r3, #1
 436 01e2 1346     		mov	r3, r2
 437 01e4 5B00     		lsls	r3, r3, #1
 438 01e6 1344     		add	r3, r3, r2
 439 01e8 1B02     		lsls	r3, r3, #8
 440 01ea 114A     		ldr	r2, .L37+8
 441 01ec 1A44     		add	r2, r2, r3
 442              		.loc 1 277 0
 443 01ee 0E4B     		ldr	r3, .L37
 444 01f0 5868     		ldr	r0, [r3, #4]
 445 01f2 104B     		ldr	r3, .L37+12
 446 01f4 A3FB00C3 		umull	ip, r3, r3, r0
 447 01f8 9B09     		lsrs	r3, r3, #6
 448              		.loc 1 275 0
 449 01fa 5B00     		lsls	r3, r3, #1
ARM GAS  /tmp/ccGf2LCS.s 			page 9


 450 01fc 0846     		mov	r0, r1
 451 01fe 1146     		mov	r1, r2
 452 0200 1A46     		mov	r2, r3
 453 0202 FFF7FEFF 		bl	HAL_DFSDM_FilterRegularStart_DMA
 454 0206 0346     		mov	r3, r0
 455 0208 002B     		cmp	r3, #0
 456 020a 01D0     		beq	.L34
 457              		.loc 1 279 0
 458 020c 0123     		movs	r3, #1
 459 020e 06E0     		b	.L35
 460              	.L34:
 461              		.loc 1 273 0
 462 0210 019B     		ldr	r3, [sp, #4]
 463 0212 013B     		subs	r3, r3, #1
 464 0214 0193     		str	r3, [sp, #4]
 465              	.L33:
 466              		.loc 1 273 0 is_stmt 0 discriminator 1
 467 0216 019B     		ldr	r3, [sp, #4]
 468 0218 002B     		cmp	r3, #0
 469 021a D9DC     		bgt	.L36
 470              		.loc 1 282 0 is_stmt 1
 471 021c 0023     		movs	r3, #0
 472              	.L35:
 473              		.loc 1 283 0
 474 021e 1846     		mov	r0, r3
 475 0220 03B0     		add	sp, sp, #12
 476              		@ sp needed
 477 0222 5DF804FB 		ldr	pc, [sp], #4
 478              	.L38:
 479 0226 00BF     		.align	2
 480              	.L37:
 481 0228 00000000 		.word	SENSORTILE_AudioIn_Handler
 482 022c 00000000 		.word	haudio_in_dfsdmfilter
 483 0230 00000000 		.word	RecBuff
 484 0234 D34D6210 		.word	274877907
 485              		.cfi_endproc
 486              	.LFE131:
 487              		.size	BSP_AUDIO_IN_Resume, .-BSP_AUDIO_IN_Resume
 488              		.align	2
 489 0238 AFF30080 		.p2align 4,,15
 489      AFF30080 
 490              		.global	BSP_AUDIO_IN_SetVolume
 491              		.thumb
 492              		.thumb_func
 493              		.type	BSP_AUDIO_IN_SetVolume, %function
 494              	BSP_AUDIO_IN_SetVolume:
 495              	.LFB132:
 496              		.loc 1 296 0
 497              		.cfi_startproc
 498              		@ args = 0, pretend = 0, frame = 8
 499              		@ frame_needed = 0, uses_anonymous_args = 0
 500              		@ link register save eliminated.
 501 0240 82B0     		sub	sp, sp, #8
 502              		.cfi_def_cfa_offset 8
 503 0242 0346     		mov	r3, r0
 504 0244 8DF80730 		strb	r3, [sp, #7]
 505              		.loc 1 297 0
ARM GAS  /tmp/ccGf2LCS.s 			page 10


 506 0248 9DF80730 		ldrb	r3, [sp, #7]	@ zero_extendqisi2
 507 024c 9AB2     		uxth	r2, r3
 508 024e 034B     		ldr	r3, .L41
 509 0250 1A80     		strh	r2, [r3]	@ movhi
 510              		.loc 1 298 0
 511 0252 0023     		movs	r3, #0
 512              		.loc 1 299 0
 513 0254 1846     		mov	r0, r3
 514 0256 02B0     		add	sp, sp, #8
 515              		@ sp needed
 516 0258 7047     		bx	lr
 517              	.L42:
 518 025a 00BF     		.align	2
 519              	.L41:
 520 025c 00000000 		.word	AudioInVolume
 521              		.cfi_endproc
 522              	.LFE132:
 523              		.size	BSP_AUDIO_IN_SetVolume, .-BSP_AUDIO_IN_SetVolume
 524              		.align	2
 525              		.p2align 4,,15
 526              		.weak	BSP_AUDIO_IN_Error_Callback
 527              		.thumb
 528              		.thumb_func
 529              		.type	BSP_AUDIO_IN_Error_Callback, %function
 530              	BSP_AUDIO_IN_Error_Callback:
 531              	.LFB133:
 532              		.loc 1 307 0
 533              		.cfi_startproc
 534              		@ args = 0, pretend = 0, frame = 0
 535              		@ frame_needed = 0, uses_anonymous_args = 0
 536              		@ link register save eliminated.
 537              		.loc 1 310 0
 538 0260 7047     		bx	lr
 539              		.cfi_endproc
 540              	.LFE133:
 541              		.size	BSP_AUDIO_IN_Error_Callback, .-BSP_AUDIO_IN_Error_Callback
 542 0262 00BF     		.align	2
 543 0264 AFF30080 		.p2align 4,,15
 543      AFF30080 
 543      AFF30080 
 544              		.thumb
 545              		.thumb_func
 546              		.type	DFSDMx_Init, %function
 547              	DFSDMx_Init:
 548              	.LFB134:
 549              		.loc 1 326 0
 550              		.cfi_startproc
 551              		@ args = 0, pretend = 0, frame = 104
 552              		@ frame_needed = 0, uses_anonymous_args = 0
 553 0270 00B5     		push	{lr}
 554              		.cfi_def_cfa_offset 4
 555              		.cfi_offset 14, -4
 556 0272 9BB0     		sub	sp, sp, #108
 557              		.cfi_def_cfa_offset 112
 558 0274 0190     		str	r0, [sp, #4]
 559 0276 0091     		str	r1, [sp]
 560              		.loc 1 327 0
ARM GAS  /tmp/ccGf2LCS.s 			page 11


 561 0278 0023     		movs	r3, #0
 562 027a ADF86630 		strh	r3, [sp, #102]	@ movhi
 563              		.loc 1 328 0
 564 027e 0023     		movs	r3, #0
 565 0280 1893     		str	r3, [sp, #96]
 566              		.loc 1 329 0
 567 0282 019B     		ldr	r3, [sp, #4]
 568 0284 B3F5FA5F 		cmp	r3, #8000
 569 0288 22D0     		beq	.L45
 570              		.loc 1 329 0 is_stmt 0 discriminator 1
 571 028a 019A     		ldr	r2, [sp, #4]
 572 028c 42F61133 		movw	r3, #11025
 573 0290 9A42     		cmp	r2, r3
 574 0292 1DD0     		beq	.L45
 575 0294 019B     		ldr	r3, [sp, #4]
 576 0296 B3F57A5F 		cmp	r3, #16000
 577 029a 19D0     		beq	.L45
 578              		.loc 1 329 0 discriminator 2
 579 029c 019A     		ldr	r2, [sp, #4]
 580 029e 45F22263 		movw	r3, #22050
 581 02a2 9A42     		cmp	r2, r3
 582 02a4 14D0     		beq	.L45
 583              		.loc 1 329 0 discriminator 3
 584 02a6 019B     		ldr	r3, [sp, #4]
 585 02a8 B3F5FA4F 		cmp	r3, #32000
 586 02ac 10D0     		beq	.L45
 587              		.loc 1 329 0 discriminator 4
 588 02ae 019A     		ldr	r2, [sp, #4]
 589 02b0 4AF64443 		movw	r3, #44100
 590 02b4 9A42     		cmp	r2, r3
 591 02b6 0BD0     		beq	.L45
 592              		.loc 1 329 0 discriminator 5
 593 02b8 019A     		ldr	r2, [sp, #4]
 594 02ba 4BF68033 		movw	r3, #48000
 595 02be 9A42     		cmp	r2, r3
 596 02c0 06D0     		beq	.L45
 597              		.loc 1 331 0 is_stmt 1
 598 02c2 0523     		movs	r3, #5
 599 02c4 ADF86630 		strh	r3, [sp, #102]	@ movhi
 600              		.loc 1 332 0
 601 02c8 4FF02043 		mov	r3, #-1610612736
 602 02cc 1893     		str	r3, [sp, #96]
 603 02ce 3EE0     		b	.L46
 604              	.L45:
 605              		.loc 1 334 0
 606 02d0 019B     		ldr	r3, [sp, #4]
 607 02d2 B3F5FA5F 		cmp	r3, #8000
 608 02d6 0DD0     		beq	.L47
 609              		.loc 1 334 0 is_stmt 0 discriminator 1
 610 02d8 019A     		ldr	r2, [sp, #4]
 611 02da 42F61133 		movw	r3, #11025
 612 02de 9A42     		cmp	r2, r3
 613 02e0 0FD0     		beq	.L48
 614 02e2 019B     		ldr	r3, [sp, #4]
 615 02e4 B3F57A5F 		cmp	r3, #16000
 616 02e8 04D0     		beq	.L47
 617              		.loc 1 334 0 discriminator 2
ARM GAS  /tmp/ccGf2LCS.s 			page 12


 618 02ea 019A     		ldr	r2, [sp, #4]
 619 02ec 45F22263 		movw	r3, #22050
 620 02f0 9A42     		cmp	r2, r3
 621 02f2 06D1     		bne	.L48
 622              	.L47:
 623              		.loc 1 336 0 is_stmt 1
 624 02f4 0823     		movs	r3, #8
 625 02f6 ADF86630 		strh	r3, [sp, #102]	@ movhi
 626              		.loc 1 337 0
 627 02fa 4FF00043 		mov	r3, #-2147483648
 628 02fe 1893     		str	r3, [sp, #96]
 629 0300 25E0     		b	.L46
 630              	.L48:
 631              		.loc 1 339 0
 632 0302 019B     		ldr	r3, [sp, #4]
 633 0304 B3F5FA5F 		cmp	r3, #8000
 634 0308 21D0     		beq	.L46
 635              		.loc 1 339 0 is_stmt 0 discriminator 1
 636 030a 019A     		ldr	r2, [sp, #4]
 637 030c 42F61133 		movw	r3, #11025
 638 0310 9A42     		cmp	r2, r3
 639 0312 1CD0     		beq	.L46
 640 0314 019B     		ldr	r3, [sp, #4]
 641 0316 B3F57A5F 		cmp	r3, #16000
 642 031a 18D0     		beq	.L46
 643              		.loc 1 339 0 discriminator 2
 644 031c 019A     		ldr	r2, [sp, #4]
 645 031e 45F22263 		movw	r3, #22050
 646 0322 9A42     		cmp	r2, r3
 647 0324 13D0     		beq	.L46
 648              		.loc 1 339 0 discriminator 3
 649 0326 019B     		ldr	r3, [sp, #4]
 650 0328 B3F5FA4F 		cmp	r3, #32000
 651 032c 09D0     		beq	.L49
 652              		.loc 1 339 0 discriminator 4
 653 032e 019A     		ldr	r2, [sp, #4]
 654 0330 4AF64443 		movw	r3, #44100
 655 0334 9A42     		cmp	r2, r3
 656 0336 04D0     		beq	.L49
 657              		.loc 1 339 0 discriminator 5
 658 0338 019A     		ldr	r2, [sp, #4]
 659 033a 4BF68033 		movw	r3, #48000
 660 033e 9A42     		cmp	r2, r3
 661 0340 05D1     		bne	.L46
 662              	.L49:
 663              		.loc 1 341 0 is_stmt 1
 664 0342 0A23     		movs	r3, #10
 665 0344 ADF86630 		strh	r3, [sp, #102]	@ movhi
 666              		.loc 1 342 0
 667 0348 4FF02043 		mov	r3, #-1610612736
 668 034c 1893     		str	r3, [sp, #96]
 669              	.L46:
 670              		.loc 1 345 0
 671 034e 009B     		ldr	r3, [sp]
 672 0350 012B     		cmp	r3, #1
 673 0352 40F01581 		bne	.L50
 674              		.loc 1 348 0
ARM GAS  /tmp/ccGf2LCS.s 			page 13


 675 0356 A34B     		ldr	r3, .L206
 676 0358 0122     		movs	r2, #1
 677 035a 1A71     		strb	r2, [r3, #4]
 678              		.loc 1 349 0
 679 035c A14B     		ldr	r3, .L206
 680 035e 4FF08042 		mov	r2, #1073741824
 681 0362 9A60     		str	r2, [r3, #8]
 682              		.loc 1 351 0
 683 0364 019B     		ldr	r3, [sp, #4]
 684 0366 B3F5FA5F 		cmp	r3, #8000
 685 036a 22D0     		beq	.L51
 686              		.loc 1 351 0 is_stmt 0 discriminator 1
 687 036c 019A     		ldr	r2, [sp, #4]
 688 036e 42F61133 		movw	r3, #11025
 689 0372 9A42     		cmp	r2, r3
 690 0374 1BD0     		beq	.L52
 691              		.loc 1 351 0 discriminator 3
 692 0376 019B     		ldr	r3, [sp, #4]
 693 0378 B3F57A5F 		cmp	r3, #16000
 694 037c 15D0     		beq	.L53
 695              		.loc 1 351 0 discriminator 5
 696 037e 019A     		ldr	r2, [sp, #4]
 697 0380 45F22263 		movw	r3, #22050
 698 0384 9A42     		cmp	r2, r3
 699 0386 0ED0     		beq	.L54
 700              		.loc 1 351 0 discriminator 7
 701 0388 019B     		ldr	r3, [sp, #4]
 702 038a B3F5FA4F 		cmp	r3, #32000
 703 038e 08D0     		beq	.L55
 704              		.loc 1 351 0 discriminator 9
 705 0390 019A     		ldr	r2, [sp, #4]
 706 0392 4AF64443 		movw	r3, #44100
 707 0396 9A42     		cmp	r2, r3
 708 0398 01D1     		bne	.L56
 709              		.loc 1 351 0 discriminator 11
 710 039a 0423     		movs	r3, #4
 711 039c 0AE0     		b	.L62
 712              	.L56:
 713              		.loc 1 351 0 discriminator 12
 714 039e 1023     		movs	r3, #16
 715 03a0 08E0     		b	.L62
 716              	.L55:
 717              		.loc 1 351 0 discriminator 10
 718 03a2 1823     		movs	r3, #24
 719 03a4 06E0     		b	.L62
 720              	.L54:
 721              		.loc 1 351 0 discriminator 8
 722 03a6 0423     		movs	r3, #4
 723 03a8 04E0     		b	.L62
 724              	.L53:
 725              		.loc 1 351 0 discriminator 6
 726 03aa 1823     		movs	r3, #24
 727 03ac 02E0     		b	.L62
 728              	.L52:
 729              		.loc 1 351 0 discriminator 4
 730 03ae 0423     		movs	r3, #4
 731 03b0 00E0     		b	.L62
ARM GAS  /tmp/ccGf2LCS.s 			page 14


 732              	.L51:
 733              		.loc 1 351 0 discriminator 2
 734 03b2 3023     		movs	r3, #48
 735              	.L62:
 736              		.loc 1 351 0 discriminator 13
 737 03b4 8B4A     		ldr	r2, .L206
 738 03b6 D360     		str	r3, [r2, #12]
 739              		.loc 1 352 0 is_stmt 1 discriminator 13
 740 03b8 8A4B     		ldr	r3, .L206
 741 03ba 0022     		movs	r2, #0
 742 03bc 1A61     		str	r2, [r3, #16]
 743              		.loc 1 353 0 discriminator 13
 744 03be 894B     		ldr	r3, .L206
 745 03c0 0022     		movs	r2, #0
 746 03c2 5A61     		str	r2, [r3, #20]
 747              		.loc 1 354 0 discriminator 13
 748 03c4 874B     		ldr	r3, .L206
 749 03c6 0022     		movs	r2, #0
 750 03c8 9A61     		str	r2, [r3, #24]
 751              		.loc 1 355 0 discriminator 13
 752 03ca 864B     		ldr	r3, .L206
 753 03cc 0022     		movs	r2, #0
 754 03ce DA61     		str	r2, [r3, #28]
 755              		.loc 1 356 0 discriminator 13
 756 03d0 844B     		ldr	r3, .L206
 757 03d2 0422     		movs	r2, #4
 758 03d4 1A62     		str	r2, [r3, #32]
 759              		.loc 1 357 0 discriminator 13
 760 03d6 834B     		ldr	r3, .L206
 761 03d8 4FF48002 		mov	r2, #4194304
 762 03dc 5A62     		str	r2, [r3, #36]
 763              		.loc 1 358 0 discriminator 13
 764 03de 814B     		ldr	r3, .L206
 765 03e0 0A22     		movs	r2, #10
 766 03e2 9A62     		str	r2, [r3, #40]
 767              		.loc 1 359 0 discriminator 13
 768 03e4 7F4B     		ldr	r3, .L206
 769 03e6 0022     		movs	r2, #0
 770 03e8 DA62     		str	r2, [r3, #44]
 771              		.loc 1 360 0 discriminator 13
 772 03ea BDF86620 		ldrh	r2, [sp, #102]
 773 03ee 7D4B     		ldr	r3, .L206
 774 03f0 1A63     		str	r2, [r3, #48]
 775              		.loc 1 361 0 discriminator 13
 776 03f2 7C4B     		ldr	r3, .L206
 777 03f4 7C4A     		ldr	r2, .L206+4
 778 03f6 1A60     		str	r2, [r3]
 779              		.loc 1 363 0 discriminator 13
 780 03f8 7A48     		ldr	r0, .L206
 781 03fa FFF7FEFF 		bl	HAL_DFSDM_ChannelGetState
 782 03fe 0346     		mov	r3, r0
 783 0400 002B     		cmp	r3, #0
 784 0402 41D1     		bne	.L63
 785              	.LBB2:
 786              	.LBB3:
 787              		.loc 1 369 0
 788 0404 794B     		ldr	r3, .L206+8
ARM GAS  /tmp/ccGf2LCS.s 			page 15


 789 0406 794A     		ldr	r2, .L206+8
 790 0408 126E     		ldr	r2, [r2, #96]
 791 040a 42F08072 		orr	r2, r2, #16777216
 792 040e 1A66     		str	r2, [r3, #96]
 793 0410 764B     		ldr	r3, .L206+8
 794 0412 1B6E     		ldr	r3, [r3, #96]
 795 0414 03F08073 		and	r3, r3, #16777216
 796 0418 1293     		str	r3, [sp, #72]
 797 041a 129B     		ldr	r3, [sp, #72]
 798              	.LBE3:
 799              	.LBB4:
 800              		.loc 1 371 0
 801 041c 734B     		ldr	r3, .L206+8
 802 041e 734A     		ldr	r2, .L206+8
 803 0420 D26C     		ldr	r2, [r2, #76]
 804 0422 42F00402 		orr	r2, r2, #4
 805 0426 DA64     		str	r2, [r3, #76]
 806 0428 704B     		ldr	r3, .L206+8
 807 042a DB6C     		ldr	r3, [r3, #76]
 808 042c 03F00403 		and	r3, r3, #4
 809 0430 1193     		str	r3, [sp, #68]
 810 0432 119B     		ldr	r3, [sp, #68]
 811              	.LBE4:
 812              	.LBB5:
 813              		.loc 1 372 0
 814 0434 6D4B     		ldr	r3, .L206+8
 815 0436 6D4A     		ldr	r2, .L206+8
 816 0438 D26C     		ldr	r2, [r2, #76]
 817 043a 42F00202 		orr	r2, r2, #2
 818 043e DA64     		str	r2, [r3, #76]
 819 0440 6A4B     		ldr	r3, .L206+8
 820 0442 DB6C     		ldr	r3, [r3, #76]
 821 0444 03F00203 		and	r3, r3, #2
 822 0448 1093     		str	r3, [sp, #64]
 823 044a 109B     		ldr	r3, [sp, #64]
 824              	.LBE5:
 825              		.loc 1 375 0
 826 044c 0423     		movs	r3, #4
 827 044e 1393     		str	r3, [sp, #76]
 828              		.loc 1 376 0
 829 0450 0223     		movs	r3, #2
 830 0452 1493     		str	r3, [sp, #80]
 831              		.loc 1 377 0
 832 0454 0023     		movs	r3, #0
 833 0456 1593     		str	r3, [sp, #84]
 834              		.loc 1 378 0
 835 0458 0323     		movs	r3, #3
 836 045a 1693     		str	r3, [sp, #88]
 837              		.loc 1 379 0
 838 045c 0623     		movs	r3, #6
 839 045e 1793     		str	r3, [sp, #92]
 840              		.loc 1 380 0
 841 0460 13AB     		add	r3, sp, #76
 842 0462 6348     		ldr	r0, .L206+12
 843 0464 1946     		mov	r1, r3
 844 0466 FFF7FEFF 		bl	HAL_GPIO_Init
 845              		.loc 1 382 0
ARM GAS  /tmp/ccGf2LCS.s 			page 16


 846 046a 4023     		movs	r3, #64
 847 046c 1393     		str	r3, [sp, #76]
 848              		.loc 1 383 0
 849 046e 0223     		movs	r3, #2
 850 0470 1493     		str	r3, [sp, #80]
 851              		.loc 1 384 0
 852 0472 0023     		movs	r3, #0
 853 0474 1593     		str	r3, [sp, #84]
 854              		.loc 1 385 0
 855 0476 0323     		movs	r3, #3
 856 0478 1693     		str	r3, [sp, #88]
 857              		.loc 1 386 0
 858 047a 0623     		movs	r3, #6
 859 047c 1793     		str	r3, [sp, #92]
 860              		.loc 1 387 0
 861 047e 13AB     		add	r3, sp, #76
 862 0480 5C48     		ldr	r0, .L206+16
 863 0482 1946     		mov	r1, r3
 864 0484 FFF7FEFF 		bl	HAL_GPIO_Init
 865              	.L63:
 866              	.LBE2:
 867              		.loc 1 390 0
 868 0488 5648     		ldr	r0, .L206
 869 048a FFF7FEFF 		bl	HAL_DFSDM_ChannelInit
 870 048e 0346     		mov	r3, r0
 871 0490 002B     		cmp	r3, #0
 872 0492 02D0     		beq	.L64
 873              		.loc 1 392 0
 874 0494 0123     		movs	r3, #1
 875 0496 00F080BC 		b	.L65
 876              	.L64:
 877              		.loc 1 396 0
 878 049a 574B     		ldr	r3, .L206+20
 879 049c 0022     		movs	r2, #0
 880 049e 5A60     		str	r2, [r3, #4]
 881              		.loc 1 397 0
 882 04a0 554B     		ldr	r3, .L206+20
 883 04a2 0122     		movs	r2, #1
 884 04a4 1A72     		strb	r2, [r3, #8]
 885              		.loc 1 398 0
 886 04a6 544B     		ldr	r3, .L206+20
 887 04a8 0122     		movs	r2, #1
 888 04aa 5A72     		strb	r2, [r3, #9]
 889              		.loc 1 399 0
 890 04ac 524B     		ldr	r3, .L206+20
 891 04ae 0022     		movs	r2, #0
 892 04b0 DA60     		str	r2, [r3, #12]
 893              		.loc 1 400 0
 894 04b2 514B     		ldr	r3, .L206+20
 895 04b4 0022     		movs	r2, #0
 896 04b6 1A74     		strb	r2, [r3, #16]
 897              		.loc 1 401 0
 898 04b8 4F4B     		ldr	r3, .L206+20
 899 04ba 0022     		movs	r2, #0
 900 04bc 5A74     		strb	r2, [r3, #17]
 901              		.loc 1 402 0
 902 04be 4E4B     		ldr	r3, .L206+20
ARM GAS  /tmp/ccGf2LCS.s 			page 17


 903 04c0 4FF40072 		mov	r2, #512
 904 04c4 5A61     		str	r2, [r3, #20]
 905              		.loc 1 403 0
 906 04c6 4C4B     		ldr	r3, .L206+20
 907 04c8 4FF4C042 		mov	r2, #24576
 908 04cc 9A61     		str	r2, [r3, #24]
 909              		.loc 1 404 0
 910 04ce 4A4B     		ldr	r3, .L206+20
 911 04d0 189A     		ldr	r2, [sp, #96]
 912 04d2 DA61     		str	r2, [r3, #28]
 913              		.loc 1 406 0
 914 04d4 019B     		ldr	r3, [sp, #4]
 915 04d6 B3F5FA5F 		cmp	r3, #8000
 916 04da 2AD0     		beq	.L66
 917              		.loc 1 406 0 is_stmt 0 discriminator 1
 918 04dc 019A     		ldr	r2, [sp, #4]
 919 04de 42F61133 		movw	r3, #11025
 920 04e2 9A42     		cmp	r2, r3
 921 04e4 22D0     		beq	.L67
 922              		.loc 1 406 0 discriminator 3
 923 04e6 019B     		ldr	r3, [sp, #4]
 924 04e8 B3F57A5F 		cmp	r3, #16000
 925 04ec 1CD0     		beq	.L68
 926              		.loc 1 406 0 discriminator 5
 927 04ee 019A     		ldr	r2, [sp, #4]
 928 04f0 45F22263 		movw	r3, #22050
 929 04f4 9A42     		cmp	r2, r3
 930 04f6 15D0     		beq	.L69
 931              		.loc 1 406 0 discriminator 7
 932 04f8 019B     		ldr	r3, [sp, #4]
 933 04fa B3F5FA4F 		cmp	r3, #32000
 934 04fe 0FD0     		beq	.L70
 935              		.loc 1 406 0 discriminator 9
 936 0500 019A     		ldr	r2, [sp, #4]
 937 0502 4AF64443 		movw	r3, #44100
 938 0506 9A42     		cmp	r2, r3
 939 0508 08D0     		beq	.L71
 940              		.loc 1 406 0 discriminator 11
 941 050a 019A     		ldr	r2, [sp, #4]
 942 050c 4BF68033 		movw	r3, #48000
 943 0510 9A42     		cmp	r2, r3
 944 0512 01D1     		bne	.L72
 945              		.loc 1 406 0 discriminator 13
 946 0514 4023     		movs	r3, #64
 947 0516 0DE0     		b	.L79
 948              	.L72:
 949              		.loc 1 406 0 discriminator 14
 950 0518 2023     		movs	r3, #32
 951 051a 0BE0     		b	.L79
 952              	.L71:
 953              		.loc 1 406 0 discriminator 12
 954 051c 4023     		movs	r3, #64
 955 051e 09E0     		b	.L79
 956              	.L70:
 957              		.loc 1 406 0 discriminator 10
 958 0520 4023     		movs	r3, #64
 959 0522 07E0     		b	.L79
ARM GAS  /tmp/ccGf2LCS.s 			page 18


 960              	.L69:
 961              		.loc 1 406 0 discriminator 8
 962 0524 8023     		movs	r3, #128
 963 0526 05E0     		b	.L79
 964              	.L68:
 965              		.loc 1 406 0 discriminator 6
 966 0528 8023     		movs	r3, #128
 967 052a 03E0     		b	.L79
 968              	.L67:
 969              		.loc 1 406 0 discriminator 4
 970 052c 4FF48073 		mov	r3, #256
 971 0530 00E0     		b	.L79
 972              	.L66:
 973              		.loc 1 406 0 discriminator 2
 974 0532 8023     		movs	r3, #128
 975              	.L79:
 976              		.loc 1 406 0 discriminator 15
 977 0534 304A     		ldr	r2, .L206+20
 978 0536 1362     		str	r3, [r2, #32]
 979              		.loc 1 407 0 is_stmt 1 discriminator 15
 980 0538 2F4B     		ldr	r3, .L206+20
 981 053a 0122     		movs	r2, #1
 982 053c 5A62     		str	r2, [r3, #36]
 983              		.loc 1 408 0 discriminator 15
 984 053e 2E4B     		ldr	r3, .L206+20
 985 0540 2E4A     		ldr	r2, .L206+24
 986 0542 1A60     		str	r2, [r3]
 987              		.loc 1 410 0 discriminator 15
 988 0544 2C48     		ldr	r0, .L206+20
 989 0546 FFF7FEFF 		bl	HAL_DFSDM_FilterGetState
 990 054a 0346     		mov	r3, r0
 991 054c 002B     		cmp	r3, #0
 992 054e 02D1     		bne	.L80
 993              		.loc 1 413 0
 994 0550 2948     		ldr	r0, .L206+20
 995 0552 00F03DFC 		bl	DFSDMx_FilterMspInit
 996              	.L80:
 997              		.loc 1 416 0
 998 0556 2848     		ldr	r0, .L206+20
 999 0558 FFF7FEFF 		bl	HAL_DFSDM_FilterInit
 1000 055c 0346     		mov	r3, r0
 1001 055e 002B     		cmp	r3, #0
 1002 0560 02D0     		beq	.L81
 1003              		.loc 1 418 0
 1004 0562 0123     		movs	r3, #1
 1005 0564 00F019BC 		b	.L65
 1006              	.L81:
 1007              		.loc 1 422 0
 1008 0568 2348     		ldr	r0, .L206+20
 1009 056a 2549     		ldr	r1, .L206+28
 1010 056c 0122     		movs	r2, #1
 1011 056e FFF7FEFF 		bl	HAL_DFSDM_FilterConfigRegChannel
 1012 0572 0346     		mov	r3, r0
 1013 0574 002B     		cmp	r3, #0
 1014 0576 00F00F84 		beq	.L82
 1015              		.loc 1 424 0
 1016 057a 0123     		movs	r3, #1
ARM GAS  /tmp/ccGf2LCS.s 			page 19


 1017 057c 00F00DBC 		b	.L65
 1018              	.L50:
 1019              		.loc 1 429 0
 1020 0580 009B     		ldr	r3, [sp]
 1021 0582 012B     		cmp	r3, #1
 1022 0584 40F20E82 		bls	.L83
 1023              		.loc 1 433 0
 1024 0588 164B     		ldr	r3, .L206
 1025 058a 0122     		movs	r2, #1
 1026 058c 1A71     		strb	r2, [r3, #4]
 1027              		.loc 1 434 0
 1028 058e 154B     		ldr	r3, .L206
 1029 0590 4FF08042 		mov	r2, #1073741824
 1030 0594 9A60     		str	r2, [r3, #8]
 1031              		.loc 1 436 0
 1032 0596 019B     		ldr	r3, [sp, #4]
 1033 0598 B3F5FA5F 		cmp	r3, #8000
 1034 059c 32D0     		beq	.L84
 1035              		.loc 1 436 0 is_stmt 0 discriminator 1
 1036 059e 019A     		ldr	r2, [sp, #4]
 1037 05a0 42F61133 		movw	r3, #11025
 1038 05a4 9A42     		cmp	r2, r3
 1039 05a6 1BD0     		beq	.L85
 1040              		.loc 1 436 0 discriminator 3
 1041 05a8 019B     		ldr	r3, [sp, #4]
 1042 05aa B3F57A5F 		cmp	r3, #16000
 1043 05ae 15D0     		beq	.L86
 1044              		.loc 1 436 0 discriminator 5
 1045 05b0 019A     		ldr	r2, [sp, #4]
 1046 05b2 45F22263 		movw	r3, #22050
 1047 05b6 9A42     		cmp	r2, r3
 1048 05b8 0ED0     		beq	.L87
 1049              		.loc 1 436 0 discriminator 7
 1050 05ba 019B     		ldr	r3, [sp, #4]
 1051 05bc B3F5FA4F 		cmp	r3, #32000
 1052 05c0 08D0     		beq	.L88
 1053              		.loc 1 436 0 discriminator 9
 1054 05c2 019A     		ldr	r2, [sp, #4]
 1055 05c4 4AF64443 		movw	r3, #44100
 1056 05c8 9A42     		cmp	r2, r3
 1057 05ca 01D1     		bne	.L89
 1058              		.loc 1 436 0 discriminator 11
 1059 05cc 0423     		movs	r3, #4
 1060 05ce 1AE0     		b	.L95
 1061              	.L89:
 1062              		.loc 1 436 0 discriminator 12
 1063 05d0 1023     		movs	r3, #16
 1064 05d2 18E0     		b	.L95
 1065              	.L88:
 1066              		.loc 1 436 0 discriminator 10
 1067 05d4 1823     		movs	r3, #24
 1068 05d6 16E0     		b	.L95
 1069              	.L87:
 1070              		.loc 1 436 0 discriminator 8
 1071 05d8 0423     		movs	r3, #4
 1072 05da 14E0     		b	.L95
 1073              	.L86:
ARM GAS  /tmp/ccGf2LCS.s 			page 20


 1074              		.loc 1 436 0 discriminator 6
 1075 05dc 1823     		movs	r3, #24
 1076 05de 12E0     		b	.L95
 1077              	.L85:
 1078              		.loc 1 436 0 discriminator 4
 1079 05e0 0423     		movs	r3, #4
 1080 05e2 10E0     		b	.L95
 1081              	.L207:
 1082              		.align	2
 1083              	.L206:
 1084 05e4 00000000 		.word	haudio_in_dfsdmchannel
 1085 05e8 A0600140 		.word	1073832096
 1086 05ec 00100240 		.word	1073876992
 1087 05f0 00080048 		.word	1207961600
 1088 05f4 00040048 		.word	1207960576
 1089 05f8 00000000 		.word	haudio_in_dfsdmfilter
 1090 05fc 00610140 		.word	1073832192
 1091 0600 20000500 		.word	327712
 1092              	.L84:
 1093              		.loc 1 436 0 discriminator 2
 1094 0604 3023     		movs	r3, #48
 1095              	.L95:
 1096              		.loc 1 436 0 discriminator 13
 1097 0606 9F4A     		ldr	r2, .L208
 1098 0608 D360     		str	r3, [r2, #12]
 1099              		.loc 1 437 0 is_stmt 1 discriminator 13
 1100 060a 9E4B     		ldr	r3, .L208
 1101 060c 0022     		movs	r2, #0
 1102 060e 1A61     		str	r2, [r3, #16]
 1103              		.loc 1 438 0 discriminator 13
 1104 0610 9C4B     		ldr	r3, .L208
 1105 0612 0022     		movs	r2, #0
 1106 0614 5A61     		str	r2, [r3, #20]
 1107              		.loc 1 439 0 discriminator 13
 1108 0616 9B4B     		ldr	r3, .L208
 1109 0618 0022     		movs	r2, #0
 1110 061a 9A61     		str	r2, [r3, #24]
 1111              		.loc 1 440 0 discriminator 13
 1112 061c 994B     		ldr	r3, .L208
 1113 061e 0022     		movs	r2, #0
 1114 0620 DA61     		str	r2, [r3, #28]
 1115              		.loc 1 441 0 discriminator 13
 1116 0622 984B     		ldr	r3, .L208
 1117 0624 0422     		movs	r2, #4
 1118 0626 1A62     		str	r2, [r3, #32]
 1119              		.loc 1 442 0 discriminator 13
 1120 0628 964B     		ldr	r3, .L208
 1121 062a 4FF48002 		mov	r2, #4194304
 1122 062e 5A62     		str	r2, [r3, #36]
 1123              		.loc 1 443 0 discriminator 13
 1124 0630 944B     		ldr	r3, .L208
 1125 0632 0A22     		movs	r2, #10
 1126 0634 9A62     		str	r2, [r3, #40]
 1127              		.loc 1 444 0 discriminator 13
 1128 0636 934B     		ldr	r3, .L208
 1129 0638 0022     		movs	r2, #0
 1130 063a DA62     		str	r2, [r3, #44]
ARM GAS  /tmp/ccGf2LCS.s 			page 21


 1131              		.loc 1 445 0 discriminator 13
 1132 063c BDF86620 		ldrh	r2, [sp, #102]
 1133 0640 904B     		ldr	r3, .L208
 1134 0642 1A63     		str	r2, [r3, #48]
 1135              		.loc 1 446 0 discriminator 13
 1136 0644 8F4B     		ldr	r3, .L208
 1137 0646 904A     		ldr	r2, .L208+4
 1138 0648 1A60     		str	r2, [r3]
 1139              		.loc 1 448 0 discriminator 13
 1140 064a 8E48     		ldr	r0, .L208
 1141 064c FFF7FEFF 		bl	HAL_DFSDM_ChannelGetState
 1142 0650 0346     		mov	r3, r0
 1143 0652 002B     		cmp	r3, #0
 1144 0654 42D1     		bne	.L96
 1145              	.LBB6:
 1146              	.LBB7:
 1147              		.loc 1 454 0
 1148 0656 8D4B     		ldr	r3, .L208+8
 1149 0658 8C4A     		ldr	r2, .L208+8
 1150 065a 126E     		ldr	r2, [r2, #96]
 1151 065c 42F08072 		orr	r2, r2, #16777216
 1152 0660 1A66     		str	r2, [r3, #96]
 1153 0662 8A4B     		ldr	r3, .L208+8
 1154 0664 1B6E     		ldr	r3, [r3, #96]
 1155 0666 03F08073 		and	r3, r3, #16777216
 1156 066a 0A93     		str	r3, [sp, #40]
 1157 066c 0A9B     		ldr	r3, [sp, #40]
 1158              	.LBE7:
 1159              	.LBB8:
 1160              		.loc 1 456 0
 1161 066e 874B     		ldr	r3, .L208+8
 1162 0670 864A     		ldr	r2, .L208+8
 1163 0672 D26C     		ldr	r2, [r2, #76]
 1164 0674 42F00402 		orr	r2, r2, #4
 1165 0678 DA64     		str	r2, [r3, #76]
 1166 067a 844B     		ldr	r3, .L208+8
 1167 067c DB6C     		ldr	r3, [r3, #76]
 1168 067e 03F00403 		and	r3, r3, #4
 1169 0682 0993     		str	r3, [sp, #36]
 1170 0684 099B     		ldr	r3, [sp, #36]
 1171              	.LBE8:
 1172              	.LBB9:
 1173              		.loc 1 457 0
 1174 0686 814B     		ldr	r3, .L208+8
 1175 0688 804A     		ldr	r2, .L208+8
 1176 068a D26C     		ldr	r2, [r2, #76]
 1177 068c 42F00202 		orr	r2, r2, #2
 1178 0690 DA64     		str	r2, [r3, #76]
 1179 0692 7E4B     		ldr	r3, .L208+8
 1180 0694 DB6C     		ldr	r3, [r3, #76]
 1181 0696 03F00203 		and	r3, r3, #2
 1182 069a 0893     		str	r3, [sp, #32]
 1183 069c 089B     		ldr	r3, [sp, #32]
 1184              	.LBE9:
 1185              		.loc 1 460 0
 1186 069e 0423     		movs	r3, #4
 1187 06a0 0B93     		str	r3, [sp, #44]
ARM GAS  /tmp/ccGf2LCS.s 			page 22


 1188              		.loc 1 461 0
 1189 06a2 0223     		movs	r3, #2
 1190 06a4 0C93     		str	r3, [sp, #48]
 1191              		.loc 1 462 0
 1192 06a6 0023     		movs	r3, #0
 1193 06a8 0D93     		str	r3, [sp, #52]
 1194              		.loc 1 463 0
 1195 06aa 0323     		movs	r3, #3
 1196 06ac 0E93     		str	r3, [sp, #56]
 1197              		.loc 1 464 0
 1198 06ae 0623     		movs	r3, #6
 1199 06b0 0F93     		str	r3, [sp, #60]
 1200              		.loc 1 465 0
 1201 06b2 0BAB     		add	r3, sp, #44
 1202 06b4 7648     		ldr	r0, .L208+12
 1203 06b6 1946     		mov	r1, r3
 1204 06b8 FFF7FEFF 		bl	HAL_GPIO_Init
 1205              		.loc 1 467 0
 1206 06bc 4FF48073 		mov	r3, #256
 1207 06c0 0B93     		str	r3, [sp, #44]
 1208              		.loc 1 468 0
 1209 06c2 0223     		movs	r3, #2
 1210 06c4 0C93     		str	r3, [sp, #48]
 1211              		.loc 1 469 0
 1212 06c6 0023     		movs	r3, #0
 1213 06c8 0D93     		str	r3, [sp, #52]
 1214              		.loc 1 470 0
 1215 06ca 0323     		movs	r3, #3
 1216 06cc 0E93     		str	r3, [sp, #56]
 1217              		.loc 1 471 0
 1218 06ce 0623     		movs	r3, #6
 1219 06d0 0F93     		str	r3, [sp, #60]
 1220              		.loc 1 472 0
 1221 06d2 0BAB     		add	r3, sp, #44
 1222 06d4 6F48     		ldr	r0, .L208+16
 1223 06d6 1946     		mov	r1, r3
 1224 06d8 FFF7FEFF 		bl	HAL_GPIO_Init
 1225              	.L96:
 1226              	.LBE6:
 1227              		.loc 1 475 0
 1228 06dc 6948     		ldr	r0, .L208
 1229 06de FFF7FEFF 		bl	HAL_DFSDM_ChannelInit
 1230 06e2 0346     		mov	r3, r0
 1231 06e4 002B     		cmp	r3, #0
 1232 06e6 01D0     		beq	.L97
 1233              		.loc 1 477 0
 1234 06e8 0123     		movs	r3, #1
 1235 06ea 56E3     		b	.L65
 1236              	.L97:
 1237              		.loc 1 481 0
 1238 06ec 6A4B     		ldr	r3, .L208+20
 1239 06ee 0022     		movs	r2, #0
 1240 06f0 5A60     		str	r2, [r3, #4]
 1241              		.loc 1 482 0
 1242 06f2 694B     		ldr	r3, .L208+20
 1243 06f4 0122     		movs	r2, #1
 1244 06f6 1A72     		strb	r2, [r3, #8]
ARM GAS  /tmp/ccGf2LCS.s 			page 23


 1245              		.loc 1 483 0
 1246 06f8 674B     		ldr	r3, .L208+20
 1247 06fa 0122     		movs	r2, #1
 1248 06fc 5A72     		strb	r2, [r3, #9]
 1249              		.loc 1 484 0
 1250 06fe 664B     		ldr	r3, .L208+20
 1251 0700 0022     		movs	r2, #0
 1252 0702 DA60     		str	r2, [r3, #12]
 1253              		.loc 1 485 0
 1254 0704 644B     		ldr	r3, .L208+20
 1255 0706 0022     		movs	r2, #0
 1256 0708 1A74     		strb	r2, [r3, #16]
 1257              		.loc 1 486 0
 1258 070a 634B     		ldr	r3, .L208+20
 1259 070c 0022     		movs	r2, #0
 1260 070e 5A74     		strb	r2, [r3, #17]
 1261              		.loc 1 487 0
 1262 0710 614B     		ldr	r3, .L208+20
 1263 0712 4FF40072 		mov	r2, #512
 1264 0716 5A61     		str	r2, [r3, #20]
 1265              		.loc 1 488 0
 1266 0718 5F4B     		ldr	r3, .L208+20
 1267 071a 4FF4C042 		mov	r2, #24576
 1268 071e 9A61     		str	r2, [r3, #24]
 1269              		.loc 1 489 0
 1270 0720 5D4B     		ldr	r3, .L208+20
 1271 0722 189A     		ldr	r2, [sp, #96]
 1272 0724 DA61     		str	r2, [r3, #28]
 1273              		.loc 1 491 0
 1274 0726 019B     		ldr	r3, [sp, #4]
 1275 0728 B3F5FA5F 		cmp	r3, #8000
 1276 072c 2AD0     		beq	.L98
 1277              		.loc 1 491 0 is_stmt 0 discriminator 1
 1278 072e 019A     		ldr	r2, [sp, #4]
 1279 0730 42F61133 		movw	r3, #11025
 1280 0734 9A42     		cmp	r2, r3
 1281 0736 22D0     		beq	.L99
 1282              		.loc 1 491 0 discriminator 3
 1283 0738 019B     		ldr	r3, [sp, #4]
 1284 073a B3F57A5F 		cmp	r3, #16000
 1285 073e 1CD0     		beq	.L100
 1286              		.loc 1 491 0 discriminator 5
 1287 0740 019A     		ldr	r2, [sp, #4]
 1288 0742 45F22263 		movw	r3, #22050
 1289 0746 9A42     		cmp	r2, r3
 1290 0748 15D0     		beq	.L101
 1291              		.loc 1 491 0 discriminator 7
 1292 074a 019B     		ldr	r3, [sp, #4]
 1293 074c B3F5FA4F 		cmp	r3, #32000
 1294 0750 0FD0     		beq	.L102
 1295              		.loc 1 491 0 discriminator 9
 1296 0752 019A     		ldr	r2, [sp, #4]
 1297 0754 4AF64443 		movw	r3, #44100
 1298 0758 9A42     		cmp	r2, r3
 1299 075a 08D0     		beq	.L103
 1300              		.loc 1 491 0 discriminator 11
 1301 075c 019A     		ldr	r2, [sp, #4]
ARM GAS  /tmp/ccGf2LCS.s 			page 24


 1302 075e 4BF68033 		movw	r3, #48000
 1303 0762 9A42     		cmp	r2, r3
 1304 0764 01D1     		bne	.L104
 1305              		.loc 1 491 0 discriminator 13
 1306 0766 4023     		movs	r3, #64
 1307 0768 0DE0     		b	.L111
 1308              	.L104:
 1309              		.loc 1 491 0 discriminator 14
 1310 076a 2023     		movs	r3, #32
 1311 076c 0BE0     		b	.L111
 1312              	.L103:
 1313              		.loc 1 491 0 discriminator 12
 1314 076e 4023     		movs	r3, #64
 1315 0770 09E0     		b	.L111
 1316              	.L102:
 1317              		.loc 1 491 0 discriminator 10
 1318 0772 4023     		movs	r3, #64
 1319 0774 07E0     		b	.L111
 1320              	.L101:
 1321              		.loc 1 491 0 discriminator 8
 1322 0776 8023     		movs	r3, #128
 1323 0778 05E0     		b	.L111
 1324              	.L100:
 1325              		.loc 1 491 0 discriminator 6
 1326 077a 8023     		movs	r3, #128
 1327 077c 03E0     		b	.L111
 1328              	.L99:
 1329              		.loc 1 491 0 discriminator 4
 1330 077e 4FF48073 		mov	r3, #256
 1331 0782 00E0     		b	.L111
 1332              	.L98:
 1333              		.loc 1 491 0 discriminator 2
 1334 0784 8023     		movs	r3, #128
 1335              	.L111:
 1336              		.loc 1 491 0 discriminator 15
 1337 0786 444A     		ldr	r2, .L208+20
 1338 0788 1362     		str	r3, [r2, #32]
 1339              		.loc 1 492 0 is_stmt 1 discriminator 15
 1340 078a 434B     		ldr	r3, .L208+20
 1341 078c 0122     		movs	r2, #1
 1342 078e 5A62     		str	r2, [r3, #36]
 1343              		.loc 1 493 0 discriminator 15
 1344 0790 414B     		ldr	r3, .L208+20
 1345 0792 424A     		ldr	r2, .L208+24
 1346 0794 1A60     		str	r2, [r3]
 1347              		.loc 1 495 0 discriminator 15
 1348 0796 4048     		ldr	r0, .L208+20
 1349 0798 FFF7FEFF 		bl	HAL_DFSDM_FilterGetState
 1350 079c 0346     		mov	r3, r0
 1351 079e 002B     		cmp	r3, #0
 1352 07a0 02D1     		bne	.L112
 1353              		.loc 1 498 0
 1354 07a2 3D48     		ldr	r0, .L208+20
 1355 07a4 00F014FB 		bl	DFSDMx_FilterMspInit
 1356              	.L112:
 1357              		.loc 1 501 0
 1358 07a8 3B48     		ldr	r0, .L208+20
ARM GAS  /tmp/ccGf2LCS.s 			page 25


 1359 07aa FFF7FEFF 		bl	HAL_DFSDM_FilterInit
 1360 07ae 0346     		mov	r3, r0
 1361 07b0 002B     		cmp	r3, #0
 1362 07b2 01D0     		beq	.L113
 1363              		.loc 1 503 0
 1364 07b4 0123     		movs	r3, #1
 1365 07b6 F0E2     		b	.L65
 1366              	.L113:
 1367              		.loc 1 507 0
 1368 07b8 3748     		ldr	r0, .L208+20
 1369 07ba 3949     		ldr	r1, .L208+28
 1370 07bc 0122     		movs	r2, #1
 1371 07be FFF7FEFF 		bl	HAL_DFSDM_FilterConfigRegChannel
 1372 07c2 0346     		mov	r3, r0
 1373 07c4 002B     		cmp	r3, #0
 1374 07c6 01D0     		beq	.L114
 1375              		.loc 1 509 0
 1376 07c8 0123     		movs	r3, #1
 1377 07ca E6E2     		b	.L65
 1378              	.L114:
 1379              		.loc 1 513 0
 1380 07cc 2D4B     		ldr	r3, .L208
 1381 07ce 0122     		movs	r2, #1
 1382 07d0 83F83C20 		strb	r2, [r3, #60]
 1383              		.loc 1 514 0
 1384 07d4 2B4B     		ldr	r3, .L208
 1385 07d6 4FF08042 		mov	r2, #1073741824
 1386 07da 1A64     		str	r2, [r3, #64]
 1387              		.loc 1 516 0
 1388 07dc 019B     		ldr	r3, [sp, #4]
 1389 07de B3F5FA5F 		cmp	r3, #8000
 1390 07e2 22D0     		beq	.L115
 1391              		.loc 1 516 0 is_stmt 0 discriminator 1
 1392 07e4 019A     		ldr	r2, [sp, #4]
 1393 07e6 42F61133 		movw	r3, #11025
 1394 07ea 9A42     		cmp	r2, r3
 1395 07ec 1BD0     		beq	.L116
 1396              		.loc 1 516 0 discriminator 3
 1397 07ee 019B     		ldr	r3, [sp, #4]
 1398 07f0 B3F57A5F 		cmp	r3, #16000
 1399 07f4 15D0     		beq	.L117
 1400              		.loc 1 516 0 discriminator 5
 1401 07f6 019A     		ldr	r2, [sp, #4]
 1402 07f8 45F22263 		movw	r3, #22050
 1403 07fc 9A42     		cmp	r2, r3
 1404 07fe 0ED0     		beq	.L118
 1405              		.loc 1 516 0 discriminator 7
 1406 0800 019B     		ldr	r3, [sp, #4]
 1407 0802 B3F5FA4F 		cmp	r3, #32000
 1408 0806 08D0     		beq	.L119
 1409              		.loc 1 516 0 discriminator 9
 1410 0808 019A     		ldr	r2, [sp, #4]
 1411 080a 4AF64443 		movw	r3, #44100
 1412 080e 9A42     		cmp	r2, r3
 1413 0810 01D1     		bne	.L120
 1414              		.loc 1 516 0 discriminator 11
 1415 0812 0423     		movs	r3, #4
ARM GAS  /tmp/ccGf2LCS.s 			page 26


 1416 0814 0AE0     		b	.L126
 1417              	.L120:
 1418              		.loc 1 516 0 discriminator 12
 1419 0816 1023     		movs	r3, #16
 1420 0818 08E0     		b	.L126
 1421              	.L119:
 1422              		.loc 1 516 0 discriminator 10
 1423 081a 1823     		movs	r3, #24
 1424 081c 06E0     		b	.L126
 1425              	.L118:
 1426              		.loc 1 516 0 discriminator 8
 1427 081e 0423     		movs	r3, #4
 1428 0820 04E0     		b	.L126
 1429              	.L117:
 1430              		.loc 1 516 0 discriminator 6
 1431 0822 1823     		movs	r3, #24
 1432 0824 02E0     		b	.L126
 1433              	.L116:
 1434              		.loc 1 516 0 discriminator 4
 1435 0826 0423     		movs	r3, #4
 1436 0828 00E0     		b	.L126
 1437              	.L115:
 1438              		.loc 1 516 0 discriminator 2
 1439 082a 3023     		movs	r3, #48
 1440              	.L126:
 1441              		.loc 1 516 0 discriminator 13
 1442 082c 154A     		ldr	r2, .L208
 1443 082e 5364     		str	r3, [r2, #68]
 1444              		.loc 1 517 0 is_stmt 1 discriminator 13
 1445 0830 144B     		ldr	r3, .L208
 1446 0832 0022     		movs	r2, #0
 1447 0834 9A64     		str	r2, [r3, #72]
 1448              		.loc 1 518 0 discriminator 13
 1449 0836 134B     		ldr	r3, .L208
 1450 0838 0022     		movs	r2, #0
 1451 083a DA64     		str	r2, [r3, #76]
 1452              		.loc 1 519 0 discriminator 13
 1453 083c 114B     		ldr	r3, .L208
 1454 083e 4FF48072 		mov	r2, #256
 1455 0842 1A65     		str	r2, [r3, #80]
 1456              		.loc 1 520 0 discriminator 13
 1457 0844 0F4B     		ldr	r3, .L208
 1458 0846 0122     		movs	r2, #1
 1459 0848 5A65     		str	r2, [r3, #84]
 1460              		.loc 1 521 0 discriminator 13
 1461 084a 0E4B     		ldr	r3, .L208
 1462 084c 0422     		movs	r2, #4
 1463 084e 9A65     		str	r2, [r3, #88]
 1464              		.loc 1 522 0 discriminator 13
 1465 0850 0C4B     		ldr	r3, .L208
 1466 0852 4FF48002 		mov	r2, #4194304
 1467 0856 DA65     		str	r2, [r3, #92]
 1468              		.loc 1 523 0 discriminator 13
 1469 0858 0A4B     		ldr	r3, .L208
 1470 085a 0A22     		movs	r2, #10
 1471 085c 1A66     		str	r2, [r3, #96]
 1472              		.loc 1 524 0 discriminator 13
ARM GAS  /tmp/ccGf2LCS.s 			page 27


 1473 085e 094B     		ldr	r3, .L208
 1474 0860 0022     		movs	r2, #0
 1475 0862 5A66     		str	r2, [r3, #100]
 1476              		.loc 1 525 0 discriminator 13
 1477 0864 BDF86620 		ldrh	r2, [sp, #102]
 1478 0868 064B     		ldr	r3, .L208
 1479 086a 9A66     		str	r2, [r3, #104]
 1480              		.loc 1 526 0 discriminator 13
 1481 086c 054B     		ldr	r3, .L208
 1482 086e 0D4A     		ldr	r2, .L208+32
 1483 0870 9A63     		str	r2, [r3, #56]
 1484              		.loc 1 529 0 discriminator 13
 1485 0872 0D48     		ldr	r0, .L208+36
 1486 0874 FFF7FEFF 		bl	HAL_DFSDM_ChannelInit
 1487 0878 0346     		mov	r3, r0
 1488 087a 002B     		cmp	r3, #0
 1489 087c 16D0     		beq	.L127
 1490              		.loc 1 531 0
 1491 087e 0123     		movs	r3, #1
 1492 0880 8BE2     		b	.L65
 1493              	.L209:
 1494 0882 00BF     		.align	2
 1495              	.L208:
 1496 0884 00000000 		.word	haudio_in_dfsdmchannel
 1497 0888 C0600140 		.word	1073832128
 1498 088c 00100240 		.word	1073876992
 1499 0890 00080048 		.word	1207961600
 1500 0894 00040048 		.word	1207960576
 1501 0898 00000000 		.word	haudio_in_dfsdmfilter
 1502 089c 00610140 		.word	1073832192
 1503 08a0 40000600 		.word	393280
 1504 08a4 A0600140 		.word	1073832096
 1505 08a8 38000000 		.word	haudio_in_dfsdmchannel+56
 1506              	.L127:
 1507              		.loc 1 534 0
 1508 08ac AC4B     		ldr	r3, .L210
 1509 08ae 0122     		movs	r2, #1
 1510 08b0 9A65     		str	r2, [r3, #88]
 1511              		.loc 1 535 0
 1512 08b2 AB4B     		ldr	r3, .L210
 1513 08b4 0122     		movs	r2, #1
 1514 08b6 83F85C20 		strb	r2, [r3, #92]
 1515              		.loc 1 536 0
 1516 08ba A94B     		ldr	r3, .L210
 1517 08bc 0122     		movs	r2, #1
 1518 08be 83F85D20 		strb	r2, [r3, #93]
 1519              		.loc 1 537 0
 1520 08c2 A74B     		ldr	r3, .L210
 1521 08c4 0022     		movs	r2, #0
 1522 08c6 1A66     		str	r2, [r3, #96]
 1523              		.loc 1 538 0
 1524 08c8 A54B     		ldr	r3, .L210
 1525 08ca 0122     		movs	r2, #1
 1526 08cc 83F86420 		strb	r2, [r3, #100]
 1527              		.loc 1 539 0
 1528 08d0 A34B     		ldr	r3, .L210
 1529 08d2 0122     		movs	r2, #1
ARM GAS  /tmp/ccGf2LCS.s 			page 28


 1530 08d4 83F86520 		strb	r2, [r3, #101]
 1531              		.loc 1 540 0
 1532 08d8 A14B     		ldr	r3, .L210
 1533 08da 4FF40072 		mov	r2, #512
 1534 08de 9A66     		str	r2, [r3, #104]
 1535              		.loc 1 541 0
 1536 08e0 009B     		ldr	r3, [sp]
 1537 08e2 012B     		cmp	r3, #1
 1538 08e4 04D1     		bne	.L128
 1539              		.loc 1 543 0
 1540 08e6 9E4B     		ldr	r3, .L210
 1541 08e8 4FF40052 		mov	r2, #8192
 1542 08ec DA66     		str	r2, [r3, #108]
 1543 08ee 03E0     		b	.L129
 1544              	.L128:
 1545              		.loc 1 547 0
 1546 08f0 9B4B     		ldr	r3, .L210
 1547 08f2 4FF4C042 		mov	r2, #24576
 1548 08f6 DA66     		str	r2, [r3, #108]
 1549              	.L129:
 1550              		.loc 1 549 0
 1551 08f8 994B     		ldr	r3, .L210
 1552 08fa 189A     		ldr	r2, [sp, #96]
 1553 08fc 1A67     		str	r2, [r3, #112]
 1554              		.loc 1 551 0
 1555 08fe 019B     		ldr	r3, [sp, #4]
 1556 0900 B3F5FA5F 		cmp	r3, #8000
 1557 0904 2AD0     		beq	.L130
 1558              		.loc 1 551 0 is_stmt 0 discriminator 1
 1559 0906 019A     		ldr	r2, [sp, #4]
 1560 0908 42F61133 		movw	r3, #11025
 1561 090c 9A42     		cmp	r2, r3
 1562 090e 22D0     		beq	.L131
 1563              		.loc 1 551 0 discriminator 3
 1564 0910 019B     		ldr	r3, [sp, #4]
 1565 0912 B3F57A5F 		cmp	r3, #16000
 1566 0916 1CD0     		beq	.L132
 1567              		.loc 1 551 0 discriminator 5
 1568 0918 019A     		ldr	r2, [sp, #4]
 1569 091a 45F22263 		movw	r3, #22050
 1570 091e 9A42     		cmp	r2, r3
 1571 0920 15D0     		beq	.L133
 1572              		.loc 1 551 0 discriminator 7
 1573 0922 019B     		ldr	r3, [sp, #4]
 1574 0924 B3F5FA4F 		cmp	r3, #32000
 1575 0928 0FD0     		beq	.L134
 1576              		.loc 1 551 0 discriminator 9
 1577 092a 019A     		ldr	r2, [sp, #4]
 1578 092c 4AF64443 		movw	r3, #44100
 1579 0930 9A42     		cmp	r2, r3
 1580 0932 08D0     		beq	.L135
 1581              		.loc 1 551 0 discriminator 11
 1582 0934 019A     		ldr	r2, [sp, #4]
 1583 0936 4BF68033 		movw	r3, #48000
 1584 093a 9A42     		cmp	r2, r3
 1585 093c 01D1     		bne	.L136
 1586              		.loc 1 551 0 discriminator 13
ARM GAS  /tmp/ccGf2LCS.s 			page 29


 1587 093e 4023     		movs	r3, #64
 1588 0940 0DE0     		b	.L143
 1589              	.L136:
 1590              		.loc 1 551 0 discriminator 14
 1591 0942 2023     		movs	r3, #32
 1592 0944 0BE0     		b	.L143
 1593              	.L135:
 1594              		.loc 1 551 0 discriminator 12
 1595 0946 4023     		movs	r3, #64
 1596 0948 09E0     		b	.L143
 1597              	.L134:
 1598              		.loc 1 551 0 discriminator 10
 1599 094a 4023     		movs	r3, #64
 1600 094c 07E0     		b	.L143
 1601              	.L133:
 1602              		.loc 1 551 0 discriminator 8
 1603 094e 8023     		movs	r3, #128
 1604 0950 05E0     		b	.L143
 1605              	.L132:
 1606              		.loc 1 551 0 discriminator 6
 1607 0952 8023     		movs	r3, #128
 1608 0954 03E0     		b	.L143
 1609              	.L131:
 1610              		.loc 1 551 0 discriminator 4
 1611 0956 4FF48073 		mov	r3, #256
 1612 095a 00E0     		b	.L143
 1613              	.L130:
 1614              		.loc 1 551 0 discriminator 2
 1615 095c 8023     		movs	r3, #128
 1616              	.L143:
 1617              		.loc 1 551 0 discriminator 15
 1618 095e 804A     		ldr	r2, .L210
 1619 0960 5367     		str	r3, [r2, #116]
 1620              		.loc 1 552 0 is_stmt 1 discriminator 15
 1621 0962 7F4B     		ldr	r3, .L210
 1622 0964 0122     		movs	r2, #1
 1623 0966 9A67     		str	r2, [r3, #120]
 1624              		.loc 1 553 0 discriminator 15
 1625 0968 7D4B     		ldr	r3, .L210
 1626 096a 7E4A     		ldr	r2, .L210+4
 1627 096c 5A65     		str	r2, [r3, #84]
 1628              		.loc 1 555 0 discriminator 15
 1629 096e 7E48     		ldr	r0, .L210+8
 1630 0970 FFF7FEFF 		bl	HAL_DFSDM_FilterGetState
 1631 0974 0346     		mov	r3, r0
 1632 0976 002B     		cmp	r3, #0
 1633 0978 02D1     		bne	.L144
 1634              		.loc 1 558 0
 1635 097a 7B48     		ldr	r0, .L210+8
 1636 097c 00F028FA 		bl	DFSDMx_FilterMspInit
 1637              	.L144:
 1638              		.loc 1 561 0
 1639 0980 7948     		ldr	r0, .L210+8
 1640 0982 FFF7FEFF 		bl	HAL_DFSDM_FilterInit
 1641 0986 0346     		mov	r3, r0
 1642 0988 002B     		cmp	r3, #0
 1643 098a 01D0     		beq	.L145
ARM GAS  /tmp/ccGf2LCS.s 			page 30


 1644              		.loc 1 563 0
 1645 098c 0123     		movs	r3, #1
 1646 098e 04E2     		b	.L65
 1647              	.L145:
 1648              		.loc 1 567 0
 1649 0990 7548     		ldr	r0, .L210+8
 1650 0992 7649     		ldr	r1, .L210+12
 1651 0994 0122     		movs	r2, #1
 1652 0996 FFF7FEFF 		bl	HAL_DFSDM_FilterConfigRegChannel
 1653 099a 0346     		mov	r3, r0
 1654 099c 002B     		cmp	r3, #0
 1655 099e 01D0     		beq	.L83
 1656              		.loc 1 569 0
 1657 09a0 0123     		movs	r3, #1
 1658 09a2 FAE1     		b	.L65
 1659              	.L83:
 1660              		.loc 1 573 0
 1661 09a4 009B     		ldr	r3, [sp]
 1662 09a6 032B     		cmp	r3, #3
 1663 09a8 40F2F681 		bls	.L82
 1664              		.loc 1 576 0
 1665 09ac 704B     		ldr	r3, .L210+16
 1666 09ae 0122     		movs	r2, #1
 1667 09b0 83F87420 		strb	r2, [r3, #116]
 1668              		.loc 1 577 0
 1669 09b4 6E4B     		ldr	r3, .L210+16
 1670 09b6 4FF08042 		mov	r2, #1073741824
 1671 09ba 9A67     		str	r2, [r3, #120]
 1672              		.loc 1 579 0
 1673 09bc 019B     		ldr	r3, [sp, #4]
 1674 09be B3F5FA5F 		cmp	r3, #8000
 1675 09c2 22D0     		beq	.L146
 1676              		.loc 1 579 0 is_stmt 0 discriminator 1
 1677 09c4 019A     		ldr	r2, [sp, #4]
 1678 09c6 42F61133 		movw	r3, #11025
 1679 09ca 9A42     		cmp	r2, r3
 1680 09cc 1BD0     		beq	.L147
 1681              		.loc 1 579 0 discriminator 3
 1682 09ce 019B     		ldr	r3, [sp, #4]
 1683 09d0 B3F57A5F 		cmp	r3, #16000
 1684 09d4 15D0     		beq	.L148
 1685              		.loc 1 579 0 discriminator 5
 1686 09d6 019A     		ldr	r2, [sp, #4]
 1687 09d8 45F22263 		movw	r3, #22050
 1688 09dc 9A42     		cmp	r2, r3
 1689 09de 0ED0     		beq	.L149
 1690              		.loc 1 579 0 discriminator 7
 1691 09e0 019B     		ldr	r3, [sp, #4]
 1692 09e2 B3F5FA4F 		cmp	r3, #32000
 1693 09e6 08D0     		beq	.L150
 1694              		.loc 1 579 0 discriminator 9
 1695 09e8 019A     		ldr	r2, [sp, #4]
 1696 09ea 4AF64443 		movw	r3, #44100
 1697 09ee 9A42     		cmp	r2, r3
 1698 09f0 01D1     		bne	.L151
 1699              		.loc 1 579 0 discriminator 11
 1700 09f2 0423     		movs	r3, #4
ARM GAS  /tmp/ccGf2LCS.s 			page 31


 1701 09f4 0AE0     		b	.L157
 1702              	.L151:
 1703              		.loc 1 579 0 discriminator 12
 1704 09f6 1023     		movs	r3, #16
 1705 09f8 08E0     		b	.L157
 1706              	.L150:
 1707              		.loc 1 579 0 discriminator 10
 1708 09fa 1823     		movs	r3, #24
 1709 09fc 06E0     		b	.L157
 1710              	.L149:
 1711              		.loc 1 579 0 discriminator 8
 1712 09fe 0423     		movs	r3, #4
 1713 0a00 04E0     		b	.L157
 1714              	.L148:
 1715              		.loc 1 579 0 discriminator 6
 1716 0a02 1823     		movs	r3, #24
 1717 0a04 02E0     		b	.L157
 1718              	.L147:
 1719              		.loc 1 579 0 discriminator 4
 1720 0a06 0423     		movs	r3, #4
 1721 0a08 00E0     		b	.L157
 1722              	.L146:
 1723              		.loc 1 579 0 discriminator 2
 1724 0a0a 3023     		movs	r3, #48
 1725              	.L157:
 1726              		.loc 1 579 0 discriminator 13
 1727 0a0c 584A     		ldr	r2, .L210+16
 1728 0a0e D367     		str	r3, [r2, #124]
 1729              		.loc 1 580 0 is_stmt 1 discriminator 13
 1730 0a10 574B     		ldr	r3, .L210+16
 1731 0a12 0022     		movs	r2, #0
 1732 0a14 C3F88020 		str	r2, [r3, #128]
 1733              		.loc 1 581 0 discriminator 13
 1734 0a18 554B     		ldr	r3, .L210+16
 1735 0a1a 0022     		movs	r2, #0
 1736 0a1c C3F88420 		str	r2, [r3, #132]
 1737              		.loc 1 582 0 discriminator 13
 1738 0a20 534B     		ldr	r3, .L210+16
 1739 0a22 0022     		movs	r2, #0
 1740 0a24 C3F88820 		str	r2, [r3, #136]
 1741              		.loc 1 583 0 discriminator 13
 1742 0a28 514B     		ldr	r3, .L210+16
 1743 0a2a 0022     		movs	r2, #0
 1744 0a2c C3F88C20 		str	r2, [r3, #140]
 1745              		.loc 1 584 0 discriminator 13
 1746 0a30 4F4B     		ldr	r3, .L210+16
 1747 0a32 0422     		movs	r2, #4
 1748 0a34 C3F89020 		str	r2, [r3, #144]
 1749              		.loc 1 585 0 discriminator 13
 1750 0a38 4D4B     		ldr	r3, .L210+16
 1751 0a3a 4FF48002 		mov	r2, #4194304
 1752 0a3e C3F89420 		str	r2, [r3, #148]
 1753              		.loc 1 586 0 discriminator 13
 1754 0a42 4B4B     		ldr	r3, .L210+16
 1755 0a44 0A22     		movs	r2, #10
 1756 0a46 C3F89820 		str	r2, [r3, #152]
 1757              		.loc 1 587 0 discriminator 13
ARM GAS  /tmp/ccGf2LCS.s 			page 32


 1758 0a4a 494B     		ldr	r3, .L210+16
 1759 0a4c 0022     		movs	r2, #0
 1760 0a4e C3F89C20 		str	r2, [r3, #156]
 1761              		.loc 1 588 0 discriminator 13
 1762 0a52 BDF86620 		ldrh	r2, [sp, #102]
 1763 0a56 464B     		ldr	r3, .L210+16
 1764 0a58 C3F8A020 		str	r2, [r3, #160]
 1765              		.loc 1 589 0 discriminator 13
 1766 0a5c 444B     		ldr	r3, .L210+16
 1767 0a5e 454A     		ldr	r2, .L210+20
 1768 0a60 1A67     		str	r2, [r3, #112]
 1769              		.loc 1 591 0 discriminator 13
 1770 0a62 4548     		ldr	r0, .L210+24
 1771 0a64 FFF7FEFF 		bl	HAL_DFSDM_ChannelGetState
 1772 0a68 0346     		mov	r3, r0
 1773 0a6a 002B     		cmp	r3, #0
 1774 0a6c 1AD1     		bne	.L158
 1775              	.LBB10:
 1776              	.LBB11:
 1777              		.loc 1 597 0
 1778 0a6e 434B     		ldr	r3, .L210+28
 1779 0a70 424A     		ldr	r2, .L210+28
 1780 0a72 D26C     		ldr	r2, [r2, #76]
 1781 0a74 42F00402 		orr	r2, r2, #4
 1782 0a78 DA64     		str	r2, [r3, #76]
 1783 0a7a 404B     		ldr	r3, .L210+28
 1784 0a7c DB6C     		ldr	r3, [r3, #76]
 1785 0a7e 03F00403 		and	r3, r3, #4
 1786 0a82 0293     		str	r3, [sp, #8]
 1787 0a84 029B     		ldr	r3, [sp, #8]
 1788              	.LBE11:
 1789              		.loc 1 599 0
 1790 0a86 0123     		movs	r3, #1
 1791 0a88 0393     		str	r3, [sp, #12]
 1792              		.loc 1 600 0
 1793 0a8a 0223     		movs	r3, #2
 1794 0a8c 0493     		str	r3, [sp, #16]
 1795              		.loc 1 601 0
 1796 0a8e 0023     		movs	r3, #0
 1797 0a90 0593     		str	r3, [sp, #20]
 1798              		.loc 1 602 0
 1799 0a92 0323     		movs	r3, #3
 1800 0a94 0693     		str	r3, [sp, #24]
 1801              		.loc 1 603 0
 1802 0a96 0623     		movs	r3, #6
 1803 0a98 0793     		str	r3, [sp, #28]
 1804              		.loc 1 604 0
 1805 0a9a 03AB     		add	r3, sp, #12
 1806 0a9c 3848     		ldr	r0, .L210+32
 1807 0a9e 1946     		mov	r1, r3
 1808 0aa0 FFF7FEFF 		bl	HAL_GPIO_Init
 1809              	.L158:
 1810              	.LBE10:
 1811              		.loc 1 608 0
 1812 0aa4 3448     		ldr	r0, .L210+24
 1813 0aa6 FFF7FEFF 		bl	HAL_DFSDM_ChannelInit
 1814 0aaa 0346     		mov	r3, r0
ARM GAS  /tmp/ccGf2LCS.s 			page 33


 1815 0aac 002B     		cmp	r3, #0
 1816 0aae 01D0     		beq	.L159
 1817              		.loc 1 610 0
 1818 0ab0 0123     		movs	r3, #1
 1819 0ab2 72E1     		b	.L65
 1820              	.L159:
 1821              		.loc 1 614 0
 1822 0ab4 2A4B     		ldr	r3, .L210
 1823 0ab6 0122     		movs	r2, #1
 1824 0ab8 C3F8AC20 		str	r2, [r3, #172]
 1825              		.loc 1 615 0
 1826 0abc 284B     		ldr	r3, .L210
 1827 0abe 0122     		movs	r2, #1
 1828 0ac0 83F8B020 		strb	r2, [r3, #176]
 1829              		.loc 1 616 0
 1830 0ac4 264B     		ldr	r3, .L210
 1831 0ac6 0122     		movs	r2, #1
 1832 0ac8 83F8B120 		strb	r2, [r3, #177]
 1833              		.loc 1 617 0
 1834 0acc 244B     		ldr	r3, .L210
 1835 0ace 0022     		movs	r2, #0
 1836 0ad0 C3F8B420 		str	r2, [r3, #180]
 1837              		.loc 1 618 0
 1838 0ad4 224B     		ldr	r3, .L210
 1839 0ad6 0022     		movs	r2, #0
 1840 0ad8 83F8B820 		strb	r2, [r3, #184]
 1841              		.loc 1 619 0
 1842 0adc 204B     		ldr	r3, .L210
 1843 0ade 0022     		movs	r2, #0
 1844 0ae0 83F8B920 		strb	r2, [r3, #185]
 1845              		.loc 1 620 0
 1846 0ae4 1E4B     		ldr	r3, .L210
 1847 0ae6 4FF40072 		mov	r2, #512
 1848 0aea C3F8BC20 		str	r2, [r3, #188]
 1849              		.loc 1 621 0
 1850 0aee 1C4B     		ldr	r3, .L210
 1851 0af0 4FF4C042 		mov	r2, #24576
 1852 0af4 C3F8C020 		str	r2, [r3, #192]
 1853              		.loc 1 622 0
 1854 0af8 194B     		ldr	r3, .L210
 1855 0afa 189A     		ldr	r2, [sp, #96]
 1856 0afc C3F8C420 		str	r2, [r3, #196]
 1857              		.loc 1 624 0
 1858 0b00 019B     		ldr	r3, [sp, #4]
 1859 0b02 B3F5FA5F 		cmp	r3, #8000
 1860 0b06 3DD0     		beq	.L160
 1861              		.loc 1 624 0 is_stmt 0 discriminator 1
 1862 0b08 019A     		ldr	r2, [sp, #4]
 1863 0b0a 42F61133 		movw	r3, #11025
 1864 0b0e 9A42     		cmp	r2, r3
 1865 0b10 22D0     		beq	.L161
 1866              		.loc 1 624 0 discriminator 3
 1867 0b12 019B     		ldr	r3, [sp, #4]
 1868 0b14 B3F57A5F 		cmp	r3, #16000
 1869 0b18 1CD0     		beq	.L162
 1870              		.loc 1 624 0 discriminator 5
 1871 0b1a 019A     		ldr	r2, [sp, #4]
ARM GAS  /tmp/ccGf2LCS.s 			page 34


 1872 0b1c 45F22263 		movw	r3, #22050
 1873 0b20 9A42     		cmp	r2, r3
 1874 0b22 15D0     		beq	.L163
 1875              		.loc 1 624 0 discriminator 7
 1876 0b24 019B     		ldr	r3, [sp, #4]
 1877 0b26 B3F5FA4F 		cmp	r3, #32000
 1878 0b2a 0FD0     		beq	.L164
 1879              		.loc 1 624 0 discriminator 9
 1880 0b2c 019A     		ldr	r2, [sp, #4]
 1881 0b2e 4AF64443 		movw	r3, #44100
 1882 0b32 9A42     		cmp	r2, r3
 1883 0b34 08D0     		beq	.L165
 1884              		.loc 1 624 0 discriminator 11
 1885 0b36 019A     		ldr	r2, [sp, #4]
 1886 0b38 4BF68033 		movw	r3, #48000
 1887 0b3c 9A42     		cmp	r2, r3
 1888 0b3e 01D1     		bne	.L166
 1889              		.loc 1 624 0 discriminator 13
 1890 0b40 4023     		movs	r3, #64
 1891 0b42 20E0     		b	.L173
 1892              	.L166:
 1893              		.loc 1 624 0 discriminator 14
 1894 0b44 2023     		movs	r3, #32
 1895 0b46 1EE0     		b	.L173
 1896              	.L165:
 1897              		.loc 1 624 0 discriminator 12
 1898 0b48 4023     		movs	r3, #64
 1899 0b4a 1CE0     		b	.L173
 1900              	.L164:
 1901              		.loc 1 624 0 discriminator 10
 1902 0b4c 4023     		movs	r3, #64
 1903 0b4e 1AE0     		b	.L173
 1904              	.L163:
 1905              		.loc 1 624 0 discriminator 8
 1906 0b50 8023     		movs	r3, #128
 1907 0b52 18E0     		b	.L173
 1908              	.L162:
 1909              		.loc 1 624 0 discriminator 6
 1910 0b54 8023     		movs	r3, #128
 1911 0b56 16E0     		b	.L173
 1912              	.L161:
 1913              		.loc 1 624 0 discriminator 4
 1914 0b58 4FF48073 		mov	r3, #256
 1915 0b5c 13E0     		b	.L173
 1916              	.L211:
 1917 0b5e 00BF     		.align	2
 1918              	.L210:
 1919 0b60 00000000 		.word	haudio_in_dfsdmfilter
 1920 0b64 80610140 		.word	1073832320
 1921 0b68 54000000 		.word	haudio_in_dfsdmfilter+84
 1922 0b6c 20000500 		.word	327712
 1923 0b70 00000000 		.word	haudio_in_dfsdmchannel
 1924 0b74 80600140 		.word	1073832064
 1925 0b78 70000000 		.word	haudio_in_dfsdmchannel+112
 1926 0b7c 00100240 		.word	1073876992
 1927 0b80 00080048 		.word	1207961600
 1928              	.L160:
ARM GAS  /tmp/ccGf2LCS.s 			page 35


 1929              		.loc 1 624 0 discriminator 2
 1930 0b84 8023     		movs	r3, #128
 1931              	.L173:
 1932              		.loc 1 624 0 discriminator 15
 1933 0b86 874A     		ldr	r2, .L212
 1934 0b88 C2F8C830 		str	r3, [r2, #200]
 1935              		.loc 1 625 0 is_stmt 1 discriminator 15
 1936 0b8c 854B     		ldr	r3, .L212
 1937 0b8e 0122     		movs	r2, #1
 1938 0b90 C3F8CC20 		str	r2, [r3, #204]
 1939              		.loc 1 626 0 discriminator 15
 1940 0b94 834B     		ldr	r3, .L212
 1941 0b96 844A     		ldr	r2, .L212+4
 1942 0b98 C3F8A820 		str	r2, [r3, #168]
 1943              		.loc 1 628 0 discriminator 15
 1944 0b9c 8348     		ldr	r0, .L212+8
 1945 0b9e FFF7FEFF 		bl	HAL_DFSDM_FilterGetState
 1946 0ba2 0346     		mov	r3, r0
 1947 0ba4 002B     		cmp	r3, #0
 1948 0ba6 02D1     		bne	.L174
 1949              		.loc 1 631 0
 1950 0ba8 8048     		ldr	r0, .L212+8
 1951 0baa 00F011F9 		bl	DFSDMx_FilterMspInit
 1952              	.L174:
 1953              		.loc 1 634 0
 1954 0bae 7F48     		ldr	r0, .L212+8
 1955 0bb0 FFF7FEFF 		bl	HAL_DFSDM_FilterInit
 1956 0bb4 0346     		mov	r3, r0
 1957 0bb6 002B     		cmp	r3, #0
 1958 0bb8 01D0     		beq	.L175
 1959              		.loc 1 636 0
 1960 0bba 0123     		movs	r3, #1
 1961 0bbc EDE0     		b	.L65
 1962              	.L175:
 1963              		.loc 1 640 0
 1964 0bbe 7B48     		ldr	r0, .L212+8
 1965 0bc0 7B49     		ldr	r1, .L212+12
 1966 0bc2 0122     		movs	r2, #1
 1967 0bc4 FFF7FEFF 		bl	HAL_DFSDM_FilterConfigRegChannel
 1968 0bc8 0346     		mov	r3, r0
 1969 0bca 002B     		cmp	r3, #0
 1970 0bcc 01D0     		beq	.L176
 1971              		.loc 1 642 0
 1972 0bce 0123     		movs	r3, #1
 1973 0bd0 E3E0     		b	.L65
 1974              	.L176:
 1975              		.loc 1 646 0
 1976 0bd2 784B     		ldr	r3, .L212+16
 1977 0bd4 0122     		movs	r2, #1
 1978 0bd6 83F8AC20 		strb	r2, [r3, #172]
 1979              		.loc 1 647 0
 1980 0bda 764B     		ldr	r3, .L212+16
 1981 0bdc 4FF08042 		mov	r2, #1073741824
 1982 0be0 C3F8B020 		str	r2, [r3, #176]
 1983              		.loc 1 649 0
 1984 0be4 019B     		ldr	r3, [sp, #4]
 1985 0be6 B3F5FA5F 		cmp	r3, #8000
ARM GAS  /tmp/ccGf2LCS.s 			page 36


 1986 0bea 22D0     		beq	.L177
 1987              		.loc 1 649 0 is_stmt 0 discriminator 1
 1988 0bec 019A     		ldr	r2, [sp, #4]
 1989 0bee 42F61133 		movw	r3, #11025
 1990 0bf2 9A42     		cmp	r2, r3
 1991 0bf4 1BD0     		beq	.L178
 1992              		.loc 1 649 0 discriminator 3
 1993 0bf6 019B     		ldr	r3, [sp, #4]
 1994 0bf8 B3F57A5F 		cmp	r3, #16000
 1995 0bfc 15D0     		beq	.L179
 1996              		.loc 1 649 0 discriminator 5
 1997 0bfe 019A     		ldr	r2, [sp, #4]
 1998 0c00 45F22263 		movw	r3, #22050
 1999 0c04 9A42     		cmp	r2, r3
 2000 0c06 0ED0     		beq	.L180
 2001              		.loc 1 649 0 discriminator 7
 2002 0c08 019B     		ldr	r3, [sp, #4]
 2003 0c0a B3F5FA4F 		cmp	r3, #32000
 2004 0c0e 08D0     		beq	.L181
 2005              		.loc 1 649 0 discriminator 9
 2006 0c10 019A     		ldr	r2, [sp, #4]
 2007 0c12 4AF64443 		movw	r3, #44100
 2008 0c16 9A42     		cmp	r2, r3
 2009 0c18 01D1     		bne	.L182
 2010              		.loc 1 649 0 discriminator 11
 2011 0c1a 0423     		movs	r3, #4
 2012 0c1c 0AE0     		b	.L188
 2013              	.L182:
 2014              		.loc 1 649 0 discriminator 12
 2015 0c1e 1023     		movs	r3, #16
 2016 0c20 08E0     		b	.L188
 2017              	.L181:
 2018              		.loc 1 649 0 discriminator 10
 2019 0c22 1823     		movs	r3, #24
 2020 0c24 06E0     		b	.L188
 2021              	.L180:
 2022              		.loc 1 649 0 discriminator 8
 2023 0c26 0423     		movs	r3, #4
 2024 0c28 04E0     		b	.L188
 2025              	.L179:
 2026              		.loc 1 649 0 discriminator 6
 2027 0c2a 1823     		movs	r3, #24
 2028 0c2c 02E0     		b	.L188
 2029              	.L178:
 2030              		.loc 1 649 0 discriminator 4
 2031 0c2e 0423     		movs	r3, #4
 2032 0c30 00E0     		b	.L188
 2033              	.L177:
 2034              		.loc 1 649 0 discriminator 2
 2035 0c32 3023     		movs	r3, #48
 2036              	.L188:
 2037              		.loc 1 649 0 discriminator 13
 2038 0c34 5F4A     		ldr	r2, .L212+16
 2039 0c36 C2F8B430 		str	r3, [r2, #180]
 2040              		.loc 1 650 0 is_stmt 1 discriminator 13
 2041 0c3a 5E4B     		ldr	r3, .L212+16
 2042 0c3c 0022     		movs	r2, #0
ARM GAS  /tmp/ccGf2LCS.s 			page 37


 2043 0c3e C3F8B820 		str	r2, [r3, #184]
 2044              		.loc 1 651 0 discriminator 13
 2045 0c42 5C4B     		ldr	r3, .L212+16
 2046 0c44 0022     		movs	r2, #0
 2047 0c46 C3F8BC20 		str	r2, [r3, #188]
 2048              		.loc 1 652 0 discriminator 13
 2049 0c4a 5A4B     		ldr	r3, .L212+16
 2050 0c4c 4FF48072 		mov	r2, #256
 2051 0c50 C3F8C020 		str	r2, [r3, #192]
 2052              		.loc 1 653 0 discriminator 13
 2053 0c54 574B     		ldr	r3, .L212+16
 2054 0c56 0122     		movs	r2, #1
 2055 0c58 C3F8C420 		str	r2, [r3, #196]
 2056              		.loc 1 654 0 discriminator 13
 2057 0c5c 554B     		ldr	r3, .L212+16
 2058 0c5e 0422     		movs	r2, #4
 2059 0c60 C3F8C820 		str	r2, [r3, #200]
 2060              		.loc 1 655 0 discriminator 13
 2061 0c64 534B     		ldr	r3, .L212+16
 2062 0c66 4FF48002 		mov	r2, #4194304
 2063 0c6a C3F8CC20 		str	r2, [r3, #204]
 2064              		.loc 1 656 0 discriminator 13
 2065 0c6e 514B     		ldr	r3, .L212+16
 2066 0c70 0A22     		movs	r2, #10
 2067 0c72 C3F8D020 		str	r2, [r3, #208]
 2068              		.loc 1 657 0 discriminator 13
 2069 0c76 4F4B     		ldr	r3, .L212+16
 2070 0c78 0022     		movs	r2, #0
 2071 0c7a C3F8D420 		str	r2, [r3, #212]
 2072              		.loc 1 658 0 discriminator 13
 2073 0c7e BDF86620 		ldrh	r2, [sp, #102]
 2074 0c82 4C4B     		ldr	r3, .L212+16
 2075 0c84 C3F8D820 		str	r2, [r3, #216]
 2076              		.loc 1 659 0 discriminator 13
 2077 0c88 4A4B     		ldr	r3, .L212+16
 2078 0c8a 4B4A     		ldr	r2, .L212+20
 2079 0c8c C3F8A820 		str	r2, [r3, #168]
 2080              		.loc 1 661 0 discriminator 13
 2081 0c90 4A48     		ldr	r0, .L212+24
 2082 0c92 FFF7FEFF 		bl	HAL_DFSDM_ChannelInit
 2083 0c96 0346     		mov	r3, r0
 2084 0c98 002B     		cmp	r3, #0
 2085 0c9a 01D0     		beq	.L189
 2086              		.loc 1 663 0
 2087 0c9c 0123     		movs	r3, #1
 2088 0c9e 7CE0     		b	.L65
 2089              	.L189:
 2090              		.loc 1 667 0
 2091 0ca0 404B     		ldr	r3, .L212
 2092 0ca2 0122     		movs	r2, #1
 2093 0ca4 C3F80021 		str	r2, [r3, #256]
 2094              		.loc 1 668 0
 2095 0ca8 3E4B     		ldr	r3, .L212
 2096 0caa 0122     		movs	r2, #1
 2097 0cac 83F80421 		strb	r2, [r3, #260]
 2098              		.loc 1 669 0
 2099 0cb0 3C4B     		ldr	r3, .L212
ARM GAS  /tmp/ccGf2LCS.s 			page 38


 2100 0cb2 0122     		movs	r2, #1
 2101 0cb4 83F80521 		strb	r2, [r3, #261]
 2102              		.loc 1 670 0
 2103 0cb8 3A4B     		ldr	r3, .L212
 2104 0cba 0022     		movs	r2, #0
 2105 0cbc C3F80821 		str	r2, [r3, #264]
 2106              		.loc 1 671 0
 2107 0cc0 384B     		ldr	r3, .L212
 2108 0cc2 0022     		movs	r2, #0
 2109 0cc4 83F80C21 		strb	r2, [r3, #268]
 2110              		.loc 1 672 0
 2111 0cc8 364B     		ldr	r3, .L212
 2112 0cca 0022     		movs	r2, #0
 2113 0ccc 83F80D21 		strb	r2, [r3, #269]
 2114              		.loc 1 673 0
 2115 0cd0 344B     		ldr	r3, .L212
 2116 0cd2 4FF40072 		mov	r2, #512
 2117 0cd6 C3F81021 		str	r2, [r3, #272]
 2118              		.loc 1 674 0
 2119 0cda 324B     		ldr	r3, .L212
 2120 0cdc 4FF4C042 		mov	r2, #24576
 2121 0ce0 C3F81421 		str	r2, [r3, #276]
 2122              		.loc 1 675 0
 2123 0ce4 2F4B     		ldr	r3, .L212
 2124 0ce6 189A     		ldr	r2, [sp, #96]
 2125 0ce8 C3F81821 		str	r2, [r3, #280]
 2126              		.loc 1 677 0
 2127 0cec 019B     		ldr	r3, [sp, #4]
 2128 0cee B3F5FA5F 		cmp	r3, #8000
 2129 0cf2 2AD0     		beq	.L190
 2130              		.loc 1 677 0 is_stmt 0 discriminator 1
 2131 0cf4 019A     		ldr	r2, [sp, #4]
 2132 0cf6 42F61133 		movw	r3, #11025
 2133 0cfa 9A42     		cmp	r2, r3
 2134 0cfc 22D0     		beq	.L191
 2135              		.loc 1 677 0 discriminator 3
 2136 0cfe 019B     		ldr	r3, [sp, #4]
 2137 0d00 B3F57A5F 		cmp	r3, #16000
 2138 0d04 1CD0     		beq	.L192
 2139              		.loc 1 677 0 discriminator 5
 2140 0d06 019A     		ldr	r2, [sp, #4]
 2141 0d08 45F22263 		movw	r3, #22050
 2142 0d0c 9A42     		cmp	r2, r3
 2143 0d0e 15D0     		beq	.L193
 2144              		.loc 1 677 0 discriminator 7
 2145 0d10 019B     		ldr	r3, [sp, #4]
 2146 0d12 B3F5FA4F 		cmp	r3, #32000
 2147 0d16 0FD0     		beq	.L194
 2148              		.loc 1 677 0 discriminator 9
 2149 0d18 019A     		ldr	r2, [sp, #4]
 2150 0d1a 4AF64443 		movw	r3, #44100
 2151 0d1e 9A42     		cmp	r2, r3
 2152 0d20 08D0     		beq	.L195
 2153              		.loc 1 677 0 discriminator 11
 2154 0d22 019A     		ldr	r2, [sp, #4]
 2155 0d24 4BF68033 		movw	r3, #48000
 2156 0d28 9A42     		cmp	r2, r3
ARM GAS  /tmp/ccGf2LCS.s 			page 39


 2157 0d2a 01D1     		bne	.L196
 2158              		.loc 1 677 0 discriminator 13
 2159 0d2c 4023     		movs	r3, #64
 2160 0d2e 0DE0     		b	.L203
 2161              	.L196:
 2162              		.loc 1 677 0 discriminator 14
 2163 0d30 2023     		movs	r3, #32
 2164 0d32 0BE0     		b	.L203
 2165              	.L195:
 2166              		.loc 1 677 0 discriminator 12
 2167 0d34 4023     		movs	r3, #64
 2168 0d36 09E0     		b	.L203
 2169              	.L194:
 2170              		.loc 1 677 0 discriminator 10
 2171 0d38 4023     		movs	r3, #64
 2172 0d3a 07E0     		b	.L203
 2173              	.L193:
 2174              		.loc 1 677 0 discriminator 8
 2175 0d3c 8023     		movs	r3, #128
 2176 0d3e 05E0     		b	.L203
 2177              	.L192:
 2178              		.loc 1 677 0 discriminator 6
 2179 0d40 8023     		movs	r3, #128
 2180 0d42 03E0     		b	.L203
 2181              	.L191:
 2182              		.loc 1 677 0 discriminator 4
 2183 0d44 4FF48073 		mov	r3, #256
 2184 0d48 00E0     		b	.L203
 2185              	.L190:
 2186              		.loc 1 677 0 discriminator 2
 2187 0d4a 8023     		movs	r3, #128
 2188              	.L203:
 2189              		.loc 1 677 0 discriminator 15
 2190 0d4c 154A     		ldr	r2, .L212
 2191 0d4e C2F81C31 		str	r3, [r2, #284]
 2192              		.loc 1 678 0 is_stmt 1 discriminator 15
 2193 0d52 144B     		ldr	r3, .L212
 2194 0d54 0122     		movs	r2, #1
 2195 0d56 C3F82021 		str	r2, [r3, #288]
 2196              		.loc 1 679 0 discriminator 15
 2197 0d5a 124B     		ldr	r3, .L212
 2198 0d5c 184A     		ldr	r2, .L212+28
 2199 0d5e C3F8FC20 		str	r2, [r3, #252]
 2200              		.loc 1 681 0 discriminator 15
 2201 0d62 1848     		ldr	r0, .L212+32
 2202 0d64 FFF7FEFF 		bl	HAL_DFSDM_FilterGetState
 2203 0d68 0346     		mov	r3, r0
 2204 0d6a 002B     		cmp	r3, #0
 2205 0d6c 02D1     		bne	.L204
 2206              		.loc 1 684 0
 2207 0d6e 1548     		ldr	r0, .L212+32
 2208 0d70 00F02EF8 		bl	DFSDMx_FilterMspInit
 2209              	.L204:
 2210              		.loc 1 687 0
 2211 0d74 1348     		ldr	r0, .L212+32
 2212 0d76 FFF7FEFF 		bl	HAL_DFSDM_FilterInit
 2213 0d7a 0346     		mov	r3, r0
ARM GAS  /tmp/ccGf2LCS.s 			page 40


 2214 0d7c 002B     		cmp	r3, #0
 2215 0d7e 01D0     		beq	.L205
 2216              		.loc 1 689 0
 2217 0d80 0123     		movs	r3, #1
 2218 0d82 0AE0     		b	.L65
 2219              	.L205:
 2220              		.loc 1 693 0
 2221 0d84 0F48     		ldr	r0, .L212+32
 2222 0d86 1049     		ldr	r1, .L212+36
 2223 0d88 0122     		movs	r2, #1
 2224 0d8a FFF7FEFF 		bl	HAL_DFSDM_FilterConfigRegChannel
 2225 0d8e 0346     		mov	r3, r0
 2226 0d90 002B     		cmp	r3, #0
 2227 0d92 01D0     		beq	.L82
 2228              		.loc 1 695 0
 2229 0d94 0123     		movs	r3, #1
 2230 0d96 00E0     		b	.L65
 2231              	.L82:
 2232              		.loc 1 703 0
 2233 0d98 0023     		movs	r3, #0
 2234              	.L65:
 2235              		.loc 1 704 0
 2236 0d9a 1846     		mov	r0, r3
 2237 0d9c 1BB0     		add	sp, sp, #108
 2238              		@ sp needed
 2239 0d9e 5DF804FB 		ldr	pc, [sp], #4
 2240              	.L213:
 2241 0da2 00BF     		.align	2
 2242              	.L212:
 2243 0da4 00000000 		.word	haudio_in_dfsdmfilter
 2244 0da8 00620140 		.word	1073832448
 2245 0dac A8000000 		.word	haudio_in_dfsdmfilter+168
 2246 0db0 10000400 		.word	262160
 2247 0db4 00000000 		.word	haudio_in_dfsdmchannel
 2248 0db8 60600140 		.word	1073832032
 2249 0dbc A8000000 		.word	haudio_in_dfsdmchannel+168
 2250 0dc0 80620140 		.word	1073832576
 2251 0dc4 FC000000 		.word	haudio_in_dfsdmfilter+252
 2252 0dc8 08000300 		.word	196616
 2253              		.cfi_endproc
 2254              	.LFE134:
 2255              		.size	DFSDMx_Init, .-DFSDMx_Init
 2256              		.align	2
 2257 0dcc AFF30080 		.p2align 4,,15
 2258              		.thumb
 2259              		.thumb_func
 2260              		.type	DFSDMx_FilterMspInit, %function
 2261              	DFSDMx_FilterMspInit:
 2262              	.LFB135:
 2263              		.loc 1 712 0
 2264              		.cfi_startproc
 2265              		@ args = 0, pretend = 0, frame = 24
 2266              		@ frame_needed = 0, uses_anonymous_args = 0
 2267 0dd0 00B5     		push	{lr}
 2268              		.cfi_def_cfa_offset 4
 2269              		.cfi_offset 14, -4
 2270 0dd2 87B0     		sub	sp, sp, #28
ARM GAS  /tmp/ccGf2LCS.s 			page 41


 2271              		.cfi_def_cfa_offset 32
 2272 0dd4 0190     		str	r0, [sp, #4]
 2273              		.loc 1 713 0
 2274 0dd6 0023     		movs	r3, #0
 2275 0dd8 0593     		str	r3, [sp, #20]
 2276              	.LBB12:
 2277              		.loc 1 716 0
 2278 0dda 494B     		ldr	r3, .L224
 2279 0ddc 484A     		ldr	r2, .L224
 2280 0dde 126E     		ldr	r2, [r2, #96]
 2281 0de0 42F08072 		orr	r2, r2, #16777216
 2282 0de4 1A66     		str	r2, [r3, #96]
 2283 0de6 464B     		ldr	r3, .L224
 2284 0de8 1B6E     		ldr	r3, [r3, #96]
 2285 0dea 03F08073 		and	r3, r3, #16777216
 2286 0dee 0493     		str	r3, [sp, #16]
 2287 0df0 049B     		ldr	r3, [sp, #16]
 2288              	.LBE12:
 2289              	.LBB13:
 2290              		.loc 1 718 0
 2291 0df2 434B     		ldr	r3, .L224
 2292 0df4 424A     		ldr	r2, .L224
 2293 0df6 926C     		ldr	r2, [r2, #72]
 2294 0df8 42F00102 		orr	r2, r2, #1
 2295 0dfc 9A64     		str	r2, [r3, #72]
 2296 0dfe 404B     		ldr	r3, .L224
 2297 0e00 9B6C     		ldr	r3, [r3, #72]
 2298 0e02 03F00103 		and	r3, r3, #1
 2299 0e06 0393     		str	r3, [sp, #12]
 2300 0e08 039B     		ldr	r3, [sp, #12]
 2301              	.LBE13:
 2302              		.loc 1 720 0
 2303 0e0a 019B     		ldr	r3, [sp, #4]
 2304 0e0c 1A68     		ldr	r2, [r3]
 2305 0e0e 3D4B     		ldr	r3, .L224+4
 2306 0e10 9A42     		cmp	r2, r3
 2307 0e12 02D1     		bne	.L215
 2308              		.loc 1 722 0
 2309 0e14 3C4B     		ldr	r3, .L224+8
 2310 0e16 0593     		str	r3, [sp, #20]
 2311 0e18 16E0     		b	.L216
 2312              	.L215:
 2313              		.loc 1 724 0
 2314 0e1a 019B     		ldr	r3, [sp, #4]
 2315 0e1c 1A68     		ldr	r2, [r3]
 2316 0e1e 3B4B     		ldr	r3, .L224+12
 2317 0e20 9A42     		cmp	r2, r3
 2318 0e22 02D1     		bne	.L217
 2319              		.loc 1 726 0
 2320 0e24 3A4B     		ldr	r3, .L224+16
 2321 0e26 0593     		str	r3, [sp, #20]
 2322 0e28 0EE0     		b	.L216
 2323              	.L217:
 2324              		.loc 1 728 0
 2325 0e2a 019B     		ldr	r3, [sp, #4]
 2326 0e2c 1A68     		ldr	r2, [r3]
 2327 0e2e 394B     		ldr	r3, .L224+20
ARM GAS  /tmp/ccGf2LCS.s 			page 42


 2328 0e30 9A42     		cmp	r2, r3
 2329 0e32 02D1     		bne	.L218
 2330              		.loc 1 730 0
 2331 0e34 384B     		ldr	r3, .L224+24
 2332 0e36 0593     		str	r3, [sp, #20]
 2333 0e38 06E0     		b	.L216
 2334              	.L218:
 2335              		.loc 1 732 0
 2336 0e3a 019B     		ldr	r3, [sp, #4]
 2337 0e3c 1A68     		ldr	r2, [r3]
 2338 0e3e 374B     		ldr	r3, .L224+28
 2339 0e40 9A42     		cmp	r2, r3
 2340 0e42 01D1     		bne	.L216
 2341              		.loc 1 734 0
 2342 0e44 364B     		ldr	r3, .L224+32
 2343 0e46 0593     		str	r3, [sp, #20]
 2344              	.L216:
 2345              		.loc 1 738 0
 2346 0e48 059B     		ldr	r3, [sp, #20]
 2347 0e4a 0022     		movs	r2, #0
 2348 0e4c 5A60     		str	r2, [r3, #4]
 2349              		.loc 1 739 0
 2350 0e4e 059B     		ldr	r3, [sp, #20]
 2351 0e50 0022     		movs	r2, #0
 2352 0e52 9A60     		str	r2, [r3, #8]
 2353              		.loc 1 740 0
 2354 0e54 059B     		ldr	r3, [sp, #20]
 2355 0e56 0022     		movs	r2, #0
 2356 0e58 DA60     		str	r2, [r3, #12]
 2357              		.loc 1 741 0
 2358 0e5a 059B     		ldr	r3, [sp, #20]
 2359 0e5c 8022     		movs	r2, #128
 2360 0e5e 1A61     		str	r2, [r3, #16]
 2361              		.loc 1 742 0
 2362 0e60 059B     		ldr	r3, [sp, #20]
 2363 0e62 4FF40072 		mov	r2, #512
 2364 0e66 5A61     		str	r2, [r3, #20]
 2365              		.loc 1 743 0
 2366 0e68 059B     		ldr	r3, [sp, #20]
 2367 0e6a 4FF40062 		mov	r2, #2048
 2368 0e6e 9A61     		str	r2, [r3, #24]
 2369              		.loc 1 744 0
 2370 0e70 059B     		ldr	r3, [sp, #20]
 2371 0e72 2022     		movs	r2, #32
 2372 0e74 DA61     		str	r2, [r3, #28]
 2373              		.loc 1 745 0
 2374 0e76 059B     		ldr	r3, [sp, #20]
 2375 0e78 4FF40052 		mov	r2, #8192
 2376 0e7c 1A62     		str	r2, [r3, #32]
 2377              		.loc 1 747 0
 2378 0e7e 019B     		ldr	r3, [sp, #4]
 2379 0e80 1A68     		ldr	r2, [r3]
 2380 0e82 204B     		ldr	r3, .L224+4
 2381 0e84 9A42     		cmp	r2, r3
 2382 0e86 03D1     		bne	.L219
 2383              		.loc 1 749 0
 2384 0e88 059B     		ldr	r3, [sp, #20]
ARM GAS  /tmp/ccGf2LCS.s 			page 43


 2385 0e8a 264A     		ldr	r2, .L224+36
 2386 0e8c 1A60     		str	r2, [r3]
 2387 0e8e 19E0     		b	.L220
 2388              	.L219:
 2389              		.loc 1 751 0
 2390 0e90 019B     		ldr	r3, [sp, #4]
 2391 0e92 1A68     		ldr	r2, [r3]
 2392 0e94 1D4B     		ldr	r3, .L224+12
 2393 0e96 9A42     		cmp	r2, r3
 2394 0e98 03D1     		bne	.L221
 2395              		.loc 1 753 0
 2396 0e9a 059B     		ldr	r3, [sp, #20]
 2397 0e9c 224A     		ldr	r2, .L224+40
 2398 0e9e 1A60     		str	r2, [r3]
 2399 0ea0 10E0     		b	.L220
 2400              	.L221:
 2401              		.loc 1 755 0
 2402 0ea2 019B     		ldr	r3, [sp, #4]
 2403 0ea4 1A68     		ldr	r2, [r3]
 2404 0ea6 1B4B     		ldr	r3, .L224+20
 2405 0ea8 9A42     		cmp	r2, r3
 2406 0eaa 03D1     		bne	.L222
 2407              		.loc 1 757 0
 2408 0eac 059B     		ldr	r3, [sp, #20]
 2409 0eae 1F4A     		ldr	r2, .L224+44
 2410 0eb0 1A60     		str	r2, [r3]
 2411 0eb2 07E0     		b	.L220
 2412              	.L222:
 2413              		.loc 1 759 0
 2414 0eb4 019B     		ldr	r3, [sp, #4]
 2415 0eb6 1A68     		ldr	r2, [r3]
 2416 0eb8 184B     		ldr	r3, .L224+28
 2417 0eba 9A42     		cmp	r2, r3
 2418 0ebc 02D1     		bne	.L220
 2419              		.loc 1 761 0
 2420 0ebe 059B     		ldr	r3, [sp, #20]
 2421 0ec0 1B4A     		ldr	r2, .L224+48
 2422 0ec2 1A60     		str	r2, [r3]
 2423              	.L220:
 2424              		.loc 1 765 0
 2425 0ec4 019B     		ldr	r3, [sp, #4]
 2426 0ec6 059A     		ldr	r2, [sp, #20]
 2427 0ec8 9A62     		str	r2, [r3, #40]
 2428 0eca 059B     		ldr	r3, [sp, #20]
 2429 0ecc 019A     		ldr	r2, [sp, #4]
 2430 0ece 9A62     		str	r2, [r3, #40]
 2431              		.loc 1 768 0
 2432 0ed0 059B     		ldr	r3, [sp, #20]
 2433 0ed2 0022     		movs	r2, #0
 2434 0ed4 83F82520 		strb	r2, [r3, #37]
 2435              		.loc 1 771 0
 2436 0ed8 0598     		ldr	r0, [sp, #20]
 2437 0eda FFF7FEFF 		bl	HAL_DMA_Init
 2438              		.loc 1 774 0
 2439 0ede 019B     		ldr	r3, [sp, #4]
 2440 0ee0 1A68     		ldr	r2, [r3]
 2441 0ee2 084B     		ldr	r3, .L224+4
ARM GAS  /tmp/ccGf2LCS.s 			page 44


 2442 0ee4 9A42     		cmp	r2, r3
 2443 0ee6 07D1     		bne	.L214
 2444              		.loc 1 776 0
 2445 0ee8 0E20     		movs	r0, #14
 2446 0eea 0621     		movs	r1, #6
 2447 0eec 0022     		movs	r2, #0
 2448 0eee FFF7FEFF 		bl	HAL_NVIC_SetPriority
 2449              		.loc 1 778 0
 2450 0ef2 0E20     		movs	r0, #14
 2451 0ef4 FFF7FEFF 		bl	HAL_NVIC_EnableIRQ
 2452              	.L214:
 2453              		.loc 1 780 0
 2454 0ef8 07B0     		add	sp, sp, #28
 2455              		@ sp needed
 2456 0efa 5DF804FB 		ldr	pc, [sp], #4
 2457              	.L225:
 2458 0efe 00BF     		.align	2
 2459              	.L224:
 2460 0f00 00100240 		.word	1073876992
 2461 0f04 00610140 		.word	1073832192
 2462 0f08 00000000 		.word	hdma_dfsdmReg_FLT
 2463 0f0c 80610140 		.word	1073832320
 2464 0f10 48000000 		.word	hdma_dfsdmReg_FLT+72
 2465 0f14 00620140 		.word	1073832448
 2466 0f18 90000000 		.word	hdma_dfsdmReg_FLT+144
 2467 0f1c 80620140 		.word	1073832576
 2468 0f20 D8000000 		.word	hdma_dfsdmReg_FLT+216
 2469 0f24 44000240 		.word	1073872964
 2470 0f28 58000240 		.word	1073872984
 2471 0f2c 6C000240 		.word	1073873004
 2472 0f30 80000240 		.word	1073873024
 2473              		.cfi_endproc
 2474              	.LFE135:
 2475              		.size	DFSDMx_FilterMspInit, .-DFSDMx_FilterMspInit
 2476              		.align	2
 2477 0f34 AFF30080 		.p2align 4,,15
 2477      AFF30080 
 2477      AFF30080 
 2478              		.thumb
 2479              		.thumb_func
 2480              		.type	DFSDMx_DeInit, %function
 2481              	DFSDMx_DeInit:
 2482              	.LFB136:
 2483              		.loc 1 787 0
 2484              		.cfi_startproc
 2485              		@ args = 0, pretend = 0, frame = 8
 2486              		@ frame_needed = 0, uses_anonymous_args = 0
 2487 0f40 00B5     		push	{lr}
 2488              		.cfi_def_cfa_offset 4
 2489              		.cfi_offset 14, -4
 2490 0f42 83B0     		sub	sp, sp, #12
 2491              		.cfi_def_cfa_offset 16
 2492              		.loc 1 789 0
 2493 0f44 0023     		movs	r3, #0
 2494 0f46 ADF80630 		strh	r3, [sp, #6]	@ movhi
 2495              		.loc 1 791 0
 2496 0f4a 0023     		movs	r3, #0
ARM GAS  /tmp/ccGf2LCS.s 			page 45


 2497 0f4c ADF80630 		strh	r3, [sp, #6]	@ movhi
 2498 0f50 38E0     		b	.L227
 2499              	.L231:
 2500              		.loc 1 793 0
 2501 0f52 BDF80630 		ldrh	r3, [sp, #6]
 2502 0f56 5422     		movs	r2, #84
 2503 0f58 02FB03F2 		mul	r2, r2, r3
 2504 0f5c 1F4B     		ldr	r3, .L232
 2505 0f5e 1344     		add	r3, r3, r2
 2506 0f60 1846     		mov	r0, r3
 2507 0f62 FFF7FEFF 		bl	HAL_DFSDM_FilterDeInit
 2508 0f66 0346     		mov	r3, r0
 2509 0f68 002B     		cmp	r3, #0
 2510 0f6a 01D0     		beq	.L228
 2511              		.loc 1 795 0
 2512 0f6c 0123     		movs	r3, #1
 2513 0f6e 30E0     		b	.L229
 2514              	.L228:
 2515              		.loc 1 797 0
 2516 0f70 BDF80620 		ldrh	r2, [sp, #6]
 2517 0f74 1346     		mov	r3, r2
 2518 0f76 DB00     		lsls	r3, r3, #3
 2519 0f78 9B1A     		subs	r3, r3, r2
 2520 0f7a DB00     		lsls	r3, r3, #3
 2521 0f7c 184A     		ldr	r2, .L232+4
 2522 0f7e 1344     		add	r3, r3, r2
 2523 0f80 1846     		mov	r0, r3
 2524 0f82 FFF7FEFF 		bl	HAL_DFSDM_ChannelDeInit
 2525 0f86 0346     		mov	r3, r0
 2526 0f88 002B     		cmp	r3, #0
 2527 0f8a 01D0     		beq	.L230
 2528              		.loc 1 799 0
 2529 0f8c 0123     		movs	r3, #1
 2530 0f8e 20E0     		b	.L229
 2531              	.L230:
 2532              		.loc 1 801 0
 2533 0f90 BDF80630 		ldrh	r3, [sp, #6]
 2534 0f94 5422     		movs	r2, #84
 2535 0f96 02FB03F2 		mul	r2, r2, r3
 2536 0f9a 104B     		ldr	r3, .L232
 2537 0f9c 1344     		add	r3, r3, r2
 2538 0f9e 1846     		mov	r0, r3
 2539 0fa0 00F03EF8 		bl	DFSDMx_FilterMspDeInit
 2540              		.loc 1 802 0
 2541 0fa4 BDF80620 		ldrh	r2, [sp, #6]
 2542 0fa8 1346     		mov	r3, r2
 2543 0faa DB00     		lsls	r3, r3, #3
 2544 0fac 9B1A     		subs	r3, r3, r2
 2545 0fae DB00     		lsls	r3, r3, #3
 2546 0fb0 0B4A     		ldr	r2, .L232+4
 2547 0fb2 1344     		add	r3, r3, r2
 2548 0fb4 1846     		mov	r0, r3
 2549 0fb6 00F01BF8 		bl	DFSDMx_ChannelMspDeInit
 2550              		.loc 1 791 0
 2551 0fba BDF80630 		ldrh	r3, [sp, #6]
 2552 0fbe 0133     		adds	r3, r3, #1
 2553 0fc0 ADF80630 		strh	r3, [sp, #6]	@ movhi
ARM GAS  /tmp/ccGf2LCS.s 			page 46


 2554              	.L227:
 2555              		.loc 1 791 0 is_stmt 0 discriminator 1
 2556 0fc4 BDF80620 		ldrh	r2, [sp, #6]
 2557 0fc8 064B     		ldr	r3, .L232+8
 2558 0fca 1B68     		ldr	r3, [r3]
 2559 0fcc 9A42     		cmp	r2, r3
 2560 0fce C0D3     		bcc	.L231
 2561              		.loc 1 805 0 is_stmt 1
 2562 0fd0 0023     		movs	r3, #0
 2563              	.L229:
 2564              		.loc 1 806 0
 2565 0fd2 1846     		mov	r0, r3
 2566 0fd4 03B0     		add	sp, sp, #12
 2567              		@ sp needed
 2568 0fd6 5DF804FB 		ldr	pc, [sp], #4
 2569              	.L233:
 2570 0fda 00BF     		.align	2
 2571              	.L232:
 2572 0fdc 00000000 		.word	haudio_in_dfsdmfilter
 2573 0fe0 00000000 		.word	haudio_in_dfsdmchannel
 2574 0fe4 00000000 		.word	SENSORTILE_AudioIn_Handler
 2575              		.cfi_endproc
 2576              	.LFE136:
 2577              		.size	DFSDMx_DeInit, .-DFSDMx_DeInit
 2578              		.align	2
 2579 0fe8 AFF30080 		.p2align 4,,15
 2579      AFF30080 
 2580              		.thumb
 2581              		.thumb_func
 2582              		.type	DFSDMx_ChannelMspDeInit, %function
 2583              	DFSDMx_ChannelMspDeInit:
 2584              	.LFB137:
 2585              		.loc 1 814 0
 2586              		.cfi_startproc
 2587              		@ args = 0, pretend = 0, frame = 32
 2588              		@ frame_needed = 0, uses_anonymous_args = 0
 2589 0ff0 00B5     		push	{lr}
 2590              		.cfi_def_cfa_offset 4
 2591              		.cfi_offset 14, -4
 2592 0ff2 89B0     		sub	sp, sp, #36
 2593              		.cfi_def_cfa_offset 40
 2594 0ff4 0190     		str	r0, [sp, #4]
 2595              		.loc 1 818 0
 2596 0ff6 0423     		movs	r3, #4
 2597 0ff8 0393     		str	r3, [sp, #12]
 2598              		.loc 1 819 0
 2599 0ffa 039B     		ldr	r3, [sp, #12]
 2600 0ffc 0648     		ldr	r0, .L235
 2601 0ffe 1946     		mov	r1, r3
 2602 1000 FFF7FEFF 		bl	HAL_GPIO_DeInit
 2603              		.loc 1 821 0
 2604 1004 4023     		movs	r3, #64
 2605 1006 0393     		str	r3, [sp, #12]
 2606              		.loc 1 822 0
 2607 1008 039B     		ldr	r3, [sp, #12]
 2608 100a 0448     		ldr	r0, .L235+4
 2609 100c 1946     		mov	r1, r3
ARM GAS  /tmp/ccGf2LCS.s 			page 47


 2610 100e FFF7FEFF 		bl	HAL_GPIO_DeInit
 2611              		.loc 1 823 0
 2612 1012 09B0     		add	sp, sp, #36
 2613              		@ sp needed
 2614 1014 5DF804FB 		ldr	pc, [sp], #4
 2615              	.L236:
 2616              		.align	2
 2617              	.L235:
 2618 1018 00080048 		.word	1207961600
 2619 101c 00040048 		.word	1207960576
 2620              		.cfi_endproc
 2621              	.LFE137:
 2622              		.size	DFSDMx_ChannelMspDeInit, .-DFSDMx_ChannelMspDeInit
 2623              		.align	2
 2624              		.p2align 4,,15
 2625              		.thumb
 2626              		.thumb_func
 2627              		.type	DFSDMx_FilterMspDeInit, %function
 2628              	DFSDMx_FilterMspDeInit:
 2629              	.LFB138:
 2630              		.loc 1 831 0
 2631              		.cfi_startproc
 2632              		@ args = 0, pretend = 0, frame = 16
 2633              		@ frame_needed = 0, uses_anonymous_args = 0
 2634 1020 00B5     		push	{lr}
 2635              		.cfi_def_cfa_offset 4
 2636              		.cfi_offset 14, -4
 2637 1022 85B0     		sub	sp, sp, #20
 2638              		.cfi_def_cfa_offset 24
 2639 1024 0190     		str	r0, [sp, #4]
 2640              		.loc 1 832 0
 2641 1026 0023     		movs	r3, #0
 2642 1028 0393     		str	r3, [sp, #12]
 2643              		.loc 1 834 0
 2644 102a 019B     		ldr	r3, [sp, #4]
 2645 102c 1A68     		ldr	r2, [r3]
 2646 102e 114B     		ldr	r3, .L242
 2647 1030 9A42     		cmp	r2, r3
 2648 1032 02D1     		bne	.L238
 2649              		.loc 1 836 0
 2650 1034 104B     		ldr	r3, .L242+4
 2651 1036 0393     		str	r3, [sp, #12]
 2652 1038 16E0     		b	.L239
 2653              	.L238:
 2654              		.loc 1 838 0
 2655 103a 019B     		ldr	r3, [sp, #4]
 2656 103c 1A68     		ldr	r2, [r3]
 2657 103e 0F4B     		ldr	r3, .L242+8
 2658 1040 9A42     		cmp	r2, r3
 2659 1042 02D1     		bne	.L240
 2660              		.loc 1 840 0
 2661 1044 0E4B     		ldr	r3, .L242+12
 2662 1046 0393     		str	r3, [sp, #12]
 2663 1048 0EE0     		b	.L239
 2664              	.L240:
 2665              		.loc 1 842 0
 2666 104a 019B     		ldr	r3, [sp, #4]
ARM GAS  /tmp/ccGf2LCS.s 			page 48


 2667 104c 1A68     		ldr	r2, [r3]
 2668 104e 0D4B     		ldr	r3, .L242+16
 2669 1050 9A42     		cmp	r2, r3
 2670 1052 02D1     		bne	.L241
 2671              		.loc 1 844 0
 2672 1054 0C4B     		ldr	r3, .L242+20
 2673 1056 0393     		str	r3, [sp, #12]
 2674 1058 06E0     		b	.L239
 2675              	.L241:
 2676              		.loc 1 846 0
 2677 105a 019B     		ldr	r3, [sp, #4]
 2678 105c 1A68     		ldr	r2, [r3]
 2679 105e 0B4B     		ldr	r3, .L242+24
 2680 1060 9A42     		cmp	r2, r3
 2681 1062 01D1     		bne	.L239
 2682              		.loc 1 848 0
 2683 1064 0A4B     		ldr	r3, .L242+28
 2684 1066 0393     		str	r3, [sp, #12]
 2685              	.L239:
 2686              		.loc 1 852 0
 2687 1068 0398     		ldr	r0, [sp, #12]
 2688 106a FFF7FEFF 		bl	HAL_DMA_DeInit
 2689              		.loc 1 853 0
 2690 106e 05B0     		add	sp, sp, #20
 2691              		@ sp needed
 2692 1070 5DF804FB 		ldr	pc, [sp], #4
 2693              	.L243:
 2694              		.align	2
 2695              	.L242:
 2696 1074 00610140 		.word	1073832192
 2697 1078 00000000 		.word	hdma_dfsdmReg_FLT
 2698 107c 80610140 		.word	1073832320
 2699 1080 48000000 		.word	hdma_dfsdmReg_FLT+72
 2700 1084 00620140 		.word	1073832448
 2701 1088 90000000 		.word	hdma_dfsdmReg_FLT+144
 2702 108c 80620140 		.word	1073832576
 2703 1090 D8000000 		.word	hdma_dfsdmReg_FLT+216
 2704              		.cfi_endproc
 2705              	.LFE138:
 2706              		.size	DFSDMx_FilterMspDeInit, .-DFSDMx_FilterMspDeInit
 2707              		.align	2
 2708 1094 AFF30080 		.p2align 4,,15
 2708      AFF30080 
 2708      AFF30080 
 2709              		.global	HAL_DFSDM_FilterRegConvCpltCallback
 2710              		.thumb
 2711              		.thumb_func
 2712              		.type	HAL_DFSDM_FilterRegConvCpltCallback, %function
 2713              	HAL_DFSDM_FilterRegConvCpltCallback:
 2714              	.LFB139:
 2715              		.loc 1 862 0
 2716              		.cfi_startproc
 2717              		@ args = 0, pretend = 0, frame = 16
 2718              		@ frame_needed = 0, uses_anonymous_args = 0
 2719 10a0 00B5     		push	{lr}
 2720              		.cfi_def_cfa_offset 4
 2721              		.cfi_offset 14, -4
ARM GAS  /tmp/ccGf2LCS.s 			page 49


 2722 10a2 85B0     		sub	sp, sp, #20
 2723              		.cfi_def_cfa_offset 24
 2724 10a4 0190     		str	r0, [sp, #4]
 2725              		.loc 1 863 0
 2726 10a6 0023     		movs	r3, #0
 2727 10a8 0293     		str	r3, [sp, #8]
 2728              		.loc 1 865 0
 2729 10aa 019A     		ldr	r2, [sp, #4]
 2730 10ac 574B     		ldr	r3, .L253
 2731 10ae 9A42     		cmp	r2, r3
 2732 10b0 40F0A980 		bne	.L244
 2733              		.loc 1 867 0
 2734 10b4 0023     		movs	r3, #0
 2735 10b6 0293     		str	r3, [sp, #8]
 2736 10b8 9DE0     		b	.L246
 2737              	.L252:
 2738              		.loc 1 869 0
 2739 10ba 0023     		movs	r3, #0
 2740 10bc 0393     		str	r3, [sp, #12]
 2741 10be 8DE0     		b	.L247
 2742              	.L251:
 2743              		.loc 1 871 0
 2744 10c0 534B     		ldr	r3, .L253+4
 2745 10c2 5A68     		ldr	r2, [r3, #4]
 2746 10c4 534B     		ldr	r3, .L253+8
 2747 10c6 A3FB0213 		umull	r1, r3, r3, r2
 2748 10ca 9A09     		lsrs	r2, r3, #6
 2749 10cc 039B     		ldr	r3, [sp, #12]
 2750 10ce D018     		adds	r0, r2, r3
 2751 10d0 5149     		ldr	r1, .L253+12
 2752 10d2 029A     		ldr	r2, [sp, #8]
 2753 10d4 1346     		mov	r3, r2
 2754 10d6 5B00     		lsls	r3, r3, #1
 2755 10d8 1344     		add	r3, r3, r2
 2756 10da 9B01     		lsls	r3, r3, #6
 2757 10dc 0344     		add	r3, r3, r0
 2758 10de 51F82330 		ldr	r3, [r1, r3, lsl #2]
 2759 10e2 1B12     		asrs	r3, r3, #8
 2760 10e4 4D4A     		ldr	r2, .L253+16
 2761 10e6 1288     		ldrh	r2, [r2]
 2762 10e8 02FB03F3 		mul	r3, r2, r3
 2763 10ec D911     		asrs	r1, r3, #7
 2764 10ee 4848     		ldr	r0, .L253+4
 2765 10f0 029A     		ldr	r2, [sp, #8]
 2766 10f2 1346     		mov	r3, r2
 2767 10f4 5B00     		lsls	r3, r3, #1
 2768 10f6 1344     		add	r3, r3, r2
 2769 10f8 9B00     		lsls	r3, r3, #2
 2770 10fa 0344     		add	r3, r3, r0
 2771 10fc 0833     		adds	r3, r3, #8
 2772 10fe 1960     		str	r1, [r3]
 2773              		.loc 1 872 0
 2774 1100 4349     		ldr	r1, .L253+4
 2775 1102 029A     		ldr	r2, [sp, #8]
 2776 1104 1346     		mov	r3, r2
 2777 1106 5B00     		lsls	r3, r3, #1
 2778 1108 1344     		add	r3, r3, r2
ARM GAS  /tmp/ccGf2LCS.s 			page 50


 2779 110a 9B00     		lsls	r3, r3, #2
 2780 110c 0B44     		add	r3, r3, r1
 2781 110e 0833     		adds	r3, r3, #8
 2782 1110 5968     		ldr	r1, [r3, #4]
 2783 1112 3F48     		ldr	r0, .L253+4
 2784 1114 029A     		ldr	r2, [sp, #8]
 2785 1116 1346     		mov	r3, r2
 2786 1118 5B00     		lsls	r3, r3, #1
 2787 111a 1344     		add	r3, r3, r2
 2788 111c 9B00     		lsls	r3, r3, #2
 2789 111e 0344     		add	r3, r3, r0
 2790 1120 0833     		adds	r3, r3, #8
 2791 1122 1B68     		ldr	r3, [r3]
 2792 1124 1944     		add	r1, r1, r3
 2793 1126 3A48     		ldr	r0, .L253+4
 2794 1128 029A     		ldr	r2, [sp, #8]
 2795 112a 1346     		mov	r3, r2
 2796 112c 5B00     		lsls	r3, r3, #1
 2797 112e 1344     		add	r3, r3, r2
 2798 1130 9B00     		lsls	r3, r3, #2
 2799 1132 0344     		add	r3, r3, r0
 2800 1134 1033     		adds	r3, r3, #16
 2801 1136 1B68     		ldr	r3, [r3]
 2802 1138 CA1A     		subs	r2, r1, r3
 2803 113a 1346     		mov	r3, r2
 2804 113c 9B01     		lsls	r3, r3, #6
 2805 113e 9B1A     		subs	r3, r3, r2
 2806 1140 9B00     		lsls	r3, r3, #2
 2807 1142 002B     		cmp	r3, #0
 2808 1144 00DA     		bge	.L248
 2809 1146 FF33     		adds	r3, r3, #255
 2810              	.L248:
 2811 1148 1B12     		asrs	r3, r3, #8
 2812 114a 1946     		mov	r1, r3
 2813 114c 3048     		ldr	r0, .L253+4
 2814 114e 029A     		ldr	r2, [sp, #8]
 2815 1150 1346     		mov	r3, r2
 2816 1152 5B00     		lsls	r3, r3, #1
 2817 1154 1344     		add	r3, r3, r2
 2818 1156 9B00     		lsls	r3, r3, #2
 2819 1158 0344     		add	r3, r3, r0
 2820 115a 0833     		adds	r3, r3, #8
 2821 115c 5960     		str	r1, [r3, #4]
 2822              		.loc 1 873 0
 2823 115e 2C49     		ldr	r1, .L253+4
 2824 1160 029A     		ldr	r2, [sp, #8]
 2825 1162 1346     		mov	r3, r2
 2826 1164 5B00     		lsls	r3, r3, #1
 2827 1166 1344     		add	r3, r3, r2
 2828 1168 9B00     		lsls	r3, r3, #2
 2829 116a 0B44     		add	r3, r3, r1
 2830 116c 0833     		adds	r3, r3, #8
 2831 116e 1968     		ldr	r1, [r3]
 2832 1170 2748     		ldr	r0, .L253+4
 2833 1172 029A     		ldr	r2, [sp, #8]
 2834 1174 1346     		mov	r3, r2
 2835 1176 5B00     		lsls	r3, r3, #1
ARM GAS  /tmp/ccGf2LCS.s 			page 51


 2836 1178 1344     		add	r3, r3, r2
 2837 117a 9B00     		lsls	r3, r3, #2
 2838 117c 0344     		add	r3, r3, r0
 2839 117e 1033     		adds	r3, r3, #16
 2840 1180 1960     		str	r1, [r3]
 2841              		.loc 1 874 0
 2842 1182 234B     		ldr	r3, .L253+4
 2843 1184 9A6B     		ldr	r2, [r3, #56]
 2844 1186 224B     		ldr	r3, .L253+4
 2845 1188 1B68     		ldr	r3, [r3]
 2846 118a 0399     		ldr	r1, [sp, #12]
 2847 118c 01FB03F1 		mul	r1, r1, r3
 2848 1190 029B     		ldr	r3, [sp, #8]
 2849 1192 0B44     		add	r3, r3, r1
 2850 1194 5B00     		lsls	r3, r3, #1
 2851 1196 D118     		adds	r1, r2, r3
 2852 1198 1D48     		ldr	r0, .L253+4
 2853 119a 029A     		ldr	r2, [sp, #8]
 2854 119c 1346     		mov	r3, r2
 2855 119e 5B00     		lsls	r3, r3, #1
 2856 11a0 1344     		add	r3, r3, r2
 2857 11a2 9B00     		lsls	r3, r3, #2
 2858 11a4 0344     		add	r3, r3, r0
 2859 11a6 0833     		adds	r3, r3, #8
 2860 11a8 5A68     		ldr	r2, [r3, #4]
 2861 11aa 1D4B     		ldr	r3, .L253+20
 2862 11ac 9A42     		cmp	r2, r3
 2863 11ae 0FDB     		blt	.L249
 2864              		.loc 1 874 0 is_stmt 0 discriminator 1
 2865 11b0 1748     		ldr	r0, .L253+4
 2866 11b2 029A     		ldr	r2, [sp, #8]
 2867 11b4 1346     		mov	r3, r2
 2868 11b6 5B00     		lsls	r3, r3, #1
 2869 11b8 1344     		add	r3, r3, r2
 2870 11ba 9B00     		lsls	r3, r3, #2
 2871 11bc 0344     		add	r3, r3, r0
 2872 11be 0833     		adds	r3, r3, #8
 2873 11c0 5A68     		ldr	r2, [r3, #4]
 2874 11c2 47F6F873 		movw	r3, #32760
 2875 11c6 9A42     		cmp	r2, r3
 2876 11c8 B8BF     		it	lt
 2877 11ca 1346     		movlt	r3, r2
 2878 11cc 9BB2     		uxth	r3, r3
 2879 11ce 01E0     		b	.L250
 2880              	.L249:
 2881              		.loc 1 874 0 discriminator 2
 2882 11d0 48F20803 		movw	r3, #32776
 2883              	.L250:
 2884              		.loc 1 874 0 discriminator 3
 2885 11d4 0B80     		strh	r3, [r1]	@ movhi
 2886              		.loc 1 869 0 is_stmt 1 discriminator 3
 2887 11d6 039B     		ldr	r3, [sp, #12]
 2888 11d8 0133     		adds	r3, r3, #1
 2889 11da 0393     		str	r3, [sp, #12]
 2890              	.L247:
 2891              		.loc 1 869 0 is_stmt 0 discriminator 1
 2892 11dc 0C4B     		ldr	r3, .L253+4
ARM GAS  /tmp/ccGf2LCS.s 			page 52


 2893 11de 5A68     		ldr	r2, [r3, #4]
 2894 11e0 0C4B     		ldr	r3, .L253+8
 2895 11e2 A3FB0213 		umull	r1, r3, r3, r2
 2896 11e6 9A09     		lsrs	r2, r3, #6
 2897 11e8 039B     		ldr	r3, [sp, #12]
 2898 11ea 9A42     		cmp	r2, r3
 2899 11ec 3FF668AF 		bhi	.L251
 2900              		.loc 1 867 0 is_stmt 1
 2901 11f0 029B     		ldr	r3, [sp, #8]
 2902 11f2 0133     		adds	r3, r3, #1
 2903 11f4 0293     		str	r3, [sp, #8]
 2904              	.L246:
 2905              		.loc 1 867 0 is_stmt 0 discriminator 1
 2906 11f6 064B     		ldr	r3, .L253+4
 2907 11f8 1A68     		ldr	r2, [r3]
 2908 11fa 029B     		ldr	r3, [sp, #8]
 2909 11fc 9A42     		cmp	r2, r3
 2910 11fe 3FF65CAF 		bhi	.L252
 2911              		.loc 1 877 0 is_stmt 1
 2912 1202 FFF7FEFF 		bl	BSP_AUDIO_IN_TransferComplete_CallBack
 2913              	.L244:
 2914              		.loc 1 879 0
 2915 1206 05B0     		add	sp, sp, #20
 2916              		@ sp needed
 2917 1208 5DF804FB 		ldr	pc, [sp], #4
 2918              	.L254:
 2919              		.align	2
 2920              	.L253:
 2921 120c 00000000 		.word	haudio_in_dfsdmfilter
 2922 1210 00000000 		.word	SENSORTILE_AudioIn_Handler
 2923 1214 D34D6210 		.word	274877907
 2924 1218 00000000 		.word	RecBuff
 2925 121c 00000000 		.word	AudioInVolume
 2926 1220 0880FFFF 		.word	-32760
 2927              		.cfi_endproc
 2928              	.LFE139:
 2929              		.size	HAL_DFSDM_FilterRegConvCpltCallback, .-HAL_DFSDM_FilterRegConvCpltCallback
 2930              		.align	2
 2931 1224 AFF30080 		.p2align 4,,15
 2931      AFF30080 
 2931      AFF30080 
 2932              		.global	HAL_DFSDM_FilterRegConvHalfCpltCallback
 2933              		.thumb
 2934              		.thumb_func
 2935              		.type	HAL_DFSDM_FilterRegConvHalfCpltCallback, %function
 2936              	HAL_DFSDM_FilterRegConvHalfCpltCallback:
 2937              	.LFB140:
 2938              		.loc 1 887 0
 2939              		.cfi_startproc
 2940              		@ args = 0, pretend = 0, frame = 16
 2941              		@ frame_needed = 0, uses_anonymous_args = 0
 2942 1230 00B5     		push	{lr}
 2943              		.cfi_def_cfa_offset 4
 2944              		.cfi_offset 14, -4
 2945 1232 85B0     		sub	sp, sp, #20
 2946              		.cfi_def_cfa_offset 24
 2947 1234 0190     		str	r0, [sp, #4]
ARM GAS  /tmp/ccGf2LCS.s 			page 53


 2948              		.loc 1 888 0
 2949 1236 0023     		movs	r3, #0
 2950 1238 0293     		str	r3, [sp, #8]
 2951              		.loc 1 889 0
 2952 123a 019A     		ldr	r2, [sp, #4]
 2953 123c 544B     		ldr	r3, .L264
 2954 123e 9A42     		cmp	r2, r3
 2955 1240 40F0A280 		bne	.L255
 2956              		.loc 1 891 0
 2957 1244 0023     		movs	r3, #0
 2958 1246 0293     		str	r3, [sp, #8]
 2959 1248 96E0     		b	.L257
 2960              	.L263:
 2961              		.loc 1 893 0
 2962 124a 0023     		movs	r3, #0
 2963 124c 0393     		str	r3, [sp, #12]
 2964 124e 86E0     		b	.L258
 2965              	.L262:
 2966              		.loc 1 895 0
 2967 1250 5049     		ldr	r1, .L264+4
 2968 1252 029A     		ldr	r2, [sp, #8]
 2969 1254 1346     		mov	r3, r2
 2970 1256 5B00     		lsls	r3, r3, #1
 2971 1258 1344     		add	r3, r3, r2
 2972 125a 9B01     		lsls	r3, r3, #6
 2973 125c 039A     		ldr	r2, [sp, #12]
 2974 125e 1344     		add	r3, r3, r2
 2975 1260 51F82330 		ldr	r3, [r1, r3, lsl #2]
 2976 1264 1B12     		asrs	r3, r3, #8
 2977 1266 4C4A     		ldr	r2, .L264+8
 2978 1268 1288     		ldrh	r2, [r2]
 2979 126a 02FB03F3 		mul	r3, r2, r3
 2980 126e D911     		asrs	r1, r3, #7
 2981 1270 4A48     		ldr	r0, .L264+12
 2982 1272 029A     		ldr	r2, [sp, #8]
 2983 1274 1346     		mov	r3, r2
 2984 1276 5B00     		lsls	r3, r3, #1
 2985 1278 1344     		add	r3, r3, r2
 2986 127a 9B00     		lsls	r3, r3, #2
 2987 127c 0344     		add	r3, r3, r0
 2988 127e 0833     		adds	r3, r3, #8
 2989 1280 1960     		str	r1, [r3]
 2990              		.loc 1 896 0
 2991 1282 4649     		ldr	r1, .L264+12
 2992 1284 029A     		ldr	r2, [sp, #8]
 2993 1286 1346     		mov	r3, r2
 2994 1288 5B00     		lsls	r3, r3, #1
 2995 128a 1344     		add	r3, r3, r2
 2996 128c 9B00     		lsls	r3, r3, #2
 2997 128e 0B44     		add	r3, r3, r1
 2998 1290 0833     		adds	r3, r3, #8
 2999 1292 5968     		ldr	r1, [r3, #4]
 3000 1294 4148     		ldr	r0, .L264+12
 3001 1296 029A     		ldr	r2, [sp, #8]
 3002 1298 1346     		mov	r3, r2
 3003 129a 5B00     		lsls	r3, r3, #1
 3004 129c 1344     		add	r3, r3, r2
ARM GAS  /tmp/ccGf2LCS.s 			page 54


 3005 129e 9B00     		lsls	r3, r3, #2
 3006 12a0 0344     		add	r3, r3, r0
 3007 12a2 0833     		adds	r3, r3, #8
 3008 12a4 1B68     		ldr	r3, [r3]
 3009 12a6 1944     		add	r1, r1, r3
 3010 12a8 3C48     		ldr	r0, .L264+12
 3011 12aa 029A     		ldr	r2, [sp, #8]
 3012 12ac 1346     		mov	r3, r2
 3013 12ae 5B00     		lsls	r3, r3, #1
 3014 12b0 1344     		add	r3, r3, r2
 3015 12b2 9B00     		lsls	r3, r3, #2
 3016 12b4 0344     		add	r3, r3, r0
 3017 12b6 1033     		adds	r3, r3, #16
 3018 12b8 1B68     		ldr	r3, [r3]
 3019 12ba CA1A     		subs	r2, r1, r3
 3020 12bc 1346     		mov	r3, r2
 3021 12be 9B01     		lsls	r3, r3, #6
 3022 12c0 9B1A     		subs	r3, r3, r2
 3023 12c2 9B00     		lsls	r3, r3, #2
 3024 12c4 002B     		cmp	r3, #0
 3025 12c6 00DA     		bge	.L259
 3026 12c8 FF33     		adds	r3, r3, #255
 3027              	.L259:
 3028 12ca 1B12     		asrs	r3, r3, #8
 3029 12cc 1946     		mov	r1, r3
 3030 12ce 3348     		ldr	r0, .L264+12
 3031 12d0 029A     		ldr	r2, [sp, #8]
 3032 12d2 1346     		mov	r3, r2
 3033 12d4 5B00     		lsls	r3, r3, #1
 3034 12d6 1344     		add	r3, r3, r2
 3035 12d8 9B00     		lsls	r3, r3, #2
 3036 12da 0344     		add	r3, r3, r0
 3037 12dc 0833     		adds	r3, r3, #8
 3038 12de 5960     		str	r1, [r3, #4]
 3039              		.loc 1 897 0
 3040 12e0 2E49     		ldr	r1, .L264+12
 3041 12e2 029A     		ldr	r2, [sp, #8]
 3042 12e4 1346     		mov	r3, r2
 3043 12e6 5B00     		lsls	r3, r3, #1
 3044 12e8 1344     		add	r3, r3, r2
 3045 12ea 9B00     		lsls	r3, r3, #2
 3046 12ec 0B44     		add	r3, r3, r1
 3047 12ee 0833     		adds	r3, r3, #8
 3048 12f0 1968     		ldr	r1, [r3]
 3049 12f2 2A48     		ldr	r0, .L264+12
 3050 12f4 029A     		ldr	r2, [sp, #8]
 3051 12f6 1346     		mov	r3, r2
 3052 12f8 5B00     		lsls	r3, r3, #1
 3053 12fa 1344     		add	r3, r3, r2
 3054 12fc 9B00     		lsls	r3, r3, #2
 3055 12fe 0344     		add	r3, r3, r0
 3056 1300 1033     		adds	r3, r3, #16
 3057 1302 1960     		str	r1, [r3]
 3058              		.loc 1 898 0
 3059 1304 254B     		ldr	r3, .L264+12
 3060 1306 9A6B     		ldr	r2, [r3, #56]
 3061 1308 244B     		ldr	r3, .L264+12
ARM GAS  /tmp/ccGf2LCS.s 			page 55


 3062 130a 1B68     		ldr	r3, [r3]
 3063 130c 0399     		ldr	r1, [sp, #12]
 3064 130e 01FB03F1 		mul	r1, r1, r3
 3065 1312 029B     		ldr	r3, [sp, #8]
 3066 1314 0B44     		add	r3, r3, r1
 3067 1316 5B00     		lsls	r3, r3, #1
 3068 1318 D118     		adds	r1, r2, r3
 3069 131a 2048     		ldr	r0, .L264+12
 3070 131c 029A     		ldr	r2, [sp, #8]
 3071 131e 1346     		mov	r3, r2
 3072 1320 5B00     		lsls	r3, r3, #1
 3073 1322 1344     		add	r3, r3, r2
 3074 1324 9B00     		lsls	r3, r3, #2
 3075 1326 0344     		add	r3, r3, r0
 3076 1328 0833     		adds	r3, r3, #8
 3077 132a 5A68     		ldr	r2, [r3, #4]
 3078 132c 1C4B     		ldr	r3, .L264+16
 3079 132e 9A42     		cmp	r2, r3
 3080 1330 0FDB     		blt	.L260
 3081              		.loc 1 898 0 is_stmt 0 discriminator 1
 3082 1332 1A48     		ldr	r0, .L264+12
 3083 1334 029A     		ldr	r2, [sp, #8]
 3084 1336 1346     		mov	r3, r2
 3085 1338 5B00     		lsls	r3, r3, #1
 3086 133a 1344     		add	r3, r3, r2
 3087 133c 9B00     		lsls	r3, r3, #2
 3088 133e 0344     		add	r3, r3, r0
 3089 1340 0833     		adds	r3, r3, #8
 3090 1342 5A68     		ldr	r2, [r3, #4]
 3091 1344 47F6F873 		movw	r3, #32760
 3092 1348 9A42     		cmp	r2, r3
 3093 134a B8BF     		it	lt
 3094 134c 1346     		movlt	r3, r2
 3095 134e 9BB2     		uxth	r3, r3
 3096 1350 01E0     		b	.L261
 3097              	.L260:
 3098              		.loc 1 898 0 discriminator 2
 3099 1352 48F20803 		movw	r3, #32776
 3100              	.L261:
 3101              		.loc 1 898 0 discriminator 3
 3102 1356 0B80     		strh	r3, [r1]	@ movhi
 3103              		.loc 1 893 0 is_stmt 1 discriminator 3
 3104 1358 039B     		ldr	r3, [sp, #12]
 3105 135a 0133     		adds	r3, r3, #1
 3106 135c 0393     		str	r3, [sp, #12]
 3107              	.L258:
 3108              		.loc 1 893 0 is_stmt 0 discriminator 1
 3109 135e 0F4B     		ldr	r3, .L264+12
 3110 1360 5A68     		ldr	r2, [r3, #4]
 3111 1362 104B     		ldr	r3, .L264+20
 3112 1364 A3FB0213 		umull	r1, r3, r3, r2
 3113 1368 9A09     		lsrs	r2, r3, #6
 3114 136a 039B     		ldr	r3, [sp, #12]
 3115 136c 9A42     		cmp	r2, r3
 3116 136e 3FF66FAF 		bhi	.L262
 3117              		.loc 1 891 0 is_stmt 1
 3118 1372 029B     		ldr	r3, [sp, #8]
ARM GAS  /tmp/ccGf2LCS.s 			page 56


 3119 1374 0133     		adds	r3, r3, #1
 3120 1376 0293     		str	r3, [sp, #8]
 3121              	.L257:
 3122              		.loc 1 891 0 is_stmt 0 discriminator 1
 3123 1378 084B     		ldr	r3, .L264+12
 3124 137a 1A68     		ldr	r2, [r3]
 3125 137c 029B     		ldr	r3, [sp, #8]
 3126 137e 9A42     		cmp	r2, r3
 3127 1380 3FF663AF 		bhi	.L263
 3128              		.loc 1 901 0 is_stmt 1
 3129 1384 FFF7FEFF 		bl	BSP_AUDIO_IN_HalfTransfer_CallBack
 3130              	.L255:
 3131              		.loc 1 903 0
 3132 1388 05B0     		add	sp, sp, #20
 3133              		@ sp needed
 3134 138a 5DF804FB 		ldr	pc, [sp], #4
 3135              	.L265:
 3136 138e 00BF     		.align	2
 3137              	.L264:
 3138 1390 00000000 		.word	haudio_in_dfsdmfilter
 3139 1394 00000000 		.word	RecBuff
 3140 1398 00000000 		.word	AudioInVolume
 3141 139c 00000000 		.word	SENSORTILE_AudioIn_Handler
 3142 13a0 0880FFFF 		.word	-32760
 3143 13a4 D34D6210 		.word	274877907
 3144              		.cfi_endproc
 3145              	.LFE140:
 3146              		.size	HAL_DFSDM_FilterRegConvHalfCpltCallback, .-HAL_DFSDM_FilterRegConvHalfCpltCallback
 3147              		.align	2
 3148 13a8 AFF30080 		.p2align 4,,15
 3148      AFF30080 
 3149              		.weak	BSP_AUDIO_IN_TransferComplete_CallBack
 3150              		.thumb
 3151              		.thumb_func
 3152              		.type	BSP_AUDIO_IN_TransferComplete_CallBack, %function
 3153              	BSP_AUDIO_IN_TransferComplete_CallBack:
 3154              	.LFB141:
 3155              		.loc 1 910 0
 3156              		.cfi_startproc
 3157              		@ args = 0, pretend = 0, frame = 0
 3158              		@ frame_needed = 0, uses_anonymous_args = 0
 3159              		@ link register save eliminated.
 3160              		.loc 1 914 0
 3161 13b0 7047     		bx	lr
 3162              		.cfi_endproc
 3163              	.LFE141:
 3164              		.size	BSP_AUDIO_IN_TransferComplete_CallBack, .-BSP_AUDIO_IN_TransferComplete_CallBack
 3165 13b2 00BF     		.align	2
 3166 13b4 AFF30080 		.p2align 4,,15
 3166      AFF30080 
 3166      AFF30080 
 3167              		.weak	BSP_AUDIO_IN_HalfTransfer_CallBack
 3168              		.thumb
 3169              		.thumb_func
 3170              		.type	BSP_AUDIO_IN_HalfTransfer_CallBack, %function
 3171              	BSP_AUDIO_IN_HalfTransfer_CallBack:
 3172              	.LFB142:
ARM GAS  /tmp/ccGf2LCS.s 			page 57


 3173              		.loc 1 921 0
 3174              		.cfi_startproc
 3175              		@ args = 0, pretend = 0, frame = 0
 3176              		@ frame_needed = 0, uses_anonymous_args = 0
 3177              		@ link register save eliminated.
 3178              		.loc 1 925 0
 3179 13c0 7047     		bx	lr
 3180              		.cfi_endproc
 3181              	.LFE142:
 3182              		.size	BSP_AUDIO_IN_HalfTransfer_CallBack, .-BSP_AUDIO_IN_HalfTransfer_CallBack
 3183              	.Letext0:
 3184              		.file 2 "/nfs/nfs5/home/research/hardware/arm2/gcc-arm-embedded/gcc-arm-none-eabi-4_8-2014q2/arm-n
 3185              		.file 3 "/nfs/nfs5/home/research/hardware/arm2/gcc-arm-embedded/gcc-arm-none-eabi-4_8-2014q2/arm-n
 3186              		.file 4 "../../../../../../ChibiOS/os/ext/CMSIS/ST/STM32L4xx/stm32l476xx.h"
 3187              		.file 5 "../../../../../../ChibiOS/os/ext/CMSIS/ST/STM32L4xx/stm32l4xx.h"
 3188              		.file 6 "../../../../../Drivers/STM32L4xx_HAL_Driver/Inc/stm32l4xx_hal_def.h"
 3189              		.file 7 "../../../../../Drivers/STM32L4xx_HAL_Driver/Inc/stm32l4xx_hal_rcc_ex.h"
 3190              		.file 8 "../../../../../Drivers/STM32L4xx_HAL_Driver/Inc/stm32l4xx_hal_gpio.h"
 3191              		.file 9 "../../../../../Drivers/STM32L4xx_HAL_Driver/Inc/stm32l4xx_hal_dma.h"
 3192              		.file 10 "../../../../../Drivers/STM32L4xx_HAL_Driver/Inc/stm32l4xx_hal_dfsdm.h"
 3193              		.file 11 "../../../../../Drivers/BSP/SensorTile/SensorTile_audio_in.h"
 3194              		.file 12 "../../../../../../ChibiOS/os/ext/CMSIS/include/core_cm4.h"