ARM GAS  /tmp/cc75PYCl.s 			page 1


   1              		.syntax unified
   2              		.cpu cortex-m4
   3              		.fpu softvfp
   4              		.eabi_attribute 20, 1
   5              		.eabi_attribute 21, 1
   6              		.eabi_attribute 23, 3
   7              		.eabi_attribute 24, 1
   8              		.eabi_attribute 25, 1
   9              		.eabi_attribute 26, 1
  10              		.eabi_attribute 30, 6
  11              		.eabi_attribute 34, 1
  12              		.eabi_attribute 18, 4
  13              		.thumb
  14              		.file	"SensorTile_pressure.c"
  15              		.text
  16              	.Ltext0:
  17              		.cfi_sections	.debug_frame
  18              		.bss
  19              		.align	2
  20              	PRESSURE_SensorHandle:
  21 0000 00000000 		.space	20
  21      00000000 
  21      00000000 
  21      00000000 
  21      00000000 
  22              		.align	2
  23              	PRESSURE_Data:
  24 0014 00000000 		.space	8
  24      00000000 
  25              		.align	2
  26              	LPS22HB_P_0_Data:
  27 001c 00000000 		.space	4
  28              		.text
  29              		.align	2
  30              		.p2align 4,,15
  31              		.global	BSP_PRESSURE_Init
  32              		.thumb
  33              		.thumb_func
  34              		.type	BSP_PRESSURE_Init, %function
  35              	BSP_PRESSURE_Init:
  36              	.LFB125:
  37              		.file 1 "../../../../../Drivers/BSP/SensorTile/SensorTile_pressure.c"
  38              		.loc 1 102 0
  39              		.cfi_startproc
  40              		@ args = 0, pretend = 0, frame = 8
  41              		@ frame_needed = 0, uses_anonymous_args = 0
  42 0000 00B5     		push	{lr}
  43              		.cfi_def_cfa_offset 4
  44              		.cfi_offset 14, -4
  45 0002 83B0     		sub	sp, sp, #12
  46              		.cfi_def_cfa_offset 16
  47 0004 0346     		mov	r3, r0
  48 0006 0091     		str	r1, [sp]
  49 0008 8DF80730 		strb	r3, [sp, #7]
  50              		.loc 1 103 0
  51 000c 009B     		ldr	r3, [sp]
  52 000e 0022     		movs	r2, #0
ARM GAS  /tmp/cc75PYCl.s 			page 2


  53 0010 1A60     		str	r2, [r3]
  54              		.loc 1 105 0
  55 0012 9DF90730 		ldrsb	r3, [sp, #7]
  56 0016 002B     		cmp	r3, #0
  57 0018 08D0     		beq	.L3
  58              		.loc 1 110 0
  59 001a 0098     		ldr	r0, [sp]
  60 001c 00F018F8 		bl	BSP_LPS22HB_PRESSURE_Init
  61 0020 0346     		mov	r3, r0
  62 0022 012B     		cmp	r3, #1
  63 0024 01D1     		bne	.L4
  64              		.loc 1 112 0
  65 0026 0123     		movs	r3, #1
  66 0028 0AE0     		b	.L5
  67              	.L4:
  68              		.loc 1 114 0
  69 002a 08E0     		b	.L6
  70              	.L3:
  71              		.loc 1 118 0
  72 002c 0098     		ldr	r0, [sp]
  73 002e 00F00FF8 		bl	BSP_LPS22HB_PRESSURE_Init
  74 0032 0346     		mov	r3, r0
  75 0034 012B     		cmp	r3, #1
  76 0036 01D1     		bne	.L7
  77              		.loc 1 120 0
  78 0038 0123     		movs	r3, #1
  79 003a 01E0     		b	.L5
  80              	.L7:
  81              		.loc 1 122 0
  82 003c 00BF     		nop
  83              	.L6:
  84              		.loc 1 126 0
  85 003e 0023     		movs	r3, #0
  86              	.L5:
  87              		.loc 1 127 0
  88 0040 1846     		mov	r0, r3
  89 0042 03B0     		add	sp, sp, #12
  90              		@ sp needed
  91 0044 5DF804FB 		ldr	pc, [sp], #4
  92              		.cfi_endproc
  93              	.LFE125:
  94              		.size	BSP_PRESSURE_Init, .-BSP_PRESSURE_Init
  95              		.align	2
  96 0048 AFF30080 		.p2align 4,,15
  96      AFF30080 
  97              		.thumb
  98              		.thumb_func
  99              		.type	BSP_LPS22HB_PRESSURE_Init, %function
 100              	BSP_LPS22HB_PRESSURE_Init:
 101              	.LFB126:
 102              		.loc 1 130 0
 103              		.cfi_startproc
 104              		@ args = 0, pretend = 0, frame = 16
 105              		@ frame_needed = 0, uses_anonymous_args = 0
 106 0050 00B5     		push	{lr}
 107              		.cfi_def_cfa_offset 4
 108              		.cfi_offset 14, -4
ARM GAS  /tmp/cc75PYCl.s 			page 3


 109 0052 85B0     		sub	sp, sp, #20
 110              		.cfi_def_cfa_offset 24
 111 0054 0190     		str	r0, [sp, #4]
 112              		.loc 1 131 0
 113 0056 0023     		movs	r3, #0
 114 0058 0393     		str	r3, [sp, #12]
 115              		.loc 1 132 0
 116 005a 0123     		movs	r3, #1
 117 005c 8DF80B30 		strb	r3, [sp, #11]
 118              		.loc 1 134 0
 119 0060 4F4B     		ldr	r3, .L18
 120 0062 5B79     		ldrb	r3, [r3, #5]	@ zero_extendqisi2
 121 0064 012B     		cmp	r3, #1
 122 0066 01D1     		bne	.L9
 123              		.loc 1 137 0
 124 0068 0123     		movs	r3, #1
 125 006a 94E0     		b	.L17
 126              	.L9:
 127              		.loc 1 140 0
 128 006c FFF7FEFF 		bl	Sensor_IO_SPI_Init
 129 0070 0346     		mov	r3, r0
 130 0072 012B     		cmp	r3, #1
 131 0074 01D1     		bne	.L11
 132              		.loc 1 142 0
 133 0076 0123     		movs	r3, #1
 134 0078 8DE0     		b	.L17
 135              	.L11:
 136              		.loc 1 146 0
 137 007a 494B     		ldr	r3, .L18
 138 007c B122     		movs	r2, #177
 139 007e 1A70     		strb	r2, [r3]
 140              		.loc 1 147 0
 141 0080 474B     		ldr	r3, .L18
 142 0082 0122     		movs	r2, #1
 143 0084 5A70     		strb	r2, [r3, #1]
 144              		.loc 1 148 0
 145 0086 464B     		ldr	r3, .L18
 146 0088 BA22     		movs	r2, #186
 147 008a 9A70     		strb	r2, [r3, #2]
 148              		.loc 1 149 0
 149 008c 444B     		ldr	r3, .L18
 150 008e 0322     		movs	r2, #3
 151 0090 DA70     		strb	r2, [r3, #3]
 152              		.loc 1 150 0
 153 0092 434B     		ldr	r3, .L18
 154 0094 0022     		movs	r2, #0
 155 0096 1A71     		strb	r2, [r3, #4]
 156              		.loc 1 151 0
 157 0098 414B     		ldr	r3, .L18
 158 009a 0022     		movs	r2, #0
 159 009c 5A71     		strb	r2, [r3, #5]
 160              		.loc 1 152 0
 161 009e 404B     		ldr	r3, .L18
 162 00a0 0022     		movs	r2, #0
 163 00a2 9A71     		strb	r2, [r3, #6]
 164              		.loc 1 153 0
 165 00a4 3E4B     		ldr	r3, .L18
ARM GAS  /tmp/cc75PYCl.s 			page 4


 166 00a6 0122     		movs	r2, #1
 167 00a8 DA71     		strb	r2, [r3, #7]
 168              		.loc 1 154 0
 169 00aa 3D4B     		ldr	r3, .L18
 170 00ac 3D4A     		ldr	r2, .L18+4
 171 00ae 9A60     		str	r2, [r3, #8]
 172              		.loc 1 155 0
 173 00b0 3B4B     		ldr	r3, .L18
 174 00b2 3D4A     		ldr	r2, .L18+8
 175 00b4 DA60     		str	r2, [r3, #12]
 176              		.loc 1 156 0
 177 00b6 3A4B     		ldr	r3, .L18
 178 00b8 0022     		movs	r2, #0
 179 00ba 1A61     		str	r2, [r3, #16]
 180              		.loc 1 158 0
 181 00bc 3B4B     		ldr	r3, .L18+12
 182 00be 3C4A     		ldr	r2, .L18+16
 183 00c0 1A60     		str	r2, [r3]
 184              		.loc 1 159 0
 185 00c2 384B     		ldr	r3, .L18+4
 186 00c4 394A     		ldr	r2, .L18+12
 187 00c6 1A60     		str	r2, [r3]
 188              		.loc 1 160 0
 189 00c8 364B     		ldr	r3, .L18+4
 190 00ca 0022     		movs	r2, #0
 191 00cc 5A60     		str	r2, [r3, #4]
 192              		.loc 1 162 0
 193 00ce 019B     		ldr	r3, [sp, #4]
 194 00d0 334A     		ldr	r2, .L18
 195 00d2 1A60     		str	r2, [r3]
 196              		.loc 1 164 0
 197 00d4 019B     		ldr	r3, [sp, #4]
 198 00d6 1B68     		ldr	r3, [r3]
 199 00d8 1846     		mov	r0, r3
 200 00da FFF7FEFF 		bl	Sensor_IO_SPI_CS_Init
 201              		.loc 1 166 0
 202 00de 344B     		ldr	r3, .L18+16
 203 00e0 5B78     		ldrb	r3, [r3, #1]	@ zero_extendqisi2
 204 00e2 002B     		cmp	r3, #0
 205 00e4 2DD1     		bne	.L12
 206              		.loc 1 169 0
 207 00e6 019B     		ldr	r3, [sp, #4]
 208 00e8 1A68     		ldr	r2, [r3]
 209 00ea 0DF10B03 		add	r3, sp, #11
 210 00ee 1046     		mov	r0, r2
 211 00f0 1021     		movs	r1, #16
 212 00f2 1A46     		mov	r2, r3
 213 00f4 0123     		movs	r3, #1
 214 00f6 FFF7FEFF 		bl	Sensor_IO_Write
 215 00fa 0346     		mov	r3, r0
 216 00fc 002B     		cmp	r3, #0
 217 00fe 01D0     		beq	.L13
 218              		.loc 1 171 0
 219 0100 0123     		movs	r3, #1
 220 0102 48E0     		b	.L17
 221              	.L13:
 222              		.loc 1 174 0
ARM GAS  /tmp/cc75PYCl.s 			page 5


 223 0104 019B     		ldr	r3, [sp, #4]
 224 0106 1B68     		ldr	r3, [r3]
 225 0108 1846     		mov	r0, r3
 226 010a FFF7FEFF 		bl	LPS22HB_SwResetAndMemoryBoot
 227 010e 0346     		mov	r3, r0
 228 0110 002B     		cmp	r3, #0
 229 0112 01D0     		beq	.L14
 230              		.loc 1 176 0
 231 0114 0123     		movs	r3, #1
 232 0116 3EE0     		b	.L17
 233              	.L14:
 234              		.loc 1 179 0
 235 0118 6420     		movs	r0, #100
 236 011a FFF7FEFF 		bl	HAL_Delay
 237              		.loc 1 181 0
 238 011e 0123     		movs	r3, #1
 239 0120 8DF80B30 		strb	r3, [sp, #11]
 240              		.loc 1 183 0
 241 0124 019B     		ldr	r3, [sp, #4]
 242 0126 1A68     		ldr	r2, [r3]
 243 0128 0DF10B03 		add	r3, sp, #11
 244 012c 1046     		mov	r0, r2
 245 012e 1021     		movs	r1, #16
 246 0130 1A46     		mov	r2, r3
 247 0132 0123     		movs	r3, #1
 248 0134 FFF7FEFF 		bl	Sensor_IO_Write
 249 0138 0346     		mov	r3, r0
 250 013a 002B     		cmp	r3, #0
 251 013c 01D0     		beq	.L12
 252              		.loc 1 185 0
 253 013e 0123     		movs	r3, #1
 254 0140 29E0     		b	.L17
 255              	.L12:
 256              		.loc 1 189 0
 257 0142 019B     		ldr	r3, [sp, #4]
 258 0144 1B68     		ldr	r3, [r3]
 259 0146 DB68     		ldr	r3, [r3, #12]
 260 0148 0393     		str	r3, [sp, #12]
 261              		.loc 1 191 0
 262 014a 039B     		ldr	r3, [sp, #12]
 263 014c 1B68     		ldr	r3, [r3]
 264 014e 002B     		cmp	r3, #0
 265 0150 0BD1     		bne	.L15
 266              		.loc 1 193 0
 267 0152 019B     		ldr	r3, [sp, #4]
 268 0154 1B68     		ldr	r3, [r3]
 269 0156 1846     		mov	r0, r3
 270 0158 0021     		movs	r1, #0
 271 015a 1422     		movs	r2, #20
 272 015c FFF7FEFF 		bl	memset
 273              		.loc 1 194 0
 274 0160 019B     		ldr	r3, [sp, #4]
 275 0162 0022     		movs	r2, #0
 276 0164 1A60     		str	r2, [r3]
 277              		.loc 1 195 0
 278 0166 0123     		movs	r3, #1
 279 0168 15E0     		b	.L17
ARM GAS  /tmp/cc75PYCl.s 			page 6


 280              	.L15:
 281              		.loc 1 198 0
 282 016a 039B     		ldr	r3, [sp, #12]
 283 016c 1B68     		ldr	r3, [r3]
 284 016e 019A     		ldr	r2, [sp, #4]
 285 0170 1268     		ldr	r2, [r2]
 286 0172 1046     		mov	r0, r2
 287 0174 9847     		blx	r3
 288 0176 0346     		mov	r3, r0
 289 0178 012B     		cmp	r3, #1
 290 017a 0BD1     		bne	.L16
 291              		.loc 1 200 0
 292 017c 019B     		ldr	r3, [sp, #4]
 293 017e 1B68     		ldr	r3, [r3]
 294 0180 1846     		mov	r0, r3
 295 0182 0021     		movs	r1, #0
 296 0184 1422     		movs	r2, #20
 297 0186 FFF7FEFF 		bl	memset
 298              		.loc 1 201 0
 299 018a 019B     		ldr	r3, [sp, #4]
 300 018c 0022     		movs	r2, #0
 301 018e 1A60     		str	r2, [r3]
 302              		.loc 1 202 0
 303 0190 0123     		movs	r3, #1
 304 0192 00E0     		b	.L17
 305              	.L16:
 306              		.loc 1 205 0
 307 0194 0023     		movs	r3, #0
 308              	.L17:
 309              		.loc 1 206 0
 310 0196 1846     		mov	r0, r3
 311 0198 05B0     		add	sp, sp, #20
 312              		@ sp needed
 313 019a 5DF804FB 		ldr	pc, [sp], #4
 314              	.L19:
 315 019e 00BF     		.align	2
 316              	.L18:
 317 01a0 00000000 		.word	PRESSURE_SensorHandle
 318 01a4 14000000 		.word	PRESSURE_Data
 319 01a8 00000000 		.word	LPS22HB_P_Drv
 320 01ac 1C000000 		.word	LPS22HB_P_0_Data
 321 01b0 00000000 		.word	LPS22HB_Combo_Data
 322              		.cfi_endproc
 323              	.LFE126:
 324              		.size	BSP_LPS22HB_PRESSURE_Init, .-BSP_LPS22HB_PRESSURE_Init
 325              		.align	2
 326 01b4 AFF30080 		.p2align 4,,15
 326      AFF30080 
 326      AFF30080 
 327              		.global	BSP_PRESSURE_DeInit
 328              		.thumb
 329              		.thumb_func
 330              		.type	BSP_PRESSURE_DeInit, %function
 331              	BSP_PRESSURE_DeInit:
 332              	.LFB127:
 333              		.loc 1 216 0
 334              		.cfi_startproc
ARM GAS  /tmp/cc75PYCl.s 			page 7


 335              		@ args = 0, pretend = 0, frame = 16
 336              		@ frame_needed = 0, uses_anonymous_args = 0
 337 01c0 00B5     		push	{lr}
 338              		.cfi_def_cfa_offset 4
 339              		.cfi_offset 14, -4
 340 01c2 85B0     		sub	sp, sp, #20
 341              		.cfi_def_cfa_offset 24
 342 01c4 0190     		str	r0, [sp, #4]
 343              		.loc 1 217 0
 344 01c6 019B     		ldr	r3, [sp, #4]
 345 01c8 1B68     		ldr	r3, [r3]
 346 01ca 0393     		str	r3, [sp, #12]
 347              		.loc 1 218 0
 348 01cc 0023     		movs	r3, #0
 349 01ce 0293     		str	r3, [sp, #8]
 350              		.loc 1 220 0
 351 01d0 039B     		ldr	r3, [sp, #12]
 352 01d2 002B     		cmp	r3, #0
 353 01d4 01D1     		bne	.L21
 354              		.loc 1 222 0
 355 01d6 0123     		movs	r3, #1
 356 01d8 1AE0     		b	.L22
 357              	.L21:
 358              		.loc 1 225 0
 359 01da 039B     		ldr	r3, [sp, #12]
 360 01dc DB68     		ldr	r3, [r3, #12]
 361 01de 0293     		str	r3, [sp, #8]
 362              		.loc 1 227 0
 363 01e0 029B     		ldr	r3, [sp, #8]
 364 01e2 5B68     		ldr	r3, [r3, #4]
 365 01e4 002B     		cmp	r3, #0
 366 01e6 01D1     		bne	.L23
 367              		.loc 1 229 0
 368 01e8 0123     		movs	r3, #1
 369 01ea 11E0     		b	.L22
 370              	.L23:
 371              		.loc 1 232 0
 372 01ec 029B     		ldr	r3, [sp, #8]
 373 01ee 5B68     		ldr	r3, [r3, #4]
 374 01f0 0398     		ldr	r0, [sp, #12]
 375 01f2 9847     		blx	r3
 376 01f4 0346     		mov	r3, r0
 377 01f6 012B     		cmp	r3, #1
 378 01f8 01D1     		bne	.L24
 379              		.loc 1 234 0
 380 01fa 0123     		movs	r3, #1
 381 01fc 08E0     		b	.L22
 382              	.L24:
 383              		.loc 1 237 0
 384 01fe 0398     		ldr	r0, [sp, #12]
 385 0200 0021     		movs	r1, #0
 386 0202 1422     		movs	r2, #20
 387 0204 FFF7FEFF 		bl	memset
 388              		.loc 1 239 0
 389 0208 019B     		ldr	r3, [sp, #4]
 390 020a 0022     		movs	r2, #0
 391 020c 1A60     		str	r2, [r3]
ARM GAS  /tmp/cc75PYCl.s 			page 8


 392              		.loc 1 241 0
 393 020e 0023     		movs	r3, #0
 394              	.L22:
 395              		.loc 1 242 0
 396 0210 1846     		mov	r0, r3
 397 0212 05B0     		add	sp, sp, #20
 398              		@ sp needed
 399 0214 5DF804FB 		ldr	pc, [sp], #4
 400              		.cfi_endproc
 401              	.LFE127:
 402              		.size	BSP_PRESSURE_DeInit, .-BSP_PRESSURE_DeInit
 403              		.align	2
 404 0218 AFF30080 		.p2align 4,,15
 404      AFF30080 
 405              		.global	BSP_PRESSURE_Sensor_Enable
 406              		.thumb
 407              		.thumb_func
 408              		.type	BSP_PRESSURE_Sensor_Enable, %function
 409              	BSP_PRESSURE_Sensor_Enable:
 410              	.LFB128:
 411              		.loc 1 253 0
 412              		.cfi_startproc
 413              		@ args = 0, pretend = 0, frame = 16
 414              		@ frame_needed = 0, uses_anonymous_args = 0
 415 0220 00B5     		push	{lr}
 416              		.cfi_def_cfa_offset 4
 417              		.cfi_offset 14, -4
 418 0222 85B0     		sub	sp, sp, #20
 419              		.cfi_def_cfa_offset 24
 420 0224 0190     		str	r0, [sp, #4]
 421              		.loc 1 255 0
 422 0226 019B     		ldr	r3, [sp, #4]
 423 0228 0393     		str	r3, [sp, #12]
 424              		.loc 1 256 0
 425 022a 0023     		movs	r3, #0
 426 022c 0293     		str	r3, [sp, #8]
 427              		.loc 1 258 0
 428 022e 039B     		ldr	r3, [sp, #12]
 429 0230 002B     		cmp	r3, #0
 430 0232 01D1     		bne	.L26
 431              		.loc 1 260 0
 432 0234 0123     		movs	r3, #1
 433 0236 12E0     		b	.L27
 434              	.L26:
 435              		.loc 1 263 0
 436 0238 039B     		ldr	r3, [sp, #12]
 437 023a DB68     		ldr	r3, [r3, #12]
 438 023c 0293     		str	r3, [sp, #8]
 439              		.loc 1 265 0
 440 023e 029B     		ldr	r3, [sp, #8]
 441 0240 9B68     		ldr	r3, [r3, #8]
 442 0242 002B     		cmp	r3, #0
 443 0244 01D1     		bne	.L28
 444              		.loc 1 267 0
 445 0246 0123     		movs	r3, #1
 446 0248 09E0     		b	.L27
 447              	.L28:
ARM GAS  /tmp/cc75PYCl.s 			page 9


 448              		.loc 1 270 0
 449 024a 029B     		ldr	r3, [sp, #8]
 450 024c 9B68     		ldr	r3, [r3, #8]
 451 024e 0398     		ldr	r0, [sp, #12]
 452 0250 9847     		blx	r3
 453 0252 0346     		mov	r3, r0
 454 0254 012B     		cmp	r3, #1
 455 0256 01D1     		bne	.L29
 456              		.loc 1 272 0
 457 0258 0123     		movs	r3, #1
 458 025a 00E0     		b	.L27
 459              	.L29:
 460              		.loc 1 275 0
 461 025c 0023     		movs	r3, #0
 462              	.L27:
 463              		.loc 1 276 0
 464 025e 1846     		mov	r0, r3
 465 0260 05B0     		add	sp, sp, #20
 466              		@ sp needed
 467 0262 5DF804FB 		ldr	pc, [sp], #4
 468              		.cfi_endproc
 469              	.LFE128:
 470              		.size	BSP_PRESSURE_Sensor_Enable, .-BSP_PRESSURE_Sensor_Enable
 471 0266 00BF     		.align	2
 472 0268 AFF30080 		.p2align 4,,15
 472      AFF30080 
 473              		.global	BSP_PRESSURE_Sensor_Disable
 474              		.thumb
 475              		.thumb_func
 476              		.type	BSP_PRESSURE_Sensor_Disable, %function
 477              	BSP_PRESSURE_Sensor_Disable:
 478              	.LFB129:
 479              		.loc 1 287 0
 480              		.cfi_startproc
 481              		@ args = 0, pretend = 0, frame = 16
 482              		@ frame_needed = 0, uses_anonymous_args = 0
 483 0270 00B5     		push	{lr}
 484              		.cfi_def_cfa_offset 4
 485              		.cfi_offset 14, -4
 486 0272 85B0     		sub	sp, sp, #20
 487              		.cfi_def_cfa_offset 24
 488 0274 0190     		str	r0, [sp, #4]
 489              		.loc 1 289 0
 490 0276 019B     		ldr	r3, [sp, #4]
 491 0278 0393     		str	r3, [sp, #12]
 492              		.loc 1 290 0
 493 027a 0023     		movs	r3, #0
 494 027c 0293     		str	r3, [sp, #8]
 495              		.loc 1 292 0
 496 027e 039B     		ldr	r3, [sp, #12]
 497 0280 002B     		cmp	r3, #0
 498 0282 01D1     		bne	.L31
 499              		.loc 1 294 0
 500 0284 0123     		movs	r3, #1
 501 0286 12E0     		b	.L32
 502              	.L31:
 503              		.loc 1 297 0
ARM GAS  /tmp/cc75PYCl.s 			page 10


 504 0288 039B     		ldr	r3, [sp, #12]
 505 028a DB68     		ldr	r3, [r3, #12]
 506 028c 0293     		str	r3, [sp, #8]
 507              		.loc 1 299 0
 508 028e 029B     		ldr	r3, [sp, #8]
 509 0290 DB68     		ldr	r3, [r3, #12]
 510 0292 002B     		cmp	r3, #0
 511 0294 01D1     		bne	.L33
 512              		.loc 1 301 0
 513 0296 0123     		movs	r3, #1
 514 0298 09E0     		b	.L32
 515              	.L33:
 516              		.loc 1 304 0
 517 029a 029B     		ldr	r3, [sp, #8]
 518 029c DB68     		ldr	r3, [r3, #12]
 519 029e 0398     		ldr	r0, [sp, #12]
 520 02a0 9847     		blx	r3
 521 02a2 0346     		mov	r3, r0
 522 02a4 012B     		cmp	r3, #1
 523 02a6 01D1     		bne	.L34
 524              		.loc 1 306 0
 525 02a8 0123     		movs	r3, #1
 526 02aa 00E0     		b	.L32
 527              	.L34:
 528              		.loc 1 309 0
 529 02ac 0023     		movs	r3, #0
 530              	.L32:
 531              		.loc 1 310 0
 532 02ae 1846     		mov	r0, r3
 533 02b0 05B0     		add	sp, sp, #20
 534              		@ sp needed
 535 02b2 5DF804FB 		ldr	pc, [sp], #4
 536              		.cfi_endproc
 537              	.LFE129:
 538              		.size	BSP_PRESSURE_Sensor_Disable, .-BSP_PRESSURE_Sensor_Disable
 539 02b6 00BF     		.align	2
 540 02b8 AFF30080 		.p2align 4,,15
 540      AFF30080 
 541              		.global	BSP_PRESSURE_IsInitialized
 542              		.thumb
 543              		.thumb_func
 544              		.type	BSP_PRESSURE_IsInitialized, %function
 545              	BSP_PRESSURE_IsInitialized:
 546              	.LFB130:
 547              		.loc 1 321 0
 548              		.cfi_startproc
 549              		@ args = 0, pretend = 0, frame = 16
 550              		@ frame_needed = 0, uses_anonymous_args = 0
 551              		@ link register save eliminated.
 552 02c0 84B0     		sub	sp, sp, #16
 553              		.cfi_def_cfa_offset 16
 554 02c2 0190     		str	r0, [sp, #4]
 555 02c4 0091     		str	r1, [sp]
 556              		.loc 1 322 0
 557 02c6 019B     		ldr	r3, [sp, #4]
 558 02c8 0393     		str	r3, [sp, #12]
 559              		.loc 1 324 0
ARM GAS  /tmp/cc75PYCl.s 			page 11


 560 02ca 039B     		ldr	r3, [sp, #12]
 561 02cc 002B     		cmp	r3, #0
 562 02ce 01D1     		bne	.L36
 563              		.loc 1 326 0
 564 02d0 0123     		movs	r3, #1
 565 02d2 09E0     		b	.L37
 566              	.L36:
 567              		.loc 1 329 0
 568 02d4 009B     		ldr	r3, [sp]
 569 02d6 002B     		cmp	r3, #0
 570 02d8 01D1     		bne	.L38
 571              		.loc 1 331 0
 572 02da 0123     		movs	r3, #1
 573 02dc 04E0     		b	.L37
 574              	.L38:
 575              		.loc 1 334 0
 576 02de 039B     		ldr	r3, [sp, #12]
 577 02e0 5A79     		ldrb	r2, [r3, #5]	@ zero_extendqisi2
 578 02e2 009B     		ldr	r3, [sp]
 579 02e4 1A70     		strb	r2, [r3]
 580              		.loc 1 336 0
 581 02e6 0023     		movs	r3, #0
 582              	.L37:
 583              		.loc 1 337 0
 584 02e8 1846     		mov	r0, r3
 585 02ea 04B0     		add	sp, sp, #16
 586              		@ sp needed
 587 02ec 7047     		bx	lr
 588              		.cfi_endproc
 589              	.LFE130:
 590              		.size	BSP_PRESSURE_IsInitialized, .-BSP_PRESSURE_IsInitialized
 591 02ee 00BF     		.align	2
 592              		.p2align 4,,15
 593              		.global	BSP_PRESSURE_IsEnabled
 594              		.thumb
 595              		.thumb_func
 596              		.type	BSP_PRESSURE_IsEnabled, %function
 597              	BSP_PRESSURE_IsEnabled:
 598              	.LFB131:
 599              		.loc 1 348 0
 600              		.cfi_startproc
 601              		@ args = 0, pretend = 0, frame = 16
 602              		@ frame_needed = 0, uses_anonymous_args = 0
 603              		@ link register save eliminated.
 604 02f0 84B0     		sub	sp, sp, #16
 605              		.cfi_def_cfa_offset 16
 606 02f2 0190     		str	r0, [sp, #4]
 607 02f4 0091     		str	r1, [sp]
 608              		.loc 1 349 0
 609 02f6 019B     		ldr	r3, [sp, #4]
 610 02f8 0393     		str	r3, [sp, #12]
 611              		.loc 1 351 0
 612 02fa 039B     		ldr	r3, [sp, #12]
 613 02fc 002B     		cmp	r3, #0
 614 02fe 01D1     		bne	.L40
 615              		.loc 1 353 0
 616 0300 0123     		movs	r3, #1
ARM GAS  /tmp/cc75PYCl.s 			page 12


 617 0302 09E0     		b	.L41
 618              	.L40:
 619              		.loc 1 356 0
 620 0304 009B     		ldr	r3, [sp]
 621 0306 002B     		cmp	r3, #0
 622 0308 01D1     		bne	.L42
 623              		.loc 1 358 0
 624 030a 0123     		movs	r3, #1
 625 030c 04E0     		b	.L41
 626              	.L42:
 627              		.loc 1 361 0
 628 030e 039B     		ldr	r3, [sp, #12]
 629 0310 9A79     		ldrb	r2, [r3, #6]	@ zero_extendqisi2
 630 0312 009B     		ldr	r3, [sp]
 631 0314 1A70     		strb	r2, [r3]
 632              		.loc 1 363 0
 633 0316 0023     		movs	r3, #0
 634              	.L41:
 635              		.loc 1 364 0
 636 0318 1846     		mov	r0, r3
 637 031a 04B0     		add	sp, sp, #16
 638              		@ sp needed
 639 031c 7047     		bx	lr
 640              		.cfi_endproc
 641              	.LFE131:
 642              		.size	BSP_PRESSURE_IsEnabled, .-BSP_PRESSURE_IsEnabled
 643 031e 00BF     		.align	2
 644              		.p2align 4,,15
 645              		.global	BSP_PRESSURE_IsCombo
 646              		.thumb
 647              		.thumb_func
 648              		.type	BSP_PRESSURE_IsCombo, %function
 649              	BSP_PRESSURE_IsCombo:
 650              	.LFB132:
 651              		.loc 1 375 0
 652              		.cfi_startproc
 653              		@ args = 0, pretend = 0, frame = 16
 654              		@ frame_needed = 0, uses_anonymous_args = 0
 655              		@ link register save eliminated.
 656 0320 84B0     		sub	sp, sp, #16
 657              		.cfi_def_cfa_offset 16
 658 0322 0190     		str	r0, [sp, #4]
 659 0324 0091     		str	r1, [sp]
 660              		.loc 1 376 0
 661 0326 019B     		ldr	r3, [sp, #4]
 662 0328 0393     		str	r3, [sp, #12]
 663              		.loc 1 378 0
 664 032a 039B     		ldr	r3, [sp, #12]
 665 032c 002B     		cmp	r3, #0
 666 032e 01D1     		bne	.L44
 667              		.loc 1 380 0
 668 0330 0123     		movs	r3, #1
 669 0332 09E0     		b	.L45
 670              	.L44:
 671              		.loc 1 383 0
 672 0334 009B     		ldr	r3, [sp]
 673 0336 002B     		cmp	r3, #0
ARM GAS  /tmp/cc75PYCl.s 			page 13


 674 0338 01D1     		bne	.L46
 675              		.loc 1 385 0
 676 033a 0123     		movs	r3, #1
 677 033c 04E0     		b	.L45
 678              	.L46:
 679              		.loc 1 388 0
 680 033e 039B     		ldr	r3, [sp, #12]
 681 0340 DA79     		ldrb	r2, [r3, #7]	@ zero_extendqisi2
 682 0342 009B     		ldr	r3, [sp]
 683 0344 1A70     		strb	r2, [r3]
 684              		.loc 1 390 0
 685 0346 0023     		movs	r3, #0
 686              	.L45:
 687              		.loc 1 391 0
 688 0348 1846     		mov	r0, r3
 689 034a 04B0     		add	sp, sp, #16
 690              		@ sp needed
 691 034c 7047     		bx	lr
 692              		.cfi_endproc
 693              	.LFE132:
 694              		.size	BSP_PRESSURE_IsCombo, .-BSP_PRESSURE_IsCombo
 695 034e 00BF     		.align	2
 696              		.p2align 4,,15
 697              		.global	BSP_PRESSURE_Get_Instance
 698              		.thumb
 699              		.thumb_func
 700              		.type	BSP_PRESSURE_Get_Instance, %function
 701              	BSP_PRESSURE_Get_Instance:
 702              	.LFB133:
 703              		.loc 1 402 0
 704              		.cfi_startproc
 705              		@ args = 0, pretend = 0, frame = 16
 706              		@ frame_needed = 0, uses_anonymous_args = 0
 707              		@ link register save eliminated.
 708 0350 84B0     		sub	sp, sp, #16
 709              		.cfi_def_cfa_offset 16
 710 0352 0190     		str	r0, [sp, #4]
 711 0354 0091     		str	r1, [sp]
 712              		.loc 1 403 0
 713 0356 019B     		ldr	r3, [sp, #4]
 714 0358 0393     		str	r3, [sp, #12]
 715              		.loc 1 405 0
 716 035a 039B     		ldr	r3, [sp, #12]
 717 035c 002B     		cmp	r3, #0
 718 035e 01D1     		bne	.L48
 719              		.loc 1 407 0
 720 0360 0123     		movs	r3, #1
 721 0362 09E0     		b	.L49
 722              	.L48:
 723              		.loc 1 410 0
 724 0364 009B     		ldr	r3, [sp]
 725 0366 002B     		cmp	r3, #0
 726 0368 01D1     		bne	.L50
 727              		.loc 1 412 0
 728 036a 0123     		movs	r3, #1
 729 036c 04E0     		b	.L49
 730              	.L50:
ARM GAS  /tmp/cc75PYCl.s 			page 14


 731              		.loc 1 415 0
 732 036e 039B     		ldr	r3, [sp, #12]
 733 0370 1A79     		ldrb	r2, [r3, #4]	@ zero_extendqisi2
 734 0372 009B     		ldr	r3, [sp]
 735 0374 1A70     		strb	r2, [r3]
 736              		.loc 1 417 0
 737 0376 0023     		movs	r3, #0
 738              	.L49:
 739              		.loc 1 418 0
 740 0378 1846     		mov	r0, r3
 741 037a 04B0     		add	sp, sp, #16
 742              		@ sp needed
 743 037c 7047     		bx	lr
 744              		.cfi_endproc
 745              	.LFE133:
 746              		.size	BSP_PRESSURE_Get_Instance, .-BSP_PRESSURE_Get_Instance
 747 037e 00BF     		.align	2
 748              		.p2align 4,,15
 749              		.global	BSP_PRESSURE_Get_WhoAmI
 750              		.thumb
 751              		.thumb_func
 752              		.type	BSP_PRESSURE_Get_WhoAmI, %function
 753              	BSP_PRESSURE_Get_WhoAmI:
 754              	.LFB134:
 755              		.loc 1 430 0
 756              		.cfi_startproc
 757              		@ args = 0, pretend = 0, frame = 16
 758              		@ frame_needed = 0, uses_anonymous_args = 0
 759 0380 00B5     		push	{lr}
 760              		.cfi_def_cfa_offset 4
 761              		.cfi_offset 14, -4
 762 0382 85B0     		sub	sp, sp, #20
 763              		.cfi_def_cfa_offset 24
 764 0384 0190     		str	r0, [sp, #4]
 765 0386 0091     		str	r1, [sp]
 766              		.loc 1 432 0
 767 0388 019B     		ldr	r3, [sp, #4]
 768 038a 0393     		str	r3, [sp, #12]
 769              		.loc 1 433 0
 770 038c 0023     		movs	r3, #0
 771 038e 0293     		str	r3, [sp, #8]
 772              		.loc 1 435 0
 773 0390 039B     		ldr	r3, [sp, #12]
 774 0392 002B     		cmp	r3, #0
 775 0394 01D1     		bne	.L52
 776              		.loc 1 437 0
 777 0396 0123     		movs	r3, #1
 778 0398 18E0     		b	.L53
 779              	.L52:
 780              		.loc 1 440 0
 781 039a 039B     		ldr	r3, [sp, #12]
 782 039c DB68     		ldr	r3, [r3, #12]
 783 039e 0293     		str	r3, [sp, #8]
 784              		.loc 1 442 0
 785 03a0 009B     		ldr	r3, [sp]
 786 03a2 002B     		cmp	r3, #0
 787 03a4 01D1     		bne	.L54
ARM GAS  /tmp/cc75PYCl.s 			page 15


 788              		.loc 1 444 0
 789 03a6 0123     		movs	r3, #1
 790 03a8 10E0     		b	.L53
 791              	.L54:
 792              		.loc 1 446 0
 793 03aa 029B     		ldr	r3, [sp, #8]
 794 03ac 1B69     		ldr	r3, [r3, #16]
 795 03ae 002B     		cmp	r3, #0
 796 03b0 01D1     		bne	.L55
 797              		.loc 1 448 0
 798 03b2 0123     		movs	r3, #1
 799 03b4 0AE0     		b	.L53
 800              	.L55:
 801              		.loc 1 450 0
 802 03b6 029B     		ldr	r3, [sp, #8]
 803 03b8 1B69     		ldr	r3, [r3, #16]
 804 03ba 0398     		ldr	r0, [sp, #12]
 805 03bc 0099     		ldr	r1, [sp]
 806 03be 9847     		blx	r3
 807 03c0 0346     		mov	r3, r0
 808 03c2 012B     		cmp	r3, #1
 809 03c4 01D1     		bne	.L56
 810              		.loc 1 452 0
 811 03c6 0123     		movs	r3, #1
 812 03c8 00E0     		b	.L53
 813              	.L56:
 814              		.loc 1 455 0
 815 03ca 0023     		movs	r3, #0
 816              	.L53:
 817              		.loc 1 456 0
 818 03cc 1846     		mov	r0, r3
 819 03ce 05B0     		add	sp, sp, #20
 820              		@ sp needed
 821 03d0 5DF804FB 		ldr	pc, [sp], #4
 822              		.cfi_endproc
 823              	.LFE134:
 824              		.size	BSP_PRESSURE_Get_WhoAmI, .-BSP_PRESSURE_Get_WhoAmI
 825              		.align	2
 826 03d4 AFF30080 		.p2align 4,,15
 826      AFF30080 
 826      AFF30080 
 827              		.global	BSP_PRESSURE_Check_WhoAmI
 828              		.thumb
 829              		.thumb_func
 830              		.type	BSP_PRESSURE_Check_WhoAmI, %function
 831              	BSP_PRESSURE_Check_WhoAmI:
 832              	.LFB135:
 833              		.loc 1 467 0
 834              		.cfi_startproc
 835              		@ args = 0, pretend = 0, frame = 16
 836              		@ frame_needed = 0, uses_anonymous_args = 0
 837 03e0 00B5     		push	{lr}
 838              		.cfi_def_cfa_offset 4
 839              		.cfi_offset 14, -4
 840 03e2 85B0     		sub	sp, sp, #20
 841              		.cfi_def_cfa_offset 24
 842 03e4 0190     		str	r0, [sp, #4]
ARM GAS  /tmp/cc75PYCl.s 			page 16


 843              		.loc 1 469 0
 844 03e6 019B     		ldr	r3, [sp, #4]
 845 03e8 0393     		str	r3, [sp, #12]
 846              		.loc 1 470 0
 847 03ea 0023     		movs	r3, #0
 848 03ec 0293     		str	r3, [sp, #8]
 849              		.loc 1 472 0
 850 03ee 039B     		ldr	r3, [sp, #12]
 851 03f0 002B     		cmp	r3, #0
 852 03f2 01D1     		bne	.L58
 853              		.loc 1 474 0
 854 03f4 0123     		movs	r3, #1
 855 03f6 12E0     		b	.L59
 856              	.L58:
 857              		.loc 1 477 0
 858 03f8 039B     		ldr	r3, [sp, #12]
 859 03fa DB68     		ldr	r3, [r3, #12]
 860 03fc 0293     		str	r3, [sp, #8]
 861              		.loc 1 479 0
 862 03fe 029B     		ldr	r3, [sp, #8]
 863 0400 5B69     		ldr	r3, [r3, #20]
 864 0402 002B     		cmp	r3, #0
 865 0404 01D1     		bne	.L60
 866              		.loc 1 481 0
 867 0406 0123     		movs	r3, #1
 868 0408 09E0     		b	.L59
 869              	.L60:
 870              		.loc 1 483 0
 871 040a 029B     		ldr	r3, [sp, #8]
 872 040c 5B69     		ldr	r3, [r3, #20]
 873 040e 0398     		ldr	r0, [sp, #12]
 874 0410 9847     		blx	r3
 875 0412 0346     		mov	r3, r0
 876 0414 012B     		cmp	r3, #1
 877 0416 01D1     		bne	.L61
 878              		.loc 1 485 0
 879 0418 0123     		movs	r3, #1
 880 041a 00E0     		b	.L59
 881              	.L61:
 882              		.loc 1 488 0
 883 041c 0023     		movs	r3, #0
 884              	.L59:
 885              		.loc 1 489 0
 886 041e 1846     		mov	r0, r3
 887 0420 05B0     		add	sp, sp, #20
 888              		@ sp needed
 889 0422 5DF804FB 		ldr	pc, [sp], #4
 890              		.cfi_endproc
 891              	.LFE135:
 892              		.size	BSP_PRESSURE_Check_WhoAmI, .-BSP_PRESSURE_Check_WhoAmI
 893 0426 00BF     		.align	2
 894 0428 AFF30080 		.p2align 4,,15
 894      AFF30080 
 895              		.global	BSP_PRESSURE_Get_Press
 896              		.thumb
 897              		.thumb_func
 898              		.type	BSP_PRESSURE_Get_Press, %function
ARM GAS  /tmp/cc75PYCl.s 			page 17


 899              	BSP_PRESSURE_Get_Press:
 900              	.LFB136:
 901              		.loc 1 501 0
 902              		.cfi_startproc
 903              		@ args = 0, pretend = 0, frame = 16
 904              		@ frame_needed = 0, uses_anonymous_args = 0
 905 0430 00B5     		push	{lr}
 906              		.cfi_def_cfa_offset 4
 907              		.cfi_offset 14, -4
 908 0432 85B0     		sub	sp, sp, #20
 909              		.cfi_def_cfa_offset 24
 910 0434 0190     		str	r0, [sp, #4]
 911 0436 0091     		str	r1, [sp]
 912              		.loc 1 503 0
 913 0438 019B     		ldr	r3, [sp, #4]
 914 043a 0393     		str	r3, [sp, #12]
 915              		.loc 1 504 0
 916 043c 0023     		movs	r3, #0
 917 043e 0293     		str	r3, [sp, #8]
 918              		.loc 1 506 0
 919 0440 039B     		ldr	r3, [sp, #12]
 920 0442 002B     		cmp	r3, #0
 921 0444 01D1     		bne	.L63
 922              		.loc 1 508 0
 923 0446 0123     		movs	r3, #1
 924 0448 18E0     		b	.L64
 925              	.L63:
 926              		.loc 1 511 0
 927 044a 039B     		ldr	r3, [sp, #12]
 928 044c DB68     		ldr	r3, [r3, #12]
 929 044e 0293     		str	r3, [sp, #8]
 930              		.loc 1 513 0
 931 0450 009B     		ldr	r3, [sp]
 932 0452 002B     		cmp	r3, #0
 933 0454 01D1     		bne	.L65
 934              		.loc 1 515 0
 935 0456 0123     		movs	r3, #1
 936 0458 10E0     		b	.L64
 937              	.L65:
 938              		.loc 1 517 0
 939 045a 029B     		ldr	r3, [sp, #8]
 940 045c 9B69     		ldr	r3, [r3, #24]
 941 045e 002B     		cmp	r3, #0
 942 0460 01D1     		bne	.L66
 943              		.loc 1 519 0
 944 0462 0123     		movs	r3, #1
 945 0464 0AE0     		b	.L64
 946              	.L66:
 947              		.loc 1 521 0
 948 0466 029B     		ldr	r3, [sp, #8]
 949 0468 9B69     		ldr	r3, [r3, #24]
 950 046a 0398     		ldr	r0, [sp, #12]
 951 046c 0099     		ldr	r1, [sp]
 952 046e 9847     		blx	r3
 953 0470 0346     		mov	r3, r0
 954 0472 012B     		cmp	r3, #1
 955 0474 01D1     		bne	.L67
ARM GAS  /tmp/cc75PYCl.s 			page 18


 956              		.loc 1 523 0
 957 0476 0123     		movs	r3, #1
 958 0478 00E0     		b	.L64
 959              	.L67:
 960              		.loc 1 526 0
 961 047a 0023     		movs	r3, #0
 962              	.L64:
 963              		.loc 1 527 0
 964 047c 1846     		mov	r0, r3
 965 047e 05B0     		add	sp, sp, #20
 966              		@ sp needed
 967 0480 5DF804FB 		ldr	pc, [sp], #4
 968              		.cfi_endproc
 969              	.LFE136:
 970              		.size	BSP_PRESSURE_Get_Press, .-BSP_PRESSURE_Get_Press
 971              		.align	2
 972 0484 AFF30080 		.p2align 4,,15
 972      AFF30080 
 972      AFF30080 
 973              		.global	BSP_PRESSURE_Get_ODR
 974              		.thumb
 975              		.thumb_func
 976              		.type	BSP_PRESSURE_Get_ODR, %function
 977              	BSP_PRESSURE_Get_ODR:
 978              	.LFB137:
 979              		.loc 1 539 0
 980              		.cfi_startproc
 981              		@ args = 0, pretend = 0, frame = 16
 982              		@ frame_needed = 0, uses_anonymous_args = 0
 983 0490 00B5     		push	{lr}
 984              		.cfi_def_cfa_offset 4
 985              		.cfi_offset 14, -4
 986 0492 85B0     		sub	sp, sp, #20
 987              		.cfi_def_cfa_offset 24
 988 0494 0190     		str	r0, [sp, #4]
 989 0496 0091     		str	r1, [sp]
 990              		.loc 1 541 0
 991 0498 019B     		ldr	r3, [sp, #4]
 992 049a 0393     		str	r3, [sp, #12]
 993              		.loc 1 542 0
 994 049c 0023     		movs	r3, #0
 995 049e 0293     		str	r3, [sp, #8]
 996              		.loc 1 544 0
 997 04a0 039B     		ldr	r3, [sp, #12]
 998 04a2 002B     		cmp	r3, #0
 999 04a4 01D1     		bne	.L69
 1000              		.loc 1 546 0
 1001 04a6 0123     		movs	r3, #1
 1002 04a8 18E0     		b	.L70
 1003              	.L69:
 1004              		.loc 1 549 0
 1005 04aa 039B     		ldr	r3, [sp, #12]
 1006 04ac DB68     		ldr	r3, [r3, #12]
 1007 04ae 0293     		str	r3, [sp, #8]
 1008              		.loc 1 551 0
 1009 04b0 009B     		ldr	r3, [sp]
 1010 04b2 002B     		cmp	r3, #0
ARM GAS  /tmp/cc75PYCl.s 			page 19


 1011 04b4 01D1     		bne	.L71
 1012              		.loc 1 553 0
 1013 04b6 0123     		movs	r3, #1
 1014 04b8 10E0     		b	.L70
 1015              	.L71:
 1016              		.loc 1 555 0
 1017 04ba 029B     		ldr	r3, [sp, #8]
 1018 04bc DB69     		ldr	r3, [r3, #28]
 1019 04be 002B     		cmp	r3, #0
 1020 04c0 01D1     		bne	.L72
 1021              		.loc 1 557 0
 1022 04c2 0123     		movs	r3, #1
 1023 04c4 0AE0     		b	.L70
 1024              	.L72:
 1025              		.loc 1 559 0
 1026 04c6 029B     		ldr	r3, [sp, #8]
 1027 04c8 DB69     		ldr	r3, [r3, #28]
 1028 04ca 0398     		ldr	r0, [sp, #12]
 1029 04cc 0099     		ldr	r1, [sp]
 1030 04ce 9847     		blx	r3
 1031 04d0 0346     		mov	r3, r0
 1032 04d2 012B     		cmp	r3, #1
 1033 04d4 01D1     		bne	.L73
 1034              		.loc 1 561 0
 1035 04d6 0123     		movs	r3, #1
 1036 04d8 00E0     		b	.L70
 1037              	.L73:
 1038              		.loc 1 564 0
 1039 04da 0023     		movs	r3, #0
 1040              	.L70:
 1041              		.loc 1 565 0
 1042 04dc 1846     		mov	r0, r3
 1043 04de 05B0     		add	sp, sp, #20
 1044              		@ sp needed
 1045 04e0 5DF804FB 		ldr	pc, [sp], #4
 1046              		.cfi_endproc
 1047              	.LFE137:
 1048              		.size	BSP_PRESSURE_Get_ODR, .-BSP_PRESSURE_Get_ODR
 1049              		.align	2
 1050 04e4 AFF30080 		.p2align 4,,15
 1050      AFF30080 
 1050      AFF30080 
 1051              		.global	BSP_PRESSURE_Set_ODR
 1052              		.thumb
 1053              		.thumb_func
 1054              		.type	BSP_PRESSURE_Set_ODR, %function
 1055              	BSP_PRESSURE_Set_ODR:
 1056              	.LFB138:
 1057              		.loc 1 577 0
 1058              		.cfi_startproc
 1059              		@ args = 0, pretend = 0, frame = 16
 1060              		@ frame_needed = 0, uses_anonymous_args = 0
 1061 04f0 00B5     		push	{lr}
 1062              		.cfi_def_cfa_offset 4
 1063              		.cfi_offset 14, -4
 1064 04f2 85B0     		sub	sp, sp, #20
 1065              		.cfi_def_cfa_offset 24
ARM GAS  /tmp/cc75PYCl.s 			page 20


 1066 04f4 0190     		str	r0, [sp, #4]
 1067 04f6 0B46     		mov	r3, r1
 1068 04f8 8DF80330 		strb	r3, [sp, #3]
 1069              		.loc 1 579 0
 1070 04fc 019B     		ldr	r3, [sp, #4]
 1071 04fe 0393     		str	r3, [sp, #12]
 1072              		.loc 1 580 0
 1073 0500 0023     		movs	r3, #0
 1074 0502 0293     		str	r3, [sp, #8]
 1075              		.loc 1 582 0
 1076 0504 039B     		ldr	r3, [sp, #12]
 1077 0506 002B     		cmp	r3, #0
 1078 0508 01D1     		bne	.L75
 1079              		.loc 1 584 0
 1080 050a 0123     		movs	r3, #1
 1081 050c 15E0     		b	.L76
 1082              	.L75:
 1083              		.loc 1 587 0
 1084 050e 039B     		ldr	r3, [sp, #12]
 1085 0510 DB68     		ldr	r3, [r3, #12]
 1086 0512 0293     		str	r3, [sp, #8]
 1087              		.loc 1 589 0
 1088 0514 029B     		ldr	r3, [sp, #8]
 1089 0516 1B6A     		ldr	r3, [r3, #32]
 1090 0518 002B     		cmp	r3, #0
 1091 051a 01D1     		bne	.L77
 1092              		.loc 1 591 0
 1093 051c 0123     		movs	r3, #1
 1094 051e 0CE0     		b	.L76
 1095              	.L77:
 1096              		.loc 1 593 0
 1097 0520 029B     		ldr	r3, [sp, #8]
 1098 0522 1B6A     		ldr	r3, [r3, #32]
 1099 0524 9DF80320 		ldrb	r2, [sp, #3]	@ zero_extendqisi2
 1100 0528 0398     		ldr	r0, [sp, #12]
 1101 052a 1146     		mov	r1, r2
 1102 052c 9847     		blx	r3
 1103 052e 0346     		mov	r3, r0
 1104 0530 012B     		cmp	r3, #1
 1105 0532 01D1     		bne	.L78
 1106              		.loc 1 595 0
 1107 0534 0123     		movs	r3, #1
 1108 0536 00E0     		b	.L76
 1109              	.L78:
 1110              		.loc 1 598 0
 1111 0538 0023     		movs	r3, #0
 1112              	.L76:
 1113              		.loc 1 599 0
 1114 053a 1846     		mov	r0, r3
 1115 053c 05B0     		add	sp, sp, #20
 1116              		@ sp needed
 1117 053e 5DF804FB 		ldr	pc, [sp], #4
 1118              		.cfi_endproc
 1119              	.LFE138:
 1120              		.size	BSP_PRESSURE_Set_ODR, .-BSP_PRESSURE_Set_ODR
 1121 0542 00BF     		.align	2
 1122 0544 AFF30080 		.p2align 4,,15
ARM GAS  /tmp/cc75PYCl.s 			page 21


 1122      AFF30080 
 1122      AFF30080 
 1123              		.global	BSP_PRESSURE_Set_ODR_Value
 1124              		.thumb
 1125              		.thumb_func
 1126              		.type	BSP_PRESSURE_Set_ODR_Value, %function
 1127              	BSP_PRESSURE_Set_ODR_Value:
 1128              	.LFB139:
 1129              		.loc 1 611 0
 1130              		.cfi_startproc
 1131              		@ args = 0, pretend = 0, frame = 16
 1132              		@ frame_needed = 0, uses_anonymous_args = 0
 1133 0550 00B5     		push	{lr}
 1134              		.cfi_def_cfa_offset 4
 1135              		.cfi_offset 14, -4
 1136 0552 85B0     		sub	sp, sp, #20
 1137              		.cfi_def_cfa_offset 24
 1138 0554 0190     		str	r0, [sp, #4]
 1139 0556 0091     		str	r1, [sp]	@ float
 1140              		.loc 1 613 0
 1141 0558 019B     		ldr	r3, [sp, #4]
 1142 055a 0393     		str	r3, [sp, #12]
 1143              		.loc 1 614 0
 1144 055c 0023     		movs	r3, #0
 1145 055e 0293     		str	r3, [sp, #8]
 1146              		.loc 1 616 0
 1147 0560 039B     		ldr	r3, [sp, #12]
 1148 0562 002B     		cmp	r3, #0
 1149 0564 01D1     		bne	.L80
 1150              		.loc 1 618 0
 1151 0566 0123     		movs	r3, #1
 1152 0568 13E0     		b	.L81
 1153              	.L80:
 1154              		.loc 1 621 0
 1155 056a 039B     		ldr	r3, [sp, #12]
 1156 056c DB68     		ldr	r3, [r3, #12]
 1157 056e 0293     		str	r3, [sp, #8]
 1158              		.loc 1 623 0
 1159 0570 029B     		ldr	r3, [sp, #8]
 1160 0572 5B6A     		ldr	r3, [r3, #36]
 1161 0574 002B     		cmp	r3, #0
 1162 0576 01D1     		bne	.L82
 1163              		.loc 1 625 0
 1164 0578 0123     		movs	r3, #1
 1165 057a 0AE0     		b	.L81
 1166              	.L82:
 1167              		.loc 1 627 0
 1168 057c 029B     		ldr	r3, [sp, #8]
 1169 057e 5B6A     		ldr	r3, [r3, #36]
 1170 0580 0398     		ldr	r0, [sp, #12]
 1171 0582 0099     		ldr	r1, [sp]	@ float
 1172 0584 9847     		blx	r3
 1173 0586 0346     		mov	r3, r0
 1174 0588 012B     		cmp	r3, #1
 1175 058a 01D1     		bne	.L83
 1176              		.loc 1 629 0
 1177 058c 0123     		movs	r3, #1
ARM GAS  /tmp/cc75PYCl.s 			page 22


 1178 058e 00E0     		b	.L81
 1179              	.L83:
 1180              		.loc 1 632 0
 1181 0590 0023     		movs	r3, #0
 1182              	.L81:
 1183              		.loc 1 633 0
 1184 0592 1846     		mov	r0, r3
 1185 0594 05B0     		add	sp, sp, #20
 1186              		@ sp needed
 1187 0596 5DF804FB 		ldr	pc, [sp], #4
 1188              		.cfi_endproc
 1189              	.LFE139:
 1190              		.size	BSP_PRESSURE_Set_ODR_Value, .-BSP_PRESSURE_Set_ODR_Value
 1191 059a 00BF     		.align	2
 1192 059c AFF30080 		.p2align 4,,15
 1193              		.global	BSP_PRESSURE_Read_Reg
 1194              		.thumb
 1195              		.thumb_func
 1196              		.type	BSP_PRESSURE_Read_Reg, %function
 1197              	BSP_PRESSURE_Read_Reg:
 1198              	.LFB140:
 1199              		.loc 1 645 0
 1200              		.cfi_startproc
 1201              		@ args = 0, pretend = 0, frame = 24
 1202              		@ frame_needed = 0, uses_anonymous_args = 0
 1203 05a0 00B5     		push	{lr}
 1204              		.cfi_def_cfa_offset 4
 1205              		.cfi_offset 14, -4
 1206 05a2 87B0     		sub	sp, sp, #28
 1207              		.cfi_def_cfa_offset 32
 1208 05a4 0390     		str	r0, [sp, #12]
 1209 05a6 0B46     		mov	r3, r1
 1210 05a8 0192     		str	r2, [sp, #4]
 1211 05aa 8DF80B30 		strb	r3, [sp, #11]
 1212              		.loc 1 647 0
 1213 05ae 039B     		ldr	r3, [sp, #12]
 1214 05b0 0593     		str	r3, [sp, #20]
 1215              		.loc 1 648 0
 1216 05b2 0023     		movs	r3, #0
 1217 05b4 0493     		str	r3, [sp, #16]
 1218              		.loc 1 650 0
 1219 05b6 059B     		ldr	r3, [sp, #20]
 1220 05b8 002B     		cmp	r3, #0
 1221 05ba 01D1     		bne	.L85
 1222              		.loc 1 652 0
 1223 05bc 0123     		movs	r3, #1
 1224 05be 1BE0     		b	.L86
 1225              	.L85:
 1226              		.loc 1 655 0
 1227 05c0 059B     		ldr	r3, [sp, #20]
 1228 05c2 DB68     		ldr	r3, [r3, #12]
 1229 05c4 0493     		str	r3, [sp, #16]
 1230              		.loc 1 657 0
 1231 05c6 019B     		ldr	r3, [sp, #4]
 1232 05c8 002B     		cmp	r3, #0
 1233 05ca 01D1     		bne	.L87
 1234              		.loc 1 659 0
ARM GAS  /tmp/cc75PYCl.s 			page 23


 1235 05cc 0123     		movs	r3, #1
 1236 05ce 13E0     		b	.L86
 1237              	.L87:
 1238              		.loc 1 662 0
 1239 05d0 049B     		ldr	r3, [sp, #16]
 1240 05d2 9B6A     		ldr	r3, [r3, #40]
 1241 05d4 002B     		cmp	r3, #0
 1242 05d6 01D1     		bne	.L88
 1243              		.loc 1 664 0
 1244 05d8 0123     		movs	r3, #1
 1245 05da 0DE0     		b	.L86
 1246              	.L88:
 1247              		.loc 1 667 0
 1248 05dc 049B     		ldr	r3, [sp, #16]
 1249 05de 9B6A     		ldr	r3, [r3, #40]
 1250 05e0 9DF80B20 		ldrb	r2, [sp, #11]	@ zero_extendqisi2
 1251 05e4 0598     		ldr	r0, [sp, #20]
 1252 05e6 1146     		mov	r1, r2
 1253 05e8 019A     		ldr	r2, [sp, #4]
 1254 05ea 9847     		blx	r3
 1255 05ec 0346     		mov	r3, r0
 1256 05ee 012B     		cmp	r3, #1
 1257 05f0 01D1     		bne	.L89
 1258              		.loc 1 669 0
 1259 05f2 0123     		movs	r3, #1
 1260 05f4 00E0     		b	.L86
 1261              	.L89:
 1262              		.loc 1 672 0
 1263 05f6 0023     		movs	r3, #0
 1264              	.L86:
 1265              		.loc 1 673 0
 1266 05f8 1846     		mov	r0, r3
 1267 05fa 07B0     		add	sp, sp, #28
 1268              		@ sp needed
 1269 05fc 5DF804FB 		ldr	pc, [sp], #4
 1270              		.cfi_endproc
 1271              	.LFE140:
 1272              		.size	BSP_PRESSURE_Read_Reg, .-BSP_PRESSURE_Read_Reg
 1273              		.align	2
 1274              		.p2align 4,,15
 1275              		.global	BSP_PRESSURE_Write_Reg
 1276              		.thumb
 1277              		.thumb_func
 1278              		.type	BSP_PRESSURE_Write_Reg, %function
 1279              	BSP_PRESSURE_Write_Reg:
 1280              	.LFB141:
 1281              		.loc 1 686 0
 1282              		.cfi_startproc
 1283              		@ args = 0, pretend = 0, frame = 16
 1284              		@ frame_needed = 0, uses_anonymous_args = 0
 1285 0600 00B5     		push	{lr}
 1286              		.cfi_def_cfa_offset 4
 1287              		.cfi_offset 14, -4
 1288 0602 85B0     		sub	sp, sp, #20
 1289              		.cfi_def_cfa_offset 24
 1290 0604 0190     		str	r0, [sp, #4]
 1291 0606 1346     		mov	r3, r2
ARM GAS  /tmp/cc75PYCl.s 			page 24


 1292 0608 0A46     		mov	r2, r1
 1293 060a 8DF80320 		strb	r2, [sp, #3]
 1294 060e 8DF80230 		strb	r3, [sp, #2]
 1295              		.loc 1 688 0
 1296 0612 019B     		ldr	r3, [sp, #4]
 1297 0614 0393     		str	r3, [sp, #12]
 1298              		.loc 1 689 0
 1299 0616 0023     		movs	r3, #0
 1300 0618 0293     		str	r3, [sp, #8]
 1301              		.loc 1 691 0
 1302 061a 039B     		ldr	r3, [sp, #12]
 1303 061c 002B     		cmp	r3, #0
 1304 061e 01D1     		bne	.L91
 1305              		.loc 1 693 0
 1306 0620 0123     		movs	r3, #1
 1307 0622 16E0     		b	.L92
 1308              	.L91:
 1309              		.loc 1 696 0
 1310 0624 039B     		ldr	r3, [sp, #12]
 1311 0626 DB68     		ldr	r3, [r3, #12]
 1312 0628 0293     		str	r3, [sp, #8]
 1313              		.loc 1 698 0
 1314 062a 029B     		ldr	r3, [sp, #8]
 1315 062c DB6A     		ldr	r3, [r3, #44]
 1316 062e 002B     		cmp	r3, #0
 1317 0630 01D1     		bne	.L93
 1318              		.loc 1 700 0
 1319 0632 0123     		movs	r3, #1
 1320 0634 0DE0     		b	.L92
 1321              	.L93:
 1322              		.loc 1 703 0
 1323 0636 029B     		ldr	r3, [sp, #8]
 1324 0638 DB6A     		ldr	r3, [r3, #44]
 1325 063a 9DF80310 		ldrb	r1, [sp, #3]	@ zero_extendqisi2
 1326 063e 9DF80220 		ldrb	r2, [sp, #2]	@ zero_extendqisi2
 1327 0642 0398     		ldr	r0, [sp, #12]
 1328 0644 9847     		blx	r3
 1329 0646 0346     		mov	r3, r0
 1330 0648 012B     		cmp	r3, #1
 1331 064a 01D1     		bne	.L94
 1332              		.loc 1 705 0
 1333 064c 0123     		movs	r3, #1
 1334 064e 00E0     		b	.L92
 1335              	.L94:
 1336              		.loc 1 708 0
 1337 0650 0023     		movs	r3, #0
 1338              	.L92:
 1339              		.loc 1 709 0
 1340 0652 1846     		mov	r0, r3
 1341 0654 05B0     		add	sp, sp, #20
 1342              		@ sp needed
 1343 0656 5DF804FB 		ldr	pc, [sp], #4
 1344              		.cfi_endproc
 1345              	.LFE141:
 1346              		.size	BSP_PRESSURE_Write_Reg, .-BSP_PRESSURE_Write_Reg
 1347 065a 00BF     		.align	2
 1348 065c AFF30080 		.p2align 4,,15
ARM GAS  /tmp/cc75PYCl.s 			page 25


 1349              		.global	BSP_PRESSURE_Get_DRDY_Status
 1350              		.thumb
 1351              		.thumb_func
 1352              		.type	BSP_PRESSURE_Get_DRDY_Status, %function
 1353              	BSP_PRESSURE_Get_DRDY_Status:
 1354              	.LFB142:
 1355              		.loc 1 721 0
 1356              		.cfi_startproc
 1357              		@ args = 0, pretend = 0, frame = 16
 1358              		@ frame_needed = 0, uses_anonymous_args = 0
 1359 0660 00B5     		push	{lr}
 1360              		.cfi_def_cfa_offset 4
 1361              		.cfi_offset 14, -4
 1362 0662 85B0     		sub	sp, sp, #20
 1363              		.cfi_def_cfa_offset 24
 1364 0664 0190     		str	r0, [sp, #4]
 1365 0666 0091     		str	r1, [sp]
 1366              		.loc 1 723 0
 1367 0668 019B     		ldr	r3, [sp, #4]
 1368 066a 0393     		str	r3, [sp, #12]
 1369              		.loc 1 724 0
 1370 066c 0023     		movs	r3, #0
 1371 066e 0293     		str	r3, [sp, #8]
 1372              		.loc 1 726 0
 1373 0670 039B     		ldr	r3, [sp, #12]
 1374 0672 002B     		cmp	r3, #0
 1375 0674 01D1     		bne	.L96
 1376              		.loc 1 728 0
 1377 0676 0123     		movs	r3, #1
 1378 0678 13E0     		b	.L97
 1379              	.L96:
 1380              		.loc 1 731 0
 1381 067a 039B     		ldr	r3, [sp, #12]
 1382 067c DB68     		ldr	r3, [r3, #12]
 1383 067e 0293     		str	r3, [sp, #8]
 1384              		.loc 1 733 0
 1385 0680 029B     		ldr	r3, [sp, #8]
 1386 0682 1B6B     		ldr	r3, [r3, #48]
 1387 0684 002B     		cmp	r3, #0
 1388 0686 01D1     		bne	.L98
 1389              		.loc 1 735 0
 1390 0688 0123     		movs	r3, #1
 1391 068a 0AE0     		b	.L97
 1392              	.L98:
 1393              		.loc 1 738 0
 1394 068c 029B     		ldr	r3, [sp, #8]
 1395 068e 1B6B     		ldr	r3, [r3, #48]
 1396 0690 0398     		ldr	r0, [sp, #12]
 1397 0692 0099     		ldr	r1, [sp]
 1398 0694 9847     		blx	r3
 1399 0696 0346     		mov	r3, r0
 1400 0698 012B     		cmp	r3, #1
 1401 069a 01D1     		bne	.L99
 1402              		.loc 1 740 0
 1403 069c 0123     		movs	r3, #1
 1404 069e 00E0     		b	.L97
 1405              	.L99:
ARM GAS  /tmp/cc75PYCl.s 			page 26


 1406              		.loc 1 743 0
 1407 06a0 0023     		movs	r3, #0
 1408              	.L97:
 1409              		.loc 1 744 0
 1410 06a2 1846     		mov	r0, r3
 1411 06a4 05B0     		add	sp, sp, #20
 1412              		@ sp needed
 1413 06a6 5DF804FB 		ldr	pc, [sp], #4
 1414              		.cfi_endproc
 1415              	.LFE142:
 1416              		.size	BSP_PRESSURE_Get_DRDY_Status, .-BSP_PRESSURE_Get_DRDY_Status
 1417              	.Letext0:
 1418              		.file 2 "/nfs/nfs5/home/research/hardware/arm2/gcc-arm-embedded/gcc-arm-none-eabi-4_8-2014q2/arm-n
 1419              		.file 3 "/nfs/nfs5/home/research/hardware/arm2/gcc-arm-embedded/gcc-arm-none-eabi-4_8-2014q2/arm-n
 1420              		.file 4 "../../../../../Drivers/BSP/Components/Common/component.h"
 1421              		.file 5 "../../../../../Drivers/BSP/Components/Common/sensor.h"
 1422              		.file 6 "../../../../../Drivers/BSP/Components/Common/pressure.h"
 1423              		.file 7 "../../../../../Drivers/BSP/Components/lps22hb/LPS22HB_Driver_HL.h"
 1424              		.file 8 "../../../../../Drivers/BSP/SensorTile/SensorTile.h"
 1425              		.file 9 "../../../../../Drivers/BSP/SensorTile/SensorTile_pressure.h"
 1426              		.file 10 "../../../../../../ChibiOS/os/ext/CMSIS/include/core_cm4.h"