ARM GAS  /tmp/ccqt4ngY.s 			page 1


   1              		.syntax unified
   2              		.cpu cortex-m4
   3              		.fpu softvfp
   4              		.eabi_attribute 20, 1
   5              		.eabi_attribute 21, 1
   6              		.eabi_attribute 23, 3
   7              		.eabi_attribute 24, 1
   8              		.eabi_attribute 25, 1
   9              		.eabi_attribute 26, 1
  10              		.eabi_attribute 30, 6
  11              		.eabi_attribute 34, 1
  12              		.eabi_attribute 18, 4
  13              		.thumb
  14              		.file	"SensorTile_gg.c"
  15              		.text
  16              	.Ltext0:
  17              		.cfi_sections	.debug_frame
  18              		.bss
  19              		.align	2
  20              	GG_SensorHandle:
  21 0000 00000000 		.space	20
  21      00000000 
  21      00000000 
  21      00000000 
  21      00000000 
  22              		.align	2
  23              	GG_Data:
  24 0014 00000000 		.space	8
  24      00000000 
  25              		.align	2
  26              	STC3115_0_Data:
  27 001c 00000000 		.space	108
  27      00000000 
  27      00000000 
  27      00000000 
  27      00000000 
  28              		.text
  29              		.align	2
  30              		.p2align 4,,15
  31              		.global	BSP_GG_Init
  32              		.thumb
  33              		.thumb_func
  34              		.type	BSP_GG_Init, %function
  35              	BSP_GG_Init:
  36              	.LFB125:
  37              		.file 1 "../../../../../Drivers/BSP/SensorTile/SensorTile_gg.c"
  38              		.loc 1 103 0
  39              		.cfi_startproc
  40              		@ args = 0, pretend = 0, frame = 16
  41              		@ frame_needed = 0, uses_anonymous_args = 0
  42 0000 00B5     		push	{lr}
  43              		.cfi_def_cfa_offset 4
  44              		.cfi_offset 14, -4
  45 0002 85B0     		sub	sp, sp, #20
  46              		.cfi_def_cfa_offset 24
  47 0004 0190     		str	r0, [sp, #4]
  48              		.loc 1 104 0
ARM GAS  /tmp/ccqt4ngY.s 			page 2


  49 0006 0023     		movs	r3, #0
  50 0008 0393     		str	r3, [sp, #12]
  51              		.loc 1 106 0
  52 000a 324B     		ldr	r3, .L7
  53 000c 5B79     		ldrb	r3, [r3, #5]	@ zero_extendqisi2
  54 000e 012B     		cmp	r3, #1
  55 0010 01D1     		bne	.L2
  56              		.loc 1 109 0
  57 0012 0123     		movs	r3, #1
  58 0014 5AE0     		b	.L3
  59              	.L2:
  60              		.loc 1 112 0
  61 0016 FFF7FEFF 		bl	Sensor_IO_I2C_Init
  62 001a 0346     		mov	r3, r0
  63 001c 012B     		cmp	r3, #1
  64 001e 01D1     		bne	.L4
  65              		.loc 1 114 0
  66 0020 0123     		movs	r3, #1
  67 0022 53E0     		b	.L3
  68              	.L4:
  69              		.loc 1 118 0
  70 0024 2B4B     		ldr	r3, .L7
  71 0026 1422     		movs	r2, #20
  72 0028 1A70     		strb	r2, [r3]
  73              		.loc 1 119 0
  74 002a 2A4B     		ldr	r3, .L7
  75 002c 0022     		movs	r2, #0
  76 002e 5A70     		strb	r2, [r3, #1]
  77              		.loc 1 120 0
  78 0030 284B     		ldr	r3, .L7
  79 0032 E022     		movs	r2, #224
  80 0034 9A70     		strb	r2, [r3, #2]
  81              		.loc 1 121 0
  82 0036 274B     		ldr	r3, .L7
  83 0038 0022     		movs	r2, #0
  84 003a DA70     		strb	r2, [r3, #3]
  85              		.loc 1 122 0
  86 003c 254B     		ldr	r3, .L7
  87 003e 0022     		movs	r2, #0
  88 0040 1A71     		strb	r2, [r3, #4]
  89              		.loc 1 123 0
  90 0042 244B     		ldr	r3, .L7
  91 0044 0022     		movs	r2, #0
  92 0046 5A71     		strb	r2, [r3, #5]
  93              		.loc 1 124 0
  94 0048 224B     		ldr	r3, .L7
  95 004a 0022     		movs	r2, #0
  96 004c 9A71     		strb	r2, [r3, #6]
  97              		.loc 1 125 0
  98 004e 214B     		ldr	r3, .L7
  99 0050 0122     		movs	r2, #1
 100 0052 DA71     		strb	r2, [r3, #7]
 101              		.loc 1 126 0
 102 0054 1F4B     		ldr	r3, .L7
 103 0056 204A     		ldr	r2, .L7+4
 104 0058 9A60     		str	r2, [r3, #8]
 105              		.loc 1 127 0
ARM GAS  /tmp/ccqt4ngY.s 			page 3


 106 005a 1E4B     		ldr	r3, .L7
 107 005c 1F4A     		ldr	r2, .L7+8
 108 005e DA60     		str	r2, [r3, #12]
 109              		.loc 1 128 0
 110 0060 1C4B     		ldr	r3, .L7
 111 0062 0022     		movs	r2, #0
 112 0064 1A61     		str	r2, [r3, #16]
 113              		.loc 1 130 0
 114 0066 1C4B     		ldr	r3, .L7+4
 115 0068 1D4A     		ldr	r2, .L7+12
 116 006a 1A60     		str	r2, [r3]
 117              		.loc 1 131 0
 118 006c 1A4B     		ldr	r3, .L7+4
 119 006e 0022     		movs	r2, #0
 120 0070 5A60     		str	r2, [r3, #4]
 121              		.loc 1 133 0
 122 0072 019B     		ldr	r3, [sp, #4]
 123 0074 174A     		ldr	r2, .L7
 124 0076 1A60     		str	r2, [r3]
 125              		.loc 1 136 0
 126 0078 019B     		ldr	r3, [sp, #4]
 127 007a 1B68     		ldr	r3, [r3]
 128 007c DB68     		ldr	r3, [r3, #12]
 129 007e 0393     		str	r3, [sp, #12]
 130              		.loc 1 138 0
 131 0080 039B     		ldr	r3, [sp, #12]
 132 0082 1B68     		ldr	r3, [r3]
 133 0084 002B     		cmp	r3, #0
 134 0086 0BD1     		bne	.L5
 135              		.loc 1 140 0
 136 0088 019B     		ldr	r3, [sp, #4]
 137 008a 1B68     		ldr	r3, [r3]
 138 008c 1846     		mov	r0, r3
 139 008e 0021     		movs	r1, #0
 140 0090 1422     		movs	r2, #20
 141 0092 FFF7FEFF 		bl	memset
 142              		.loc 1 141 0
 143 0096 019B     		ldr	r3, [sp, #4]
 144 0098 0022     		movs	r2, #0
 145 009a 1A60     		str	r2, [r3]
 146              		.loc 1 142 0
 147 009c 0123     		movs	r3, #1
 148 009e 15E0     		b	.L3
 149              	.L5:
 150              		.loc 1 145 0
 151 00a0 039B     		ldr	r3, [sp, #12]
 152 00a2 1B68     		ldr	r3, [r3]
 153 00a4 019A     		ldr	r2, [sp, #4]
 154 00a6 1268     		ldr	r2, [r2]
 155 00a8 1046     		mov	r0, r2
 156 00aa 9847     		blx	r3
 157 00ac 0346     		mov	r3, r0
 158 00ae 012B     		cmp	r3, #1
 159 00b0 0BD1     		bne	.L6
 160              		.loc 1 147 0
 161 00b2 019B     		ldr	r3, [sp, #4]
 162 00b4 1B68     		ldr	r3, [r3]
ARM GAS  /tmp/ccqt4ngY.s 			page 4


 163 00b6 1846     		mov	r0, r3
 164 00b8 0021     		movs	r1, #0
 165 00ba 1422     		movs	r2, #20
 166 00bc FFF7FEFF 		bl	memset
 167              		.loc 1 148 0
 168 00c0 019B     		ldr	r3, [sp, #4]
 169 00c2 0022     		movs	r2, #0
 170 00c4 1A60     		str	r2, [r3]
 171              		.loc 1 149 0
 172 00c6 0123     		movs	r3, #1
 173 00c8 00E0     		b	.L3
 174              	.L6:
 175              		.loc 1 152 0
 176 00ca 0023     		movs	r3, #0
 177              	.L3:
 178              		.loc 1 153 0
 179 00cc 1846     		mov	r0, r3
 180 00ce 05B0     		add	sp, sp, #20
 181              		@ sp needed
 182 00d0 5DF804FB 		ldr	pc, [sp], #4
 183              	.L8:
 184              		.align	2
 185              	.L7:
 186 00d4 00000000 		.word	GG_SensorHandle
 187 00d8 14000000 		.word	GG_Data
 188 00dc 00000000 		.word	STC3115_Drv
 189 00e0 1C000000 		.word	STC3115_0_Data
 190              		.cfi_endproc
 191              	.LFE125:
 192              		.size	BSP_GG_Init, .-BSP_GG_Init
 193              		.align	2
 194 00e4 AFF30080 		.p2align 4,,15
 194      AFF30080 
 194      AFF30080 
 195              		.global	BSP_GG_DeInit
 196              		.thumb
 197              		.thumb_func
 198              		.type	BSP_GG_DeInit, %function
 199              	BSP_GG_DeInit:
 200              	.LFB126:
 201              		.loc 1 163 0
 202              		.cfi_startproc
 203              		@ args = 0, pretend = 0, frame = 16
 204              		@ frame_needed = 0, uses_anonymous_args = 0
 205 00f0 00B5     		push	{lr}
 206              		.cfi_def_cfa_offset 4
 207              		.cfi_offset 14, -4
 208 00f2 85B0     		sub	sp, sp, #20
 209              		.cfi_def_cfa_offset 24
 210 00f4 0190     		str	r0, [sp, #4]
 211              		.loc 1 164 0
 212 00f6 019B     		ldr	r3, [sp, #4]
 213 00f8 1B68     		ldr	r3, [r3]
 214 00fa 0393     		str	r3, [sp, #12]
 215              		.loc 1 165 0
 216 00fc 0023     		movs	r3, #0
 217 00fe 0293     		str	r3, [sp, #8]
ARM GAS  /tmp/ccqt4ngY.s 			page 5


 218              		.loc 1 167 0
 219 0100 039B     		ldr	r3, [sp, #12]
 220 0102 002B     		cmp	r3, #0
 221 0104 01D1     		bne	.L10
 222              		.loc 1 169 0
 223 0106 0123     		movs	r3, #1
 224 0108 1AE0     		b	.L11
 225              	.L10:
 226              		.loc 1 172 0
 227 010a 039B     		ldr	r3, [sp, #12]
 228 010c DB68     		ldr	r3, [r3, #12]
 229 010e 0293     		str	r3, [sp, #8]
 230              		.loc 1 174 0
 231 0110 029B     		ldr	r3, [sp, #8]
 232 0112 5B68     		ldr	r3, [r3, #4]
 233 0114 002B     		cmp	r3, #0
 234 0116 01D1     		bne	.L12
 235              		.loc 1 176 0
 236 0118 0123     		movs	r3, #1
 237 011a 11E0     		b	.L11
 238              	.L12:
 239              		.loc 1 179 0
 240 011c 029B     		ldr	r3, [sp, #8]
 241 011e 5B68     		ldr	r3, [r3, #4]
 242 0120 0398     		ldr	r0, [sp, #12]
 243 0122 9847     		blx	r3
 244 0124 0346     		mov	r3, r0
 245 0126 012B     		cmp	r3, #1
 246 0128 01D1     		bne	.L13
 247              		.loc 1 181 0
 248 012a 0123     		movs	r3, #1
 249 012c 08E0     		b	.L11
 250              	.L13:
 251              		.loc 1 184 0
 252 012e 0398     		ldr	r0, [sp, #12]
 253 0130 0021     		movs	r1, #0
 254 0132 1422     		movs	r2, #20
 255 0134 FFF7FEFF 		bl	memset
 256              		.loc 1 186 0
 257 0138 019B     		ldr	r3, [sp, #4]
 258 013a 0022     		movs	r2, #0
 259 013c 1A60     		str	r2, [r3]
 260              		.loc 1 188 0
 261 013e 0023     		movs	r3, #0
 262              	.L11:
 263              		.loc 1 189 0
 264 0140 1846     		mov	r0, r3
 265 0142 05B0     		add	sp, sp, #20
 266              		@ sp needed
 267 0144 5DF804FB 		ldr	pc, [sp], #4
 268              		.cfi_endproc
 269              	.LFE126:
 270              		.size	BSP_GG_DeInit, .-BSP_GG_DeInit
 271              		.align	2
 272 0148 AFF30080 		.p2align 4,,15
 272      AFF30080 
 273              		.global	BSP_GG_IsInitialized
ARM GAS  /tmp/ccqt4ngY.s 			page 6


 274              		.thumb
 275              		.thumb_func
 276              		.type	BSP_GG_IsInitialized, %function
 277              	BSP_GG_IsInitialized:
 278              	.LFB127:
 279              		.loc 1 204 0
 280              		.cfi_startproc
 281              		@ args = 0, pretend = 0, frame = 16
 282              		@ frame_needed = 0, uses_anonymous_args = 0
 283              		@ link register save eliminated.
 284 0150 84B0     		sub	sp, sp, #16
 285              		.cfi_def_cfa_offset 16
 286 0152 0190     		str	r0, [sp, #4]
 287 0154 0091     		str	r1, [sp]
 288              		.loc 1 205 0
 289 0156 019B     		ldr	r3, [sp, #4]
 290 0158 0393     		str	r3, [sp, #12]
 291              		.loc 1 207 0
 292 015a 039B     		ldr	r3, [sp, #12]
 293 015c 002B     		cmp	r3, #0
 294 015e 01D1     		bne	.L15
 295              		.loc 1 209 0
 296 0160 0123     		movs	r3, #1
 297 0162 09E0     		b	.L16
 298              	.L15:
 299              		.loc 1 212 0
 300 0164 009B     		ldr	r3, [sp]
 301 0166 002B     		cmp	r3, #0
 302 0168 01D1     		bne	.L17
 303              		.loc 1 214 0
 304 016a 0123     		movs	r3, #1
 305 016c 04E0     		b	.L16
 306              	.L17:
 307              		.loc 1 217 0
 308 016e 039B     		ldr	r3, [sp, #12]
 309 0170 5A79     		ldrb	r2, [r3, #5]	@ zero_extendqisi2
 310 0172 009B     		ldr	r3, [sp]
 311 0174 1A70     		strb	r2, [r3]
 312              		.loc 1 219 0
 313 0176 0023     		movs	r3, #0
 314              	.L16:
 315              		.loc 1 220 0
 316 0178 1846     		mov	r0, r3
 317 017a 04B0     		add	sp, sp, #16
 318              		@ sp needed
 319 017c 7047     		bx	lr
 320              		.cfi_endproc
 321              	.LFE127:
 322              		.size	BSP_GG_IsInitialized, .-BSP_GG_IsInitialized
 323 017e 00BF     		.align	2
 324              		.p2align 4,,15
 325              		.global	BSP_GG_IsCombo
 326              		.thumb
 327              		.thumb_func
 328              		.type	BSP_GG_IsCombo, %function
 329              	BSP_GG_IsCombo:
 330              	.LFB128:
ARM GAS  /tmp/ccqt4ngY.s 			page 7


 331              		.loc 1 232 0
 332              		.cfi_startproc
 333              		@ args = 0, pretend = 0, frame = 16
 334              		@ frame_needed = 0, uses_anonymous_args = 0
 335              		@ link register save eliminated.
 336 0180 84B0     		sub	sp, sp, #16
 337              		.cfi_def_cfa_offset 16
 338 0182 0190     		str	r0, [sp, #4]
 339 0184 0091     		str	r1, [sp]
 340              		.loc 1 233 0
 341 0186 019B     		ldr	r3, [sp, #4]
 342 0188 0393     		str	r3, [sp, #12]
 343              		.loc 1 235 0
 344 018a 039B     		ldr	r3, [sp, #12]
 345 018c 002B     		cmp	r3, #0
 346 018e 01D1     		bne	.L19
 347              		.loc 1 237 0
 348 0190 0123     		movs	r3, #1
 349 0192 09E0     		b	.L20
 350              	.L19:
 351              		.loc 1 240 0
 352 0194 009B     		ldr	r3, [sp]
 353 0196 002B     		cmp	r3, #0
 354 0198 01D1     		bne	.L21
 355              		.loc 1 242 0
 356 019a 0123     		movs	r3, #1
 357 019c 04E0     		b	.L20
 358              	.L21:
 359              		.loc 1 245 0
 360 019e 039B     		ldr	r3, [sp, #12]
 361 01a0 DA79     		ldrb	r2, [r3, #7]	@ zero_extendqisi2
 362 01a2 009B     		ldr	r3, [sp]
 363 01a4 1A70     		strb	r2, [r3]
 364              		.loc 1 247 0
 365 01a6 0023     		movs	r3, #0
 366              	.L20:
 367              		.loc 1 248 0
 368 01a8 1846     		mov	r0, r3
 369 01aa 04B0     		add	sp, sp, #16
 370              		@ sp needed
 371 01ac 7047     		bx	lr
 372              		.cfi_endproc
 373              	.LFE128:
 374              		.size	BSP_GG_IsCombo, .-BSP_GG_IsCombo
 375 01ae 00BF     		.align	2
 376              		.p2align 4,,15
 377              		.global	BSP_GG_Get_WhoAmI
 378              		.thumb
 379              		.thumb_func
 380              		.type	BSP_GG_Get_WhoAmI, %function
 381              	BSP_GG_Get_WhoAmI:
 382              	.LFB129:
 383              		.loc 1 259 0
 384              		.cfi_startproc
 385              		@ args = 0, pretend = 0, frame = 16
 386              		@ frame_needed = 0, uses_anonymous_args = 0
 387 01b0 00B5     		push	{lr}
ARM GAS  /tmp/ccqt4ngY.s 			page 8


 388              		.cfi_def_cfa_offset 4
 389              		.cfi_offset 14, -4
 390 01b2 85B0     		sub	sp, sp, #20
 391              		.cfi_def_cfa_offset 24
 392 01b4 0190     		str	r0, [sp, #4]
 393 01b6 0091     		str	r1, [sp]
 394              		.loc 1 261 0
 395 01b8 019B     		ldr	r3, [sp, #4]
 396 01ba 0393     		str	r3, [sp, #12]
 397              		.loc 1 262 0
 398 01bc 0023     		movs	r3, #0
 399 01be 0293     		str	r3, [sp, #8]
 400              		.loc 1 264 0
 401 01c0 039B     		ldr	r3, [sp, #12]
 402 01c2 002B     		cmp	r3, #0
 403 01c4 01D1     		bne	.L23
 404              		.loc 1 266 0
 405 01c6 0123     		movs	r3, #1
 406 01c8 18E0     		b	.L24
 407              	.L23:
 408              		.loc 1 269 0
 409 01ca 039B     		ldr	r3, [sp, #12]
 410 01cc DB68     		ldr	r3, [r3, #12]
 411 01ce 0293     		str	r3, [sp, #8]
 412              		.loc 1 271 0
 413 01d0 009B     		ldr	r3, [sp]
 414 01d2 002B     		cmp	r3, #0
 415 01d4 01D1     		bne	.L25
 416              		.loc 1 273 0
 417 01d6 0123     		movs	r3, #1
 418 01d8 10E0     		b	.L24
 419              	.L25:
 420              		.loc 1 275 0
 421 01da 029B     		ldr	r3, [sp, #8]
 422 01dc 1B69     		ldr	r3, [r3, #16]
 423 01de 002B     		cmp	r3, #0
 424 01e0 01D1     		bne	.L26
 425              		.loc 1 277 0
 426 01e2 0123     		movs	r3, #1
 427 01e4 0AE0     		b	.L24
 428              	.L26:
 429              		.loc 1 279 0
 430 01e6 029B     		ldr	r3, [sp, #8]
 431 01e8 1B69     		ldr	r3, [r3, #16]
 432 01ea 0398     		ldr	r0, [sp, #12]
 433 01ec 0099     		ldr	r1, [sp]
 434 01ee 9847     		blx	r3
 435 01f0 0346     		mov	r3, r0
 436 01f2 012B     		cmp	r3, #1
 437 01f4 01D1     		bne	.L27
 438              		.loc 1 281 0
 439 01f6 0123     		movs	r3, #1
 440 01f8 00E0     		b	.L24
 441              	.L27:
 442              		.loc 1 284 0
 443 01fa 0023     		movs	r3, #0
 444              	.L24:
ARM GAS  /tmp/ccqt4ngY.s 			page 9


 445              		.loc 1 285 0
 446 01fc 1846     		mov	r0, r3
 447 01fe 05B0     		add	sp, sp, #20
 448              		@ sp needed
 449 0200 5DF804FB 		ldr	pc, [sp], #4
 450              		.cfi_endproc
 451              	.LFE129:
 452              		.size	BSP_GG_Get_WhoAmI, .-BSP_GG_Get_WhoAmI
 453              		.align	2
 454 0204 AFF30080 		.p2align 4,,15
 454      AFF30080 
 454      AFF30080 
 455              		.global	BSP_GG_Task
 456              		.thumb
 457              		.thumb_func
 458              		.type	BSP_GG_Task, %function
 459              	BSP_GG_Task:
 460              	.LFB130:
 461              		.loc 1 296 0
 462              		.cfi_startproc
 463              		@ args = 0, pretend = 0, frame = 16
 464              		@ frame_needed = 0, uses_anonymous_args = 0
 465 0210 00B5     		push	{lr}
 466              		.cfi_def_cfa_offset 4
 467              		.cfi_offset 14, -4
 468 0212 85B0     		sub	sp, sp, #20
 469              		.cfi_def_cfa_offset 24
 470 0214 0190     		str	r0, [sp, #4]
 471 0216 0091     		str	r1, [sp]
 472              		.loc 1 297 0
 473 0218 019B     		ldr	r3, [sp, #4]
 474 021a 0393     		str	r3, [sp, #12]
 475              		.loc 1 298 0
 476 021c 0023     		movs	r3, #0
 477 021e 0293     		str	r3, [sp, #8]
 478              		.loc 1 300 0
 479 0220 039B     		ldr	r3, [sp, #12]
 480 0222 002B     		cmp	r3, #0
 481 0224 01D1     		bne	.L29
 482              		.loc 1 302 0
 483 0226 0123     		movs	r3, #1
 484 0228 0EE0     		b	.L30
 485              	.L29:
 486              		.loc 1 305 0
 487 022a 039B     		ldr	r3, [sp, #12]
 488 022c DB68     		ldr	r3, [r3, #12]
 489 022e 0293     		str	r3, [sp, #8]
 490              		.loc 1 307 0
 491 0230 029B     		ldr	r3, [sp, #8]
 492 0232 5B69     		ldr	r3, [r3, #20]
 493 0234 002B     		cmp	r3, #0
 494 0236 01D1     		bne	.L31
 495              		.loc 1 309 0
 496 0238 0123     		movs	r3, #1
 497 023a 05E0     		b	.L30
 498              	.L31:
 499              		.loc 1 312 0
ARM GAS  /tmp/ccqt4ngY.s 			page 10


 500 023c 029B     		ldr	r3, [sp, #8]
 501 023e 5B69     		ldr	r3, [r3, #20]
 502 0240 0398     		ldr	r0, [sp, #12]
 503 0242 0099     		ldr	r1, [sp]
 504 0244 9847     		blx	r3
 505 0246 0346     		mov	r3, r0
 506              	.L30:
 507              		.loc 1 313 0
 508 0248 1846     		mov	r0, r3
 509 024a 05B0     		add	sp, sp, #20
 510              		@ sp needed
 511 024c 5DF804FB 		ldr	pc, [sp], #4
 512              		.cfi_endproc
 513              	.LFE130:
 514              		.size	BSP_GG_Task, .-BSP_GG_Task
 515              		.align	2
 516              		.p2align 4,,15
 517              		.global	BSP_GG_Reset
 518              		.thumb
 519              		.thumb_func
 520              		.type	BSP_GG_Reset, %function
 521              	BSP_GG_Reset:
 522              	.LFB131:
 523              		.loc 1 324 0
 524              		.cfi_startproc
 525              		@ args = 0, pretend = 0, frame = 16
 526              		@ frame_needed = 0, uses_anonymous_args = 0
 527 0250 00B5     		push	{lr}
 528              		.cfi_def_cfa_offset 4
 529              		.cfi_offset 14, -4
 530 0252 85B0     		sub	sp, sp, #20
 531              		.cfi_def_cfa_offset 24
 532 0254 0190     		str	r0, [sp, #4]
 533              		.loc 1 325 0
 534 0256 019B     		ldr	r3, [sp, #4]
 535 0258 0393     		str	r3, [sp, #12]
 536              		.loc 1 326 0
 537 025a 0023     		movs	r3, #0
 538 025c 0293     		str	r3, [sp, #8]
 539              		.loc 1 328 0
 540 025e 039B     		ldr	r3, [sp, #12]
 541 0260 002B     		cmp	r3, #0
 542 0262 01D1     		bne	.L33
 543              		.loc 1 330 0
 544 0264 0123     		movs	r3, #1
 545 0266 0DE0     		b	.L34
 546              	.L33:
 547              		.loc 1 333 0
 548 0268 039B     		ldr	r3, [sp, #12]
 549 026a DB68     		ldr	r3, [r3, #12]
 550 026c 0293     		str	r3, [sp, #8]
 551              		.loc 1 335 0
 552 026e 029B     		ldr	r3, [sp, #8]
 553 0270 9B69     		ldr	r3, [r3, #24]
 554 0272 002B     		cmp	r3, #0
 555 0274 01D1     		bne	.L35
 556              		.loc 1 337 0
ARM GAS  /tmp/ccqt4ngY.s 			page 11


 557 0276 0123     		movs	r3, #1
 558 0278 04E0     		b	.L34
 559              	.L35:
 560              		.loc 1 340 0
 561 027a 029B     		ldr	r3, [sp, #8]
 562 027c 9B69     		ldr	r3, [r3, #24]
 563 027e 0398     		ldr	r0, [sp, #12]
 564 0280 9847     		blx	r3
 565 0282 0346     		mov	r3, r0
 566              	.L34:
 567              		.loc 1 341 0
 568 0284 1846     		mov	r0, r3
 569 0286 05B0     		add	sp, sp, #20
 570              		@ sp needed
 571 0288 5DF804FB 		ldr	pc, [sp], #4
 572              		.cfi_endproc
 573              	.LFE131:
 574              		.size	BSP_GG_Reset, .-BSP_GG_Reset
 575              		.align	2
 576 028c AFF30080 		.p2align 4,,15
 577              		.global	BSP_GG_Stop
 578              		.thumb
 579              		.thumb_func
 580              		.type	BSP_GG_Stop, %function
 581              	BSP_GG_Stop:
 582              	.LFB132:
 583              		.loc 1 351 0
 584              		.cfi_startproc
 585              		@ args = 0, pretend = 0, frame = 16
 586              		@ frame_needed = 0, uses_anonymous_args = 0
 587 0290 00B5     		push	{lr}
 588              		.cfi_def_cfa_offset 4
 589              		.cfi_offset 14, -4
 590 0292 85B0     		sub	sp, sp, #20
 591              		.cfi_def_cfa_offset 24
 592 0294 0190     		str	r0, [sp, #4]
 593              		.loc 1 352 0
 594 0296 019B     		ldr	r3, [sp, #4]
 595 0298 0393     		str	r3, [sp, #12]
 596              		.loc 1 353 0
 597 029a 0023     		movs	r3, #0
 598 029c 0293     		str	r3, [sp, #8]
 599              		.loc 1 355 0
 600 029e 039B     		ldr	r3, [sp, #12]
 601 02a0 002B     		cmp	r3, #0
 602 02a2 01D1     		bne	.L37
 603              		.loc 1 357 0
 604 02a4 0123     		movs	r3, #1
 605 02a6 0DE0     		b	.L38
 606              	.L37:
 607              		.loc 1 360 0
 608 02a8 039B     		ldr	r3, [sp, #12]
 609 02aa DB68     		ldr	r3, [r3, #12]
 610 02ac 0293     		str	r3, [sp, #8]
 611              		.loc 1 362 0
 612 02ae 029B     		ldr	r3, [sp, #8]
 613 02b0 DB69     		ldr	r3, [r3, #28]
ARM GAS  /tmp/ccqt4ngY.s 			page 12


 614 02b2 002B     		cmp	r3, #0
 615 02b4 01D1     		bne	.L39
 616              		.loc 1 364 0
 617 02b6 0123     		movs	r3, #1
 618 02b8 04E0     		b	.L38
 619              	.L39:
 620              		.loc 1 367 0
 621 02ba 029B     		ldr	r3, [sp, #8]
 622 02bc DB69     		ldr	r3, [r3, #28]
 623 02be 0398     		ldr	r0, [sp, #12]
 624 02c0 9847     		blx	r3
 625 02c2 0346     		mov	r3, r0
 626              	.L38:
 627              		.loc 1 368 0
 628 02c4 1846     		mov	r0, r3
 629 02c6 05B0     		add	sp, sp, #20
 630              		@ sp needed
 631 02c8 5DF804FB 		ldr	pc, [sp], #4
 632              		.cfi_endproc
 633              	.LFE132:
 634              		.size	BSP_GG_Stop, .-BSP_GG_Stop
 635              		.align	2
 636 02cc AFF30080 		.p2align 4,,15
 637              		.global	BSP_GG_GetOCV
 638              		.thumb
 639              		.thumb_func
 640              		.type	BSP_GG_GetOCV, %function
 641              	BSP_GG_GetOCV:
 642              	.LFB133:
 643              		.loc 1 379 0
 644              		.cfi_startproc
 645              		@ args = 0, pretend = 0, frame = 16
 646              		@ frame_needed = 0, uses_anonymous_args = 0
 647 02d0 00B5     		push	{lr}
 648              		.cfi_def_cfa_offset 4
 649              		.cfi_offset 14, -4
 650 02d2 85B0     		sub	sp, sp, #20
 651              		.cfi_def_cfa_offset 24
 652 02d4 0190     		str	r0, [sp, #4]
 653 02d6 0091     		str	r1, [sp]
 654              		.loc 1 380 0
 655 02d8 019B     		ldr	r3, [sp, #4]
 656 02da 0393     		str	r3, [sp, #12]
 657              		.loc 1 381 0
 658 02dc 0023     		movs	r3, #0
 659 02de 0293     		str	r3, [sp, #8]
 660              		.loc 1 383 0
 661 02e0 039B     		ldr	r3, [sp, #12]
 662 02e2 002B     		cmp	r3, #0
 663 02e4 01D1     		bne	.L41
 664              		.loc 1 385 0
 665 02e6 0123     		movs	r3, #1
 666 02e8 0EE0     		b	.L42
 667              	.L41:
 668              		.loc 1 388 0
 669 02ea 039B     		ldr	r3, [sp, #12]
 670 02ec DB68     		ldr	r3, [r3, #12]
ARM GAS  /tmp/ccqt4ngY.s 			page 13


 671 02ee 0293     		str	r3, [sp, #8]
 672              		.loc 1 390 0
 673 02f0 029B     		ldr	r3, [sp, #8]
 674 02f2 5B6A     		ldr	r3, [r3, #36]
 675 02f4 002B     		cmp	r3, #0
 676 02f6 01D1     		bne	.L43
 677              		.loc 1 392 0
 678 02f8 0123     		movs	r3, #1
 679 02fa 05E0     		b	.L42
 680              	.L43:
 681              		.loc 1 395 0
 682 02fc 029B     		ldr	r3, [sp, #8]
 683 02fe 5B6A     		ldr	r3, [r3, #36]
 684 0300 0398     		ldr	r0, [sp, #12]
 685 0302 0099     		ldr	r1, [sp]
 686 0304 9847     		blx	r3
 687 0306 0346     		mov	r3, r0
 688              	.L42:
 689              		.loc 1 396 0
 690 0308 1846     		mov	r0, r3
 691 030a 05B0     		add	sp, sp, #20
 692              		@ sp needed
 693 030c 5DF804FB 		ldr	pc, [sp], #4
 694              		.cfi_endproc
 695              	.LFE133:
 696              		.size	BSP_GG_GetOCV, .-BSP_GG_GetOCV
 697              		.align	2
 698              		.p2align 4,,15
 699              		.global	BSP_GG_GetSOC
 700              		.thumb
 701              		.thumb_func
 702              		.type	BSP_GG_GetSOC, %function
 703              	BSP_GG_GetSOC:
 704              	.LFB134:
 705              		.loc 1 407 0
 706              		.cfi_startproc
 707              		@ args = 0, pretend = 0, frame = 16
 708              		@ frame_needed = 0, uses_anonymous_args = 0
 709 0310 00B5     		push	{lr}
 710              		.cfi_def_cfa_offset 4
 711              		.cfi_offset 14, -4
 712 0312 85B0     		sub	sp, sp, #20
 713              		.cfi_def_cfa_offset 24
 714 0314 0190     		str	r0, [sp, #4]
 715 0316 0091     		str	r1, [sp]
 716              		.loc 1 408 0
 717 0318 019B     		ldr	r3, [sp, #4]
 718 031a 0393     		str	r3, [sp, #12]
 719              		.loc 1 409 0
 720 031c 0023     		movs	r3, #0
 721 031e 0293     		str	r3, [sp, #8]
 722              		.loc 1 411 0
 723 0320 039B     		ldr	r3, [sp, #12]
 724 0322 002B     		cmp	r3, #0
 725 0324 01D1     		bne	.L45
 726              		.loc 1 413 0
 727 0326 0123     		movs	r3, #1
ARM GAS  /tmp/ccqt4ngY.s 			page 14


 728 0328 0EE0     		b	.L46
 729              	.L45:
 730              		.loc 1 416 0
 731 032a 039B     		ldr	r3, [sp, #12]
 732 032c DB68     		ldr	r3, [r3, #12]
 733 032e 0293     		str	r3, [sp, #8]
 734              		.loc 1 418 0
 735 0330 029B     		ldr	r3, [sp, #8]
 736 0332 1B6A     		ldr	r3, [r3, #32]
 737 0334 002B     		cmp	r3, #0
 738 0336 01D1     		bne	.L47
 739              		.loc 1 420 0
 740 0338 0123     		movs	r3, #1
 741 033a 05E0     		b	.L46
 742              	.L47:
 743              		.loc 1 423 0
 744 033c 029B     		ldr	r3, [sp, #8]
 745 033e 1B6A     		ldr	r3, [r3, #32]
 746 0340 0398     		ldr	r0, [sp, #12]
 747 0342 0099     		ldr	r1, [sp]
 748 0344 9847     		blx	r3
 749 0346 0346     		mov	r3, r0
 750              	.L46:
 751              		.loc 1 424 0
 752 0348 1846     		mov	r0, r3
 753 034a 05B0     		add	sp, sp, #20
 754              		@ sp needed
 755 034c 5DF804FB 		ldr	pc, [sp], #4
 756              		.cfi_endproc
 757              	.LFE134:
 758              		.size	BSP_GG_GetSOC, .-BSP_GG_GetSOC
 759              		.align	2
 760              		.p2align 4,,15
 761              		.global	BSP_GG_GetChargeValue
 762              		.thumb
 763              		.thumb_func
 764              		.type	BSP_GG_GetChargeValue, %function
 765              	BSP_GG_GetChargeValue:
 766              	.LFB135:
 767              		.loc 1 435 0
 768              		.cfi_startproc
 769              		@ args = 0, pretend = 0, frame = 16
 770              		@ frame_needed = 0, uses_anonymous_args = 0
 771 0350 00B5     		push	{lr}
 772              		.cfi_def_cfa_offset 4
 773              		.cfi_offset 14, -4
 774 0352 85B0     		sub	sp, sp, #20
 775              		.cfi_def_cfa_offset 24
 776 0354 0190     		str	r0, [sp, #4]
 777 0356 0091     		str	r1, [sp]
 778              		.loc 1 436 0
 779 0358 019B     		ldr	r3, [sp, #4]
 780 035a 0393     		str	r3, [sp, #12]
 781              		.loc 1 437 0
 782 035c 0023     		movs	r3, #0
 783 035e 0293     		str	r3, [sp, #8]
 784              		.loc 1 439 0
ARM GAS  /tmp/ccqt4ngY.s 			page 15


 785 0360 039B     		ldr	r3, [sp, #12]
 786 0362 002B     		cmp	r3, #0
 787 0364 01D1     		bne	.L49
 788              		.loc 1 441 0
 789 0366 0123     		movs	r3, #1
 790 0368 0EE0     		b	.L50
 791              	.L49:
 792              		.loc 1 444 0
 793 036a 039B     		ldr	r3, [sp, #12]
 794 036c DB68     		ldr	r3, [r3, #12]
 795 036e 0293     		str	r3, [sp, #8]
 796              		.loc 1 446 0
 797 0370 029B     		ldr	r3, [sp, #8]
 798 0372 5B6B     		ldr	r3, [r3, #52]
 799 0374 002B     		cmp	r3, #0
 800 0376 01D1     		bne	.L51
 801              		.loc 1 448 0
 802 0378 0123     		movs	r3, #1
 803 037a 05E0     		b	.L50
 804              	.L51:
 805              		.loc 1 451 0
 806 037c 029B     		ldr	r3, [sp, #8]
 807 037e 5B6B     		ldr	r3, [r3, #52]
 808 0380 0398     		ldr	r0, [sp, #12]
 809 0382 0099     		ldr	r1, [sp]
 810 0384 9847     		blx	r3
 811 0386 0346     		mov	r3, r0
 812              	.L50:
 813              		.loc 1 452 0
 814 0388 1846     		mov	r0, r3
 815 038a 05B0     		add	sp, sp, #20
 816              		@ sp needed
 817 038c 5DF804FB 		ldr	pc, [sp], #4
 818              		.cfi_endproc
 819              	.LFE135:
 820              		.size	BSP_GG_GetChargeValue, .-BSP_GG_GetChargeValue
 821              		.align	2
 822              		.p2align 4,,15
 823              		.global	BSP_GG_GetPresence
 824              		.thumb
 825              		.thumb_func
 826              		.type	BSP_GG_GetPresence, %function
 827              	BSP_GG_GetPresence:
 828              	.LFB136:
 829              		.loc 1 463 0
 830              		.cfi_startproc
 831              		@ args = 0, pretend = 0, frame = 16
 832              		@ frame_needed = 0, uses_anonymous_args = 0
 833 0390 00B5     		push	{lr}
 834              		.cfi_def_cfa_offset 4
 835              		.cfi_offset 14, -4
 836 0392 85B0     		sub	sp, sp, #20
 837              		.cfi_def_cfa_offset 24
 838 0394 0190     		str	r0, [sp, #4]
 839 0396 0091     		str	r1, [sp]
 840              		.loc 1 464 0
 841 0398 019B     		ldr	r3, [sp, #4]
ARM GAS  /tmp/ccqt4ngY.s 			page 16


 842 039a 0393     		str	r3, [sp, #12]
 843              		.loc 1 465 0
 844 039c 0023     		movs	r3, #0
 845 039e 0293     		str	r3, [sp, #8]
 846              		.loc 1 467 0
 847 03a0 039B     		ldr	r3, [sp, #12]
 848 03a2 002B     		cmp	r3, #0
 849 03a4 01D1     		bne	.L53
 850              		.loc 1 469 0
 851 03a6 0123     		movs	r3, #1
 852 03a8 0EE0     		b	.L54
 853              	.L53:
 854              		.loc 1 472 0
 855 03aa 039B     		ldr	r3, [sp, #12]
 856 03ac DB68     		ldr	r3, [r3, #12]
 857 03ae 0293     		str	r3, [sp, #8]
 858              		.loc 1 474 0
 859 03b0 029B     		ldr	r3, [sp, #8]
 860 03b2 9B6B     		ldr	r3, [r3, #56]
 861 03b4 002B     		cmp	r3, #0
 862 03b6 01D1     		bne	.L55
 863              		.loc 1 476 0
 864 03b8 0123     		movs	r3, #1
 865 03ba 05E0     		b	.L54
 866              	.L55:
 867              		.loc 1 479 0
 868 03bc 029B     		ldr	r3, [sp, #8]
 869 03be 9B6B     		ldr	r3, [r3, #56]
 870 03c0 0398     		ldr	r0, [sp, #12]
 871 03c2 0099     		ldr	r1, [sp]
 872 03c4 9847     		blx	r3
 873 03c6 0346     		mov	r3, r0
 874              	.L54:
 875              		.loc 1 480 0
 876 03c8 1846     		mov	r0, r3
 877 03ca 05B0     		add	sp, sp, #20
 878              		@ sp needed
 879 03cc 5DF804FB 		ldr	pc, [sp], #4
 880              		.cfi_endproc
 881              	.LFE136:
 882              		.size	BSP_GG_GetPresence, .-BSP_GG_GetPresence
 883              		.align	2
 884              		.p2align 4,,15
 885              		.global	BSP_GG_GetCurrent
 886              		.thumb
 887              		.thumb_func
 888              		.type	BSP_GG_GetCurrent, %function
 889              	BSP_GG_GetCurrent:
 890              	.LFB137:
 891              		.loc 1 491 0
 892              		.cfi_startproc
 893              		@ args = 0, pretend = 0, frame = 16
 894              		@ frame_needed = 0, uses_anonymous_args = 0
 895 03d0 00B5     		push	{lr}
 896              		.cfi_def_cfa_offset 4
 897              		.cfi_offset 14, -4
 898 03d2 85B0     		sub	sp, sp, #20
ARM GAS  /tmp/ccqt4ngY.s 			page 17


 899              		.cfi_def_cfa_offset 24
 900 03d4 0190     		str	r0, [sp, #4]
 901 03d6 0091     		str	r1, [sp]
 902              		.loc 1 492 0
 903 03d8 019B     		ldr	r3, [sp, #4]
 904 03da 0393     		str	r3, [sp, #12]
 905              		.loc 1 493 0
 906 03dc 0023     		movs	r3, #0
 907 03de 0293     		str	r3, [sp, #8]
 908              		.loc 1 495 0
 909 03e0 039B     		ldr	r3, [sp, #12]
 910 03e2 002B     		cmp	r3, #0
 911 03e4 01D1     		bne	.L57
 912              		.loc 1 497 0
 913 03e6 0123     		movs	r3, #1
 914 03e8 0EE0     		b	.L58
 915              	.L57:
 916              		.loc 1 500 0
 917 03ea 039B     		ldr	r3, [sp, #12]
 918 03ec DB68     		ldr	r3, [r3, #12]
 919 03ee 0293     		str	r3, [sp, #8]
 920              		.loc 1 502 0
 921 03f0 029B     		ldr	r3, [sp, #8]
 922 03f2 9B6A     		ldr	r3, [r3, #40]
 923 03f4 002B     		cmp	r3, #0
 924 03f6 01D1     		bne	.L59
 925              		.loc 1 504 0
 926 03f8 0123     		movs	r3, #1
 927 03fa 05E0     		b	.L58
 928              	.L59:
 929              		.loc 1 507 0
 930 03fc 029B     		ldr	r3, [sp, #8]
 931 03fe 9B6A     		ldr	r3, [r3, #40]
 932 0400 0398     		ldr	r0, [sp, #12]
 933 0402 0099     		ldr	r1, [sp]
 934 0404 9847     		blx	r3
 935 0406 0346     		mov	r3, r0
 936              	.L58:
 937              		.loc 1 508 0
 938 0408 1846     		mov	r0, r3
 939 040a 05B0     		add	sp, sp, #20
 940              		@ sp needed
 941 040c 5DF804FB 		ldr	pc, [sp], #4
 942              		.cfi_endproc
 943              	.LFE137:
 944              		.size	BSP_GG_GetCurrent, .-BSP_GG_GetCurrent
 945              		.align	2
 946              		.p2align 4,,15
 947              		.global	BSP_GG_GetVoltage
 948              		.thumb
 949              		.thumb_func
 950              		.type	BSP_GG_GetVoltage, %function
 951              	BSP_GG_GetVoltage:
 952              	.LFB138:
 953              		.loc 1 519 0
 954              		.cfi_startproc
 955              		@ args = 0, pretend = 0, frame = 16
ARM GAS  /tmp/ccqt4ngY.s 			page 18


 956              		@ frame_needed = 0, uses_anonymous_args = 0
 957 0410 00B5     		push	{lr}
 958              		.cfi_def_cfa_offset 4
 959              		.cfi_offset 14, -4
 960 0412 85B0     		sub	sp, sp, #20
 961              		.cfi_def_cfa_offset 24
 962 0414 0190     		str	r0, [sp, #4]
 963 0416 0091     		str	r1, [sp]
 964              		.loc 1 520 0
 965 0418 019B     		ldr	r3, [sp, #4]
 966 041a 0393     		str	r3, [sp, #12]
 967              		.loc 1 521 0
 968 041c 0023     		movs	r3, #0
 969 041e 0293     		str	r3, [sp, #8]
 970              		.loc 1 523 0
 971 0420 039B     		ldr	r3, [sp, #12]
 972 0422 002B     		cmp	r3, #0
 973 0424 01D1     		bne	.L61
 974              		.loc 1 525 0
 975 0426 0123     		movs	r3, #1
 976 0428 0EE0     		b	.L62
 977              	.L61:
 978              		.loc 1 528 0
 979 042a 039B     		ldr	r3, [sp, #12]
 980 042c DB68     		ldr	r3, [r3, #12]
 981 042e 0293     		str	r3, [sp, #8]
 982              		.loc 1 530 0
 983 0430 029B     		ldr	r3, [sp, #8]
 984 0432 1B6B     		ldr	r3, [r3, #48]
 985 0434 002B     		cmp	r3, #0
 986 0436 01D1     		bne	.L63
 987              		.loc 1 532 0
 988 0438 0123     		movs	r3, #1
 989 043a 05E0     		b	.L62
 990              	.L63:
 991              		.loc 1 535 0
 992 043c 029B     		ldr	r3, [sp, #8]
 993 043e 1B6B     		ldr	r3, [r3, #48]
 994 0440 0398     		ldr	r0, [sp, #12]
 995 0442 0099     		ldr	r1, [sp]
 996 0444 9847     		blx	r3
 997 0446 0346     		mov	r3, r0
 998              	.L62:
 999              		.loc 1 536 0
 1000 0448 1846     		mov	r0, r3
 1001 044a 05B0     		add	sp, sp, #20
 1002              		@ sp needed
 1003 044c 5DF804FB 		ldr	pc, [sp], #4
 1004              		.cfi_endproc
 1005              	.LFE138:
 1006              		.size	BSP_GG_GetVoltage, .-BSP_GG_GetVoltage
 1007              		.align	2
 1008              		.p2align 4,,15
 1009              		.global	BSP_GG_GetTemperature
 1010              		.thumb
 1011              		.thumb_func
 1012              		.type	BSP_GG_GetTemperature, %function
ARM GAS  /tmp/ccqt4ngY.s 			page 19


 1013              	BSP_GG_GetTemperature:
 1014              	.LFB139:
 1015              		.loc 1 547 0
 1016              		.cfi_startproc
 1017              		@ args = 0, pretend = 0, frame = 16
 1018              		@ frame_needed = 0, uses_anonymous_args = 0
 1019 0450 00B5     		push	{lr}
 1020              		.cfi_def_cfa_offset 4
 1021              		.cfi_offset 14, -4
 1022 0452 85B0     		sub	sp, sp, #20
 1023              		.cfi_def_cfa_offset 24
 1024 0454 0190     		str	r0, [sp, #4]
 1025 0456 0091     		str	r1, [sp]
 1026              		.loc 1 548 0
 1027 0458 019B     		ldr	r3, [sp, #4]
 1028 045a 0393     		str	r3, [sp, #12]
 1029              		.loc 1 549 0
 1030 045c 0023     		movs	r3, #0
 1031 045e 0293     		str	r3, [sp, #8]
 1032              		.loc 1 551 0
 1033 0460 039B     		ldr	r3, [sp, #12]
 1034 0462 002B     		cmp	r3, #0
 1035 0464 01D1     		bne	.L65
 1036              		.loc 1 553 0
 1037 0466 0123     		movs	r3, #1
 1038 0468 0EE0     		b	.L66
 1039              	.L65:
 1040              		.loc 1 556 0
 1041 046a 039B     		ldr	r3, [sp, #12]
 1042 046c DB68     		ldr	r3, [r3, #12]
 1043 046e 0293     		str	r3, [sp, #8]
 1044              		.loc 1 558 0
 1045 0470 029B     		ldr	r3, [sp, #8]
 1046 0472 DB6A     		ldr	r3, [r3, #44]
 1047 0474 002B     		cmp	r3, #0
 1048 0476 01D1     		bne	.L67
 1049              		.loc 1 560 0
 1050 0478 0123     		movs	r3, #1
 1051 047a 05E0     		b	.L66
 1052              	.L67:
 1053              		.loc 1 563 0
 1054 047c 029B     		ldr	r3, [sp, #8]
 1055 047e DB6A     		ldr	r3, [r3, #44]
 1056 0480 0398     		ldr	r0, [sp, #12]
 1057 0482 0099     		ldr	r1, [sp]
 1058 0484 9847     		blx	r3
 1059 0486 0346     		mov	r3, r0
 1060              	.L66:
 1061              		.loc 1 564 0
 1062 0488 1846     		mov	r0, r3
 1063 048a 05B0     		add	sp, sp, #20
 1064              		@ sp needed
 1065 048c 5DF804FB 		ldr	pc, [sp], #4
 1066              		.cfi_endproc
 1067              	.LFE139:
 1068              		.size	BSP_GG_GetTemperature, .-BSP_GG_GetTemperature
 1069              	.Letext0:
ARM GAS  /tmp/ccqt4ngY.s 			page 20


 1070              		.file 2 "/nfs/nfs5/home/research/hardware/arm2/gcc-arm-embedded/gcc-arm-none-eabi-4_8-2014q2/arm-n
 1071              		.file 3 "/nfs/nfs5/home/research/hardware/arm2/gcc-arm-embedded/gcc-arm-none-eabi-4_8-2014q2/arm-n
 1072              		.file 4 "../../../../../Drivers/BSP/Components/Common/component.h"
 1073              		.file 5 "../../../../../Drivers/BSP/Components/Common/GasGauge.h"
 1074              		.file 6 "../../../../../Drivers/BSP/SensorTile/../Components/stc3115/STC3115_Driver.h"
 1075              		.file 7 "../../../../../Drivers/BSP/SensorTile/SensorTile_gg.h"
 1076              		.file 8 "../../../../../../ChibiOS/os/ext/CMSIS/include/core_cm4.h"