ARM GAS  /tmp/cc75PYCl.s 			page 1


   1              		.syntax unified
   2              		.cpu cortex-m4
   3              		.fpu softvfp
   4              		.eabi_attribute 20, 1
   5              		.eabi_attribute 21, 1
   6              		.eabi_attribute 23, 3
   7              		.eabi_attribute 24, 1
   8              		.eabi_attribute 25, 1
   9              		.eabi_attribute 26, 1
  10              		.eabi_attribute 30, 6
  11              		.eabi_attribute 34, 1
  12              		.eabi_attribute 18, 4
  13              		.thumb
  14              		.file	"SensorTile_pressure.c"
  15              		.text
  16              	.Ltext0:
  17              		.cfi_sections	.debug_frame
  18              		.bss
  19              		.align	2
  20              	PRESSURE_SensorHandle:
  21 0000 00000000 		.space	20
  21      00000000 
  21      00000000 
  21      00000000 
  21      00000000 
  22              		.align	2
  23              	PRESSURE_Data:
  24 0014 00000000 		.space	8
  24      00000000 
  25              		.align	2
  26              	LPS22HB_P_0_Data:
  27 001c 00000000 		.space	4
  28              		.text
  29              		.align	2
  30              		.p2align 4,,15
  31              		.global	BSP_PRESSURE_Init
  32              		.thumb
  33              		.thumb_func
  34              		.type	BSP_PRESSURE_Init, %function
  35              	BSP_PRESSURE_Init:
  36              	.LFB125:
  37              		.file 1 "../../../../../Drivers/BSP/SensorTile/SensorTile_pressure.c"
  38              		.loc 1 102 0
  39              		.cfi_startproc
  40              		@ args = 0, pretend = 0, frame = 8
  41              		@ frame_needed = 0, uses_anonymous_args = 0
  42 0000 00B5     		push	{lr}
  43              		.cfi_def_cfa_offset 4
  44              		.cfi_offset 14, -4
  45 0002 83B0     		sub	sp, sp, #12
  46              		.cfi_def_cfa_offset 16
  47 0004 0346     		mov	r3, r0
  48 0006 0091     		str	r1, [sp]
  49 0008 8DF80730 		strb	r3, [sp, #7]
  50              		.loc 1 103 0
  51 000c 009B     		ldr	r3, [sp]
  52 000e 0022     		movs	r2, #0
ARM GAS  /tmp/cc75PYCl.s 			page 2


  53 0010 1A60     		str	r2, [r3]
  54              		.loc 1 105 0
  55 0012 9DF90730 		ldrsb	r3, [sp, #7]
  56 0016 002B     		cmp	r3, #0
  57 0018 08D0     		beq	.L3
  58              		.loc 1 110 0
  59 001a 0098     		ldr	r0, [sp]
  60 001c 00F018F8 		bl	BSP_LPS22HB_PRESSURE_Init
  61 0020 0346     		mov	r3, r0
  62 0022 012B     		cmp	r3, #1
  63 0024 01D1     		bne	.L4
  64              		.loc 1 112 0
  65 0026 0123     		movs	r3, #1
  66 0028 0AE0     		b	.L5
  67              	.L4:
  68              		.loc 1 114 0
  69 002a 08E0     		b	.L6
  70              	.L3:
  71              		.loc 1 118 0
  72 002c 0098     		ldr	r0, [sp]
  73 002e 00F00FF8 		bl	BSP_LPS22HB_PRESSURE_Init
  74 0032 0346     		mov	r3, r0
  75 0034 012B     		cmp	r3, #1
  76 0036 01D1     		bne	.L7
  77              		.loc 1 120 0
  78 0038 0123     		movs	r3, #1
  79 003a 01E0     		b	.L5
  80              	.L7:
  81              		.loc 1 122 0
  82 003c 00BF     		nop
  83              	.L6:
  84              		.loc 1 126 0
  85 003e 0023     		movs	r3, #0
  86              	.L5:
  87              		.loc 1 127 0
  88 0040 1846     		mov	r0, r3
  89 0042 03B0     		add	sp, sp, #12
  90              		@ sp needed
  91 0044 5DF804FB 		ldr	pc, [sp], #4
  92              		.cfi_endproc
  93              	.LFE125:
  94              		.size	BSP_PRESSURE_Init, .-BSP_PRESSURE_Init
  95              		.align	2
  96 0048 AFF30080 		.p2align 4,,15
  96      AFF30080 
  97              		.thumb
  98              		.thumb_func
  99              		.type	BSP_LPS22HB_PRESSURE_Init, %function
 100              	BSP_LPS22HB_PRESSURE_Init:
 101              	.LFB126:
 102              		.loc 1 130 0
 103              		.cfi_startproc
 104              		@ args = 0, pretend = 0, frame = 16
 105              		@ frame_needed = 0, uses_anonymous_args = 0
 106 0050 00B5     		push	{lr}
 107              		.cfi_def_cfa_offset 4
 108              		.cfi_offset 14, -4
ARM GAS  /tmp/cc75PYCl.s 			page 3


 109 0052 85B0     		sub	sp, sp, #20
 110              		.cfi_def_cfa_offset 24
 111 0054 0190     		str	r0, [sp, #4]
 112              		.loc 1 131 0
 113 0056 0023     		movs	r3, #0
 114 0058 0393     		str	r3, [sp, #12]
 115              		.loc 1 132 0
 116 005a 0123     		movs	r3, #1
 117 005c 8DF80B30 		strb	r3, [sp, #11]
 118              		.loc 1 134 0
 119 0060 4F4B     		ldr	r3, .L18
 120 0062 5B79     		ldrb	r3, [r3, #5]	@ zero_extendqisi2
 121 0064 012B     		cmp	r3, #1
 122 0066 01D1     		bne	.L9
 123              		.loc 1 137 0
 124 0068 0123     		movs	r3, #1
 125 006a 94E0     		b	.L17
 126              	.L9:
 127              		.loc 1 140 0
 128 006c FFF7FEFF 		bl	Sensor_IO_SPI_Init
 129 0070 0346     		mov	r3, r0
 130 0072 012B     		cmp	r3, #1
 131 0074 01D1     		bne	.L11
 132              		.loc 1 142 0
 133 0076 0123     		movs	r3, #1
 134 0078 8DE0     		b	.L17
 135              	.L11:
 136              		.loc 1 146 0
 137 007a 494B     		ldr	r3, .L18
 138 007c B122     		movs	r2, #177
 139 007e 1A70     		strb	r2, [r3]
 140              		.loc 1 147 0
 141 0080 474B     		ldr	r3, .L18
 142 0082 0122     		movs	r2, #1
 143 0084 5A70     		strb	r2, [r3, #1]
 144              		.loc 1 148 0
 145 0086 464B     		ldr	r3, .L18
 146 0088 BA22     		movs	r2, #186
 147 008a 9A70     		strb	r2, [r3, #2]
 148              		.loc 1 149 0
 149 008c 444B     		ldr	r3, .L18
 150 008e 0322     		movs	r2, #3
 151 0090 DA70     		strb	r2, [r3, #3]
 152              		.loc 1 150 0
 153 0092 434B     		ldr	r3, .L18
 154 0094 0022     		movs	r2, #0
 155 0096 1A71     		strb	r2, [r3, #4]
 156              		.loc 1 151 0
 157 0098 414B     		ldr	r3, .L18
 158 009a 0022     		movs	r2, #0
 159 009c 5A71     		strb	r2, [r3, #5]
 160              		.loc 1 152 0
 161 009e 404B     		ldr	r3, .L18
 162 00a0 0022     		movs	r2, #0
 163 00a2 9A71     		strb	r2, [r3, #6]
 164              		.loc 1 153 0
 165 00a4 3E4B     		ldr	r3, .L18
ARM GAS  /tmp/cc75PYCl.s 			page 4


 166 00a6 0122     		movs	r2, #1
 167 00a8 DA71     		strb	r2, [r3, #7]
 168              		.loc 1 154 0
 169 00aa 3D4B     		ldr	r3, .L18
 170 00ac 3D4A     		ldr	r2, .L18+4
 171 00ae 9A60     		str	r2, [r3, #8]
 172              		.loc 1 155 0
 173 00b0 3B4B     		ldr	r3, .L18
 174 00b2 3D4A     		ldr	r2, .L18+8
 175 00b4 DA60     		str	r2, [r3, #12]
 176              		.loc 1 156 0
 177 00b6 3A4B     		ldr	r3, .L18
 178 00b8 0022     		movs	r2, #0
 179 00ba 1A61     		str	r2, [r3, #16]
 180              		.loc 1 158 0
 181 00bc 3B4B     		ldr	r3, .L18+12
 182 00be 3C4A     		ldr	r2, .L18+16
 183 00c0 1A60     		str	r2, [r3]
 184              		.loc 1 159 0
 185 00c2 384B     		ldr	r3, .L18+4
 186 00c4 394A     		ldr	r2, .L18+12
 187 00c6 1A60     		str	r2, [r3]
 188              		.loc 1 160 0
 189 00c8 364B     		ldr	r3, .L18+4
 190 00ca 0022     		movs	r2, #0
 191 00cc 5A60     		str	r2, [r3, #4]
 192              		.loc 1 162 0
 193 00ce 019B     		ldr	r3, [sp, #4]
 194 00d0 334A     		ldr	r2, .L18
 195 00d2 1A60     		str	r2, [r3]
 196              		.loc 1 164 0
 197 00d4 019B     		ldr	r3, [sp, #4]
 198 00d6 1B68     		ldr	r3, [r3]
 199 00d8 1846     		mov	r0, r3
 200 00da FFF7FEFF 		bl	Sensor_IO_SPI_CS_Init
 201              		.loc 1 166 0
 202 00de 344B     		ldr	r3, .L18+16
 203 00e0 5B78     		ldrb	r3, [r3, #1]	@ zero_extendqisi2
 204 00e2 002B     		cmp	r3, #0
 205 00e4 2DD1     		bne	.L12
 206              		.loc 1 169 0
 207 00e6 019B     		ldr	r3, [sp, #4]
 208 00e8 1A68     		ldr	r2, [r3]
 209 00ea 0DF10B03 		add	r3, sp, #11
 210 00ee 1046     		mov	r0, r2
 211 00f0 1021     		movs	r1, #16
 212 00f2 1A46     		mov	r2, r3
 213 00f4 0123     		movs	r3, #1
 214 00f6 FFF7FEFF 		bl	Sensor_IO_Write
 215 00fa 0346     		mov	r3, r0
 216 00fc 002B     		cmp	r3, #0
 217 00fe 01D0     		beq	.L13
 218              		.loc 1 171 0
 219 0100 0123     		movs	r3, #1
 220 0102 48E0     		b	.L17
 221              	.L13:
 222              		.loc 1 174 0
ARM GAS  /tmp/cc75PYCl.s 			page 5


 223 0104 019B     		ldr	r3, [sp, #4]
 224 0106 1B68     		ldr	r3, [r3]
 225 0108 1846     		mov	r0, r3
 226 010a FFF7FEFF 		bl	LPS22HB_SwResetAndMemoryBoot
 227 010e 0346     		mov	r3, r0
 228 0110 002B     		cmp	r3, #0
 229 0112 01D0     		beq	.L14
 230              		.loc 1 176 0
 231 0114 0123     		movs	r3, #1
 232 0116 3EE0     		b	.L17
 233              	.L14:
 234              		.loc 1 179 0
 235 0118 6420     		movs	r0, #100
 236 011a FFF7FEFF 		bl	HAL_Delay
 237              		.loc 1 181 0
 238 011e 0123     		movs	r3, #1
 239 0120 8DF80B30 		strb	r3, [sp, #11]
 240              		.loc 1 183 0
 241 0124 019B     		ldr	r3, [sp, #4]
 242 0126 1A68     		ldr	r2, [r3]
 243 0128 0DF10B03 		add	r3, sp, #11
 244 012c 1046     		mov	r0, r2
 245 012e 1021     		movs	r1, #16
 246 0130 1A46     		mov	r2, r3
 247 0132 0123     		movs	r3, #1
 248 0134 FFF7FEFF 		bl	Sensor_IO_Write
 249 0138 0346     		mov	r3, r0
 250 013a 002B     		cmp	r3, #0
 251 013c 01D0     		beq	.L12
 252              		.loc 1 185 0
 253 013e 0123     		movs	r3, #1
 254 0140 29E0     		b	.L17
 255              	.L12:
 256              		.loc 1 189 0
 257 0142 019B     		ldr	r3, [sp, #4]
 258 0144 1B68     		ldr	r3, [r3]
 259 0146 DB68     		ldr	r3, [r3, #12]
 260 0148 0393     		str	r3, [sp, #12]
 261              		.loc 1 191 0
 262 014a 039B     		ldr	r3, [sp, #12]
 263 014c 1B68     		ldr	r3, [r3]
 264 014e 002B     		cmp	r3, #0
 265 0150 0BD1     		bne	.L15
 266              		.loc 1 193 0
 267 0152 019B     		ldr	r3, [sp, #4]
 268 0154 1B68     		ldr	r3, [r3]
 269 0156 1846     		mov	r0, r3
 270 0158 0021     		movs	r1, #0
 271 015a 1422     		movs	r2, #20
 272 015c FFF7FEFF 		bl	memset
 273              		.loc 1 194 0
 274 0160 019B     		ldr	r3, [sp, #4]
 275 0162 0022     		movs	r2, #0
 276 0164 1A60     		str	r2, [r3]
 277              		.loc 1 195 0
 278 0166 0123     		movs	r3, #1
 279 0168 15E0     		b	.L17
ARM GAS  /tmp/cc75PYCl.s 			page 6


 280              	.L15:
 281              		.loc 1 198 0
 282 016a 039B     		ldr	r3, [sp, #12]
 283 016c 1B68     		ldr	r3, [r3]
 284 016e 019A     		ldr	r2, [sp, #4]
 285 0170 1268     		ldr	r2, [r2]
 286 0172 1046     		mov	r0, r2
 287 0174 9847     		blx	r3
 288 0176 0346     		mov	r3, r0
 289 0178 012B     		cmp	r3, #1
 290 017a 0BD1     		bne	.L16
 291              		.loc 1 200 0
 292 017c 019B     		ldr	r3, [sp, #4]
 293 017e 1B68     		ldr	r3, [r3]
 294 0180 1846     		mov	r0, r3
 295 0182 0021     		movs	r1, #0
 296 0184 1422     		movs	r2, #20
 297 0186 FFF7FEFF 		bl	memset
 298              		.loc 1 201 0
 299 018a 019B     		ldr	r3, [sp, #4]
 300 018c 0022     		movs	r2, #0
 301 018e 1A60     		str	r2, [r3]
 302              		.loc 1 202 0
 303 0190 0123     		movs	r3, #1
 304 0192 00E0     		b	.L17
 305              	.L16:
 306              		.loc 1 205 0
 307 0194 0023     		movs	r3, #0
 308              	.L17:
 309              		.loc 1 206 0
 310 0196 1846     		mov	r0, r3
 311 0198 05B0     		add	sp, sp, #20
 312              		@ sp needed
 313 019a 5DF804FB 		ldr	pc, [sp], #4
 314              	.L19:
 315 019e 00BF     		.align	2
 316              	.L18:
 317 01a0 00000000 		.word	PRESSURE_SensorHandle
 318 01a4 14000000 		.word	PRESSURE_Data
 319 01a8 00000000 		.word	LPS22HB_P_Drv
 320 01ac 1C000000 		.word	LPS22HB_P_0_Data
 321 01b0 00000000 		.word	LPS22HB_Combo_Data
 322              		.cfi_endproc
 323              	.LFE126:
 324              		.size	BSP_LPS22HB_PRESSURE_Init, .-BSP_LPS22HB_PRESSURE_Init
 325              		.align	2
 326 01b4 AFF30080 		.p2align 4,,15
 326      AFF30080 
 326      AFF30080 
 327              		.global	BSP_PRESSURE_DeInit
 328              		.thumb
 329              		.thumb_func
 330              		.type	BSP_PRESSURE_DeInit, %function
 331              	BSP_PRESSURE_DeInit:
 332              	.LFB127:
 333              		.loc 1 216 0
 334              		.cfi_startproc
ARM GAS  /tmp/cc75PYCl.s 			page 7


 335              		@ args = 0, pretend = 0, frame = 16
 336              		@ frame_needed = 0, uses_anonymous_args = 0
 337 01c0 00B5     		push	{lr}
 338              		.cfi_def_cfa_offset 4
 339              		.cfi_offset 14, -4
 340 01c2 85B0     		sub	sp, sp, #20
 341              		.cfi_def_cfa_offset 24
 342 01c4 0190     		str	r0, [sp, #4]
 343              		.loc 1 217 0
 344 01c6 019B     		ldr	r3, [sp, #4]
 345 01c8 1B68     		ldr	r3, [r3]
 346 01ca 0393     		str	r3, [sp, #12]
 347              		.loc 1 218 0
 348 01cc 0023     		movs	r3, #0
 349 01ce 0293     		str	r3, [sp, #8]
 350              		.loc 1 220 0
 351 01d0 039B     		ldr	r3, [sp, #12]
 352 01d2 002B     		cmp	r3, #0
 353 01d4 01D1     		bne	.L21
 354              		.loc 1 222 0
 355 01d6 0123     		movs	r3, #1
 356 01d8 1AE0     		b	.L22
 357              	.L21:
 358              		.loc 1 225 0
 359 01da 039B     		ldr	r3, [sp, #12]
 360 01dc DB68     		ldr	r3, [r3, #12]
 361 01de 0293     		str	r3, [sp, #8]
 362              		.loc 1 227 0
 363 01e0 029B     		ldr	r3, [sp, #8]
 364 01e2 5B68     		ldr	r3, [r3, #4]
 365 01e4 002B     		cmp	r3, #0
 366 01e6 01D1     		bne	.L23
 367              		.loc 1 229 0
 368 01e8 0123     		movs	r3, #1
 369 01ea 11E0     		b	.L22
 370              	.L23:
 371              		.loc 1 232 0
 372 01ec 029B     		ldr	r3, [sp, #8]
 373 01ee 5B68     		ldr	r3, [r3, #4]
 374 01f0 0398     		ldr	r0, [sp, #12]
 375 01f2 9847     		blx	r3
 376 01f4 0346     		mov	r3, r0
 377 01f6 012B     		cmp	r3, #1
 378 01f8 01D1     		bne	.L24
 379              		.loc 1 234 0
 380 01fa 0123     		movs	r3, #1
 381 01fc 08E0     		b	.L22
 382              	.L24:
 383              		.loc 1 237 0
 384 01fe 0398     		ldr	r0, [sp, #12]
 385 0200 0021     		movs	r1, #0
 386 0202 1422     		movs	r2, #20
 387 0204 FFF7FEFF 		bl	memset
 388              		.loc 1 239 0
 389 0208 019B     		ldr	r3, [sp, #4]
 390 020a 0022     		movs	r2, #0
 391 020c 1A60     		str	r2, [r3]
ARM GAS  /tmp/cc75PYCl.s 			page 8


 392              		.loc 1 241 0
 393 020e 0023     		movs	r3, #0
 394              	.L22:
 395              		.loc 1 242 0
 396 0210 1846     		mov	r0, r3
 397 0212 05B0     		add	sp, sp, #20
 398              		@ sp needed
 399 0214 5DF804FB 		ldr	pc, [sp], #4
 400              		.cfi_endproc
 401              	.LFE127:
 402              		.size	BSP_PRESSURE_DeInit, .-BSP_PRESSURE_DeInit
 403              		.align	2
 404 0218 AFF30080 		.p2align 4,,15
 404      AFF30080 
 405              		.global	BSP_PRESSURE_Sensor_Enable
 406              		.thumb
 407              		.thumb_func
 408              		.type	BSP_PRESSURE_Sensor_Enable, %function
 409              	BSP_PRESSURE_Sensor_Enable:
 410              	.LFB128:
 411              		.loc 1 253 0
 412              		.cfi_startproc
 413              		@ args = 0, pretend = 0, frame = 16
 414              		@ frame_needed = 0, uses_anonymous_args = 0
 415 0220 00B5     		push	{lr}
 416              		.cfi_def_cfa_offset 4
 417              		.cfi_offset 14, -4
 418 0222 85B0     		sub	sp, sp, #20
 419              		.cfi_def_cfa_offset 24
 420 0224 0190     		str	r0, [sp, #4]
 421              		.loc 1 255 0
 422 0226 019B     		ldr	r3, [sp, #4]
 423 0228 0393     		str	r3, [sp, #12]
 424              		.loc 1 256 0
 425 022a 0023     		movs	r3, #0
 426 022c 0293     		str	r3, [sp, #8]
 427              		.loc 1 258 0
 428 022e 039B     		ldr	r3, [sp, #12]
 429 0230 002B     		cmp	r3, #0
 430 0232 01D1     		bne	.L26
 431              		.loc 1 260 0
 432 0234 0123     		movs	r3, #1
 433 0236 12E0     		b	.L27
 434              	.L26:
 435              		.loc 1 263 0
 436 0238 039B     		ldr	r3, [sp, #12]
 437 023a DB68     		ldr	r3, [r3, #12]
 438 023c 0293     		str	r3, [sp, #8]
 439              		.loc 1 265 0
 440 023e 029B     		ldr	r3, [sp, #8]
 441 0240 9B68     		ldr	r3, [r3, #8]
 442 0242 002B     		cmp	r3, #0
 443 0244 01D1     		bne	.L28
 444              		.loc 1 267 0
 445 0246 0123     		movs	r3, #1
 446 0248 09E0     		b	.L27
 447              	.L28:
ARM GAS  /tmp/cc75PYCl.s 			page 9


 448              		.loc 1 270 0
 449 024a 029B     		ldr	r3, [sp, #8]
 450 024c 9B68     		ldr	r3, [r3, #8]
 451 024e 0398     		ldr	r0, [sp, #12]
 452 0250 9847     		blx	r3
 453 0252 0346     		mov	r3, r0
 454 0254 012B     		cmp	r3, #1
 455 0256 01D1     		bne	.L29
 456              		.loc 1 272 0
 457 0258 0123     		movs	r3, #1
 458 025a 00E0     		b	.L27
 459              	.L29:
 460              		.loc 1 275 0
 461 025c 0023     		movs	r3, #0
 462              	.L27:
 463              		.loc 1 276 0
 464 025e 1846     		mov	r0, r3
 465 0260 05B0     		add	sp, sp, #20
 466              		@ sp needed
 467 0262 5DF804FB 		ldr	pc, [sp], #4
 468              		.cfi_endproc
 469              	.LFE128:
 470              		.size	BSP_PRESSURE_Sensor_Enable, .-BSP_PRESSURE_Sensor_Enable
 471 0266 00BF     		.align	2
 472 0268 AFF30080 		.p2align 4,,15
 472      AFF30080 
 473              		.global	BSP_PRESSURE_Sensor_Disable
 474              		.thumb
 475              		.thumb_func
 476              		.type	BSP_PRESSURE_Sensor_Disable, %function
 477              	BSP_PRESSURE_Sensor_Disable:
 478              	.LFB129:
 479              		.loc 1 287 0
 480              		.cfi_startproc
 481              		@ args = 0, pretend = 0, frame = 16
 482              		@ frame_needed = 0, uses_anonymous_args = 0
 483 0270 00B5     		push	{lr}
 484              		.cfi_def_cfa_offset 4
 485              		.cfi_offset 14, -4
 486 0272 85B0     		sub	sp, sp, #20
 487              		.cfi_def_cfa_offset 24
 488 0274 0190     		str	r0, [sp, #4]
 489              		.loc 1 289 0
 490 0276 019B     		ldr	r3, [sp, #4]
 491 0278 0393     		str	r3, [sp, #12]
 492              		.loc 1 290 0
 493 027a 0023     		movs	r3, #0
 494 027c 0293     		str	r3, [sp, #8]
 495              		.loc 1 292 0
 496 027e 039B     		ldr	r3, [sp, #12]
 497 0280 002B     		cmp	r3, #0
 498 0282 01D1     		bne	.L31
 499              		.loc 1 294 0
 500 0284 0123     		movs	r3, #1
 501 0286 12E0     		b	.L32
 502              	.L31:
 503              		.loc 1 297 0
ARM GAS  /tmp/cc75PYCl.s 			page 10


 504 0288 039B     		ldr	r3, [sp, #12]
 505 028a DB68     		ldr	r3, [r3, #12]
 506 028c 0293     		str	r3, [sp, #8]
 507              		.loc 1 299 0
 508 028e 029B     		ldr	r3, [sp, #8]
 509 0290 DB68     		ldr	r3, [r3, #12]
 510 0292 002B     		cmp	r3, #0
 511 0294 01D1     		bne	.L33
 512              		.loc 1 301 0
 513 0296 0123     		movs	r3, #1
 514 0298 09E0     		b	.L32
 515              	.L33:
 516              		.loc 1 304 0
 517 029a 029B     		ldr	r3, [sp, #8]
 518 029c DB68     		ldr	r3, [r3, #12]
 519 029e 0398     		ldr	r0, [sp, #12]
 520 02a0 9847     		blx	r3
 521 02a2 0346     		mov	r3, r0
 522 02a4 012B     		cmp	r3, #1
 523 02a6 01D1     		bne	.L34
 524              		.loc 1 306 0
 525 02a8 0123     		movs	r3, #1
 526 02aa 00E0     		b	.L32
 527              	.L34:
 528              		.loc 1 309 0
 529 02ac 0023     		movs	r3, #0
 530              	.L32:
 531              		.loc 1 310 0
 532 02ae 1846     		mov	r0, r3
 533 02b0 05B0     		add	sp, sp, #20
 534              		@ sp needed
 535 02b2 5DF804FB 		ldr	pc, [sp], #4
 536              		.cfi_endproc
 537              	.LFE129:
 538              		.size	BSP_PRESSURE_Sensor_Disable, .-BSP_PRESSURE_Sensor_Disable
 539 02b6 00BF     		.align	2
 540 02b8 AFF30080 		.p2align 4,,15
 540      AFF30080 
 541              		.global	BSP_PRESSURE_IsInitialized
 542              		.thumb
 543              		.thumb_func
 544              		.type	BSP_PRESSURE_IsInitialized, %function
 545              	BSP_PRESSURE_IsInitialized:
 546              	.LFB130:
 547              		.loc 1 321 0
 548              		.cfi_startproc
 549              		@ args = 0, pretend = 0, frame = 16
 550              		@ frame_needed = 0, uses_anonymous_args = 0
 551              		@ link register save eliminated.
 552 02c0 84B0     		sub	sp, sp, #16
 553              		.cfi_def_cfa_offset 16
 554 02c2 0190     		str	r0, [sp, #4]
 555 02c4 0091     		str	r1, [sp]
 556              		.loc 1 322 0
 557 02c6 019B     		ldr	r3, [sp, #4]
 558 02c8 0393     		str	r3, [sp, #12]
 559              		.loc 1 324 0
ARM GAS  /tmp/cc75PYCl.s 			page 11


 560 02ca 039B     		ldr	r3, [sp, #12]
 561 02cc 002B     		cmp	r3, #0
 562 02ce 01D1     		bne	.L36
 563              		.loc 1 326 0
 564 02d0 0123     		movs	r3, #1
 565 02d2 09E0     		b	.L37
 566              	.L36:
 567              		.loc 1 329 0
 568 02d4 009B     		ldr	r3, [sp]
 569 02d6 002B     		cmp	r3, #0
 570 02d8 01D1     		bne	.L38
 571              		.loc 1 331 0
 572 02da 0123     		movs	r3, #1
 573 02dc 04E0     		b	.L37
 574              	.L38:
 575              		.loc 1 334 0
 576 02de 039B     		ldr	r3, [sp, #12]
 577 02e0 5A79     		ldrb	r2, [r3, #5]	@ zero_extendqisi2
 578 02e2 009B     		ldr	r3, [sp]
 579 02e4 1A70     		strb	r2, [r3]
 580              		.loc 1 336 0
 581 02e6 0023     		movs	r3, #0
 582              	.L37:
 583              		.loc 1 337 0
 584 02e8 1846     		mov	r0, r3
 585 02ea 04B0     		add	sp, sp, #16
 586              		@ sp needed
 587 02ec 7047     		bx	lr
 588              		.cfi_endproc
 589              	.LFE130:
 590              		.size	BSP_PRESSURE_IsInitialized, .-BSP_PRESSURE_IsInitialized
 591 02ee 00BF     		.align	2
 592              		.p2align 4,,15
 593              		.global	BSP_PRESSURE_IsEnabled
 594              		.thumb
 595              		.thumb_func
 596              		.type	BSP_PRESSURE_IsEnabled, %function
 597              	BSP_PRESSURE_IsEnabled:
 598              	.LFB131:
 599              		.loc 1 348 0
 600              		.cfi_startproc
 601              		@ args = 0, pretend = 0, frame = 16
 602              		@ frame_needed = 0, uses_anonymous_args = 0
 603              		@ link register save eliminated.
 604 02f0 84B0     		sub	sp, sp, #16
 605              		.cfi_def_cfa_offset 16
 606 02f2 0190     		str	r0, [sp, #4]
 607 02f4 0091     		str	r1, [sp]
 608              		.loc 1 349 0
 609 02f6 019B     		ldr	r3, [sp, #4]
 610 02f8 0393     		str	r3, [sp, #12]
 611              		.loc 1 351 0
 612 02fa 039B     		ldr	r3, [sp, #12]
 613 02fc 002B     		cmp	r3, #0
 614 02fe 01D1     		bne	.L40
 615              		.loc 1 353 0
 616 0300 0123     		movs	r3, #1
ARM GAS  /tmp/cc75PYCl.s 			page 12


 617 0302 09E0     		b	.L41
 618              	.L40:
 619              		.loc 1 356 0
 620 0304 009B     		ldr	r3, [sp]
 621 0306 002B     		cmp	r3, #0
 622 0308 01D1     		bne	.L42
 623              		.loc 1 358 0
 624 030a 0123     		movs	r3, #1
 625 030c 04E0     		b	.L41
 626              	.L42:
 627              		.loc 1 361 0
 628 030e 039B     		ldr	r3, [sp, #12]
 629 0310 9A79     		ldrb	r2, [r3, #6]	@ zero_extendqisi2
 630 0312 009B     		ldr	r3, [sp]
 631 0314 1A70     		strb	r2, [r3]
 632              		.loc 1 363 0
 633 0316 0023     		movs	r3, #0
 634              	.L41:
 635              		.loc 1 364 0
 636 0318 1846     		mov	r0, r3
 637 031a 04B0     		add	sp, sp, #16
 638              		@ sp needed
 639 031c 7047     		bx	lr
 640              		.cfi_endproc
 641              	.LFE131:
 642              		.size	BSP_PRESSURE_IsEnabled, .-BSP_PRESSURE_IsEnabled
 643 031e 00BF     		.align	2
 644              		.p2align 4,,15
 645              		.global	BSP_PRESSURE_IsCombo
 646              		.thumb
 647              		.thumb_func
 648              		.type	BSP_PRESSURE_IsCombo, %function
 649              	BSP_PRESSURE_IsCombo:
 650              	.LFB132:
 651              		.loc 1 375 0
 652              		.cfi_startproc
 653              		@ args = 0, pretend = 0, frame = 16
 654              		@ frame_needed = 0, uses_anonymous_args = 0
 655              		@ link register save eliminated.
 656 0320 84B0     		sub	sp, sp, #16
 657              		.cfi_def_cfa_offset 16
 658 0322 0190     		str	r0, [sp, #4]
 659 0324 0091     		str	r1, [sp]
 660              		.loc 1 376 0
 661 0326 019B     		ldr	r3, [sp, #4]
 662 0328 0393     		str	r3, [sp, #12]
 663              		.loc 1 378 0
 664 032a 039B     		ldr	r3, [sp, #12]
 665 032c 002B     		cmp	r3, #0
 666 032e 01D1     		bne	.L44
 667              		.loc 1 380 0
 668 0330 0123     		movs	r3, #1
 669 0332 09E0     		b	.L45
 670              	.L44:
 671              		.loc 1 383 0
 672 0334 009B     		ldr	r3, [sp]
 673 0336 002B     		cmp	r3, #0
ARM GAS  /tmp/cc75PYCl.s 			page 13


 674 0338 01D1     		bne	.L46
 675              		.loc 1 385 0
 676 033a 0123     		movs	r3, #1
 677 033c 04E0     		b	.L45
 678              	.L46:
 679              		.loc 1 388 0
 680 033e 039B     		ldr	r3, [sp, #12]
 681 0340 DA79     		ldrb	r2, [r3, #7]	@ zero_extendqisi2
 682 0342 009B     		ldr	r3, [sp]
 683 0344 1A70     		strb	r2, [r3]
 684              		.loc 1 390 0
 685 0346 0023     		movs	r3, #0
 686              	.L45:
 687              		.loc 1 391 0
 688 0348 1846     		mov	r0, r3
 689 034a 04B0     		add	sp, sp, #16
 690              		@ sp needed
 691 034c 7047     		bx	lr
 692              		.cfi_endproc
 693              	.LFE132:
 694              		.size	BSP_PRESSURE_IsCombo, .-BSP_PRESSURE_IsCombo
 695 034e 00BF     		.align	2
 696              		.p2align 4,,15
 697              		.global	BSP_PRESSURE_Get_Instance
 698              		.thumb
 699              		.thumb_func
 700              		.type	BSP_PRESSURE_Get_Instance, %function
 701              	BSP_PRESSURE_Get_Instance:
 702              	.LFB133:
 703              		.loc 1 402 0
 704              		.cfi_startproc
 705              		@ args = 0, pretend = 0, frame = 16
 706              		@ frame_needed = 0, uses_anonymous_args = 0
 707              		@ link register save eliminated.
 708 0350 84B0     		sub	sp, sp, #16
 709              		.cfi_def_cfa_offset 16
 710 0352 0190     		str	r0, [sp, #4]
 711 0354 0091     		str	r1, [sp]
 712              		.loc 1 403 0
 713 0356 019B     		ldr	r3, [sp, #4]
 714 0358 0393     		str	r3, [sp, #12]
 715              		.loc 1 405 0
 716 035a 039B     		ldr	r3, [sp, #12]
 717 035c 002B     		cmp	r3, #0
 718 035e 01D1     		bne	.L48
 719              		.loc 1 407 0
 720 0360 0123     		movs	r3, #1
 721 0362 09E0     		b	.L49
 722              	.L48:
 723              		.loc 1 410 0
 724 0364 009B     		ldr	r3, [sp]
 725 0366 002B     		cmp	r3, #0
 726 0368 01D1     		bne	.L50
 727              		.loc 1 412 0
 728 036a 0123     		movs	r3, #1
 729 036c 04E0     		b	.L49
 730              	.L50:
ARM GAS  /tmp/cc75PYCl.s 			page 14


 731              		.loc 1 415 0
 732 036e 039B     		ldr	r3, [sp, #12]
 733 0370 1A79     		ldrb	r2, [r3, #4]	@ zero_extendqisi2
 734 0372 009B     		ldr	r3, [sp]
 735 0374 1A70     		strb	r2, [r3]
 736              		.loc 1 417 0
 737 0376 0023     		movs	r3, #0
 738              	.L49:
 739              		.loc 1 418 0
 740 0378 1846     		mov	r0, r3
 741 037a 04B0     		add	sp, sp, #16
 742              		@ sp needed
 743 037c 7047     		bx	lr
 744              		.cfi_endproc
 745              	.LFE133:
 746              		.size	BSP_PRESSURE_Get_Instance, .-BSP_PRESSURE_Get_Instance
 747 037e 00BF     		.align	2
 748              		.p2align 4,,15
 749              		.global	BSP_PRESSURE_Get_WhoAmI
 750              		.thumb
 751              		.thumb_func
 752              		.type	BSP_PRESSURE_Get_WhoAmI, %function
 753              	BSP_PRESSURE_Get_WhoAmI:
 754              	.LFB134:
 755              		.loc 1 430 0
 756              		.cfi_startproc
 757              		@ args = 0, pretend = 0, frame = 16
 758              		@ frame_needed = 0, uses_anonymous_args = 0
 759 0380 00B5     		push	{lr}
 760              		.cfi_def_cfa_offset 4
 761              		.cfi_offset 14, -4
 762 0382 85B0     		sub	sp, sp, #20
 763              		.cfi_def_cfa_offset 24
 764 0384 0190     		str	r0, [sp, #4]
 765 0386 0091     		str	r1, [sp]
 766              		.loc 1 432 0
 767 0388 019B     		ldr	r3, [sp, #4]
 768 038a 0393     		str	r3, [sp, #12]
 769              		.loc 1 433 0
 770 038c 0023     		movs	r3, #0
 771 038e 0293     		str	r3, [sp, #8]
 772              		.loc 1 435 0
 773 0390 039B     		ldr	r3, [sp, #12]
 774 0392 002B     		cmp	r3, #0
 775 0394 01D1     		bne	.L52
 776              		.loc 1 437 0
 777 0396 0123     		movs	r3, #1
 778 0398 18E0     		b	.L53
 779              	.L52:
 780              		.loc 1 440 0
 781 039a 039B     		ldr	r3, [sp, #12]
 782 039c DB68     		ldr	r3, [r3, #12]
 783 039e 0293     		str	r3, [sp, #8]
 784              		.loc 1 442 0
 785 03a0 009B     		ldr	r3, [sp]
 786 03a2 002B     		cmp	r3, #0
 787 03a4 01D1     		bne	.L54
ARM GAS  /tmp/cc75PYCl.s 			page 15


 788              		.loc 1 444 0
 789 03a6 0123     		movs	r3, #1
 790 03a8 10E0     		b	.L53
 791              	.L54:
 792              		.loc 1 446 0
 793 03aa 029B     		ldr	r3, [sp, #8]
 794 03ac 1B69     		ldr	r3, [r3, #16]
 795 03ae 002B     		cmp	r3, #0
 796 03b0 01D1     		bne	.L55
 797              		.loc 1 448 0
 798 03b2 0123     		movs	r3, #1
 799 03b4 0AE0     		b	.L53
 800              	.L55:
 801              		.loc 1 450 0
 802 03b6 029B     		ldr	r3, [sp, #8]
 803 03b8 1B69     		ldr	r3, [r3, #16]
 804 03ba 0398     		ldr	r0, [sp, #12]
 805 03bc 0099     		ldr	r1, [sp]
 806 03be 9847     		blx	r3
 807 03c0 0346     		mov	r3, r0
 808 03c2 012B     		cmp	r3, #1
 809 03c4 01D1     		bne	.L56
 810              		.loc 1 452 0
 811 03c6 0123     		movs	r3, #1
 812 03c8 00E0     		b	.L53
 813              	.L56:
 814              		.loc 1 455 0
 815 03ca 0023     		movs	r3, #0
 816              	.L53:
 817              		.loc 1 456 0
 818 03cc 1846     		mov	r0, r3
 819 03ce 05B0     		add	sp, sp, #20
 820              		@ sp needed
 821 03d0 5DF804FB 		ldr	pc, [sp], #4
 822              		.cfi_endproc
 823              	.LFE134:
 824              		.size	BSP_PRESSURE_Get_WhoAmI, .-BSP_PRESSURE_Get_WhoAmI
 825              		.align	2
 826 03d4 AFF30080 		.p2align 4,,15
 826      AFF30080 
 826      AFF30080 
 827              		.global	BSP_PRESSURE_Check_WhoAmI
 828              		.thumb
 829              		.thumb_func
 830              		.type	BSP_PRESSURE_Check_WhoAmI, %function
 831              	BSP_PRESSURE_Check_WhoAmI:
 832              	.LFB135:
 833              		.loc 1 467 0
 834              		.cfi_startproc
 835              		@ args = 0, pretend = 0, frame = 16
 836              		@ frame_needed = 0, uses_anonymous_args = 0
 837 03e0 00B5     		push	{lr}
 838              		.cfi_def_cfa_offset 4
 839              		.cfi_offset 14, -4
 840 03e2 85B0     		sub	sp, sp, #20
 841              		.cfi_def_cfa_offset 24
 842 03e4 0190     		str	r0, [sp, #4]
ARM GAS  /tmp/cc75PYCl.s 			page 16


 843              		.loc 1 469 0
 844 03e6 019B     		ldr	r3, [sp, #4]
 845 03e8 0393     		str	r3, [sp, #12]
 846              		.loc 1 470 0
 847 03ea 0023     		movs	r3, #0
 848 03ec 0293     		str	r3, [sp, #8]
 849              		.loc 1 472 0
 850 03ee 039B     		ldr	r3, [sp, #12]
 851 03f0 002B     		cmp	r3, #0
 852 03f2 01D1     		bne	.L58
 853              		.loc 1 474 0
 854 03f4 0123     		movs	r3, #1
 855 03f6 12E0     		b	.L59
 856              	.L58:
 857              		.loc 1 477 0
 858 03f8 039B     		ldr	r3, [sp, #12]
 859 03fa DB68     		ldr	r3, [r3, #12]
 860 03fc 0293     		str	r3, [sp, #8]
 861              		.loc 1 479 0
 862 03fe 029B     		ldr	r3, [sp, #8]
 863 0400 5B69     		ldr	r3, [r3, #20]
 864 0402 002B     		cmp	r3, #0
 865 0404 01D1     		bne	.L60
 866              		.loc 1 481 0
 867 0406 0123     		movs	r3, #1
 868 0408 09E0     		b	.L59
 869              	.L60:
 870              		.loc 1 483 0
 871 040a 029B     		ldr	r3, [sp, #8]
 872 040c 5B69     		ldr	r3, [r3, #20]
 873 040e 0398     		ldr	r0, [sp, #12]
 874 0410 9847     		blx	r3
 875 0412 0346     		mov	r3, r0
 876 0414 012B     		cmp	r3, #1
 877 0416 01D1     		bne	.L61
 878              		.loc 1 485 0
 879 0418 0123     		movs	r3, #1
 880 041a 00E0     		b	.L59
 881              	.L61:
 882              		.loc 1 488 0
 883 041c 0023     		movs	r3, #0
 884              	.L59:
 885              		.loc 1 489 0
 886 041e 1846     		mov	r0, r3
 887 0420 05B0     		add	sp, sp, #20
 888              		@ sp needed
 889 0422 5DF804FB 		ldr	pc, [sp], #4
 890              		.cfi_endproc
 891              	.LFE135:
 892              		.size	BSP_PRESSURE_Check_WhoAmI, .-BSP_PRESSURE_Check_WhoAmI
 893 0426 00BF     		.align	2
 894 0428 AFF30080 		.p2align 4,,15
 894      AFF30080 
 895              		.global	BSP_PRESSURE_Get_Press
 896              		.thumb
 897              		.thumb_func
 898              		.type	BSP_PRESSURE_Get_Press, %function
ARM GAS  /tmp/cc75PYCl.s 			page 17


 899              	BSP_PRESSURE_Get_Press:
 900              	.LFB136:
 901              		.loc 1 501 0
 902              		.cfi_startproc
 903              		@ args = 0, pretend = 0, frame = 16
 904              		@ frame_needed = 0, uses_anonymous_args = 0
 905 0430 00B5     		push	{lr}
 906              		.cfi_def_cfa_offset 4
 907              		.cfi_offset 14, -4
 908 0432 85B0     		sub	sp, sp, #20
 909              		.cfi_def_cfa_offset 24
 910 0434 0190     		str	r0, [sp, #4]
 911 0436 0091     		str	r1, [sp]
 912              		.loc 1 503 0
 913 0438 019B     		ldr	r3, [sp, #4]
 914 043a 0393     		str	r3, [sp, #12]
 915              		.loc 1 504 0
 916 043c 0023     		movs	r3, #0
 917 043e 0293     		str	r3, [sp, #8]
 918              		.loc 1 506 0
 919 0440 039B     		ldr	r3, [sp, #12]
 920 0442 002B     		cmp	r3, #0
 921 0444 01D1     		bne	.L63
 922              		.loc 1 508 0
 923 0446 0123     		movs	r3, #1
 924 0448 18E0     		b	.L64
 925              	.L63:
 926              		.loc 1 511 0
 927 044a 039B     		ldr	r3, [sp, #12]
 928 044c DB68     		ldr	r3, [r3, #12]
 929 044e 0293     		str	r3, [sp, #8]
 930              		.loc 1 513 0
 931 0450 009B     		ldr	r3, [sp]
 932 0452 002B     		cmp	r3, #0
 933 0454 01D1     		bne	.L65
 934              		.loc 1 515 0
 935 0456 0123     		movs	r3, #1
 936 0458 10E0     		b	.L64
 937              	.L65:
 938              		.loc 1 517 0
 939 045a 029B     		ldr	r3, [sp, #8]
 940 045c 9B69     		ldr	r3, [r3, #24]
 941 045e 002B     		cmp	r3, #0
 942 0460 01D1     		bne	.L66
 943              		.loc 1 519 0
 944 0462 0123     		movs	r3, #1
 945 0464 0AE0     		b	.L64
 946              	.L66:
 947              		.loc 1 521 0
 948 0466 029B     		ldr	r3, [sp, #8]
 949 0468 9B69     		ldr	r3, [r3, #24]
 950 046a 0398     		ldr	r0, [sp, #12]
 951 046c 0099     		ldr	r1, [sp]
 952 046e 9847     		blx	r3
 953 0470 0346     		mov	r3, r0
 954 0472 012B     		cmp	r3, #1
 955 0474 01D1     		bne	.L67
ARM GAS  /tmp/cc75PYCl.s 			page 18


 956              		.loc 1 523 0
 957 0476 0123     		movs	r3, #1
 958 0478 00E0     		b	.L64
 959              	.L67:
 960              		.loc 1 526 0
 961 047a 0023     		movs	r3, #0
 962              	.L64:
 963              		.loc 1 527 0
 964 047c 1846     		mov	r0, r3
 965 047e 05B0     		add	sp, sp, #20
 966              		@ sp needed
 967 0480 5DF804FB 		ldr	pc, [sp], #4
 968              		.cfi_endproc
 969              	.LFE136:
 970              		.size	BSP_PRESSURE_Get_Press, .-BSP_PRESSURE_Get_Press
 971              		.align	2
 972 0484 AFF30080 		.p2align 4,,15
 972      AFF30080 
 972      AFF30080 
 973              		.global	BSP_PRESSURE_Get_ODR
 974              		.thumb
 975              		.thumb_func
 976              		.type	BSP_PRESSURE_Get_ODR, %function
 977              	BSP_PRESSURE_Get_ODR:
 978              	.LFB137:
 979              		.loc 1 539 0
 980              		.cfi_startproc
 981              		@ args = 0, pretend = 0, frame = 16
 982              		@ frame_needed = 0, uses_anonymous_args = 0
 983 0490 00B5     		push	{lr}
 984              		.cfi_def_cfa_offset 4
 985              		.cfi_offset 14, -4
 986 0492 85B0     		sub	sp, sp, #20
 987              		.cfi_def_cfa_offset 24
 988 0494 0190     		str	r0, [sp, #4]
 989 0496 0091     		str	r1, [sp]
 990              		.loc 1 541 0
 991 0498 019B     		ldr	r3, [sp, #4]
 992 049a 0393     		str	r3, [sp, #12]
 993              		.loc 1 542 0
 994 049c 0023     		movs	r3, #0
 995 049e 0293     		str	r3, [sp, #8]
 996              		.loc 1 544 0
 997 04a0 039B     		ldr	r3, [sp, #12]
 998 04a2 002B     		cmp	r3, #0
 999 04a4 01D1     		bne	.L69
 1000              		.loc 1 546 0
 1001 04a6 0123     		movs	r3, #1
 1002 04a8 18E0     		b	.L70
 1003              	.L69:
 1004              		.loc 1 549 0
 1005 04aa 039B     		ldr	r3, [sp, #12]
 1006 04ac DB68     		ldr	r3, [r3, #12]
 1007 04ae 0293     		str	r3, [sp, #8]
 1008              		.loc 1 551 0
 1009 04b0 009B     		ldr	r3, [sp]
 1010 04b2 002B     		cmp	r3, #0
ARM GAS  /tmp/cc75PYCl.s 			page 19


 1011 04b4 01D1     		bne	.L71
 1012              		.loc 1 553 0
 1013 04b6 0123     		movs	r3, #1
 1014 04b8 10E0     		b	.L70
 1015              	.L71:
 1016              		.loc 1 555 0
 1017 04ba 029B     		ldr	r3, [sp, #8]
 1018 04bc DB69     		ldr	r3, [r3, #28]
 1019 04be 002B     		cmp	r3, #0
 1020 04c0 01D1     		bne	.L72
 1021              		.loc 1 557 0
 1022 04c2 0123     		movs	r3, #1
 1023 04c4 0AE0     		b	.L70
 1024              	.L72:
 1025              		.loc 1 559 0
 1026 04c6 029B     		ldr	r3, [sp, #8]
 1027 04c8 DB69     		ldr	r3, [r3, #28]
 1028 04ca 0398     		ldr	r0, [sp, #12]
 1029 04cc 0099     		ldr	r1, [sp]
 1030 04ce 9847     		blx	r3
 1031 04d0 0346     		mov	r3, r0
 1032 04d2 012B     		cmp	r3, #1
 1033 04d4 01D1     		bne	.L73
 1034              		.loc 1 561 0
 1035 04d6 0123     		movs	r3, #1
 1036 04d8 00E0     		b	.L70
 1037              	.L73:
 1038              		.loc 1 564 0
 1039 04da 0023     		movs	r3, #0
 1040              	.L70:
 1041              		.loc 1 565 0
 1042 04dc 1846     		mov	r0, r3
 1043 04de 05B0     		add	sp, sp, #20
 1044              		@ sp needed
 1045 04e0 5DF804FB 		ldr	pc, [sp], #4
 1046              		.cfi_endproc
 1047              	.LFE137:
 1048              		.size	BSP_PRESSURE_Get_ODR, .-BSP_PRESSURE_Get_ODR
 1049              		.align	2
 1050 04e4 AFF30080 		.p2align 4,,15
 1050      AFF30080 
 1050      AFF30080 
 1051              		.global	BSP_PRESSURE_Set_ODR
 1052              		.thumb
 1053              		.thumb_func
 1054              		.type	BSP_PRESSURE_Set_ODR, %function
 1055              	BSP_PRESSURE_Set_ODR:
 1056              	.LFB138:
 1057              		.loc 1 577 0
 1058              		.cfi_startproc
 1059              		@ args = 0, pretend = 0, frame = 16
 1060              		@ frame_needed = 0, uses_anonymous_args = 0
 1061 04f0 00B5     		push	{lr}
 1062              		.cfi_def_cfa_offset 4
 1063              		.cfi_offset 14, -4
 1064 04f2 85B0     		sub	sp, sp, #20
 1065              		.cfi_def_cfa_offset 24
ARM GAS  /tmp/cc75PYCl.s 			page 20


 1066 04f4 0190     		str	r0, [sp, #4]
 1067 04f6 0B46     		mov	r3, r1
 1068 04f8 8DF80330 		strb	r3, [sp, #3]
 1069              		.loc 1 579 0
 1070 04fc 019B     		ldr	r3, [sp, #4]
 1071 04fe 0393     		str	r3, [sp, #12]
 1072              		.loc 1 580 0
 1073 0500 0023     		movs	r3, #0
 1074 0502 0293     		str	r3, [sp, #8]
 1075              		.loc 1 582 0
 1076 0504 039B     		ldr	r3, [sp, #12]
 1077 0506 002B     		cmp	r3, #0
 1078 0508 01D1     		bne	.L75
 1079              		.loc 1 584 0
 1080 050a 0123     		movs	r3, #1
 1081 050c 15E0     		b	.L76
 1082              	.L75:
 1083              		.loc 1 587 0
 1084 050e 039B     		ldr	r3, [sp, #12]
 1085 0510 DB68     		ldr	r3, [r3, #12]
 1086 0512 0293     		str	r3, [sp, #8]
 1087              		.loc 1 589 0
 1088 0514 029B     		ldr	r3, [sp, #8]
 1089 0516 1B6A     		ldr	r3, [r3, #32]
 1090 0518 002B     		cmp	r3, #0
 1091 051a 01D1     		bne	.L77
 1092              		.loc 1 591 0
 1093 051c 0123     		movs	r3, #1
 1094 051e 0CE0     		b	.L76
 1095              	.L77:
 1096              		.loc 1 593 0
 1097 0520 029B     		ldr	r3, [sp, #8]
 1098 0522 1B6A     		ldr	r3, [r3, #32]
 1099 0524 9DF80320 		ldrb	r2, [sp, #3]	@ zero_extendqisi2
 1100 0528 0398     		ldr	r0, [sp, #12]
 1101 052a 1146     		mov	r1, r2
 1102 052c 9847     		blx	r3
 1103 052e 0346     		mov	r3, r0
 1104 0530 012B     		cmp	r3, #1
 1105 0532 01D1     		bne	.L78
 1106              		.loc 1 595 0
 1107 0534 0123     		movs	r3, #1
 1108 0536 00E0     		b	.L76
 1109              	.L78:
 1110              		.loc 1 598 0
 1111 0538 0023     		movs	r3, #0
 1112              	.L76:
 1113              		.loc 1 599 0
 1114 053a 1846     		mov	r0, r3
 1115 053c 05B0     		add	sp, sp, #20
 1116              		@ sp needed
 1117 053e 5DF804FB 		ldr	pc, [sp], #4
 1118              		.cfi_endproc
 1119              	.LFE138:
 1120              		.size	BSP_PRESSURE_Set_ODR, .-BSP_PRESSURE_Set_ODR
 1121 0542 00BF     		.align	2
 1122 0544 AFF30080 		.p2align 4,,15
ARM GAS  /tmp/cc75PYCl.s 			page 21


 1122      AFF30080 
 1122      AFF30080 
 1123              		.global	BSP_PRESSURE_Set_ODR_Value
 1124              		.thumb
 1125              		.thumb_func
 1126              		.type	BSP_PRESSURE_Set_ODR_Value, %function
 1127              	BSP_PRESSURE_Set_ODR_Value:
 1128              	.LFB139:
 1129              		.loc 1 611 0
 1130              		.cfi_startproc
 1131              		@ args = 0, pretend = 0, frame = 16
 1132              		@ frame_needed = 0, uses_anonymous_args = 0
 1133 0550 00B5     		push	{lr}
 1134              		.cfi_def_cfa_offset 4
 1135              		.cfi_offset 14, -4
 1136 0552 85B0     		sub	sp, sp, #20
 1137              		.cfi_def_cfa_offset 24
 1138 0554 0190     		str	r0, [sp, #4]
 1139 0556 0091     		str	r1, [sp]	@ float
 1140              		.loc 1 613 0
 1141 0558 019B     		ldr	r3, [sp, #4]
 1142 055a 0393     		str	r3, [sp, #12]
 1143              		.loc 1 614 0
 1144 055c 0023     		movs	r3, #0
 1145 055e 0293     		str	r3, [sp, #8]
 1146              		.loc 1 616 0
 1147 0560 039B     		ldr	r3, [sp, #12]
 1148 0562 002B     		cmp	r3, #0
 1149 0564 01D1     		bne	.L80
 1150              		.loc 1 618 0
 1151 0566 0123     		movs	r3, #1
 1152 0568 13E0     		b	.L81
 1153              	.L80:
 1154              		.loc 1 621 0
 1155 056a 039B     		ldr	r3, [sp, #12]
 1156 056c DB68     		ldr	r3, [r3, #12]
 1157 056e 0293     		str	r3, [sp, #8]
 1158              		.loc 1 623 0
 1159 0570 029B     		ldr	r3, [sp, #8]
 1160 0572 5B6A     		ldr	r3, [r3, #36]
 1161 0574 002B     		cmp	r3, #0
 1162 0576 01D1     		bne	.L82
 1163              		.loc 1 625 0
 1164 0578 0123     		movs	r3, #1
 1165 057a 0AE0     		b	.L81
 1166              	.L82:
 1167              		.loc 1 627 0
 1168 057c 029B     		ldr	r3, [sp, #8]
 1169 057e 5B6A     		ldr	r3, [r3, #36]
 1170 0580 0398     		ldr	r0, [sp, #12]
 1171 0582 0099     		ldr	r1, [sp]	@ float
 1172 0584 9847     		blx	r3
 1173 0586 0346     		mov	r3, r0
 1174 0588 012B     		cmp	r3, #1
 1175 058a 01D1     		bne	.L83
 1176              		.loc 1 629 0
 1177 058c 0123     		movs	r3, #1
ARM GAS  /tmp/cc75PYCl.s 			page 22


 1178 058e 00E0     		b	.L81
 1179              	.L83:
 1180              		.loc 1 632 0
 1181 0590 0023     		movs	r3, #0
 1182              	.L81:
 1183              		.loc 1 633 0
 1184 0592 1846     		mov	r0, r3
 1185 0594 05B0     		add	sp, sp, #20
 1186              		@ sp needed
 1187 0596 5DF804FB 		ldr	pc, [sp], #4
 1188              		.cfi_endproc
 1189              	.LFE139:
 1190              		.size	BSP_PRESSURE_Set_ODR_Value, .-BSP_PRESSURE_Set_ODR_Value
 1191 059a 00BF     		.align	2
 1192 059c AFF30080 		.p2align 4,,15
 1193              		.global	BSP_PRESSURE_Read_Reg
 1194              		.thumb
 1195              		.thumb_func
 1196              		.type	BSP_PRESSURE_Read_Reg, %function
 1197              	BSP_PRESSURE_Read_Reg:
 1198              	.LFB140:
 1199              		.loc 1 645 0
 1200              		.cfi_startproc
 1201              		@ args = 0, pretend = 0, frame = 24
 1202              		@ frame_needed = 0, uses_anonymous_args = 0
 1203 05a0 00B5     		push	{lr}
 1204              		.cfi_def_cfa_offset 4
 1205              		.cfi_offset 14, -4
 1206 05a2 87B0     		sub	sp, sp, #28
 1207              		.cfi_def_cfa_offset 32
 1208 05a4 0390     		str	r0, [sp, #12]
 1209 05a6 0B46     		mov	r3, r1
 1210 05a8 0192     		str	r2, [sp, #4]
 1211 05aa 8DF80B30 		strb	r3, [sp, #11]
 1212              		.loc 1 647 0
 1213 05ae 039B     		ldr	r3, [sp, #12]
 1214 05b0 0593     		str	r3, [sp, #20]
 1215              		.loc 1 648 0
 1216 05b2 0023     		movs	r3, #0
 1217 05b4 0493     		str	r3, [sp, #16]
 1218              		.loc 1 650 0
 1219 05b6 059B     		ldr	r3, [sp, #20]
 1220 05b8 002B     		cmp	r3, #0
 1221 05ba 01D1     		bne	.L85
 1222              		.loc 1 652 0
 1223 05bc 0123     		movs	r3, #1
 1224 05be 1BE0     		b	.L86
 1225              	.L85:
 1226              		.loc 1 655 0
 1227 05c0 059B     		ldr	r3, [sp, #20]
 1228 05c2 DB68     		ldr	r3, [r3, #12]
 1229 05c4 0493     		str	r3, [sp, #16]
 1230              		.loc 1 657 0
 1231 05c6 019B     		ldr	r3, [sp, #4]
 1232 05c8 002B     		cmp	r3, #0
 1233 05ca 01D1     		bne	.L87
 1234              		.loc 1 659 0
ARM GAS  /tmp/cc75PYCl.s 			page 23


 1235 05cc 0123     		movs	r3, #1
 1236 05ce 13E0     		b	.L86
 1237              	.L87:
 1238              		.loc 1 662 0
 1239 05d0 049B     		ldr	r3, [sp, #16]
 1240 05d2 9B6A     		ldr	r3, [r3, #40]
 1241 05d4 002B     		cmp	r3, #0
 1242 05d6 01D1     		bne	.L88
 1243              		.loc 1 664 0
 1244 05d8 0123     		movs	r3, #1
 1245 05da 0DE0     		b	.L86
 1246              	.L88:
 1247              		.loc 1 667 0
 1248 05dc 049B     		ldr	r3, [sp, #16]
 1249 05de 9B6A     		ldr	r3, [r3, #40]
 1250 05e0 9DF80B20 		ldrb	r2, [sp, #11]	@ zero_extendqisi2
 1251 05e4 0598     		ldr	r0, [sp, #20]
 1252 05e6 1146     		mov	r1, r2
 1253 05e8 019A     		ldr	r2, [sp, #4]
 1254 05ea 9847     		blx	r3
 1255 05ec 0346     		mov	r3, r0
 1256 05ee 012B     		cmp	r3, #1
 1257 05f0 01D1     		bne	.L89
 1258              		.loc 1 669 0
 1259 05f2 0123     		movs	r3, #1
 1260 05f4 00E0     		b	.L86
 1261              	.L89:
 1262              		.loc 1 672 0
 1263 05f6 0023     		movs	r3, #0
 1264              	.L86:
 1265              		.loc 1 673 0
 1266 05f8 1846     		mov	r0, r3
 1267 05fa 07B0     		add	sp, sp, #28
 1268              		@ sp needed
 1269 05fc 5DF804FB 		ldr	pc, [sp], #4
 1270              		.cfi_endproc
 1271              	.LFE140:
 1272              		.size	BSP_PRESSURE_Read_Reg, .-BSP_PRESSURE_Read_Reg
 1273              		.align	2
 1274              		.p2align 4,,15
 1275              		.global	BSP_PRESSURE_Write_Reg
 1276              		.thumb
 1277              		.thumb_func
 1278              		.type	BSP_PRESSURE_Write_Reg, %function
 1279              	BSP_PRESSURE_Write_Reg:
 1280              	.LFB141:
 1281              		.loc 1 686 0
 1282              		.cfi_startproc
 1283              		@ args = 0, pretend = 0, frame = 16
 1284              		@ frame_needed = 0, uses_anonymous_args = 0
 1285 0600 00B5     		push	{lr}
 1286              		.cfi_def_cfa_offset 4
 1287              		.cfi_offset 14, -4
 1288 0602 85B0     		sub	sp, sp, #20
 1289              		.cfi_def_cfa_offset 24
 1290 0604 0190     		str	r0, [sp, #4]
 1291 0606 1346     		mov	r3, r2
ARM GAS  /tmp/cc75PYCl.s 			page 24


 1292 0608 0A46     		mov	r2, r1
 1293 060a 8DF80320 		strb	r2, [sp, #3]
 1294 060e 8DF80230 		strb	r3, [sp, #2]
 1295              		.loc 1 688 0
 1296 0612 019B     		ldr	r3, [sp, #4]
 1297 0614 0393     		str	r3, [sp, #12]
 1298              		.loc 1 689 0
 1299 0616 0023     		movs	r3, #0
 1300 0618 0293     		str	r3, [sp, #8]
 1301              		.loc 1 691 0
 1302 061a 039B     		ldr	r3, [sp, #12]
 1303 061c 002B     		cmp	r3, #0
 1304 061e 01D1     		bne	.L91
 1305              		.loc 1 693 0
 1306 0620 0123     		movs	r3, #1
 1307 0622 16E0     		b	.L92
 1308              	.L91:
 1309              		.loc 1 696 0
 1310 0624 039B     		ldr	r3, [sp, #12]
 1311 0626 DB68     		ldr	r3, [r3, #12]
 1312 0628 0293     		str	r3, [sp, #8]
 1313              		.loc 1 698 0
 1314 062a 029B     		ldr	r3, [sp, #8]
 1315 062c DB6A     		ldr	r3, [r3, #44]
 1316 062e 002B     		cmp	r3, #0
 1317 0630 01D1     		bne	.L93
 1318              		.loc 1 700 0
 1319 0632 0123     		movs	r3, #1
 1320 0634 0DE0     		b	.L92
 1321              	.L93:
 1322              		.loc 1 703 0
 1323 0636 029B     		ldr	r3, [sp, #8]
 1324 0638 DB6A     		ldr	r3, [r3, #44]
 1325 063a 9DF80310 		ldrb	r1, [sp, #3]	@ zero_extendqisi2
 1326 063e 9DF80220 		ldrb	r2, [sp, #2]	@ zero_extendqisi2
 1327 0642 0398     		ldr	r0, [sp, #12]
 1328 0644 9847     		blx	r3
 1329 0646 0346     		mov	r3, r0
 1330 0648 012B     		cmp	r3, #1
 1331 064a 01D1     		bne	.L94
 1332              		.loc 1 705 0
 1333 064c 0123     		movs	r3, #1
 1334 064e 00E0     		b	.L92
 1335              	.L94:
 1336              		.loc 1 708 0
 1337 0650 0023     		movs	r3, #0
 1338              	.L92:
 1339              		.loc 1 709 0
 1340 0652 1846     		mov	r0, r3
 1341 0654 05B0     		add	sp, sp, #20
 1342              		@ sp needed
 1343 0656 5DF804FB 		ldr	pc, [sp], #4
 1344              		.cfi_endproc
 1345              	.LFE141:
 1346              		.size	BSP_PRESSURE_Write_Reg, .-BSP_PRESSURE_Write_Reg
 1347 065a 00BF     		.align	2
 1348 065c AFF30080 		.p2align 4,,15
ARM GAS  /tmp/cc75PYCl.s 			page 25


 1349              		.global	BSP_PRESSURE_Get_DRDY_Status
 1350              		.thumb
 1351              		.thumb_func
 1352              		.type	BSP_PRESSURE_Get_DRDY_Status, %function
 1353              	BSP_PRESSURE_Get_DRDY_Status:
 1354              	.LFB142:
 1355              		.loc 1 721 0
 1356              		.cfi_startproc
 1357              		@ args = 0, pretend = 0, frame = 16
 1358              		@ frame_needed = 0, uses_anonymous_args = 0
 1359 0660 00B5     		push	{lr}
 1360              		.cfi_def_cfa_offset 4
 1361              		.cfi_offset 14, -4
 1362 0662 85B0     		sub	sp, sp, #20
 1363              		.cfi_def_cfa_offset 24
 1364 0664 0190     		str	r0, [sp, #4]
 1365 0666 0091     		str	r1, [sp]
 1366              		.loc 1 723 0
 1367 0668 019B     		ldr	r3, [sp, #4]
 1368 066a 0393     		str	r3, [sp, #12]
 1369              		.loc 1 724 0
 1370 066c 0023     		movs	r3, #0
 1371 066e 0293     		str	r3, [sp, #8]
 1372              		.loc 1 726 0
 1373 0670 039B     		ldr	r3, [sp, #12]
 1374 0672 002B     		cmp	r3, #0
 1375 0674 01D1     		bne	.L96
 1376              		.loc 1 728 0
 1377 0676 0123     		movs	r3, #1
 1378 0678 13E0     		b	.L97
 1379              	.L96:
 1380              		.loc 1 731 0
 1381 067a 039B     		ldr	r3, [sp, #12]
 1382 067c DB68     		ldr	r3, [r3, #12]
 1383 067e 0293     		str	r3, [sp, #8]
 1384              		.loc 1 733 0
 1385 0680 029B     		ldr	r3, [sp, #8]
 1386 0682 1B6B     		ldr	r3, [r3, #48]
 1387 0684 002B     		cmp	r3, #0
 1388 0686 01D1     		bne	.L98
 1389              		.loc 1 735 0
 1390 0688 0123     		movs	r3, #1
 1391 068a 0AE0     		b	.L97
 1392              	.L98:
 1393              		.loc 1 738 0
 1394 068c 029B     		ldr	r3, [sp, #8]
 1395 068e 1B6B     		ldr	r3, [r3, #48]
 1396 0690 0398     		ldr	r0, [sp, #12]
 1397 0692 0099     		ldr	r1, [sp]
 1398 0694 9847     		blx	r3
 1399 0696 0346     		mov	r3, r0
 1400 0698 012B     		cmp	r3, #1
 1401 069a 01D1     		bne	.L99
 1402              		.loc 1 740 0
 1403 069c 0123     		movs	r3, #1
 1404 069e 00E0     		b	.L97
 1405              	.L99:
ARM GAS  /tmp/cc75PYCl.s 			page 26


 1406              		.loc 1 743 0
 1407 06a0 0023     		movs	r3, #0
 1408              	.L97:
 1409              		.loc 1 744 0
 1410 06a2 1846     		mov	r0, r3
 1411 06a4 05B0     		add	sp, sp, #20
 1412              		@ sp needed
 1413 06a6 5DF804FB 		ldr	pc, [sp], #4
 1414              		.cfi_endproc
 1415              	.LFE142:
 1416              		.size	BSP_PRESSURE_Get_DRDY_Status, .-BSP_PRESSURE_Get_DRDY_Status
 1417              	.Letext0:
 1418              		.file 2 "/nfs/nfs5/home/research/hardware/arm2/gcc-arm-embedded/gcc-arm-none-eabi-4_8-2014q2/arm-n
 1419              		.file 3 "/nfs/nfs5/home/research/hardware/arm2/gcc-arm-embedded/gcc-arm-none-eabi-4_8-2014q2/arm-n
 1420              		.file 4 "../../../../../Drivers/BSP/Components/Common/component.h"
 1421              		.file 5 "../../../../../Drivers/BSP/Components/Common/sensor.h"
 1422              		.file 6 "../../../../../Drivers/BSP/Components/Common/pressure.h"
 1423              		.file 7 "../../../../../Drivers/BSP/Components/lps22hb/LPS22HB_Driver_HL.h"
 1424              		.file 8 "../../../../../Drivers/BSP/SensorTile/SensorTile.h"
 1425              		.file 9 "../../../../../Drivers/BSP/SensorTile/SensorTile_pressure.h"
 1426              		.file 10 "../../../../../../ChibiOS/os/ext/CMSIS/include/core_cm4.h"
 1427 06aa 00BFAFF3 		.section	.debug_info,"",%progbits
 1427      0080
 1428              	.Ldebug_info0:
 1429 0000 1F0A0000 		.4byte	0xa1f
 1430 0004 0400     		.2byte	0x4
 1431 0006 00000000 		.4byte	.Ldebug_abbrev0
 1432 000a 04       		.byte	0x4
 1433 000b 01       		.uleb128 0x1
 1434 000c 97000000 		.4byte	.LASF99
 1435 0010 01       		.byte	0x1
 1436 0011 1E040000 		.4byte	.LASF100
 1437 0015 67020000 		.4byte	.LASF101
 1438 0019 00000000 		.4byte	.Ltext0
 1439 001d AA060000 		.4byte	.Letext0-.Ltext0
 1440 0021 00000000 		.4byte	.Ldebug_line0
 1441 0025 02       		.uleb128 0x2
 1442 0026 04       		.byte	0x4
 1443 0027 05       		.byte	0x5
 1444 0028 696E7400 		.ascii	"int\000"
 1445 002c 03       		.uleb128 0x3
 1446 002d 04       		.byte	0x4
 1447 002e 07       		.byte	0x7
 1448 002f CA040000 		.4byte	.LASF0
 1449 0033 03       		.uleb128 0x3
 1450 0034 01       		.byte	0x1
 1451 0035 06       		.byte	0x6
 1452 0036 99040000 		.4byte	.LASF1
 1453 003a 04       		.uleb128 0x4
 1454 003b D8030000 		.4byte	.LASF5
 1455 003f 02       		.byte	0x2
 1456 0040 1C       		.byte	0x1c
 1457 0041 45000000 		.4byte	0x45
 1458 0045 03       		.uleb128 0x3
 1459 0046 01       		.byte	0x1
 1460 0047 08       		.byte	0x8
 1461 0048 68040000 		.4byte	.LASF2
ARM GAS  /tmp/cc75PYCl.s 			page 27


 1462 004c 03       		.uleb128 0x3
 1463 004d 02       		.byte	0x2
 1464 004e 05       		.byte	0x5
 1465 004f 0E030000 		.4byte	.LASF3
 1466 0053 03       		.uleb128 0x3
 1467 0054 02       		.byte	0x2
 1468 0055 07       		.byte	0x7
 1469 0056 3B050000 		.4byte	.LASF4
 1470 005a 04       		.uleb128 0x4
 1471 005b 3A060000 		.4byte	.LASF6
 1472 005f 02       		.byte	0x2
 1473 0060 37       		.byte	0x37
 1474 0061 65000000 		.4byte	0x65
 1475 0065 03       		.uleb128 0x3
 1476 0066 04       		.byte	0x4
 1477 0067 05       		.byte	0x5
 1478 0068 A3030000 		.4byte	.LASF7
 1479 006c 03       		.uleb128 0x3
 1480 006d 04       		.byte	0x4
 1481 006e 07       		.byte	0x7
 1482 006f EC040000 		.4byte	.LASF8
 1483 0073 03       		.uleb128 0x3
 1484 0074 08       		.byte	0x8
 1485 0075 05       		.byte	0x5
 1486 0076 4A030000 		.4byte	.LASF9
 1487 007a 03       		.uleb128 0x3
 1488 007b 08       		.byte	0x8
 1489 007c 07       		.byte	0x7
 1490 007d 58030000 		.4byte	.LASF10
 1491 0081 03       		.uleb128 0x3
 1492 0082 04       		.byte	0x4
 1493 0083 07       		.byte	0x7
 1494 0084 8D060000 		.4byte	.LASF11
 1495 0088 05       		.uleb128 0x5
 1496 0089 04       		.byte	0x4
 1497 008a 03       		.uleb128 0x3
 1498 008b 01       		.byte	0x1
 1499 008c 08       		.byte	0x8
 1500 008d 5D050000 		.4byte	.LASF12
 1501 0091 04       		.uleb128 0x4
 1502 0092 39020000 		.4byte	.LASF13
 1503 0096 03       		.byte	0x3
 1504 0097 2A       		.byte	0x2a
 1505 0098 3A000000 		.4byte	0x3a
 1506 009c 04       		.uleb128 0x4
 1507 009d 62050000 		.4byte	.LASF14
 1508 00a1 03       		.byte	0x3
 1509 00a2 41       		.byte	0x41
 1510 00a3 5A000000 		.4byte	0x5a
 1511 00a7 06       		.uleb128 0x6
 1512 00a8 14       		.byte	0x14
 1513 00a9 04       		.byte	0x4
 1514 00aa 5B       		.byte	0x5b
 1515 00ab 34010000 		.4byte	0x134
 1516 00af 07       		.uleb128 0x7
 1517 00b0 9D050000 		.4byte	.LASF15
 1518 00b4 04       		.byte	0x4
ARM GAS  /tmp/cc75PYCl.s 			page 28


 1519 00b5 5F       		.byte	0x5f
 1520 00b6 91000000 		.4byte	0x91
 1521 00ba 00       		.byte	0
 1522 00bb 07       		.uleb128 0x7
 1523 00bc EA060000 		.4byte	.LASF16
 1524 00c0 04       		.byte	0x4
 1525 00c1 62       		.byte	0x62
 1526 00c2 91000000 		.4byte	0x91
 1527 00c6 01       		.byte	0x1
 1528 00c7 07       		.uleb128 0x7
 1529 00c8 A5040000 		.4byte	.LASF17
 1530 00cc 04       		.byte	0x4
 1531 00cd 63       		.byte	0x63
 1532 00ce 91000000 		.4byte	0x91
 1533 00d2 02       		.byte	0x2
 1534 00d3 07       		.uleb128 0x7
 1535 00d4 CB060000 		.4byte	.LASF18
 1536 00d8 04       		.byte	0x4
 1537 00d9 64       		.byte	0x64
 1538 00da 91000000 		.4byte	0x91
 1539 00de 03       		.byte	0x3
 1540 00df 07       		.uleb128 0x7
 1541 00e0 FE040000 		.4byte	.LASF19
 1542 00e4 04       		.byte	0x4
 1543 00e5 65       		.byte	0x65
 1544 00e6 91000000 		.4byte	0x91
 1545 00ea 04       		.byte	0x4
 1546 00eb 07       		.uleb128 0x7
 1547 00ec 5A040000 		.4byte	.LASF20
 1548 00f0 04       		.byte	0x4
 1549 00f1 66       		.byte	0x66
 1550 00f2 91000000 		.4byte	0x91
 1551 00f6 05       		.byte	0x5
 1552 00f7 07       		.uleb128 0x7
 1553 00f8 A4060000 		.4byte	.LASF21
 1554 00fc 04       		.byte	0x4
 1555 00fd 67       		.byte	0x67
 1556 00fe 91000000 		.4byte	0x91
 1557 0102 06       		.byte	0x6
 1558 0103 07       		.uleb128 0x7
 1559 0104 E2060000 		.4byte	.LASF22
 1560 0108 04       		.byte	0x4
 1561 0109 68       		.byte	0x68
 1562 010a 91000000 		.4byte	0x91
 1563 010e 07       		.byte	0x7
 1564 010f 07       		.uleb128 0x7
 1565 0110 5F000000 		.4byte	.LASF23
 1566 0114 04       		.byte	0x4
 1567 0115 6B       		.byte	0x6b
 1568 0116 88000000 		.4byte	0x88
 1569 011a 08       		.byte	0x8
 1570 011b 07       		.uleb128 0x7
 1571 011c 95050000 		.4byte	.LASF24
 1572 0120 04       		.byte	0x4
 1573 0121 6E       		.byte	0x6e
 1574 0122 88000000 		.4byte	0x88
 1575 0126 0C       		.byte	0xc
ARM GAS  /tmp/cc75PYCl.s 			page 29


 1576 0127 07       		.uleb128 0x7
 1577 0128 02060000 		.4byte	.LASF25
 1578 012c 04       		.byte	0x4
 1579 012d 70       		.byte	0x70
 1580 012e 88000000 		.4byte	0x88
 1581 0132 10       		.byte	0x10
 1582 0133 00       		.byte	0
 1583 0134 04       		.uleb128 0x4
 1584 0135 1E030000 		.4byte	.LASF26
 1585 0139 04       		.byte	0x4
 1586 013a 71       		.byte	0x71
 1587 013b A7000000 		.4byte	0xa7
 1588 013f 08       		.uleb128 0x8
 1589 0140 01       		.byte	0x1
 1590 0141 04       		.byte	0x4
 1591 0142 79       		.byte	0x79
 1592 0143 60010000 		.4byte	0x160
 1593 0147 09       		.uleb128 0x9
 1594 0148 F9020000 		.4byte	.LASF27
 1595 014c 00       		.sleb128 0
 1596 014d 09       		.uleb128 0x9
 1597 014e FF030000 		.4byte	.LASF28
 1598 0152 01       		.sleb128 1
 1599 0153 09       		.uleb128 0x9
 1600 0154 29050000 		.4byte	.LASF29
 1601 0158 02       		.sleb128 2
 1602 0159 09       		.uleb128 0x9
 1603 015a DA050000 		.4byte	.LASF30
 1604 015e 03       		.sleb128 3
 1605 015f 00       		.byte	0
 1606 0160 04       		.uleb128 0x4
 1607 0161 7C060000 		.4byte	.LASF31
 1608 0165 04       		.byte	0x4
 1609 0166 7E       		.byte	0x7e
 1610 0167 3F010000 		.4byte	0x13f
 1611 016b 08       		.uleb128 0x8
 1612 016c 01       		.byte	0x1
 1613 016d 05       		.byte	0x5
 1614 016e 62       		.byte	0x62
 1615 016f 92010000 		.4byte	0x192
 1616 0173 09       		.uleb128 0x9
 1617 0174 EE030000 		.4byte	.LASF32
 1618 0178 00       		.sleb128 0
 1619 0179 09       		.uleb128 0x9
 1620 017a E2030000 		.4byte	.LASF33
 1621 017e 01       		.sleb128 1
 1622 017f 09       		.uleb128 0x9
 1623 0180 55050000 		.4byte	.LASF34
 1624 0184 02       		.sleb128 2
 1625 0185 09       		.uleb128 0x9
 1626 0186 A9010000 		.4byte	.LASF35
 1627 018a 03       		.sleb128 3
 1628 018b 09       		.uleb128 0x9
 1629 018c F6030000 		.4byte	.LASF36
 1630 0190 04       		.sleb128 4
 1631 0191 00       		.byte	0
 1632 0192 04       		.uleb128 0x4
ARM GAS  /tmp/cc75PYCl.s 			page 30


 1633 0193 8E030000 		.4byte	.LASF37
 1634 0197 05       		.byte	0x5
 1635 0198 68       		.byte	0x68
 1636 0199 6B010000 		.4byte	0x16b
 1637 019d 06       		.uleb128 0x6
 1638 019e 34       		.byte	0x34
 1639 019f 06       		.byte	0x6
 1640 01a0 4B       		.byte	0x4b
 1641 01a1 42020000 		.4byte	0x242
 1642 01a5 07       		.uleb128 0x7
 1643 01a6 89030000 		.4byte	.LASF38
 1644 01aa 06       		.byte	0x6
 1645 01ab 4D       		.byte	0x4d
 1646 01ac 57020000 		.4byte	0x257
 1647 01b0 00       		.byte	0
 1648 01b1 07       		.uleb128 0x7
 1649 01b2 F1060000 		.4byte	.LASF39
 1650 01b6 06       		.byte	0x6
 1651 01b7 4E       		.byte	0x4e
 1652 01b8 57020000 		.4byte	0x257
 1653 01bc 04       		.byte	0x4
 1654 01bd 07       		.uleb128 0x7
 1655 01be B6010000 		.4byte	.LASF40
 1656 01c2 06       		.byte	0x6
 1657 01c3 4F       		.byte	0x4f
 1658 01c4 57020000 		.4byte	0x257
 1659 01c8 08       		.byte	0x8
 1660 01c9 07       		.uleb128 0x7
 1661 01ca F8060000 		.4byte	.LASF41
 1662 01ce 06       		.byte	0x6
 1663 01cf 50       		.byte	0x50
 1664 01d0 57020000 		.4byte	0x257
 1665 01d4 0C       		.byte	0xc
 1666 01d5 07       		.uleb128 0x7
 1667 01d6 0A000000 		.4byte	.LASF42
 1668 01da 06       		.byte	0x6
 1669 01db 51       		.byte	0x51
 1670 01dc 77020000 		.4byte	0x277
 1671 01e0 10       		.byte	0x10
 1672 01e1 07       		.uleb128 0x7
 1673 01e2 54060000 		.4byte	.LASF43
 1674 01e6 06       		.byte	0x6
 1675 01e7 52       		.byte	0x52
 1676 01e8 57020000 		.4byte	0x257
 1677 01ec 14       		.byte	0x14
 1678 01ed 07       		.uleb128 0x7
 1679 01ee D0050000 		.4byte	.LASF44
 1680 01f2 06       		.byte	0x6
 1681 01f3 53       		.byte	0x53
 1682 01f4 9E020000 		.4byte	0x29e
 1683 01f8 18       		.byte	0x18
 1684 01f9 07       		.uleb128 0x7
 1685 01fa 07070000 		.4byte	.LASF45
 1686 01fe 06       		.byte	0x6
 1687 01ff 54       		.byte	0x54
 1688 0200 9E020000 		.4byte	0x29e
 1689 0204 1C       		.byte	0x1c
ARM GAS  /tmp/cc75PYCl.s 			page 31


 1690 0205 07       		.uleb128 0x7
 1691 0206 0F070000 		.4byte	.LASF46
 1692 020a 06       		.byte	0x6
 1693 020b 55       		.byte	0x55
 1694 020c B8020000 		.4byte	0x2b8
 1695 0210 20       		.byte	0x20
 1696 0211 07       		.uleb128 0x7
 1697 0212 D7010000 		.4byte	.LASF47
 1698 0216 06       		.byte	0x6
 1699 0217 56       		.byte	0x56
 1700 0218 D2020000 		.4byte	0x2d2
 1701 021c 24       		.byte	0x24
 1702 021d 07       		.uleb128 0x7
 1703 021e 56000000 		.4byte	.LASF48
 1704 0222 06       		.byte	0x6
 1705 0223 57       		.byte	0x57
 1706 0224 F1020000 		.4byte	0x2f1
 1707 0228 28       		.byte	0x28
 1708 0229 07       		.uleb128 0x7
 1709 022a 00000000 		.4byte	.LASF49
 1710 022e 06       		.byte	0x6
 1711 022f 58       		.byte	0x58
 1712 0230 10030000 		.4byte	0x310
 1713 0234 2C       		.byte	0x2c
 1714 0235 07       		.uleb128 0x7
 1715 0236 44060000 		.4byte	.LASF50
 1716 023a 06       		.byte	0x6
 1717 023b 59       		.byte	0x59
 1718 023c 77020000 		.4byte	0x277
 1719 0240 30       		.byte	0x30
 1720 0241 00       		.byte	0
 1721 0242 0A       		.uleb128 0xa
 1722 0243 60010000 		.4byte	0x160
 1723 0247 51020000 		.4byte	0x251
 1724 024b 0B       		.uleb128 0xb
 1725 024c 51020000 		.4byte	0x251
 1726 0250 00       		.byte	0
 1727 0251 0C       		.uleb128 0xc
 1728 0252 04       		.byte	0x4
 1729 0253 34010000 		.4byte	0x134
 1730 0257 0C       		.uleb128 0xc
 1731 0258 04       		.byte	0x4
 1732 0259 42020000 		.4byte	0x242
 1733 025d 0A       		.uleb128 0xa
 1734 025e 60010000 		.4byte	0x160
 1735 0262 71020000 		.4byte	0x271
 1736 0266 0B       		.uleb128 0xb
 1737 0267 51020000 		.4byte	0x251
 1738 026b 0B       		.uleb128 0xb
 1739 026c 71020000 		.4byte	0x271
 1740 0270 00       		.byte	0
 1741 0271 0C       		.uleb128 0xc
 1742 0272 04       		.byte	0x4
 1743 0273 91000000 		.4byte	0x91
 1744 0277 0C       		.uleb128 0xc
 1745 0278 04       		.byte	0x4
 1746 0279 5D020000 		.4byte	0x25d
ARM GAS  /tmp/cc75PYCl.s 			page 32


 1747 027d 0A       		.uleb128 0xa
 1748 027e 60010000 		.4byte	0x160
 1749 0282 91020000 		.4byte	0x291
 1750 0286 0B       		.uleb128 0xb
 1751 0287 51020000 		.4byte	0x251
 1752 028b 0B       		.uleb128 0xb
 1753 028c 91020000 		.4byte	0x291
 1754 0290 00       		.byte	0
 1755 0291 0C       		.uleb128 0xc
 1756 0292 04       		.byte	0x4
 1757 0293 97020000 		.4byte	0x297
 1758 0297 03       		.uleb128 0x3
 1759 0298 04       		.byte	0x4
 1760 0299 04       		.byte	0x4
 1761 029a 18030000 		.4byte	.LASF51
 1762 029e 0C       		.uleb128 0xc
 1763 029f 04       		.byte	0x4
 1764 02a0 7D020000 		.4byte	0x27d
 1765 02a4 0A       		.uleb128 0xa
 1766 02a5 60010000 		.4byte	0x160
 1767 02a9 B8020000 		.4byte	0x2b8
 1768 02ad 0B       		.uleb128 0xb
 1769 02ae 51020000 		.4byte	0x251
 1770 02b2 0B       		.uleb128 0xb
 1771 02b3 92010000 		.4byte	0x192
 1772 02b7 00       		.byte	0
 1773 02b8 0C       		.uleb128 0xc
 1774 02b9 04       		.byte	0x4
 1775 02ba A4020000 		.4byte	0x2a4
 1776 02be 0A       		.uleb128 0xa
 1777 02bf 60010000 		.4byte	0x160
 1778 02c3 D2020000 		.4byte	0x2d2
 1779 02c7 0B       		.uleb128 0xb
 1780 02c8 51020000 		.4byte	0x251
 1781 02cc 0B       		.uleb128 0xb
 1782 02cd 97020000 		.4byte	0x297
 1783 02d1 00       		.byte	0
 1784 02d2 0C       		.uleb128 0xc
 1785 02d3 04       		.byte	0x4
 1786 02d4 BE020000 		.4byte	0x2be
 1787 02d8 0A       		.uleb128 0xa
 1788 02d9 60010000 		.4byte	0x160
 1789 02dd F1020000 		.4byte	0x2f1
 1790 02e1 0B       		.uleb128 0xb
 1791 02e2 51020000 		.4byte	0x251
 1792 02e6 0B       		.uleb128 0xb
 1793 02e7 91000000 		.4byte	0x91
 1794 02eb 0B       		.uleb128 0xb
 1795 02ec 71020000 		.4byte	0x271
 1796 02f0 00       		.byte	0
 1797 02f1 0C       		.uleb128 0xc
 1798 02f2 04       		.byte	0x4
 1799 02f3 D8020000 		.4byte	0x2d8
 1800 02f7 0A       		.uleb128 0xa
 1801 02f8 60010000 		.4byte	0x160
 1802 02fc 10030000 		.4byte	0x310
 1803 0300 0B       		.uleb128 0xb
ARM GAS  /tmp/cc75PYCl.s 			page 33


 1804 0301 51020000 		.4byte	0x251
 1805 0305 0B       		.uleb128 0xb
 1806 0306 91000000 		.4byte	0x91
 1807 030a 0B       		.uleb128 0xb
 1808 030b 91000000 		.4byte	0x91
 1809 030f 00       		.byte	0
 1810 0310 0C       		.uleb128 0xc
 1811 0311 04       		.byte	0x4
 1812 0312 F7020000 		.4byte	0x2f7
 1813 0316 04       		.uleb128 0x4
 1814 0317 4A010000 		.4byte	.LASF52
 1815 031b 06       		.byte	0x6
 1816 031c 5A       		.byte	0x5a
 1817 031d 9D010000 		.4byte	0x19d
 1818 0321 06       		.uleb128 0x6
 1819 0322 08       		.byte	0x8
 1820 0323 06       		.byte	0x6
 1821 0324 5F       		.byte	0x5f
 1822 0325 42030000 		.4byte	0x342
 1823 0329 07       		.uleb128 0x7
 1824 032a F9010000 		.4byte	.LASF53
 1825 032e 06       		.byte	0x6
 1826 032f 61       		.byte	0x61
 1827 0330 88000000 		.4byte	0x88
 1828 0334 00       		.byte	0
 1829 0335 07       		.uleb128 0x7
 1830 0336 C7050000 		.4byte	.LASF54
 1831 033a 06       		.byte	0x6
 1832 033b 62       		.byte	0x62
 1833 033c 88000000 		.4byte	0x88
 1834 0340 04       		.byte	0x4
 1835 0341 00       		.byte	0
 1836 0342 04       		.uleb128 0x4
 1837 0343 07050000 		.4byte	.LASF55
 1838 0347 06       		.byte	0x6
 1839 0348 63       		.byte	0x63
 1840 0349 21030000 		.4byte	0x321
 1841 034d 06       		.uleb128 0x6
 1842 034e 08       		.byte	0x8
 1843 034f 07       		.byte	0x7
 1844 0350 8D       		.byte	0x8d
 1845 0351 92030000 		.4byte	0x392
 1846 0355 07       		.uleb128 0x7
 1847 0356 C4010000 		.4byte	.LASF56
 1848 035a 07       		.byte	0x7
 1849 035b 8F       		.byte	0x8f
 1850 035c 91000000 		.4byte	0x91
 1851 0360 00       		.byte	0
 1852 0361 07       		.uleb128 0x7
 1853 0362 17050000 		.4byte	.LASF57
 1854 0366 07       		.byte	0x7
 1855 0367 90       		.byte	0x90
 1856 0368 91000000 		.4byte	0x91
 1857 036c 01       		.byte	0x1
 1858 036d 07       		.uleb128 0x7
 1859 036e AE060000 		.4byte	.LASF58
 1860 0372 07       		.byte	0x7
ARM GAS  /tmp/cc75PYCl.s 			page 34


 1861 0373 91       		.byte	0x91
 1862 0374 91000000 		.4byte	0x91
 1863 0378 02       		.byte	0x2
 1864 0379 07       		.uleb128 0x7
 1865 037a BD060000 		.4byte	.LASF59
 1866 037e 07       		.byte	0x7
 1867 037f 92       		.byte	0x92
 1868 0380 91000000 		.4byte	0x91
 1869 0384 03       		.byte	0x3
 1870 0385 07       		.uleb128 0x7
 1871 0386 5E020000 		.4byte	.LASF60
 1872 038a 07       		.byte	0x7
 1873 038b 93       		.byte	0x93
 1874 038c 97020000 		.4byte	0x297
 1875 0390 04       		.byte	0x4
 1876 0391 00       		.byte	0
 1877 0392 04       		.uleb128 0x4
 1878 0393 C3030000 		.4byte	.LASF61
 1879 0397 07       		.byte	0x7
 1880 0398 94       		.byte	0x94
 1881 0399 4D030000 		.4byte	0x34d
 1882 039d 06       		.uleb128 0x6
 1883 039e 04       		.byte	0x4
 1884 039f 07       		.byte	0x7
 1885 03a0 99       		.byte	0x99
 1886 03a1 B2030000 		.4byte	0x3b2
 1887 03a5 07       		.uleb128 0x7
 1888 03a6 08020000 		.4byte	.LASF62
 1889 03aa 07       		.byte	0x7
 1890 03ab 9B       		.byte	0x9b
 1891 03ac B2030000 		.4byte	0x3b2
 1892 03b0 00       		.byte	0
 1893 03b1 00       		.byte	0
 1894 03b2 0C       		.uleb128 0xc
 1895 03b3 04       		.byte	0x4
 1896 03b4 92030000 		.4byte	0x392
 1897 03b8 04       		.uleb128 0x4
 1898 03b9 B9040000 		.4byte	.LASF63
 1899 03bd 07       		.byte	0x7
 1900 03be 9C       		.byte	0x9c
 1901 03bf 9D030000 		.4byte	0x39d
 1902 03c3 08       		.uleb128 0x8
 1903 03c4 01       		.byte	0x1
 1904 03c5 08       		.byte	0x8
 1905 03c6 52       		.byte	0x52
 1906 03c7 E4030000 		.4byte	0x3e4
 1907 03cb 09       		.uleb128 0x9
 1908 03cc 06030000 		.4byte	.LASF64
 1909 03d0 00       		.sleb128 0
 1910 03d1 09       		.uleb128 0x9
 1911 03d2 AD040000 		.4byte	.LASF65
 1912 03d6 01       		.sleb128 1
 1913 03d7 09       		.uleb128 0x9
 1914 03d8 8D040000 		.4byte	.LASF66
 1915 03dc 02       		.sleb128 2
 1916 03dd 09       		.uleb128 0x9
 1917 03de 16040000 		.4byte	.LASF67
ARM GAS  /tmp/cc75PYCl.s 			page 35


 1918 03e2 03       		.sleb128 3
 1919 03e3 00       		.byte	0
 1920 03e4 08       		.uleb128 0x8
 1921 03e5 01       		.byte	0x1
 1922 03e6 09       		.byte	0x9
 1923 03e7 46       		.byte	0x46
 1924 03e8 F9030000 		.4byte	0x3f9
 1925 03ec 09       		.uleb128 0x9
 1926 03ed 6A050000 		.4byte	.LASF68
 1927 03f1 7F       		.sleb128 -1
 1928 03f2 09       		.uleb128 0x9
 1929 03f3 0D060000 		.4byte	.LASF69
 1930 03f7 00       		.sleb128 0
 1931 03f8 00       		.byte	0
 1932 03f9 04       		.uleb128 0x4
 1933 03fa 96060000 		.4byte	.LASF70
 1934 03fe 09       		.byte	0x9
 1935 03ff 49       		.byte	0x49
 1936 0400 E4030000 		.4byte	0x3e4
 1937 0404 0D       		.uleb128 0xd
 1938 0405 6C010000 		.4byte	.LASF74
 1939 0409 01       		.byte	0x1
 1940 040a 65       		.byte	0x65
 1941 040b 60010000 		.4byte	0x160
 1942 040f 00000000 		.4byte	.LFB125
 1943 0413 48000000 		.4byte	.LFE125-.LFB125
 1944 0417 01       		.uleb128 0x1
 1945 0418 9C       		.byte	0x9c
 1946 0419 39040000 		.4byte	0x439
 1947 041d 0E       		.uleb128 0xe
 1948 041e 696400   		.ascii	"id\000"
 1949 0421 01       		.byte	0x1
 1950 0422 65       		.byte	0x65
 1951 0423 F9030000 		.4byte	0x3f9
 1952 0427 02       		.uleb128 0x2
 1953 0428 91       		.byte	0x91
 1954 0429 77       		.sleb128 -9
 1955 042a 0F       		.uleb128 0xf
 1956 042b 19060000 		.4byte	.LASF71
 1957 042f 01       		.byte	0x1
 1958 0430 65       		.byte	0x65
 1959 0431 39040000 		.4byte	0x439
 1960 0435 02       		.uleb128 0x2
 1961 0436 91       		.byte	0x91
 1962 0437 70       		.sleb128 -16
 1963 0438 00       		.byte	0
 1964 0439 0C       		.uleb128 0xc
 1965 043a 04       		.byte	0x4
 1966 043b 88000000 		.4byte	0x88
 1967 043f 10       		.uleb128 0x10
 1968 0440 6F030000 		.4byte	.LASF102
 1969 0444 01       		.byte	0x1
 1970 0445 81       		.byte	0x81
 1971 0446 60010000 		.4byte	0x160
 1972 044a 50000000 		.4byte	.LFB126
 1973 044e 64010000 		.4byte	.LFE126-.LFB126
 1974 0452 01       		.uleb128 0x1
ARM GAS  /tmp/cc75PYCl.s 			page 36


 1975 0453 9C       		.byte	0x9c
 1976 0454 83040000 		.4byte	0x483
 1977 0458 0F       		.uleb128 0xf
 1978 0459 19060000 		.4byte	.LASF71
 1979 045d 01       		.byte	0x1
 1980 045e 81       		.byte	0x81
 1981 045f 39040000 		.4byte	0x439
 1982 0463 02       		.uleb128 0x2
 1983 0464 91       		.byte	0x91
 1984 0465 6C       		.sleb128 -20
 1985 0466 11       		.uleb128 0x11
 1986 0467 0F040000 		.4byte	.LASF72
 1987 046b 01       		.byte	0x1
 1988 046c 83       		.byte	0x83
 1989 046d 83040000 		.4byte	0x483
 1990 0471 02       		.uleb128 0x2
 1991 0472 91       		.byte	0x91
 1992 0473 74       		.sleb128 -12
 1993 0474 11       		.uleb128 0x11
 1994 0475 C2050000 		.4byte	.LASF73
 1995 0479 01       		.byte	0x1
 1996 047a 84       		.byte	0x84
 1997 047b 91000000 		.4byte	0x91
 1998 047f 02       		.uleb128 0x2
 1999 0480 91       		.byte	0x91
 2000 0481 73       		.sleb128 -13
 2001 0482 00       		.byte	0
 2002 0483 0C       		.uleb128 0xc
 2003 0484 04       		.byte	0x4
 2004 0485 16030000 		.4byte	0x316
 2005 0489 0D       		.uleb128 0xd
 2006 048a E5010000 		.4byte	.LASF75
 2007 048e 01       		.byte	0x1
 2008 048f D7       		.byte	0xd7
 2009 0490 60010000 		.4byte	0x160
 2010 0494 C0010000 		.4byte	.LFB127
 2011 0498 58000000 		.4byte	.LFE127-.LFB127
 2012 049c 01       		.uleb128 0x1
 2013 049d 9C       		.byte	0x9c
 2014 049e CD040000 		.4byte	0x4cd
 2015 04a2 0F       		.uleb128 0xf
 2016 04a3 19060000 		.4byte	.LASF71
 2017 04a7 01       		.byte	0x1
 2018 04a8 D7       		.byte	0xd7
 2019 04a9 39040000 		.4byte	0x439
 2020 04ad 02       		.uleb128 0x2
 2021 04ae 91       		.byte	0x91
 2022 04af 6C       		.sleb128 -20
 2023 04b0 12       		.uleb128 0x12
 2024 04b1 63747800 		.ascii	"ctx\000"
 2025 04b5 01       		.byte	0x1
 2026 04b6 D9       		.byte	0xd9
 2027 04b7 51020000 		.4byte	0x251
 2028 04bb 02       		.uleb128 0x2
 2029 04bc 91       		.byte	0x91
 2030 04bd 74       		.sleb128 -12
 2031 04be 11       		.uleb128 0x11
ARM GAS  /tmp/cc75PYCl.s 			page 37


 2032 04bf 0F040000 		.4byte	.LASF72
 2033 04c3 01       		.byte	0x1
 2034 04c4 DA       		.byte	0xda
 2035 04c5 83040000 		.4byte	0x483
 2036 04c9 02       		.uleb128 0x2
 2037 04ca 91       		.byte	0x91
 2038 04cb 70       		.sleb128 -16
 2039 04cc 00       		.byte	0
 2040 04cd 0D       		.uleb128 0xd
 2041 04ce 3B000000 		.4byte	.LASF76
 2042 04d2 01       		.byte	0x1
 2043 04d3 FC       		.byte	0xfc
 2044 04d4 60010000 		.4byte	0x160
 2045 04d8 20020000 		.4byte	.LFB128
 2046 04dc 46000000 		.4byte	.LFE128-.LFB128
 2047 04e0 01       		.uleb128 0x1
 2048 04e1 9C       		.byte	0x9c
 2049 04e2 12050000 		.4byte	0x512
 2050 04e6 0F       		.uleb128 0xf
 2051 04e7 19060000 		.4byte	.LASF71
 2052 04eb 01       		.byte	0x1
 2053 04ec FC       		.byte	0xfc
 2054 04ed 88000000 		.4byte	0x88
 2055 04f1 02       		.uleb128 0x2
 2056 04f2 91       		.byte	0x91
 2057 04f3 6C       		.sleb128 -20
 2058 04f4 12       		.uleb128 0x12
 2059 04f5 63747800 		.ascii	"ctx\000"
 2060 04f9 01       		.byte	0x1
 2061 04fa FF       		.byte	0xff
 2062 04fb 51020000 		.4byte	0x251
 2063 04ff 02       		.uleb128 0x2
 2064 0500 91       		.byte	0x91
 2065 0501 74       		.sleb128 -12
 2066 0502 13       		.uleb128 0x13
 2067 0503 0F040000 		.4byte	.LASF72
 2068 0507 01       		.byte	0x1
 2069 0508 0001     		.2byte	0x100
 2070 050a 83040000 		.4byte	0x483
 2071 050e 02       		.uleb128 0x2
 2072 050f 91       		.byte	0x91
 2073 0510 70       		.sleb128 -16
 2074 0511 00       		.byte	0
 2075 0512 14       		.uleb128 0x14
 2076 0513 A6050000 		.4byte	.LASF77
 2077 0517 01       		.byte	0x1
 2078 0518 1E01     		.2byte	0x11e
 2079 051a 60010000 		.4byte	0x160
 2080 051e 70020000 		.4byte	.LFB129
 2081 0522 46000000 		.4byte	.LFE129-.LFB129
 2082 0526 01       		.uleb128 0x1
 2083 0527 9C       		.byte	0x9c
 2084 0528 5A050000 		.4byte	0x55a
 2085 052c 15       		.uleb128 0x15
 2086 052d 19060000 		.4byte	.LASF71
 2087 0531 01       		.byte	0x1
 2088 0532 1E01     		.2byte	0x11e
ARM GAS  /tmp/cc75PYCl.s 			page 38


 2089 0534 88000000 		.4byte	0x88
 2090 0538 02       		.uleb128 0x2
 2091 0539 91       		.byte	0x91
 2092 053a 6C       		.sleb128 -20
 2093 053b 16       		.uleb128 0x16
 2094 053c 63747800 		.ascii	"ctx\000"
 2095 0540 01       		.byte	0x1
 2096 0541 2101     		.2byte	0x121
 2097 0543 51020000 		.4byte	0x251
 2098 0547 02       		.uleb128 0x2
 2099 0548 91       		.byte	0x91
 2100 0549 74       		.sleb128 -12
 2101 054a 13       		.uleb128 0x13
 2102 054b 0F040000 		.4byte	.LASF72
 2103 054f 01       		.byte	0x1
 2104 0550 2201     		.2byte	0x122
 2105 0552 83040000 		.4byte	0x483
 2106 0556 02       		.uleb128 0x2
 2107 0557 91       		.byte	0x91
 2108 0558 70       		.sleb128 -16
 2109 0559 00       		.byte	0
 2110 055a 17       		.uleb128 0x17
 2111 055b 61060000 		.4byte	.LASF78
 2112 055f 01       		.byte	0x1
 2113 0560 4001     		.2byte	0x140
 2114 0562 60010000 		.4byte	0x160
 2115 0566 C0020000 		.4byte	.LFB130
 2116 056a 2E000000 		.4byte	.LFE130-.LFB130
 2117 056e 01       		.uleb128 0x1
 2118 056f 9C       		.byte	0x9c
 2119 0570 A2050000 		.4byte	0x5a2
 2120 0574 15       		.uleb128 0x15
 2121 0575 19060000 		.4byte	.LASF71
 2122 0579 01       		.byte	0x1
 2123 057a 4001     		.2byte	0x140
 2124 057c 88000000 		.4byte	0x88
 2125 0580 02       		.uleb128 0x2
 2126 0581 91       		.byte	0x91
 2127 0582 74       		.sleb128 -12
 2128 0583 15       		.uleb128 0x15
 2129 0584 4E050000 		.4byte	.LASF79
 2130 0588 01       		.byte	0x1
 2131 0589 4001     		.2byte	0x140
 2132 058b 71020000 		.4byte	0x271
 2133 058f 02       		.uleb128 0x2
 2134 0590 91       		.byte	0x91
 2135 0591 70       		.sleb128 -16
 2136 0592 16       		.uleb128 0x16
 2137 0593 63747800 		.ascii	"ctx\000"
 2138 0597 01       		.byte	0x1
 2139 0598 4201     		.2byte	0x142
 2140 059a 51020000 		.4byte	0x251
 2141 059e 02       		.uleb128 0x2
 2142 059f 91       		.byte	0x91
 2143 05a0 7C       		.sleb128 -4
 2144 05a1 00       		.byte	0
 2145 05a2 17       		.uleb128 0x17
ARM GAS  /tmp/cc75PYCl.s 			page 39


 2146 05a3 80000000 		.4byte	.LASF80
 2147 05a7 01       		.byte	0x1
 2148 05a8 5B01     		.2byte	0x15b
 2149 05aa 60010000 		.4byte	0x160
 2150 05ae F0020000 		.4byte	.LFB131
 2151 05b2 2E000000 		.4byte	.LFE131-.LFB131
 2152 05b6 01       		.uleb128 0x1
 2153 05b7 9C       		.byte	0x9c
 2154 05b8 EA050000 		.4byte	0x5ea
 2155 05bc 15       		.uleb128 0x15
 2156 05bd 19060000 		.4byte	.LASF71
 2157 05c1 01       		.byte	0x1
 2158 05c2 5B01     		.2byte	0x15b
 2159 05c4 88000000 		.4byte	0x88
 2160 05c8 02       		.uleb128 0x2
 2161 05c9 91       		.byte	0x91
 2162 05ca 74       		.sleb128 -12
 2163 05cb 15       		.uleb128 0x15
 2164 05cc 4E050000 		.4byte	.LASF79
 2165 05d0 01       		.byte	0x1
 2166 05d1 5B01     		.2byte	0x15b
 2167 05d3 71020000 		.4byte	0x271
 2168 05d7 02       		.uleb128 0x2
 2169 05d8 91       		.byte	0x91
 2170 05d9 70       		.sleb128 -16
 2171 05da 16       		.uleb128 0x16
 2172 05db 63747800 		.ascii	"ctx\000"
 2173 05df 01       		.byte	0x1
 2174 05e0 5D01     		.2byte	0x15d
 2175 05e2 51020000 		.4byte	0x251
 2176 05e6 02       		.uleb128 0x2
 2177 05e7 91       		.byte	0x91
 2178 05e8 7C       		.sleb128 -4
 2179 05e9 00       		.byte	0
 2180 05ea 17       		.uleb128 0x17
 2181 05eb 80050000 		.4byte	.LASF81
 2182 05ef 01       		.byte	0x1
 2183 05f0 7601     		.2byte	0x176
 2184 05f2 60010000 		.4byte	0x160
 2185 05f6 20030000 		.4byte	.LFB132
 2186 05fa 2E000000 		.4byte	.LFE132-.LFB132
 2187 05fe 01       		.uleb128 0x1
 2188 05ff 9C       		.byte	0x9c
 2189 0600 32060000 		.4byte	0x632
 2190 0604 15       		.uleb128 0x15
 2191 0605 19060000 		.4byte	.LASF71
 2192 0609 01       		.byte	0x1
 2193 060a 7601     		.2byte	0x176
 2194 060c 88000000 		.4byte	0x88
 2195 0610 02       		.uleb128 0x2
 2196 0611 91       		.byte	0x91
 2197 0612 74       		.sleb128 -12
 2198 0613 15       		.uleb128 0x15
 2199 0614 4E050000 		.4byte	.LASF79
 2200 0618 01       		.byte	0x1
 2201 0619 7601     		.2byte	0x176
 2202 061b 71020000 		.4byte	0x271
ARM GAS  /tmp/cc75PYCl.s 			page 40


 2203 061f 02       		.uleb128 0x2
 2204 0620 91       		.byte	0x91
 2205 0621 70       		.sleb128 -16
 2206 0622 16       		.uleb128 0x16
 2207 0623 63747800 		.ascii	"ctx\000"
 2208 0627 01       		.byte	0x1
 2209 0628 7801     		.2byte	0x178
 2210 062a 51020000 		.4byte	0x251
 2211 062e 02       		.uleb128 0x2
 2212 062f 91       		.byte	0x91
 2213 0630 7C       		.sleb128 -4
 2214 0631 00       		.byte	0
 2215 0632 17       		.uleb128 0x17
 2216 0633 30030000 		.4byte	.LASF82
 2217 0637 01       		.byte	0x1
 2218 0638 9101     		.2byte	0x191
 2219 063a 60010000 		.4byte	0x160
 2220 063e 50030000 		.4byte	.LFB133
 2221 0642 2E000000 		.4byte	.LFE133-.LFB133
 2222 0646 01       		.uleb128 0x1
 2223 0647 9C       		.byte	0x9c
 2224 0648 7A060000 		.4byte	0x67a
 2225 064c 15       		.uleb128 0x15
 2226 064d 19060000 		.4byte	.LASF71
 2227 0651 01       		.byte	0x1
 2228 0652 9101     		.2byte	0x191
 2229 0654 88000000 		.4byte	0x88
 2230 0658 02       		.uleb128 0x2
 2231 0659 91       		.byte	0x91
 2232 065a 74       		.sleb128 -12
 2233 065b 15       		.uleb128 0x15
 2234 065c FE040000 		.4byte	.LASF19
 2235 0660 01       		.byte	0x1
 2236 0661 9101     		.2byte	0x191
 2237 0663 71020000 		.4byte	0x271
 2238 0667 02       		.uleb128 0x2
 2239 0668 91       		.byte	0x91
 2240 0669 70       		.sleb128 -16
 2241 066a 16       		.uleb128 0x16
 2242 066b 63747800 		.ascii	"ctx\000"
 2243 066f 01       		.byte	0x1
 2244 0670 9301     		.2byte	0x193
 2245 0672 51020000 		.4byte	0x251
 2246 0676 02       		.uleb128 0x2
 2247 0677 91       		.byte	0x91
 2248 0678 7C       		.sleb128 -4
 2249 0679 00       		.byte	0
 2250 067a 14       		.uleb128 0x14
 2251 067b 15000000 		.4byte	.LASF83
 2252 067f 01       		.byte	0x1
 2253 0680 AD01     		.2byte	0x1ad
 2254 0682 60010000 		.4byte	0x160
 2255 0686 80030000 		.4byte	.LFB134
 2256 068a 54000000 		.4byte	.LFE134-.LFB134
 2257 068e 01       		.uleb128 0x1
 2258 068f 9C       		.byte	0x9c
 2259 0690 D1060000 		.4byte	0x6d1
ARM GAS  /tmp/cc75PYCl.s 			page 41


 2260 0694 15       		.uleb128 0x15
 2261 0695 19060000 		.4byte	.LASF71
 2262 0699 01       		.byte	0x1
 2263 069a AD01     		.2byte	0x1ad
 2264 069c 88000000 		.4byte	0x88
 2265 06a0 02       		.uleb128 0x2
 2266 06a1 91       		.byte	0x91
 2267 06a2 6C       		.sleb128 -20
 2268 06a3 15       		.uleb128 0x15
 2269 06a4 9D050000 		.4byte	.LASF15
 2270 06a8 01       		.byte	0x1
 2271 06a9 AD01     		.2byte	0x1ad
 2272 06ab 71020000 		.4byte	0x271
 2273 06af 02       		.uleb128 0x2
 2274 06b0 91       		.byte	0x91
 2275 06b1 68       		.sleb128 -24
 2276 06b2 16       		.uleb128 0x16
 2277 06b3 63747800 		.ascii	"ctx\000"
 2278 06b7 01       		.byte	0x1
 2279 06b8 B001     		.2byte	0x1b0
 2280 06ba 51020000 		.4byte	0x251
 2281 06be 02       		.uleb128 0x2
 2282 06bf 91       		.byte	0x91
 2283 06c0 74       		.sleb128 -12
 2284 06c1 13       		.uleb128 0x13
 2285 06c2 0F040000 		.4byte	.LASF72
 2286 06c6 01       		.byte	0x1
 2287 06c7 B101     		.2byte	0x1b1
 2288 06c9 83040000 		.4byte	0x483
 2289 06cd 02       		.uleb128 0x2
 2290 06ce 91       		.byte	0x91
 2291 06cf 70       		.sleb128 -16
 2292 06d0 00       		.byte	0
 2293 06d1 14       		.uleb128 0x14
 2294 06d2 20060000 		.4byte	.LASF84
 2295 06d6 01       		.byte	0x1
 2296 06d7 D201     		.2byte	0x1d2
 2297 06d9 60010000 		.4byte	0x160
 2298 06dd E0030000 		.4byte	.LFB135
 2299 06e1 46000000 		.4byte	.LFE135-.LFB135
 2300 06e5 01       		.uleb128 0x1
 2301 06e6 9C       		.byte	0x9c
 2302 06e7 19070000 		.4byte	0x719
 2303 06eb 15       		.uleb128 0x15
 2304 06ec 19060000 		.4byte	.LASF71
 2305 06f0 01       		.byte	0x1
 2306 06f1 D201     		.2byte	0x1d2
 2307 06f3 88000000 		.4byte	0x88
 2308 06f7 02       		.uleb128 0x2
 2309 06f8 91       		.byte	0x91
 2310 06f9 6C       		.sleb128 -20
 2311 06fa 16       		.uleb128 0x16
 2312 06fb 63747800 		.ascii	"ctx\000"
 2313 06ff 01       		.byte	0x1
 2314 0700 D501     		.2byte	0x1d5
 2315 0702 51020000 		.4byte	0x251
 2316 0706 02       		.uleb128 0x2
ARM GAS  /tmp/cc75PYCl.s 			page 42


 2317 0707 91       		.byte	0x91
 2318 0708 74       		.sleb128 -12
 2319 0709 13       		.uleb128 0x13
 2320 070a 0F040000 		.4byte	.LASF72
 2321 070e 01       		.byte	0x1
 2322 070f D601     		.2byte	0x1d6
 2323 0711 83040000 		.4byte	0x483
 2324 0715 02       		.uleb128 0x2
 2325 0716 91       		.byte	0x91
 2326 0717 70       		.sleb128 -16
 2327 0718 00       		.byte	0
 2328 0719 14       		.uleb128 0x14
 2329 071a 76040000 		.4byte	.LASF85
 2330 071e 01       		.byte	0x1
 2331 071f F401     		.2byte	0x1f4
 2332 0721 60010000 		.4byte	0x160
 2333 0725 30040000 		.4byte	.LFB136
 2334 0729 54000000 		.4byte	.LFE136-.LFB136
 2335 072d 01       		.uleb128 0x1
 2336 072e 9C       		.byte	0x9c
 2337 072f 70070000 		.4byte	0x770
 2338 0733 15       		.uleb128 0x15
 2339 0734 19060000 		.4byte	.LASF71
 2340 0738 01       		.byte	0x1
 2341 0739 F401     		.2byte	0x1f4
 2342 073b 88000000 		.4byte	0x88
 2343 073f 02       		.uleb128 0x2
 2344 0740 91       		.byte	0x91
 2345 0741 6C       		.sleb128 -20
 2346 0742 15       		.uleb128 0x15
 2347 0743 9A030000 		.4byte	.LASF86
 2348 0747 01       		.byte	0x1
 2349 0748 F401     		.2byte	0x1f4
 2350 074a 91020000 		.4byte	0x291
 2351 074e 02       		.uleb128 0x2
 2352 074f 91       		.byte	0x91
 2353 0750 68       		.sleb128 -24
 2354 0751 16       		.uleb128 0x16
 2355 0752 63747800 		.ascii	"ctx\000"
 2356 0756 01       		.byte	0x1
 2357 0757 F701     		.2byte	0x1f7
 2358 0759 51020000 		.4byte	0x251
 2359 075d 02       		.uleb128 0x2
 2360 075e 91       		.byte	0x91
 2361 075f 74       		.sleb128 -12
 2362 0760 13       		.uleb128 0x13
 2363 0761 0F040000 		.4byte	.LASF72
 2364 0765 01       		.byte	0x1
 2365 0766 F801     		.2byte	0x1f8
 2366 0768 83040000 		.4byte	0x483
 2367 076c 02       		.uleb128 0x2
 2368 076d 91       		.byte	0x91
 2369 076e 70       		.sleb128 -16
 2370 076f 00       		.byte	0
 2371 0770 14       		.uleb128 0x14
 2372 0771 D7040000 		.4byte	.LASF87
 2373 0775 01       		.byte	0x1
ARM GAS  /tmp/cc75PYCl.s 			page 43


 2374 0776 1A02     		.2byte	0x21a
 2375 0778 60010000 		.4byte	0x160
 2376 077c 90040000 		.4byte	.LFB137
 2377 0780 54000000 		.4byte	.LFE137-.LFB137
 2378 0784 01       		.uleb128 0x1
 2379 0785 9C       		.byte	0x9c
 2380 0786 C7070000 		.4byte	0x7c7
 2381 078a 15       		.uleb128 0x15
 2382 078b 19060000 		.4byte	.LASF71
 2383 078f 01       		.byte	0x1
 2384 0790 1A02     		.2byte	0x21a
 2385 0792 88000000 		.4byte	0x88
 2386 0796 02       		.uleb128 0x2
 2387 0797 91       		.byte	0x91
 2388 0798 6C       		.sleb128 -20
 2389 0799 18       		.uleb128 0x18
 2390 079a 6F647200 		.ascii	"odr\000"
 2391 079e 01       		.byte	0x1
 2392 079f 1A02     		.2byte	0x21a
 2393 07a1 91020000 		.4byte	0x291
 2394 07a5 02       		.uleb128 0x2
 2395 07a6 91       		.byte	0x91
 2396 07a7 68       		.sleb128 -24
 2397 07a8 16       		.uleb128 0x16
 2398 07a9 63747800 		.ascii	"ctx\000"
 2399 07ad 01       		.byte	0x1
 2400 07ae 1D02     		.2byte	0x21d
 2401 07b0 51020000 		.4byte	0x251
 2402 07b4 02       		.uleb128 0x2
 2403 07b5 91       		.byte	0x91
 2404 07b6 74       		.sleb128 -12
 2405 07b7 13       		.uleb128 0x13
 2406 07b8 0F040000 		.4byte	.LASF72
 2407 07bc 01       		.byte	0x1
 2408 07bd 1E02     		.2byte	0x21e
 2409 07bf 83040000 		.4byte	0x483
 2410 07c3 02       		.uleb128 0x2
 2411 07c4 91       		.byte	0x91
 2412 07c5 70       		.sleb128 -16
 2413 07c6 00       		.byte	0
 2414 07c7 14       		.uleb128 0x14
 2415 07c8 94010000 		.4byte	.LASF88
 2416 07cc 01       		.byte	0x1
 2417 07cd 4002     		.2byte	0x240
 2418 07cf 60010000 		.4byte	0x160
 2419 07d3 F0040000 		.4byte	.LFB138
 2420 07d7 52000000 		.4byte	.LFE138-.LFB138
 2421 07db 01       		.uleb128 0x1
 2422 07dc 9C       		.byte	0x9c
 2423 07dd 1E080000 		.4byte	0x81e
 2424 07e1 15       		.uleb128 0x15
 2425 07e2 19060000 		.4byte	.LASF71
 2426 07e6 01       		.byte	0x1
 2427 07e7 4002     		.2byte	0x240
 2428 07e9 88000000 		.4byte	0x88
 2429 07ed 02       		.uleb128 0x2
 2430 07ee 91       		.byte	0x91
ARM GAS  /tmp/cc75PYCl.s 			page 44


 2431 07ef 6C       		.sleb128 -20
 2432 07f0 18       		.uleb128 0x18
 2433 07f1 6F647200 		.ascii	"odr\000"
 2434 07f5 01       		.byte	0x1
 2435 07f6 4002     		.2byte	0x240
 2436 07f8 92010000 		.4byte	0x192
 2437 07fc 02       		.uleb128 0x2
 2438 07fd 91       		.byte	0x91
 2439 07fe 6B       		.sleb128 -21
 2440 07ff 16       		.uleb128 0x16
 2441 0800 63747800 		.ascii	"ctx\000"
 2442 0804 01       		.byte	0x1
 2443 0805 4302     		.2byte	0x243
 2444 0807 51020000 		.4byte	0x251
 2445 080b 02       		.uleb128 0x2
 2446 080c 91       		.byte	0x91
 2447 080d 74       		.sleb128 -12
 2448 080e 13       		.uleb128 0x13
 2449 080f 0F040000 		.4byte	.LASF72
 2450 0813 01       		.byte	0x1
 2451 0814 4402     		.2byte	0x244
 2452 0816 83040000 		.4byte	0x483
 2453 081a 02       		.uleb128 0x2
 2454 081b 91       		.byte	0x91
 2455 081c 70       		.sleb128 -16
 2456 081d 00       		.byte	0
 2457 081e 14       		.uleb128 0x14
 2458 081f 65000000 		.4byte	.LASF89
 2459 0823 01       		.byte	0x1
 2460 0824 6202     		.2byte	0x262
 2461 0826 60010000 		.4byte	0x160
 2462 082a 50050000 		.4byte	.LFB139
 2463 082e 4A000000 		.4byte	.LFE139-.LFB139
 2464 0832 01       		.uleb128 0x1
 2465 0833 9C       		.byte	0x9c
 2466 0834 75080000 		.4byte	0x875
 2467 0838 15       		.uleb128 0x15
 2468 0839 19060000 		.4byte	.LASF71
 2469 083d 01       		.byte	0x1
 2470 083e 6202     		.2byte	0x262
 2471 0840 88000000 		.4byte	0x88
 2472 0844 02       		.uleb128 0x2
 2473 0845 91       		.byte	0x91
 2474 0846 6C       		.sleb128 -20
 2475 0847 18       		.uleb128 0x18
 2476 0848 6F647200 		.ascii	"odr\000"
 2477 084c 01       		.byte	0x1
 2478 084d 6202     		.2byte	0x262
 2479 084f 97020000 		.4byte	0x297
 2480 0853 02       		.uleb128 0x2
 2481 0854 91       		.byte	0x91
 2482 0855 68       		.sleb128 -24
 2483 0856 16       		.uleb128 0x16
 2484 0857 63747800 		.ascii	"ctx\000"
 2485 085b 01       		.byte	0x1
 2486 085c 6502     		.2byte	0x265
 2487 085e 51020000 		.4byte	0x251
ARM GAS  /tmp/cc75PYCl.s 			page 45


 2488 0862 02       		.uleb128 0x2
 2489 0863 91       		.byte	0x91
 2490 0864 74       		.sleb128 -12
 2491 0865 13       		.uleb128 0x13
 2492 0866 0F040000 		.4byte	.LASF72
 2493 086a 01       		.byte	0x1
 2494 086b 6602     		.2byte	0x266
 2495 086d 83040000 		.4byte	0x483
 2496 0871 02       		.uleb128 0x2
 2497 0872 91       		.byte	0x91
 2498 0873 70       		.sleb128 -16
 2499 0874 00       		.byte	0
 2500 0875 14       		.uleb128 0x14
 2501 0876 12020000 		.4byte	.LASF90
 2502 087a 01       		.byte	0x1
 2503 087b 8402     		.2byte	0x284
 2504 087d 60010000 		.4byte	0x160
 2505 0881 A0050000 		.4byte	.LFB140
 2506 0885 60000000 		.4byte	.LFE140-.LFB140
 2507 0889 01       		.uleb128 0x1
 2508 088a 9C       		.byte	0x9c
 2509 088b DB080000 		.4byte	0x8db
 2510 088f 15       		.uleb128 0x15
 2511 0890 19060000 		.4byte	.LASF71
 2512 0894 01       		.byte	0x1
 2513 0895 8402     		.2byte	0x284
 2514 0897 88000000 		.4byte	0x88
 2515 089b 02       		.uleb128 0x2
 2516 089c 91       		.byte	0x91
 2517 089d 6C       		.sleb128 -20
 2518 089e 18       		.uleb128 0x18
 2519 089f 72656700 		.ascii	"reg\000"
 2520 08a3 01       		.byte	0x1
 2521 08a4 8402     		.2byte	0x284
 2522 08a6 91000000 		.4byte	0x91
 2523 08aa 02       		.uleb128 0x2
 2524 08ab 91       		.byte	0x91
 2525 08ac 6B       		.sleb128 -21
 2526 08ad 15       		.uleb128 0x15
 2527 08ae C2050000 		.4byte	.LASF73
 2528 08b2 01       		.byte	0x1
 2529 08b3 8402     		.2byte	0x284
 2530 08b5 71020000 		.4byte	0x271
 2531 08b9 02       		.uleb128 0x2
 2532 08ba 91       		.byte	0x91
 2533 08bb 64       		.sleb128 -28
 2534 08bc 16       		.uleb128 0x16
 2535 08bd 63747800 		.ascii	"ctx\000"
 2536 08c1 01       		.byte	0x1
 2537 08c2 8702     		.2byte	0x287
 2538 08c4 51020000 		.4byte	0x251
 2539 08c8 02       		.uleb128 0x2
 2540 08c9 91       		.byte	0x91
 2541 08ca 74       		.sleb128 -12
 2542 08cb 13       		.uleb128 0x13
 2543 08cc 0F040000 		.4byte	.LASF72
 2544 08d0 01       		.byte	0x1
ARM GAS  /tmp/cc75PYCl.s 			page 46


 2545 08d1 8802     		.2byte	0x288
 2546 08d3 83040000 		.4byte	0x483
 2547 08d7 02       		.uleb128 0x2
 2548 08d8 91       		.byte	0x91
 2549 08d9 70       		.sleb128 -16
 2550 08da 00       		.byte	0
 2551 08db 14       		.uleb128 0x14
 2552 08dc AC030000 		.4byte	.LASF91
 2553 08e0 01       		.byte	0x1
 2554 08e1 AD02     		.2byte	0x2ad
 2555 08e3 60010000 		.4byte	0x160
 2556 08e7 00060000 		.4byte	.LFB141
 2557 08eb 5A000000 		.4byte	.LFE141-.LFB141
 2558 08ef 01       		.uleb128 0x1
 2559 08f0 9C       		.byte	0x9c
 2560 08f1 41090000 		.4byte	0x941
 2561 08f5 15       		.uleb128 0x15
 2562 08f6 19060000 		.4byte	.LASF71
 2563 08fa 01       		.byte	0x1
 2564 08fb AD02     		.2byte	0x2ad
 2565 08fd 88000000 		.4byte	0x88
 2566 0901 02       		.uleb128 0x2
 2567 0902 91       		.byte	0x91
 2568 0903 6C       		.sleb128 -20
 2569 0904 18       		.uleb128 0x18
 2570 0905 72656700 		.ascii	"reg\000"
 2571 0909 01       		.byte	0x1
 2572 090a AD02     		.2byte	0x2ad
 2573 090c 91000000 		.4byte	0x91
 2574 0910 02       		.uleb128 0x2
 2575 0911 91       		.byte	0x91
 2576 0912 6B       		.sleb128 -21
 2577 0913 15       		.uleb128 0x15
 2578 0914 C2050000 		.4byte	.LASF73
 2579 0918 01       		.byte	0x1
 2580 0919 AD02     		.2byte	0x2ad
 2581 091b 91000000 		.4byte	0x91
 2582 091f 02       		.uleb128 0x2
 2583 0920 91       		.byte	0x91
 2584 0921 6A       		.sleb128 -22
 2585 0922 16       		.uleb128 0x16
 2586 0923 63747800 		.ascii	"ctx\000"
 2587 0927 01       		.byte	0x1
 2588 0928 B002     		.2byte	0x2b0
 2589 092a 51020000 		.4byte	0x251
 2590 092e 02       		.uleb128 0x2
 2591 092f 91       		.byte	0x91
 2592 0930 74       		.sleb128 -12
 2593 0931 13       		.uleb128 0x13
 2594 0932 0F040000 		.4byte	.LASF72
 2595 0936 01       		.byte	0x1
 2596 0937 B102     		.2byte	0x2b1
 2597 0939 83040000 		.4byte	0x483
 2598 093d 02       		.uleb128 0x2
 2599 093e 91       		.byte	0x91
 2600 093f 70       		.sleb128 -16
 2601 0940 00       		.byte	0
ARM GAS  /tmp/cc75PYCl.s 			page 47


 2602 0941 14       		.uleb128 0x14
 2603 0942 41020000 		.4byte	.LASF92
 2604 0946 01       		.byte	0x1
 2605 0947 D002     		.2byte	0x2d0
 2606 0949 60010000 		.4byte	0x160
 2607 094d 60060000 		.4byte	.LFB142
 2608 0951 4A000000 		.4byte	.LFE142-.LFB142
 2609 0955 01       		.uleb128 0x1
 2610 0956 9C       		.byte	0x9c
 2611 0957 98090000 		.4byte	0x998
 2612 095b 15       		.uleb128 0x15
 2613 095c 19060000 		.4byte	.LASF71
 2614 0960 01       		.byte	0x1
 2615 0961 D002     		.2byte	0x2d0
 2616 0963 88000000 		.4byte	0x88
 2617 0967 02       		.uleb128 0x2
 2618 0968 91       		.byte	0x91
 2619 0969 6C       		.sleb128 -20
 2620 096a 15       		.uleb128 0x15
 2621 096b 4E050000 		.4byte	.LASF79
 2622 096f 01       		.byte	0x1
 2623 0970 D002     		.2byte	0x2d0
 2624 0972 71020000 		.4byte	0x271
 2625 0976 02       		.uleb128 0x2
 2626 0977 91       		.byte	0x91
 2627 0978 68       		.sleb128 -24
 2628 0979 16       		.uleb128 0x16
 2629 097a 63747800 		.ascii	"ctx\000"
 2630 097e 01       		.byte	0x1
 2631 097f D302     		.2byte	0x2d3
 2632 0981 51020000 		.4byte	0x251
 2633 0985 02       		.uleb128 0x2
 2634 0986 91       		.byte	0x91
 2635 0987 74       		.sleb128 -12
 2636 0988 13       		.uleb128 0x13
 2637 0989 0F040000 		.4byte	.LASF72
 2638 098d 01       		.byte	0x1
 2639 098e D402     		.2byte	0x2d4
 2640 0990 83040000 		.4byte	0x483
 2641 0994 02       		.uleb128 0x2
 2642 0995 91       		.byte	0x91
 2643 0996 70       		.sleb128 -16
 2644 0997 00       		.byte	0
 2645 0998 19       		.uleb128 0x19
 2646 0999 34010000 		.4byte	0x134
 2647 099d A8090000 		.4byte	0x9a8
 2648 09a1 1A       		.uleb128 0x1a
 2649 09a2 81000000 		.4byte	0x81
 2650 09a6 00       		.byte	0
 2651 09a7 00       		.byte	0
 2652 09a8 11       		.uleb128 0x11
 2653 09a9 7E010000 		.4byte	.LASF93
 2654 09ad 01       		.byte	0x1
 2655 09ae 3D       		.byte	0x3d
 2656 09af 98090000 		.4byte	0x998
 2657 09b3 05       		.uleb128 0x5
 2658 09b4 03       		.byte	0x3
ARM GAS  /tmp/cc75PYCl.s 			page 48


 2659 09b5 00000000 		.4byte	PRESSURE_SensorHandle
 2660 09b9 19       		.uleb128 0x19
 2661 09ba 42030000 		.4byte	0x342
 2662 09be C9090000 		.4byte	0x9c9
 2663 09c2 1A       		.uleb128 0x1a
 2664 09c3 81000000 		.4byte	0x81
 2665 09c7 00       		.byte	0
 2666 09c8 00       		.byte	0
 2667 09c9 11       		.uleb128 0x11
 2668 09ca F4050000 		.4byte	.LASF94
 2669 09ce 01       		.byte	0x1
 2670 09cf 3E       		.byte	0x3e
 2671 09d0 B9090000 		.4byte	0x9b9
 2672 09d4 05       		.uleb128 0x5
 2673 09d5 03       		.byte	0x3
 2674 09d6 14000000 		.4byte	PRESSURE_Data
 2675 09da 11       		.uleb128 0x11
 2676 09db 28020000 		.4byte	.LASF95
 2677 09df 01       		.byte	0x1
 2678 09e0 3F       		.byte	0x3f
 2679 09e1 B8030000 		.4byte	0x3b8
 2680 09e5 05       		.uleb128 0x5
 2681 09e6 03       		.byte	0x3
 2682 09e7 1C000000 		.4byte	LPS22HB_P_0_Data
 2683 09eb 1B       		.uleb128 0x1b
 2684 09ec 2D000000 		.4byte	.LASF96
 2685 09f0 07       		.byte	0x7
 2686 09f1 AE       		.byte	0xae
 2687 09f2 16030000 		.4byte	0x316
 2688 09f6 19       		.uleb128 0x19
 2689 09f7 92030000 		.4byte	0x392
 2690 09fb 060A0000 		.4byte	0xa06
 2691 09ff 1A       		.uleb128 0x1a
 2692 0a00 81000000 		.4byte	0x81
 2693 0a04 00       		.byte	0
 2694 0a05 00       		.byte	0
 2695 0a06 1B       		.uleb128 0x1b
 2696 0a07 59010000 		.4byte	.LASF97
 2697 0a0b 07       		.byte	0x7
 2698 0a0c B0       		.byte	0xb0
 2699 0a0d F6090000 		.4byte	0x9f6
 2700 0a11 1C       		.uleb128 0x1c
 2701 0a12 D5060000 		.4byte	.LASF98
 2702 0a16 0A       		.byte	0xa
 2703 0a17 FA06     		.2byte	0x6fa
 2704 0a19 1D0A0000 		.4byte	0xa1d
 2705 0a1d 1D       		.uleb128 0x1d
 2706 0a1e 9C000000 		.4byte	0x9c
 2707 0a22 00       		.byte	0
 2708              		.section	.debug_abbrev,"",%progbits
 2709              	.Ldebug_abbrev0:
 2710 0000 01       		.uleb128 0x1
 2711 0001 11       		.uleb128 0x11
 2712 0002 01       		.byte	0x1
 2713 0003 25       		.uleb128 0x25
 2714 0004 0E       		.uleb128 0xe
 2715 0005 13       		.uleb128 0x13
ARM GAS  /tmp/cc75PYCl.s 			page 49


 2716 0006 0B       		.uleb128 0xb
 2717 0007 03       		.uleb128 0x3
 2718 0008 0E       		.uleb128 0xe
 2719 0009 1B       		.uleb128 0x1b
 2720 000a 0E       		.uleb128 0xe
 2721 000b 11       		.uleb128 0x11
 2722 000c 01       		.uleb128 0x1
 2723 000d 12       		.uleb128 0x12
 2724 000e 06       		.uleb128 0x6
 2725 000f 10       		.uleb128 0x10
 2726 0010 17       		.uleb128 0x17
 2727 0011 00       		.byte	0
 2728 0012 00       		.byte	0
 2729 0013 02       		.uleb128 0x2
 2730 0014 24       		.uleb128 0x24
 2731 0015 00       		.byte	0
 2732 0016 0B       		.uleb128 0xb
 2733 0017 0B       		.uleb128 0xb
 2734 0018 3E       		.uleb128 0x3e
 2735 0019 0B       		.uleb128 0xb
 2736 001a 03       		.uleb128 0x3
 2737 001b 08       		.uleb128 0x8
 2738 001c 00       		.byte	0
 2739 001d 00       		.byte	0
 2740 001e 03       		.uleb128 0x3
 2741 001f 24       		.uleb128 0x24
 2742 0020 00       		.byte	0
 2743 0021 0B       		.uleb128 0xb
 2744 0022 0B       		.uleb128 0xb
 2745 0023 3E       		.uleb128 0x3e
 2746 0024 0B       		.uleb128 0xb
 2747 0025 03       		.uleb128 0x3
 2748 0026 0E       		.uleb128 0xe
 2749 0027 00       		.byte	0
 2750 0028 00       		.byte	0
 2751 0029 04       		.uleb128 0x4
 2752 002a 16       		.uleb128 0x16
 2753 002b 00       		.byte	0
 2754 002c 03       		.uleb128 0x3
 2755 002d 0E       		.uleb128 0xe
 2756 002e 3A       		.uleb128 0x3a
 2757 002f 0B       		.uleb128 0xb
 2758 0030 3B       		.uleb128 0x3b
 2759 0031 0B       		.uleb128 0xb
 2760 0032 49       		.uleb128 0x49
 2761 0033 13       		.uleb128 0x13
 2762 0034 00       		.byte	0
 2763 0035 00       		.byte	0
 2764 0036 05       		.uleb128 0x5
 2765 0037 0F       		.uleb128 0xf
 2766 0038 00       		.byte	0
 2767 0039 0B       		.uleb128 0xb
 2768 003a 0B       		.uleb128 0xb
 2769 003b 00       		.byte	0
 2770 003c 00       		.byte	0
 2771 003d 06       		.uleb128 0x6
 2772 003e 13       		.uleb128 0x13
ARM GAS  /tmp/cc75PYCl.s 			page 50


 2773 003f 01       		.byte	0x1
 2774 0040 0B       		.uleb128 0xb
 2775 0041 0B       		.uleb128 0xb
 2776 0042 3A       		.uleb128 0x3a
 2777 0043 0B       		.uleb128 0xb
 2778 0044 3B       		.uleb128 0x3b
 2779 0045 0B       		.uleb128 0xb
 2780 0046 01       		.uleb128 0x1
 2781 0047 13       		.uleb128 0x13
 2782 0048 00       		.byte	0
 2783 0049 00       		.byte	0
 2784 004a 07       		.uleb128 0x7
 2785 004b 0D       		.uleb128 0xd
 2786 004c 00       		.byte	0
 2787 004d 03       		.uleb128 0x3
 2788 004e 0E       		.uleb128 0xe
 2789 004f 3A       		.uleb128 0x3a
 2790 0050 0B       		.uleb128 0xb
 2791 0051 3B       		.uleb128 0x3b
 2792 0052 0B       		.uleb128 0xb
 2793 0053 49       		.uleb128 0x49
 2794 0054 13       		.uleb128 0x13
 2795 0055 38       		.uleb128 0x38
 2796 0056 0B       		.uleb128 0xb
 2797 0057 00       		.byte	0
 2798 0058 00       		.byte	0
 2799 0059 08       		.uleb128 0x8
 2800 005a 04       		.uleb128 0x4
 2801 005b 01       		.byte	0x1
 2802 005c 0B       		.uleb128 0xb
 2803 005d 0B       		.uleb128 0xb
 2804 005e 3A       		.uleb128 0x3a
 2805 005f 0B       		.uleb128 0xb
 2806 0060 3B       		.uleb128 0x3b
 2807 0061 0B       		.uleb128 0xb
 2808 0062 01       		.uleb128 0x1
 2809 0063 13       		.uleb128 0x13
 2810 0064 00       		.byte	0
 2811 0065 00       		.byte	0
 2812 0066 09       		.uleb128 0x9
 2813 0067 28       		.uleb128 0x28
 2814 0068 00       		.byte	0
 2815 0069 03       		.uleb128 0x3
 2816 006a 0E       		.uleb128 0xe
 2817 006b 1C       		.uleb128 0x1c
 2818 006c 0D       		.uleb128 0xd
 2819 006d 00       		.byte	0
 2820 006e 00       		.byte	0
 2821 006f 0A       		.uleb128 0xa
 2822 0070 15       		.uleb128 0x15
 2823 0071 01       		.byte	0x1
 2824 0072 27       		.uleb128 0x27
 2825 0073 19       		.uleb128 0x19
 2826 0074 49       		.uleb128 0x49
 2827 0075 13       		.uleb128 0x13
 2828 0076 01       		.uleb128 0x1
 2829 0077 13       		.uleb128 0x13
ARM GAS  /tmp/cc75PYCl.s 			page 51


 2830 0078 00       		.byte	0
 2831 0079 00       		.byte	0
 2832 007a 0B       		.uleb128 0xb
 2833 007b 05       		.uleb128 0x5
 2834 007c 00       		.byte	0
 2835 007d 49       		.uleb128 0x49
 2836 007e 13       		.uleb128 0x13
 2837 007f 00       		.byte	0
 2838 0080 00       		.byte	0
 2839 0081 0C       		.uleb128 0xc
 2840 0082 0F       		.uleb128 0xf
 2841 0083 00       		.byte	0
 2842 0084 0B       		.uleb128 0xb
 2843 0085 0B       		.uleb128 0xb
 2844 0086 49       		.uleb128 0x49
 2845 0087 13       		.uleb128 0x13
 2846 0088 00       		.byte	0
 2847 0089 00       		.byte	0
 2848 008a 0D       		.uleb128 0xd
 2849 008b 2E       		.uleb128 0x2e
 2850 008c 01       		.byte	0x1
 2851 008d 3F       		.uleb128 0x3f
 2852 008e 19       		.uleb128 0x19
 2853 008f 03       		.uleb128 0x3
 2854 0090 0E       		.uleb128 0xe
 2855 0091 3A       		.uleb128 0x3a
 2856 0092 0B       		.uleb128 0xb
 2857 0093 3B       		.uleb128 0x3b
 2858 0094 0B       		.uleb128 0xb
 2859 0095 27       		.uleb128 0x27
 2860 0096 19       		.uleb128 0x19
 2861 0097 49       		.uleb128 0x49
 2862 0098 13       		.uleb128 0x13
 2863 0099 11       		.uleb128 0x11
 2864 009a 01       		.uleb128 0x1
 2865 009b 12       		.uleb128 0x12
 2866 009c 06       		.uleb128 0x6
 2867 009d 40       		.uleb128 0x40
 2868 009e 18       		.uleb128 0x18
 2869 009f 9642     		.uleb128 0x2116
 2870 00a1 19       		.uleb128 0x19
 2871 00a2 01       		.uleb128 0x1
 2872 00a3 13       		.uleb128 0x13
 2873 00a4 00       		.byte	0
 2874 00a5 00       		.byte	0
 2875 00a6 0E       		.uleb128 0xe
 2876 00a7 05       		.uleb128 0x5
 2877 00a8 00       		.byte	0
 2878 00a9 03       		.uleb128 0x3
 2879 00aa 08       		.uleb128 0x8
 2880 00ab 3A       		.uleb128 0x3a
 2881 00ac 0B       		.uleb128 0xb
 2882 00ad 3B       		.uleb128 0x3b
 2883 00ae 0B       		.uleb128 0xb
 2884 00af 49       		.uleb128 0x49
 2885 00b0 13       		.uleb128 0x13
 2886 00b1 02       		.uleb128 0x2
ARM GAS  /tmp/cc75PYCl.s 			page 52


 2887 00b2 18       		.uleb128 0x18
 2888 00b3 00       		.byte	0
 2889 00b4 00       		.byte	0
 2890 00b5 0F       		.uleb128 0xf
 2891 00b6 05       		.uleb128 0x5
 2892 00b7 00       		.byte	0
 2893 00b8 03       		.uleb128 0x3
 2894 00b9 0E       		.uleb128 0xe
 2895 00ba 3A       		.uleb128 0x3a
 2896 00bb 0B       		.uleb128 0xb
 2897 00bc 3B       		.uleb128 0x3b
 2898 00bd 0B       		.uleb128 0xb
 2899 00be 49       		.uleb128 0x49
 2900 00bf 13       		.uleb128 0x13
 2901 00c0 02       		.uleb128 0x2
 2902 00c1 18       		.uleb128 0x18
 2903 00c2 00       		.byte	0
 2904 00c3 00       		.byte	0
 2905 00c4 10       		.uleb128 0x10
 2906 00c5 2E       		.uleb128 0x2e
 2907 00c6 01       		.byte	0x1
 2908 00c7 03       		.uleb128 0x3
 2909 00c8 0E       		.uleb128 0xe
 2910 00c9 3A       		.uleb128 0x3a
 2911 00ca 0B       		.uleb128 0xb
 2912 00cb 3B       		.uleb128 0x3b
 2913 00cc 0B       		.uleb128 0xb
 2914 00cd 27       		.uleb128 0x27
 2915 00ce 19       		.uleb128 0x19
 2916 00cf 49       		.uleb128 0x49
 2917 00d0 13       		.uleb128 0x13
 2918 00d1 11       		.uleb128 0x11
 2919 00d2 01       		.uleb128 0x1
 2920 00d3 12       		.uleb128 0x12
 2921 00d4 06       		.uleb128 0x6
 2922 00d5 40       		.uleb128 0x40
 2923 00d6 18       		.uleb128 0x18
 2924 00d7 9642     		.uleb128 0x2116
 2925 00d9 19       		.uleb128 0x19
 2926 00da 01       		.uleb128 0x1
 2927 00db 13       		.uleb128 0x13
 2928 00dc 00       		.byte	0
 2929 00dd 00       		.byte	0
 2930 00de 11       		.uleb128 0x11
 2931 00df 34       		.uleb128 0x34
 2932 00e0 00       		.byte	0
 2933 00e1 03       		.uleb128 0x3
 2934 00e2 0E       		.uleb128 0xe
 2935 00e3 3A       		.uleb128 0x3a
 2936 00e4 0B       		.uleb128 0xb
 2937 00e5 3B       		.uleb128 0x3b
 2938 00e6 0B       		.uleb128 0xb
 2939 00e7 49       		.uleb128 0x49
 2940 00e8 13       		.uleb128 0x13
 2941 00e9 02       		.uleb128 0x2
 2942 00ea 18       		.uleb128 0x18
 2943 00eb 00       		.byte	0
ARM GAS  /tmp/cc75PYCl.s 			page 53


 2944 00ec 00       		.byte	0
 2945 00ed 12       		.uleb128 0x12
 2946 00ee 34       		.uleb128 0x34
 2947 00ef 00       		.byte	0
 2948 00f0 03       		.uleb128 0x3
 2949 00f1 08       		.uleb128 0x8
 2950 00f2 3A       		.uleb128 0x3a
 2951 00f3 0B       		.uleb128 0xb
 2952 00f4 3B       		.uleb128 0x3b
 2953 00f5 0B       		.uleb128 0xb
 2954 00f6 49       		.uleb128 0x49
 2955 00f7 13       		.uleb128 0x13
 2956 00f8 02       		.uleb128 0x2
 2957 00f9 18       		.uleb128 0x18
 2958 00fa 00       		.byte	0
 2959 00fb 00       		.byte	0
 2960 00fc 13       		.uleb128 0x13
 2961 00fd 34       		.uleb128 0x34
 2962 00fe 00       		.byte	0
 2963 00ff 03       		.uleb128 0x3
 2964 0100 0E       		.uleb128 0xe
 2965 0101 3A       		.uleb128 0x3a
 2966 0102 0B       		.uleb128 0xb
 2967 0103 3B       		.uleb128 0x3b
 2968 0104 05       		.uleb128 0x5
 2969 0105 49       		.uleb128 0x49
 2970 0106 13       		.uleb128 0x13
 2971 0107 02       		.uleb128 0x2
 2972 0108 18       		.uleb128 0x18
 2973 0109 00       		.byte	0
 2974 010a 00       		.byte	0
 2975 010b 14       		.uleb128 0x14
 2976 010c 2E       		.uleb128 0x2e
 2977 010d 01       		.byte	0x1
 2978 010e 3F       		.uleb128 0x3f
 2979 010f 19       		.uleb128 0x19
 2980 0110 03       		.uleb128 0x3
 2981 0111 0E       		.uleb128 0xe
 2982 0112 3A       		.uleb128 0x3a
 2983 0113 0B       		.uleb128 0xb
 2984 0114 3B       		.uleb128 0x3b
 2985 0115 05       		.uleb128 0x5
 2986 0116 27       		.uleb128 0x27
 2987 0117 19       		.uleb128 0x19
 2988 0118 49       		.uleb128 0x49
 2989 0119 13       		.uleb128 0x13
 2990 011a 11       		.uleb128 0x11
 2991 011b 01       		.uleb128 0x1
 2992 011c 12       		.uleb128 0x12
 2993 011d 06       		.uleb128 0x6
 2994 011e 40       		.uleb128 0x40
 2995 011f 18       		.uleb128 0x18
 2996 0120 9642     		.uleb128 0x2116
 2997 0122 19       		.uleb128 0x19
 2998 0123 01       		.uleb128 0x1
 2999 0124 13       		.uleb128 0x13
 3000 0125 00       		.byte	0
ARM GAS  /tmp/cc75PYCl.s 			page 54


 3001 0126 00       		.byte	0
 3002 0127 15       		.uleb128 0x15
 3003 0128 05       		.uleb128 0x5
 3004 0129 00       		.byte	0
 3005 012a 03       		.uleb128 0x3
 3006 012b 0E       		.uleb128 0xe
 3007 012c 3A       		.uleb128 0x3a
 3008 012d 0B       		.uleb128 0xb
 3009 012e 3B       		.uleb128 0x3b
 3010 012f 05       		.uleb128 0x5
 3011 0130 49       		.uleb128 0x49
 3012 0131 13       		.uleb128 0x13
 3013 0132 02       		.uleb128 0x2
 3014 0133 18       		.uleb128 0x18
 3015 0134 00       		.byte	0
 3016 0135 00       		.byte	0
 3017 0136 16       		.uleb128 0x16
 3018 0137 34       		.uleb128 0x34
 3019 0138 00       		.byte	0
 3020 0139 03       		.uleb128 0x3
 3021 013a 08       		.uleb128 0x8
 3022 013b 3A       		.uleb128 0x3a
 3023 013c 0B       		.uleb128 0xb
 3024 013d 3B       		.uleb128 0x3b
 3025 013e 05       		.uleb128 0x5
 3026 013f 49       		.uleb128 0x49
 3027 0140 13       		.uleb128 0x13
 3028 0141 02       		.uleb128 0x2
 3029 0142 18       		.uleb128 0x18
 3030 0143 00       		.byte	0
 3031 0144 00       		.byte	0
 3032 0145 17       		.uleb128 0x17
 3033 0146 2E       		.uleb128 0x2e
 3034 0147 01       		.byte	0x1
 3035 0148 3F       		.uleb128 0x3f
 3036 0149 19       		.uleb128 0x19
 3037 014a 03       		.uleb128 0x3
 3038 014b 0E       		.uleb128 0xe
 3039 014c 3A       		.uleb128 0x3a
 3040 014d 0B       		.uleb128 0xb
 3041 014e 3B       		.uleb128 0x3b
 3042 014f 05       		.uleb128 0x5
 3043 0150 27       		.uleb128 0x27
 3044 0151 19       		.uleb128 0x19
 3045 0152 49       		.uleb128 0x49
 3046 0153 13       		.uleb128 0x13
 3047 0154 11       		.uleb128 0x11
 3048 0155 01       		.uleb128 0x1
 3049 0156 12       		.uleb128 0x12
 3050 0157 06       		.uleb128 0x6
 3051 0158 40       		.uleb128 0x40
 3052 0159 18       		.uleb128 0x18
 3053 015a 9742     		.uleb128 0x2117
 3054 015c 19       		.uleb128 0x19
 3055 015d 01       		.uleb128 0x1
 3056 015e 13       		.uleb128 0x13
 3057 015f 00       		.byte	0
ARM GAS  /tmp/cc75PYCl.s 			page 55


 3058 0160 00       		.byte	0
 3059 0161 18       		.uleb128 0x18
 3060 0162 05       		.uleb128 0x5
 3061 0163 00       		.byte	0
 3062 0164 03       		.uleb128 0x3
 3063 0165 08       		.uleb128 0x8
 3064 0166 3A       		.uleb128 0x3a
 3065 0167 0B       		.uleb128 0xb
 3066 0168 3B       		.uleb128 0x3b
 3067 0169 05       		.uleb128 0x5
 3068 016a 49       		.uleb128 0x49
 3069 016b 13       		.uleb128 0x13
 3070 016c 02       		.uleb128 0x2
 3071 016d 18       		.uleb128 0x18
 3072 016e 00       		.byte	0
 3073 016f 00       		.byte	0
 3074 0170 19       		.uleb128 0x19
 3075 0171 01       		.uleb128 0x1
 3076 0172 01       		.byte	0x1
 3077 0173 49       		.uleb128 0x49
 3078 0174 13       		.uleb128 0x13
 3079 0175 01       		.uleb128 0x1
 3080 0176 13       		.uleb128 0x13
 3081 0177 00       		.byte	0
 3082 0178 00       		.byte	0
 3083 0179 1A       		.uleb128 0x1a
 3084 017a 21       		.uleb128 0x21
 3085 017b 00       		.byte	0
 3086 017c 49       		.uleb128 0x49
 3087 017d 13       		.uleb128 0x13
 3088 017e 2F       		.uleb128 0x2f
 3089 017f 0B       		.uleb128 0xb
 3090 0180 00       		.byte	0
 3091 0181 00       		.byte	0
 3092 0182 1B       		.uleb128 0x1b
 3093 0183 34       		.uleb128 0x34
 3094 0184 00       		.byte	0
 3095 0185 03       		.uleb128 0x3
 3096 0186 0E       		.uleb128 0xe
 3097 0187 3A       		.uleb128 0x3a
 3098 0188 0B       		.uleb128 0xb
 3099 0189 3B       		.uleb128 0x3b
 3100 018a 0B       		.uleb128 0xb
 3101 018b 49       		.uleb128 0x49
 3102 018c 13       		.uleb128 0x13
 3103 018d 3F       		.uleb128 0x3f
 3104 018e 19       		.uleb128 0x19
 3105 018f 3C       		.uleb128 0x3c
 3106 0190 19       		.uleb128 0x19
 3107 0191 00       		.byte	0
 3108 0192 00       		.byte	0
 3109 0193 1C       		.uleb128 0x1c
 3110 0194 34       		.uleb128 0x34
 3111 0195 00       		.byte	0
 3112 0196 03       		.uleb128 0x3
 3113 0197 0E       		.uleb128 0xe
 3114 0198 3A       		.uleb128 0x3a
ARM GAS  /tmp/cc75PYCl.s 			page 56


 3115 0199 0B       		.uleb128 0xb
 3116 019a 3B       		.uleb128 0x3b
 3117 019b 05       		.uleb128 0x5
 3118 019c 49       		.uleb128 0x49
 3119 019d 13       		.uleb128 0x13
 3120 019e 3F       		.uleb128 0x3f
 3121 019f 19       		.uleb128 0x19
 3122 01a0 3C       		.uleb128 0x3c
 3123 01a1 19       		.uleb128 0x19
 3124 01a2 00       		.byte	0
 3125 01a3 00       		.byte	0
 3126 01a4 1D       		.uleb128 0x1d
 3127 01a5 35       		.uleb128 0x35
 3128 01a6 00       		.byte	0
 3129 01a7 49       		.uleb128 0x49
 3130 01a8 13       		.uleb128 0x13
 3131 01a9 00       		.byte	0
 3132 01aa 00       		.byte	0
 3133 01ab 00       		.byte	0
 3134              		.section	.debug_aranges,"",%progbits
 3135 0000 1C000000 		.4byte	0x1c
 3136 0004 0200     		.2byte	0x2
 3137 0006 00000000 		.4byte	.Ldebug_info0
 3138 000a 04       		.byte	0x4
 3139 000b 00       		.byte	0
 3140 000c 0000     		.2byte	0
 3141 000e 0000     		.2byte	0
 3142 0010 00000000 		.4byte	.Ltext0
 3143 0014 AA060000 		.4byte	.Letext0-.Ltext0
 3144 0018 00000000 		.4byte	0
 3145 001c 00000000 		.4byte	0
 3146              		.section	.debug_line,"",%progbits
 3147              	.Ldebug_line0:
 3148 0000 79030000 		.section	.debug_str,"MS",%progbits,1
 3148      02004F02 
 3148      00000201 
 3148      FB0E0D00 
 3148      01010101 
 3149              	.LASF49:
 3150 0000 57726974 		.ascii	"Write_Reg\000"
 3150      655F5265 
 3150      6700
 3151              	.LASF42:
 3152 000a 4765745F 		.ascii	"Get_WhoAmI\000"
 3152      57686F41 
 3152      6D4900
 3153              	.LASF83:
 3154 0015 4253505F 		.ascii	"BSP_PRESSURE_Get_WhoAmI\000"
 3154      50524553 
 3154      53555245 
 3154      5F476574 
 3154      5F57686F 
 3155              	.LASF96:
 3156 002d 4C505332 		.ascii	"LPS22HB_P_Drv\000"
 3156      3248425F 
 3156      505F4472 
 3156      7600
ARM GAS  /tmp/cc75PYCl.s 			page 57


 3157              	.LASF76:
 3158 003b 4253505F 		.ascii	"BSP_PRESSURE_Sensor_Enable\000"
 3158      50524553 
 3158      53555245 
 3158      5F53656E 
 3158      736F725F 
 3159              	.LASF48:
 3160 0056 52656164 		.ascii	"Read_Reg\000"
 3160      5F526567 
 3160      00
 3161              	.LASF23:
 3162 005f 70446174 		.ascii	"pData\000"
 3162      6100
 3163              	.LASF89:
 3164 0065 4253505F 		.ascii	"BSP_PRESSURE_Set_ODR_Value\000"
 3164      50524553 
 3164      53555245 
 3164      5F536574 
 3164      5F4F4452 
 3165              	.LASF80:
 3166 0080 4253505F 		.ascii	"BSP_PRESSURE_IsEnabled\000"
 3166      50524553 
 3166      53555245 
 3166      5F497345 
 3166      6E61626C 
 3167              	.LASF99:
 3168 0097 474E5520 		.ascii	"GNU C 4.8.4 20140526 (release) [ARM/embedded-4_8-br"
 3168      4320342E 
 3168      382E3420 
 3168      32303134 
 3168      30353236 
 3169 00ca 616E6368 		.ascii	"anch revision 211358] -mcpu=cortex-m4 -mno-thumb-in"
 3169      20726576 
 3169      6973696F 
 3169      6E203231 
 3169      31333538 
 3170 00fd 74657277 		.ascii	"terwork -mthumb -ggdb -O0 -std=c99 -fomit-frame-poi"
 3170      6F726B20 
 3170      2D6D7468 
 3170      756D6220 
 3170      2D676764 
 3171 0130 6E746572 		.ascii	"nter -falign-functions=16\000"
 3171      202D6661 
 3171      6C69676E 
 3171      2D66756E 
 3171      6374696F 
 3172              	.LASF52:
 3173 014a 50524553 		.ascii	"PRESSURE_Drv_t\000"
 3173      53555245 
 3173      5F447276 
 3173      5F7400
 3174              	.LASF97:
 3175 0159 4C505332 		.ascii	"LPS22HB_Combo_Data\000"
 3175      3248425F 
 3175      436F6D62 
 3175      6F5F4461 
 3175      746100
ARM GAS  /tmp/cc75PYCl.s 			page 58


 3176              	.LASF74:
 3177 016c 4253505F 		.ascii	"BSP_PRESSURE_Init\000"
 3177      50524553 
 3177      53555245 
 3177      5F496E69 
 3177      7400
 3178              	.LASF93:
 3179 017e 50524553 		.ascii	"PRESSURE_SensorHandle\000"
 3179      53555245 
 3179      5F53656E 
 3179      736F7248 
 3179      616E646C 
 3180              	.LASF88:
 3181 0194 4253505F 		.ascii	"BSP_PRESSURE_Set_ODR\000"
 3181      50524553 
 3181      53555245 
 3181      5F536574 
 3181      5F4F4452 
 3182              	.LASF35:
 3183 01a9 4F44525F 		.ascii	"ODR_MID_HIGH\000"
 3183      4D49445F 
 3183      48494748 
 3183      00
 3184              	.LASF40:
 3185 01b6 53656E73 		.ascii	"Sensor_Enable\000"
 3185      6F725F45 
 3185      6E61626C 
 3185      6500
 3186              	.LASF56:
 3187 01c4 69735072 		.ascii	"isPressInitialized\000"
 3187      65737349 
 3187      6E697469 
 3187      616C697A 
 3187      656400
 3188              	.LASF47:
 3189 01d7 5365745F 		.ascii	"Set_ODR_Value\000"
 3189      4F44525F 
 3189      56616C75 
 3189      6500
 3190              	.LASF75:
 3191 01e5 4253505F 		.ascii	"BSP_PRESSURE_DeInit\000"
 3191      50524553 
 3191      53555245 
 3191      5F446549 
 3191      6E697400 
 3192              	.LASF53:
 3193 01f9 70436F6D 		.ascii	"pComponentData\000"
 3193      706F6E65 
 3193      6E744461 
 3193      746100
 3194              	.LASF62:
 3195 0208 636F6D62 		.ascii	"comboData\000"
 3195      6F446174 
 3195      6100
 3196              	.LASF90:
 3197 0212 4253505F 		.ascii	"BSP_PRESSURE_Read_Reg\000"
 3197      50524553 
ARM GAS  /tmp/cc75PYCl.s 			page 59


 3197      53555245 
 3197      5F526561 
 3197      645F5265 
 3198              	.LASF95:
 3199 0228 4C505332 		.ascii	"LPS22HB_P_0_Data\000"
 3199      3248425F 
 3199      505F305F 
 3199      44617461 
 3199      00
 3200              	.LASF13:
 3201 0239 75696E74 		.ascii	"uint8_t\000"
 3201      385F7400 
 3202              	.LASF92:
 3203 0241 4253505F 		.ascii	"BSP_PRESSURE_Get_DRDY_Status\000"
 3203      50524553 
 3203      53555245 
 3203      5F476574 
 3203      5F445244 
 3204              	.LASF60:
 3205 025e 4C617374 		.ascii	"Last_ODR\000"
 3205      5F4F4452 
 3205      00
 3206              	.LASF101:
 3207 0267 2F752F65 		.ascii	"/u/elawton2/p442-submissions/sensortile/reference/b"
 3207      6C617774 
 3207      6F6E322F 
 3207      70343432 
 3207      2D737562 
 3208 029a 6C75656D 		.ascii	"luemicrosystem2/BlueMicrosystem2_V2.2.0/Projects/Mu"
 3208      6963726F 
 3208      73797374 
 3208      656D322F 
 3208      426C7565 
 3209 02cd 6C74692F 		.ascii	"lti/Applications/BlueMicrosystem2/bluechibi\000"
 3209      4170706C 
 3209      69636174 
 3209      696F6E73 
 3209      2F426C75 
 3210              	.LASF27:
 3211 02f9 434F4D50 		.ascii	"COMPONENT_OK\000"
 3211      4F4E454E 
 3211      545F4F4B 
 3211      00
 3212              	.LASF64:
 3213 0306 4C534D36 		.ascii	"LSM6DSM\000"
 3213      44534D00 
 3214              	.LASF3:
 3215 030e 73686F72 		.ascii	"short int\000"
 3215      7420696E 
 3215      7400
 3216              	.LASF51:
 3217 0318 666C6F61 		.ascii	"float\000"
 3217      7400
 3218              	.LASF26:
 3219 031e 44727643 		.ascii	"DrvContextTypeDef\000"
 3219      6F6E7465 
 3219      78745479 
ARM GAS  /tmp/cc75PYCl.s 			page 60


 3219      70654465 
 3219      6600
 3220              	.LASF82:
 3221 0330 4253505F 		.ascii	"BSP_PRESSURE_Get_Instance\000"
 3221      50524553 
 3221      53555245 
 3221      5F476574 
 3221      5F496E73 
 3222              	.LASF9:
 3223 034a 6C6F6E67 		.ascii	"long long int\000"
 3223      206C6F6E 
 3223      6720696E 
 3223      7400
 3224              	.LASF10:
 3225 0358 6C6F6E67 		.ascii	"long long unsigned int\000"
 3225      206C6F6E 
 3225      6720756E 
 3225      7369676E 
 3225      65642069 
 3226              	.LASF102:
 3227 036f 4253505F 		.ascii	"BSP_LPS22HB_PRESSURE_Init\000"
 3227      4C505332 
 3227      3248425F 
 3227      50524553 
 3227      53555245 
 3228              	.LASF38:
 3229 0389 496E6974 		.ascii	"Init\000"
 3229      00
 3230              	.LASF37:
 3231 038e 53656E73 		.ascii	"SensorOdr_t\000"
 3231      6F724F64 
 3231      725F7400 
 3232              	.LASF86:
 3233 039a 70726573 		.ascii	"pressure\000"
 3233      73757265 
 3233      00
 3234              	.LASF7:
 3235 03a3 6C6F6E67 		.ascii	"long int\000"
 3235      20696E74 
 3235      00
 3236              	.LASF91:
 3237 03ac 4253505F 		.ascii	"BSP_PRESSURE_Write_Reg\000"
 3237      50524553 
 3237      53555245 
 3237      5F577269 
 3237      74655F52 
 3238              	.LASF61:
 3239 03c3 4C505332 		.ascii	"LPS22HB_Combo_Data_t\000"
 3239      3248425F 
 3239      436F6D62 
 3239      6F5F4461 
 3239      74615F74 
 3240              	.LASF5:
 3241 03d8 5F5F7569 		.ascii	"__uint8_t\000"
 3241      6E74385F 
 3241      7400
 3242              	.LASF33:
ARM GAS  /tmp/cc75PYCl.s 			page 61


 3243 03e2 4F44525F 		.ascii	"ODR_MID_LOW\000"
 3243      4D49445F 
 3243      4C4F5700 
 3244              	.LASF32:
 3245 03ee 4F44525F 		.ascii	"ODR_LOW\000"
 3245      4C4F5700 
 3246              	.LASF36:
 3247 03f6 4F44525F 		.ascii	"ODR_HIGH\000"
 3247      48494748 
 3247      00
 3248              	.LASF28:
 3249 03ff 434F4D50 		.ascii	"COMPONENT_ERROR\000"
 3249      4F4E454E 
 3249      545F4552 
 3249      524F5200 
 3250              	.LASF72:
 3251 040f 64726976 		.ascii	"driver\000"
 3251      657200
 3252              	.LASF67:
 3253 0416 4C505332 		.ascii	"LPS22HB\000"
 3253      32484200 
 3254              	.LASF100:
 3255 041e 2E2E2F2E 		.ascii	"../../../../../Drivers/BSP/SensorTile/SensorTile_pr"
 3255      2E2F2E2E 
 3255      2F2E2E2F 
 3255      2E2E2F44 
 3255      72697665 
 3256 0451 65737375 		.ascii	"essure.c\000"
 3256      72652E63 
 3256      00
 3257              	.LASF20:
 3258 045a 6973496E 		.ascii	"isInitialized\000"
 3258      69746961 
 3258      6C697A65 
 3258      6400
 3259              	.LASF2:
 3260 0468 756E7369 		.ascii	"unsigned char\000"
 3260      676E6564 
 3260      20636861 
 3260      7200
 3261              	.LASF85:
 3262 0476 4253505F 		.ascii	"BSP_PRESSURE_Get_Press\000"
 3262      50524553 
 3262      53555245 
 3262      5F476574 
 3262      5F507265 
 3263              	.LASF66:
 3264 048d 4C534D33 		.ascii	"LSM303AGR_M\000"
 3264      30334147 
 3264      525F4D00 
 3265              	.LASF1:
 3266 0499 7369676E 		.ascii	"signed char\000"
 3266      65642063 
 3266      68617200 
 3267              	.LASF17:
 3268 04a5 61646472 		.ascii	"address\000"
 3268      65737300 
ARM GAS  /tmp/cc75PYCl.s 			page 62


 3269              	.LASF65:
 3270 04ad 4C534D33 		.ascii	"LSM303AGR_X\000"
 3270      30334147 
 3270      525F5800 
 3271              	.LASF63:
 3272 04b9 4C505332 		.ascii	"LPS22HB_P_Data_t\000"
 3272      3248425F 
 3272      505F4461 
 3272      74615F74 
 3272      00
 3273              	.LASF0:
 3274 04ca 756E7369 		.ascii	"unsigned int\000"
 3274      676E6564 
 3274      20696E74 
 3274      00
 3275              	.LASF87:
 3276 04d7 4253505F 		.ascii	"BSP_PRESSURE_Get_ODR\000"
 3276      50524553 
 3276      53555245 
 3276      5F476574 
 3276      5F4F4452 
 3277              	.LASF8:
 3278 04ec 6C6F6E67 		.ascii	"long unsigned int\000"
 3278      20756E73 
 3278      69676E65 
 3278      6420696E 
 3278      7400
 3279              	.LASF19:
 3280 04fe 696E7374 		.ascii	"instance\000"
 3280      616E6365 
 3280      00
 3281              	.LASF55:
 3282 0507 50524553 		.ascii	"PRESSURE_Data_t\000"
 3282      53555245 
 3282      5F446174 
 3282      615F7400 
 3283              	.LASF57:
 3284 0517 69735465 		.ascii	"isTempInitialized\000"
 3284      6D70496E 
 3284      69746961 
 3284      6C697A65 
 3284      6400
 3285              	.LASF29:
 3286 0529 434F4D50 		.ascii	"COMPONENT_TIMEOUT\000"
 3286      4F4E454E 
 3286      545F5449 
 3286      4D454F55 
 3286      5400
 3287              	.LASF4:
 3288 053b 73686F72 		.ascii	"short unsigned int\000"
 3288      7420756E 
 3288      7369676E 
 3288      65642069 
 3288      6E7400
 3289              	.LASF79:
 3290 054e 73746174 		.ascii	"status\000"
 3290      757300
ARM GAS  /tmp/cc75PYCl.s 			page 63


 3291              	.LASF34:
 3292 0555 4F44525F 		.ascii	"ODR_MID\000"
 3292      4D494400 
 3293              	.LASF12:
 3294 055d 63686172 		.ascii	"char\000"
 3294      00
 3295              	.LASF14:
 3296 0562 696E7433 		.ascii	"int32_t\000"
 3296      325F7400 
 3297              	.LASF68:
 3298 056a 50524553 		.ascii	"PRESSURE_SENSORS_AUTO\000"
 3298      53555245 
 3298      5F53454E 
 3298      534F5253 
 3298      5F415554 
 3299              	.LASF81:
 3300 0580 4253505F 		.ascii	"BSP_PRESSURE_IsCombo\000"
 3300      50524553 
 3300      53555245 
 3300      5F497343 
 3300      6F6D626F 
 3301              	.LASF24:
 3302 0595 70565461 		.ascii	"pVTable\000"
 3302      626C6500 
 3303              	.LASF15:
 3304 059d 77686F5F 		.ascii	"who_am_i\000"
 3304      616D5F69 
 3304      00
 3305              	.LASF77:
 3306 05a6 4253505F 		.ascii	"BSP_PRESSURE_Sensor_Disable\000"
 3306      50524553 
 3306      53555245 
 3306      5F53656E 
 3306      736F725F 
 3307              	.LASF73:
 3308 05c2 64617461 		.ascii	"data\000"
 3308      00
 3309              	.LASF54:
 3310 05c7 70457874 		.ascii	"pExtData\000"
 3310      44617461 
 3310      00
 3311              	.LASF44:
 3312 05d0 4765745F 		.ascii	"Get_Press\000"
 3312      50726573 
 3312      7300
 3313              	.LASF30:
 3314 05da 434F4D50 		.ascii	"COMPONENT_NOT_IMPLEMENTED\000"
 3314      4F4E454E 
 3314      545F4E4F 
 3314      545F494D 
 3314      504C454D 
 3315              	.LASF94:
 3316 05f4 50524553 		.ascii	"PRESSURE_Data\000"
 3316      53555245 
 3316      5F446174 
 3316      6100
 3317              	.LASF25:
ARM GAS  /tmp/cc75PYCl.s 			page 64


 3318 0602 70457874 		.ascii	"pExtVTable\000"
 3318      56546162 
 3318      6C6500
 3319              	.LASF69:
 3320 060d 4C505332 		.ascii	"LPS22HB_P_0\000"
 3320      3248425F 
 3320      505F3000 
 3321              	.LASF71:
 3322 0619 68616E64 		.ascii	"handle\000"
 3322      6C6500
 3323              	.LASF84:
 3324 0620 4253505F 		.ascii	"BSP_PRESSURE_Check_WhoAmI\000"
 3324      50524553 
 3324      53555245 
 3324      5F436865 
 3324      636B5F57 
 3325              	.LASF6:
 3326 063a 5F5F696E 		.ascii	"__int32_t\000"
 3326      7433325F 
 3326      7400
 3327              	.LASF50:
 3328 0644 4765745F 		.ascii	"Get_DRDY_Status\000"
 3328      44524459 
 3328      5F537461 
 3328      74757300 
 3329              	.LASF43:
 3330 0654 43686563 		.ascii	"Check_WhoAmI\000"
 3330      6B5F5768 
 3330      6F416D49 
 3330      00
 3331              	.LASF78:
 3332 0661 4253505F 		.ascii	"BSP_PRESSURE_IsInitialized\000"
 3332      50524553 
 3332      53555245 
 3332      5F497349 
 3332      6E697469 
 3333              	.LASF31:
 3334 067c 44727653 		.ascii	"DrvStatusTypeDef\000"
 3334      74617475 
 3334      73547970 
 3334      65446566 
 3334      00
 3335              	.LASF11:
 3336 068d 73697A65 		.ascii	"sizetype\000"
 3336      74797065 
 3336      00
 3337              	.LASF70:
 3338 0696 50524553 		.ascii	"PRESSURE_ID_t\000"
 3338      53555245 
 3338      5F49445F 
 3338      7400
 3339              	.LASF21:
 3340 06a4 6973456E 		.ascii	"isEnabled\000"
 3340      61626C65 
 3340      6400
 3341              	.LASF58:
 3342 06ae 69735072 		.ascii	"isPressEnabled\000"
ARM GAS  /tmp/cc75PYCl.s 			page 65


 3342      65737345 
 3342      6E61626C 
 3342      656400
 3343              	.LASF59:
 3344 06bd 69735465 		.ascii	"isTempEnabled\000"
 3344      6D70456E 
 3344      61626C65 
 3344      6400
 3345              	.LASF18:
 3346 06cb 73706944 		.ascii	"spiDevice\000"
 3346      65766963 
 3346      6500
 3347              	.LASF98:
 3348 06d5 49544D5F 		.ascii	"ITM_RxBuffer\000"
 3348      52784275 
 3348      66666572 
 3348      00
 3349              	.LASF22:
 3350 06e2 6973436F 		.ascii	"isCombo\000"
 3350      6D626F00 
 3351              	.LASF16:
 3352 06ea 69665479 		.ascii	"ifType\000"
 3352      706500
 3353              	.LASF39:
 3354 06f1 4465496E 		.ascii	"DeInit\000"
 3354      697400
 3355              	.LASF41:
 3356 06f8 53656E73 		.ascii	"Sensor_Disable\000"
 3356      6F725F44 
 3356      69736162 
 3356      6C6500
 3357              	.LASF45:
 3358 0707 4765745F 		.ascii	"Get_ODR\000"
 3358      4F445200 
 3359              	.LASF46:
 3360 070f 5365745F 		.ascii	"Set_ODR\000"
 3360      4F445200 
 3361              		.ident	"GCC: (GNU Tools for ARM Embedded Processors) 4.8.4 20140526 (release) [ARM/embedded-4_8-br
ARM GAS  /tmp/cc75PYCl.s 			page 66


DEFINED SYMBOLS
                            *ABS*:00000000 SensorTile_pressure.c
     /tmp/cc75PYCl.s:19     .bss:00000000 $d
     /tmp/cc75PYCl.s:20     .bss:00000000 PRESSURE_SensorHandle
     /tmp/cc75PYCl.s:23     .bss:00000014 PRESSURE_Data
     /tmp/cc75PYCl.s:26     .bss:0000001c LPS22HB_P_0_Data
     /tmp/cc75PYCl.s:29     .text:00000000 $t
     /tmp/cc75PYCl.s:35     .text:00000000 BSP_PRESSURE_Init
     /tmp/cc75PYCl.s:100    .text:00000050 BSP_LPS22HB_PRESSURE_Init
     /tmp/cc75PYCl.s:317    .text:000001a0 $d
     /tmp/cc75PYCl.s:325    .text:000001b4 $t
     /tmp/cc75PYCl.s:331    .text:000001c0 BSP_PRESSURE_DeInit
     /tmp/cc75PYCl.s:409    .text:00000220 BSP_PRESSURE_Sensor_Enable
     /tmp/cc75PYCl.s:477    .text:00000270 BSP_PRESSURE_Sensor_Disable
     /tmp/cc75PYCl.s:545    .text:000002c0 BSP_PRESSURE_IsInitialized
     /tmp/cc75PYCl.s:597    .text:000002f0 BSP_PRESSURE_IsEnabled
     /tmp/cc75PYCl.s:649    .text:00000320 BSP_PRESSURE_IsCombo
     /tmp/cc75PYCl.s:701    .text:00000350 BSP_PRESSURE_Get_Instance
     /tmp/cc75PYCl.s:753    .text:00000380 BSP_PRESSURE_Get_WhoAmI
     /tmp/cc75PYCl.s:831    .text:000003e0 BSP_PRESSURE_Check_WhoAmI
     /tmp/cc75PYCl.s:899    .text:00000430 BSP_PRESSURE_Get_Press
     /tmp/cc75PYCl.s:977    .text:00000490 BSP_PRESSURE_Get_ODR
     /tmp/cc75PYCl.s:1055   .text:000004f0 BSP_PRESSURE_Set_ODR
     /tmp/cc75PYCl.s:1127   .text:00000550 BSP_PRESSURE_Set_ODR_Value
     /tmp/cc75PYCl.s:1197   .text:000005a0 BSP_PRESSURE_Read_Reg
     /tmp/cc75PYCl.s:1279   .text:00000600 BSP_PRESSURE_Write_Reg
     /tmp/cc75PYCl.s:1353   .text:00000660 BSP_PRESSURE_Get_DRDY_Status
                     .debug_frame:00000010 $d

UNDEFINED SYMBOLS
Sensor_IO_SPI_Init
Sensor_IO_SPI_CS_Init
Sensor_IO_Write
LPS22HB_SwResetAndMemoryBoot
HAL_Delay
memset
LPS22HB_P_Drv
LPS22HB_Combo_Data
