ARM GAS  /tmp/ccAIGiUj.s 			page 1


   1              		.syntax unified
   2              		.cpu cortex-m4
   3              		.fpu softvfp
   4              		.eabi_attribute 20, 1
   5              		.eabi_attribute 21, 1
   6              		.eabi_attribute 23, 3
   7              		.eabi_attribute 24, 1
   8              		.eabi_attribute 25, 1
   9              		.eabi_attribute 26, 1
  10              		.eabi_attribute 30, 6
  11              		.eabi_attribute 34, 1
  12              		.eabi_attribute 18, 4
  13              		.thumb
  14              		.file	"STC3115_Driver.c"
  15              		.text
  16              	.Ltext0:
  17              		.cfi_sections	.debug_frame
  18              		.global	STC3115_Drv
  19              		.data
  20              		.align	2
  21              		.type	STC3115_Drv, %object
  22              		.size	STC3115_Drv, 92
  23              	STC3115_Drv:
  24 0000 00000000 		.word	STC3115_Init
  25 0004 00000000 		.word	STC3115_DeInit
  26 0008 00000000 		.word	0
  27 000c 00000000 		.word	0
  28 0010 00000000 		.word	STC3115_Get_WhoAmI
  29 0014 00000000 		.word	STC3115_Task
  30 0018 00000000 		.word	STC3115_Reset
  31 001c 00000000 		.word	STC3115_Stop
  32 0020 00000000 		.word	STC3115_GetSOC
  33 0024 00000000 		.word	STC3115_GetOCV
  34 0028 00000000 		.word	STC3115_GetCurrent
  35 002c 00000000 		.word	STC3115_GetTemperature
  36 0030 00000000 		.word	STC3115_GetVoltage
  37 0034 00000000 		.word	STC3115_GetChargeValue
  38 0038 00000000 		.word	STC3115_GetPresence
  39 003c 00000000 		.word	STC3115_GetAlarmStatus
  40 0040 00000000 		.word	0
  41 0044 00000000 		.word	0
  42 0048 00000000 		.word	0
  43 004c 00000000 		.word	0
  44 0050 00000000 		.word	0
  45 0054 00000000 		.word	0
  46 0058 00000000 		.word	0
  47              		.section	.rodata
  48              		.align	2
  49              	.LC0:
  50 0000 D9FFFFFF 		.word	-39
  51 0004 D4FFFFFF 		.word	-44
  52 0008 DBFFFFFF 		.word	-37
  53 000c D2FFFFFF 		.word	-46
  54 0010 D5FFFFFF 		.word	-43
  55 0014 D5FFFFFF 		.word	-43
  56 0018 D6FFFFFF 		.word	-42
  57 001c E4FFFFFF 		.word	-28
ARM GAS  /tmp/ccAIGiUj.s 			page 2


  58 0020 F7FFFFFF 		.word	-9
  59 0024 FFFFFFFF 		.word	-1
  60 0028 FAFFFFFF 		.word	-6
  61 002c C9FFFFFF 		.word	-55
  62 0030 B4FFFFFF 		.word	-76
  63 0034 9FFFFFFF 		.word	-97
  64 0038 ABFFFFFF 		.word	-85
  65 003c 00000000 		.word	0
  66              		.text
  67              		.align	2
  68              		.p2align 4,,15
  69              		.thumb
  70              		.thumb_func
  71              		.type	STC3115_Init, %function
  72              	STC3115_Init:
  73              	.LFB0:
  74              		.file 1 "../../../../../Drivers/BSP/Components/stc3115/STC3115_Driver.c"
  75              		.loc 1 171 0
  76              		.cfi_startproc
  77              		@ args = 0, pretend = 0, frame = 104
  78              		@ frame_needed = 0, uses_anonymous_args = 0
  79 0000 30B5     		push	{r4, r5, lr}
  80              		.cfi_def_cfa_offset 12
  81              		.cfi_offset 4, -12
  82              		.cfi_offset 5, -8
  83              		.cfi_offset 14, -4
  84 0002 9BB0     		sub	sp, sp, #108
  85              		.cfi_def_cfa_offset 120
  86 0004 0190     		str	r0, [sp, #4]
  87              		.loc 1 173 0
  88 0006 934B     		ldr	r3, .L14
  89 0008 05AC     		add	r4, sp, #20
  90 000a 1D46     		mov	r5, r3
  91 000c 0FCD     		ldmia	r5!, {r0, r1, r2, r3}
  92 000e 0FC4     		stmia	r4!, {r0, r1, r2, r3}
  93 0010 0FCD     		ldmia	r5!, {r0, r1, r2, r3}
  94 0012 0FC4     		stmia	r4!, {r0, r1, r2, r3}
  95 0014 0FCD     		ldmia	r5!, {r0, r1, r2, r3}
  96 0016 0FC4     		stmia	r4!, {r0, r1, r2, r3}
  97 0018 95E80F00 		ldmia	r5, {r0, r1, r2, r3}
  98 001c 84E80F00 		stmia	r4, {r0, r1, r2, r3}
  99              		.loc 1 174 0
 100 0020 0023     		movs	r3, #0
 101 0022 0493     		str	r3, [sp, #16]
 102              		.loc 1 177 0
 103 0024 019B     		ldr	r3, [sp, #4]
 104 0026 9B68     		ldr	r3, [r3, #8]
 105 0028 1B68     		ldr	r3, [r3]
 106 002a 1893     		str	r3, [sp, #96]
 107              		.loc 1 178 0
 108 002c 019B     		ldr	r3, [sp, #4]
 109 002e 9B68     		ldr	r3, [r3, #8]
 110 0030 1B68     		ldr	r3, [r3]
 111 0032 3033     		adds	r3, r3, #48
 112 0034 1793     		str	r3, [sp, #92]
 113              		.loc 1 179 0
 114 0036 019B     		ldr	r3, [sp, #4]
ARM GAS  /tmp/ccAIGiUj.s 			page 3


 115 0038 9B68     		ldr	r3, [r3, #8]
 116 003a 1B68     		ldr	r3, [r3]
 117 003c 5C33     		adds	r3, r3, #92
 118 003e 1693     		str	r3, [sp, #88]
 119              		.loc 1 182 0
 120 0040 189B     		ldr	r3, [sp, #96]
 121 0042 0022     		movs	r2, #0
 122 0044 1A60     		str	r2, [r3]
 123              		.loc 1 186 0
 124 0046 189B     		ldr	r3, [sp, #96]
 125 0048 3222     		movs	r2, #50
 126 004a 9A61     		str	r2, [r3, #24]
 127              		.loc 1 193 0
 128 004c 189B     		ldr	r3, [sp, #96]
 129 004e 9B69     		ldr	r3, [r3, #24]
 130 0050 46F2A812 		movw	r2, #25000
 131 0054 02FB03F3 		mul	r3, r2, r3
 132 0058 03F5C153 		add	r3, r3, #6176
 133 005c 1233     		adds	r3, r3, #18
 134 005e 7E4A     		ldr	r2, .L14+4
 135 0060 82FB0312 		smull	r1, r2, r2, r3
 136 0064 1213     		asrs	r2, r2, #12
 137 0066 DB17     		asrs	r3, r3, #31
 138 0068 D21A     		subs	r2, r2, r3
 139 006a 189B     		ldr	r3, [sp, #96]
 140 006c DA60     		str	r2, [r3, #12]
 141              		.loc 1 201 0
 142 006e 189B     		ldr	r3, [sp, #96]
 143 0070 1422     		movs	r2, #20
 144 0072 1A61     		str	r2, [r3, #16]
 145              		.loc 1 204 0
 146 0074 0023     		movs	r3, #0
 147 0076 1993     		str	r3, [sp, #100]
 148 0078 2EE0     		b	.L2
 149              	.L5:
 150              		.loc 1 206 0
 151 007a 199B     		ldr	r3, [sp, #100]
 152 007c 9B00     		lsls	r3, r3, #2
 153 007e 1AAA     		add	r2, sp, #104
 154 0080 1344     		add	r3, r3, r2
 155 0082 53F8543C 		ldr	r3, [r3, #-84]
 156 0086 7F2B     		cmp	r3, #127
 157 0088 06DD     		ble	.L3
 158              		.loc 1 208 0
 159 008a 199B     		ldr	r3, [sp, #100]
 160 008c 9B00     		lsls	r3, r3, #2
 161 008e 1AA9     		add	r1, sp, #104
 162 0090 0B44     		add	r3, r3, r1
 163 0092 7F22     		movs	r2, #127
 164 0094 43F8542C 		str	r2, [r3, #-84]
 165              	.L3:
 166              		.loc 1 210 0
 167 0098 199B     		ldr	r3, [sp, #100]
 168 009a 9B00     		lsls	r3, r3, #2
 169 009c 1AAA     		add	r2, sp, #104
 170 009e 1344     		add	r3, r3, r2
 171 00a0 53F8543C 		ldr	r3, [r3, #-84]
ARM GAS  /tmp/ccAIGiUj.s 			page 4


 172 00a4 13F17F0F 		cmn	r3, #127
 173 00a8 07DA     		bge	.L4
 174              		.loc 1 212 0
 175 00aa 199B     		ldr	r3, [sp, #100]
 176 00ac 9B00     		lsls	r3, r3, #2
 177 00ae 1AA9     		add	r1, sp, #104
 178 00b0 0B44     		add	r3, r3, r1
 179 00b2 6FF07E02 		mvn	r2, #126
 180 00b6 43F8542C 		str	r2, [r3, #-84]
 181              	.L4:
 182              		.loc 1 214 0
 183 00ba 199B     		ldr	r3, [sp, #100]
 184 00bc 9B00     		lsls	r3, r3, #2
 185 00be 1AAA     		add	r2, sp, #104
 186 00c0 1344     		add	r3, r3, r2
 187 00c2 53F8543C 		ldr	r3, [r3, #-84]
 188 00c6 DAB2     		uxtb	r2, r3
 189 00c8 1899     		ldr	r1, [sp, #96]
 190 00ca 199B     		ldr	r3, [sp, #100]
 191 00cc 0B44     		add	r3, r3, r1
 192 00ce 2033     		adds	r3, r3, #32
 193 00d0 1A70     		strb	r2, [r3]
 194              		.loc 1 204 0
 195 00d2 199B     		ldr	r3, [sp, #100]
 196 00d4 0133     		adds	r3, r3, #1
 197 00d6 1993     		str	r3, [sp, #100]
 198              	.L2:
 199              		.loc 1 204 0 is_stmt 0 discriminator 1
 200 00d8 199B     		ldr	r3, [sp, #100]
 201 00da 0F2B     		cmp	r3, #15
 202 00dc CDDD     		ble	.L5
 203              		.loc 1 217 0 is_stmt 1
 204 00de 189B     		ldr	r3, [sp, #96]
 205 00e0 6422     		movs	r2, #100
 206 00e2 5A61     		str	r2, [r3, #20]
 207              		.loc 1 218 0
 208 00e4 189B     		ldr	r3, [sp, #96]
 209 00e6 0522     		movs	r2, #5
 210 00e8 DA61     		str	r2, [r3, #28]
 211              		.loc 1 220 0
 212 00ea 189B     		ldr	r3, [sp, #96]
 213 00ec 0A22     		movs	r2, #10
 214 00ee 5A60     		str	r2, [r3, #4]
 215              		.loc 1 221 0
 216 00f0 189B     		ldr	r3, [sp, #96]
 217 00f2 40F62232 		movw	r2, #2850
 218 00f6 9A60     		str	r2, [r3, #8]
 219              		.loc 1 226 0
 220 00f8 0198     		ldr	r0, [sp, #4]
 221 00fa 00F011FB 		bl	STC3115_Status
 222 00fe 1590     		str	r0, [sp, #84]
 223              		.loc 1 227 0
 224 0100 159B     		ldr	r3, [sp, #84]
 225 0102 002B     		cmp	r3, #0
 226 0104 01DA     		bge	.L6
 227              		.loc 1 229 0
 228 0106 0123     		movs	r3, #1
ARM GAS  /tmp/ccAIGiUj.s 			page 5


 229 0108 A1E0     		b	.L13
 230              	.L6:
 231              		.loc 1 233 0
 232 010a 179B     		ldr	r3, [sp, #92]
 233 010c 0122     		movs	r2, #1
 234 010e 1A62     		str	r2, [r3, #32]
 235              		.loc 1 236 0
 236 0110 169B     		ldr	r3, [sp, #88]
 237 0112 0198     		ldr	r0, [sp, #4]
 238 0114 1946     		mov	r1, r3
 239 0116 00F0C3FB 		bl	STC3115_ReadRamData
 240              		.loc 1 238 0
 241 011a 0DF10F03 		add	r3, sp, #15
 242 011e 0198     		ldr	r0, [sp, #4]
 243 0120 0021     		movs	r1, #0
 244 0122 1A46     		mov	r2, r3
 245 0124 0123     		movs	r3, #1
 246 0126 00F02BFD 		bl	STC3115_Read
 247              		.loc 1 239 0
 248 012a 9DF80F30 		ldrb	r3, [sp, #15]	@ zero_extendqisi2
 249 012e 03F01003 		and	r3, r3, #16
 250 0132 DBB2     		uxtb	r3, r3
 251 0134 8DF80F30 		strb	r3, [sp, #15]
 252              		.loc 1 240 0
 253 0138 9DF80F30 		ldrb	r3, [sp, #15]	@ zero_extendqisi2
 254 013c 002B     		cmp	r3, #0
 255 013e 2FD0     		beq	.L8
 256              		.loc 1 242 0
 257 0140 0DF10F03 		add	r3, sp, #15
 258 0144 0198     		ldr	r0, [sp, #4]
 259 0146 0121     		movs	r1, #1
 260 0148 1A46     		mov	r2, r3
 261 014a 0123     		movs	r3, #1
 262 014c 00F018FD 		bl	STC3115_Read
 263              		.loc 1 243 0
 264 0150 9DF80F30 		ldrb	r3, [sp, #15]	@ zero_extendqisi2
 265 0154 03F01803 		and	r3, r3, #24
 266 0158 DBB2     		uxtb	r3, r3
 267 015a 8DF80F30 		strb	r3, [sp, #15]
 268              		.loc 1 244 0
 269 015e 9DF80F30 		ldrb	r3, [sp, #15]	@ zero_extendqisi2
 270 0162 002B     		cmp	r3, #0
 271 0164 1CD1     		bne	.L8
 272              		.loc 1 246 0
 273 0166 169B     		ldr	r3, [sp, #88]
 274 0168 1B88     		ldrh	r3, [r3]
 275 016a 1AB2     		sxth	r2, r3
 276 016c 45F2A933 		movw	r3, #21417
 277 0170 9A42     		cmp	r2, r3
 278 0172 15D1     		bne	.L8
 279              		.loc 1 246 0 is_stmt 0 discriminator 1
 280 0174 169B     		ldr	r3, [sp, #88]
 281 0176 1846     		mov	r0, r3
 282 0178 1021     		movs	r1, #16
 283 017a 00F001FB 		bl	STC3115_CalcRamCRC8
 284 017e 0346     		mov	r3, r0
 285 0180 002B     		cmp	r3, #0
ARM GAS  /tmp/ccAIGiUj.s 			page 6


 286 0182 0DD1     		bne	.L8
 287              		.loc 1 248 0 is_stmt 1
 288 0184 169B     		ldr	r3, [sp, #88]
 289 0186 5B7A     		ldrb	r3, [r3, #9]	@ zero_extendqisi2
 290 0188 522B     		cmp	r3, #82
 291 018a 09D1     		bne	.L8
 292              		.loc 1 251 0
 293 018c 0198     		ldr	r0, [sp, #4]
 294 018e 1899     		ldr	r1, [sp, #96]
 295 0190 00F056FC 		bl	STC3115_Restore
 296 0194 1590     		str	r0, [sp, #84]
 297              		.loc 1 252 0
 298 0196 159B     		ldr	r3, [sp, #84]
 299 0198 002B     		cmp	r3, #0
 300 019a 01DA     		bge	.L8
 301              		.loc 1 253 0
 302 019c 0123     		movs	r3, #1
 303 019e 56E0     		b	.L13
 304              	.L8:
 305              		.loc 1 260 0
 306 01a0 0198     		ldr	r0, [sp, #4]
 307 01a2 00F0DDF9 		bl	STC3115_Reset
 308              		.loc 1 261 0
 309 01a6 0198     		ldr	r0, [sp, #4]
 310 01a8 1899     		ldr	r1, [sp, #96]
 311 01aa 00F031FB 		bl	STC3115_InitRamData
 312              		.loc 1 263 0
 313 01ae 169B     		ldr	r3, [sp, #88]
 314 01b0 4922     		movs	r2, #73
 315 01b2 5A72     		strb	r2, [r3, #9]
 316              		.loc 1 264 0
 317 01b4 0198     		ldr	r0, [sp, #4]
 318 01b6 00F013FB 		bl	STC3115_UpdateRamCRC
 319              		.loc 1 265 0
 320 01ba 169B     		ldr	r3, [sp, #88]
 321 01bc 0198     		ldr	r0, [sp, #4]
 322 01be 1946     		mov	r1, r3
 323 01c0 00F056FB 		bl	STC3115_WriteRamData
 324              		.loc 1 268 0
 325 01c4 0198     		ldr	r0, [sp, #4]
 326 01c6 1899     		ldr	r1, [sp, #96]
 327 01c8 00F062FD 		bl	STC3115_SetParam
 328              		.loc 1 270 0
 329 01cc 04AB     		add	r3, sp, #16
 330 01ce 0198     		ldr	r0, [sp, #4]
 331 01d0 0421     		movs	r1, #4
 332 01d2 1A46     		mov	r2, r3
 333 01d4 00F014FD 		bl	STC3115_ReadWord
 334              		.loc 1 271 0
 335 01d8 32E0     		b	.L9
 336              	.L12:
 337              		.loc 1 273 0
 338 01da 0DF10F03 		add	r3, sp, #15
 339 01de 0198     		ldr	r0, [sp, #4]
 340 01e0 0021     		movs	r1, #0
 341 01e2 1A46     		mov	r2, r3
 342 01e4 0123     		movs	r3, #1
ARM GAS  /tmp/ccAIGiUj.s 			page 7


 343 01e6 00F0CBFC 		bl	STC3115_Read
 344              		.loc 1 274 0
 345 01ea 9DF80F30 		ldrb	r3, [sp, #15]	@ zero_extendqisi2
 346 01ee 03F01003 		and	r3, r3, #16
 347 01f2 DBB2     		uxtb	r3, r3
 348 01f4 8DF80F30 		strb	r3, [sp, #15]
 349              		.loc 1 275 0
 350 01f8 15E0     		b	.L10
 351              	.L11:
 352              		.loc 1 277 0
 353 01fa 0198     		ldr	r0, [sp, #4]
 354 01fc 1899     		ldr	r1, [sp, #96]
 355 01fe 00F047FD 		bl	STC3115_SetParam
 356              		.loc 1 278 0
 357 0202 C820     		movs	r0, #200
 358 0204 FFF7FEFF 		bl	HAL_Delay
 359              		.loc 1 279 0
 360 0208 0DF10F03 		add	r3, sp, #15
 361 020c 0198     		ldr	r0, [sp, #4]
 362 020e 0021     		movs	r1, #0
 363 0210 1A46     		mov	r2, r3
 364 0212 0123     		movs	r3, #1
 365 0214 00F0B4FC 		bl	STC3115_Read
 366              		.loc 1 280 0
 367 0218 9DF80F30 		ldrb	r3, [sp, #15]	@ zero_extendqisi2
 368 021c 03F01003 		and	r3, r3, #16
 369 0220 DBB2     		uxtb	r3, r3
 370 0222 8DF80F30 		strb	r3, [sp, #15]
 371              	.L10:
 372              		.loc 1 275 0 discriminator 1
 373 0226 9DF80F30 		ldrb	r3, [sp, #15]	@ zero_extendqisi2
 374 022a 002B     		cmp	r3, #0
 375 022c E5D0     		beq	.L11
 376              		.loc 1 282 0
 377 022e C820     		movs	r0, #200
 378 0230 FFF7FEFF 		bl	HAL_Delay
 379              		.loc 1 283 0
 380 0234 04AB     		add	r3, sp, #16
 381 0236 0198     		ldr	r0, [sp, #4]
 382 0238 0421     		movs	r1, #4
 383 023a 1A46     		mov	r2, r3
 384 023c 00F0E0FC 		bl	STC3115_ReadWord
 385              	.L9:
 386              		.loc 1 271 0 discriminator 1
 387 0240 049B     		ldr	r3, [sp, #16]
 388 0242 042B     		cmp	r3, #4
 389 0244 C9DD     		ble	.L12
 390              		.loc 1 286 0
 391 0246 019B     		ldr	r3, [sp, #4]
 392 0248 0122     		movs	r2, #1
 393 024a 5A71     		strb	r2, [r3, #5]
 394              		.loc 1 287 0
 395 024c 0023     		movs	r3, #0
 396              	.L13:
 397              		.loc 1 288 0
 398 024e 1846     		mov	r0, r3
 399 0250 1BB0     		add	sp, sp, #108
ARM GAS  /tmp/ccAIGiUj.s 			page 8


 400              		@ sp needed
 401 0252 30BD     		pop	{r4, r5, pc}
 402              	.L15:
 403              		.align	2
 404              	.L14:
 405 0254 00000000 		.word	.LC0
 406 0258 D93DA354 		.word	1419984345
 407              		.cfi_endproc
 408              	.LFE0:
 409              		.size	STC3115_Init, .-STC3115_Init
 410              		.align	2
 411 025c AFF30080 		.p2align 4,,15
 412              		.thumb
 413              		.thumb_func
 414              		.type	STC3115_DeInit, %function
 415              	STC3115_DeInit:
 416              	.LFB1:
 417              		.loc 1 298 0
 418              		.cfi_startproc
 419              		@ args = 0, pretend = 0, frame = 8
 420              		@ frame_needed = 0, uses_anonymous_args = 0
 421              		@ link register save eliminated.
 422 0260 82B0     		sub	sp, sp, #8
 423              		.cfi_def_cfa_offset 8
 424 0262 0190     		str	r0, [sp, #4]
 425              		.loc 1 299 0
 426 0264 019B     		ldr	r3, [sp, #4]
 427 0266 0022     		movs	r2, #0
 428 0268 5A71     		strb	r2, [r3, #5]
 429              		.loc 1 301 0
 430 026a 0023     		movs	r3, #0
 431              		.loc 1 302 0
 432 026c 1846     		mov	r0, r3
 433 026e 02B0     		add	sp, sp, #8
 434              		@ sp needed
 435 0270 7047     		bx	lr
 436              		.cfi_endproc
 437              	.LFE1:
 438              		.size	STC3115_DeInit, .-STC3115_DeInit
 439 0272 00BF     		.align	2
 440 0274 AFF30080 		.p2align 4,,15
 440      AFF30080 
 440      AFF30080 
 441              		.thumb
 442              		.thumb_func
 443              		.type	STC3115_Get_WhoAmI, %function
 444              	STC3115_Get_WhoAmI:
 445              	.LFB2:
 446              		.loc 1 336 0
 447              		.cfi_startproc
 448              		@ args = 0, pretend = 0, frame = 8
 449              		@ frame_needed = 0, uses_anonymous_args = 0
 450 0280 00B5     		push	{lr}
 451              		.cfi_def_cfa_offset 4
 452              		.cfi_offset 14, -4
 453 0282 83B0     		sub	sp, sp, #12
 454              		.cfi_def_cfa_offset 16
ARM GAS  /tmp/ccAIGiUj.s 			page 9


 455 0284 0190     		str	r0, [sp, #4]
 456 0286 0091     		str	r1, [sp]
 457              		.loc 1 337 0
 458 0288 0198     		ldr	r0, [sp, #4]
 459 028a 1821     		movs	r1, #24
 460 028c 009A     		ldr	r2, [sp]
 461 028e 0123     		movs	r3, #1
 462 0290 00F076FC 		bl	STC3115_Read
 463 0294 0346     		mov	r3, r0
 464 0296 002B     		cmp	r3, #0
 465 0298 01D1     		bne	.L19
 466              		.loc 1 339 0
 467 029a 0023     		movs	r3, #0
 468 029c 00E0     		b	.L20
 469              	.L19:
 470              		.loc 1 343 0
 471 029e 0123     		movs	r3, #1
 472              	.L20:
 473              		.loc 1 345 0
 474 02a0 1846     		mov	r0, r3
 475 02a2 03B0     		add	sp, sp, #12
 476              		@ sp needed
 477 02a4 5DF804FB 		ldr	pc, [sp], #4
 478              		.cfi_endproc
 479              	.LFE2:
 480              		.size	STC3115_Get_WhoAmI, .-STC3115_Get_WhoAmI
 481              		.align	2
 482 02a8 AFF30080 		.p2align 4,,15
 482      AFF30080 
 483              		.thumb
 484              		.thumb_func
 485              		.type	STC3115_Task, %function
 486              	STC3115_Task:
 487              	.LFB3:
 488              		.loc 1 354 0
 489              		.cfi_startproc
 490              		@ args = 0, pretend = 0, frame = 24
 491              		@ frame_needed = 0, uses_anonymous_args = 0
 492 02b0 00B5     		push	{lr}
 493              		.cfi_def_cfa_offset 4
 494              		.cfi_offset 14, -4
 495 02b2 87B0     		sub	sp, sp, #28
 496              		.cfi_def_cfa_offset 32
 497 02b4 0190     		str	r0, [sp, #4]
 498 02b6 0091     		str	r1, [sp]
 499              		.loc 1 357 0
 500 02b8 019B     		ldr	r3, [sp, #4]
 501 02ba 9B68     		ldr	r3, [r3, #8]
 502 02bc 1B68     		ldr	r3, [r3]
 503 02be 0593     		str	r3, [sp, #20]
 504              		.loc 1 358 0
 505 02c0 019B     		ldr	r3, [sp, #4]
 506 02c2 9B68     		ldr	r3, [r3, #8]
 507 02c4 1B68     		ldr	r3, [r3]
 508 02c6 3033     		adds	r3, r3, #48
 509 02c8 0493     		str	r3, [sp, #16]
 510              		.loc 1 359 0
ARM GAS  /tmp/ccAIGiUj.s 			page 10


 511 02ca 019B     		ldr	r3, [sp, #4]
 512 02cc 9B68     		ldr	r3, [r3, #8]
 513 02ce 1B68     		ldr	r3, [r3]
 514 02d0 5C33     		adds	r3, r3, #92
 515 02d2 0393     		str	r3, [sp, #12]
 516              		.loc 1 363 0
 517 02d4 0198     		ldr	r0, [sp, #4]
 518 02d6 00F023FA 		bl	STC3115_Status
 519 02da 0290     		str	r0, [sp, #8]
 520              		.loc 1 365 0
 521 02dc 029B     		ldr	r3, [sp, #8]
 522 02de 002B     		cmp	r3, #0
 523 02e0 01DA     		bge	.L22
 524              		.loc 1 365 0 is_stmt 0 discriminator 1
 525 02e2 0123     		movs	r3, #1
 526 02e4 2CE1     		b	.L23
 527              	.L22:
 528              		.loc 1 366 0 is_stmt 1
 529 02e6 049B     		ldr	r3, [sp, #16]
 530 02e8 029A     		ldr	r2, [sp, #8]
 531 02ea 1A60     		str	r2, [r3]
 532              		.loc 1 369 0
 533 02ec 039B     		ldr	r3, [sp, #12]
 534 02ee 0198     		ldr	r0, [sp, #4]
 535 02f0 1946     		mov	r1, r3
 536 02f2 00F0D5FA 		bl	STC3115_ReadRamData
 537              		.loc 1 370 0
 538 02f6 039B     		ldr	r3, [sp, #12]
 539 02f8 1B88     		ldrh	r3, [r3]
 540 02fa 1AB2     		sxth	r2, r3
 541 02fc 45F2A933 		movw	r3, #21417
 542 0300 9A42     		cmp	r2, r3
 543 0302 07D1     		bne	.L24
 544              		.loc 1 370 0 is_stmt 0 discriminator 1
 545 0304 039B     		ldr	r3, [sp, #12]
 546 0306 1846     		mov	r0, r3
 547 0308 1021     		movs	r1, #16
 548 030a 00F039FA 		bl	STC3115_CalcRamCRC8
 549 030e 0346     		mov	r3, r0
 550 0310 002B     		cmp	r3, #0
 551 0312 06D0     		beq	.L25
 552              	.L24:
 553              		.loc 1 373 0 is_stmt 1
 554 0314 0198     		ldr	r0, [sp, #4]
 555 0316 0599     		ldr	r1, [sp, #20]
 556 0318 00F07AFA 		bl	STC3115_InitRamData
 557              		.loc 1 374 0
 558 031c 039B     		ldr	r3, [sp, #12]
 559 031e 4922     		movs	r2, #73
 560 0320 5A72     		strb	r2, [r3, #9]
 561              	.L25:
 562              		.loc 1 378 0
 563 0322 049B     		ldr	r3, [sp, #16]
 564 0324 1B68     		ldr	r3, [r3]
 565 0326 03F40063 		and	r3, r3, #2048
 566 032a 002B     		cmp	r3, #0
 567 032c 07D0     		beq	.L26
ARM GAS  /tmp/ccAIGiUj.s 			page 11


 568              		.loc 1 383 0
 569 032e 049B     		ldr	r3, [sp, #16]
 570 0330 0022     		movs	r2, #0
 571 0332 1A62     		str	r2, [r3, #32]
 572              		.loc 1 386 0
 573 0334 0198     		ldr	r0, [sp, #4]
 574 0336 00F013F9 		bl	STC3115_Reset
 575              		.loc 1 388 0
 576 033a 0123     		movs	r3, #1
 577 033c 00E1     		b	.L23
 578              	.L26:
 579              		.loc 1 392 0
 580 033e 049B     		ldr	r3, [sp, #16]
 581 0340 1B68     		ldr	r3, [r3]
 582 0342 03F01003 		and	r3, r3, #16
 583 0346 002B     		cmp	r3, #0
 584 0348 0FD1     		bne	.L27
 585              		.loc 1 394 0
 586 034a 039B     		ldr	r3, [sp, #12]
 587 034c 5B7A     		ldrb	r3, [r3, #9]	@ zero_extendqisi2
 588 034e 522B     		cmp	r3, #82
 589 0350 04D1     		bne	.L28
 590              		.loc 1 396 0
 591 0352 0198     		ldr	r0, [sp, #4]
 592 0354 0599     		ldr	r1, [sp, #20]
 593 0356 00F073FB 		bl	STC3115_Restore
 594 035a 03E0     		b	.L29
 595              	.L28:
 596              		.loc 1 400 0
 597 035c 0198     		ldr	r0, [sp, #4]
 598 035e 0599     		ldr	r1, [sp, #20]
 599 0360 00F0E6FB 		bl	STC3115_Startup
 600              	.L29:
 601              		.loc 1 403 0
 602 0364 039B     		ldr	r3, [sp, #12]
 603 0366 4922     		movs	r2, #73
 604 0368 5A72     		strb	r2, [r3, #9]
 605              	.L27:
 606              		.loc 1 408 0
 607 036a 0198     		ldr	r0, [sp, #4]
 608 036c 0499     		ldr	r1, [sp, #16]
 609 036e 00F0AFFA 		bl	STC3115_ReadBatteryData
 610 0372 0290     		str	r0, [sp, #8]
 611              		.loc 1 409 0
 612 0374 029B     		ldr	r3, [sp, #8]
 613 0376 002B     		cmp	r3, #0
 614 0378 01D0     		beq	.L30
 615              		.loc 1 409 0 is_stmt 0 discriminator 1
 616 037a 0123     		movs	r3, #1
 617 037c E0E0     		b	.L23
 618              	.L30:
 619              		.loc 1 414 0 is_stmt 1
 620 037e 039B     		ldr	r3, [sp, #12]
 621 0380 5B7A     		ldrb	r3, [r3, #9]	@ zero_extendqisi2
 622 0382 492B     		cmp	r3, #73
 623 0384 09D1     		bne	.L31
 624              		.loc 1 417 0
ARM GAS  /tmp/ccAIGiUj.s 			page 12


 625 0386 049B     		ldr	r3, [sp, #16]
 626 0388 9B69     		ldr	r3, [r3, #24]
 627 038a 042B     		cmp	r3, #4
 628 038c 05DD     		ble	.L31
 629              		.loc 1 419 0
 630 038e 039B     		ldr	r3, [sp, #12]
 631 0390 5222     		movs	r2, #82
 632 0392 5A72     		strb	r2, [r3, #9]
 633              		.loc 1 421 0
 634 0394 049B     		ldr	r3, [sp, #16]
 635 0396 0122     		movs	r2, #1
 636 0398 1A62     		str	r2, [r3, #32]
 637              	.L31:
 638              		.loc 1 425 0
 639 039a 039B     		ldr	r3, [sp, #12]
 640 039c 5B7A     		ldrb	r3, [r3, #9]	@ zero_extendqisi2
 641 039e 522B     		cmp	r3, #82
 642 03a0 18D0     		beq	.L32
 643              		.loc 1 427 0
 644 03a2 059B     		ldr	r3, [sp, #20]
 645 03a4 5B69     		ldr	r3, [r3, #20]
 646 03a6 049A     		ldr	r2, [sp, #16]
 647 03a8 9268     		ldr	r2, [r2, #8]
 648 03aa 02FB03F3 		mul	r3, r2, r3
 649 03ae 664A     		ldr	r2, .L45
 650 03b0 82FB0312 		smull	r1, r2, r2, r3
 651 03b4 9211     		asrs	r2, r2, #6
 652 03b6 DB17     		asrs	r3, r3, #31
 653 03b8 D21A     		subs	r2, r2, r3
 654 03ba 049B     		ldr	r3, [sp, #16]
 655 03bc 5A62     		str	r2, [r3, #36]
 656              		.loc 1 428 0
 657 03be 049B     		ldr	r3, [sp, #16]
 658 03c0 0022     		movs	r2, #0
 659 03c2 1A61     		str	r2, [r3, #16]
 660              		.loc 1 429 0
 661 03c4 049B     		ldr	r3, [sp, #16]
 662 03c6 FA22     		movs	r2, #250
 663 03c8 5A61     		str	r2, [r3, #20]
 664              		.loc 1 430 0
 665 03ca 049B     		ldr	r3, [sp, #16]
 666 03cc 4FF0FF32 		mov	r2, #-1
 667 03d0 9A62     		str	r2, [r3, #40]
 668 03d2 8AE0     		b	.L33
 669              	.L32:
 670              		.loc 1 438 0
 671 03d4 049B     		ldr	r3, [sp, #16]
 672 03d6 DA68     		ldr	r2, [r3, #12]
 673 03d8 40F6B733 		movw	r3, #2999
 674 03dc 9A42     		cmp	r2, r3
 675 03de 03DC     		bgt	.L34
 676              		.loc 1 439 0
 677 03e0 049B     		ldr	r3, [sp, #16]
 678 03e2 0022     		movs	r2, #0
 679 03e4 9A60     		str	r2, [r3, #8]
 680 03e6 14E0     		b	.L35
 681              	.L34:
ARM GAS  /tmp/ccAIGiUj.s 			page 13


 682              		.loc 1 440 0
 683 03e8 049B     		ldr	r3, [sp, #16]
 684 03ea DB68     		ldr	r3, [r3, #12]
 685 03ec B3F5486F 		cmp	r3, #3200
 686 03f0 0FDA     		bge	.L35
 687              		.loc 1 441 0
 688 03f2 049B     		ldr	r3, [sp, #16]
 689 03f4 9B68     		ldr	r3, [r3, #8]
 690 03f6 049A     		ldr	r2, [sp, #16]
 691 03f8 D268     		ldr	r2, [r2, #12]
 692 03fa A2F6B832 		subw	r2, r2, #3000
 693 03fe 02FB03F3 		mul	r3, r2, r3
 694 0402 524A     		ldr	r2, .L45+4
 695 0404 82FB0312 		smull	r1, r2, r2, r3
 696 0408 9211     		asrs	r2, r2, #6
 697 040a DB17     		asrs	r3, r3, #31
 698 040c D21A     		subs	r2, r2, r3
 699 040e 049B     		ldr	r3, [sp, #16]
 700 0410 9A60     		str	r2, [r3, #8]
 701              	.L35:
 702              		.loc 1 445 0
 703 0412 059B     		ldr	r3, [sp, #20]
 704 0414 5B69     		ldr	r3, [r3, #20]
 705 0416 049A     		ldr	r2, [sp, #16]
 706 0418 9268     		ldr	r2, [r2, #8]
 707 041a 02FB03F3 		mul	r3, r2, r3
 708 041e 4A4A     		ldr	r2, .L45
 709 0420 82FB0312 		smull	r1, r2, r2, r3
 710 0424 9211     		asrs	r2, r2, #6
 711 0426 DB17     		asrs	r3, r3, #31
 712 0428 D21A     		subs	r2, r2, r3
 713 042a 049B     		ldr	r3, [sp, #16]
 714 042c 5A62     		str	r2, [r3, #36]
 715              		.loc 1 447 0
 716 042e 049B     		ldr	r3, [sp, #16]
 717 0430 1B68     		ldr	r3, [r3]
 718 0432 03F00103 		and	r3, r3, #1
 719 0436 002B     		cmp	r3, #0
 720 0438 40D1     		bne	.L36
 721              		.loc 1 451 0
 722 043a 049B     		ldr	r3, [sp, #16]
 723 043c 1B68     		ldr	r3, [r3]
 724 043e 03F00103 		and	r3, r3, #1
 725 0442 002B     		cmp	r3, #0
 726 0444 13D1     		bne	.L37
 727              		.loc 1 454 0
 728 0446 049B     		ldr	r3, [sp, #16]
 729 0448 1B69     		ldr	r3, [r3, #16]
 730 044a 0A2B     		cmp	r3, #10
 731 044c 0FDD     		ble	.L37
 732              		.loc 1 454 0 is_stmt 0 discriminator 1
 733 044e 049B     		ldr	r3, [sp, #16]
 734 0450 9A68     		ldr	r2, [r3, #8]
 735 0452 40F2DE33 		movw	r3, #990
 736 0456 9A42     		cmp	r2, r3
 737 0458 09DD     		ble	.L37
 738              		.loc 1 456 0 is_stmt 1
ARM GAS  /tmp/ccAIGiUj.s 			page 14


 739 045a 049B     		ldr	r3, [sp, #16]
 740 045c 40F2DE32 		movw	r2, #990
 741 0460 9A60     		str	r2, [r3, #8]
 742              		.loc 1 457 0
 743 0462 0198     		ldr	r0, [sp, #4]
 744 0464 0221     		movs	r1, #2
 745 0466 4FF44642 		mov	r2, #50688
 746 046a 00F0F1FB 		bl	STC3115_WriteWord
 747              	.L37:
 748              		.loc 1 462 0
 749 046e 049B     		ldr	r3, [sp, #16]
 750 0470 1B69     		ldr	r3, [r3, #16]
 751 0472 002B     		cmp	r3, #0
 752 0474 1DDA     		bge	.L38
 753              		.loc 1 465 0
 754 0476 049B     		ldr	r3, [sp, #16]
 755 0478 996A     		ldr	r1, [r3, #40]
 756 047a 049B     		ldr	r3, [sp, #16]
 757 047c 5A6A     		ldr	r2, [r3, #36]
 758 047e 049B     		ldr	r3, [sp, #16]
 759 0480 1B69     		ldr	r3, [r3, #16]
 760 0482 92FBF3F2 		sdiv	r2, r2, r3
 761 0486 1346     		mov	r3, r2
 762 0488 1B01     		lsls	r3, r3, #4
 763 048a 9B1A     		subs	r3, r3, r2
 764 048c 0B44     		add	r3, r3, r1
 765 048e 9B00     		lsls	r3, r3, #2
 766 0490 2F4A     		ldr	r2, .L45+8
 767 0492 82FB0312 		smull	r1, r2, r2, r3
 768 0496 5210     		asrs	r2, r2, #1
 769 0498 DB17     		asrs	r3, r3, #31
 770 049a D21A     		subs	r2, r2, r3
 771 049c 049B     		ldr	r3, [sp, #16]
 772 049e 9A62     		str	r2, [r3, #40]
 773              		.loc 1 466 0
 774 04a0 049B     		ldr	r3, [sp, #16]
 775 04a2 9B6A     		ldr	r3, [r3, #40]
 776 04a4 002B     		cmp	r3, #0
 777 04a6 10DA     		bge	.L41
 778              		.loc 1 467 0
 779 04a8 049B     		ldr	r3, [sp, #16]
 780 04aa 4FF0FF32 		mov	r2, #-1
 781 04ae 9A62     		str	r2, [r3, #40]
 782 04b0 0BE0     		b	.L41
 783              	.L38:
 784              		.loc 1 470 0
 785 04b2 049B     		ldr	r3, [sp, #16]
 786 04b4 4FF0FF32 		mov	r2, #-1
 787 04b8 9A62     		str	r2, [r3, #40]
 788 04ba 06E0     		b	.L41
 789              	.L36:
 790              		.loc 1 475 0
 791 04bc 049B     		ldr	r3, [sp, #16]
 792 04be 0022     		movs	r2, #0
 793 04c0 1A61     		str	r2, [r3, #16]
 794              		.loc 1 476 0
 795 04c2 049B     		ldr	r3, [sp, #16]
ARM GAS  /tmp/ccAIGiUj.s 			page 15


 796 04c4 4FF0FF32 		mov	r2, #-1
 797 04c8 9A62     		str	r2, [r3, #40]
 798              	.L41:
 799              		.loc 1 480 0
 800 04ca 049B     		ldr	r3, [sp, #16]
 801 04cc 9B68     		ldr	r3, [r3, #8]
 802 04ce B3F57A7F 		cmp	r3, #1000
 803 04d2 03DD     		ble	.L42
 804              		.loc 1 480 0 is_stmt 0 discriminator 1
 805 04d4 049B     		ldr	r3, [sp, #16]
 806 04d6 4FF47A72 		mov	r2, #1000
 807 04da 9A60     		str	r2, [r3, #8]
 808              	.L42:
 809              		.loc 1 481 0 is_stmt 1
 810 04dc 049B     		ldr	r3, [sp, #16]
 811 04de 9B68     		ldr	r3, [r3, #8]
 812 04e0 002B     		cmp	r3, #0
 813 04e2 02DA     		bge	.L33
 814              		.loc 1 481 0 is_stmt 0 discriminator 1
 815 04e4 049B     		ldr	r3, [sp, #16]
 816 04e6 0022     		movs	r2, #0
 817 04e8 9A60     		str	r2, [r3, #8]
 818              	.L33:
 819              		.loc 1 485 0 is_stmt 1
 820 04ea 049B     		ldr	r3, [sp, #16]
 821 04ec 5B68     		ldr	r3, [r3, #4]
 822 04ee 9AB2     		uxth	r2, r3
 823 04f0 039B     		ldr	r3, [sp, #12]
 824 04f2 5A80     		strh	r2, [r3, #2]	@ movhi
 825              		.loc 1 486 0
 826 04f4 049B     		ldr	r3, [sp, #16]
 827 04f6 9B68     		ldr	r3, [r3, #8]
 828 04f8 0533     		adds	r3, r3, #5
 829 04fa 154A     		ldr	r2, .L45+8
 830 04fc 82FB0312 		smull	r1, r2, r2, r3
 831 0500 9210     		asrs	r2, r2, #2
 832 0502 DB17     		asrs	r3, r3, #31
 833 0504 D31A     		subs	r3, r2, r3
 834 0506 DAB2     		uxtb	r2, r3
 835 0508 039B     		ldr	r3, [sp, #12]
 836 050a 1A72     		strb	r2, [r3, #8]
 837              		.loc 1 487 0
 838 050c 0198     		ldr	r0, [sp, #4]
 839 050e 00F067F9 		bl	STC3115_UpdateRamCRC
 840              		.loc 1 488 0
 841 0512 039B     		ldr	r3, [sp, #12]
 842 0514 0198     		ldr	r0, [sp, #4]
 843 0516 1946     		mov	r1, r3
 844 0518 00F0AAF9 		bl	STC3115_WriteRamData
 845              		.loc 1 490 0
 846 051c 039B     		ldr	r3, [sp, #12]
 847 051e 5B7A     		ldrb	r3, [r3, #9]	@ zero_extendqisi2
 848 0520 522B     		cmp	r3, #82
 849 0522 0CD1     		bne	.L43
 850              		.loc 1 492 0
 851 0524 049B     		ldr	r3, [sp, #16]
 852 0526 1B68     		ldr	r3, [r3]
ARM GAS  /tmp/ccAIGiUj.s 			page 16


 853 0528 03F48063 		and	r3, r3, #1024
 854 052c 002B     		cmp	r3, #0
 855 052e 03D1     		bne	.L44
 856              		.loc 1 493 0
 857 0530 009B     		ldr	r3, [sp]
 858 0532 0022     		movs	r2, #0
 859 0534 1A70     		strb	r2, [r3]
 860 0536 02E0     		b	.L43
 861              	.L44:
 862              		.loc 1 495 0
 863 0538 009B     		ldr	r3, [sp]
 864 053a 0122     		movs	r2, #1
 865 053c 1A70     		strb	r2, [r3]
 866              	.L43:
 867              		.loc 1 497 0
 868 053e 0023     		movs	r3, #0
 869              	.L23:
 870              		.loc 1 498 0
 871 0540 1846     		mov	r0, r3
 872 0542 07B0     		add	sp, sp, #28
 873              		@ sp needed
 874 0544 5DF804FB 		ldr	pc, [sp], #4
 875              	.L46:
 876              		.align	2
 877              	.L45:
 878 0548 D34D6210 		.word	274877907
 879 054c 1F85EB51 		.word	1374389535
 880 0550 67666666 		.word	1717986919
 881              		.cfi_endproc
 882              	.LFE3:
 883              		.size	STC3115_Task, .-STC3115_Task
 884              		.align	2
 885 0554 AFF30080 		.p2align 4,,15
 885      AFF30080 
 885      AFF30080 
 886              		.thumb
 887              		.thumb_func
 888              		.type	STC3115_Reset, %function
 889              	STC3115_Reset:
 890              	.LFB4:
 891              		.loc 1 506 0
 892              		.cfi_startproc
 893              		@ args = 0, pretend = 0, frame = 24
 894              		@ frame_needed = 0, uses_anonymous_args = 0
 895 0560 00B5     		push	{lr}
 896              		.cfi_def_cfa_offset 4
 897              		.cfi_offset 14, -4
 898 0562 87B0     		sub	sp, sp, #28
 899              		.cfi_def_cfa_offset 32
 900 0564 0190     		str	r0, [sp, #4]
 901              		.loc 1 508 0
 902 0566 019B     		ldr	r3, [sp, #4]
 903 0568 9B68     		ldr	r3, [r3, #8]
 904 056a 1B68     		ldr	r3, [r3]
 905 056c 5C33     		adds	r3, r3, #92
 906 056e 0593     		str	r3, [sp, #20]
 907              		.loc 1 511 0
ARM GAS  /tmp/ccAIGiUj.s 			page 17


 908 0570 059B     		ldr	r3, [sp, #20]
 909 0572 0022     		movs	r2, #0
 910 0574 1A80     		strh	r2, [r3]	@ movhi
 911              		.loc 1 512 0
 912 0576 059B     		ldr	r3, [sp, #20]
 913 0578 0022     		movs	r2, #0
 914 057a 5A72     		strb	r2, [r3, #9]
 915              		.loc 1 513 0
 916 057c 059B     		ldr	r3, [sp, #20]
 917 057e 0198     		ldr	r0, [sp, #4]
 918 0580 1946     		mov	r1, r3
 919 0582 00F075F9 		bl	STC3115_WriteRamData
 920 0586 0490     		str	r0, [sp, #16]
 921              		.loc 1 514 0
 922 0588 049B     		ldr	r3, [sp, #16]
 923 058a 002B     		cmp	r3, #0
 924 058c 01D0     		beq	.L48
 925              		.loc 1 514 0 is_stmt 0 discriminator 1
 926 058e 0123     		movs	r3, #1
 927 0590 0CE0     		b	.L50
 928              	.L48:
 929              		.loc 1 516 0 is_stmt 1
 930 0592 1023     		movs	r3, #16
 931 0594 8DF80F30 		strb	r3, [sp, #15]
 932              		.loc 1 517 0
 933 0598 0DF10F03 		add	r3, sp, #15
 934 059c 0198     		ldr	r0, [sp, #4]
 935 059e 0121     		movs	r1, #1
 936 05a0 1A46     		mov	r2, r3
 937 05a2 0123     		movs	r3, #1
 938 05a4 00F00CFB 		bl	STC3115_Write
 939 05a8 0490     		str	r0, [sp, #16]
 940              		.loc 1 519 0
 941 05aa 0023     		movs	r3, #0
 942              	.L50:
 943              		.loc 1 520 0
 944 05ac 1846     		mov	r0, r3
 945 05ae 07B0     		add	sp, sp, #28
 946              		@ sp needed
 947 05b0 5DF804FB 		ldr	pc, [sp], #4
 948              		.cfi_endproc
 949              	.LFE4:
 950              		.size	STC3115_Reset, .-STC3115_Reset
 951              		.align	2
 952 05b4 AFF30080 		.p2align 4,,15
 952      AFF30080 
 952      AFF30080 
 953              		.thumb
 954              		.thumb_func
 955              		.type	STC3115_Stop, %function
 956              	STC3115_Stop:
 957              	.LFB5:
 958              		.loc 1 528 0
 959              		.cfi_startproc
 960              		@ args = 0, pretend = 0, frame = 16
 961              		@ frame_needed = 0, uses_anonymous_args = 0
 962 05c0 00B5     		push	{lr}
ARM GAS  /tmp/ccAIGiUj.s 			page 18


 963              		.cfi_def_cfa_offset 4
 964              		.cfi_offset 14, -4
 965 05c2 85B0     		sub	sp, sp, #20
 966              		.cfi_def_cfa_offset 24
 967 05c4 0190     		str	r0, [sp, #4]
 968              		.loc 1 530 0
 969 05c6 019B     		ldr	r3, [sp, #4]
 970 05c8 9B68     		ldr	r3, [r3, #8]
 971 05ca 1B68     		ldr	r3, [r3]
 972 05cc 5C33     		adds	r3, r3, #92
 973 05ce 0393     		str	r3, [sp, #12]
 974              		.loc 1 533 0
 975 05d0 039B     		ldr	r3, [sp, #12]
 976 05d2 0198     		ldr	r0, [sp, #4]
 977 05d4 1946     		mov	r1, r3
 978 05d6 00F063F9 		bl	STC3115_ReadRamData
 979              		.loc 1 534 0
 980 05da 039B     		ldr	r3, [sp, #12]
 981 05dc 4422     		movs	r2, #68
 982 05de 5A72     		strb	r2, [r3, #9]
 983              		.loc 1 536 0
 984 05e0 0198     		ldr	r0, [sp, #4]
 985 05e2 00F0FDF8 		bl	STC3115_UpdateRamCRC
 986              		.loc 1 537 0
 987 05e6 039B     		ldr	r3, [sp, #12]
 988 05e8 0198     		ldr	r0, [sp, #4]
 989 05ea 1946     		mov	r1, r3
 990 05ec 00F040F9 		bl	STC3115_WriteRamData
 991              		.loc 1 540 0
 992 05f0 0198     		ldr	r0, [sp, #4]
 993 05f2 00F055FA 		bl	STC3115_Powerdown
 994 05f6 0290     		str	r0, [sp, #8]
 995              		.loc 1 541 0
 996 05f8 029B     		ldr	r3, [sp, #8]
 997 05fa 002B     		cmp	r3, #0
 998 05fc 01D0     		beq	.L52
 999              		.loc 1 541 0 is_stmt 0 discriminator 1
 1000 05fe 0123     		movs	r3, #1
 1001 0600 00E0     		b	.L53
 1002              	.L52:
 1003              		.loc 1 543 0 is_stmt 1
 1004 0602 0023     		movs	r3, #0
 1005              	.L53:
 1006              		.loc 1 544 0
 1007 0604 1846     		mov	r0, r3
 1008 0606 05B0     		add	sp, sp, #20
 1009              		@ sp needed
 1010 0608 5DF804FB 		ldr	pc, [sp], #4
 1011              		.cfi_endproc
 1012              	.LFE5:
 1013              		.size	STC3115_Stop, .-STC3115_Stop
 1014              		.align	2
 1015 060c AFF30080 		.p2align 4,,15
 1016              		.thumb
 1017              		.thumb_func
 1018              		.type	STC3115_GetSOC, %function
 1019              	STC3115_GetSOC:
ARM GAS  /tmp/ccAIGiUj.s 			page 19


 1020              	.LFB6:
 1021              		.loc 1 552 0
 1022              		.cfi_startproc
 1023              		@ args = 0, pretend = 0, frame = 8
 1024              		@ frame_needed = 0, uses_anonymous_args = 0
 1025              		@ link register save eliminated.
 1026 0610 82B0     		sub	sp, sp, #8
 1027              		.cfi_def_cfa_offset 8
 1028 0612 0190     		str	r0, [sp, #4]
 1029 0614 0091     		str	r1, [sp]
 1030              		.loc 1 553 0
 1031 0616 019B     		ldr	r3, [sp, #4]
 1032 0618 9B68     		ldr	r3, [r3, #8]
 1033 061a 1B68     		ldr	r3, [r3]
 1034 061c 9B6B     		ldr	r3, [r3, #56]
 1035 061e 0533     		adds	r3, r3, #5
 1036 0620 064A     		ldr	r2, .L56
 1037 0622 82FB0312 		smull	r1, r2, r2, r3
 1038 0626 9210     		asrs	r2, r2, #2
 1039 0628 DB17     		asrs	r3, r3, #31
 1040 062a D31A     		subs	r3, r2, r3
 1041 062c 1A46     		mov	r2, r3
 1042 062e 009B     		ldr	r3, [sp]
 1043 0630 1A60     		str	r2, [r3]
 1044              		.loc 1 554 0
 1045 0632 0023     		movs	r3, #0
 1046              		.loc 1 555 0
 1047 0634 1846     		mov	r0, r3
 1048 0636 02B0     		add	sp, sp, #8
 1049              		@ sp needed
 1050 0638 7047     		bx	lr
 1051              	.L57:
 1052 063a 00BF     		.align	2
 1053              	.L56:
 1054 063c 67666666 		.word	1717986919
 1055              		.cfi_endproc
 1056              	.LFE6:
 1057              		.size	STC3115_GetSOC, .-STC3115_GetSOC
 1058              		.align	2
 1059              		.p2align 4,,15
 1060              		.thumb
 1061              		.thumb_func
 1062              		.type	STC3115_GetOCV, %function
 1063              	STC3115_GetOCV:
 1064              	.LFB7:
 1065              		.loc 1 563 0
 1066              		.cfi_startproc
 1067              		@ args = 0, pretend = 0, frame = 8
 1068              		@ frame_needed = 0, uses_anonymous_args = 0
 1069              		@ link register save eliminated.
 1070 0640 82B0     		sub	sp, sp, #8
 1071              		.cfi_def_cfa_offset 8
 1072 0642 0190     		str	r0, [sp, #4]
 1073 0644 0091     		str	r1, [sp]
 1074              		.loc 1 564 0
 1075 0646 019B     		ldr	r3, [sp, #4]
 1076 0648 9B68     		ldr	r3, [r3, #8]
ARM GAS  /tmp/ccAIGiUj.s 			page 20


 1077 064a 1B68     		ldr	r3, [r3]
 1078 064c DB6C     		ldr	r3, [r3, #76]
 1079 064e 1A46     		mov	r2, r3
 1080 0650 009B     		ldr	r3, [sp]
 1081 0652 1A60     		str	r2, [r3]
 1082              		.loc 1 565 0
 1083 0654 0023     		movs	r3, #0
 1084              		.loc 1 566 0
 1085 0656 1846     		mov	r0, r3
 1086 0658 02B0     		add	sp, sp, #8
 1087              		@ sp needed
 1088 065a 7047     		bx	lr
 1089              		.cfi_endproc
 1090              	.LFE7:
 1091              		.size	STC3115_GetOCV, .-STC3115_GetOCV
 1092              		.align	2
 1093 065c AFF30080 		.p2align 4,,15
 1094              		.thumb
 1095              		.thumb_func
 1096              		.type	STC3115_GetCurrent, %function
 1097              	STC3115_GetCurrent:
 1098              	.LFB8:
 1099              		.loc 1 574 0
 1100              		.cfi_startproc
 1101              		@ args = 0, pretend = 0, frame = 8
 1102              		@ frame_needed = 0, uses_anonymous_args = 0
 1103              		@ link register save eliminated.
 1104 0660 82B0     		sub	sp, sp, #8
 1105              		.cfi_def_cfa_offset 8
 1106 0662 0190     		str	r0, [sp, #4]
 1107 0664 0091     		str	r1, [sp]
 1108              		.loc 1 575 0
 1109 0666 019B     		ldr	r3, [sp, #4]
 1110 0668 9B68     		ldr	r3, [r3, #8]
 1111 066a 1B68     		ldr	r3, [r3]
 1112 066c 1A6C     		ldr	r2, [r3, #64]
 1113 066e 009B     		ldr	r3, [sp]
 1114 0670 1A60     		str	r2, [r3]
 1115              		.loc 1 576 0
 1116 0672 0023     		movs	r3, #0
 1117              		.loc 1 577 0
 1118 0674 1846     		mov	r0, r3
 1119 0676 02B0     		add	sp, sp, #8
 1120              		@ sp needed
 1121 0678 7047     		bx	lr
 1122              		.cfi_endproc
 1123              	.LFE8:
 1124              		.size	STC3115_GetCurrent, .-STC3115_GetCurrent
 1125 067a 00BF     		.align	2
 1126 067c AFF30080 		.p2align 4,,15
 1127              		.thumb
 1128              		.thumb_func
 1129              		.type	STC3115_GetTemperature, %function
 1130              	STC3115_GetTemperature:
 1131              	.LFB9:
 1132              		.loc 1 585 0
 1133              		.cfi_startproc
ARM GAS  /tmp/ccAIGiUj.s 			page 21


 1134              		@ args = 0, pretend = 0, frame = 8
 1135              		@ frame_needed = 0, uses_anonymous_args = 0
 1136              		@ link register save eliminated.
 1137 0680 82B0     		sub	sp, sp, #8
 1138              		.cfi_def_cfa_offset 8
 1139 0682 0190     		str	r0, [sp, #4]
 1140 0684 0091     		str	r1, [sp]
 1141              		.loc 1 586 0
 1142 0686 019B     		ldr	r3, [sp, #4]
 1143 0688 9B68     		ldr	r3, [r3, #8]
 1144 068a 1B68     		ldr	r3, [r3]
 1145 068c 5A6C     		ldr	r2, [r3, #68]
 1146 068e 009B     		ldr	r3, [sp]
 1147 0690 1A60     		str	r2, [r3]
 1148              		.loc 1 587 0
 1149 0692 0023     		movs	r3, #0
 1150              		.loc 1 588 0
 1151 0694 1846     		mov	r0, r3
 1152 0696 02B0     		add	sp, sp, #8
 1153              		@ sp needed
 1154 0698 7047     		bx	lr
 1155              		.cfi_endproc
 1156              	.LFE9:
 1157              		.size	STC3115_GetTemperature, .-STC3115_GetTemperature
 1158 069a 00BF     		.align	2
 1159 069c AFF30080 		.p2align 4,,15
 1160              		.thumb
 1161              		.thumb_func
 1162              		.type	STC3115_GetVoltage, %function
 1163              	STC3115_GetVoltage:
 1164              	.LFB10:
 1165              		.loc 1 596 0
 1166              		.cfi_startproc
 1167              		@ args = 0, pretend = 0, frame = 8
 1168              		@ frame_needed = 0, uses_anonymous_args = 0
 1169              		@ link register save eliminated.
 1170 06a0 82B0     		sub	sp, sp, #8
 1171              		.cfi_def_cfa_offset 8
 1172 06a2 0190     		str	r0, [sp, #4]
 1173 06a4 0091     		str	r1, [sp]
 1174              		.loc 1 597 0
 1175 06a6 019B     		ldr	r3, [sp, #4]
 1176 06a8 9B68     		ldr	r3, [r3, #8]
 1177 06aa 1B68     		ldr	r3, [r3]
 1178 06ac DB6B     		ldr	r3, [r3, #60]
 1179 06ae 1A46     		mov	r2, r3
 1180 06b0 009B     		ldr	r3, [sp]
 1181 06b2 1A60     		str	r2, [r3]
 1182              		.loc 1 598 0
 1183 06b4 0023     		movs	r3, #0
 1184              		.loc 1 599 0
 1185 06b6 1846     		mov	r0, r3
 1186 06b8 02B0     		add	sp, sp, #8
 1187              		@ sp needed
 1188 06ba 7047     		bx	lr
 1189              		.cfi_endproc
 1190              	.LFE10:
ARM GAS  /tmp/ccAIGiUj.s 			page 22


 1191              		.size	STC3115_GetVoltage, .-STC3115_GetVoltage
 1192              		.align	2
 1193 06bc AFF30080 		.p2align 4,,15
 1194              		.thumb
 1195              		.thumb_func
 1196              		.type	STC3115_GetChargeValue, %function
 1197              	STC3115_GetChargeValue:
 1198              	.LFB11:
 1199              		.loc 1 607 0
 1200              		.cfi_startproc
 1201              		@ args = 0, pretend = 0, frame = 8
 1202              		@ frame_needed = 0, uses_anonymous_args = 0
 1203              		@ link register save eliminated.
 1204 06c0 82B0     		sub	sp, sp, #8
 1205              		.cfi_def_cfa_offset 8
 1206 06c2 0190     		str	r0, [sp, #4]
 1207 06c4 0091     		str	r1, [sp]
 1208              		.loc 1 608 0
 1209 06c6 019B     		ldr	r3, [sp, #4]
 1210 06c8 9B68     		ldr	r3, [r3, #8]
 1211 06ca 1B68     		ldr	r3, [r3]
 1212 06cc 5B6D     		ldr	r3, [r3, #84]
 1213 06ce 1A46     		mov	r2, r3
 1214 06d0 009B     		ldr	r3, [sp]
 1215 06d2 1A60     		str	r2, [r3]
 1216              		.loc 1 609 0
 1217 06d4 0023     		movs	r3, #0
 1218              		.loc 1 610 0
 1219 06d6 1846     		mov	r0, r3
 1220 06d8 02B0     		add	sp, sp, #8
 1221              		@ sp needed
 1222 06da 7047     		bx	lr
 1223              		.cfi_endproc
 1224              	.LFE11:
 1225              		.size	STC3115_GetChargeValue, .-STC3115_GetChargeValue
 1226              		.align	2
 1227 06dc AFF30080 		.p2align 4,,15
 1228              		.thumb
 1229              		.thumb_func
 1230              		.type	STC3115_GetPresence, %function
 1231              	STC3115_GetPresence:
 1232              	.LFB12:
 1233              		.loc 1 618 0
 1234              		.cfi_startproc
 1235              		@ args = 0, pretend = 0, frame = 8
 1236              		@ frame_needed = 0, uses_anonymous_args = 0
 1237              		@ link register save eliminated.
 1238 06e0 82B0     		sub	sp, sp, #8
 1239              		.cfi_def_cfa_offset 8
 1240 06e2 0190     		str	r0, [sp, #4]
 1241 06e4 0091     		str	r1, [sp]
 1242              		.loc 1 619 0
 1243 06e6 019B     		ldr	r3, [sp, #4]
 1244 06e8 9B68     		ldr	r3, [r3, #8]
 1245 06ea 1B68     		ldr	r3, [r3]
 1246 06ec 1B6D     		ldr	r3, [r3, #80]
 1247 06ee 1A46     		mov	r2, r3
ARM GAS  /tmp/ccAIGiUj.s 			page 23


 1248 06f0 009B     		ldr	r3, [sp]
 1249 06f2 1A60     		str	r2, [r3]
 1250              		.loc 1 620 0
 1251 06f4 0023     		movs	r3, #0
 1252              		.loc 1 621 0
 1253 06f6 1846     		mov	r0, r3
 1254 06f8 02B0     		add	sp, sp, #8
 1255              		@ sp needed
 1256 06fa 7047     		bx	lr
 1257              		.cfi_endproc
 1258              	.LFE12:
 1259              		.size	STC3115_GetPresence, .-STC3115_GetPresence
 1260              		.align	2
 1261 06fc AFF30080 		.p2align 4,,15
 1262              		.thumb
 1263              		.thumb_func
 1264              		.type	STC3115_GetAlarmStatus, %function
 1265              	STC3115_GetAlarmStatus:
 1266              	.LFB13:
 1267              		.loc 1 629 0
 1268              		.cfi_startproc
 1269              		@ args = 0, pretend = 0, frame = 8
 1270              		@ frame_needed = 0, uses_anonymous_args = 0
 1271              		@ link register save eliminated.
 1272 0700 82B0     		sub	sp, sp, #8
 1273              		.cfi_def_cfa_offset 8
 1274 0702 0190     		str	r0, [sp, #4]
 1275 0704 0091     		str	r1, [sp]
 1276              		.loc 1 630 0
 1277 0706 019B     		ldr	r3, [sp, #4]
 1278 0708 9B68     		ldr	r3, [r3, #8]
 1279 070a 1B68     		ldr	r3, [r3]
 1280 070c 1B6B     		ldr	r3, [r3, #48]
 1281 070e 5B13     		asrs	r3, r3, #13
 1282 0710 03F00302 		and	r2, r3, #3
 1283 0714 009B     		ldr	r3, [sp]
 1284 0716 1A60     		str	r2, [r3]
 1285              		.loc 1 631 0
 1286 0718 0023     		movs	r3, #0
 1287              		.loc 1 632 0
 1288 071a 1846     		mov	r0, r3
 1289 071c 02B0     		add	sp, sp, #8
 1290              		@ sp needed
 1291 071e 7047     		bx	lr
 1292              		.cfi_endproc
 1293              	.LFE13:
 1294              		.size	STC3115_GetAlarmStatus, .-STC3115_GetAlarmStatus
 1295              		.align	2
 1296              		.p2align 4,,15
 1297              		.thumb
 1298              		.thumb_func
 1299              		.type	STC3115_Status, %function
 1300              	STC3115_Status:
 1301              	.LFB14:
 1302              		.loc 1 640 0
 1303              		.cfi_startproc
 1304              		@ args = 0, pretend = 0, frame = 16
ARM GAS  /tmp/ccAIGiUj.s 			page 24


 1305              		@ frame_needed = 0, uses_anonymous_args = 0
 1306 0720 00B5     		push	{lr}
 1307              		.cfi_def_cfa_offset 4
 1308              		.cfi_offset 14, -4
 1309 0722 85B0     		sub	sp, sp, #20
 1310              		.cfi_def_cfa_offset 24
 1311 0724 0190     		str	r0, [sp, #4]
 1312              		.loc 1 645 0
 1313 0726 0DF10B03 		add	r3, sp, #11
 1314 072a 0198     		ldr	r0, [sp, #4]
 1315 072c 1821     		movs	r1, #24
 1316 072e 1A46     		mov	r2, r3
 1317 0730 0123     		movs	r3, #1
 1318 0732 00F025FA 		bl	STC3115_Read
 1319 0736 0346     		mov	r3, r0
 1320 0738 B3F1FF3F 		cmp	r3, #-1
 1321 073c 02D1     		bne	.L73
 1322              		.loc 1 646 0
 1323 073e 4FF0FF33 		mov	r3, #-1
 1324 0742 12E0     		b	.L76
 1325              	.L73:
 1326              		.loc 1 647 0
 1327 0744 9DF80B30 		ldrb	r3, [sp, #11]	@ zero_extendqisi2
 1328 0748 142B     		cmp	r3, #20
 1329 074a 02D0     		beq	.L75
 1330              		.loc 1 648 0
 1331 074c 4FF0FF33 		mov	r3, #-1
 1332 0750 0BE0     		b	.L76
 1333              	.L75:
 1334              		.loc 1 651 0
 1335 0752 03AB     		add	r3, sp, #12
 1336 0754 0198     		ldr	r0, [sp, #4]
 1337 0756 0021     		movs	r1, #0
 1338 0758 1A46     		mov	r2, r3
 1339 075a 00F051FA 		bl	STC3115_ReadWord
 1340              		.loc 1 652 0
 1341 075e 039A     		ldr	r2, [sp, #12]
 1342 0760 47F67F73 		movw	r3, #32639
 1343 0764 1340     		ands	r3, r3, r2
 1344 0766 0393     		str	r3, [sp, #12]
 1345              		.loc 1 654 0
 1346 0768 039B     		ldr	r3, [sp, #12]
 1347              	.L76:
 1348              		.loc 1 655 0
 1349 076a 1846     		mov	r0, r3
 1350 076c 05B0     		add	sp, sp, #20
 1351              		@ sp needed
 1352 076e 5DF804FB 		ldr	pc, [sp], #4
 1353              		.cfi_endproc
 1354              	.LFE14:
 1355              		.size	STC3115_Status, .-STC3115_Status
 1356 0772 00BF     		.align	2
 1357 0774 AFF30080 		.p2align 4,,15
 1357      AFF30080 
 1357      AFF30080 
 1358              		.thumb
 1359              		.thumb_func
ARM GAS  /tmp/ccAIGiUj.s 			page 25


 1360              		.type	STC3115_CalcRamCRC8, %function
 1361              	STC3115_CalcRamCRC8:
 1362              	.LFB15:
 1363              		.loc 1 664 0
 1364              		.cfi_startproc
 1365              		@ args = 0, pretend = 0, frame = 24
 1366              		@ frame_needed = 0, uses_anonymous_args = 0
 1367              		@ link register save eliminated.
 1368 0780 86B0     		sub	sp, sp, #24
 1369              		.cfi_def_cfa_offset 24
 1370 0782 0190     		str	r0, [sp, #4]
 1371 0784 0091     		str	r1, [sp]
 1372              		.loc 1 665 0
 1373 0786 0023     		movs	r3, #0
 1374 0788 0593     		str	r3, [sp, #20]
 1375              		.loc 1 668 0
 1376 078a 0023     		movs	r3, #0
 1377 078c 0493     		str	r3, [sp, #16]
 1378 078e 1EE0     		b	.L78
 1379              	.L82:
 1380              		.loc 1 670 0
 1381 0790 049B     		ldr	r3, [sp, #16]
 1382 0792 019A     		ldr	r2, [sp, #4]
 1383 0794 1344     		add	r3, r3, r2
 1384 0796 1B78     		ldrb	r3, [r3]	@ zero_extendqisi2
 1385 0798 059A     		ldr	r2, [sp, #20]
 1386 079a 5340     		eors	r3, r3, r2
 1387 079c 0593     		str	r3, [sp, #20]
 1388              		.loc 1 671 0
 1389 079e 0023     		movs	r3, #0
 1390 07a0 0393     		str	r3, [sp, #12]
 1391 07a2 0EE0     		b	.L79
 1392              	.L81:
 1393              		.loc 1 673 0
 1394 07a4 059B     		ldr	r3, [sp, #20]
 1395 07a6 5B00     		lsls	r3, r3, #1
 1396 07a8 0593     		str	r3, [sp, #20]
 1397              		.loc 1 674 0
 1398 07aa 059B     		ldr	r3, [sp, #20]
 1399 07ac 03F48073 		and	r3, r3, #256
 1400 07b0 002B     		cmp	r3, #0
 1401 07b2 03D0     		beq	.L80
 1402              		.loc 1 674 0 is_stmt 0 discriminator 1
 1403 07b4 059B     		ldr	r3, [sp, #20]
 1404 07b6 83F00703 		eor	r3, r3, #7
 1405 07ba 0593     		str	r3, [sp, #20]
 1406              	.L80:
 1407              		.loc 1 671 0 is_stmt 1
 1408 07bc 039B     		ldr	r3, [sp, #12]
 1409 07be 0133     		adds	r3, r3, #1
 1410 07c0 0393     		str	r3, [sp, #12]
 1411              	.L79:
 1412              		.loc 1 671 0 is_stmt 0 discriminator 1
 1413 07c2 039B     		ldr	r3, [sp, #12]
 1414 07c4 072B     		cmp	r3, #7
 1415 07c6 EDDD     		ble	.L81
 1416              		.loc 1 668 0 is_stmt 1
ARM GAS  /tmp/ccAIGiUj.s 			page 26


 1417 07c8 049B     		ldr	r3, [sp, #16]
 1418 07ca 0133     		adds	r3, r3, #1
 1419 07cc 0493     		str	r3, [sp, #16]
 1420              	.L78:
 1421              		.loc 1 668 0 is_stmt 0 discriminator 1
 1422 07ce 049A     		ldr	r2, [sp, #16]
 1423 07d0 009B     		ldr	r3, [sp]
 1424 07d2 9A42     		cmp	r2, r3
 1425 07d4 DCDB     		blt	.L82
 1426              		.loc 1 677 0 is_stmt 1
 1427 07d6 059B     		ldr	r3, [sp, #20]
 1428 07d8 DBB2     		uxtb	r3, r3
 1429              		.loc 1 678 0
 1430 07da 1846     		mov	r0, r3
 1431 07dc 06B0     		add	sp, sp, #24
 1432              		@ sp needed
 1433 07de 7047     		bx	lr
 1434              		.cfi_endproc
 1435              	.LFE15:
 1436              		.size	STC3115_CalcRamCRC8, .-STC3115_CalcRamCRC8
 1437              		.align	2
 1438              		.p2align 4,,15
 1439              		.thumb
 1440              		.thumb_func
 1441              		.type	STC3115_UpdateRamCRC, %function
 1442              	STC3115_UpdateRamCRC:
 1443              	.LFB16:
 1444              		.loc 1 687 0
 1445              		.cfi_startproc
 1446              		@ args = 0, pretend = 0, frame = 16
 1447              		@ frame_needed = 0, uses_anonymous_args = 0
 1448 07e0 00B5     		push	{lr}
 1449              		.cfi_def_cfa_offset 4
 1450              		.cfi_offset 14, -4
 1451 07e2 85B0     		sub	sp, sp, #20
 1452              		.cfi_def_cfa_offset 24
 1453 07e4 0190     		str	r0, [sp, #4]
 1454              		.loc 1 689 0
 1455 07e6 019B     		ldr	r3, [sp, #4]
 1456 07e8 9B68     		ldr	r3, [r3, #8]
 1457 07ea 1B68     		ldr	r3, [r3]
 1458 07ec 5C33     		adds	r3, r3, #92
 1459 07ee 0393     		str	r3, [sp, #12]
 1460              		.loc 1 691 0
 1461 07f0 039B     		ldr	r3, [sp, #12]
 1462 07f2 1846     		mov	r0, r3
 1463 07f4 0F21     		movs	r1, #15
 1464 07f6 FFF7C3FF 		bl	STC3115_CalcRamCRC8
 1465 07fa 0290     		str	r0, [sp, #8]
 1466              		.loc 1 692 0
 1467 07fc 029B     		ldr	r3, [sp, #8]
 1468 07fe DAB2     		uxtb	r2, r3
 1469 0800 039B     		ldr	r3, [sp, #12]
 1470 0802 DA73     		strb	r2, [r3, #15]
 1471              		.loc 1 693 0
 1472 0804 029B     		ldr	r3, [sp, #8]
 1473              		.loc 1 694 0
ARM GAS  /tmp/ccAIGiUj.s 			page 27


 1474 0806 1846     		mov	r0, r3
 1475 0808 05B0     		add	sp, sp, #20
 1476              		@ sp needed
 1477 080a 5DF804FB 		ldr	pc, [sp], #4
 1478              		.cfi_endproc
 1479              	.LFE16:
 1480              		.size	STC3115_UpdateRamCRC, .-STC3115_UpdateRamCRC
 1481 080e 00BF     		.align	2
 1482              		.p2align 4,,15
 1483              		.thumb
 1484              		.thumb_func
 1485              		.type	STC3115_InitRamData, %function
 1486              	STC3115_InitRamData:
 1487              	.LFB17:
 1488              		.loc 1 703 0
 1489              		.cfi_startproc
 1490              		@ args = 0, pretend = 0, frame = 16
 1491              		@ frame_needed = 0, uses_anonymous_args = 0
 1492 0810 00B5     		push	{lr}
 1493              		.cfi_def_cfa_offset 4
 1494              		.cfi_offset 14, -4
 1495 0812 85B0     		sub	sp, sp, #20
 1496              		.cfi_def_cfa_offset 24
 1497 0814 0190     		str	r0, [sp, #4]
 1498 0816 0091     		str	r1, [sp]
 1499              		.loc 1 705 0
 1500 0818 019B     		ldr	r3, [sp, #4]
 1501 081a 9B68     		ldr	r3, [r3, #8]
 1502 081c 1B68     		ldr	r3, [r3]
 1503 081e 5C33     		adds	r3, r3, #92
 1504 0820 0293     		str	r3, [sp, #8]
 1505              		.loc 1 708 0
 1506 0822 0023     		movs	r3, #0
 1507 0824 0393     		str	r3, [sp, #12]
 1508 0826 07E0     		b	.L87
 1509              	.L88:
 1510              		.loc 1 710 0 discriminator 2
 1511 0828 029A     		ldr	r2, [sp, #8]
 1512 082a 039B     		ldr	r3, [sp, #12]
 1513 082c 1344     		add	r3, r3, r2
 1514 082e 0022     		movs	r2, #0
 1515 0830 1A70     		strb	r2, [r3]
 1516              		.loc 1 708 0 discriminator 2
 1517 0832 039B     		ldr	r3, [sp, #12]
 1518 0834 0133     		adds	r3, r3, #1
 1519 0836 0393     		str	r3, [sp, #12]
 1520              	.L87:
 1521              		.loc 1 708 0 is_stmt 0 discriminator 1
 1522 0838 039B     		ldr	r3, [sp, #12]
 1523 083a 0F2B     		cmp	r3, #15
 1524 083c F4DD     		ble	.L88
 1525              		.loc 1 713 0 is_stmt 1
 1526 083e 029B     		ldr	r3, [sp, #8]
 1527 0840 45F2A932 		movw	r2, #21417
 1528 0844 1A80     		strh	r2, [r3]	@ movhi
 1529              		.loc 1 714 0
 1530 0846 009B     		ldr	r3, [sp]
ARM GAS  /tmp/ccAIGiUj.s 			page 28


 1531 0848 DB68     		ldr	r3, [r3, #12]
 1532 084a 9AB2     		uxth	r2, r3
 1533 084c 029B     		ldr	r3, [sp, #8]
 1534 084e 9A80     		strh	r2, [r3, #4]	@ movhi
 1535              		.loc 1 715 0
 1536 0850 009B     		ldr	r3, [sp]
 1537 0852 1B69     		ldr	r3, [r3, #16]
 1538 0854 9AB2     		uxth	r2, r3
 1539 0856 029B     		ldr	r3, [sp, #8]
 1540 0858 DA80     		strh	r2, [r3, #6]	@ movhi
 1541              		.loc 1 717 0
 1542 085a 0198     		ldr	r0, [sp, #4]
 1543 085c FFF7C0FF 		bl	STC3115_UpdateRamCRC
 1544              		.loc 1 718 0
 1545 0860 05B0     		add	sp, sp, #20
 1546              		@ sp needed
 1547 0862 5DF804FB 		ldr	pc, [sp], #4
 1548              		.cfi_endproc
 1549              	.LFE17:
 1550              		.size	STC3115_InitRamData, .-STC3115_InitRamData
 1551 0866 00BF     		.align	2
 1552 0868 AFF30080 		.p2align 4,,15
 1552      AFF30080 
 1553              		.thumb
 1554              		.thumb_func
 1555              		.type	STC3115_WriteRamData, %function
 1556              	STC3115_WriteRamData:
 1557              	.LFB18:
 1558              		.loc 1 727 0
 1559              		.cfi_startproc
 1560              		@ args = 0, pretend = 0, frame = 8
 1561              		@ frame_needed = 0, uses_anonymous_args = 0
 1562 0870 00B5     		push	{lr}
 1563              		.cfi_def_cfa_offset 4
 1564              		.cfi_offset 14, -4
 1565 0872 83B0     		sub	sp, sp, #12
 1566              		.cfi_def_cfa_offset 16
 1567 0874 0190     		str	r0, [sp, #4]
 1568 0876 0091     		str	r1, [sp]
 1569              		.loc 1 728 0
 1570 0878 0198     		ldr	r0, [sp, #4]
 1571 087a 2021     		movs	r1, #32
 1572 087c 009A     		ldr	r2, [sp]
 1573 087e 1023     		movs	r3, #16
 1574 0880 FFF7FEFF 		bl	Sensor_IO_Write
 1575 0884 0346     		mov	r3, r0
 1576 0886 002B     		cmp	r3, #0
 1577 0888 02D0     		beq	.L90
 1578              		.loc 1 730 0
 1579 088a 4FF0FF33 		mov	r3, #-1
 1580 088e 00E0     		b	.L91
 1581              	.L90:
 1582              		.loc 1 734 0
 1583 0890 0023     		movs	r3, #0
 1584              	.L91:
 1585              		.loc 1 736 0
 1586 0892 1846     		mov	r0, r3
ARM GAS  /tmp/ccAIGiUj.s 			page 29


 1587 0894 03B0     		add	sp, sp, #12
 1588              		@ sp needed
 1589 0896 5DF804FB 		ldr	pc, [sp], #4
 1590              		.cfi_endproc
 1591              	.LFE18:
 1592              		.size	STC3115_WriteRamData, .-STC3115_WriteRamData
 1593 089a 00BF     		.align	2
 1594 089c AFF30080 		.p2align 4,,15
 1595              		.thumb
 1596              		.thumb_func
 1597              		.type	STC3115_ReadRamData, %function
 1598              	STC3115_ReadRamData:
 1599              	.LFB19:
 1600              		.loc 1 745 0
 1601              		.cfi_startproc
 1602              		@ args = 0, pretend = 0, frame = 8
 1603              		@ frame_needed = 0, uses_anonymous_args = 0
 1604 08a0 00B5     		push	{lr}
 1605              		.cfi_def_cfa_offset 4
 1606              		.cfi_offset 14, -4
 1607 08a2 83B0     		sub	sp, sp, #12
 1608              		.cfi_def_cfa_offset 16
 1609 08a4 0190     		str	r0, [sp, #4]
 1610 08a6 0091     		str	r1, [sp]
 1611              		.loc 1 746 0
 1612 08a8 0198     		ldr	r0, [sp, #4]
 1613 08aa 2021     		movs	r1, #32
 1614 08ac 009A     		ldr	r2, [sp]
 1615 08ae 1023     		movs	r3, #16
 1616 08b0 FFF7FEFF 		bl	Sensor_IO_Read
 1617 08b4 0346     		mov	r3, r0
 1618 08b6 002B     		cmp	r3, #0
 1619 08b8 02D0     		beq	.L93
 1620              		.loc 1 748 0
 1621 08ba 4FF0FF33 		mov	r3, #-1
 1622 08be 00E0     		b	.L94
 1623              	.L93:
 1624              		.loc 1 752 0
 1625 08c0 0023     		movs	r3, #0
 1626              	.L94:
 1627              		.loc 1 754 0
 1628 08c2 1846     		mov	r0, r3
 1629 08c4 03B0     		add	sp, sp, #12
 1630              		@ sp needed
 1631 08c6 5DF804FB 		ldr	pc, [sp], #4
 1632              		.cfi_endproc
 1633              	.LFE19:
 1634              		.size	STC3115_ReadRamData, .-STC3115_ReadRamData
 1635 08ca 00BF     		.align	2
 1636 08cc AFF30080 		.p2align 4,,15
 1637              		.thumb
 1638              		.thumb_func
 1639              		.type	STC3115_ReadBatteryData, %function
 1640              	STC3115_ReadBatteryData:
 1641              	.LFB20:
 1642              		.loc 1 762 0
 1643              		.cfi_startproc
ARM GAS  /tmp/ccAIGiUj.s 			page 30


 1644              		@ args = 0, pretend = 0, frame = 32
 1645              		@ frame_needed = 0, uses_anonymous_args = 0
 1646 08d0 00B5     		push	{lr}
 1647              		.cfi_def_cfa_offset 4
 1648              		.cfi_offset 14, -4
 1649 08d2 89B0     		sub	sp, sp, #36
 1650              		.cfi_def_cfa_offset 40
 1651 08d4 0190     		str	r0, [sp, #4]
 1652 08d6 0091     		str	r1, [sp]
 1653              		.loc 1 769 0
 1654 08d8 02AB     		add	r3, sp, #8
 1655 08da 0198     		ldr	r0, [sp, #4]
 1656 08dc 0021     		movs	r1, #0
 1657 08de 1A46     		mov	r2, r3
 1658 08e0 0F23     		movs	r3, #15
 1659 08e2 00F04DF9 		bl	STC3115_Read
 1660 08e6 0690     		str	r0, [sp, #24]
 1661              		.loc 1 771 0
 1662 08e8 069B     		ldr	r3, [sp, #24]
 1663 08ea 002B     		cmp	r3, #0
 1664 08ec 01DA     		bge	.L96
 1665              		.loc 1 771 0 is_stmt 0 discriminator 1
 1666 08ee 069B     		ldr	r3, [sp, #24]
 1667 08f0 A2E0     		b	.L104
 1668              	.L96:
 1669              		.loc 1 775 0 is_stmt 1
 1670 08f2 9DF80B30 		ldrb	r3, [sp, #11]	@ zero_extendqisi2
 1671 08f6 0793     		str	r3, [sp, #28]
 1672              		.loc 1 776 0
 1673 08f8 079B     		ldr	r3, [sp, #28]
 1674 08fa 1A02     		lsls	r2, r3, #8
 1675 08fc 9DF80A30 		ldrb	r3, [sp, #10]	@ zero_extendqisi2
 1676 0900 1344     		add	r3, r3, r2
 1677 0902 0793     		str	r3, [sp, #28]
 1678              		.loc 1 777 0
 1679 0904 009B     		ldr	r3, [sp]
 1680 0906 079A     		ldr	r2, [sp, #28]
 1681 0908 5A60     		str	r2, [r3, #4]
 1682              		.loc 1 778 0
 1683 090a 079A     		ldr	r2, [sp, #28]
 1684 090c 1346     		mov	r3, r2
 1685 090e 9B00     		lsls	r3, r3, #2
 1686 0910 1344     		add	r3, r3, r2
 1687 0912 5B00     		lsls	r3, r3, #1
 1688 0914 03F58073 		add	r3, r3, #256
 1689 0918 002B     		cmp	r3, #0
 1690 091a 01DA     		bge	.L98
 1691 091c 03F2FF13 		addw	r3, r3, #511
 1692              	.L98:
 1693 0920 5B12     		asrs	r3, r3, #9
 1694 0922 1A46     		mov	r2, r3
 1695 0924 009B     		ldr	r3, [sp]
 1696 0926 9A60     		str	r2, [r3, #8]
 1697              		.loc 1 781 0
 1698 0928 9DF80D30 		ldrb	r3, [sp, #13]	@ zero_extendqisi2
 1699 092c 0793     		str	r3, [sp, #28]
 1700              		.loc 1 782 0
ARM GAS  /tmp/ccAIGiUj.s 			page 31


 1701 092e 079B     		ldr	r3, [sp, #28]
 1702 0930 1A02     		lsls	r2, r3, #8
 1703 0932 9DF80C30 		ldrb	r3, [sp, #12]	@ zero_extendqisi2
 1704 0936 1344     		add	r3, r3, r2
 1705 0938 0793     		str	r3, [sp, #28]
 1706              		.loc 1 783 0
 1707 093a 009B     		ldr	r3, [sp]
 1708 093c 079A     		ldr	r2, [sp, #28]
 1709 093e 9A61     		str	r2, [r3, #24]
 1710              		.loc 1 786 0
 1711 0940 9DF80F30 		ldrb	r3, [sp, #15]	@ zero_extendqisi2
 1712 0944 0793     		str	r3, [sp, #28]
 1713              		.loc 1 787 0
 1714 0946 079B     		ldr	r3, [sp, #28]
 1715 0948 1A02     		lsls	r2, r3, #8
 1716 094a 9DF80E30 		ldrb	r3, [sp, #14]	@ zero_extendqisi2
 1717 094e 1344     		add	r3, r3, r2
 1718 0950 0793     		str	r3, [sp, #28]
 1719              		.loc 1 788 0
 1720 0952 079B     		ldr	r3, [sp, #28]
 1721 0954 C3F30D03 		ubfx	r3, r3, #0, #14
 1722 0958 0793     		str	r3, [sp, #28]
 1723              		.loc 1 789 0
 1724 095a 079B     		ldr	r3, [sp, #28]
 1725 095c B3F5005F 		cmp	r3, #8192
 1726 0960 03DB     		blt	.L99
 1727              		.loc 1 789 0 is_stmt 0 discriminator 1
 1728 0962 079B     		ldr	r3, [sp, #28]
 1729 0964 A3F58043 		sub	r3, r3, #16384
 1730 0968 0793     		str	r3, [sp, #28]
 1731              	.L99:
 1732              		.loc 1 790 0 is_stmt 1
 1733 096a 079B     		ldr	r3, [sp, #28]
 1734 096c 9BB2     		uxth	r3, r3
 1735 096e 1BB2     		sxth	r3, r3
 1736 0970 1846     		mov	r0, r3
 1737 0972 40F2E111 		movw	r1, #481
 1738 0976 00F0BBF8 		bl	STC3115_conv
 1739 097a 0246     		mov	r2, r0
 1740 097c 009B     		ldr	r3, [sp]
 1741 097e 1A61     		str	r2, [r3, #16]
 1742              		.loc 1 793 0
 1743 0980 9DF81130 		ldrb	r3, [sp, #17]	@ zero_extendqisi2
 1744 0984 0793     		str	r3, [sp, #28]
 1745              		.loc 1 794 0
 1746 0986 079B     		ldr	r3, [sp, #28]
 1747 0988 1A02     		lsls	r2, r3, #8
 1748 098a 9DF81030 		ldrb	r3, [sp, #16]	@ zero_extendqisi2
 1749 098e 1344     		add	r3, r3, r2
 1750 0990 0793     		str	r3, [sp, #28]
 1751              		.loc 1 795 0
 1752 0992 079B     		ldr	r3, [sp, #28]
 1753 0994 C3F30B03 		ubfx	r3, r3, #0, #12
 1754 0998 0793     		str	r3, [sp, #28]
 1755              		.loc 1 796 0
 1756 099a 079B     		ldr	r3, [sp, #28]
 1757 099c B3F5006F 		cmp	r3, #2048
ARM GAS  /tmp/ccAIGiUj.s 			page 32


 1758 09a0 03DB     		blt	.L100
 1759              		.loc 1 796 0 is_stmt 0 discriminator 1
 1760 09a2 079B     		ldr	r3, [sp, #28]
 1761 09a4 A3F58053 		sub	r3, r3, #4096
 1762 09a8 0793     		str	r3, [sp, #28]
 1763              	.L100:
 1764              		.loc 1 797 0 is_stmt 1
 1765 09aa 079B     		ldr	r3, [sp, #28]
 1766 09ac 9BB2     		uxth	r3, r3
 1767 09ae 1BB2     		sxth	r3, r3
 1768 09b0 1846     		mov	r0, r3
 1769 09b2 42F23331 		movw	r1, #9011
 1770 09b6 00F09BF8 		bl	STC3115_conv
 1771 09ba 0790     		str	r0, [sp, #28]
 1772              		.loc 1 798 0
 1773 09bc 009B     		ldr	r3, [sp]
 1774 09be 079A     		ldr	r2, [sp, #28]
 1775 09c0 DA60     		str	r2, [r3, #12]
 1776              		.loc 1 801 0
 1777 09c2 9DF81230 		ldrb	r3, [sp, #18]	@ zero_extendqisi2
 1778 09c6 0793     		str	r3, [sp, #28]
 1779              		.loc 1 802 0
 1780 09c8 079B     		ldr	r3, [sp, #28]
 1781 09ca 7F2B     		cmp	r3, #127
 1782 09cc 03DD     		ble	.L101
 1783              		.loc 1 802 0 is_stmt 0 discriminator 1
 1784 09ce 079B     		ldr	r3, [sp, #28]
 1785 09d0 A3F58073 		sub	r3, r3, #256
 1786 09d4 0793     		str	r3, [sp, #28]
 1787              	.L101:
 1788              		.loc 1 803 0 is_stmt 1
 1789 09d6 079A     		ldr	r2, [sp, #28]
 1790 09d8 1346     		mov	r3, r2
 1791 09da 9B00     		lsls	r3, r3, #2
 1792 09dc 1344     		add	r3, r3, r2
 1793 09de 5B00     		lsls	r3, r3, #1
 1794 09e0 1A46     		mov	r2, r3
 1795 09e2 009B     		ldr	r3, [sp]
 1796 09e4 5A61     		str	r2, [r3, #20]
 1797              		.loc 1 806 0
 1798 09e6 9DF81630 		ldrb	r3, [sp, #22]	@ zero_extendqisi2
 1799 09ea 0793     		str	r3, [sp, #28]
 1800              		.loc 1 807 0
 1801 09ec 079B     		ldr	r3, [sp, #28]
 1802 09ee 1A02     		lsls	r2, r3, #8
 1803 09f0 9DF81530 		ldrb	r3, [sp, #21]	@ zero_extendqisi2
 1804 09f4 1344     		add	r3, r3, r2
 1805 09f6 0793     		str	r3, [sp, #28]
 1806              		.loc 1 808 0
 1807 09f8 079B     		ldr	r3, [sp, #28]
 1808 09fa C3F30D03 		ubfx	r3, r3, #0, #14
 1809 09fe 0793     		str	r3, [sp, #28]
 1810              		.loc 1 809 0
 1811 0a00 079B     		ldr	r3, [sp, #28]
 1812 0a02 B3F5005F 		cmp	r3, #8192
 1813 0a06 03DB     		blt	.L102
 1814              		.loc 1 809 0 is_stmt 0 discriminator 1
ARM GAS  /tmp/ccAIGiUj.s 			page 33


 1815 0a08 079B     		ldr	r3, [sp, #28]
 1816 0a0a A3F58043 		sub	r3, r3, #16384
 1817 0a0e 0793     		str	r3, [sp, #28]
 1818              	.L102:
 1819              		.loc 1 810 0 is_stmt 1
 1820 0a10 079B     		ldr	r3, [sp, #28]
 1821 0a12 9BB2     		uxth	r3, r3
 1822 0a14 1BB2     		sxth	r3, r3
 1823 0a16 1846     		mov	r0, r3
 1824 0a18 42F23331 		movw	r1, #9011
 1825 0a1c 00F068F8 		bl	STC3115_conv
 1826 0a20 0790     		str	r0, [sp, #28]
 1827              		.loc 1 811 0
 1828 0a22 079B     		ldr	r3, [sp, #28]
 1829 0a24 0233     		adds	r3, r3, #2
 1830 0a26 002B     		cmp	r3, #0
 1831 0a28 00DA     		bge	.L103
 1832 0a2a 0333     		adds	r3, r3, #3
 1833              	.L103:
 1834 0a2c 9B10     		asrs	r3, r3, #2
 1835 0a2e 0793     		str	r3, [sp, #28]
 1836              		.loc 1 812 0
 1837 0a30 009B     		ldr	r3, [sp]
 1838 0a32 079A     		ldr	r2, [sp, #28]
 1839 0a34 DA61     		str	r2, [r3, #28]
 1840              		.loc 1 814 0
 1841 0a36 0023     		movs	r3, #0
 1842              	.L104:
 1843              		.loc 1 815 0
 1844 0a38 1846     		mov	r0, r3
 1845 0a3a 09B0     		add	sp, sp, #36
 1846              		@ sp needed
 1847 0a3c 5DF804FB 		ldr	pc, [sp], #4
 1848              		.cfi_endproc
 1849              	.LFE20:
 1850              		.size	STC3115_ReadBatteryData, .-STC3115_ReadBatteryData
 1851              		.align	2
 1852              		.p2align 4,,15
 1853              		.thumb
 1854              		.thumb_func
 1855              		.type	STC3115_Restore, %function
 1856              	STC3115_Restore:
 1857              	.LFB21:
 1858              		.loc 1 823 0
 1859              		.cfi_startproc
 1860              		@ args = 0, pretend = 0, frame = 16
 1861              		@ frame_needed = 0, uses_anonymous_args = 0
 1862 0a40 00B5     		push	{lr}
 1863              		.cfi_def_cfa_offset 4
 1864              		.cfi_offset 14, -4
 1865 0a42 85B0     		sub	sp, sp, #20
 1866              		.cfi_def_cfa_offset 24
 1867 0a44 0190     		str	r0, [sp, #4]
 1868 0a46 0091     		str	r1, [sp]
 1869              		.loc 1 825 0
 1870 0a48 019B     		ldr	r3, [sp, #4]
 1871 0a4a 9B68     		ldr	r3, [r3, #8]
ARM GAS  /tmp/ccAIGiUj.s 			page 34


 1872 0a4c 1B68     		ldr	r3, [r3]
 1873 0a4e 5C33     		adds	r3, r3, #92
 1874 0a50 0293     		str	r3, [sp, #8]
 1875              		.loc 1 828 0
 1876 0a52 0198     		ldr	r0, [sp, #4]
 1877 0a54 FFF764FE 		bl	STC3115_Status
 1878 0a58 0390     		str	r0, [sp, #12]
 1879              		.loc 1 829 0
 1880 0a5a 039B     		ldr	r3, [sp, #12]
 1881 0a5c 002B     		cmp	r3, #0
 1882 0a5e 01DA     		bge	.L106
 1883              		.loc 1 829 0 is_stmt 0 discriminator 1
 1884 0a60 039B     		ldr	r3, [sp, #12]
 1885 0a62 17E0     		b	.L107
 1886              	.L106:
 1887              		.loc 1 831 0 is_stmt 1
 1888 0a64 0198     		ldr	r0, [sp, #4]
 1889 0a66 0099     		ldr	r1, [sp]
 1890 0a68 00F012F9 		bl	STC3115_SetParam
 1891              		.loc 1 834 0
 1892 0a6c 0023     		movs	r3, #0
 1893 0a6e 0393     		str	r3, [sp, #12]
 1894              		.loc 1 836 0
 1895 0a70 029B     		ldr	r3, [sp, #8]
 1896 0a72 5B7A     		ldrb	r3, [r3, #9]	@ zero_extendqisi2
 1897 0a74 522B     		cmp	r3, #82
 1898 0a76 0CD1     		bne	.L108
 1899              		.loc 1 838 0
 1900 0a78 029B     		ldr	r3, [sp, #8]
 1901 0a7a 5B88     		ldrh	r3, [r3, #2]
 1902 0a7c 002B     		cmp	r3, #0
 1903 0a7e 08D0     		beq	.L108
 1904              		.loc 1 840 0
 1905 0a80 029B     		ldr	r3, [sp, #8]
 1906 0a82 5B88     		ldrh	r3, [r3, #2]
 1907 0a84 1BB2     		sxth	r3, r3
 1908 0a86 0198     		ldr	r0, [sp, #4]
 1909 0a88 0221     		movs	r1, #2
 1910 0a8a 1A46     		mov	r2, r3
 1911 0a8c 00F0E0F8 		bl	STC3115_WriteWord
 1912 0a90 0390     		str	r0, [sp, #12]
 1913              	.L108:
 1914              		.loc 1 843 0
 1915 0a92 039B     		ldr	r3, [sp, #12]
 1916              	.L107:
 1917              		.loc 1 844 0
 1918 0a94 1846     		mov	r0, r3
 1919 0a96 05B0     		add	sp, sp, #20
 1920              		@ sp needed
 1921 0a98 5DF804FB 		ldr	pc, [sp], #4
 1922              		.cfi_endproc
 1923              	.LFE21:
 1924              		.size	STC3115_Restore, .-STC3115_Restore
 1925              		.align	2
 1926 0a9c AFF30080 		.p2align 4,,15
 1927              		.thumb
 1928              		.thumb_func
ARM GAS  /tmp/ccAIGiUj.s 			page 35


 1929              		.type	STC3115_Powerdown, %function
 1930              	STC3115_Powerdown:
 1931              	.LFB22:
 1932              		.loc 1 852 0
 1933              		.cfi_startproc
 1934              		@ args = 0, pretend = 0, frame = 16
 1935              		@ frame_needed = 0, uses_anonymous_args = 0
 1936 0aa0 00B5     		push	{lr}
 1937              		.cfi_def_cfa_offset 4
 1938              		.cfi_offset 14, -4
 1939 0aa2 85B0     		sub	sp, sp, #20
 1940              		.cfi_def_cfa_offset 24
 1941 0aa4 0190     		str	r0, [sp, #4]
 1942              		.loc 1 857 0
 1943 0aa6 0123     		movs	r3, #1
 1944 0aa8 8DF80B30 		strb	r3, [sp, #11]
 1945              		.loc 1 858 0
 1946 0aac 0DF10B03 		add	r3, sp, #11
 1947 0ab0 0198     		ldr	r0, [sp, #4]
 1948 0ab2 0121     		movs	r1, #1
 1949 0ab4 1A46     		mov	r2, r3
 1950 0ab6 0123     		movs	r3, #1
 1951 0ab8 00F082F8 		bl	STC3115_Write
 1952              		.loc 1 861 0
 1953 0abc 0023     		movs	r3, #0
 1954 0abe 8DF80B30 		strb	r3, [sp, #11]
 1955              		.loc 1 862 0
 1956 0ac2 0DF10B03 		add	r3, sp, #11
 1957 0ac6 0198     		ldr	r0, [sp, #4]
 1958 0ac8 0021     		movs	r1, #0
 1959 0aca 1A46     		mov	r2, r3
 1960 0acc 0123     		movs	r3, #1
 1961 0ace 00F077F8 		bl	STC3115_Write
 1962 0ad2 0390     		str	r0, [sp, #12]
 1963              		.loc 1 863 0
 1964 0ad4 039B     		ldr	r3, [sp, #12]
 1965 0ad6 002B     		cmp	r3, #0
 1966 0ad8 01D0     		beq	.L110
 1967              		.loc 1 863 0 is_stmt 0 discriminator 1
 1968 0ada 039B     		ldr	r3, [sp, #12]
 1969 0adc 00E0     		b	.L112
 1970              	.L110:
 1971              		.loc 1 865 0 is_stmt 1
 1972 0ade 0023     		movs	r3, #0
 1973              	.L112:
 1974              		.loc 1 866 0
 1975 0ae0 1846     		mov	r0, r3
 1976 0ae2 05B0     		add	sp, sp, #20
 1977              		@ sp needed
 1978 0ae4 5DF804FB 		ldr	pc, [sp], #4
 1979              		.cfi_endproc
 1980              	.LFE22:
 1981              		.size	STC3115_Powerdown, .-STC3115_Powerdown
 1982              		.align	2
 1983 0ae8 AFF30080 		.p2align 4,,15
 1983      AFF30080 
 1984              		.thumb
ARM GAS  /tmp/ccAIGiUj.s 			page 36


 1985              		.thumb_func
 1986              		.type	STC3115_conv, %function
 1987              	STC3115_conv:
 1988              	.LFB23:
 1989              		.loc 1 875 0
 1990              		.cfi_startproc
 1991              		@ args = 0, pretend = 0, frame = 16
 1992              		@ frame_needed = 0, uses_anonymous_args = 0
 1993              		@ link register save eliminated.
 1994 0af0 84B0     		sub	sp, sp, #16
 1995              		.cfi_def_cfa_offset 16
 1996 0af2 0246     		mov	r2, r0
 1997 0af4 0B46     		mov	r3, r1
 1998 0af6 ADF80620 		strh	r2, [sp, #6]	@ movhi
 1999 0afa ADF80430 		strh	r3, [sp, #4]	@ movhi
 2000              		.loc 1 878 0
 2001 0afe BDF90630 		ldrsh	r3, [sp, #6]
 2002 0b02 BDF80420 		ldrh	r2, [sp, #4]
 2003 0b06 02FB03F3 		mul	r3, r2, r3
 2004 0b0a DB12     		asrs	r3, r3, #11
 2005 0b0c 0393     		str	r3, [sp, #12]
 2006              		.loc 1 879 0
 2007 0b0e 039B     		ldr	r3, [sp, #12]
 2008 0b10 0133     		adds	r3, r3, #1
 2009 0b12 DA0F     		lsrs	r2, r3, #31
 2010 0b14 1344     		add	r3, r3, r2
 2011 0b16 5B10     		asrs	r3, r3, #1
 2012 0b18 0393     		str	r3, [sp, #12]
 2013              		.loc 1 881 0
 2014 0b1a 039B     		ldr	r3, [sp, #12]
 2015              		.loc 1 882 0
 2016 0b1c 1846     		mov	r0, r3
 2017 0b1e 04B0     		add	sp, sp, #16
 2018              		@ sp needed
 2019 0b20 7047     		bx	lr
 2020              		.cfi_endproc
 2021              	.LFE23:
 2022              		.size	STC3115_conv, .-STC3115_conv
 2023 0b22 00BF     		.align	2
 2024 0b24 AFF30080 		.p2align 4,,15
 2024      AFF30080 
 2024      AFF30080 
 2025              		.thumb
 2026              		.thumb_func
 2027              		.type	STC3115_Startup, %function
 2028              	STC3115_Startup:
 2029              	.LFB24:
 2030              		.loc 1 890 0
 2031              		.cfi_startproc
 2032              		@ args = 0, pretend = 0, frame = 16
 2033              		@ frame_needed = 0, uses_anonymous_args = 0
 2034 0b30 00B5     		push	{lr}
 2035              		.cfi_def_cfa_offset 4
 2036              		.cfi_offset 14, -4
 2037 0b32 85B0     		sub	sp, sp, #20
 2038              		.cfi_def_cfa_offset 24
 2039 0b34 0190     		str	r0, [sp, #4]
ARM GAS  /tmp/ccAIGiUj.s 			page 37


 2040 0b36 0091     		str	r1, [sp]
 2041              		.loc 1 895 0
 2042 0b38 0198     		ldr	r0, [sp, #4]
 2043 0b3a FFF7F1FD 		bl	STC3115_Status
 2044 0b3e 0390     		str	r0, [sp, #12]
 2045              		.loc 1 896 0
 2046 0b40 039B     		ldr	r3, [sp, #12]
 2047 0b42 002B     		cmp	r3, #0
 2048 0b44 01DA     		bge	.L116
 2049              		.loc 1 896 0 is_stmt 0 discriminator 1
 2050 0b46 039B     		ldr	r3, [sp, #12]
 2051 0b48 10E0     		b	.L118
 2052              	.L116:
 2053              		.loc 1 899 0 is_stmt 1
 2054 0b4a 02AB     		add	r3, sp, #8
 2055 0b4c 0198     		ldr	r0, [sp, #4]
 2056 0b4e 0D21     		movs	r1, #13
 2057 0b50 1A46     		mov	r2, r3
 2058 0b52 00F055F8 		bl	STC3115_ReadWord
 2059              		.loc 1 901 0
 2060 0b56 0198     		ldr	r0, [sp, #4]
 2061 0b58 0099     		ldr	r1, [sp]
 2062 0b5a 00F099F8 		bl	STC3115_SetParam
 2063              		.loc 1 904 0
 2064 0b5e 029B     		ldr	r3, [sp, #8]
 2065 0b60 0198     		ldr	r0, [sp, #4]
 2066 0b62 0D21     		movs	r1, #13
 2067 0b64 1A46     		mov	r2, r3
 2068 0b66 00F073F8 		bl	STC3115_WriteWord
 2069              		.loc 1 906 0
 2070 0b6a 0023     		movs	r3, #0
 2071              	.L118:
 2072              		.loc 1 907 0
 2073 0b6c 1846     		mov	r0, r3
 2074 0b6e 05B0     		add	sp, sp, #20
 2075              		@ sp needed
 2076 0b70 5DF804FB 		ldr	pc, [sp], #4
 2077              		.cfi_endproc
 2078              	.LFE24:
 2079              		.size	STC3115_Startup, .-STC3115_Startup
 2080              		.align	2
 2081 0b74 AFF30080 		.p2align 4,,15
 2081      AFF30080 
 2081      AFF30080 
 2082              		.thumb
 2083              		.thumb_func
 2084              		.type	STC3115_Read, %function
 2085              	STC3115_Read:
 2086              	.LFB25:
 2087              		.loc 1 916 0
 2088              		.cfi_startproc
 2089              		@ args = 0, pretend = 0, frame = 16
 2090              		@ frame_needed = 0, uses_anonymous_args = 0
 2091 0b80 00B5     		push	{lr}
 2092              		.cfi_def_cfa_offset 4
 2093              		.cfi_offset 14, -4
 2094 0b82 85B0     		sub	sp, sp, #20
ARM GAS  /tmp/ccAIGiUj.s 			page 38


 2095              		.cfi_def_cfa_offset 24
 2096 0b84 0390     		str	r0, [sp, #12]
 2097 0b86 0192     		str	r2, [sp, #4]
 2098 0b88 0A46     		mov	r2, r1
 2099 0b8a 8DF80B20 		strb	r2, [sp, #11]
 2100 0b8e ADF80830 		strh	r3, [sp, #8]	@ movhi
 2101              		.loc 1 917 0
 2102 0b92 9DF80B20 		ldrb	r2, [sp, #11]	@ zero_extendqisi2
 2103 0b96 BDF80830 		ldrh	r3, [sp, #8]
 2104 0b9a 0398     		ldr	r0, [sp, #12]
 2105 0b9c 1146     		mov	r1, r2
 2106 0b9e 019A     		ldr	r2, [sp, #4]
 2107 0ba0 FFF7FEFF 		bl	Sensor_IO_Read
 2108 0ba4 0346     		mov	r3, r0
 2109 0ba6 002B     		cmp	r3, #0
 2110 0ba8 02D0     		beq	.L120
 2111              		.loc 1 919 0
 2112 0baa 4FF0FF33 		mov	r3, #-1
 2113 0bae 00E0     		b	.L121
 2114              	.L120:
 2115              		.loc 1 923 0
 2116 0bb0 0023     		movs	r3, #0
 2117              	.L121:
 2118              		.loc 1 925 0
 2119 0bb2 1846     		mov	r0, r3
 2120 0bb4 05B0     		add	sp, sp, #20
 2121              		@ sp needed
 2122 0bb6 5DF804FB 		ldr	pc, [sp], #4
 2123              		.cfi_endproc
 2124              	.LFE25:
 2125              		.size	STC3115_Read, .-STC3115_Read
 2126 0bba 00BF     		.align	2
 2127 0bbc AFF30080 		.p2align 4,,15
 2128              		.thumb
 2129              		.thumb_func
 2130              		.type	STC3115_Write, %function
 2131              	STC3115_Write:
 2132              	.LFB26:
 2133              		.loc 1 934 0
 2134              		.cfi_startproc
 2135              		@ args = 0, pretend = 0, frame = 16
 2136              		@ frame_needed = 0, uses_anonymous_args = 0
 2137 0bc0 00B5     		push	{lr}
 2138              		.cfi_def_cfa_offset 4
 2139              		.cfi_offset 14, -4
 2140 0bc2 85B0     		sub	sp, sp, #20
 2141              		.cfi_def_cfa_offset 24
 2142 0bc4 0390     		str	r0, [sp, #12]
 2143 0bc6 0192     		str	r2, [sp, #4]
 2144 0bc8 0A46     		mov	r2, r1
 2145 0bca 8DF80B20 		strb	r2, [sp, #11]
 2146 0bce ADF80830 		strh	r3, [sp, #8]	@ movhi
 2147              		.loc 1 935 0
 2148 0bd2 9DF80B20 		ldrb	r2, [sp, #11]	@ zero_extendqisi2
 2149 0bd6 BDF80830 		ldrh	r3, [sp, #8]
 2150 0bda 0398     		ldr	r0, [sp, #12]
 2151 0bdc 1146     		mov	r1, r2
ARM GAS  /tmp/ccAIGiUj.s 			page 39


 2152 0bde 019A     		ldr	r2, [sp, #4]
 2153 0be0 FFF7FEFF 		bl	Sensor_IO_Write
 2154 0be4 0346     		mov	r3, r0
 2155 0be6 002B     		cmp	r3, #0
 2156 0be8 02D0     		beq	.L123
 2157              		.loc 1 937 0
 2158 0bea 4FF0FF33 		mov	r3, #-1
 2159 0bee 00E0     		b	.L124
 2160              	.L123:
 2161              		.loc 1 941 0
 2162 0bf0 0023     		movs	r3, #0
 2163              	.L124:
 2164              		.loc 1 943 0
 2165 0bf2 1846     		mov	r0, r3
 2166 0bf4 05B0     		add	sp, sp, #20
 2167              		@ sp needed
 2168 0bf6 5DF804FB 		ldr	pc, [sp], #4
 2169              		.cfi_endproc
 2170              	.LFE26:
 2171              		.size	STC3115_Write, .-STC3115_Write
 2172 0bfa 00BF     		.align	2
 2173 0bfc AFF30080 		.p2align 4,,15
 2174              		.thumb
 2175              		.thumb_func
 2176              		.type	STC3115_ReadWord, %function
 2177              	STC3115_ReadWord:
 2178              	.LFB27:
 2179              		.loc 1 952 0
 2180              		.cfi_startproc
 2181              		@ args = 0, pretend = 0, frame = 24
 2182              		@ frame_needed = 0, uses_anonymous_args = 0
 2183 0c00 00B5     		push	{lr}
 2184              		.cfi_def_cfa_offset 4
 2185              		.cfi_offset 14, -4
 2186 0c02 87B0     		sub	sp, sp, #28
 2187              		.cfi_def_cfa_offset 32
 2188 0c04 0390     		str	r0, [sp, #12]
 2189 0c06 0B46     		mov	r3, r1
 2190 0c08 0192     		str	r2, [sp, #4]
 2191 0c0a 8DF80B30 		strb	r3, [sp, #11]
 2192              		.loc 1 955 0
 2193 0c0e 9DF80B20 		ldrb	r2, [sp, #11]	@ zero_extendqisi2
 2194 0c12 0DF11603 		add	r3, sp, #22
 2195 0c16 0398     		ldr	r0, [sp, #12]
 2196 0c18 1146     		mov	r1, r2
 2197 0c1a 1A46     		mov	r2, r3
 2198 0c1c 0223     		movs	r3, #2
 2199 0c1e FFF7FEFF 		bl	Sensor_IO_Read
 2200 0c22 0346     		mov	r3, r0
 2201 0c24 002B     		cmp	r3, #0
 2202 0c26 02D0     		beq	.L126
 2203              		.loc 1 957 0
 2204 0c28 4FF0FF33 		mov	r3, #-1
 2205 0c2c 05E0     		b	.L128
 2206              	.L126:
 2207              		.loc 1 961 0
 2208 0c2e BDF81630 		ldrh	r3, [sp, #22]
ARM GAS  /tmp/ccAIGiUj.s 			page 40


 2209 0c32 1A46     		mov	r2, r3
 2210 0c34 019B     		ldr	r3, [sp, #4]
 2211 0c36 1A60     		str	r2, [r3]
 2212              		.loc 1 962 0
 2213 0c38 0023     		movs	r3, #0
 2214              	.L128:
 2215              		.loc 1 964 0
 2216 0c3a 1846     		mov	r0, r3
 2217 0c3c 07B0     		add	sp, sp, #28
 2218              		@ sp needed
 2219 0c3e 5DF804FB 		ldr	pc, [sp], #4
 2220              		.cfi_endproc
 2221              	.LFE27:
 2222              		.size	STC3115_ReadWord, .-STC3115_ReadWord
 2223 0c42 00BF     		.align	2
 2224 0c44 AFF30080 		.p2align 4,,15
 2224      AFF30080 
 2224      AFF30080 
 2225              		.thumb
 2226              		.thumb_func
 2227              		.type	STC3115_WriteWord, %function
 2228              	STC3115_WriteWord:
 2229              	.LFB28:
 2230              		.loc 1 974 0
 2231              		.cfi_startproc
 2232              		@ args = 0, pretend = 0, frame = 24
 2233              		@ frame_needed = 0, uses_anonymous_args = 0
 2234 0c50 00B5     		push	{lr}
 2235              		.cfi_def_cfa_offset 4
 2236              		.cfi_offset 14, -4
 2237 0c52 87B0     		sub	sp, sp, #28
 2238              		.cfi_def_cfa_offset 32
 2239 0c54 0390     		str	r0, [sp, #12]
 2240 0c56 0B46     		mov	r3, r1
 2241 0c58 0192     		str	r2, [sp, #4]
 2242 0c5a 8DF80B30 		strb	r3, [sp, #11]
 2243              		.loc 1 975 0
 2244 0c5e 019B     		ldr	r3, [sp, #4]
 2245 0c60 9BB2     		uxth	r3, r3
 2246 0c62 ADF81630 		strh	r3, [sp, #22]	@ movhi
 2247              		.loc 1 977 0
 2248 0c66 9DF80B20 		ldrb	r2, [sp, #11]	@ zero_extendqisi2
 2249 0c6a 0DF11603 		add	r3, sp, #22
 2250 0c6e 0398     		ldr	r0, [sp, #12]
 2251 0c70 1146     		mov	r1, r2
 2252 0c72 1A46     		mov	r2, r3
 2253 0c74 0223     		movs	r3, #2
 2254 0c76 FFF7FEFF 		bl	Sensor_IO_Write
 2255 0c7a 0346     		mov	r3, r0
 2256 0c7c 002B     		cmp	r3, #0
 2257 0c7e 02D0     		beq	.L130
 2258              		.loc 1 979 0
 2259 0c80 4FF0FF33 		mov	r3, #-1
 2260 0c84 00E0     		b	.L132
 2261              	.L130:
 2262              		.loc 1 983 0
 2263 0c86 0023     		movs	r3, #0
ARM GAS  /tmp/ccAIGiUj.s 			page 41


 2264              	.L132:
 2265              		.loc 1 985 0
 2266 0c88 1846     		mov	r0, r3
 2267 0c8a 07B0     		add	sp, sp, #28
 2268              		@ sp needed
 2269 0c8c 5DF804FB 		ldr	pc, [sp], #4
 2270              		.cfi_endproc
 2271              	.LFE28:
 2272              		.size	STC3115_WriteWord, .-STC3115_WriteWord
 2273              		.align	2
 2274              		.p2align 4,,15
 2275              		.thumb
 2276              		.thumb_func
 2277              		.type	STC3115_SetParam, %function
 2278              	STC3115_SetParam:
 2279              	.LFB29:
 2280              		.loc 1 993 0
 2281              		.cfi_startproc
 2282              		@ args = 0, pretend = 0, frame = 16
 2283              		@ frame_needed = 0, uses_anonymous_args = 0
 2284 0c90 00B5     		push	{lr}
 2285              		.cfi_def_cfa_offset 4
 2286              		.cfi_offset 14, -4
 2287 0c92 85B0     		sub	sp, sp, #20
 2288              		.cfi_def_cfa_offset 24
 2289 0c94 0190     		str	r0, [sp, #4]
 2290 0c96 0091     		str	r1, [sp]
 2291              		.loc 1 995 0
 2292 0c98 019B     		ldr	r3, [sp, #4]
 2293 0c9a 9B68     		ldr	r3, [r3, #8]
 2294 0c9c 1B68     		ldr	r3, [r3]
 2295 0c9e 5C33     		adds	r3, r3, #92
 2296 0ca0 0393     		str	r3, [sp, #12]
 2297              		.loc 1 998 0
 2298 0ca2 0123     		movs	r3, #1
 2299 0ca4 8DF80B30 		strb	r3, [sp, #11]
 2300              		.loc 1 999 0
 2301 0ca8 0DF10B03 		add	r3, sp, #11
 2302 0cac 0198     		ldr	r0, [sp, #4]
 2303 0cae 0021     		movs	r1, #0
 2304 0cb0 1A46     		mov	r2, r3
 2305 0cb2 0123     		movs	r3, #1
 2306 0cb4 FFF784FF 		bl	STC3115_Write
 2307              		.loc 1 1002 0
 2308 0cb8 009B     		ldr	r3, [sp]
 2309 0cba 2033     		adds	r3, r3, #32
 2310 0cbc 0198     		ldr	r0, [sp, #4]
 2311 0cbe 3021     		movs	r1, #48
 2312 0cc0 1A46     		mov	r2, r3
 2313 0cc2 1023     		movs	r3, #16
 2314 0cc4 FFF77CFF 		bl	STC3115_Write
 2315              		.loc 1 1005 0
 2316 0cc8 009B     		ldr	r3, [sp]
 2317 0cca 5B68     		ldr	r3, [r3, #4]
 2318 0ccc 002B     		cmp	r3, #0
 2319 0cce 0ED0     		beq	.L134
 2320              		.loc 1 1007 0
ARM GAS  /tmp/ccAIGiUj.s 			page 42


 2321 0cd0 009B     		ldr	r3, [sp]
 2322 0cd2 5B68     		ldr	r3, [r3, #4]
 2323 0cd4 DBB2     		uxtb	r3, r3
 2324 0cd6 5B00     		lsls	r3, r3, #1
 2325 0cd8 DBB2     		uxtb	r3, r3
 2326 0cda 8DF80B30 		strb	r3, [sp, #11]
 2327              		.loc 1 1008 0
 2328 0cde 0DF10B03 		add	r3, sp, #11
 2329 0ce2 0198     		ldr	r0, [sp, #4]
 2330 0ce4 1321     		movs	r1, #19
 2331 0ce6 1A46     		mov	r2, r3
 2332 0ce8 0123     		movs	r3, #1
 2333 0cea FFF769FF 		bl	STC3115_Write
 2334              	.L134:
 2335              		.loc 1 1010 0
 2336 0cee 009B     		ldr	r3, [sp]
 2337 0cf0 9B68     		ldr	r3, [r3, #8]
 2338 0cf2 002B     		cmp	r3, #0
 2339 0cf4 13D0     		beq	.L135
 2340              		.loc 1 1012 0
 2341 0cf6 009B     		ldr	r3, [sp]
 2342 0cf8 9B68     		ldr	r3, [r3, #8]
 2343 0cfa 5B02     		lsls	r3, r3, #9
 2344 0cfc 314A     		ldr	r2, .L140
 2345 0cfe 82FB0312 		smull	r1, r2, r2, r3
 2346 0d02 1213     		asrs	r2, r2, #12
 2347 0d04 DB17     		asrs	r3, r3, #31
 2348 0d06 D31A     		subs	r3, r2, r3
 2349 0d08 DBB2     		uxtb	r3, r3
 2350 0d0a 8DF80B30 		strb	r3, [sp, #11]
 2351              		.loc 1 1013 0
 2352 0d0e 0DF10B03 		add	r3, sp, #11
 2353 0d12 0198     		ldr	r0, [sp, #4]
 2354 0d14 1421     		movs	r1, #20
 2355 0d16 1A46     		mov	r2, r3
 2356 0d18 0123     		movs	r3, #1
 2357 0d1a FFF751FF 		bl	STC3115_Write
 2358              	.L135:
 2359              		.loc 1 1017 0
 2360 0d1e 009B     		ldr	r3, [sp]
 2361 0d20 9B69     		ldr	r3, [r3, #24]
 2362 0d22 002B     		cmp	r3, #0
 2363 0d24 15D0     		beq	.L136
 2364              		.loc 1 1019 0
 2365 0d26 009B     		ldr	r3, [sp]
 2366 0d28 DB69     		ldr	r3, [r3, #28]
 2367 0d2a 5A02     		lsls	r2, r3, #9
 2368 0d2c 009B     		ldr	r3, [sp]
 2369 0d2e 9B69     		ldr	r3, [r3, #24]
 2370 0d30 45F61461 		movw	r1, #24084
 2371 0d34 91FBF3F3 		sdiv	r3, r1, r3
 2372 0d38 92FBF3F3 		sdiv	r3, r2, r3
 2373 0d3c DBB2     		uxtb	r3, r3
 2374 0d3e 8DF80B30 		strb	r3, [sp, #11]
 2375              		.loc 1 1020 0
 2376 0d42 0DF10B03 		add	r3, sp, #11
 2377 0d46 0198     		ldr	r0, [sp, #4]
ARM GAS  /tmp/ccAIGiUj.s 			page 43


 2378 0d48 1521     		movs	r1, #21
 2379 0d4a 1A46     		mov	r2, r3
 2380 0d4c 0123     		movs	r3, #1
 2381 0d4e FFF737FF 		bl	STC3115_Write
 2382              	.L136:
 2383              		.loc 1 1024 0
 2384 0d52 039B     		ldr	r3, [sp, #12]
 2385 0d54 9B88     		ldrh	r3, [r3, #4]
 2386 0d56 002B     		cmp	r3, #0
 2387 0d58 07D0     		beq	.L137
 2388              		.loc 1 1024 0 is_stmt 0 discriminator 1
 2389 0d5a 039B     		ldr	r3, [sp, #12]
 2390 0d5c 9B88     		ldrh	r3, [r3, #4]
 2391 0d5e 1BB2     		sxth	r3, r3
 2392 0d60 0198     		ldr	r0, [sp, #4]
 2393 0d62 0F21     		movs	r1, #15
 2394 0d64 1A46     		mov	r2, r3
 2395 0d66 FFF773FF 		bl	STC3115_WriteWord
 2396              	.L137:
 2397              		.loc 1 1025 0 is_stmt 1
 2398 0d6a 039B     		ldr	r3, [sp, #12]
 2399 0d6c DB88     		ldrh	r3, [r3, #6]
 2400 0d6e 002B     		cmp	r3, #0
 2401 0d70 07D0     		beq	.L138
 2402              		.loc 1 1025 0 is_stmt 0 discriminator 1
 2403 0d72 039B     		ldr	r3, [sp, #12]
 2404 0d74 DB88     		ldrh	r3, [r3, #6]
 2405 0d76 1BB2     		sxth	r3, r3
 2406 0d78 0198     		ldr	r0, [sp, #4]
 2407 0d7a 1121     		movs	r1, #17
 2408 0d7c 1A46     		mov	r2, r3
 2409 0d7e FFF767FF 		bl	STC3115_WriteWord
 2410              	.L138:
 2411              		.loc 1 1027 0 is_stmt 1
 2412 0d82 0323     		movs	r3, #3
 2413 0d84 8DF80B30 		strb	r3, [sp, #11]
 2414              		.loc 1 1028 0
 2415 0d88 0DF10B03 		add	r3, sp, #11
 2416 0d8c 0198     		ldr	r0, [sp, #4]
 2417 0d8e 0121     		movs	r1, #1
 2418 0d90 1A46     		mov	r2, r3
 2419 0d92 0123     		movs	r3, #1
 2420 0d94 FFF714FF 		bl	STC3115_Write
 2421              		.loc 1 1030 0
 2422 0d98 009B     		ldr	r3, [sp]
 2423 0d9a 1B68     		ldr	r3, [r3]
 2424 0d9c DBB2     		uxtb	r3, r3
 2425 0d9e 43F01003 		orr	r3, r3, #16
 2426 0da2 DBB2     		uxtb	r3, r3
 2427 0da4 DBB2     		uxtb	r3, r3
 2428 0da6 8DF80B30 		strb	r3, [sp, #11]
 2429              		.loc 1 1031 0
 2430 0daa 0DF10B03 		add	r3, sp, #11
 2431 0dae 0198     		ldr	r0, [sp, #4]
 2432 0db0 0021     		movs	r1, #0
 2433 0db2 1A46     		mov	r2, r3
 2434 0db4 0123     		movs	r3, #1
ARM GAS  /tmp/ccAIGiUj.s 			page 44


 2435 0db6 FFF703FF 		bl	STC3115_Write
 2436              		.loc 1 1033 0
 2437 0dba 0023     		movs	r3, #0
 2438              		.loc 1 1034 0
 2439 0dbc 1846     		mov	r0, r3
 2440 0dbe 05B0     		add	sp, sp, #20
 2441              		@ sp needed
 2442 0dc0 5DF804FB 		ldr	pc, [sp], #4
 2443              	.L141:
 2444              		.align	2
 2445              	.L140:
 2446 0dc4 89C05D74 		.word	1952301193
 2447              		.cfi_endproc
 2448              	.LFE29:
 2449              		.size	STC3115_SetParam, .-STC3115_SetParam
 2450              	.Letext0:
 2451              		.file 2 "/nfs/nfs5/home/research/hardware/arm2/gcc-arm-embedded/gcc-arm-none-eabi-4_8-2014q2/arm-n
 2452              		.file 3 "/nfs/nfs5/home/research/hardware/arm2/gcc-arm-embedded/gcc-arm-none-eabi-4_8-2014q2/arm-n
 2453              		.file 4 "../../../../../Drivers/BSP/Components/Common/component.h"
 2454              		.file 5 "../../../../../Drivers/BSP/Components/Common/GasGauge.h"
 2455              		.file 6 "../../../../../Drivers/BSP/Components/stc3115/STC3115_Driver.h"
 2456 0dc8 AFF30080 		.section	.debug_info,"",%progbits
 2456      AFF30080 
 2457              	.Ldebug_info0:
 2458 0000 7B0E0000 		.4byte	0xe7b
 2459 0004 0400     		.2byte	0x4
 2460 0006 00000000 		.4byte	.Ldebug_abbrev0
 2461 000a 04       		.byte	0x4
 2462 000b 01       		.uleb128 0x1
 2463 000c 1A000000 		.4byte	.LASF134
 2464 0010 01       		.byte	0x1
 2465 0011 4C010000 		.4byte	.LASF135
 2466 0015 74020000 		.4byte	.LASF136
 2467 0019 00000000 		.4byte	.Ltext0
 2468 001d C80D0000 		.4byte	.Letext0-.Ltext0
 2469 0021 00000000 		.4byte	.Ldebug_line0
 2470 0025 02       		.uleb128 0x2
 2471 0026 01       		.byte	0x1
 2472 0027 06       		.byte	0x6
 2473 0028 D7010000 		.4byte	.LASF0
 2474 002c 03       		.uleb128 0x3
 2475 002d DD000000 		.4byte	.LASF3
 2476 0031 02       		.byte	0x2
 2477 0032 1C       		.byte	0x1c
 2478 0033 37000000 		.4byte	0x37
 2479 0037 02       		.uleb128 0x2
 2480 0038 01       		.byte	0x1
 2481 0039 08       		.byte	0x8
 2482 003a 45050000 		.4byte	.LASF1
 2483 003e 02       		.uleb128 0x2
 2484 003f 02       		.byte	0x2
 2485 0040 05       		.byte	0x5
 2486 0041 93050000 		.4byte	.LASF2
 2487 0045 03       		.uleb128 0x3
 2488 0046 27060000 		.4byte	.LASF4
 2489 004a 02       		.byte	0x2
 2490 004b 26       		.byte	0x26
ARM GAS  /tmp/ccAIGiUj.s 			page 45


 2491 004c 50000000 		.4byte	0x50
 2492 0050 02       		.uleb128 0x2
 2493 0051 02       		.byte	0x2
 2494 0052 07       		.byte	0x7
 2495 0053 E8030000 		.4byte	.LASF5
 2496 0057 03       		.uleb128 0x3
 2497 0058 83060000 		.4byte	.LASF6
 2498 005c 02       		.byte	0x2
 2499 005d 37       		.byte	0x37
 2500 005e 62000000 		.4byte	0x62
 2501 0062 02       		.uleb128 0x2
 2502 0063 04       		.byte	0x4
 2503 0064 05       		.byte	0x5
 2504 0065 F9010000 		.4byte	.LASF7
 2505 0069 03       		.uleb128 0x3
 2506 006a 62020000 		.4byte	.LASF8
 2507 006e 02       		.byte	0x2
 2508 006f 38       		.byte	0x38
 2509 0070 74000000 		.4byte	0x74
 2510 0074 02       		.uleb128 0x2
 2511 0075 04       		.byte	0x4
 2512 0076 07       		.byte	0x7
 2513 0077 91030000 		.4byte	.LASF9
 2514 007b 02       		.uleb128 0x2
 2515 007c 08       		.byte	0x8
 2516 007d 05       		.byte	0x5
 2517 007e C9010000 		.4byte	.LASF10
 2518 0082 02       		.uleb128 0x2
 2519 0083 08       		.byte	0x8
 2520 0084 07       		.byte	0x7
 2521 0085 01010000 		.4byte	.LASF11
 2522 0089 04       		.uleb128 0x4
 2523 008a 04       		.byte	0x4
 2524 008b 05       		.byte	0x5
 2525 008c 696E7400 		.ascii	"int\000"
 2526 0090 02       		.uleb128 0x2
 2527 0091 04       		.byte	0x4
 2528 0092 07       		.byte	0x7
 2529 0093 64030000 		.4byte	.LASF12
 2530 0097 03       		.uleb128 0x3
 2531 0098 7D070000 		.4byte	.LASF13
 2532 009c 03       		.byte	0x3
 2533 009d 2A       		.byte	0x2a
 2534 009e 2C000000 		.4byte	0x2c
 2535 00a2 03       		.uleb128 0x3
 2536 00a3 45020000 		.4byte	.LASF14
 2537 00a7 03       		.byte	0x3
 2538 00a8 36       		.byte	0x36
 2539 00a9 45000000 		.4byte	0x45
 2540 00ad 03       		.uleb128 0x3
 2541 00ae 3D050000 		.4byte	.LASF15
 2542 00b2 03       		.byte	0x3
 2543 00b3 41       		.byte	0x41
 2544 00b4 57000000 		.4byte	0x57
 2545 00b8 03       		.uleb128 0x3
 2546 00b9 EF050000 		.4byte	.LASF16
 2547 00bd 03       		.byte	0x3
ARM GAS  /tmp/ccAIGiUj.s 			page 46


 2548 00be 42       		.byte	0x42
 2549 00bf 69000000 		.4byte	0x69
 2550 00c3 05       		.uleb128 0x5
 2551 00c4 14       		.byte	0x14
 2552 00c5 04       		.byte	0x4
 2553 00c6 5B       		.byte	0x5b
 2554 00c7 50010000 		.4byte	0x150
 2555 00cb 06       		.uleb128 0x6
 2556 00cc 51060000 		.4byte	.LASF17
 2557 00d0 04       		.byte	0x4
 2558 00d1 5F       		.byte	0x5f
 2559 00d2 97000000 		.4byte	0x97
 2560 00d6 00       		.byte	0
 2561 00d7 06       		.uleb128 0x6
 2562 00d8 60060000 		.4byte	.LASF18
 2563 00dc 04       		.byte	0x4
 2564 00dd 62       		.byte	0x62
 2565 00de 97000000 		.4byte	0x97
 2566 00e2 01       		.byte	0x1
 2567 00e3 06       		.uleb128 0x6
 2568 00e4 BC040000 		.4byte	.LASF19
 2569 00e8 04       		.byte	0x4
 2570 00e9 63       		.byte	0x63
 2571 00ea 97000000 		.4byte	0x97
 2572 00ee 02       		.byte	0x2
 2573 00ef 06       		.uleb128 0x6
 2574 00f0 EA070000 		.4byte	.LASF20
 2575 00f4 04       		.byte	0x4
 2576 00f5 64       		.byte	0x64
 2577 00f6 97000000 		.4byte	0x97
 2578 00fa 03       		.byte	0x3
 2579 00fb 06       		.uleb128 0x6
 2580 00fc AC010000 		.4byte	.LASF21
 2581 0100 04       		.byte	0x4
 2582 0101 65       		.byte	0x65
 2583 0102 97000000 		.4byte	0x97
 2584 0106 04       		.byte	0x4
 2585 0107 06       		.uleb128 0x6
 2586 0108 8D060000 		.4byte	.LASF22
 2587 010c 04       		.byte	0x4
 2588 010d 66       		.byte	0x66
 2589 010e 97000000 		.4byte	0x97
 2590 0112 05       		.byte	0x5
 2591 0113 06       		.uleb128 0x6
 2592 0114 1B070000 		.4byte	.LASF23
 2593 0118 04       		.byte	0x4
 2594 0119 67       		.byte	0x67
 2595 011a 97000000 		.4byte	0x97
 2596 011e 06       		.byte	0x6
 2597 011f 06       		.uleb128 0x6
 2598 0120 25070000 		.4byte	.LASF24
 2599 0124 04       		.byte	0x4
 2600 0125 68       		.byte	0x68
 2601 0126 97000000 		.4byte	0x97
 2602 012a 07       		.byte	0x7
 2603 012b 06       		.uleb128 0x6
 2604 012c 5C020000 		.4byte	.LASF25
ARM GAS  /tmp/ccAIGiUj.s 			page 47


 2605 0130 04       		.byte	0x4
 2606 0131 6B       		.byte	0x6b
 2607 0132 50010000 		.4byte	0x150
 2608 0136 08       		.byte	0x8
 2609 0137 06       		.uleb128 0x6
 2610 0138 0B000000 		.4byte	.LASF26
 2611 013c 04       		.byte	0x4
 2612 013d 6E       		.byte	0x6e
 2613 013e 50010000 		.4byte	0x150
 2614 0142 0C       		.byte	0xc
 2615 0143 06       		.uleb128 0x6
 2616 0144 AD050000 		.4byte	.LASF27
 2617 0148 04       		.byte	0x4
 2618 0149 70       		.byte	0x70
 2619 014a 50010000 		.4byte	0x150
 2620 014e 10       		.byte	0x10
 2621 014f 00       		.byte	0
 2622 0150 07       		.uleb128 0x7
 2623 0151 04       		.byte	0x4
 2624 0152 03       		.uleb128 0x3
 2625 0153 BB060000 		.4byte	.LASF28
 2626 0157 04       		.byte	0x4
 2627 0158 71       		.byte	0x71
 2628 0159 C3000000 		.4byte	0xc3
 2629 015d 08       		.uleb128 0x8
 2630 015e 01       		.byte	0x1
 2631 015f 04       		.byte	0x4
 2632 0160 79       		.byte	0x79
 2633 0161 7E010000 		.4byte	0x17e
 2634 0165 09       		.uleb128 0x9
 2635 0166 DD070000 		.4byte	.LASF29
 2636 016a 00       		.sleb128 0
 2637 016b 09       		.uleb128 0x9
 2638 016c 35020000 		.4byte	.LASF30
 2639 0170 01       		.sleb128 1
 2640 0171 09       		.uleb128 0x9
 2641 0172 FD040000 		.4byte	.LASF31
 2642 0176 02       		.sleb128 2
 2643 0177 09       		.uleb128 0x9
 2644 0178 07020000 		.4byte	.LASF32
 2645 017c 03       		.sleb128 3
 2646 017d 00       		.byte	0
 2647 017e 03       		.uleb128 0x3
 2648 017f 18010000 		.4byte	.LASF33
 2649 0183 04       		.byte	0x4
 2650 0184 7E       		.byte	0x7e
 2651 0185 5D010000 		.4byte	0x15d
 2652 0189 05       		.uleb128 0x5
 2653 018a 5C       		.byte	0x5c
 2654 018b 05       		.byte	0x5
 2655 018c 4A       		.byte	0x4a
 2656 018d A6020000 		.4byte	0x2a6
 2657 0191 06       		.uleb128 0x6
 2658 0192 31050000 		.4byte	.LASF34
 2659 0196 05       		.byte	0x5
 2660 0197 4C       		.byte	0x4c
 2661 0198 BB020000 		.4byte	0x2bb
ARM GAS  /tmp/ccAIGiUj.s 			page 48


 2662 019c 00       		.byte	0
 2663 019d 06       		.uleb128 0x6
 2664 019e 71030000 		.4byte	.LASF35
 2665 01a2 05       		.byte	0x5
 2666 01a3 4E       		.byte	0x4e
 2667 01a4 BB020000 		.4byte	0x2bb
 2668 01a8 04       		.byte	0x4
 2669 01a9 06       		.uleb128 0x6
 2670 01aa F4070000 		.4byte	.LASF36
 2671 01ae 05       		.byte	0x5
 2672 01af 4F       		.byte	0x4f
 2673 01b0 BB020000 		.4byte	0x2bb
 2674 01b4 08       		.byte	0x8
 2675 01b5 06       		.uleb128 0x6
 2676 01b6 27040000 		.4byte	.LASF37
 2677 01ba 05       		.byte	0x5
 2678 01bb 50       		.byte	0x50
 2679 01bc BB020000 		.4byte	0x2bb
 2680 01c0 0C       		.byte	0xc
 2681 01c1 06       		.uleb128 0x6
 2682 01c2 C4040000 		.4byte	.LASF38
 2683 01c6 05       		.byte	0x5
 2684 01c7 51       		.byte	0x51
 2685 01c8 DB020000 		.4byte	0x2db
 2686 01cc 10       		.byte	0x10
 2687 01cd 06       		.uleb128 0x6
 2688 01ce 29010000 		.4byte	.LASF39
 2689 01d2 05       		.byte	0x5
 2690 01d3 53       		.byte	0x53
 2691 01d4 DB020000 		.4byte	0x2db
 2692 01d8 14       		.byte	0x14
 2693 01d9 06       		.uleb128 0x6
 2694 01da A6010000 		.4byte	.LASF40
 2695 01de 05       		.byte	0x5
 2696 01df 54       		.byte	0x54
 2697 01e0 BB020000 		.4byte	0x2bb
 2698 01e4 18       		.byte	0x18
 2699 01e5 06       		.uleb128 0x6
 2700 01e6 F4010000 		.4byte	.LASF41
 2701 01ea 05       		.byte	0x5
 2702 01eb 55       		.byte	0x55
 2703 01ec BB020000 		.4byte	0x2bb
 2704 01f0 1C       		.byte	0x1c
 2705 01f1 06       		.uleb128 0x6
 2706 01f2 36050000 		.4byte	.LASF42
 2707 01f6 05       		.byte	0x5
 2708 01f7 56       		.byte	0x56
 2709 01f8 FB020000 		.4byte	0x2fb
 2710 01fc 20       		.byte	0x20
 2711 01fd 06       		.uleb128 0x6
 2712 01fe A7060000 		.4byte	.LASF43
 2713 0202 05       		.byte	0x5
 2714 0203 57       		.byte	0x57
 2715 0204 FB020000 		.4byte	0x2fb
 2716 0208 24       		.byte	0x24
 2717 0209 06       		.uleb128 0x6
 2718 020a 10070000 		.4byte	.LASF44
ARM GAS  /tmp/ccAIGiUj.s 			page 49


 2719 020e 05       		.byte	0x5
 2720 020f 58       		.byte	0x58
 2721 0210 1B030000 		.4byte	0x31b
 2722 0214 28       		.byte	0x28
 2723 0215 06       		.uleb128 0x6
 2724 0216 77050000 		.4byte	.LASF45
 2725 021a 05       		.byte	0x5
 2726 021b 59       		.byte	0x59
 2727 021c 1B030000 		.4byte	0x31b
 2728 0220 2C       		.byte	0x2c
 2729 0221 06       		.uleb128 0x6
 2730 0222 C6030000 		.4byte	.LASF46
 2731 0226 05       		.byte	0x5
 2732 0227 5A       		.byte	0x5a
 2733 0228 FB020000 		.4byte	0x2fb
 2734 022c 30       		.byte	0x30
 2735 022d 06       		.uleb128 0x6
 2736 022e 06030000 		.4byte	.LASF47
 2737 0232 05       		.byte	0x5
 2738 0233 5B       		.byte	0x5b
 2739 0234 FB020000 		.4byte	0x2fb
 2740 0238 34       		.byte	0x34
 2741 0239 06       		.uleb128 0x6
 2742 023a CD060000 		.4byte	.LASF48
 2743 023e 05       		.byte	0x5
 2744 023f 5C       		.byte	0x5c
 2745 0240 FB020000 		.4byte	0x2fb
 2746 0244 38       		.byte	0x38
 2747 0245 06       		.uleb128 0x6
 2748 0246 8D070000 		.4byte	.LASF49
 2749 024a 05       		.byte	0x5
 2750 024b 5E       		.byte	0x5e
 2751 024c FB020000 		.4byte	0x2fb
 2752 0250 3C       		.byte	0x3c
 2753 0251 06       		.uleb128 0x6
 2754 0252 05070000 		.4byte	.LASF50
 2755 0256 05       		.byte	0x5
 2756 0257 5F       		.byte	0x5f
 2757 0258 DB020000 		.4byte	0x2db
 2758 025c 40       		.byte	0x40
 2759 025d 06       		.uleb128 0x6
 2760 025e 32060000 		.4byte	.LASF51
 2761 0262 05       		.byte	0x5
 2762 0263 60       		.byte	0x60
 2763 0264 35030000 		.4byte	0x335
 2764 0268 44       		.byte	0x44
 2765 0269 06       		.uleb128 0x6
 2766 026a 62050000 		.4byte	.LASF52
 2767 026e 05       		.byte	0x5
 2768 026f 61       		.byte	0x61
 2769 0270 35030000 		.4byte	0x335
 2770 0274 48       		.byte	0x48
 2771 0275 06       		.uleb128 0x6
 2772 0276 08060000 		.4byte	.LASF53
 2773 027a 05       		.byte	0x5
 2774 027b 62       		.byte	0x62
 2775 027c DB020000 		.4byte	0x2db
ARM GAS  /tmp/ccAIGiUj.s 			page 50


 2776 0280 4C       		.byte	0x4c
 2777 0281 06       		.uleb128 0x6
 2778 0282 15030000 		.4byte	.LASF54
 2779 0286 05       		.byte	0x5
 2780 0287 63       		.byte	0x63
 2781 0288 BB020000 		.4byte	0x2bb
 2782 028c 50       		.byte	0x50
 2783 028d 06       		.uleb128 0x6
 2784 028e 6D020000 		.4byte	.LASF55
 2785 0292 05       		.byte	0x5
 2786 0293 64       		.byte	0x64
 2787 0294 BB020000 		.4byte	0x2bb
 2788 0298 54       		.byte	0x54
 2789 0299 06       		.uleb128 0x6
 2790 029a 85070000 		.4byte	.LASF56
 2791 029e 05       		.byte	0x5
 2792 029f 65       		.byte	0x65
 2793 02a0 BB020000 		.4byte	0x2bb
 2794 02a4 58       		.byte	0x58
 2795 02a5 00       		.byte	0
 2796 02a6 0A       		.uleb128 0xa
 2797 02a7 7E010000 		.4byte	0x17e
 2798 02ab B5020000 		.4byte	0x2b5
 2799 02af 0B       		.uleb128 0xb
 2800 02b0 B5020000 		.4byte	0x2b5
 2801 02b4 00       		.byte	0
 2802 02b5 0C       		.uleb128 0xc
 2803 02b6 04       		.byte	0x4
 2804 02b7 52010000 		.4byte	0x152
 2805 02bb 0C       		.uleb128 0xc
 2806 02bc 04       		.byte	0x4
 2807 02bd A6020000 		.4byte	0x2a6
 2808 02c1 0A       		.uleb128 0xa
 2809 02c2 7E010000 		.4byte	0x17e
 2810 02c6 D5020000 		.4byte	0x2d5
 2811 02ca 0B       		.uleb128 0xb
 2812 02cb B5020000 		.4byte	0x2b5
 2813 02cf 0B       		.uleb128 0xb
 2814 02d0 D5020000 		.4byte	0x2d5
 2815 02d4 00       		.byte	0
 2816 02d5 0C       		.uleb128 0xc
 2817 02d6 04       		.byte	0x4
 2818 02d7 97000000 		.4byte	0x97
 2819 02db 0C       		.uleb128 0xc
 2820 02dc 04       		.byte	0x4
 2821 02dd C1020000 		.4byte	0x2c1
 2822 02e1 0A       		.uleb128 0xa
 2823 02e2 7E010000 		.4byte	0x17e
 2824 02e6 F5020000 		.4byte	0x2f5
 2825 02ea 0B       		.uleb128 0xb
 2826 02eb B5020000 		.4byte	0x2b5
 2827 02ef 0B       		.uleb128 0xb
 2828 02f0 F5020000 		.4byte	0x2f5
 2829 02f4 00       		.byte	0
 2830 02f5 0C       		.uleb128 0xc
 2831 02f6 04       		.byte	0x4
 2832 02f7 B8000000 		.4byte	0xb8
ARM GAS  /tmp/ccAIGiUj.s 			page 51


 2833 02fb 0C       		.uleb128 0xc
 2834 02fc 04       		.byte	0x4
 2835 02fd E1020000 		.4byte	0x2e1
 2836 0301 0A       		.uleb128 0xa
 2837 0302 7E010000 		.4byte	0x17e
 2838 0306 15030000 		.4byte	0x315
 2839 030a 0B       		.uleb128 0xb
 2840 030b B5020000 		.4byte	0x2b5
 2841 030f 0B       		.uleb128 0xb
 2842 0310 15030000 		.4byte	0x315
 2843 0314 00       		.byte	0
 2844 0315 0C       		.uleb128 0xc
 2845 0316 04       		.byte	0x4
 2846 0317 AD000000 		.4byte	0xad
 2847 031b 0C       		.uleb128 0xc
 2848 031c 04       		.byte	0x4
 2849 031d 01030000 		.4byte	0x301
 2850 0321 0A       		.uleb128 0xa
 2851 0322 7E010000 		.4byte	0x17e
 2852 0326 35030000 		.4byte	0x335
 2853 032a 0B       		.uleb128 0xb
 2854 032b B5020000 		.4byte	0x2b5
 2855 032f 0B       		.uleb128 0xb
 2856 0330 AD000000 		.4byte	0xad
 2857 0334 00       		.byte	0
 2858 0335 0C       		.uleb128 0xc
 2859 0336 04       		.byte	0x4
 2860 0337 21030000 		.4byte	0x321
 2861 033b 03       		.uleb128 0x3
 2862 033c 02080000 		.4byte	.LASF57
 2863 0340 05       		.byte	0x5
 2864 0341 66       		.byte	0x66
 2865 0342 89010000 		.4byte	0x189
 2866 0346 05       		.uleb128 0x5
 2867 0347 08       		.byte	0x8
 2868 0348 05       		.byte	0x5
 2869 0349 6B       		.byte	0x6b
 2870 034a 67030000 		.4byte	0x367
 2871 034e 06       		.uleb128 0x6
 2872 034f 53050000 		.4byte	.LASF58
 2873 0353 05       		.byte	0x5
 2874 0354 6D       		.byte	0x6d
 2875 0355 50010000 		.4byte	0x150
 2876 0359 00       		.byte	0
 2877 035a 06       		.uleb128 0x6
 2878 035b 1B030000 		.4byte	.LASF59
 2879 035f 05       		.byte	0x5
 2880 0360 6E       		.byte	0x6e
 2881 0361 50010000 		.4byte	0x150
 2882 0365 04       		.byte	0x4
 2883 0366 00       		.byte	0
 2884 0367 03       		.uleb128 0x3
 2885 0368 81040000 		.4byte	.LASF60
 2886 036c 05       		.byte	0x5
 2887 036d 6F       		.byte	0x6f
 2888 036e 46030000 		.4byte	0x346
 2889 0372 05       		.uleb128 0x5
ARM GAS  /tmp/ccAIGiUj.s 			page 52


 2890 0373 30       		.byte	0x30
 2891 0374 06       		.byte	0x6
 2892 0375 90       		.byte	0x90
 2893 0376 E7030000 		.4byte	0x3e7
 2894 037a 06       		.uleb128 0x6
 2895 037b 5A060000 		.4byte	.LASF61
 2896 037f 06       		.byte	0x6
 2897 0380 91       		.byte	0x91
 2898 0381 89000000 		.4byte	0x89
 2899 0385 00       		.byte	0
 2900 0386 06       		.uleb128 0x6
 2901 0387 AB040000 		.4byte	.LASF62
 2902 038b 06       		.byte	0x6
 2903 038c 92       		.byte	0x92
 2904 038d 89000000 		.4byte	0x89
 2905 0391 04       		.byte	0x4
 2906 0392 06       		.uleb128 0x6
 2907 0393 24030000 		.4byte	.LASF63
 2908 0397 06       		.byte	0x6
 2909 0398 93       		.byte	0x93
 2910 0399 89000000 		.4byte	0x89
 2911 039d 08       		.byte	0x8
 2912 039e 06       		.uleb128 0x6
 2913 039f 13000000 		.4byte	.LASF64
 2914 03a3 06       		.byte	0x6
 2915 03a4 94       		.byte	0x94
 2916 03a5 89000000 		.4byte	0x89
 2917 03a9 0C       		.byte	0xc
 2918 03aa 06       		.uleb128 0x6
 2919 03ab 47040000 		.4byte	.LASF65
 2920 03af 06       		.byte	0x6
 2921 03b0 95       		.byte	0x95
 2922 03b1 89000000 		.4byte	0x89
 2923 03b5 10       		.byte	0x10
 2924 03b6 06       		.uleb128 0x6
 2925 03b7 06000000 		.4byte	.LASF66
 2926 03bb 06       		.byte	0x6
 2927 03bc 96       		.byte	0x96
 2928 03bd 89000000 		.4byte	0x89
 2929 03c1 14       		.byte	0x14
 2930 03c2 06       		.uleb128 0x6
 2931 03c3 F6040000 		.4byte	.LASF67
 2932 03c7 06       		.byte	0x6
 2933 03c8 97       		.byte	0x97
 2934 03c9 89000000 		.4byte	0x89
 2935 03cd 18       		.byte	0x18
 2936 03ce 06       		.uleb128 0x6
 2937 03cf 8B040000 		.4byte	.LASF68
 2938 03d3 06       		.byte	0x6
 2939 03d4 98       		.byte	0x98
 2940 03d5 89000000 		.4byte	0x89
 2941 03d9 1C       		.byte	0x1c
 2942 03da 06       		.uleb128 0x6
 2943 03db C3050000 		.4byte	.LASF69
 2944 03df 06       		.byte	0x6
 2945 03e0 99       		.byte	0x99
 2946 03e1 E7030000 		.4byte	0x3e7
ARM GAS  /tmp/ccAIGiUj.s 			page 53


 2947 03e5 20       		.byte	0x20
 2948 03e6 00       		.byte	0
 2949 03e7 0D       		.uleb128 0xd
 2950 03e8 37000000 		.4byte	0x37
 2951 03ec F7030000 		.4byte	0x3f7
 2952 03f0 0E       		.uleb128 0xe
 2953 03f1 F7030000 		.4byte	0x3f7
 2954 03f5 0F       		.byte	0xf
 2955 03f6 00       		.byte	0
 2956 03f7 02       		.uleb128 0x2
 2957 03f8 04       		.byte	0x4
 2958 03f9 07       		.byte	0x7
 2959 03fa B3040000 		.4byte	.LASF70
 2960 03fe 03       		.uleb128 0x3
 2961 03ff 49030000 		.4byte	.LASF71
 2962 0403 06       		.byte	0x6
 2963 0404 9A       		.byte	0x9a
 2964 0405 72030000 		.4byte	0x372
 2965 0409 05       		.uleb128 0x5
 2966 040a 2C       		.byte	0x2c
 2967 040b 06       		.byte	0x6
 2968 040c 9D       		.byte	0x9d
 2969 040d 96040000 		.4byte	0x496
 2970 0411 06       		.uleb128 0x6
 2971 0412 4E070000 		.4byte	.LASF72
 2972 0416 06       		.byte	0x6
 2973 0417 9E       		.byte	0x9e
 2974 0418 89000000 		.4byte	0x89
 2975 041c 00       		.byte	0
 2976 041d 06       		.uleb128 0x6
 2977 041e EE010000 		.4byte	.LASF73
 2978 0422 06       		.byte	0x6
 2979 0423 9F       		.byte	0x9f
 2980 0424 89000000 		.4byte	0x89
 2981 0428 04       		.byte	0x4
 2982 0429 0F       		.uleb128 0xf
 2983 042a 534F4300 		.ascii	"SOC\000"
 2984 042e 06       		.byte	0x6
 2985 042f A0       		.byte	0xa0
 2986 0430 89000000 		.4byte	0x89
 2987 0434 08       		.byte	0x8
 2988 0435 06       		.uleb128 0x6
 2989 0436 FB030000 		.4byte	.LASF74
 2990 043a 06       		.byte	0x6
 2991 043b A1       		.byte	0xa1
 2992 043c 89000000 		.4byte	0x89
 2993 0440 0C       		.byte	0xc
 2994 0441 06       		.uleb128 0x6
 2995 0442 65040000 		.4byte	.LASF75
 2996 0446 06       		.byte	0x6
 2997 0447 A2       		.byte	0xa2
 2998 0448 89000000 		.4byte	0x89
 2999 044c 10       		.byte	0x10
 3000 044d 06       		.uleb128 0x6
 3001 044e 62070000 		.4byte	.LASF76
 3002 0452 06       		.byte	0x6
 3003 0453 A3       		.byte	0xa3
ARM GAS  /tmp/ccAIGiUj.s 			page 54


 3004 0454 89000000 		.4byte	0x89
 3005 0458 14       		.byte	0x14
 3006 0459 06       		.uleb128 0x6
 3007 045a F5000000 		.4byte	.LASF77
 3008 045e 06       		.byte	0x6
 3009 045f A4       		.byte	0xa4
 3010 0460 89000000 		.4byte	0x89
 3011 0464 18       		.byte	0x18
 3012 0465 0F       		.uleb128 0xf
 3013 0466 4F435600 		.ascii	"OCV\000"
 3014 046a 06       		.byte	0x6
 3015 046b A5       		.byte	0xa5
 3016 046c 89000000 		.4byte	0x89
 3017 0470 1C       		.byte	0x1c
 3018 0471 06       		.uleb128 0x6
 3019 0472 2D070000 		.4byte	.LASF78
 3020 0476 06       		.byte	0x6
 3021 0477 A6       		.byte	0xa6
 3022 0478 89000000 		.4byte	0x89
 3023 047c 20       		.byte	0x20
 3024 047d 06       		.uleb128 0x6
 3025 047e 9B060000 		.4byte	.LASF79
 3026 0482 06       		.byte	0x6
 3027 0483 A7       		.byte	0xa7
 3028 0484 89000000 		.4byte	0x89
 3029 0488 24       		.byte	0x24
 3030 0489 06       		.uleb128 0x6
 3031 048a 84030000 		.4byte	.LASF80
 3032 048e 06       		.byte	0x6
 3033 048f A8       		.byte	0xa8
 3034 0490 89000000 		.4byte	0x89
 3035 0494 28       		.byte	0x28
 3036 0495 00       		.byte	0
 3037 0496 03       		.uleb128 0x3
 3038 0497 67060000 		.4byte	.LASF81
 3039 049b 06       		.byte	0x6
 3040 049c A9       		.byte	0xa9
 3041 049d 09040000 		.4byte	0x409
 3042 04a1 05       		.uleb128 0x5
 3043 04a2 0A       		.byte	0xa
 3044 04a3 06       		.byte	0x6
 3045 04a4 AE       		.byte	0xae
 3046 04a5 F2040000 		.4byte	0x4f2
 3047 04a9 06       		.uleb128 0x6
 3048 04aa 9C070000 		.4byte	.LASF82
 3049 04ae 06       		.byte	0x6
 3050 04af AF       		.byte	0xaf
 3051 04b0 3E000000 		.4byte	0x3e
 3052 04b4 00       		.byte	0
 3053 04b5 06       		.uleb128 0x6
 3054 04b6 EE010000 		.4byte	.LASF73
 3055 04ba 06       		.byte	0x6
 3056 04bb B0       		.byte	0xb0
 3057 04bc 3E000000 		.4byte	0x3e
 3058 04c0 02       		.byte	0x2
 3059 04c1 06       		.uleb128 0x6
 3060 04c2 13000000 		.4byte	.LASF64
ARM GAS  /tmp/ccAIGiUj.s 			page 55


 3061 04c6 06       		.byte	0x6
 3062 04c7 B1       		.byte	0xb1
 3063 04c8 3E000000 		.4byte	0x3e
 3064 04cc 04       		.byte	0x4
 3065 04cd 06       		.uleb128 0x6
 3066 04ce 47040000 		.4byte	.LASF65
 3067 04d2 06       		.byte	0x6
 3068 04d3 B2       		.byte	0xb2
 3069 04d4 3E000000 		.4byte	0x3e
 3070 04d8 06       		.byte	0x6
 3071 04d9 0F       		.uleb128 0xf
 3072 04da 534F4300 		.ascii	"SOC\000"
 3073 04de 06       		.byte	0x6
 3074 04df B3       		.byte	0xb3
 3075 04e0 F2040000 		.4byte	0x4f2
 3076 04e4 08       		.byte	0x8
 3077 04e5 06       		.uleb128 0x6
 3078 04e6 CD050000 		.4byte	.LASF83
 3079 04ea 06       		.byte	0x6
 3080 04eb B4       		.byte	0xb4
 3081 04ec F2040000 		.4byte	0x4f2
 3082 04f0 09       		.byte	0x9
 3083 04f1 00       		.byte	0
 3084 04f2 02       		.uleb128 0x2
 3085 04f3 01       		.byte	0x1
 3086 04f4 08       		.byte	0x8
 3087 04f5 0E060000 		.4byte	.LASF84
 3088 04f9 10       		.uleb128 0x10
 3089 04fa 10       		.byte	0x10
 3090 04fb 06       		.byte	0x6
 3091 04fc AC       		.byte	0xac
 3092 04fd 17050000 		.4byte	0x517
 3093 0501 11       		.uleb128 0x11
 3094 0502 646200   		.ascii	"db\000"
 3095 0505 06       		.byte	0x6
 3096 0506 AD       		.byte	0xad
 3097 0507 E7030000 		.4byte	0x3e7
 3098 050b 11       		.uleb128 0x11
 3099 050c 72656700 		.ascii	"reg\000"
 3100 0510 06       		.byte	0x6
 3101 0511 B6       		.byte	0xb6
 3102 0512 A1040000 		.4byte	0x4a1
 3103 0516 00       		.byte	0
 3104 0517 03       		.uleb128 0x3
 3105 0518 CF040000 		.4byte	.LASF85
 3106 051c 06       		.byte	0x6
 3107 051d B7       		.byte	0xb7
 3108 051e F9040000 		.4byte	0x4f9
 3109 0522 05       		.uleb128 0x5
 3110 0523 6C       		.byte	0x6c
 3111 0524 06       		.byte	0x6
 3112 0525 BA       		.byte	0xba
 3113 0526 4F050000 		.4byte	0x54f
 3114 052a 06       		.uleb128 0x6
 3115 052b B6070000 		.4byte	.LASF86
 3116 052f 06       		.byte	0x6
 3117 0530 BB       		.byte	0xbb
ARM GAS  /tmp/ccAIGiUj.s 			page 56


 3118 0531 FE030000 		.4byte	0x3fe
 3119 0535 00       		.byte	0
 3120 0536 06       		.uleb128 0x6
 3121 0537 2D030000 		.4byte	.LASF87
 3122 053b 06       		.byte	0x6
 3123 053c BC       		.byte	0xbc
 3124 053d 96040000 		.4byte	0x496
 3125 0541 30       		.byte	0x30
 3126 0542 06       		.uleb128 0x6
 3127 0543 00060000 		.4byte	.LASF88
 3128 0547 06       		.byte	0x6
 3129 0548 BD       		.byte	0xbd
 3130 0549 17050000 		.4byte	0x517
 3131 054d 5C       		.byte	0x5c
 3132 054e 00       		.byte	0
 3133 054f 03       		.uleb128 0x3
 3134 0550 6E070000 		.4byte	.LASF89
 3135 0554 06       		.byte	0x6
 3136 0555 BE       		.byte	0xbe
 3137 0556 22050000 		.4byte	0x522
 3138 055a 12       		.uleb128 0x12
 3139 055b 28020000 		.4byte	.LASF96
 3140 055f 01       		.byte	0x1
 3141 0560 AA       		.byte	0xaa
 3142 0561 7E010000 		.4byte	0x17e
 3143 0565 00000000 		.4byte	.LFB0
 3144 0569 5C020000 		.4byte	.LFE0-.LFB0
 3145 056d 01       		.uleb128 0x1
 3146 056e 9C       		.byte	0x9c
 3147 056f F6050000 		.4byte	0x5f6
 3148 0573 13       		.uleb128 0x13
 3149 0574 D6070000 		.4byte	.LASF98
 3150 0578 01       		.byte	0x1
 3151 0579 AA       		.byte	0xaa
 3152 057a B5020000 		.4byte	0x2b5
 3153 057e 03       		.uleb128 0x3
 3154 057f 91       		.byte	0x91
 3155 0580 8C7F     		.sleb128 -116
 3156 0582 14       		.uleb128 0x14
 3157 0583 72657300 		.ascii	"res\000"
 3158 0587 01       		.byte	0x1
 3159 0588 AC       		.byte	0xac
 3160 0589 AD000000 		.4byte	0xad
 3161 058d 02       		.uleb128 0x2
 3162 058e 91       		.byte	0x91
 3163 058f 5C       		.sleb128 -36
 3164 0590 15       		.uleb128 0x15
 3165 0591 8C030000 		.4byte	.LASF90
 3166 0595 01       		.byte	0x1
 3167 0596 AC       		.byte	0xac
 3168 0597 AD000000 		.4byte	0xad
 3169 059b 02       		.uleb128 0x2
 3170 059c 91       		.byte	0x91
 3171 059d 6C       		.sleb128 -20
 3172 059e 15       		.uleb128 0x15
 3173 059f C3050000 		.4byte	.LASF69
 3174 05a3 01       		.byte	0x1
ARM GAS  /tmp/ccAIGiUj.s 			page 57


 3175 05a4 AD       		.byte	0xad
 3176 05a5 F6050000 		.4byte	0x5f6
 3177 05a9 03       		.uleb128 0x3
 3178 05aa 91       		.byte	0x91
 3179 05ab 9C7F     		.sleb128 -100
 3180 05ad 15       		.uleb128 0x15
 3181 05ae 21020000 		.4byte	.LASF91
 3182 05b2 01       		.byte	0x1
 3183 05b3 AE       		.byte	0xae
 3184 05b4 89000000 		.4byte	0x89
 3185 05b8 03       		.uleb128 0x3
 3186 05b9 91       		.byte	0x91
 3187 05ba 987F     		.sleb128 -104
 3188 05bc 15       		.uleb128 0x15
 3189 05bd 02020000 		.4byte	.LASF92
 3190 05c1 01       		.byte	0x1
 3191 05c2 AF       		.byte	0xaf
 3192 05c3 97000000 		.4byte	0x97
 3193 05c7 03       		.uleb128 0x3
 3194 05c8 91       		.byte	0x91
 3195 05c9 977F     		.sleb128 -105
 3196 05cb 15       		.uleb128 0x15
 3197 05cc B8050000 		.4byte	.LASF93
 3198 05d0 01       		.byte	0x1
 3199 05d1 B1       		.byte	0xb1
 3200 05d2 06060000 		.4byte	0x606
 3201 05d6 02       		.uleb128 0x2
 3202 05d7 91       		.byte	0x91
 3203 05d8 68       		.sleb128 -24
 3204 05d9 15       		.uleb128 0x15
 3205 05da BA030000 		.4byte	.LASF94
 3206 05de 01       		.byte	0x1
 3207 05df B2       		.byte	0xb2
 3208 05e0 0C060000 		.4byte	0x60c
 3209 05e4 02       		.uleb128 0x2
 3210 05e5 91       		.byte	0x91
 3211 05e6 64       		.sleb128 -28
 3212 05e7 15       		.uleb128 0x15
 3213 05e8 F8050000 		.4byte	.LASF95
 3214 05ec 01       		.byte	0x1
 3215 05ed B3       		.byte	0xb3
 3216 05ee 12060000 		.4byte	0x612
 3217 05f2 02       		.uleb128 0x2
 3218 05f3 91       		.byte	0x91
 3219 05f4 60       		.sleb128 -32
 3220 05f5 00       		.byte	0
 3221 05f6 0D       		.uleb128 0xd
 3222 05f7 AD000000 		.4byte	0xad
 3223 05fb 06060000 		.4byte	0x606
 3224 05ff 0E       		.uleb128 0xe
 3225 0600 F7030000 		.4byte	0x3f7
 3226 0604 0F       		.byte	0xf
 3227 0605 00       		.byte	0
 3228 0606 0C       		.uleb128 0xc
 3229 0607 04       		.byte	0x4
 3230 0608 FE030000 		.4byte	0x3fe
 3231 060c 0C       		.uleb128 0xc
ARM GAS  /tmp/ccAIGiUj.s 			page 58


 3232 060d 04       		.byte	0x4
 3233 060e 96040000 		.4byte	0x496
 3234 0612 0C       		.uleb128 0xc
 3235 0613 04       		.byte	0x4
 3236 0614 17050000 		.4byte	0x517
 3237 0618 16       		.uleb128 0x16
 3238 0619 2E010000 		.4byte	.LASF97
 3239 061d 01       		.byte	0x1
 3240 061e 2901     		.2byte	0x129
 3241 0620 7E010000 		.4byte	0x17e
 3242 0624 60020000 		.4byte	.LFB1
 3243 0628 12000000 		.4byte	.LFE1-.LFB1
 3244 062c 01       		.uleb128 0x1
 3245 062d 9C       		.byte	0x9c
 3246 062e 42060000 		.4byte	0x642
 3247 0632 17       		.uleb128 0x17
 3248 0633 D6070000 		.4byte	.LASF98
 3249 0637 01       		.byte	0x1
 3250 0638 2901     		.2byte	0x129
 3251 063a B5020000 		.4byte	0x2b5
 3252 063e 02       		.uleb128 0x2
 3253 063f 91       		.byte	0x91
 3254 0640 7C       		.sleb128 -4
 3255 0641 00       		.byte	0
 3256 0642 18       		.uleb128 0x18
 3257 0643 DC050000 		.4byte	.LASF99
 3258 0647 01       		.byte	0x1
 3259 0648 4F01     		.2byte	0x14f
 3260 064a 7E010000 		.4byte	0x17e
 3261 064e 80020000 		.4byte	.LFB2
 3262 0652 28000000 		.4byte	.LFE2-.LFB2
 3263 0656 01       		.uleb128 0x1
 3264 0657 9C       		.byte	0x9c
 3265 0658 7B060000 		.4byte	0x67b
 3266 065c 17       		.uleb128 0x17
 3267 065d D6070000 		.4byte	.LASF98
 3268 0661 01       		.byte	0x1
 3269 0662 4F01     		.2byte	0x14f
 3270 0664 B5020000 		.4byte	0x2b5
 3271 0668 02       		.uleb128 0x2
 3272 0669 91       		.byte	0x91
 3273 066a 74       		.sleb128 -12
 3274 066b 17       		.uleb128 0x17
 3275 066c 51060000 		.4byte	.LASF17
 3276 0670 01       		.byte	0x1
 3277 0671 4F01     		.2byte	0x14f
 3278 0673 D5020000 		.4byte	0x2d5
 3279 0677 02       		.uleb128 0x2
 3280 0678 91       		.byte	0x91
 3281 0679 70       		.sleb128 -16
 3282 067a 00       		.byte	0
 3283 067b 18       		.uleb128 0x18
 3284 067c 86050000 		.4byte	.LASF100
 3285 0680 01       		.byte	0x1
 3286 0681 6101     		.2byte	0x161
 3287 0683 7E010000 		.4byte	0x17e
 3288 0687 B0020000 		.4byte	.LFB3
ARM GAS  /tmp/ccAIGiUj.s 			page 59


 3289 068b A4020000 		.4byte	.LFE3-.LFB3
 3290 068f 01       		.uleb128 0x1
 3291 0690 9C       		.byte	0x9c
 3292 0691 F0060000 		.4byte	0x6f0
 3293 0695 17       		.uleb128 0x17
 3294 0696 D6070000 		.4byte	.LASF98
 3295 069a 01       		.byte	0x1
 3296 069b 6101     		.2byte	0x161
 3297 069d B5020000 		.4byte	0x2b5
 3298 06a1 02       		.uleb128 0x2
 3299 06a2 91       		.byte	0x91
 3300 06a3 64       		.sleb128 -28
 3301 06a4 17       		.uleb128 0x17
 3302 06a5 A5050000 		.4byte	.LASF101
 3303 06a9 01       		.byte	0x1
 3304 06aa 6101     		.2byte	0x161
 3305 06ac D5020000 		.4byte	0x2d5
 3306 06b0 02       		.uleb128 0x2
 3307 06b1 91       		.byte	0x91
 3308 06b2 60       		.sleb128 -32
 3309 06b3 19       		.uleb128 0x19
 3310 06b4 72657300 		.ascii	"res\000"
 3311 06b8 01       		.byte	0x1
 3312 06b9 6301     		.2byte	0x163
 3313 06bb 89000000 		.4byte	0x89
 3314 06bf 02       		.uleb128 0x2
 3315 06c0 91       		.byte	0x91
 3316 06c1 68       		.sleb128 -24
 3317 06c2 1A       		.uleb128 0x1a
 3318 06c3 B8050000 		.4byte	.LASF93
 3319 06c7 01       		.byte	0x1
 3320 06c8 6501     		.2byte	0x165
 3321 06ca 06060000 		.4byte	0x606
 3322 06ce 02       		.uleb128 0x2
 3323 06cf 91       		.byte	0x91
 3324 06d0 74       		.sleb128 -12
 3325 06d1 1A       		.uleb128 0x1a
 3326 06d2 BA030000 		.4byte	.LASF94
 3327 06d6 01       		.byte	0x1
 3328 06d7 6601     		.2byte	0x166
 3329 06d9 0C060000 		.4byte	0x60c
 3330 06dd 02       		.uleb128 0x2
 3331 06de 91       		.byte	0x91
 3332 06df 70       		.sleb128 -16
 3333 06e0 1A       		.uleb128 0x1a
 3334 06e1 F8050000 		.4byte	.LASF95
 3335 06e5 01       		.byte	0x1
 3336 06e6 6701     		.2byte	0x167
 3337 06e8 12060000 		.4byte	0x612
 3338 06ec 02       		.uleb128 0x2
 3339 06ed 91       		.byte	0x91
 3340 06ee 6C       		.sleb128 -20
 3341 06ef 00       		.byte	0
 3342 06f0 18       		.uleb128 0x18
 3343 06f1 E7000000 		.4byte	.LASF102
 3344 06f5 01       		.byte	0x1
 3345 06f6 F901     		.2byte	0x1f9
ARM GAS  /tmp/ccAIGiUj.s 			page 60


 3346 06f8 7E010000 		.4byte	0x17e
 3347 06fc 60050000 		.4byte	.LFB4
 3348 0700 54000000 		.4byte	.LFE4-.LFB4
 3349 0704 01       		.uleb128 0x1
 3350 0705 9C       		.byte	0x9c
 3351 0706 47070000 		.4byte	0x747
 3352 070a 17       		.uleb128 0x17
 3353 070b D6070000 		.4byte	.LASF98
 3354 070f 01       		.byte	0x1
 3355 0710 F901     		.2byte	0x1f9
 3356 0712 B5020000 		.4byte	0x2b5
 3357 0716 02       		.uleb128 0x2
 3358 0717 91       		.byte	0x91
 3359 0718 64       		.sleb128 -28
 3360 0719 19       		.uleb128 0x19
 3361 071a 72657300 		.ascii	"res\000"
 3362 071e 01       		.byte	0x1
 3363 071f FB01     		.2byte	0x1fb
 3364 0721 89000000 		.4byte	0x89
 3365 0725 02       		.uleb128 0x2
 3366 0726 91       		.byte	0x91
 3367 0727 70       		.sleb128 -16
 3368 0728 1A       		.uleb128 0x1a
 3369 0729 F8050000 		.4byte	.LASF95
 3370 072d 01       		.byte	0x1
 3371 072e FC01     		.2byte	0x1fc
 3372 0730 12060000 		.4byte	0x612
 3373 0734 02       		.uleb128 0x2
 3374 0735 91       		.byte	0x91
 3375 0736 74       		.sleb128 -12
 3376 0737 1A       		.uleb128 0x1a
 3377 0738 E3030000 		.4byte	.LASF103
 3378 073c 01       		.byte	0x1
 3379 073d 0402     		.2byte	0x204
 3380 073f 97000000 		.4byte	0x97
 3381 0743 02       		.uleb128 0x2
 3382 0744 91       		.byte	0x91
 3383 0745 6F       		.sleb128 -17
 3384 0746 00       		.byte	0
 3385 0747 18       		.uleb128 0x18
 3386 0748 AE060000 		.4byte	.LASF104
 3387 074c 01       		.byte	0x1
 3388 074d 0F02     		.2byte	0x20f
 3389 074f 7E010000 		.4byte	0x17e
 3390 0753 C0050000 		.4byte	.LFB5
 3391 0757 4C000000 		.4byte	.LFE5-.LFB5
 3392 075b 01       		.uleb128 0x1
 3393 075c 9C       		.byte	0x9c
 3394 075d 8F070000 		.4byte	0x78f
 3395 0761 17       		.uleb128 0x17
 3396 0762 D6070000 		.4byte	.LASF98
 3397 0766 01       		.byte	0x1
 3398 0767 0F02     		.2byte	0x20f
 3399 0769 B5020000 		.4byte	0x2b5
 3400 076d 02       		.uleb128 0x2
 3401 076e 91       		.byte	0x91
 3402 076f 6C       		.sleb128 -20
ARM GAS  /tmp/ccAIGiUj.s 			page 61


 3403 0770 19       		.uleb128 0x19
 3404 0771 72657300 		.ascii	"res\000"
 3405 0775 01       		.byte	0x1
 3406 0776 1102     		.2byte	0x211
 3407 0778 89000000 		.4byte	0x89
 3408 077c 02       		.uleb128 0x2
 3409 077d 91       		.byte	0x91
 3410 077e 70       		.sleb128 -16
 3411 077f 1A       		.uleb128 0x1a
 3412 0780 F8050000 		.4byte	.LASF95
 3413 0784 01       		.byte	0x1
 3414 0785 1202     		.2byte	0x212
 3415 0787 12060000 		.4byte	0x612
 3416 078b 02       		.uleb128 0x2
 3417 078c 91       		.byte	0x91
 3418 078d 74       		.sleb128 -12
 3419 078e 00       		.byte	0
 3420 078f 16       		.uleb128 0x16
 3421 0790 18040000 		.4byte	.LASF105
 3422 0794 01       		.byte	0x1
 3423 0795 2702     		.2byte	0x227
 3424 0797 7E010000 		.4byte	0x17e
 3425 079b 10060000 		.4byte	.LFB6
 3426 079f 30000000 		.4byte	.LFE6-.LFB6
 3427 07a3 01       		.uleb128 0x1
 3428 07a4 9C       		.byte	0x9c
 3429 07a5 C8070000 		.4byte	0x7c8
 3430 07a9 17       		.uleb128 0x17
 3431 07aa D6070000 		.4byte	.LASF98
 3432 07ae 01       		.byte	0x1
 3433 07af 2702     		.2byte	0x227
 3434 07b1 B5020000 		.4byte	0x2b5
 3435 07b5 02       		.uleb128 0x2
 3436 07b6 91       		.byte	0x91
 3437 07b7 7C       		.sleb128 -4
 3438 07b8 1B       		.uleb128 0x1b
 3439 07b9 534F4300 		.ascii	"SOC\000"
 3440 07bd 01       		.byte	0x1
 3441 07be 2702     		.2byte	0x227
 3442 07c0 F5020000 		.4byte	0x2f5
 3443 07c4 02       		.uleb128 0x2
 3444 07c5 91       		.byte	0x91
 3445 07c6 78       		.sleb128 -8
 3446 07c7 00       		.byte	0
 3447 07c8 16       		.uleb128 0x16
 3448 07c9 0F050000 		.4byte	.LASF106
 3449 07cd 01       		.byte	0x1
 3450 07ce 3202     		.2byte	0x232
 3451 07d0 7E010000 		.4byte	0x17e
 3452 07d4 40060000 		.4byte	.LFB7
 3453 07d8 1C000000 		.4byte	.LFE7-.LFB7
 3454 07dc 01       		.uleb128 0x1
 3455 07dd 9C       		.byte	0x9c
 3456 07de 01080000 		.4byte	0x801
 3457 07e2 17       		.uleb128 0x17
 3458 07e3 D6070000 		.4byte	.LASF98
 3459 07e7 01       		.byte	0x1
ARM GAS  /tmp/ccAIGiUj.s 			page 62


 3460 07e8 3202     		.2byte	0x232
 3461 07ea B5020000 		.4byte	0x2b5
 3462 07ee 02       		.uleb128 0x2
 3463 07ef 91       		.byte	0x91
 3464 07f0 7C       		.sleb128 -4
 3465 07f1 1B       		.uleb128 0x1b
 3466 07f2 4F435600 		.ascii	"OCV\000"
 3467 07f6 01       		.byte	0x1
 3468 07f7 3202     		.2byte	0x232
 3469 07f9 F5020000 		.4byte	0x2f5
 3470 07fd 02       		.uleb128 0x2
 3471 07fe 91       		.byte	0x91
 3472 07ff 78       		.sleb128 -8
 3473 0800 00       		.byte	0
 3474 0801 16       		.uleb128 0x16
 3475 0802 98040000 		.4byte	.LASF107
 3476 0806 01       		.byte	0x1
 3477 0807 3D02     		.2byte	0x23d
 3478 0809 7E010000 		.4byte	0x17e
 3479 080d 60060000 		.4byte	.LFB8
 3480 0811 1A000000 		.4byte	.LFE8-.LFB8
 3481 0815 01       		.uleb128 0x1
 3482 0816 9C       		.byte	0x9c
 3483 0817 3A080000 		.4byte	0x83a
 3484 081b 17       		.uleb128 0x17
 3485 081c D6070000 		.4byte	.LASF98
 3486 0820 01       		.byte	0x1
 3487 0821 3D02     		.2byte	0x23d
 3488 0823 B5020000 		.4byte	0x2b5
 3489 0827 02       		.uleb128 0x2
 3490 0828 91       		.byte	0x91
 3491 0829 7C       		.sleb128 -4
 3492 082a 17       		.uleb128 0x17
 3493 082b 65040000 		.4byte	.LASF75
 3494 082f 01       		.byte	0x1
 3495 0830 3D02     		.2byte	0x23d
 3496 0832 15030000 		.4byte	0x315
 3497 0836 02       		.uleb128 0x2
 3498 0837 91       		.byte	0x91
 3499 0838 78       		.sleb128 -8
 3500 0839 00       		.byte	0
 3501 083a 16       		.uleb128 0x16
 3502 083b DF040000 		.4byte	.LASF108
 3503 083f 01       		.byte	0x1
 3504 0840 4802     		.2byte	0x248
 3505 0842 7E010000 		.4byte	0x17e
 3506 0846 80060000 		.4byte	.LFB9
 3507 084a 1A000000 		.4byte	.LFE9-.LFB9
 3508 084e 01       		.uleb128 0x1
 3509 084f 9C       		.byte	0x9c
 3510 0850 73080000 		.4byte	0x873
 3511 0854 17       		.uleb128 0x17
 3512 0855 D6070000 		.4byte	.LASF98
 3513 0859 01       		.byte	0x1
 3514 085a 4802     		.2byte	0x248
 3515 085c B5020000 		.4byte	0x2b5
 3516 0860 02       		.uleb128 0x2
ARM GAS  /tmp/ccAIGiUj.s 			page 63


 3517 0861 91       		.byte	0x91
 3518 0862 7C       		.sleb128 -4
 3519 0863 17       		.uleb128 0x17
 3520 0864 62070000 		.4byte	.LASF76
 3521 0868 01       		.byte	0x1
 3522 0869 4802     		.2byte	0x248
 3523 086b 15030000 		.4byte	0x315
 3524 086f 02       		.uleb128 0x2
 3525 0870 91       		.byte	0x91
 3526 0871 78       		.sleb128 -8
 3527 0872 00       		.byte	0
 3528 0873 16       		.uleb128 0x16
 3529 0874 1E050000 		.4byte	.LASF109
 3530 0878 01       		.byte	0x1
 3531 0879 5302     		.2byte	0x253
 3532 087b 7E010000 		.4byte	0x17e
 3533 087f A0060000 		.4byte	.LFB10
 3534 0883 1C000000 		.4byte	.LFE10-.LFB10
 3535 0887 01       		.uleb128 0x1
 3536 0888 9C       		.byte	0x9c
 3537 0889 AC080000 		.4byte	0x8ac
 3538 088d 17       		.uleb128 0x17
 3539 088e D6070000 		.4byte	.LASF98
 3540 0892 01       		.byte	0x1
 3541 0893 5302     		.2byte	0x253
 3542 0895 B5020000 		.4byte	0x2b5
 3543 0899 02       		.uleb128 0x2
 3544 089a 91       		.byte	0x91
 3545 089b 7C       		.sleb128 -4
 3546 089c 17       		.uleb128 0x17
 3547 089d FB030000 		.4byte	.LASF74
 3548 08a1 01       		.byte	0x1
 3549 08a2 5302     		.2byte	0x253
 3550 08a4 F5020000 		.4byte	0x2f5
 3551 08a8 02       		.uleb128 0x2
 3552 08a9 91       		.byte	0x91
 3553 08aa 78       		.sleb128 -8
 3554 08ab 00       		.byte	0
 3555 08ac 16       		.uleb128 0x16
 3556 08ad 4E040000 		.4byte	.LASF110
 3557 08b1 01       		.byte	0x1
 3558 08b2 5E02     		.2byte	0x25e
 3559 08b4 7E010000 		.4byte	0x17e
 3560 08b8 C0060000 		.4byte	.LFB11
 3561 08bc 1C000000 		.4byte	.LFE11-.LFB11
 3562 08c0 01       		.uleb128 0x1
 3563 08c1 9C       		.byte	0x9c
 3564 08c2 E5080000 		.4byte	0x8e5
 3565 08c6 17       		.uleb128 0x17
 3566 08c7 D6070000 		.4byte	.LASF98
 3567 08cb 01       		.byte	0x1
 3568 08cc 5E02     		.2byte	0x25e
 3569 08ce B5020000 		.4byte	0x2b5
 3570 08d2 02       		.uleb128 0x2
 3571 08d3 91       		.byte	0x91
 3572 08d4 7C       		.sleb128 -4
 3573 08d5 17       		.uleb128 0x17
ARM GAS  /tmp/ccAIGiUj.s 			page 64


 3574 08d6 9B060000 		.4byte	.LASF79
 3575 08da 01       		.byte	0x1
 3576 08db 5E02     		.2byte	0x25e
 3577 08dd F5020000 		.4byte	0x2f5
 3578 08e1 02       		.uleb128 0x2
 3579 08e2 91       		.byte	0x91
 3580 08e3 78       		.sleb128 -8
 3581 08e4 00       		.byte	0
 3582 08e5 16       		.uleb128 0x16
 3583 08e6 6D040000 		.4byte	.LASF111
 3584 08ea 01       		.byte	0x1
 3585 08eb 6902     		.2byte	0x269
 3586 08ed 7E010000 		.4byte	0x17e
 3587 08f1 E0060000 		.4byte	.LFB12
 3588 08f5 1C000000 		.4byte	.LFE12-.LFB12
 3589 08f9 01       		.uleb128 0x1
 3590 08fa 9C       		.byte	0x9c
 3591 08fb 1E090000 		.4byte	0x91e
 3592 08ff 17       		.uleb128 0x17
 3593 0900 D6070000 		.4byte	.LASF98
 3594 0904 01       		.byte	0x1
 3595 0905 6902     		.2byte	0x269
 3596 0907 B5020000 		.4byte	0x2b5
 3597 090b 02       		.uleb128 0x2
 3598 090c 91       		.byte	0x91
 3599 090d 7C       		.sleb128 -4
 3600 090e 17       		.uleb128 0x17
 3601 090f 2D070000 		.4byte	.LASF78
 3602 0913 01       		.byte	0x1
 3603 0914 6902     		.2byte	0x269
 3604 0916 F5020000 		.4byte	0x2f5
 3605 091a 02       		.uleb128 0x2
 3606 091b 91       		.byte	0x91
 3607 091c 78       		.sleb128 -8
 3608 091d 00       		.byte	0
 3609 091e 16       		.uleb128 0x16
 3610 091f A3030000 		.4byte	.LASF112
 3611 0923 01       		.byte	0x1
 3612 0924 7402     		.2byte	0x274
 3613 0926 7E010000 		.4byte	0x17e
 3614 092a 00070000 		.4byte	.LFB13
 3615 092e 20000000 		.4byte	.LFE13-.LFB13
 3616 0932 01       		.uleb128 0x1
 3617 0933 9C       		.byte	0x9c
 3618 0934 57090000 		.4byte	0x957
 3619 0938 17       		.uleb128 0x17
 3620 0939 D6070000 		.4byte	.LASF98
 3621 093d 01       		.byte	0x1
 3622 093e 7402     		.2byte	0x274
 3623 0940 B5020000 		.4byte	0x2b5
 3624 0944 02       		.uleb128 0x2
 3625 0945 91       		.byte	0x91
 3626 0946 7C       		.sleb128 -4
 3627 0947 17       		.uleb128 0x17
 3628 0948 4E070000 		.4byte	.LASF72
 3629 094c 01       		.byte	0x1
 3630 094d 7402     		.2byte	0x274
ARM GAS  /tmp/ccAIGiUj.s 			page 65


 3631 094f F5020000 		.4byte	0x2f5
 3632 0953 02       		.uleb128 0x2
 3633 0954 91       		.byte	0x91
 3634 0955 78       		.sleb128 -8
 3635 0956 00       		.byte	0
 3636 0957 18       		.uleb128 0x18
 3637 0958 CD050000 		.4byte	.LASF83
 3638 095c 01       		.byte	0x1
 3639 095d 7F02     		.2byte	0x27f
 3640 095f 89000000 		.4byte	0x89
 3641 0963 20070000 		.4byte	.LFB14
 3642 0967 52000000 		.4byte	.LFE14-.LFB14
 3643 096b 01       		.uleb128 0x1
 3644 096c 9C       		.byte	0x9c
 3645 096d 9F090000 		.4byte	0x99f
 3646 0971 17       		.uleb128 0x17
 3647 0972 D6070000 		.4byte	.LASF98
 3648 0976 01       		.byte	0x1
 3649 0977 7F02     		.2byte	0x27f
 3650 0979 B5020000 		.4byte	0x2b5
 3651 097d 02       		.uleb128 0x2
 3652 097e 91       		.byte	0x91
 3653 097f 6C       		.sleb128 -20
 3654 0980 1A       		.uleb128 0x1a
 3655 0981 00000000 		.4byte	.LASF113
 3656 0985 01       		.byte	0x1
 3657 0986 8102     		.2byte	0x281
 3658 0988 89000000 		.4byte	0x89
 3659 098c 02       		.uleb128 0x2
 3660 098d 91       		.byte	0x91
 3661 098e 74       		.sleb128 -12
 3662 098f 1A       		.uleb128 0x1a
 3663 0990 E3030000 		.4byte	.LASF103
 3664 0994 01       		.byte	0x1
 3665 0995 8202     		.2byte	0x282
 3666 0997 97000000 		.4byte	0x97
 3667 099b 02       		.uleb128 0x2
 3668 099c 91       		.byte	0x91
 3669 099d 73       		.sleb128 -13
 3670 099e 00       		.byte	0
 3671 099f 16       		.uleb128 0x16
 3672 09a0 92010000 		.4byte	.LASF114
 3673 09a4 01       		.byte	0x1
 3674 09a5 9702     		.2byte	0x297
 3675 09a7 89000000 		.4byte	0x89
 3676 09ab 80070000 		.4byte	.LFB15
 3677 09af 60000000 		.4byte	.LFE15-.LFB15
 3678 09b3 01       		.uleb128 0x1
 3679 09b4 9C       		.byte	0x9c
 3680 09b5 FF090000 		.4byte	0x9ff
 3681 09b9 17       		.uleb128 0x17
 3682 09ba E3030000 		.4byte	.LASF103
 3683 09be 01       		.byte	0x1
 3684 09bf 9702     		.2byte	0x297
 3685 09c1 FF090000 		.4byte	0x9ff
 3686 09c5 02       		.uleb128 0x2
 3687 09c6 91       		.byte	0x91
ARM GAS  /tmp/ccAIGiUj.s 			page 66


 3688 09c7 6C       		.sleb128 -20
 3689 09c8 1B       		.uleb128 0x1b
 3690 09c9 6E00     		.ascii	"n\000"
 3691 09cb 01       		.byte	0x1
 3692 09cc 9702     		.2byte	0x297
 3693 09ce 89000000 		.4byte	0x89
 3694 09d2 02       		.uleb128 0x2
 3695 09d3 91       		.byte	0x91
 3696 09d4 68       		.sleb128 -24
 3697 09d5 19       		.uleb128 0x19
 3698 09d6 63726300 		.ascii	"crc\000"
 3699 09da 01       		.byte	0x1
 3700 09db 9902     		.2byte	0x299
 3701 09dd 89000000 		.4byte	0x89
 3702 09e1 02       		.uleb128 0x2
 3703 09e2 91       		.byte	0x91
 3704 09e3 7C       		.sleb128 -4
 3705 09e4 19       		.uleb128 0x19
 3706 09e5 6900     		.ascii	"i\000"
 3707 09e7 01       		.byte	0x1
 3708 09e8 9A02     		.2byte	0x29a
 3709 09ea 89000000 		.4byte	0x89
 3710 09ee 02       		.uleb128 0x2
 3711 09ef 91       		.byte	0x91
 3712 09f0 78       		.sleb128 -8
 3713 09f1 19       		.uleb128 0x19
 3714 09f2 6A00     		.ascii	"j\000"
 3715 09f4 01       		.byte	0x1
 3716 09f5 9A02     		.2byte	0x29a
 3717 09f7 89000000 		.4byte	0x89
 3718 09fb 02       		.uleb128 0x2
 3719 09fc 91       		.byte	0x91
 3720 09fd 74       		.sleb128 -12
 3721 09fe 00       		.byte	0
 3722 09ff 0C       		.uleb128 0xc
 3723 0a00 04       		.byte	0x4
 3724 0a01 37000000 		.4byte	0x37
 3725 0a05 18       		.uleb128 0x18
 3726 0a06 03040000 		.4byte	.LASF115
 3727 0a0a 01       		.byte	0x1
 3728 0a0b AE02     		.2byte	0x2ae
 3729 0a0d 89000000 		.4byte	0x89
 3730 0a11 E0070000 		.4byte	.LFB16
 3731 0a15 2E000000 		.4byte	.LFE16-.LFB16
 3732 0a19 01       		.uleb128 0x1
 3733 0a1a 9C       		.byte	0x9c
 3734 0a1b 4D0A0000 		.4byte	0xa4d
 3735 0a1f 17       		.uleb128 0x17
 3736 0a20 D6070000 		.4byte	.LASF98
 3737 0a24 01       		.byte	0x1
 3738 0a25 AE02     		.2byte	0x2ae
 3739 0a27 B5020000 		.4byte	0x2b5
 3740 0a2b 02       		.uleb128 0x2
 3741 0a2c 91       		.byte	0x91
 3742 0a2d 6C       		.sleb128 -20
 3743 0a2e 19       		.uleb128 0x19
 3744 0a2f 72657300 		.ascii	"res\000"
ARM GAS  /tmp/ccAIGiUj.s 			page 67


 3745 0a33 01       		.byte	0x1
 3746 0a34 B002     		.2byte	0x2b0
 3747 0a36 89000000 		.4byte	0x89
 3748 0a3a 02       		.uleb128 0x2
 3749 0a3b 91       		.byte	0x91
 3750 0a3c 70       		.sleb128 -16
 3751 0a3d 1A       		.uleb128 0x1a
 3752 0a3e F8050000 		.4byte	.LASF95
 3753 0a42 01       		.byte	0x1
 3754 0a43 B102     		.2byte	0x2b1
 3755 0a45 12060000 		.4byte	0x612
 3756 0a49 02       		.uleb128 0x2
 3757 0a4a 91       		.byte	0x91
 3758 0a4b 74       		.sleb128 -12
 3759 0a4c 00       		.byte	0
 3760 0a4d 1C       		.uleb128 0x1c
 3761 0a4e 13060000 		.4byte	.LASF137
 3762 0a52 01       		.byte	0x1
 3763 0a53 BE02     		.2byte	0x2be
 3764 0a55 10080000 		.4byte	.LFB17
 3765 0a59 56000000 		.4byte	.LFE17-.LFB17
 3766 0a5d 01       		.uleb128 0x1
 3767 0a5e 9C       		.byte	0x9c
 3768 0a5f A00A0000 		.4byte	0xaa0
 3769 0a63 17       		.uleb128 0x17
 3770 0a64 D6070000 		.4byte	.LASF98
 3771 0a68 01       		.byte	0x1
 3772 0a69 BE02     		.2byte	0x2be
 3773 0a6b B5020000 		.4byte	0x2b5
 3774 0a6f 02       		.uleb128 0x2
 3775 0a70 91       		.byte	0x91
 3776 0a71 6C       		.sleb128 -20
 3777 0a72 17       		.uleb128 0x17
 3778 0a73 B8050000 		.4byte	.LASF93
 3779 0a77 01       		.byte	0x1
 3780 0a78 BE02     		.2byte	0x2be
 3781 0a7a 06060000 		.4byte	0x606
 3782 0a7e 02       		.uleb128 0x2
 3783 0a7f 91       		.byte	0x91
 3784 0a80 68       		.sleb128 -24
 3785 0a81 1A       		.uleb128 0x1a
 3786 0a82 4B060000 		.4byte	.LASF116
 3787 0a86 01       		.byte	0x1
 3788 0a87 C002     		.2byte	0x2c0
 3789 0a89 89000000 		.4byte	0x89
 3790 0a8d 02       		.uleb128 0x2
 3791 0a8e 91       		.byte	0x91
 3792 0a8f 74       		.sleb128 -12
 3793 0a90 1A       		.uleb128 0x1a
 3794 0a91 F8050000 		.4byte	.LASF95
 3795 0a95 01       		.byte	0x1
 3796 0a96 C102     		.2byte	0x2c1
 3797 0a98 12060000 		.4byte	0x612
 3798 0a9c 02       		.uleb128 0x2
 3799 0a9d 91       		.byte	0x91
 3800 0a9e 70       		.sleb128 -16
 3801 0a9f 00       		.byte	0
ARM GAS  /tmp/ccAIGiUj.s 			page 68


 3802 0aa0 18       		.uleb128 0x18
 3803 0aa1 C1070000 		.4byte	.LASF117
 3804 0aa5 01       		.byte	0x1
 3805 0aa6 D602     		.2byte	0x2d6
 3806 0aa8 89000000 		.4byte	0x89
 3807 0aac 70080000 		.4byte	.LFB18
 3808 0ab0 2A000000 		.4byte	.LFE18-.LFB18
 3809 0ab4 01       		.uleb128 0x1
 3810 0ab5 9C       		.byte	0x9c
 3811 0ab6 D90A0000 		.4byte	0xad9
 3812 0aba 17       		.uleb128 0x17
 3813 0abb D6070000 		.4byte	.LASF98
 3814 0abf 01       		.byte	0x1
 3815 0ac0 D602     		.2byte	0x2d6
 3816 0ac2 B5020000 		.4byte	0x2b5
 3817 0ac6 02       		.uleb128 0x2
 3818 0ac7 91       		.byte	0x91
 3819 0ac8 74       		.sleb128 -12
 3820 0ac9 17       		.uleb128 0x17
 3821 0aca 9D050000 		.4byte	.LASF118
 3822 0ace 01       		.byte	0x1
 3823 0acf D602     		.2byte	0x2d6
 3824 0ad1 FF090000 		.4byte	0x9ff
 3825 0ad5 02       		.uleb128 0x2
 3826 0ad6 91       		.byte	0x91
 3827 0ad7 70       		.sleb128 -16
 3828 0ad8 00       		.byte	0
 3829 0ad9 18       		.uleb128 0x18
 3830 0ada B5010000 		.4byte	.LASF119
 3831 0ade 01       		.byte	0x1
 3832 0adf E802     		.2byte	0x2e8
 3833 0ae1 89000000 		.4byte	0x89
 3834 0ae5 A0080000 		.4byte	.LFB19
 3835 0ae9 2A000000 		.4byte	.LFE19-.LFB19
 3836 0aed 01       		.uleb128 0x1
 3837 0aee 9C       		.byte	0x9c
 3838 0aef 120B0000 		.4byte	0xb12
 3839 0af3 17       		.uleb128 0x17
 3840 0af4 D6070000 		.4byte	.LASF98
 3841 0af8 01       		.byte	0x1
 3842 0af9 E802     		.2byte	0x2e8
 3843 0afb B5020000 		.4byte	0x2b5
 3844 0aff 02       		.uleb128 0x2
 3845 0b00 91       		.byte	0x91
 3846 0b01 74       		.sleb128 -12
 3847 0b02 17       		.uleb128 0x17
 3848 0b03 9D050000 		.4byte	.LASF118
 3849 0b07 01       		.byte	0x1
 3850 0b08 E802     		.2byte	0x2e8
 3851 0b0a FF090000 		.4byte	0x9ff
 3852 0b0e 02       		.uleb128 0x2
 3853 0b0f 91       		.byte	0x91
 3854 0b10 70       		.sleb128 -16
 3855 0b11 00       		.byte	0
 3856 0b12 18       		.uleb128 0x18
 3857 0b13 36070000 		.4byte	.LASF120
 3858 0b17 01       		.byte	0x1
ARM GAS  /tmp/ccAIGiUj.s 			page 69


 3859 0b18 F902     		.2byte	0x2f9
 3860 0b1a 89000000 		.4byte	0x89
 3861 0b1e D0080000 		.4byte	.LFB20
 3862 0b22 70010000 		.4byte	.LFE20-.LFB20
 3863 0b26 01       		.uleb128 0x1
 3864 0b27 9C       		.byte	0x9c
 3865 0b28 780B0000 		.4byte	0xb78
 3866 0b2c 17       		.uleb128 0x17
 3867 0b2d D6070000 		.4byte	.LASF98
 3868 0b31 01       		.byte	0x1
 3869 0b32 F902     		.2byte	0x2f9
 3870 0b34 B5020000 		.4byte	0x2b5
 3871 0b38 02       		.uleb128 0x2
 3872 0b39 91       		.byte	0x91
 3873 0b3a 5C       		.sleb128 -36
 3874 0b3b 17       		.uleb128 0x17
 3875 0b3c BA030000 		.4byte	.LASF94
 3876 0b40 01       		.byte	0x1
 3877 0b41 F902     		.2byte	0x2f9
 3878 0b43 0C060000 		.4byte	0x60c
 3879 0b47 02       		.uleb128 0x2
 3880 0b48 91       		.byte	0x91
 3881 0b49 58       		.sleb128 -40
 3882 0b4a 1A       		.uleb128 0x1a
 3883 0b4b E3030000 		.4byte	.LASF103
 3884 0b4f 01       		.byte	0x1
 3885 0b50 FB02     		.2byte	0x2fb
 3886 0b52 E7030000 		.4byte	0x3e7
 3887 0b56 02       		.uleb128 0x2
 3888 0b57 91       		.byte	0x91
 3889 0b58 60       		.sleb128 -32
 3890 0b59 19       		.uleb128 0x19
 3891 0b5a 72657300 		.ascii	"res\000"
 3892 0b5e 01       		.byte	0x1
 3893 0b5f FC02     		.2byte	0x2fc
 3894 0b61 89000000 		.4byte	0x89
 3895 0b65 02       		.uleb128 0x2
 3896 0b66 91       		.byte	0x91
 3897 0b67 70       		.sleb128 -16
 3898 0b68 1A       		.uleb128 0x1a
 3899 0b69 00000000 		.4byte	.LASF113
 3900 0b6d 01       		.byte	0x1
 3901 0b6e FD02     		.2byte	0x2fd
 3902 0b70 89000000 		.4byte	0x89
 3903 0b74 02       		.uleb128 0x2
 3904 0b75 91       		.byte	0x91
 3905 0b76 74       		.sleb128 -12
 3906 0b77 00       		.byte	0
 3907 0b78 18       		.uleb128 0x18
 3908 0b79 CD000000 		.4byte	.LASF121
 3909 0b7d 01       		.byte	0x1
 3910 0b7e 3603     		.2byte	0x336
 3911 0b80 89000000 		.4byte	0x89
 3912 0b84 400A0000 		.4byte	.LFB21
 3913 0b88 5C000000 		.4byte	.LFE21-.LFB21
 3914 0b8c 01       		.uleb128 0x1
 3915 0b8d 9C       		.byte	0x9c
ARM GAS  /tmp/ccAIGiUj.s 			page 70


 3916 0b8e CF0B0000 		.4byte	0xbcf
 3917 0b92 17       		.uleb128 0x17
 3918 0b93 D6070000 		.4byte	.LASF98
 3919 0b97 01       		.byte	0x1
 3920 0b98 3603     		.2byte	0x336
 3921 0b9a B5020000 		.4byte	0x2b5
 3922 0b9e 02       		.uleb128 0x2
 3923 0b9f 91       		.byte	0x91
 3924 0ba0 6C       		.sleb128 -20
 3925 0ba1 17       		.uleb128 0x17
 3926 0ba2 B8050000 		.4byte	.LASF93
 3927 0ba6 01       		.byte	0x1
 3928 0ba7 3603     		.2byte	0x336
 3929 0ba9 06060000 		.4byte	0x606
 3930 0bad 02       		.uleb128 0x2
 3931 0bae 91       		.byte	0x91
 3932 0baf 68       		.sleb128 -24
 3933 0bb0 19       		.uleb128 0x19
 3934 0bb1 72657300 		.ascii	"res\000"
 3935 0bb5 01       		.byte	0x1
 3936 0bb6 3803     		.2byte	0x338
 3937 0bb8 89000000 		.4byte	0x89
 3938 0bbc 02       		.uleb128 0x2
 3939 0bbd 91       		.byte	0x91
 3940 0bbe 74       		.sleb128 -12
 3941 0bbf 1A       		.uleb128 0x1a
 3942 0bc0 F8050000 		.4byte	.LASF95
 3943 0bc4 01       		.byte	0x1
 3944 0bc5 3903     		.2byte	0x339
 3945 0bc7 12060000 		.4byte	0x612
 3946 0bcb 02       		.uleb128 0x2
 3947 0bcc 91       		.byte	0x91
 3948 0bcd 70       		.sleb128 -16
 3949 0bce 00       		.byte	0
 3950 0bcf 18       		.uleb128 0x18
 3951 0bd0 D1030000 		.4byte	.LASF122
 3952 0bd4 01       		.byte	0x1
 3953 0bd5 5303     		.2byte	0x353
 3954 0bd7 89000000 		.4byte	0x89
 3955 0bdb A00A0000 		.4byte	.LFB22
 3956 0bdf 48000000 		.4byte	.LFE22-.LFB22
 3957 0be3 01       		.uleb128 0x1
 3958 0be4 9C       		.byte	0x9c
 3959 0be5 170C0000 		.4byte	0xc17
 3960 0be9 17       		.uleb128 0x17
 3961 0bea D6070000 		.4byte	.LASF98
 3962 0bee 01       		.byte	0x1
 3963 0bef 5303     		.2byte	0x353
 3964 0bf1 B5020000 		.4byte	0x2b5
 3965 0bf5 02       		.uleb128 0x2
 3966 0bf6 91       		.byte	0x91
 3967 0bf7 6C       		.sleb128 -20
 3968 0bf8 19       		.uleb128 0x19
 3969 0bf9 72657300 		.ascii	"res\000"
 3970 0bfd 01       		.byte	0x1
 3971 0bfe 5503     		.2byte	0x355
 3972 0c00 89000000 		.4byte	0x89
ARM GAS  /tmp/ccAIGiUj.s 			page 71


 3973 0c04 02       		.uleb128 0x2
 3974 0c05 91       		.byte	0x91
 3975 0c06 74       		.sleb128 -12
 3976 0c07 1A       		.uleb128 0x1a
 3977 0c08 E3030000 		.4byte	.LASF103
 3978 0c0c 01       		.byte	0x1
 3979 0c0d 5603     		.2byte	0x356
 3980 0c0f 97000000 		.4byte	0x97
 3981 0c13 02       		.uleb128 0x2
 3982 0c14 91       		.byte	0x91
 3983 0c15 73       		.sleb128 -13
 3984 0c16 00       		.byte	0
 3985 0c17 16       		.uleb128 0x16
 3986 0c18 F8060000 		.4byte	.LASF123
 3987 0c1c 01       		.byte	0x1
 3988 0c1d 6A03     		.2byte	0x36a
 3989 0c1f 89000000 		.4byte	0x89
 3990 0c23 F00A0000 		.4byte	.LFB23
 3991 0c27 32000000 		.4byte	.LFE23-.LFB23
 3992 0c2b 01       		.uleb128 0x1
 3993 0c2c 9C       		.byte	0x9c
 3994 0c2d 5D0C0000 		.4byte	0xc5d
 3995 0c31 17       		.uleb128 0x17
 3996 0c32 00000000 		.4byte	.LASF113
 3997 0c36 01       		.byte	0x1
 3998 0c37 6A03     		.2byte	0x36a
 3999 0c39 3E000000 		.4byte	0x3e
 4000 0c3d 02       		.uleb128 0x2
 4001 0c3e 91       		.byte	0x91
 4002 0c3f 76       		.sleb128 -10
 4003 0c40 17       		.uleb128 0x17
 4004 0c41 8B010000 		.4byte	.LASF124
 4005 0c45 01       		.byte	0x1
 4006 0c46 6A03     		.2byte	0x36a
 4007 0c48 50000000 		.4byte	0x50
 4008 0c4c 02       		.uleb128 0x2
 4009 0c4d 91       		.byte	0x91
 4010 0c4e 74       		.sleb128 -12
 4011 0c4f 19       		.uleb128 0x19
 4012 0c50 7600     		.ascii	"v\000"
 4013 0c52 01       		.byte	0x1
 4014 0c53 6C03     		.2byte	0x36c
 4015 0c55 89000000 		.4byte	0x89
 4016 0c59 02       		.uleb128 0x2
 4017 0c5a 91       		.byte	0x91
 4018 0c5b 7C       		.sleb128 -4
 4019 0c5c 00       		.byte	0
 4020 0c5d 18       		.uleb128 0x18
 4021 0c5e 39030000 		.4byte	.LASF125
 4022 0c62 01       		.byte	0x1
 4023 0c63 7903     		.2byte	0x379
 4024 0c65 89000000 		.4byte	0x89
 4025 0c69 300B0000 		.4byte	.LFB24
 4026 0c6d 44000000 		.4byte	.LFE24-.LFB24
 4027 0c71 01       		.uleb128 0x1
 4028 0c72 9C       		.byte	0x9c
 4029 0c73 B40C0000 		.4byte	0xcb4
ARM GAS  /tmp/ccAIGiUj.s 			page 72


 4030 0c77 17       		.uleb128 0x17
 4031 0c78 D6070000 		.4byte	.LASF98
 4032 0c7c 01       		.byte	0x1
 4033 0c7d 7903     		.2byte	0x379
 4034 0c7f B5020000 		.4byte	0x2b5
 4035 0c83 02       		.uleb128 0x2
 4036 0c84 91       		.byte	0x91
 4037 0c85 6C       		.sleb128 -20
 4038 0c86 17       		.uleb128 0x17
 4039 0c87 B8050000 		.4byte	.LASF93
 4040 0c8b 01       		.byte	0x1
 4041 0c8c 7903     		.2byte	0x379
 4042 0c8e 06060000 		.4byte	0x606
 4043 0c92 02       		.uleb128 0x2
 4044 0c93 91       		.byte	0x91
 4045 0c94 68       		.sleb128 -24
 4046 0c95 19       		.uleb128 0x19
 4047 0c96 72657300 		.ascii	"res\000"
 4048 0c9a 01       		.byte	0x1
 4049 0c9b 7B03     		.2byte	0x37b
 4050 0c9d 89000000 		.4byte	0x89
 4051 0ca1 02       		.uleb128 0x2
 4052 0ca2 91       		.byte	0x91
 4053 0ca3 74       		.sleb128 -12
 4054 0ca4 19       		.uleb128 0x19
 4055 0ca5 6F637600 		.ascii	"ocv\000"
 4056 0ca9 01       		.byte	0x1
 4057 0caa 7C03     		.2byte	0x37c
 4058 0cac 89000000 		.4byte	0x89
 4059 0cb0 02       		.uleb128 0x2
 4060 0cb1 91       		.byte	0x91
 4061 0cb2 70       		.sleb128 -16
 4062 0cb3 00       		.byte	0
 4063 0cb4 18       		.uleb128 0x18
 4064 0cb5 55070000 		.4byte	.LASF126
 4065 0cb9 01       		.byte	0x1
 4066 0cba 9303     		.2byte	0x393
 4067 0cbc 89000000 		.4byte	0x89
 4068 0cc0 800B0000 		.4byte	.LFB25
 4069 0cc4 3A000000 		.4byte	.LFE25-.LFB25
 4070 0cc8 01       		.uleb128 0x1
 4071 0cc9 9C       		.byte	0x9c
 4072 0cca 0B0D0000 		.4byte	0xd0b
 4073 0cce 17       		.uleb128 0x17
 4074 0ccf D6070000 		.4byte	.LASF98
 4075 0cd3 01       		.byte	0x1
 4076 0cd4 9303     		.2byte	0x393
 4077 0cd6 B5020000 		.4byte	0x2b5
 4078 0cda 02       		.uleb128 0x2
 4079 0cdb 91       		.byte	0x91
 4080 0cdc 74       		.sleb128 -12
 4081 0cdd 17       		.uleb128 0x17
 4082 0cde E3010000 		.4byte	.LASF127
 4083 0ce2 01       		.byte	0x1
 4084 0ce3 9303     		.2byte	0x393
 4085 0ce5 97000000 		.4byte	0x97
 4086 0ce9 02       		.uleb128 0x2
ARM GAS  /tmp/ccAIGiUj.s 			page 73


 4087 0cea 91       		.byte	0x91
 4088 0ceb 73       		.sleb128 -13
 4089 0cec 17       		.uleb128 0x17
 4090 0ced E3030000 		.4byte	.LASF103
 4091 0cf1 01       		.byte	0x1
 4092 0cf2 9303     		.2byte	0x393
 4093 0cf4 D5020000 		.4byte	0x2d5
 4094 0cf8 02       		.uleb128 0x2
 4095 0cf9 91       		.byte	0x91
 4096 0cfa 6C       		.sleb128 -20
 4097 0cfb 17       		.uleb128 0x17
 4098 0cfc 4E020000 		.4byte	.LASF128
 4099 0d00 01       		.byte	0x1
 4100 0d01 9303     		.2byte	0x393
 4101 0d03 A2000000 		.4byte	0xa2
 4102 0d07 02       		.uleb128 0x2
 4103 0d08 91       		.byte	0x91
 4104 0d09 70       		.sleb128 -16
 4105 0d0a 00       		.byte	0
 4106 0d0b 18       		.uleb128 0x18
 4107 0d0c EA060000 		.4byte	.LASF129
 4108 0d10 01       		.byte	0x1
 4109 0d11 A503     		.2byte	0x3a5
 4110 0d13 89000000 		.4byte	0x89
 4111 0d17 C00B0000 		.4byte	.LFB26
 4112 0d1b 3A000000 		.4byte	.LFE26-.LFB26
 4113 0d1f 01       		.uleb128 0x1
 4114 0d20 9C       		.byte	0x9c
 4115 0d21 620D0000 		.4byte	0xd62
 4116 0d25 17       		.uleb128 0x17
 4117 0d26 D6070000 		.4byte	.LASF98
 4118 0d2a 01       		.byte	0x1
 4119 0d2b A503     		.2byte	0x3a5
 4120 0d2d B5020000 		.4byte	0x2b5
 4121 0d31 02       		.uleb128 0x2
 4122 0d32 91       		.byte	0x91
 4123 0d33 74       		.sleb128 -12
 4124 0d34 17       		.uleb128 0x17
 4125 0d35 E3010000 		.4byte	.LASF127
 4126 0d39 01       		.byte	0x1
 4127 0d3a A503     		.2byte	0x3a5
 4128 0d3c 97000000 		.4byte	0x97
 4129 0d40 02       		.uleb128 0x2
 4130 0d41 91       		.byte	0x91
 4131 0d42 73       		.sleb128 -13
 4132 0d43 17       		.uleb128 0x17
 4133 0d44 E3030000 		.4byte	.LASF103
 4134 0d48 01       		.byte	0x1
 4135 0d49 A503     		.2byte	0x3a5
 4136 0d4b D5020000 		.4byte	0x2d5
 4137 0d4f 02       		.uleb128 0x2
 4138 0d50 91       		.byte	0x91
 4139 0d51 6C       		.sleb128 -20
 4140 0d52 17       		.uleb128 0x17
 4141 0d53 3D010000 		.4byte	.LASF130
 4142 0d57 01       		.byte	0x1
 4143 0d58 A503     		.2byte	0x3a5
ARM GAS  /tmp/ccAIGiUj.s 			page 74


 4144 0d5a A2000000 		.4byte	0xa2
 4145 0d5e 02       		.uleb128 0x2
 4146 0d5f 91       		.byte	0x91
 4147 0d60 70       		.sleb128 -16
 4148 0d61 00       		.byte	0
 4149 0d62 18       		.uleb128 0x18
 4150 0d63 36040000 		.4byte	.LASF131
 4151 0d67 01       		.byte	0x1
 4152 0d68 B703     		.2byte	0x3b7
 4153 0d6a 89000000 		.4byte	0x89
 4154 0d6e 000C0000 		.4byte	.LFB27
 4155 0d72 42000000 		.4byte	.LFE27-.LFB27
 4156 0d76 01       		.uleb128 0x1
 4157 0d77 9C       		.byte	0x9c
 4158 0d78 B90D0000 		.4byte	0xdb9
 4159 0d7c 17       		.uleb128 0x17
 4160 0d7d D6070000 		.4byte	.LASF98
 4161 0d81 01       		.byte	0x1
 4162 0d82 B703     		.2byte	0x3b7
 4163 0d84 B5020000 		.4byte	0x2b5
 4164 0d88 02       		.uleb128 0x2
 4165 0d89 91       		.byte	0x91
 4166 0d8a 6C       		.sleb128 -20
 4167 0d8b 17       		.uleb128 0x17
 4168 0d8c E3010000 		.4byte	.LASF127
 4169 0d90 01       		.byte	0x1
 4170 0d91 B703     		.2byte	0x3b7
 4171 0d93 97000000 		.4byte	0x97
 4172 0d97 02       		.uleb128 0x2
 4173 0d98 91       		.byte	0x91
 4174 0d99 6B       		.sleb128 -21
 4175 0d9a 17       		.uleb128 0x17
 4176 0d9b 00000000 		.4byte	.LASF113
 4177 0d9f 01       		.byte	0x1
 4178 0da0 B703     		.2byte	0x3b7
 4179 0da2 B90D0000 		.4byte	0xdb9
 4180 0da6 02       		.uleb128 0x2
 4181 0da7 91       		.byte	0x91
 4182 0da8 64       		.sleb128 -28
 4183 0da9 19       		.uleb128 0x19
 4184 0daa 746D7000 		.ascii	"tmp\000"
 4185 0dae 01       		.byte	0x1
 4186 0daf B903     		.2byte	0x3b9
 4187 0db1 A2000000 		.4byte	0xa2
 4188 0db5 02       		.uleb128 0x2
 4189 0db6 91       		.byte	0x91
 4190 0db7 76       		.sleb128 -10
 4191 0db8 00       		.byte	0
 4192 0db9 0C       		.uleb128 0xc
 4193 0dba 04       		.byte	0x4
 4194 0dbb 89000000 		.4byte	0x89
 4195 0dbf 18       		.uleb128 0x18
 4196 0dc0 A4070000 		.4byte	.LASF132
 4197 0dc4 01       		.byte	0x1
 4198 0dc5 CD03     		.2byte	0x3cd
 4199 0dc7 89000000 		.4byte	0x89
 4200 0dcb 500C0000 		.4byte	.LFB28
ARM GAS  /tmp/ccAIGiUj.s 			page 75


 4201 0dcf 40000000 		.4byte	.LFE28-.LFB28
 4202 0dd3 01       		.uleb128 0x1
 4203 0dd4 9C       		.byte	0x9c
 4204 0dd5 160E0000 		.4byte	0xe16
 4205 0dd9 17       		.uleb128 0x17
 4206 0dda D6070000 		.4byte	.LASF98
 4207 0dde 01       		.byte	0x1
 4208 0ddf CD03     		.2byte	0x3cd
 4209 0de1 B5020000 		.4byte	0x2b5
 4210 0de5 02       		.uleb128 0x2
 4211 0de6 91       		.byte	0x91
 4212 0de7 6C       		.sleb128 -20
 4213 0de8 17       		.uleb128 0x17
 4214 0de9 E3010000 		.4byte	.LASF127
 4215 0ded 01       		.byte	0x1
 4216 0dee CD03     		.2byte	0x3cd
 4217 0df0 97000000 		.4byte	0x97
 4218 0df4 02       		.uleb128 0x2
 4219 0df5 91       		.byte	0x91
 4220 0df6 6B       		.sleb128 -21
 4221 0df7 17       		.uleb128 0x17
 4222 0df8 00000000 		.4byte	.LASF113
 4223 0dfc 01       		.byte	0x1
 4224 0dfd CD03     		.2byte	0x3cd
 4225 0dff 89000000 		.4byte	0x89
 4226 0e03 02       		.uleb128 0x2
 4227 0e04 91       		.byte	0x91
 4228 0e05 64       		.sleb128 -28
 4229 0e06 19       		.uleb128 0x19
 4230 0e07 746D7000 		.ascii	"tmp\000"
 4231 0e0b 01       		.byte	0x1
 4232 0e0c CF03     		.2byte	0x3cf
 4233 0e0e A2000000 		.4byte	0xa2
 4234 0e12 02       		.uleb128 0x2
 4235 0e13 91       		.byte	0x91
 4236 0e14 76       		.sleb128 -10
 4237 0e15 00       		.byte	0
 4238 0e16 18       		.uleb128 0x18
 4239 0e17 D9060000 		.4byte	.LASF133
 4240 0e1b 01       		.byte	0x1
 4241 0e1c E003     		.2byte	0x3e0
 4242 0e1e 7E010000 		.4byte	0x17e
 4243 0e22 900C0000 		.4byte	.LFB29
 4244 0e26 38010000 		.4byte	.LFE29-.LFB29
 4245 0e2a 01       		.uleb128 0x1
 4246 0e2b 9C       		.byte	0x9c
 4247 0e2c 6D0E0000 		.4byte	0xe6d
 4248 0e30 17       		.uleb128 0x17
 4249 0e31 D6070000 		.4byte	.LASF98
 4250 0e35 01       		.byte	0x1
 4251 0e36 E003     		.2byte	0x3e0
 4252 0e38 B5020000 		.4byte	0x2b5
 4253 0e3c 02       		.uleb128 0x2
 4254 0e3d 91       		.byte	0x91
 4255 0e3e 6C       		.sleb128 -20
 4256 0e3f 17       		.uleb128 0x17
 4257 0e40 B8050000 		.4byte	.LASF93
ARM GAS  /tmp/ccAIGiUj.s 			page 76


 4258 0e44 01       		.byte	0x1
 4259 0e45 E003     		.2byte	0x3e0
 4260 0e47 06060000 		.4byte	0x606
 4261 0e4b 02       		.uleb128 0x2
 4262 0e4c 91       		.byte	0x91
 4263 0e4d 68       		.sleb128 -24
 4264 0e4e 1A       		.uleb128 0x1a
 4265 0e4f E3030000 		.4byte	.LASF103
 4266 0e53 01       		.byte	0x1
 4267 0e54 E203     		.2byte	0x3e2
 4268 0e56 97000000 		.4byte	0x97
 4269 0e5a 02       		.uleb128 0x2
 4270 0e5b 91       		.byte	0x91
 4271 0e5c 73       		.sleb128 -13
 4272 0e5d 1A       		.uleb128 0x1a
 4273 0e5e F8050000 		.4byte	.LASF95
 4274 0e62 01       		.byte	0x1
 4275 0e63 E303     		.2byte	0x3e3
 4276 0e65 12060000 		.4byte	0x612
 4277 0e69 02       		.uleb128 0x2
 4278 0e6a 91       		.byte	0x91
 4279 0e6b 74       		.sleb128 -12
 4280 0e6c 00       		.byte	0
 4281 0e6d 1D       		.uleb128 0x1d
 4282 0e6e 78030000 		.4byte	.LASF138
 4283 0e72 01       		.byte	0x1
 4284 0e73 7C       		.byte	0x7c
 4285 0e74 3B030000 		.4byte	0x33b
 4286 0e78 05       		.uleb128 0x5
 4287 0e79 03       		.byte	0x3
 4288 0e7a 00000000 		.4byte	STC3115_Drv
 4289 0e7e 00       		.byte	0
 4290              		.section	.debug_abbrev,"",%progbits
 4291              	.Ldebug_abbrev0:
 4292 0000 01       		.uleb128 0x1
 4293 0001 11       		.uleb128 0x11
 4294 0002 01       		.byte	0x1
 4295 0003 25       		.uleb128 0x25
 4296 0004 0E       		.uleb128 0xe
 4297 0005 13       		.uleb128 0x13
 4298 0006 0B       		.uleb128 0xb
 4299 0007 03       		.uleb128 0x3
 4300 0008 0E       		.uleb128 0xe
 4301 0009 1B       		.uleb128 0x1b
 4302 000a 0E       		.uleb128 0xe
 4303 000b 11       		.uleb128 0x11
 4304 000c 01       		.uleb128 0x1
 4305 000d 12       		.uleb128 0x12
 4306 000e 06       		.uleb128 0x6
 4307 000f 10       		.uleb128 0x10
 4308 0010 17       		.uleb128 0x17
 4309 0011 00       		.byte	0
 4310 0012 00       		.byte	0
 4311 0013 02       		.uleb128 0x2
 4312 0014 24       		.uleb128 0x24
 4313 0015 00       		.byte	0
 4314 0016 0B       		.uleb128 0xb
ARM GAS  /tmp/ccAIGiUj.s 			page 77


 4315 0017 0B       		.uleb128 0xb
 4316 0018 3E       		.uleb128 0x3e
 4317 0019 0B       		.uleb128 0xb
 4318 001a 03       		.uleb128 0x3
 4319 001b 0E       		.uleb128 0xe
 4320 001c 00       		.byte	0
 4321 001d 00       		.byte	0
 4322 001e 03       		.uleb128 0x3
 4323 001f 16       		.uleb128 0x16
 4324 0020 00       		.byte	0
 4325 0021 03       		.uleb128 0x3
 4326 0022 0E       		.uleb128 0xe
 4327 0023 3A       		.uleb128 0x3a
 4328 0024 0B       		.uleb128 0xb
 4329 0025 3B       		.uleb128 0x3b
 4330 0026 0B       		.uleb128 0xb
 4331 0027 49       		.uleb128 0x49
 4332 0028 13       		.uleb128 0x13
 4333 0029 00       		.byte	0
 4334 002a 00       		.byte	0
 4335 002b 04       		.uleb128 0x4
 4336 002c 24       		.uleb128 0x24
 4337 002d 00       		.byte	0
 4338 002e 0B       		.uleb128 0xb
 4339 002f 0B       		.uleb128 0xb
 4340 0030 3E       		.uleb128 0x3e
 4341 0031 0B       		.uleb128 0xb
 4342 0032 03       		.uleb128 0x3
 4343 0033 08       		.uleb128 0x8
 4344 0034 00       		.byte	0
 4345 0035 00       		.byte	0
 4346 0036 05       		.uleb128 0x5
 4347 0037 13       		.uleb128 0x13
 4348 0038 01       		.byte	0x1
 4349 0039 0B       		.uleb128 0xb
 4350 003a 0B       		.uleb128 0xb
 4351 003b 3A       		.uleb128 0x3a
 4352 003c 0B       		.uleb128 0xb
 4353 003d 3B       		.uleb128 0x3b
 4354 003e 0B       		.uleb128 0xb
 4355 003f 01       		.uleb128 0x1
 4356 0040 13       		.uleb128 0x13
 4357 0041 00       		.byte	0
 4358 0042 00       		.byte	0
 4359 0043 06       		.uleb128 0x6
 4360 0044 0D       		.uleb128 0xd
 4361 0045 00       		.byte	0
 4362 0046 03       		.uleb128 0x3
 4363 0047 0E       		.uleb128 0xe
 4364 0048 3A       		.uleb128 0x3a
 4365 0049 0B       		.uleb128 0xb
 4366 004a 3B       		.uleb128 0x3b
 4367 004b 0B       		.uleb128 0xb
 4368 004c 49       		.uleb128 0x49
 4369 004d 13       		.uleb128 0x13
 4370 004e 38       		.uleb128 0x38
 4371 004f 0B       		.uleb128 0xb
ARM GAS  /tmp/ccAIGiUj.s 			page 78


 4372 0050 00       		.byte	0
 4373 0051 00       		.byte	0
 4374 0052 07       		.uleb128 0x7
 4375 0053 0F       		.uleb128 0xf
 4376 0054 00       		.byte	0
 4377 0055 0B       		.uleb128 0xb
 4378 0056 0B       		.uleb128 0xb
 4379 0057 00       		.byte	0
 4380 0058 00       		.byte	0
 4381 0059 08       		.uleb128 0x8
 4382 005a 04       		.uleb128 0x4
 4383 005b 01       		.byte	0x1
 4384 005c 0B       		.uleb128 0xb
 4385 005d 0B       		.uleb128 0xb
 4386 005e 3A       		.uleb128 0x3a
 4387 005f 0B       		.uleb128 0xb
 4388 0060 3B       		.uleb128 0x3b
 4389 0061 0B       		.uleb128 0xb
 4390 0062 01       		.uleb128 0x1
 4391 0063 13       		.uleb128 0x13
 4392 0064 00       		.byte	0
 4393 0065 00       		.byte	0
 4394 0066 09       		.uleb128 0x9
 4395 0067 28       		.uleb128 0x28
 4396 0068 00       		.byte	0
 4397 0069 03       		.uleb128 0x3
 4398 006a 0E       		.uleb128 0xe
 4399 006b 1C       		.uleb128 0x1c
 4400 006c 0D       		.uleb128 0xd
 4401 006d 00       		.byte	0
 4402 006e 00       		.byte	0
 4403 006f 0A       		.uleb128 0xa
 4404 0070 15       		.uleb128 0x15
 4405 0071 01       		.byte	0x1
 4406 0072 27       		.uleb128 0x27
 4407 0073 19       		.uleb128 0x19
 4408 0074 49       		.uleb128 0x49
 4409 0075 13       		.uleb128 0x13
 4410 0076 01       		.uleb128 0x1
 4411 0077 13       		.uleb128 0x13
 4412 0078 00       		.byte	0
 4413 0079 00       		.byte	0
 4414 007a 0B       		.uleb128 0xb
 4415 007b 05       		.uleb128 0x5
 4416 007c 00       		.byte	0
 4417 007d 49       		.uleb128 0x49
 4418 007e 13       		.uleb128 0x13
 4419 007f 00       		.byte	0
 4420 0080 00       		.byte	0
 4421 0081 0C       		.uleb128 0xc
 4422 0082 0F       		.uleb128 0xf
 4423 0083 00       		.byte	0
 4424 0084 0B       		.uleb128 0xb
 4425 0085 0B       		.uleb128 0xb
 4426 0086 49       		.uleb128 0x49
 4427 0087 13       		.uleb128 0x13
 4428 0088 00       		.byte	0
ARM GAS  /tmp/ccAIGiUj.s 			page 79


 4429 0089 00       		.byte	0
 4430 008a 0D       		.uleb128 0xd
 4431 008b 01       		.uleb128 0x1
 4432 008c 01       		.byte	0x1
 4433 008d 49       		.uleb128 0x49
 4434 008e 13       		.uleb128 0x13
 4435 008f 01       		.uleb128 0x1
 4436 0090 13       		.uleb128 0x13
 4437 0091 00       		.byte	0
 4438 0092 00       		.byte	0
 4439 0093 0E       		.uleb128 0xe
 4440 0094 21       		.uleb128 0x21
 4441 0095 00       		.byte	0
 4442 0096 49       		.uleb128 0x49
 4443 0097 13       		.uleb128 0x13
 4444 0098 2F       		.uleb128 0x2f
 4445 0099 0B       		.uleb128 0xb
 4446 009a 00       		.byte	0
 4447 009b 00       		.byte	0
 4448 009c 0F       		.uleb128 0xf
 4449 009d 0D       		.uleb128 0xd
 4450 009e 00       		.byte	0
 4451 009f 03       		.uleb128 0x3
 4452 00a0 08       		.uleb128 0x8
 4453 00a1 3A       		.uleb128 0x3a
 4454 00a2 0B       		.uleb128 0xb
 4455 00a3 3B       		.uleb128 0x3b
 4456 00a4 0B       		.uleb128 0xb
 4457 00a5 49       		.uleb128 0x49
 4458 00a6 13       		.uleb128 0x13
 4459 00a7 38       		.uleb128 0x38
 4460 00a8 0B       		.uleb128 0xb
 4461 00a9 00       		.byte	0
 4462 00aa 00       		.byte	0
 4463 00ab 10       		.uleb128 0x10
 4464 00ac 17       		.uleb128 0x17
 4465 00ad 01       		.byte	0x1
 4466 00ae 0B       		.uleb128 0xb
 4467 00af 0B       		.uleb128 0xb
 4468 00b0 3A       		.uleb128 0x3a
 4469 00b1 0B       		.uleb128 0xb
 4470 00b2 3B       		.uleb128 0x3b
 4471 00b3 0B       		.uleb128 0xb
 4472 00b4 01       		.uleb128 0x1
 4473 00b5 13       		.uleb128 0x13
 4474 00b6 00       		.byte	0
 4475 00b7 00       		.byte	0
 4476 00b8 11       		.uleb128 0x11
 4477 00b9 0D       		.uleb128 0xd
 4478 00ba 00       		.byte	0
 4479 00bb 03       		.uleb128 0x3
 4480 00bc 08       		.uleb128 0x8
 4481 00bd 3A       		.uleb128 0x3a
 4482 00be 0B       		.uleb128 0xb
 4483 00bf 3B       		.uleb128 0x3b
 4484 00c0 0B       		.uleb128 0xb
 4485 00c1 49       		.uleb128 0x49
ARM GAS  /tmp/ccAIGiUj.s 			page 80


 4486 00c2 13       		.uleb128 0x13
 4487 00c3 00       		.byte	0
 4488 00c4 00       		.byte	0
 4489 00c5 12       		.uleb128 0x12
 4490 00c6 2E       		.uleb128 0x2e
 4491 00c7 01       		.byte	0x1
 4492 00c8 03       		.uleb128 0x3
 4493 00c9 0E       		.uleb128 0xe
 4494 00ca 3A       		.uleb128 0x3a
 4495 00cb 0B       		.uleb128 0xb
 4496 00cc 3B       		.uleb128 0x3b
 4497 00cd 0B       		.uleb128 0xb
 4498 00ce 27       		.uleb128 0x27
 4499 00cf 19       		.uleb128 0x19
 4500 00d0 49       		.uleb128 0x49
 4501 00d1 13       		.uleb128 0x13
 4502 00d2 11       		.uleb128 0x11
 4503 00d3 01       		.uleb128 0x1
 4504 00d4 12       		.uleb128 0x12
 4505 00d5 06       		.uleb128 0x6
 4506 00d6 40       		.uleb128 0x40
 4507 00d7 18       		.uleb128 0x18
 4508 00d8 9642     		.uleb128 0x2116
 4509 00da 19       		.uleb128 0x19
 4510 00db 01       		.uleb128 0x1
 4511 00dc 13       		.uleb128 0x13
 4512 00dd 00       		.byte	0
 4513 00de 00       		.byte	0
 4514 00df 13       		.uleb128 0x13
 4515 00e0 05       		.uleb128 0x5
 4516 00e1 00       		.byte	0
 4517 00e2 03       		.uleb128 0x3
 4518 00e3 0E       		.uleb128 0xe
 4519 00e4 3A       		.uleb128 0x3a
 4520 00e5 0B       		.uleb128 0xb
 4521 00e6 3B       		.uleb128 0x3b
 4522 00e7 0B       		.uleb128 0xb
 4523 00e8 49       		.uleb128 0x49
 4524 00e9 13       		.uleb128 0x13
 4525 00ea 02       		.uleb128 0x2
 4526 00eb 18       		.uleb128 0x18
 4527 00ec 00       		.byte	0
 4528 00ed 00       		.byte	0
 4529 00ee 14       		.uleb128 0x14
 4530 00ef 34       		.uleb128 0x34
 4531 00f0 00       		.byte	0
 4532 00f1 03       		.uleb128 0x3
 4533 00f2 08       		.uleb128 0x8
 4534 00f3 3A       		.uleb128 0x3a
 4535 00f4 0B       		.uleb128 0xb
 4536 00f5 3B       		.uleb128 0x3b
 4537 00f6 0B       		.uleb128 0xb
 4538 00f7 49       		.uleb128 0x49
 4539 00f8 13       		.uleb128 0x13
 4540 00f9 02       		.uleb128 0x2
 4541 00fa 18       		.uleb128 0x18
 4542 00fb 00       		.byte	0
ARM GAS  /tmp/ccAIGiUj.s 			page 81


 4543 00fc 00       		.byte	0
 4544 00fd 15       		.uleb128 0x15
 4545 00fe 34       		.uleb128 0x34
 4546 00ff 00       		.byte	0
 4547 0100 03       		.uleb128 0x3
 4548 0101 0E       		.uleb128 0xe
 4549 0102 3A       		.uleb128 0x3a
 4550 0103 0B       		.uleb128 0xb
 4551 0104 3B       		.uleb128 0x3b
 4552 0105 0B       		.uleb128 0xb
 4553 0106 49       		.uleb128 0x49
 4554 0107 13       		.uleb128 0x13
 4555 0108 02       		.uleb128 0x2
 4556 0109 18       		.uleb128 0x18
 4557 010a 00       		.byte	0
 4558 010b 00       		.byte	0
 4559 010c 16       		.uleb128 0x16
 4560 010d 2E       		.uleb128 0x2e
 4561 010e 01       		.byte	0x1
 4562 010f 03       		.uleb128 0x3
 4563 0110 0E       		.uleb128 0xe
 4564 0111 3A       		.uleb128 0x3a
 4565 0112 0B       		.uleb128 0xb
 4566 0113 3B       		.uleb128 0x3b
 4567 0114 05       		.uleb128 0x5
 4568 0115 27       		.uleb128 0x27
 4569 0116 19       		.uleb128 0x19
 4570 0117 49       		.uleb128 0x49
 4571 0118 13       		.uleb128 0x13
 4572 0119 11       		.uleb128 0x11
 4573 011a 01       		.uleb128 0x1
 4574 011b 12       		.uleb128 0x12
 4575 011c 06       		.uleb128 0x6
 4576 011d 40       		.uleb128 0x40
 4577 011e 18       		.uleb128 0x18
 4578 011f 9742     		.uleb128 0x2117
 4579 0121 19       		.uleb128 0x19
 4580 0122 01       		.uleb128 0x1
 4581 0123 13       		.uleb128 0x13
 4582 0124 00       		.byte	0
 4583 0125 00       		.byte	0
 4584 0126 17       		.uleb128 0x17
 4585 0127 05       		.uleb128 0x5
 4586 0128 00       		.byte	0
 4587 0129 03       		.uleb128 0x3
 4588 012a 0E       		.uleb128 0xe
 4589 012b 3A       		.uleb128 0x3a
 4590 012c 0B       		.uleb128 0xb
 4591 012d 3B       		.uleb128 0x3b
 4592 012e 05       		.uleb128 0x5
 4593 012f 49       		.uleb128 0x49
 4594 0130 13       		.uleb128 0x13
 4595 0131 02       		.uleb128 0x2
 4596 0132 18       		.uleb128 0x18
 4597 0133 00       		.byte	0
 4598 0134 00       		.byte	0
 4599 0135 18       		.uleb128 0x18
ARM GAS  /tmp/ccAIGiUj.s 			page 82


 4600 0136 2E       		.uleb128 0x2e
 4601 0137 01       		.byte	0x1
 4602 0138 03       		.uleb128 0x3
 4603 0139 0E       		.uleb128 0xe
 4604 013a 3A       		.uleb128 0x3a
 4605 013b 0B       		.uleb128 0xb
 4606 013c 3B       		.uleb128 0x3b
 4607 013d 05       		.uleb128 0x5
 4608 013e 27       		.uleb128 0x27
 4609 013f 19       		.uleb128 0x19
 4610 0140 49       		.uleb128 0x49
 4611 0141 13       		.uleb128 0x13
 4612 0142 11       		.uleb128 0x11
 4613 0143 01       		.uleb128 0x1
 4614 0144 12       		.uleb128 0x12
 4615 0145 06       		.uleb128 0x6
 4616 0146 40       		.uleb128 0x40
 4617 0147 18       		.uleb128 0x18
 4618 0148 9642     		.uleb128 0x2116
 4619 014a 19       		.uleb128 0x19
 4620 014b 01       		.uleb128 0x1
 4621 014c 13       		.uleb128 0x13
 4622 014d 00       		.byte	0
 4623 014e 00       		.byte	0
 4624 014f 19       		.uleb128 0x19
 4625 0150 34       		.uleb128 0x34
 4626 0151 00       		.byte	0
 4627 0152 03       		.uleb128 0x3
 4628 0153 08       		.uleb128 0x8
 4629 0154 3A       		.uleb128 0x3a
 4630 0155 0B       		.uleb128 0xb
 4631 0156 3B       		.uleb128 0x3b
 4632 0157 05       		.uleb128 0x5
 4633 0158 49       		.uleb128 0x49
 4634 0159 13       		.uleb128 0x13
 4635 015a 02       		.uleb128 0x2
 4636 015b 18       		.uleb128 0x18
 4637 015c 00       		.byte	0
 4638 015d 00       		.byte	0
 4639 015e 1A       		.uleb128 0x1a
 4640 015f 34       		.uleb128 0x34
 4641 0160 00       		.byte	0
 4642 0161 03       		.uleb128 0x3
 4643 0162 0E       		.uleb128 0xe
 4644 0163 3A       		.uleb128 0x3a
 4645 0164 0B       		.uleb128 0xb
 4646 0165 3B       		.uleb128 0x3b
 4647 0166 05       		.uleb128 0x5
 4648 0167 49       		.uleb128 0x49
 4649 0168 13       		.uleb128 0x13
 4650 0169 02       		.uleb128 0x2
 4651 016a 18       		.uleb128 0x18
 4652 016b 00       		.byte	0
 4653 016c 00       		.byte	0
 4654 016d 1B       		.uleb128 0x1b
 4655 016e 05       		.uleb128 0x5
 4656 016f 00       		.byte	0
ARM GAS  /tmp/ccAIGiUj.s 			page 83


 4657 0170 03       		.uleb128 0x3
 4658 0171 08       		.uleb128 0x8
 4659 0172 3A       		.uleb128 0x3a
 4660 0173 0B       		.uleb128 0xb
 4661 0174 3B       		.uleb128 0x3b
 4662 0175 05       		.uleb128 0x5
 4663 0176 49       		.uleb128 0x49
 4664 0177 13       		.uleb128 0x13
 4665 0178 02       		.uleb128 0x2
 4666 0179 18       		.uleb128 0x18
 4667 017a 00       		.byte	0
 4668 017b 00       		.byte	0
 4669 017c 1C       		.uleb128 0x1c
 4670 017d 2E       		.uleb128 0x2e
 4671 017e 01       		.byte	0x1
 4672 017f 03       		.uleb128 0x3
 4673 0180 0E       		.uleb128 0xe
 4674 0181 3A       		.uleb128 0x3a
 4675 0182 0B       		.uleb128 0xb
 4676 0183 3B       		.uleb128 0x3b
 4677 0184 05       		.uleb128 0x5
 4678 0185 27       		.uleb128 0x27
 4679 0186 19       		.uleb128 0x19
 4680 0187 11       		.uleb128 0x11
 4681 0188 01       		.uleb128 0x1
 4682 0189 12       		.uleb128 0x12
 4683 018a 06       		.uleb128 0x6
 4684 018b 40       		.uleb128 0x40
 4685 018c 18       		.uleb128 0x18
 4686 018d 9642     		.uleb128 0x2116
 4687 018f 19       		.uleb128 0x19
 4688 0190 01       		.uleb128 0x1
 4689 0191 13       		.uleb128 0x13
 4690 0192 00       		.byte	0
 4691 0193 00       		.byte	0
 4692 0194 1D       		.uleb128 0x1d
 4693 0195 34       		.uleb128 0x34
 4694 0196 00       		.byte	0
 4695 0197 03       		.uleb128 0x3
 4696 0198 0E       		.uleb128 0xe
 4697 0199 3A       		.uleb128 0x3a
 4698 019a 0B       		.uleb128 0xb
 4699 019b 3B       		.uleb128 0x3b
 4700 019c 0B       		.uleb128 0xb
 4701 019d 49       		.uleb128 0x49
 4702 019e 13       		.uleb128 0x13
 4703 019f 3F       		.uleb128 0x3f
 4704 01a0 19       		.uleb128 0x19
 4705 01a1 02       		.uleb128 0x2
 4706 01a2 18       		.uleb128 0x18
 4707 01a3 00       		.byte	0
 4708 01a4 00       		.byte	0
 4709 01a5 00       		.byte	0
 4710              		.section	.debug_aranges,"",%progbits
 4711 0000 1C000000 		.4byte	0x1c
 4712 0004 0200     		.2byte	0x2
 4713 0006 00000000 		.4byte	.Ldebug_info0
ARM GAS  /tmp/ccAIGiUj.s 			page 84


 4714 000a 04       		.byte	0x4
 4715 000b 00       		.byte	0
 4716 000c 0000     		.2byte	0
 4717 000e 0000     		.2byte	0
 4718 0010 00000000 		.4byte	.Ltext0
 4719 0014 C80D0000 		.4byte	.Letext0-.Ltext0
 4720 0018 00000000 		.4byte	0
 4721 001c 00000000 		.4byte	0
 4722              		.section	.debug_line,"",%progbits
 4723              	.Ldebug_line0:
 4724 0000 F1030000 		.section	.debug_str,"MS",%progbits,1
 4724      0200AF01 
 4724      00000201 
 4724      FB0E0D00 
 4724      01010101 
 4725              	.LASF113:
 4726 0000 76616C75 		.ascii	"value\000"
 4726      6500
 4727              	.LASF66:
 4728 0006 436E6F6D 		.ascii	"Cnom\000"
 4728      00
 4729              	.LASF26:
 4730 000b 70565461 		.ascii	"pVTable\000"
 4730      626C6500 
 4731              	.LASF64:
 4732 0013 43435F63 		.ascii	"CC_cnf\000"
 4732      6E6600
 4733              	.LASF134:
 4734 001a 474E5520 		.ascii	"GNU C 4.8.4 20140526 (release) [ARM/embedded-4_8-br"
 4734      4320342E 
 4734      382E3420 
 4734      32303134 
 4734      30353236 
 4735 004d 616E6368 		.ascii	"anch revision 211358] -mcpu=cortex-m4 -mno-thumb-in"
 4735      20726576 
 4735      6973696F 
 4735      6E203231 
 4735      31333538 
 4736 0080 74657277 		.ascii	"terwork -mthumb -ggdb -O0 -std=c99 -fomit-frame-poi"
 4736      6F726B20 
 4736      2D6D7468 
 4736      756D6220 
 4736      2D676764 
 4737 00b3 6E746572 		.ascii	"nter -falign-functions=16\000"
 4737      202D6661 
 4737      6C69676E 
 4737      2D66756E 
 4737      6374696F 
 4738              	.LASF121:
 4739 00cd 53544333 		.ascii	"STC3115_Restore\000"
 4739      3131355F 
 4739      52657374 
 4739      6F726500 
 4740              	.LASF3:
 4741 00dd 5F5F7569 		.ascii	"__uint8_t\000"
 4741      6E74385F 
 4741      7400
ARM GAS  /tmp/ccAIGiUj.s 			page 85


 4742              	.LASF102:
 4743 00e7 53544333 		.ascii	"STC3115_Reset\000"
 4743      3131355F 
 4743      52657365 
 4743      7400
 4744              	.LASF77:
 4745 00f5 436F6E76 		.ascii	"ConvCounter\000"
 4745      436F756E 
 4745      74657200 
 4746              	.LASF11:
 4747 0101 6C6F6E67 		.ascii	"long long unsigned int\000"
 4747      206C6F6E 
 4747      6720756E 
 4747      7369676E 
 4747      65642069 
 4748              	.LASF33:
 4749 0118 44727653 		.ascii	"DrvStatusTypeDef\000"
 4749      74617475 
 4749      73547970 
 4749      65446566 
 4749      00
 4750              	.LASF39:
 4751 0129 5461736B 		.ascii	"Task\000"
 4751      00
 4752              	.LASF97:
 4753 012e 53544333 		.ascii	"STC3115_DeInit\000"
 4753      3131355F 
 4753      4465496E 
 4753      697400
 4754              	.LASF130:
 4755 013d 4E756D42 		.ascii	"NumByteToWrite\000"
 4755      79746554 
 4755      6F577269 
 4755      746500
 4756              	.LASF135:
 4757 014c 2E2E2F2E 		.ascii	"../../../../../Drivers/BSP/Components/stc3115/STC31"
 4757      2E2F2E2E 
 4757      2F2E2E2F 
 4757      2E2E2F44 
 4757      72697665 
 4758 017f 31355F44 		.ascii	"15_Driver.c\000"
 4758      72697665 
 4758      722E6300 
 4759              	.LASF124:
 4760 018b 66616374 		.ascii	"factor\000"
 4760      6F7200
 4761              	.LASF114:
 4762 0192 53544333 		.ascii	"STC3115_CalcRamCRC8\000"
 4762      3131355F 
 4762      43616C63 
 4762      52616D43 
 4762      52433800 
 4763              	.LASF40:
 4764 01a6 52657365 		.ascii	"Reset\000"
 4764      7400
 4765              	.LASF21:
 4766 01ac 696E7374 		.ascii	"instance\000"
ARM GAS  /tmp/ccAIGiUj.s 			page 86


 4766      616E6365 
 4766      00
 4767              	.LASF119:
 4768 01b5 53544333 		.ascii	"STC3115_ReadRamData\000"
 4768      3131355F 
 4768      52656164 
 4768      52616D44 
 4768      61746100 
 4769              	.LASF10:
 4770 01c9 6C6F6E67 		.ascii	"long long int\000"
 4770      206C6F6E 
 4770      6720696E 
 4770      7400
 4771              	.LASF0:
 4772 01d7 7369676E 		.ascii	"signed char\000"
 4772      65642063 
 4772      68617200 
 4773              	.LASF127:
 4774 01e3 52656741 		.ascii	"RegAddress\000"
 4774      64647265 
 4774      737300
 4775              	.LASF73:
 4776 01ee 4852534F 		.ascii	"HRSOC\000"
 4776      4300
 4777              	.LASF41:
 4778 01f4 53746F70 		.ascii	"Stop\000"
 4778      00
 4779              	.LASF7:
 4780 01f9 6C6F6E67 		.ascii	"long int\000"
 4780      20696E74 
 4780      00
 4781              	.LASF92:
 4782 0202 72657338 		.ascii	"res8\000"
 4782      00
 4783              	.LASF32:
 4784 0207 434F4D50 		.ascii	"COMPONENT_NOT_IMPLEMENTED\000"
 4784      4F4E454E 
 4784      545F4E4F 
 4784      545F494D 
 4784      504C454D 
 4785              	.LASF91:
 4786 0221 76636F75 		.ascii	"vcount\000"
 4786      6E7400
 4787              	.LASF96:
 4788 0228 53544333 		.ascii	"STC3115_Init\000"
 4788      3131355F 
 4788      496E6974 
 4788      00
 4789              	.LASF30:
 4790 0235 434F4D50 		.ascii	"COMPONENT_ERROR\000"
 4790      4F4E454E 
 4790      545F4552 
 4790      524F5200 
 4791              	.LASF14:
 4792 0245 75696E74 		.ascii	"uint16_t\000"
 4792      31365F74 
 4792      00
ARM GAS  /tmp/ccAIGiUj.s 			page 87


 4793              	.LASF128:
 4794 024e 4E756D42 		.ascii	"NumByteToRead\000"
 4794      79746554 
 4794      6F526561 
 4794      6400
 4795              	.LASF25:
 4796 025c 70446174 		.ascii	"pData\000"
 4796      6100
 4797              	.LASF8:
 4798 0262 5F5F7569 		.ascii	"__uint32_t\000"
 4798      6E743332 
 4798      5F7400
 4799              	.LASF55:
 4800 026d 53746F70 		.ascii	"StopIT\000"
 4800      495400
 4801              	.LASF136:
 4802 0274 2F752F65 		.ascii	"/u/elawton2/p442-submissions/sensortile/reference/b"
 4802      6C617774 
 4802      6F6E322F 
 4802      70343432 
 4802      2D737562 
 4803 02a7 6C75656D 		.ascii	"luemicrosystem2/BlueMicrosystem2_V2.2.0/Projects/Mu"
 4803      6963726F 
 4803      73797374 
 4803      656D322F 
 4803      426C7565 
 4804 02da 6C74692F 		.ascii	"lti/Applications/BlueMicrosystem2/bluechibi\000"
 4804      4170706C 
 4804      69636174 
 4804      696F6E73 
 4804      2F426C75 
 4805              	.LASF47:
 4806 0306 47657443 		.ascii	"GetChargeValue\000"
 4806      68617267 
 4806      6556616C 
 4806      756500
 4807              	.LASF54:
 4808 0315 53657449 		.ascii	"SetIT\000"
 4808      5400
 4809              	.LASF59:
 4810 031b 70457874 		.ascii	"pExtData\000"
 4810      44617461 
 4810      00
 4811              	.LASF63:
 4812 0324 416C6D5F 		.ascii	"Alm_Vbat\000"
 4812      56626174 
 4812      00
 4813              	.LASF87:
 4814 032d 62617474 		.ascii	"batteryData\000"
 4814      65727944 
 4814      61746100 
 4815              	.LASF125:
 4816 0339 53544333 		.ascii	"STC3115_Startup\000"
 4816      3131355F 
 4816      53746172 
 4816      74757000 
 4817              	.LASF71:
ARM GAS  /tmp/ccAIGiUj.s 			page 88


 4818 0349 53544333 		.ascii	"STC3115_ConfigData_TypeDef\000"
 4818      3131355F 
 4818      436F6E66 
 4818      69674461 
 4818      74615F54 
 4819              	.LASF12:
 4820 0364 756E7369 		.ascii	"unsigned int\000"
 4820      676E6564 
 4820      20696E74 
 4820      00
 4821              	.LASF35:
 4822 0371 4465496E 		.ascii	"DeInit\000"
 4822      697400
 4823              	.LASF138:
 4824 0378 53544333 		.ascii	"STC3115_Drv\000"
 4824      3131355F 
 4824      44727600 
 4825              	.LASF80:
 4826 0384 52656D54 		.ascii	"RemTime\000"
 4826      696D6500 
 4827              	.LASF90:
 4828 038c 6C6F6F70 		.ascii	"loop\000"
 4828      00
 4829              	.LASF9:
 4830 0391 6C6F6E67 		.ascii	"long unsigned int\000"
 4830      20756E73 
 4830      69676E65 
 4830      6420696E 
 4830      7400
 4831              	.LASF112:
 4832 03a3 53544333 		.ascii	"STC3115_GetAlarmStatus\000"
 4832      3131355F 
 4832      47657441 
 4832      6C61726D 
 4832      53746174 
 4833              	.LASF94:
 4834 03ba 42617474 		.ascii	"BatteryData\000"
 4834      65727944 
 4834      61746100 
 4835              	.LASF46:
 4836 03c6 47657456 		.ascii	"GetVoltage\000"
 4836      6F6C7461 
 4836      676500
 4837              	.LASF122:
 4838 03d1 53544333 		.ascii	"STC3115_Powerdown\000"
 4838      3131355F 
 4838      506F7765 
 4838      72646F77 
 4838      6E00
 4839              	.LASF103:
 4840 03e3 64617461 		.ascii	"data\000"
 4840      00
 4841              	.LASF5:
 4842 03e8 73686F72 		.ascii	"short unsigned int\000"
 4842      7420756E 
 4842      7369676E 
 4842      65642069 
ARM GAS  /tmp/ccAIGiUj.s 			page 89


 4842      6E7400
 4843              	.LASF74:
 4844 03fb 566F6C74 		.ascii	"Voltage\000"
 4844      61676500 
 4845              	.LASF115:
 4846 0403 53544333 		.ascii	"STC3115_UpdateRamCRC\000"
 4846      3131355F 
 4846      55706461 
 4846      74655261 
 4846      6D435243 
 4847              	.LASF105:
 4848 0418 53544333 		.ascii	"STC3115_GetSOC\000"
 4848      3131355F 
 4848      47657453 
 4848      4F4300
 4849              	.LASF37:
 4850 0427 53656E73 		.ascii	"Sensor_Disable\000"
 4850      6F725F44 
 4850      69736162 
 4850      6C6500
 4851              	.LASF131:
 4852 0436 53544333 		.ascii	"STC3115_ReadWord\000"
 4852      3131355F 
 4852      52656164 
 4852      576F7264 
 4852      00
 4853              	.LASF65:
 4854 0447 564D5F63 		.ascii	"VM_cnf\000"
 4854      6E6600
 4855              	.LASF110:
 4856 044e 53544333 		.ascii	"STC3115_GetChargeValue\000"
 4856      3131355F 
 4856      47657443 
 4856      68617267 
 4856      6556616C 
 4857              	.LASF75:
 4858 0465 43757272 		.ascii	"Current\000"
 4858      656E7400 
 4859              	.LASF111:
 4860 046d 53544333 		.ascii	"STC3115_GetPresence\000"
 4860      3131355F 
 4860      47657450 
 4860      72657365 
 4860      6E636500 
 4861              	.LASF60:
 4862 0481 47475F44 		.ascii	"GG_Data_t\000"
 4862      6174615F 
 4862      7400
 4863              	.LASF68:
 4864 048b 52656C61 		.ascii	"RelaxCurrent\000"
 4864      78437572 
 4864      72656E74 
 4864      00
 4865              	.LASF107:
 4866 0498 53544333 		.ascii	"STC3115_GetCurrent\000"
 4866      3131355F 
 4866      47657443 
ARM GAS  /tmp/ccAIGiUj.s 			page 90


 4866      75727265 
 4866      6E7400
 4867              	.LASF62:
 4868 04ab 416C6D5F 		.ascii	"Alm_SOC\000"
 4868      534F4300 
 4869              	.LASF70:
 4870 04b3 73697A65 		.ascii	"sizetype\000"
 4870      74797065 
 4870      00
 4871              	.LASF19:
 4872 04bc 61646472 		.ascii	"address\000"
 4872      65737300 
 4873              	.LASF38:
 4874 04c4 4765745F 		.ascii	"Get_WhoAmI\000"
 4874      57686F41 
 4874      6D4900
 4875              	.LASF85:
 4876 04cf 52414D44 		.ascii	"RAMData_TypeDef\000"
 4876      6174615F 
 4876      54797065 
 4876      44656600 
 4877              	.LASF108:
 4878 04df 53544333 		.ascii	"STC3115_GetTemperature\000"
 4878      3131355F 
 4878      47657454 
 4878      656D7065 
 4878      72617475 
 4879              	.LASF67:
 4880 04f6 5273656E 		.ascii	"Rsense\000"
 4880      736500
 4881              	.LASF31:
 4882 04fd 434F4D50 		.ascii	"COMPONENT_TIMEOUT\000"
 4882      4F4E454E 
 4882      545F5449 
 4882      4D454F55 
 4882      5400
 4883              	.LASF106:
 4884 050f 53544333 		.ascii	"STC3115_GetOCV\000"
 4884      3131355F 
 4884      4765744F 
 4884      435600
 4885              	.LASF109:
 4886 051e 53544333 		.ascii	"STC3115_GetVoltage\000"
 4886      3131355F 
 4886      47657456 
 4886      6F6C7461 
 4886      676500
 4887              	.LASF34:
 4888 0531 496E6974 		.ascii	"Init\000"
 4888      00
 4889              	.LASF42:
 4890 0536 47657453 		.ascii	"GetSOC\000"
 4890      4F4300
 4891              	.LASF15:
 4892 053d 696E7433 		.ascii	"int32_t\000"
 4892      325F7400 
 4893              	.LASF1:
ARM GAS  /tmp/ccAIGiUj.s 			page 91


 4894 0545 756E7369 		.ascii	"unsigned char\000"
 4894      676E6564 
 4894      20636861 
 4894      7200
 4895              	.LASF58:
 4896 0553 70436F6D 		.ascii	"pComponentData\000"
 4896      706F6E65 
 4896      6E744461 
 4896      746100
 4897              	.LASF52:
 4898 0562 416C6172 		.ascii	"AlarmSetSOCThreshold\000"
 4898      6D536574 
 4898      534F4354 
 4898      68726573 
 4898      686F6C64 
 4899              	.LASF45:
 4900 0577 47657454 		.ascii	"GetTemperature\000"
 4900      656D7065 
 4900      72617475 
 4900      726500
 4901              	.LASF100:
 4902 0586 53544333 		.ascii	"STC3115_Task\000"
 4902      3131355F 
 4902      5461736B 
 4902      00
 4903              	.LASF2:
 4904 0593 73686F72 		.ascii	"short int\000"
 4904      7420696E 
 4904      7400
 4905              	.LASF118:
 4906 059d 52616D44 		.ascii	"RamData\000"
 4906      61746100 
 4907              	.LASF101:
 4908 05a5 766D5F6D 		.ascii	"vm_mode\000"
 4908      6F646500 
 4909              	.LASF27:
 4910 05ad 70457874 		.ascii	"pExtVTable\000"
 4910      56546162 
 4910      6C6500
 4911              	.LASF93:
 4912 05b8 436F6E66 		.ascii	"ConfigData\000"
 4912      69674461 
 4912      746100
 4913              	.LASF69:
 4914 05c3 4F43564F 		.ascii	"OCVOffset\000"
 4914      66667365 
 4914      7400
 4915              	.LASF83:
 4916 05cd 53544333 		.ascii	"STC3115_Status\000"
 4916      3131355F 
 4916      53746174 
 4916      757300
 4917              	.LASF99:
 4918 05dc 53544333 		.ascii	"STC3115_Get_WhoAmI\000"
 4918      3131355F 
 4918      4765745F 
 4918      57686F41 
ARM GAS  /tmp/ccAIGiUj.s 			page 92


 4918      6D4900
 4919              	.LASF16:
 4920 05ef 75696E74 		.ascii	"uint32_t\000"
 4920      33325F74 
 4920      00
 4921              	.LASF95:
 4922 05f8 52414D44 		.ascii	"RAMData\000"
 4922      61746100 
 4923              	.LASF88:
 4924 0600 72616D44 		.ascii	"ramData\000"
 4924      61746100 
 4925              	.LASF53:
 4926 0608 47657449 		.ascii	"GetIT\000"
 4926      5400
 4927              	.LASF84:
 4928 060e 63686172 		.ascii	"char\000"
 4928      00
 4929              	.LASF137:
 4930 0613 53544333 		.ascii	"STC3115_InitRamData\000"
 4930      3131355F 
 4930      496E6974 
 4930      52616D44 
 4930      61746100 
 4931              	.LASF4:
 4932 0627 5F5F7569 		.ascii	"__uint16_t\000"
 4932      6E743136 
 4932      5F7400
 4933              	.LASF51:
 4934 0632 416C6172 		.ascii	"AlarmSetVoltageThreshold\000"
 4934      6D536574 
 4934      566F6C74 
 4934      61676554 
 4934      68726573 
 4935              	.LASF116:
 4936 064b 696E6465 		.ascii	"index\000"
 4936      7800
 4937              	.LASF17:
 4938 0651 77686F5F 		.ascii	"who_am_i\000"
 4938      616D5F69 
 4938      00
 4939              	.LASF61:
 4940 065a 566D6F64 		.ascii	"Vmode\000"
 4940      6500
 4941              	.LASF18:
 4942 0660 69665479 		.ascii	"ifType\000"
 4942      706500
 4943              	.LASF81:
 4944 0667 53544333 		.ascii	"STC3115_BatteryData_TypeDef\000"
 4944      3131355F 
 4944      42617474 
 4944      65727944 
 4944      6174615F 
 4945              	.LASF6:
 4946 0683 5F5F696E 		.ascii	"__int32_t\000"
 4946      7433325F 
 4946      7400
 4947              	.LASF22:
ARM GAS  /tmp/ccAIGiUj.s 			page 93


 4948 068d 6973496E 		.ascii	"isInitialized\000"
 4948      69746961 
 4948      6C697A65 
 4948      6400
 4949              	.LASF79:
 4950 069b 43686172 		.ascii	"ChargeValue\000"
 4950      67655661 
 4950      6C756500 
 4951              	.LASF43:
 4952 06a7 4765744F 		.ascii	"GetOCV\000"
 4952      435600
 4953              	.LASF104:
 4954 06ae 53544333 		.ascii	"STC3115_Stop\000"
 4954      3131355F 
 4954      53746F70 
 4954      00
 4955              	.LASF28:
 4956 06bb 44727643 		.ascii	"DrvContextTypeDef\000"
 4956      6F6E7465 
 4956      78745479 
 4956      70654465 
 4956      6600
 4957              	.LASF48:
 4958 06cd 47657450 		.ascii	"GetPresence\000"
 4958      72657365 
 4958      6E636500 
 4959              	.LASF133:
 4960 06d9 53544333 		.ascii	"STC3115_SetParam\000"
 4960      3131355F 
 4960      53657450 
 4960      6172616D 
 4960      00
 4961              	.LASF129:
 4962 06ea 53544333 		.ascii	"STC3115_Write\000"
 4962      3131355F 
 4962      57726974 
 4962      6500
 4963              	.LASF123:
 4964 06f8 53544333 		.ascii	"STC3115_conv\000"
 4964      3131355F 
 4964      636F6E76 
 4964      00
 4965              	.LASF50:
 4966 0705 47657449 		.ascii	"GetITState\000"
 4966      54537461 
 4966      746500
 4967              	.LASF44:
 4968 0710 47657443 		.ascii	"GetCurrent\000"
 4968      75727265 
 4968      6E7400
 4969              	.LASF23:
 4970 071b 6973456E 		.ascii	"isEnabled\000"
 4970      61626C65 
 4970      6400
 4971              	.LASF24:
 4972 0725 6973436F 		.ascii	"isCombo\000"
 4972      6D626F00 
ARM GAS  /tmp/ccAIGiUj.s 			page 94


 4973              	.LASF78:
 4974 072d 50726573 		.ascii	"Presence\000"
 4974      656E6365 
 4974      00
 4975              	.LASF120:
 4976 0736 53544333 		.ascii	"STC3115_ReadBatteryData\000"
 4976      3131355F 
 4976      52656164 
 4976      42617474 
 4976      65727944 
 4977              	.LASF72:
 4978 074e 73746174 		.ascii	"status\000"
 4978      757300
 4979              	.LASF126:
 4980 0755 53544333 		.ascii	"STC3115_Read\000"
 4980      3131355F 
 4980      52656164 
 4980      00
 4981              	.LASF76:
 4982 0762 54656D70 		.ascii	"Temperature\000"
 4982      65726174 
 4982      75726500 
 4983              	.LASF89:
 4984 076e 53544333 		.ascii	"STC3115_Data_t\000"
 4984      3131355F 
 4984      44617461 
 4984      5F7400
 4985              	.LASF13:
 4986 077d 75696E74 		.ascii	"uint8_t\000"
 4986      385F7400 
 4987              	.LASF56:
 4988 0785 436C6561 		.ascii	"ClearIT\000"
 4988      72495400 
 4989              	.LASF49:
 4990 078d 47657441 		.ascii	"GetAlarmStatus\000"
 4990      6C61726D 
 4990      53746174 
 4990      757300
 4991              	.LASF82:
 4992 079c 54737457 		.ascii	"TstWord\000"
 4992      6F726400 
 4993              	.LASF132:
 4994 07a4 53544333 		.ascii	"STC3115_WriteWord\000"
 4994      3131355F 
 4994      57726974 
 4994      65576F72 
 4994      6400
 4995              	.LASF86:
 4996 07b6 636F6E66 		.ascii	"configData\000"
 4996      69674461 
 4996      746100
 4997              	.LASF117:
 4998 07c1 53544333 		.ascii	"STC3115_WriteRamData\000"
 4998      3131355F 
 4998      57726974 
 4998      6552616D 
 4998      44617461 
ARM GAS  /tmp/ccAIGiUj.s 			page 95


 4999              	.LASF98:
 5000 07d6 68616E64 		.ascii	"handle\000"
 5000      6C6500
 5001              	.LASF29:
 5002 07dd 434F4D50 		.ascii	"COMPONENT_OK\000"
 5002      4F4E454E 
 5002      545F4F4B 
 5002      00
 5003              	.LASF20:
 5004 07ea 73706944 		.ascii	"spiDevice\000"
 5004      65766963 
 5004      6500
 5005              	.LASF36:
 5006 07f4 53656E73 		.ascii	"Sensor_Enable\000"
 5006      6F725F45 
 5006      6E61626C 
 5006      6500
 5007              	.LASF57:
 5008 0802 47475F44 		.ascii	"GG_Drv_t\000"
 5008      72765F74 
 5008      00
 5009              		.ident	"GCC: (GNU Tools for ARM Embedded Processors) 4.8.4 20140526 (release) [ARM/embedded-4_8-br
ARM GAS  /tmp/ccAIGiUj.s 			page 96


DEFINED SYMBOLS
                            *ABS*:00000000 STC3115_Driver.c
     /tmp/ccAIGiUj.s:23     .data:00000000 STC3115_Drv
     /tmp/ccAIGiUj.s:20     .data:00000000 $d
     /tmp/ccAIGiUj.s:72     .text:00000000 STC3115_Init
     /tmp/ccAIGiUj.s:415    .text:00000260 STC3115_DeInit
     /tmp/ccAIGiUj.s:444    .text:00000280 STC3115_Get_WhoAmI
     /tmp/ccAIGiUj.s:486    .text:000002b0 STC3115_Task
     /tmp/ccAIGiUj.s:889    .text:00000560 STC3115_Reset
     /tmp/ccAIGiUj.s:956    .text:000005c0 STC3115_Stop
     /tmp/ccAIGiUj.s:1019   .text:00000610 STC3115_GetSOC
     /tmp/ccAIGiUj.s:1063   .text:00000640 STC3115_GetOCV
     /tmp/ccAIGiUj.s:1097   .text:00000660 STC3115_GetCurrent
     /tmp/ccAIGiUj.s:1130   .text:00000680 STC3115_GetTemperature
     /tmp/ccAIGiUj.s:1163   .text:000006a0 STC3115_GetVoltage
     /tmp/ccAIGiUj.s:1197   .text:000006c0 STC3115_GetChargeValue
     /tmp/ccAIGiUj.s:1231   .text:000006e0 STC3115_GetPresence
     /tmp/ccAIGiUj.s:1265   .text:00000700 STC3115_GetAlarmStatus
     /tmp/ccAIGiUj.s:48     .rodata:00000000 $d
     /tmp/ccAIGiUj.s:67     .text:00000000 $t
     /tmp/ccAIGiUj.s:1300   .text:00000720 STC3115_Status
     /tmp/ccAIGiUj.s:1598   .text:000008a0 STC3115_ReadRamData
     /tmp/ccAIGiUj.s:2085   .text:00000b80 STC3115_Read
     /tmp/ccAIGiUj.s:1361   .text:00000780 STC3115_CalcRamCRC8
     /tmp/ccAIGiUj.s:1856   .text:00000a40 STC3115_Restore
     /tmp/ccAIGiUj.s:1486   .text:00000810 STC3115_InitRamData
     /tmp/ccAIGiUj.s:1442   .text:000007e0 STC3115_UpdateRamCRC
     /tmp/ccAIGiUj.s:1556   .text:00000870 STC3115_WriteRamData
     /tmp/ccAIGiUj.s:2278   .text:00000c90 STC3115_SetParam
     /tmp/ccAIGiUj.s:2177   .text:00000c00 STC3115_ReadWord
     /tmp/ccAIGiUj.s:405    .text:00000254 $d
     /tmp/ccAIGiUj.s:410    .text:0000025c $t
     /tmp/ccAIGiUj.s:2028   .text:00000b30 STC3115_Startup
     /tmp/ccAIGiUj.s:1640   .text:000008d0 STC3115_ReadBatteryData
     /tmp/ccAIGiUj.s:2228   .text:00000c50 STC3115_WriteWord
     /tmp/ccAIGiUj.s:878    .text:00000548 $d
     /tmp/ccAIGiUj.s:884    .text:00000554 $t
     /tmp/ccAIGiUj.s:2131   .text:00000bc0 STC3115_Write
     /tmp/ccAIGiUj.s:1930   .text:00000aa0 STC3115_Powerdown
     /tmp/ccAIGiUj.s:1054   .text:0000063c $d
     /tmp/ccAIGiUj.s:1058   .text:00000640 $t
     /tmp/ccAIGiUj.s:1987   .text:00000af0 STC3115_conv
     /tmp/ccAIGiUj.s:2446   .text:00000dc4 $d
                     .debug_frame:00000010 $d
     /tmp/ccAIGiUj.s:2456   .text:00000dc8 $t

UNDEFINED SYMBOLS
HAL_Delay
Sensor_IO_Write
Sensor_IO_Read
