ARM GAS  /tmp/ccAIGiUj.s 			page 1


   1              		.syntax unified
   2              		.cpu cortex-m4
   3              		.fpu softvfp
   4              		.eabi_attribute 20, 1
   5              		.eabi_attribute 21, 1
   6              		.eabi_attribute 23, 3
   7              		.eabi_attribute 24, 1
   8              		.eabi_attribute 25, 1
   9              		.eabi_attribute 26, 1
  10              		.eabi_attribute 30, 6
  11              		.eabi_attribute 34, 1
  12              		.eabi_attribute 18, 4
  13              		.thumb
  14              		.file	"STC3115_Driver.c"
  15              		.text
  16              	.Ltext0:
  17              		.cfi_sections	.debug_frame
  18              		.global	STC3115_Drv
  19              		.data
  20              		.align	2
  21              		.type	STC3115_Drv, %object
  22              		.size	STC3115_Drv, 92
  23              	STC3115_Drv:
  24 0000 00000000 		.word	STC3115_Init
  25 0004 00000000 		.word	STC3115_DeInit
  26 0008 00000000 		.word	0
  27 000c 00000000 		.word	0
  28 0010 00000000 		.word	STC3115_Get_WhoAmI
  29 0014 00000000 		.word	STC3115_Task
  30 0018 00000000 		.word	STC3115_Reset
  31 001c 00000000 		.word	STC3115_Stop
  32 0020 00000000 		.word	STC3115_GetSOC
  33 0024 00000000 		.word	STC3115_GetOCV
  34 0028 00000000 		.word	STC3115_GetCurrent
  35 002c 00000000 		.word	STC3115_GetTemperature
  36 0030 00000000 		.word	STC3115_GetVoltage
  37 0034 00000000 		.word	STC3115_GetChargeValue
  38 0038 00000000 		.word	STC3115_GetPresence
  39 003c 00000000 		.word	STC3115_GetAlarmStatus
  40 0040 00000000 		.word	0
  41 0044 00000000 		.word	0
  42 0048 00000000 		.word	0
  43 004c 00000000 		.word	0
  44 0050 00000000 		.word	0
  45 0054 00000000 		.word	0
  46 0058 00000000 		.word	0
  47              		.section	.rodata
  48              		.align	2
  49              	.LC0:
  50 0000 D9FFFFFF 		.word	-39
  51 0004 D4FFFFFF 		.word	-44
  52 0008 DBFFFFFF 		.word	-37
  53 000c D2FFFFFF 		.word	-46
  54 0010 D5FFFFFF 		.word	-43
  55 0014 D5FFFFFF 		.word	-43
  56 0018 D6FFFFFF 		.word	-42
  57 001c E4FFFFFF 		.word	-28
ARM GAS  /tmp/ccAIGiUj.s 			page 2


  58 0020 F7FFFFFF 		.word	-9
  59 0024 FFFFFFFF 		.word	-1
  60 0028 FAFFFFFF 		.word	-6
  61 002c C9FFFFFF 		.word	-55
  62 0030 B4FFFFFF 		.word	-76
  63 0034 9FFFFFFF 		.word	-97
  64 0038 ABFFFFFF 		.word	-85
  65 003c 00000000 		.word	0
  66              		.text
  67              		.align	2
  68              		.p2align 4,,15
  69              		.thumb
  70              		.thumb_func
  71              		.type	STC3115_Init, %function
  72              	STC3115_Init:
  73              	.LFB0:
  74              		.file 1 "../../../../../Drivers/BSP/Components/stc3115/STC3115_Driver.c"
  75              		.loc 1 171 0
  76              		.cfi_startproc
  77              		@ args = 0, pretend = 0, frame = 104
  78              		@ frame_needed = 0, uses_anonymous_args = 0
  79 0000 30B5     		push	{r4, r5, lr}
  80              		.cfi_def_cfa_offset 12
  81              		.cfi_offset 4, -12
  82              		.cfi_offset 5, -8
  83              		.cfi_offset 14, -4
  84 0002 9BB0     		sub	sp, sp, #108
  85              		.cfi_def_cfa_offset 120
  86 0004 0190     		str	r0, [sp, #4]
  87              		.loc 1 173 0
  88 0006 934B     		ldr	r3, .L14
  89 0008 05AC     		add	r4, sp, #20
  90 000a 1D46     		mov	r5, r3
  91 000c 0FCD     		ldmia	r5!, {r0, r1, r2, r3}
  92 000e 0FC4     		stmia	r4!, {r0, r1, r2, r3}
  93 0010 0FCD     		ldmia	r5!, {r0, r1, r2, r3}
  94 0012 0FC4     		stmia	r4!, {r0, r1, r2, r3}
  95 0014 0FCD     		ldmia	r5!, {r0, r1, r2, r3}
  96 0016 0FC4     		stmia	r4!, {r0, r1, r2, r3}
  97 0018 95E80F00 		ldmia	r5, {r0, r1, r2, r3}
  98 001c 84E80F00 		stmia	r4, {r0, r1, r2, r3}
  99              		.loc 1 174 0
 100 0020 0023     		movs	r3, #0
 101 0022 0493     		str	r3, [sp, #16]
 102              		.loc 1 177 0
 103 0024 019B     		ldr	r3, [sp, #4]
 104 0026 9B68     		ldr	r3, [r3, #8]
 105 0028 1B68     		ldr	r3, [r3]
 106 002a 1893     		str	r3, [sp, #96]
 107              		.loc 1 178 0
 108 002c 019B     		ldr	r3, [sp, #4]
 109 002e 9B68     		ldr	r3, [r3, #8]
 110 0030 1B68     		ldr	r3, [r3]
 111 0032 3033     		adds	r3, r3, #48
 112 0034 1793     		str	r3, [sp, #92]
 113              		.loc 1 179 0
 114 0036 019B     		ldr	r3, [sp, #4]
ARM GAS  /tmp/ccAIGiUj.s 			page 3


 115 0038 9B68     		ldr	r3, [r3, #8]
 116 003a 1B68     		ldr	r3, [r3]
 117 003c 5C33     		adds	r3, r3, #92
 118 003e 1693     		str	r3, [sp, #88]
 119              		.loc 1 182 0
 120 0040 189B     		ldr	r3, [sp, #96]
 121 0042 0022     		movs	r2, #0
 122 0044 1A60     		str	r2, [r3]
 123              		.loc 1 186 0
 124 0046 189B     		ldr	r3, [sp, #96]
 125 0048 3222     		movs	r2, #50
 126 004a 9A61     		str	r2, [r3, #24]
 127              		.loc 1 193 0
 128 004c 189B     		ldr	r3, [sp, #96]
 129 004e 9B69     		ldr	r3, [r3, #24]
 130 0050 46F2A812 		movw	r2, #25000
 131 0054 02FB03F3 		mul	r3, r2, r3
 132 0058 03F5C153 		add	r3, r3, #6176
 133 005c 1233     		adds	r3, r3, #18
 134 005e 7E4A     		ldr	r2, .L14+4
 135 0060 82FB0312 		smull	r1, r2, r2, r3
 136 0064 1213     		asrs	r2, r2, #12
 137 0066 DB17     		asrs	r3, r3, #31
 138 0068 D21A     		subs	r2, r2, r3
 139 006a 189B     		ldr	r3, [sp, #96]
 140 006c DA60     		str	r2, [r3, #12]
 141              		.loc 1 201 0
 142 006e 189B     		ldr	r3, [sp, #96]
 143 0070 1422     		movs	r2, #20
 144 0072 1A61     		str	r2, [r3, #16]
 145              		.loc 1 204 0
 146 0074 0023     		movs	r3, #0
 147 0076 1993     		str	r3, [sp, #100]
 148 0078 2EE0     		b	.L2
 149              	.L5:
 150              		.loc 1 206 0
 151 007a 199B     		ldr	r3, [sp, #100]
 152 007c 9B00     		lsls	r3, r3, #2
 153 007e 1AAA     		add	r2, sp, #104
 154 0080 1344     		add	r3, r3, r2
 155 0082 53F8543C 		ldr	r3, [r3, #-84]
 156 0086 7F2B     		cmp	r3, #127
 157 0088 06DD     		ble	.L3
 158              		.loc 1 208 0
 159 008a 199B     		ldr	r3, [sp, #100]
 160 008c 9B00     		lsls	r3, r3, #2
 161 008e 1AA9     		add	r1, sp, #104
 162 0090 0B44     		add	r3, r3, r1
 163 0092 7F22     		movs	r2, #127
 164 0094 43F8542C 		str	r2, [r3, #-84]
 165              	.L3:
 166              		.loc 1 210 0
 167 0098 199B     		ldr	r3, [sp, #100]
 168 009a 9B00     		lsls	r3, r3, #2
 169 009c 1AAA     		add	r2, sp, #104
 170 009e 1344     		add	r3, r3, r2
 171 00a0 53F8543C 		ldr	r3, [r3, #-84]
ARM GAS  /tmp/ccAIGiUj.s 			page 4


 172 00a4 13F17F0F 		cmn	r3, #127
 173 00a8 07DA     		bge	.L4
 174              		.loc 1 212 0
 175 00aa 199B     		ldr	r3, [sp, #100]
 176 00ac 9B00     		lsls	r3, r3, #2
 177 00ae 1AA9     		add	r1, sp, #104
 178 00b0 0B44     		add	r3, r3, r1
 179 00b2 6FF07E02 		mvn	r2, #126
 180 00b6 43F8542C 		str	r2, [r3, #-84]
 181              	.L4:
 182              		.loc 1 214 0
 183 00ba 199B     		ldr	r3, [sp, #100]
 184 00bc 9B00     		lsls	r3, r3, #2
 185 00be 1AAA     		add	r2, sp, #104
 186 00c0 1344     		add	r3, r3, r2
 187 00c2 53F8543C 		ldr	r3, [r3, #-84]
 188 00c6 DAB2     		uxtb	r2, r3
 189 00c8 1899     		ldr	r1, [sp, #96]
 190 00ca 199B     		ldr	r3, [sp, #100]
 191 00cc 0B44     		add	r3, r3, r1
 192 00ce 2033     		adds	r3, r3, #32
 193 00d0 1A70     		strb	r2, [r3]
 194              		.loc 1 204 0
 195 00d2 199B     		ldr	r3, [sp, #100]
 196 00d4 0133     		adds	r3, r3, #1
 197 00d6 1993     		str	r3, [sp, #100]
 198              	.L2:
 199              		.loc 1 204 0 is_stmt 0 discriminator 1
 200 00d8 199B     		ldr	r3, [sp, #100]
 201 00da 0F2B     		cmp	r3, #15
 202 00dc CDDD     		ble	.L5
 203              		.loc 1 217 0 is_stmt 1
 204 00de 189B     		ldr	r3, [sp, #96]
 205 00e0 6422     		movs	r2, #100
 206 00e2 5A61     		str	r2, [r3, #20]
 207              		.loc 1 218 0
 208 00e4 189B     		ldr	r3, [sp, #96]
 209 00e6 0522     		movs	r2, #5
 210 00e8 DA61     		str	r2, [r3, #28]
 211              		.loc 1 220 0
 212 00ea 189B     		ldr	r3, [sp, #96]
 213 00ec 0A22     		movs	r2, #10
 214 00ee 5A60     		str	r2, [r3, #4]
 215              		.loc 1 221 0
 216 00f0 189B     		ldr	r3, [sp, #96]
 217 00f2 40F62232 		movw	r2, #2850
 218 00f6 9A60     		str	r2, [r3, #8]
 219              		.loc 1 226 0
 220 00f8 0198     		ldr	r0, [sp, #4]
 221 00fa 00F011FB 		bl	STC3115_Status
 222 00fe 1590     		str	r0, [sp, #84]
 223              		.loc 1 227 0
 224 0100 159B     		ldr	r3, [sp, #84]
 225 0102 002B     		cmp	r3, #0
 226 0104 01DA     		bge	.L6
 227              		.loc 1 229 0
 228 0106 0123     		movs	r3, #1
ARM GAS  /tmp/ccAIGiUj.s 			page 5


 229 0108 A1E0     		b	.L13
 230              	.L6:
 231              		.loc 1 233 0
 232 010a 179B     		ldr	r3, [sp, #92]
 233 010c 0122     		movs	r2, #1
 234 010e 1A62     		str	r2, [r3, #32]
 235              		.loc 1 236 0
 236 0110 169B     		ldr	r3, [sp, #88]
 237 0112 0198     		ldr	r0, [sp, #4]
 238 0114 1946     		mov	r1, r3
 239 0116 00F0C3FB 		bl	STC3115_ReadRamData
 240              		.loc 1 238 0
 241 011a 0DF10F03 		add	r3, sp, #15
 242 011e 0198     		ldr	r0, [sp, #4]
 243 0120 0021     		movs	r1, #0
 244 0122 1A46     		mov	r2, r3
 245 0124 0123     		movs	r3, #1
 246 0126 00F02BFD 		bl	STC3115_Read
 247              		.loc 1 239 0
 248 012a 9DF80F30 		ldrb	r3, [sp, #15]	@ zero_extendqisi2
 249 012e 03F01003 		and	r3, r3, #16
 250 0132 DBB2     		uxtb	r3, r3
 251 0134 8DF80F30 		strb	r3, [sp, #15]
 252              		.loc 1 240 0
 253 0138 9DF80F30 		ldrb	r3, [sp, #15]	@ zero_extendqisi2
 254 013c 002B     		cmp	r3, #0
 255 013e 2FD0     		beq	.L8
 256              		.loc 1 242 0
 257 0140 0DF10F03 		add	r3, sp, #15
 258 0144 0198     		ldr	r0, [sp, #4]
 259 0146 0121     		movs	r1, #1
 260 0148 1A46     		mov	r2, r3
 261 014a 0123     		movs	r3, #1
 262 014c 00F018FD 		bl	STC3115_Read
 263              		.loc 1 243 0
 264 0150 9DF80F30 		ldrb	r3, [sp, #15]	@ zero_extendqisi2
 265 0154 03F01803 		and	r3, r3, #24
 266 0158 DBB2     		uxtb	r3, r3
 267 015a 8DF80F30 		strb	r3, [sp, #15]
 268              		.loc 1 244 0
 269 015e 9DF80F30 		ldrb	r3, [sp, #15]	@ zero_extendqisi2
 270 0162 002B     		cmp	r3, #0
 271 0164 1CD1     		bne	.L8
 272              		.loc 1 246 0
 273 0166 169B     		ldr	r3, [sp, #88]
 274 0168 1B88     		ldrh	r3, [r3]
 275 016a 1AB2     		sxth	r2, r3
 276 016c 45F2A933 		movw	r3, #21417
 277 0170 9A42     		cmp	r2, r3
 278 0172 15D1     		bne	.L8
 279              		.loc 1 246 0 is_stmt 0 discriminator 1
 280 0174 169B     		ldr	r3, [sp, #88]
 281 0176 1846     		mov	r0, r3
 282 0178 1021     		movs	r1, #16
 283 017a 00F001FB 		bl	STC3115_CalcRamCRC8
 284 017e 0346     		mov	r3, r0
 285 0180 002B     		cmp	r3, #0
ARM GAS  /tmp/ccAIGiUj.s 			page 6


 286 0182 0DD1     		bne	.L8
 287              		.loc 1 248 0 is_stmt 1
 288 0184 169B     		ldr	r3, [sp, #88]
 289 0186 5B7A     		ldrb	r3, [r3, #9]	@ zero_extendqisi2
 290 0188 522B     		cmp	r3, #82
 291 018a 09D1     		bne	.L8
 292              		.loc 1 251 0
 293 018c 0198     		ldr	r0, [sp, #4]
 294 018e 1899     		ldr	r1, [sp, #96]
 295 0190 00F056FC 		bl	STC3115_Restore
 296 0194 1590     		str	r0, [sp, #84]
 297              		.loc 1 252 0
 298 0196 159B     		ldr	r3, [sp, #84]
 299 0198 002B     		cmp	r3, #0
 300 019a 01DA     		bge	.L8
 301              		.loc 1 253 0
 302 019c 0123     		movs	r3, #1
 303 019e 56E0     		b	.L13
 304              	.L8:
 305              		.loc 1 260 0
 306 01a0 0198     		ldr	r0, [sp, #4]
 307 01a2 00F0DDF9 		bl	STC3115_Reset
 308              		.loc 1 261 0
 309 01a6 0198     		ldr	r0, [sp, #4]
 310 01a8 1899     		ldr	r1, [sp, #96]
 311 01aa 00F031FB 		bl	STC3115_InitRamData
 312              		.loc 1 263 0
 313 01ae 169B     		ldr	r3, [sp, #88]
 314 01b0 4922     		movs	r2, #73
 315 01b2 5A72     		strb	r2, [r3, #9]
 316              		.loc 1 264 0
 317 01b4 0198     		ldr	r0, [sp, #4]
 318 01b6 00F013FB 		bl	STC3115_UpdateRamCRC
 319              		.loc 1 265 0
 320 01ba 169B     		ldr	r3, [sp, #88]
 321 01bc 0198     		ldr	r0, [sp, #4]
 322 01be 1946     		mov	r1, r3
 323 01c0 00F056FB 		bl	STC3115_WriteRamData
 324              		.loc 1 268 0
 325 01c4 0198     		ldr	r0, [sp, #4]
 326 01c6 1899     		ldr	r1, [sp, #96]
 327 01c8 00F062FD 		bl	STC3115_SetParam
 328              		.loc 1 270 0
 329 01cc 04AB     		add	r3, sp, #16
 330 01ce 0198     		ldr	r0, [sp, #4]
 331 01d0 0421     		movs	r1, #4
 332 01d2 1A46     		mov	r2, r3
 333 01d4 00F014FD 		bl	STC3115_ReadWord
 334              		.loc 1 271 0
 335 01d8 32E0     		b	.L9
 336              	.L12:
 337              		.loc 1 273 0
 338 01da 0DF10F03 		add	r3, sp, #15
 339 01de 0198     		ldr	r0, [sp, #4]
 340 01e0 0021     		movs	r1, #0
 341 01e2 1A46     		mov	r2, r3
 342 01e4 0123     		movs	r3, #1
ARM GAS  /tmp/ccAIGiUj.s 			page 7


 343 01e6 00F0CBFC 		bl	STC3115_Read
 344              		.loc 1 274 0
 345 01ea 9DF80F30 		ldrb	r3, [sp, #15]	@ zero_extendqisi2
 346 01ee 03F01003 		and	r3, r3, #16
 347 01f2 DBB2     		uxtb	r3, r3
 348 01f4 8DF80F30 		strb	r3, [sp, #15]
 349              		.loc 1 275 0
 350 01f8 15E0     		b	.L10
 351              	.L11:
 352              		.loc 1 277 0
 353 01fa 0198     		ldr	r0, [sp, #4]
 354 01fc 1899     		ldr	r1, [sp, #96]
 355 01fe 00F047FD 		bl	STC3115_SetParam
 356              		.loc 1 278 0
 357 0202 C820     		movs	r0, #200
 358 0204 FFF7FEFF 		bl	HAL_Delay
 359              		.loc 1 279 0
 360 0208 0DF10F03 		add	r3, sp, #15
 361 020c 0198     		ldr	r0, [sp, #4]
 362 020e 0021     		movs	r1, #0
 363 0210 1A46     		mov	r2, r3
 364 0212 0123     		movs	r3, #1
 365 0214 00F0B4FC 		bl	STC3115_Read
 366              		.loc 1 280 0
 367 0218 9DF80F30 		ldrb	r3, [sp, #15]	@ zero_extendqisi2
 368 021c 03F01003 		and	r3, r3, #16
 369 0220 DBB2     		uxtb	r3, r3
 370 0222 8DF80F30 		strb	r3, [sp, #15]
 371              	.L10:
 372              		.loc 1 275 0 discriminator 1
 373 0226 9DF80F30 		ldrb	r3, [sp, #15]	@ zero_extendqisi2
 374 022a 002B     		cmp	r3, #0
 375 022c E5D0     		beq	.L11
 376              		.loc 1 282 0
 377 022e C820     		movs	r0, #200
 378 0230 FFF7FEFF 		bl	HAL_Delay
 379              		.loc 1 283 0
 380 0234 04AB     		add	r3, sp, #16
 381 0236 0198     		ldr	r0, [sp, #4]
 382 0238 0421     		movs	r1, #4
 383 023a 1A46     		mov	r2, r3
 384 023c 00F0E0FC 		bl	STC3115_ReadWord
 385              	.L9:
 386              		.loc 1 271 0 discriminator 1
 387 0240 049B     		ldr	r3, [sp, #16]
 388 0242 042B     		cmp	r3, #4
 389 0244 C9DD     		ble	.L12
 390              		.loc 1 286 0
 391 0246 019B     		ldr	r3, [sp, #4]
 392 0248 0122     		movs	r2, #1
 393 024a 5A71     		strb	r2, [r3, #5]
 394              		.loc 1 287 0
 395 024c 0023     		movs	r3, #0
 396              	.L13:
 397              		.loc 1 288 0
 398 024e 1846     		mov	r0, r3
 399 0250 1BB0     		add	sp, sp, #108
ARM GAS  /tmp/ccAIGiUj.s 			page 8


 400              		@ sp needed
 401 0252 30BD     		pop	{r4, r5, pc}
 402              	.L15:
 403              		.align	2
 404              	.L14:
 405 0254 00000000 		.word	.LC0
 406 0258 D93DA354 		.word	1419984345
 407              		.cfi_endproc
 408              	.LFE0:
 409              		.size	STC3115_Init, .-STC3115_Init
 410              		.align	2
 411 025c AFF30080 		.p2align 4,,15
 412              		.thumb
 413              		.thumb_func
 414              		.type	STC3115_DeInit, %function
 415              	STC3115_DeInit:
 416              	.LFB1:
 417              		.loc 1 298 0
 418              		.cfi_startproc
 419              		@ args = 0, pretend = 0, frame = 8
 420              		@ frame_needed = 0, uses_anonymous_args = 0
 421              		@ link register save eliminated.
 422 0260 82B0     		sub	sp, sp, #8
 423              		.cfi_def_cfa_offset 8
 424 0262 0190     		str	r0, [sp, #4]
 425              		.loc 1 299 0
 426 0264 019B     		ldr	r3, [sp, #4]
 427 0266 0022     		movs	r2, #0
 428 0268 5A71     		strb	r2, [r3, #5]
 429              		.loc 1 301 0
 430 026a 0023     		movs	r3, #0
 431              		.loc 1 302 0
 432 026c 1846     		mov	r0, r3
 433 026e 02B0     		add	sp, sp, #8
 434              		@ sp needed
 435 0270 7047     		bx	lr
 436              		.cfi_endproc
 437              	.LFE1:
 438              		.size	STC3115_DeInit, .-STC3115_DeInit
 439 0272 00BF     		.align	2
 440 0274 AFF30080 		.p2align 4,,15
 440      AFF30080 
 440      AFF30080 
 441              		.thumb
 442              		.thumb_func
 443              		.type	STC3115_Get_WhoAmI, %function
 444              	STC3115_Get_WhoAmI:
 445              	.LFB2:
 446              		.loc 1 336 0
 447              		.cfi_startproc
 448              		@ args = 0, pretend = 0, frame = 8
 449              		@ frame_needed = 0, uses_anonymous_args = 0
 450 0280 00B5     		push	{lr}
 451              		.cfi_def_cfa_offset 4
 452              		.cfi_offset 14, -4
 453 0282 83B0     		sub	sp, sp, #12
 454              		.cfi_def_cfa_offset 16
ARM GAS  /tmp/ccAIGiUj.s 			page 9


 455 0284 0190     		str	r0, [sp, #4]
 456 0286 0091     		str	r1, [sp]
 457              		.loc 1 337 0
 458 0288 0198     		ldr	r0, [sp, #4]
 459 028a 1821     		movs	r1, #24
 460 028c 009A     		ldr	r2, [sp]
 461 028e 0123     		movs	r3, #1
 462 0290 00F076FC 		bl	STC3115_Read
 463 0294 0346     		mov	r3, r0
 464 0296 002B     		cmp	r3, #0
 465 0298 01D1     		bne	.L19
 466              		.loc 1 339 0
 467 029a 0023     		movs	r3, #0
 468 029c 00E0     		b	.L20
 469              	.L19:
 470              		.loc 1 343 0
 471 029e 0123     		movs	r3, #1
 472              	.L20:
 473              		.loc 1 345 0
 474 02a0 1846     		mov	r0, r3
 475 02a2 03B0     		add	sp, sp, #12
 476              		@ sp needed
 477 02a4 5DF804FB 		ldr	pc, [sp], #4
 478              		.cfi_endproc
 479              	.LFE2:
 480              		.size	STC3115_Get_WhoAmI, .-STC3115_Get_WhoAmI
 481              		.align	2
 482 02a8 AFF30080 		.p2align 4,,15
 482      AFF30080 
 483              		.thumb
 484              		.thumb_func
 485              		.type	STC3115_Task, %function
 486              	STC3115_Task:
 487              	.LFB3:
 488              		.loc 1 354 0
 489              		.cfi_startproc
 490              		@ args = 0, pretend = 0, frame = 24
 491              		@ frame_needed = 0, uses_anonymous_args = 0
 492 02b0 00B5     		push	{lr}
 493              		.cfi_def_cfa_offset 4
 494              		.cfi_offset 14, -4
 495 02b2 87B0     		sub	sp, sp, #28
 496              		.cfi_def_cfa_offset 32
 497 02b4 0190     		str	r0, [sp, #4]
 498 02b6 0091     		str	r1, [sp]
 499              		.loc 1 357 0
 500 02b8 019B     		ldr	r3, [sp, #4]
 501 02ba 9B68     		ldr	r3, [r3, #8]
 502 02bc 1B68     		ldr	r3, [r3]
 503 02be 0593     		str	r3, [sp, #20]
 504              		.loc 1 358 0
 505 02c0 019B     		ldr	r3, [sp, #4]
 506 02c2 9B68     		ldr	r3, [r3, #8]
 507 02c4 1B68     		ldr	r3, [r3]
 508 02c6 3033     		adds	r3, r3, #48
 509 02c8 0493     		str	r3, [sp, #16]
 510              		.loc 1 359 0
ARM GAS  /tmp/ccAIGiUj.s 			page 10


 511 02ca 019B     		ldr	r3, [sp, #4]
 512 02cc 9B68     		ldr	r3, [r3, #8]
 513 02ce 1B68     		ldr	r3, [r3]
 514 02d0 5C33     		adds	r3, r3, #92
 515 02d2 0393     		str	r3, [sp, #12]
 516              		.loc 1 363 0
 517 02d4 0198     		ldr	r0, [sp, #4]
 518 02d6 00F023FA 		bl	STC3115_Status
 519 02da 0290     		str	r0, [sp, #8]
 520              		.loc 1 365 0
 521 02dc 029B     		ldr	r3, [sp, #8]
 522 02de 002B     		cmp	r3, #0
 523 02e0 01DA     		bge	.L22
 524              		.loc 1 365 0 is_stmt 0 discriminator 1
 525 02e2 0123     		movs	r3, #1
 526 02e4 2CE1     		b	.L23
 527              	.L22:
 528              		.loc 1 366 0 is_stmt 1
 529 02e6 049B     		ldr	r3, [sp, #16]
 530 02e8 029A     		ldr	r2, [sp, #8]
 531 02ea 1A60     		str	r2, [r3]
 532              		.loc 1 369 0
 533 02ec 039B     		ldr	r3, [sp, #12]
 534 02ee 0198     		ldr	r0, [sp, #4]
 535 02f0 1946     		mov	r1, r3
 536 02f2 00F0D5FA 		bl	STC3115_ReadRamData
 537              		.loc 1 370 0
 538 02f6 039B     		ldr	r3, [sp, #12]
 539 02f8 1B88     		ldrh	r3, [r3]
 540 02fa 1AB2     		sxth	r2, r3
 541 02fc 45F2A933 		movw	r3, #21417
 542 0300 9A42     		cmp	r2, r3
 543 0302 07D1     		bne	.L24
 544              		.loc 1 370 0 is_stmt 0 discriminator 1
 545 0304 039B     		ldr	r3, [sp, #12]
 546 0306 1846     		mov	r0, r3
 547 0308 1021     		movs	r1, #16
 548 030a 00F039FA 		bl	STC3115_CalcRamCRC8
 549 030e 0346     		mov	r3, r0
 550 0310 002B     		cmp	r3, #0
 551 0312 06D0     		beq	.L25
 552              	.L24:
 553              		.loc 1 373 0 is_stmt 1
 554 0314 0198     		ldr	r0, [sp, #4]
 555 0316 0599     		ldr	r1, [sp, #20]
 556 0318 00F07AFA 		bl	STC3115_InitRamData
 557              		.loc 1 374 0
 558 031c 039B     		ldr	r3, [sp, #12]
 559 031e 4922     		movs	r2, #73
 560 0320 5A72     		strb	r2, [r3, #9]
 561              	.L25:
 562              		.loc 1 378 0
 563 0322 049B     		ldr	r3, [sp, #16]
 564 0324 1B68     		ldr	r3, [r3]
 565 0326 03F40063 		and	r3, r3, #2048
 566 032a 002B     		cmp	r3, #0
 567 032c 07D0     		beq	.L26
ARM GAS  /tmp/ccAIGiUj.s 			page 11


 568              		.loc 1 383 0
 569 032e 049B     		ldr	r3, [sp, #16]
 570 0330 0022     		movs	r2, #0
 571 0332 1A62     		str	r2, [r3, #32]
 572              		.loc 1 386 0
 573 0334 0198     		ldr	r0, [sp, #4]
 574 0336 00F013F9 		bl	STC3115_Reset
 575              		.loc 1 388 0
 576 033a 0123     		movs	r3, #1
 577 033c 00E1     		b	.L23
 578              	.L26:
 579              		.loc 1 392 0
 580 033e 049B     		ldr	r3, [sp, #16]
 581 0340 1B68     		ldr	r3, [r3]
 582 0342 03F01003 		and	r3, r3, #16
 583 0346 002B     		cmp	r3, #0
 584 0348 0FD1     		bne	.L27
 585              		.loc 1 394 0
 586 034a 039B     		ldr	r3, [sp, #12]
 587 034c 5B7A     		ldrb	r3, [r3, #9]	@ zero_extendqisi2
 588 034e 522B     		cmp	r3, #82
 589 0350 04D1     		bne	.L28
 590              		.loc 1 396 0
 591 0352 0198     		ldr	r0, [sp, #4]
 592 0354 0599     		ldr	r1, [sp, #20]
 593 0356 00F073FB 		bl	STC3115_Restore
 594 035a 03E0     		b	.L29
 595              	.L28:
 596              		.loc 1 400 0
 597 035c 0198     		ldr	r0, [sp, #4]
 598 035e 0599     		ldr	r1, [sp, #20]
 599 0360 00F0E6FB 		bl	STC3115_Startup
 600              	.L29:
 601              		.loc 1 403 0
 602 0364 039B     		ldr	r3, [sp, #12]
 603 0366 4922     		movs	r2, #73
 604 0368 5A72     		strb	r2, [r3, #9]
 605              	.L27:
 606              		.loc 1 408 0
 607 036a 0198     		ldr	r0, [sp, #4]
 608 036c 0499     		ldr	r1, [sp, #16]
 609 036e 00F0AFFA 		bl	STC3115_ReadBatteryData
 610 0372 0290     		str	r0, [sp, #8]
 611              		.loc 1 409 0
 612 0374 029B     		ldr	r3, [sp, #8]
 613 0376 002B     		cmp	r3, #0
 614 0378 01D0     		beq	.L30
 615              		.loc 1 409 0 is_stmt 0 discriminator 1
 616 037a 0123     		movs	r3, #1
 617 037c E0E0     		b	.L23
 618              	.L30:
 619              		.loc 1 414 0 is_stmt 1
 620 037e 039B     		ldr	r3, [sp, #12]
 621 0380 5B7A     		ldrb	r3, [r3, #9]	@ zero_extendqisi2
 622 0382 492B     		cmp	r3, #73
 623 0384 09D1     		bne	.L31
 624              		.loc 1 417 0
ARM GAS  /tmp/ccAIGiUj.s 			page 12


 625 0386 049B     		ldr	r3, [sp, #16]
 626 0388 9B69     		ldr	r3, [r3, #24]
 627 038a 042B     		cmp	r3, #4
 628 038c 05DD     		ble	.L31
 629              		.loc 1 419 0
 630 038e 039B     		ldr	r3, [sp, #12]
 631 0390 5222     		movs	r2, #82
 632 0392 5A72     		strb	r2, [r3, #9]
 633              		.loc 1 421 0
 634 0394 049B     		ldr	r3, [sp, #16]
 635 0396 0122     		movs	r2, #1
 636 0398 1A62     		str	r2, [r3, #32]
 637              	.L31:
 638              		.loc 1 425 0
 639 039a 039B     		ldr	r3, [sp, #12]
 640 039c 5B7A     		ldrb	r3, [r3, #9]	@ zero_extendqisi2
 641 039e 522B     		cmp	r3, #82
 642 03a0 18D0     		beq	.L32
 643              		.loc 1 427 0
 644 03a2 059B     		ldr	r3, [sp, #20]
 645 03a4 5B69     		ldr	r3, [r3, #20]
 646 03a6 049A     		ldr	r2, [sp, #16]
 647 03a8 9268     		ldr	r2, [r2, #8]
 648 03aa 02FB03F3 		mul	r3, r2, r3
 649 03ae 664A     		ldr	r2, .L45
 650 03b0 82FB0312 		smull	r1, r2, r2, r3
 651 03b4 9211     		asrs	r2, r2, #6
 652 03b6 DB17     		asrs	r3, r3, #31
 653 03b8 D21A     		subs	r2, r2, r3
 654 03ba 049B     		ldr	r3, [sp, #16]
 655 03bc 5A62     		str	r2, [r3, #36]
 656              		.loc 1 428 0
 657 03be 049B     		ldr	r3, [sp, #16]
 658 03c0 0022     		movs	r2, #0
 659 03c2 1A61     		str	r2, [r3, #16]
 660              		.loc 1 429 0
 661 03c4 049B     		ldr	r3, [sp, #16]
 662 03c6 FA22     		movs	r2, #250
 663 03c8 5A61     		str	r2, [r3, #20]
 664              		.loc 1 430 0
 665 03ca 049B     		ldr	r3, [sp, #16]
 666 03cc 4FF0FF32 		mov	r2, #-1
 667 03d0 9A62     		str	r2, [r3, #40]
 668 03d2 8AE0     		b	.L33
 669              	.L32:
 670              		.loc 1 438 0
 671 03d4 049B     		ldr	r3, [sp, #16]
 672 03d6 DA68     		ldr	r2, [r3, #12]
 673 03d8 40F6B733 		movw	r3, #2999
 674 03dc 9A42     		cmp	r2, r3
 675 03de 03DC     		bgt	.L34
 676              		.loc 1 439 0
 677 03e0 049B     		ldr	r3, [sp, #16]
 678 03e2 0022     		movs	r2, #0
 679 03e4 9A60     		str	r2, [r3, #8]
 680 03e6 14E0     		b	.L35
 681              	.L34:
ARM GAS  /tmp/ccAIGiUj.s 			page 13


 682              		.loc 1 440 0
 683 03e8 049B     		ldr	r3, [sp, #16]
 684 03ea DB68     		ldr	r3, [r3, #12]
 685 03ec B3F5486F 		cmp	r3, #3200
 686 03f0 0FDA     		bge	.L35
 687              		.loc 1 441 0
 688 03f2 049B     		ldr	r3, [sp, #16]
 689 03f4 9B68     		ldr	r3, [r3, #8]
 690 03f6 049A     		ldr	r2, [sp, #16]
 691 03f8 D268     		ldr	r2, [r2, #12]
 692 03fa A2F6B832 		subw	r2, r2, #3000
 693 03fe 02FB03F3 		mul	r3, r2, r3
 694 0402 524A     		ldr	r2, .L45+4
 695 0404 82FB0312 		smull	r1, r2, r2, r3
 696 0408 9211     		asrs	r2, r2, #6
 697 040a DB17     		asrs	r3, r3, #31
 698 040c D21A     		subs	r2, r2, r3
 699 040e 049B     		ldr	r3, [sp, #16]
 700 0410 9A60     		str	r2, [r3, #8]
 701              	.L35:
 702              		.loc 1 445 0
 703 0412 059B     		ldr	r3, [sp, #20]
 704 0414 5B69     		ldr	r3, [r3, #20]
 705 0416 049A     		ldr	r2, [sp, #16]
 706 0418 9268     		ldr	r2, [r2, #8]
 707 041a 02FB03F3 		mul	r3, r2, r3
 708 041e 4A4A     		ldr	r2, .L45
 709 0420 82FB0312 		smull	r1, r2, r2, r3
 710 0424 9211     		asrs	r2, r2, #6
 711 0426 DB17     		asrs	r3, r3, #31
 712 0428 D21A     		subs	r2, r2, r3
 713 042a 049B     		ldr	r3, [sp, #16]
 714 042c 5A62     		str	r2, [r3, #36]
 715              		.loc 1 447 0
 716 042e 049B     		ldr	r3, [sp, #16]
 717 0430 1B68     		ldr	r3, [r3]
 718 0432 03F00103 		and	r3, r3, #1
 719 0436 002B     		cmp	r3, #0
 720 0438 40D1     		bne	.L36
 721              		.loc 1 451 0
 722 043a 049B     		ldr	r3, [sp, #16]
 723 043c 1B68     		ldr	r3, [r3]
 724 043e 03F00103 		and	r3, r3, #1
 725 0442 002B     		cmp	r3, #0
 726 0444 13D1     		bne	.L37
 727              		.loc 1 454 0
 728 0446 049B     		ldr	r3, [sp, #16]
 729 0448 1B69     		ldr	r3, [r3, #16]
 730 044a 0A2B     		cmp	r3, #10
 731 044c 0FDD     		ble	.L37
 732              		.loc 1 454 0 is_stmt 0 discriminator 1
 733 044e 049B     		ldr	r3, [sp, #16]
 734 0450 9A68     		ldr	r2, [r3, #8]
 735 0452 40F2DE33 		movw	r3, #990
 736 0456 9A42     		cmp	r2, r3
 737 0458 09DD     		ble	.L37
 738              		.loc 1 456 0 is_stmt 1
ARM GAS  /tmp/ccAIGiUj.s 			page 14


 739 045a 049B     		ldr	r3, [sp, #16]
 740 045c 40F2DE32 		movw	r2, #990
 741 0460 9A60     		str	r2, [r3, #8]
 742              		.loc 1 457 0
 743 0462 0198     		ldr	r0, [sp, #4]
 744 0464 0221     		movs	r1, #2
 745 0466 4FF44642 		mov	r2, #50688
 746 046a 00F0F1FB 		bl	STC3115_WriteWord
 747              	.L37:
 748              		.loc 1 462 0
 749 046e 049B     		ldr	r3, [sp, #16]
 750 0470 1B69     		ldr	r3, [r3, #16]
 751 0472 002B     		cmp	r3, #0
 752 0474 1DDA     		bge	.L38
 753              		.loc 1 465 0
 754 0476 049B     		ldr	r3, [sp, #16]
 755 0478 996A     		ldr	r1, [r3, #40]
 756 047a 049B     		ldr	r3, [sp, #16]
 757 047c 5A6A     		ldr	r2, [r3, #36]
 758 047e 049B     		ldr	r3, [sp, #16]
 759 0480 1B69     		ldr	r3, [r3, #16]
 760 0482 92FBF3F2 		sdiv	r2, r2, r3
 761 0486 1346     		mov	r3, r2
 762 0488 1B01     		lsls	r3, r3, #4
 763 048a 9B1A     		subs	r3, r3, r2
 764 048c 0B44     		add	r3, r3, r1
 765 048e 9B00     		lsls	r3, r3, #2
 766 0490 2F4A     		ldr	r2, .L45+8
 767 0492 82FB0312 		smull	r1, r2, r2, r3
 768 0496 5210     		asrs	r2, r2, #1
 769 0498 DB17     		asrs	r3, r3, #31
 770 049a D21A     		subs	r2, r2, r3
 771 049c 049B     		ldr	r3, [sp, #16]
 772 049e 9A62     		str	r2, [r3, #40]
 773              		.loc 1 466 0
 774 04a0 049B     		ldr	r3, [sp, #16]
 775 04a2 9B6A     		ldr	r3, [r3, #40]
 776 04a4 002B     		cmp	r3, #0
 777 04a6 10DA     		bge	.L41
 778              		.loc 1 467 0
 779 04a8 049B     		ldr	r3, [sp, #16]
 780 04aa 4FF0FF32 		mov	r2, #-1
 781 04ae 9A62     		str	r2, [r3, #40]
 782 04b0 0BE0     		b	.L41
 783              	.L38:
 784              		.loc 1 470 0
 785 04b2 049B     		ldr	r3, [sp, #16]
 786 04b4 4FF0FF32 		mov	r2, #-1
 787 04b8 9A62     		str	r2, [r3, #40]
 788 04ba 06E0     		b	.L41
 789              	.L36:
 790              		.loc 1 475 0
 791 04bc 049B     		ldr	r3, [sp, #16]
 792 04be 0022     		movs	r2, #0
 793 04c0 1A61     		str	r2, [r3, #16]
 794              		.loc 1 476 0
 795 04c2 049B     		ldr	r3, [sp, #16]
ARM GAS  /tmp/ccAIGiUj.s 			page 15


 796 04c4 4FF0FF32 		mov	r2, #-1
 797 04c8 9A62     		str	r2, [r3, #40]
 798              	.L41:
 799              		.loc 1 480 0
 800 04ca 049B     		ldr	r3, [sp, #16]
 801 04cc 9B68     		ldr	r3, [r3, #8]
 802 04ce B3F57A7F 		cmp	r3, #1000
 803 04d2 03DD     		ble	.L42
 804              		.loc 1 480 0 is_stmt 0 discriminator 1
 805 04d4 049B     		ldr	r3, [sp, #16]
 806 04d6 4FF47A72 		mov	r2, #1000
 807 04da 9A60     		str	r2, [r3, #8]
 808              	.L42:
 809              		.loc 1 481 0 is_stmt 1
 810 04dc 049B     		ldr	r3, [sp, #16]
 811 04de 9B68     		ldr	r3, [r3, #8]
 812 04e0 002B     		cmp	r3, #0
 813 04e2 02DA     		bge	.L33
 814              		.loc 1 481 0 is_stmt 0 discriminator 1
 815 04e4 049B     		ldr	r3, [sp, #16]
 816 04e6 0022     		movs	r2, #0
 817 04e8 9A60     		str	r2, [r3, #8]
 818              	.L33:
 819              		.loc 1 485 0 is_stmt 1
 820 04ea 049B     		ldr	r3, [sp, #16]
 821 04ec 5B68     		ldr	r3, [r3, #4]
 822 04ee 9AB2     		uxth	r2, r3
 823 04f0 039B     		ldr	r3, [sp, #12]
 824 04f2 5A80     		strh	r2, [r3, #2]	@ movhi
 825              		.loc 1 486 0
 826 04f4 049B     		ldr	r3, [sp, #16]
 827 04f6 9B68     		ldr	r3, [r3, #8]
 828 04f8 0533     		adds	r3, r3, #5
 829 04fa 154A     		ldr	r2, .L45+8
 830 04fc 82FB0312 		smull	r1, r2, r2, r3
 831 0500 9210     		asrs	r2, r2, #2
 832 0502 DB17     		asrs	r3, r3, #31
 833 0504 D31A     		subs	r3, r2, r3
 834 0506 DAB2     		uxtb	r2, r3
 835 0508 039B     		ldr	r3, [sp, #12]
 836 050a 1A72     		strb	r2, [r3, #8]
 837              		.loc 1 487 0
 838 050c 0198     		ldr	r0, [sp, #4]
 839 050e 00F067F9 		bl	STC3115_UpdateRamCRC
 840              		.loc 1 488 0
 841 0512 039B     		ldr	r3, [sp, #12]
 842 0514 0198     		ldr	r0, [sp, #4]
 843 0516 1946     		mov	r1, r3
 844 0518 00F0AAF9 		bl	STC3115_WriteRamData
 845              		.loc 1 490 0
 846 051c 039B     		ldr	r3, [sp, #12]
 847 051e 5B7A     		ldrb	r3, [r3, #9]	@ zero_extendqisi2
 848 0520 522B     		cmp	r3, #82
 849 0522 0CD1     		bne	.L43
 850              		.loc 1 492 0
 851 0524 049B     		ldr	r3, [sp, #16]
 852 0526 1B68     		ldr	r3, [r3]
ARM GAS  /tmp/ccAIGiUj.s 			page 16


 853 0528 03F48063 		and	r3, r3, #1024
 854 052c 002B     		cmp	r3, #0
 855 052e 03D1     		bne	.L44
 856              		.loc 1 493 0
 857 0530 009B     		ldr	r3, [sp]
 858 0532 0022     		movs	r2, #0
 859 0534 1A70     		strb	r2, [r3]
 860 0536 02E0     		b	.L43
 861              	.L44:
 862              		.loc 1 495 0
 863 0538 009B     		ldr	r3, [sp]
 864 053a 0122     		movs	r2, #1
 865 053c 1A70     		strb	r2, [r3]
 866              	.L43:
 867              		.loc 1 497 0
 868 053e 0023     		movs	r3, #0
 869              	.L23:
 870              		.loc 1 498 0
 871 0540 1846     		mov	r0, r3
 872 0542 07B0     		add	sp, sp, #28
 873              		@ sp needed
 874 0544 5DF804FB 		ldr	pc, [sp], #4
 875              	.L46:
 876              		.align	2
 877              	.L45:
 878 0548 D34D6210 		.word	274877907
 879 054c 1F85EB51 		.word	1374389535
 880 0550 67666666 		.word	1717986919
 881              		.cfi_endproc
 882              	.LFE3:
 883              		.size	STC3115_Task, .-STC3115_Task
 884              		.align	2
 885 0554 AFF30080 		.p2align 4,,15
 885      AFF30080 
 885      AFF30080 
 886              		.thumb
 887              		.thumb_func
 888              		.type	STC3115_Reset, %function
 889              	STC3115_Reset:
 890              	.LFB4:
 891              		.loc 1 506 0
 892              		.cfi_startproc
 893              		@ args = 0, pretend = 0, frame = 24
 894              		@ frame_needed = 0, uses_anonymous_args = 0
 895 0560 00B5     		push	{lr}
 896              		.cfi_def_cfa_offset 4
 897              		.cfi_offset 14, -4
 898 0562 87B0     		sub	sp, sp, #28
 899              		.cfi_def_cfa_offset 32
 900 0564 0190     		str	r0, [sp, #4]
 901              		.loc 1 508 0
 902 0566 019B     		ldr	r3, [sp, #4]
 903 0568 9B68     		ldr	r3, [r3, #8]
 904 056a 1B68     		ldr	r3, [r3]
 905 056c 5C33     		adds	r3, r3, #92
 906 056e 0593     		str	r3, [sp, #20]
 907              		.loc 1 511 0
ARM GAS  /tmp/ccAIGiUj.s 			page 17


 908 0570 059B     		ldr	r3, [sp, #20]
 909 0572 0022     		movs	r2, #0
 910 0574 1A80     		strh	r2, [r3]	@ movhi
 911              		.loc 1 512 0
 912 0576 059B     		ldr	r3, [sp, #20]
 913 0578 0022     		movs	r2, #0
 914 057a 5A72     		strb	r2, [r3, #9]
 915              		.loc 1 513 0
 916 057c 059B     		ldr	r3, [sp, #20]
 917 057e 0198     		ldr	r0, [sp, #4]
 918 0580 1946     		mov	r1, r3
 919 0582 00F075F9 		bl	STC3115_WriteRamData
 920 0586 0490     		str	r0, [sp, #16]
 921              		.loc 1 514 0
 922 0588 049B     		ldr	r3, [sp, #16]
 923 058a 002B     		cmp	r3, #0
 924 058c 01D0     		beq	.L48
 925              		.loc 1 514 0 is_stmt 0 discriminator 1
 926 058e 0123     		movs	r3, #1
 927 0590 0CE0     		b	.L50
 928              	.L48:
 929              		.loc 1 516 0 is_stmt 1
 930 0592 1023     		movs	r3, #16
 931 0594 8DF80F30 		strb	r3, [sp, #15]
 932              		.loc 1 517 0
 933 0598 0DF10F03 		add	r3, sp, #15
 934 059c 0198     		ldr	r0, [sp, #4]
 935 059e 0121     		movs	r1, #1
 936 05a0 1A46     		mov	r2, r3
 937 05a2 0123     		movs	r3, #1
 938 05a4 00F00CFB 		bl	STC3115_Write
 939 05a8 0490     		str	r0, [sp, #16]
 940              		.loc 1 519 0
 941 05aa 0023     		movs	r3, #0
 942              	.L50:
 943              		.loc 1 520 0
 944 05ac 1846     		mov	r0, r3
 945 05ae 07B0     		add	sp, sp, #28
 946              		@ sp needed
 947 05b0 5DF804FB 		ldr	pc, [sp], #4
 948              		.cfi_endproc
 949              	.LFE4:
 950              		.size	STC3115_Reset, .-STC3115_Reset
 951              		.align	2
 952 05b4 AFF30080 		.p2align 4,,15
 952      AFF30080 
 952      AFF30080 
 953              		.thumb
 954              		.thumb_func
 955              		.type	STC3115_Stop, %function
 956              	STC3115_Stop:
 957              	.LFB5:
 958              		.loc 1 528 0
 959              		.cfi_startproc
 960              		@ args = 0, pretend = 0, frame = 16
 961              		@ frame_needed = 0, uses_anonymous_args = 0
 962 05c0 00B5     		push	{lr}
ARM GAS  /tmp/ccAIGiUj.s 			page 18


 963              		.cfi_def_cfa_offset 4
 964              		.cfi_offset 14, -4
 965 05c2 85B0     		sub	sp, sp, #20
 966              		.cfi_def_cfa_offset 24
 967 05c4 0190     		str	r0, [sp, #4]
 968              		.loc 1 530 0
 969 05c6 019B     		ldr	r3, [sp, #4]
 970 05c8 9B68     		ldr	r3, [r3, #8]
 971 05ca 1B68     		ldr	r3, [r3]
 972 05cc 5C33     		adds	r3, r3, #92
 973 05ce 0393     		str	r3, [sp, #12]
 974              		.loc 1 533 0
 975 05d0 039B     		ldr	r3, [sp, #12]
 976 05d2 0198     		ldr	r0, [sp, #4]
 977 05d4 1946     		mov	r1, r3
 978 05d6 00F063F9 		bl	STC3115_ReadRamData
 979              		.loc 1 534 0
 980 05da 039B     		ldr	r3, [sp, #12]
 981 05dc 4422     		movs	r2, #68
 982 05de 5A72     		strb	r2, [r3, #9]
 983              		.loc 1 536 0
 984 05e0 0198     		ldr	r0, [sp, #4]
 985 05e2 00F0FDF8 		bl	STC3115_UpdateRamCRC
 986              		.loc 1 537 0
 987 05e6 039B     		ldr	r3, [sp, #12]
 988 05e8 0198     		ldr	r0, [sp, #4]
 989 05ea 1946     		mov	r1, r3
 990 05ec 00F040F9 		bl	STC3115_WriteRamData
 991              		.loc 1 540 0
 992 05f0 0198     		ldr	r0, [sp, #4]
 993 05f2 00F055FA 		bl	STC3115_Powerdown
 994 05f6 0290     		str	r0, [sp, #8]
 995              		.loc 1 541 0
 996 05f8 029B     		ldr	r3, [sp, #8]
 997 05fa 002B     		cmp	r3, #0
 998 05fc 01D0     		beq	.L52
 999              		.loc 1 541 0 is_stmt 0 discriminator 1
 1000 05fe 0123     		movs	r3, #1
 1001 0600 00E0     		b	.L53
 1002              	.L52:
 1003              		.loc 1 543 0 is_stmt 1
 1004 0602 0023     		movs	r3, #0
 1005              	.L53:
 1006              		.loc 1 544 0
 1007 0604 1846     		mov	r0, r3
 1008 0606 05B0     		add	sp, sp, #20
 1009              		@ sp needed
 1010 0608 5DF804FB 		ldr	pc, [sp], #4
 1011              		.cfi_endproc
 1012              	.LFE5:
 1013              		.size	STC3115_Stop, .-STC3115_Stop
 1014              		.align	2
 1015 060c AFF30080 		.p2align 4,,15
 1016              		.thumb
 1017              		.thumb_func
 1018              		.type	STC3115_GetSOC, %function
 1019              	STC3115_GetSOC:
ARM GAS  /tmp/ccAIGiUj.s 			page 19


 1020              	.LFB6:
 1021              		.loc 1 552 0
 1022              		.cfi_startproc
 1023              		@ args = 0, pretend = 0, frame = 8
 1024              		@ frame_needed = 0, uses_anonymous_args = 0
 1025              		@ link register save eliminated.
 1026 0610 82B0     		sub	sp, sp, #8
 1027              		.cfi_def_cfa_offset 8
 1028 0612 0190     		str	r0, [sp, #4]
 1029 0614 0091     		str	r1, [sp]
 1030              		.loc 1 553 0
 1031 0616 019B     		ldr	r3, [sp, #4]
 1032 0618 9B68     		ldr	r3, [r3, #8]
 1033 061a 1B68     		ldr	r3, [r3]
 1034 061c 9B6B     		ldr	r3, [r3, #56]
 1035 061e 0533     		adds	r3, r3, #5
 1036 0620 064A     		ldr	r2, .L56
 1037 0622 82FB0312 		smull	r1, r2, r2, r3
 1038 0626 9210     		asrs	r2, r2, #2
 1039 0628 DB17     		asrs	r3, r3, #31
 1040 062a D31A     		subs	r3, r2, r3
 1041 062c 1A46     		mov	r2, r3
 1042 062e 009B     		ldr	r3, [sp]
 1043 0630 1A60     		str	r2, [r3]
 1044              		.loc 1 554 0
 1045 0632 0023     		movs	r3, #0
 1046              		.loc 1 555 0
 1047 0634 1846     		mov	r0, r3
 1048 0636 02B0     		add	sp, sp, #8
 1049              		@ sp needed
 1050 0638 7047     		bx	lr
 1051              	.L57:
 1052 063a 00BF     		.align	2
 1053              	.L56:
 1054 063c 67666666 		.word	1717986919
 1055              		.cfi_endproc
 1056              	.LFE6:
 1057              		.size	STC3115_GetSOC, .-STC3115_GetSOC
 1058              		.align	2
 1059              		.p2align 4,,15
 1060              		.thumb
 1061              		.thumb_func
 1062              		.type	STC3115_GetOCV, %function
 1063              	STC3115_GetOCV:
 1064              	.LFB7:
 1065              		.loc 1 563 0
 1066              		.cfi_startproc
 1067              		@ args = 0, pretend = 0, frame = 8
 1068              		@ frame_needed = 0, uses_anonymous_args = 0
 1069              		@ link register save eliminated.
 1070 0640 82B0     		sub	sp, sp, #8
 1071              		.cfi_def_cfa_offset 8
 1072 0642 0190     		str	r0, [sp, #4]
 1073 0644 0091     		str	r1, [sp]
 1074              		.loc 1 564 0
 1075 0646 019B     		ldr	r3, [sp, #4]
 1076 0648 9B68     		ldr	r3, [r3, #8]
ARM GAS  /tmp/ccAIGiUj.s 			page 20


 1077 064a 1B68     		ldr	r3, [r3]
 1078 064c DB6C     		ldr	r3, [r3, #76]
 1079 064e 1A46     		mov	r2, r3
 1080 0650 009B     		ldr	r3, [sp]
 1081 0652 1A60     		str	r2, [r3]
 1082              		.loc 1 565 0
 1083 0654 0023     		movs	r3, #0
 1084              		.loc 1 566 0
 1085 0656 1846     		mov	r0, r3
 1086 0658 02B0     		add	sp, sp, #8
 1087              		@ sp needed
 1088 065a 7047     		bx	lr
 1089              		.cfi_endproc
 1090              	.LFE7:
 1091              		.size	STC3115_GetOCV, .-STC3115_GetOCV
 1092              		.align	2
 1093 065c AFF30080 		.p2align 4,,15
 1094              		.thumb
 1095              		.thumb_func
 1096              		.type	STC3115_GetCurrent, %function
 1097              	STC3115_GetCurrent:
 1098              	.LFB8:
 1099              		.loc 1 574 0
 1100              		.cfi_startproc
 1101              		@ args = 0, pretend = 0, frame = 8
 1102              		@ frame_needed = 0, uses_anonymous_args = 0
 1103              		@ link register save eliminated.
 1104 0660 82B0     		sub	sp, sp, #8
 1105              		.cfi_def_cfa_offset 8
 1106 0662 0190     		str	r0, [sp, #4]
 1107 0664 0091     		str	r1, [sp]
 1108              		.loc 1 575 0
 1109 0666 019B     		ldr	r3, [sp, #4]
 1110 0668 9B68     		ldr	r3, [r3, #8]
 1111 066a 1B68     		ldr	r3, [r3]
 1112 066c 1A6C     		ldr	r2, [r3, #64]
 1113 066e 009B     		ldr	r3, [sp]
 1114 0670 1A60     		str	r2, [r3]
 1115              		.loc 1 576 0
 1116 0672 0023     		movs	r3, #0
 1117              		.loc 1 577 0
 1118 0674 1846     		mov	r0, r3
 1119 0676 02B0     		add	sp, sp, #8
 1120              		@ sp needed
 1121 0678 7047     		bx	lr
 1122              		.cfi_endproc
 1123              	.LFE8:
 1124              		.size	STC3115_GetCurrent, .-STC3115_GetCurrent
 1125 067a 00BF     		.align	2
 1126 067c AFF30080 		.p2align 4,,15
 1127              		.thumb
 1128              		.thumb_func
 1129              		.type	STC3115_GetTemperature, %function
 1130              	STC3115_GetTemperature:
 1131              	.LFB9:
 1132              		.loc 1 585 0
 1133              		.cfi_startproc
ARM GAS  /tmp/ccAIGiUj.s 			page 21


 1134              		@ args = 0, pretend = 0, frame = 8
 1135              		@ frame_needed = 0, uses_anonymous_args = 0
 1136              		@ link register save eliminated.
 1137 0680 82B0     		sub	sp, sp, #8
 1138              		.cfi_def_cfa_offset 8
 1139 0682 0190     		str	r0, [sp, #4]
 1140 0684 0091     		str	r1, [sp]
 1141              		.loc 1 586 0
 1142 0686 019B     		ldr	r3, [sp, #4]
 1143 0688 9B68     		ldr	r3, [r3, #8]
 1144 068a 1B68     		ldr	r3, [r3]
 1145 068c 5A6C     		ldr	r2, [r3, #68]
 1146 068e 009B     		ldr	r3, [sp]
 1147 0690 1A60     		str	r2, [r3]
 1148              		.loc 1 587 0
 1149 0692 0023     		movs	r3, #0
 1150              		.loc 1 588 0
 1151 0694 1846     		mov	r0, r3
 1152 0696 02B0     		add	sp, sp, #8
 1153              		@ sp needed
 1154 0698 7047     		bx	lr
 1155              		.cfi_endproc
 1156              	.LFE9:
 1157              		.size	STC3115_GetTemperature, .-STC3115_GetTemperature
 1158 069a 00BF     		.align	2
 1159 069c AFF30080 		.p2align 4,,15
 1160              		.thumb
 1161              		.thumb_func
 1162              		.type	STC3115_GetVoltage, %function
 1163              	STC3115_GetVoltage:
 1164              	.LFB10:
 1165              		.loc 1 596 0
 1166              		.cfi_startproc
 1167              		@ args = 0, pretend = 0, frame = 8
 1168              		@ frame_needed = 0, uses_anonymous_args = 0
 1169              		@ link register save eliminated.
 1170 06a0 82B0     		sub	sp, sp, #8
 1171              		.cfi_def_cfa_offset 8
 1172 06a2 0190     		str	r0, [sp, #4]
 1173 06a4 0091     		str	r1, [sp]
 1174              		.loc 1 597 0
 1175 06a6 019B     		ldr	r3, [sp, #4]
 1176 06a8 9B68     		ldr	r3, [r3, #8]
 1177 06aa 1B68     		ldr	r3, [r3]
 1178 06ac DB6B     		ldr	r3, [r3, #60]
 1179 06ae 1A46     		mov	r2, r3
 1180 06b0 009B     		ldr	r3, [sp]
 1181 06b2 1A60     		str	r2, [r3]
 1182              		.loc 1 598 0
 1183 06b4 0023     		movs	r3, #0
 1184              		.loc 1 599 0
 1185 06b6 1846     		mov	r0, r3
 1186 06b8 02B0     		add	sp, sp, #8
 1187              		@ sp needed
 1188 06ba 7047     		bx	lr
 1189              		.cfi_endproc
 1190              	.LFE10:
ARM GAS  /tmp/ccAIGiUj.s 			page 22


 1191              		.size	STC3115_GetVoltage, .-STC3115_GetVoltage
 1192              		.align	2
 1193 06bc AFF30080 		.p2align 4,,15
 1194              		.thumb
 1195              		.thumb_func
 1196              		.type	STC3115_GetChargeValue, %function
 1197              	STC3115_GetChargeValue:
 1198              	.LFB11:
 1199              		.loc 1 607 0
 1200              		.cfi_startproc
 1201              		@ args = 0, pretend = 0, frame = 8
 1202              		@ frame_needed = 0, uses_anonymous_args = 0
 1203              		@ link register save eliminated.
 1204 06c0 82B0     		sub	sp, sp, #8
 1205              		.cfi_def_cfa_offset 8
 1206 06c2 0190     		str	r0, [sp, #4]
 1207 06c4 0091     		str	r1, [sp]
 1208              		.loc 1 608 0
 1209 06c6 019B     		ldr	r3, [sp, #4]
 1210 06c8 9B68     		ldr	r3, [r3, #8]
 1211 06ca 1B68     		ldr	r3, [r3]
 1212 06cc 5B6D     		ldr	r3, [r3, #84]
 1213 06ce 1A46     		mov	r2, r3
 1214 06d0 009B     		ldr	r3, [sp]
 1215 06d2 1A60     		str	r2, [r3]
 1216              		.loc 1 609 0
 1217 06d4 0023     		movs	r3, #0
 1218              		.loc 1 610 0
 1219 06d6 1846     		mov	r0, r3
 1220 06d8 02B0     		add	sp, sp, #8
 1221              		@ sp needed
 1222 06da 7047     		bx	lr
 1223              		.cfi_endproc
 1224              	.LFE11:
 1225              		.size	STC3115_GetChargeValue, .-STC3115_GetChargeValue
 1226              		.align	2
 1227 06dc AFF30080 		.p2align 4,,15
 1228              		.thumb
 1229              		.thumb_func
 1230              		.type	STC3115_GetPresence, %function
 1231              	STC3115_GetPresence:
 1232              	.LFB12:
 1233              		.loc 1 618 0
 1234              		.cfi_startproc
 1235              		@ args = 0, pretend = 0, frame = 8
 1236              		@ frame_needed = 0, uses_anonymous_args = 0
 1237              		@ link register save eliminated.
 1238 06e0 82B0     		sub	sp, sp, #8
 1239              		.cfi_def_cfa_offset 8
 1240 06e2 0190     		str	r0, [sp, #4]
 1241 06e4 0091     		str	r1, [sp]
 1242              		.loc 1 619 0
 1243 06e6 019B     		ldr	r3, [sp, #4]
 1244 06e8 9B68     		ldr	r3, [r3, #8]
 1245 06ea 1B68     		ldr	r3, [r3]
 1246 06ec 1B6D     		ldr	r3, [r3, #80]
 1247 06ee 1A46     		mov	r2, r3
ARM GAS  /tmp/ccAIGiUj.s 			page 23


 1248 06f0 009B     		ldr	r3, [sp]
 1249 06f2 1A60     		str	r2, [r3]
 1250              		.loc 1 620 0
 1251 06f4 0023     		movs	r3, #0
 1252              		.loc 1 621 0
 1253 06f6 1846     		mov	r0, r3
 1254 06f8 02B0     		add	sp, sp, #8
 1255              		@ sp needed
 1256 06fa 7047     		bx	lr
 1257              		.cfi_endproc
 1258              	.LFE12:
 1259              		.size	STC3115_GetPresence, .-STC3115_GetPresence
 1260              		.align	2
 1261 06fc AFF30080 		.p2align 4,,15
 1262              		.thumb
 1263              		.thumb_func
 1264              		.type	STC3115_GetAlarmStatus, %function
 1265              	STC3115_GetAlarmStatus:
 1266              	.LFB13:
 1267              		.loc 1 629 0
 1268              		.cfi_startproc
 1269              		@ args = 0, pretend = 0, frame = 8
 1270              		@ frame_needed = 0, uses_anonymous_args = 0
 1271              		@ link register save eliminated.
 1272 0700 82B0     		sub	sp, sp, #8
 1273              		.cfi_def_cfa_offset 8
 1274 0702 0190     		str	r0, [sp, #4]
 1275 0704 0091     		str	r1, [sp]
 1276              		.loc 1 630 0
 1277 0706 019B     		ldr	r3, [sp, #4]
 1278 0708 9B68     		ldr	r3, [r3, #8]
 1279 070a 1B68     		ldr	r3, [r3]
 1280 070c 1B6B     		ldr	r3, [r3, #48]
 1281 070e 5B13     		asrs	r3, r3, #13
 1282 0710 03F00302 		and	r2, r3, #3
 1283 0714 009B     		ldr	r3, [sp]
 1284 0716 1A60     		str	r2, [r3]
 1285              		.loc 1 631 0
 1286 0718 0023     		movs	r3, #0
 1287              		.loc 1 632 0
 1288 071a 1846     		mov	r0, r3
 1289 071c 02B0     		add	sp, sp, #8
 1290              		@ sp needed
 1291 071e 7047     		bx	lr
 1292              		.cfi_endproc
 1293              	.LFE13:
 1294              		.size	STC3115_GetAlarmStatus, .-STC3115_GetAlarmStatus
 1295              		.align	2
 1296              		.p2align 4,,15
 1297              		.thumb
 1298              		.thumb_func
 1299              		.type	STC3115_Status, %function
 1300              	STC3115_Status:
 1301              	.LFB14:
 1302              		.loc 1 640 0
 1303              		.cfi_startproc
 1304              		@ args = 0, pretend = 0, frame = 16
ARM GAS  /tmp/ccAIGiUj.s 			page 24


 1305              		@ frame_needed = 0, uses_anonymous_args = 0
 1306 0720 00B5     		push	{lr}
 1307              		.cfi_def_cfa_offset 4
 1308              		.cfi_offset 14, -4
 1309 0722 85B0     		sub	sp, sp, #20
 1310              		.cfi_def_cfa_offset 24
 1311 0724 0190     		str	r0, [sp, #4]
 1312              		.loc 1 645 0
 1313 0726 0DF10B03 		add	r3, sp, #11
 1314 072a 0198     		ldr	r0, [sp, #4]
 1315 072c 1821     		movs	r1, #24
 1316 072e 1A46     		mov	r2, r3
 1317 0730 0123     		movs	r3, #1
 1318 0732 00F025FA 		bl	STC3115_Read
 1319 0736 0346     		mov	r3, r0
 1320 0738 B3F1FF3F 		cmp	r3, #-1
 1321 073c 02D1     		bne	.L73
 1322              		.loc 1 646 0
 1323 073e 4FF0FF33 		mov	r3, #-1
 1324 0742 12E0     		b	.L76
 1325              	.L73:
 1326              		.loc 1 647 0
 1327 0744 9DF80B30 		ldrb	r3, [sp, #11]	@ zero_extendqisi2
 1328 0748 142B     		cmp	r3, #20
 1329 074a 02D0     		beq	.L75
 1330              		.loc 1 648 0
 1331 074c 4FF0FF33 		mov	r3, #-1
 1332 0750 0BE0     		b	.L76
 1333              	.L75:
 1334              		.loc 1 651 0
 1335 0752 03AB     		add	r3, sp, #12
 1336 0754 0198     		ldr	r0, [sp, #4]
 1337 0756 0021     		movs	r1, #0
 1338 0758 1A46     		mov	r2, r3
 1339 075a 00F051FA 		bl	STC3115_ReadWord
 1340              		.loc 1 652 0
 1341 075e 039A     		ldr	r2, [sp, #12]
 1342 0760 47F67F73 		movw	r3, #32639
 1343 0764 1340     		ands	r3, r3, r2
 1344 0766 0393     		str	r3, [sp, #12]
 1345              		.loc 1 654 0
 1346 0768 039B     		ldr	r3, [sp, #12]
 1347              	.L76:
 1348              		.loc 1 655 0
 1349 076a 1846     		mov	r0, r3
 1350 076c 05B0     		add	sp, sp, #20
 1351              		@ sp needed
 1352 076e 5DF804FB 		ldr	pc, [sp], #4
 1353              		.cfi_endproc
 1354              	.LFE14:
 1355              		.size	STC3115_Status, .-STC3115_Status
 1356 0772 00BF     		.align	2
 1357 0774 AFF30080 		.p2align 4,,15
 1357      AFF30080 
 1357      AFF30080 
 1358              		.thumb
 1359              		.thumb_func
ARM GAS  /tmp/ccAIGiUj.s 			page 25


 1360              		.type	STC3115_CalcRamCRC8, %function
 1361              	STC3115_CalcRamCRC8:
 1362              	.LFB15:
 1363              		.loc 1 664 0
 1364              		.cfi_startproc
 1365              		@ args = 0, pretend = 0, frame = 24
 1366              		@ frame_needed = 0, uses_anonymous_args = 0
 1367              		@ link register save eliminated.
 1368 0780 86B0     		sub	sp, sp, #24
 1369              		.cfi_def_cfa_offset 24
 1370 0782 0190     		str	r0, [sp, #4]
 1371 0784 0091     		str	r1, [sp]
 1372              		.loc 1 665 0
 1373 0786 0023     		movs	r3, #0
 1374 0788 0593     		str	r3, [sp, #20]
 1375              		.loc 1 668 0
 1376 078a 0023     		movs	r3, #0
 1377 078c 0493     		str	r3, [sp, #16]
 1378 078e 1EE0     		b	.L78
 1379              	.L82:
 1380              		.loc 1 670 0
 1381 0790 049B     		ldr	r3, [sp, #16]
 1382 0792 019A     		ldr	r2, [sp, #4]
 1383 0794 1344     		add	r3, r3, r2
 1384 0796 1B78     		ldrb	r3, [r3]	@ zero_extendqisi2
 1385 0798 059A     		ldr	r2, [sp, #20]
 1386 079a 5340     		eors	r3, r3, r2
 1387 079c 0593     		str	r3, [sp, #20]
 1388              		.loc 1 671 0
 1389 079e 0023     		movs	r3, #0
 1390 07a0 0393     		str	r3, [sp, #12]
 1391 07a2 0EE0     		b	.L79
 1392              	.L81:
 1393              		.loc 1 673 0
 1394 07a4 059B     		ldr	r3, [sp, #20]
 1395 07a6 5B00     		lsls	r3, r3, #1
 1396 07a8 0593     		str	r3, [sp, #20]
 1397              		.loc 1 674 0
 1398 07aa 059B     		ldr	r3, [sp, #20]
 1399 07ac 03F48073 		and	r3, r3, #256
 1400 07b0 002B     		cmp	r3, #0
 1401 07b2 03D0     		beq	.L80
 1402              		.loc 1 674 0 is_stmt 0 discriminator 1
 1403 07b4 059B     		ldr	r3, [sp, #20]
 1404 07b6 83F00703 		eor	r3, r3, #7
 1405 07ba 0593     		str	r3, [sp, #20]
 1406              	.L80:
 1407              		.loc 1 671 0 is_stmt 1
 1408 07bc 039B     		ldr	r3, [sp, #12]
 1409 07be 0133     		adds	r3, r3, #1
 1410 07c0 0393     		str	r3, [sp, #12]
 1411              	.L79:
 1412              		.loc 1 671 0 is_stmt 0 discriminator 1
 1413 07c2 039B     		ldr	r3, [sp, #12]
 1414 07c4 072B     		cmp	r3, #7
 1415 07c6 EDDD     		ble	.L81
 1416              		.loc 1 668 0 is_stmt 1
ARM GAS  /tmp/ccAIGiUj.s 			page 26


 1417 07c8 049B     		ldr	r3, [sp, #16]
 1418 07ca 0133     		adds	r3, r3, #1
 1419 07cc 0493     		str	r3, [sp, #16]
 1420              	.L78:
 1421              		.loc 1 668 0 is_stmt 0 discriminator 1
 1422 07ce 049A     		ldr	r2, [sp, #16]
 1423 07d0 009B     		ldr	r3, [sp]
 1424 07d2 9A42     		cmp	r2, r3
 1425 07d4 DCDB     		blt	.L82
 1426              		.loc 1 677 0 is_stmt 1
 1427 07d6 059B     		ldr	r3, [sp, #20]
 1428 07d8 DBB2     		uxtb	r3, r3
 1429              		.loc 1 678 0
 1430 07da 1846     		mov	r0, r3
 1431 07dc 06B0     		add	sp, sp, #24
 1432              		@ sp needed
 1433 07de 7047     		bx	lr
 1434              		.cfi_endproc
 1435              	.LFE15:
 1436              		.size	STC3115_CalcRamCRC8, .-STC3115_CalcRamCRC8
 1437              		.align	2
 1438              		.p2align 4,,15
 1439              		.thumb
 1440              		.thumb_func
 1441              		.type	STC3115_UpdateRamCRC, %function
 1442              	STC3115_UpdateRamCRC:
 1443              	.LFB16:
 1444              		.loc 1 687 0
 1445              		.cfi_startproc
 1446              		@ args = 0, pretend = 0, frame = 16
 1447              		@ frame_needed = 0, uses_anonymous_args = 0
 1448 07e0 00B5     		push	{lr}
 1449              		.cfi_def_cfa_offset 4
 1450              		.cfi_offset 14, -4
 1451 07e2 85B0     		sub	sp, sp, #20
 1452              		.cfi_def_cfa_offset 24
 1453 07e4 0190     		str	r0, [sp, #4]
 1454              		.loc 1 689 0
 1455 07e6 019B     		ldr	r3, [sp, #4]
 1456 07e8 9B68     		ldr	r3, [r3, #8]
 1457 07ea 1B68     		ldr	r3, [r3]
 1458 07ec 5C33     		adds	r3, r3, #92
 1459 07ee 0393     		str	r3, [sp, #12]
 1460              		.loc 1 691 0
 1461 07f0 039B     		ldr	r3, [sp, #12]
 1462 07f2 1846     		mov	r0, r3
 1463 07f4 0F21     		movs	r1, #15
 1464 07f6 FFF7C3FF 		bl	STC3115_CalcRamCRC8
 1465 07fa 0290     		str	r0, [sp, #8]
 1466              		.loc 1 692 0
 1467 07fc 029B     		ldr	r3, [sp, #8]
 1468 07fe DAB2     		uxtb	r2, r3
 1469 0800 039B     		ldr	r3, [sp, #12]
 1470 0802 DA73     		strb	r2, [r3, #15]
 1471              		.loc 1 693 0
 1472 0804 029B     		ldr	r3, [sp, #8]
 1473              		.loc 1 694 0
ARM GAS  /tmp/ccAIGiUj.s 			page 27


 1474 0806 1846     		mov	r0, r3
 1475 0808 05B0     		add	sp, sp, #20
 1476              		@ sp needed
 1477 080a 5DF804FB 		ldr	pc, [sp], #4
 1478              		.cfi_endproc
 1479              	.LFE16:
 1480              		.size	STC3115_UpdateRamCRC, .-STC3115_UpdateRamCRC
 1481 080e 00BF     		.align	2
 1482              		.p2align 4,,15
 1483              		.thumb
 1484              		.thumb_func
 1485              		.type	STC3115_InitRamData, %function
 1486              	STC3115_InitRamData:
 1487              	.LFB17:
 1488              		.loc 1 703 0
 1489              		.cfi_startproc
 1490              		@ args = 0, pretend = 0, frame = 16
 1491              		@ frame_needed = 0, uses_anonymous_args = 0
 1492 0810 00B5     		push	{lr}
 1493              		.cfi_def_cfa_offset 4
 1494              		.cfi_offset 14, -4
 1495 0812 85B0     		sub	sp, sp, #20
 1496              		.cfi_def_cfa_offset 24
 1497 0814 0190     		str	r0, [sp, #4]
 1498 0816 0091     		str	r1, [sp]
 1499              		.loc 1 705 0
 1500 0818 019B     		ldr	r3, [sp, #4]
 1501 081a 9B68     		ldr	r3, [r3, #8]
 1502 081c 1B68     		ldr	r3, [r3]
 1503 081e 5C33     		adds	r3, r3, #92
 1504 0820 0293     		str	r3, [sp, #8]
 1505              		.loc 1 708 0
 1506 0822 0023     		movs	r3, #0
 1507 0824 0393     		str	r3, [sp, #12]
 1508 0826 07E0     		b	.L87
 1509              	.L88:
 1510              		.loc 1 710 0 discriminator 2
 1511 0828 029A     		ldr	r2, [sp, #8]
 1512 082a 039B     		ldr	r3, [sp, #12]
 1513 082c 1344     		add	r3, r3, r2
 1514 082e 0022     		movs	r2, #0
 1515 0830 1A70     		strb	r2, [r3]
 1516              		.loc 1 708 0 discriminator 2
 1517 0832 039B     		ldr	r3, [sp, #12]
 1518 0834 0133     		adds	r3, r3, #1
 1519 0836 0393     		str	r3, [sp, #12]
 1520              	.L87:
 1521              		.loc 1 708 0 is_stmt 0 discriminator 1
 1522 0838 039B     		ldr	r3, [sp, #12]
 1523 083a 0F2B     		cmp	r3, #15
 1524 083c F4DD     		ble	.L88
 1525              		.loc 1 713 0 is_stmt 1
 1526 083e 029B     		ldr	r3, [sp, #8]
 1527 0840 45F2A932 		movw	r2, #21417
 1528 0844 1A80     		strh	r2, [r3]	@ movhi
 1529              		.loc 1 714 0
 1530 0846 009B     		ldr	r3, [sp]
ARM GAS  /tmp/ccAIGiUj.s 			page 28


 1531 0848 DB68     		ldr	r3, [r3, #12]
 1532 084a 9AB2     		uxth	r2, r3
 1533 084c 029B     		ldr	r3, [sp, #8]
 1534 084e 9A80     		strh	r2, [r3, #4]	@ movhi
 1535              		.loc 1 715 0
 1536 0850 009B     		ldr	r3, [sp]
 1537 0852 1B69     		ldr	r3, [r3, #16]
 1538 0854 9AB2     		uxth	r2, r3
 1539 0856 029B     		ldr	r3, [sp, #8]
 1540 0858 DA80     		strh	r2, [r3, #6]	@ movhi
 1541              		.loc 1 717 0
 1542 085a 0198     		ldr	r0, [sp, #4]
 1543 085c FFF7C0FF 		bl	STC3115_UpdateRamCRC
 1544              		.loc 1 718 0
 1545 0860 05B0     		add	sp, sp, #20
 1546              		@ sp needed
 1547 0862 5DF804FB 		ldr	pc, [sp], #4
 1548              		.cfi_endproc
 1549              	.LFE17:
 1550              		.size	STC3115_InitRamData, .-STC3115_InitRamData
 1551 0866 00BF     		.align	2
 1552 0868 AFF30080 		.p2align 4,,15
 1552      AFF30080 
 1553              		.thumb
 1554              		.thumb_func
 1555              		.type	STC3115_WriteRamData, %function
 1556              	STC3115_WriteRamData:
 1557              	.LFB18:
 1558              		.loc 1 727 0
 1559              		.cfi_startproc
 1560              		@ args = 0, pretend = 0, frame = 8
 1561              		@ frame_needed = 0, uses_anonymous_args = 0
 1562 0870 00B5     		push	{lr}
 1563              		.cfi_def_cfa_offset 4
 1564              		.cfi_offset 14, -4
 1565 0872 83B0     		sub	sp, sp, #12
 1566              		.cfi_def_cfa_offset 16
 1567 0874 0190     		str	r0, [sp, #4]
 1568 0876 0091     		str	r1, [sp]
 1569              		.loc 1 728 0
 1570 0878 0198     		ldr	r0, [sp, #4]
 1571 087a 2021     		movs	r1, #32
 1572 087c 009A     		ldr	r2, [sp]
 1573 087e 1023     		movs	r3, #16
 1574 0880 FFF7FEFF 		bl	Sensor_IO_Write
 1575 0884 0346     		mov	r3, r0
 1576 0886 002B     		cmp	r3, #0
 1577 0888 02D0     		beq	.L90
 1578              		.loc 1 730 0
 1579 088a 4FF0FF33 		mov	r3, #-1
 1580 088e 00E0     		b	.L91
 1581              	.L90:
 1582              		.loc 1 734 0
 1583 0890 0023     		movs	r3, #0
 1584              	.L91:
 1585              		.loc 1 736 0
 1586 0892 1846     		mov	r0, r3
ARM GAS  /tmp/ccAIGiUj.s 			page 29


 1587 0894 03B0     		add	sp, sp, #12
 1588              		@ sp needed
 1589 0896 5DF804FB 		ldr	pc, [sp], #4
 1590              		.cfi_endproc
 1591              	.LFE18:
 1592              		.size	STC3115_WriteRamData, .-STC3115_WriteRamData
 1593 089a 00BF     		.align	2
 1594 089c AFF30080 		.p2align 4,,15
 1595              		.thumb
 1596              		.thumb_func
 1597              		.type	STC3115_ReadRamData, %function
 1598              	STC3115_ReadRamData:
 1599              	.LFB19:
 1600              		.loc 1 745 0
 1601              		.cfi_startproc
 1602              		@ args = 0, pretend = 0, frame = 8
 1603              		@ frame_needed = 0, uses_anonymous_args = 0
 1604 08a0 00B5     		push	{lr}
 1605              		.cfi_def_cfa_offset 4
 1606              		.cfi_offset 14, -4
 1607 08a2 83B0     		sub	sp, sp, #12
 1608              		.cfi_def_cfa_offset 16
 1609 08a4 0190     		str	r0, [sp, #4]
 1610 08a6 0091     		str	r1, [sp]
 1611              		.loc 1 746 0
 1612 08a8 0198     		ldr	r0, [sp, #4]
 1613 08aa 2021     		movs	r1, #32
 1614 08ac 009A     		ldr	r2, [sp]
 1615 08ae 1023     		movs	r3, #16
 1616 08b0 FFF7FEFF 		bl	Sensor_IO_Read
 1617 08b4 0346     		mov	r3, r0
 1618 08b6 002B     		cmp	r3, #0
 1619 08b8 02D0     		beq	.L93
 1620              		.loc 1 748 0
 1621 08ba 4FF0FF33 		mov	r3, #-1
 1622 08be 00E0     		b	.L94
 1623              	.L93:
 1624              		.loc 1 752 0
 1625 08c0 0023     		movs	r3, #0
 1626              	.L94:
 1627              		.loc 1 754 0
 1628 08c2 1846     		mov	r0, r3
 1629 08c4 03B0     		add	sp, sp, #12
 1630              		@ sp needed
 1631 08c6 5DF804FB 		ldr	pc, [sp], #4
 1632              		.cfi_endproc
 1633              	.LFE19:
 1634              		.size	STC3115_ReadRamData, .-STC3115_ReadRamData
 1635 08ca 00BF     		.align	2
 1636 08cc AFF30080 		.p2align 4,,15
 1637              		.thumb
 1638              		.thumb_func
 1639              		.type	STC3115_ReadBatteryData, %function
 1640              	STC3115_ReadBatteryData:
 1641              	.LFB20:
 1642              		.loc 1 762 0
 1643              		.cfi_startproc
ARM GAS  /tmp/ccAIGiUj.s 			page 30


 1644              		@ args = 0, pretend = 0, frame = 32
 1645              		@ frame_needed = 0, uses_anonymous_args = 0
 1646 08d0 00B5     		push	{lr}
 1647              		.cfi_def_cfa_offset 4
 1648              		.cfi_offset 14, -4
 1649 08d2 89B0     		sub	sp, sp, #36
 1650              		.cfi_def_cfa_offset 40
 1651 08d4 0190     		str	r0, [sp, #4]
 1652 08d6 0091     		str	r1, [sp]
 1653              		.loc 1 769 0
 1654 08d8 02AB     		add	r3, sp, #8
 1655 08da 0198     		ldr	r0, [sp, #4]
 1656 08dc 0021     		movs	r1, #0
 1657 08de 1A46     		mov	r2, r3
 1658 08e0 0F23     		movs	r3, #15
 1659 08e2 00F04DF9 		bl	STC3115_Read
 1660 08e6 0690     		str	r0, [sp, #24]
 1661              		.loc 1 771 0
 1662 08e8 069B     		ldr	r3, [sp, #24]
 1663 08ea 002B     		cmp	r3, #0
 1664 08ec 01DA     		bge	.L96
 1665              		.loc 1 771 0 is_stmt 0 discriminator 1
 1666 08ee 069B     		ldr	r3, [sp, #24]
 1667 08f0 A2E0     		b	.L104
 1668              	.L96:
 1669              		.loc 1 775 0 is_stmt 1
 1670 08f2 9DF80B30 		ldrb	r3, [sp, #11]	@ zero_extendqisi2
 1671 08f6 0793     		str	r3, [sp, #28]
 1672              		.loc 1 776 0
 1673 08f8 079B     		ldr	r3, [sp, #28]
 1674 08fa 1A02     		lsls	r2, r3, #8
 1675 08fc 9DF80A30 		ldrb	r3, [sp, #10]	@ zero_extendqisi2
 1676 0900 1344     		add	r3, r3, r2
 1677 0902 0793     		str	r3, [sp, #28]
 1678              		.loc 1 777 0
 1679 0904 009B     		ldr	r3, [sp]
 1680 0906 079A     		ldr	r2, [sp, #28]
 1681 0908 5A60     		str	r2, [r3, #4]
 1682              		.loc 1 778 0
 1683 090a 079A     		ldr	r2, [sp, #28]
 1684 090c 1346     		mov	r3, r2
 1685 090e 9B00     		lsls	r3, r3, #2
 1686 0910 1344     		add	r3, r3, r2
 1687 0912 5B00     		lsls	r3, r3, #1
 1688 0914 03F58073 		add	r3, r3, #256
 1689 0918 002B     		cmp	r3, #0
 1690 091a 01DA     		bge	.L98
 1691 091c 03F2FF13 		addw	r3, r3, #511
 1692              	.L98:
 1693 0920 5B12     		asrs	r3, r3, #9
 1694 0922 1A46     		mov	r2, r3
 1695 0924 009B     		ldr	r3, [sp]
 1696 0926 9A60     		str	r2, [r3, #8]
 1697              		.loc 1 781 0
 1698 0928 9DF80D30 		ldrb	r3, [sp, #13]	@ zero_extendqisi2
 1699 092c 0793     		str	r3, [sp, #28]
 1700              		.loc 1 782 0
ARM GAS  /tmp/ccAIGiUj.s 			page 31


 1701 092e 079B     		ldr	r3, [sp, #28]
 1702 0930 1A02     		lsls	r2, r3, #8
 1703 0932 9DF80C30 		ldrb	r3, [sp, #12]	@ zero_extendqisi2
 1704 0936 1344     		add	r3, r3, r2
 1705 0938 0793     		str	r3, [sp, #28]
 1706              		.loc 1 783 0
 1707 093a 009B     		ldr	r3, [sp]
 1708 093c 079A     		ldr	r2, [sp, #28]
 1709 093e 9A61     		str	r2, [r3, #24]
 1710              		.loc 1 786 0
 1711 0940 9DF80F30 		ldrb	r3, [sp, #15]	@ zero_extendqisi2
 1712 0944 0793     		str	r3, [sp, #28]
 1713              		.loc 1 787 0
 1714 0946 079B     		ldr	r3, [sp, #28]
 1715 0948 1A02     		lsls	r2, r3, #8
 1716 094a 9DF80E30 		ldrb	r3, [sp, #14]	@ zero_extendqisi2
 1717 094e 1344     		add	r3, r3, r2
 1718 0950 0793     		str	r3, [sp, #28]
 1719              		.loc 1 788 0
 1720 0952 079B     		ldr	r3, [sp, #28]
 1721 0954 C3F30D03 		ubfx	r3, r3, #0, #14
 1722 0958 0793     		str	r3, [sp, #28]
 1723              		.loc 1 789 0
 1724 095a 079B     		ldr	r3, [sp, #28]
 1725 095c B3F5005F 		cmp	r3, #8192
 1726 0960 03DB     		blt	.L99
 1727              		.loc 1 789 0 is_stmt 0 discriminator 1
 1728 0962 079B     		ldr	r3, [sp, #28]
 1729 0964 A3F58043 		sub	r3, r3, #16384
 1730 0968 0793     		str	r3, [sp, #28]
 1731              	.L99:
 1732              		.loc 1 790 0 is_stmt 1
 1733 096a 079B     		ldr	r3, [sp, #28]
 1734 096c 9BB2     		uxth	r3, r3
 1735 096e 1BB2     		sxth	r3, r3
 1736 0970 1846     		mov	r0, r3
 1737 0972 40F2E111 		movw	r1, #481
 1738 0976 00F0BBF8 		bl	STC3115_conv
 1739 097a 0246     		mov	r2, r0
 1740 097c 009B     		ldr	r3, [sp]
 1741 097e 1A61     		str	r2, [r3, #16]
 1742              		.loc 1 793 0
 1743 0980 9DF81130 		ldrb	r3, [sp, #17]	@ zero_extendqisi2
 1744 0984 0793     		str	r3, [sp, #28]
 1745              		.loc 1 794 0
 1746 0986 079B     		ldr	r3, [sp, #28]
 1747 0988 1A02     		lsls	r2, r3, #8
 1748 098a 9DF81030 		ldrb	r3, [sp, #16]	@ zero_extendqisi2
 1749 098e 1344     		add	r3, r3, r2
 1750 0990 0793     		str	r3, [sp, #28]
 1751              		.loc 1 795 0
 1752 0992 079B     		ldr	r3, [sp, #28]
 1753 0994 C3F30B03 		ubfx	r3, r3, #0, #12
 1754 0998 0793     		str	r3, [sp, #28]
 1755              		.loc 1 796 0
 1756 099a 079B     		ldr	r3, [sp, #28]
 1757 099c B3F5006F 		cmp	r3, #2048
ARM GAS  /tmp/ccAIGiUj.s 			page 32


 1758 09a0 03DB     		blt	.L100
 1759              		.loc 1 796 0 is_stmt 0 discriminator 1
 1760 09a2 079B     		ldr	r3, [sp, #28]
 1761 09a4 A3F58053 		sub	r3, r3, #4096
 1762 09a8 0793     		str	r3, [sp, #28]
 1763              	.L100:
 1764              		.loc 1 797 0 is_stmt 1
 1765 09aa 079B     		ldr	r3, [sp, #28]
 1766 09ac 9BB2     		uxth	r3, r3
 1767 09ae 1BB2     		sxth	r3, r3
 1768 09b0 1846     		mov	r0, r3
 1769 09b2 42F23331 		movw	r1, #9011
 1770 09b6 00F09BF8 		bl	STC3115_conv
 1771 09ba 0790     		str	r0, [sp, #28]
 1772              		.loc 1 798 0
 1773 09bc 009B     		ldr	r3, [sp]
 1774 09be 079A     		ldr	r2, [sp, #28]
 1775 09c0 DA60     		str	r2, [r3, #12]
 1776              		.loc 1 801 0
 1777 09c2 9DF81230 		ldrb	r3, [sp, #18]	@ zero_extendqisi2
 1778 09c6 0793     		str	r3, [sp, #28]
 1779              		.loc 1 802 0
 1780 09c8 079B     		ldr	r3, [sp, #28]
 1781 09ca 7F2B     		cmp	r3, #127
 1782 09cc 03DD     		ble	.L101
 1783              		.loc 1 802 0 is_stmt 0 discriminator 1
 1784 09ce 079B     		ldr	r3, [sp, #28]
 1785 09d0 A3F58073 		sub	r3, r3, #256
 1786 09d4 0793     		str	r3, [sp, #28]
 1787              	.L101:
 1788              		.loc 1 803 0 is_stmt 1
 1789 09d6 079A     		ldr	r2, [sp, #28]
 1790 09d8 1346     		mov	r3, r2
 1791 09da 9B00     		lsls	r3, r3, #2
 1792 09dc 1344     		add	r3, r3, r2
 1793 09de 5B00     		lsls	r3, r3, #1
 1794 09e0 1A46     		mov	r2, r3
 1795 09e2 009B     		ldr	r3, [sp]
 1796 09e4 5A61     		str	r2, [r3, #20]
 1797              		.loc 1 806 0
 1798 09e6 9DF81630 		ldrb	r3, [sp, #22]	@ zero_extendqisi2
 1799 09ea 0793     		str	r3, [sp, #28]
 1800              		.loc 1 807 0
 1801 09ec 079B     		ldr	r3, [sp, #28]
 1802 09ee 1A02     		lsls	r2, r3, #8
 1803 09f0 9DF81530 		ldrb	r3, [sp, #21]	@ zero_extendqisi2
 1804 09f4 1344     		add	r3, r3, r2
 1805 09f6 0793     		str	r3, [sp, #28]
 1806              		.loc 1 808 0
 1807 09f8 079B     		ldr	r3, [sp, #28]
 1808 09fa C3F30D03 		ubfx	r3, r3, #0, #14
 1809 09fe 0793     		str	r3, [sp, #28]
 1810              		.loc 1 809 0
 1811 0a00 079B     		ldr	r3, [sp, #28]
 1812 0a02 B3F5005F 		cmp	r3, #8192
 1813 0a06 03DB     		blt	.L102
 1814              		.loc 1 809 0 is_stmt 0 discriminator 1
ARM GAS  /tmp/ccAIGiUj.s 			page 33


 1815 0a08 079B     		ldr	r3, [sp, #28]
 1816 0a0a A3F58043 		sub	r3, r3, #16384
 1817 0a0e 0793     		str	r3, [sp, #28]
 1818              	.L102:
 1819              		.loc 1 810 0 is_stmt 1
 1820 0a10 079B     		ldr	r3, [sp, #28]
 1821 0a12 9BB2     		uxth	r3, r3
 1822 0a14 1BB2     		sxth	r3, r3
 1823 0a16 1846     		mov	r0, r3
 1824 0a18 42F23331 		movw	r1, #9011
 1825 0a1c 00F068F8 		bl	STC3115_conv
 1826 0a20 0790     		str	r0, [sp, #28]
 1827              		.loc 1 811 0
 1828 0a22 079B     		ldr	r3, [sp, #28]
 1829 0a24 0233     		adds	r3, r3, #2
 1830 0a26 002B     		cmp	r3, #0
 1831 0a28 00DA     		bge	.L103
 1832 0a2a 0333     		adds	r3, r3, #3
 1833              	.L103:
 1834 0a2c 9B10     		asrs	r3, r3, #2
 1835 0a2e 0793     		str	r3, [sp, #28]
 1836              		.loc 1 812 0
 1837 0a30 009B     		ldr	r3, [sp]
 1838 0a32 079A     		ldr	r2, [sp, #28]
 1839 0a34 DA61     		str	r2, [r3, #28]
 1840              		.loc 1 814 0
 1841 0a36 0023     		movs	r3, #0
 1842              	.L104:
 1843              		.loc 1 815 0
 1844 0a38 1846     		mov	r0, r3
 1845 0a3a 09B0     		add	sp, sp, #36
 1846              		@ sp needed
 1847 0a3c 5DF804FB 		ldr	pc, [sp], #4
 1848              		.cfi_endproc
 1849              	.LFE20:
 1850              		.size	STC3115_ReadBatteryData, .-STC3115_ReadBatteryData
 1851              		.align	2
 1852              		.p2align 4,,15
 1853              		.thumb
 1854              		.thumb_func
 1855              		.type	STC3115_Restore, %function
 1856              	STC3115_Restore:
 1857              	.LFB21:
 1858              		.loc 1 823 0
 1859              		.cfi_startproc
 1860              		@ args = 0, pretend = 0, frame = 16
 1861              		@ frame_needed = 0, uses_anonymous_args = 0
 1862 0a40 00B5     		push	{lr}
 1863              		.cfi_def_cfa_offset 4
 1864              		.cfi_offset 14, -4
 1865 0a42 85B0     		sub	sp, sp, #20
 1866              		.cfi_def_cfa_offset 24
 1867 0a44 0190     		str	r0, [sp, #4]
 1868 0a46 0091     		str	r1, [sp]
 1869              		.loc 1 825 0
 1870 0a48 019B     		ldr	r3, [sp, #4]
 1871 0a4a 9B68     		ldr	r3, [r3, #8]
ARM GAS  /tmp/ccAIGiUj.s 			page 34


 1872 0a4c 1B68     		ldr	r3, [r3]
 1873 0a4e 5C33     		adds	r3, r3, #92
 1874 0a50 0293     		str	r3, [sp, #8]
 1875              		.loc 1 828 0
 1876 0a52 0198     		ldr	r0, [sp, #4]
 1877 0a54 FFF764FE 		bl	STC3115_Status
 1878 0a58 0390     		str	r0, [sp, #12]
 1879              		.loc 1 829 0
 1880 0a5a 039B     		ldr	r3, [sp, #12]
 1881 0a5c 002B     		cmp	r3, #0
 1882 0a5e 01DA     		bge	.L106
 1883              		.loc 1 829 0 is_stmt 0 discriminator 1
 1884 0a60 039B     		ldr	r3, [sp, #12]
 1885 0a62 17E0     		b	.L107
 1886              	.L106:
 1887              		.loc 1 831 0 is_stmt 1
 1888 0a64 0198     		ldr	r0, [sp, #4]
 1889 0a66 0099     		ldr	r1, [sp]
 1890 0a68 00F012F9 		bl	STC3115_SetParam
 1891              		.loc 1 834 0
 1892 0a6c 0023     		movs	r3, #0
 1893 0a6e 0393     		str	r3, [sp, #12]
 1894              		.loc 1 836 0
 1895 0a70 029B     		ldr	r3, [sp, #8]
 1896 0a72 5B7A     		ldrb	r3, [r3, #9]	@ zero_extendqisi2
 1897 0a74 522B     		cmp	r3, #82
 1898 0a76 0CD1     		bne	.L108
 1899              		.loc 1 838 0
 1900 0a78 029B     		ldr	r3, [sp, #8]
 1901 0a7a 5B88     		ldrh	r3, [r3, #2]
 1902 0a7c 002B     		cmp	r3, #0
 1903 0a7e 08D0     		beq	.L108
 1904              		.loc 1 840 0
 1905 0a80 029B     		ldr	r3, [sp, #8]
 1906 0a82 5B88     		ldrh	r3, [r3, #2]
 1907 0a84 1BB2     		sxth	r3, r3
 1908 0a86 0198     		ldr	r0, [sp, #4]
 1909 0a88 0221     		movs	r1, #2
 1910 0a8a 1A46     		mov	r2, r3
 1911 0a8c 00F0E0F8 		bl	STC3115_WriteWord
 1912 0a90 0390     		str	r0, [sp, #12]
 1913              	.L108:
 1914              		.loc 1 843 0
 1915 0a92 039B     		ldr	r3, [sp, #12]
 1916              	.L107:
 1917              		.loc 1 844 0
 1918 0a94 1846     		mov	r0, r3
 1919 0a96 05B0     		add	sp, sp, #20
 1920              		@ sp needed
 1921 0a98 5DF804FB 		ldr	pc, [sp], #4
 1922              		.cfi_endproc
 1923              	.LFE21:
 1924              		.size	STC3115_Restore, .-STC3115_Restore
 1925              		.align	2
 1926 0a9c AFF30080 		.p2align 4,,15
 1927              		.thumb
 1928              		.thumb_func
ARM GAS  /tmp/ccAIGiUj.s 			page 35


 1929              		.type	STC3115_Powerdown, %function
 1930              	STC3115_Powerdown:
 1931              	.LFB22:
 1932              		.loc 1 852 0
 1933              		.cfi_startproc
 1934              		@ args = 0, pretend = 0, frame = 16
 1935              		@ frame_needed = 0, uses_anonymous_args = 0
 1936 0aa0 00B5     		push	{lr}
 1937              		.cfi_def_cfa_offset 4
 1938              		.cfi_offset 14, -4
 1939 0aa2 85B0     		sub	sp, sp, #20
 1940              		.cfi_def_cfa_offset 24
 1941 0aa4 0190     		str	r0, [sp, #4]
 1942              		.loc 1 857 0
 1943 0aa6 0123     		movs	r3, #1
 1944 0aa8 8DF80B30 		strb	r3, [sp, #11]
 1945              		.loc 1 858 0
 1946 0aac 0DF10B03 		add	r3, sp, #11
 1947 0ab0 0198     		ldr	r0, [sp, #4]
 1948 0ab2 0121     		movs	r1, #1
 1949 0ab4 1A46     		mov	r2, r3
 1950 0ab6 0123     		movs	r3, #1
 1951 0ab8 00F082F8 		bl	STC3115_Write
 1952              		.loc 1 861 0
 1953 0abc 0023     		movs	r3, #0
 1954 0abe 8DF80B30 		strb	r3, [sp, #11]
 1955              		.loc 1 862 0
 1956 0ac2 0DF10B03 		add	r3, sp, #11
 1957 0ac6 0198     		ldr	r0, [sp, #4]
 1958 0ac8 0021     		movs	r1, #0
 1959 0aca 1A46     		mov	r2, r3
 1960 0acc 0123     		movs	r3, #1
 1961 0ace 00F077F8 		bl	STC3115_Write
 1962 0ad2 0390     		str	r0, [sp, #12]
 1963              		.loc 1 863 0
 1964 0ad4 039B     		ldr	r3, [sp, #12]
 1965 0ad6 002B     		cmp	r3, #0
 1966 0ad8 01D0     		beq	.L110
 1967              		.loc 1 863 0 is_stmt 0 discriminator 1
 1968 0ada 039B     		ldr	r3, [sp, #12]
 1969 0adc 00E0     		b	.L112
 1970              	.L110:
 1971              		.loc 1 865 0 is_stmt 1
 1972 0ade 0023     		movs	r3, #0
 1973              	.L112:
 1974              		.loc 1 866 0
 1975 0ae0 1846     		mov	r0, r3
 1976 0ae2 05B0     		add	sp, sp, #20
 1977              		@ sp needed
 1978 0ae4 5DF804FB 		ldr	pc, [sp], #4
 1979              		.cfi_endproc
 1980              	.LFE22:
 1981              		.size	STC3115_Powerdown, .-STC3115_Powerdown
 1982              		.align	2
 1983 0ae8 AFF30080 		.p2align 4,,15
 1983      AFF30080 
 1984              		.thumb
ARM GAS  /tmp/ccAIGiUj.s 			page 36


 1985              		.thumb_func
 1986              		.type	STC3115_conv, %function
 1987              	STC3115_conv:
 1988              	.LFB23:
 1989              		.loc 1 875 0
 1990              		.cfi_startproc
 1991              		@ args = 0, pretend = 0, frame = 16
 1992              		@ frame_needed = 0, uses_anonymous_args = 0
 1993              		@ link register save eliminated.
 1994 0af0 84B0     		sub	sp, sp, #16
 1995              		.cfi_def_cfa_offset 16
 1996 0af2 0246     		mov	r2, r0
 1997 0af4 0B46     		mov	r3, r1
 1998 0af6 ADF80620 		strh	r2, [sp, #6]	@ movhi
 1999 0afa ADF80430 		strh	r3, [sp, #4]	@ movhi
 2000              		.loc 1 878 0
 2001 0afe BDF90630 		ldrsh	r3, [sp, #6]
 2002 0b02 BDF80420 		ldrh	r2, [sp, #4]
 2003 0b06 02FB03F3 		mul	r3, r2, r3
 2004 0b0a DB12     		asrs	r3, r3, #11
 2005 0b0c 0393     		str	r3, [sp, #12]
 2006              		.loc 1 879 0
 2007 0b0e 039B     		ldr	r3, [sp, #12]
 2008 0b10 0133     		adds	r3, r3, #1
 2009 0b12 DA0F     		lsrs	r2, r3, #31
 2010 0b14 1344     		add	r3, r3, r2
 2011 0b16 5B10     		asrs	r3, r3, #1
 2012 0b18 0393     		str	r3, [sp, #12]
 2013              		.loc 1 881 0
 2014 0b1a 039B     		ldr	r3, [sp, #12]
 2015              		.loc 1 882 0
 2016 0b1c 1846     		mov	r0, r3
 2017 0b1e 04B0     		add	sp, sp, #16
 2018              		@ sp needed
 2019 0b20 7047     		bx	lr
 2020              		.cfi_endproc
 2021              	.LFE23:
 2022              		.size	STC3115_conv, .-STC3115_conv
 2023 0b22 00BF     		.align	2
 2024 0b24 AFF30080 		.p2align 4,,15
 2024      AFF30080 
 2024      AFF30080 
 2025              		.thumb
 2026              		.thumb_func
 2027              		.type	STC3115_Startup, %function
 2028              	STC3115_Startup:
 2029              	.LFB24:
 2030              		.loc 1 890 0
 2031              		.cfi_startproc
 2032              		@ args = 0, pretend = 0, frame = 16
 2033              		@ frame_needed = 0, uses_anonymous_args = 0
 2034 0b30 00B5     		push	{lr}
 2035              		.cfi_def_cfa_offset 4
 2036              		.cfi_offset 14, -4
 2037 0b32 85B0     		sub	sp, sp, #20
 2038              		.cfi_def_cfa_offset 24
 2039 0b34 0190     		str	r0, [sp, #4]
ARM GAS  /tmp/ccAIGiUj.s 			page 37


 2040 0b36 0091     		str	r1, [sp]
 2041              		.loc 1 895 0
 2042 0b38 0198     		ldr	r0, [sp, #4]
 2043 0b3a FFF7F1FD 		bl	STC3115_Status
 2044 0b3e 0390     		str	r0, [sp, #12]
 2045              		.loc 1 896 0
 2046 0b40 039B     		ldr	r3, [sp, #12]
 2047 0b42 002B     		cmp	r3, #0
 2048 0b44 01DA     		bge	.L116
 2049              		.loc 1 896 0 is_stmt 0 discriminator 1
 2050 0b46 039B     		ldr	r3, [sp, #12]
 2051 0b48 10E0     		b	.L118
 2052              	.L116:
 2053              		.loc 1 899 0 is_stmt 1
 2054 0b4a 02AB     		add	r3, sp, #8
 2055 0b4c 0198     		ldr	r0, [sp, #4]
 2056 0b4e 0D21     		movs	r1, #13
 2057 0b50 1A46     		mov	r2, r3
 2058 0b52 00F055F8 		bl	STC3115_ReadWord
 2059              		.loc 1 901 0
 2060 0b56 0198     		ldr	r0, [sp, #4]
 2061 0b58 0099     		ldr	r1, [sp]
 2062 0b5a 00F099F8 		bl	STC3115_SetParam
 2063              		.loc 1 904 0
 2064 0b5e 029B     		ldr	r3, [sp, #8]
 2065 0b60 0198     		ldr	r0, [sp, #4]
 2066 0b62 0D21     		movs	r1, #13
 2067 0b64 1A46     		mov	r2, r3
 2068 0b66 00F073F8 		bl	STC3115_WriteWord
 2069              		.loc 1 906 0
 2070 0b6a 0023     		movs	r3, #0
 2071              	.L118:
 2072              		.loc 1 907 0
 2073 0b6c 1846     		mov	r0, r3
 2074 0b6e 05B0     		add	sp, sp, #20
 2075              		@ sp needed
 2076 0b70 5DF804FB 		ldr	pc, [sp], #4
 2077              		.cfi_endproc
 2078              	.LFE24:
 2079              		.size	STC3115_Startup, .-STC3115_Startup
 2080              		.align	2
 2081 0b74 AFF30080 		.p2align 4,,15
 2081      AFF30080 
 2081      AFF30080 
 2082              		.thumb
 2083              		.thumb_func
 2084              		.type	STC3115_Read, %function
 2085              	STC3115_Read:
 2086              	.LFB25:
 2087              		.loc 1 916 0
 2088              		.cfi_startproc
 2089              		@ args = 0, pretend = 0, frame = 16
 2090              		@ frame_needed = 0, uses_anonymous_args = 0
 2091 0b80 00B5     		push	{lr}
 2092              		.cfi_def_cfa_offset 4
 2093              		.cfi_offset 14, -4
 2094 0b82 85B0     		sub	sp, sp, #20
ARM GAS  /tmp/ccAIGiUj.s 			page 38


 2095              		.cfi_def_cfa_offset 24
 2096 0b84 0390     		str	r0, [sp, #12]
 2097 0b86 0192     		str	r2, [sp, #4]
 2098 0b88 0A46     		mov	r2, r1
 2099 0b8a 8DF80B20 		strb	r2, [sp, #11]
 2100 0b8e ADF80830 		strh	r3, [sp, #8]	@ movhi
 2101              		.loc 1 917 0
 2102 0b92 9DF80B20 		ldrb	r2, [sp, #11]	@ zero_extendqisi2
 2103 0b96 BDF80830 		ldrh	r3, [sp, #8]
 2104 0b9a 0398     		ldr	r0, [sp, #12]
 2105 0b9c 1146     		mov	r1, r2
 2106 0b9e 019A     		ldr	r2, [sp, #4]
 2107 0ba0 FFF7FEFF 		bl	Sensor_IO_Read
 2108 0ba4 0346     		mov	r3, r0
 2109 0ba6 002B     		cmp	r3, #0
 2110 0ba8 02D0     		beq	.L120
 2111              		.loc 1 919 0
 2112 0baa 4FF0FF33 		mov	r3, #-1
 2113 0bae 00E0     		b	.L121
 2114              	.L120:
 2115              		.loc 1 923 0
 2116 0bb0 0023     		movs	r3, #0
 2117              	.L121:
 2118              		.loc 1 925 0
 2119 0bb2 1846     		mov	r0, r3
 2120 0bb4 05B0     		add	sp, sp, #20
 2121              		@ sp needed
 2122 0bb6 5DF804FB 		ldr	pc, [sp], #4
 2123              		.cfi_endproc
 2124              	.LFE25:
 2125              		.size	STC3115_Read, .-STC3115_Read
 2126 0bba 00BF     		.align	2
 2127 0bbc AFF30080 		.p2align 4,,15
 2128              		.thumb
 2129              		.thumb_func
 2130              		.type	STC3115_Write, %function
 2131              	STC3115_Write:
 2132              	.LFB26:
 2133              		.loc 1 934 0
 2134              		.cfi_startproc
 2135              		@ args = 0, pretend = 0, frame = 16
 2136              		@ frame_needed = 0, uses_anonymous_args = 0
 2137 0bc0 00B5     		push	{lr}
 2138              		.cfi_def_cfa_offset 4
 2139              		.cfi_offset 14, -4
 2140 0bc2 85B0     		sub	sp, sp, #20
 2141              		.cfi_def_cfa_offset 24
 2142 0bc4 0390     		str	r0, [sp, #12]
 2143 0bc6 0192     		str	r2, [sp, #4]
 2144 0bc8 0A46     		mov	r2, r1
 2145 0bca 8DF80B20 		strb	r2, [sp, #11]
 2146 0bce ADF80830 		strh	r3, [sp, #8]	@ movhi
 2147              		.loc 1 935 0
 2148 0bd2 9DF80B20 		ldrb	r2, [sp, #11]	@ zero_extendqisi2
 2149 0bd6 BDF80830 		ldrh	r3, [sp, #8]
 2150 0bda 0398     		ldr	r0, [sp, #12]
 2151 0bdc 1146     		mov	r1, r2
ARM GAS  /tmp/ccAIGiUj.s 			page 39


 2152 0bde 019A     		ldr	r2, [sp, #4]
 2153 0be0 FFF7FEFF 		bl	Sensor_IO_Write
 2154 0be4 0346     		mov	r3, r0
 2155 0be6 002B     		cmp	r3, #0
 2156 0be8 02D0     		beq	.L123
 2157              		.loc 1 937 0
 2158 0bea 4FF0FF33 		mov	r3, #-1
 2159 0bee 00E0     		b	.L124
 2160              	.L123:
 2161              		.loc 1 941 0
 2162 0bf0 0023     		movs	r3, #0
 2163              	.L124:
 2164              		.loc 1 943 0
 2165 0bf2 1846     		mov	r0, r3
 2166 0bf4 05B0     		add	sp, sp, #20
 2167              		@ sp needed
 2168 0bf6 5DF804FB 		ldr	pc, [sp], #4
 2169              		.cfi_endproc
 2170              	.LFE26:
 2171              		.size	STC3115_Write, .-STC3115_Write
 2172 0bfa 00BF     		.align	2
 2173 0bfc AFF30080 		.p2align 4,,15
 2174              		.thumb
 2175              		.thumb_func
 2176              		.type	STC3115_ReadWord, %function
 2177              	STC3115_ReadWord:
 2178              	.LFB27:
 2179              		.loc 1 952 0
 2180              		.cfi_startproc
 2181              		@ args = 0, pretend = 0, frame = 24
 2182              		@ frame_needed = 0, uses_anonymous_args = 0
 2183 0c00 00B5     		push	{lr}
 2184              		.cfi_def_cfa_offset 4
 2185              		.cfi_offset 14, -4
 2186 0c02 87B0     		sub	sp, sp, #28
 2187              		.cfi_def_cfa_offset 32
 2188 0c04 0390     		str	r0, [sp, #12]
 2189 0c06 0B46     		mov	r3, r1
 2190 0c08 0192     		str	r2, [sp, #4]
 2191 0c0a 8DF80B30 		strb	r3, [sp, #11]
 2192              		.loc 1 955 0
 2193 0c0e 9DF80B20 		ldrb	r2, [sp, #11]	@ zero_extendqisi2
 2194 0c12 0DF11603 		add	r3, sp, #22
 2195 0c16 0398     		ldr	r0, [sp, #12]
 2196 0c18 1146     		mov	r1, r2
 2197 0c1a 1A46     		mov	r2, r3
 2198 0c1c 0223     		movs	r3, #2
 2199 0c1e FFF7FEFF 		bl	Sensor_IO_Read
 2200 0c22 0346     		mov	r3, r0
 2201 0c24 002B     		cmp	r3, #0
 2202 0c26 02D0     		beq	.L126
 2203              		.loc 1 957 0
 2204 0c28 4FF0FF33 		mov	r3, #-1
 2205 0c2c 05E0     		b	.L128
 2206              	.L126:
 2207              		.loc 1 961 0
 2208 0c2e BDF81630 		ldrh	r3, [sp, #22]
ARM GAS  /tmp/ccAIGiUj.s 			page 40


 2209 0c32 1A46     		mov	r2, r3
 2210 0c34 019B     		ldr	r3, [sp, #4]
 2211 0c36 1A60     		str	r2, [r3]
 2212              		.loc 1 962 0
 2213 0c38 0023     		movs	r3, #0
 2214              	.L128:
 2215              		.loc 1 964 0
 2216 0c3a 1846     		mov	r0, r3
 2217 0c3c 07B0     		add	sp, sp, #28
 2218              		@ sp needed
 2219 0c3e 5DF804FB 		ldr	pc, [sp], #4
 2220              		.cfi_endproc
 2221              	.LFE27:
 2222              		.size	STC3115_ReadWord, .-STC3115_ReadWord
 2223 0c42 00BF     		.align	2
 2224 0c44 AFF30080 		.p2align 4,,15
 2224      AFF30080 
 2224      AFF30080 
 2225              		.thumb
 2226              		.thumb_func
 2227              		.type	STC3115_WriteWord, %function
 2228              	STC3115_WriteWord:
 2229              	.LFB28:
 2230              		.loc 1 974 0
 2231              		.cfi_startproc
 2232              		@ args = 0, pretend = 0, frame = 24
 2233              		@ frame_needed = 0, uses_anonymous_args = 0
 2234 0c50 00B5     		push	{lr}
 2235              		.cfi_def_cfa_offset 4
 2236              		.cfi_offset 14, -4
 2237 0c52 87B0     		sub	sp, sp, #28
 2238              		.cfi_def_cfa_offset 32
 2239 0c54 0390     		str	r0, [sp, #12]
 2240 0c56 0B46     		mov	r3, r1
 2241 0c58 0192     		str	r2, [sp, #4]
 2242 0c5a 8DF80B30 		strb	r3, [sp, #11]
 2243              		.loc 1 975 0
 2244 0c5e 019B     		ldr	r3, [sp, #4]
 2245 0c60 9BB2     		uxth	r3, r3
 2246 0c62 ADF81630 		strh	r3, [sp, #22]	@ movhi
 2247              		.loc 1 977 0
 2248 0c66 9DF80B20 		ldrb	r2, [sp, #11]	@ zero_extendqisi2
 2249 0c6a 0DF11603 		add	r3, sp, #22
 2250 0c6e 0398     		ldr	r0, [sp, #12]
 2251 0c70 1146     		mov	r1, r2
 2252 0c72 1A46     		mov	r2, r3
 2253 0c74 0223     		movs	r3, #2
 2254 0c76 FFF7FEFF 		bl	Sensor_IO_Write
 2255 0c7a 0346     		mov	r3, r0
 2256 0c7c 002B     		cmp	r3, #0
 2257 0c7e 02D0     		beq	.L130
 2258              		.loc 1 979 0
 2259 0c80 4FF0FF33 		mov	r3, #-1
 2260 0c84 00E0     		b	.L132
 2261              	.L130:
 2262              		.loc 1 983 0
 2263 0c86 0023     		movs	r3, #0
ARM GAS  /tmp/ccAIGiUj.s 			page 41


 2264              	.L132:
 2265              		.loc 1 985 0
 2266 0c88 1846     		mov	r0, r3
 2267 0c8a 07B0     		add	sp, sp, #28
 2268              		@ sp needed
 2269 0c8c 5DF804FB 		ldr	pc, [sp], #4
 2270              		.cfi_endproc
 2271              	.LFE28:
 2272              		.size	STC3115_WriteWord, .-STC3115_WriteWord
 2273              		.align	2
 2274              		.p2align 4,,15
 2275              		.thumb
 2276              		.thumb_func
 2277              		.type	STC3115_SetParam, %function
 2278              	STC3115_SetParam:
 2279              	.LFB29:
 2280              		.loc 1 993 0
 2281              		.cfi_startproc
 2282              		@ args = 0, pretend = 0, frame = 16
 2283              		@ frame_needed = 0, uses_anonymous_args = 0
 2284 0c90 00B5     		push	{lr}
 2285              		.cfi_def_cfa_offset 4
 2286              		.cfi_offset 14, -4
 2287 0c92 85B0     		sub	sp, sp, #20
 2288              		.cfi_def_cfa_offset 24
 2289 0c94 0190     		str	r0, [sp, #4]
 2290 0c96 0091     		str	r1, [sp]
 2291              		.loc 1 995 0
 2292 0c98 019B     		ldr	r3, [sp, #4]
 2293 0c9a 9B68     		ldr	r3, [r3, #8]
 2294 0c9c 1B68     		ldr	r3, [r3]
 2295 0c9e 5C33     		adds	r3, r3, #92
 2296 0ca0 0393     		str	r3, [sp, #12]
 2297              		.loc 1 998 0
 2298 0ca2 0123     		movs	r3, #1
 2299 0ca4 8DF80B30 		strb	r3, [sp, #11]
 2300              		.loc 1 999 0
 2301 0ca8 0DF10B03 		add	r3, sp, #11
 2302 0cac 0198     		ldr	r0, [sp, #4]
 2303 0cae 0021     		movs	r1, #0
 2304 0cb0 1A46     		mov	r2, r3
 2305 0cb2 0123     		movs	r3, #1
 2306 0cb4 FFF784FF 		bl	STC3115_Write
 2307              		.loc 1 1002 0
 2308 0cb8 009B     		ldr	r3, [sp]
 2309 0cba 2033     		adds	r3, r3, #32
 2310 0cbc 0198     		ldr	r0, [sp, #4]
 2311 0cbe 3021     		movs	r1, #48
 2312 0cc0 1A46     		mov	r2, r3
 2313 0cc2 1023     		movs	r3, #16
 2314 0cc4 FFF77CFF 		bl	STC3115_Write
 2315              		.loc 1 1005 0
 2316 0cc8 009B     		ldr	r3, [sp]
 2317 0cca 5B68     		ldr	r3, [r3, #4]
 2318 0ccc 002B     		cmp	r3, #0
 2319 0cce 0ED0     		beq	.L134
 2320              		.loc 1 1007 0
ARM GAS  /tmp/ccAIGiUj.s 			page 42


 2321 0cd0 009B     		ldr	r3, [sp]
 2322 0cd2 5B68     		ldr	r3, [r3, #4]
 2323 0cd4 DBB2     		uxtb	r3, r3
 2324 0cd6 5B00     		lsls	r3, r3, #1
 2325 0cd8 DBB2     		uxtb	r3, r3
 2326 0cda 8DF80B30 		strb	r3, [sp, #11]
 2327              		.loc 1 1008 0
 2328 0cde 0DF10B03 		add	r3, sp, #11
 2329 0ce2 0198     		ldr	r0, [sp, #4]
 2330 0ce4 1321     		movs	r1, #19
 2331 0ce6 1A46     		mov	r2, r3
 2332 0ce8 0123     		movs	r3, #1
 2333 0cea FFF769FF 		bl	STC3115_Write
 2334              	.L134:
 2335              		.loc 1 1010 0
 2336 0cee 009B     		ldr	r3, [sp]
 2337 0cf0 9B68     		ldr	r3, [r3, #8]
 2338 0cf2 002B     		cmp	r3, #0
 2339 0cf4 13D0     		beq	.L135
 2340              		.loc 1 1012 0
 2341 0cf6 009B     		ldr	r3, [sp]
 2342 0cf8 9B68     		ldr	r3, [r3, #8]
 2343 0cfa 5B02     		lsls	r3, r3, #9
 2344 0cfc 314A     		ldr	r2, .L140
 2345 0cfe 82FB0312 		smull	r1, r2, r2, r3
 2346 0d02 1213     		asrs	r2, r2, #12
 2347 0d04 DB17     		asrs	r3, r3, #31
 2348 0d06 D31A     		subs	r3, r2, r3
 2349 0d08 DBB2     		uxtb	r3, r3
 2350 0d0a 8DF80B30 		strb	r3, [sp, #11]
 2351              		.loc 1 1013 0
 2352 0d0e 0DF10B03 		add	r3, sp, #11
 2353 0d12 0198     		ldr	r0, [sp, #4]
 2354 0d14 1421     		movs	r1, #20
 2355 0d16 1A46     		mov	r2, r3
 2356 0d18 0123     		movs	r3, #1
 2357 0d1a FFF751FF 		bl	STC3115_Write
 2358              	.L135:
 2359              		.loc 1 1017 0
 2360 0d1e 009B     		ldr	r3, [sp]
 2361 0d20 9B69     		ldr	r3, [r3, #24]
 2362 0d22 002B     		cmp	r3, #0
 2363 0d24 15D0     		beq	.L136
 2364              		.loc 1 1019 0
 2365 0d26 009B     		ldr	r3, [sp]
 2366 0d28 DB69     		ldr	r3, [r3, #28]
 2367 0d2a 5A02     		lsls	r2, r3, #9
 2368 0d2c 009B     		ldr	r3, [sp]
 2369 0d2e 9B69     		ldr	r3, [r3, #24]
 2370 0d30 45F61461 		movw	r1, #24084
 2371 0d34 91FBF3F3 		sdiv	r3, r1, r3
 2372 0d38 92FBF3F3 		sdiv	r3, r2, r3
 2373 0d3c DBB2     		uxtb	r3, r3
 2374 0d3e 8DF80B30 		strb	r3, [sp, #11]
 2375              		.loc 1 1020 0
 2376 0d42 0DF10B03 		add	r3, sp, #11
 2377 0d46 0198     		ldr	r0, [sp, #4]
ARM GAS  /tmp/ccAIGiUj.s 			page 43


 2378 0d48 1521     		movs	r1, #21
 2379 0d4a 1A46     		mov	r2, r3
 2380 0d4c 0123     		movs	r3, #1
 2381 0d4e FFF737FF 		bl	STC3115_Write
 2382              	.L136:
 2383              		.loc 1 1024 0
 2384 0d52 039B     		ldr	r3, [sp, #12]
 2385 0d54 9B88     		ldrh	r3, [r3, #4]
 2386 0d56 002B     		cmp	r3, #0
 2387 0d58 07D0     		beq	.L137
 2388              		.loc 1 1024 0 is_stmt 0 discriminator 1
 2389 0d5a 039B     		ldr	r3, [sp, #12]
 2390 0d5c 9B88     		ldrh	r3, [r3, #4]
 2391 0d5e 1BB2     		sxth	r3, r3
 2392 0d60 0198     		ldr	r0, [sp, #4]
 2393 0d62 0F21     		movs	r1, #15
 2394 0d64 1A46     		mov	r2, r3
 2395 0d66 FFF773FF 		bl	STC3115_WriteWord
 2396              	.L137:
 2397              		.loc 1 1025 0 is_stmt 1
 2398 0d6a 039B     		ldr	r3, [sp, #12]
 2399 0d6c DB88     		ldrh	r3, [r3, #6]
 2400 0d6e 002B     		cmp	r3, #0
 2401 0d70 07D0     		beq	.L138
 2402              		.loc 1 1025 0 is_stmt 0 discriminator 1
 2403 0d72 039B     		ldr	r3, [sp, #12]
 2404 0d74 DB88     		ldrh	r3, [r3, #6]
 2405 0d76 1BB2     		sxth	r3, r3
 2406 0d78 0198     		ldr	r0, [sp, #4]
 2407 0d7a 1121     		movs	r1, #17
 2408 0d7c 1A46     		mov	r2, r3
 2409 0d7e FFF767FF 		bl	STC3115_WriteWord
 2410              	.L138:
 2411              		.loc 1 1027 0 is_stmt 1
 2412 0d82 0323     		movs	r3, #3
 2413 0d84 8DF80B30 		strb	r3, [sp, #11]
 2414              		.loc 1 1028 0
 2415 0d88 0DF10B03 		add	r3, sp, #11
 2416 0d8c 0198     		ldr	r0, [sp, #4]
 2417 0d8e 0121     		movs	r1, #1
 2418 0d90 1A46     		mov	r2, r3
 2419 0d92 0123     		movs	r3, #1
 2420 0d94 FFF714FF 		bl	STC3115_Write
 2421              		.loc 1 1030 0
 2422 0d98 009B     		ldr	r3, [sp]
 2423 0d9a 1B68     		ldr	r3, [r3]
 2424 0d9c DBB2     		uxtb	r3, r3
 2425 0d9e 43F01003 		orr	r3, r3, #16
 2426 0da2 DBB2     		uxtb	r3, r3
 2427 0da4 DBB2     		uxtb	r3, r3
 2428 0da6 8DF80B30 		strb	r3, [sp, #11]
 2429              		.loc 1 1031 0
 2430 0daa 0DF10B03 		add	r3, sp, #11
 2431 0dae 0198     		ldr	r0, [sp, #4]
 2432 0db0 0021     		movs	r1, #0
 2433 0db2 1A46     		mov	r2, r3
 2434 0db4 0123     		movs	r3, #1
ARM GAS  /tmp/ccAIGiUj.s 			page 44


 2435 0db6 FFF703FF 		bl	STC3115_Write
 2436              		.loc 1 1033 0
 2437 0dba 0023     		movs	r3, #0
 2438              		.loc 1 1034 0
 2439 0dbc 1846     		mov	r0, r3
 2440 0dbe 05B0     		add	sp, sp, #20
 2441              		@ sp needed
 2442 0dc0 5DF804FB 		ldr	pc, [sp], #4
 2443              	.L141:
 2444              		.align	2
 2445              	.L140:
 2446 0dc4 89C05D74 		.word	1952301193
 2447              		.cfi_endproc
 2448              	.LFE29:
 2449              		.size	STC3115_SetParam, .-STC3115_SetParam
 2450              	.Letext0:
 2451              		.file 2 "/nfs/nfs5/home/research/hardware/arm2/gcc-arm-embedded/gcc-arm-none-eabi-4_8-2014q2/arm-n
 2452              		.file 3 "/nfs/nfs5/home/research/hardware/arm2/gcc-arm-embedded/gcc-arm-none-eabi-4_8-2014q2/arm-n
 2453              		.file 4 "../../../../../Drivers/BSP/Components/Common/component.h"
 2454              		.file 5 "../../../../../Drivers/BSP/Components/Common/GasGauge.h"
 2455              		.file 6 "../../../../../Drivers/BSP/Components/stc3115/STC3115_Driver.h"