ARM GAS  /tmp/ccUiHCLc.s 			page 1


   1              		.syntax unified
   2              		.cpu cortex-m4
   3              		.fpu softvfp
   4              		.eabi_attribute 20, 1
   5              		.eabi_attribute 21, 1
   6              		.eabi_attribute 23, 3
   7              		.eabi_attribute 24, 1
   8              		.eabi_attribute 25, 1
   9              		.eabi_attribute 26, 1
  10              		.eabi_attribute 30, 6
  11              		.eabi_attribute 34, 1
  12              		.eabi_attribute 18, 4
  13              		.thumb
  14              		.file	"stm32l4xx_hal_tim_ex.c"
  15              		.text
  16              	.Ltext0:
  17              		.cfi_sections	.debug_frame
  18              		.align	2
  19              		.p2align 4,,15
  20              		.global	HAL_TIMEx_HallSensor_Init
  21              		.thumb
  22              		.thumb_func
  23              		.type	HAL_TIMEx_HallSensor_Init, %function
  24              	HAL_TIMEx_HallSensor_Init:
  25              	.LFB125:
  26              		.file 1 "../../../../../Drivers/STM32L4xx_HAL_Driver/Src/stm32l4xx_hal_tim_ex.c"
  27              		.loc 1 158 0
  28              		.cfi_startproc
  29              		@ args = 0, pretend = 0, frame = 40
  30              		@ frame_needed = 0, uses_anonymous_args = 0
  31 0000 00B5     		push	{lr}
  32              		.cfi_def_cfa_offset 4
  33              		.cfi_offset 14, -4
  34 0002 8BB0     		sub	sp, sp, #44
  35              		.cfi_def_cfa_offset 48
  36 0004 0190     		str	r0, [sp, #4]
  37 0006 0091     		str	r1, [sp]
  38              		.loc 1 162 0
  39 0008 019B     		ldr	r3, [sp, #4]
  40 000a 002B     		cmp	r3, #0
  41 000c 01D1     		bne	.L2
  42              		.loc 1 164 0
  43 000e 0123     		movs	r3, #1
  44 0010 89E0     		b	.L5
  45              	.L2:
  46              		.loc 1 174 0
  47 0012 019B     		ldr	r3, [sp, #4]
  48 0014 93F83930 		ldrb	r3, [r3, #57]
  49 0018 DBB2     		uxtb	r3, r3
  50 001a 002B     		cmp	r3, #0
  51 001c 06D1     		bne	.L4
  52              		.loc 1 177 0
  53 001e 019B     		ldr	r3, [sp, #4]
  54 0020 0022     		movs	r2, #0
  55 0022 83F83820 		strb	r2, [r3, #56]
  56              		.loc 1 180 0
  57 0026 0198     		ldr	r0, [sp, #4]
ARM GAS  /tmp/ccUiHCLc.s 			page 2


  58 0028 FFF7FEFF 		bl	HAL_TIMEx_HallSensor_MspInit
  59              	.L4:
  60              		.loc 1 184 0
  61 002c 019B     		ldr	r3, [sp, #4]
  62 002e 0222     		movs	r2, #2
  63 0030 83F83920 		strb	r2, [r3, #57]
  64              		.loc 1 187 0
  65 0034 019B     		ldr	r3, [sp, #4]
  66 0036 1A68     		ldr	r2, [r3]
  67 0038 019B     		ldr	r3, [sp, #4]
  68 003a 0433     		adds	r3, r3, #4
  69 003c 1046     		mov	r0, r2
  70 003e 1946     		mov	r1, r3
  71 0040 FFF7FEFF 		bl	TIM_Base_SetConfig
  72              		.loc 1 190 0
  73 0044 019B     		ldr	r3, [sp, #4]
  74 0046 1968     		ldr	r1, [r3]
  75 0048 009B     		ldr	r3, [sp]
  76 004a 1A68     		ldr	r2, [r3]
  77 004c 009B     		ldr	r3, [sp]
  78 004e 9B68     		ldr	r3, [r3, #8]
  79 0050 0846     		mov	r0, r1
  80 0052 1146     		mov	r1, r2
  81 0054 0322     		movs	r2, #3
  82 0056 FFF7FEFF 		bl	TIM_TI1_SetConfig
  83              		.loc 1 193 0
  84 005a 019B     		ldr	r3, [sp, #4]
  85 005c 1B68     		ldr	r3, [r3]
  86 005e 019A     		ldr	r2, [sp, #4]
  87 0060 1268     		ldr	r2, [r2]
  88 0062 9269     		ldr	r2, [r2, #24]
  89 0064 22F00C02 		bic	r2, r2, #12
  90 0068 9A61     		str	r2, [r3, #24]
  91              		.loc 1 195 0
  92 006a 019B     		ldr	r3, [sp, #4]
  93 006c 1B68     		ldr	r3, [r3]
  94 006e 019A     		ldr	r2, [sp, #4]
  95 0070 1268     		ldr	r2, [r2]
  96 0072 9169     		ldr	r1, [r2, #24]
  97 0074 009A     		ldr	r2, [sp]
  98 0076 5268     		ldr	r2, [r2, #4]
  99 0078 0A43     		orrs	r2, r2, r1
 100 007a 9A61     		str	r2, [r3, #24]
 101              		.loc 1 198 0
 102 007c 019B     		ldr	r3, [sp, #4]
 103 007e 1B68     		ldr	r3, [r3]
 104 0080 019A     		ldr	r2, [sp, #4]
 105 0082 1268     		ldr	r2, [r2]
 106 0084 5268     		ldr	r2, [r2, #4]
 107 0086 42F08002 		orr	r2, r2, #128
 108 008a 5A60     		str	r2, [r3, #4]
 109              		.loc 1 201 0
 110 008c 019B     		ldr	r3, [sp, #4]
 111 008e 1B68     		ldr	r3, [r3]
 112 0090 019A     		ldr	r2, [sp, #4]
 113 0092 1268     		ldr	r2, [r2]
 114 0094 9268     		ldr	r2, [r2, #8]
ARM GAS  /tmp/ccUiHCLc.s 			page 3


 115 0096 22F07002 		bic	r2, r2, #112
 116 009a 9A60     		str	r2, [r3, #8]
 117              		.loc 1 202 0
 118 009c 019B     		ldr	r3, [sp, #4]
 119 009e 1B68     		ldr	r3, [r3]
 120 00a0 019A     		ldr	r2, [sp, #4]
 121 00a2 1268     		ldr	r2, [r2]
 122 00a4 9268     		ldr	r2, [r2, #8]
 123 00a6 42F04002 		orr	r2, r2, #64
 124 00aa 9A60     		str	r2, [r3, #8]
 125              		.loc 1 205 0
 126 00ac 019B     		ldr	r3, [sp, #4]
 127 00ae 1A68     		ldr	r2, [r3]
 128 00b0 019B     		ldr	r3, [sp, #4]
 129 00b2 1B68     		ldr	r3, [r3]
 130 00b4 9B68     		ldr	r3, [r3, #8]
 131 00b6 23F48033 		bic	r3, r3, #65536
 132 00ba 23F00703 		bic	r3, r3, #7
 133 00be 9360     		str	r3, [r2, #8]
 134              		.loc 1 206 0
 135 00c0 019B     		ldr	r3, [sp, #4]
 136 00c2 1B68     		ldr	r3, [r3]
 137 00c4 019A     		ldr	r2, [sp, #4]
 138 00c6 1268     		ldr	r2, [r2]
 139 00c8 9268     		ldr	r2, [r2, #8]
 140 00ca 42F00402 		orr	r2, r2, #4
 141 00ce 9A60     		str	r2, [r3, #8]
 142              		.loc 1 209 0
 143 00d0 0023     		movs	r3, #0
 144 00d2 0793     		str	r3, [sp, #28]
 145              		.loc 1 210 0
 146 00d4 0023     		movs	r3, #0
 147 00d6 0893     		str	r3, [sp, #32]
 148              		.loc 1 211 0
 149 00d8 7023     		movs	r3, #112
 150 00da 0393     		str	r3, [sp, #12]
 151              		.loc 1 212 0
 152 00dc 0023     		movs	r3, #0
 153 00de 0993     		str	r3, [sp, #36]
 154              		.loc 1 213 0
 155 00e0 0023     		movs	r3, #0
 156 00e2 0693     		str	r3, [sp, #24]
 157              		.loc 1 214 0
 158 00e4 0023     		movs	r3, #0
 159 00e6 0593     		str	r3, [sp, #20]
 160              		.loc 1 215 0
 161 00e8 009B     		ldr	r3, [sp]
 162 00ea DB68     		ldr	r3, [r3, #12]
 163 00ec 0493     		str	r3, [sp, #16]
 164              		.loc 1 217 0
 165 00ee 019B     		ldr	r3, [sp, #4]
 166 00f0 1A68     		ldr	r2, [r3]
 167 00f2 03AB     		add	r3, sp, #12
 168 00f4 1046     		mov	r0, r2
 169 00f6 1946     		mov	r1, r3
 170 00f8 FFF7FEFF 		bl	TIM_OC2_SetConfig
 171              		.loc 1 221 0
ARM GAS  /tmp/ccUiHCLc.s 			page 4


 172 00fc 019B     		ldr	r3, [sp, #4]
 173 00fe 1B68     		ldr	r3, [r3]
 174 0100 019A     		ldr	r2, [sp, #4]
 175 0102 1268     		ldr	r2, [r2]
 176 0104 5268     		ldr	r2, [r2, #4]
 177 0106 22F07002 		bic	r2, r2, #112
 178 010a 5A60     		str	r2, [r3, #4]
 179              		.loc 1 222 0
 180 010c 019B     		ldr	r3, [sp, #4]
 181 010e 1B68     		ldr	r3, [r3]
 182 0110 019A     		ldr	r2, [sp, #4]
 183 0112 1268     		ldr	r2, [r2]
 184 0114 5268     		ldr	r2, [r2, #4]
 185 0116 42F05002 		orr	r2, r2, #80
 186 011a 5A60     		str	r2, [r3, #4]
 187              		.loc 1 225 0
 188 011c 019B     		ldr	r3, [sp, #4]
 189 011e 0122     		movs	r2, #1
 190 0120 83F83920 		strb	r2, [r3, #57]
 191              		.loc 1 227 0
 192 0124 0023     		movs	r3, #0
 193              	.L5:
 194              		.loc 1 228 0
 195 0126 1846     		mov	r0, r3
 196 0128 0BB0     		add	sp, sp, #44
 197              		@ sp needed
 198 012a 5DF804FB 		ldr	pc, [sp], #4
 199              		.cfi_endproc
 200              	.LFE125:
 201              		.size	HAL_TIMEx_HallSensor_Init, .-HAL_TIMEx_HallSensor_Init
 202 012e 00BF     		.align	2
 203              		.p2align 4,,15
 204              		.global	HAL_TIMEx_HallSensor_DeInit
 205              		.thumb
 206              		.thumb_func
 207              		.type	HAL_TIMEx_HallSensor_DeInit, %function
 208              	HAL_TIMEx_HallSensor_DeInit:
 209              	.LFB126:
 210              		.loc 1 236 0
 211              		.cfi_startproc
 212              		@ args = 0, pretend = 0, frame = 8
 213              		@ frame_needed = 0, uses_anonymous_args = 0
 214 0130 00B5     		push	{lr}
 215              		.cfi_def_cfa_offset 4
 216              		.cfi_offset 14, -4
 217 0132 83B0     		sub	sp, sp, #12
 218              		.cfi_def_cfa_offset 16
 219 0134 0190     		str	r0, [sp, #4]
 220              		.loc 1 240 0
 221 0136 019B     		ldr	r3, [sp, #4]
 222 0138 0222     		movs	r2, #2
 223 013a 83F83920 		strb	r2, [r3, #57]
 224              		.loc 1 243 0
 225 013e 019B     		ldr	r3, [sp, #4]
 226 0140 1B68     		ldr	r3, [r3]
 227 0142 1A6A     		ldr	r2, [r3, #32]
 228 0144 41F21113 		movw	r3, #4369
ARM GAS  /tmp/ccUiHCLc.s 			page 5


 229 0148 1340     		ands	r3, r3, r2
 230 014a 002B     		cmp	r3, #0
 231 014c 0FD1     		bne	.L7
 232              		.loc 1 243 0 is_stmt 0 discriminator 1
 233 014e 019B     		ldr	r3, [sp, #4]
 234 0150 1B68     		ldr	r3, [r3]
 235 0152 1A6A     		ldr	r2, [r3, #32]
 236 0154 40F24443 		movw	r3, #1092
 237 0158 1340     		ands	r3, r3, r2
 238 015a 002B     		cmp	r3, #0
 239 015c 07D1     		bne	.L7
 240 015e 019B     		ldr	r3, [sp, #4]
 241 0160 1B68     		ldr	r3, [r3]
 242 0162 019A     		ldr	r2, [sp, #4]
 243 0164 1268     		ldr	r2, [r2]
 244 0166 1268     		ldr	r2, [r2]
 245 0168 22F00102 		bic	r2, r2, #1
 246 016c 1A60     		str	r2, [r3]
 247              	.L7:
 248              		.loc 1 246 0 is_stmt 1
 249 016e 0198     		ldr	r0, [sp, #4]
 250 0170 FFF7FEFF 		bl	HAL_TIMEx_HallSensor_MspDeInit
 251              		.loc 1 249 0
 252 0174 019B     		ldr	r3, [sp, #4]
 253 0176 0022     		movs	r2, #0
 254 0178 83F83920 		strb	r2, [r3, #57]
 255              		.loc 1 252 0
 256 017c 019B     		ldr	r3, [sp, #4]
 257 017e 0022     		movs	r2, #0
 258 0180 83F83820 		strb	r2, [r3, #56]
 259              		.loc 1 254 0
 260 0184 0023     		movs	r3, #0
 261              		.loc 1 255 0
 262 0186 1846     		mov	r0, r3
 263 0188 03B0     		add	sp, sp, #12
 264              		@ sp needed
 265 018a 5DF804FB 		ldr	pc, [sp], #4
 266              		.cfi_endproc
 267              	.LFE126:
 268              		.size	HAL_TIMEx_HallSensor_DeInit, .-HAL_TIMEx_HallSensor_DeInit
 269 018e 00BF     		.align	2
 270              		.p2align 4,,15
 271              		.weak	HAL_TIMEx_HallSensor_MspInit
 272              		.thumb
 273              		.thumb_func
 274              		.type	HAL_TIMEx_HallSensor_MspInit, %function
 275              	HAL_TIMEx_HallSensor_MspInit:
 276              	.LFB127:
 277              		.loc 1 263 0
 278              		.cfi_startproc
 279              		@ args = 0, pretend = 0, frame = 8
 280              		@ frame_needed = 0, uses_anonymous_args = 0
 281              		@ link register save eliminated.
 282 0190 82B0     		sub	sp, sp, #8
 283              		.cfi_def_cfa_offset 8
 284 0192 0190     		str	r0, [sp, #4]
 285              		.loc 1 270 0
ARM GAS  /tmp/ccUiHCLc.s 			page 6


 286 0194 02B0     		add	sp, sp, #8
 287              		@ sp needed
 288 0196 7047     		bx	lr
 289              		.cfi_endproc
 290              	.LFE127:
 291              		.size	HAL_TIMEx_HallSensor_MspInit, .-HAL_TIMEx_HallSensor_MspInit
 292              		.align	2
 293 0198 AFF30080 		.p2align 4,,15
 293      AFF30080 
 294              		.weak	HAL_TIMEx_HallSensor_MspDeInit
 295              		.thumb
 296              		.thumb_func
 297              		.type	HAL_TIMEx_HallSensor_MspDeInit, %function
 298              	HAL_TIMEx_HallSensor_MspDeInit:
 299              	.LFB128:
 300              		.loc 1 278 0
 301              		.cfi_startproc
 302              		@ args = 0, pretend = 0, frame = 8
 303              		@ frame_needed = 0, uses_anonymous_args = 0
 304              		@ link register save eliminated.
 305 01a0 82B0     		sub	sp, sp, #8
 306              		.cfi_def_cfa_offset 8
 307 01a2 0190     		str	r0, [sp, #4]
 308              		.loc 1 285 0
 309 01a4 02B0     		add	sp, sp, #8
 310              		@ sp needed
 311 01a6 7047     		bx	lr
 312              		.cfi_endproc
 313              	.LFE128:
 314              		.size	HAL_TIMEx_HallSensor_MspDeInit, .-HAL_TIMEx_HallSensor_MspDeInit
 315              		.align	2
 316 01a8 AFF30080 		.p2align 4,,15
 316      AFF30080 
 317              		.global	HAL_TIMEx_HallSensor_Start
 318              		.thumb
 319              		.thumb_func
 320              		.type	HAL_TIMEx_HallSensor_Start, %function
 321              	HAL_TIMEx_HallSensor_Start:
 322              	.LFB129:
 323              		.loc 1 293 0
 324              		.cfi_startproc
 325              		@ args = 0, pretend = 0, frame = 8
 326              		@ frame_needed = 0, uses_anonymous_args = 0
 327 01b0 00B5     		push	{lr}
 328              		.cfi_def_cfa_offset 4
 329              		.cfi_offset 14, -4
 330 01b2 83B0     		sub	sp, sp, #12
 331              		.cfi_def_cfa_offset 16
 332 01b4 0190     		str	r0, [sp, #4]
 333              		.loc 1 299 0
 334 01b6 019B     		ldr	r3, [sp, #4]
 335 01b8 1B68     		ldr	r3, [r3]
 336 01ba 1846     		mov	r0, r3
 337 01bc 0021     		movs	r1, #0
 338 01be 0122     		movs	r2, #1
 339 01c0 FFF7FEFF 		bl	TIM_CCxChannelCmd
 340              		.loc 1 302 0
ARM GAS  /tmp/ccUiHCLc.s 			page 7


 341 01c4 019B     		ldr	r3, [sp, #4]
 342 01c6 1B68     		ldr	r3, [r3]
 343 01c8 019A     		ldr	r2, [sp, #4]
 344 01ca 1268     		ldr	r2, [r2]
 345 01cc 1268     		ldr	r2, [r2]
 346 01ce 42F00102 		orr	r2, r2, #1
 347 01d2 1A60     		str	r2, [r3]
 348              		.loc 1 305 0
 349 01d4 0023     		movs	r3, #0
 350              		.loc 1 306 0
 351 01d6 1846     		mov	r0, r3
 352 01d8 03B0     		add	sp, sp, #12
 353              		@ sp needed
 354 01da 5DF804FB 		ldr	pc, [sp], #4
 355              		.cfi_endproc
 356              	.LFE129:
 357              		.size	HAL_TIMEx_HallSensor_Start, .-HAL_TIMEx_HallSensor_Start
 358 01de 00BF     		.align	2
 359              		.p2align 4,,15
 360              		.global	HAL_TIMEx_HallSensor_Stop
 361              		.thumb
 362              		.thumb_func
 363              		.type	HAL_TIMEx_HallSensor_Stop, %function
 364              	HAL_TIMEx_HallSensor_Stop:
 365              	.LFB130:
 366              		.loc 1 314 0
 367              		.cfi_startproc
 368              		@ args = 0, pretend = 0, frame = 8
 369              		@ frame_needed = 0, uses_anonymous_args = 0
 370 01e0 00B5     		push	{lr}
 371              		.cfi_def_cfa_offset 4
 372              		.cfi_offset 14, -4
 373 01e2 83B0     		sub	sp, sp, #12
 374              		.cfi_def_cfa_offset 16
 375 01e4 0190     		str	r0, [sp, #4]
 376              		.loc 1 320 0
 377 01e6 019B     		ldr	r3, [sp, #4]
 378 01e8 1B68     		ldr	r3, [r3]
 379 01ea 1846     		mov	r0, r3
 380 01ec 0021     		movs	r1, #0
 381 01ee 0022     		movs	r2, #0
 382 01f0 FFF7FEFF 		bl	TIM_CCxChannelCmd
 383              		.loc 1 323 0
 384 01f4 019B     		ldr	r3, [sp, #4]
 385 01f6 1B68     		ldr	r3, [r3]
 386 01f8 1A6A     		ldr	r2, [r3, #32]
 387 01fa 41F21113 		movw	r3, #4369
 388 01fe 1340     		ands	r3, r3, r2
 389 0200 002B     		cmp	r3, #0
 390 0202 0FD1     		bne	.L14
 391              		.loc 1 323 0 is_stmt 0 discriminator 1
 392 0204 019B     		ldr	r3, [sp, #4]
 393 0206 1B68     		ldr	r3, [r3]
 394 0208 1A6A     		ldr	r2, [r3, #32]
 395 020a 40F24443 		movw	r3, #1092
 396 020e 1340     		ands	r3, r3, r2
 397 0210 002B     		cmp	r3, #0
ARM GAS  /tmp/ccUiHCLc.s 			page 8


 398 0212 07D1     		bne	.L14
 399 0214 019B     		ldr	r3, [sp, #4]
 400 0216 1B68     		ldr	r3, [r3]
 401 0218 019A     		ldr	r2, [sp, #4]
 402 021a 1268     		ldr	r2, [r2]
 403 021c 1268     		ldr	r2, [r2]
 404 021e 22F00102 		bic	r2, r2, #1
 405 0222 1A60     		str	r2, [r3]
 406              	.L14:
 407              		.loc 1 326 0 is_stmt 1
 408 0224 0023     		movs	r3, #0
 409              		.loc 1 327 0
 410 0226 1846     		mov	r0, r3
 411 0228 03B0     		add	sp, sp, #12
 412              		@ sp needed
 413 022a 5DF804FB 		ldr	pc, [sp], #4
 414              		.cfi_endproc
 415              	.LFE130:
 416              		.size	HAL_TIMEx_HallSensor_Stop, .-HAL_TIMEx_HallSensor_Stop
 417 022e 00BF     		.align	2
 418              		.p2align 4,,15
 419              		.global	HAL_TIMEx_HallSensor_Start_IT
 420              		.thumb
 421              		.thumb_func
 422              		.type	HAL_TIMEx_HallSensor_Start_IT, %function
 423              	HAL_TIMEx_HallSensor_Start_IT:
 424              	.LFB131:
 425              		.loc 1 335 0
 426              		.cfi_startproc
 427              		@ args = 0, pretend = 0, frame = 8
 428              		@ frame_needed = 0, uses_anonymous_args = 0
 429 0230 00B5     		push	{lr}
 430              		.cfi_def_cfa_offset 4
 431              		.cfi_offset 14, -4
 432 0232 83B0     		sub	sp, sp, #12
 433              		.cfi_def_cfa_offset 16
 434 0234 0190     		str	r0, [sp, #4]
 435              		.loc 1 340 0
 436 0236 019B     		ldr	r3, [sp, #4]
 437 0238 1B68     		ldr	r3, [r3]
 438 023a 019A     		ldr	r2, [sp, #4]
 439 023c 1268     		ldr	r2, [r2]
 440 023e D268     		ldr	r2, [r2, #12]
 441 0240 42F00202 		orr	r2, r2, #2
 442 0244 DA60     		str	r2, [r3, #12]
 443              		.loc 1 344 0
 444 0246 019B     		ldr	r3, [sp, #4]
 445 0248 1B68     		ldr	r3, [r3]
 446 024a 1846     		mov	r0, r3
 447 024c 0021     		movs	r1, #0
 448 024e 0122     		movs	r2, #1
 449 0250 FFF7FEFF 		bl	TIM_CCxChannelCmd
 450              		.loc 1 347 0
 451 0254 019B     		ldr	r3, [sp, #4]
 452 0256 1B68     		ldr	r3, [r3]
 453 0258 019A     		ldr	r2, [sp, #4]
 454 025a 1268     		ldr	r2, [r2]
ARM GAS  /tmp/ccUiHCLc.s 			page 9


 455 025c 1268     		ldr	r2, [r2]
 456 025e 42F00102 		orr	r2, r2, #1
 457 0262 1A60     		str	r2, [r3]
 458              		.loc 1 350 0
 459 0264 0023     		movs	r3, #0
 460              		.loc 1 351 0
 461 0266 1846     		mov	r0, r3
 462 0268 03B0     		add	sp, sp, #12
 463              		@ sp needed
 464 026a 5DF804FB 		ldr	pc, [sp], #4
 465              		.cfi_endproc
 466              	.LFE131:
 467              		.size	HAL_TIMEx_HallSensor_Start_IT, .-HAL_TIMEx_HallSensor_Start_IT
 468 026e 00BF     		.align	2
 469              		.p2align 4,,15
 470              		.global	HAL_TIMEx_HallSensor_Stop_IT
 471              		.thumb
 472              		.thumb_func
 473              		.type	HAL_TIMEx_HallSensor_Stop_IT, %function
 474              	HAL_TIMEx_HallSensor_Stop_IT:
 475              	.LFB132:
 476              		.loc 1 359 0
 477              		.cfi_startproc
 478              		@ args = 0, pretend = 0, frame = 8
 479              		@ frame_needed = 0, uses_anonymous_args = 0
 480 0270 00B5     		push	{lr}
 481              		.cfi_def_cfa_offset 4
 482              		.cfi_offset 14, -4
 483 0272 83B0     		sub	sp, sp, #12
 484              		.cfi_def_cfa_offset 16
 485 0274 0190     		str	r0, [sp, #4]
 486              		.loc 1 365 0
 487 0276 019B     		ldr	r3, [sp, #4]
 488 0278 1B68     		ldr	r3, [r3]
 489 027a 1846     		mov	r0, r3
 490 027c 0021     		movs	r1, #0
 491 027e 0022     		movs	r2, #0
 492 0280 FFF7FEFF 		bl	TIM_CCxChannelCmd
 493              		.loc 1 368 0
 494 0284 019B     		ldr	r3, [sp, #4]
 495 0286 1B68     		ldr	r3, [r3]
 496 0288 019A     		ldr	r2, [sp, #4]
 497 028a 1268     		ldr	r2, [r2]
 498 028c D268     		ldr	r2, [r2, #12]
 499 028e 22F00202 		bic	r2, r2, #2
 500 0292 DA60     		str	r2, [r3, #12]
 501              		.loc 1 371 0
 502 0294 019B     		ldr	r3, [sp, #4]
 503 0296 1B68     		ldr	r3, [r3]
 504 0298 1A6A     		ldr	r2, [r3, #32]
 505 029a 41F21113 		movw	r3, #4369
 506 029e 1340     		ands	r3, r3, r2
 507 02a0 002B     		cmp	r3, #0
 508 02a2 0FD1     		bne	.L19
 509              		.loc 1 371 0 is_stmt 0 discriminator 1
 510 02a4 019B     		ldr	r3, [sp, #4]
 511 02a6 1B68     		ldr	r3, [r3]
ARM GAS  /tmp/ccUiHCLc.s 			page 10


 512 02a8 1A6A     		ldr	r2, [r3, #32]
 513 02aa 40F24443 		movw	r3, #1092
 514 02ae 1340     		ands	r3, r3, r2
 515 02b0 002B     		cmp	r3, #0
 516 02b2 07D1     		bne	.L19
 517 02b4 019B     		ldr	r3, [sp, #4]
 518 02b6 1B68     		ldr	r3, [r3]
 519 02b8 019A     		ldr	r2, [sp, #4]
 520 02ba 1268     		ldr	r2, [r2]
 521 02bc 1268     		ldr	r2, [r2]
 522 02be 22F00102 		bic	r2, r2, #1
 523 02c2 1A60     		str	r2, [r3]
 524              	.L19:
 525              		.loc 1 374 0 is_stmt 1
 526 02c4 0023     		movs	r3, #0
 527              		.loc 1 375 0
 528 02c6 1846     		mov	r0, r3
 529 02c8 03B0     		add	sp, sp, #12
 530              		@ sp needed
 531 02ca 5DF804FB 		ldr	pc, [sp], #4
 532              		.cfi_endproc
 533              	.LFE132:
 534              		.size	HAL_TIMEx_HallSensor_Stop_IT, .-HAL_TIMEx_HallSensor_Stop_IT
 535 02ce 00BF     		.align	2
 536              		.p2align 4,,15
 537              		.global	HAL_TIMEx_HallSensor_Start_DMA
 538              		.thumb
 539              		.thumb_func
 540              		.type	HAL_TIMEx_HallSensor_Start_DMA, %function
 541              	HAL_TIMEx_HallSensor_Start_DMA:
 542              	.LFB133:
 543              		.loc 1 385 0
 544              		.cfi_startproc
 545              		@ args = 0, pretend = 0, frame = 16
 546              		@ frame_needed = 0, uses_anonymous_args = 0
 547 02d0 00B5     		push	{lr}
 548              		.cfi_def_cfa_offset 4
 549              		.cfi_offset 14, -4
 550 02d2 85B0     		sub	sp, sp, #20
 551              		.cfi_def_cfa_offset 24
 552 02d4 0390     		str	r0, [sp, #12]
 553 02d6 0291     		str	r1, [sp, #8]
 554 02d8 1346     		mov	r3, r2
 555 02da ADF80630 		strh	r3, [sp, #6]	@ movhi
 556              		.loc 1 389 0
 557 02de 039B     		ldr	r3, [sp, #12]
 558 02e0 93F83930 		ldrb	r3, [r3, #57]
 559 02e4 DBB2     		uxtb	r3, r3
 560 02e6 022B     		cmp	r3, #2
 561 02e8 01D1     		bne	.L22
 562              		.loc 1 391 0
 563 02ea 0223     		movs	r3, #2
 564 02ec 3DE0     		b	.L23
 565              	.L22:
 566              		.loc 1 393 0
 567 02ee 039B     		ldr	r3, [sp, #12]
 568 02f0 93F83930 		ldrb	r3, [r3, #57]
ARM GAS  /tmp/ccUiHCLc.s 			page 11


 569 02f4 DBB2     		uxtb	r3, r3
 570 02f6 012B     		cmp	r3, #1
 571 02f8 0CD1     		bne	.L24
 572              		.loc 1 395 0
 573 02fa 029B     		ldr	r3, [sp, #8]
 574 02fc 002B     		cmp	r3, #0
 575 02fe 05D1     		bne	.L25
 576              		.loc 1 395 0 is_stmt 0 discriminator 1
 577 0300 BDF80630 		ldrh	r3, [sp, #6]
 578 0304 002B     		cmp	r3, #0
 579 0306 01D0     		beq	.L25
 580              		.loc 1 397 0 is_stmt 1
 581 0308 0123     		movs	r3, #1
 582 030a 2EE0     		b	.L23
 583              	.L25:
 584              		.loc 1 401 0
 585 030c 039B     		ldr	r3, [sp, #12]
 586 030e 0222     		movs	r2, #2
 587 0310 83F83920 		strb	r2, [r3, #57]
 588              	.L24:
 589              		.loc 1 406 0
 590 0314 039B     		ldr	r3, [sp, #12]
 591 0316 1B68     		ldr	r3, [r3]
 592 0318 1846     		mov	r0, r3
 593 031a 0021     		movs	r1, #0
 594 031c 0122     		movs	r2, #1
 595 031e FFF7FEFF 		bl	TIM_CCxChannelCmd
 596              		.loc 1 409 0
 597 0322 039B     		ldr	r3, [sp, #12]
 598 0324 1B6A     		ldr	r3, [r3, #32]
 599 0326 134A     		ldr	r2, .L26
 600 0328 DA62     		str	r2, [r3, #44]
 601              		.loc 1 411 0
 602 032a 039B     		ldr	r3, [sp, #12]
 603 032c 1B6A     		ldr	r3, [r3, #32]
 604 032e 124A     		ldr	r2, .L26+4
 605 0330 5A63     		str	r2, [r3, #52]
 606              		.loc 1 414 0
 607 0332 039B     		ldr	r3, [sp, #12]
 608 0334 186A     		ldr	r0, [r3, #32]
 609 0336 039B     		ldr	r3, [sp, #12]
 610 0338 1B68     		ldr	r3, [r3]
 611 033a 3433     		adds	r3, r3, #52
 612 033c 1946     		mov	r1, r3
 613 033e 029A     		ldr	r2, [sp, #8]
 614 0340 BDF80630 		ldrh	r3, [sp, #6]
 615 0344 FFF7FEFF 		bl	HAL_DMA_Start_IT
 616              		.loc 1 417 0
 617 0348 039B     		ldr	r3, [sp, #12]
 618 034a 1B68     		ldr	r3, [r3]
 619 034c 039A     		ldr	r2, [sp, #12]
 620 034e 1268     		ldr	r2, [r2]
 621 0350 D268     		ldr	r2, [r2, #12]
 622 0352 42F40072 		orr	r2, r2, #512
 623 0356 DA60     		str	r2, [r3, #12]
 624              		.loc 1 420 0
 625 0358 039B     		ldr	r3, [sp, #12]
ARM GAS  /tmp/ccUiHCLc.s 			page 12


 626 035a 1B68     		ldr	r3, [r3]
 627 035c 039A     		ldr	r2, [sp, #12]
 628 035e 1268     		ldr	r2, [r2]
 629 0360 1268     		ldr	r2, [r2]
 630 0362 42F00102 		orr	r2, r2, #1
 631 0366 1A60     		str	r2, [r3]
 632              		.loc 1 423 0
 633 0368 0023     		movs	r3, #0
 634              	.L23:
 635              		.loc 1 424 0
 636 036a 1846     		mov	r0, r3
 637 036c 05B0     		add	sp, sp, #20
 638              		@ sp needed
 639 036e 5DF804FB 		ldr	pc, [sp], #4
 640              	.L27:
 641 0372 00BF     		.align	2
 642              	.L26:
 643 0374 00000000 		.word	TIM_DMACaptureCplt
 644 0378 00000000 		.word	TIM_DMAError
 645              		.cfi_endproc
 646              	.LFE133:
 647              		.size	HAL_TIMEx_HallSensor_Start_DMA, .-HAL_TIMEx_HallSensor_Start_DMA
 648              		.align	2
 649 037c AFF30080 		.p2align 4,,15
 650              		.global	HAL_TIMEx_HallSensor_Stop_DMA
 651              		.thumb
 652              		.thumb_func
 653              		.type	HAL_TIMEx_HallSensor_Stop_DMA, %function
 654              	HAL_TIMEx_HallSensor_Stop_DMA:
 655              	.LFB134:
 656              		.loc 1 432 0
 657              		.cfi_startproc
 658              		@ args = 0, pretend = 0, frame = 8
 659              		@ frame_needed = 0, uses_anonymous_args = 0
 660 0380 00B5     		push	{lr}
 661              		.cfi_def_cfa_offset 4
 662              		.cfi_offset 14, -4
 663 0382 83B0     		sub	sp, sp, #12
 664              		.cfi_def_cfa_offset 16
 665 0384 0190     		str	r0, [sp, #4]
 666              		.loc 1 438 0
 667 0386 019B     		ldr	r3, [sp, #4]
 668 0388 1B68     		ldr	r3, [r3]
 669 038a 1846     		mov	r0, r3
 670 038c 0021     		movs	r1, #0
 671 038e 0022     		movs	r2, #0
 672 0390 FFF7FEFF 		bl	TIM_CCxChannelCmd
 673              		.loc 1 442 0
 674 0394 019B     		ldr	r3, [sp, #4]
 675 0396 1B68     		ldr	r3, [r3]
 676 0398 019A     		ldr	r2, [sp, #4]
 677 039a 1268     		ldr	r2, [r2]
 678 039c D268     		ldr	r2, [r2, #12]
 679 039e 22F40072 		bic	r2, r2, #512
 680 03a2 DA60     		str	r2, [r3, #12]
 681              		.loc 1 445 0
 682 03a4 019B     		ldr	r3, [sp, #4]
ARM GAS  /tmp/ccUiHCLc.s 			page 13


 683 03a6 1B68     		ldr	r3, [r3]
 684 03a8 1A6A     		ldr	r2, [r3, #32]
 685 03aa 41F21113 		movw	r3, #4369
 686 03ae 1340     		ands	r3, r3, r2
 687 03b0 002B     		cmp	r3, #0
 688 03b2 0FD1     		bne	.L29
 689              		.loc 1 445 0 is_stmt 0 discriminator 1
 690 03b4 019B     		ldr	r3, [sp, #4]
 691 03b6 1B68     		ldr	r3, [r3]
 692 03b8 1A6A     		ldr	r2, [r3, #32]
 693 03ba 40F24443 		movw	r3, #1092
 694 03be 1340     		ands	r3, r3, r2
 695 03c0 002B     		cmp	r3, #0
 696 03c2 07D1     		bne	.L29
 697 03c4 019B     		ldr	r3, [sp, #4]
 698 03c6 1B68     		ldr	r3, [r3]
 699 03c8 019A     		ldr	r2, [sp, #4]
 700 03ca 1268     		ldr	r2, [r2]
 701 03cc 1268     		ldr	r2, [r2]
 702 03ce 22F00102 		bic	r2, r2, #1
 703 03d2 1A60     		str	r2, [r3]
 704              	.L29:
 705              		.loc 1 448 0 is_stmt 1
 706 03d4 0023     		movs	r3, #0
 707              		.loc 1 449 0
 708 03d6 1846     		mov	r0, r3
 709 03d8 03B0     		add	sp, sp, #12
 710              		@ sp needed
 711 03da 5DF804FB 		ldr	pc, [sp], #4
 712              		.cfi_endproc
 713              	.LFE134:
 714              		.size	HAL_TIMEx_HallSensor_Stop_DMA, .-HAL_TIMEx_HallSensor_Stop_DMA
 715 03de 00BF     		.align	2
 716              		.p2align 4,,15
 717              		.global	HAL_TIMEx_OCN_Start
 718              		.thumb
 719              		.thumb_func
 720              		.type	HAL_TIMEx_OCN_Start, %function
 721              	HAL_TIMEx_OCN_Start:
 722              	.LFB135:
 723              		.loc 1 488 0
 724              		.cfi_startproc
 725              		@ args = 0, pretend = 0, frame = 8
 726              		@ frame_needed = 0, uses_anonymous_args = 0
 727 03e0 00B5     		push	{lr}
 728              		.cfi_def_cfa_offset 4
 729              		.cfi_offset 14, -4
 730 03e2 83B0     		sub	sp, sp, #12
 731              		.cfi_def_cfa_offset 16
 732 03e4 0190     		str	r0, [sp, #4]
 733 03e6 0091     		str	r1, [sp]
 734              		.loc 1 493 0
 735 03e8 019B     		ldr	r3, [sp, #4]
 736 03ea 1B68     		ldr	r3, [r3]
 737 03ec 1846     		mov	r0, r3
 738 03ee 0099     		ldr	r1, [sp]
 739 03f0 0422     		movs	r2, #4
ARM GAS  /tmp/ccUiHCLc.s 			page 14


 740 03f2 01F0D5F9 		bl	TIM_CCxNChannelCmd
 741              		.loc 1 496 0
 742 03f6 019B     		ldr	r3, [sp, #4]
 743 03f8 1B68     		ldr	r3, [r3]
 744 03fa 019A     		ldr	r2, [sp, #4]
 745 03fc 1268     		ldr	r2, [r2]
 746 03fe 526C     		ldr	r2, [r2, #68]
 747 0400 42F40042 		orr	r2, r2, #32768
 748 0404 5A64     		str	r2, [r3, #68]
 749              		.loc 1 499 0
 750 0406 019B     		ldr	r3, [sp, #4]
 751 0408 1B68     		ldr	r3, [r3]
 752 040a 019A     		ldr	r2, [sp, #4]
 753 040c 1268     		ldr	r2, [r2]
 754 040e 1268     		ldr	r2, [r2]
 755 0410 42F00102 		orr	r2, r2, #1
 756 0414 1A60     		str	r2, [r3]
 757              		.loc 1 502 0
 758 0416 0023     		movs	r3, #0
 759              		.loc 1 503 0
 760 0418 1846     		mov	r0, r3
 761 041a 03B0     		add	sp, sp, #12
 762              		@ sp needed
 763 041c 5DF804FB 		ldr	pc, [sp], #4
 764              		.cfi_endproc
 765              	.LFE135:
 766              		.size	HAL_TIMEx_OCN_Start, .-HAL_TIMEx_OCN_Start
 767              		.align	2
 768              		.p2align 4,,15
 769              		.global	HAL_TIMEx_OCN_Stop
 770              		.thumb
 771              		.thumb_func
 772              		.type	HAL_TIMEx_OCN_Stop, %function
 773              	HAL_TIMEx_OCN_Stop:
 774              	.LFB136:
 775              		.loc 1 518 0
 776              		.cfi_startproc
 777              		@ args = 0, pretend = 0, frame = 8
 778              		@ frame_needed = 0, uses_anonymous_args = 0
 779 0420 00B5     		push	{lr}
 780              		.cfi_def_cfa_offset 4
 781              		.cfi_offset 14, -4
 782 0422 83B0     		sub	sp, sp, #12
 783              		.cfi_def_cfa_offset 16
 784 0424 0190     		str	r0, [sp, #4]
 785 0426 0091     		str	r1, [sp]
 786              		.loc 1 523 0
 787 0428 019B     		ldr	r3, [sp, #4]
 788 042a 1B68     		ldr	r3, [r3]
 789 042c 1846     		mov	r0, r3
 790 042e 0099     		ldr	r1, [sp]
 791 0430 0022     		movs	r2, #0
 792 0432 01F0B5F9 		bl	TIM_CCxNChannelCmd
 793              		.loc 1 526 0
 794 0436 019B     		ldr	r3, [sp, #4]
 795 0438 1B68     		ldr	r3, [r3]
 796 043a 1A6A     		ldr	r2, [r3, #32]
ARM GAS  /tmp/ccUiHCLc.s 			page 15


 797 043c 41F21113 		movw	r3, #4369
 798 0440 1340     		ands	r3, r3, r2
 799 0442 002B     		cmp	r3, #0
 800 0444 0FD1     		bne	.L34
 801              		.loc 1 526 0 is_stmt 0 discriminator 1
 802 0446 019B     		ldr	r3, [sp, #4]
 803 0448 1B68     		ldr	r3, [r3]
 804 044a 1A6A     		ldr	r2, [r3, #32]
 805 044c 40F24443 		movw	r3, #1092
 806 0450 1340     		ands	r3, r3, r2
 807 0452 002B     		cmp	r3, #0
 808 0454 07D1     		bne	.L34
 809 0456 019B     		ldr	r3, [sp, #4]
 810 0458 1B68     		ldr	r3, [r3]
 811 045a 019A     		ldr	r2, [sp, #4]
 812 045c 1268     		ldr	r2, [r2]
 813 045e 526C     		ldr	r2, [r2, #68]
 814 0460 22F40042 		bic	r2, r2, #32768
 815 0464 5A64     		str	r2, [r3, #68]
 816              	.L34:
 817              		.loc 1 529 0 is_stmt 1
 818 0466 019B     		ldr	r3, [sp, #4]
 819 0468 1B68     		ldr	r3, [r3]
 820 046a 1A6A     		ldr	r2, [r3, #32]
 821 046c 41F21113 		movw	r3, #4369
 822 0470 1340     		ands	r3, r3, r2
 823 0472 002B     		cmp	r3, #0
 824 0474 0FD1     		bne	.L35
 825              		.loc 1 529 0 is_stmt 0 discriminator 1
 826 0476 019B     		ldr	r3, [sp, #4]
 827 0478 1B68     		ldr	r3, [r3]
 828 047a 1A6A     		ldr	r2, [r3, #32]
 829 047c 40F24443 		movw	r3, #1092
 830 0480 1340     		ands	r3, r3, r2
 831 0482 002B     		cmp	r3, #0
 832 0484 07D1     		bne	.L35
 833 0486 019B     		ldr	r3, [sp, #4]
 834 0488 1B68     		ldr	r3, [r3]
 835 048a 019A     		ldr	r2, [sp, #4]
 836 048c 1268     		ldr	r2, [r2]
 837 048e 1268     		ldr	r2, [r2]
 838 0490 22F00102 		bic	r2, r2, #1
 839 0494 1A60     		str	r2, [r3]
 840              	.L35:
 841              		.loc 1 532 0 is_stmt 1
 842 0496 0023     		movs	r3, #0
 843              		.loc 1 533 0
 844 0498 1846     		mov	r0, r3
 845 049a 03B0     		add	sp, sp, #12
 846              		@ sp needed
 847 049c 5DF804FB 		ldr	pc, [sp], #4
 848              		.cfi_endproc
 849              	.LFE136:
 850              		.size	HAL_TIMEx_OCN_Stop, .-HAL_TIMEx_OCN_Stop
 851              		.align	2
 852              		.p2align 4,,15
 853              		.global	HAL_TIMEx_OCN_Start_IT
ARM GAS  /tmp/ccUiHCLc.s 			page 16


 854              		.thumb
 855              		.thumb_func
 856              		.type	HAL_TIMEx_OCN_Start_IT, %function
 857              	HAL_TIMEx_OCN_Start_IT:
 858              	.LFB137:
 859              		.loc 1 548 0
 860              		.cfi_startproc
 861              		@ args = 0, pretend = 0, frame = 8
 862              		@ frame_needed = 0, uses_anonymous_args = 0
 863 04a0 00B5     		push	{lr}
 864              		.cfi_def_cfa_offset 4
 865              		.cfi_offset 14, -4
 866 04a2 83B0     		sub	sp, sp, #12
 867              		.cfi_def_cfa_offset 16
 868 04a4 0190     		str	r0, [sp, #4]
 869 04a6 0091     		str	r1, [sp]
 870              		.loc 1 552 0
 871 04a8 009B     		ldr	r3, [sp]
 872 04aa 0C2B     		cmp	r3, #12
 873 04ac 40D8     		bhi	.L46
 874 04ae 01A2     		adr	r2, .L40
 875 04b0 52F823F0 		ldr	pc, [r2, r3, lsl #2]
 876              		.p2align 2
 877              	.L40:
 878 04b4 E9040000 		.word	.L39+1
 879 04b8 31050000 		.word	.L46+1
 880 04bc 31050000 		.word	.L46+1
 881 04c0 31050000 		.word	.L46+1
 882 04c4 FB040000 		.word	.L41+1
 883 04c8 31050000 		.word	.L46+1
 884 04cc 31050000 		.word	.L46+1
 885 04d0 31050000 		.word	.L46+1
 886 04d4 0D050000 		.word	.L42+1
 887 04d8 31050000 		.word	.L46+1
 888 04dc 31050000 		.word	.L46+1
 889 04e0 31050000 		.word	.L46+1
 890 04e4 1F050000 		.word	.L43+1
 891              		.p2align 1
 892              	.L39:
 893              		.loc 1 557 0
 894 04e8 019B     		ldr	r3, [sp, #4]
 895 04ea 1B68     		ldr	r3, [r3]
 896 04ec 019A     		ldr	r2, [sp, #4]
 897 04ee 1268     		ldr	r2, [r2]
 898 04f0 D268     		ldr	r2, [r2, #12]
 899 04f2 42F00202 		orr	r2, r2, #2
 900 04f6 DA60     		str	r2, [r3, #12]
 901              		.loc 1 559 0
 902 04f8 1BE0     		b	.L44
 903              	.L41:
 904              		.loc 1 564 0
 905 04fa 019B     		ldr	r3, [sp, #4]
 906 04fc 1B68     		ldr	r3, [r3]
 907 04fe 019A     		ldr	r2, [sp, #4]
 908 0500 1268     		ldr	r2, [r2]
 909 0502 D268     		ldr	r2, [r2, #12]
 910 0504 42F00402 		orr	r2, r2, #4
ARM GAS  /tmp/ccUiHCLc.s 			page 17


 911 0508 DA60     		str	r2, [r3, #12]
 912              		.loc 1 566 0
 913 050a 12E0     		b	.L44
 914              	.L42:
 915              		.loc 1 571 0
 916 050c 019B     		ldr	r3, [sp, #4]
 917 050e 1B68     		ldr	r3, [r3]
 918 0510 019A     		ldr	r2, [sp, #4]
 919 0512 1268     		ldr	r2, [r2]
 920 0514 D268     		ldr	r2, [r2, #12]
 921 0516 42F00802 		orr	r2, r2, #8
 922 051a DA60     		str	r2, [r3, #12]
 923              		.loc 1 573 0
 924 051c 09E0     		b	.L44
 925              	.L43:
 926              		.loc 1 578 0
 927 051e 019B     		ldr	r3, [sp, #4]
 928 0520 1B68     		ldr	r3, [r3]
 929 0522 019A     		ldr	r2, [sp, #4]
 930 0524 1268     		ldr	r2, [r2]
 931 0526 D268     		ldr	r2, [r2, #12]
 932 0528 42F01002 		orr	r2, r2, #16
 933 052c DA60     		str	r2, [r3, #12]
 934              		.loc 1 580 0
 935 052e 00E0     		b	.L44
 936              	.L46:
 937              		.loc 1 583 0
 938 0530 00BF     		nop
 939              	.L44:
 940              		.loc 1 587 0
 941 0532 019B     		ldr	r3, [sp, #4]
 942 0534 1B68     		ldr	r3, [r3]
 943 0536 019A     		ldr	r2, [sp, #4]
 944 0538 1268     		ldr	r2, [r2]
 945 053a D268     		ldr	r2, [r2, #12]
 946 053c 42F08002 		orr	r2, r2, #128
 947 0540 DA60     		str	r2, [r3, #12]
 948              		.loc 1 590 0
 949 0542 019B     		ldr	r3, [sp, #4]
 950 0544 1B68     		ldr	r3, [r3]
 951 0546 1846     		mov	r0, r3
 952 0548 0099     		ldr	r1, [sp]
 953 054a 0422     		movs	r2, #4
 954 054c 01F028F9 		bl	TIM_CCxNChannelCmd
 955              		.loc 1 593 0
 956 0550 019B     		ldr	r3, [sp, #4]
 957 0552 1B68     		ldr	r3, [r3]
 958 0554 019A     		ldr	r2, [sp, #4]
 959 0556 1268     		ldr	r2, [r2]
 960 0558 526C     		ldr	r2, [r2, #68]
 961 055a 42F40042 		orr	r2, r2, #32768
 962 055e 5A64     		str	r2, [r3, #68]
 963              		.loc 1 596 0
 964 0560 019B     		ldr	r3, [sp, #4]
 965 0562 1B68     		ldr	r3, [r3]
 966 0564 019A     		ldr	r2, [sp, #4]
 967 0566 1268     		ldr	r2, [r2]
ARM GAS  /tmp/ccUiHCLc.s 			page 18


 968 0568 1268     		ldr	r2, [r2]
 969 056a 42F00102 		orr	r2, r2, #1
 970 056e 1A60     		str	r2, [r3]
 971              		.loc 1 599 0
 972 0570 0023     		movs	r3, #0
 973              		.loc 1 600 0
 974 0572 1846     		mov	r0, r3
 975 0574 03B0     		add	sp, sp, #12
 976              		@ sp needed
 977 0576 5DF804FB 		ldr	pc, [sp], #4
 978              		.cfi_endproc
 979              	.LFE137:
 980              		.size	HAL_TIMEx_OCN_Start_IT, .-HAL_TIMEx_OCN_Start_IT
 981 057a 00BF     		.align	2
 982 057c AFF30080 		.p2align 4,,15
 983              		.global	HAL_TIMEx_OCN_Stop_IT
 984              		.thumb
 985              		.thumb_func
 986              		.type	HAL_TIMEx_OCN_Stop_IT, %function
 987              	HAL_TIMEx_OCN_Stop_IT:
 988              	.LFB138:
 989              		.loc 1 615 0
 990              		.cfi_startproc
 991              		@ args = 0, pretend = 0, frame = 16
 992              		@ frame_needed = 0, uses_anonymous_args = 0
 993 0580 00B5     		push	{lr}
 994              		.cfi_def_cfa_offset 4
 995              		.cfi_offset 14, -4
 996 0582 85B0     		sub	sp, sp, #20
 997              		.cfi_def_cfa_offset 24
 998 0584 0190     		str	r0, [sp, #4]
 999 0586 0091     		str	r1, [sp]
 1000              		.loc 1 616 0
 1001 0588 0023     		movs	r3, #0
 1002 058a 0393     		str	r3, [sp, #12]
 1003              		.loc 1 621 0
 1004 058c 009B     		ldr	r3, [sp]
 1005 058e 0C2B     		cmp	r3, #12
 1006 0590 40D8     		bhi	.L59
 1007 0592 01A2     		adr	r2, .L50
 1008 0594 52F823F0 		ldr	pc, [r2, r3, lsl #2]
 1009              		.p2align 2
 1010              	.L50:
 1011 0598 CD050000 		.word	.L49+1
 1012 059c 15060000 		.word	.L59+1
 1013 05a0 15060000 		.word	.L59+1
 1014 05a4 15060000 		.word	.L59+1
 1015 05a8 DF050000 		.word	.L51+1
 1016 05ac 15060000 		.word	.L59+1
 1017 05b0 15060000 		.word	.L59+1
 1018 05b4 15060000 		.word	.L59+1
 1019 05b8 F1050000 		.word	.L52+1
 1020 05bc 15060000 		.word	.L59+1
 1021 05c0 15060000 		.word	.L59+1
 1022 05c4 15060000 		.word	.L59+1
 1023 05c8 03060000 		.word	.L53+1
 1024              		.p2align 1
ARM GAS  /tmp/ccUiHCLc.s 			page 19


 1025              	.L49:
 1026              		.loc 1 626 0
 1027 05cc 019B     		ldr	r3, [sp, #4]
 1028 05ce 1B68     		ldr	r3, [r3]
 1029 05d0 019A     		ldr	r2, [sp, #4]
 1030 05d2 1268     		ldr	r2, [r2]
 1031 05d4 D268     		ldr	r2, [r2, #12]
 1032 05d6 22F00202 		bic	r2, r2, #2
 1033 05da DA60     		str	r2, [r3, #12]
 1034              		.loc 1 628 0
 1035 05dc 1BE0     		b	.L54
 1036              	.L51:
 1037              		.loc 1 633 0
 1038 05de 019B     		ldr	r3, [sp, #4]
 1039 05e0 1B68     		ldr	r3, [r3]
 1040 05e2 019A     		ldr	r2, [sp, #4]
 1041 05e4 1268     		ldr	r2, [r2]
 1042 05e6 D268     		ldr	r2, [r2, #12]
 1043 05e8 22F00402 		bic	r2, r2, #4
 1044 05ec DA60     		str	r2, [r3, #12]
 1045              		.loc 1 635 0
 1046 05ee 12E0     		b	.L54
 1047              	.L52:
 1048              		.loc 1 640 0
 1049 05f0 019B     		ldr	r3, [sp, #4]
 1050 05f2 1B68     		ldr	r3, [r3]
 1051 05f4 019A     		ldr	r2, [sp, #4]
 1052 05f6 1268     		ldr	r2, [r2]
 1053 05f8 D268     		ldr	r2, [r2, #12]
 1054 05fa 22F00802 		bic	r2, r2, #8
 1055 05fe DA60     		str	r2, [r3, #12]
 1056              		.loc 1 642 0
 1057 0600 09E0     		b	.L54
 1058              	.L53:
 1059              		.loc 1 647 0
 1060 0602 019B     		ldr	r3, [sp, #4]
 1061 0604 1B68     		ldr	r3, [r3]
 1062 0606 019A     		ldr	r2, [sp, #4]
 1063 0608 1268     		ldr	r2, [r2]
 1064 060a D268     		ldr	r2, [r2, #12]
 1065 060c 22F01002 		bic	r2, r2, #16
 1066 0610 DA60     		str	r2, [r3, #12]
 1067              		.loc 1 649 0
 1068 0612 00E0     		b	.L54
 1069              	.L59:
 1070              		.loc 1 652 0
 1071 0614 00BF     		nop
 1072              	.L54:
 1073              		.loc 1 656 0
 1074 0616 019B     		ldr	r3, [sp, #4]
 1075 0618 1B68     		ldr	r3, [r3]
 1076 061a 1846     		mov	r0, r3
 1077 061c 0099     		ldr	r1, [sp]
 1078 061e 0022     		movs	r2, #0
 1079 0620 01F0BEF8 		bl	TIM_CCxNChannelCmd
 1080              		.loc 1 659 0
 1081 0624 019B     		ldr	r3, [sp, #4]
ARM GAS  /tmp/ccUiHCLc.s 			page 20


 1082 0626 1B68     		ldr	r3, [r3]
 1083 0628 1B6A     		ldr	r3, [r3, #32]
 1084 062a 0393     		str	r3, [sp, #12]
 1085              		.loc 1 660 0
 1086 062c 039A     		ldr	r2, [sp, #12]
 1087 062e 40F24443 		movw	r3, #1092
 1088 0632 1340     		ands	r3, r3, r2
 1089 0634 002B     		cmp	r3, #0
 1090 0636 07D1     		bne	.L55
 1091              		.loc 1 662 0
 1092 0638 019B     		ldr	r3, [sp, #4]
 1093 063a 1B68     		ldr	r3, [r3]
 1094 063c 019A     		ldr	r2, [sp, #4]
 1095 063e 1268     		ldr	r2, [r2]
 1096 0640 D268     		ldr	r2, [r2, #12]
 1097 0642 22F08002 		bic	r2, r2, #128
 1098 0646 DA60     		str	r2, [r3, #12]
 1099              	.L55:
 1100              		.loc 1 666 0
 1101 0648 019B     		ldr	r3, [sp, #4]
 1102 064a 1B68     		ldr	r3, [r3]
 1103 064c 1A6A     		ldr	r2, [r3, #32]
 1104 064e 41F21113 		movw	r3, #4369
 1105 0652 1340     		ands	r3, r3, r2
 1106 0654 002B     		cmp	r3, #0
 1107 0656 0FD1     		bne	.L56
 1108              		.loc 1 666 0 is_stmt 0 discriminator 1
 1109 0658 019B     		ldr	r3, [sp, #4]
 1110 065a 1B68     		ldr	r3, [r3]
 1111 065c 1A6A     		ldr	r2, [r3, #32]
 1112 065e 40F24443 		movw	r3, #1092
 1113 0662 1340     		ands	r3, r3, r2
 1114 0664 002B     		cmp	r3, #0
 1115 0666 07D1     		bne	.L56
 1116 0668 019B     		ldr	r3, [sp, #4]
 1117 066a 1B68     		ldr	r3, [r3]
 1118 066c 019A     		ldr	r2, [sp, #4]
 1119 066e 1268     		ldr	r2, [r2]
 1120 0670 526C     		ldr	r2, [r2, #68]
 1121 0672 22F40042 		bic	r2, r2, #32768
 1122 0676 5A64     		str	r2, [r3, #68]
 1123              	.L56:
 1124              		.loc 1 669 0 is_stmt 1
 1125 0678 019B     		ldr	r3, [sp, #4]
 1126 067a 1B68     		ldr	r3, [r3]
 1127 067c 1A6A     		ldr	r2, [r3, #32]
 1128 067e 41F21113 		movw	r3, #4369
 1129 0682 1340     		ands	r3, r3, r2
 1130 0684 002B     		cmp	r3, #0
 1131 0686 0FD1     		bne	.L57
 1132              		.loc 1 669 0 is_stmt 0 discriminator 1
 1133 0688 019B     		ldr	r3, [sp, #4]
 1134 068a 1B68     		ldr	r3, [r3]
 1135 068c 1A6A     		ldr	r2, [r3, #32]
 1136 068e 40F24443 		movw	r3, #1092
 1137 0692 1340     		ands	r3, r3, r2
 1138 0694 002B     		cmp	r3, #0
ARM GAS  /tmp/ccUiHCLc.s 			page 21


 1139 0696 07D1     		bne	.L57
 1140 0698 019B     		ldr	r3, [sp, #4]
 1141 069a 1B68     		ldr	r3, [r3]
 1142 069c 019A     		ldr	r2, [sp, #4]
 1143 069e 1268     		ldr	r2, [r2]
 1144 06a0 1268     		ldr	r2, [r2]
 1145 06a2 22F00102 		bic	r2, r2, #1
 1146 06a6 1A60     		str	r2, [r3]
 1147              	.L57:
 1148              		.loc 1 672 0 is_stmt 1
 1149 06a8 0023     		movs	r3, #0
 1150              		.loc 1 673 0
 1151 06aa 1846     		mov	r0, r3
 1152 06ac 05B0     		add	sp, sp, #20
 1153              		@ sp needed
 1154 06ae 5DF804FB 		ldr	pc, [sp], #4
 1155              		.cfi_endproc
 1156              	.LFE138:
 1157              		.size	HAL_TIMEx_OCN_Stop_IT, .-HAL_TIMEx_OCN_Stop_IT
 1158 06b2 00BF     		.align	2
 1159 06b4 AFF30080 		.p2align 4,,15
 1159      AFF30080 
 1159      AFF30080 
 1160              		.global	HAL_TIMEx_OCN_Start_DMA
 1161              		.thumb
 1162              		.thumb_func
 1163              		.type	HAL_TIMEx_OCN_Start_DMA, %function
 1164              	HAL_TIMEx_OCN_Start_DMA:
 1165              	.LFB139:
 1166              		.loc 1 690 0
 1167              		.cfi_startproc
 1168              		@ args = 0, pretend = 0, frame = 16
 1169              		@ frame_needed = 0, uses_anonymous_args = 0
 1170 06c0 00B5     		push	{lr}
 1171              		.cfi_def_cfa_offset 4
 1172              		.cfi_offset 14, -4
 1173 06c2 85B0     		sub	sp, sp, #20
 1174              		.cfi_def_cfa_offset 24
 1175 06c4 0390     		str	r0, [sp, #12]
 1176 06c6 0291     		str	r1, [sp, #8]
 1177 06c8 0192     		str	r2, [sp, #4]
 1178 06ca ADF80230 		strh	r3, [sp, #2]	@ movhi
 1179              		.loc 1 694 0
 1180 06ce 039B     		ldr	r3, [sp, #12]
 1181 06d0 93F83930 		ldrb	r3, [r3, #57]
 1182 06d4 DBB2     		uxtb	r3, r3
 1183 06d6 022B     		cmp	r3, #2
 1184 06d8 01D1     		bne	.L61
 1185              		.loc 1 696 0
 1186 06da 0223     		movs	r3, #2
 1187 06dc BDE0     		b	.L62
 1188              	.L61:
 1189              		.loc 1 698 0
 1190 06de 039B     		ldr	r3, [sp, #12]
 1191 06e0 93F83930 		ldrb	r3, [r3, #57]
 1192 06e4 DBB2     		uxtb	r3, r3
 1193 06e6 012B     		cmp	r3, #1
ARM GAS  /tmp/ccUiHCLc.s 			page 22


 1194 06e8 0CD1     		bne	.L63
 1195              		.loc 1 700 0
 1196 06ea 019B     		ldr	r3, [sp, #4]
 1197 06ec 002B     		cmp	r3, #0
 1198 06ee 05D1     		bne	.L64
 1199              		.loc 1 700 0 is_stmt 0 discriminator 1
 1200 06f0 BDF80230 		ldrh	r3, [sp, #2]
 1201 06f4 002B     		cmp	r3, #0
 1202 06f6 01D0     		beq	.L64
 1203              		.loc 1 702 0 is_stmt 1
 1204 06f8 0123     		movs	r3, #1
 1205 06fa AEE0     		b	.L62
 1206              	.L64:
 1207              		.loc 1 706 0
 1208 06fc 039B     		ldr	r3, [sp, #12]
 1209 06fe 0222     		movs	r2, #2
 1210 0700 83F83920 		strb	r2, [r3, #57]
 1211              	.L63:
 1212              		.loc 1 709 0
 1213 0704 029B     		ldr	r3, [sp, #8]
 1214 0706 0C2B     		cmp	r3, #12
 1215 0708 00F28E80 		bhi	.L72
 1216 070c 01A2     		adr	r2, .L67
 1217 070e 52F823F0 		ldr	pc, [r2, r3, lsl #2]
 1218 0712 00BF     		.p2align 2
 1219              	.L67:
 1220 0714 49070000 		.word	.L66+1
 1221 0718 29080000 		.word	.L72+1
 1222 071c 29080000 		.word	.L72+1
 1223 0720 29080000 		.word	.L72+1
 1224 0724 81070000 		.word	.L68+1
 1225 0728 29080000 		.word	.L72+1
 1226 072c 29080000 		.word	.L72+1
 1227 0730 29080000 		.word	.L72+1
 1228 0734 B9070000 		.word	.L69+1
 1229 0738 29080000 		.word	.L72+1
 1230 073c 29080000 		.word	.L72+1
 1231 0740 29080000 		.word	.L72+1
 1232 0744 F1070000 		.word	.L70+1
 1233              		.p2align 1
 1234              	.L66:
 1235              		.loc 1 714 0
 1236 0748 039B     		ldr	r3, [sp, #12]
 1237 074a 1B6A     		ldr	r3, [r3, #32]
 1238 074c 454A     		ldr	r2, .L73
 1239 074e DA62     		str	r2, [r3, #44]
 1240              		.loc 1 717 0
 1241 0750 039B     		ldr	r3, [sp, #12]
 1242 0752 1B6A     		ldr	r3, [r3, #32]
 1243 0754 444A     		ldr	r2, .L73+4
 1244 0756 5A63     		str	r2, [r3, #52]
 1245              		.loc 1 720 0
 1246 0758 039B     		ldr	r3, [sp, #12]
 1247 075a 186A     		ldr	r0, [r3, #32]
 1248 075c 0199     		ldr	r1, [sp, #4]
 1249 075e 039B     		ldr	r3, [sp, #12]
 1250 0760 1B68     		ldr	r3, [r3]
ARM GAS  /tmp/ccUiHCLc.s 			page 23


 1251 0762 3433     		adds	r3, r3, #52
 1252 0764 1A46     		mov	r2, r3
 1253 0766 BDF80230 		ldrh	r3, [sp, #2]
 1254 076a FFF7FEFF 		bl	HAL_DMA_Start_IT
 1255              		.loc 1 723 0
 1256 076e 039B     		ldr	r3, [sp, #12]
 1257 0770 1B68     		ldr	r3, [r3]
 1258 0772 039A     		ldr	r2, [sp, #12]
 1259 0774 1268     		ldr	r2, [r2]
 1260 0776 D268     		ldr	r2, [r2, #12]
 1261 0778 42F40072 		orr	r2, r2, #512
 1262 077c DA60     		str	r2, [r3, #12]
 1263              		.loc 1 725 0
 1264 077e 54E0     		b	.L71
 1265              	.L68:
 1266              		.loc 1 730 0
 1267 0780 039B     		ldr	r3, [sp, #12]
 1268 0782 5B6A     		ldr	r3, [r3, #36]
 1269 0784 374A     		ldr	r2, .L73
 1270 0786 DA62     		str	r2, [r3, #44]
 1271              		.loc 1 733 0
 1272 0788 039B     		ldr	r3, [sp, #12]
 1273 078a 5B6A     		ldr	r3, [r3, #36]
 1274 078c 364A     		ldr	r2, .L73+4
 1275 078e 5A63     		str	r2, [r3, #52]
 1276              		.loc 1 736 0
 1277 0790 039B     		ldr	r3, [sp, #12]
 1278 0792 586A     		ldr	r0, [r3, #36]
 1279 0794 0199     		ldr	r1, [sp, #4]
 1280 0796 039B     		ldr	r3, [sp, #12]
 1281 0798 1B68     		ldr	r3, [r3]
 1282 079a 3833     		adds	r3, r3, #56
 1283 079c 1A46     		mov	r2, r3
 1284 079e BDF80230 		ldrh	r3, [sp, #2]
 1285 07a2 FFF7FEFF 		bl	HAL_DMA_Start_IT
 1286              		.loc 1 739 0
 1287 07a6 039B     		ldr	r3, [sp, #12]
 1288 07a8 1B68     		ldr	r3, [r3]
 1289 07aa 039A     		ldr	r2, [sp, #12]
 1290 07ac 1268     		ldr	r2, [r2]
 1291 07ae D268     		ldr	r2, [r2, #12]
 1292 07b0 42F48062 		orr	r2, r2, #1024
 1293 07b4 DA60     		str	r2, [r3, #12]
 1294              		.loc 1 741 0
 1295 07b6 38E0     		b	.L71
 1296              	.L69:
 1297              		.loc 1 746 0
 1298 07b8 039B     		ldr	r3, [sp, #12]
 1299 07ba 9B6A     		ldr	r3, [r3, #40]
 1300 07bc 294A     		ldr	r2, .L73
 1301 07be DA62     		str	r2, [r3, #44]
 1302              		.loc 1 749 0
 1303 07c0 039B     		ldr	r3, [sp, #12]
 1304 07c2 9B6A     		ldr	r3, [r3, #40]
 1305 07c4 284A     		ldr	r2, .L73+4
 1306 07c6 5A63     		str	r2, [r3, #52]
 1307              		.loc 1 752 0
ARM GAS  /tmp/ccUiHCLc.s 			page 24


 1308 07c8 039B     		ldr	r3, [sp, #12]
 1309 07ca 986A     		ldr	r0, [r3, #40]
 1310 07cc 0199     		ldr	r1, [sp, #4]
 1311 07ce 039B     		ldr	r3, [sp, #12]
 1312 07d0 1B68     		ldr	r3, [r3]
 1313 07d2 3C33     		adds	r3, r3, #60
 1314 07d4 1A46     		mov	r2, r3
 1315 07d6 BDF80230 		ldrh	r3, [sp, #2]
 1316 07da FFF7FEFF 		bl	HAL_DMA_Start_IT
 1317              		.loc 1 755 0
 1318 07de 039B     		ldr	r3, [sp, #12]
 1319 07e0 1B68     		ldr	r3, [r3]
 1320 07e2 039A     		ldr	r2, [sp, #12]
 1321 07e4 1268     		ldr	r2, [r2]
 1322 07e6 D268     		ldr	r2, [r2, #12]
 1323 07e8 42F40062 		orr	r2, r2, #2048
 1324 07ec DA60     		str	r2, [r3, #12]
 1325              		.loc 1 757 0
 1326 07ee 1CE0     		b	.L71
 1327              	.L70:
 1328              		.loc 1 762 0
 1329 07f0 039B     		ldr	r3, [sp, #12]
 1330 07f2 DB6A     		ldr	r3, [r3, #44]
 1331 07f4 1B4A     		ldr	r2, .L73
 1332 07f6 DA62     		str	r2, [r3, #44]
 1333              		.loc 1 765 0
 1334 07f8 039B     		ldr	r3, [sp, #12]
 1335 07fa DB6A     		ldr	r3, [r3, #44]
 1336 07fc 1A4A     		ldr	r2, .L73+4
 1337 07fe 5A63     		str	r2, [r3, #52]
 1338              		.loc 1 768 0
 1339 0800 039B     		ldr	r3, [sp, #12]
 1340 0802 D86A     		ldr	r0, [r3, #44]
 1341 0804 0199     		ldr	r1, [sp, #4]
 1342 0806 039B     		ldr	r3, [sp, #12]
 1343 0808 1B68     		ldr	r3, [r3]
 1344 080a 4033     		adds	r3, r3, #64
 1345 080c 1A46     		mov	r2, r3
 1346 080e BDF80230 		ldrh	r3, [sp, #2]
 1347 0812 FFF7FEFF 		bl	HAL_DMA_Start_IT
 1348              		.loc 1 771 0
 1349 0816 039B     		ldr	r3, [sp, #12]
 1350 0818 1B68     		ldr	r3, [r3]
 1351 081a 039A     		ldr	r2, [sp, #12]
 1352 081c 1268     		ldr	r2, [r2]
 1353 081e D268     		ldr	r2, [r2, #12]
 1354 0820 42F48052 		orr	r2, r2, #4096
 1355 0824 DA60     		str	r2, [r3, #12]
 1356              		.loc 1 773 0
 1357 0826 00E0     		b	.L71
 1358              	.L72:
 1359              		.loc 1 776 0
 1360 0828 00BF     		nop
 1361              	.L71:
 1362              		.loc 1 780 0
 1363 082a 039B     		ldr	r3, [sp, #12]
 1364 082c 1B68     		ldr	r3, [r3]
ARM GAS  /tmp/ccUiHCLc.s 			page 25


 1365 082e 1846     		mov	r0, r3
 1366 0830 0299     		ldr	r1, [sp, #8]
 1367 0832 0422     		movs	r2, #4
 1368 0834 00F0B4FF 		bl	TIM_CCxNChannelCmd
 1369              		.loc 1 783 0
 1370 0838 039B     		ldr	r3, [sp, #12]
 1371 083a 1B68     		ldr	r3, [r3]
 1372 083c 039A     		ldr	r2, [sp, #12]
 1373 083e 1268     		ldr	r2, [r2]
 1374 0840 526C     		ldr	r2, [r2, #68]
 1375 0842 42F40042 		orr	r2, r2, #32768
 1376 0846 5A64     		str	r2, [r3, #68]
 1377              		.loc 1 786 0
 1378 0848 039B     		ldr	r3, [sp, #12]
 1379 084a 1B68     		ldr	r3, [r3]
 1380 084c 039A     		ldr	r2, [sp, #12]
 1381 084e 1268     		ldr	r2, [r2]
 1382 0850 1268     		ldr	r2, [r2]
 1383 0852 42F00102 		orr	r2, r2, #1
 1384 0856 1A60     		str	r2, [r3]
 1385              		.loc 1 789 0
 1386 0858 0023     		movs	r3, #0
 1387              	.L62:
 1388              		.loc 1 790 0
 1389 085a 1846     		mov	r0, r3
 1390 085c 05B0     		add	sp, sp, #20
 1391              		@ sp needed
 1392 085e 5DF804FB 		ldr	pc, [sp], #4
 1393              	.L74:
 1394 0862 00BF     		.align	2
 1395              	.L73:
 1396 0864 00000000 		.word	TIM_DMADelayPulseCplt
 1397 0868 00000000 		.word	TIM_DMAError
 1398              		.cfi_endproc
 1399              	.LFE139:
 1400              		.size	HAL_TIMEx_OCN_Start_DMA, .-HAL_TIMEx_OCN_Start_DMA
 1401              		.align	2
 1402 086c AFF30080 		.p2align 4,,15
 1403              		.global	HAL_TIMEx_OCN_Stop_DMA
 1404              		.thumb
 1405              		.thumb_func
 1406              		.type	HAL_TIMEx_OCN_Stop_DMA, %function
 1407              	HAL_TIMEx_OCN_Stop_DMA:
 1408              	.LFB140:
 1409              		.loc 1 805 0
 1410              		.cfi_startproc
 1411              		@ args = 0, pretend = 0, frame = 8
 1412              		@ frame_needed = 0, uses_anonymous_args = 0
 1413 0870 00B5     		push	{lr}
 1414              		.cfi_def_cfa_offset 4
 1415              		.cfi_offset 14, -4
 1416 0872 83B0     		sub	sp, sp, #12
 1417              		.cfi_def_cfa_offset 16
 1418 0874 0190     		str	r0, [sp, #4]
 1419 0876 0091     		str	r1, [sp]
 1420              		.loc 1 809 0
 1421 0878 009B     		ldr	r3, [sp]
ARM GAS  /tmp/ccUiHCLc.s 			page 26


 1422 087a 0C2B     		cmp	r3, #12
 1423 087c 40D8     		bhi	.L86
 1424 087e 01A2     		adr	r2, .L78
 1425 0880 52F823F0 		ldr	pc, [r2, r3, lsl #2]
 1426              		.p2align 2
 1427              	.L78:
 1428 0884 B9080000 		.word	.L77+1
 1429 0888 01090000 		.word	.L86+1
 1430 088c 01090000 		.word	.L86+1
 1431 0890 01090000 		.word	.L86+1
 1432 0894 CB080000 		.word	.L79+1
 1433 0898 01090000 		.word	.L86+1
 1434 089c 01090000 		.word	.L86+1
 1435 08a0 01090000 		.word	.L86+1
 1436 08a4 DD080000 		.word	.L80+1
 1437 08a8 01090000 		.word	.L86+1
 1438 08ac 01090000 		.word	.L86+1
 1439 08b0 01090000 		.word	.L86+1
 1440 08b4 EF080000 		.word	.L81+1
 1441              		.p2align 1
 1442              	.L77:
 1443              		.loc 1 814 0
 1444 08b8 019B     		ldr	r3, [sp, #4]
 1445 08ba 1B68     		ldr	r3, [r3]
 1446 08bc 019A     		ldr	r2, [sp, #4]
 1447 08be 1268     		ldr	r2, [r2]
 1448 08c0 D268     		ldr	r2, [r2, #12]
 1449 08c2 22F40072 		bic	r2, r2, #512
 1450 08c6 DA60     		str	r2, [r3, #12]
 1451              		.loc 1 816 0
 1452 08c8 1BE0     		b	.L82
 1453              	.L79:
 1454              		.loc 1 821 0
 1455 08ca 019B     		ldr	r3, [sp, #4]
 1456 08cc 1B68     		ldr	r3, [r3]
 1457 08ce 019A     		ldr	r2, [sp, #4]
 1458 08d0 1268     		ldr	r2, [r2]
 1459 08d2 D268     		ldr	r2, [r2, #12]
 1460 08d4 22F48062 		bic	r2, r2, #1024
 1461 08d8 DA60     		str	r2, [r3, #12]
 1462              		.loc 1 823 0
 1463 08da 12E0     		b	.L82
 1464              	.L80:
 1465              		.loc 1 828 0
 1466 08dc 019B     		ldr	r3, [sp, #4]
 1467 08de 1B68     		ldr	r3, [r3]
 1468 08e0 019A     		ldr	r2, [sp, #4]
 1469 08e2 1268     		ldr	r2, [r2]
 1470 08e4 D268     		ldr	r2, [r2, #12]
 1471 08e6 22F40062 		bic	r2, r2, #2048
 1472 08ea DA60     		str	r2, [r3, #12]
 1473              		.loc 1 830 0
 1474 08ec 09E0     		b	.L82
 1475              	.L81:
 1476              		.loc 1 835 0
 1477 08ee 019B     		ldr	r3, [sp, #4]
 1478 08f0 1B68     		ldr	r3, [r3]
ARM GAS  /tmp/ccUiHCLc.s 			page 27


 1479 08f2 019A     		ldr	r2, [sp, #4]
 1480 08f4 1268     		ldr	r2, [r2]
 1481 08f6 D268     		ldr	r2, [r2, #12]
 1482 08f8 22F48052 		bic	r2, r2, #4096
 1483 08fc DA60     		str	r2, [r3, #12]
 1484              		.loc 1 837 0
 1485 08fe 00E0     		b	.L82
 1486              	.L86:
 1487              		.loc 1 840 0
 1488 0900 00BF     		nop
 1489              	.L82:
 1490              		.loc 1 844 0
 1491 0902 019B     		ldr	r3, [sp, #4]
 1492 0904 1B68     		ldr	r3, [r3]
 1493 0906 1846     		mov	r0, r3
 1494 0908 0099     		ldr	r1, [sp]
 1495 090a 0022     		movs	r2, #0
 1496 090c 00F048FF 		bl	TIM_CCxNChannelCmd
 1497              		.loc 1 847 0
 1498 0910 019B     		ldr	r3, [sp, #4]
 1499 0912 1B68     		ldr	r3, [r3]
 1500 0914 1A6A     		ldr	r2, [r3, #32]
 1501 0916 41F21113 		movw	r3, #4369
 1502 091a 1340     		ands	r3, r3, r2
 1503 091c 002B     		cmp	r3, #0
 1504 091e 0FD1     		bne	.L83
 1505              		.loc 1 847 0 is_stmt 0 discriminator 1
 1506 0920 019B     		ldr	r3, [sp, #4]
 1507 0922 1B68     		ldr	r3, [r3]
 1508 0924 1A6A     		ldr	r2, [r3, #32]
 1509 0926 40F24443 		movw	r3, #1092
 1510 092a 1340     		ands	r3, r3, r2
 1511 092c 002B     		cmp	r3, #0
 1512 092e 07D1     		bne	.L83
 1513 0930 019B     		ldr	r3, [sp, #4]
 1514 0932 1B68     		ldr	r3, [r3]
 1515 0934 019A     		ldr	r2, [sp, #4]
 1516 0936 1268     		ldr	r2, [r2]
 1517 0938 526C     		ldr	r2, [r2, #68]
 1518 093a 22F40042 		bic	r2, r2, #32768
 1519 093e 5A64     		str	r2, [r3, #68]
 1520              	.L83:
 1521              		.loc 1 850 0 is_stmt 1
 1522 0940 019B     		ldr	r3, [sp, #4]
 1523 0942 1B68     		ldr	r3, [r3]
 1524 0944 1A6A     		ldr	r2, [r3, #32]
 1525 0946 41F21113 		movw	r3, #4369
 1526 094a 1340     		ands	r3, r3, r2
 1527 094c 002B     		cmp	r3, #0
 1528 094e 0FD1     		bne	.L84
 1529              		.loc 1 850 0 is_stmt 0 discriminator 1
 1530 0950 019B     		ldr	r3, [sp, #4]
 1531 0952 1B68     		ldr	r3, [r3]
 1532 0954 1A6A     		ldr	r2, [r3, #32]
 1533 0956 40F24443 		movw	r3, #1092
 1534 095a 1340     		ands	r3, r3, r2
 1535 095c 002B     		cmp	r3, #0
ARM GAS  /tmp/ccUiHCLc.s 			page 28


 1536 095e 07D1     		bne	.L84
 1537 0960 019B     		ldr	r3, [sp, #4]
 1538 0962 1B68     		ldr	r3, [r3]
 1539 0964 019A     		ldr	r2, [sp, #4]
 1540 0966 1268     		ldr	r2, [r2]
 1541 0968 1268     		ldr	r2, [r2]
 1542 096a 22F00102 		bic	r2, r2, #1
 1543 096e 1A60     		str	r2, [r3]
 1544              	.L84:
 1545              		.loc 1 853 0 is_stmt 1
 1546 0970 019B     		ldr	r3, [sp, #4]
 1547 0972 0122     		movs	r2, #1
 1548 0974 83F83920 		strb	r2, [r3, #57]
 1549              		.loc 1 856 0
 1550 0978 0023     		movs	r3, #0
 1551              		.loc 1 857 0
 1552 097a 1846     		mov	r0, r3
 1553 097c 03B0     		add	sp, sp, #12
 1554              		@ sp needed
 1555 097e 5DF804FB 		ldr	pc, [sp], #4
 1556              		.cfi_endproc
 1557              	.LFE140:
 1558              		.size	HAL_TIMEx_OCN_Stop_DMA, .-HAL_TIMEx_OCN_Stop_DMA
 1559 0982 00BF     		.align	2
 1560 0984 AFF30080 		.p2align 4,,15
 1560      AFF30080 
 1560      AFF30080 
 1561              		.global	HAL_TIMEx_PWMN_Start
 1562              		.thumb
 1563              		.thumb_func
 1564              		.type	HAL_TIMEx_PWMN_Start, %function
 1565              	HAL_TIMEx_PWMN_Start:
 1566              	.LFB141:
 1567              		.loc 1 905 0
 1568              		.cfi_startproc
 1569              		@ args = 0, pretend = 0, frame = 8
 1570              		@ frame_needed = 0, uses_anonymous_args = 0
 1571 0990 00B5     		push	{lr}
 1572              		.cfi_def_cfa_offset 4
 1573              		.cfi_offset 14, -4
 1574 0992 83B0     		sub	sp, sp, #12
 1575              		.cfi_def_cfa_offset 16
 1576 0994 0190     		str	r0, [sp, #4]
 1577 0996 0091     		str	r1, [sp]
 1578              		.loc 1 910 0
 1579 0998 019B     		ldr	r3, [sp, #4]
 1580 099a 1B68     		ldr	r3, [r3]
 1581 099c 1846     		mov	r0, r3
 1582 099e 0099     		ldr	r1, [sp]
 1583 09a0 0422     		movs	r2, #4
 1584 09a2 00F0FDFE 		bl	TIM_CCxNChannelCmd
 1585              		.loc 1 913 0
 1586 09a6 019B     		ldr	r3, [sp, #4]
 1587 09a8 1B68     		ldr	r3, [r3]
 1588 09aa 019A     		ldr	r2, [sp, #4]
 1589 09ac 1268     		ldr	r2, [r2]
 1590 09ae 526C     		ldr	r2, [r2, #68]
ARM GAS  /tmp/ccUiHCLc.s 			page 29


 1591 09b0 42F40042 		orr	r2, r2, #32768
 1592 09b4 5A64     		str	r2, [r3, #68]
 1593              		.loc 1 916 0
 1594 09b6 019B     		ldr	r3, [sp, #4]
 1595 09b8 1B68     		ldr	r3, [r3]
 1596 09ba 019A     		ldr	r2, [sp, #4]
 1597 09bc 1268     		ldr	r2, [r2]
 1598 09be 1268     		ldr	r2, [r2]
 1599 09c0 42F00102 		orr	r2, r2, #1
 1600 09c4 1A60     		str	r2, [r3]
 1601              		.loc 1 919 0
 1602 09c6 0023     		movs	r3, #0
 1603              		.loc 1 920 0
 1604 09c8 1846     		mov	r0, r3
 1605 09ca 03B0     		add	sp, sp, #12
 1606              		@ sp needed
 1607 09cc 5DF804FB 		ldr	pc, [sp], #4
 1608              		.cfi_endproc
 1609              	.LFE141:
 1610              		.size	HAL_TIMEx_PWMN_Start, .-HAL_TIMEx_PWMN_Start
 1611              		.align	2
 1612              		.p2align 4,,15
 1613              		.global	HAL_TIMEx_PWMN_Stop
 1614              		.thumb
 1615              		.thumb_func
 1616              		.type	HAL_TIMEx_PWMN_Stop, %function
 1617              	HAL_TIMEx_PWMN_Stop:
 1618              	.LFB142:
 1619              		.loc 1 934 0
 1620              		.cfi_startproc
 1621              		@ args = 0, pretend = 0, frame = 8
 1622              		@ frame_needed = 0, uses_anonymous_args = 0
 1623 09d0 00B5     		push	{lr}
 1624              		.cfi_def_cfa_offset 4
 1625              		.cfi_offset 14, -4
 1626 09d2 83B0     		sub	sp, sp, #12
 1627              		.cfi_def_cfa_offset 16
 1628 09d4 0190     		str	r0, [sp, #4]
 1629 09d6 0091     		str	r1, [sp]
 1630              		.loc 1 939 0
 1631 09d8 019B     		ldr	r3, [sp, #4]
 1632 09da 1B68     		ldr	r3, [r3]
 1633 09dc 1846     		mov	r0, r3
 1634 09de 0099     		ldr	r1, [sp]
 1635 09e0 0022     		movs	r2, #0
 1636 09e2 00F0DDFE 		bl	TIM_CCxNChannelCmd
 1637              		.loc 1 942 0
 1638 09e6 019B     		ldr	r3, [sp, #4]
 1639 09e8 1B68     		ldr	r3, [r3]
 1640 09ea 1A6A     		ldr	r2, [r3, #32]
 1641 09ec 41F21113 		movw	r3, #4369
 1642 09f0 1340     		ands	r3, r3, r2
 1643 09f2 002B     		cmp	r3, #0
 1644 09f4 0FD1     		bne	.L90
 1645              		.loc 1 942 0 is_stmt 0 discriminator 1
 1646 09f6 019B     		ldr	r3, [sp, #4]
 1647 09f8 1B68     		ldr	r3, [r3]
ARM GAS  /tmp/ccUiHCLc.s 			page 30


 1648 09fa 1A6A     		ldr	r2, [r3, #32]
 1649 09fc 40F24443 		movw	r3, #1092
 1650 0a00 1340     		ands	r3, r3, r2
 1651 0a02 002B     		cmp	r3, #0
 1652 0a04 07D1     		bne	.L90
 1653 0a06 019B     		ldr	r3, [sp, #4]
 1654 0a08 1B68     		ldr	r3, [r3]
 1655 0a0a 019A     		ldr	r2, [sp, #4]
 1656 0a0c 1268     		ldr	r2, [r2]
 1657 0a0e 526C     		ldr	r2, [r2, #68]
 1658 0a10 22F40042 		bic	r2, r2, #32768
 1659 0a14 5A64     		str	r2, [r3, #68]
 1660              	.L90:
 1661              		.loc 1 945 0 is_stmt 1
 1662 0a16 019B     		ldr	r3, [sp, #4]
 1663 0a18 1B68     		ldr	r3, [r3]
 1664 0a1a 1A6A     		ldr	r2, [r3, #32]
 1665 0a1c 41F21113 		movw	r3, #4369
 1666 0a20 1340     		ands	r3, r3, r2
 1667 0a22 002B     		cmp	r3, #0
 1668 0a24 0FD1     		bne	.L91
 1669              		.loc 1 945 0 is_stmt 0 discriminator 1
 1670 0a26 019B     		ldr	r3, [sp, #4]
 1671 0a28 1B68     		ldr	r3, [r3]
 1672 0a2a 1A6A     		ldr	r2, [r3, #32]
 1673 0a2c 40F24443 		movw	r3, #1092
 1674 0a30 1340     		ands	r3, r3, r2
 1675 0a32 002B     		cmp	r3, #0
 1676 0a34 07D1     		bne	.L91
 1677 0a36 019B     		ldr	r3, [sp, #4]
 1678 0a38 1B68     		ldr	r3, [r3]
 1679 0a3a 019A     		ldr	r2, [sp, #4]
 1680 0a3c 1268     		ldr	r2, [r2]
 1681 0a3e 1268     		ldr	r2, [r2]
 1682 0a40 22F00102 		bic	r2, r2, #1
 1683 0a44 1A60     		str	r2, [r3]
 1684              	.L91:
 1685              		.loc 1 948 0 is_stmt 1
 1686 0a46 0023     		movs	r3, #0
 1687              		.loc 1 949 0
 1688 0a48 1846     		mov	r0, r3
 1689 0a4a 03B0     		add	sp, sp, #12
 1690              		@ sp needed
 1691 0a4c 5DF804FB 		ldr	pc, [sp], #4
 1692              		.cfi_endproc
 1693              	.LFE142:
 1694              		.size	HAL_TIMEx_PWMN_Stop, .-HAL_TIMEx_PWMN_Stop
 1695              		.align	2
 1696              		.p2align 4,,15
 1697              		.global	HAL_TIMEx_PWMN_Start_IT
 1698              		.thumb
 1699              		.thumb_func
 1700              		.type	HAL_TIMEx_PWMN_Start_IT, %function
 1701              	HAL_TIMEx_PWMN_Start_IT:
 1702              	.LFB143:
 1703              		.loc 1 964 0
 1704              		.cfi_startproc
ARM GAS  /tmp/ccUiHCLc.s 			page 31


 1705              		@ args = 0, pretend = 0, frame = 8
 1706              		@ frame_needed = 0, uses_anonymous_args = 0
 1707 0a50 00B5     		push	{lr}
 1708              		.cfi_def_cfa_offset 4
 1709              		.cfi_offset 14, -4
 1710 0a52 83B0     		sub	sp, sp, #12
 1711              		.cfi_def_cfa_offset 16
 1712 0a54 0190     		str	r0, [sp, #4]
 1713 0a56 0091     		str	r1, [sp]
 1714              		.loc 1 968 0
 1715 0a58 009B     		ldr	r3, [sp]
 1716 0a5a 0C2B     		cmp	r3, #12
 1717 0a5c 40D8     		bhi	.L102
 1718 0a5e 01A2     		adr	r2, .L96
 1719 0a60 52F823F0 		ldr	pc, [r2, r3, lsl #2]
 1720              		.p2align 2
 1721              	.L96:
 1722 0a64 990A0000 		.word	.L95+1
 1723 0a68 E10A0000 		.word	.L102+1
 1724 0a6c E10A0000 		.word	.L102+1
 1725 0a70 E10A0000 		.word	.L102+1
 1726 0a74 AB0A0000 		.word	.L97+1
 1727 0a78 E10A0000 		.word	.L102+1
 1728 0a7c E10A0000 		.word	.L102+1
 1729 0a80 E10A0000 		.word	.L102+1
 1730 0a84 BD0A0000 		.word	.L98+1
 1731 0a88 E10A0000 		.word	.L102+1
 1732 0a8c E10A0000 		.word	.L102+1
 1733 0a90 E10A0000 		.word	.L102+1
 1734 0a94 CF0A0000 		.word	.L99+1
 1735              		.p2align 1
 1736              	.L95:
 1737              		.loc 1 973 0
 1738 0a98 019B     		ldr	r3, [sp, #4]
 1739 0a9a 1B68     		ldr	r3, [r3]
 1740 0a9c 019A     		ldr	r2, [sp, #4]
 1741 0a9e 1268     		ldr	r2, [r2]
 1742 0aa0 D268     		ldr	r2, [r2, #12]
 1743 0aa2 42F00202 		orr	r2, r2, #2
 1744 0aa6 DA60     		str	r2, [r3, #12]
 1745              		.loc 1 975 0
 1746 0aa8 1BE0     		b	.L100
 1747              	.L97:
 1748              		.loc 1 980 0
 1749 0aaa 019B     		ldr	r3, [sp, #4]
 1750 0aac 1B68     		ldr	r3, [r3]
 1751 0aae 019A     		ldr	r2, [sp, #4]
 1752 0ab0 1268     		ldr	r2, [r2]
 1753 0ab2 D268     		ldr	r2, [r2, #12]
 1754 0ab4 42F00402 		orr	r2, r2, #4
 1755 0ab8 DA60     		str	r2, [r3, #12]
 1756              		.loc 1 982 0
 1757 0aba 12E0     		b	.L100
 1758              	.L98:
 1759              		.loc 1 987 0
 1760 0abc 019B     		ldr	r3, [sp, #4]
 1761 0abe 1B68     		ldr	r3, [r3]
ARM GAS  /tmp/ccUiHCLc.s 			page 32


 1762 0ac0 019A     		ldr	r2, [sp, #4]
 1763 0ac2 1268     		ldr	r2, [r2]
 1764 0ac4 D268     		ldr	r2, [r2, #12]
 1765 0ac6 42F00802 		orr	r2, r2, #8
 1766 0aca DA60     		str	r2, [r3, #12]
 1767              		.loc 1 989 0
 1768 0acc 09E0     		b	.L100
 1769              	.L99:
 1770              		.loc 1 994 0
 1771 0ace 019B     		ldr	r3, [sp, #4]
 1772 0ad0 1B68     		ldr	r3, [r3]
 1773 0ad2 019A     		ldr	r2, [sp, #4]
 1774 0ad4 1268     		ldr	r2, [r2]
 1775 0ad6 D268     		ldr	r2, [r2, #12]
 1776 0ad8 42F01002 		orr	r2, r2, #16
 1777 0adc DA60     		str	r2, [r3, #12]
 1778              		.loc 1 996 0
 1779 0ade 00E0     		b	.L100
 1780              	.L102:
 1781              		.loc 1 999 0
 1782 0ae0 00BF     		nop
 1783              	.L100:
 1784              		.loc 1 1003 0
 1785 0ae2 019B     		ldr	r3, [sp, #4]
 1786 0ae4 1B68     		ldr	r3, [r3]
 1787 0ae6 019A     		ldr	r2, [sp, #4]
 1788 0ae8 1268     		ldr	r2, [r2]
 1789 0aea D268     		ldr	r2, [r2, #12]
 1790 0aec 42F08002 		orr	r2, r2, #128
 1791 0af0 DA60     		str	r2, [r3, #12]
 1792              		.loc 1 1006 0
 1793 0af2 019B     		ldr	r3, [sp, #4]
 1794 0af4 1B68     		ldr	r3, [r3]
 1795 0af6 1846     		mov	r0, r3
 1796 0af8 0099     		ldr	r1, [sp]
 1797 0afa 0422     		movs	r2, #4
 1798 0afc 00F050FE 		bl	TIM_CCxNChannelCmd
 1799              		.loc 1 1009 0
 1800 0b00 019B     		ldr	r3, [sp, #4]
 1801 0b02 1B68     		ldr	r3, [r3]
 1802 0b04 019A     		ldr	r2, [sp, #4]
 1803 0b06 1268     		ldr	r2, [r2]
 1804 0b08 526C     		ldr	r2, [r2, #68]
 1805 0b0a 42F40042 		orr	r2, r2, #32768
 1806 0b0e 5A64     		str	r2, [r3, #68]
 1807              		.loc 1 1012 0
 1808 0b10 019B     		ldr	r3, [sp, #4]
 1809 0b12 1B68     		ldr	r3, [r3]
 1810 0b14 019A     		ldr	r2, [sp, #4]
 1811 0b16 1268     		ldr	r2, [r2]
 1812 0b18 1268     		ldr	r2, [r2]
 1813 0b1a 42F00102 		orr	r2, r2, #1
 1814 0b1e 1A60     		str	r2, [r3]
 1815              		.loc 1 1015 0
 1816 0b20 0023     		movs	r3, #0
 1817              		.loc 1 1016 0
 1818 0b22 1846     		mov	r0, r3
ARM GAS  /tmp/ccUiHCLc.s 			page 33


 1819 0b24 03B0     		add	sp, sp, #12
 1820              		@ sp needed
 1821 0b26 5DF804FB 		ldr	pc, [sp], #4
 1822              		.cfi_endproc
 1823              	.LFE143:
 1824              		.size	HAL_TIMEx_PWMN_Start_IT, .-HAL_TIMEx_PWMN_Start_IT
 1825 0b2a 00BF     		.align	2
 1826 0b2c AFF30080 		.p2align 4,,15
 1827              		.global	HAL_TIMEx_PWMN_Stop_IT
 1828              		.thumb
 1829              		.thumb_func
 1830              		.type	HAL_TIMEx_PWMN_Stop_IT, %function
 1831              	HAL_TIMEx_PWMN_Stop_IT:
 1832              	.LFB144:
 1833              		.loc 1 1031 0
 1834              		.cfi_startproc
 1835              		@ args = 0, pretend = 0, frame = 16
 1836              		@ frame_needed = 0, uses_anonymous_args = 0
 1837 0b30 00B5     		push	{lr}
 1838              		.cfi_def_cfa_offset 4
 1839              		.cfi_offset 14, -4
 1840 0b32 85B0     		sub	sp, sp, #20
 1841              		.cfi_def_cfa_offset 24
 1842 0b34 0190     		str	r0, [sp, #4]
 1843 0b36 0091     		str	r1, [sp]
 1844              		.loc 1 1032 0
 1845 0b38 0023     		movs	r3, #0
 1846 0b3a 0393     		str	r3, [sp, #12]
 1847              		.loc 1 1037 0
 1848 0b3c 009B     		ldr	r3, [sp]
 1849 0b3e 0C2B     		cmp	r3, #12
 1850 0b40 40D8     		bhi	.L115
 1851 0b42 01A2     		adr	r2, .L106
 1852 0b44 52F823F0 		ldr	pc, [r2, r3, lsl #2]
 1853              		.p2align 2
 1854              	.L106:
 1855 0b48 7D0B0000 		.word	.L105+1
 1856 0b4c C50B0000 		.word	.L115+1
 1857 0b50 C50B0000 		.word	.L115+1
 1858 0b54 C50B0000 		.word	.L115+1
 1859 0b58 8F0B0000 		.word	.L107+1
 1860 0b5c C50B0000 		.word	.L115+1
 1861 0b60 C50B0000 		.word	.L115+1
 1862 0b64 C50B0000 		.word	.L115+1
 1863 0b68 A10B0000 		.word	.L108+1
 1864 0b6c C50B0000 		.word	.L115+1
 1865 0b70 C50B0000 		.word	.L115+1
 1866 0b74 C50B0000 		.word	.L115+1
 1867 0b78 B30B0000 		.word	.L109+1
 1868              		.p2align 1
 1869              	.L105:
 1870              		.loc 1 1042 0
 1871 0b7c 019B     		ldr	r3, [sp, #4]
 1872 0b7e 1B68     		ldr	r3, [r3]
 1873 0b80 019A     		ldr	r2, [sp, #4]
 1874 0b82 1268     		ldr	r2, [r2]
 1875 0b84 D268     		ldr	r2, [r2, #12]
ARM GAS  /tmp/ccUiHCLc.s 			page 34


 1876 0b86 22F00202 		bic	r2, r2, #2
 1877 0b8a DA60     		str	r2, [r3, #12]
 1878              		.loc 1 1044 0
 1879 0b8c 1BE0     		b	.L110
 1880              	.L107:
 1881              		.loc 1 1049 0
 1882 0b8e 019B     		ldr	r3, [sp, #4]
 1883 0b90 1B68     		ldr	r3, [r3]
 1884 0b92 019A     		ldr	r2, [sp, #4]
 1885 0b94 1268     		ldr	r2, [r2]
 1886 0b96 D268     		ldr	r2, [r2, #12]
 1887 0b98 22F00402 		bic	r2, r2, #4
 1888 0b9c DA60     		str	r2, [r3, #12]
 1889              		.loc 1 1051 0
 1890 0b9e 12E0     		b	.L110
 1891              	.L108:
 1892              		.loc 1 1056 0
 1893 0ba0 019B     		ldr	r3, [sp, #4]
 1894 0ba2 1B68     		ldr	r3, [r3]
 1895 0ba4 019A     		ldr	r2, [sp, #4]
 1896 0ba6 1268     		ldr	r2, [r2]
 1897 0ba8 D268     		ldr	r2, [r2, #12]
 1898 0baa 22F00802 		bic	r2, r2, #8
 1899 0bae DA60     		str	r2, [r3, #12]
 1900              		.loc 1 1058 0
 1901 0bb0 09E0     		b	.L110
 1902              	.L109:
 1903              		.loc 1 1063 0
 1904 0bb2 019B     		ldr	r3, [sp, #4]
 1905 0bb4 1B68     		ldr	r3, [r3]
 1906 0bb6 019A     		ldr	r2, [sp, #4]
 1907 0bb8 1268     		ldr	r2, [r2]
 1908 0bba D268     		ldr	r2, [r2, #12]
 1909 0bbc 22F01002 		bic	r2, r2, #16
 1910 0bc0 DA60     		str	r2, [r3, #12]
 1911              		.loc 1 1065 0
 1912 0bc2 00E0     		b	.L110
 1913              	.L115:
 1914              		.loc 1 1068 0
 1915 0bc4 00BF     		nop
 1916              	.L110:
 1917              		.loc 1 1072 0
 1918 0bc6 019B     		ldr	r3, [sp, #4]
 1919 0bc8 1B68     		ldr	r3, [r3]
 1920 0bca 1846     		mov	r0, r3
 1921 0bcc 0099     		ldr	r1, [sp]
 1922 0bce 0022     		movs	r2, #0
 1923 0bd0 00F0E6FD 		bl	TIM_CCxNChannelCmd
 1924              		.loc 1 1076 0
 1925 0bd4 019B     		ldr	r3, [sp, #4]
 1926 0bd6 1B68     		ldr	r3, [r3]
 1927 0bd8 1B6A     		ldr	r3, [r3, #32]
 1928 0bda 0393     		str	r3, [sp, #12]
 1929              		.loc 1 1077 0
 1930 0bdc 039A     		ldr	r2, [sp, #12]
 1931 0bde 40F24443 		movw	r3, #1092
 1932 0be2 1340     		ands	r3, r3, r2
ARM GAS  /tmp/ccUiHCLc.s 			page 35


 1933 0be4 002B     		cmp	r3, #0
 1934 0be6 07D1     		bne	.L111
 1935              		.loc 1 1079 0
 1936 0be8 019B     		ldr	r3, [sp, #4]
 1937 0bea 1B68     		ldr	r3, [r3]
 1938 0bec 019A     		ldr	r2, [sp, #4]
 1939 0bee 1268     		ldr	r2, [r2]
 1940 0bf0 D268     		ldr	r2, [r2, #12]
 1941 0bf2 22F08002 		bic	r2, r2, #128
 1942 0bf6 DA60     		str	r2, [r3, #12]
 1943              	.L111:
 1944              		.loc 1 1083 0
 1945 0bf8 019B     		ldr	r3, [sp, #4]
 1946 0bfa 1B68     		ldr	r3, [r3]
 1947 0bfc 1A6A     		ldr	r2, [r3, #32]
 1948 0bfe 41F21113 		movw	r3, #4369
 1949 0c02 1340     		ands	r3, r3, r2
 1950 0c04 002B     		cmp	r3, #0
 1951 0c06 0FD1     		bne	.L112
 1952              		.loc 1 1083 0 is_stmt 0 discriminator 1
 1953 0c08 019B     		ldr	r3, [sp, #4]
 1954 0c0a 1B68     		ldr	r3, [r3]
 1955 0c0c 1A6A     		ldr	r2, [r3, #32]
 1956 0c0e 40F24443 		movw	r3, #1092
 1957 0c12 1340     		ands	r3, r3, r2
 1958 0c14 002B     		cmp	r3, #0
 1959 0c16 07D1     		bne	.L112
 1960 0c18 019B     		ldr	r3, [sp, #4]
 1961 0c1a 1B68     		ldr	r3, [r3]
 1962 0c1c 019A     		ldr	r2, [sp, #4]
 1963 0c1e 1268     		ldr	r2, [r2]
 1964 0c20 526C     		ldr	r2, [r2, #68]
 1965 0c22 22F40042 		bic	r2, r2, #32768
 1966 0c26 5A64     		str	r2, [r3, #68]
 1967              	.L112:
 1968              		.loc 1 1086 0 is_stmt 1
 1969 0c28 019B     		ldr	r3, [sp, #4]
 1970 0c2a 1B68     		ldr	r3, [r3]
 1971 0c2c 1A6A     		ldr	r2, [r3, #32]
 1972 0c2e 41F21113 		movw	r3, #4369
 1973 0c32 1340     		ands	r3, r3, r2
 1974 0c34 002B     		cmp	r3, #0
 1975 0c36 0FD1     		bne	.L113
 1976              		.loc 1 1086 0 is_stmt 0 discriminator 1
 1977 0c38 019B     		ldr	r3, [sp, #4]
 1978 0c3a 1B68     		ldr	r3, [r3]
 1979 0c3c 1A6A     		ldr	r2, [r3, #32]
 1980 0c3e 40F24443 		movw	r3, #1092
 1981 0c42 1340     		ands	r3, r3, r2
 1982 0c44 002B     		cmp	r3, #0
 1983 0c46 07D1     		bne	.L113
 1984 0c48 019B     		ldr	r3, [sp, #4]
 1985 0c4a 1B68     		ldr	r3, [r3]
 1986 0c4c 019A     		ldr	r2, [sp, #4]
 1987 0c4e 1268     		ldr	r2, [r2]
 1988 0c50 1268     		ldr	r2, [r2]
 1989 0c52 22F00102 		bic	r2, r2, #1
ARM GAS  /tmp/ccUiHCLc.s 			page 36


 1990 0c56 1A60     		str	r2, [r3]
 1991              	.L113:
 1992              		.loc 1 1089 0 is_stmt 1
 1993 0c58 0023     		movs	r3, #0
 1994              		.loc 1 1090 0
 1995 0c5a 1846     		mov	r0, r3
 1996 0c5c 05B0     		add	sp, sp, #20
 1997              		@ sp needed
 1998 0c5e 5DF804FB 		ldr	pc, [sp], #4
 1999              		.cfi_endproc
 2000              	.LFE144:
 2001              		.size	HAL_TIMEx_PWMN_Stop_IT, .-HAL_TIMEx_PWMN_Stop_IT
 2002 0c62 00BF     		.align	2
 2003 0c64 AFF30080 		.p2align 4,,15
 2003      AFF30080 
 2003      AFF30080 
 2004              		.global	HAL_TIMEx_PWMN_Start_DMA
 2005              		.thumb
 2006              		.thumb_func
 2007              		.type	HAL_TIMEx_PWMN_Start_DMA, %function
 2008              	HAL_TIMEx_PWMN_Start_DMA:
 2009              	.LFB145:
 2010              		.loc 1 1107 0
 2011              		.cfi_startproc
 2012              		@ args = 0, pretend = 0, frame = 16
 2013              		@ frame_needed = 0, uses_anonymous_args = 0
 2014 0c70 00B5     		push	{lr}
 2015              		.cfi_def_cfa_offset 4
 2016              		.cfi_offset 14, -4
 2017 0c72 85B0     		sub	sp, sp, #20
 2018              		.cfi_def_cfa_offset 24
 2019 0c74 0390     		str	r0, [sp, #12]
 2020 0c76 0291     		str	r1, [sp, #8]
 2021 0c78 0192     		str	r2, [sp, #4]
 2022 0c7a ADF80230 		strh	r3, [sp, #2]	@ movhi
 2023              		.loc 1 1111 0
 2024 0c7e 039B     		ldr	r3, [sp, #12]
 2025 0c80 93F83930 		ldrb	r3, [r3, #57]
 2026 0c84 DBB2     		uxtb	r3, r3
 2027 0c86 022B     		cmp	r3, #2
 2028 0c88 01D1     		bne	.L117
 2029              		.loc 1 1113 0
 2030 0c8a 0223     		movs	r3, #2
 2031 0c8c BDE0     		b	.L118
 2032              	.L117:
 2033              		.loc 1 1115 0
 2034 0c8e 039B     		ldr	r3, [sp, #12]
 2035 0c90 93F83930 		ldrb	r3, [r3, #57]
 2036 0c94 DBB2     		uxtb	r3, r3
 2037 0c96 012B     		cmp	r3, #1
 2038 0c98 0CD1     		bne	.L119
 2039              		.loc 1 1117 0
 2040 0c9a 019B     		ldr	r3, [sp, #4]
 2041 0c9c 002B     		cmp	r3, #0
 2042 0c9e 05D1     		bne	.L120
 2043              		.loc 1 1117 0 is_stmt 0 discriminator 1
 2044 0ca0 BDF80230 		ldrh	r3, [sp, #2]
ARM GAS  /tmp/ccUiHCLc.s 			page 37


 2045 0ca4 002B     		cmp	r3, #0
 2046 0ca6 01D0     		beq	.L120
 2047              		.loc 1 1119 0 is_stmt 1
 2048 0ca8 0123     		movs	r3, #1
 2049 0caa AEE0     		b	.L118
 2050              	.L120:
 2051              		.loc 1 1123 0
 2052 0cac 039B     		ldr	r3, [sp, #12]
 2053 0cae 0222     		movs	r2, #2
 2054 0cb0 83F83920 		strb	r2, [r3, #57]
 2055              	.L119:
 2056              		.loc 1 1126 0
 2057 0cb4 029B     		ldr	r3, [sp, #8]
 2058 0cb6 0C2B     		cmp	r3, #12
 2059 0cb8 00F28E80 		bhi	.L128
 2060 0cbc 01A2     		adr	r2, .L123
 2061 0cbe 52F823F0 		ldr	pc, [r2, r3, lsl #2]
 2062 0cc2 00BF     		.p2align 2
 2063              	.L123:
 2064 0cc4 F90C0000 		.word	.L122+1
 2065 0cc8 D90D0000 		.word	.L128+1
 2066 0ccc D90D0000 		.word	.L128+1
 2067 0cd0 D90D0000 		.word	.L128+1
 2068 0cd4 310D0000 		.word	.L124+1
 2069 0cd8 D90D0000 		.word	.L128+1
 2070 0cdc D90D0000 		.word	.L128+1
 2071 0ce0 D90D0000 		.word	.L128+1
 2072 0ce4 690D0000 		.word	.L125+1
 2073 0ce8 D90D0000 		.word	.L128+1
 2074 0cec D90D0000 		.word	.L128+1
 2075 0cf0 D90D0000 		.word	.L128+1
 2076 0cf4 A10D0000 		.word	.L126+1
 2077              		.p2align 1
 2078              	.L122:
 2079              		.loc 1 1131 0
 2080 0cf8 039B     		ldr	r3, [sp, #12]
 2081 0cfa 1B6A     		ldr	r3, [r3, #32]
 2082 0cfc 454A     		ldr	r2, .L129
 2083 0cfe DA62     		str	r2, [r3, #44]
 2084              		.loc 1 1134 0
 2085 0d00 039B     		ldr	r3, [sp, #12]
 2086 0d02 1B6A     		ldr	r3, [r3, #32]
 2087 0d04 444A     		ldr	r2, .L129+4
 2088 0d06 5A63     		str	r2, [r3, #52]
 2089              		.loc 1 1137 0
 2090 0d08 039B     		ldr	r3, [sp, #12]
 2091 0d0a 186A     		ldr	r0, [r3, #32]
 2092 0d0c 0199     		ldr	r1, [sp, #4]
 2093 0d0e 039B     		ldr	r3, [sp, #12]
 2094 0d10 1B68     		ldr	r3, [r3]
 2095 0d12 3433     		adds	r3, r3, #52
 2096 0d14 1A46     		mov	r2, r3
 2097 0d16 BDF80230 		ldrh	r3, [sp, #2]
 2098 0d1a FFF7FEFF 		bl	HAL_DMA_Start_IT
 2099              		.loc 1 1140 0
 2100 0d1e 039B     		ldr	r3, [sp, #12]
 2101 0d20 1B68     		ldr	r3, [r3]
ARM GAS  /tmp/ccUiHCLc.s 			page 38


 2102 0d22 039A     		ldr	r2, [sp, #12]
 2103 0d24 1268     		ldr	r2, [r2]
 2104 0d26 D268     		ldr	r2, [r2, #12]
 2105 0d28 42F40072 		orr	r2, r2, #512
 2106 0d2c DA60     		str	r2, [r3, #12]
 2107              		.loc 1 1142 0
 2108 0d2e 54E0     		b	.L127
 2109              	.L124:
 2110              		.loc 1 1147 0
 2111 0d30 039B     		ldr	r3, [sp, #12]
 2112 0d32 5B6A     		ldr	r3, [r3, #36]
 2113 0d34 374A     		ldr	r2, .L129
 2114 0d36 DA62     		str	r2, [r3, #44]
 2115              		.loc 1 1150 0
 2116 0d38 039B     		ldr	r3, [sp, #12]
 2117 0d3a 5B6A     		ldr	r3, [r3, #36]
 2118 0d3c 364A     		ldr	r2, .L129+4
 2119 0d3e 5A63     		str	r2, [r3, #52]
 2120              		.loc 1 1153 0
 2121 0d40 039B     		ldr	r3, [sp, #12]
 2122 0d42 586A     		ldr	r0, [r3, #36]
 2123 0d44 0199     		ldr	r1, [sp, #4]
 2124 0d46 039B     		ldr	r3, [sp, #12]
 2125 0d48 1B68     		ldr	r3, [r3]
 2126 0d4a 3833     		adds	r3, r3, #56
 2127 0d4c 1A46     		mov	r2, r3
 2128 0d4e BDF80230 		ldrh	r3, [sp, #2]
 2129 0d52 FFF7FEFF 		bl	HAL_DMA_Start_IT
 2130              		.loc 1 1156 0
 2131 0d56 039B     		ldr	r3, [sp, #12]
 2132 0d58 1B68     		ldr	r3, [r3]
 2133 0d5a 039A     		ldr	r2, [sp, #12]
 2134 0d5c 1268     		ldr	r2, [r2]
 2135 0d5e D268     		ldr	r2, [r2, #12]
 2136 0d60 42F48062 		orr	r2, r2, #1024
 2137 0d64 DA60     		str	r2, [r3, #12]
 2138              		.loc 1 1158 0
 2139 0d66 38E0     		b	.L127
 2140              	.L125:
 2141              		.loc 1 1163 0
 2142 0d68 039B     		ldr	r3, [sp, #12]
 2143 0d6a 9B6A     		ldr	r3, [r3, #40]
 2144 0d6c 294A     		ldr	r2, .L129
 2145 0d6e DA62     		str	r2, [r3, #44]
 2146              		.loc 1 1166 0
 2147 0d70 039B     		ldr	r3, [sp, #12]
 2148 0d72 9B6A     		ldr	r3, [r3, #40]
 2149 0d74 284A     		ldr	r2, .L129+4
 2150 0d76 5A63     		str	r2, [r3, #52]
 2151              		.loc 1 1169 0
 2152 0d78 039B     		ldr	r3, [sp, #12]
 2153 0d7a 986A     		ldr	r0, [r3, #40]
 2154 0d7c 0199     		ldr	r1, [sp, #4]
 2155 0d7e 039B     		ldr	r3, [sp, #12]
 2156 0d80 1B68     		ldr	r3, [r3]
 2157 0d82 3C33     		adds	r3, r3, #60
 2158 0d84 1A46     		mov	r2, r3
ARM GAS  /tmp/ccUiHCLc.s 			page 39


 2159 0d86 BDF80230 		ldrh	r3, [sp, #2]
 2160 0d8a FFF7FEFF 		bl	HAL_DMA_Start_IT
 2161              		.loc 1 1172 0
 2162 0d8e 039B     		ldr	r3, [sp, #12]
 2163 0d90 1B68     		ldr	r3, [r3]
 2164 0d92 039A     		ldr	r2, [sp, #12]
 2165 0d94 1268     		ldr	r2, [r2]
 2166 0d96 D268     		ldr	r2, [r2, #12]
 2167 0d98 42F40062 		orr	r2, r2, #2048
 2168 0d9c DA60     		str	r2, [r3, #12]
 2169              		.loc 1 1174 0
 2170 0d9e 1CE0     		b	.L127
 2171              	.L126:
 2172              		.loc 1 1179 0
 2173 0da0 039B     		ldr	r3, [sp, #12]
 2174 0da2 DB6A     		ldr	r3, [r3, #44]
 2175 0da4 1B4A     		ldr	r2, .L129
 2176 0da6 DA62     		str	r2, [r3, #44]
 2177              		.loc 1 1182 0
 2178 0da8 039B     		ldr	r3, [sp, #12]
 2179 0daa DB6A     		ldr	r3, [r3, #44]
 2180 0dac 1A4A     		ldr	r2, .L129+4
 2181 0dae 5A63     		str	r2, [r3, #52]
 2182              		.loc 1 1185 0
 2183 0db0 039B     		ldr	r3, [sp, #12]
 2184 0db2 D86A     		ldr	r0, [r3, #44]
 2185 0db4 0199     		ldr	r1, [sp, #4]
 2186 0db6 039B     		ldr	r3, [sp, #12]
 2187 0db8 1B68     		ldr	r3, [r3]
 2188 0dba 4033     		adds	r3, r3, #64
 2189 0dbc 1A46     		mov	r2, r3
 2190 0dbe BDF80230 		ldrh	r3, [sp, #2]
 2191 0dc2 FFF7FEFF 		bl	HAL_DMA_Start_IT
 2192              		.loc 1 1188 0
 2193 0dc6 039B     		ldr	r3, [sp, #12]
 2194 0dc8 1B68     		ldr	r3, [r3]
 2195 0dca 039A     		ldr	r2, [sp, #12]
 2196 0dcc 1268     		ldr	r2, [r2]
 2197 0dce D268     		ldr	r2, [r2, #12]
 2198 0dd0 42F48052 		orr	r2, r2, #4096
 2199 0dd4 DA60     		str	r2, [r3, #12]
 2200              		.loc 1 1190 0
 2201 0dd6 00E0     		b	.L127
 2202              	.L128:
 2203              		.loc 1 1193 0
 2204 0dd8 00BF     		nop
 2205              	.L127:
 2206              		.loc 1 1197 0
 2207 0dda 039B     		ldr	r3, [sp, #12]
 2208 0ddc 1B68     		ldr	r3, [r3]
 2209 0dde 1846     		mov	r0, r3
 2210 0de0 0299     		ldr	r1, [sp, #8]
 2211 0de2 0422     		movs	r2, #4
 2212 0de4 00F0DCFC 		bl	TIM_CCxNChannelCmd
 2213              		.loc 1 1200 0
 2214 0de8 039B     		ldr	r3, [sp, #12]
 2215 0dea 1B68     		ldr	r3, [r3]
ARM GAS  /tmp/ccUiHCLc.s 			page 40


 2216 0dec 039A     		ldr	r2, [sp, #12]
 2217 0dee 1268     		ldr	r2, [r2]
 2218 0df0 526C     		ldr	r2, [r2, #68]
 2219 0df2 42F40042 		orr	r2, r2, #32768
 2220 0df6 5A64     		str	r2, [r3, #68]
 2221              		.loc 1 1203 0
 2222 0df8 039B     		ldr	r3, [sp, #12]
 2223 0dfa 1B68     		ldr	r3, [r3]
 2224 0dfc 039A     		ldr	r2, [sp, #12]
 2225 0dfe 1268     		ldr	r2, [r2]
 2226 0e00 1268     		ldr	r2, [r2]
 2227 0e02 42F00102 		orr	r2, r2, #1
 2228 0e06 1A60     		str	r2, [r3]
 2229              		.loc 1 1206 0
 2230 0e08 0023     		movs	r3, #0
 2231              	.L118:
 2232              		.loc 1 1207 0
 2233 0e0a 1846     		mov	r0, r3
 2234 0e0c 05B0     		add	sp, sp, #20
 2235              		@ sp needed
 2236 0e0e 5DF804FB 		ldr	pc, [sp], #4
 2237              	.L130:
 2238 0e12 00BF     		.align	2
 2239              	.L129:
 2240 0e14 00000000 		.word	TIM_DMADelayPulseCplt
 2241 0e18 00000000 		.word	TIM_DMAError
 2242              		.cfi_endproc
 2243              	.LFE145:
 2244              		.size	HAL_TIMEx_PWMN_Start_DMA, .-HAL_TIMEx_PWMN_Start_DMA
 2245              		.align	2
 2246 0e1c AFF30080 		.p2align 4,,15
 2247              		.global	HAL_TIMEx_PWMN_Stop_DMA
 2248              		.thumb
 2249              		.thumb_func
 2250              		.type	HAL_TIMEx_PWMN_Stop_DMA, %function
 2251              	HAL_TIMEx_PWMN_Stop_DMA:
 2252              	.LFB146:
 2253              		.loc 1 1222 0
 2254              		.cfi_startproc
 2255              		@ args = 0, pretend = 0, frame = 8
 2256              		@ frame_needed = 0, uses_anonymous_args = 0
 2257 0e20 00B5     		push	{lr}
 2258              		.cfi_def_cfa_offset 4
 2259              		.cfi_offset 14, -4
 2260 0e22 83B0     		sub	sp, sp, #12
 2261              		.cfi_def_cfa_offset 16
 2262 0e24 0190     		str	r0, [sp, #4]
 2263 0e26 0091     		str	r1, [sp]
 2264              		.loc 1 1226 0
 2265 0e28 009B     		ldr	r3, [sp]
 2266 0e2a 0C2B     		cmp	r3, #12
 2267 0e2c 40D8     		bhi	.L142
 2268 0e2e 01A2     		adr	r2, .L134
 2269 0e30 52F823F0 		ldr	pc, [r2, r3, lsl #2]
 2270              		.p2align 2
 2271              	.L134:
 2272 0e34 690E0000 		.word	.L133+1
ARM GAS  /tmp/ccUiHCLc.s 			page 41


 2273 0e38 B10E0000 		.word	.L142+1
 2274 0e3c B10E0000 		.word	.L142+1
 2275 0e40 B10E0000 		.word	.L142+1
 2276 0e44 7B0E0000 		.word	.L135+1
 2277 0e48 B10E0000 		.word	.L142+1
 2278 0e4c B10E0000 		.word	.L142+1
 2279 0e50 B10E0000 		.word	.L142+1
 2280 0e54 8D0E0000 		.word	.L136+1
 2281 0e58 B10E0000 		.word	.L142+1
 2282 0e5c B10E0000 		.word	.L142+1
 2283 0e60 B10E0000 		.word	.L142+1
 2284 0e64 9F0E0000 		.word	.L137+1
 2285              		.p2align 1
 2286              	.L133:
 2287              		.loc 1 1231 0
 2288 0e68 019B     		ldr	r3, [sp, #4]
 2289 0e6a 1B68     		ldr	r3, [r3]
 2290 0e6c 019A     		ldr	r2, [sp, #4]
 2291 0e6e 1268     		ldr	r2, [r2]
 2292 0e70 D268     		ldr	r2, [r2, #12]
 2293 0e72 22F40072 		bic	r2, r2, #512
 2294 0e76 DA60     		str	r2, [r3, #12]
 2295              		.loc 1 1233 0
 2296 0e78 1BE0     		b	.L138
 2297              	.L135:
 2298              		.loc 1 1238 0
 2299 0e7a 019B     		ldr	r3, [sp, #4]
 2300 0e7c 1B68     		ldr	r3, [r3]
 2301 0e7e 019A     		ldr	r2, [sp, #4]
 2302 0e80 1268     		ldr	r2, [r2]
 2303 0e82 D268     		ldr	r2, [r2, #12]
 2304 0e84 22F48062 		bic	r2, r2, #1024
 2305 0e88 DA60     		str	r2, [r3, #12]
 2306              		.loc 1 1240 0
 2307 0e8a 12E0     		b	.L138
 2308              	.L136:
 2309              		.loc 1 1245 0
 2310 0e8c 019B     		ldr	r3, [sp, #4]
 2311 0e8e 1B68     		ldr	r3, [r3]
 2312 0e90 019A     		ldr	r2, [sp, #4]
 2313 0e92 1268     		ldr	r2, [r2]
 2314 0e94 D268     		ldr	r2, [r2, #12]
 2315 0e96 22F40062 		bic	r2, r2, #2048
 2316 0e9a DA60     		str	r2, [r3, #12]
 2317              		.loc 1 1247 0
 2318 0e9c 09E0     		b	.L138
 2319              	.L137:
 2320              		.loc 1 1252 0
 2321 0e9e 019B     		ldr	r3, [sp, #4]
 2322 0ea0 1B68     		ldr	r3, [r3]
 2323 0ea2 019A     		ldr	r2, [sp, #4]
 2324 0ea4 1268     		ldr	r2, [r2]
 2325 0ea6 D268     		ldr	r2, [r2, #12]
 2326 0ea8 22F48052 		bic	r2, r2, #4096
 2327 0eac DA60     		str	r2, [r3, #12]
 2328              		.loc 1 1254 0
 2329 0eae 00E0     		b	.L138
ARM GAS  /tmp/ccUiHCLc.s 			page 42


 2330              	.L142:
 2331              		.loc 1 1257 0
 2332 0eb0 00BF     		nop
 2333              	.L138:
 2334              		.loc 1 1261 0
 2335 0eb2 019B     		ldr	r3, [sp, #4]
 2336 0eb4 1B68     		ldr	r3, [r3]
 2337 0eb6 1846     		mov	r0, r3
 2338 0eb8 0099     		ldr	r1, [sp]
 2339 0eba 0022     		movs	r2, #0
 2340 0ebc 00F070FC 		bl	TIM_CCxNChannelCmd
 2341              		.loc 1 1264 0
 2342 0ec0 019B     		ldr	r3, [sp, #4]
 2343 0ec2 1B68     		ldr	r3, [r3]
 2344 0ec4 1A6A     		ldr	r2, [r3, #32]
 2345 0ec6 41F21113 		movw	r3, #4369
 2346 0eca 1340     		ands	r3, r3, r2
 2347 0ecc 002B     		cmp	r3, #0
 2348 0ece 0FD1     		bne	.L139
 2349              		.loc 1 1264 0 is_stmt 0 discriminator 1
 2350 0ed0 019B     		ldr	r3, [sp, #4]
 2351 0ed2 1B68     		ldr	r3, [r3]
 2352 0ed4 1A6A     		ldr	r2, [r3, #32]
 2353 0ed6 40F24443 		movw	r3, #1092
 2354 0eda 1340     		ands	r3, r3, r2
 2355 0edc 002B     		cmp	r3, #0
 2356 0ede 07D1     		bne	.L139
 2357 0ee0 019B     		ldr	r3, [sp, #4]
 2358 0ee2 1B68     		ldr	r3, [r3]
 2359 0ee4 019A     		ldr	r2, [sp, #4]
 2360 0ee6 1268     		ldr	r2, [r2]
 2361 0ee8 526C     		ldr	r2, [r2, #68]
 2362 0eea 22F40042 		bic	r2, r2, #32768
 2363 0eee 5A64     		str	r2, [r3, #68]
 2364              	.L139:
 2365              		.loc 1 1267 0 is_stmt 1
 2366 0ef0 019B     		ldr	r3, [sp, #4]
 2367 0ef2 1B68     		ldr	r3, [r3]
 2368 0ef4 1A6A     		ldr	r2, [r3, #32]
 2369 0ef6 41F21113 		movw	r3, #4369
 2370 0efa 1340     		ands	r3, r3, r2
 2371 0efc 002B     		cmp	r3, #0
 2372 0efe 0FD1     		bne	.L140
 2373              		.loc 1 1267 0 is_stmt 0 discriminator 1
 2374 0f00 019B     		ldr	r3, [sp, #4]
 2375 0f02 1B68     		ldr	r3, [r3]
 2376 0f04 1A6A     		ldr	r2, [r3, #32]
 2377 0f06 40F24443 		movw	r3, #1092
 2378 0f0a 1340     		ands	r3, r3, r2
 2379 0f0c 002B     		cmp	r3, #0
 2380 0f0e 07D1     		bne	.L140
 2381 0f10 019B     		ldr	r3, [sp, #4]
 2382 0f12 1B68     		ldr	r3, [r3]
 2383 0f14 019A     		ldr	r2, [sp, #4]
 2384 0f16 1268     		ldr	r2, [r2]
 2385 0f18 1268     		ldr	r2, [r2]
 2386 0f1a 22F00102 		bic	r2, r2, #1
ARM GAS  /tmp/ccUiHCLc.s 			page 43


 2387 0f1e 1A60     		str	r2, [r3]
 2388              	.L140:
 2389              		.loc 1 1270 0 is_stmt 1
 2390 0f20 019B     		ldr	r3, [sp, #4]
 2391 0f22 0122     		movs	r2, #1
 2392 0f24 83F83920 		strb	r2, [r3, #57]
 2393              		.loc 1 1273 0
 2394 0f28 0023     		movs	r3, #0
 2395              		.loc 1 1274 0
 2396 0f2a 1846     		mov	r0, r3
 2397 0f2c 03B0     		add	sp, sp, #12
 2398              		@ sp needed
 2399 0f2e 5DF804FB 		ldr	pc, [sp], #4
 2400              		.cfi_endproc
 2401              	.LFE146:
 2402              		.size	HAL_TIMEx_PWMN_Stop_DMA, .-HAL_TIMEx_PWMN_Stop_DMA
 2403 0f32 00BF     		.align	2
 2404 0f34 AFF30080 		.p2align 4,,15
 2404      AFF30080 
 2404      AFF30080 
 2405              		.global	HAL_TIMEx_OnePulseN_Start
 2406              		.thumb
 2407              		.thumb_func
 2408              		.type	HAL_TIMEx_OnePulseN_Start, %function
 2409              	HAL_TIMEx_OnePulseN_Start:
 2410              	.LFB147:
 2411              		.loc 1 1309 0
 2412              		.cfi_startproc
 2413              		@ args = 0, pretend = 0, frame = 8
 2414              		@ frame_needed = 0, uses_anonymous_args = 0
 2415 0f40 00B5     		push	{lr}
 2416              		.cfi_def_cfa_offset 4
 2417              		.cfi_offset 14, -4
 2418 0f42 83B0     		sub	sp, sp, #12
 2419              		.cfi_def_cfa_offset 16
 2420 0f44 0190     		str	r0, [sp, #4]
 2421 0f46 0091     		str	r1, [sp]
 2422              		.loc 1 1314 0
 2423 0f48 019B     		ldr	r3, [sp, #4]
 2424 0f4a 1B68     		ldr	r3, [r3]
 2425 0f4c 1846     		mov	r0, r3
 2426 0f4e 0099     		ldr	r1, [sp]
 2427 0f50 0422     		movs	r2, #4
 2428 0f52 00F025FC 		bl	TIM_CCxNChannelCmd
 2429              		.loc 1 1317 0
 2430 0f56 019B     		ldr	r3, [sp, #4]
 2431 0f58 1B68     		ldr	r3, [r3]
 2432 0f5a 019A     		ldr	r2, [sp, #4]
 2433 0f5c 1268     		ldr	r2, [r2]
 2434 0f5e 526C     		ldr	r2, [r2, #68]
 2435 0f60 42F40042 		orr	r2, r2, #32768
 2436 0f64 5A64     		str	r2, [r3, #68]
 2437              		.loc 1 1320 0
 2438 0f66 0023     		movs	r3, #0
 2439              		.loc 1 1321 0
 2440 0f68 1846     		mov	r0, r3
 2441 0f6a 03B0     		add	sp, sp, #12
ARM GAS  /tmp/ccUiHCLc.s 			page 44


 2442              		@ sp needed
 2443 0f6c 5DF804FB 		ldr	pc, [sp], #4
 2444              		.cfi_endproc
 2445              	.LFE147:
 2446              		.size	HAL_TIMEx_OnePulseN_Start, .-HAL_TIMEx_OnePulseN_Start
 2447              		.align	2
 2448              		.p2align 4,,15
 2449              		.global	HAL_TIMEx_OnePulseN_Stop
 2450              		.thumb
 2451              		.thumb_func
 2452              		.type	HAL_TIMEx_OnePulseN_Stop, %function
 2453              	HAL_TIMEx_OnePulseN_Stop:
 2454              	.LFB148:
 2455              		.loc 1 1334 0
 2456              		.cfi_startproc
 2457              		@ args = 0, pretend = 0, frame = 8
 2458              		@ frame_needed = 0, uses_anonymous_args = 0
 2459 0f70 00B5     		push	{lr}
 2460              		.cfi_def_cfa_offset 4
 2461              		.cfi_offset 14, -4
 2462 0f72 83B0     		sub	sp, sp, #12
 2463              		.cfi_def_cfa_offset 16
 2464 0f74 0190     		str	r0, [sp, #4]
 2465 0f76 0091     		str	r1, [sp]
 2466              		.loc 1 1340 0
 2467 0f78 019B     		ldr	r3, [sp, #4]
 2468 0f7a 1B68     		ldr	r3, [r3]
 2469 0f7c 1846     		mov	r0, r3
 2470 0f7e 0099     		ldr	r1, [sp]
 2471 0f80 0022     		movs	r2, #0
 2472 0f82 00F00DFC 		bl	TIM_CCxNChannelCmd
 2473              		.loc 1 1343 0
 2474 0f86 019B     		ldr	r3, [sp, #4]
 2475 0f88 1B68     		ldr	r3, [r3]
 2476 0f8a 1A6A     		ldr	r2, [r3, #32]
 2477 0f8c 41F21113 		movw	r3, #4369
 2478 0f90 1340     		ands	r3, r3, r2
 2479 0f92 002B     		cmp	r3, #0
 2480 0f94 0FD1     		bne	.L146
 2481              		.loc 1 1343 0 is_stmt 0 discriminator 1
 2482 0f96 019B     		ldr	r3, [sp, #4]
 2483 0f98 1B68     		ldr	r3, [r3]
 2484 0f9a 1A6A     		ldr	r2, [r3, #32]
 2485 0f9c 40F24443 		movw	r3, #1092
 2486 0fa0 1340     		ands	r3, r3, r2
 2487 0fa2 002B     		cmp	r3, #0
 2488 0fa4 07D1     		bne	.L146
 2489 0fa6 019B     		ldr	r3, [sp, #4]
 2490 0fa8 1B68     		ldr	r3, [r3]
 2491 0faa 019A     		ldr	r2, [sp, #4]
 2492 0fac 1268     		ldr	r2, [r2]
 2493 0fae 526C     		ldr	r2, [r2, #68]
 2494 0fb0 22F40042 		bic	r2, r2, #32768
 2495 0fb4 5A64     		str	r2, [r3, #68]
 2496              	.L146:
 2497              		.loc 1 1346 0 is_stmt 1
 2498 0fb6 019B     		ldr	r3, [sp, #4]
ARM GAS  /tmp/ccUiHCLc.s 			page 45


 2499 0fb8 1B68     		ldr	r3, [r3]
 2500 0fba 1A6A     		ldr	r2, [r3, #32]
 2501 0fbc 41F21113 		movw	r3, #4369
 2502 0fc0 1340     		ands	r3, r3, r2
 2503 0fc2 002B     		cmp	r3, #0
 2504 0fc4 0FD1     		bne	.L147
 2505              		.loc 1 1346 0 is_stmt 0 discriminator 1
 2506 0fc6 019B     		ldr	r3, [sp, #4]
 2507 0fc8 1B68     		ldr	r3, [r3]
 2508 0fca 1A6A     		ldr	r2, [r3, #32]
 2509 0fcc 40F24443 		movw	r3, #1092
 2510 0fd0 1340     		ands	r3, r3, r2
 2511 0fd2 002B     		cmp	r3, #0
 2512 0fd4 07D1     		bne	.L147
 2513 0fd6 019B     		ldr	r3, [sp, #4]
 2514 0fd8 1B68     		ldr	r3, [r3]
 2515 0fda 019A     		ldr	r2, [sp, #4]
 2516 0fdc 1268     		ldr	r2, [r2]
 2517 0fde 1268     		ldr	r2, [r2]
 2518 0fe0 22F00102 		bic	r2, r2, #1
 2519 0fe4 1A60     		str	r2, [r3]
 2520              	.L147:
 2521              		.loc 1 1349 0 is_stmt 1
 2522 0fe6 0023     		movs	r3, #0
 2523              		.loc 1 1350 0
 2524 0fe8 1846     		mov	r0, r3
 2525 0fea 03B0     		add	sp, sp, #12
 2526              		@ sp needed
 2527 0fec 5DF804FB 		ldr	pc, [sp], #4
 2528              		.cfi_endproc
 2529              	.LFE148:
 2530              		.size	HAL_TIMEx_OnePulseN_Stop, .-HAL_TIMEx_OnePulseN_Stop
 2531              		.align	2
 2532              		.p2align 4,,15
 2533              		.global	HAL_TIMEx_OnePulseN_Start_IT
 2534              		.thumb
 2535              		.thumb_func
 2536              		.type	HAL_TIMEx_OnePulseN_Start_IT, %function
 2537              	HAL_TIMEx_OnePulseN_Start_IT:
 2538              	.LFB149:
 2539              		.loc 1 1363 0
 2540              		.cfi_startproc
 2541              		@ args = 0, pretend = 0, frame = 8
 2542              		@ frame_needed = 0, uses_anonymous_args = 0
 2543 0ff0 00B5     		push	{lr}
 2544              		.cfi_def_cfa_offset 4
 2545              		.cfi_offset 14, -4
 2546 0ff2 83B0     		sub	sp, sp, #12
 2547              		.cfi_def_cfa_offset 16
 2548 0ff4 0190     		str	r0, [sp, #4]
 2549 0ff6 0091     		str	r1, [sp]
 2550              		.loc 1 1368 0
 2551 0ff8 019B     		ldr	r3, [sp, #4]
 2552 0ffa 1B68     		ldr	r3, [r3]
 2553 0ffc 019A     		ldr	r2, [sp, #4]
 2554 0ffe 1268     		ldr	r2, [r2]
 2555 1000 D268     		ldr	r2, [r2, #12]
ARM GAS  /tmp/ccUiHCLc.s 			page 46


 2556 1002 42F00202 		orr	r2, r2, #2
 2557 1006 DA60     		str	r2, [r3, #12]
 2558              		.loc 1 1371 0
 2559 1008 019B     		ldr	r3, [sp, #4]
 2560 100a 1B68     		ldr	r3, [r3]
 2561 100c 019A     		ldr	r2, [sp, #4]
 2562 100e 1268     		ldr	r2, [r2]
 2563 1010 D268     		ldr	r2, [r2, #12]
 2564 1012 42F00402 		orr	r2, r2, #4
 2565 1016 DA60     		str	r2, [r3, #12]
 2566              		.loc 1 1374 0
 2567 1018 019B     		ldr	r3, [sp, #4]
 2568 101a 1B68     		ldr	r3, [r3]
 2569 101c 1846     		mov	r0, r3
 2570 101e 0099     		ldr	r1, [sp]
 2571 1020 0422     		movs	r2, #4
 2572 1022 00F0BDFB 		bl	TIM_CCxNChannelCmd
 2573              		.loc 1 1377 0
 2574 1026 019B     		ldr	r3, [sp, #4]
 2575 1028 1B68     		ldr	r3, [r3]
 2576 102a 019A     		ldr	r2, [sp, #4]
 2577 102c 1268     		ldr	r2, [r2]
 2578 102e 526C     		ldr	r2, [r2, #68]
 2579 1030 42F40042 		orr	r2, r2, #32768
 2580 1034 5A64     		str	r2, [r3, #68]
 2581              		.loc 1 1380 0
 2582 1036 0023     		movs	r3, #0
 2583              		.loc 1 1381 0
 2584 1038 1846     		mov	r0, r3
 2585 103a 03B0     		add	sp, sp, #12
 2586              		@ sp needed
 2587 103c 5DF804FB 		ldr	pc, [sp], #4
 2588              		.cfi_endproc
 2589              	.LFE149:
 2590              		.size	HAL_TIMEx_OnePulseN_Start_IT, .-HAL_TIMEx_OnePulseN_Start_IT
 2591              		.align	2
 2592              		.p2align 4,,15
 2593              		.global	HAL_TIMEx_OnePulseN_Stop_IT
 2594              		.thumb
 2595              		.thumb_func
 2596              		.type	HAL_TIMEx_OnePulseN_Stop_IT, %function
 2597              	HAL_TIMEx_OnePulseN_Stop_IT:
 2598              	.LFB150:
 2599              		.loc 1 1394 0
 2600              		.cfi_startproc
 2601              		@ args = 0, pretend = 0, frame = 8
 2602              		@ frame_needed = 0, uses_anonymous_args = 0
 2603 1040 00B5     		push	{lr}
 2604              		.cfi_def_cfa_offset 4
 2605              		.cfi_offset 14, -4
 2606 1042 83B0     		sub	sp, sp, #12
 2607              		.cfi_def_cfa_offset 16
 2608 1044 0190     		str	r0, [sp, #4]
 2609 1046 0091     		str	r1, [sp]
 2610              		.loc 1 1399 0
 2611 1048 019B     		ldr	r3, [sp, #4]
 2612 104a 1B68     		ldr	r3, [r3]
ARM GAS  /tmp/ccUiHCLc.s 			page 47


 2613 104c 019A     		ldr	r2, [sp, #4]
 2614 104e 1268     		ldr	r2, [r2]
 2615 1050 D268     		ldr	r2, [r2, #12]
 2616 1052 22F00202 		bic	r2, r2, #2
 2617 1056 DA60     		str	r2, [r3, #12]
 2618              		.loc 1 1402 0
 2619 1058 019B     		ldr	r3, [sp, #4]
 2620 105a 1B68     		ldr	r3, [r3]
 2621 105c 019A     		ldr	r2, [sp, #4]
 2622 105e 1268     		ldr	r2, [r2]
 2623 1060 D268     		ldr	r2, [r2, #12]
 2624 1062 22F00402 		bic	r2, r2, #4
 2625 1066 DA60     		str	r2, [r3, #12]
 2626              		.loc 1 1405 0
 2627 1068 019B     		ldr	r3, [sp, #4]
 2628 106a 1B68     		ldr	r3, [r3]
 2629 106c 1846     		mov	r0, r3
 2630 106e 0099     		ldr	r1, [sp]
 2631 1070 0022     		movs	r2, #0
 2632 1072 00F095FB 		bl	TIM_CCxNChannelCmd
 2633              		.loc 1 1408 0
 2634 1076 019B     		ldr	r3, [sp, #4]
 2635 1078 1B68     		ldr	r3, [r3]
 2636 107a 1A6A     		ldr	r2, [r3, #32]
 2637 107c 41F21113 		movw	r3, #4369
 2638 1080 1340     		ands	r3, r3, r2
 2639 1082 002B     		cmp	r3, #0
 2640 1084 0FD1     		bne	.L152
 2641              		.loc 1 1408 0 is_stmt 0 discriminator 1
 2642 1086 019B     		ldr	r3, [sp, #4]
 2643 1088 1B68     		ldr	r3, [r3]
 2644 108a 1A6A     		ldr	r2, [r3, #32]
 2645 108c 40F24443 		movw	r3, #1092
 2646 1090 1340     		ands	r3, r3, r2
 2647 1092 002B     		cmp	r3, #0
 2648 1094 07D1     		bne	.L152
 2649 1096 019B     		ldr	r3, [sp, #4]
 2650 1098 1B68     		ldr	r3, [r3]
 2651 109a 019A     		ldr	r2, [sp, #4]
 2652 109c 1268     		ldr	r2, [r2]
 2653 109e 526C     		ldr	r2, [r2, #68]
 2654 10a0 22F40042 		bic	r2, r2, #32768
 2655 10a4 5A64     		str	r2, [r3, #68]
 2656              	.L152:
 2657              		.loc 1 1411 0 is_stmt 1
 2658 10a6 019B     		ldr	r3, [sp, #4]
 2659 10a8 1B68     		ldr	r3, [r3]
 2660 10aa 1A6A     		ldr	r2, [r3, #32]
 2661 10ac 41F21113 		movw	r3, #4369
 2662 10b0 1340     		ands	r3, r3, r2
 2663 10b2 002B     		cmp	r3, #0
 2664 10b4 0FD1     		bne	.L153
 2665              		.loc 1 1411 0 is_stmt 0 discriminator 1
 2666 10b6 019B     		ldr	r3, [sp, #4]
 2667 10b8 1B68     		ldr	r3, [r3]
 2668 10ba 1A6A     		ldr	r2, [r3, #32]
 2669 10bc 40F24443 		movw	r3, #1092
ARM GAS  /tmp/ccUiHCLc.s 			page 48


 2670 10c0 1340     		ands	r3, r3, r2
 2671 10c2 002B     		cmp	r3, #0
 2672 10c4 07D1     		bne	.L153
 2673 10c6 019B     		ldr	r3, [sp, #4]
 2674 10c8 1B68     		ldr	r3, [r3]
 2675 10ca 019A     		ldr	r2, [sp, #4]
 2676 10cc 1268     		ldr	r2, [r2]
 2677 10ce 1268     		ldr	r2, [r2]
 2678 10d0 22F00102 		bic	r2, r2, #1
 2679 10d4 1A60     		str	r2, [r3]
 2680              	.L153:
 2681              		.loc 1 1414 0 is_stmt 1
 2682 10d6 0023     		movs	r3, #0
 2683              		.loc 1 1415 0
 2684 10d8 1846     		mov	r0, r3
 2685 10da 03B0     		add	sp, sp, #12
 2686              		@ sp needed
 2687 10dc 5DF804FB 		ldr	pc, [sp], #4
 2688              		.cfi_endproc
 2689              	.LFE150:
 2690              		.size	HAL_TIMEx_OnePulseN_Stop_IT, .-HAL_TIMEx_OnePulseN_Stop_IT
 2691              		.align	2
 2692              		.p2align 4,,15
 2693              		.global	HAL_TIMEx_ConfigCommutationEvent
 2694              		.thumb
 2695              		.thumb_func
 2696              		.type	HAL_TIMEx_ConfigCommutationEvent, %function
 2697              	HAL_TIMEx_ConfigCommutationEvent:
 2698              	.LFB151:
 2699              		.loc 1 1465 0
 2700              		.cfi_startproc
 2701              		@ args = 0, pretend = 0, frame = 16
 2702              		@ frame_needed = 0, uses_anonymous_args = 0
 2703              		@ link register save eliminated.
 2704 10e0 84B0     		sub	sp, sp, #16
 2705              		.cfi_def_cfa_offset 16
 2706 10e2 0390     		str	r0, [sp, #12]
 2707 10e4 0291     		str	r1, [sp, #8]
 2708 10e6 0192     		str	r2, [sp, #4]
 2709              		.loc 1 1470 0
 2710 10e8 039B     		ldr	r3, [sp, #12]
 2711 10ea 93F83830 		ldrb	r3, [r3, #56]	@ zero_extendqisi2
 2712 10ee 012B     		cmp	r3, #1
 2713 10f0 01D1     		bne	.L156
 2714              		.loc 1 1470 0 is_stmt 0 discriminator 1
 2715 10f2 0223     		movs	r3, #2
 2716 10f4 3CE0     		b	.L157
 2717              	.L156:
 2718              		.loc 1 1470 0 discriminator 2
 2719 10f6 039B     		ldr	r3, [sp, #12]
 2720 10f8 0122     		movs	r2, #1
 2721 10fa 83F83820 		strb	r2, [r3, #56]
 2722              		.loc 1 1472 0 is_stmt 1 discriminator 2
 2723 10fe 029B     		ldr	r3, [sp, #8]
 2724 1100 002B     		cmp	r3, #0
 2725 1102 08D0     		beq	.L158
 2726              		.loc 1 1472 0 is_stmt 0 discriminator 1
ARM GAS  /tmp/ccUiHCLc.s 			page 49


 2727 1104 029B     		ldr	r3, [sp, #8]
 2728 1106 102B     		cmp	r3, #16
 2729 1108 05D0     		beq	.L158
 2730 110a 029B     		ldr	r3, [sp, #8]
 2731 110c 202B     		cmp	r3, #32
 2732 110e 02D0     		beq	.L158
 2733              		.loc 1 1473 0 is_stmt 1
 2734 1110 029B     		ldr	r3, [sp, #8]
 2735 1112 302B     		cmp	r3, #48
 2736 1114 0FD1     		bne	.L159
 2737              	.L158:
 2738              		.loc 1 1476 0
 2739 1116 039B     		ldr	r3, [sp, #12]
 2740 1118 1B68     		ldr	r3, [r3]
 2741 111a 039A     		ldr	r2, [sp, #12]
 2742 111c 1268     		ldr	r2, [r2]
 2743 111e 9268     		ldr	r2, [r2, #8]
 2744 1120 22F07002 		bic	r2, r2, #112
 2745 1124 9A60     		str	r2, [r3, #8]
 2746              		.loc 1 1477 0
 2747 1126 039B     		ldr	r3, [sp, #12]
 2748 1128 1B68     		ldr	r3, [r3]
 2749 112a 039A     		ldr	r2, [sp, #12]
 2750 112c 1268     		ldr	r2, [r2]
 2751 112e 9168     		ldr	r1, [r2, #8]
 2752 1130 029A     		ldr	r2, [sp, #8]
 2753 1132 0A43     		orrs	r2, r2, r1
 2754 1134 9A60     		str	r2, [r3, #8]
 2755              	.L159:
 2756              		.loc 1 1481 0
 2757 1136 039B     		ldr	r3, [sp, #12]
 2758 1138 1B68     		ldr	r3, [r3]
 2759 113a 039A     		ldr	r2, [sp, #12]
 2760 113c 1268     		ldr	r2, [r2]
 2761 113e 5268     		ldr	r2, [r2, #4]
 2762 1140 42F00102 		orr	r2, r2, #1
 2763 1144 5A60     		str	r2, [r3, #4]
 2764              		.loc 1 1483 0
 2765 1146 039B     		ldr	r3, [sp, #12]
 2766 1148 1B68     		ldr	r3, [r3]
 2767 114a 039A     		ldr	r2, [sp, #12]
 2768 114c 1268     		ldr	r2, [r2]
 2769 114e 5268     		ldr	r2, [r2, #4]
 2770 1150 22F00402 		bic	r2, r2, #4
 2771 1154 5A60     		str	r2, [r3, #4]
 2772              		.loc 1 1484 0
 2773 1156 039B     		ldr	r3, [sp, #12]
 2774 1158 1B68     		ldr	r3, [r3]
 2775 115a 039A     		ldr	r2, [sp, #12]
 2776 115c 1268     		ldr	r2, [r2]
 2777 115e 5168     		ldr	r1, [r2, #4]
 2778 1160 019A     		ldr	r2, [sp, #4]
 2779 1162 0A43     		orrs	r2, r2, r1
 2780 1164 5A60     		str	r2, [r3, #4]
 2781              		.loc 1 1486 0
 2782 1166 039B     		ldr	r3, [sp, #12]
 2783 1168 0022     		movs	r2, #0
ARM GAS  /tmp/ccUiHCLc.s 			page 50


 2784 116a 83F83820 		strb	r2, [r3, #56]
 2785              		.loc 1 1488 0
 2786 116e 0023     		movs	r3, #0
 2787              	.L157:
 2788              		.loc 1 1489 0
 2789 1170 1846     		mov	r0, r3
 2790 1172 04B0     		add	sp, sp, #16
 2791              		@ sp needed
 2792 1174 7047     		bx	lr
 2793              		.cfi_endproc
 2794              	.LFE151:
 2795              		.size	HAL_TIMEx_ConfigCommutationEvent, .-HAL_TIMEx_ConfigCommutationEvent
 2796 1176 00BF     		.align	2
 2797 1178 AFF30080 		.p2align 4,,15
 2797      AFF30080 
 2798              		.global	HAL_TIMEx_ConfigCommutationEvent_IT
 2799              		.thumb
 2800              		.thumb_func
 2801              		.type	HAL_TIMEx_ConfigCommutationEvent_IT, %function
 2802              	HAL_TIMEx_ConfigCommutationEvent_IT:
 2803              	.LFB152:
 2804              		.loc 1 1514 0
 2805              		.cfi_startproc
 2806              		@ args = 0, pretend = 0, frame = 16
 2807              		@ frame_needed = 0, uses_anonymous_args = 0
 2808              		@ link register save eliminated.
 2809 1180 84B0     		sub	sp, sp, #16
 2810              		.cfi_def_cfa_offset 16
 2811 1182 0390     		str	r0, [sp, #12]
 2812 1184 0291     		str	r1, [sp, #8]
 2813 1186 0192     		str	r2, [sp, #4]
 2814              		.loc 1 1519 0
 2815 1188 039B     		ldr	r3, [sp, #12]
 2816 118a 93F83830 		ldrb	r3, [r3, #56]	@ zero_extendqisi2
 2817 118e 012B     		cmp	r3, #1
 2818 1190 01D1     		bne	.L161
 2819              		.loc 1 1519 0 is_stmt 0 discriminator 1
 2820 1192 0223     		movs	r3, #2
 2821 1194 44E0     		b	.L162
 2822              	.L161:
 2823              		.loc 1 1519 0 discriminator 2
 2824 1196 039B     		ldr	r3, [sp, #12]
 2825 1198 0122     		movs	r2, #1
 2826 119a 83F83820 		strb	r2, [r3, #56]
 2827              		.loc 1 1521 0 is_stmt 1 discriminator 2
 2828 119e 029B     		ldr	r3, [sp, #8]
 2829 11a0 002B     		cmp	r3, #0
 2830 11a2 08D0     		beq	.L163
 2831              		.loc 1 1521 0 is_stmt 0 discriminator 1
 2832 11a4 029B     		ldr	r3, [sp, #8]
 2833 11a6 102B     		cmp	r3, #16
 2834 11a8 05D0     		beq	.L163
 2835 11aa 029B     		ldr	r3, [sp, #8]
 2836 11ac 202B     		cmp	r3, #32
 2837 11ae 02D0     		beq	.L163
 2838              		.loc 1 1522 0 is_stmt 1
 2839 11b0 029B     		ldr	r3, [sp, #8]
ARM GAS  /tmp/ccUiHCLc.s 			page 51


 2840 11b2 302B     		cmp	r3, #48
 2841 11b4 0FD1     		bne	.L164
 2842              	.L163:
 2843              		.loc 1 1525 0
 2844 11b6 039B     		ldr	r3, [sp, #12]
 2845 11b8 1B68     		ldr	r3, [r3]
 2846 11ba 039A     		ldr	r2, [sp, #12]
 2847 11bc 1268     		ldr	r2, [r2]
 2848 11be 9268     		ldr	r2, [r2, #8]
 2849 11c0 22F07002 		bic	r2, r2, #112
 2850 11c4 9A60     		str	r2, [r3, #8]
 2851              		.loc 1 1526 0
 2852 11c6 039B     		ldr	r3, [sp, #12]
 2853 11c8 1B68     		ldr	r3, [r3]
 2854 11ca 039A     		ldr	r2, [sp, #12]
 2855 11cc 1268     		ldr	r2, [r2]
 2856 11ce 9168     		ldr	r1, [r2, #8]
 2857 11d0 029A     		ldr	r2, [sp, #8]
 2858 11d2 0A43     		orrs	r2, r2, r1
 2859 11d4 9A60     		str	r2, [r3, #8]
 2860              	.L164:
 2861              		.loc 1 1530 0
 2862 11d6 039B     		ldr	r3, [sp, #12]
 2863 11d8 1B68     		ldr	r3, [r3]
 2864 11da 039A     		ldr	r2, [sp, #12]
 2865 11dc 1268     		ldr	r2, [r2]
 2866 11de 5268     		ldr	r2, [r2, #4]
 2867 11e0 42F00102 		orr	r2, r2, #1
 2868 11e4 5A60     		str	r2, [r3, #4]
 2869              		.loc 1 1532 0
 2870 11e6 039B     		ldr	r3, [sp, #12]
 2871 11e8 1B68     		ldr	r3, [r3]
 2872 11ea 039A     		ldr	r2, [sp, #12]
 2873 11ec 1268     		ldr	r2, [r2]
 2874 11ee 5268     		ldr	r2, [r2, #4]
 2875 11f0 22F00402 		bic	r2, r2, #4
 2876 11f4 5A60     		str	r2, [r3, #4]
 2877              		.loc 1 1533 0
 2878 11f6 039B     		ldr	r3, [sp, #12]
 2879 11f8 1B68     		ldr	r3, [r3]
 2880 11fa 039A     		ldr	r2, [sp, #12]
 2881 11fc 1268     		ldr	r2, [r2]
 2882 11fe 5168     		ldr	r1, [r2, #4]
 2883 1200 019A     		ldr	r2, [sp, #4]
 2884 1202 0A43     		orrs	r2, r2, r1
 2885 1204 5A60     		str	r2, [r3, #4]
 2886              		.loc 1 1536 0
 2887 1206 039B     		ldr	r3, [sp, #12]
 2888 1208 1B68     		ldr	r3, [r3]
 2889 120a 039A     		ldr	r2, [sp, #12]
 2890 120c 1268     		ldr	r2, [r2]
 2891 120e D268     		ldr	r2, [r2, #12]
 2892 1210 42F02002 		orr	r2, r2, #32
 2893 1214 DA60     		str	r2, [r3, #12]
 2894              		.loc 1 1538 0
 2895 1216 039B     		ldr	r3, [sp, #12]
 2896 1218 0022     		movs	r2, #0
ARM GAS  /tmp/ccUiHCLc.s 			page 52


 2897 121a 83F83820 		strb	r2, [r3, #56]
 2898              		.loc 1 1540 0
 2899 121e 0023     		movs	r3, #0
 2900              	.L162:
 2901              		.loc 1 1541 0
 2902 1220 1846     		mov	r0, r3
 2903 1222 04B0     		add	sp, sp, #16
 2904              		@ sp needed
 2905 1224 7047     		bx	lr
 2906              		.cfi_endproc
 2907              	.LFE152:
 2908              		.size	HAL_TIMEx_ConfigCommutationEvent_IT, .-HAL_TIMEx_ConfigCommutationEvent_IT
 2909 1226 00BF     		.align	2
 2910 1228 AFF30080 		.p2align 4,,15
 2910      AFF30080 
 2911              		.global	HAL_TIMEx_ConfigCommutationEvent_DMA
 2912              		.thumb
 2913              		.thumb_func
 2914              		.type	HAL_TIMEx_ConfigCommutationEvent_DMA, %function
 2915              	HAL_TIMEx_ConfigCommutationEvent_DMA:
 2916              	.LFB153:
 2917              		.loc 1 1567 0
 2918              		.cfi_startproc
 2919              		@ args = 0, pretend = 0, frame = 16
 2920              		@ frame_needed = 0, uses_anonymous_args = 0
 2921              		@ link register save eliminated.
 2922 1230 84B0     		sub	sp, sp, #16
 2923              		.cfi_def_cfa_offset 16
 2924 1232 0390     		str	r0, [sp, #12]
 2925 1234 0291     		str	r1, [sp, #8]
 2926 1236 0192     		str	r2, [sp, #4]
 2927              		.loc 1 1572 0
 2928 1238 039B     		ldr	r3, [sp, #12]
 2929 123a 93F83830 		ldrb	r3, [r3, #56]	@ zero_extendqisi2
 2930 123e 012B     		cmp	r3, #1
 2931 1240 01D1     		bne	.L166
 2932              		.loc 1 1572 0 is_stmt 0 discriminator 1
 2933 1242 0223     		movs	r3, #2
 2934 1244 4CE0     		b	.L167
 2935              	.L166:
 2936              		.loc 1 1572 0 discriminator 2
 2937 1246 039B     		ldr	r3, [sp, #12]
 2938 1248 0122     		movs	r2, #1
 2939 124a 83F83820 		strb	r2, [r3, #56]
 2940              		.loc 1 1574 0 is_stmt 1 discriminator 2
 2941 124e 029B     		ldr	r3, [sp, #8]
 2942 1250 002B     		cmp	r3, #0
 2943 1252 08D0     		beq	.L168
 2944              		.loc 1 1574 0 is_stmt 0 discriminator 1
 2945 1254 029B     		ldr	r3, [sp, #8]
 2946 1256 102B     		cmp	r3, #16
 2947 1258 05D0     		beq	.L168
 2948 125a 029B     		ldr	r3, [sp, #8]
 2949 125c 202B     		cmp	r3, #32
 2950 125e 02D0     		beq	.L168
 2951              		.loc 1 1575 0 is_stmt 1
 2952 1260 029B     		ldr	r3, [sp, #8]
ARM GAS  /tmp/ccUiHCLc.s 			page 53


 2953 1262 302B     		cmp	r3, #48
 2954 1264 0FD1     		bne	.L169
 2955              	.L168:
 2956              		.loc 1 1578 0
 2957 1266 039B     		ldr	r3, [sp, #12]
 2958 1268 1B68     		ldr	r3, [r3]
 2959 126a 039A     		ldr	r2, [sp, #12]
 2960 126c 1268     		ldr	r2, [r2]
 2961 126e 9268     		ldr	r2, [r2, #8]
 2962 1270 22F07002 		bic	r2, r2, #112
 2963 1274 9A60     		str	r2, [r3, #8]
 2964              		.loc 1 1579 0
 2965 1276 039B     		ldr	r3, [sp, #12]
 2966 1278 1B68     		ldr	r3, [r3]
 2967 127a 039A     		ldr	r2, [sp, #12]
 2968 127c 1268     		ldr	r2, [r2]
 2969 127e 9168     		ldr	r1, [r2, #8]
 2970 1280 029A     		ldr	r2, [sp, #8]
 2971 1282 0A43     		orrs	r2, r2, r1
 2972 1284 9A60     		str	r2, [r3, #8]
 2973              	.L169:
 2974              		.loc 1 1583 0
 2975 1286 039B     		ldr	r3, [sp, #12]
 2976 1288 1B68     		ldr	r3, [r3]
 2977 128a 039A     		ldr	r2, [sp, #12]
 2978 128c 1268     		ldr	r2, [r2]
 2979 128e 5268     		ldr	r2, [r2, #4]
 2980 1290 42F00102 		orr	r2, r2, #1
 2981 1294 5A60     		str	r2, [r3, #4]
 2982              		.loc 1 1585 0
 2983 1296 039B     		ldr	r3, [sp, #12]
 2984 1298 1B68     		ldr	r3, [r3]
 2985 129a 039A     		ldr	r2, [sp, #12]
 2986 129c 1268     		ldr	r2, [r2]
 2987 129e 5268     		ldr	r2, [r2, #4]
 2988 12a0 22F00402 		bic	r2, r2, #4
 2989 12a4 5A60     		str	r2, [r3, #4]
 2990              		.loc 1 1586 0
 2991 12a6 039B     		ldr	r3, [sp, #12]
 2992 12a8 1B68     		ldr	r3, [r3]
 2993 12aa 039A     		ldr	r2, [sp, #12]
 2994 12ac 1268     		ldr	r2, [r2]
 2995 12ae 5168     		ldr	r1, [r2, #4]
 2996 12b0 019A     		ldr	r2, [sp, #4]
 2997 12b2 0A43     		orrs	r2, r2, r1
 2998 12b4 5A60     		str	r2, [r3, #4]
 2999              		.loc 1 1590 0
 3000 12b6 039B     		ldr	r3, [sp, #12]
 3001 12b8 1B6B     		ldr	r3, [r3, #48]
 3002 12ba 0B4A     		ldr	r2, .L170
 3003 12bc DA62     		str	r2, [r3, #44]
 3004              		.loc 1 1592 0
 3005 12be 039B     		ldr	r3, [sp, #12]
 3006 12c0 1B6B     		ldr	r3, [r3, #48]
 3007 12c2 0A4A     		ldr	r2, .L170+4
 3008 12c4 5A63     		str	r2, [r3, #52]
 3009              		.loc 1 1595 0
ARM GAS  /tmp/ccUiHCLc.s 			page 54


 3010 12c6 039B     		ldr	r3, [sp, #12]
 3011 12c8 1B68     		ldr	r3, [r3]
 3012 12ca 039A     		ldr	r2, [sp, #12]
 3013 12cc 1268     		ldr	r2, [r2]
 3014 12ce D268     		ldr	r2, [r2, #12]
 3015 12d0 42F40052 		orr	r2, r2, #8192
 3016 12d4 DA60     		str	r2, [r3, #12]
 3017              		.loc 1 1597 0
 3018 12d6 039B     		ldr	r3, [sp, #12]
 3019 12d8 0022     		movs	r2, #0
 3020 12da 83F83820 		strb	r2, [r3, #56]
 3021              		.loc 1 1599 0
 3022 12de 0023     		movs	r3, #0
 3023              	.L167:
 3024              		.loc 1 1600 0
 3025 12e0 1846     		mov	r0, r3
 3026 12e2 04B0     		add	sp, sp, #16
 3027              		@ sp needed
 3028 12e4 7047     		bx	lr
 3029              	.L171:
 3030 12e6 00BF     		.align	2
 3031              	.L170:
 3032 12e8 00000000 		.word	TIMEx_DMACommutationCplt
 3033 12ec 00000000 		.word	TIM_DMAError
 3034              		.cfi_endproc
 3035              	.LFE153:
 3036              		.size	HAL_TIMEx_ConfigCommutationEvent_DMA, .-HAL_TIMEx_ConfigCommutationEvent_DMA
 3037              		.align	2
 3038              		.p2align 4,,15
 3039              		.global	HAL_TIMEx_MasterConfigSynchronization
 3040              		.thumb
 3041              		.thumb_func
 3042              		.type	HAL_TIMEx_MasterConfigSynchronization, %function
 3043              	HAL_TIMEx_MasterConfigSynchronization:
 3044              	.LFB154:
 3045              		.loc 1 1612 0
 3046              		.cfi_startproc
 3047              		@ args = 0, pretend = 0, frame = 16
 3048              		@ frame_needed = 0, uses_anonymous_args = 0
 3049              		@ link register save eliminated.
 3050 12f0 84B0     		sub	sp, sp, #16
 3051              		.cfi_def_cfa_offset 16
 3052 12f2 0190     		str	r0, [sp, #4]
 3053 12f4 0091     		str	r1, [sp]
 3054              		.loc 1 1622 0
 3055 12f6 019B     		ldr	r3, [sp, #4]
 3056 12f8 93F83830 		ldrb	r3, [r3, #56]	@ zero_extendqisi2
 3057 12fc 012B     		cmp	r3, #1
 3058 12fe 01D1     		bne	.L173
 3059              		.loc 1 1622 0 is_stmt 0 discriminator 1
 3060 1300 0223     		movs	r3, #2
 3061 1302 3DE0     		b	.L174
 3062              	.L173:
 3063              		.loc 1 1622 0 discriminator 2
 3064 1304 019B     		ldr	r3, [sp, #4]
 3065 1306 0122     		movs	r2, #1
 3066 1308 83F83820 		strb	r2, [r3, #56]
ARM GAS  /tmp/ccUiHCLc.s 			page 55


 3067              		.loc 1 1625 0 is_stmt 1 discriminator 2
 3068 130c 019B     		ldr	r3, [sp, #4]
 3069 130e 1B68     		ldr	r3, [r3]
 3070 1310 5B68     		ldr	r3, [r3, #4]
 3071 1312 0393     		str	r3, [sp, #12]
 3072              		.loc 1 1628 0 discriminator 2
 3073 1314 019B     		ldr	r3, [sp, #4]
 3074 1316 1B68     		ldr	r3, [r3]
 3075 1318 9B68     		ldr	r3, [r3, #8]
 3076 131a 0293     		str	r3, [sp, #8]
 3077              		.loc 1 1631 0 discriminator 2
 3078 131c 019B     		ldr	r3, [sp, #4]
 3079 131e 1A68     		ldr	r2, [r3]
 3080 1320 194B     		ldr	r3, .L177
 3081 1322 9A42     		cmp	r2, r3
 3082 1324 04D0     		beq	.L175
 3083              		.loc 1 1631 0 is_stmt 0 discriminator 1
 3084 1326 019B     		ldr	r3, [sp, #4]
 3085 1328 1A68     		ldr	r2, [r3]
 3086 132a 184B     		ldr	r3, .L177+4
 3087 132c 9A42     		cmp	r2, r3
 3088 132e 08D1     		bne	.L176
 3089              	.L175:
 3090              		.loc 1 1637 0 is_stmt 1
 3091 1330 039B     		ldr	r3, [sp, #12]
 3092 1332 23F47003 		bic	r3, r3, #15728640
 3093 1336 0393     		str	r3, [sp, #12]
 3094              		.loc 1 1639 0
 3095 1338 009B     		ldr	r3, [sp]
 3096 133a 5B68     		ldr	r3, [r3, #4]
 3097 133c 039A     		ldr	r2, [sp, #12]
 3098 133e 1343     		orrs	r3, r3, r2
 3099 1340 0393     		str	r3, [sp, #12]
 3100              	.L176:
 3101              		.loc 1 1643 0
 3102 1342 039B     		ldr	r3, [sp, #12]
 3103 1344 23F07003 		bic	r3, r3, #112
 3104 1348 0393     		str	r3, [sp, #12]
 3105              		.loc 1 1645 0
 3106 134a 009B     		ldr	r3, [sp]
 3107 134c 1B68     		ldr	r3, [r3]
 3108 134e 039A     		ldr	r2, [sp, #12]
 3109 1350 1343     		orrs	r3, r3, r2
 3110 1352 0393     		str	r3, [sp, #12]
 3111              		.loc 1 1648 0
 3112 1354 029B     		ldr	r3, [sp, #8]
 3113 1356 23F08003 		bic	r3, r3, #128
 3114 135a 0293     		str	r3, [sp, #8]
 3115              		.loc 1 1650 0
 3116 135c 009B     		ldr	r3, [sp]
 3117 135e 9B68     		ldr	r3, [r3, #8]
 3118 1360 029A     		ldr	r2, [sp, #8]
 3119 1362 1343     		orrs	r3, r3, r2
 3120 1364 0293     		str	r3, [sp, #8]
 3121              		.loc 1 1653 0
 3122 1366 019B     		ldr	r3, [sp, #4]
 3123 1368 1B68     		ldr	r3, [r3]
ARM GAS  /tmp/ccUiHCLc.s 			page 56


 3124 136a 039A     		ldr	r2, [sp, #12]
 3125 136c 5A60     		str	r2, [r3, #4]
 3126              		.loc 1 1656 0
 3127 136e 019B     		ldr	r3, [sp, #4]
 3128 1370 1B68     		ldr	r3, [r3]
 3129 1372 029A     		ldr	r2, [sp, #8]
 3130 1374 9A60     		str	r2, [r3, #8]
 3131              		.loc 1 1658 0
 3132 1376 019B     		ldr	r3, [sp, #4]
 3133 1378 0022     		movs	r2, #0
 3134 137a 83F83820 		strb	r2, [r3, #56]
 3135              		.loc 1 1660 0
 3136 137e 0023     		movs	r3, #0
 3137              	.L174:
 3138              		.loc 1 1661 0
 3139 1380 1846     		mov	r0, r3
 3140 1382 04B0     		add	sp, sp, #16
 3141              		@ sp needed
 3142 1384 7047     		bx	lr
 3143              	.L178:
 3144 1386 00BF     		.align	2
 3145              	.L177:
 3146 1388 002C0140 		.word	1073818624
 3147 138c 00340140 		.word	1073820672
 3148              		.cfi_endproc
 3149              	.LFE154:
 3150              		.size	HAL_TIMEx_MasterConfigSynchronization, .-HAL_TIMEx_MasterConfigSynchronization
 3151              		.align	2
 3152              		.p2align 4,,15
 3153              		.global	HAL_TIMEx_ConfigBreakDeadTime
 3154              		.thumb
 3155              		.thumb_func
 3156              		.type	HAL_TIMEx_ConfigBreakDeadTime, %function
 3157              	HAL_TIMEx_ConfigBreakDeadTime:
 3158              	.LFB155:
 3159              		.loc 1 1673 0
 3160              		.cfi_startproc
 3161              		@ args = 0, pretend = 0, frame = 16
 3162              		@ frame_needed = 0, uses_anonymous_args = 0
 3163              		@ link register save eliminated.
 3164 1390 84B0     		sub	sp, sp, #16
 3165              		.cfi_def_cfa_offset 16
 3166 1392 0190     		str	r0, [sp, #4]
 3167 1394 0091     		str	r1, [sp]
 3168              		.loc 1 1674 0
 3169 1396 0023     		movs	r3, #0
 3170 1398 0393     		str	r3, [sp, #12]
 3171              		.loc 1 1688 0
 3172 139a 019B     		ldr	r3, [sp, #4]
 3173 139c 93F83830 		ldrb	r3, [r3, #56]	@ zero_extendqisi2
 3174 13a0 012B     		cmp	r3, #1
 3175 13a2 01D1     		bne	.L180
 3176              		.loc 1 1688 0 is_stmt 0 discriminator 1
 3177 13a4 0223     		movs	r3, #2
 3178 13a6 81E0     		b	.L181
 3179              	.L180:
 3180              		.loc 1 1688 0 discriminator 2
ARM GAS  /tmp/ccUiHCLc.s 			page 57


 3181 13a8 019B     		ldr	r3, [sp, #4]
 3182 13aa 0122     		movs	r2, #1
 3183 13ac 83F83820 		strb	r2, [r3, #56]
 3184              		.loc 1 1692 0 is_stmt 1 discriminator 2
 3185 13b0 019B     		ldr	r3, [sp, #4]
 3186 13b2 1A68     		ldr	r2, [r3]
 3187 13b4 3F4B     		ldr	r3, .L185
 3188 13b6 9A42     		cmp	r2, r3
 3189 13b8 04D0     		beq	.L182
 3190              		.loc 1 1692 0 is_stmt 0 discriminator 1
 3191 13ba 019B     		ldr	r3, [sp, #4]
 3192 13bc 1A68     		ldr	r2, [r3]
 3193 13be 3E4B     		ldr	r3, .L185+4
 3194 13c0 9A42     		cmp	r2, r3
 3195 13c2 3DD1     		bne	.L183
 3196              	.L182:
 3197              		.loc 1 1699 0 is_stmt 1
 3198 13c4 039B     		ldr	r3, [sp, #12]
 3199 13c6 03F07C43 		and	r3, r3, #-67108864
 3200 13ca 0393     		str	r3, [sp, #12]
 3201              		.loc 1 1705 0
 3202 13cc 009B     		ldr	r3, [sp]
 3203 13ce DB68     		ldr	r3, [r3, #12]
 3204 13d0 039A     		ldr	r2, [sp, #12]
 3205 13d2 1343     		orrs	r3, r3, r2
 3206 13d4 0393     		str	r3, [sp, #12]
 3207              		.loc 1 1706 0
 3208 13d6 009B     		ldr	r3, [sp]
 3209 13d8 9B68     		ldr	r3, [r3, #8]
 3210 13da 039A     		ldr	r2, [sp, #12]
 3211 13dc 1343     		orrs	r3, r3, r2
 3212 13de 0393     		str	r3, [sp, #12]
 3213              		.loc 1 1707 0
 3214 13e0 009B     		ldr	r3, [sp]
 3215 13e2 5B68     		ldr	r3, [r3, #4]
 3216 13e4 039A     		ldr	r2, [sp, #12]
 3217 13e6 1343     		orrs	r3, r3, r2
 3218 13e8 0393     		str	r3, [sp, #12]
 3219              		.loc 1 1708 0
 3220 13ea 009B     		ldr	r3, [sp]
 3221 13ec 1B68     		ldr	r3, [r3]
 3222 13ee 039A     		ldr	r2, [sp, #12]
 3223 13f0 1343     		orrs	r3, r3, r2
 3224 13f2 0393     		str	r3, [sp, #12]
 3225              		.loc 1 1709 0
 3226 13f4 009B     		ldr	r3, [sp]
 3227 13f6 1B69     		ldr	r3, [r3, #16]
 3228 13f8 039A     		ldr	r2, [sp, #12]
 3229 13fa 1343     		orrs	r3, r3, r2
 3230 13fc 0393     		str	r3, [sp, #12]
 3231              		.loc 1 1710 0
 3232 13fe 009B     		ldr	r3, [sp]
 3233 1400 5B69     		ldr	r3, [r3, #20]
 3234 1402 039A     		ldr	r2, [sp, #12]
 3235 1404 1343     		orrs	r3, r3, r2
 3236 1406 0393     		str	r3, [sp, #12]
 3237              		.loc 1 1711 0
ARM GAS  /tmp/ccUiHCLc.s 			page 58


 3238 1408 009B     		ldr	r3, [sp]
 3239 140a 9B6A     		ldr	r3, [r3, #40]
 3240 140c 039A     		ldr	r2, [sp, #12]
 3241 140e 1343     		orrs	r3, r3, r2
 3242 1410 0393     		str	r3, [sp, #12]
 3243              		.loc 1 1712 0
 3244 1412 009B     		ldr	r3, [sp]
 3245 1414 9B69     		ldr	r3, [r3, #24]
 3246 1416 1B04     		lsls	r3, r3, #16
 3247 1418 039A     		ldr	r2, [sp, #12]
 3248 141a 1343     		orrs	r3, r3, r2
 3249 141c 0393     		str	r3, [sp, #12]
 3250              		.loc 1 1713 0
 3251 141e 009B     		ldr	r3, [sp]
 3252 1420 5B6A     		ldr	r3, [r3, #36]
 3253 1422 1B05     		lsls	r3, r3, #20
 3254 1424 039A     		ldr	r2, [sp, #12]
 3255 1426 1343     		orrs	r3, r3, r2
 3256 1428 0393     		str	r3, [sp, #12]
 3257              		.loc 1 1714 0
 3258 142a 009B     		ldr	r3, [sp]
 3259 142c DB69     		ldr	r3, [r3, #28]
 3260 142e 039A     		ldr	r2, [sp, #12]
 3261 1430 1343     		orrs	r3, r3, r2
 3262 1432 0393     		str	r3, [sp, #12]
 3263              		.loc 1 1715 0
 3264 1434 009B     		ldr	r3, [sp]
 3265 1436 1B6A     		ldr	r3, [r3, #32]
 3266 1438 039A     		ldr	r2, [sp, #12]
 3267 143a 1343     		orrs	r3, r3, r2
 3268 143c 0393     		str	r3, [sp, #12]
 3269 143e 2CE0     		b	.L184
 3270              	.L183:
 3271              		.loc 1 1720 0
 3272 1440 039B     		ldr	r3, [sp, #12]
 3273 1442 1B0D     		lsrs	r3, r3, #20
 3274 1444 1B05     		lsls	r3, r3, #20
 3275 1446 0393     		str	r3, [sp, #12]
 3276              		.loc 1 1725 0
 3277 1448 009B     		ldr	r3, [sp]
 3278 144a DB68     		ldr	r3, [r3, #12]
 3279 144c 039A     		ldr	r2, [sp, #12]
 3280 144e 1343     		orrs	r3, r3, r2
 3281 1450 0393     		str	r3, [sp, #12]
 3282              		.loc 1 1726 0
 3283 1452 009B     		ldr	r3, [sp]
 3284 1454 9B68     		ldr	r3, [r3, #8]
 3285 1456 039A     		ldr	r2, [sp, #12]
 3286 1458 1343     		orrs	r3, r3, r2
 3287 145a 0393     		str	r3, [sp, #12]
 3288              		.loc 1 1727 0
 3289 145c 009B     		ldr	r3, [sp]
 3290 145e 5B68     		ldr	r3, [r3, #4]
 3291 1460 039A     		ldr	r2, [sp, #12]
 3292 1462 1343     		orrs	r3, r3, r2
 3293 1464 0393     		str	r3, [sp, #12]
 3294              		.loc 1 1728 0
ARM GAS  /tmp/ccUiHCLc.s 			page 59


 3295 1466 009B     		ldr	r3, [sp]
 3296 1468 1B68     		ldr	r3, [r3]
 3297 146a 039A     		ldr	r2, [sp, #12]
 3298 146c 1343     		orrs	r3, r3, r2
 3299 146e 0393     		str	r3, [sp, #12]
 3300              		.loc 1 1729 0
 3301 1470 009B     		ldr	r3, [sp]
 3302 1472 1B69     		ldr	r3, [r3, #16]
 3303 1474 039A     		ldr	r2, [sp, #12]
 3304 1476 1343     		orrs	r3, r3, r2
 3305 1478 0393     		str	r3, [sp, #12]
 3306              		.loc 1 1730 0
 3307 147a 009B     		ldr	r3, [sp]
 3308 147c 5B69     		ldr	r3, [r3, #20]
 3309 147e 039A     		ldr	r2, [sp, #12]
 3310 1480 1343     		orrs	r3, r3, r2
 3311 1482 0393     		str	r3, [sp, #12]
 3312              		.loc 1 1731 0
 3313 1484 009B     		ldr	r3, [sp]
 3314 1486 9B6A     		ldr	r3, [r3, #40]
 3315 1488 039A     		ldr	r2, [sp, #12]
 3316 148a 1343     		orrs	r3, r3, r2
 3317 148c 0393     		str	r3, [sp, #12]
 3318              		.loc 1 1732 0
 3319 148e 009B     		ldr	r3, [sp]
 3320 1490 9B69     		ldr	r3, [r3, #24]
 3321 1492 1B04     		lsls	r3, r3, #16
 3322 1494 039A     		ldr	r2, [sp, #12]
 3323 1496 1343     		orrs	r3, r3, r2
 3324 1498 0393     		str	r3, [sp, #12]
 3325              	.L184:
 3326              		.loc 1 1736 0
 3327 149a 019B     		ldr	r3, [sp, #4]
 3328 149c 1B68     		ldr	r3, [r3]
 3329 149e 039A     		ldr	r2, [sp, #12]
 3330 14a0 5A64     		str	r2, [r3, #68]
 3331              		.loc 1 1738 0
 3332 14a2 019B     		ldr	r3, [sp, #4]
 3333 14a4 0022     		movs	r2, #0
 3334 14a6 83F83820 		strb	r2, [r3, #56]
 3335              		.loc 1 1740 0
 3336 14aa 0023     		movs	r3, #0
 3337              	.L181:
 3338              		.loc 1 1741 0
 3339 14ac 1846     		mov	r0, r3
 3340 14ae 04B0     		add	sp, sp, #16
 3341              		@ sp needed
 3342 14b0 7047     		bx	lr
 3343              	.L186:
 3344 14b2 00BF     		.align	2
 3345              	.L185:
 3346 14b4 002C0140 		.word	1073818624
 3347 14b8 00340140 		.word	1073820672
 3348              		.cfi_endproc
 3349              	.LFE155:
 3350              		.size	HAL_TIMEx_ConfigBreakDeadTime, .-HAL_TIMEx_ConfigBreakDeadTime
 3351              		.align	2
ARM GAS  /tmp/ccUiHCLc.s 			page 60


 3352 14bc AFF30080 		.p2align 4,,15
 3353              		.global	HAL_TIMEx_ConfigBreakInput
 3354              		.thumb
 3355              		.thumb_func
 3356              		.type	HAL_TIMEx_ConfigBreakInput, %function
 3357              	HAL_TIMEx_ConfigBreakInput:
 3358              	.LFB156:
 3359              		.loc 1 1757 0
 3360              		.cfi_startproc
 3361              		@ args = 0, pretend = 0, frame = 40
 3362              		@ frame_needed = 0, uses_anonymous_args = 0
 3363              		@ link register save eliminated.
 3364 14c0 8AB0     		sub	sp, sp, #40
 3365              		.cfi_def_cfa_offset 40
 3366 14c2 0390     		str	r0, [sp, #12]
 3367 14c4 0291     		str	r1, [sp, #8]
 3368 14c6 0192     		str	r2, [sp, #4]
 3369              		.loc 1 1758 0
 3370 14c8 0023     		movs	r3, #0
 3371 14ca 0993     		str	r3, [sp, #36]
 3372              		.loc 1 1759 0
 3373 14cc 0023     		movs	r3, #0
 3374 14ce 0893     		str	r3, [sp, #32]
 3375              		.loc 1 1760 0
 3376 14d0 0023     		movs	r3, #0
 3377 14d2 0793     		str	r3, [sp, #28]
 3378              		.loc 1 1761 0
 3379 14d4 0023     		movs	r3, #0
 3380 14d6 0693     		str	r3, [sp, #24]
 3381              		.loc 1 1762 0
 3382 14d8 0023     		movs	r3, #0
 3383 14da 0593     		str	r3, [sp, #20]
 3384              		.loc 1 1780 0
 3385 14dc 039B     		ldr	r3, [sp, #12]
 3386 14de 93F83830 		ldrb	r3, [r3, #56]	@ zero_extendqisi2
 3387 14e2 012B     		cmp	r3, #1
 3388 14e4 01D1     		bne	.L188
 3389              		.loc 1 1780 0 is_stmt 0 discriminator 1
 3390 14e6 0223     		movs	r3, #2
 3391 14e8 9EE0     		b	.L189
 3392              	.L188:
 3393              		.loc 1 1780 0 discriminator 2
 3394 14ea 039B     		ldr	r3, [sp, #12]
 3395 14ec 0122     		movs	r2, #1
 3396 14ee 83F83820 		strb	r2, [r3, #56]
 3397              		.loc 1 1782 0 is_stmt 1 discriminator 2
 3398 14f2 019B     		ldr	r3, [sp, #4]
 3399 14f4 1B68     		ldr	r3, [r3]
 3400 14f6 013B     		subs	r3, r3, #1
 3401 14f8 072B     		cmp	r3, #7
 3402 14fa 37D8     		bhi	.L203
 3403 14fc 01A2     		adr	r2, .L192
 3404 14fe 52F823F0 		ldr	pc, [r2, r3, lsl #2]
 3405 1502 00BF     		.p2align 2
 3406              	.L192:
 3407 1504 25150000 		.word	.L191+1
 3408 1508 39150000 		.word	.L193+1
ARM GAS  /tmp/ccUiHCLc.s 			page 61


 3409 150c 6D150000 		.word	.L203+1
 3410 1510 4D150000 		.word	.L194+1
 3411 1514 6D150000 		.word	.L203+1
 3412 1518 6D150000 		.word	.L203+1
 3413 151c 6D150000 		.word	.L203+1
 3414 1520 61150000 		.word	.L195+1
 3415              		.p2align 1
 3416              	.L191:
 3417              		.loc 1 1786 0
 3418 1524 0123     		movs	r3, #1
 3419 1526 0893     		str	r3, [sp, #32]
 3420              		.loc 1 1787 0
 3421 1528 0023     		movs	r3, #0
 3422 152a 0693     		str	r3, [sp, #24]
 3423              		.loc 1 1788 0
 3424 152c 4FF40073 		mov	r3, #512
 3425 1530 0793     		str	r3, [sp, #28]
 3426              		.loc 1 1789 0
 3427 1532 0923     		movs	r3, #9
 3428 1534 0593     		str	r3, [sp, #20]
 3429              		.loc 1 1791 0
 3430 1536 1AE0     		b	.L196
 3431              	.L193:
 3432              		.loc 1 1794 0
 3433 1538 0223     		movs	r3, #2
 3434 153a 0893     		str	r3, [sp, #32]
 3435              		.loc 1 1795 0
 3436 153c 0123     		movs	r3, #1
 3437 153e 0693     		str	r3, [sp, #24]
 3438              		.loc 1 1796 0
 3439 1540 4FF48063 		mov	r3, #1024
 3440 1544 0793     		str	r3, [sp, #28]
 3441              		.loc 1 1797 0
 3442 1546 0A23     		movs	r3, #10
 3443 1548 0593     		str	r3, [sp, #20]
 3444              		.loc 1 1799 0
 3445 154a 10E0     		b	.L196
 3446              	.L194:
 3447              		.loc 1 1802 0
 3448 154c 0423     		movs	r3, #4
 3449 154e 0893     		str	r3, [sp, #32]
 3450              		.loc 1 1803 0
 3451 1550 0223     		movs	r3, #2
 3452 1552 0693     		str	r3, [sp, #24]
 3453              		.loc 1 1804 0
 3454 1554 4FF40063 		mov	r3, #2048
 3455 1558 0793     		str	r3, [sp, #28]
 3456              		.loc 1 1805 0
 3457 155a 0B23     		movs	r3, #11
 3458 155c 0593     		str	r3, [sp, #20]
 3459              		.loc 1 1807 0
 3460 155e 06E0     		b	.L196
 3461              	.L195:
 3462              		.loc 1 1812 0
 3463 1560 4FF48073 		mov	r3, #256
 3464 1564 0893     		str	r3, [sp, #32]
 3465              		.loc 1 1813 0
ARM GAS  /tmp/ccUiHCLc.s 			page 62


 3466 1566 0823     		movs	r3, #8
 3467 1568 0693     		str	r3, [sp, #24]
 3468              		.loc 1 1815 0
 3469 156a 00E0     		b	.L196
 3470              	.L203:
 3471              		.loc 1 1819 0
 3472 156c 00BF     		nop
 3473              	.L196:
 3474              		.loc 1 1822 0
 3475 156e 029B     		ldr	r3, [sp, #8]
 3476 1570 012B     		cmp	r3, #1
 3477 1572 02D0     		beq	.L198
 3478 1574 022B     		cmp	r3, #2
 3479 1576 29D0     		beq	.L199
 3480              		.loc 1 1869 0
 3481 1578 51E0     		b	.L201
 3482              	.L198:
 3483              		.loc 1 1827 0
 3484 157a 039B     		ldr	r3, [sp, #12]
 3485 157c 1B68     		ldr	r3, [r3]
 3486 157e 1B6E     		ldr	r3, [r3, #96]
 3487 1580 0993     		str	r3, [sp, #36]
 3488              		.loc 1 1830 0
 3489 1582 089B     		ldr	r3, [sp, #32]
 3490 1584 DB43     		mvns	r3, r3
 3491 1586 099A     		ldr	r2, [sp, #36]
 3492 1588 1340     		ands	r3, r3, r2
 3493 158a 0993     		str	r3, [sp, #36]
 3494              		.loc 1 1831 0
 3495 158c 019B     		ldr	r3, [sp, #4]
 3496 158e 5A68     		ldr	r2, [r3, #4]
 3497 1590 069B     		ldr	r3, [sp, #24]
 3498 1592 9A40     		lsls	r2, r2, r3
 3499 1594 089B     		ldr	r3, [sp, #32]
 3500 1596 1340     		ands	r3, r3, r2
 3501 1598 099A     		ldr	r2, [sp, #36]
 3502 159a 1343     		orrs	r3, r3, r2
 3503 159c 0993     		str	r3, [sp, #36]
 3504              		.loc 1 1835 0
 3505 159e 019B     		ldr	r3, [sp, #4]
 3506 15a0 1B68     		ldr	r3, [r3]
 3507 15a2 082B     		cmp	r3, #8
 3508 15a4 0DD0     		beq	.L200
 3509              		.loc 1 1838 0
 3510 15a6 079B     		ldr	r3, [sp, #28]
 3511 15a8 DB43     		mvns	r3, r3
 3512 15aa 099A     		ldr	r2, [sp, #36]
 3513 15ac 1340     		ands	r3, r3, r2
 3514 15ae 0993     		str	r3, [sp, #36]
 3515              		.loc 1 1839 0
 3516 15b0 019B     		ldr	r3, [sp, #4]
 3517 15b2 9A68     		ldr	r2, [r3, #8]
 3518 15b4 059B     		ldr	r3, [sp, #20]
 3519 15b6 9A40     		lsls	r2, r2, r3
 3520 15b8 079B     		ldr	r3, [sp, #28]
 3521 15ba 1340     		ands	r3, r3, r2
 3522 15bc 099A     		ldr	r2, [sp, #36]
ARM GAS  /tmp/ccUiHCLc.s 			page 63


 3523 15be 1343     		orrs	r3, r3, r2
 3524 15c0 0993     		str	r3, [sp, #36]
 3525              	.L200:
 3526              		.loc 1 1843 0
 3527 15c2 039B     		ldr	r3, [sp, #12]
 3528 15c4 1B68     		ldr	r3, [r3]
 3529 15c6 099A     		ldr	r2, [sp, #36]
 3530 15c8 1A66     		str	r2, [r3, #96]
 3531              		.loc 1 1845 0
 3532 15ca 28E0     		b	.L201
 3533              	.L199:
 3534              		.loc 1 1849 0
 3535 15cc 039B     		ldr	r3, [sp, #12]
 3536 15ce 1B68     		ldr	r3, [r3]
 3537 15d0 5B6E     		ldr	r3, [r3, #100]
 3538 15d2 0993     		str	r3, [sp, #36]
 3539              		.loc 1 1852 0
 3540 15d4 089B     		ldr	r3, [sp, #32]
 3541 15d6 DB43     		mvns	r3, r3
 3542 15d8 099A     		ldr	r2, [sp, #36]
 3543 15da 1340     		ands	r3, r3, r2
 3544 15dc 0993     		str	r3, [sp, #36]
 3545              		.loc 1 1853 0
 3546 15de 019B     		ldr	r3, [sp, #4]
 3547 15e0 5A68     		ldr	r2, [r3, #4]
 3548 15e2 069B     		ldr	r3, [sp, #24]
 3549 15e4 9A40     		lsls	r2, r2, r3
 3550 15e6 089B     		ldr	r3, [sp, #32]
 3551 15e8 1340     		ands	r3, r3, r2
 3552 15ea 099A     		ldr	r2, [sp, #36]
 3553 15ec 1343     		orrs	r3, r3, r2
 3554 15ee 0993     		str	r3, [sp, #36]
 3555              		.loc 1 1857 0
 3556 15f0 019B     		ldr	r3, [sp, #4]
 3557 15f2 1B68     		ldr	r3, [r3]
 3558 15f4 082B     		cmp	r3, #8
 3559 15f6 0DD0     		beq	.L202
 3560              		.loc 1 1860 0
 3561 15f8 079B     		ldr	r3, [sp, #28]
 3562 15fa DB43     		mvns	r3, r3
 3563 15fc 099A     		ldr	r2, [sp, #36]
 3564 15fe 1340     		ands	r3, r3, r2
 3565 1600 0993     		str	r3, [sp, #36]
 3566              		.loc 1 1861 0
 3567 1602 019B     		ldr	r3, [sp, #4]
 3568 1604 9A68     		ldr	r2, [r3, #8]
 3569 1606 059B     		ldr	r3, [sp, #20]
 3570 1608 9A40     		lsls	r2, r2, r3
 3571 160a 079B     		ldr	r3, [sp, #28]
 3572 160c 1340     		ands	r3, r3, r2
 3573 160e 099A     		ldr	r2, [sp, #36]
 3574 1610 1343     		orrs	r3, r3, r2
 3575 1612 0993     		str	r3, [sp, #36]
 3576              	.L202:
 3577              		.loc 1 1865 0
 3578 1614 039B     		ldr	r3, [sp, #12]
 3579 1616 1B68     		ldr	r3, [r3]
ARM GAS  /tmp/ccUiHCLc.s 			page 64


 3580 1618 099A     		ldr	r2, [sp, #36]
 3581 161a 5A66     		str	r2, [r3, #100]
 3582              		.loc 1 1867 0
 3583 161c 00BF     		nop
 3584              	.L201:
 3585              		.loc 1 1872 0
 3586 161e 039B     		ldr	r3, [sp, #12]
 3587 1620 0022     		movs	r2, #0
 3588 1622 83F83820 		strb	r2, [r3, #56]
 3589              		.loc 1 1874 0
 3590 1626 0023     		movs	r3, #0
 3591              	.L189:
 3592              		.loc 1 1875 0
 3593 1628 1846     		mov	r0, r3
 3594 162a 0AB0     		add	sp, sp, #40
 3595              		@ sp needed
 3596 162c 7047     		bx	lr
 3597              		.cfi_endproc
 3598              	.LFE156:
 3599              		.size	HAL_TIMEx_ConfigBreakInput, .-HAL_TIMEx_ConfigBreakInput
 3600 162e 00BF     		.align	2
 3601              		.p2align 4,,15
 3602              		.global	HAL_TIMEx_RemapConfig
 3603              		.thumb
 3604              		.thumb_func
 3605              		.type	HAL_TIMEx_RemapConfig, %function
 3606              	HAL_TIMEx_RemapConfig:
 3607              	.LFB157:
 3608              		.loc 1 2045 0
 3609              		.cfi_startproc
 3610              		@ args = 0, pretend = 0, frame = 16
 3611              		@ frame_needed = 0, uses_anonymous_args = 0
 3612              		@ link register save eliminated.
 3613 1630 84B0     		sub	sp, sp, #16
 3614              		.cfi_def_cfa_offset 16
 3615 1632 0190     		str	r0, [sp, #4]
 3616 1634 0091     		str	r1, [sp]
 3617              		.loc 1 2046 0
 3618 1636 0023     		movs	r3, #0
 3619 1638 0393     		str	r3, [sp, #12]
 3620              		.loc 1 2047 0
 3621 163a 0023     		movs	r3, #0
 3622 163c 0293     		str	r3, [sp, #8]
 3623              		.loc 1 2049 0
 3624 163e 019B     		ldr	r3, [sp, #4]
 3625 1640 93F83830 		ldrb	r3, [r3, #56]	@ zero_extendqisi2
 3626 1644 012B     		cmp	r3, #1
 3627 1646 01D1     		bne	.L205
 3628              		.loc 1 2049 0 is_stmt 0 discriminator 1
 3629 1648 0223     		movs	r3, #2
 3630 164a 40E0     		b	.L206
 3631              	.L205:
 3632              		.loc 1 2049 0 discriminator 2
 3633 164c 019B     		ldr	r3, [sp, #4]
 3634 164e 0122     		movs	r2, #1
 3635 1650 83F83820 		strb	r2, [r3, #56]
 3636              		.loc 1 2056 0 is_stmt 1 discriminator 2
ARM GAS  /tmp/ccUiHCLc.s 			page 65


 3637 1654 019B     		ldr	r3, [sp, #4]
 3638 1656 1A68     		ldr	r2, [r3]
 3639 1658 1E4B     		ldr	r3, .L209
 3640 165a 9A42     		cmp	r2, r3
 3641 165c 0ED0     		beq	.L207
 3642              		.loc 1 2056 0 is_stmt 0 discriminator 1
 3643 165e 019B     		ldr	r3, [sp, #4]
 3644 1660 1B68     		ldr	r3, [r3]
 3645 1662 B3F1804F 		cmp	r3, #1073741824
 3646 1666 09D0     		beq	.L207
 3647 1668 019B     		ldr	r3, [sp, #4]
 3648 166a 1A68     		ldr	r2, [r3]
 3649 166c 1A4B     		ldr	r3, .L209+4
 3650 166e 9A42     		cmp	r2, r3
 3651 1670 04D0     		beq	.L207
 3652 1672 019B     		ldr	r3, [sp, #4]
 3653 1674 1A68     		ldr	r2, [r3]
 3654 1676 194B     		ldr	r3, .L209+8
 3655 1678 9A42     		cmp	r2, r3
 3656 167a 11D1     		bne	.L208
 3657              	.L207:
 3658              		.loc 1 2058 0 is_stmt 1
 3659 167c 019B     		ldr	r3, [sp, #4]
 3660 167e 1B68     		ldr	r3, [r3]
 3661 1680 1B6E     		ldr	r3, [r3, #96]
 3662 1682 0293     		str	r3, [sp, #8]
 3663              		.loc 1 2059 0
 3664 1684 029B     		ldr	r3, [sp, #8]
 3665 1686 23F4E033 		bic	r3, r3, #114688
 3666 168a 0293     		str	r3, [sp, #8]
 3667              		.loc 1 2060 0
 3668 168c 009B     		ldr	r3, [sp]
 3669 168e 03F4E033 		and	r3, r3, #114688
 3670 1692 029A     		ldr	r2, [sp, #8]
 3671 1694 1343     		orrs	r3, r3, r2
 3672 1696 0293     		str	r3, [sp, #8]
 3673              		.loc 1 2063 0
 3674 1698 019B     		ldr	r3, [sp, #4]
 3675 169a 1B68     		ldr	r3, [r3]
 3676 169c 029A     		ldr	r2, [sp, #8]
 3677 169e 1A66     		str	r2, [r3, #96]
 3678              	.L208:
 3679              		.loc 1 2067 0
 3680 16a0 009B     		ldr	r3, [sp]
 3681 16a2 0393     		str	r3, [sp, #12]
 3682              		.loc 1 2068 0
 3683 16a4 039B     		ldr	r3, [sp, #12]
 3684 16a6 23F4E033 		bic	r3, r3, #114688
 3685 16aa 0393     		str	r3, [sp, #12]
 3686              		.loc 1 2071 0
 3687 16ac 019B     		ldr	r3, [sp, #4]
 3688 16ae 1B68     		ldr	r3, [r3]
 3689 16b0 009A     		ldr	r2, [sp]
 3690 16b2 1A65     		str	r2, [r3, #80]
 3691              		.loc 1 2074 0
 3692 16b4 019B     		ldr	r3, [sp, #4]
 3693 16b6 1B68     		ldr	r3, [r3]
ARM GAS  /tmp/ccUiHCLc.s 			page 66


 3694 16b8 039A     		ldr	r2, [sp, #12]
 3695 16ba 1A65     		str	r2, [r3, #80]
 3696              		.loc 1 2076 0
 3697 16bc 019B     		ldr	r3, [sp, #4]
 3698 16be 0122     		movs	r2, #1
 3699 16c0 83F83920 		strb	r2, [r3, #57]
 3700              		.loc 1 2078 0
 3701 16c4 019B     		ldr	r3, [sp, #4]
 3702 16c6 0022     		movs	r2, #0
 3703 16c8 83F83820 		strb	r2, [r3, #56]
 3704              		.loc 1 2080 0
 3705 16cc 0023     		movs	r3, #0
 3706              	.L206:
 3707              		.loc 1 2081 0
 3708 16ce 1846     		mov	r0, r3
 3709 16d0 04B0     		add	sp, sp, #16
 3710              		@ sp needed
 3711 16d2 7047     		bx	lr
 3712              	.L210:
 3713              		.align	2
 3714              	.L209:
 3715 16d4 002C0140 		.word	1073818624
 3716 16d8 00040040 		.word	1073742848
 3717 16dc 00340140 		.word	1073820672
 3718              		.cfi_endproc
 3719              	.LFE157:
 3720              		.size	HAL_TIMEx_RemapConfig, .-HAL_TIMEx_RemapConfig
 3721              		.align	2
 3722              		.p2align 4,,15
 3723              		.global	HAL_TIMEx_GroupChannel5
 3724              		.thumb
 3725              		.thumb_func
 3726              		.type	HAL_TIMEx_GroupChannel5, %function
 3727              	HAL_TIMEx_GroupChannel5:
 3728              	.LFB158:
 3729              		.loc 1 2095 0
 3730              		.cfi_startproc
 3731              		@ args = 0, pretend = 0, frame = 8
 3732              		@ frame_needed = 0, uses_anonymous_args = 0
 3733              		@ link register save eliminated.
 3734 16e0 82B0     		sub	sp, sp, #8
 3735              		.cfi_def_cfa_offset 8
 3736 16e2 0190     		str	r0, [sp, #4]
 3737 16e4 0091     		str	r1, [sp]
 3738              		.loc 1 2101 0
 3739 16e6 019B     		ldr	r3, [sp, #4]
 3740 16e8 93F83830 		ldrb	r3, [r3, #56]	@ zero_extendqisi2
 3741 16ec 012B     		cmp	r3, #1
 3742 16ee 01D1     		bne	.L212
 3743              		.loc 1 2101 0 is_stmt 0 discriminator 1
 3744 16f0 0223     		movs	r3, #2
 3745 16f2 20E0     		b	.L213
 3746              	.L212:
 3747              		.loc 1 2101 0 discriminator 2
 3748 16f4 019B     		ldr	r3, [sp, #4]
 3749 16f6 0122     		movs	r2, #1
 3750 16f8 83F83820 		strb	r2, [r3, #56]
ARM GAS  /tmp/ccUiHCLc.s 			page 67


 3751              		.loc 1 2103 0 is_stmt 1 discriminator 2
 3752 16fc 019B     		ldr	r3, [sp, #4]
 3753 16fe 0222     		movs	r2, #2
 3754 1700 83F83920 		strb	r2, [r3, #57]
 3755              		.loc 1 2106 0 discriminator 2
 3756 1704 019B     		ldr	r3, [sp, #4]
 3757 1706 1B68     		ldr	r3, [r3]
 3758 1708 019A     		ldr	r2, [sp, #4]
 3759 170a 1268     		ldr	r2, [r2]
 3760 170c 926D     		ldr	r2, [r2, #88]
 3761 170e 22F06042 		bic	r2, r2, #-536870912
 3762 1712 9A65     		str	r2, [r3, #88]
 3763              		.loc 1 2109 0 discriminator 2
 3764 1714 019B     		ldr	r3, [sp, #4]
 3765 1716 1B68     		ldr	r3, [r3]
 3766 1718 019A     		ldr	r2, [sp, #4]
 3767 171a 1268     		ldr	r2, [r2]
 3768 171c 916D     		ldr	r1, [r2, #88]
 3769 171e 009A     		ldr	r2, [sp]
 3770 1720 0A43     		orrs	r2, r2, r1
 3771 1722 9A65     		str	r2, [r3, #88]
 3772              		.loc 1 2111 0 discriminator 2
 3773 1724 019B     		ldr	r3, [sp, #4]
 3774 1726 0122     		movs	r2, #1
 3775 1728 83F83920 		strb	r2, [r3, #57]
 3776              		.loc 1 2113 0 discriminator 2
 3777 172c 019B     		ldr	r3, [sp, #4]
 3778 172e 0022     		movs	r2, #0
 3779 1730 83F83820 		strb	r2, [r3, #56]
 3780              		.loc 1 2115 0 discriminator 2
 3781 1734 0023     		movs	r3, #0
 3782              	.L213:
 3783              		.loc 1 2116 0
 3784 1736 1846     		mov	r0, r3
 3785 1738 02B0     		add	sp, sp, #8
 3786              		@ sp needed
 3787 173a 7047     		bx	lr
 3788              		.cfi_endproc
 3789              	.LFE158:
 3790              		.size	HAL_TIMEx_GroupChannel5, .-HAL_TIMEx_GroupChannel5
 3791              		.align	2
 3792 173c AFF30080 		.p2align 4,,15
 3793              		.weak	HAL_TIMEx_CommutationCallback
 3794              		.thumb
 3795              		.thumb_func
 3796              		.type	HAL_TIMEx_CommutationCallback, %function
 3797              	HAL_TIMEx_CommutationCallback:
 3798              	.LFB159:
 3799              		.loc 1 2144 0
 3800              		.cfi_startproc
 3801              		@ args = 0, pretend = 0, frame = 8
 3802              		@ frame_needed = 0, uses_anonymous_args = 0
 3803              		@ link register save eliminated.
 3804 1740 82B0     		sub	sp, sp, #8
 3805              		.cfi_def_cfa_offset 8
 3806 1742 0190     		str	r0, [sp, #4]
 3807              		.loc 1 2151 0
ARM GAS  /tmp/ccUiHCLc.s 			page 68


 3808 1744 02B0     		add	sp, sp, #8
 3809              		@ sp needed
 3810 1746 7047     		bx	lr
 3811              		.cfi_endproc
 3812              	.LFE159:
 3813              		.size	HAL_TIMEx_CommutationCallback, .-HAL_TIMEx_CommutationCallback
 3814              		.align	2
 3815 1748 AFF30080 		.p2align 4,,15
 3815      AFF30080 
 3816              		.weak	HAL_TIMEx_BreakCallback
 3817              		.thumb
 3818              		.thumb_func
 3819              		.type	HAL_TIMEx_BreakCallback, %function
 3820              	HAL_TIMEx_BreakCallback:
 3821              	.LFB160:
 3822              		.loc 1 2159 0
 3823              		.cfi_startproc
 3824              		@ args = 0, pretend = 0, frame = 8
 3825              		@ frame_needed = 0, uses_anonymous_args = 0
 3826              		@ link register save eliminated.
 3827 1750 82B0     		sub	sp, sp, #8
 3828              		.cfi_def_cfa_offset 8
 3829 1752 0190     		str	r0, [sp, #4]
 3830              		.loc 1 2166 0
 3831 1754 02B0     		add	sp, sp, #8
 3832              		@ sp needed
 3833 1756 7047     		bx	lr
 3834              		.cfi_endproc
 3835              	.LFE160:
 3836              		.size	HAL_TIMEx_BreakCallback, .-HAL_TIMEx_BreakCallback
 3837              		.align	2
 3838 1758 AFF30080 		.p2align 4,,15
 3838      AFF30080 
 3839              		.global	HAL_TIMEx_HallSensor_GetState
 3840              		.thumb
 3841              		.thumb_func
 3842              		.type	HAL_TIMEx_HallSensor_GetState, %function
 3843              	HAL_TIMEx_HallSensor_GetState:
 3844              	.LFB161:
 3845              		.loc 1 2193 0
 3846              		.cfi_startproc
 3847              		@ args = 0, pretend = 0, frame = 8
 3848              		@ frame_needed = 0, uses_anonymous_args = 0
 3849              		@ link register save eliminated.
 3850 1760 82B0     		sub	sp, sp, #8
 3851              		.cfi_def_cfa_offset 8
 3852 1762 0190     		str	r0, [sp, #4]
 3853              		.loc 1 2194 0
 3854 1764 019B     		ldr	r3, [sp, #4]
 3855 1766 93F83930 		ldrb	r3, [r3, #57]
 3856 176a DBB2     		uxtb	r3, r3
 3857              		.loc 1 2195 0
 3858 176c 1846     		mov	r0, r3
 3859 176e 02B0     		add	sp, sp, #8
 3860              		@ sp needed
 3861 1770 7047     		bx	lr
 3862              		.cfi_endproc
ARM GAS  /tmp/ccUiHCLc.s 			page 69


 3863              	.LFE161:
 3864              		.size	HAL_TIMEx_HallSensor_GetState, .-HAL_TIMEx_HallSensor_GetState
 3865 1772 00BF     		.align	2
 3866 1774 AFF30080 		.p2align 4,,15
 3866      AFF30080 
 3866      AFF30080 
 3867              		.global	TIMEx_DMACommutationCplt
 3868              		.thumb
 3869              		.thumb_func
 3870              		.type	TIMEx_DMACommutationCplt, %function
 3871              	TIMEx_DMACommutationCplt:
 3872              	.LFB162:
 3873              		.loc 1 2207 0
 3874              		.cfi_startproc
 3875              		@ args = 0, pretend = 0, frame = 16
 3876              		@ frame_needed = 0, uses_anonymous_args = 0
 3877 1780 00B5     		push	{lr}
 3878              		.cfi_def_cfa_offset 4
 3879              		.cfi_offset 14, -4
 3880 1782 85B0     		sub	sp, sp, #20
 3881              		.cfi_def_cfa_offset 24
 3882 1784 0190     		str	r0, [sp, #4]
 3883              		.loc 1 2208 0
 3884 1786 019B     		ldr	r3, [sp, #4]
 3885 1788 9B6A     		ldr	r3, [r3, #40]
 3886 178a 0393     		str	r3, [sp, #12]
 3887              		.loc 1 2210 0
 3888 178c 039B     		ldr	r3, [sp, #12]
 3889 178e 0122     		movs	r2, #1
 3890 1790 83F83920 		strb	r2, [r3, #57]
 3891              		.loc 1 2212 0
 3892 1794 0398     		ldr	r0, [sp, #12]
 3893 1796 FFF7FEFF 		bl	HAL_TIMEx_CommutationCallback
 3894              		.loc 1 2213 0
 3895 179a 05B0     		add	sp, sp, #20
 3896              		@ sp needed
 3897 179c 5DF804FB 		ldr	pc, [sp], #4
 3898              		.cfi_endproc
 3899              	.LFE162:
 3900              		.size	TIMEx_DMACommutationCplt, .-TIMEx_DMACommutationCplt
 3901              		.align	2
 3902              		.p2align 4,,15
 3903              		.thumb
 3904              		.thumb_func
 3905              		.type	TIM_CCxNChannelCmd, %function
 3906              	TIM_CCxNChannelCmd:
 3907              	.LFB163:
 3908              		.loc 1 2228 0
 3909              		.cfi_startproc
 3910              		@ args = 0, pretend = 0, frame = 24
 3911              		@ frame_needed = 0, uses_anonymous_args = 0
 3912              		@ link register save eliminated.
 3913 17a0 86B0     		sub	sp, sp, #24
 3914              		.cfi_def_cfa_offset 24
 3915 17a2 0390     		str	r0, [sp, #12]
 3916 17a4 0291     		str	r1, [sp, #8]
 3917 17a6 0192     		str	r2, [sp, #4]
ARM GAS  /tmp/ccUiHCLc.s 			page 70


 3918              		.loc 1 2229 0
 3919 17a8 0023     		movs	r3, #0
 3920 17aa 0593     		str	r3, [sp, #20]
 3921              		.loc 1 2231 0
 3922 17ac 029B     		ldr	r3, [sp, #8]
 3923 17ae 0422     		movs	r2, #4
 3924 17b0 02FA03F3 		lsl	r3, r2, r3
 3925 17b4 0593     		str	r3, [sp, #20]
 3926              		.loc 1 2234 0
 3927 17b6 039B     		ldr	r3, [sp, #12]
 3928 17b8 1A6A     		ldr	r2, [r3, #32]
 3929 17ba 059B     		ldr	r3, [sp, #20]
 3930 17bc DB43     		mvns	r3, r3
 3931 17be 1A40     		ands	r2, r2, r3
 3932 17c0 039B     		ldr	r3, [sp, #12]
 3933 17c2 1A62     		str	r2, [r3, #32]
 3934              		.loc 1 2237 0
 3935 17c4 039B     		ldr	r3, [sp, #12]
 3936 17c6 1A6A     		ldr	r2, [r3, #32]
 3937 17c8 029B     		ldr	r3, [sp, #8]
 3938 17ca 0199     		ldr	r1, [sp, #4]
 3939 17cc 01FA03F3 		lsl	r3, r1, r3
 3940 17d0 1A43     		orrs	r2, r2, r3
 3941 17d2 039B     		ldr	r3, [sp, #12]
 3942 17d4 1A62     		str	r2, [r3, #32]
 3943              		.loc 1 2238 0
 3944 17d6 06B0     		add	sp, sp, #24
 3945              		@ sp needed
 3946 17d8 7047     		bx	lr
 3947              		.cfi_endproc
 3948              	.LFE163:
 3949              		.size	TIM_CCxNChannelCmd, .-TIM_CCxNChannelCmd
 3950              	.Letext0:
 3951              		.file 2 "/nfs/nfs5/home/research/hardware/arm2/gcc-arm-embedded/gcc-arm-none-eabi-4_8-2014q2/arm-n
 3952              		.file 3 "/nfs/nfs5/home/research/hardware/arm2/gcc-arm-embedded/gcc-arm-none-eabi-4_8-2014q2/arm-n
 3953              		.file 4 "../../../../../../ChibiOS/os/ext/CMSIS/ST/STM32L4xx/stm32l476xx.h"
 3954              		.file 5 "../../../../../../ChibiOS/os/ext/CMSIS/ST/STM32L4xx/stm32l4xx.h"
 3955              		.file 6 "../../../../../Drivers/STM32L4xx_HAL_Driver/Inc/stm32l4xx_hal_def.h"
 3956              		.file 7 "../../../../../Drivers/STM32L4xx_HAL_Driver/Inc/stm32l4xx_hal_dma.h"
 3957              		.file 8 "../../../../../Drivers/STM32L4xx_HAL_Driver/Inc/stm32l4xx_hal_tim.h"
 3958              		.file 9 "../../../../../Drivers/STM32L4xx_HAL_Driver/Inc/stm32l4xx_hal_tim_ex.h"
 3959              		.file 10 "../../../../../../ChibiOS/os/ext/CMSIS/include/core_cm4.h"