ARM GAS  /tmp/ccA7JUTk.s 			page 1


   1              		.syntax unified
   2              		.cpu cortex-m4
   3              		.fpu softvfp
   4              		.eabi_attribute 20, 1
   5              		.eabi_attribute 21, 1
   6              		.eabi_attribute 23, 3
   7              		.eabi_attribute 24, 1
   8              		.eabi_attribute 25, 1
   9              		.eabi_attribute 26, 1
  10              		.eabi_attribute 30, 6
  11              		.eabi_attribute 34, 1
  12              		.eabi_attribute 18, 4
  13              		.thumb
  14              		.file	"stm32l4xx_hal_flash.c"
  15              		.text
  16              	.Ltext0:
  17              		.cfi_sections	.debug_frame
  18              		.comm	pFlash,28,4
  19              		.align	2
  20              		.p2align 4,,15
  21              		.global	HAL_FLASH_Program
  22              		.thumb
  23              		.thumb_func
  24              		.type	HAL_FLASH_Program, %function
  25              	HAL_FLASH_Program:
  26              	.LFB125:
  27              		.file 1 "../../../../../Drivers/STM32L4xx_HAL_Driver/Src/stm32l4xx_hal_flash.c"
  28              		.loc 1 182 0
  29              		.cfi_startproc
  30              		@ args = 0, pretend = 0, frame = 24
  31              		@ frame_needed = 0, uses_anonymous_args = 0
  32 0000 00B5     		push	{lr}
  33              		.cfi_def_cfa_offset 4
  34              		.cfi_offset 14, -4
  35 0002 87B0     		sub	sp, sp, #28
  36              		.cfi_def_cfa_offset 32
  37 0004 0390     		str	r0, [sp, #12]
  38 0006 0291     		str	r1, [sp, #8]
  39 0008 CDE90023 		strd	r2, [sp]
  40              		.loc 1 183 0
  41 000c 0123     		movs	r3, #1
  42 000e 8DF81730 		strb	r3, [sp, #23]
  43              		.loc 1 184 0
  44 0012 0023     		movs	r3, #0
  45 0014 0493     		str	r3, [sp, #16]
  46              		.loc 1 187 0
  47 0016 264B     		ldr	r3, .L8
  48 0018 1B78     		ldrb	r3, [r3]	@ zero_extendqisi2
  49 001a 012B     		cmp	r3, #1
  50 001c 01D1     		bne	.L2
  51              		.loc 1 187 0 is_stmt 0 discriminator 1
  52 001e 0223     		movs	r3, #2
  53 0020 42E0     		b	.L3
  54              	.L2:
  55              		.loc 1 187 0 discriminator 2
  56 0022 234B     		ldr	r3, .L8
  57 0024 0122     		movs	r2, #1
ARM GAS  /tmp/ccA7JUTk.s 			page 2


  58 0026 1A70     		strb	r2, [r3]
  59              		.loc 1 193 0 is_stmt 1 discriminator 2
  60 0028 4CF25030 		movw	r0, #50000
  61 002c FFF7FEFF 		bl	FLASH_WaitForLastOperation
  62 0030 0346     		mov	r3, r0
  63 0032 8DF81730 		strb	r3, [sp, #23]
  64              		.loc 1 195 0 discriminator 2
  65 0036 9DF81730 		ldrb	r3, [sp, #23]	@ zero_extendqisi2
  66 003a 002B     		cmp	r3, #0
  67 003c 2FD1     		bne	.L4
  68              		.loc 1 197 0
  69 003e 1C4B     		ldr	r3, .L8
  70 0040 0022     		movs	r2, #0
  71 0042 5A60     		str	r2, [r3, #4]
  72              		.loc 1 199 0
  73 0044 039B     		ldr	r3, [sp, #12]
  74 0046 002B     		cmp	r3, #0
  75 0048 07D1     		bne	.L5
  76              		.loc 1 202 0
  77 004a 0298     		ldr	r0, [sp, #8]
  78 004c DDE90023 		ldrd	r2, [sp]
  79 0050 00F0F6FA 		bl	FLASH_Program_DoubleWord
  80              		.loc 1 203 0
  81 0054 0123     		movs	r3, #1
  82 0056 0493     		str	r3, [sp, #16]
  83 0058 10E0     		b	.L6
  84              	.L5:
  85              		.loc 1 205 0
  86 005a 039B     		ldr	r3, [sp, #12]
  87 005c 012B     		cmp	r3, #1
  88 005e 02D0     		beq	.L7
  89              		.loc 1 205 0 is_stmt 0 discriminator 1
  90 0060 039B     		ldr	r3, [sp, #12]
  91 0062 022B     		cmp	r3, #2
  92 0064 0AD1     		bne	.L6
  93              	.L7:
  94              		.loc 1 208 0 is_stmt 1
  95 0066 009B     		ldr	r3, [sp]
  96 0068 0298     		ldr	r0, [sp, #8]
  97 006a 1946     		mov	r1, r3
  98 006c 00F008FB 		bl	FLASH_Program_Fast
  99              		.loc 1 211 0
 100 0070 039B     		ldr	r3, [sp, #12]
 101 0072 022B     		cmp	r3, #2
 102 0074 02D1     		bne	.L6
 103              		.loc 1 213 0
 104 0076 4FF48023 		mov	r3, #262144
 105 007a 0493     		str	r3, [sp, #16]
 106              	.L6:
 107              		.loc 1 218 0
 108 007c 4CF25030 		movw	r0, #50000
 109 0080 FFF7FEFF 		bl	FLASH_WaitForLastOperation
 110 0084 0346     		mov	r3, r0
 111 0086 8DF81730 		strb	r3, [sp, #23]
 112              		.loc 1 221 0
 113 008a 049B     		ldr	r3, [sp, #16]
 114 008c 002B     		cmp	r3, #0
ARM GAS  /tmp/ccA7JUTk.s 			page 3


 115 008e 06D0     		beq	.L4
 116              		.loc 1 223 0
 117 0090 084B     		ldr	r3, .L8+4
 118 0092 084A     		ldr	r2, .L8+4
 119 0094 5169     		ldr	r1, [r2, #20]
 120 0096 049A     		ldr	r2, [sp, #16]
 121 0098 D243     		mvns	r2, r2
 122 009a 0A40     		ands	r2, r2, r1
 123 009c 5A61     		str	r2, [r3, #20]
 124              	.L4:
 125              		.loc 1 228 0
 126 009e 044B     		ldr	r3, .L8
 127 00a0 0022     		movs	r2, #0
 128 00a2 1A70     		strb	r2, [r3]
 129              		.loc 1 230 0
 130 00a4 9DF81730 		ldrb	r3, [sp, #23]	@ zero_extendqisi2
 131              	.L3:
 132              		.loc 1 231 0
 133 00a8 1846     		mov	r0, r3
 134 00aa 07B0     		add	sp, sp, #28
 135              		@ sp needed
 136 00ac 5DF804FB 		ldr	pc, [sp], #4
 137              	.L9:
 138              		.align	2
 139              	.L8:
 140 00b0 00000000 		.word	pFlash
 141 00b4 00200240 		.word	1073881088
 142              		.cfi_endproc
 143              	.LFE125:
 144              		.size	HAL_FLASH_Program, .-HAL_FLASH_Program
 145              		.align	2
 146 00b8 AFF30080 		.p2align 4,,15
 146      AFF30080 
 147              		.global	HAL_FLASH_Program_IT
 148              		.thumb
 149              		.thumb_func
 150              		.type	HAL_FLASH_Program_IT, %function
 151              	HAL_FLASH_Program_IT:
 152              	.LFB126:
 153              		.loc 1 245 0
 154              		.cfi_startproc
 155              		@ args = 0, pretend = 0, frame = 24
 156              		@ frame_needed = 0, uses_anonymous_args = 0
 157 00c0 00B5     		push	{lr}
 158              		.cfi_def_cfa_offset 4
 159              		.cfi_offset 14, -4
 160 00c2 87B0     		sub	sp, sp, #28
 161              		.cfi_def_cfa_offset 32
 162 00c4 0390     		str	r0, [sp, #12]
 163 00c6 0291     		str	r1, [sp, #8]
 164 00c8 CDE90023 		strd	r2, [sp]
 165              		.loc 1 246 0
 166 00cc 0023     		movs	r3, #0
 167 00ce 8DF81730 		strb	r3, [sp, #23]
 168              		.loc 1 252 0
 169 00d2 1C4B     		ldr	r3, .L18
 170 00d4 1B78     		ldrb	r3, [r3]	@ zero_extendqisi2
ARM GAS  /tmp/ccA7JUTk.s 			page 4


 171 00d6 012B     		cmp	r3, #1
 172 00d8 01D1     		bne	.L11
 173              		.loc 1 252 0 is_stmt 0 discriminator 1
 174 00da 0223     		movs	r3, #2
 175 00dc 2EE0     		b	.L12
 176              	.L11:
 177              		.loc 1 252 0 discriminator 2
 178 00de 194B     		ldr	r3, .L18
 179 00e0 0122     		movs	r2, #1
 180 00e2 1A70     		strb	r2, [r3]
 181              		.loc 1 254 0 is_stmt 1 discriminator 2
 182 00e4 174B     		ldr	r3, .L18
 183 00e6 0022     		movs	r2, #0
 184 00e8 5A60     		str	r2, [r3, #4]
 185              		.loc 1 257 0 discriminator 2
 186 00ea 039B     		ldr	r3, [sp, #12]
 187 00ec 022B     		cmp	r3, #2
 188 00ee 03D1     		bne	.L13
 189              		.loc 1 259 0
 190 00f0 144B     		ldr	r3, .L18
 191 00f2 0422     		movs	r2, #4
 192 00f4 1A72     		strb	r2, [r3, #8]
 193 00f6 02E0     		b	.L14
 194              	.L13:
 195              		.loc 1 263 0
 196 00f8 124B     		ldr	r3, .L18
 197 00fa 0322     		movs	r2, #3
 198 00fc 1A72     		strb	r2, [r3, #8]
 199              	.L14:
 200              		.loc 1 265 0
 201 00fe 114B     		ldr	r3, .L18
 202 0100 029A     		ldr	r2, [sp, #8]
 203 0102 DA60     		str	r2, [r3, #12]
 204              		.loc 1 268 0
 205 0104 104B     		ldr	r3, .L18+4
 206 0106 104A     		ldr	r2, .L18+4
 207 0108 5269     		ldr	r2, [r2, #20]
 208 010a 42F04072 		orr	r2, r2, #50331648
 209 010e 5A61     		str	r2, [r3, #20]
 210              		.loc 1 270 0
 211 0110 039B     		ldr	r3, [sp, #12]
 212 0112 002B     		cmp	r3, #0
 213 0114 05D1     		bne	.L15
 214              		.loc 1 273 0
 215 0116 0298     		ldr	r0, [sp, #8]
 216 0118 DDE90023 		ldrd	r2, [sp]
 217 011c 00F090FA 		bl	FLASH_Program_DoubleWord
 218 0120 0AE0     		b	.L16
 219              	.L15:
 220              		.loc 1 275 0
 221 0122 039B     		ldr	r3, [sp, #12]
 222 0124 012B     		cmp	r3, #1
 223 0126 02D0     		beq	.L17
 224              		.loc 1 275 0 is_stmt 0 discriminator 1
 225 0128 039B     		ldr	r3, [sp, #12]
 226 012a 022B     		cmp	r3, #2
 227 012c 04D1     		bne	.L16
ARM GAS  /tmp/ccA7JUTk.s 			page 5


 228              	.L17:
 229              		.loc 1 278 0 is_stmt 1
 230 012e 009B     		ldr	r3, [sp]
 231 0130 0298     		ldr	r0, [sp, #8]
 232 0132 1946     		mov	r1, r3
 233 0134 00F0A4FA 		bl	FLASH_Program_Fast
 234              	.L16:
 235              		.loc 1 281 0
 236 0138 9DF81730 		ldrb	r3, [sp, #23]	@ zero_extendqisi2
 237              	.L12:
 238              		.loc 1 282 0
 239 013c 1846     		mov	r0, r3
 240 013e 07B0     		add	sp, sp, #28
 241              		@ sp needed
 242 0140 5DF804FB 		ldr	pc, [sp], #4
 243              	.L19:
 244              		.align	2
 245              	.L18:
 246 0144 00000000 		.word	pFlash
 247 0148 00200240 		.word	1073881088
 248              		.cfi_endproc
 249              	.LFE126:
 250              		.size	HAL_FLASH_Program_IT, .-HAL_FLASH_Program_IT
 251              		.align	2
 252 014c AFF30080 		.p2align 4,,15
 253              		.global	HAL_FLASH_IRQHandler
 254              		.thumb
 255              		.thumb_func
 256              		.type	HAL_FLASH_IRQHandler, %function
 257              	HAL_FLASH_IRQHandler:
 258              	.LFB127:
 259              		.loc 1 289 0
 260              		.cfi_startproc
 261              		@ args = 0, pretend = 0, frame = 8
 262              		@ frame_needed = 0, uses_anonymous_args = 0
 263 0150 00B5     		push	{lr}
 264              		.cfi_def_cfa_offset 4
 265              		.cfi_offset 14, -4
 266 0152 83B0     		sub	sp, sp, #12
 267              		.cfi_def_cfa_offset 16
 268              		.loc 1 293 0
 269 0154 784A     		ldr	r2, .L36
 270 0156 784B     		ldr	r3, .L36
 271 0158 5B69     		ldr	r3, [r3, #20]
 272 015a 23F4FF63 		bic	r3, r3, #2040
 273 015e 23F00703 		bic	r3, r3, #7
 274 0162 5361     		str	r3, [r2, #20]
 275              		.loc 1 295 0
 276 0164 744B     		ldr	r3, .L36
 277 0166 744A     		ldr	r2, .L36
 278 0168 5269     		ldr	r2, [r2, #20]
 279 016a 22F40042 		bic	r2, r2, #32768
 280 016e 5A61     		str	r2, [r3, #20]
 281              		.loc 1 299 0
 282 0170 724B     		ldr	r3, .L36+4
 283 0172 1B7A     		ldrb	r3, [r3, #8]
 284 0174 DBB2     		uxtb	r3, r3
ARM GAS  /tmp/ccA7JUTk.s 			page 6


 285 0176 042B     		cmp	r3, #4
 286 0178 05D1     		bne	.L21
 287              		.loc 1 301 0
 288 017a 6F4B     		ldr	r3, .L36
 289 017c 6E4A     		ldr	r2, .L36
 290 017e 5269     		ldr	r2, [r2, #20]
 291 0180 22F48022 		bic	r2, r2, #262144
 292 0184 5A61     		str	r2, [r3, #20]
 293              	.L21:
 294              		.loc 1 305 0
 295 0186 6C4B     		ldr	r3, .L36
 296 0188 1B69     		ldr	r3, [r3, #16]
 297 018a 03F00203 		and	r3, r3, #2
 298 018e 002B     		cmp	r3, #0
 299 0190 39D1     		bne	.L22
 300              		.loc 1 305 0 is_stmt 0 discriminator 1
 301 0192 694B     		ldr	r3, .L36
 302 0194 1B69     		ldr	r3, [r3, #16]
 303 0196 03F00803 		and	r3, r3, #8
 304 019a 002B     		cmp	r3, #0
 305 019c 33D1     		bne	.L22
 306              		.loc 1 306 0 is_stmt 1 discriminator 1
 307 019e 664B     		ldr	r3, .L36
 308 01a0 1B69     		ldr	r3, [r3, #16]
 309 01a2 03F01003 		and	r3, r3, #16
 310              		.loc 1 305 0 discriminator 1
 311 01a6 002B     		cmp	r3, #0
 312 01a8 2DD1     		bne	.L22
 313              		.loc 1 306 0
 314 01aa 634B     		ldr	r3, .L36
 315 01ac 1B69     		ldr	r3, [r3, #16]
 316 01ae 03F02003 		and	r3, r3, #32
 317 01b2 002B     		cmp	r3, #0
 318 01b4 27D1     		bne	.L22
 319              		.loc 1 307 0 discriminator 1
 320 01b6 604B     		ldr	r3, .L36
 321 01b8 1B69     		ldr	r3, [r3, #16]
 322 01ba 03F04003 		and	r3, r3, #64
 323              		.loc 1 306 0 discriminator 1
 324 01be 002B     		cmp	r3, #0
 325 01c0 21D1     		bne	.L22
 326              		.loc 1 307 0
 327 01c2 5D4B     		ldr	r3, .L36
 328 01c4 1B69     		ldr	r3, [r3, #16]
 329 01c6 03F08003 		and	r3, r3, #128
 330 01ca 002B     		cmp	r3, #0
 331 01cc 1BD1     		bne	.L22
 332              		.loc 1 308 0 discriminator 1
 333 01ce 5A4B     		ldr	r3, .L36
 334 01d0 1B69     		ldr	r3, [r3, #16]
 335 01d2 03F48073 		and	r3, r3, #256
 336              		.loc 1 307 0 discriminator 1
 337 01d6 002B     		cmp	r3, #0
 338 01d8 15D1     		bne	.L22
 339              		.loc 1 308 0
 340 01da 574B     		ldr	r3, .L36
 341 01dc 1B69     		ldr	r3, [r3, #16]
ARM GAS  /tmp/ccA7JUTk.s 			page 7


 342 01de 03F40073 		and	r3, r3, #512
 343 01e2 002B     		cmp	r3, #0
 344 01e4 0FD1     		bne	.L22
 345              		.loc 1 309 0 discriminator 1
 346 01e6 544B     		ldr	r3, .L36
 347 01e8 1B69     		ldr	r3, [r3, #16]
 348 01ea 03F48043 		and	r3, r3, #16384
 349              		.loc 1 308 0 discriminator 1
 350 01ee 002B     		cmp	r3, #0
 351 01f0 09D1     		bne	.L22
 352              		.loc 1 309 0
 353 01f2 514B     		ldr	r3, .L36
 354 01f4 1B69     		ldr	r3, [r3, #16]
 355 01f6 03F40043 		and	r3, r3, #32768
 356 01fa 002B     		cmp	r3, #0
 357 01fc 03D1     		bne	.L22
 358              		.loc 1 313 0 discriminator 1
 359 01fe 4E4B     		ldr	r3, .L36
 360 0200 9B69     		ldr	r3, [r3, #24]
 361              		.loc 1 309 0 discriminator 1
 362 0202 002B     		cmp	r3, #0
 363 0204 2EDA     		bge	.L23
 364              	.L22:
 365              		.loc 1 317 0
 366 0206 00F083F9 		bl	FLASH_SetErrorCode
 367              		.loc 1 320 0
 368 020a 4C4B     		ldr	r3, .L36+4
 369 020c 1B7A     		ldrb	r3, [r3, #8]
 370 020e DBB2     		uxtb	r3, r3
 371 0210 012B     		cmp	r3, #1
 372 0212 05D1     		bne	.L24
 373              		.loc 1 322 0
 374 0214 494B     		ldr	r3, .L36+4
 375 0216 5B69     		ldr	r3, [r3, #20]
 376 0218 1846     		mov	r0, r3
 377 021a FFF7FEFF 		bl	HAL_FLASH_EndOfOperationCallback
 378 021e 19E0     		b	.L25
 379              	.L24:
 380              		.loc 1 324 0
 381 0220 464B     		ldr	r3, .L36+4
 382 0222 1B7A     		ldrb	r3, [r3, #8]
 383 0224 DBB2     		uxtb	r3, r3
 384 0226 022B     		cmp	r3, #2
 385 0228 05D1     		bne	.L26
 386              		.loc 1 326 0
 387 022a 444B     		ldr	r3, .L36+4
 388 022c 1B69     		ldr	r3, [r3, #16]
 389 022e 1846     		mov	r0, r3
 390 0230 FFF7FEFF 		bl	HAL_FLASH_EndOfOperationCallback
 391 0234 0EE0     		b	.L25
 392              	.L26:
 393              		.loc 1 328 0
 394 0236 414B     		ldr	r3, .L36+4
 395 0238 1B7A     		ldrb	r3, [r3, #8]
 396 023a DBB2     		uxtb	r3, r3
 397 023c 032B     		cmp	r3, #3
 398 023e 04D0     		beq	.L27
ARM GAS  /tmp/ccA7JUTk.s 			page 8


 399              		.loc 1 329 0 discriminator 1
 400 0240 3E4B     		ldr	r3, .L36+4
 401 0242 1B7A     		ldrb	r3, [r3, #8]
 402 0244 DBB2     		uxtb	r3, r3
 403              		.loc 1 328 0 discriminator 1
 404 0246 042B     		cmp	r3, #4
 405 0248 04D1     		bne	.L25
 406              	.L27:
 407              		.loc 1 331 0
 408 024a 3C4B     		ldr	r3, .L36+4
 409 024c DB68     		ldr	r3, [r3, #12]
 410 024e 1846     		mov	r0, r3
 411 0250 FFF7FEFF 		bl	HAL_FLASH_OperationErrorCallback
 412              	.L25:
 413              		.loc 1 334 0
 414 0254 394B     		ldr	r3, .L36+4
 415 0256 DB68     		ldr	r3, [r3, #12]
 416 0258 1846     		mov	r0, r3
 417 025a FFF7FEFF 		bl	HAL_FLASH_OperationErrorCallback
 418              		.loc 1 337 0
 419 025e 374B     		ldr	r3, .L36+4
 420 0260 0022     		movs	r2, #0
 421 0262 1A72     		strb	r2, [r3, #8]
 422              	.L23:
 423              		.loc 1 341 0
 424 0264 344B     		ldr	r3, .L36
 425 0266 1B69     		ldr	r3, [r3, #16]
 426 0268 03F00103 		and	r3, r3, #1
 427 026c 002B     		cmp	r3, #0
 428 026e 52D0     		beq	.L28
 429              		.loc 1 344 0 discriminator 1
 430 0270 314B     		ldr	r3, .L36
 431 0272 0122     		movs	r2, #1
 432 0274 1A61     		str	r2, [r3, #16]
 433              		.loc 1 346 0 discriminator 1
 434 0276 314B     		ldr	r3, .L36+4
 435 0278 1B7A     		ldrb	r3, [r3, #8]
 436 027a DBB2     		uxtb	r3, r3
 437 027c 012B     		cmp	r3, #1
 438 027e 2BD1     		bne	.L29
 439              		.loc 1 349 0
 440 0280 2E4B     		ldr	r3, .L36+4
 441 0282 9B69     		ldr	r3, [r3, #24]
 442 0284 5A1E     		subs	r2, r3, #1
 443 0286 2D4B     		ldr	r3, .L36+4
 444 0288 9A61     		str	r2, [r3, #24]
 445              		.loc 1 352 0
 446 028a 2C4B     		ldr	r3, .L36+4
 447 028c 9B69     		ldr	r3, [r3, #24]
 448 028e 002B     		cmp	r3, #0
 449 0290 13D0     		beq	.L30
 450              		.loc 1 355 0
 451 0292 2A4B     		ldr	r3, .L36+4
 452 0294 5B69     		ldr	r3, [r3, #20]
 453 0296 1846     		mov	r0, r3
 454 0298 FFF7FEFF 		bl	HAL_FLASH_EndOfOperationCallback
 455              		.loc 1 358 0
ARM GAS  /tmp/ccA7JUTk.s 			page 9


 456 029c 274B     		ldr	r3, .L36+4
 457 029e 5B69     		ldr	r3, [r3, #20]
 458 02a0 5A1C     		adds	r2, r3, #1
 459 02a2 264B     		ldr	r3, .L36+4
 460 02a4 5A61     		str	r2, [r3, #20]
 461              		.loc 1 359 0
 462 02a6 254B     		ldr	r3, .L36+4
 463 02a8 5B69     		ldr	r3, [r3, #20]
 464 02aa 0193     		str	r3, [sp, #4]
 465              		.loc 1 360 0
 466 02ac 234B     		ldr	r3, .L36+4
 467 02ae 1B69     		ldr	r3, [r3, #16]
 468 02b0 0198     		ldr	r0, [sp, #4]
 469 02b2 1946     		mov	r1, r3
 470 02b4 FFF7FEFF 		bl	FLASH_PageErase
 471 02b8 2DE0     		b	.L28
 472              	.L30:
 473              		.loc 1 366 0
 474 02ba 204B     		ldr	r3, .L36+4
 475 02bc 4FF0FF32 		mov	r2, #-1
 476 02c0 5A61     		str	r2, [r3, #20]
 477              		.loc 1 367 0
 478 02c2 1E4B     		ldr	r3, .L36+4
 479 02c4 0022     		movs	r2, #0
 480 02c6 1A72     		strb	r2, [r3, #8]
 481              		.loc 1 370 0
 482 02c8 FFF7FEFF 		bl	FLASH_FlushCaches
 483              		.loc 1 373 0
 484 02cc 1B4B     		ldr	r3, .L36+4
 485 02ce 5B69     		ldr	r3, [r3, #20]
 486 02d0 1846     		mov	r0, r3
 487 02d2 FFF7FEFF 		bl	HAL_FLASH_EndOfOperationCallback
 488 02d6 1EE0     		b	.L28
 489              	.L29:
 490              		.loc 1 378 0
 491 02d8 184B     		ldr	r3, .L36+4
 492 02da 1B7A     		ldrb	r3, [r3, #8]
 493 02dc DBB2     		uxtb	r3, r3
 494 02de 022B     		cmp	r3, #2
 495 02e0 07D1     		bne	.L32
 496              		.loc 1 382 0
 497 02e2 FFF7FEFF 		bl	FLASH_FlushCaches
 498              		.loc 1 385 0
 499 02e6 154B     		ldr	r3, .L36+4
 500 02e8 1B69     		ldr	r3, [r3, #16]
 501 02ea 1846     		mov	r0, r3
 502 02ec FFF7FEFF 		bl	HAL_FLASH_EndOfOperationCallback
 503 02f0 0EE0     		b	.L33
 504              	.L32:
 505              		.loc 1 387 0
 506 02f2 124B     		ldr	r3, .L36+4
 507 02f4 1B7A     		ldrb	r3, [r3, #8]
 508 02f6 DBB2     		uxtb	r3, r3
 509 02f8 032B     		cmp	r3, #3
 510 02fa 04D0     		beq	.L34
 511              		.loc 1 388 0 discriminator 1
 512 02fc 0F4B     		ldr	r3, .L36+4
ARM GAS  /tmp/ccA7JUTk.s 			page 10


 513 02fe 1B7A     		ldrb	r3, [r3, #8]
 514 0300 DBB2     		uxtb	r3, r3
 515              		.loc 1 387 0 discriminator 1
 516 0302 042B     		cmp	r3, #4
 517 0304 04D1     		bne	.L33
 518              	.L34:
 519              		.loc 1 392 0
 520 0306 0D4B     		ldr	r3, .L36+4
 521 0308 DB68     		ldr	r3, [r3, #12]
 522 030a 1846     		mov	r0, r3
 523 030c FFF7FEFF 		bl	HAL_FLASH_EndOfOperationCallback
 524              	.L33:
 525              		.loc 1 396 0
 526 0310 0A4B     		ldr	r3, .L36+4
 527 0312 0022     		movs	r2, #0
 528 0314 1A72     		strb	r2, [r3, #8]
 529              	.L28:
 530              		.loc 1 400 0
 531 0316 094B     		ldr	r3, .L36+4
 532 0318 1B7A     		ldrb	r3, [r3, #8]
 533 031a DBB2     		uxtb	r3, r3
 534 031c 002B     		cmp	r3, #0
 535 031e 08D1     		bne	.L20
 536              		.loc 1 403 0 discriminator 1
 537 0320 054B     		ldr	r3, .L36
 538 0322 054A     		ldr	r2, .L36
 539 0324 5269     		ldr	r2, [r2, #20]
 540 0326 22F04072 		bic	r2, r2, #50331648
 541 032a 5A61     		str	r2, [r3, #20]
 542              		.loc 1 406 0 discriminator 1
 543 032c 034B     		ldr	r3, .L36+4
 544 032e 0022     		movs	r2, #0
 545 0330 1A70     		strb	r2, [r3]
 546              	.L20:
 547              		.loc 1 408 0
 548 0332 03B0     		add	sp, sp, #12
 549              		@ sp needed
 550 0334 5DF804FB 		ldr	pc, [sp], #4
 551              	.L37:
 552              		.align	2
 553              	.L36:
 554 0338 00200240 		.word	1073881088
 555 033c 00000000 		.word	pFlash
 556              		.cfi_endproc
 557              	.LFE127:
 558              		.size	HAL_FLASH_IRQHandler, .-HAL_FLASH_IRQHandler
 559              		.align	2
 560              		.p2align 4,,15
 561              		.weak	HAL_FLASH_EndOfOperationCallback
 562              		.thumb
 563              		.thumb_func
 564              		.type	HAL_FLASH_EndOfOperationCallback, %function
 565              	HAL_FLASH_EndOfOperationCallback:
 566              	.LFB128:
 567              		.loc 1 420 0
 568              		.cfi_startproc
 569              		@ args = 0, pretend = 0, frame = 8
ARM GAS  /tmp/ccA7JUTk.s 			page 11


 570              		@ frame_needed = 0, uses_anonymous_args = 0
 571              		@ link register save eliminated.
 572 0340 82B0     		sub	sp, sp, #8
 573              		.cfi_def_cfa_offset 8
 574 0342 0190     		str	r0, [sp, #4]
 575              		.loc 1 427 0
 576 0344 02B0     		add	sp, sp, #8
 577              		@ sp needed
 578 0346 7047     		bx	lr
 579              		.cfi_endproc
 580              	.LFE128:
 581              		.size	HAL_FLASH_EndOfOperationCallback, .-HAL_FLASH_EndOfOperationCallback
 582              		.align	2
 583 0348 AFF30080 		.p2align 4,,15
 583      AFF30080 
 584              		.weak	HAL_FLASH_OperationErrorCallback
 585              		.thumb
 586              		.thumb_func
 587              		.type	HAL_FLASH_OperationErrorCallback, %function
 588              	HAL_FLASH_OperationErrorCallback:
 589              	.LFB129:
 590              		.loc 1 438 0
 591              		.cfi_startproc
 592              		@ args = 0, pretend = 0, frame = 8
 593              		@ frame_needed = 0, uses_anonymous_args = 0
 594              		@ link register save eliminated.
 595 0350 82B0     		sub	sp, sp, #8
 596              		.cfi_def_cfa_offset 8
 597 0352 0190     		str	r0, [sp, #4]
 598              		.loc 1 445 0
 599 0354 02B0     		add	sp, sp, #8
 600              		@ sp needed
 601 0356 7047     		bx	lr
 602              		.cfi_endproc
 603              	.LFE129:
 604              		.size	HAL_FLASH_OperationErrorCallback, .-HAL_FLASH_OperationErrorCallback
 605              		.align	2
 606 0358 AFF30080 		.p2align 4,,15
 606      AFF30080 
 607              		.global	HAL_FLASH_Unlock
 608              		.thumb
 609              		.thumb_func
 610              		.type	HAL_FLASH_Unlock, %function
 611              	HAL_FLASH_Unlock:
 612              	.LFB130:
 613              		.loc 1 471 0
 614              		.cfi_startproc
 615              		@ args = 0, pretend = 0, frame = 0
 616              		@ frame_needed = 0, uses_anonymous_args = 0
 617              		@ link register save eliminated.
 618              		.loc 1 472 0
 619 0360 074B     		ldr	r3, .L44
 620 0362 5B69     		ldr	r3, [r3, #20]
 621 0364 002B     		cmp	r3, #0
 622 0366 07DA     		bge	.L41
 623              		.loc 1 475 0
 624 0368 054B     		ldr	r3, .L44
ARM GAS  /tmp/ccA7JUTk.s 			page 12


 625 036a 064A     		ldr	r2, .L44+4
 626 036c 9A60     		str	r2, [r3, #8]
 627              		.loc 1 476 0
 628 036e 044B     		ldr	r3, .L44
 629 0370 054A     		ldr	r2, .L44+8
 630 0372 9A60     		str	r2, [r3, #8]
 631              		.loc 1 483 0
 632 0374 0023     		movs	r3, #0
 633 0376 00E0     		b	.L43
 634              	.L41:
 635              		.loc 1 480 0
 636 0378 0123     		movs	r3, #1
 637              	.L43:
 638              		.loc 1 484 0
 639 037a 1846     		mov	r0, r3
 640 037c 7047     		bx	lr
 641              	.L45:
 642 037e 00BF     		.align	2
 643              	.L44:
 644 0380 00200240 		.word	1073881088
 645 0384 23016745 		.word	1164378403
 646 0388 AB89EFCD 		.word	-839939669
 647              		.cfi_endproc
 648              	.LFE130:
 649              		.size	HAL_FLASH_Unlock, .-HAL_FLASH_Unlock
 650              		.align	2
 651 038c AFF30080 		.p2align 4,,15
 652              		.global	HAL_FLASH_Lock
 653              		.thumb
 654              		.thumb_func
 655              		.type	HAL_FLASH_Lock, %function
 656              	HAL_FLASH_Lock:
 657              	.LFB131:
 658              		.loc 1 491 0
 659              		.cfi_startproc
 660              		@ args = 0, pretend = 0, frame = 0
 661              		@ frame_needed = 0, uses_anonymous_args = 0
 662              		@ link register save eliminated.
 663              		.loc 1 493 0
 664 0390 044B     		ldr	r3, .L48
 665 0392 044A     		ldr	r2, .L48
 666 0394 5269     		ldr	r2, [r2, #20]
 667 0396 42F00042 		orr	r2, r2, #-2147483648
 668 039a 5A61     		str	r2, [r3, #20]
 669              		.loc 1 495 0
 670 039c 0023     		movs	r3, #0
 671              		.loc 1 496 0
 672 039e 1846     		mov	r0, r3
 673 03a0 7047     		bx	lr
 674              	.L49:
 675 03a2 00BF     		.align	2
 676              	.L48:
 677 03a4 00200240 		.word	1073881088
 678              		.cfi_endproc
 679              	.LFE131:
 680              		.size	HAL_FLASH_Lock, .-HAL_FLASH_Lock
 681              		.align	2
ARM GAS  /tmp/ccA7JUTk.s 			page 13


 682 03a8 AFF30080 		.p2align 4,,15
 682      AFF30080 
 683              		.global	HAL_FLASH_OB_Unlock
 684              		.thumb
 685              		.thumb_func
 686              		.type	HAL_FLASH_OB_Unlock, %function
 687              	HAL_FLASH_OB_Unlock:
 688              	.LFB132:
 689              		.loc 1 503 0
 690              		.cfi_startproc
 691              		@ args = 0, pretend = 0, frame = 0
 692              		@ frame_needed = 0, uses_anonymous_args = 0
 693              		@ link register save eliminated.
 694              		.loc 1 504 0
 695 03b0 084B     		ldr	r3, .L54
 696 03b2 5B69     		ldr	r3, [r3, #20]
 697 03b4 03F08043 		and	r3, r3, #1073741824
 698 03b8 002B     		cmp	r3, #0
 699 03ba 07D0     		beq	.L51
 700              		.loc 1 507 0
 701 03bc 054B     		ldr	r3, .L54
 702 03be 064A     		ldr	r2, .L54+4
 703 03c0 DA60     		str	r2, [r3, #12]
 704              		.loc 1 508 0
 705 03c2 044B     		ldr	r3, .L54
 706 03c4 054A     		ldr	r2, .L54+8
 707 03c6 DA60     		str	r2, [r3, #12]
 708              		.loc 1 515 0
 709 03c8 0023     		movs	r3, #0
 710 03ca 00E0     		b	.L53
 711              	.L51:
 712              		.loc 1 512 0
 713 03cc 0123     		movs	r3, #1
 714              	.L53:
 715              		.loc 1 516 0
 716 03ce 1846     		mov	r0, r3
 717 03d0 7047     		bx	lr
 718              	.L55:
 719 03d2 00BF     		.align	2
 720              	.L54:
 721 03d4 00200240 		.word	1073881088
 722 03d8 3B2A1908 		.word	135866939
 723 03dc 7F6E5D4C 		.word	1281191551
 724              		.cfi_endproc
 725              	.LFE132:
 726              		.size	HAL_FLASH_OB_Unlock, .-HAL_FLASH_OB_Unlock
 727              		.align	2
 728              		.p2align 4,,15
 729              		.global	HAL_FLASH_OB_Lock
 730              		.thumb
 731              		.thumb_func
 732              		.type	HAL_FLASH_OB_Lock, %function
 733              	HAL_FLASH_OB_Lock:
 734              	.LFB133:
 735              		.loc 1 523 0
 736              		.cfi_startproc
 737              		@ args = 0, pretend = 0, frame = 0
ARM GAS  /tmp/ccA7JUTk.s 			page 14


 738              		@ frame_needed = 0, uses_anonymous_args = 0
 739              		@ link register save eliminated.
 740              		.loc 1 525 0
 741 03e0 044B     		ldr	r3, .L58
 742 03e2 044A     		ldr	r2, .L58
 743 03e4 5269     		ldr	r2, [r2, #20]
 744 03e6 42F08042 		orr	r2, r2, #1073741824
 745 03ea 5A61     		str	r2, [r3, #20]
 746              		.loc 1 527 0
 747 03ec 0023     		movs	r3, #0
 748              		.loc 1 528 0
 749 03ee 1846     		mov	r0, r3
 750 03f0 7047     		bx	lr
 751              	.L59:
 752 03f2 00BF     		.align	2
 753              	.L58:
 754 03f4 00200240 		.word	1073881088
 755              		.cfi_endproc
 756              	.LFE133:
 757              		.size	HAL_FLASH_OB_Lock, .-HAL_FLASH_OB_Lock
 758              		.align	2
 759 03f8 AFF30080 		.p2align 4,,15
 759      AFF30080 
 760              		.global	HAL_FLASH_OB_Launch
 761              		.thumb
 762              		.thumb_func
 763              		.type	HAL_FLASH_OB_Launch, %function
 764              	HAL_FLASH_OB_Launch:
 765              	.LFB134:
 766              		.loc 1 535 0
 767              		.cfi_startproc
 768              		@ args = 0, pretend = 0, frame = 0
 769              		@ frame_needed = 0, uses_anonymous_args = 0
 770 0400 08B5     		push	{r3, lr}
 771              		.cfi_def_cfa_offset 8
 772              		.cfi_offset 3, -8
 773              		.cfi_offset 14, -4
 774              		.loc 1 537 0
 775 0402 064B     		ldr	r3, .L62
 776 0404 054A     		ldr	r2, .L62
 777 0406 5269     		ldr	r2, [r2, #20]
 778 0408 42F00062 		orr	r2, r2, #134217728
 779 040c 5A61     		str	r2, [r3, #20]
 780              		.loc 1 540 0
 781 040e 4CF25030 		movw	r0, #50000
 782 0412 FFF7FEFF 		bl	FLASH_WaitForLastOperation
 783 0416 0346     		mov	r3, r0
 784              		.loc 1 541 0
 785 0418 1846     		mov	r0, r3
 786 041a 08BD     		pop	{r3, pc}
 787              	.L63:
 788              		.align	2
 789              	.L62:
 790 041c 00200240 		.word	1073881088
 791              		.cfi_endproc
 792              	.LFE134:
 793              		.size	HAL_FLASH_OB_Launch, .-HAL_FLASH_OB_Launch
ARM GAS  /tmp/ccA7JUTk.s 			page 15


 794              		.align	2
 795              		.p2align 4,,15
 796              		.global	HAL_FLASH_GetError
 797              		.thumb
 798              		.thumb_func
 799              		.type	HAL_FLASH_GetError, %function
 800              	HAL_FLASH_GetError:
 801              	.LFB135:
 802              		.loc 1 585 0
 803              		.cfi_startproc
 804              		@ args = 0, pretend = 0, frame = 0
 805              		@ frame_needed = 0, uses_anonymous_args = 0
 806              		@ link register save eliminated.
 807              		.loc 1 586 0
 808 0420 014B     		ldr	r3, .L66
 809 0422 5B68     		ldr	r3, [r3, #4]
 810              		.loc 1 587 0
 811 0424 1846     		mov	r0, r3
 812 0426 7047     		bx	lr
 813              	.L67:
 814              		.align	2
 815              	.L66:
 816 0428 00000000 		.word	pFlash
 817              		.cfi_endproc
 818              	.LFE135:
 819              		.size	HAL_FLASH_GetError, .-HAL_FLASH_GetError
 820              		.align	2
 821 042c AFF30080 		.p2align 4,,15
 822              		.global	FLASH_WaitForLastOperation
 823              		.thumb
 824              		.thumb_func
 825              		.type	FLASH_WaitForLastOperation, %function
 826              	FLASH_WaitForLastOperation:
 827              	.LFB136:
 828              		.loc 1 609 0
 829              		.cfi_startproc
 830              		@ args = 0, pretend = 0, frame = 16
 831              		@ frame_needed = 0, uses_anonymous_args = 0
 832 0430 00B5     		push	{lr}
 833              		.cfi_def_cfa_offset 4
 834              		.cfi_offset 14, -4
 835 0432 85B0     		sub	sp, sp, #20
 836              		.cfi_def_cfa_offset 24
 837 0434 0190     		str	r0, [sp, #4]
 838              		.loc 1 614 0
 839 0436 FFF7FEFF 		bl	HAL_GetTick
 840 043a 0246     		mov	r2, r0
 841 043c 019B     		ldr	r3, [sp, #4]
 842 043e 1344     		add	r3, r3, r2
 843 0440 0393     		str	r3, [sp, #12]
 844              		.loc 1 616 0
 845 0442 0BE0     		b	.L69
 846              	.L71:
 847              		.loc 1 618 0
 848 0444 019B     		ldr	r3, [sp, #4]
 849 0446 B3F1FF3F 		cmp	r3, #-1
 850 044a 07D0     		beq	.L69
ARM GAS  /tmp/ccA7JUTk.s 			page 16


 851              		.loc 1 620 0
 852 044c FFF7FEFF 		bl	HAL_GetTick
 853 0450 0246     		mov	r2, r0
 854 0452 039B     		ldr	r3, [sp, #12]
 855 0454 9A42     		cmp	r2, r3
 856 0456 01D3     		bcc	.L69
 857              		.loc 1 622 0
 858 0458 0323     		movs	r3, #3
 859 045a 53E0     		b	.L70
 860              	.L69:
 861              		.loc 1 616 0 discriminator 1
 862 045c 2B4B     		ldr	r3, .L75
 863 045e 1B69     		ldr	r3, [r3, #16]
 864 0460 03F48033 		and	r3, r3, #65536
 865 0464 002B     		cmp	r3, #0
 866 0466 EDD1     		bne	.L71
 867              		.loc 1 627 0
 868 0468 284B     		ldr	r3, .L75
 869 046a 1B69     		ldr	r3, [r3, #16]
 870 046c 03F00203 		and	r3, r3, #2
 871 0470 002B     		cmp	r3, #0
 872 0472 39D1     		bne	.L72
 873              		.loc 1 627 0 is_stmt 0 discriminator 1
 874 0474 254B     		ldr	r3, .L75
 875 0476 1B69     		ldr	r3, [r3, #16]
 876 0478 03F00803 		and	r3, r3, #8
 877 047c 002B     		cmp	r3, #0
 878 047e 33D1     		bne	.L72
 879              		.loc 1 628 0 is_stmt 1 discriminator 1
 880 0480 224B     		ldr	r3, .L75
 881 0482 1B69     		ldr	r3, [r3, #16]
 882 0484 03F01003 		and	r3, r3, #16
 883              		.loc 1 627 0 discriminator 1
 884 0488 002B     		cmp	r3, #0
 885 048a 2DD1     		bne	.L72
 886              		.loc 1 628 0
 887 048c 1F4B     		ldr	r3, .L75
 888 048e 1B69     		ldr	r3, [r3, #16]
 889 0490 03F02003 		and	r3, r3, #32
 890 0494 002B     		cmp	r3, #0
 891 0496 27D1     		bne	.L72
 892              		.loc 1 629 0 discriminator 1
 893 0498 1C4B     		ldr	r3, .L75
 894 049a 1B69     		ldr	r3, [r3, #16]
 895 049c 03F04003 		and	r3, r3, #64
 896              		.loc 1 628 0 discriminator 1
 897 04a0 002B     		cmp	r3, #0
 898 04a2 21D1     		bne	.L72
 899              		.loc 1 629 0
 900 04a4 194B     		ldr	r3, .L75
 901 04a6 1B69     		ldr	r3, [r3, #16]
 902 04a8 03F08003 		and	r3, r3, #128
 903 04ac 002B     		cmp	r3, #0
 904 04ae 1BD1     		bne	.L72
 905              		.loc 1 630 0 discriminator 1
 906 04b0 164B     		ldr	r3, .L75
 907 04b2 1B69     		ldr	r3, [r3, #16]
ARM GAS  /tmp/ccA7JUTk.s 			page 17


 908 04b4 03F48073 		and	r3, r3, #256
 909              		.loc 1 629 0 discriminator 1
 910 04b8 002B     		cmp	r3, #0
 911 04ba 15D1     		bne	.L72
 912              		.loc 1 630 0
 913 04bc 134B     		ldr	r3, .L75
 914 04be 1B69     		ldr	r3, [r3, #16]
 915 04c0 03F40073 		and	r3, r3, #512
 916 04c4 002B     		cmp	r3, #0
 917 04c6 0FD1     		bne	.L72
 918              		.loc 1 631 0 discriminator 1
 919 04c8 104B     		ldr	r3, .L75
 920 04ca 1B69     		ldr	r3, [r3, #16]
 921 04cc 03F48043 		and	r3, r3, #16384
 922              		.loc 1 630 0 discriminator 1
 923 04d0 002B     		cmp	r3, #0
 924 04d2 09D1     		bne	.L72
 925              		.loc 1 631 0
 926 04d4 0D4B     		ldr	r3, .L75
 927 04d6 1B69     		ldr	r3, [r3, #16]
 928 04d8 03F40043 		and	r3, r3, #32768
 929 04dc 002B     		cmp	r3, #0
 930 04de 03D1     		bne	.L72
 931              		.loc 1 635 0 discriminator 1
 932 04e0 0A4B     		ldr	r3, .L75
 933 04e2 9B69     		ldr	r3, [r3, #24]
 934              		.loc 1 631 0 discriminator 1
 935 04e4 002B     		cmp	r3, #0
 936 04e6 03DA     		bge	.L73
 937              	.L72:
 938              		.loc 1 639 0
 939 04e8 00F012F8 		bl	FLASH_SetErrorCode
 940              		.loc 1 641 0
 941 04ec 0123     		movs	r3, #1
 942 04ee 09E0     		b	.L70
 943              	.L73:
 944              		.loc 1 645 0
 945 04f0 064B     		ldr	r3, .L75
 946 04f2 1B69     		ldr	r3, [r3, #16]
 947 04f4 03F00103 		and	r3, r3, #1
 948 04f8 002B     		cmp	r3, #0
 949 04fa 02D0     		beq	.L74
 950              		.loc 1 648 0 discriminator 1
 951 04fc 034B     		ldr	r3, .L75
 952 04fe 0122     		movs	r2, #1
 953 0500 1A61     		str	r2, [r3, #16]
 954              	.L74:
 955              		.loc 1 652 0
 956 0502 0023     		movs	r3, #0
 957              	.L70:
 958              		.loc 1 653 0
 959 0504 1846     		mov	r0, r3
 960 0506 05B0     		add	sp, sp, #20
 961              		@ sp needed
 962 0508 5DF804FB 		ldr	pc, [sp], #4
 963              	.L76:
 964              		.align	2
ARM GAS  /tmp/ccA7JUTk.s 			page 18


 965              	.L75:
 966 050c 00200240 		.word	1073881088
 967              		.cfi_endproc
 968              	.LFE136:
 969              		.size	FLASH_WaitForLastOperation, .-FLASH_WaitForLastOperation
 970              		.align	2
 971              		.p2align 4,,15
 972              		.thumb
 973              		.thumb_func
 974              		.type	FLASH_SetErrorCode, %function
 975              	FLASH_SetErrorCode:
 976              	.LFB137:
 977              		.loc 1 660 0
 978              		.cfi_startproc
 979              		@ args = 0, pretend = 0, frame = 0
 980              		@ frame_needed = 0, uses_anonymous_args = 0
 981              		@ link register save eliminated.
 982              		.loc 1 661 0
 983 0510 464B     		ldr	r3, .L90
 984 0512 1B69     		ldr	r3, [r3, #16]
 985 0514 03F00203 		and	r3, r3, #2
 986 0518 002B     		cmp	r3, #0
 987 051a 05D0     		beq	.L78
 988              		.loc 1 663 0
 989 051c 444B     		ldr	r3, .L90+4
 990 051e 5B68     		ldr	r3, [r3, #4]
 991 0520 43F00102 		orr	r2, r3, #1
 992 0524 424B     		ldr	r3, .L90+4
 993 0526 5A60     		str	r2, [r3, #4]
 994              	.L78:
 995              		.loc 1 666 0
 996 0528 404B     		ldr	r3, .L90
 997 052a 1B69     		ldr	r3, [r3, #16]
 998 052c 03F00803 		and	r3, r3, #8
 999 0530 002B     		cmp	r3, #0
 1000 0532 05D0     		beq	.L79
 1001              		.loc 1 668 0
 1002 0534 3E4B     		ldr	r3, .L90+4
 1003 0536 5B68     		ldr	r3, [r3, #4]
 1004 0538 43F00202 		orr	r2, r3, #2
 1005 053c 3C4B     		ldr	r3, .L90+4
 1006 053e 5A60     		str	r2, [r3, #4]
 1007              	.L79:
 1008              		.loc 1 671 0
 1009 0540 3A4B     		ldr	r3, .L90
 1010 0542 1B69     		ldr	r3, [r3, #16]
 1011 0544 03F01003 		and	r3, r3, #16
 1012 0548 002B     		cmp	r3, #0
 1013 054a 05D0     		beq	.L80
 1014              		.loc 1 673 0
 1015 054c 384B     		ldr	r3, .L90+4
 1016 054e 5B68     		ldr	r3, [r3, #4]
 1017 0550 43F00402 		orr	r2, r3, #4
 1018 0554 364B     		ldr	r3, .L90+4
 1019 0556 5A60     		str	r2, [r3, #4]
 1020              	.L80:
 1021              		.loc 1 676 0
ARM GAS  /tmp/ccA7JUTk.s 			page 19


 1022 0558 344B     		ldr	r3, .L90
 1023 055a 1B69     		ldr	r3, [r3, #16]
 1024 055c 03F02003 		and	r3, r3, #32
 1025 0560 002B     		cmp	r3, #0
 1026 0562 05D0     		beq	.L81
 1027              		.loc 1 678 0
 1028 0564 324B     		ldr	r3, .L90+4
 1029 0566 5B68     		ldr	r3, [r3, #4]
 1030 0568 43F00802 		orr	r2, r3, #8
 1031 056c 304B     		ldr	r3, .L90+4
 1032 056e 5A60     		str	r2, [r3, #4]
 1033              	.L81:
 1034              		.loc 1 681 0
 1035 0570 2E4B     		ldr	r3, .L90
 1036 0572 1B69     		ldr	r3, [r3, #16]
 1037 0574 03F04003 		and	r3, r3, #64
 1038 0578 002B     		cmp	r3, #0
 1039 057a 05D0     		beq	.L82
 1040              		.loc 1 683 0
 1041 057c 2C4B     		ldr	r3, .L90+4
 1042 057e 5B68     		ldr	r3, [r3, #4]
 1043 0580 43F01002 		orr	r2, r3, #16
 1044 0584 2A4B     		ldr	r3, .L90+4
 1045 0586 5A60     		str	r2, [r3, #4]
 1046              	.L82:
 1047              		.loc 1 686 0
 1048 0588 284B     		ldr	r3, .L90
 1049 058a 1B69     		ldr	r3, [r3, #16]
 1050 058c 03F08003 		and	r3, r3, #128
 1051 0590 002B     		cmp	r3, #0
 1052 0592 05D0     		beq	.L83
 1053              		.loc 1 688 0
 1054 0594 264B     		ldr	r3, .L90+4
 1055 0596 5B68     		ldr	r3, [r3, #4]
 1056 0598 43F02002 		orr	r2, r3, #32
 1057 059c 244B     		ldr	r3, .L90+4
 1058 059e 5A60     		str	r2, [r3, #4]
 1059              	.L83:
 1060              		.loc 1 691 0
 1061 05a0 224B     		ldr	r3, .L90
 1062 05a2 1B69     		ldr	r3, [r3, #16]
 1063 05a4 03F48073 		and	r3, r3, #256
 1064 05a8 002B     		cmp	r3, #0
 1065 05aa 05D0     		beq	.L84
 1066              		.loc 1 693 0
 1067 05ac 204B     		ldr	r3, .L90+4
 1068 05ae 5B68     		ldr	r3, [r3, #4]
 1069 05b0 43F04002 		orr	r2, r3, #64
 1070 05b4 1E4B     		ldr	r3, .L90+4
 1071 05b6 5A60     		str	r2, [r3, #4]
 1072              	.L84:
 1073              		.loc 1 696 0
 1074 05b8 1C4B     		ldr	r3, .L90
 1075 05ba 1B69     		ldr	r3, [r3, #16]
 1076 05bc 03F40073 		and	r3, r3, #512
 1077 05c0 002B     		cmp	r3, #0
 1078 05c2 05D0     		beq	.L85
ARM GAS  /tmp/ccA7JUTk.s 			page 20


 1079              		.loc 1 698 0
 1080 05c4 1A4B     		ldr	r3, .L90+4
 1081 05c6 5B68     		ldr	r3, [r3, #4]
 1082 05c8 43F08002 		orr	r2, r3, #128
 1083 05cc 184B     		ldr	r3, .L90+4
 1084 05ce 5A60     		str	r2, [r3, #4]
 1085              	.L85:
 1086              		.loc 1 701 0
 1087 05d0 164B     		ldr	r3, .L90
 1088 05d2 1B69     		ldr	r3, [r3, #16]
 1089 05d4 03F48043 		and	r3, r3, #16384
 1090 05d8 002B     		cmp	r3, #0
 1091 05da 05D0     		beq	.L86
 1092              		.loc 1 703 0
 1093 05dc 144B     		ldr	r3, .L90+4
 1094 05de 5B68     		ldr	r3, [r3, #4]
 1095 05e0 43F48072 		orr	r2, r3, #256
 1096 05e4 124B     		ldr	r3, .L90+4
 1097 05e6 5A60     		str	r2, [r3, #4]
 1098              	.L86:
 1099              		.loc 1 706 0
 1100 05e8 104B     		ldr	r3, .L90
 1101 05ea 1B69     		ldr	r3, [r3, #16]
 1102 05ec 03F40043 		and	r3, r3, #32768
 1103 05f0 002B     		cmp	r3, #0
 1104 05f2 05D0     		beq	.L87
 1105              		.loc 1 708 0
 1106 05f4 0E4B     		ldr	r3, .L90+4
 1107 05f6 5B68     		ldr	r3, [r3, #4]
 1108 05f8 43F40072 		orr	r2, r3, #512
 1109 05fc 0C4B     		ldr	r3, .L90+4
 1110 05fe 5A60     		str	r2, [r3, #4]
 1111              	.L87:
 1112              		.loc 1 711 0
 1113 0600 0A4B     		ldr	r3, .L90
 1114 0602 9B69     		ldr	r3, [r3, #24]
 1115 0604 002B     		cmp	r3, #0
 1116 0606 05DA     		bge	.L89
 1117              		.loc 1 713 0
 1118 0608 094B     		ldr	r3, .L90+4
 1119 060a 5B68     		ldr	r3, [r3, #4]
 1120 060c 43F48062 		orr	r2, r3, #1024
 1121 0610 074B     		ldr	r3, .L90+4
 1122 0612 5A60     		str	r2, [r3, #4]
 1123              	.L89:
 1124              		.loc 1 725 0 discriminator 1
 1125 0614 054B     		ldr	r3, .L90
 1126 0616 054A     		ldr	r2, .L90
 1127 0618 9269     		ldr	r2, [r2, #24]
 1128 061a 42F00042 		orr	r2, r2, #-2147483648
 1129 061e 9A61     		str	r2, [r3, #24]
 1130 0620 024B     		ldr	r3, .L90
 1131 0622 4CF2FA32 		movw	r2, #50170
 1132 0626 1A61     		str	r2, [r3, #16]
 1133              		.loc 1 726 0 discriminator 1
 1134 0628 7047     		bx	lr
 1135              	.L91:
ARM GAS  /tmp/ccA7JUTk.s 			page 21


 1136 062a 00BF     		.align	2
 1137              	.L90:
 1138 062c 00200240 		.word	1073881088
 1139 0630 00000000 		.word	pFlash
 1140              		.cfi_endproc
 1141              	.LFE137:
 1142              		.size	FLASH_SetErrorCode, .-FLASH_SetErrorCode
 1143              		.align	2
 1144 0634 AFF30080 		.p2align 4,,15
 1144      AFF30080 
 1144      AFF30080 
 1145              		.thumb
 1146              		.thumb_func
 1147              		.type	FLASH_Program_DoubleWord, %function
 1148              	FLASH_Program_DoubleWord:
 1149              	.LFB138:
 1150              		.loc 1 735 0
 1151              		.cfi_startproc
 1152              		@ args = 0, pretend = 0, frame = 16
 1153              		@ frame_needed = 0, uses_anonymous_args = 0
 1154              		@ link register save eliminated.
 1155 0640 30B4     		push	{r4, r5}
 1156              		.cfi_def_cfa_offset 8
 1157              		.cfi_offset 4, -8
 1158              		.cfi_offset 5, -4
 1159 0642 84B0     		sub	sp, sp, #16
 1160              		.cfi_def_cfa_offset 24
 1161 0644 0390     		str	r0, [sp, #12]
 1162 0646 CDE90023 		strd	r2, [sp]
 1163              		.loc 1 740 0
 1164 064a 0A4B     		ldr	r3, .L93
 1165 064c 094A     		ldr	r2, .L93
 1166 064e 5269     		ldr	r2, [r2, #20]
 1167 0650 42F00102 		orr	r2, r2, #1
 1168 0654 5A61     		str	r2, [r3, #20]
 1169              		.loc 1 743 0
 1170 0656 039B     		ldr	r3, [sp, #12]
 1171 0658 009A     		ldr	r2, [sp]
 1172 065a 1A60     		str	r2, [r3]
 1173              		.loc 1 744 0
 1174 065c 039B     		ldr	r3, [sp, #12]
 1175 065e 0433     		adds	r3, r3, #4
 1176 0660 1946     		mov	r1, r3
 1177 0662 DDE90023 		ldrd	r2, [sp]
 1178 0666 1C00     		movs	r4, r3
 1179 0668 0025     		movs	r5, #0
 1180 066a 2346     		mov	r3, r4
 1181 066c 0B60     		str	r3, [r1]
 1182              		.loc 1 745 0
 1183 066e 04B0     		add	sp, sp, #16
 1184              		@ sp needed
 1185 0670 30BC     		pop	{r4, r5}
 1186 0672 7047     		bx	lr
 1187              	.L94:
 1188              		.align	2
 1189              	.L93:
 1190 0674 00200240 		.word	1073881088
ARM GAS  /tmp/ccA7JUTk.s 			page 22


 1191              		.cfi_endproc
 1192              	.LFE138:
 1193              		.size	FLASH_Program_DoubleWord, .-FLASH_Program_DoubleWord
 1194              		.align	2
 1195 0678 AFF30080 		.p2align 4,,15
 1195      AFF30080 
 1196              		.thumb
 1197              		.thumb_func
 1198              		.type	FLASH_Program_Fast, %function
 1199              	FLASH_Program_Fast:
 1200              	.LFB139:
 1201              		.loc 1 754 0
 1202              		.cfi_startproc
 1203              		@ args = 0, pretend = 0, frame = 24
 1204              		@ frame_needed = 0, uses_anonymous_args = 0
 1205              		@ link register save eliminated.
 1206 0680 86B0     		sub	sp, sp, #24
 1207              		.cfi_def_cfa_offset 24
 1208 0682 0190     		str	r0, [sp, #4]
 1209 0684 0091     		str	r1, [sp]
 1210              		.loc 1 755 0
 1211 0686 2023     		movs	r3, #32
 1212 0688 8DF81730 		strb	r3, [sp, #23]
 1213              		.loc 1 756 0
 1214 068c 019B     		ldr	r3, [sp, #4]
 1215 068e 0493     		str	r3, [sp, #16]
 1216              		.loc 1 757 0
 1217 0690 009B     		ldr	r3, [sp]
 1218 0692 0393     		str	r3, [sp, #12]
 1219              		.loc 1 763 0
 1220 0694 0F4B     		ldr	r3, .L97
 1221 0696 0F4A     		ldr	r2, .L97
 1222 0698 5269     		ldr	r2, [r2, #20]
 1223 069a 42F48022 		orr	r2, r2, #262144
 1224 069e 5A61     		str	r2, [r3, #20]
 1225              	.LBB6:
 1226              	.LBB7:
 1227              		.file 2 "../../../../../../ChibiOS/os/ext/CMSIS/include/core_cmFunc.h"
 1228              		.loc 2 344 0
 1229              	@ 344 "../../../../../../ChibiOS/os/ext/CMSIS/include/core_cmFunc.h" 1
 1230 06a0 72B6     		cpsid i
 1231              	@ 0 "" 2
 1232              		.thumb
 1233              	.L96:
 1234              	.LBE7:
 1235              	.LBE6:
 1236              		.loc 1 771 0 discriminator 1
 1237 06a2 0499     		ldr	r1, [sp, #16]
 1238 06a4 01F10803 		add	r3, r1, #8
 1239 06a8 0493     		str	r3, [sp, #16]
 1240 06aa 039B     		ldr	r3, [sp, #12]
 1241 06ac 03F10802 		add	r2, r3, #8
 1242 06b0 0392     		str	r2, [sp, #12]
 1243 06b2 D3E90023 		ldrd	r2, [r3]
 1244 06b6 C1E90023 		strd	r2, [r1]
 1245              		.loc 1 772 0 discriminator 1
 1246 06ba 9DF81730 		ldrb	r3, [sp, #23]
ARM GAS  /tmp/ccA7JUTk.s 			page 23


 1247 06be 013B     		subs	r3, r3, #1
 1248 06c0 8DF81730 		strb	r3, [sp, #23]
 1249 06c4 9DF81730 		ldrb	r3, [sp, #23]	@ zero_extendqisi2
 1250 06c8 002B     		cmp	r3, #0
 1251 06ca EAD1     		bne	.L96
 1252              	.LBB8:
 1253              	.LBB9:
 1254              		.loc 2 333 0
 1255              	@ 333 "../../../../../../ChibiOS/os/ext/CMSIS/include/core_cmFunc.h" 1
 1256 06cc 62B6     		cpsie i
 1257              	@ 0 "" 2
 1258              		.thumb
 1259              	.LBE9:
 1260              	.LBE8:
 1261              		.loc 1 776 0
 1262 06ce 06B0     		add	sp, sp, #24
 1263              		@ sp needed
 1264 06d0 7047     		bx	lr
 1265              	.L98:
 1266 06d2 00BF     		.align	2
 1267              	.L97:
 1268 06d4 00200240 		.word	1073881088
 1269              		.cfi_endproc
 1270              	.LFE139:
 1271              		.size	FLASH_Program_Fast, .-FLASH_Program_Fast
 1272              	.Letext0:
 1273              		.file 3 "/nfs/nfs5/home/research/hardware/arm2/gcc-arm-embedded/gcc-arm-none-eabi-4_8-2014q2/arm-n
 1274              		.file 4 "/nfs/nfs5/home/research/hardware/arm2/gcc-arm-embedded/gcc-arm-none-eabi-4_8-2014q2/arm-n
 1275              		.file 5 "../../../../../../ChibiOS/os/ext/CMSIS/ST/STM32L4xx/stm32l476xx.h"
 1276              		.file 6 "../../../../../../ChibiOS/os/ext/CMSIS/ST/STM32L4xx/stm32l4xx.h"
 1277              		.file 7 "../../../../../Drivers/STM32L4xx_HAL_Driver/Inc/stm32l4xx_hal_def.h"
 1278              		.file 8 "../../../../../Drivers/STM32L4xx_HAL_Driver/Inc/stm32l4xx_hal_flash.h"
 1279              		.file 9 "../../../../../../ChibiOS/os/ext/CMSIS/include/core_cm4.h"