ARM GAS  /tmp/cc8UEhsU.s 			page 1


   1              		.syntax unified
   2              		.cpu cortex-m4
   3              		.fpu softvfp
   4              		.eabi_attribute 20, 1
   5              		.eabi_attribute 21, 1
   6              		.eabi_attribute 23, 3
   7              		.eabi_attribute 24, 1
   8              		.eabi_attribute 25, 1
   9              		.eabi_attribute 26, 1
  10              		.eabi_attribute 30, 6
  11              		.eabi_attribute 34, 1
  12              		.eabi_attribute 18, 4
  13              		.thumb
  14              		.file	"stm32l4xx_hal_i2c_ex.c"
  15              		.text
  16              	.Ltext0:
  17              		.cfi_sections	.debug_frame
  18              		.align	2
  19              		.p2align 4,,15
  20              		.global	HAL_I2CEx_ConfigAnalogFilter
  21              		.thumb
  22              		.thumb_func
  23              		.type	HAL_I2CEx_ConfigAnalogFilter, %function
  24              	HAL_I2CEx_ConfigAnalogFilter:
  25              	.LFB125:
  26              		.file 1 "../../../../../Drivers/STM32L4xx_HAL_Driver/Src/stm32l4xx_hal_i2c_ex.c"
  27              		.loc 1 114 0
  28              		.cfi_startproc
  29              		@ args = 0, pretend = 0, frame = 8
  30              		@ frame_needed = 0, uses_anonymous_args = 0
  31              		@ link register save eliminated.
  32 0000 82B0     		sub	sp, sp, #8
  33              		.cfi_def_cfa_offset 8
  34 0002 0190     		str	r0, [sp, #4]
  35 0004 0091     		str	r1, [sp]
  36              		.loc 1 119 0
  37 0006 019B     		ldr	r3, [sp, #4]
  38 0008 93F84130 		ldrb	r3, [r3, #65]
  39 000c DBB2     		uxtb	r3, r3
  40 000e 202B     		cmp	r3, #32
  41 0010 38D1     		bne	.L2
  42              		.loc 1 122 0
  43 0012 019B     		ldr	r3, [sp, #4]
  44 0014 93F84030 		ldrb	r3, [r3, #64]	@ zero_extendqisi2
  45 0018 012B     		cmp	r3, #1
  46 001a 01D1     		bne	.L3
  47              		.loc 1 122 0 is_stmt 0 discriminator 1
  48 001c 0223     		movs	r3, #2
  49 001e 32E0     		b	.L4
  50              	.L3:
  51              		.loc 1 122 0 discriminator 2
  52 0020 019B     		ldr	r3, [sp, #4]
  53 0022 0122     		movs	r2, #1
  54 0024 83F84020 		strb	r2, [r3, #64]
  55              		.loc 1 124 0 is_stmt 1 discriminator 2
  56 0028 019B     		ldr	r3, [sp, #4]
  57 002a 2422     		movs	r2, #36
ARM GAS  /tmp/cc8UEhsU.s 			page 2


  58 002c 83F84120 		strb	r2, [r3, #65]
  59              		.loc 1 127 0 discriminator 2
  60 0030 019B     		ldr	r3, [sp, #4]
  61 0032 1B68     		ldr	r3, [r3]
  62 0034 019A     		ldr	r2, [sp, #4]
  63 0036 1268     		ldr	r2, [r2]
  64 0038 1268     		ldr	r2, [r2]
  65 003a 22F00102 		bic	r2, r2, #1
  66 003e 1A60     		str	r2, [r3]
  67              		.loc 1 130 0 discriminator 2
  68 0040 019B     		ldr	r3, [sp, #4]
  69 0042 1B68     		ldr	r3, [r3]
  70 0044 019A     		ldr	r2, [sp, #4]
  71 0046 1268     		ldr	r2, [r2]
  72 0048 1268     		ldr	r2, [r2]
  73 004a 22F48052 		bic	r2, r2, #4096
  74 004e 1A60     		str	r2, [r3]
  75              		.loc 1 133 0 discriminator 2
  76 0050 019B     		ldr	r3, [sp, #4]
  77 0052 1B68     		ldr	r3, [r3]
  78 0054 019A     		ldr	r2, [sp, #4]
  79 0056 1268     		ldr	r2, [r2]
  80 0058 1168     		ldr	r1, [r2]
  81 005a 009A     		ldr	r2, [sp]
  82 005c 0A43     		orrs	r2, r2, r1
  83 005e 1A60     		str	r2, [r3]
  84              		.loc 1 135 0 discriminator 2
  85 0060 019B     		ldr	r3, [sp, #4]
  86 0062 1B68     		ldr	r3, [r3]
  87 0064 019A     		ldr	r2, [sp, #4]
  88 0066 1268     		ldr	r2, [r2]
  89 0068 1268     		ldr	r2, [r2]
  90 006a 42F00102 		orr	r2, r2, #1
  91 006e 1A60     		str	r2, [r3]
  92              		.loc 1 137 0 discriminator 2
  93 0070 019B     		ldr	r3, [sp, #4]
  94 0072 2022     		movs	r2, #32
  95 0074 83F84120 		strb	r2, [r3, #65]
  96              		.loc 1 140 0 discriminator 2
  97 0078 019B     		ldr	r3, [sp, #4]
  98 007a 0022     		movs	r2, #0
  99 007c 83F84020 		strb	r2, [r3, #64]
 100              		.loc 1 142 0 discriminator 2
 101 0080 0023     		movs	r3, #0
 102 0082 00E0     		b	.L4
 103              	.L2:
 104              		.loc 1 146 0
 105 0084 0223     		movs	r3, #2
 106              	.L4:
 107              		.loc 1 148 0
 108 0086 1846     		mov	r0, r3
 109 0088 02B0     		add	sp, sp, #8
 110              		@ sp needed
 111 008a 7047     		bx	lr
 112              		.cfi_endproc
 113              	.LFE125:
 114              		.size	HAL_I2CEx_ConfigAnalogFilter, .-HAL_I2CEx_ConfigAnalogFilter
ARM GAS  /tmp/cc8UEhsU.s 			page 3


 115              		.align	2
 116 008c AFF30080 		.p2align 4,,15
 117              		.global	HAL_I2CEx_ConfigDigitalFilter
 118              		.thumb
 119              		.thumb_func
 120              		.type	HAL_I2CEx_ConfigDigitalFilter, %function
 121              	HAL_I2CEx_ConfigDigitalFilter:
 122              	.LFB126:
 123              		.loc 1 158 0
 124              		.cfi_startproc
 125              		@ args = 0, pretend = 0, frame = 16
 126              		@ frame_needed = 0, uses_anonymous_args = 0
 127              		@ link register save eliminated.
 128 0090 84B0     		sub	sp, sp, #16
 129              		.cfi_def_cfa_offset 16
 130 0092 0190     		str	r0, [sp, #4]
 131 0094 0091     		str	r1, [sp]
 132              		.loc 1 159 0
 133 0096 0023     		movs	r3, #0
 134 0098 0393     		str	r3, [sp, #12]
 135              		.loc 1 165 0
 136 009a 019B     		ldr	r3, [sp, #4]
 137 009c 93F84130 		ldrb	r3, [r3, #65]
 138 00a0 DBB2     		uxtb	r3, r3
 139 00a2 202B     		cmp	r3, #32
 140 00a4 39D1     		bne	.L6
 141              		.loc 1 168 0
 142 00a6 019B     		ldr	r3, [sp, #4]
 143 00a8 93F84030 		ldrb	r3, [r3, #64]	@ zero_extendqisi2
 144 00ac 012B     		cmp	r3, #1
 145 00ae 01D1     		bne	.L7
 146              		.loc 1 168 0 is_stmt 0 discriminator 1
 147 00b0 0223     		movs	r3, #2
 148 00b2 33E0     		b	.L8
 149              	.L7:
 150              		.loc 1 168 0 discriminator 2
 151 00b4 019B     		ldr	r3, [sp, #4]
 152 00b6 0122     		movs	r2, #1
 153 00b8 83F84020 		strb	r2, [r3, #64]
 154              		.loc 1 170 0 is_stmt 1 discriminator 2
 155 00bc 019B     		ldr	r3, [sp, #4]
 156 00be 2422     		movs	r2, #36
 157 00c0 83F84120 		strb	r2, [r3, #65]
 158              		.loc 1 173 0 discriminator 2
 159 00c4 019B     		ldr	r3, [sp, #4]
 160 00c6 1B68     		ldr	r3, [r3]
 161 00c8 019A     		ldr	r2, [sp, #4]
 162 00ca 1268     		ldr	r2, [r2]
 163 00cc 1268     		ldr	r2, [r2]
 164 00ce 22F00102 		bic	r2, r2, #1
 165 00d2 1A60     		str	r2, [r3]
 166              		.loc 1 176 0 discriminator 2
 167 00d4 019B     		ldr	r3, [sp, #4]
 168 00d6 1B68     		ldr	r3, [r3]
 169 00d8 1B68     		ldr	r3, [r3]
 170 00da 0393     		str	r3, [sp, #12]
 171              		.loc 1 179 0 discriminator 2
ARM GAS  /tmp/cc8UEhsU.s 			page 4


 172 00dc 039B     		ldr	r3, [sp, #12]
 173 00de 23F47063 		bic	r3, r3, #3840
 174 00e2 0393     		str	r3, [sp, #12]
 175              		.loc 1 182 0 discriminator 2
 176 00e4 009B     		ldr	r3, [sp]
 177 00e6 1B02     		lsls	r3, r3, #8
 178 00e8 039A     		ldr	r2, [sp, #12]
 179 00ea 1343     		orrs	r3, r3, r2
 180 00ec 0393     		str	r3, [sp, #12]
 181              		.loc 1 185 0 discriminator 2
 182 00ee 019B     		ldr	r3, [sp, #4]
 183 00f0 1B68     		ldr	r3, [r3]
 184 00f2 039A     		ldr	r2, [sp, #12]
 185 00f4 1A60     		str	r2, [r3]
 186              		.loc 1 187 0 discriminator 2
 187 00f6 019B     		ldr	r3, [sp, #4]
 188 00f8 1B68     		ldr	r3, [r3]
 189 00fa 019A     		ldr	r2, [sp, #4]
 190 00fc 1268     		ldr	r2, [r2]
 191 00fe 1268     		ldr	r2, [r2]
 192 0100 42F00102 		orr	r2, r2, #1
 193 0104 1A60     		str	r2, [r3]
 194              		.loc 1 189 0 discriminator 2
 195 0106 019B     		ldr	r3, [sp, #4]
 196 0108 2022     		movs	r2, #32
 197 010a 83F84120 		strb	r2, [r3, #65]
 198              		.loc 1 192 0 discriminator 2
 199 010e 019B     		ldr	r3, [sp, #4]
 200 0110 0022     		movs	r2, #0
 201 0112 83F84020 		strb	r2, [r3, #64]
 202              		.loc 1 194 0 discriminator 2
 203 0116 0023     		movs	r3, #0
 204 0118 00E0     		b	.L8
 205              	.L6:
 206              		.loc 1 198 0
 207 011a 0223     		movs	r3, #2
 208              	.L8:
 209              		.loc 1 200 0
 210 011c 1846     		mov	r0, r3
 211 011e 04B0     		add	sp, sp, #16
 212              		@ sp needed
 213 0120 7047     		bx	lr
 214              		.cfi_endproc
 215              	.LFE126:
 216              		.size	HAL_I2CEx_ConfigDigitalFilter, .-HAL_I2CEx_ConfigDigitalFilter
 217 0122 00BF     		.align	2
 218 0124 AFF30080 		.p2align 4,,15
 218      AFF30080 
 218      AFF30080 
 219              		.global	HAL_I2CEx_EnableWakeUp
 220              		.thumb
 221              		.thumb_func
 222              		.type	HAL_I2CEx_EnableWakeUp, %function
 223              	HAL_I2CEx_EnableWakeUp:
 224              	.LFB127:
 225              		.loc 1 209 0
 226              		.cfi_startproc
ARM GAS  /tmp/cc8UEhsU.s 			page 5


 227              		@ args = 0, pretend = 0, frame = 8
 228              		@ frame_needed = 0, uses_anonymous_args = 0
 229              		@ link register save eliminated.
 230 0130 82B0     		sub	sp, sp, #8
 231              		.cfi_def_cfa_offset 8
 232 0132 0190     		str	r0, [sp, #4]
 233              		.loc 1 213 0
 234 0134 019B     		ldr	r3, [sp, #4]
 235 0136 93F84130 		ldrb	r3, [r3, #65]
 236 013a DBB2     		uxtb	r3, r3
 237 013c 202B     		cmp	r3, #32
 238 013e 30D1     		bne	.L10
 239              		.loc 1 216 0
 240 0140 019B     		ldr	r3, [sp, #4]
 241 0142 93F84030 		ldrb	r3, [r3, #64]	@ zero_extendqisi2
 242 0146 012B     		cmp	r3, #1
 243 0148 01D1     		bne	.L11
 244              		.loc 1 216 0 is_stmt 0 discriminator 1
 245 014a 0223     		movs	r3, #2
 246 014c 2AE0     		b	.L12
 247              	.L11:
 248              		.loc 1 216 0 discriminator 2
 249 014e 019B     		ldr	r3, [sp, #4]
 250 0150 0122     		movs	r2, #1
 251 0152 83F84020 		strb	r2, [r3, #64]
 252              		.loc 1 218 0 is_stmt 1 discriminator 2
 253 0156 019B     		ldr	r3, [sp, #4]
 254 0158 2422     		movs	r2, #36
 255 015a 83F84120 		strb	r2, [r3, #65]
 256              		.loc 1 221 0 discriminator 2
 257 015e 019B     		ldr	r3, [sp, #4]
 258 0160 1B68     		ldr	r3, [r3]
 259 0162 019A     		ldr	r2, [sp, #4]
 260 0164 1268     		ldr	r2, [r2]
 261 0166 1268     		ldr	r2, [r2]
 262 0168 22F00102 		bic	r2, r2, #1
 263 016c 1A60     		str	r2, [r3]
 264              		.loc 1 224 0 discriminator 2
 265 016e 019B     		ldr	r3, [sp, #4]
 266 0170 1B68     		ldr	r3, [r3]
 267 0172 019A     		ldr	r2, [sp, #4]
 268 0174 1268     		ldr	r2, [r2]
 269 0176 1268     		ldr	r2, [r2]
 270 0178 42F48022 		orr	r2, r2, #262144
 271 017c 1A60     		str	r2, [r3]
 272              		.loc 1 226 0 discriminator 2
 273 017e 019B     		ldr	r3, [sp, #4]
 274 0180 1B68     		ldr	r3, [r3]
 275 0182 019A     		ldr	r2, [sp, #4]
 276 0184 1268     		ldr	r2, [r2]
 277 0186 1268     		ldr	r2, [r2]
 278 0188 42F00102 		orr	r2, r2, #1
 279 018c 1A60     		str	r2, [r3]
 280              		.loc 1 228 0 discriminator 2
 281 018e 019B     		ldr	r3, [sp, #4]
 282 0190 2022     		movs	r2, #32
 283 0192 83F84120 		strb	r2, [r3, #65]
ARM GAS  /tmp/cc8UEhsU.s 			page 6


 284              		.loc 1 231 0 discriminator 2
 285 0196 019B     		ldr	r3, [sp, #4]
 286 0198 0022     		movs	r2, #0
 287 019a 83F84020 		strb	r2, [r3, #64]
 288              		.loc 1 233 0 discriminator 2
 289 019e 0023     		movs	r3, #0
 290 01a0 00E0     		b	.L12
 291              	.L10:
 292              		.loc 1 237 0
 293 01a2 0223     		movs	r3, #2
 294              	.L12:
 295              		.loc 1 239 0
 296 01a4 1846     		mov	r0, r3
 297 01a6 02B0     		add	sp, sp, #8
 298              		@ sp needed
 299 01a8 7047     		bx	lr
 300              		.cfi_endproc
 301              	.LFE127:
 302              		.size	HAL_I2CEx_EnableWakeUp, .-HAL_I2CEx_EnableWakeUp
 303 01aa 00BF     		.align	2
 304 01ac AFF30080 		.p2align 4,,15
 305              		.global	HAL_I2CEx_DisableWakeUp
 306              		.thumb
 307              		.thumb_func
 308              		.type	HAL_I2CEx_DisableWakeUp, %function
 309              	HAL_I2CEx_DisableWakeUp:
 310              	.LFB128:
 311              		.loc 1 249 0
 312              		.cfi_startproc
 313              		@ args = 0, pretend = 0, frame = 8
 314              		@ frame_needed = 0, uses_anonymous_args = 0
 315              		@ link register save eliminated.
 316 01b0 82B0     		sub	sp, sp, #8
 317              		.cfi_def_cfa_offset 8
 318 01b2 0190     		str	r0, [sp, #4]
 319              		.loc 1 253 0
 320 01b4 019B     		ldr	r3, [sp, #4]
 321 01b6 93F84130 		ldrb	r3, [r3, #65]
 322 01ba DBB2     		uxtb	r3, r3
 323 01bc 202B     		cmp	r3, #32
 324 01be 30D1     		bne	.L14
 325              		.loc 1 256 0
 326 01c0 019B     		ldr	r3, [sp, #4]
 327 01c2 93F84030 		ldrb	r3, [r3, #64]	@ zero_extendqisi2
 328 01c6 012B     		cmp	r3, #1
 329 01c8 01D1     		bne	.L15
 330              		.loc 1 256 0 is_stmt 0 discriminator 1
 331 01ca 0223     		movs	r3, #2
 332 01cc 2AE0     		b	.L16
 333              	.L15:
 334              		.loc 1 256 0 discriminator 2
 335 01ce 019B     		ldr	r3, [sp, #4]
 336 01d0 0122     		movs	r2, #1
 337 01d2 83F84020 		strb	r2, [r3, #64]
 338              		.loc 1 258 0 is_stmt 1 discriminator 2
 339 01d6 019B     		ldr	r3, [sp, #4]
 340 01d8 2422     		movs	r2, #36
ARM GAS  /tmp/cc8UEhsU.s 			page 7


 341 01da 83F84120 		strb	r2, [r3, #65]
 342              		.loc 1 261 0 discriminator 2
 343 01de 019B     		ldr	r3, [sp, #4]
 344 01e0 1B68     		ldr	r3, [r3]
 345 01e2 019A     		ldr	r2, [sp, #4]
 346 01e4 1268     		ldr	r2, [r2]
 347 01e6 1268     		ldr	r2, [r2]
 348 01e8 22F00102 		bic	r2, r2, #1
 349 01ec 1A60     		str	r2, [r3]
 350              		.loc 1 264 0 discriminator 2
 351 01ee 019B     		ldr	r3, [sp, #4]
 352 01f0 1B68     		ldr	r3, [r3]
 353 01f2 019A     		ldr	r2, [sp, #4]
 354 01f4 1268     		ldr	r2, [r2]
 355 01f6 1268     		ldr	r2, [r2]
 356 01f8 22F48022 		bic	r2, r2, #262144
 357 01fc 1A60     		str	r2, [r3]
 358              		.loc 1 266 0 discriminator 2
 359 01fe 019B     		ldr	r3, [sp, #4]
 360 0200 1B68     		ldr	r3, [r3]
 361 0202 019A     		ldr	r2, [sp, #4]
 362 0204 1268     		ldr	r2, [r2]
 363 0206 1268     		ldr	r2, [r2]
 364 0208 42F00102 		orr	r2, r2, #1
 365 020c 1A60     		str	r2, [r3]
 366              		.loc 1 268 0 discriminator 2
 367 020e 019B     		ldr	r3, [sp, #4]
 368 0210 2022     		movs	r2, #32
 369 0212 83F84120 		strb	r2, [r3, #65]
 370              		.loc 1 271 0 discriminator 2
 371 0216 019B     		ldr	r3, [sp, #4]
 372 0218 0022     		movs	r2, #0
 373 021a 83F84020 		strb	r2, [r3, #64]
 374              		.loc 1 273 0 discriminator 2
 375 021e 0023     		movs	r3, #0
 376 0220 00E0     		b	.L16
 377              	.L14:
 378              		.loc 1 277 0
 379 0222 0223     		movs	r3, #2
 380              	.L16:
 381              		.loc 1 279 0
 382 0224 1846     		mov	r0, r3
 383 0226 02B0     		add	sp, sp, #8
 384              		@ sp needed
 385 0228 7047     		bx	lr
 386              		.cfi_endproc
 387              	.LFE128:
 388              		.size	HAL_I2CEx_DisableWakeUp, .-HAL_I2CEx_DisableWakeUp
 389 022a 00BF     		.align	2
 390 022c AFF30080 		.p2align 4,,15
 391              		.global	HAL_I2CEx_EnableFastModePlus
 392              		.thumb
 393              		.thumb_func
 394              		.type	HAL_I2CEx_EnableFastModePlus, %function
 395              	HAL_I2CEx_EnableFastModePlus:
 396              	.LFB129:
 397              		.loc 1 297 0
ARM GAS  /tmp/cc8UEhsU.s 			page 8


 398              		.cfi_startproc
 399              		@ args = 0, pretend = 0, frame = 16
 400              		@ frame_needed = 0, uses_anonymous_args = 0
 401              		@ link register save eliminated.
 402 0230 84B0     		sub	sp, sp, #16
 403              		.cfi_def_cfa_offset 16
 404 0232 0190     		str	r0, [sp, #4]
 405              	.LBB2:
 406              		.loc 1 302 0
 407 0234 094B     		ldr	r3, .L18
 408 0236 094A     		ldr	r2, .L18
 409 0238 126E     		ldr	r2, [r2, #96]
 410 023a 42F00102 		orr	r2, r2, #1
 411 023e 1A66     		str	r2, [r3, #96]
 412 0240 064B     		ldr	r3, .L18
 413 0242 1B6E     		ldr	r3, [r3, #96]
 414 0244 03F00103 		and	r3, r3, #1
 415 0248 0393     		str	r3, [sp, #12]
 416 024a 039B     		ldr	r3, [sp, #12]
 417              	.LBE2:
 418              		.loc 1 305 0
 419 024c 044B     		ldr	r3, .L18+4
 420 024e 044A     		ldr	r2, .L18+4
 421 0250 5168     		ldr	r1, [r2, #4]
 422 0252 019A     		ldr	r2, [sp, #4]
 423 0254 0A43     		orrs	r2, r2, r1
 424 0256 5A60     		str	r2, [r3, #4]
 425              		.loc 1 306 0
 426 0258 04B0     		add	sp, sp, #16
 427              		@ sp needed
 428 025a 7047     		bx	lr
 429              	.L19:
 430              		.align	2
 431              	.L18:
 432 025c 00100240 		.word	1073876992
 433 0260 00000140 		.word	1073807360
 434              		.cfi_endproc
 435              	.LFE129:
 436              		.size	HAL_I2CEx_EnableFastModePlus, .-HAL_I2CEx_EnableFastModePlus
 437              		.align	2
 438 0264 AFF30080 		.p2align 4,,15
 438      AFF30080 
 438      AFF30080 
 439              		.global	HAL_I2CEx_DisableFastModePlus
 440              		.thumb
 441              		.thumb_func
 442              		.type	HAL_I2CEx_DisableFastModePlus, %function
 443              	HAL_I2CEx_DisableFastModePlus:
 444              	.LFB130:
 445              		.loc 1 324 0
 446              		.cfi_startproc
 447              		@ args = 0, pretend = 0, frame = 16
 448              		@ frame_needed = 0, uses_anonymous_args = 0
 449              		@ link register save eliminated.
 450 0270 84B0     		sub	sp, sp, #16
 451              		.cfi_def_cfa_offset 16
 452 0272 0190     		str	r0, [sp, #4]
ARM GAS  /tmp/cc8UEhsU.s 			page 9


 453              	.LBB3:
 454              		.loc 1 329 0
 455 0274 0A4B     		ldr	r3, .L21
 456 0276 0A4A     		ldr	r2, .L21
 457 0278 126E     		ldr	r2, [r2, #96]
 458 027a 42F00102 		orr	r2, r2, #1
 459 027e 1A66     		str	r2, [r3, #96]
 460 0280 074B     		ldr	r3, .L21
 461 0282 1B6E     		ldr	r3, [r3, #96]
 462 0284 03F00103 		and	r3, r3, #1
 463 0288 0393     		str	r3, [sp, #12]
 464 028a 039B     		ldr	r3, [sp, #12]
 465              	.LBE3:
 466              		.loc 1 332 0
 467 028c 054B     		ldr	r3, .L21+4
 468 028e 054A     		ldr	r2, .L21+4
 469 0290 5168     		ldr	r1, [r2, #4]
 470 0292 019A     		ldr	r2, [sp, #4]
 471 0294 D243     		mvns	r2, r2
 472 0296 0A40     		ands	r2, r2, r1
 473 0298 5A60     		str	r2, [r3, #4]
 474              		.loc 1 333 0
 475 029a 04B0     		add	sp, sp, #16
 476              		@ sp needed
 477 029c 7047     		bx	lr
 478              	.L22:
 479 029e 00BF     		.align	2
 480              	.L21:
 481 02a0 00100240 		.word	1073876992
 482 02a4 00000140 		.word	1073807360
 483              		.cfi_endproc
 484              	.LFE130:
 485              		.size	HAL_I2CEx_DisableFastModePlus, .-HAL_I2CEx_DisableFastModePlus
 486              	.Letext0:
 487              		.file 2 "/nfs/nfs5/home/research/hardware/arm2/gcc-arm-embedded/gcc-arm-none-eabi-4_8-2014q2/arm-n
 488              		.file 3 "/nfs/nfs5/home/research/hardware/arm2/gcc-arm-embedded/gcc-arm-none-eabi-4_8-2014q2/arm-n
 489              		.file 4 "../../../../../../ChibiOS/os/ext/CMSIS/ST/STM32L4xx/stm32l476xx.h"
 490              		.file 5 "../../../../../Drivers/STM32L4xx_HAL_Driver/Inc/stm32l4xx_hal_def.h"
 491              		.file 6 "../../../../../Drivers/STM32L4xx_HAL_Driver/Inc/stm32l4xx_hal_dma.h"
 492              		.file 7 "../../../../../Drivers/STM32L4xx_HAL_Driver/Inc/stm32l4xx_hal_i2c.h"
 493              		.file 8 "../../../../../../ChibiOS/os/ext/CMSIS/include/core_cm4.h"