ARM GAS  /tmp/ccHRl1iB.s 			page 1


   1              		.syntax unified
   2              		.cpu cortex-m4
   3              		.fpu softvfp
   4              		.eabi_attribute 20, 1
   5              		.eabi_attribute 21, 1
   6              		.eabi_attribute 23, 3
   7              		.eabi_attribute 24, 1
   8              		.eabi_attribute 25, 1
   9              		.eabi_attribute 26, 1
  10              		.eabi_attribute 30, 6
  11              		.eabi_attribute 34, 1
  12              		.eabi_attribute 18, 4
  13              		.thumb
  14              		.file	"stm32l4xx_hal_rtc.c"
  15              		.text
  16              	.Ltext0:
  17              		.cfi_sections	.debug_frame
  18              		.align	2
  19              		.p2align 4,,15
  20              		.global	HAL_RTC_Init
  21              		.thumb
  22              		.thumb_func
  23              		.type	HAL_RTC_Init, %function
  24              	HAL_RTC_Init:
  25              	.LFB125:
  26              		.file 1 "../../../../../Drivers/STM32L4xx_HAL_Driver/Src/stm32l4xx_hal_rtc.c"
  27              		.loc 1 187 0
  28              		.cfi_startproc
  29              		@ args = 0, pretend = 0, frame = 8
  30              		@ frame_needed = 0, uses_anonymous_args = 0
  31 0000 00B5     		push	{lr}
  32              		.cfi_def_cfa_offset 4
  33              		.cfi_offset 14, -4
  34 0002 83B0     		sub	sp, sp, #12
  35              		.cfi_def_cfa_offset 16
  36 0004 0190     		str	r0, [sp, #4]
  37              		.loc 1 189 0
  38 0006 019B     		ldr	r3, [sp, #4]
  39 0008 002B     		cmp	r3, #0
  40 000a 01D1     		bne	.L2
  41              		.loc 1 191 0
  42 000c 0123     		movs	r3, #1
  43 000e 75E0     		b	.L3
  44              	.L2:
  45              		.loc 1 204 0
  46 0010 019B     		ldr	r3, [sp, #4]
  47 0012 93F82130 		ldrb	r3, [r3, #33]
  48 0016 DBB2     		uxtb	r3, r3
  49 0018 002B     		cmp	r3, #0
  50 001a 06D1     		bne	.L4
  51              		.loc 1 207 0
  52 001c 019B     		ldr	r3, [sp, #4]
  53 001e 0022     		movs	r2, #0
  54 0020 83F82020 		strb	r2, [r3, #32]
  55              		.loc 1 210 0
  56 0024 0198     		ldr	r0, [sp, #4]
  57 0026 FFF7FEFF 		bl	HAL_RTC_MspInit
ARM GAS  /tmp/ccHRl1iB.s 			page 2


  58              	.L4:
  59              		.loc 1 214 0
  60 002a 019B     		ldr	r3, [sp, #4]
  61 002c 0222     		movs	r2, #2
  62 002e 83F82120 		strb	r2, [r3, #33]
  63              		.loc 1 217 0
  64 0032 019B     		ldr	r3, [sp, #4]
  65 0034 1B68     		ldr	r3, [r3]
  66 0036 CA22     		movs	r2, #202
  67 0038 5A62     		str	r2, [r3, #36]
  68 003a 019B     		ldr	r3, [sp, #4]
  69 003c 1B68     		ldr	r3, [r3]
  70 003e 5322     		movs	r2, #83
  71 0040 5A62     		str	r2, [r3, #36]
  72              		.loc 1 220 0
  73 0042 0198     		ldr	r0, [sp, #4]
  74 0044 FFF7FEFF 		bl	RTC_EnterInitMode
  75 0048 0346     		mov	r3, r0
  76 004a 002B     		cmp	r3, #0
  77 004c 09D0     		beq	.L5
  78              		.loc 1 223 0
  79 004e 019B     		ldr	r3, [sp, #4]
  80 0050 1B68     		ldr	r3, [r3]
  81 0052 FF22     		movs	r2, #255
  82 0054 5A62     		str	r2, [r3, #36]
  83              		.loc 1 226 0
  84 0056 019B     		ldr	r3, [sp, #4]
  85 0058 0422     		movs	r2, #4
  86 005a 83F82120 		strb	r2, [r3, #33]
  87              		.loc 1 228 0
  88 005e 0123     		movs	r3, #1
  89 0060 4CE0     		b	.L3
  90              	.L5:
  91              		.loc 1 233 0
  92 0062 019B     		ldr	r3, [sp, #4]
  93 0064 1A68     		ldr	r2, [r3]
  94 0066 019B     		ldr	r3, [sp, #4]
  95 0068 1B68     		ldr	r3, [r3]
  96 006a 9B68     		ldr	r3, [r3, #8]
  97 006c 23F4E003 		bic	r3, r3, #7340032
  98 0070 23F04003 		bic	r3, r3, #64
  99 0074 9360     		str	r3, [r2, #8]
 100              		.loc 1 235 0
 101 0076 019B     		ldr	r3, [sp, #4]
 102 0078 1B68     		ldr	r3, [r3]
 103 007a 019A     		ldr	r2, [sp, #4]
 104 007c 1268     		ldr	r2, [r2]
 105 007e 9168     		ldr	r1, [r2, #8]
 106 0080 019A     		ldr	r2, [sp, #4]
 107 0082 5068     		ldr	r0, [r2, #4]
 108 0084 019A     		ldr	r2, [sp, #4]
 109 0086 1269     		ldr	r2, [r2, #16]
 110 0088 1043     		orrs	r0, r0, r2
 111 008a 019A     		ldr	r2, [sp, #4]
 112 008c 9269     		ldr	r2, [r2, #24]
 113 008e 0243     		orrs	r2, r2, r0
 114 0090 0A43     		orrs	r2, r2, r1
ARM GAS  /tmp/ccHRl1iB.s 			page 3


 115 0092 9A60     		str	r2, [r3, #8]
 116              		.loc 1 238 0
 117 0094 019B     		ldr	r3, [sp, #4]
 118 0096 1B68     		ldr	r3, [r3]
 119 0098 019A     		ldr	r2, [sp, #4]
 120 009a D268     		ldr	r2, [r2, #12]
 121 009c 1A61     		str	r2, [r3, #16]
 122              		.loc 1 239 0
 123 009e 019B     		ldr	r3, [sp, #4]
 124 00a0 1B68     		ldr	r3, [r3]
 125 00a2 019A     		ldr	r2, [sp, #4]
 126 00a4 1268     		ldr	r2, [r2]
 127 00a6 1169     		ldr	r1, [r2, #16]
 128 00a8 019A     		ldr	r2, [sp, #4]
 129 00aa 9268     		ldr	r2, [r2, #8]
 130 00ac 1204     		lsls	r2, r2, #16
 131 00ae 0A43     		orrs	r2, r2, r1
 132 00b0 1A61     		str	r2, [r3, #16]
 133              		.loc 1 242 0
 134 00b2 019B     		ldr	r3, [sp, #4]
 135 00b4 1B68     		ldr	r3, [r3]
 136 00b6 019A     		ldr	r2, [sp, #4]
 137 00b8 1268     		ldr	r2, [r2]
 138 00ba D268     		ldr	r2, [r2, #12]
 139 00bc 22F08002 		bic	r2, r2, #128
 140 00c0 DA60     		str	r2, [r3, #12]
 141              		.loc 1 244 0
 142 00c2 019B     		ldr	r3, [sp, #4]
 143 00c4 1B68     		ldr	r3, [r3]
 144 00c6 019A     		ldr	r2, [sp, #4]
 145 00c8 1268     		ldr	r2, [r2]
 146 00ca D26C     		ldr	r2, [r2, #76]
 147 00cc 22F00302 		bic	r2, r2, #3
 148 00d0 DA64     		str	r2, [r3, #76]
 149              		.loc 1 245 0
 150 00d2 019B     		ldr	r3, [sp, #4]
 151 00d4 1B68     		ldr	r3, [r3]
 152 00d6 019A     		ldr	r2, [sp, #4]
 153 00d8 1268     		ldr	r2, [r2]
 154 00da D16C     		ldr	r1, [r2, #76]
 155 00dc 019A     		ldr	r2, [sp, #4]
 156 00de D069     		ldr	r0, [r2, #28]
 157 00e0 019A     		ldr	r2, [sp, #4]
 158 00e2 5269     		ldr	r2, [r2, #20]
 159 00e4 0243     		orrs	r2, r2, r0
 160 00e6 0A43     		orrs	r2, r2, r1
 161 00e8 DA64     		str	r2, [r3, #76]
 162              		.loc 1 248 0
 163 00ea 019B     		ldr	r3, [sp, #4]
 164 00ec 1B68     		ldr	r3, [r3]
 165 00ee FF22     		movs	r2, #255
 166 00f0 5A62     		str	r2, [r3, #36]
 167              		.loc 1 251 0
 168 00f2 019B     		ldr	r3, [sp, #4]
 169 00f4 0122     		movs	r2, #1
 170 00f6 83F82120 		strb	r2, [r3, #33]
 171              		.loc 1 253 0
ARM GAS  /tmp/ccHRl1iB.s 			page 4


 172 00fa 0023     		movs	r3, #0
 173              	.L3:
 174              		.loc 1 255 0
 175 00fc 1846     		mov	r0, r3
 176 00fe 03B0     		add	sp, sp, #12
 177              		@ sp needed
 178 0100 5DF804FB 		ldr	pc, [sp], #4
 179              		.cfi_endproc
 180              	.LFE125:
 181              		.size	HAL_RTC_Init, .-HAL_RTC_Init
 182              		.align	2
 183 0104 AFF30080 		.p2align 4,,15
 183      AFF30080 
 183      AFF30080 
 184              		.global	HAL_RTC_DeInit
 185              		.thumb
 186              		.thumb_func
 187              		.type	HAL_RTC_DeInit, %function
 188              	HAL_RTC_DeInit:
 189              	.LFB126:
 190              		.loc 1 264 0
 191              		.cfi_startproc
 192              		@ args = 0, pretend = 0, frame = 16
 193              		@ frame_needed = 0, uses_anonymous_args = 0
 194 0110 00B5     		push	{lr}
 195              		.cfi_def_cfa_offset 4
 196              		.cfi_offset 14, -4
 197 0112 85B0     		sub	sp, sp, #20
 198              		.cfi_def_cfa_offset 24
 199 0114 0190     		str	r0, [sp, #4]
 200              		.loc 1 265 0
 201 0116 0023     		movs	r3, #0
 202 0118 0393     		str	r3, [sp, #12]
 203              		.loc 1 271 0
 204 011a 019B     		ldr	r3, [sp, #4]
 205 011c 0222     		movs	r2, #2
 206 011e 83F82120 		strb	r2, [r3, #33]
 207              		.loc 1 274 0
 208 0122 019B     		ldr	r3, [sp, #4]
 209 0124 1B68     		ldr	r3, [r3]
 210 0126 CA22     		movs	r2, #202
 211 0128 5A62     		str	r2, [r3, #36]
 212 012a 019B     		ldr	r3, [sp, #4]
 213 012c 1B68     		ldr	r3, [r3]
 214 012e 5322     		movs	r2, #83
 215 0130 5A62     		str	r2, [r3, #36]
 216              		.loc 1 277 0
 217 0132 0198     		ldr	r0, [sp, #4]
 218 0134 FFF7FEFF 		bl	RTC_EnterInitMode
 219 0138 0346     		mov	r3, r0
 220 013a 002B     		cmp	r3, #0
 221 013c 09D0     		beq	.L7
 222              		.loc 1 280 0
 223 013e 019B     		ldr	r3, [sp, #4]
 224 0140 1B68     		ldr	r3, [r3]
 225 0142 FF22     		movs	r2, #255
 226 0144 5A62     		str	r2, [r3, #36]
ARM GAS  /tmp/ccHRl1iB.s 			page 5


 227              		.loc 1 283 0
 228 0146 019B     		ldr	r3, [sp, #4]
 229 0148 0422     		movs	r2, #4
 230 014a 83F82120 		strb	r2, [r3, #33]
 231              		.loc 1 285 0
 232 014e 0123     		movs	r3, #1
 233 0150 88E0     		b	.L8
 234              	.L7:
 235              		.loc 1 290 0
 236 0152 019B     		ldr	r3, [sp, #4]
 237 0154 1B68     		ldr	r3, [r3]
 238 0156 0022     		movs	r2, #0
 239 0158 1A60     		str	r2, [r3]
 240              		.loc 1 291 0
 241 015a 019B     		ldr	r3, [sp, #4]
 242 015c 1B68     		ldr	r3, [r3]
 243 015e 42F20112 		movw	r2, #8449
 244 0162 5A60     		str	r2, [r3, #4]
 245              		.loc 1 293 0
 246 0164 019B     		ldr	r3, [sp, #4]
 247 0166 1B68     		ldr	r3, [r3]
 248 0168 019A     		ldr	r2, [sp, #4]
 249 016a 1268     		ldr	r2, [r2]
 250 016c 9268     		ldr	r2, [r2, #8]
 251 016e 02F00702 		and	r2, r2, #7
 252 0172 9A60     		str	r2, [r3, #8]
 253              		.loc 1 295 0
 254 0174 FFF7FEFF 		bl	HAL_GetTick
 255 0178 0390     		str	r0, [sp, #12]
 256              		.loc 1 298 0
 257 017a 11E0     		b	.L9
 258              	.L10:
 259              		.loc 1 300 0
 260 017c FFF7FEFF 		bl	HAL_GetTick
 261 0180 0246     		mov	r2, r0
 262 0182 039B     		ldr	r3, [sp, #12]
 263 0184 D31A     		subs	r3, r2, r3
 264 0186 B3F57A7F 		cmp	r3, #1000
 265 018a 09D9     		bls	.L9
 266              		.loc 1 303 0
 267 018c 019B     		ldr	r3, [sp, #4]
 268 018e 1B68     		ldr	r3, [r3]
 269 0190 FF22     		movs	r2, #255
 270 0192 5A62     		str	r2, [r3, #36]
 271              		.loc 1 306 0
 272 0194 019B     		ldr	r3, [sp, #4]
 273 0196 0322     		movs	r2, #3
 274 0198 83F82120 		strb	r2, [r3, #33]
 275              		.loc 1 308 0
 276 019c 0323     		movs	r3, #3
 277 019e 61E0     		b	.L8
 278              	.L9:
 279              		.loc 1 298 0 discriminator 1
 280 01a0 019B     		ldr	r3, [sp, #4]
 281 01a2 1B68     		ldr	r3, [r3]
 282 01a4 DB68     		ldr	r3, [r3, #12]
 283 01a6 03F00403 		and	r3, r3, #4
ARM GAS  /tmp/ccHRl1iB.s 			page 6


 284 01aa 002B     		cmp	r3, #0
 285 01ac E6D0     		beq	.L10
 286              		.loc 1 313 0
 287 01ae 019B     		ldr	r3, [sp, #4]
 288 01b0 1B68     		ldr	r3, [r3]
 289 01b2 9B68     		ldr	r3, [r3, #8]
 290 01b4 019B     		ldr	r3, [sp, #4]
 291 01b6 1B68     		ldr	r3, [r3]
 292 01b8 0022     		movs	r2, #0
 293 01ba 9A60     		str	r2, [r3, #8]
 294              		.loc 1 314 0
 295 01bc 019B     		ldr	r3, [sp, #4]
 296 01be 1B68     		ldr	r3, [r3]
 297 01c0 4FF6FF72 		movw	r2, #65535
 298 01c4 5A61     		str	r2, [r3, #20]
 299              		.loc 1 315 0
 300 01c6 019B     		ldr	r3, [sp, #4]
 301 01c8 1B68     		ldr	r3, [r3]
 302 01ca 284A     		ldr	r2, .L12
 303 01cc 1A61     		str	r2, [r3, #16]
 304              		.loc 1 316 0
 305 01ce 019B     		ldr	r3, [sp, #4]
 306 01d0 1B68     		ldr	r3, [r3]
 307 01d2 0022     		movs	r2, #0
 308 01d4 DA61     		str	r2, [r3, #28]
 309              		.loc 1 317 0
 310 01d6 019B     		ldr	r3, [sp, #4]
 311 01d8 1B68     		ldr	r3, [r3]
 312 01da 0022     		movs	r2, #0
 313 01dc 1A62     		str	r2, [r3, #32]
 314              		.loc 1 318 0
 315 01de 019B     		ldr	r3, [sp, #4]
 316 01e0 1B68     		ldr	r3, [r3]
 317 01e2 0022     		movs	r2, #0
 318 01e4 DA62     		str	r2, [r3, #44]
 319              		.loc 1 319 0
 320 01e6 019B     		ldr	r3, [sp, #4]
 321 01e8 1B68     		ldr	r3, [r3]
 322 01ea 0022     		movs	r2, #0
 323 01ec DA63     		str	r2, [r3, #60]
 324              		.loc 1 320 0
 325 01ee 019B     		ldr	r3, [sp, #4]
 326 01f0 1B68     		ldr	r3, [r3]
 327 01f2 0022     		movs	r2, #0
 328 01f4 5A64     		str	r2, [r3, #68]
 329              		.loc 1 321 0
 330 01f6 019B     		ldr	r3, [sp, #4]
 331 01f8 1B68     		ldr	r3, [r3]
 332 01fa 0022     		movs	r2, #0
 333 01fc 9A64     		str	r2, [r3, #72]
 334              		.loc 1 324 0
 335 01fe 019B     		ldr	r3, [sp, #4]
 336 0200 1B68     		ldr	r3, [r3]
 337 0202 0022     		movs	r2, #0
 338 0204 DA60     		str	r2, [r3, #12]
 339              		.loc 1 327 0
 340 0206 019B     		ldr	r3, [sp, #4]
ARM GAS  /tmp/ccHRl1iB.s 			page 7


 341 0208 1B68     		ldr	r3, [r3]
 342 020a 0022     		movs	r2, #0
 343 020c 1A64     		str	r2, [r3, #64]
 344              		.loc 1 330 0
 345 020e 019B     		ldr	r3, [sp, #4]
 346 0210 1B68     		ldr	r3, [r3]
 347 0212 0022     		movs	r2, #0
 348 0214 DA64     		str	r2, [r3, #76]
 349              		.loc 1 333 0
 350 0216 019B     		ldr	r3, [sp, #4]
 351 0218 1B68     		ldr	r3, [r3]
 352 021a 9B68     		ldr	r3, [r3, #8]
 353 021c 03F02003 		and	r3, r3, #32
 354 0220 002B     		cmp	r3, #0
 355 0222 0FD1     		bne	.L11
 356              		.loc 1 335 0
 357 0224 0198     		ldr	r0, [sp, #4]
 358 0226 FFF7FEFF 		bl	HAL_RTC_WaitForSynchro
 359 022a 0346     		mov	r3, r0
 360 022c 002B     		cmp	r3, #0
 361 022e 09D0     		beq	.L11
 362              		.loc 1 338 0
 363 0230 019B     		ldr	r3, [sp, #4]
 364 0232 1B68     		ldr	r3, [r3]
 365 0234 FF22     		movs	r2, #255
 366 0236 5A62     		str	r2, [r3, #36]
 367              		.loc 1 340 0
 368 0238 019B     		ldr	r3, [sp, #4]
 369 023a 0422     		movs	r2, #4
 370 023c 83F82120 		strb	r2, [r3, #33]
 371              		.loc 1 342 0
 372 0240 0123     		movs	r3, #1
 373 0242 0FE0     		b	.L8
 374              	.L11:
 375              		.loc 1 348 0
 376 0244 019B     		ldr	r3, [sp, #4]
 377 0246 1B68     		ldr	r3, [r3]
 378 0248 FF22     		movs	r2, #255
 379 024a 5A62     		str	r2, [r3, #36]
 380              		.loc 1 351 0
 381 024c 0198     		ldr	r0, [sp, #4]
 382 024e FFF7FEFF 		bl	HAL_RTC_MspDeInit
 383              		.loc 1 353 0
 384 0252 019B     		ldr	r3, [sp, #4]
 385 0254 0022     		movs	r2, #0
 386 0256 83F82120 		strb	r2, [r3, #33]
 387              		.loc 1 356 0
 388 025a 019B     		ldr	r3, [sp, #4]
 389 025c 0022     		movs	r2, #0
 390 025e 83F82020 		strb	r2, [r3, #32]
 391              		.loc 1 358 0
 392 0262 0023     		movs	r3, #0
 393              	.L8:
 394              		.loc 1 359 0
 395 0264 1846     		mov	r0, r3
 396 0266 05B0     		add	sp, sp, #20
 397              		@ sp needed
ARM GAS  /tmp/ccHRl1iB.s 			page 8


 398 0268 5DF804FB 		ldr	pc, [sp], #4
 399              	.L13:
 400              		.align	2
 401              	.L12:
 402 026c FF007F00 		.word	8323327
 403              		.cfi_endproc
 404              	.LFE126:
 405              		.size	HAL_RTC_DeInit, .-HAL_RTC_DeInit
 406              		.align	2
 407              		.p2align 4,,15
 408              		.weak	HAL_RTC_MspInit
 409              		.thumb
 410              		.thumb_func
 411              		.type	HAL_RTC_MspInit, %function
 412              	HAL_RTC_MspInit:
 413              	.LFB127:
 414              		.loc 1 367 0
 415              		.cfi_startproc
 416              		@ args = 0, pretend = 0, frame = 8
 417              		@ frame_needed = 0, uses_anonymous_args = 0
 418              		@ link register save eliminated.
 419 0270 82B0     		sub	sp, sp, #8
 420              		.cfi_def_cfa_offset 8
 421 0272 0190     		str	r0, [sp, #4]
 422              		.loc 1 374 0
 423 0274 02B0     		add	sp, sp, #8
 424              		@ sp needed
 425 0276 7047     		bx	lr
 426              		.cfi_endproc
 427              	.LFE127:
 428              		.size	HAL_RTC_MspInit, .-HAL_RTC_MspInit
 429              		.align	2
 430 0278 AFF30080 		.p2align 4,,15
 430      AFF30080 
 431              		.weak	HAL_RTC_MspDeInit
 432              		.thumb
 433              		.thumb_func
 434              		.type	HAL_RTC_MspDeInit, %function
 435              	HAL_RTC_MspDeInit:
 436              	.LFB128:
 437              		.loc 1 382 0
 438              		.cfi_startproc
 439              		@ args = 0, pretend = 0, frame = 8
 440              		@ frame_needed = 0, uses_anonymous_args = 0
 441              		@ link register save eliminated.
 442 0280 82B0     		sub	sp, sp, #8
 443              		.cfi_def_cfa_offset 8
 444 0282 0190     		str	r0, [sp, #4]
 445              		.loc 1 389 0
 446 0284 02B0     		add	sp, sp, #8
 447              		@ sp needed
 448 0286 7047     		bx	lr
 449              		.cfi_endproc
 450              	.LFE128:
 451              		.size	HAL_RTC_MspDeInit, .-HAL_RTC_MspDeInit
 452              		.align	2
 453 0288 AFF30080 		.p2align 4,,15
ARM GAS  /tmp/ccHRl1iB.s 			page 9


 453      AFF30080 
 454              		.global	HAL_RTC_SetTime
 455              		.thumb
 456              		.thumb_func
 457              		.type	HAL_RTC_SetTime, %function
 458              	HAL_RTC_SetTime:
 459              	.LFB129:
 460              		.loc 1 420 0
 461              		.cfi_startproc
 462              		@ args = 0, pretend = 0, frame = 24
 463              		@ frame_needed = 0, uses_anonymous_args = 0
 464 0290 10B5     		push	{r4, lr}
 465              		.cfi_def_cfa_offset 8
 466              		.cfi_offset 4, -8
 467              		.cfi_offset 14, -4
 468 0292 86B0     		sub	sp, sp, #24
 469              		.cfi_def_cfa_offset 32
 470 0294 0390     		str	r0, [sp, #12]
 471 0296 0291     		str	r1, [sp, #8]
 472 0298 0192     		str	r2, [sp, #4]
 473              		.loc 1 421 0
 474 029a 0023     		movs	r3, #0
 475 029c 0593     		str	r3, [sp, #20]
 476              		.loc 1 429 0
 477 029e 039B     		ldr	r3, [sp, #12]
 478 02a0 93F82030 		ldrb	r3, [r3, #32]	@ zero_extendqisi2
 479 02a4 012B     		cmp	r3, #1
 480 02a6 01D1     		bne	.L17
 481              		.loc 1 429 0 is_stmt 0 discriminator 1
 482 02a8 0223     		movs	r3, #2
 483 02aa BAE0     		b	.L18
 484              	.L17:
 485              		.loc 1 429 0 discriminator 2
 486 02ac 039B     		ldr	r3, [sp, #12]
 487 02ae 0122     		movs	r2, #1
 488 02b0 83F82020 		strb	r2, [r3, #32]
 489              		.loc 1 431 0 is_stmt 1 discriminator 2
 490 02b4 039B     		ldr	r3, [sp, #12]
 491 02b6 0222     		movs	r2, #2
 492 02b8 83F82120 		strb	r2, [r3, #33]
 493              		.loc 1 433 0 discriminator 2
 494 02bc 019B     		ldr	r3, [sp, #4]
 495 02be 002B     		cmp	r3, #0
 496 02c0 26D1     		bne	.L19
 497              		.loc 1 435 0
 498 02c2 039B     		ldr	r3, [sp, #12]
 499 02c4 1B68     		ldr	r3, [r3]
 500 02c6 9B68     		ldr	r3, [r3, #8]
 501 02c8 03F04003 		and	r3, r3, #64
 502 02cc 002B     		cmp	r3, #0
 503 02ce 02D1     		bne	.L20
 504              		.loc 1 442 0
 505 02d0 029B     		ldr	r3, [sp, #8]
 506 02d2 0022     		movs	r2, #0
 507 02d4 DA70     		strb	r2, [r3, #3]
 508              	.L20:
 509              		.loc 1 448 0 discriminator 1
ARM GAS  /tmp/ccHRl1iB.s 			page 10


 510 02d6 029B     		ldr	r3, [sp, #8]
 511 02d8 1B78     		ldrb	r3, [r3]	@ zero_extendqisi2
 512 02da 1846     		mov	r0, r3
 513 02dc FFF7FEFF 		bl	RTC_ByteToBcd2
 514 02e0 0346     		mov	r3, r0
 515 02e2 1C04     		lsls	r4, r3, #16
 516              		.loc 1 449 0 discriminator 1
 517 02e4 029B     		ldr	r3, [sp, #8]
 518 02e6 5B78     		ldrb	r3, [r3, #1]	@ zero_extendqisi2
 519 02e8 1846     		mov	r0, r3
 520 02ea FFF7FEFF 		bl	RTC_ByteToBcd2
 521 02ee 0346     		mov	r3, r0
 522 02f0 1B02     		lsls	r3, r3, #8
 523              		.loc 1 448 0 discriminator 1
 524 02f2 1C43     		orrs	r4, r4, r3
 525              		.loc 1 450 0 discriminator 1
 526 02f4 029B     		ldr	r3, [sp, #8]
 527 02f6 9B78     		ldrb	r3, [r3, #2]	@ zero_extendqisi2
 528 02f8 1846     		mov	r0, r3
 529 02fa FFF7FEFF 		bl	RTC_ByteToBcd2
 530 02fe 0346     		mov	r3, r0
 531              		.loc 1 449 0 discriminator 1
 532 0300 44EA0302 		orr	r2, r4, r3
 533              		.loc 1 451 0 discriminator 1
 534 0304 029B     		ldr	r3, [sp, #8]
 535 0306 DB78     		ldrb	r3, [r3, #3]	@ zero_extendqisi2
 536 0308 1B04     		lsls	r3, r3, #16
 537              		.loc 1 448 0 discriminator 1
 538 030a 1343     		orrs	r3, r3, r2
 539 030c 0593     		str	r3, [sp, #20]
 540 030e 20E0     		b	.L21
 541              	.L19:
 542              		.loc 1 455 0
 543 0310 039B     		ldr	r3, [sp, #12]
 544 0312 1B68     		ldr	r3, [r3]
 545 0314 9B68     		ldr	r3, [r3, #8]
 546 0316 03F04003 		and	r3, r3, #64
 547 031a 002B     		cmp	r3, #0
 548 031c 07D0     		beq	.L22
 549              		.loc 1 457 0
 550 031e 029B     		ldr	r3, [sp, #8]
 551 0320 1B78     		ldrb	r3, [r3]	@ zero_extendqisi2
 552 0322 1846     		mov	r0, r3
 553 0324 FFF7FEFF 		bl	RTC_Bcd2ToByte
 554 0328 0346     		mov	r3, r0
 555 032a 0593     		str	r3, [sp, #20]
 556 032c 02E0     		b	.L23
 557              	.L22:
 558              		.loc 1 463 0
 559 032e 029B     		ldr	r3, [sp, #8]
 560 0330 0022     		movs	r2, #0
 561 0332 DA70     		strb	r2, [r3, #3]
 562              	.L23:
 563              		.loc 1 468 0
 564 0334 029B     		ldr	r3, [sp, #8]
 565 0336 1B78     		ldrb	r3, [r3]	@ zero_extendqisi2
 566 0338 1A04     		lsls	r2, r3, #16
ARM GAS  /tmp/ccHRl1iB.s 			page 11


 567              		.loc 1 469 0
 568 033a 029B     		ldr	r3, [sp, #8]
 569 033c 5B78     		ldrb	r3, [r3, #1]	@ zero_extendqisi2
 570 033e 1B02     		lsls	r3, r3, #8
 571              		.loc 1 468 0
 572 0340 1A43     		orrs	r2, r2, r3
 573              		.loc 1 470 0
 574 0342 029B     		ldr	r3, [sp, #8]
 575 0344 9B78     		ldrb	r3, [r3, #2]	@ zero_extendqisi2
 576              		.loc 1 469 0
 577 0346 1A43     		orrs	r2, r2, r3
 578              		.loc 1 471 0
 579 0348 029B     		ldr	r3, [sp, #8]
 580 034a DB78     		ldrb	r3, [r3, #3]	@ zero_extendqisi2
 581 034c 1B04     		lsls	r3, r3, #16
 582              		.loc 1 468 0
 583 034e 1343     		orrs	r3, r3, r2
 584 0350 0593     		str	r3, [sp, #20]
 585              	.L21:
 586              		.loc 1 475 0
 587 0352 039B     		ldr	r3, [sp, #12]
 588 0354 1B68     		ldr	r3, [r3]
 589 0356 CA22     		movs	r2, #202
 590 0358 5A62     		str	r2, [r3, #36]
 591 035a 039B     		ldr	r3, [sp, #12]
 592 035c 1B68     		ldr	r3, [r3]
 593 035e 5322     		movs	r2, #83
 594 0360 5A62     		str	r2, [r3, #36]
 595              		.loc 1 478 0
 596 0362 0398     		ldr	r0, [sp, #12]
 597 0364 FFF7FEFF 		bl	RTC_EnterInitMode
 598 0368 0346     		mov	r3, r0
 599 036a 002B     		cmp	r3, #0
 600 036c 0DD0     		beq	.L24
 601              		.loc 1 481 0
 602 036e 039B     		ldr	r3, [sp, #12]
 603 0370 1B68     		ldr	r3, [r3]
 604 0372 FF22     		movs	r2, #255
 605 0374 5A62     		str	r2, [r3, #36]
 606              		.loc 1 484 0
 607 0376 039B     		ldr	r3, [sp, #12]
 608 0378 0422     		movs	r2, #4
 609 037a 83F82120 		strb	r2, [r3, #33]
 610              		.loc 1 487 0
 611 037e 039B     		ldr	r3, [sp, #12]
 612 0380 0022     		movs	r2, #0
 613 0382 83F82020 		strb	r2, [r3, #32]
 614              		.loc 1 489 0
 615 0386 0123     		movs	r3, #1
 616 0388 4BE0     		b	.L18
 617              	.L24:
 618              		.loc 1 494 0
 619 038a 039B     		ldr	r3, [sp, #12]
 620 038c 1A68     		ldr	r2, [r3]
 621 038e 059B     		ldr	r3, [sp, #20]
 622 0390 03F07F33 		and	r3, r3, #2139062143
 623 0394 23F0FE43 		bic	r3, r3, #2130706432
ARM GAS  /tmp/ccHRl1iB.s 			page 12


 624 0398 1360     		str	r3, [r2]
 625              		.loc 1 497 0
 626 039a 039B     		ldr	r3, [sp, #12]
 627 039c 1B68     		ldr	r3, [r3]
 628 039e 039A     		ldr	r2, [sp, #12]
 629 03a0 1268     		ldr	r2, [r2]
 630 03a2 9268     		ldr	r2, [r2, #8]
 631 03a4 22F48022 		bic	r2, r2, #262144
 632 03a8 9A60     		str	r2, [r3, #8]
 633              		.loc 1 500 0
 634 03aa 039B     		ldr	r3, [sp, #12]
 635 03ac 1B68     		ldr	r3, [r3]
 636 03ae 039A     		ldr	r2, [sp, #12]
 637 03b0 1268     		ldr	r2, [r2]
 638 03b2 9168     		ldr	r1, [r2, #8]
 639 03b4 029A     		ldr	r2, [sp, #8]
 640 03b6 D068     		ldr	r0, [r2, #12]
 641 03b8 029A     		ldr	r2, [sp, #8]
 642 03ba 1269     		ldr	r2, [r2, #16]
 643 03bc 0243     		orrs	r2, r2, r0
 644 03be 0A43     		orrs	r2, r2, r1
 645 03c0 9A60     		str	r2, [r3, #8]
 646              		.loc 1 503 0
 647 03c2 039B     		ldr	r3, [sp, #12]
 648 03c4 1B68     		ldr	r3, [r3]
 649 03c6 039A     		ldr	r2, [sp, #12]
 650 03c8 1268     		ldr	r2, [r2]
 651 03ca D268     		ldr	r2, [r2, #12]
 652 03cc 22F08002 		bic	r2, r2, #128
 653 03d0 DA60     		str	r2, [r3, #12]
 654              		.loc 1 506 0
 655 03d2 039B     		ldr	r3, [sp, #12]
 656 03d4 1B68     		ldr	r3, [r3]
 657 03d6 9B68     		ldr	r3, [r3, #8]
 658 03d8 03F02003 		and	r3, r3, #32
 659 03dc 002B     		cmp	r3, #0
 660 03de 13D1     		bne	.L25
 661              		.loc 1 508 0
 662 03e0 0398     		ldr	r0, [sp, #12]
 663 03e2 FFF7FEFF 		bl	HAL_RTC_WaitForSynchro
 664 03e6 0346     		mov	r3, r0
 665 03e8 002B     		cmp	r3, #0
 666 03ea 0DD0     		beq	.L25
 667              		.loc 1 511 0
 668 03ec 039B     		ldr	r3, [sp, #12]
 669 03ee 1B68     		ldr	r3, [r3]
 670 03f0 FF22     		movs	r2, #255
 671 03f2 5A62     		str	r2, [r3, #36]
 672              		.loc 1 513 0
 673 03f4 039B     		ldr	r3, [sp, #12]
 674 03f6 0422     		movs	r2, #4
 675 03f8 83F82120 		strb	r2, [r3, #33]
 676              		.loc 1 516 0
 677 03fc 039B     		ldr	r3, [sp, #12]
 678 03fe 0022     		movs	r2, #0
 679 0400 83F82020 		strb	r2, [r3, #32]
 680              		.loc 1 518 0
ARM GAS  /tmp/ccHRl1iB.s 			page 13


 681 0404 0123     		movs	r3, #1
 682 0406 0CE0     		b	.L18
 683              	.L25:
 684              		.loc 1 523 0
 685 0408 039B     		ldr	r3, [sp, #12]
 686 040a 1B68     		ldr	r3, [r3]
 687 040c FF22     		movs	r2, #255
 688 040e 5A62     		str	r2, [r3, #36]
 689              		.loc 1 525 0
 690 0410 039B     		ldr	r3, [sp, #12]
 691 0412 0122     		movs	r2, #1
 692 0414 83F82120 		strb	r2, [r3, #33]
 693              		.loc 1 527 0
 694 0418 039B     		ldr	r3, [sp, #12]
 695 041a 0022     		movs	r2, #0
 696 041c 83F82020 		strb	r2, [r3, #32]
 697              		.loc 1 529 0
 698 0420 0023     		movs	r3, #0
 699              	.L18:
 700              		.loc 1 531 0
 701 0422 1846     		mov	r0, r3
 702 0424 06B0     		add	sp, sp, #24
 703              		@ sp needed
 704 0426 10BD     		pop	{r4, pc}
 705              		.cfi_endproc
 706              	.LFE129:
 707              		.size	HAL_RTC_SetTime, .-HAL_RTC_SetTime
 708              		.align	2
 709 0428 AFF30080 		.p2align 4,,15
 709      AFF30080 
 710              		.global	HAL_RTC_GetTime
 711              		.thumb
 712              		.thumb_func
 713              		.type	HAL_RTC_GetTime, %function
 714              	HAL_RTC_GetTime:
 715              	.LFB130:
 716              		.loc 1 555 0
 717              		.cfi_startproc
 718              		@ args = 0, pretend = 0, frame = 24
 719              		@ frame_needed = 0, uses_anonymous_args = 0
 720 0430 00B5     		push	{lr}
 721              		.cfi_def_cfa_offset 4
 722              		.cfi_offset 14, -4
 723 0432 87B0     		sub	sp, sp, #28
 724              		.cfi_def_cfa_offset 32
 725 0434 0390     		str	r0, [sp, #12]
 726 0436 0291     		str	r1, [sp, #8]
 727 0438 0192     		str	r2, [sp, #4]
 728              		.loc 1 556 0
 729 043a 0023     		movs	r3, #0
 730 043c 0593     		str	r3, [sp, #20]
 731              		.loc 1 562 0
 732 043e 039B     		ldr	r3, [sp, #12]
 733 0440 1B68     		ldr	r3, [r3]
 734 0442 9A6A     		ldr	r2, [r3, #40]
 735 0444 029B     		ldr	r3, [sp, #8]
 736 0446 5A60     		str	r2, [r3, #4]
ARM GAS  /tmp/ccHRl1iB.s 			page 14


 737              		.loc 1 565 0
 738 0448 039B     		ldr	r3, [sp, #12]
 739 044a 1B68     		ldr	r3, [r3]
 740 044c 1B69     		ldr	r3, [r3, #16]
 741 044e C3F30E02 		ubfx	r2, r3, #0, #15
 742 0452 029B     		ldr	r3, [sp, #8]
 743 0454 9A60     		str	r2, [r3, #8]
 744              		.loc 1 568 0
 745 0456 039B     		ldr	r3, [sp, #12]
 746 0458 1B68     		ldr	r3, [r3]
 747 045a 1B68     		ldr	r3, [r3]
 748 045c 03F07F33 		and	r3, r3, #2139062143
 749 0460 23F0FE43 		bic	r3, r3, #2130706432
 750 0464 0593     		str	r3, [sp, #20]
 751              		.loc 1 571 0
 752 0466 059B     		ldr	r3, [sp, #20]
 753 0468 03F47C13 		and	r3, r3, #4128768
 754 046c 1B0C     		lsrs	r3, r3, #16
 755 046e DAB2     		uxtb	r2, r3
 756 0470 029B     		ldr	r3, [sp, #8]
 757 0472 1A70     		strb	r2, [r3]
 758              		.loc 1 572 0
 759 0474 059B     		ldr	r3, [sp, #20]
 760 0476 03F4FE43 		and	r3, r3, #32512
 761 047a 1B0A     		lsrs	r3, r3, #8
 762 047c DAB2     		uxtb	r2, r3
 763 047e 029B     		ldr	r3, [sp, #8]
 764 0480 5A70     		strb	r2, [r3, #1]
 765              		.loc 1 573 0
 766 0482 059B     		ldr	r3, [sp, #20]
 767 0484 DBB2     		uxtb	r3, r3
 768 0486 03F07F03 		and	r3, r3, #127
 769 048a DAB2     		uxtb	r2, r3
 770 048c 029B     		ldr	r3, [sp, #8]
 771 048e 9A70     		strb	r2, [r3, #2]
 772              		.loc 1 574 0
 773 0490 059B     		ldr	r3, [sp, #20]
 774 0492 03F48003 		and	r3, r3, #4194304
 775 0496 1B0C     		lsrs	r3, r3, #16
 776 0498 DAB2     		uxtb	r2, r3
 777 049a 029B     		ldr	r3, [sp, #8]
 778 049c DA70     		strb	r2, [r3, #3]
 779              		.loc 1 577 0
 780 049e 019B     		ldr	r3, [sp, #4]
 781 04a0 002B     		cmp	r3, #0
 782 04a2 1AD1     		bne	.L27
 783              		.loc 1 580 0
 784 04a4 029B     		ldr	r3, [sp, #8]
 785 04a6 1B78     		ldrb	r3, [r3]	@ zero_extendqisi2
 786 04a8 1846     		mov	r0, r3
 787 04aa FFF7FEFF 		bl	RTC_Bcd2ToByte
 788 04ae 0346     		mov	r3, r0
 789 04b0 1A46     		mov	r2, r3
 790 04b2 029B     		ldr	r3, [sp, #8]
 791 04b4 1A70     		strb	r2, [r3]
 792              		.loc 1 581 0
 793 04b6 029B     		ldr	r3, [sp, #8]
ARM GAS  /tmp/ccHRl1iB.s 			page 15


 794 04b8 5B78     		ldrb	r3, [r3, #1]	@ zero_extendqisi2
 795 04ba 1846     		mov	r0, r3
 796 04bc FFF7FEFF 		bl	RTC_Bcd2ToByte
 797 04c0 0346     		mov	r3, r0
 798 04c2 1A46     		mov	r2, r3
 799 04c4 029B     		ldr	r3, [sp, #8]
 800 04c6 5A70     		strb	r2, [r3, #1]
 801              		.loc 1 582 0
 802 04c8 029B     		ldr	r3, [sp, #8]
 803 04ca 9B78     		ldrb	r3, [r3, #2]	@ zero_extendqisi2
 804 04cc 1846     		mov	r0, r3
 805 04ce FFF7FEFF 		bl	RTC_Bcd2ToByte
 806 04d2 0346     		mov	r3, r0
 807 04d4 1A46     		mov	r2, r3
 808 04d6 029B     		ldr	r3, [sp, #8]
 809 04d8 9A70     		strb	r2, [r3, #2]
 810              	.L27:
 811              		.loc 1 585 0
 812 04da 0023     		movs	r3, #0
 813              		.loc 1 586 0
 814 04dc 1846     		mov	r0, r3
 815 04de 07B0     		add	sp, sp, #28
 816              		@ sp needed
 817 04e0 5DF804FB 		ldr	pc, [sp], #4
 818              		.cfi_endproc
 819              	.LFE130:
 820              		.size	HAL_RTC_GetTime, .-HAL_RTC_GetTime
 821              		.align	2
 822 04e4 AFF30080 		.p2align 4,,15
 822      AFF30080 
 822      AFF30080 
 823              		.global	HAL_RTC_SetDate
 824              		.thumb
 825              		.thumb_func
 826              		.type	HAL_RTC_SetDate, %function
 827              	HAL_RTC_SetDate:
 828              	.LFB131:
 829              		.loc 1 599 0
 830              		.cfi_startproc
 831              		@ args = 0, pretend = 0, frame = 24
 832              		@ frame_needed = 0, uses_anonymous_args = 0
 833 04f0 10B5     		push	{r4, lr}
 834              		.cfi_def_cfa_offset 8
 835              		.cfi_offset 4, -8
 836              		.cfi_offset 14, -4
 837 04f2 86B0     		sub	sp, sp, #24
 838              		.cfi_def_cfa_offset 32
 839 04f4 0390     		str	r0, [sp, #12]
 840 04f6 0291     		str	r1, [sp, #8]
 841 04f8 0192     		str	r2, [sp, #4]
 842              		.loc 1 600 0
 843 04fa 0023     		movs	r3, #0
 844 04fc 0593     		str	r3, [sp, #20]
 845              		.loc 1 606 0
 846 04fe 039B     		ldr	r3, [sp, #12]
 847 0500 93F82030 		ldrb	r3, [r3, #32]	@ zero_extendqisi2
 848 0504 012B     		cmp	r3, #1
ARM GAS  /tmp/ccHRl1iB.s 			page 16


 849 0506 01D1     		bne	.L30
 850              		.loc 1 606 0 is_stmt 0 discriminator 1
 851 0508 0223     		movs	r3, #2
 852 050a AAE0     		b	.L31
 853              	.L30:
 854              		.loc 1 606 0 discriminator 2
 855 050c 039B     		ldr	r3, [sp, #12]
 856 050e 0122     		movs	r2, #1
 857 0510 83F82020 		strb	r2, [r3, #32]
 858              		.loc 1 608 0 is_stmt 1 discriminator 2
 859 0514 039B     		ldr	r3, [sp, #12]
 860 0516 0222     		movs	r2, #2
 861 0518 83F82120 		strb	r2, [r3, #33]
 862              		.loc 1 610 0 discriminator 2
 863 051c 019B     		ldr	r3, [sp, #4]
 864 051e 002B     		cmp	r3, #0
 865 0520 0ED1     		bne	.L32
 866              		.loc 1 610 0 is_stmt 0 discriminator 1
 867 0522 029B     		ldr	r3, [sp, #8]
 868 0524 5B78     		ldrb	r3, [r3, #1]	@ zero_extendqisi2
 869 0526 03F01003 		and	r3, r3, #16
 870 052a 002B     		cmp	r3, #0
 871 052c 08D0     		beq	.L32
 872              		.loc 1 612 0 is_stmt 1
 873 052e 029B     		ldr	r3, [sp, #8]
 874 0530 5B78     		ldrb	r3, [r3, #1]	@ zero_extendqisi2
 875 0532 23F01003 		bic	r3, r3, #16
 876 0536 DBB2     		uxtb	r3, r3
 877 0538 0A33     		adds	r3, r3, #10
 878 053a DAB2     		uxtb	r2, r3
 879 053c 029B     		ldr	r3, [sp, #8]
 880 053e 5A70     		strb	r2, [r3, #1]
 881              	.L32:
 882              		.loc 1 617 0
 883 0540 019B     		ldr	r3, [sp, #4]
 884 0542 002B     		cmp	r3, #0
 885 0544 1CD1     		bne	.L33
 886              		.loc 1 623 0
 887 0546 029B     		ldr	r3, [sp, #8]
 888 0548 DB78     		ldrb	r3, [r3, #3]	@ zero_extendqisi2
 889 054a 1846     		mov	r0, r3
 890 054c FFF7FEFF 		bl	RTC_ByteToBcd2
 891 0550 0346     		mov	r3, r0
 892 0552 1C04     		lsls	r4, r3, #16
 893              		.loc 1 624 0
 894 0554 029B     		ldr	r3, [sp, #8]
 895 0556 5B78     		ldrb	r3, [r3, #1]	@ zero_extendqisi2
 896 0558 1846     		mov	r0, r3
 897 055a FFF7FEFF 		bl	RTC_ByteToBcd2
 898 055e 0346     		mov	r3, r0
 899 0560 1B02     		lsls	r3, r3, #8
 900              		.loc 1 623 0
 901 0562 1C43     		orrs	r4, r4, r3
 902              		.loc 1 625 0
 903 0564 029B     		ldr	r3, [sp, #8]
 904 0566 9B78     		ldrb	r3, [r3, #2]	@ zero_extendqisi2
 905 0568 1846     		mov	r0, r3
ARM GAS  /tmp/ccHRl1iB.s 			page 17


 906 056a FFF7FEFF 		bl	RTC_ByteToBcd2
 907 056e 0346     		mov	r3, r0
 908              		.loc 1 624 0
 909 0570 44EA0302 		orr	r2, r4, r3
 910              		.loc 1 626 0
 911 0574 029B     		ldr	r3, [sp, #8]
 912 0576 1B78     		ldrb	r3, [r3]	@ zero_extendqisi2
 913 0578 5B03     		lsls	r3, r3, #13
 914              		.loc 1 623 0
 915 057a 1343     		orrs	r3, r3, r2
 916 057c 0593     		str	r3, [sp, #20]
 917 057e 1CE0     		b	.L34
 918              	.L33:
 919              		.loc 1 631 0
 920 0580 029B     		ldr	r3, [sp, #8]
 921 0582 5B78     		ldrb	r3, [r3, #1]	@ zero_extendqisi2
 922 0584 1846     		mov	r0, r3
 923 0586 FFF7FEFF 		bl	RTC_Bcd2ToByte
 924 058a 0346     		mov	r3, r0
 925 058c 0593     		str	r3, [sp, #20]
 926              		.loc 1 633 0
 927 058e 029B     		ldr	r3, [sp, #8]
 928 0590 9B78     		ldrb	r3, [r3, #2]	@ zero_extendqisi2
 929 0592 1846     		mov	r0, r3
 930 0594 FFF7FEFF 		bl	RTC_Bcd2ToByte
 931 0598 0346     		mov	r3, r0
 932 059a 0593     		str	r3, [sp, #20]
 933              		.loc 1 636 0
 934 059c 029B     		ldr	r3, [sp, #8]
 935 059e DB78     		ldrb	r3, [r3, #3]	@ zero_extendqisi2
 936 05a0 1A04     		lsls	r2, r3, #16
 937              		.loc 1 637 0
 938 05a2 029B     		ldr	r3, [sp, #8]
 939 05a4 5B78     		ldrb	r3, [r3, #1]	@ zero_extendqisi2
 940 05a6 1B02     		lsls	r3, r3, #8
 941              		.loc 1 636 0
 942 05a8 1A43     		orrs	r2, r2, r3
 943              		.loc 1 638 0
 944 05aa 029B     		ldr	r3, [sp, #8]
 945 05ac 9B78     		ldrb	r3, [r3, #2]	@ zero_extendqisi2
 946              		.loc 1 637 0
 947 05ae 1A43     		orrs	r2, r2, r3
 948              		.loc 1 639 0
 949 05b0 029B     		ldr	r3, [sp, #8]
 950 05b2 1B78     		ldrb	r3, [r3]	@ zero_extendqisi2
 951 05b4 5B03     		lsls	r3, r3, #13
 952              		.loc 1 636 0
 953 05b6 1343     		orrs	r3, r3, r2
 954 05b8 0593     		str	r3, [sp, #20]
 955              	.L34:
 956              		.loc 1 643 0
 957 05ba 039B     		ldr	r3, [sp, #12]
 958 05bc 1B68     		ldr	r3, [r3]
 959 05be CA22     		movs	r2, #202
 960 05c0 5A62     		str	r2, [r3, #36]
 961 05c2 039B     		ldr	r3, [sp, #12]
 962 05c4 1B68     		ldr	r3, [r3]
ARM GAS  /tmp/ccHRl1iB.s 			page 18


 963 05c6 5322     		movs	r2, #83
 964 05c8 5A62     		str	r2, [r3, #36]
 965              		.loc 1 646 0
 966 05ca 0398     		ldr	r0, [sp, #12]
 967 05cc FFF7FEFF 		bl	RTC_EnterInitMode
 968 05d0 0346     		mov	r3, r0
 969 05d2 002B     		cmp	r3, #0
 970 05d4 0DD0     		beq	.L35
 971              		.loc 1 649 0
 972 05d6 039B     		ldr	r3, [sp, #12]
 973 05d8 1B68     		ldr	r3, [r3]
 974 05da FF22     		movs	r2, #255
 975 05dc 5A62     		str	r2, [r3, #36]
 976              		.loc 1 652 0
 977 05de 039B     		ldr	r3, [sp, #12]
 978 05e0 0422     		movs	r2, #4
 979 05e2 83F82120 		strb	r2, [r3, #33]
 980              		.loc 1 655 0
 981 05e6 039B     		ldr	r3, [sp, #12]
 982 05e8 0022     		movs	r2, #0
 983 05ea 83F82020 		strb	r2, [r3, #32]
 984              		.loc 1 657 0
 985 05ee 0123     		movs	r3, #1
 986 05f0 37E0     		b	.L31
 987              	.L35:
 988              		.loc 1 662 0
 989 05f2 039B     		ldr	r3, [sp, #12]
 990 05f4 1A68     		ldr	r2, [r3]
 991 05f6 059B     		ldr	r3, [sp, #20]
 992 05f8 23F07F43 		bic	r3, r3, #-16777216
 993 05fc 23F0C003 		bic	r3, r3, #192
 994 0600 5360     		str	r3, [r2, #4]
 995              		.loc 1 665 0
 996 0602 039B     		ldr	r3, [sp, #12]
 997 0604 1B68     		ldr	r3, [r3]
 998 0606 039A     		ldr	r2, [sp, #12]
 999 0608 1268     		ldr	r2, [r2]
 1000 060a D268     		ldr	r2, [r2, #12]
 1001 060c 22F08002 		bic	r2, r2, #128
 1002 0610 DA60     		str	r2, [r3, #12]
 1003              		.loc 1 668 0
 1004 0612 039B     		ldr	r3, [sp, #12]
 1005 0614 1B68     		ldr	r3, [r3]
 1006 0616 9B68     		ldr	r3, [r3, #8]
 1007 0618 03F02003 		and	r3, r3, #32
 1008 061c 002B     		cmp	r3, #0
 1009 061e 13D1     		bne	.L36
 1010              		.loc 1 670 0
 1011 0620 0398     		ldr	r0, [sp, #12]
 1012 0622 FFF7FEFF 		bl	HAL_RTC_WaitForSynchro
 1013 0626 0346     		mov	r3, r0
 1014 0628 002B     		cmp	r3, #0
 1015 062a 0DD0     		beq	.L36
 1016              		.loc 1 673 0
 1017 062c 039B     		ldr	r3, [sp, #12]
 1018 062e 1B68     		ldr	r3, [r3]
 1019 0630 FF22     		movs	r2, #255
ARM GAS  /tmp/ccHRl1iB.s 			page 19


 1020 0632 5A62     		str	r2, [r3, #36]
 1021              		.loc 1 675 0
 1022 0634 039B     		ldr	r3, [sp, #12]
 1023 0636 0422     		movs	r2, #4
 1024 0638 83F82120 		strb	r2, [r3, #33]
 1025              		.loc 1 678 0
 1026 063c 039B     		ldr	r3, [sp, #12]
 1027 063e 0022     		movs	r2, #0
 1028 0640 83F82020 		strb	r2, [r3, #32]
 1029              		.loc 1 680 0
 1030 0644 0123     		movs	r3, #1
 1031 0646 0CE0     		b	.L31
 1032              	.L36:
 1033              		.loc 1 685 0
 1034 0648 039B     		ldr	r3, [sp, #12]
 1035 064a 1B68     		ldr	r3, [r3]
 1036 064c FF22     		movs	r2, #255
 1037 064e 5A62     		str	r2, [r3, #36]
 1038              		.loc 1 687 0
 1039 0650 039B     		ldr	r3, [sp, #12]
 1040 0652 0122     		movs	r2, #1
 1041 0654 83F82120 		strb	r2, [r3, #33]
 1042              		.loc 1 690 0
 1043 0658 039B     		ldr	r3, [sp, #12]
 1044 065a 0022     		movs	r2, #0
 1045 065c 83F82020 		strb	r2, [r3, #32]
 1046              		.loc 1 692 0
 1047 0660 0023     		movs	r3, #0
 1048              	.L31:
 1049              		.loc 1 694 0
 1050 0662 1846     		mov	r0, r3
 1051 0664 06B0     		add	sp, sp, #24
 1052              		@ sp needed
 1053 0666 10BD     		pop	{r4, pc}
 1054              		.cfi_endproc
 1055              	.LFE131:
 1056              		.size	HAL_RTC_SetDate, .-HAL_RTC_SetDate
 1057              		.align	2
 1058 0668 AFF30080 		.p2align 4,,15
 1058      AFF30080 
 1059              		.global	HAL_RTC_GetDate
 1060              		.thumb
 1061              		.thumb_func
 1062              		.type	HAL_RTC_GetDate, %function
 1063              	HAL_RTC_GetDate:
 1064              	.LFB132:
 1065              		.loc 1 710 0
 1066              		.cfi_startproc
 1067              		@ args = 0, pretend = 0, frame = 24
 1068              		@ frame_needed = 0, uses_anonymous_args = 0
 1069 0670 00B5     		push	{lr}
 1070              		.cfi_def_cfa_offset 4
 1071              		.cfi_offset 14, -4
 1072 0672 87B0     		sub	sp, sp, #28
 1073              		.cfi_def_cfa_offset 32
 1074 0674 0390     		str	r0, [sp, #12]
 1075 0676 0291     		str	r1, [sp, #8]
ARM GAS  /tmp/ccHRl1iB.s 			page 20


 1076 0678 0192     		str	r2, [sp, #4]
 1077              		.loc 1 711 0
 1078 067a 0023     		movs	r3, #0
 1079 067c 0593     		str	r3, [sp, #20]
 1080              		.loc 1 717 0
 1081 067e 039B     		ldr	r3, [sp, #12]
 1082 0680 1B68     		ldr	r3, [r3]
 1083 0682 5B68     		ldr	r3, [r3, #4]
 1084 0684 23F07F43 		bic	r3, r3, #-16777216
 1085 0688 23F0C003 		bic	r3, r3, #192
 1086 068c 0593     		str	r3, [sp, #20]
 1087              		.loc 1 720 0
 1088 068e 059B     		ldr	r3, [sp, #20]
 1089 0690 03F47F03 		and	r3, r3, #16711680
 1090 0694 1B0C     		lsrs	r3, r3, #16
 1091 0696 DAB2     		uxtb	r2, r3
 1092 0698 029B     		ldr	r3, [sp, #8]
 1093 069a DA70     		strb	r2, [r3, #3]
 1094              		.loc 1 721 0
 1095 069c 059B     		ldr	r3, [sp, #20]
 1096 069e 03F4F853 		and	r3, r3, #7936
 1097 06a2 1B0A     		lsrs	r3, r3, #8
 1098 06a4 DAB2     		uxtb	r2, r3
 1099 06a6 029B     		ldr	r3, [sp, #8]
 1100 06a8 5A70     		strb	r2, [r3, #1]
 1101              		.loc 1 722 0
 1102 06aa 059B     		ldr	r3, [sp, #20]
 1103 06ac DBB2     		uxtb	r3, r3
 1104 06ae 03F03F03 		and	r3, r3, #63
 1105 06b2 DAB2     		uxtb	r2, r3
 1106 06b4 029B     		ldr	r3, [sp, #8]
 1107 06b6 9A70     		strb	r2, [r3, #2]
 1108              		.loc 1 723 0
 1109 06b8 059B     		ldr	r3, [sp, #20]
 1110 06ba 03F46043 		and	r3, r3, #57344
 1111 06be 5B0B     		lsrs	r3, r3, #13
 1112 06c0 DAB2     		uxtb	r2, r3
 1113 06c2 029B     		ldr	r3, [sp, #8]
 1114 06c4 1A70     		strb	r2, [r3]
 1115              		.loc 1 726 0
 1116 06c6 019B     		ldr	r3, [sp, #4]
 1117 06c8 002B     		cmp	r3, #0
 1118 06ca 1AD1     		bne	.L38
 1119              		.loc 1 729 0
 1120 06cc 029B     		ldr	r3, [sp, #8]
 1121 06ce DB78     		ldrb	r3, [r3, #3]	@ zero_extendqisi2
 1122 06d0 1846     		mov	r0, r3
 1123 06d2 FFF7FEFF 		bl	RTC_Bcd2ToByte
 1124 06d6 0346     		mov	r3, r0
 1125 06d8 1A46     		mov	r2, r3
 1126 06da 029B     		ldr	r3, [sp, #8]
 1127 06dc DA70     		strb	r2, [r3, #3]
 1128              		.loc 1 730 0
 1129 06de 029B     		ldr	r3, [sp, #8]
 1130 06e0 5B78     		ldrb	r3, [r3, #1]	@ zero_extendqisi2
 1131 06e2 1846     		mov	r0, r3
 1132 06e4 FFF7FEFF 		bl	RTC_Bcd2ToByte
ARM GAS  /tmp/ccHRl1iB.s 			page 21


 1133 06e8 0346     		mov	r3, r0
 1134 06ea 1A46     		mov	r2, r3
 1135 06ec 029B     		ldr	r3, [sp, #8]
 1136 06ee 5A70     		strb	r2, [r3, #1]
 1137              		.loc 1 731 0
 1138 06f0 029B     		ldr	r3, [sp, #8]
 1139 06f2 9B78     		ldrb	r3, [r3, #2]	@ zero_extendqisi2
 1140 06f4 1846     		mov	r0, r3
 1141 06f6 FFF7FEFF 		bl	RTC_Bcd2ToByte
 1142 06fa 0346     		mov	r3, r0
 1143 06fc 1A46     		mov	r2, r3
 1144 06fe 029B     		ldr	r3, [sp, #8]
 1145 0700 9A70     		strb	r2, [r3, #2]
 1146              	.L38:
 1147              		.loc 1 733 0
 1148 0702 0023     		movs	r3, #0
 1149              		.loc 1 734 0
 1150 0704 1846     		mov	r0, r3
 1151 0706 07B0     		add	sp, sp, #28
 1152              		@ sp needed
 1153 0708 5DF804FB 		ldr	pc, [sp], #4
 1154              		.cfi_endproc
 1155              	.LFE132:
 1156              		.size	HAL_RTC_GetDate, .-HAL_RTC_GetDate
 1157              		.align	2
 1158 070c AFF30080 		.p2align 4,,15
 1159              		.global	HAL_RTC_SetAlarm
 1160              		.thumb
 1161              		.thumb_func
 1162              		.type	HAL_RTC_SetAlarm, %function
 1163              	HAL_RTC_SetAlarm:
 1164              	.LFB133:
 1165              		.loc 1 764 0
 1166              		.cfi_startproc
 1167              		@ args = 0, pretend = 0, frame = 32
 1168              		@ frame_needed = 0, uses_anonymous_args = 0
 1169 0710 10B5     		push	{r4, lr}
 1170              		.cfi_def_cfa_offset 8
 1171              		.cfi_offset 4, -8
 1172              		.cfi_offset 14, -4
 1173 0712 88B0     		sub	sp, sp, #32
 1174              		.cfi_def_cfa_offset 40
 1175 0714 0390     		str	r0, [sp, #12]
 1176 0716 0291     		str	r1, [sp, #8]
 1177 0718 0192     		str	r2, [sp, #4]
 1178              		.loc 1 765 0
 1179 071a 0023     		movs	r3, #0
 1180 071c 0693     		str	r3, [sp, #24]
 1181              		.loc 1 766 0
 1182 071e 0023     		movs	r3, #0
 1183 0720 0793     		str	r3, [sp, #28]
 1184 0722 0023     		movs	r3, #0
 1185 0724 0593     		str	r3, [sp, #20]
 1186              		.loc 1 777 0
 1187 0726 039B     		ldr	r3, [sp, #12]
 1188 0728 93F82030 		ldrb	r3, [r3, #32]	@ zero_extendqisi2
 1189 072c 012B     		cmp	r3, #1
ARM GAS  /tmp/ccHRl1iB.s 			page 22


 1190 072e 01D1     		bne	.L41
 1191              		.loc 1 777 0 is_stmt 0 discriminator 1
 1192 0730 0223     		movs	r3, #2
 1193 0732 26E1     		b	.L42
 1194              	.L41:
 1195              		.loc 1 777 0 discriminator 2
 1196 0734 039B     		ldr	r3, [sp, #12]
 1197 0736 0122     		movs	r2, #1
 1198 0738 83F82020 		strb	r2, [r3, #32]
 1199              		.loc 1 779 0 is_stmt 1 discriminator 2
 1200 073c 039B     		ldr	r3, [sp, #12]
 1201 073e 0222     		movs	r2, #2
 1202 0740 83F82120 		strb	r2, [r3, #33]
 1203              		.loc 1 781 0 discriminator 2
 1204 0744 019B     		ldr	r3, [sp, #4]
 1205 0746 002B     		cmp	r3, #0
 1206 0748 37D1     		bne	.L43
 1207              		.loc 1 783 0
 1208 074a 039B     		ldr	r3, [sp, #12]
 1209 074c 1B68     		ldr	r3, [r3]
 1210 074e 9B68     		ldr	r3, [r3, #8]
 1211 0750 03F04003 		and	r3, r3, #64
 1212 0754 002B     		cmp	r3, #0
 1213 0756 02D1     		bne	.L44
 1214              		.loc 1 790 0
 1215 0758 029B     		ldr	r3, [sp, #8]
 1216 075a 0022     		movs	r2, #0
 1217 075c DA70     		strb	r2, [r3, #3]
 1218              	.L44:
 1219              		.loc 1 805 0
 1220 075e 029B     		ldr	r3, [sp, #8]
 1221 0760 1B78     		ldrb	r3, [r3]	@ zero_extendqisi2
 1222 0762 1846     		mov	r0, r3
 1223 0764 FFF7FEFF 		bl	RTC_ByteToBcd2
 1224 0768 0346     		mov	r3, r0
 1225 076a 1C04     		lsls	r4, r3, #16
 1226              		.loc 1 806 0
 1227 076c 029B     		ldr	r3, [sp, #8]
 1228 076e 5B78     		ldrb	r3, [r3, #1]	@ zero_extendqisi2
 1229 0770 1846     		mov	r0, r3
 1230 0772 FFF7FEFF 		bl	RTC_ByteToBcd2
 1231 0776 0346     		mov	r3, r0
 1232 0778 1B02     		lsls	r3, r3, #8
 1233              		.loc 1 805 0
 1234 077a 1C43     		orrs	r4, r4, r3
 1235              		.loc 1 807 0
 1236 077c 029B     		ldr	r3, [sp, #8]
 1237 077e 9B78     		ldrb	r3, [r3, #2]	@ zero_extendqisi2
 1238 0780 1846     		mov	r0, r3
 1239 0782 FFF7FEFF 		bl	RTC_ByteToBcd2
 1240 0786 0346     		mov	r3, r0
 1241              		.loc 1 806 0
 1242 0788 44EA0302 		orr	r2, r4, r3
 1243              		.loc 1 808 0
 1244 078c 029B     		ldr	r3, [sp, #8]
 1245 078e DB78     		ldrb	r3, [r3, #3]	@ zero_extendqisi2
 1246 0790 1B04     		lsls	r3, r3, #16
ARM GAS  /tmp/ccHRl1iB.s 			page 23


 1247              		.loc 1 807 0
 1248 0792 42EA0304 		orr	r4, r2, r3
 1249              		.loc 1 809 0
 1250 0796 029B     		ldr	r3, [sp, #8]
 1251 0798 93F82030 		ldrb	r3, [r3, #32]	@ zero_extendqisi2
 1252 079c 1846     		mov	r0, r3
 1253 079e FFF7FEFF 		bl	RTC_ByteToBcd2
 1254 07a2 0346     		mov	r3, r0
 1255 07a4 1B06     		lsls	r3, r3, #24
 1256              		.loc 1 808 0
 1257 07a6 44EA0302 		orr	r2, r4, r3
 1258              		.loc 1 810 0
 1259 07aa 029B     		ldr	r3, [sp, #8]
 1260 07ac DB69     		ldr	r3, [r3, #28]
 1261              		.loc 1 809 0
 1262 07ae 1A43     		orrs	r2, r2, r3
 1263              		.loc 1 811 0
 1264 07b0 029B     		ldr	r3, [sp, #8]
 1265 07b2 5B69     		ldr	r3, [r3, #20]
 1266              		.loc 1 805 0
 1267 07b4 1343     		orrs	r3, r3, r2
 1268 07b6 0793     		str	r3, [sp, #28]
 1269 07b8 40E0     		b	.L45
 1270              	.L43:
 1271              		.loc 1 815 0
 1272 07ba 039B     		ldr	r3, [sp, #12]
 1273 07bc 1B68     		ldr	r3, [r3]
 1274 07be 9B68     		ldr	r3, [r3, #8]
 1275 07c0 03F04003 		and	r3, r3, #64
 1276 07c4 002B     		cmp	r3, #0
 1277 07c6 07D0     		beq	.L46
 1278              		.loc 1 817 0
 1279 07c8 029B     		ldr	r3, [sp, #8]
 1280 07ca 1B78     		ldrb	r3, [r3]	@ zero_extendqisi2
 1281 07cc 1846     		mov	r0, r3
 1282 07ce FFF7FEFF 		bl	RTC_Bcd2ToByte
 1283 07d2 0346     		mov	r3, r0
 1284 07d4 0793     		str	r3, [sp, #28]
 1285 07d6 02E0     		b	.L47
 1286              	.L46:
 1287              		.loc 1 823 0
 1288 07d8 029B     		ldr	r3, [sp, #8]
 1289 07da 0022     		movs	r2, #0
 1290 07dc DA70     		strb	r2, [r3, #3]
 1291              	.L47:
 1292              		.loc 1 830 0
 1293 07de 029B     		ldr	r3, [sp, #8]
 1294 07e0 DB69     		ldr	r3, [r3, #28]
 1295 07e2 002B     		cmp	r3, #0
 1296 07e4 08D1     		bne	.L48
 1297              		.loc 1 832 0
 1298 07e6 029B     		ldr	r3, [sp, #8]
 1299 07e8 93F82030 		ldrb	r3, [r3, #32]	@ zero_extendqisi2
 1300 07ec 1846     		mov	r0, r3
 1301 07ee FFF7FEFF 		bl	RTC_Bcd2ToByte
 1302 07f2 0346     		mov	r3, r0
 1303 07f4 0793     		str	r3, [sp, #28]
ARM GAS  /tmp/ccHRl1iB.s 			page 24


 1304 07f6 07E0     		b	.L49
 1305              	.L48:
 1306              		.loc 1 837 0
 1307 07f8 029B     		ldr	r3, [sp, #8]
 1308 07fa 93F82030 		ldrb	r3, [r3, #32]	@ zero_extendqisi2
 1309 07fe 1846     		mov	r0, r3
 1310 0800 FFF7FEFF 		bl	RTC_Bcd2ToByte
 1311 0804 0346     		mov	r3, r0
 1312 0806 0793     		str	r3, [sp, #28]
 1313              	.L49:
 1314              		.loc 1 841 0
 1315 0808 029B     		ldr	r3, [sp, #8]
 1316 080a 1B78     		ldrb	r3, [r3]	@ zero_extendqisi2
 1317 080c 1A04     		lsls	r2, r3, #16
 1318              		.loc 1 842 0
 1319 080e 029B     		ldr	r3, [sp, #8]
 1320 0810 5B78     		ldrb	r3, [r3, #1]	@ zero_extendqisi2
 1321 0812 1B02     		lsls	r3, r3, #8
 1322              		.loc 1 841 0
 1323 0814 1A43     		orrs	r2, r2, r3
 1324              		.loc 1 843 0
 1325 0816 029B     		ldr	r3, [sp, #8]
 1326 0818 9B78     		ldrb	r3, [r3, #2]	@ zero_extendqisi2
 1327              		.loc 1 842 0
 1328 081a 1A43     		orrs	r2, r2, r3
 1329              		.loc 1 844 0
 1330 081c 029B     		ldr	r3, [sp, #8]
 1331 081e DB78     		ldrb	r3, [r3, #3]	@ zero_extendqisi2
 1332 0820 1B04     		lsls	r3, r3, #16
 1333              		.loc 1 843 0
 1334 0822 1A43     		orrs	r2, r2, r3
 1335              		.loc 1 845 0
 1336 0824 029B     		ldr	r3, [sp, #8]
 1337 0826 93F82030 		ldrb	r3, [r3, #32]	@ zero_extendqisi2
 1338 082a 1B06     		lsls	r3, r3, #24
 1339              		.loc 1 844 0
 1340 082c 1A43     		orrs	r2, r2, r3
 1341              		.loc 1 846 0
 1342 082e 029B     		ldr	r3, [sp, #8]
 1343 0830 DB69     		ldr	r3, [r3, #28]
 1344              		.loc 1 845 0
 1345 0832 1A43     		orrs	r2, r2, r3
 1346              		.loc 1 847 0
 1347 0834 029B     		ldr	r3, [sp, #8]
 1348 0836 5B69     		ldr	r3, [r3, #20]
 1349              		.loc 1 841 0
 1350 0838 1343     		orrs	r3, r3, r2
 1351 083a 0793     		str	r3, [sp, #28]
 1352              	.L45:
 1353              		.loc 1 851 0
 1354 083c 029B     		ldr	r3, [sp, #8]
 1355 083e 5A68     		ldr	r2, [r3, #4]
 1356 0840 029B     		ldr	r3, [sp, #8]
 1357 0842 9B69     		ldr	r3, [r3, #24]
 1358 0844 1343     		orrs	r3, r3, r2
 1359 0846 0593     		str	r3, [sp, #20]
 1360              		.loc 1 854 0
ARM GAS  /tmp/ccHRl1iB.s 			page 25


 1361 0848 039B     		ldr	r3, [sp, #12]
 1362 084a 1B68     		ldr	r3, [r3]
 1363 084c CA22     		movs	r2, #202
 1364 084e 5A62     		str	r2, [r3, #36]
 1365 0850 039B     		ldr	r3, [sp, #12]
 1366 0852 1B68     		ldr	r3, [r3]
 1367 0854 5322     		movs	r2, #83
 1368 0856 5A62     		str	r2, [r3, #36]
 1369              		.loc 1 857 0
 1370 0858 029B     		ldr	r3, [sp, #8]
 1371 085a 5B6A     		ldr	r3, [r3, #36]
 1372 085c B3F5807F 		cmp	r3, #256
 1373 0860 41D1     		bne	.L50
 1374              		.loc 1 860 0
 1375 0862 039B     		ldr	r3, [sp, #12]
 1376 0864 1B68     		ldr	r3, [r3]
 1377 0866 039A     		ldr	r2, [sp, #12]
 1378 0868 1268     		ldr	r2, [r2]
 1379 086a 9268     		ldr	r2, [r2, #8]
 1380 086c 22F48072 		bic	r2, r2, #256
 1381 0870 9A60     		str	r2, [r3, #8]
 1382              		.loc 1 863 0
 1383 0872 039B     		ldr	r3, [sp, #12]
 1384 0874 1B68     		ldr	r3, [r3]
 1385 0876 039A     		ldr	r2, [sp, #12]
 1386 0878 1268     		ldr	r2, [r2]
 1387 087a 9268     		ldr	r2, [r2, #8]
 1388 087c 22F48052 		bic	r2, r2, #4096
 1389 0880 9A60     		str	r2, [r3, #8]
 1390              		.loc 1 865 0
 1391 0882 FFF7FEFF 		bl	HAL_GetTick
 1392 0886 0690     		str	r0, [sp, #24]
 1393              		.loc 1 867 0
 1394 0888 15E0     		b	.L51
 1395              	.L52:
 1396              		.loc 1 869 0
 1397 088a FFF7FEFF 		bl	HAL_GetTick
 1398 088e 0246     		mov	r2, r0
 1399 0890 069B     		ldr	r3, [sp, #24]
 1400 0892 D31A     		subs	r3, r2, r3
 1401 0894 B3F57A7F 		cmp	r3, #1000
 1402 0898 0DD9     		bls	.L51
 1403              		.loc 1 872 0
 1404 089a 039B     		ldr	r3, [sp, #12]
 1405 089c 1B68     		ldr	r3, [r3]
 1406 089e FF22     		movs	r2, #255
 1407 08a0 5A62     		str	r2, [r3, #36]
 1408              		.loc 1 874 0
 1409 08a2 039B     		ldr	r3, [sp, #12]
 1410 08a4 0322     		movs	r2, #3
 1411 08a6 83F82120 		strb	r2, [r3, #33]
 1412              		.loc 1 877 0
 1413 08aa 039B     		ldr	r3, [sp, #12]
 1414 08ac 0022     		movs	r2, #0
 1415 08ae 83F82020 		strb	r2, [r3, #32]
 1416              		.loc 1 879 0
 1417 08b2 0323     		movs	r3, #3
ARM GAS  /tmp/ccHRl1iB.s 			page 26


 1418 08b4 65E0     		b	.L42
 1419              	.L51:
 1420              		.loc 1 867 0 discriminator 1
 1421 08b6 039B     		ldr	r3, [sp, #12]
 1422 08b8 1B68     		ldr	r3, [r3]
 1423 08ba DB68     		ldr	r3, [r3, #12]
 1424 08bc 03F00103 		and	r3, r3, #1
 1425 08c0 002B     		cmp	r3, #0
 1426 08c2 E2D0     		beq	.L52
 1427              		.loc 1 883 0
 1428 08c4 039B     		ldr	r3, [sp, #12]
 1429 08c6 1B68     		ldr	r3, [r3]
 1430 08c8 079A     		ldr	r2, [sp, #28]
 1431 08ca DA61     		str	r2, [r3, #28]
 1432              		.loc 1 885 0
 1433 08cc 039B     		ldr	r3, [sp, #12]
 1434 08ce 1B68     		ldr	r3, [r3]
 1435 08d0 059A     		ldr	r2, [sp, #20]
 1436 08d2 5A64     		str	r2, [r3, #68]
 1437              		.loc 1 887 0
 1438 08d4 039B     		ldr	r3, [sp, #12]
 1439 08d6 1B68     		ldr	r3, [r3]
 1440 08d8 039A     		ldr	r2, [sp, #12]
 1441 08da 1268     		ldr	r2, [r2]
 1442 08dc 9268     		ldr	r2, [r2, #8]
 1443 08de 42F48072 		orr	r2, r2, #256
 1444 08e2 9A60     		str	r2, [r3, #8]
 1445 08e4 40E0     		b	.L53
 1446              	.L50:
 1447              		.loc 1 892 0
 1448 08e6 039B     		ldr	r3, [sp, #12]
 1449 08e8 1B68     		ldr	r3, [r3]
 1450 08ea 039A     		ldr	r2, [sp, #12]
 1451 08ec 1268     		ldr	r2, [r2]
 1452 08ee 9268     		ldr	r2, [r2, #8]
 1453 08f0 22F40072 		bic	r2, r2, #512
 1454 08f4 9A60     		str	r2, [r3, #8]
 1455              		.loc 1 895 0
 1456 08f6 039B     		ldr	r3, [sp, #12]
 1457 08f8 1B68     		ldr	r3, [r3]
 1458 08fa 039A     		ldr	r2, [sp, #12]
 1459 08fc 1268     		ldr	r2, [r2]
 1460 08fe 9268     		ldr	r2, [r2, #8]
 1461 0900 22F40052 		bic	r2, r2, #8192
 1462 0904 9A60     		str	r2, [r3, #8]
 1463              		.loc 1 897 0
 1464 0906 FFF7FEFF 		bl	HAL_GetTick
 1465 090a 0690     		str	r0, [sp, #24]
 1466              		.loc 1 899 0
 1467 090c 15E0     		b	.L54
 1468              	.L55:
 1469              		.loc 1 901 0
 1470 090e FFF7FEFF 		bl	HAL_GetTick
 1471 0912 0246     		mov	r2, r0
 1472 0914 069B     		ldr	r3, [sp, #24]
 1473 0916 D31A     		subs	r3, r2, r3
 1474 0918 B3F57A7F 		cmp	r3, #1000
ARM GAS  /tmp/ccHRl1iB.s 			page 27


 1475 091c 0DD9     		bls	.L54
 1476              		.loc 1 904 0
 1477 091e 039B     		ldr	r3, [sp, #12]
 1478 0920 1B68     		ldr	r3, [r3]
 1479 0922 FF22     		movs	r2, #255
 1480 0924 5A62     		str	r2, [r3, #36]
 1481              		.loc 1 906 0
 1482 0926 039B     		ldr	r3, [sp, #12]
 1483 0928 0322     		movs	r2, #3
 1484 092a 83F82120 		strb	r2, [r3, #33]
 1485              		.loc 1 909 0
 1486 092e 039B     		ldr	r3, [sp, #12]
 1487 0930 0022     		movs	r2, #0
 1488 0932 83F82020 		strb	r2, [r3, #32]
 1489              		.loc 1 911 0
 1490 0936 0323     		movs	r3, #3
 1491 0938 23E0     		b	.L42
 1492              	.L54:
 1493              		.loc 1 899 0 discriminator 1
 1494 093a 039B     		ldr	r3, [sp, #12]
 1495 093c 1B68     		ldr	r3, [r3]
 1496 093e DB68     		ldr	r3, [r3, #12]
 1497 0940 03F00203 		and	r3, r3, #2
 1498 0944 002B     		cmp	r3, #0
 1499 0946 E2D0     		beq	.L55
 1500              		.loc 1 915 0
 1501 0948 039B     		ldr	r3, [sp, #12]
 1502 094a 1B68     		ldr	r3, [r3]
 1503 094c 079A     		ldr	r2, [sp, #28]
 1504 094e 1A62     		str	r2, [r3, #32]
 1505              		.loc 1 917 0
 1506 0950 039B     		ldr	r3, [sp, #12]
 1507 0952 1B68     		ldr	r3, [r3]
 1508 0954 059A     		ldr	r2, [sp, #20]
 1509 0956 9A64     		str	r2, [r3, #72]
 1510              		.loc 1 919 0
 1511 0958 039B     		ldr	r3, [sp, #12]
 1512 095a 1B68     		ldr	r3, [r3]
 1513 095c 039A     		ldr	r2, [sp, #12]
 1514 095e 1268     		ldr	r2, [r2]
 1515 0960 9268     		ldr	r2, [r2, #8]
 1516 0962 42F40072 		orr	r2, r2, #512
 1517 0966 9A60     		str	r2, [r3, #8]
 1518              	.L53:
 1519              		.loc 1 923 0
 1520 0968 039B     		ldr	r3, [sp, #12]
 1521 096a 1B68     		ldr	r3, [r3]
 1522 096c FF22     		movs	r2, #255
 1523 096e 5A62     		str	r2, [r3, #36]
 1524              		.loc 1 926 0
 1525 0970 039B     		ldr	r3, [sp, #12]
 1526 0972 0122     		movs	r2, #1
 1527 0974 83F82120 		strb	r2, [r3, #33]
 1528              		.loc 1 929 0
 1529 0978 039B     		ldr	r3, [sp, #12]
 1530 097a 0022     		movs	r2, #0
 1531 097c 83F82020 		strb	r2, [r3, #32]
ARM GAS  /tmp/ccHRl1iB.s 			page 28


 1532              		.loc 1 931 0
 1533 0980 0023     		movs	r3, #0
 1534              	.L42:
 1535              		.loc 1 932 0
 1536 0982 1846     		mov	r0, r3
 1537 0984 08B0     		add	sp, sp, #32
 1538              		@ sp needed
 1539 0986 10BD     		pop	{r4, pc}
 1540              		.cfi_endproc
 1541              	.LFE133:
 1542              		.size	HAL_RTC_SetAlarm, .-HAL_RTC_SetAlarm
 1543              		.align	2
 1544 0988 AFF30080 		.p2align 4,,15
 1544      AFF30080 
 1545              		.global	HAL_RTC_SetAlarm_IT
 1546              		.thumb
 1547              		.thumb_func
 1548              		.type	HAL_RTC_SetAlarm_IT, %function
 1549              	HAL_RTC_SetAlarm_IT:
 1550              	.LFB134:
 1551              		.loc 1 948 0
 1552              		.cfi_startproc
 1553              		@ args = 0, pretend = 0, frame = 32
 1554              		@ frame_needed = 0, uses_anonymous_args = 0
 1555 0990 10B5     		push	{r4, lr}
 1556              		.cfi_def_cfa_offset 8
 1557              		.cfi_offset 4, -8
 1558              		.cfi_offset 14, -4
 1559 0992 88B0     		sub	sp, sp, #32
 1560              		.cfi_def_cfa_offset 40
 1561 0994 0390     		str	r0, [sp, #12]
 1562 0996 0291     		str	r1, [sp, #8]
 1563 0998 0192     		str	r2, [sp, #4]
 1564              		.loc 1 949 0
 1565 099a 0023     		movs	r3, #0
 1566 099c 0693     		str	r3, [sp, #24]
 1567              		.loc 1 950 0
 1568 099e 0023     		movs	r3, #0
 1569 09a0 0793     		str	r3, [sp, #28]
 1570 09a2 0023     		movs	r3, #0
 1571 09a4 0593     		str	r3, [sp, #20]
 1572              		.loc 1 961 0
 1573 09a6 039B     		ldr	r3, [sp, #12]
 1574 09a8 93F82030 		ldrb	r3, [r3, #32]	@ zero_extendqisi2
 1575 09ac 012B     		cmp	r3, #1
 1576 09ae 01D1     		bne	.L57
 1577              		.loc 1 961 0 is_stmt 0 discriminator 1
 1578 09b0 0223     		movs	r3, #2
 1579 09b2 44E1     		b	.L58
 1580              	.L57:
 1581              		.loc 1 961 0 discriminator 2
 1582 09b4 039B     		ldr	r3, [sp, #12]
 1583 09b6 0122     		movs	r2, #1
 1584 09b8 83F82020 		strb	r2, [r3, #32]
 1585              		.loc 1 963 0 is_stmt 1 discriminator 2
 1586 09bc 039B     		ldr	r3, [sp, #12]
 1587 09be 0222     		movs	r2, #2
ARM GAS  /tmp/ccHRl1iB.s 			page 29


 1588 09c0 83F82120 		strb	r2, [r3, #33]
 1589              		.loc 1 965 0 discriminator 2
 1590 09c4 019B     		ldr	r3, [sp, #4]
 1591 09c6 002B     		cmp	r3, #0
 1592 09c8 37D1     		bne	.L59
 1593              		.loc 1 967 0
 1594 09ca 039B     		ldr	r3, [sp, #12]
 1595 09cc 1B68     		ldr	r3, [r3]
 1596 09ce 9B68     		ldr	r3, [r3, #8]
 1597 09d0 03F04003 		and	r3, r3, #64
 1598 09d4 002B     		cmp	r3, #0
 1599 09d6 02D1     		bne	.L60
 1600              		.loc 1 974 0
 1601 09d8 029B     		ldr	r3, [sp, #8]
 1602 09da 0022     		movs	r2, #0
 1603 09dc DA70     		strb	r2, [r3, #3]
 1604              	.L60:
 1605              		.loc 1 988 0
 1606 09de 029B     		ldr	r3, [sp, #8]
 1607 09e0 1B78     		ldrb	r3, [r3]	@ zero_extendqisi2
 1608 09e2 1846     		mov	r0, r3
 1609 09e4 FFF7FEFF 		bl	RTC_ByteToBcd2
 1610 09e8 0346     		mov	r3, r0
 1611 09ea 1C04     		lsls	r4, r3, #16
 1612              		.loc 1 989 0
 1613 09ec 029B     		ldr	r3, [sp, #8]
 1614 09ee 5B78     		ldrb	r3, [r3, #1]	@ zero_extendqisi2
 1615 09f0 1846     		mov	r0, r3
 1616 09f2 FFF7FEFF 		bl	RTC_ByteToBcd2
 1617 09f6 0346     		mov	r3, r0
 1618 09f8 1B02     		lsls	r3, r3, #8
 1619              		.loc 1 988 0
 1620 09fa 1C43     		orrs	r4, r4, r3
 1621              		.loc 1 990 0
 1622 09fc 029B     		ldr	r3, [sp, #8]
 1623 09fe 9B78     		ldrb	r3, [r3, #2]	@ zero_extendqisi2
 1624 0a00 1846     		mov	r0, r3
 1625 0a02 FFF7FEFF 		bl	RTC_ByteToBcd2
 1626 0a06 0346     		mov	r3, r0
 1627              		.loc 1 989 0
 1628 0a08 44EA0302 		orr	r2, r4, r3
 1629              		.loc 1 991 0
 1630 0a0c 029B     		ldr	r3, [sp, #8]
 1631 0a0e DB78     		ldrb	r3, [r3, #3]	@ zero_extendqisi2
 1632 0a10 1B04     		lsls	r3, r3, #16
 1633              		.loc 1 990 0
 1634 0a12 42EA0304 		orr	r4, r2, r3
 1635              		.loc 1 992 0
 1636 0a16 029B     		ldr	r3, [sp, #8]
 1637 0a18 93F82030 		ldrb	r3, [r3, #32]	@ zero_extendqisi2
 1638 0a1c 1846     		mov	r0, r3
 1639 0a1e FFF7FEFF 		bl	RTC_ByteToBcd2
 1640 0a22 0346     		mov	r3, r0
 1641 0a24 1B06     		lsls	r3, r3, #24
 1642              		.loc 1 991 0
 1643 0a26 44EA0302 		orr	r2, r4, r3
 1644              		.loc 1 993 0
ARM GAS  /tmp/ccHRl1iB.s 			page 30


 1645 0a2a 029B     		ldr	r3, [sp, #8]
 1646 0a2c DB69     		ldr	r3, [r3, #28]
 1647              		.loc 1 992 0
 1648 0a2e 1A43     		orrs	r2, r2, r3
 1649              		.loc 1 994 0
 1650 0a30 029B     		ldr	r3, [sp, #8]
 1651 0a32 5B69     		ldr	r3, [r3, #20]
 1652              		.loc 1 988 0
 1653 0a34 1343     		orrs	r3, r3, r2
 1654 0a36 0793     		str	r3, [sp, #28]
 1655 0a38 40E0     		b	.L61
 1656              	.L59:
 1657              		.loc 1 998 0
 1658 0a3a 039B     		ldr	r3, [sp, #12]
 1659 0a3c 1B68     		ldr	r3, [r3]
 1660 0a3e 9B68     		ldr	r3, [r3, #8]
 1661 0a40 03F04003 		and	r3, r3, #64
 1662 0a44 002B     		cmp	r3, #0
 1663 0a46 07D0     		beq	.L62
 1664              		.loc 1 1000 0
 1665 0a48 029B     		ldr	r3, [sp, #8]
 1666 0a4a 1B78     		ldrb	r3, [r3]	@ zero_extendqisi2
 1667 0a4c 1846     		mov	r0, r3
 1668 0a4e FFF7FEFF 		bl	RTC_Bcd2ToByte
 1669 0a52 0346     		mov	r3, r0
 1670 0a54 0793     		str	r3, [sp, #28]
 1671 0a56 02E0     		b	.L63
 1672              	.L62:
 1673              		.loc 1 1006 0
 1674 0a58 029B     		ldr	r3, [sp, #8]
 1675 0a5a 0022     		movs	r2, #0
 1676 0a5c DA70     		strb	r2, [r3, #3]
 1677              	.L63:
 1678              		.loc 1 1013 0
 1679 0a5e 029B     		ldr	r3, [sp, #8]
 1680 0a60 DB69     		ldr	r3, [r3, #28]
 1681 0a62 002B     		cmp	r3, #0
 1682 0a64 08D1     		bne	.L64
 1683              		.loc 1 1015 0
 1684 0a66 029B     		ldr	r3, [sp, #8]
 1685 0a68 93F82030 		ldrb	r3, [r3, #32]	@ zero_extendqisi2
 1686 0a6c 1846     		mov	r0, r3
 1687 0a6e FFF7FEFF 		bl	RTC_Bcd2ToByte
 1688 0a72 0346     		mov	r3, r0
 1689 0a74 0793     		str	r3, [sp, #28]
 1690 0a76 07E0     		b	.L65
 1691              	.L64:
 1692              		.loc 1 1020 0
 1693 0a78 029B     		ldr	r3, [sp, #8]
 1694 0a7a 93F82030 		ldrb	r3, [r3, #32]	@ zero_extendqisi2
 1695 0a7e 1846     		mov	r0, r3
 1696 0a80 FFF7FEFF 		bl	RTC_Bcd2ToByte
 1697 0a84 0346     		mov	r3, r0
 1698 0a86 0793     		str	r3, [sp, #28]
 1699              	.L65:
 1700              		.loc 1 1023 0
 1701 0a88 029B     		ldr	r3, [sp, #8]
ARM GAS  /tmp/ccHRl1iB.s 			page 31


 1702 0a8a 1B78     		ldrb	r3, [r3]	@ zero_extendqisi2
 1703 0a8c 1A04     		lsls	r2, r3, #16
 1704              		.loc 1 1024 0
 1705 0a8e 029B     		ldr	r3, [sp, #8]
 1706 0a90 5B78     		ldrb	r3, [r3, #1]	@ zero_extendqisi2
 1707 0a92 1B02     		lsls	r3, r3, #8
 1708              		.loc 1 1023 0
 1709 0a94 1A43     		orrs	r2, r2, r3
 1710              		.loc 1 1025 0
 1711 0a96 029B     		ldr	r3, [sp, #8]
 1712 0a98 9B78     		ldrb	r3, [r3, #2]	@ zero_extendqisi2
 1713              		.loc 1 1024 0
 1714 0a9a 1A43     		orrs	r2, r2, r3
 1715              		.loc 1 1026 0
 1716 0a9c 029B     		ldr	r3, [sp, #8]
 1717 0a9e DB78     		ldrb	r3, [r3, #3]	@ zero_extendqisi2
 1718 0aa0 1B04     		lsls	r3, r3, #16
 1719              		.loc 1 1025 0
 1720 0aa2 1A43     		orrs	r2, r2, r3
 1721              		.loc 1 1027 0
 1722 0aa4 029B     		ldr	r3, [sp, #8]
 1723 0aa6 93F82030 		ldrb	r3, [r3, #32]	@ zero_extendqisi2
 1724 0aaa 1B06     		lsls	r3, r3, #24
 1725              		.loc 1 1026 0
 1726 0aac 1A43     		orrs	r2, r2, r3
 1727              		.loc 1 1028 0
 1728 0aae 029B     		ldr	r3, [sp, #8]
 1729 0ab0 DB69     		ldr	r3, [r3, #28]
 1730              		.loc 1 1027 0
 1731 0ab2 1A43     		orrs	r2, r2, r3
 1732              		.loc 1 1029 0
 1733 0ab4 029B     		ldr	r3, [sp, #8]
 1734 0ab6 5B69     		ldr	r3, [r3, #20]
 1735              		.loc 1 1023 0
 1736 0ab8 1343     		orrs	r3, r3, r2
 1737 0aba 0793     		str	r3, [sp, #28]
 1738              	.L61:
 1739              		.loc 1 1032 0
 1740 0abc 029B     		ldr	r3, [sp, #8]
 1741 0abe 5A68     		ldr	r2, [r3, #4]
 1742 0ac0 029B     		ldr	r3, [sp, #8]
 1743 0ac2 9B69     		ldr	r3, [r3, #24]
 1744 0ac4 1343     		orrs	r3, r3, r2
 1745 0ac6 0593     		str	r3, [sp, #20]
 1746              		.loc 1 1035 0
 1747 0ac8 039B     		ldr	r3, [sp, #12]
 1748 0aca 1B68     		ldr	r3, [r3]
 1749 0acc CA22     		movs	r2, #202
 1750 0ace 5A62     		str	r2, [r3, #36]
 1751 0ad0 039B     		ldr	r3, [sp, #12]
 1752 0ad2 1B68     		ldr	r3, [r3]
 1753 0ad4 5322     		movs	r2, #83
 1754 0ad6 5A62     		str	r2, [r3, #36]
 1755              		.loc 1 1038 0
 1756 0ad8 029B     		ldr	r3, [sp, #8]
 1757 0ada 5B6A     		ldr	r3, [r3, #36]
 1758 0adc B3F5807F 		cmp	r3, #256
ARM GAS  /tmp/ccHRl1iB.s 			page 32


 1759 0ae0 4AD1     		bne	.L66
 1760              		.loc 1 1041 0
 1761 0ae2 039B     		ldr	r3, [sp, #12]
 1762 0ae4 1B68     		ldr	r3, [r3]
 1763 0ae6 039A     		ldr	r2, [sp, #12]
 1764 0ae8 1268     		ldr	r2, [r2]
 1765 0aea 9268     		ldr	r2, [r2, #8]
 1766 0aec 22F48072 		bic	r2, r2, #256
 1767 0af0 9A60     		str	r2, [r3, #8]
 1768              		.loc 1 1044 0
 1769 0af2 039B     		ldr	r3, [sp, #12]
 1770 0af4 1B68     		ldr	r3, [r3]
 1771 0af6 039A     		ldr	r2, [sp, #12]
 1772 0af8 1268     		ldr	r2, [r2]
 1773 0afa D268     		ldr	r2, [r2, #12]
 1774 0afc D2B2     		uxtb	r2, r2
 1775 0afe 62F4C072 		orn	r2, r2, #384
 1776 0b02 DA60     		str	r2, [r3, #12]
 1777              		.loc 1 1046 0
 1778 0b04 FFF7FEFF 		bl	HAL_GetTick
 1779 0b08 0690     		str	r0, [sp, #24]
 1780              		.loc 1 1048 0
 1781 0b0a 15E0     		b	.L67
 1782              	.L68:
 1783              		.loc 1 1050 0
 1784 0b0c FFF7FEFF 		bl	HAL_GetTick
 1785 0b10 0246     		mov	r2, r0
 1786 0b12 069B     		ldr	r3, [sp, #24]
 1787 0b14 D31A     		subs	r3, r2, r3
 1788 0b16 B3F57A7F 		cmp	r3, #1000
 1789 0b1a 0DD9     		bls	.L67
 1790              		.loc 1 1053 0
 1791 0b1c 039B     		ldr	r3, [sp, #12]
 1792 0b1e 1B68     		ldr	r3, [r3]
 1793 0b20 FF22     		movs	r2, #255
 1794 0b22 5A62     		str	r2, [r3, #36]
 1795              		.loc 1 1055 0
 1796 0b24 039B     		ldr	r3, [sp, #12]
 1797 0b26 0322     		movs	r2, #3
 1798 0b28 83F82120 		strb	r2, [r3, #33]
 1799              		.loc 1 1058 0
 1800 0b2c 039B     		ldr	r3, [sp, #12]
 1801 0b2e 0022     		movs	r2, #0
 1802 0b30 83F82020 		strb	r2, [r3, #32]
 1803              		.loc 1 1060 0
 1804 0b34 0323     		movs	r3, #3
 1805 0b36 82E0     		b	.L58
 1806              	.L67:
 1807              		.loc 1 1048 0 discriminator 1
 1808 0b38 039B     		ldr	r3, [sp, #12]
 1809 0b3a 1B68     		ldr	r3, [r3]
 1810 0b3c DB68     		ldr	r3, [r3, #12]
 1811 0b3e 03F00103 		and	r3, r3, #1
 1812 0b42 002B     		cmp	r3, #0
 1813 0b44 E2D0     		beq	.L68
 1814              		.loc 1 1064 0
 1815 0b46 039B     		ldr	r3, [sp, #12]
ARM GAS  /tmp/ccHRl1iB.s 			page 33


 1816 0b48 1B68     		ldr	r3, [r3]
 1817 0b4a 079A     		ldr	r2, [sp, #28]
 1818 0b4c DA61     		str	r2, [r3, #28]
 1819              		.loc 1 1066 0
 1820 0b4e 039B     		ldr	r3, [sp, #12]
 1821 0b50 1B68     		ldr	r3, [r3]
 1822 0b52 059A     		ldr	r2, [sp, #20]
 1823 0b54 5A64     		str	r2, [r3, #68]
 1824              		.loc 1 1068 0
 1825 0b56 039B     		ldr	r3, [sp, #12]
 1826 0b58 1B68     		ldr	r3, [r3]
 1827 0b5a 039A     		ldr	r2, [sp, #12]
 1828 0b5c 1268     		ldr	r2, [r2]
 1829 0b5e 9268     		ldr	r2, [r2, #8]
 1830 0b60 42F48072 		orr	r2, r2, #256
 1831 0b64 9A60     		str	r2, [r3, #8]
 1832              		.loc 1 1070 0
 1833 0b66 039B     		ldr	r3, [sp, #12]
 1834 0b68 1B68     		ldr	r3, [r3]
 1835 0b6a 039A     		ldr	r2, [sp, #12]
 1836 0b6c 1268     		ldr	r2, [r2]
 1837 0b6e 9268     		ldr	r2, [r2, #8]
 1838 0b70 42F48052 		orr	r2, r2, #4096
 1839 0b74 9A60     		str	r2, [r3, #8]
 1840 0b76 49E0     		b	.L69
 1841              	.L66:
 1842              		.loc 1 1075 0
 1843 0b78 039B     		ldr	r3, [sp, #12]
 1844 0b7a 1B68     		ldr	r3, [r3]
 1845 0b7c 039A     		ldr	r2, [sp, #12]
 1846 0b7e 1268     		ldr	r2, [r2]
 1847 0b80 9268     		ldr	r2, [r2, #8]
 1848 0b82 22F40072 		bic	r2, r2, #512
 1849 0b86 9A60     		str	r2, [r3, #8]
 1850              		.loc 1 1078 0
 1851 0b88 039B     		ldr	r3, [sp, #12]
 1852 0b8a 1B68     		ldr	r3, [r3]
 1853 0b8c 039A     		ldr	r2, [sp, #12]
 1854 0b8e 1268     		ldr	r2, [r2]
 1855 0b90 D268     		ldr	r2, [r2, #12]
 1856 0b92 D2B2     		uxtb	r2, r2
 1857 0b94 62F42072 		orn	r2, r2, #640
 1858 0b98 DA60     		str	r2, [r3, #12]
 1859              		.loc 1 1080 0
 1860 0b9a FFF7FEFF 		bl	HAL_GetTick
 1861 0b9e 0690     		str	r0, [sp, #24]
 1862              		.loc 1 1082 0
 1863 0ba0 15E0     		b	.L70
 1864              	.L71:
 1865              		.loc 1 1084 0
 1866 0ba2 FFF7FEFF 		bl	HAL_GetTick
 1867 0ba6 0246     		mov	r2, r0
 1868 0ba8 069B     		ldr	r3, [sp, #24]
 1869 0baa D31A     		subs	r3, r2, r3
 1870 0bac B3F57A7F 		cmp	r3, #1000
 1871 0bb0 0DD9     		bls	.L70
 1872              		.loc 1 1087 0
ARM GAS  /tmp/ccHRl1iB.s 			page 34


 1873 0bb2 039B     		ldr	r3, [sp, #12]
 1874 0bb4 1B68     		ldr	r3, [r3]
 1875 0bb6 FF22     		movs	r2, #255
 1876 0bb8 5A62     		str	r2, [r3, #36]
 1877              		.loc 1 1089 0
 1878 0bba 039B     		ldr	r3, [sp, #12]
 1879 0bbc 0322     		movs	r2, #3
 1880 0bbe 83F82120 		strb	r2, [r3, #33]
 1881              		.loc 1 1092 0
 1882 0bc2 039B     		ldr	r3, [sp, #12]
 1883 0bc4 0022     		movs	r2, #0
 1884 0bc6 83F82020 		strb	r2, [r3, #32]
 1885              		.loc 1 1094 0
 1886 0bca 0323     		movs	r3, #3
 1887 0bcc 37E0     		b	.L58
 1888              	.L70:
 1889              		.loc 1 1082 0 discriminator 1
 1890 0bce 039B     		ldr	r3, [sp, #12]
 1891 0bd0 1B68     		ldr	r3, [r3]
 1892 0bd2 DB68     		ldr	r3, [r3, #12]
 1893 0bd4 03F00203 		and	r3, r3, #2
 1894 0bd8 002B     		cmp	r3, #0
 1895 0bda E2D0     		beq	.L71
 1896              		.loc 1 1098 0
 1897 0bdc 039B     		ldr	r3, [sp, #12]
 1898 0bde 1B68     		ldr	r3, [r3]
 1899 0be0 079A     		ldr	r2, [sp, #28]
 1900 0be2 1A62     		str	r2, [r3, #32]
 1901              		.loc 1 1100 0
 1902 0be4 039B     		ldr	r3, [sp, #12]
 1903 0be6 1B68     		ldr	r3, [r3]
 1904 0be8 059A     		ldr	r2, [sp, #20]
 1905 0bea 9A64     		str	r2, [r3, #72]
 1906              		.loc 1 1102 0
 1907 0bec 039B     		ldr	r3, [sp, #12]
 1908 0bee 1B68     		ldr	r3, [r3]
 1909 0bf0 039A     		ldr	r2, [sp, #12]
 1910 0bf2 1268     		ldr	r2, [r2]
 1911 0bf4 9268     		ldr	r2, [r2, #8]
 1912 0bf6 42F40072 		orr	r2, r2, #512
 1913 0bfa 9A60     		str	r2, [r3, #8]
 1914              		.loc 1 1104 0
 1915 0bfc 039B     		ldr	r3, [sp, #12]
 1916 0bfe 1B68     		ldr	r3, [r3]
 1917 0c00 039A     		ldr	r2, [sp, #12]
 1918 0c02 1268     		ldr	r2, [r2]
 1919 0c04 9268     		ldr	r2, [r2, #8]
 1920 0c06 42F40052 		orr	r2, r2, #8192
 1921 0c0a 9A60     		str	r2, [r3, #8]
 1922              	.L69:
 1923              		.loc 1 1108 0
 1924 0c0c 0D4B     		ldr	r3, .L72
 1925 0c0e 0D4A     		ldr	r2, .L72
 1926 0c10 1268     		ldr	r2, [r2]
 1927 0c12 42F48022 		orr	r2, r2, #262144
 1928 0c16 1A60     		str	r2, [r3]
 1929              		.loc 1 1110 0
ARM GAS  /tmp/ccHRl1iB.s 			page 35


 1930 0c18 0A4B     		ldr	r3, .L72
 1931 0c1a 0A4A     		ldr	r2, .L72
 1932 0c1c 9268     		ldr	r2, [r2, #8]
 1933 0c1e 42F48022 		orr	r2, r2, #262144
 1934 0c22 9A60     		str	r2, [r3, #8]
 1935              		.loc 1 1113 0
 1936 0c24 039B     		ldr	r3, [sp, #12]
 1937 0c26 1B68     		ldr	r3, [r3]
 1938 0c28 FF22     		movs	r2, #255
 1939 0c2a 5A62     		str	r2, [r3, #36]
 1940              		.loc 1 1115 0
 1941 0c2c 039B     		ldr	r3, [sp, #12]
 1942 0c2e 0122     		movs	r2, #1
 1943 0c30 83F82120 		strb	r2, [r3, #33]
 1944              		.loc 1 1118 0
 1945 0c34 039B     		ldr	r3, [sp, #12]
 1946 0c36 0022     		movs	r2, #0
 1947 0c38 83F82020 		strb	r2, [r3, #32]
 1948              		.loc 1 1120 0
 1949 0c3c 0023     		movs	r3, #0
 1950              	.L58:
 1951              		.loc 1 1121 0
 1952 0c3e 1846     		mov	r0, r3
 1953 0c40 08B0     		add	sp, sp, #32
 1954              		@ sp needed
 1955 0c42 10BD     		pop	{r4, pc}
 1956              	.L73:
 1957              		.align	2
 1958              	.L72:
 1959 0c44 00040140 		.word	1073808384
 1960              		.cfi_endproc
 1961              	.LFE134:
 1962              		.size	HAL_RTC_SetAlarm_IT, .-HAL_RTC_SetAlarm_IT
 1963              		.align	2
 1964 0c48 AFF30080 		.p2align 4,,15
 1964      AFF30080 
 1965              		.global	HAL_RTC_DeactivateAlarm
 1966              		.thumb
 1967              		.thumb_func
 1968              		.type	HAL_RTC_DeactivateAlarm, %function
 1969              	HAL_RTC_DeactivateAlarm:
 1970              	.LFB135:
 1971              		.loc 1 1133 0
 1972              		.cfi_startproc
 1973              		@ args = 0, pretend = 0, frame = 16
 1974              		@ frame_needed = 0, uses_anonymous_args = 0
 1975 0c50 00B5     		push	{lr}
 1976              		.cfi_def_cfa_offset 4
 1977              		.cfi_offset 14, -4
 1978 0c52 85B0     		sub	sp, sp, #20
 1979              		.cfi_def_cfa_offset 24
 1980 0c54 0190     		str	r0, [sp, #4]
 1981 0c56 0091     		str	r1, [sp]
 1982              		.loc 1 1134 0
 1983 0c58 0023     		movs	r3, #0
 1984 0c5a 0393     		str	r3, [sp, #12]
 1985              		.loc 1 1140 0
ARM GAS  /tmp/ccHRl1iB.s 			page 36


 1986 0c5c 019B     		ldr	r3, [sp, #4]
 1987 0c5e 93F82030 		ldrb	r3, [r3, #32]	@ zero_extendqisi2
 1988 0c62 012B     		cmp	r3, #1
 1989 0c64 01D1     		bne	.L75
 1990              		.loc 1 1140 0 is_stmt 0 discriminator 1
 1991 0c66 0223     		movs	r3, #2
 1992 0c68 83E0     		b	.L76
 1993              	.L75:
 1994              		.loc 1 1140 0 discriminator 2
 1995 0c6a 019B     		ldr	r3, [sp, #4]
 1996 0c6c 0122     		movs	r2, #1
 1997 0c6e 83F82020 		strb	r2, [r3, #32]
 1998              		.loc 1 1142 0 is_stmt 1 discriminator 2
 1999 0c72 019B     		ldr	r3, [sp, #4]
 2000 0c74 0222     		movs	r2, #2
 2001 0c76 83F82120 		strb	r2, [r3, #33]
 2002              		.loc 1 1145 0 discriminator 2
 2003 0c7a 019B     		ldr	r3, [sp, #4]
 2004 0c7c 1B68     		ldr	r3, [r3]
 2005 0c7e CA22     		movs	r2, #202
 2006 0c80 5A62     		str	r2, [r3, #36]
 2007 0c82 019B     		ldr	r3, [sp, #4]
 2008 0c84 1B68     		ldr	r3, [r3]
 2009 0c86 5322     		movs	r2, #83
 2010 0c88 5A62     		str	r2, [r3, #36]
 2011              		.loc 1 1147 0 discriminator 2
 2012 0c8a 009B     		ldr	r3, [sp]
 2013 0c8c B3F5807F 		cmp	r3, #256
 2014 0c90 31D1     		bne	.L77
 2015              		.loc 1 1150 0
 2016 0c92 019B     		ldr	r3, [sp, #4]
 2017 0c94 1B68     		ldr	r3, [r3]
 2018 0c96 019A     		ldr	r2, [sp, #4]
 2019 0c98 1268     		ldr	r2, [r2]
 2020 0c9a 9268     		ldr	r2, [r2, #8]
 2021 0c9c 22F48072 		bic	r2, r2, #256
 2022 0ca0 9A60     		str	r2, [r3, #8]
 2023              		.loc 1 1153 0
 2024 0ca2 019B     		ldr	r3, [sp, #4]
 2025 0ca4 1B68     		ldr	r3, [r3]
 2026 0ca6 019A     		ldr	r2, [sp, #4]
 2027 0ca8 1268     		ldr	r2, [r2]
 2028 0caa 9268     		ldr	r2, [r2, #8]
 2029 0cac 22F48052 		bic	r2, r2, #4096
 2030 0cb0 9A60     		str	r2, [r3, #8]
 2031              		.loc 1 1155 0
 2032 0cb2 FFF7FEFF 		bl	HAL_GetTick
 2033 0cb6 0390     		str	r0, [sp, #12]
 2034              		.loc 1 1158 0
 2035 0cb8 15E0     		b	.L78
 2036              	.L79:
 2037              		.loc 1 1160 0
 2038 0cba FFF7FEFF 		bl	HAL_GetTick
 2039 0cbe 0246     		mov	r2, r0
 2040 0cc0 039B     		ldr	r3, [sp, #12]
 2041 0cc2 D31A     		subs	r3, r2, r3
 2042 0cc4 B3F57A7F 		cmp	r3, #1000
ARM GAS  /tmp/ccHRl1iB.s 			page 37


 2043 0cc8 0DD9     		bls	.L78
 2044              		.loc 1 1163 0
 2045 0cca 019B     		ldr	r3, [sp, #4]
 2046 0ccc 1B68     		ldr	r3, [r3]
 2047 0cce FF22     		movs	r2, #255
 2048 0cd0 5A62     		str	r2, [r3, #36]
 2049              		.loc 1 1165 0
 2050 0cd2 019B     		ldr	r3, [sp, #4]
 2051 0cd4 0322     		movs	r2, #3
 2052 0cd6 83F82120 		strb	r2, [r3, #33]
 2053              		.loc 1 1168 0
 2054 0cda 019B     		ldr	r3, [sp, #4]
 2055 0cdc 0022     		movs	r2, #0
 2056 0cde 83F82020 		strb	r2, [r3, #32]
 2057              		.loc 1 1170 0
 2058 0ce2 0323     		movs	r3, #3
 2059 0ce4 45E0     		b	.L76
 2060              	.L78:
 2061              		.loc 1 1158 0 discriminator 1
 2062 0ce6 019B     		ldr	r3, [sp, #4]
 2063 0ce8 1B68     		ldr	r3, [r3]
 2064 0cea DB68     		ldr	r3, [r3, #12]
 2065 0cec 03F00103 		and	r3, r3, #1
 2066 0cf0 002B     		cmp	r3, #0
 2067 0cf2 E2D0     		beq	.L79
 2068 0cf4 30E0     		b	.L80
 2069              	.L77:
 2070              		.loc 1 1177 0
 2071 0cf6 019B     		ldr	r3, [sp, #4]
 2072 0cf8 1B68     		ldr	r3, [r3]
 2073 0cfa 019A     		ldr	r2, [sp, #4]
 2074 0cfc 1268     		ldr	r2, [r2]
 2075 0cfe 9268     		ldr	r2, [r2, #8]
 2076 0d00 22F40072 		bic	r2, r2, #512
 2077 0d04 9A60     		str	r2, [r3, #8]
 2078              		.loc 1 1180 0
 2079 0d06 019B     		ldr	r3, [sp, #4]
 2080 0d08 1B68     		ldr	r3, [r3]
 2081 0d0a 019A     		ldr	r2, [sp, #4]
 2082 0d0c 1268     		ldr	r2, [r2]
 2083 0d0e 9268     		ldr	r2, [r2, #8]
 2084 0d10 22F40052 		bic	r2, r2, #8192
 2085 0d14 9A60     		str	r2, [r3, #8]
 2086              		.loc 1 1182 0
 2087 0d16 FFF7FEFF 		bl	HAL_GetTick
 2088 0d1a 0390     		str	r0, [sp, #12]
 2089              		.loc 1 1185 0
 2090 0d1c 15E0     		b	.L81
 2091              	.L82:
 2092              		.loc 1 1187 0
 2093 0d1e FFF7FEFF 		bl	HAL_GetTick
 2094 0d22 0246     		mov	r2, r0
 2095 0d24 039B     		ldr	r3, [sp, #12]
 2096 0d26 D31A     		subs	r3, r2, r3
 2097 0d28 B3F57A7F 		cmp	r3, #1000
 2098 0d2c 0DD9     		bls	.L81
 2099              		.loc 1 1190 0
ARM GAS  /tmp/ccHRl1iB.s 			page 38


 2100 0d2e 019B     		ldr	r3, [sp, #4]
 2101 0d30 1B68     		ldr	r3, [r3]
 2102 0d32 FF22     		movs	r2, #255
 2103 0d34 5A62     		str	r2, [r3, #36]
 2104              		.loc 1 1192 0
 2105 0d36 019B     		ldr	r3, [sp, #4]
 2106 0d38 0322     		movs	r2, #3
 2107 0d3a 83F82120 		strb	r2, [r3, #33]
 2108              		.loc 1 1195 0
 2109 0d3e 019B     		ldr	r3, [sp, #4]
 2110 0d40 0022     		movs	r2, #0
 2111 0d42 83F82020 		strb	r2, [r3, #32]
 2112              		.loc 1 1197 0
 2113 0d46 0323     		movs	r3, #3
 2114 0d48 13E0     		b	.L76
 2115              	.L81:
 2116              		.loc 1 1185 0 discriminator 1
 2117 0d4a 019B     		ldr	r3, [sp, #4]
 2118 0d4c 1B68     		ldr	r3, [r3]
 2119 0d4e DB68     		ldr	r3, [r3, #12]
 2120 0d50 03F00203 		and	r3, r3, #2
 2121 0d54 002B     		cmp	r3, #0
 2122 0d56 E2D0     		beq	.L82
 2123              	.L80:
 2124              		.loc 1 1202 0
 2125 0d58 019B     		ldr	r3, [sp, #4]
 2126 0d5a 1B68     		ldr	r3, [r3]
 2127 0d5c FF22     		movs	r2, #255
 2128 0d5e 5A62     		str	r2, [r3, #36]
 2129              		.loc 1 1204 0
 2130 0d60 019B     		ldr	r3, [sp, #4]
 2131 0d62 0122     		movs	r2, #1
 2132 0d64 83F82120 		strb	r2, [r3, #33]
 2133              		.loc 1 1207 0
 2134 0d68 019B     		ldr	r3, [sp, #4]
 2135 0d6a 0022     		movs	r2, #0
 2136 0d6c 83F82020 		strb	r2, [r3, #32]
 2137              		.loc 1 1209 0
 2138 0d70 0023     		movs	r3, #0
 2139              	.L76:
 2140              		.loc 1 1210 0
 2141 0d72 1846     		mov	r0, r3
 2142 0d74 05B0     		add	sp, sp, #20
 2143              		@ sp needed
 2144 0d76 5DF804FB 		ldr	pc, [sp], #4
 2145              		.cfi_endproc
 2146              	.LFE135:
 2147              		.size	HAL_RTC_DeactivateAlarm, .-HAL_RTC_DeactivateAlarm
 2148 0d7a 00BF     		.align	2
 2149 0d7c AFF30080 		.p2align 4,,15
 2150              		.global	HAL_RTC_GetAlarm
 2151              		.thumb
 2152              		.thumb_func
 2153              		.type	HAL_RTC_GetAlarm, %function
 2154              	HAL_RTC_GetAlarm:
 2155              	.LFB136:
 2156              		.loc 1 1227 0
ARM GAS  /tmp/ccHRl1iB.s 			page 39


 2157              		.cfi_startproc
 2158              		@ args = 0, pretend = 0, frame = 24
 2159              		@ frame_needed = 0, uses_anonymous_args = 0
 2160 0d80 00B5     		push	{lr}
 2161              		.cfi_def_cfa_offset 4
 2162              		.cfi_offset 14, -4
 2163 0d82 87B0     		sub	sp, sp, #28
 2164              		.cfi_def_cfa_offset 32
 2165 0d84 0390     		str	r0, [sp, #12]
 2166 0d86 0291     		str	r1, [sp, #8]
 2167 0d88 0192     		str	r2, [sp, #4]
 2168 0d8a 0093     		str	r3, [sp]
 2169              		.loc 1 1228 0
 2170 0d8c 0023     		movs	r3, #0
 2171 0d8e 0593     		str	r3, [sp, #20]
 2172 0d90 0023     		movs	r3, #0
 2173 0d92 0493     		str	r3, [sp, #16]
 2174              		.loc 1 1234 0
 2175 0d94 019B     		ldr	r3, [sp, #4]
 2176 0d96 B3F5807F 		cmp	r3, #256
 2177 0d9a 0ED1     		bne	.L84
 2178              		.loc 1 1237 0
 2179 0d9c 029B     		ldr	r3, [sp, #8]
 2180 0d9e 4FF48072 		mov	r2, #256
 2181 0da2 5A62     		str	r2, [r3, #36]
 2182              		.loc 1 1239 0
 2183 0da4 039B     		ldr	r3, [sp, #12]
 2184 0da6 1B68     		ldr	r3, [r3]
 2185 0da8 DB69     		ldr	r3, [r3, #28]
 2186 0daa 0593     		str	r3, [sp, #20]
 2187              		.loc 1 1240 0
 2188 0dac 039B     		ldr	r3, [sp, #12]
 2189 0dae 1B68     		ldr	r3, [r3]
 2190 0db0 5B6C     		ldr	r3, [r3, #68]
 2191 0db2 C3F30E03 		ubfx	r3, r3, #0, #15
 2192 0db6 0493     		str	r3, [sp, #16]
 2193 0db8 0DE0     		b	.L85
 2194              	.L84:
 2195              		.loc 1 1244 0
 2196 0dba 029B     		ldr	r3, [sp, #8]
 2197 0dbc 4FF40072 		mov	r2, #512
 2198 0dc0 5A62     		str	r2, [r3, #36]
 2199              		.loc 1 1246 0
 2200 0dc2 039B     		ldr	r3, [sp, #12]
 2201 0dc4 1B68     		ldr	r3, [r3]
 2202 0dc6 1B6A     		ldr	r3, [r3, #32]
 2203 0dc8 0593     		str	r3, [sp, #20]
 2204              		.loc 1 1247 0
 2205 0dca 039B     		ldr	r3, [sp, #12]
 2206 0dcc 1B68     		ldr	r3, [r3]
 2207 0dce 9B6C     		ldr	r3, [r3, #72]
 2208 0dd0 C3F30E03 		ubfx	r3, r3, #0, #15
 2209 0dd4 0493     		str	r3, [sp, #16]
 2210              	.L85:
 2211              		.loc 1 1252 0
 2212 0dd6 059B     		ldr	r3, [sp, #20]
 2213 0dd8 03F47C13 		and	r3, r3, #4128768
ARM GAS  /tmp/ccHRl1iB.s 			page 40


 2214 0ddc 1B0C     		lsrs	r3, r3, #16
 2215 0dde DAB2     		uxtb	r2, r3
 2216 0de0 029B     		ldr	r3, [sp, #8]
 2217 0de2 1A70     		strb	r2, [r3]
 2218              		.loc 1 1253 0
 2219 0de4 059B     		ldr	r3, [sp, #20]
 2220 0de6 03F4FE43 		and	r3, r3, #32512
 2221 0dea 1B0A     		lsrs	r3, r3, #8
 2222 0dec DAB2     		uxtb	r2, r3
 2223 0dee 029B     		ldr	r3, [sp, #8]
 2224 0df0 5A70     		strb	r2, [r3, #1]
 2225              		.loc 1 1254 0
 2226 0df2 059B     		ldr	r3, [sp, #20]
 2227 0df4 DBB2     		uxtb	r3, r3
 2228 0df6 03F07F03 		and	r3, r3, #127
 2229 0dfa DAB2     		uxtb	r2, r3
 2230 0dfc 029B     		ldr	r3, [sp, #8]
 2231 0dfe 9A70     		strb	r2, [r3, #2]
 2232              		.loc 1 1255 0
 2233 0e00 059B     		ldr	r3, [sp, #20]
 2234 0e02 03F48003 		and	r3, r3, #4194304
 2235 0e06 1B0C     		lsrs	r3, r3, #16
 2236 0e08 DAB2     		uxtb	r2, r3
 2237 0e0a 029B     		ldr	r3, [sp, #8]
 2238 0e0c DA70     		strb	r2, [r3, #3]
 2239              		.loc 1 1256 0
 2240 0e0e 029B     		ldr	r3, [sp, #8]
 2241 0e10 049A     		ldr	r2, [sp, #16]
 2242 0e12 5A60     		str	r2, [r3, #4]
 2243              		.loc 1 1257 0
 2244 0e14 059B     		ldr	r3, [sp, #20]
 2245 0e16 03F07C53 		and	r3, r3, #1056964608
 2246 0e1a 1B0E     		lsrs	r3, r3, #24
 2247 0e1c DAB2     		uxtb	r2, r3
 2248 0e1e 029B     		ldr	r3, [sp, #8]
 2249 0e20 83F82020 		strb	r2, [r3, #32]
 2250              		.loc 1 1258 0
 2251 0e24 059B     		ldr	r3, [sp, #20]
 2252 0e26 03F08042 		and	r2, r3, #1073741824
 2253 0e2a 029B     		ldr	r3, [sp, #8]
 2254 0e2c DA61     		str	r2, [r3, #28]
 2255              		.loc 1 1259 0
 2256 0e2e 059B     		ldr	r3, [sp, #20]
 2257 0e30 03F08032 		and	r2, r3, #-2139062144
 2258 0e34 029B     		ldr	r3, [sp, #8]
 2259 0e36 5A61     		str	r2, [r3, #20]
 2260              		.loc 1 1261 0
 2261 0e38 009B     		ldr	r3, [sp]
 2262 0e3a 002B     		cmp	r3, #0
 2263 0e3c 25D1     		bne	.L86
 2264              		.loc 1 1263 0
 2265 0e3e 029B     		ldr	r3, [sp, #8]
 2266 0e40 1B78     		ldrb	r3, [r3]	@ zero_extendqisi2
 2267 0e42 1846     		mov	r0, r3
 2268 0e44 FFF7FEFF 		bl	RTC_Bcd2ToByte
 2269 0e48 0346     		mov	r3, r0
 2270 0e4a 1A46     		mov	r2, r3
ARM GAS  /tmp/ccHRl1iB.s 			page 41


 2271 0e4c 029B     		ldr	r3, [sp, #8]
 2272 0e4e 1A70     		strb	r2, [r3]
 2273              		.loc 1 1264 0
 2274 0e50 029B     		ldr	r3, [sp, #8]
 2275 0e52 5B78     		ldrb	r3, [r3, #1]	@ zero_extendqisi2
 2276 0e54 1846     		mov	r0, r3
 2277 0e56 FFF7FEFF 		bl	RTC_Bcd2ToByte
 2278 0e5a 0346     		mov	r3, r0
 2279 0e5c 1A46     		mov	r2, r3
 2280 0e5e 029B     		ldr	r3, [sp, #8]
 2281 0e60 5A70     		strb	r2, [r3, #1]
 2282              		.loc 1 1265 0
 2283 0e62 029B     		ldr	r3, [sp, #8]
 2284 0e64 9B78     		ldrb	r3, [r3, #2]	@ zero_extendqisi2
 2285 0e66 1846     		mov	r0, r3
 2286 0e68 FFF7FEFF 		bl	RTC_Bcd2ToByte
 2287 0e6c 0346     		mov	r3, r0
 2288 0e6e 1A46     		mov	r2, r3
 2289 0e70 029B     		ldr	r3, [sp, #8]
 2290 0e72 9A70     		strb	r2, [r3, #2]
 2291              		.loc 1 1266 0
 2292 0e74 029B     		ldr	r3, [sp, #8]
 2293 0e76 93F82030 		ldrb	r3, [r3, #32]	@ zero_extendqisi2
 2294 0e7a 1846     		mov	r0, r3
 2295 0e7c FFF7FEFF 		bl	RTC_Bcd2ToByte
 2296 0e80 0346     		mov	r3, r0
 2297 0e82 1A46     		mov	r2, r3
 2298 0e84 029B     		ldr	r3, [sp, #8]
 2299 0e86 83F82020 		strb	r2, [r3, #32]
 2300              	.L86:
 2301              		.loc 1 1269 0
 2302 0e8a 0023     		movs	r3, #0
 2303              		.loc 1 1270 0
 2304 0e8c 1846     		mov	r0, r3
 2305 0e8e 07B0     		add	sp, sp, #28
 2306              		@ sp needed
 2307 0e90 5DF804FB 		ldr	pc, [sp], #4
 2308              		.cfi_endproc
 2309              	.LFE136:
 2310              		.size	HAL_RTC_GetAlarm, .-HAL_RTC_GetAlarm
 2311              		.align	2
 2312 0e94 AFF30080 		.p2align 4,,15
 2312      AFF30080 
 2312      AFF30080 
 2313              		.global	HAL_RTC_AlarmIRQHandler
 2314              		.thumb
 2315              		.thumb_func
 2316              		.type	HAL_RTC_AlarmIRQHandler, %function
 2317              	HAL_RTC_AlarmIRQHandler:
 2318              	.LFB137:
 2319              		.loc 1 1278 0
 2320              		.cfi_startproc
 2321              		@ args = 0, pretend = 0, frame = 8
 2322              		@ frame_needed = 0, uses_anonymous_args = 0
 2323 0ea0 00B5     		push	{lr}
 2324              		.cfi_def_cfa_offset 4
 2325              		.cfi_offset 14, -4
ARM GAS  /tmp/ccHRl1iB.s 			page 42


 2326 0ea2 83B0     		sub	sp, sp, #12
 2327              		.cfi_def_cfa_offset 16
 2328 0ea4 0190     		str	r0, [sp, #4]
 2329              		.loc 1 1280 0
 2330 0ea6 019B     		ldr	r3, [sp, #4]
 2331 0ea8 1B68     		ldr	r3, [r3]
 2332 0eaa 9B68     		ldr	r3, [r3, #8]
 2333 0eac 03F48053 		and	r3, r3, #4096
 2334 0eb0 002B     		cmp	r3, #0
 2335 0eb2 12D0     		beq	.L89
 2336              		.loc 1 1283 0
 2337 0eb4 019B     		ldr	r3, [sp, #4]
 2338 0eb6 1B68     		ldr	r3, [r3]
 2339 0eb8 DB68     		ldr	r3, [r3, #12]
 2340 0eba 03F48073 		and	r3, r3, #256
 2341 0ebe 002B     		cmp	r3, #0
 2342 0ec0 0BD0     		beq	.L89
 2343              		.loc 1 1286 0
 2344 0ec2 0198     		ldr	r0, [sp, #4]
 2345 0ec4 FFF7FEFF 		bl	HAL_RTC_AlarmAEventCallback
 2346              		.loc 1 1289 0
 2347 0ec8 019B     		ldr	r3, [sp, #4]
 2348 0eca 1B68     		ldr	r3, [r3]
 2349 0ecc 019A     		ldr	r2, [sp, #4]
 2350 0ece 1268     		ldr	r2, [r2]
 2351 0ed0 D268     		ldr	r2, [r2, #12]
 2352 0ed2 D2B2     		uxtb	r2, r2
 2353 0ed4 62F4C072 		orn	r2, r2, #384
 2354 0ed8 DA60     		str	r2, [r3, #12]
 2355              	.L89:
 2356              		.loc 1 1294 0
 2357 0eda 019B     		ldr	r3, [sp, #4]
 2358 0edc 1B68     		ldr	r3, [r3]
 2359 0ede 9B68     		ldr	r3, [r3, #8]
 2360 0ee0 03F40053 		and	r3, r3, #8192
 2361 0ee4 002B     		cmp	r3, #0
 2362 0ee6 12D0     		beq	.L90
 2363              		.loc 1 1297 0
 2364 0ee8 019B     		ldr	r3, [sp, #4]
 2365 0eea 1B68     		ldr	r3, [r3]
 2366 0eec DB68     		ldr	r3, [r3, #12]
 2367 0eee 03F40073 		and	r3, r3, #512
 2368 0ef2 002B     		cmp	r3, #0
 2369 0ef4 0BD0     		beq	.L90
 2370              		.loc 1 1300 0
 2371 0ef6 0198     		ldr	r0, [sp, #4]
 2372 0ef8 FFF7FEFF 		bl	HAL_RTCEx_AlarmBEventCallback
 2373              		.loc 1 1303 0
 2374 0efc 019B     		ldr	r3, [sp, #4]
 2375 0efe 1B68     		ldr	r3, [r3]
 2376 0f00 019A     		ldr	r2, [sp, #4]
 2377 0f02 1268     		ldr	r2, [r2]
 2378 0f04 D268     		ldr	r2, [r2, #12]
 2379 0f06 D2B2     		uxtb	r2, r2
 2380 0f08 62F42072 		orn	r2, r2, #640
 2381 0f0c DA60     		str	r2, [r3, #12]
 2382              	.L90:
ARM GAS  /tmp/ccHRl1iB.s 			page 43


 2383              		.loc 1 1308 0
 2384 0f0e 054B     		ldr	r3, .L91
 2385 0f10 4FF48022 		mov	r2, #262144
 2386 0f14 5A61     		str	r2, [r3, #20]
 2387              		.loc 1 1311 0
 2388 0f16 019B     		ldr	r3, [sp, #4]
 2389 0f18 0122     		movs	r2, #1
 2390 0f1a 83F82120 		strb	r2, [r3, #33]
 2391              		.loc 1 1312 0
 2392 0f1e 03B0     		add	sp, sp, #12
 2393              		@ sp needed
 2394 0f20 5DF804FB 		ldr	pc, [sp], #4
 2395              	.L92:
 2396              		.align	2
 2397              	.L91:
 2398 0f24 00040140 		.word	1073808384
 2399              		.cfi_endproc
 2400              	.LFE137:
 2401              		.size	HAL_RTC_AlarmIRQHandler, .-HAL_RTC_AlarmIRQHandler
 2402              		.align	2
 2403 0f28 AFF30080 		.p2align 4,,15
 2403      AFF30080 
 2404              		.weak	HAL_RTC_AlarmAEventCallback
 2405              		.thumb
 2406              		.thumb_func
 2407              		.type	HAL_RTC_AlarmAEventCallback, %function
 2408              	HAL_RTC_AlarmAEventCallback:
 2409              	.LFB138:
 2410              		.loc 1 1320 0
 2411              		.cfi_startproc
 2412              		@ args = 0, pretend = 0, frame = 8
 2413              		@ frame_needed = 0, uses_anonymous_args = 0
 2414              		@ link register save eliminated.
 2415 0f30 82B0     		sub	sp, sp, #8
 2416              		.cfi_def_cfa_offset 8
 2417 0f32 0190     		str	r0, [sp, #4]
 2418              		.loc 1 1327 0
 2419 0f34 02B0     		add	sp, sp, #8
 2420              		@ sp needed
 2421 0f36 7047     		bx	lr
 2422              		.cfi_endproc
 2423              	.LFE138:
 2424              		.size	HAL_RTC_AlarmAEventCallback, .-HAL_RTC_AlarmAEventCallback
 2425              		.align	2
 2426 0f38 AFF30080 		.p2align 4,,15
 2426      AFF30080 
 2427              		.global	HAL_RTC_PollForAlarmAEvent
 2428              		.thumb
 2429              		.thumb_func
 2430              		.type	HAL_RTC_PollForAlarmAEvent, %function
 2431              	HAL_RTC_PollForAlarmAEvent:
 2432              	.LFB139:
 2433              		.loc 1 1336 0
 2434              		.cfi_startproc
 2435              		@ args = 0, pretend = 0, frame = 16
 2436              		@ frame_needed = 0, uses_anonymous_args = 0
 2437 0f40 00B5     		push	{lr}
ARM GAS  /tmp/ccHRl1iB.s 			page 44


 2438              		.cfi_def_cfa_offset 4
 2439              		.cfi_offset 14, -4
 2440 0f42 85B0     		sub	sp, sp, #20
 2441              		.cfi_def_cfa_offset 24
 2442 0f44 0190     		str	r0, [sp, #4]
 2443 0f46 0091     		str	r1, [sp]
 2444              		.loc 1 1338 0
 2445 0f48 FFF7FEFF 		bl	HAL_GetTick
 2446 0f4c 0390     		str	r0, [sp, #12]
 2447              		.loc 1 1340 0
 2448 0f4e 14E0     		b	.L95
 2449              	.L98:
 2450              		.loc 1 1342 0
 2451 0f50 009B     		ldr	r3, [sp]
 2452 0f52 B3F1FF3F 		cmp	r3, #-1
 2453 0f56 10D0     		beq	.L95
 2454              		.loc 1 1344 0
 2455 0f58 009B     		ldr	r3, [sp]
 2456 0f5a 002B     		cmp	r3, #0
 2457 0f5c 07D0     		beq	.L96
 2458              		.loc 1 1344 0 is_stmt 0 discriminator 1
 2459 0f5e FFF7FEFF 		bl	HAL_GetTick
 2460 0f62 0246     		mov	r2, r0
 2461 0f64 039B     		ldr	r3, [sp, #12]
 2462 0f66 D21A     		subs	r2, r2, r3
 2463 0f68 009B     		ldr	r3, [sp]
 2464 0f6a 9A42     		cmp	r2, r3
 2465 0f6c 05D9     		bls	.L95
 2466              	.L96:
 2467              		.loc 1 1346 0 is_stmt 1
 2468 0f6e 019B     		ldr	r3, [sp, #4]
 2469 0f70 0322     		movs	r2, #3
 2470 0f72 83F82120 		strb	r2, [r3, #33]
 2471              		.loc 1 1347 0
 2472 0f76 0323     		movs	r3, #3
 2473 0f78 14E0     		b	.L97
 2474              	.L95:
 2475              		.loc 1 1340 0 discriminator 1
 2476 0f7a 019B     		ldr	r3, [sp, #4]
 2477 0f7c 1B68     		ldr	r3, [r3]
 2478 0f7e DB68     		ldr	r3, [r3, #12]
 2479 0f80 03F48073 		and	r3, r3, #256
 2480 0f84 002B     		cmp	r3, #0
 2481 0f86 E3D0     		beq	.L98
 2482              		.loc 1 1353 0
 2483 0f88 019B     		ldr	r3, [sp, #4]
 2484 0f8a 1B68     		ldr	r3, [r3]
 2485 0f8c 019A     		ldr	r2, [sp, #4]
 2486 0f8e 1268     		ldr	r2, [r2]
 2487 0f90 D268     		ldr	r2, [r2, #12]
 2488 0f92 D2B2     		uxtb	r2, r2
 2489 0f94 62F4C072 		orn	r2, r2, #384
 2490 0f98 DA60     		str	r2, [r3, #12]
 2491              		.loc 1 1356 0
 2492 0f9a 019B     		ldr	r3, [sp, #4]
 2493 0f9c 0122     		movs	r2, #1
 2494 0f9e 83F82120 		strb	r2, [r3, #33]
ARM GAS  /tmp/ccHRl1iB.s 			page 45


 2495              		.loc 1 1358 0
 2496 0fa2 0023     		movs	r3, #0
 2497              	.L97:
 2498              		.loc 1 1359 0
 2499 0fa4 1846     		mov	r0, r3
 2500 0fa6 05B0     		add	sp, sp, #20
 2501              		@ sp needed
 2502 0fa8 5DF804FB 		ldr	pc, [sp], #4
 2503              		.cfi_endproc
 2504              	.LFE139:
 2505              		.size	HAL_RTC_PollForAlarmAEvent, .-HAL_RTC_PollForAlarmAEvent
 2506              		.align	2
 2507 0fac AFF30080 		.p2align 4,,15
 2508              		.global	HAL_RTC_WaitForSynchro
 2509              		.thumb
 2510              		.thumb_func
 2511              		.type	HAL_RTC_WaitForSynchro, %function
 2512              	HAL_RTC_WaitForSynchro:
 2513              	.LFB140:
 2514              		.loc 1 1395 0
 2515              		.cfi_startproc
 2516              		@ args = 0, pretend = 0, frame = 16
 2517              		@ frame_needed = 0, uses_anonymous_args = 0
 2518 0fb0 00B5     		push	{lr}
 2519              		.cfi_def_cfa_offset 4
 2520              		.cfi_offset 14, -4
 2521 0fb2 85B0     		sub	sp, sp, #20
 2522              		.cfi_def_cfa_offset 24
 2523 0fb4 0190     		str	r0, [sp, #4]
 2524              		.loc 1 1396 0
 2525 0fb6 0023     		movs	r3, #0
 2526 0fb8 0393     		str	r3, [sp, #12]
 2527              		.loc 1 1399 0
 2528 0fba 019B     		ldr	r3, [sp, #4]
 2529 0fbc 1B68     		ldr	r3, [r3]
 2530 0fbe 019A     		ldr	r2, [sp, #4]
 2531 0fc0 1268     		ldr	r2, [r2]
 2532 0fc2 D268     		ldr	r2, [r2, #12]
 2533 0fc4 22F0A002 		bic	r2, r2, #160
 2534 0fc8 DA60     		str	r2, [r3, #12]
 2535              		.loc 1 1401 0
 2536 0fca FFF7FEFF 		bl	HAL_GetTick
 2537 0fce 0390     		str	r0, [sp, #12]
 2538              		.loc 1 1404 0
 2539 0fd0 09E0     		b	.L100
 2540              	.L102:
 2541              		.loc 1 1406 0
 2542 0fd2 FFF7FEFF 		bl	HAL_GetTick
 2543 0fd6 0246     		mov	r2, r0
 2544 0fd8 039B     		ldr	r3, [sp, #12]
 2545 0fda D31A     		subs	r3, r2, r3
 2546 0fdc B3F57A7F 		cmp	r3, #1000
 2547 0fe0 01D9     		bls	.L100
 2548              		.loc 1 1408 0
 2549 0fe2 0323     		movs	r3, #3
 2550 0fe4 07E0     		b	.L101
 2551              	.L100:
ARM GAS  /tmp/ccHRl1iB.s 			page 46


 2552              		.loc 1 1404 0 discriminator 1
 2553 0fe6 019B     		ldr	r3, [sp, #4]
 2554 0fe8 1B68     		ldr	r3, [r3]
 2555 0fea DB68     		ldr	r3, [r3, #12]
 2556 0fec 03F02003 		and	r3, r3, #32
 2557 0ff0 002B     		cmp	r3, #0
 2558 0ff2 EED0     		beq	.L102
 2559              		.loc 1 1412 0
 2560 0ff4 0023     		movs	r3, #0
 2561              	.L101:
 2562              		.loc 1 1413 0
 2563 0ff6 1846     		mov	r0, r3
 2564 0ff8 05B0     		add	sp, sp, #20
 2565              		@ sp needed
 2566 0ffa 5DF804FB 		ldr	pc, [sp], #4
 2567              		.cfi_endproc
 2568              	.LFE140:
 2569              		.size	HAL_RTC_WaitForSynchro, .-HAL_RTC_WaitForSynchro
 2570 0ffe 00BF     		.align	2
 2571              		.p2align 4,,15
 2572              		.global	HAL_RTC_GetState
 2573              		.thumb
 2574              		.thumb_func
 2575              		.type	HAL_RTC_GetState, %function
 2576              	HAL_RTC_GetState:
 2577              	.LFB141:
 2578              		.loc 1 1439 0
 2579              		.cfi_startproc
 2580              		@ args = 0, pretend = 0, frame = 8
 2581              		@ frame_needed = 0, uses_anonymous_args = 0
 2582              		@ link register save eliminated.
 2583 1000 82B0     		sub	sp, sp, #8
 2584              		.cfi_def_cfa_offset 8
 2585 1002 0190     		str	r0, [sp, #4]
 2586              		.loc 1 1441 0
 2587 1004 019B     		ldr	r3, [sp, #4]
 2588 1006 93F82130 		ldrb	r3, [r3, #33]
 2589 100a DBB2     		uxtb	r3, r3
 2590              		.loc 1 1442 0
 2591 100c 1846     		mov	r0, r3
 2592 100e 02B0     		add	sp, sp, #8
 2593              		@ sp needed
 2594 1010 7047     		bx	lr
 2595              		.cfi_endproc
 2596              	.LFE141:
 2597              		.size	HAL_RTC_GetState, .-HAL_RTC_GetState
 2598 1012 00BF     		.align	2
 2599 1014 AFF30080 		.p2align 4,,15
 2599      AFF30080 
 2599      AFF30080 
 2600              		.global	RTC_EnterInitMode
 2601              		.thumb
 2602              		.thumb_func
 2603              		.type	RTC_EnterInitMode, %function
 2604              	RTC_EnterInitMode:
 2605              	.LFB142:
 2606              		.loc 1 1463 0
ARM GAS  /tmp/ccHRl1iB.s 			page 47


 2607              		.cfi_startproc
 2608              		@ args = 0, pretend = 0, frame = 16
 2609              		@ frame_needed = 0, uses_anonymous_args = 0
 2610 1020 00B5     		push	{lr}
 2611              		.cfi_def_cfa_offset 4
 2612              		.cfi_offset 14, -4
 2613 1022 85B0     		sub	sp, sp, #20
 2614              		.cfi_def_cfa_offset 24
 2615 1024 0190     		str	r0, [sp, #4]
 2616              		.loc 1 1464 0
 2617 1026 0023     		movs	r3, #0
 2618 1028 0393     		str	r3, [sp, #12]
 2619              		.loc 1 1467 0
 2620 102a 019B     		ldr	r3, [sp, #4]
 2621 102c 1B68     		ldr	r3, [r3]
 2622 102e DB68     		ldr	r3, [r3, #12]
 2623 1030 03F04003 		and	r3, r3, #64
 2624 1034 002B     		cmp	r3, #0
 2625 1036 19D1     		bne	.L106
 2626              		.loc 1 1470 0
 2627 1038 019B     		ldr	r3, [sp, #4]
 2628 103a 1B68     		ldr	r3, [r3]
 2629 103c 4FF0FF32 		mov	r2, #-1
 2630 1040 DA60     		str	r2, [r3, #12]
 2631              		.loc 1 1472 0
 2632 1042 FFF7FEFF 		bl	HAL_GetTick
 2633 1046 0390     		str	r0, [sp, #12]
 2634              		.loc 1 1474 0
 2635 1048 09E0     		b	.L107
 2636              	.L109:
 2637              		.loc 1 1476 0
 2638 104a FFF7FEFF 		bl	HAL_GetTick
 2639 104e 0246     		mov	r2, r0
 2640 1050 039B     		ldr	r3, [sp, #12]
 2641 1052 D31A     		subs	r3, r2, r3
 2642 1054 B3F57A7F 		cmp	r3, #1000
 2643 1058 01D9     		bls	.L107
 2644              		.loc 1 1478 0
 2645 105a 0323     		movs	r3, #3
 2646 105c 07E0     		b	.L108
 2647              	.L107:
 2648              		.loc 1 1474 0 discriminator 1
 2649 105e 019B     		ldr	r3, [sp, #4]
 2650 1060 1B68     		ldr	r3, [r3]
 2651 1062 DB68     		ldr	r3, [r3, #12]
 2652 1064 03F04003 		and	r3, r3, #64
 2653 1068 002B     		cmp	r3, #0
 2654 106a EED0     		beq	.L109
 2655              	.L106:
 2656              		.loc 1 1483 0
 2657 106c 0023     		movs	r3, #0
 2658              	.L108:
 2659              		.loc 1 1484 0
 2660 106e 1846     		mov	r0, r3
 2661 1070 05B0     		add	sp, sp, #20
 2662              		@ sp needed
 2663 1072 5DF804FB 		ldr	pc, [sp], #4
ARM GAS  /tmp/ccHRl1iB.s 			page 48


 2664              		.cfi_endproc
 2665              	.LFE142:
 2666              		.size	RTC_EnterInitMode, .-RTC_EnterInitMode
 2667 1076 00BF     		.align	2
 2668 1078 AFF30080 		.p2align 4,,15
 2668      AFF30080 
 2669              		.global	RTC_ByteToBcd2
 2670              		.thumb
 2671              		.thumb_func
 2672              		.type	RTC_ByteToBcd2, %function
 2673              	RTC_ByteToBcd2:
 2674              	.LFB143:
 2675              		.loc 1 1493 0
 2676              		.cfi_startproc
 2677              		@ args = 0, pretend = 0, frame = 16
 2678              		@ frame_needed = 0, uses_anonymous_args = 0
 2679              		@ link register save eliminated.
 2680 1080 84B0     		sub	sp, sp, #16
 2681              		.cfi_def_cfa_offset 16
 2682 1082 0346     		mov	r3, r0
 2683 1084 8DF80730 		strb	r3, [sp, #7]
 2684              		.loc 1 1494 0
 2685 1088 0023     		movs	r3, #0
 2686 108a 0393     		str	r3, [sp, #12]
 2687              		.loc 1 1496 0
 2688 108c 07E0     		b	.L111
 2689              	.L112:
 2690              		.loc 1 1498 0
 2691 108e 039B     		ldr	r3, [sp, #12]
 2692 1090 0133     		adds	r3, r3, #1
 2693 1092 0393     		str	r3, [sp, #12]
 2694              		.loc 1 1499 0
 2695 1094 9DF80730 		ldrb	r3, [sp, #7]
 2696 1098 0A3B     		subs	r3, r3, #10
 2697 109a 8DF80730 		strb	r3, [sp, #7]
 2698              	.L111:
 2699              		.loc 1 1496 0 discriminator 1
 2700 109e 9DF80730 		ldrb	r3, [sp, #7]	@ zero_extendqisi2
 2701 10a2 092B     		cmp	r3, #9
 2702 10a4 F3D8     		bhi	.L112
 2703              		.loc 1 1502 0
 2704 10a6 039B     		ldr	r3, [sp, #12]
 2705 10a8 DBB2     		uxtb	r3, r3
 2706 10aa 1B01     		lsls	r3, r3, #4
 2707 10ac DAB2     		uxtb	r2, r3
 2708 10ae 9DF80730 		ldrb	r3, [sp, #7]
 2709 10b2 1343     		orrs	r3, r3, r2
 2710 10b4 DBB2     		uxtb	r3, r3
 2711              		.loc 1 1503 0
 2712 10b6 1846     		mov	r0, r3
 2713 10b8 04B0     		add	sp, sp, #16
 2714              		@ sp needed
 2715 10ba 7047     		bx	lr
 2716              		.cfi_endproc
 2717              	.LFE143:
 2718              		.size	RTC_ByteToBcd2, .-RTC_ByteToBcd2
 2719              		.align	2
ARM GAS  /tmp/ccHRl1iB.s 			page 49


 2720 10bc AFF30080 		.p2align 4,,15
 2721              		.global	RTC_Bcd2ToByte
 2722              		.thumb
 2723              		.thumb_func
 2724              		.type	RTC_Bcd2ToByte, %function
 2725              	RTC_Bcd2ToByte:
 2726              	.LFB144:
 2727              		.loc 1 1511 0
 2728              		.cfi_startproc
 2729              		@ args = 0, pretend = 0, frame = 16
 2730              		@ frame_needed = 0, uses_anonymous_args = 0
 2731              		@ link register save eliminated.
 2732 10c0 84B0     		sub	sp, sp, #16
 2733              		.cfi_def_cfa_offset 16
 2734 10c2 0346     		mov	r3, r0
 2735 10c4 8DF80730 		strb	r3, [sp, #7]
 2736              		.loc 1 1512 0
 2737 10c8 0023     		movs	r3, #0
 2738 10ca 0393     		str	r3, [sp, #12]
 2739              		.loc 1 1513 0
 2740 10cc 9DF80730 		ldrb	r3, [sp, #7]	@ zero_extendqisi2
 2741 10d0 1B09     		lsrs	r3, r3, #4
 2742 10d2 DBB2     		uxtb	r3, r3
 2743 10d4 1A46     		mov	r2, r3
 2744 10d6 1346     		mov	r3, r2
 2745 10d8 9B00     		lsls	r3, r3, #2
 2746 10da 1344     		add	r3, r3, r2
 2747 10dc 5B00     		lsls	r3, r3, #1
 2748 10de 0393     		str	r3, [sp, #12]
 2749              		.loc 1 1514 0
 2750 10e0 9DF80730 		ldrb	r3, [sp, #7]
 2751 10e4 03F00F03 		and	r3, r3, #15
 2752 10e8 DAB2     		uxtb	r2, r3
 2753 10ea 039B     		ldr	r3, [sp, #12]
 2754 10ec DBB2     		uxtb	r3, r3
 2755 10ee 1344     		add	r3, r3, r2
 2756 10f0 DBB2     		uxtb	r3, r3
 2757              		.loc 1 1515 0
 2758 10f2 1846     		mov	r0, r3
 2759 10f4 04B0     		add	sp, sp, #16
 2760              		@ sp needed
 2761 10f6 7047     		bx	lr
 2762              		.cfi_endproc
 2763              	.LFE144:
 2764              		.size	RTC_Bcd2ToByte, .-RTC_Bcd2ToByte
 2765              	.Letext0:
 2766              		.file 2 "/nfs/nfs5/home/research/hardware/arm2/gcc-arm-embedded/gcc-arm-none-eabi-4_8-2014q2/arm-n
 2767              		.file 3 "/nfs/nfs5/home/research/hardware/arm2/gcc-arm-embedded/gcc-arm-none-eabi-4_8-2014q2/arm-n
 2768              		.file 4 "../../../../../../ChibiOS/os/ext/CMSIS/ST/STM32L4xx/stm32l476xx.h"
 2769              		.file 5 "../../../../../../ChibiOS/os/ext/CMSIS/ST/STM32L4xx/stm32l4xx.h"
 2770              		.file 6 "../../../../../Drivers/STM32L4xx_HAL_Driver/Inc/stm32l4xx_hal_def.h"
 2771              		.file 7 "../../../../../Drivers/STM32L4xx_HAL_Driver/Inc/stm32l4xx_hal_rtc.h"
 2772              		.file 8 "../../../../../../ChibiOS/os/ext/CMSIS/include/core_cm4.h"
 2773 10f8 AFF30080 		.section	.debug_info,"",%progbits
 2773      AFF30080 
 2774              	.Ldebug_info0:
 2775 0000 180C0000 		.4byte	0xc18
ARM GAS  /tmp/ccHRl1iB.s 			page 50


 2776 0004 0400     		.2byte	0x4
 2777 0006 00000000 		.4byte	.Ldebug_abbrev0
 2778 000a 04       		.byte	0x4
 2779 000b 01       		.uleb128 0x1
 2780 000c 15000000 		.4byte	.LASF157
 2781 0010 01       		.byte	0x1
 2782 0011 0A060000 		.4byte	.LASF158
 2783 0015 09030000 		.4byte	.LASF159
 2784 0019 00000000 		.4byte	.Ltext0
 2785 001d F8100000 		.4byte	.Letext0-.Ltext0
 2786 0021 00000000 		.4byte	.Ldebug_line0
 2787 0025 02       		.uleb128 0x2
 2788 0026 01       		.byte	0x1
 2789 0027 06       		.byte	0x6
 2790 0028 03020000 		.4byte	.LASF0
 2791 002c 03       		.uleb128 0x3
 2792 002d 00010000 		.4byte	.LASF4
 2793 0031 02       		.byte	0x2
 2794 0032 1C       		.byte	0x1c
 2795 0033 37000000 		.4byte	0x37
 2796 0037 02       		.uleb128 0x2
 2797 0038 01       		.byte	0x1
 2798 0039 08       		.byte	0x8
 2799 003a CA050000 		.4byte	.LASF1
 2800 003e 02       		.uleb128 0x2
 2801 003f 02       		.byte	0x2
 2802 0040 05       		.byte	0x5
 2803 0041 D8050000 		.4byte	.LASF2
 2804 0045 02       		.uleb128 0x2
 2805 0046 02       		.byte	0x2
 2806 0047 07       		.byte	0x7
 2807 0048 74040000 		.4byte	.LASF3
 2808 004c 03       		.uleb128 0x3
 2809 004d DD040000 		.4byte	.LASF5
 2810 0051 02       		.byte	0x2
 2811 0052 37       		.byte	0x37
 2812 0053 57000000 		.4byte	0x57
 2813 0057 02       		.uleb128 0x2
 2814 0058 04       		.byte	0x4
 2815 0059 05       		.byte	0x5
 2816 005a 5C020000 		.4byte	.LASF6
 2817 005e 03       		.uleb128 0x3
 2818 005f E0020000 		.4byte	.LASF7
 2819 0063 02       		.byte	0x2
 2820 0064 38       		.byte	0x38
 2821 0065 69000000 		.4byte	0x69
 2822 0069 02       		.uleb128 0x2
 2823 006a 04       		.byte	0x4
 2824 006b 07       		.byte	0x7
 2825 006c 24040000 		.4byte	.LASF8
 2826 0070 02       		.uleb128 0x2
 2827 0071 08       		.byte	0x8
 2828 0072 05       		.byte	0x5
 2829 0073 F5010000 		.4byte	.LASF9
 2830 0077 02       		.uleb128 0x2
 2831 0078 08       		.byte	0x8
 2832 0079 07       		.byte	0x7
ARM GAS  /tmp/ccHRl1iB.s 			page 51


 2833 007a 4D010000 		.4byte	.LASF10
 2834 007e 04       		.uleb128 0x4
 2835 007f 04       		.byte	0x4
 2836 0080 05       		.byte	0x5
 2837 0081 696E7400 		.ascii	"int\000"
 2838 0085 02       		.uleb128 0x2
 2839 0086 04       		.byte	0x4
 2840 0087 07       		.byte	0x7
 2841 0088 82020000 		.4byte	.LASF11
 2842 008c 03       		.uleb128 0x3
 2843 008d A8070000 		.4byte	.LASF12
 2844 0091 03       		.byte	0x3
 2845 0092 2A       		.byte	0x2a
 2846 0093 2C000000 		.4byte	0x2c
 2847 0097 03       		.uleb128 0x3
 2848 0098 C2050000 		.4byte	.LASF13
 2849 009c 03       		.byte	0x3
 2850 009d 41       		.byte	0x41
 2851 009e 4C000000 		.4byte	0x4c
 2852 00a2 03       		.uleb128 0x3
 2853 00a3 80060000 		.4byte	.LASF14
 2854 00a7 03       		.byte	0x3
 2855 00a8 42       		.byte	0x42
 2856 00a9 5E000000 		.4byte	0x5e
 2857 00ad 02       		.uleb128 0x2
 2858 00ae 04       		.byte	0x4
 2859 00af 07       		.byte	0x7
 2860 00b0 A7060000 		.4byte	.LASF15
 2861 00b4 05       		.uleb128 0x5
 2862 00b5 A2000000 		.4byte	0xa2
 2863 00b9 06       		.uleb128 0x6
 2864 00ba 38       		.byte	0x38
 2865 00bb 04       		.byte	0x4
 2866 00bc C201     		.2byte	0x1c2
 2867 00be 79010000 		.4byte	0x179
 2868 00c2 07       		.uleb128 0x7
 2869 00c3 87040000 		.4byte	.LASF16
 2870 00c7 04       		.byte	0x4
 2871 00c8 C401     		.2byte	0x1c4
 2872 00ca B4000000 		.4byte	0xb4
 2873 00ce 00       		.byte	0
 2874 00cf 07       		.uleb128 0x7
 2875 00d0 E7000000 		.4byte	.LASF17
 2876 00d4 04       		.byte	0x4
 2877 00d5 C501     		.2byte	0x1c5
 2878 00d7 B4000000 		.4byte	0xb4
 2879 00db 04       		.byte	0x4
 2880 00dc 07       		.uleb128 0x7
 2881 00dd A9050000 		.4byte	.LASF18
 2882 00e1 04       		.byte	0x4
 2883 00e2 C601     		.2byte	0x1c6
 2884 00e4 B4000000 		.4byte	0xb4
 2885 00e8 08       		.byte	0x8
 2886 00e9 07       		.uleb128 0x7
 2887 00ea 1A010000 		.4byte	.LASF19
 2888 00ee 04       		.byte	0x4
 2889 00ef C701     		.2byte	0x1c7
ARM GAS  /tmp/ccHRl1iB.s 			page 52


 2890 00f1 B4000000 		.4byte	0xb4
 2891 00f5 0C       		.byte	0xc
 2892 00f6 07       		.uleb128 0x7
 2893 00f7 AA010000 		.4byte	.LASF20
 2894 00fb 04       		.byte	0x4
 2895 00fc C801     		.2byte	0x1c8
 2896 00fe B4000000 		.4byte	0xb4
 2897 0102 10       		.byte	0x10
 2898 0103 08       		.uleb128 0x8
 2899 0104 50523100 		.ascii	"PR1\000"
 2900 0108 04       		.byte	0x4
 2901 0109 C901     		.2byte	0x1c9
 2902 010b B4000000 		.4byte	0xb4
 2903 010f 14       		.byte	0x14
 2904 0110 07       		.uleb128 0x7
 2905 0111 98050000 		.4byte	.LASF21
 2906 0115 04       		.byte	0x4
 2907 0116 CA01     		.2byte	0x1ca
 2908 0118 A2000000 		.4byte	0xa2
 2909 011c 18       		.byte	0x18
 2910 011d 07       		.uleb128 0x7
 2911 011e 4E060000 		.4byte	.LASF22
 2912 0122 04       		.byte	0x4
 2913 0123 CB01     		.2byte	0x1cb
 2914 0125 A2000000 		.4byte	0xa2
 2915 0129 1C       		.byte	0x1c
 2916 012a 07       		.uleb128 0x7
 2917 012b 8C040000 		.4byte	.LASF23
 2918 012f 04       		.byte	0x4
 2919 0130 CC01     		.2byte	0x1cc
 2920 0132 B4000000 		.4byte	0xb4
 2921 0136 20       		.byte	0x20
 2922 0137 07       		.uleb128 0x7
 2923 0138 3E070000 		.4byte	.LASF24
 2924 013c 04       		.byte	0x4
 2925 013d CD01     		.2byte	0x1cd
 2926 013f B4000000 		.4byte	0xb4
 2927 0143 24       		.byte	0x24
 2928 0144 07       		.uleb128 0x7
 2929 0145 AF050000 		.4byte	.LASF25
 2930 0149 04       		.byte	0x4
 2931 014a CE01     		.2byte	0x1ce
 2932 014c B4000000 		.4byte	0xb4
 2933 0150 28       		.byte	0x28
 2934 0151 07       		.uleb128 0x7
 2935 0152 EB020000 		.4byte	.LASF26
 2936 0156 04       		.byte	0x4
 2937 0157 CF01     		.2byte	0x1cf
 2938 0159 B4000000 		.4byte	0xb4
 2939 015d 2C       		.byte	0x2c
 2940 015e 07       		.uleb128 0x7
 2941 015f 1F080000 		.4byte	.LASF27
 2942 0163 04       		.byte	0x4
 2943 0164 D001     		.2byte	0x1d0
 2944 0166 B4000000 		.4byte	0xb4
 2945 016a 30       		.byte	0x30
 2946 016b 08       		.uleb128 0x8
ARM GAS  /tmp/ccHRl1iB.s 			page 53


 2947 016c 50523200 		.ascii	"PR2\000"
 2948 0170 04       		.byte	0x4
 2949 0171 D101     		.2byte	0x1d1
 2950 0173 B4000000 		.4byte	0xb4
 2951 0177 34       		.byte	0x34
 2952 0178 00       		.byte	0
 2953 0179 09       		.uleb128 0x9
 2954 017a 0C080000 		.4byte	.LASF28
 2955 017e 04       		.byte	0x4
 2956 017f D201     		.2byte	0x1d2
 2957 0181 B9000000 		.4byte	0xb9
 2958 0185 06       		.uleb128 0x6
 2959 0186 D0       		.byte	0xd0
 2960 0187 04       		.byte	0x4
 2961 0188 EE02     		.2byte	0x2ee
 2962 018a 2F040000 		.4byte	0x42f
 2963 018e 08       		.uleb128 0x8
 2964 018f 545200   		.ascii	"TR\000"
 2965 0192 04       		.byte	0x4
 2966 0193 F002     		.2byte	0x2f0
 2967 0195 B4000000 		.4byte	0xb4
 2968 0199 00       		.byte	0
 2969 019a 08       		.uleb128 0x8
 2970 019b 445200   		.ascii	"DR\000"
 2971 019e 04       		.byte	0x4
 2972 019f F102     		.2byte	0x2f1
 2973 01a1 B4000000 		.4byte	0xb4
 2974 01a5 04       		.byte	0x4
 2975 01a6 08       		.uleb128 0x8
 2976 01a7 435200   		.ascii	"CR\000"
 2977 01aa 04       		.byte	0x4
 2978 01ab F202     		.2byte	0x2f2
 2979 01ad B4000000 		.4byte	0xb4
 2980 01b1 08       		.byte	0x8
 2981 01b2 08       		.uleb128 0x8
 2982 01b3 49535200 		.ascii	"ISR\000"
 2983 01b7 04       		.byte	0x4
 2984 01b8 F302     		.2byte	0x2f3
 2985 01ba B4000000 		.4byte	0xb4
 2986 01be 0C       		.byte	0xc
 2987 01bf 07       		.uleb128 0x7
 2988 01c0 2D010000 		.4byte	.LASF29
 2989 01c4 04       		.byte	0x4
 2990 01c5 F402     		.2byte	0x2f4
 2991 01c7 B4000000 		.4byte	0xb4
 2992 01cb 10       		.byte	0x10
 2993 01cc 07       		.uleb128 0x7
 2994 01cd 89060000 		.4byte	.LASF30
 2995 01d1 04       		.byte	0x4
 2996 01d2 F502     		.2byte	0x2f5
 2997 01d4 B4000000 		.4byte	0xb4
 2998 01d8 14       		.byte	0x14
 2999 01d9 07       		.uleb128 0x7
 3000 01da AA030000 		.4byte	.LASF31
 3001 01de 04       		.byte	0x4
 3002 01df F602     		.2byte	0x2f6
 3003 01e1 A2000000 		.4byte	0xa2
ARM GAS  /tmp/ccHRl1iB.s 			page 54


 3004 01e5 18       		.byte	0x18
 3005 01e6 07       		.uleb128 0x7
 3006 01e7 76050000 		.4byte	.LASF32
 3007 01eb 04       		.byte	0x4
 3008 01ec F702     		.2byte	0x2f7
 3009 01ee B4000000 		.4byte	0xb4
 3010 01f2 1C       		.byte	0x1c
 3011 01f3 07       		.uleb128 0x7
 3012 01f4 58060000 		.4byte	.LASF33
 3013 01f8 04       		.byte	0x4
 3014 01f9 F802     		.2byte	0x2f8
 3015 01fb B4000000 		.4byte	0xb4
 3016 01ff 20       		.byte	0x20
 3017 0200 08       		.uleb128 0x8
 3018 0201 57505200 		.ascii	"WPR\000"
 3019 0205 04       		.byte	0x4
 3020 0206 F902     		.2byte	0x2f9
 3021 0208 B4000000 		.4byte	0xb4
 3022 020c 24       		.byte	0x24
 3023 020d 08       		.uleb128 0x8
 3024 020e 53535200 		.ascii	"SSR\000"
 3025 0212 04       		.byte	0x4
 3026 0213 FA02     		.2byte	0x2fa
 3027 0215 B4000000 		.4byte	0xb4
 3028 0219 28       		.byte	0x28
 3029 021a 07       		.uleb128 0x7
 3030 021b 37070000 		.4byte	.LASF34
 3031 021f 04       		.byte	0x4
 3032 0220 FB02     		.2byte	0x2fb
 3033 0222 B4000000 		.4byte	0xb4
 3034 0226 2C       		.byte	0x2c
 3035 0227 07       		.uleb128 0x7
 3036 0228 C6040000 		.4byte	.LASF35
 3037 022c 04       		.byte	0x4
 3038 022d FC02     		.2byte	0x2fc
 3039 022f B4000000 		.4byte	0xb4
 3040 0233 30       		.byte	0x30
 3041 0234 07       		.uleb128 0x7
 3042 0235 DE030000 		.4byte	.LASF36
 3043 0239 04       		.byte	0x4
 3044 023a FD02     		.2byte	0x2fd
 3045 023c B4000000 		.4byte	0xb4
 3046 0240 34       		.byte	0x34
 3047 0241 07       		.uleb128 0x7
 3048 0242 2E020000 		.4byte	.LASF37
 3049 0246 04       		.byte	0x4
 3050 0247 FE02     		.2byte	0x2fe
 3051 0249 B4000000 		.4byte	0xb4
 3052 024d 38       		.byte	0x38
 3053 024e 07       		.uleb128 0x7
 3054 024f 2B050000 		.4byte	.LASF38
 3055 0253 04       		.byte	0x4
 3056 0254 FF02     		.2byte	0x2ff
 3057 0256 B4000000 		.4byte	0xb4
 3058 025a 3C       		.byte	0x3c
 3059 025b 07       		.uleb128 0x7
 3060 025c 26010000 		.4byte	.LASF39
ARM GAS  /tmp/ccHRl1iB.s 			page 55


 3061 0260 04       		.byte	0x4
 3062 0261 0003     		.2byte	0x300
 3063 0263 B4000000 		.4byte	0xb4
 3064 0267 40       		.byte	0x40
 3065 0268 07       		.uleb128 0x7
 3066 0269 C6030000 		.4byte	.LASF40
 3067 026d 04       		.byte	0x4
 3068 026e 0103     		.2byte	0x301
 3069 0270 B4000000 		.4byte	0xb4
 3070 0274 44       		.byte	0x44
 3071 0275 07       		.uleb128 0x7
 3072 0276 72020000 		.4byte	.LASF41
 3073 027a 04       		.byte	0x4
 3074 027b 0203     		.2byte	0x302
 3075 027d B4000000 		.4byte	0xb4
 3076 0281 48       		.byte	0x48
 3077 0282 08       		.uleb128 0x8
 3078 0283 4F5200   		.ascii	"OR\000"
 3079 0286 04       		.byte	0x4
 3080 0287 0303     		.2byte	0x303
 3081 0289 B4000000 		.4byte	0xb4
 3082 028d 4C       		.byte	0x4c
 3083 028e 07       		.uleb128 0x7
 3084 028f E2050000 		.4byte	.LASF42
 3085 0293 04       		.byte	0x4
 3086 0294 0403     		.2byte	0x304
 3087 0296 B4000000 		.4byte	0xb4
 3088 029a 50       		.byte	0x50
 3089 029b 07       		.uleb128 0x7
 3090 029c 19080000 		.4byte	.LASF43
 3091 02a0 04       		.byte	0x4
 3092 02a1 0503     		.2byte	0x305
 3093 02a3 B4000000 		.4byte	0xb4
 3094 02a7 54       		.byte	0x54
 3095 02a8 07       		.uleb128 0x7
 3096 02a9 F2070000 		.4byte	.LASF44
 3097 02ad 04       		.byte	0x4
 3098 02ae 0603     		.2byte	0x306
 3099 02b0 B4000000 		.4byte	0xb4
 3100 02b4 58       		.byte	0x58
 3101 02b5 07       		.uleb128 0x7
 3102 02b6 20010000 		.4byte	.LASF45
 3103 02ba 04       		.byte	0x4
 3104 02bb 0703     		.2byte	0x307
 3105 02bd B4000000 		.4byte	0xb4
 3106 02c1 5C       		.byte	0x5c
 3107 02c2 07       		.uleb128 0x7
 3108 02c3 B0060000 		.4byte	.LASF46
 3109 02c7 04       		.byte	0x4
 3110 02c8 0803     		.2byte	0x308
 3111 02ca B4000000 		.4byte	0xb4
 3112 02ce 60       		.byte	0x60
 3113 02cf 07       		.uleb128 0x7
 3114 02d0 F3030000 		.4byte	.LASF47
 3115 02d4 04       		.byte	0x4
 3116 02d5 0903     		.2byte	0x309
 3117 02d7 B4000000 		.4byte	0xb4
ARM GAS  /tmp/ccHRl1iB.s 			page 56


 3118 02db 64       		.byte	0x64
 3119 02dc 07       		.uleb128 0x7
 3120 02dd E7040000 		.4byte	.LASF48
 3121 02e1 04       		.byte	0x4
 3122 02e2 0A03     		.2byte	0x30a
 3123 02e4 B4000000 		.4byte	0xb4
 3124 02e8 68       		.byte	0x68
 3125 02e9 07       		.uleb128 0x7
 3126 02ea 92050000 		.4byte	.LASF49
 3127 02ee 04       		.byte	0x4
 3128 02ef 0B03     		.2byte	0x30b
 3129 02f1 B4000000 		.4byte	0xb4
 3130 02f5 6C       		.byte	0x6c
 3131 02f6 07       		.uleb128 0x7
 3132 02f7 7A060000 		.4byte	.LASF50
 3133 02fb 04       		.byte	0x4
 3134 02fc 0C03     		.2byte	0x30c
 3135 02fe B4000000 		.4byte	0xb4
 3136 0302 70       		.byte	0x70
 3137 0303 07       		.uleb128 0x7
 3138 0304 75070000 		.4byte	.LASF51
 3139 0308 04       		.byte	0x4
 3140 0309 0D03     		.2byte	0x30d
 3141 030b B4000000 		.4byte	0xb4
 3142 030f 74       		.byte	0x74
 3143 0310 07       		.uleb128 0x7
 3144 0311 BF040000 		.4byte	.LASF52
 3145 0315 04       		.byte	0x4
 3146 0316 0E03     		.2byte	0x30e
 3147 0318 B4000000 		.4byte	0xb4
 3148 031c 78       		.byte	0x78
 3149 031d 07       		.uleb128 0x7
 3150 031e 5F050000 		.4byte	.LASF53
 3151 0322 04       		.byte	0x4
 3152 0323 0F03     		.2byte	0x30f
 3153 0325 B4000000 		.4byte	0xb4
 3154 0329 7C       		.byte	0x7c
 3155 032a 07       		.uleb128 0x7
 3156 032b 03060000 		.4byte	.LASF54
 3157 032f 04       		.byte	0x4
 3158 0330 1003     		.2byte	0x310
 3159 0332 B4000000 		.4byte	0xb4
 3160 0336 80       		.byte	0x80
 3161 0337 07       		.uleb128 0x7
 3162 0338 02070000 		.4byte	.LASF55
 3163 033c 04       		.byte	0x4
 3164 033d 1103     		.2byte	0x311
 3165 033f B4000000 		.4byte	0xb4
 3166 0343 84       		.byte	0x84
 3167 0344 07       		.uleb128 0x7
 3168 0345 05080000 		.4byte	.LASF56
 3169 0349 04       		.byte	0x4
 3170 034a 1203     		.2byte	0x312
 3171 034c B4000000 		.4byte	0xb4
 3172 0350 88       		.byte	0x88
 3173 0351 07       		.uleb128 0x7
 3174 0352 46010000 		.4byte	.LASF57
ARM GAS  /tmp/ccHRl1iB.s 			page 57


 3175 0356 04       		.byte	0x4
 3176 0357 1303     		.2byte	0x313
 3177 0359 B4000000 		.4byte	0xb4
 3178 035d 8C       		.byte	0x8c
 3179 035e 07       		.uleb128 0x7
 3180 035f 99020000 		.4byte	.LASF58
 3181 0363 04       		.byte	0x4
 3182 0364 1403     		.2byte	0x314
 3183 0366 B4000000 		.4byte	0xb4
 3184 036a 90       		.byte	0x90
 3185 036b 07       		.uleb128 0x7
 3186 036c 1D040000 		.4byte	.LASF59
 3187 0370 04       		.byte	0x4
 3188 0371 1503     		.2byte	0x315
 3189 0373 B4000000 		.4byte	0xb4
 3190 0377 94       		.byte	0x94
 3191 0378 07       		.uleb128 0x7
 3192 0379 1C050000 		.4byte	.LASF60
 3193 037d 04       		.byte	0x4
 3194 037e 1603     		.2byte	0x316
 3195 0380 B4000000 		.4byte	0xb4
 3196 0384 98       		.byte	0x98
 3197 0385 07       		.uleb128 0x7
 3198 0386 A2050000 		.4byte	.LASF61
 3199 038a 04       		.byte	0x4
 3200 038b 1703     		.2byte	0x317
 3201 038d B4000000 		.4byte	0xb4
 3202 0391 9C       		.byte	0x9c
 3203 0392 07       		.uleb128 0x7
 3204 0393 D4020000 		.4byte	.LASF62
 3205 0397 04       		.byte	0x4
 3206 0398 1803     		.2byte	0x318
 3207 039a B4000000 		.4byte	0xb4
 3208 039e A0       		.byte	0xa0
 3209 039f 07       		.uleb128 0x7
 3210 03a0 6D040000 		.4byte	.LASF63
 3211 03a4 04       		.byte	0x4
 3212 03a5 1903     		.2byte	0x319
 3213 03a7 B4000000 		.4byte	0xb4
 3214 03ab A4       		.byte	0xa4
 3215 03ac 07       		.uleb128 0x7
 3216 03ad 30050000 		.4byte	.LASF64
 3217 03b1 04       		.byte	0x4
 3218 03b2 1A03     		.2byte	0x31a
 3219 03b4 B4000000 		.4byte	0xb4
 3220 03b8 A8       		.byte	0xa8
 3221 03b9 07       		.uleb128 0x7
 3222 03ba 37050000 		.4byte	.LASF65
 3223 03be 04       		.byte	0x4
 3224 03bf 1B03     		.2byte	0x31b
 3225 03c1 B4000000 		.4byte	0xb4
 3226 03c5 AC       		.byte	0xac
 3227 03c6 07       		.uleb128 0x7
 3228 03c7 C1060000 		.4byte	.LASF66
 3229 03cb 04       		.byte	0x4
 3230 03cc 1C03     		.2byte	0x31c
 3231 03ce B4000000 		.4byte	0xb4
ARM GAS  /tmp/ccHRl1iB.s 			page 58


 3232 03d2 B0       		.byte	0xb0
 3233 03d3 07       		.uleb128 0x7
 3234 03d4 B0070000 		.4byte	.LASF67
 3235 03d8 04       		.byte	0x4
 3236 03d9 1D03     		.2byte	0x31d
 3237 03db B4000000 		.4byte	0xb4
 3238 03df B4       		.byte	0xb4
 3239 03e0 07       		.uleb128 0x7
 3240 03e1 C8000000 		.4byte	.LASF68
 3241 03e5 04       		.byte	0x4
 3242 03e6 1E03     		.2byte	0x31e
 3243 03e8 B4000000 		.4byte	0xb4
 3244 03ec B8       		.byte	0xb8
 3245 03ed 07       		.uleb128 0x7
 3246 03ee 27020000 		.4byte	.LASF69
 3247 03f2 04       		.byte	0x4
 3248 03f3 1F03     		.2byte	0x31f
 3249 03f5 B4000000 		.4byte	0xb4
 3250 03f9 BC       		.byte	0xbc
 3251 03fa 07       		.uleb128 0x7
 3252 03fb B3030000 		.4byte	.LASF70
 3253 03ff 04       		.byte	0x4
 3254 0400 2003     		.2byte	0x320
 3255 0402 B4000000 		.4byte	0xb4
 3256 0406 C0       		.byte	0xc0
 3257 0407 07       		.uleb128 0x7
 3258 0408 75010000 		.4byte	.LASF71
 3259 040c 04       		.byte	0x4
 3260 040d 2103     		.2byte	0x321
 3261 040f B4000000 		.4byte	0xb4
 3262 0413 C4       		.byte	0xc4
 3263 0414 07       		.uleb128 0x7
 3264 0415 13010000 		.4byte	.LASF72
 3265 0419 04       		.byte	0x4
 3266 041a 2203     		.2byte	0x322
 3267 041c B4000000 		.4byte	0xb4
 3268 0420 C8       		.byte	0xc8
 3269 0421 07       		.uleb128 0x7
 3270 0422 65020000 		.4byte	.LASF73
 3271 0426 04       		.byte	0x4
 3272 0427 2303     		.2byte	0x323
 3273 0429 B4000000 		.4byte	0xb4
 3274 042d CC       		.byte	0xcc
 3275 042e 00       		.byte	0
 3276 042f 09       		.uleb128 0x9
 3277 0430 C3010000 		.4byte	.LASF74
 3278 0434 04       		.byte	0x4
 3279 0435 2403     		.2byte	0x324
 3280 0437 85010000 		.4byte	0x185
 3281 043b 0A       		.uleb128 0xa
 3282 043c 01       		.byte	0x1
 3283 043d 05       		.byte	0x5
 3284 043e AE       		.byte	0xae
 3285 043f 50040000 		.4byte	0x450
 3286 0443 0B       		.uleb128 0xb
 3287 0444 B5050000 		.4byte	.LASF75
 3288 0448 00       		.sleb128 0
ARM GAS  /tmp/ccHRl1iB.s 			page 59


 3289 0449 0C       		.uleb128 0xc
 3290 044a 53455400 		.ascii	"SET\000"
 3291 044e 01       		.sleb128 1
 3292 044f 00       		.byte	0
 3293 0450 02       		.uleb128 0x2
 3294 0451 01       		.byte	0x1
 3295 0452 08       		.byte	0x8
 3296 0453 B6060000 		.4byte	.LASF76
 3297 0457 0A       		.uleb128 0xa
 3298 0458 01       		.byte	0x1
 3299 0459 06       		.byte	0x6
 3300 045a 3A       		.byte	0x3a
 3301 045b 78040000 		.4byte	0x478
 3302 045f 0B       		.uleb128 0xb
 3303 0460 66040000 		.4byte	.LASF77
 3304 0464 00       		.sleb128 0
 3305 0465 0B       		.uleb128 0xb
 3306 0466 8E060000 		.4byte	.LASF78
 3307 046a 01       		.sleb128 1
 3308 046b 0B       		.uleb128 0xb
 3309 046c 0A010000 		.4byte	.LASF79
 3310 0470 02       		.sleb128 2
 3311 0471 0B       		.uleb128 0xb
 3312 0472 BA030000 		.4byte	.LASF80
 3313 0476 03       		.sleb128 3
 3314 0477 00       		.byte	0
 3315 0478 03       		.uleb128 0x3
 3316 0479 CB040000 		.4byte	.LASF81
 3317 047d 06       		.byte	0x6
 3318 047e 3F       		.byte	0x3f
 3319 047f 57040000 		.4byte	0x457
 3320 0483 0A       		.uleb128 0xa
 3321 0484 01       		.byte	0x1
 3322 0485 06       		.byte	0x6
 3323 0486 45       		.byte	0x45
 3324 0487 98040000 		.4byte	0x498
 3325 048b 0B       		.uleb128 0xb
 3326 048c F8070000 		.4byte	.LASF82
 3327 0490 00       		.sleb128 0
 3328 0491 0B       		.uleb128 0xb
 3329 0492 3E050000 		.4byte	.LASF83
 3330 0496 01       		.sleb128 1
 3331 0497 00       		.byte	0
 3332 0498 03       		.uleb128 0x3
 3333 0499 3B020000 		.4byte	.LASF84
 3334 049d 06       		.byte	0x6
 3335 049e 48       		.byte	0x48
 3336 049f 83040000 		.4byte	0x483
 3337 04a3 0A       		.uleb128 0xa
 3338 04a4 01       		.byte	0x1
 3339 04a5 07       		.byte	0x7
 3340 04a6 41       		.byte	0x41
 3341 04a7 CA040000 		.4byte	0x4ca
 3342 04ab 0B       		.uleb128 0xb
 3343 04ac A0020000 		.4byte	.LASF85
 3344 04b0 00       		.sleb128 0
 3345 04b1 0B       		.uleb128 0xb
ARM GAS  /tmp/ccHRl1iB.s 			page 60


 3346 04b2 52040000 		.4byte	.LASF86
 3347 04b6 01       		.sleb128 1
 3348 04b7 0B       		.uleb128 0xb
 3349 04b8 E8050000 		.4byte	.LASF87
 3350 04bc 02       		.sleb128 2
 3351 04bd 0B       		.uleb128 0xb
 3352 04be 06050000 		.4byte	.LASF88
 3353 04c2 03       		.sleb128 3
 3354 04c3 0B       		.uleb128 0xb
 3355 04c4 F9030000 		.4byte	.LASF89
 3356 04c8 04       		.sleb128 4
 3357 04c9 00       		.byte	0
 3358 04ca 03       		.uleb128 0x3
 3359 04cb 09070000 		.4byte	.LASF90
 3360 04cf 07       		.byte	0x7
 3361 04d0 48       		.byte	0x48
 3362 04d1 A3040000 		.4byte	0x4a3
 3363 04d5 0D       		.uleb128 0xd
 3364 04d6 1C       		.byte	0x1c
 3365 04d7 07       		.byte	0x7
 3366 04d8 4D       		.byte	0x4d
 3367 04d9 32050000 		.4byte	0x532
 3368 04dd 0E       		.uleb128 0xe
 3369 04de 2C070000 		.4byte	.LASF91
 3370 04e2 07       		.byte	0x7
 3371 04e3 4F       		.byte	0x4f
 3372 04e4 A2000000 		.4byte	0xa2
 3373 04e8 00       		.byte	0
 3374 04e9 0E       		.uleb128 0xe
 3375 04ea 7B070000 		.4byte	.LASF92
 3376 04ee 07       		.byte	0x7
 3377 04ef 52       		.byte	0x52
 3378 04f0 A2000000 		.4byte	0xa2
 3379 04f4 04       		.byte	0x4
 3380 04f5 0E       		.uleb128 0xe
 3381 04f6 09000000 		.4byte	.LASF93
 3382 04fa 07       		.byte	0x7
 3383 04fb 55       		.byte	0x55
 3384 04fc A2000000 		.4byte	0xa2
 3385 0500 08       		.byte	0x8
 3386 0501 0E       		.uleb128 0xe
 3387 0502 7B020000 		.4byte	.LASF94
 3388 0506 07       		.byte	0x7
 3389 0507 58       		.byte	0x58
 3390 0508 A2000000 		.4byte	0xa2
 3391 050c 0C       		.byte	0xc
 3392 050d 0E       		.uleb128 0xe
 3393 050e D9060000 		.4byte	.LASF95
 3394 0512 07       		.byte	0x7
 3395 0513 5B       		.byte	0x5b
 3396 0514 A2000000 		.4byte	0xa2
 3397 0518 10       		.byte	0x10
 3398 0519 0E       		.uleb128 0xe
 3399 051a 9B030000 		.4byte	.LASF96
 3400 051e 07       		.byte	0x7
 3401 051f 5E       		.byte	0x5e
 3402 0520 A2000000 		.4byte	0xa2
ARM GAS  /tmp/ccHRl1iB.s 			page 61


 3403 0524 14       		.byte	0x14
 3404 0525 0E       		.uleb128 0xe
 3405 0526 CF010000 		.4byte	.LASF97
 3406 052a 07       		.byte	0x7
 3407 052b 61       		.byte	0x61
 3408 052c A2000000 		.4byte	0xa2
 3409 0530 18       		.byte	0x18
 3410 0531 00       		.byte	0
 3411 0532 03       		.uleb128 0x3
 3412 0533 E2070000 		.4byte	.LASF98
 3413 0537 07       		.byte	0x7
 3414 0538 63       		.byte	0x63
 3415 0539 D5040000 		.4byte	0x4d5
 3416 053d 0D       		.uleb128 0xd
 3417 053e 14       		.byte	0x14
 3418 053f 07       		.byte	0x7
 3419 0540 68       		.byte	0x68
 3420 0541 A6050000 		.4byte	0x5a6
 3421 0545 0E       		.uleb128 0xe
 3422 0546 59050000 		.4byte	.LASF99
 3423 054a 07       		.byte	0x7
 3424 054b 6A       		.byte	0x6a
 3425 054c 8C000000 		.4byte	0x8c
 3426 0550 00       		.byte	0
 3427 0551 0E       		.uleb128 0xe
 3428 0552 51050000 		.4byte	.LASF100
 3429 0556 07       		.byte	0x7
 3430 0557 6E       		.byte	0x6e
 3431 0558 8C000000 		.4byte	0x8c
 3432 055c 01       		.byte	0x1
 3433 055d 0E       		.uleb128 0xe
 3434 055e 49050000 		.4byte	.LASF101
 3435 0562 07       		.byte	0x7
 3436 0563 71       		.byte	0x71
 3437 0564 8C000000 		.4byte	0x8c
 3438 0568 02       		.byte	0x2
 3439 0569 0E       		.uleb128 0xe
 3440 056a E5060000 		.4byte	.LASF102
 3441 056e 07       		.byte	0x7
 3442 056f 74       		.byte	0x74
 3443 0570 8C000000 		.4byte	0x8c
 3444 0574 03       		.byte	0x3
 3445 0575 0E       		.uleb128 0xe
 3446 0576 60070000 		.4byte	.LASF103
 3447 057a 07       		.byte	0x7
 3448 057b 77       		.byte	0x77
 3449 057c A2000000 		.4byte	0xa2
 3450 0580 04       		.byte	0x4
 3451 0581 0E       		.uleb128 0xe
 3452 0582 C5020000 		.4byte	.LASF104
 3453 0586 07       		.byte	0x7
 3454 0587 7B       		.byte	0x7b
 3455 0588 A2000000 		.4byte	0xa2
 3456 058c 08       		.byte	0x8
 3457 058d 0E       		.uleb128 0xe
 3458 058e 98060000 		.4byte	.LASF105
 3459 0592 07       		.byte	0x7
ARM GAS  /tmp/ccHRl1iB.s 			page 62


 3460 0593 81       		.byte	0x81
 3461 0594 A2000000 		.4byte	0xa2
 3462 0598 0C       		.byte	0xc
 3463 0599 0E       		.uleb128 0xe
 3464 059a 1D070000 		.4byte	.LASF106
 3465 059e 07       		.byte	0x7
 3466 059f 84       		.byte	0x84
 3467 05a0 A2000000 		.4byte	0xa2
 3468 05a4 10       		.byte	0x10
 3469 05a5 00       		.byte	0
 3470 05a6 03       		.uleb128 0x3
 3471 05a7 66050000 		.4byte	.LASF107
 3472 05ab 07       		.byte	0x7
 3473 05ac 87       		.byte	0x87
 3474 05ad 3D050000 		.4byte	0x53d
 3475 05b1 0D       		.uleb128 0xd
 3476 05b2 04       		.byte	0x4
 3477 05b3 07       		.byte	0x7
 3478 05b4 8C       		.byte	0x8c
 3479 05b5 EA050000 		.4byte	0x5ea
 3480 05b9 0E       		.uleb128 0xe
 3481 05ba 23050000 		.4byte	.LASF108
 3482 05be 07       		.byte	0x7
 3483 05bf 8E       		.byte	0x8e
 3484 05c0 8C000000 		.4byte	0x8c
 3485 05c4 00       		.byte	0
 3486 05c5 0E       		.uleb128 0xe
 3487 05c6 6C020000 		.4byte	.LASF109
 3488 05ca 07       		.byte	0x7
 3489 05cb 91       		.byte	0x91
 3490 05cc 8C000000 		.4byte	0x8c
 3491 05d0 01       		.byte	0x1
 3492 05d1 0E       		.uleb128 0xe
 3493 05d2 C6070000 		.4byte	.LASF110
 3494 05d6 07       		.byte	0x7
 3495 05d7 94       		.byte	0x94
 3496 05d8 8C000000 		.4byte	0x8c
 3497 05dc 02       		.byte	0x2
 3498 05dd 0E       		.uleb128 0xe
 3499 05de 91040000 		.4byte	.LASF111
 3500 05e2 07       		.byte	0x7
 3501 05e3 97       		.byte	0x97
 3502 05e4 8C000000 		.4byte	0x8c
 3503 05e8 03       		.byte	0x3
 3504 05e9 00       		.byte	0
 3505 05ea 03       		.uleb128 0x3
 3506 05eb 82050000 		.4byte	.LASF112
 3507 05ef 07       		.byte	0x7
 3508 05f0 9A       		.byte	0x9a
 3509 05f1 B1050000 		.4byte	0x5b1
 3510 05f5 0D       		.uleb128 0xd
 3511 05f6 28       		.byte	0x28
 3512 05f7 07       		.byte	0x7
 3513 05f8 9F       		.byte	0x9f
 3514 05f9 46060000 		.4byte	0x646
 3515 05fd 0E       		.uleb128 0xe
 3516 05fe 6B070000 		.4byte	.LASF113
ARM GAS  /tmp/ccHRl1iB.s 			page 63


 3517 0602 07       		.byte	0x7
 3518 0603 A1       		.byte	0xa1
 3519 0604 A6050000 		.4byte	0x5a6
 3520 0608 00       		.byte	0
 3521 0609 0E       		.uleb128 0xe
 3522 060a 8F020000 		.4byte	.LASF114
 3523 060e 07       		.byte	0x7
 3524 060f A3       		.byte	0xa3
 3525 0610 A2000000 		.4byte	0xa2
 3526 0614 14       		.byte	0x14
 3527 0615 0E       		.uleb128 0xe
 3528 0616 ED040000 		.4byte	.LASF115
 3529 061a 07       		.byte	0x7
 3530 061b A6       		.byte	0xa6
 3531 061c A2000000 		.4byte	0xa2
 3532 0620 18       		.byte	0x18
 3533 0621 0E       		.uleb128 0xe
 3534 0622 32010000 		.4byte	.LASF116
 3535 0626 07       		.byte	0x7
 3536 0627 A9       		.byte	0xa9
 3537 0628 A2000000 		.4byte	0xa2
 3538 062c 1C       		.byte	0x1c
 3539 062d 0E       		.uleb128 0xe
 3540 062e 4B020000 		.4byte	.LASF117
 3541 0632 07       		.byte	0x7
 3542 0633 AC       		.byte	0xac
 3543 0634 8C000000 		.4byte	0x8c
 3544 0638 20       		.byte	0x20
 3545 0639 0E       		.uleb128 0xe
 3546 063a A2070000 		.4byte	.LASF118
 3547 063e 07       		.byte	0x7
 3548 063f B0       		.byte	0xb0
 3549 0640 A2000000 		.4byte	0xa2
 3550 0644 24       		.byte	0x24
 3551 0645 00       		.byte	0
 3552 0646 03       		.uleb128 0x3
 3553 0647 8C010000 		.4byte	.LASF119
 3554 064b 07       		.byte	0x7
 3555 064c B2       		.byte	0xb2
 3556 064d F5050000 		.4byte	0x5f5
 3557 0651 0D       		.uleb128 0xd
 3558 0652 24       		.byte	0x24
 3559 0653 07       		.byte	0x7
 3560 0654 B7       		.byte	0xb7
 3561 0655 8A060000 		.4byte	0x68a
 3562 0659 0E       		.uleb128 0xe
 3563 065a 00000000 		.4byte	.LASF120
 3564 065e 07       		.byte	0x7
 3565 065f B9       		.byte	0xb9
 3566 0660 8A060000 		.4byte	0x68a
 3567 0664 00       		.byte	0
 3568 0665 0E       		.uleb128 0xe
 3569 0666 7D050000 		.4byte	.LASF121
 3570 066a 07       		.byte	0x7
 3571 066b BB       		.byte	0xbb
 3572 066c 32050000 		.4byte	0x532
 3573 0670 04       		.byte	0x4
ARM GAS  /tmp/ccHRl1iB.s 			page 64


 3574 0671 0E       		.uleb128 0xe
 3575 0672 DB020000 		.4byte	.LASF122
 3576 0676 07       		.byte	0x7
 3577 0677 BD       		.byte	0xbd
 3578 0678 98040000 		.4byte	0x498
 3579 067c 20       		.byte	0x20
 3580 067d 0E       		.uleb128 0xe
 3581 067e BB060000 		.4byte	.LASF123
 3582 0682 07       		.byte	0x7
 3583 0683 BF       		.byte	0xbf
 3584 0684 90060000 		.4byte	0x690
 3585 0688 21       		.byte	0x21
 3586 0689 00       		.byte	0
 3587 068a 0F       		.uleb128 0xf
 3588 068b 04       		.byte	0x4
 3589 068c 2F040000 		.4byte	0x42f
 3590 0690 05       		.uleb128 0x5
 3591 0691 CA040000 		.4byte	0x4ca
 3592 0695 03       		.uleb128 0x3
 3593 0696 B1010000 		.4byte	.LASF124
 3594 069a 07       		.byte	0x7
 3595 069b C1       		.byte	0xc1
 3596 069c 51060000 		.4byte	0x651
 3597 06a0 10       		.uleb128 0x10
 3598 06a1 43070000 		.4byte	.LASF125
 3599 06a5 01       		.byte	0x1
 3600 06a6 BA       		.byte	0xba
 3601 06a7 78040000 		.4byte	0x478
 3602 06ab 00000000 		.4byte	.LFB125
 3603 06af 04010000 		.4byte	.LFE125-.LFB125
 3604 06b3 01       		.uleb128 0x1
 3605 06b4 9C       		.byte	0x9c
 3606 06b5 C8060000 		.4byte	0x6c8
 3607 06b9 11       		.uleb128 0x11
 3608 06ba 88070000 		.4byte	.LASF127
 3609 06be 01       		.byte	0x1
 3610 06bf BA       		.byte	0xba
 3611 06c0 C8060000 		.4byte	0x6c8
 3612 06c4 02       		.uleb128 0x2
 3613 06c5 91       		.byte	0x91
 3614 06c6 74       		.sleb128 -12
 3615 06c7 00       		.byte	0
 3616 06c8 0F       		.uleb128 0xf
 3617 06c9 04       		.byte	0x4
 3618 06ca 95060000 		.4byte	0x695
 3619 06ce 12       		.uleb128 0x12
 3620 06cf CF030000 		.4byte	.LASF126
 3621 06d3 01       		.byte	0x1
 3622 06d4 0701     		.2byte	0x107
 3623 06d6 78040000 		.4byte	0x478
 3624 06da 10010000 		.4byte	.LFB126
 3625 06de 60010000 		.4byte	.LFE126-.LFB126
 3626 06e2 01       		.uleb128 0x1
 3627 06e3 9C       		.byte	0x9c
 3628 06e4 07070000 		.4byte	0x707
 3629 06e8 13       		.uleb128 0x13
 3630 06e9 88070000 		.4byte	.LASF127
ARM GAS  /tmp/ccHRl1iB.s 			page 65


 3631 06ed 01       		.byte	0x1
 3632 06ee 0701     		.2byte	0x107
 3633 06f0 C8060000 		.4byte	0x6c8
 3634 06f4 02       		.uleb128 0x2
 3635 06f5 91       		.byte	0x91
 3636 06f6 6C       		.sleb128 -20
 3637 06f7 14       		.uleb128 0x14
 3638 06f8 C8060000 		.4byte	.LASF133
 3639 06fc 01       		.byte	0x1
 3640 06fd 0901     		.2byte	0x109
 3641 06ff A2000000 		.4byte	0xa2
 3642 0703 02       		.uleb128 0x2
 3643 0704 91       		.byte	0x91
 3644 0705 74       		.sleb128 -12
 3645 0706 00       		.byte	0
 3646 0707 15       		.uleb128 0x15
 3647 0708 7C010000 		.4byte	.LASF128
 3648 070c 01       		.byte	0x1
 3649 070d 6E01     		.2byte	0x16e
 3650 070f 70020000 		.4byte	.LFB127
 3651 0713 08000000 		.4byte	.LFE127-.LFB127
 3652 0717 01       		.uleb128 0x1
 3653 0718 9C       		.byte	0x9c
 3654 0719 2D070000 		.4byte	0x72d
 3655 071d 13       		.uleb128 0x13
 3656 071e 88070000 		.4byte	.LASF127
 3657 0722 01       		.byte	0x1
 3658 0723 6E01     		.2byte	0x16e
 3659 0725 C8060000 		.4byte	0x6c8
 3660 0729 02       		.uleb128 0x2
 3661 072a 91       		.byte	0x91
 3662 072b 7C       		.sleb128 -4
 3663 072c 00       		.byte	0
 3664 072d 15       		.uleb128 0x15
 3665 072e F0060000 		.4byte	.LASF129
 3666 0732 01       		.byte	0x1
 3667 0733 7D01     		.2byte	0x17d
 3668 0735 80020000 		.4byte	.LFB128
 3669 0739 08000000 		.4byte	.LFE128-.LFB128
 3670 073d 01       		.uleb128 0x1
 3671 073e 9C       		.byte	0x9c
 3672 073f 53070000 		.4byte	0x753
 3673 0743 13       		.uleb128 0x13
 3674 0744 88070000 		.4byte	.LASF127
 3675 0748 01       		.byte	0x1
 3676 0749 7D01     		.2byte	0x17d
 3677 074b C8060000 		.4byte	0x6c8
 3678 074f 02       		.uleb128 0x2
 3679 0750 91       		.byte	0x91
 3680 0751 7C       		.sleb128 -4
 3681 0752 00       		.byte	0
 3682 0753 12       		.uleb128 0x12
 3683 0754 F1020000 		.4byte	.LASF130
 3684 0758 01       		.byte	0x1
 3685 0759 A301     		.2byte	0x1a3
 3686 075b 78040000 		.4byte	0x478
 3687 075f 90020000 		.4byte	.LFB129
ARM GAS  /tmp/ccHRl1iB.s 			page 66


 3688 0763 98010000 		.4byte	.LFE129-.LFB129
 3689 0767 01       		.uleb128 0x1
 3690 0768 9C       		.byte	0x9c
 3691 0769 AA070000 		.4byte	0x7aa
 3692 076d 13       		.uleb128 0x13
 3693 076e 88070000 		.4byte	.LASF127
 3694 0772 01       		.byte	0x1
 3695 0773 A301     		.2byte	0x1a3
 3696 0775 C8060000 		.4byte	0x6c8
 3697 0779 02       		.uleb128 0x2
 3698 077a 91       		.byte	0x91
 3699 077b 6C       		.sleb128 -20
 3700 077c 13       		.uleb128 0x13
 3701 077d 21020000 		.4byte	.LASF131
 3702 0781 01       		.byte	0x1
 3703 0782 A301     		.2byte	0x1a3
 3704 0784 AA070000 		.4byte	0x7aa
 3705 0788 02       		.uleb128 0x2
 3706 0789 91       		.byte	0x91
 3707 078a 68       		.sleb128 -24
 3708 078b 13       		.uleb128 0x13
 3709 078c D2060000 		.4byte	.LASF132
 3710 0790 01       		.byte	0x1
 3711 0791 A301     		.2byte	0x1a3
 3712 0793 A2000000 		.4byte	0xa2
 3713 0797 02       		.uleb128 0x2
 3714 0798 91       		.byte	0x91
 3715 0799 64       		.sleb128 -28
 3716 079a 14       		.uleb128 0x14
 3717 079b 34020000 		.4byte	.LASF134
 3718 079f 01       		.byte	0x1
 3719 07a0 A501     		.2byte	0x1a5
 3720 07a2 A2000000 		.4byte	0xa2
 3721 07a6 02       		.uleb128 0x2
 3722 07a7 91       		.byte	0x91
 3723 07a8 74       		.sleb128 -12
 3724 07a9 00       		.byte	0
 3725 07aa 0F       		.uleb128 0xf
 3726 07ab 04       		.byte	0x4
 3727 07ac A6050000 		.4byte	0x5a6
 3728 07b0 12       		.uleb128 0x12
 3729 07b1 6A060000 		.4byte	.LASF135
 3730 07b5 01       		.byte	0x1
 3731 07b6 2A02     		.2byte	0x22a
 3732 07b8 78040000 		.4byte	0x478
 3733 07bc 30040000 		.4byte	.LFB130
 3734 07c0 B4000000 		.4byte	.LFE130-.LFB130
 3735 07c4 01       		.uleb128 0x1
 3736 07c5 9C       		.byte	0x9c
 3737 07c6 07080000 		.4byte	0x807
 3738 07ca 13       		.uleb128 0x13
 3739 07cb 88070000 		.4byte	.LASF127
 3740 07cf 01       		.byte	0x1
 3741 07d0 2A02     		.2byte	0x22a
 3742 07d2 C8060000 		.4byte	0x6c8
 3743 07d6 02       		.uleb128 0x2
 3744 07d7 91       		.byte	0x91
ARM GAS  /tmp/ccHRl1iB.s 			page 67


 3745 07d8 6C       		.sleb128 -20
 3746 07d9 13       		.uleb128 0x13
 3747 07da 21020000 		.4byte	.LASF131
 3748 07de 01       		.byte	0x1
 3749 07df 2A02     		.2byte	0x22a
 3750 07e1 AA070000 		.4byte	0x7aa
 3751 07e5 02       		.uleb128 0x2
 3752 07e6 91       		.byte	0x91
 3753 07e7 68       		.sleb128 -24
 3754 07e8 13       		.uleb128 0x13
 3755 07e9 D2060000 		.4byte	.LASF132
 3756 07ed 01       		.byte	0x1
 3757 07ee 2A02     		.2byte	0x22a
 3758 07f0 A2000000 		.4byte	0xa2
 3759 07f4 02       		.uleb128 0x2
 3760 07f5 91       		.byte	0x91
 3761 07f6 64       		.sleb128 -28
 3762 07f7 14       		.uleb128 0x14
 3763 07f8 34020000 		.4byte	.LASF134
 3764 07fc 01       		.byte	0x1
 3765 07fd 2C02     		.2byte	0x22c
 3766 07ff A2000000 		.4byte	0xa2
 3767 0803 02       		.uleb128 0x2
 3768 0804 91       		.byte	0x91
 3769 0805 74       		.sleb128 -12
 3770 0806 00       		.byte	0
 3771 0807 12       		.uleb128 0x12
 3772 0808 E3030000 		.4byte	.LASF136
 3773 080c 01       		.byte	0x1
 3774 080d 5602     		.2byte	0x256
 3775 080f 78040000 		.4byte	0x478
 3776 0813 F0040000 		.4byte	.LFB131
 3777 0817 78010000 		.4byte	.LFE131-.LFB131
 3778 081b 01       		.uleb128 0x1
 3779 081c 9C       		.byte	0x9c
 3780 081d 5E080000 		.4byte	0x85e
 3781 0821 13       		.uleb128 0x13
 3782 0822 88070000 		.4byte	.LASF127
 3783 0826 01       		.byte	0x1
 3784 0827 5602     		.2byte	0x256
 3785 0829 C8060000 		.4byte	0x6c8
 3786 082d 02       		.uleb128 0x2
 3787 082e 91       		.byte	0x91
 3788 082f 6C       		.sleb128 -20
 3789 0830 13       		.uleb128 0x13
 3790 0831 00050000 		.4byte	.LASF137
 3791 0835 01       		.byte	0x1
 3792 0836 5602     		.2byte	0x256
 3793 0838 5E080000 		.4byte	0x85e
 3794 083c 02       		.uleb128 0x2
 3795 083d 91       		.byte	0x91
 3796 083e 68       		.sleb128 -24
 3797 083f 13       		.uleb128 0x13
 3798 0840 D2060000 		.4byte	.LASF132
 3799 0844 01       		.byte	0x1
 3800 0845 5602     		.2byte	0x256
 3801 0847 A2000000 		.4byte	0xa2
ARM GAS  /tmp/ccHRl1iB.s 			page 68


 3802 084b 02       		.uleb128 0x2
 3803 084c 91       		.byte	0x91
 3804 084d 64       		.sleb128 -28
 3805 084e 14       		.uleb128 0x14
 3806 084f 5F060000 		.4byte	.LASF138
 3807 0853 01       		.byte	0x1
 3808 0854 5802     		.2byte	0x258
 3809 0856 A2000000 		.4byte	0xa2
 3810 085a 02       		.uleb128 0x2
 3811 085b 91       		.byte	0x91
 3812 085c 74       		.sleb128 -12
 3813 085d 00       		.byte	0
 3814 085e 0F       		.uleb128 0xf
 3815 085f 04       		.byte	0x4
 3816 0860 EA050000 		.4byte	0x5ea
 3817 0864 12       		.uleb128 0x12
 3818 0865 50070000 		.4byte	.LASF139
 3819 0869 01       		.byte	0x1
 3820 086a C502     		.2byte	0x2c5
 3821 086c 78040000 		.4byte	0x478
 3822 0870 70060000 		.4byte	.LFB132
 3823 0874 9C000000 		.4byte	.LFE132-.LFB132
 3824 0878 01       		.uleb128 0x1
 3825 0879 9C       		.byte	0x9c
 3826 087a BB080000 		.4byte	0x8bb
 3827 087e 13       		.uleb128 0x13
 3828 087f 88070000 		.4byte	.LASF127
 3829 0883 01       		.byte	0x1
 3830 0884 C502     		.2byte	0x2c5
 3831 0886 C8060000 		.4byte	0x6c8
 3832 088a 02       		.uleb128 0x2
 3833 088b 91       		.byte	0x91
 3834 088c 6C       		.sleb128 -20
 3835 088d 13       		.uleb128 0x13
 3836 088e 00050000 		.4byte	.LASF137
 3837 0892 01       		.byte	0x1
 3838 0893 C502     		.2byte	0x2c5
 3839 0895 5E080000 		.4byte	0x85e
 3840 0899 02       		.uleb128 0x2
 3841 089a 91       		.byte	0x91
 3842 089b 68       		.sleb128 -24
 3843 089c 13       		.uleb128 0x13
 3844 089d D2060000 		.4byte	.LASF132
 3845 08a1 01       		.byte	0x1
 3846 08a2 C502     		.2byte	0x2c5
 3847 08a4 A2000000 		.4byte	0xa2
 3848 08a8 02       		.uleb128 0x2
 3849 08a9 91       		.byte	0x91
 3850 08aa 64       		.sleb128 -28
 3851 08ab 14       		.uleb128 0x14
 3852 08ac 5F060000 		.4byte	.LASF138
 3853 08b0 01       		.byte	0x1
 3854 08b1 C702     		.2byte	0x2c7
 3855 08b3 A2000000 		.4byte	0xa2
 3856 08b7 02       		.uleb128 0x2
 3857 08b8 91       		.byte	0x91
 3858 08b9 74       		.sleb128 -12
ARM GAS  /tmp/ccHRl1iB.s 			page 69


 3859 08ba 00       		.byte	0
 3860 08bb 12       		.uleb128 0x12
 3861 08bc B4020000 		.4byte	.LASF140
 3862 08c0 01       		.byte	0x1
 3863 08c1 FB02     		.2byte	0x2fb
 3864 08c3 78040000 		.4byte	0x478
 3865 08c7 10070000 		.4byte	.LFB133
 3866 08cb 78020000 		.4byte	.LFE133-.LFB133
 3867 08cf 01       		.uleb128 0x1
 3868 08d0 9C       		.byte	0x9c
 3869 08d1 30090000 		.4byte	0x930
 3870 08d5 13       		.uleb128 0x13
 3871 08d6 88070000 		.4byte	.LASF127
 3872 08da 01       		.byte	0x1
 3873 08db FB02     		.2byte	0x2fb
 3874 08dd C8060000 		.4byte	0x6c8
 3875 08e1 02       		.uleb128 0x2
 3876 08e2 91       		.byte	0x91
 3877 08e3 64       		.sleb128 -28
 3878 08e4 13       		.uleb128 0x13
 3879 08e5 BB050000 		.4byte	.LASF141
 3880 08e9 01       		.byte	0x1
 3881 08ea FB02     		.2byte	0x2fb
 3882 08ec 30090000 		.4byte	0x930
 3883 08f0 02       		.uleb128 0x2
 3884 08f1 91       		.byte	0x91
 3885 08f2 60       		.sleb128 -32
 3886 08f3 13       		.uleb128 0x13
 3887 08f4 D2060000 		.4byte	.LASF132
 3888 08f8 01       		.byte	0x1
 3889 08f9 FB02     		.2byte	0x2fb
 3890 08fb A2000000 		.4byte	0xa2
 3891 08ff 02       		.uleb128 0x2
 3892 0900 91       		.byte	0x91
 3893 0901 5C       		.sleb128 -36
 3894 0902 14       		.uleb128 0x14
 3895 0903 C8060000 		.4byte	.LASF133
 3896 0907 01       		.byte	0x1
 3897 0908 FD02     		.2byte	0x2fd
 3898 090a A2000000 		.4byte	0xa2
 3899 090e 02       		.uleb128 0x2
 3900 090f 91       		.byte	0x91
 3901 0910 70       		.sleb128 -16
 3902 0911 14       		.uleb128 0x14
 3903 0912 34020000 		.4byte	.LASF134
 3904 0916 01       		.byte	0x1
 3905 0917 FE02     		.2byte	0x2fe
 3906 0919 A2000000 		.4byte	0xa2
 3907 091d 02       		.uleb128 0x2
 3908 091e 91       		.byte	0x91
 3909 091f 74       		.sleb128 -12
 3910 0920 14       		.uleb128 0x14
 3911 0921 0D040000 		.4byte	.LASF142
 3912 0925 01       		.byte	0x1
 3913 0926 FE02     		.2byte	0x2fe
 3914 0928 A2000000 		.4byte	0xa2
 3915 092c 02       		.uleb128 0x2
ARM GAS  /tmp/ccHRl1iB.s 			page 70


 3916 092d 91       		.byte	0x91
 3917 092e 6C       		.sleb128 -20
 3918 092f 00       		.byte	0
 3919 0930 0F       		.uleb128 0xf
 3920 0931 04       		.byte	0x4
 3921 0932 46060000 		.4byte	0x646
 3922 0936 12       		.uleb128 0x12
 3923 0937 EC000000 		.4byte	.LASF143
 3924 093b 01       		.byte	0x1
 3925 093c B303     		.2byte	0x3b3
 3926 093e 78040000 		.4byte	0x478
 3927 0942 90090000 		.4byte	.LFB134
 3928 0946 B8020000 		.4byte	.LFE134-.LFB134
 3929 094a 01       		.uleb128 0x1
 3930 094b 9C       		.byte	0x9c
 3931 094c AB090000 		.4byte	0x9ab
 3932 0950 13       		.uleb128 0x13
 3933 0951 88070000 		.4byte	.LASF127
 3934 0955 01       		.byte	0x1
 3935 0956 B303     		.2byte	0x3b3
 3936 0958 C8060000 		.4byte	0x6c8
 3937 095c 02       		.uleb128 0x2
 3938 095d 91       		.byte	0x91
 3939 095e 64       		.sleb128 -28
 3940 095f 13       		.uleb128 0x13
 3941 0960 BB050000 		.4byte	.LASF141
 3942 0964 01       		.byte	0x1
 3943 0965 B303     		.2byte	0x3b3
 3944 0967 30090000 		.4byte	0x930
 3945 096b 02       		.uleb128 0x2
 3946 096c 91       		.byte	0x91
 3947 096d 60       		.sleb128 -32
 3948 096e 13       		.uleb128 0x13
 3949 096f D2060000 		.4byte	.LASF132
 3950 0973 01       		.byte	0x1
 3951 0974 B303     		.2byte	0x3b3
 3952 0976 A2000000 		.4byte	0xa2
 3953 097a 02       		.uleb128 0x2
 3954 097b 91       		.byte	0x91
 3955 097c 5C       		.sleb128 -36
 3956 097d 14       		.uleb128 0x14
 3957 097e C8060000 		.4byte	.LASF133
 3958 0982 01       		.byte	0x1
 3959 0983 B503     		.2byte	0x3b5
 3960 0985 A2000000 		.4byte	0xa2
 3961 0989 02       		.uleb128 0x2
 3962 098a 91       		.byte	0x91
 3963 098b 70       		.sleb128 -16
 3964 098c 14       		.uleb128 0x14
 3965 098d 34020000 		.4byte	.LASF134
 3966 0991 01       		.byte	0x1
 3967 0992 B603     		.2byte	0x3b6
 3968 0994 A2000000 		.4byte	0xa2
 3969 0998 02       		.uleb128 0x2
 3970 0999 91       		.byte	0x91
 3971 099a 74       		.sleb128 -12
 3972 099b 14       		.uleb128 0x14
ARM GAS  /tmp/ccHRl1iB.s 			page 71


 3973 099c 0D040000 		.4byte	.LASF142
 3974 09a0 01       		.byte	0x1
 3975 09a1 B603     		.2byte	0x3b6
 3976 09a3 A2000000 		.4byte	0xa2
 3977 09a7 02       		.uleb128 0x2
 3978 09a8 91       		.byte	0x91
 3979 09a9 6C       		.sleb128 -20
 3980 09aa 00       		.byte	0
 3981 09ab 12       		.uleb128 0x12
 3982 09ac A7040000 		.4byte	.LASF144
 3983 09b0 01       		.byte	0x1
 3984 09b1 6C04     		.2byte	0x46c
 3985 09b3 78040000 		.4byte	0x478
 3986 09b7 500C0000 		.4byte	.LFB135
 3987 09bb 2A010000 		.4byte	.LFE135-.LFB135
 3988 09bf 01       		.uleb128 0x1
 3989 09c0 9C       		.byte	0x9c
 3990 09c1 F3090000 		.4byte	0x9f3
 3991 09c5 13       		.uleb128 0x13
 3992 09c6 88070000 		.4byte	.LASF127
 3993 09ca 01       		.byte	0x1
 3994 09cb 6C04     		.2byte	0x46c
 3995 09cd C8060000 		.4byte	0x6c8
 3996 09d1 02       		.uleb128 0x2
 3997 09d2 91       		.byte	0x91
 3998 09d3 6C       		.sleb128 -20
 3999 09d4 13       		.uleb128 0x13
 4000 09d5 A2070000 		.4byte	.LASF118
 4001 09d9 01       		.byte	0x1
 4002 09da 6C04     		.2byte	0x46c
 4003 09dc A2000000 		.4byte	0xa2
 4004 09e0 02       		.uleb128 0x2
 4005 09e1 91       		.byte	0x91
 4006 09e2 68       		.sleb128 -24
 4007 09e3 14       		.uleb128 0x14
 4008 09e4 C8060000 		.4byte	.LASF133
 4009 09e8 01       		.byte	0x1
 4010 09e9 6E04     		.2byte	0x46e
 4011 09eb A2000000 		.4byte	0xa2
 4012 09ef 02       		.uleb128 0x2
 4013 09f0 91       		.byte	0x91
 4014 09f1 74       		.sleb128 -12
 4015 09f2 00       		.byte	0
 4016 09f3 12       		.uleb128 0x12
 4017 09f4 96040000 		.4byte	.LASF145
 4018 09f8 01       		.byte	0x1
 4019 09f9 CA04     		.2byte	0x4ca
 4020 09fb 78040000 		.4byte	0x478
 4021 09ff 800D0000 		.4byte	.LFB136
 4022 0a03 14010000 		.4byte	.LFE136-.LFB136
 4023 0a07 01       		.uleb128 0x1
 4024 0a08 9C       		.byte	0x9c
 4025 0a09 680A0000 		.4byte	0xa68
 4026 0a0d 13       		.uleb128 0x13
 4027 0a0e 88070000 		.4byte	.LASF127
 4028 0a12 01       		.byte	0x1
 4029 0a13 CA04     		.2byte	0x4ca
ARM GAS  /tmp/ccHRl1iB.s 			page 72


 4030 0a15 C8060000 		.4byte	0x6c8
 4031 0a19 02       		.uleb128 0x2
 4032 0a1a 91       		.byte	0x91
 4033 0a1b 6C       		.sleb128 -20
 4034 0a1c 13       		.uleb128 0x13
 4035 0a1d BB050000 		.4byte	.LASF141
 4036 0a21 01       		.byte	0x1
 4037 0a22 CA04     		.2byte	0x4ca
 4038 0a24 30090000 		.4byte	0x930
 4039 0a28 02       		.uleb128 0x2
 4040 0a29 91       		.byte	0x91
 4041 0a2a 68       		.sleb128 -24
 4042 0a2b 13       		.uleb128 0x13
 4043 0a2c A2070000 		.4byte	.LASF118
 4044 0a30 01       		.byte	0x1
 4045 0a31 CA04     		.2byte	0x4ca
 4046 0a33 A2000000 		.4byte	0xa2
 4047 0a37 02       		.uleb128 0x2
 4048 0a38 91       		.byte	0x91
 4049 0a39 64       		.sleb128 -28
 4050 0a3a 13       		.uleb128 0x13
 4051 0a3b D2060000 		.4byte	.LASF132
 4052 0a3f 01       		.byte	0x1
 4053 0a40 CA04     		.2byte	0x4ca
 4054 0a42 A2000000 		.4byte	0xa2
 4055 0a46 02       		.uleb128 0x2
 4056 0a47 91       		.byte	0x91
 4057 0a48 60       		.sleb128 -32
 4058 0a49 14       		.uleb128 0x14
 4059 0a4a 34020000 		.4byte	.LASF134
 4060 0a4e 01       		.byte	0x1
 4061 0a4f CC04     		.2byte	0x4cc
 4062 0a51 A2000000 		.4byte	0xa2
 4063 0a55 02       		.uleb128 0x2
 4064 0a56 91       		.byte	0x91
 4065 0a57 74       		.sleb128 -12
 4066 0a58 14       		.uleb128 0x14
 4067 0a59 0D040000 		.4byte	.LASF142
 4068 0a5d 01       		.byte	0x1
 4069 0a5e CC04     		.2byte	0x4cc
 4070 0a60 A2000000 		.4byte	0xa2
 4071 0a64 02       		.uleb128 0x2
 4072 0a65 91       		.byte	0x91
 4073 0a66 70       		.sleb128 -16
 4074 0a67 00       		.byte	0
 4075 0a68 16       		.uleb128 0x16
 4076 0a69 CF000000 		.4byte	.LASF146
 4077 0a6d 01       		.byte	0x1
 4078 0a6e FD04     		.2byte	0x4fd
 4079 0a70 A00E0000 		.4byte	.LFB137
 4080 0a74 88000000 		.4byte	.LFE137-.LFB137
 4081 0a78 01       		.uleb128 0x1
 4082 0a79 9C       		.byte	0x9c
 4083 0a7a 8E0A0000 		.4byte	0xa8e
 4084 0a7e 13       		.uleb128 0x13
 4085 0a7f 88070000 		.4byte	.LASF127
 4086 0a83 01       		.byte	0x1
ARM GAS  /tmp/ccHRl1iB.s 			page 73


 4087 0a84 FD04     		.2byte	0x4fd
 4088 0a86 C8060000 		.4byte	0x6c8
 4089 0a8a 02       		.uleb128 0x2
 4090 0a8b 91       		.byte	0x91
 4091 0a8c 74       		.sleb128 -12
 4092 0a8d 00       		.byte	0
 4093 0a8e 15       		.uleb128 0x15
 4094 0a8f 36040000 		.4byte	.LASF147
 4095 0a93 01       		.byte	0x1
 4096 0a94 2705     		.2byte	0x527
 4097 0a96 300F0000 		.4byte	.LFB138
 4098 0a9a 08000000 		.4byte	.LFE138-.LFB138
 4099 0a9e 01       		.uleb128 0x1
 4100 0a9f 9C       		.byte	0x9c
 4101 0aa0 B40A0000 		.4byte	0xab4
 4102 0aa4 13       		.uleb128 0x13
 4103 0aa5 88070000 		.4byte	.LASF127
 4104 0aa9 01       		.byte	0x1
 4105 0aaa 2705     		.2byte	0x527
 4106 0aac C8060000 		.4byte	0x6c8
 4107 0ab0 02       		.uleb128 0x2
 4108 0ab1 91       		.byte	0x91
 4109 0ab2 7C       		.sleb128 -4
 4110 0ab3 00       		.byte	0
 4111 0ab4 12       		.uleb128 0x12
 4112 0ab5 DA010000 		.4byte	.LASF148
 4113 0ab9 01       		.byte	0x1
 4114 0aba 3705     		.2byte	0x537
 4115 0abc 78040000 		.4byte	0x478
 4116 0ac0 400F0000 		.4byte	.LFB139
 4117 0ac4 6C000000 		.4byte	.LFE139-.LFB139
 4118 0ac8 01       		.uleb128 0x1
 4119 0ac9 9C       		.byte	0x9c
 4120 0aca FC0A0000 		.4byte	0xafc
 4121 0ace 13       		.uleb128 0x13
 4122 0acf 88070000 		.4byte	.LASF127
 4123 0ad3 01       		.byte	0x1
 4124 0ad4 3705     		.2byte	0x537
 4125 0ad6 C8060000 		.4byte	0x6c8
 4126 0ada 02       		.uleb128 0x2
 4127 0adb 91       		.byte	0x91
 4128 0adc 6C       		.sleb128 -20
 4129 0add 13       		.uleb128 0x13
 4130 0ade 01030000 		.4byte	.LASF149
 4131 0ae2 01       		.byte	0x1
 4132 0ae3 3705     		.2byte	0x537
 4133 0ae5 A2000000 		.4byte	0xa2
 4134 0ae9 02       		.uleb128 0x2
 4135 0aea 91       		.byte	0x91
 4136 0aeb 68       		.sleb128 -24
 4137 0aec 14       		.uleb128 0x14
 4138 0aed C8060000 		.4byte	.LASF133
 4139 0af1 01       		.byte	0x1
 4140 0af2 3A05     		.2byte	0x53a
 4141 0af4 A2000000 		.4byte	0xa2
 4142 0af8 02       		.uleb128 0x2
 4143 0af9 91       		.byte	0x91
ARM GAS  /tmp/ccHRl1iB.s 			page 74


 4144 0afa 74       		.sleb128 -12
 4145 0afb 00       		.byte	0
 4146 0afc 12       		.uleb128 0x12
 4147 0afd CB070000 		.4byte	.LASF150
 4148 0b01 01       		.byte	0x1
 4149 0b02 7205     		.2byte	0x572
 4150 0b04 78040000 		.4byte	0x478
 4151 0b08 B00F0000 		.4byte	.LFB140
 4152 0b0c 4E000000 		.4byte	.LFE140-.LFB140
 4153 0b10 01       		.uleb128 0x1
 4154 0b11 9C       		.byte	0x9c
 4155 0b12 350B0000 		.4byte	0xb35
 4156 0b16 13       		.uleb128 0x13
 4157 0b17 88070000 		.4byte	.LASF127
 4158 0b1b 01       		.byte	0x1
 4159 0b1c 7205     		.2byte	0x572
 4160 0b1e C8060000 		.4byte	0x6c8
 4161 0b22 02       		.uleb128 0x2
 4162 0b23 91       		.byte	0x91
 4163 0b24 6C       		.sleb128 -20
 4164 0b25 14       		.uleb128 0x14
 4165 0b26 C8060000 		.4byte	.LASF133
 4166 0b2a 01       		.byte	0x1
 4167 0b2b 7405     		.2byte	0x574
 4168 0b2d A2000000 		.4byte	0xa2
 4169 0b31 02       		.uleb128 0x2
 4170 0b32 91       		.byte	0x91
 4171 0b33 74       		.sleb128 -12
 4172 0b34 00       		.byte	0
 4173 0b35 17       		.uleb128 0x17
 4174 0b36 64010000 		.4byte	.LASF151
 4175 0b3a 01       		.byte	0x1
 4176 0b3b 9E05     		.2byte	0x59e
 4177 0b3d CA040000 		.4byte	0x4ca
 4178 0b41 00100000 		.4byte	.LFB141
 4179 0b45 12000000 		.4byte	.LFE141-.LFB141
 4180 0b49 01       		.uleb128 0x1
 4181 0b4a 9C       		.byte	0x9c
 4182 0b4b 5F0B0000 		.4byte	0xb5f
 4183 0b4f 13       		.uleb128 0x13
 4184 0b50 88070000 		.4byte	.LASF127
 4185 0b54 01       		.byte	0x1
 4186 0b55 9E05     		.2byte	0x59e
 4187 0b57 C8060000 		.4byte	0x6c8
 4188 0b5b 02       		.uleb128 0x2
 4189 0b5c 91       		.byte	0x91
 4190 0b5d 7C       		.sleb128 -4
 4191 0b5e 00       		.byte	0
 4192 0b5f 12       		.uleb128 0x12
 4193 0b60 0F020000 		.4byte	.LASF152
 4194 0b64 01       		.byte	0x1
 4195 0b65 B605     		.2byte	0x5b6
 4196 0b67 78040000 		.4byte	0x478
 4197 0b6b 20100000 		.4byte	.LFB142
 4198 0b6f 56000000 		.4byte	.LFE142-.LFB142
 4199 0b73 01       		.uleb128 0x1
 4200 0b74 9C       		.byte	0x9c
ARM GAS  /tmp/ccHRl1iB.s 			page 75


 4201 0b75 980B0000 		.4byte	0xb98
 4202 0b79 13       		.uleb128 0x13
 4203 0b7a 88070000 		.4byte	.LASF127
 4204 0b7e 01       		.byte	0x1
 4205 0b7f B605     		.2byte	0x5b6
 4206 0b81 C8060000 		.4byte	0x6c8
 4207 0b85 02       		.uleb128 0x2
 4208 0b86 91       		.byte	0x91
 4209 0b87 6C       		.sleb128 -20
 4210 0b88 14       		.uleb128 0x14
 4211 0b89 C8060000 		.4byte	.LASF133
 4212 0b8d 01       		.byte	0x1
 4213 0b8e B805     		.2byte	0x5b8
 4214 0b90 A2000000 		.4byte	0xa2
 4215 0b94 02       		.uleb128 0x2
 4216 0b95 91       		.byte	0x91
 4217 0b96 74       		.sleb128 -12
 4218 0b97 00       		.byte	0
 4219 0b98 17       		.uleb128 0x17
 4220 0b99 8D070000 		.4byte	.LASF153
 4221 0b9d 01       		.byte	0x1
 4222 0b9e D405     		.2byte	0x5d4
 4223 0ba0 8C000000 		.4byte	0x8c
 4224 0ba4 80100000 		.4byte	.LFB143
 4225 0ba8 3C000000 		.4byte	.LFE143-.LFB143
 4226 0bac 01       		.uleb128 0x1
 4227 0bad 9C       		.byte	0x9c
 4228 0bae D10B0000 		.4byte	0xbd1
 4229 0bb2 13       		.uleb128 0x13
 4230 0bb3 9C070000 		.4byte	.LASF154
 4231 0bb7 01       		.byte	0x1
 4232 0bb8 D405     		.2byte	0x5d4
 4233 0bba 8C000000 		.4byte	0x8c
 4234 0bbe 02       		.uleb128 0x2
 4235 0bbf 91       		.byte	0x91
 4236 0bc0 77       		.sleb128 -9
 4237 0bc1 14       		.uleb128 0x14
 4238 0bc2 FB050000 		.4byte	.LASF155
 4239 0bc6 01       		.byte	0x1
 4240 0bc7 D605     		.2byte	0x5d6
 4241 0bc9 A2000000 		.4byte	0xa2
 4242 0bcd 02       		.uleb128 0x2
 4243 0bce 91       		.byte	0x91
 4244 0bcf 7C       		.sleb128 -4
 4245 0bd0 00       		.byte	0
 4246 0bd1 17       		.uleb128 0x17
 4247 0bd2 B7070000 		.4byte	.LASF156
 4248 0bd6 01       		.byte	0x1
 4249 0bd7 E605     		.2byte	0x5e6
 4250 0bd9 8C000000 		.4byte	0x8c
 4251 0bdd C0100000 		.4byte	.LFB144
 4252 0be1 38000000 		.4byte	.LFE144-.LFB144
 4253 0be5 01       		.uleb128 0x1
 4254 0be6 9C       		.byte	0x9c
 4255 0be7 0A0C0000 		.4byte	0xc0a
 4256 0beb 13       		.uleb128 0x13
 4257 0bec 9C070000 		.4byte	.LASF154
ARM GAS  /tmp/ccHRl1iB.s 			page 76


 4258 0bf0 01       		.byte	0x1
 4259 0bf1 E605     		.2byte	0x5e6
 4260 0bf3 8C000000 		.4byte	0x8c
 4261 0bf7 02       		.uleb128 0x2
 4262 0bf8 91       		.byte	0x91
 4263 0bf9 77       		.sleb128 -9
 4264 0bfa 18       		.uleb128 0x18
 4265 0bfb 746D7000 		.ascii	"tmp\000"
 4266 0bff 01       		.byte	0x1
 4267 0c00 E805     		.2byte	0x5e8
 4268 0c02 A2000000 		.4byte	0xa2
 4269 0c06 02       		.uleb128 0x2
 4270 0c07 91       		.byte	0x91
 4271 0c08 7C       		.sleb128 -4
 4272 0c09 00       		.byte	0
 4273 0c0a 19       		.uleb128 0x19
 4274 0c0b 9D010000 		.4byte	.LASF160
 4275 0c0f 08       		.byte	0x8
 4276 0c10 FA06     		.2byte	0x6fa
 4277 0c12 160C0000 		.4byte	0xc16
 4278 0c16 05       		.uleb128 0x5
 4279 0c17 97000000 		.4byte	0x97
 4280 0c1b 00       		.byte	0
 4281              		.section	.debug_abbrev,"",%progbits
 4282              	.Ldebug_abbrev0:
 4283 0000 01       		.uleb128 0x1
 4284 0001 11       		.uleb128 0x11
 4285 0002 01       		.byte	0x1
 4286 0003 25       		.uleb128 0x25
 4287 0004 0E       		.uleb128 0xe
 4288 0005 13       		.uleb128 0x13
 4289 0006 0B       		.uleb128 0xb
 4290 0007 03       		.uleb128 0x3
 4291 0008 0E       		.uleb128 0xe
 4292 0009 1B       		.uleb128 0x1b
 4293 000a 0E       		.uleb128 0xe
 4294 000b 11       		.uleb128 0x11
 4295 000c 01       		.uleb128 0x1
 4296 000d 12       		.uleb128 0x12
 4297 000e 06       		.uleb128 0x6
 4298 000f 10       		.uleb128 0x10
 4299 0010 17       		.uleb128 0x17
 4300 0011 00       		.byte	0
 4301 0012 00       		.byte	0
 4302 0013 02       		.uleb128 0x2
 4303 0014 24       		.uleb128 0x24
 4304 0015 00       		.byte	0
 4305 0016 0B       		.uleb128 0xb
 4306 0017 0B       		.uleb128 0xb
 4307 0018 3E       		.uleb128 0x3e
 4308 0019 0B       		.uleb128 0xb
 4309 001a 03       		.uleb128 0x3
 4310 001b 0E       		.uleb128 0xe
 4311 001c 00       		.byte	0
 4312 001d 00       		.byte	0
 4313 001e 03       		.uleb128 0x3
 4314 001f 16       		.uleb128 0x16
ARM GAS  /tmp/ccHRl1iB.s 			page 77


 4315 0020 00       		.byte	0
 4316 0021 03       		.uleb128 0x3
 4317 0022 0E       		.uleb128 0xe
 4318 0023 3A       		.uleb128 0x3a
 4319 0024 0B       		.uleb128 0xb
 4320 0025 3B       		.uleb128 0x3b
 4321 0026 0B       		.uleb128 0xb
 4322 0027 49       		.uleb128 0x49
 4323 0028 13       		.uleb128 0x13
 4324 0029 00       		.byte	0
 4325 002a 00       		.byte	0
 4326 002b 04       		.uleb128 0x4
 4327 002c 24       		.uleb128 0x24
 4328 002d 00       		.byte	0
 4329 002e 0B       		.uleb128 0xb
 4330 002f 0B       		.uleb128 0xb
 4331 0030 3E       		.uleb128 0x3e
 4332 0031 0B       		.uleb128 0xb
 4333 0032 03       		.uleb128 0x3
 4334 0033 08       		.uleb128 0x8
 4335 0034 00       		.byte	0
 4336 0035 00       		.byte	0
 4337 0036 05       		.uleb128 0x5
 4338 0037 35       		.uleb128 0x35
 4339 0038 00       		.byte	0
 4340 0039 49       		.uleb128 0x49
 4341 003a 13       		.uleb128 0x13
 4342 003b 00       		.byte	0
 4343 003c 00       		.byte	0
 4344 003d 06       		.uleb128 0x6
 4345 003e 13       		.uleb128 0x13
 4346 003f 01       		.byte	0x1
 4347 0040 0B       		.uleb128 0xb
 4348 0041 0B       		.uleb128 0xb
 4349 0042 3A       		.uleb128 0x3a
 4350 0043 0B       		.uleb128 0xb
 4351 0044 3B       		.uleb128 0x3b
 4352 0045 05       		.uleb128 0x5
 4353 0046 01       		.uleb128 0x1
 4354 0047 13       		.uleb128 0x13
 4355 0048 00       		.byte	0
 4356 0049 00       		.byte	0
 4357 004a 07       		.uleb128 0x7
 4358 004b 0D       		.uleb128 0xd
 4359 004c 00       		.byte	0
 4360 004d 03       		.uleb128 0x3
 4361 004e 0E       		.uleb128 0xe
 4362 004f 3A       		.uleb128 0x3a
 4363 0050 0B       		.uleb128 0xb
 4364 0051 3B       		.uleb128 0x3b
 4365 0052 05       		.uleb128 0x5
 4366 0053 49       		.uleb128 0x49
 4367 0054 13       		.uleb128 0x13
 4368 0055 38       		.uleb128 0x38
 4369 0056 0B       		.uleb128 0xb
 4370 0057 00       		.byte	0
 4371 0058 00       		.byte	0
ARM GAS  /tmp/ccHRl1iB.s 			page 78


 4372 0059 08       		.uleb128 0x8
 4373 005a 0D       		.uleb128 0xd
 4374 005b 00       		.byte	0
 4375 005c 03       		.uleb128 0x3
 4376 005d 08       		.uleb128 0x8
 4377 005e 3A       		.uleb128 0x3a
 4378 005f 0B       		.uleb128 0xb
 4379 0060 3B       		.uleb128 0x3b
 4380 0061 05       		.uleb128 0x5
 4381 0062 49       		.uleb128 0x49
 4382 0063 13       		.uleb128 0x13
 4383 0064 38       		.uleb128 0x38
 4384 0065 0B       		.uleb128 0xb
 4385 0066 00       		.byte	0
 4386 0067 00       		.byte	0
 4387 0068 09       		.uleb128 0x9
 4388 0069 16       		.uleb128 0x16
 4389 006a 00       		.byte	0
 4390 006b 03       		.uleb128 0x3
 4391 006c 0E       		.uleb128 0xe
 4392 006d 3A       		.uleb128 0x3a
 4393 006e 0B       		.uleb128 0xb
 4394 006f 3B       		.uleb128 0x3b
 4395 0070 05       		.uleb128 0x5
 4396 0071 49       		.uleb128 0x49
 4397 0072 13       		.uleb128 0x13
 4398 0073 00       		.byte	0
 4399 0074 00       		.byte	0
 4400 0075 0A       		.uleb128 0xa
 4401 0076 04       		.uleb128 0x4
 4402 0077 01       		.byte	0x1
 4403 0078 0B       		.uleb128 0xb
 4404 0079 0B       		.uleb128 0xb
 4405 007a 3A       		.uleb128 0x3a
 4406 007b 0B       		.uleb128 0xb
 4407 007c 3B       		.uleb128 0x3b
 4408 007d 0B       		.uleb128 0xb
 4409 007e 01       		.uleb128 0x1
 4410 007f 13       		.uleb128 0x13
 4411 0080 00       		.byte	0
 4412 0081 00       		.byte	0
 4413 0082 0B       		.uleb128 0xb
 4414 0083 28       		.uleb128 0x28
 4415 0084 00       		.byte	0
 4416 0085 03       		.uleb128 0x3
 4417 0086 0E       		.uleb128 0xe
 4418 0087 1C       		.uleb128 0x1c
 4419 0088 0D       		.uleb128 0xd
 4420 0089 00       		.byte	0
 4421 008a 00       		.byte	0
 4422 008b 0C       		.uleb128 0xc
 4423 008c 28       		.uleb128 0x28
 4424 008d 00       		.byte	0
 4425 008e 03       		.uleb128 0x3
 4426 008f 08       		.uleb128 0x8
 4427 0090 1C       		.uleb128 0x1c
 4428 0091 0D       		.uleb128 0xd
ARM GAS  /tmp/ccHRl1iB.s 			page 79


 4429 0092 00       		.byte	0
 4430 0093 00       		.byte	0
 4431 0094 0D       		.uleb128 0xd
 4432 0095 13       		.uleb128 0x13
 4433 0096 01       		.byte	0x1
 4434 0097 0B       		.uleb128 0xb
 4435 0098 0B       		.uleb128 0xb
 4436 0099 3A       		.uleb128 0x3a
 4437 009a 0B       		.uleb128 0xb
 4438 009b 3B       		.uleb128 0x3b
 4439 009c 0B       		.uleb128 0xb
 4440 009d 01       		.uleb128 0x1
 4441 009e 13       		.uleb128 0x13
 4442 009f 00       		.byte	0
 4443 00a0 00       		.byte	0
 4444 00a1 0E       		.uleb128 0xe
 4445 00a2 0D       		.uleb128 0xd
 4446 00a3 00       		.byte	0
 4447 00a4 03       		.uleb128 0x3
 4448 00a5 0E       		.uleb128 0xe
 4449 00a6 3A       		.uleb128 0x3a
 4450 00a7 0B       		.uleb128 0xb
 4451 00a8 3B       		.uleb128 0x3b
 4452 00a9 0B       		.uleb128 0xb
 4453 00aa 49       		.uleb128 0x49
 4454 00ab 13       		.uleb128 0x13
 4455 00ac 38       		.uleb128 0x38
 4456 00ad 0B       		.uleb128 0xb
 4457 00ae 00       		.byte	0
 4458 00af 00       		.byte	0
 4459 00b0 0F       		.uleb128 0xf
 4460 00b1 0F       		.uleb128 0xf
 4461 00b2 00       		.byte	0
 4462 00b3 0B       		.uleb128 0xb
 4463 00b4 0B       		.uleb128 0xb
 4464 00b5 49       		.uleb128 0x49
 4465 00b6 13       		.uleb128 0x13
 4466 00b7 00       		.byte	0
 4467 00b8 00       		.byte	0
 4468 00b9 10       		.uleb128 0x10
 4469 00ba 2E       		.uleb128 0x2e
 4470 00bb 01       		.byte	0x1
 4471 00bc 3F       		.uleb128 0x3f
 4472 00bd 19       		.uleb128 0x19
 4473 00be 03       		.uleb128 0x3
 4474 00bf 0E       		.uleb128 0xe
 4475 00c0 3A       		.uleb128 0x3a
 4476 00c1 0B       		.uleb128 0xb
 4477 00c2 3B       		.uleb128 0x3b
 4478 00c3 0B       		.uleb128 0xb
 4479 00c4 27       		.uleb128 0x27
 4480 00c5 19       		.uleb128 0x19
 4481 00c6 49       		.uleb128 0x49
 4482 00c7 13       		.uleb128 0x13
 4483 00c8 11       		.uleb128 0x11
 4484 00c9 01       		.uleb128 0x1
 4485 00ca 12       		.uleb128 0x12
ARM GAS  /tmp/ccHRl1iB.s 			page 80


 4486 00cb 06       		.uleb128 0x6
 4487 00cc 40       		.uleb128 0x40
 4488 00cd 18       		.uleb128 0x18
 4489 00ce 9642     		.uleb128 0x2116
 4490 00d0 19       		.uleb128 0x19
 4491 00d1 01       		.uleb128 0x1
 4492 00d2 13       		.uleb128 0x13
 4493 00d3 00       		.byte	0
 4494 00d4 00       		.byte	0
 4495 00d5 11       		.uleb128 0x11
 4496 00d6 05       		.uleb128 0x5
 4497 00d7 00       		.byte	0
 4498 00d8 03       		.uleb128 0x3
 4499 00d9 0E       		.uleb128 0xe
 4500 00da 3A       		.uleb128 0x3a
 4501 00db 0B       		.uleb128 0xb
 4502 00dc 3B       		.uleb128 0x3b
 4503 00dd 0B       		.uleb128 0xb
 4504 00de 49       		.uleb128 0x49
 4505 00df 13       		.uleb128 0x13
 4506 00e0 02       		.uleb128 0x2
 4507 00e1 18       		.uleb128 0x18
 4508 00e2 00       		.byte	0
 4509 00e3 00       		.byte	0
 4510 00e4 12       		.uleb128 0x12
 4511 00e5 2E       		.uleb128 0x2e
 4512 00e6 01       		.byte	0x1
 4513 00e7 3F       		.uleb128 0x3f
 4514 00e8 19       		.uleb128 0x19
 4515 00e9 03       		.uleb128 0x3
 4516 00ea 0E       		.uleb128 0xe
 4517 00eb 3A       		.uleb128 0x3a
 4518 00ec 0B       		.uleb128 0xb
 4519 00ed 3B       		.uleb128 0x3b
 4520 00ee 05       		.uleb128 0x5
 4521 00ef 27       		.uleb128 0x27
 4522 00f0 19       		.uleb128 0x19
 4523 00f1 49       		.uleb128 0x49
 4524 00f2 13       		.uleb128 0x13
 4525 00f3 11       		.uleb128 0x11
 4526 00f4 01       		.uleb128 0x1
 4527 00f5 12       		.uleb128 0x12
 4528 00f6 06       		.uleb128 0x6
 4529 00f7 40       		.uleb128 0x40
 4530 00f8 18       		.uleb128 0x18
 4531 00f9 9642     		.uleb128 0x2116
 4532 00fb 19       		.uleb128 0x19
 4533 00fc 01       		.uleb128 0x1
 4534 00fd 13       		.uleb128 0x13
 4535 00fe 00       		.byte	0
 4536 00ff 00       		.byte	0
 4537 0100 13       		.uleb128 0x13
 4538 0101 05       		.uleb128 0x5
 4539 0102 00       		.byte	0
 4540 0103 03       		.uleb128 0x3
 4541 0104 0E       		.uleb128 0xe
 4542 0105 3A       		.uleb128 0x3a
ARM GAS  /tmp/ccHRl1iB.s 			page 81


 4543 0106 0B       		.uleb128 0xb
 4544 0107 3B       		.uleb128 0x3b
 4545 0108 05       		.uleb128 0x5
 4546 0109 49       		.uleb128 0x49
 4547 010a 13       		.uleb128 0x13
 4548 010b 02       		.uleb128 0x2
 4549 010c 18       		.uleb128 0x18
 4550 010d 00       		.byte	0
 4551 010e 00       		.byte	0
 4552 010f 14       		.uleb128 0x14
 4553 0110 34       		.uleb128 0x34
 4554 0111 00       		.byte	0
 4555 0112 03       		.uleb128 0x3
 4556 0113 0E       		.uleb128 0xe
 4557 0114 3A       		.uleb128 0x3a
 4558 0115 0B       		.uleb128 0xb
 4559 0116 3B       		.uleb128 0x3b
 4560 0117 05       		.uleb128 0x5
 4561 0118 49       		.uleb128 0x49
 4562 0119 13       		.uleb128 0x13
 4563 011a 02       		.uleb128 0x2
 4564 011b 18       		.uleb128 0x18
 4565 011c 00       		.byte	0
 4566 011d 00       		.byte	0
 4567 011e 15       		.uleb128 0x15
 4568 011f 2E       		.uleb128 0x2e
 4569 0120 01       		.byte	0x1
 4570 0121 3F       		.uleb128 0x3f
 4571 0122 19       		.uleb128 0x19
 4572 0123 03       		.uleb128 0x3
 4573 0124 0E       		.uleb128 0xe
 4574 0125 3A       		.uleb128 0x3a
 4575 0126 0B       		.uleb128 0xb
 4576 0127 3B       		.uleb128 0x3b
 4577 0128 05       		.uleb128 0x5
 4578 0129 27       		.uleb128 0x27
 4579 012a 19       		.uleb128 0x19
 4580 012b 11       		.uleb128 0x11
 4581 012c 01       		.uleb128 0x1
 4582 012d 12       		.uleb128 0x12
 4583 012e 06       		.uleb128 0x6
 4584 012f 40       		.uleb128 0x40
 4585 0130 18       		.uleb128 0x18
 4586 0131 9742     		.uleb128 0x2117
 4587 0133 19       		.uleb128 0x19
 4588 0134 01       		.uleb128 0x1
 4589 0135 13       		.uleb128 0x13
 4590 0136 00       		.byte	0
 4591 0137 00       		.byte	0
 4592 0138 16       		.uleb128 0x16
 4593 0139 2E       		.uleb128 0x2e
 4594 013a 01       		.byte	0x1
 4595 013b 3F       		.uleb128 0x3f
 4596 013c 19       		.uleb128 0x19
 4597 013d 03       		.uleb128 0x3
 4598 013e 0E       		.uleb128 0xe
 4599 013f 3A       		.uleb128 0x3a
ARM GAS  /tmp/ccHRl1iB.s 			page 82


 4600 0140 0B       		.uleb128 0xb
 4601 0141 3B       		.uleb128 0x3b
 4602 0142 05       		.uleb128 0x5
 4603 0143 27       		.uleb128 0x27
 4604 0144 19       		.uleb128 0x19
 4605 0145 11       		.uleb128 0x11
 4606 0146 01       		.uleb128 0x1
 4607 0147 12       		.uleb128 0x12
 4608 0148 06       		.uleb128 0x6
 4609 0149 40       		.uleb128 0x40
 4610 014a 18       		.uleb128 0x18
 4611 014b 9642     		.uleb128 0x2116
 4612 014d 19       		.uleb128 0x19
 4613 014e 01       		.uleb128 0x1
 4614 014f 13       		.uleb128 0x13
 4615 0150 00       		.byte	0
 4616 0151 00       		.byte	0
 4617 0152 17       		.uleb128 0x17
 4618 0153 2E       		.uleb128 0x2e
 4619 0154 01       		.byte	0x1
 4620 0155 3F       		.uleb128 0x3f
 4621 0156 19       		.uleb128 0x19
 4622 0157 03       		.uleb128 0x3
 4623 0158 0E       		.uleb128 0xe
 4624 0159 3A       		.uleb128 0x3a
 4625 015a 0B       		.uleb128 0xb
 4626 015b 3B       		.uleb128 0x3b
 4627 015c 05       		.uleb128 0x5
 4628 015d 27       		.uleb128 0x27
 4629 015e 19       		.uleb128 0x19
 4630 015f 49       		.uleb128 0x49
 4631 0160 13       		.uleb128 0x13
 4632 0161 11       		.uleb128 0x11
 4633 0162 01       		.uleb128 0x1
 4634 0163 12       		.uleb128 0x12
 4635 0164 06       		.uleb128 0x6
 4636 0165 40       		.uleb128 0x40
 4637 0166 18       		.uleb128 0x18
 4638 0167 9742     		.uleb128 0x2117
 4639 0169 19       		.uleb128 0x19
 4640 016a 01       		.uleb128 0x1
 4641 016b 13       		.uleb128 0x13
 4642 016c 00       		.byte	0
 4643 016d 00       		.byte	0
 4644 016e 18       		.uleb128 0x18
 4645 016f 34       		.uleb128 0x34
 4646 0170 00       		.byte	0
 4647 0171 03       		.uleb128 0x3
 4648 0172 08       		.uleb128 0x8
 4649 0173 3A       		.uleb128 0x3a
 4650 0174 0B       		.uleb128 0xb
 4651 0175 3B       		.uleb128 0x3b
 4652 0176 05       		.uleb128 0x5
 4653 0177 49       		.uleb128 0x49
 4654 0178 13       		.uleb128 0x13
 4655 0179 02       		.uleb128 0x2
 4656 017a 18       		.uleb128 0x18
ARM GAS  /tmp/ccHRl1iB.s 			page 83


 4657 017b 00       		.byte	0
 4658 017c 00       		.byte	0
 4659 017d 19       		.uleb128 0x19
 4660 017e 34       		.uleb128 0x34
 4661 017f 00       		.byte	0
 4662 0180 03       		.uleb128 0x3
 4663 0181 0E       		.uleb128 0xe
 4664 0182 3A       		.uleb128 0x3a
 4665 0183 0B       		.uleb128 0xb
 4666 0184 3B       		.uleb128 0x3b
 4667 0185 05       		.uleb128 0x5
 4668 0186 49       		.uleb128 0x49
 4669 0187 13       		.uleb128 0x13
 4670 0188 3F       		.uleb128 0x3f
 4671 0189 19       		.uleb128 0x19
 4672 018a 3C       		.uleb128 0x3c
 4673 018b 19       		.uleb128 0x19
 4674 018c 00       		.byte	0
 4675 018d 00       		.byte	0
 4676 018e 00       		.byte	0
 4677              		.section	.debug_aranges,"",%progbits
 4678 0000 1C000000 		.4byte	0x1c
 4679 0004 0200     		.2byte	0x2
 4680 0006 00000000 		.4byte	.Ldebug_info0
 4681 000a 04       		.byte	0x4
 4682 000b 00       		.byte	0
 4683 000c 0000     		.2byte	0
 4684 000e 0000     		.2byte	0
 4685 0010 00000000 		.4byte	.Ltext0
 4686 0014 F8100000 		.4byte	.Letext0-.Ltext0
 4687 0018 00000000 		.4byte	0
 4688 001c 00000000 		.4byte	0
 4689              		.section	.debug_line,"",%progbits
 4690              	.Ldebug_line0:
 4691 0000 35050000 		.section	.debug_str,"MS",%progbits,1
 4691      02004502 
 4691      00000201 
 4691      FB0E0D00 
 4691      01010101 
 4692              	.LASF120:
 4693 0000 496E7374 		.ascii	"Instance\000"
 4693      616E6365 
 4693      00
 4694              	.LASF93:
 4695 0009 53796E63 		.ascii	"SynchPrediv\000"
 4695      68507265 
 4695      64697600 
 4696              	.LASF157:
 4697 0015 474E5520 		.ascii	"GNU C 4.8.4 20140526 (release) [ARM/embedded-4_8-br"
 4697      4320342E 
 4697      382E3420 
 4697      32303134 
 4697      30353236 
 4698 0048 616E6368 		.ascii	"anch revision 211358] -mcpu=cortex-m4 -mno-thumb-in"
 4698      20726576 
 4698      6973696F 
 4698      6E203231 
ARM GAS  /tmp/ccHRl1iB.s 			page 84


 4698      31333538 
 4699 007b 74657277 		.ascii	"terwork -mthumb -ggdb -O0 -std=c99 -fomit-frame-poi"
 4699      6F726B20 
 4699      2D6D7468 
 4699      756D6220 
 4699      2D676764 
 4700 00ae 6E746572 		.ascii	"nter -falign-functions=16\000"
 4700      202D6661 
 4700      6C69676E 
 4700      2D66756E 
 4700      6374696F 
 4701              	.LASF68:
 4702 00c8 424B5032 		.ascii	"BKP26R\000"
 4702      365200
 4703              	.LASF146:
 4704 00cf 48414C5F 		.ascii	"HAL_RTC_AlarmIRQHandler\000"
 4704      5254435F 
 4704      416C6172 
 4704      6D495251 
 4704      48616E64 
 4705              	.LASF17:
 4706 00e7 454D5231 		.ascii	"EMR1\000"
 4706      00
 4707              	.LASF143:
 4708 00ec 48414C5F 		.ascii	"HAL_RTC_SetAlarm_IT\000"
 4708      5254435F 
 4708      53657441 
 4708      6C61726D 
 4708      5F495400 
 4709              	.LASF4:
 4710 0100 5F5F7569 		.ascii	"__uint8_t\000"
 4710      6E74385F 
 4710      7400
 4711              	.LASF79:
 4712 010a 48414C5F 		.ascii	"HAL_BUSY\000"
 4712      42555359 
 4712      00
 4713              	.LASF72:
 4714 0113 424B5033 		.ascii	"BKP30R\000"
 4714      305200
 4715              	.LASF19:
 4716 011a 46545352 		.ascii	"FTSR1\000"
 4716      3100
 4717              	.LASF45:
 4718 0120 424B5033 		.ascii	"BKP3R\000"
 4718      5200
 4719              	.LASF39:
 4720 0126 54414D50 		.ascii	"TAMPCR\000"
 4720      435200
 4721              	.LASF29:
 4722 012d 50524552 		.ascii	"PRER\000"
 4722      00
 4723              	.LASF116:
 4724 0132 416C6172 		.ascii	"AlarmDateWeekDaySel\000"
 4724      6D446174 
 4724      65576565 
 4724      6B446179 
ARM GAS  /tmp/ccHRl1iB.s 			page 85


 4724      53656C00 
 4725              	.LASF57:
 4726 0146 424B5031 		.ascii	"BKP15R\000"
 4726      355200
 4727              	.LASF10:
 4728 014d 6C6F6E67 		.ascii	"long long unsigned int\000"
 4728      206C6F6E 
 4728      6720756E 
 4728      7369676E 
 4728      65642069 
 4729              	.LASF151:
 4730 0164 48414C5F 		.ascii	"HAL_RTC_GetState\000"
 4730      5254435F 
 4730      47657453 
 4730      74617465 
 4730      00
 4731              	.LASF71:
 4732 0175 424B5032 		.ascii	"BKP29R\000"
 4732      395200
 4733              	.LASF128:
 4734 017c 48414C5F 		.ascii	"HAL_RTC_MspInit\000"
 4734      5254435F 
 4734      4D737049 
 4734      6E697400 
 4735              	.LASF119:
 4736 018c 5254435F 		.ascii	"RTC_AlarmTypeDef\000"
 4736      416C6172 
 4736      6D547970 
 4736      65446566 
 4736      00
 4737              	.LASF160:
 4738 019d 49544D5F 		.ascii	"ITM_RxBuffer\000"
 4738      52784275 
 4738      66666572 
 4738      00
 4739              	.LASF20:
 4740 01aa 53574945 		.ascii	"SWIER1\000"
 4740      523100
 4741              	.LASF124:
 4742 01b1 5254435F 		.ascii	"RTC_HandleTypeDef\000"
 4742      48616E64 
 4742      6C655479 
 4742      70654465 
 4742      6600
 4743              	.LASF74:
 4744 01c3 5254435F 		.ascii	"RTC_TypeDef\000"
 4744      54797065 
 4744      44656600 
 4745              	.LASF97:
 4746 01cf 4F757450 		.ascii	"OutPutType\000"
 4746      75745479 
 4746      706500
 4747              	.LASF148:
 4748 01da 48414C5F 		.ascii	"HAL_RTC_PollForAlarmAEvent\000"
 4748      5254435F 
 4748      506F6C6C 
 4748      466F7241 
ARM GAS  /tmp/ccHRl1iB.s 			page 86


 4748      6C61726D 
 4749              	.LASF9:
 4750 01f5 6C6F6E67 		.ascii	"long long int\000"
 4750      206C6F6E 
 4750      6720696E 
 4750      7400
 4751              	.LASF0:
 4752 0203 7369676E 		.ascii	"signed char\000"
 4752      65642063 
 4752      68617200 
 4753              	.LASF152:
 4754 020f 5254435F 		.ascii	"RTC_EnterInitMode\000"
 4754      456E7465 
 4754      72496E69 
 4754      744D6F64 
 4754      6500
 4755              	.LASF131:
 4756 0221 7354696D 		.ascii	"sTime\000"
 4756      6500
 4757              	.LASF69:
 4758 0227 424B5032 		.ascii	"BKP27R\000"
 4758      375200
 4759              	.LASF37:
 4760 022e 54535353 		.ascii	"TSSSR\000"
 4760      5200
 4761              	.LASF134:
 4762 0234 746D7072 		.ascii	"tmpreg\000"
 4762      656700
 4763              	.LASF84:
 4764 023b 48414C5F 		.ascii	"HAL_LockTypeDef\000"
 4764      4C6F636B 
 4764      54797065 
 4764      44656600 
 4765              	.LASF117:
 4766 024b 416C6172 		.ascii	"AlarmDateWeekDay\000"
 4766      6D446174 
 4766      65576565 
 4766      6B446179 
 4766      00
 4767              	.LASF6:
 4768 025c 6C6F6E67 		.ascii	"long int\000"
 4768      20696E74 
 4768      00
 4769              	.LASF73:
 4770 0265 424B5033 		.ascii	"BKP31R\000"
 4770      315200
 4771              	.LASF109:
 4772 026c 4D6F6E74 		.ascii	"Month\000"
 4772      6800
 4773              	.LASF41:
 4774 0272 414C524D 		.ascii	"ALRMBSSR\000"
 4774      42535352 
 4774      00
 4775              	.LASF94:
 4776 027b 4F757450 		.ascii	"OutPut\000"
 4776      757400
 4777              	.LASF11:
ARM GAS  /tmp/ccHRl1iB.s 			page 87


 4778 0282 756E7369 		.ascii	"unsigned int\000"
 4778      676E6564 
 4778      20696E74 
 4778      00
 4779              	.LASF114:
 4780 028f 416C6172 		.ascii	"AlarmMask\000"
 4780      6D4D6173 
 4780      6B00
 4781              	.LASF58:
 4782 0299 424B5031 		.ascii	"BKP16R\000"
 4782      365200
 4783              	.LASF85:
 4784 02a0 48414C5F 		.ascii	"HAL_RTC_STATE_RESET\000"
 4784      5254435F 
 4784      53544154 
 4784      455F5245 
 4784      53455400 
 4785              	.LASF140:
 4786 02b4 48414C5F 		.ascii	"HAL_RTC_SetAlarm\000"
 4786      5254435F 
 4786      53657441 
 4786      6C61726D 
 4786      00
 4787              	.LASF104:
 4788 02c5 5365636F 		.ascii	"SecondFraction\000"
 4788      6E644672 
 4788      61637469 
 4788      6F6E00
 4789              	.LASF62:
 4790 02d4 424B5032 		.ascii	"BKP20R\000"
 4790      305200
 4791              	.LASF122:
 4792 02db 4C6F636B 		.ascii	"Lock\000"
 4792      00
 4793              	.LASF7:
 4794 02e0 5F5F7569 		.ascii	"__uint32_t\000"
 4794      6E743332 
 4794      5F7400
 4795              	.LASF26:
 4796 02eb 46545352 		.ascii	"FTSR2\000"
 4796      3200
 4797              	.LASF130:
 4798 02f1 48414C5F 		.ascii	"HAL_RTC_SetTime\000"
 4798      5254435F 
 4798      53657454 
 4798      696D6500 
 4799              	.LASF149:
 4800 0301 54696D65 		.ascii	"Timeout\000"
 4800      6F757400 
 4801              	.LASF159:
 4802 0309 2F752F65 		.ascii	"/u/elawton2/p442-submissions/sensortile/reference/b"
 4802      6C617774 
 4802      6F6E322F 
 4802      70343432 
 4802      2D737562 
 4803 033c 6C75656D 		.ascii	"luemicrosystem2/BlueMicrosystem2_V2.2.0/Projects/Mu"
 4803      6963726F 
ARM GAS  /tmp/ccHRl1iB.s 			page 88


 4803      73797374 
 4803      656D322F 
 4803      426C7565 
 4804 036f 6C74692F 		.ascii	"lti/Applications/BlueMicrosystem2/bluechibi\000"
 4804      4170706C 
 4804      69636174 
 4804      696F6E73 
 4804      2F426C75 
 4805              	.LASF96:
 4806 039b 4F757450 		.ascii	"OutPutPolarity\000"
 4806      7574506F 
 4806      6C617269 
 4806      747900
 4807              	.LASF31:
 4808 03aa 72657365 		.ascii	"reserved\000"
 4808      72766564 
 4808      00
 4809              	.LASF70:
 4810 03b3 424B5032 		.ascii	"BKP28R\000"
 4810      385200
 4811              	.LASF80:
 4812 03ba 48414C5F 		.ascii	"HAL_TIMEOUT\000"
 4812      54494D45 
 4812      4F555400 
 4813              	.LASF40:
 4814 03c6 414C524D 		.ascii	"ALRMASSR\000"
 4814      41535352 
 4814      00
 4815              	.LASF126:
 4816 03cf 48414C5F 		.ascii	"HAL_RTC_DeInit\000"
 4816      5254435F 
 4816      4465496E 
 4816      697400
 4817              	.LASF36:
 4818 03de 54534452 		.ascii	"TSDR\000"
 4818      00
 4819              	.LASF136:
 4820 03e3 48414C5F 		.ascii	"HAL_RTC_SetDate\000"
 4820      5254435F 
 4820      53657444 
 4820      61746500 
 4821              	.LASF47:
 4822 03f3 424B5035 		.ascii	"BKP5R\000"
 4822      5200
 4823              	.LASF89:
 4824 03f9 48414C5F 		.ascii	"HAL_RTC_STATE_ERROR\000"
 4824      5254435F 
 4824      53544154 
 4824      455F4552 
 4824      524F5200 
 4825              	.LASF142:
 4826 040d 73756273 		.ascii	"subsecondtmpreg\000"
 4826      65636F6E 
 4826      64746D70 
 4826      72656700 
 4827              	.LASF59:
 4828 041d 424B5031 		.ascii	"BKP17R\000"
ARM GAS  /tmp/ccHRl1iB.s 			page 89


 4828      375200
 4829              	.LASF8:
 4830 0424 6C6F6E67 		.ascii	"long unsigned int\000"
 4830      20756E73 
 4830      69676E65 
 4830      6420696E 
 4830      7400
 4831              	.LASF147:
 4832 0436 48414C5F 		.ascii	"HAL_RTC_AlarmAEventCallback\000"
 4832      5254435F 
 4832      416C6172 
 4832      6D414576 
 4832      656E7443 
 4833              	.LASF86:
 4834 0452 48414C5F 		.ascii	"HAL_RTC_STATE_READY\000"
 4834      5254435F 
 4834      53544154 
 4834      455F5245 
 4834      41445900 
 4835              	.LASF77:
 4836 0466 48414C5F 		.ascii	"HAL_OK\000"
 4836      4F4B00
 4837              	.LASF63:
 4838 046d 424B5032 		.ascii	"BKP21R\000"
 4838      315200
 4839              	.LASF3:
 4840 0474 73686F72 		.ascii	"short unsigned int\000"
 4840      7420756E 
 4840      7369676E 
 4840      65642069 
 4840      6E7400
 4841              	.LASF16:
 4842 0487 494D5231 		.ascii	"IMR1\000"
 4842      00
 4843              	.LASF23:
 4844 048c 494D5232 		.ascii	"IMR2\000"
 4844      00
 4845              	.LASF111:
 4846 0491 59656172 		.ascii	"Year\000"
 4846      00
 4847              	.LASF145:
 4848 0496 48414C5F 		.ascii	"HAL_RTC_GetAlarm\000"
 4848      5254435F 
 4848      47657441 
 4848      6C61726D 
 4848      00
 4849              	.LASF144:
 4850 04a7 48414C5F 		.ascii	"HAL_RTC_DeactivateAlarm\000"
 4850      5254435F 
 4850      44656163 
 4850      74697661 
 4850      7465416C 
 4851              	.LASF52:
 4852 04bf 424B5031 		.ascii	"BKP10R\000"
 4852      305200
 4853              	.LASF35:
 4854 04c6 54535452 		.ascii	"TSTR\000"
ARM GAS  /tmp/ccHRl1iB.s 			page 90


 4854      00
 4855              	.LASF81:
 4856 04cb 48414C5F 		.ascii	"HAL_StatusTypeDef\000"
 4856      53746174 
 4856      75735479 
 4856      70654465 
 4856      6600
 4857              	.LASF5:
 4858 04dd 5F5F696E 		.ascii	"__int32_t\000"
 4858      7433325F 
 4858      7400
 4859              	.LASF48:
 4860 04e7 424B5036 		.ascii	"BKP6R\000"
 4860      5200
 4861              	.LASF115:
 4862 04ed 416C6172 		.ascii	"AlarmSubSecondMask\000"
 4862      6D537562 
 4862      5365636F 
 4862      6E644D61 
 4862      736B00
 4863              	.LASF137:
 4864 0500 73446174 		.ascii	"sDate\000"
 4864      6500
 4865              	.LASF88:
 4866 0506 48414C5F 		.ascii	"HAL_RTC_STATE_TIMEOUT\000"
 4866      5254435F 
 4866      53544154 
 4866      455F5449 
 4866      4D454F55 
 4867              	.LASF60:
 4868 051c 424B5031 		.ascii	"BKP18R\000"
 4868      385200
 4869              	.LASF108:
 4870 0523 5765656B 		.ascii	"WeekDay\000"
 4870      44617900 
 4871              	.LASF38:
 4872 052b 43414C52 		.ascii	"CALR\000"
 4872      00
 4873              	.LASF64:
 4874 0530 424B5032 		.ascii	"BKP22R\000"
 4874      325200
 4875              	.LASF65:
 4876 0537 424B5032 		.ascii	"BKP23R\000"
 4876      335200
 4877              	.LASF83:
 4878 053e 48414C5F 		.ascii	"HAL_LOCKED\000"
 4878      4C4F434B 
 4878      454400
 4879              	.LASF101:
 4880 0549 5365636F 		.ascii	"Seconds\000"
 4880      6E647300 
 4881              	.LASF100:
 4882 0551 4D696E75 		.ascii	"Minutes\000"
 4882      74657300 
 4883              	.LASF99:
 4884 0559 486F7572 		.ascii	"Hours\000"
 4884      7300
ARM GAS  /tmp/ccHRl1iB.s 			page 91


 4885              	.LASF53:
 4886 055f 424B5031 		.ascii	"BKP11R\000"
 4886      315200
 4887              	.LASF107:
 4888 0566 5254435F 		.ascii	"RTC_TimeTypeDef\000"
 4888      54696D65 
 4888      54797065 
 4888      44656600 
 4889              	.LASF32:
 4890 0576 414C524D 		.ascii	"ALRMAR\000"
 4890      415200
 4891              	.LASF121:
 4892 057d 496E6974 		.ascii	"Init\000"
 4892      00
 4893              	.LASF112:
 4894 0582 5254435F 		.ascii	"RTC_DateTypeDef\000"
 4894      44617465 
 4894      54797065 
 4894      44656600 
 4895              	.LASF49:
 4896 0592 424B5037 		.ascii	"BKP7R\000"
 4896      5200
 4897              	.LASF21:
 4898 0598 52455345 		.ascii	"RESERVED1\000"
 4898      52564544 
 4898      3100
 4899              	.LASF61:
 4900 05a2 424B5031 		.ascii	"BKP19R\000"
 4900      395200
 4901              	.LASF18:
 4902 05a9 52545352 		.ascii	"RTSR1\000"
 4902      3100
 4903              	.LASF25:
 4904 05af 52545352 		.ascii	"RTSR2\000"
 4904      3200
 4905              	.LASF75:
 4906 05b5 52455345 		.ascii	"RESET\000"
 4906      5400
 4907              	.LASF141:
 4908 05bb 73416C61 		.ascii	"sAlarm\000"
 4908      726D00
 4909              	.LASF13:
 4910 05c2 696E7433 		.ascii	"int32_t\000"
 4910      325F7400 
 4911              	.LASF1:
 4912 05ca 756E7369 		.ascii	"unsigned char\000"
 4912      676E6564 
 4912      20636861 
 4912      7200
 4913              	.LASF2:
 4914 05d8 73686F72 		.ascii	"short int\000"
 4914      7420696E 
 4914      7400
 4915              	.LASF42:
 4916 05e2 424B5030 		.ascii	"BKP0R\000"
 4916      5200
 4917              	.LASF87:
ARM GAS  /tmp/ccHRl1iB.s 			page 92


 4918 05e8 48414C5F 		.ascii	"HAL_RTC_STATE_BUSY\000"
 4918      5254435F 
 4918      53544154 
 4918      455F4255 
 4918      535900
 4919              	.LASF155:
 4920 05fb 62636468 		.ascii	"bcdhigh\000"
 4920      69676800 
 4921              	.LASF54:
 4922 0603 424B5031 		.ascii	"BKP12R\000"
 4922      325200
 4923              	.LASF158:
 4924 060a 2E2E2F2E 		.ascii	"../../../../../Drivers/STM32L4xx_HAL_Driver/Src/stm"
 4924      2E2F2E2E 
 4924      2F2E2E2F 
 4924      2E2E2F44 
 4924      72697665 
 4925 063d 33326C34 		.ascii	"32l4xx_hal_rtc.c\000"
 4925      78785F68 
 4925      616C5F72 
 4925      74632E63 
 4925      00
 4926              	.LASF22:
 4927 064e 52455345 		.ascii	"RESERVED2\000"
 4927      52564544 
 4927      3200
 4928              	.LASF33:
 4929 0658 414C524D 		.ascii	"ALRMBR\000"
 4929      425200
 4930              	.LASF138:
 4931 065f 64617465 		.ascii	"datetmpreg\000"
 4931      746D7072 
 4931      656700
 4932              	.LASF135:
 4933 066a 48414C5F 		.ascii	"HAL_RTC_GetTime\000"
 4933      5254435F 
 4933      47657454 
 4933      696D6500 
 4934              	.LASF50:
 4935 067a 424B5038 		.ascii	"BKP8R\000"
 4935      5200
 4936              	.LASF14:
 4937 0680 75696E74 		.ascii	"uint32_t\000"
 4937      33325F74 
 4937      00
 4938              	.LASF30:
 4939 0689 57555452 		.ascii	"WUTR\000"
 4939      00
 4940              	.LASF78:
 4941 068e 48414C5F 		.ascii	"HAL_ERROR\000"
 4941      4552524F 
 4941      5200
 4942              	.LASF105:
 4943 0698 4461794C 		.ascii	"DayLightSaving\000"
 4943      69676874 
 4943      53617669 
 4943      6E6700
ARM GAS  /tmp/ccHRl1iB.s 			page 93


 4944              	.LASF15:
 4945 06a7 73697A65 		.ascii	"sizetype\000"
 4945      74797065 
 4945      00
 4946              	.LASF46:
 4947 06b0 424B5034 		.ascii	"BKP4R\000"
 4947      5200
 4948              	.LASF76:
 4949 06b6 63686172 		.ascii	"char\000"
 4949      00
 4950              	.LASF123:
 4951 06bb 53746174 		.ascii	"State\000"
 4951      6500
 4952              	.LASF66:
 4953 06c1 424B5032 		.ascii	"BKP24R\000"
 4953      345200
 4954              	.LASF133:
 4955 06c8 7469636B 		.ascii	"tickstart\000"
 4955      73746172 
 4955      7400
 4956              	.LASF132:
 4957 06d2 466F726D 		.ascii	"Format\000"
 4957      617400
 4958              	.LASF95:
 4959 06d9 4F757450 		.ascii	"OutPutRemap\000"
 4959      75745265 
 4959      6D617000 
 4960              	.LASF102:
 4961 06e5 54696D65 		.ascii	"TimeFormat\000"
 4961      466F726D 
 4961      617400
 4962              	.LASF129:
 4963 06f0 48414C5F 		.ascii	"HAL_RTC_MspDeInit\000"
 4963      5254435F 
 4963      4D737044 
 4963      65496E69 
 4963      7400
 4964              	.LASF55:
 4965 0702 424B5031 		.ascii	"BKP13R\000"
 4965      335200
 4966              	.LASF90:
 4967 0709 48414C5F 		.ascii	"HAL_RTCStateTypeDef\000"
 4967      52544353 
 4967      74617465 
 4967      54797065 
 4967      44656600 
 4968              	.LASF106:
 4969 071d 53746F72 		.ascii	"StoreOperation\000"
 4969      654F7065 
 4969      72617469 
 4969      6F6E00
 4970              	.LASF91:
 4971 072c 486F7572 		.ascii	"HourFormat\000"
 4971      466F726D 
 4971      617400
 4972              	.LASF34:
 4973 0737 53484946 		.ascii	"SHIFTR\000"
ARM GAS  /tmp/ccHRl1iB.s 			page 94


 4973      545200
 4974              	.LASF24:
 4975 073e 454D5232 		.ascii	"EMR2\000"
 4975      00
 4976              	.LASF125:
 4977 0743 48414C5F 		.ascii	"HAL_RTC_Init\000"
 4977      5254435F 
 4977      496E6974 
 4977      00
 4978              	.LASF139:
 4979 0750 48414C5F 		.ascii	"HAL_RTC_GetDate\000"
 4979      5254435F 
 4979      47657444 
 4979      61746500 
 4980              	.LASF103:
 4981 0760 53756253 		.ascii	"SubSeconds\000"
 4981      65636F6E 
 4981      647300
 4982              	.LASF113:
 4983 076b 416C6172 		.ascii	"AlarmTime\000"
 4983      6D54696D 
 4983      6500
 4984              	.LASF51:
 4985 0775 424B5039 		.ascii	"BKP9R\000"
 4985      5200
 4986              	.LASF92:
 4987 077b 4173796E 		.ascii	"AsynchPrediv\000"
 4987      63685072 
 4987      65646976 
 4987      00
 4988              	.LASF127:
 4989 0788 68727463 		.ascii	"hrtc\000"
 4989      00
 4990              	.LASF153:
 4991 078d 5254435F 		.ascii	"RTC_ByteToBcd2\000"
 4991      42797465 
 4991      546F4263 
 4991      643200
 4992              	.LASF154:
 4993 079c 56616C75 		.ascii	"Value\000"
 4993      6500
 4994              	.LASF118:
 4995 07a2 416C6172 		.ascii	"Alarm\000"
 4995      6D00
 4996              	.LASF12:
 4997 07a8 75696E74 		.ascii	"uint8_t\000"
 4997      385F7400 
 4998              	.LASF67:
 4999 07b0 424B5032 		.ascii	"BKP25R\000"
 4999      355200
 5000              	.LASF156:
 5001 07b7 5254435F 		.ascii	"RTC_Bcd2ToByte\000"
 5001      42636432 
 5001      546F4279 
 5001      746500
 5002              	.LASF110:
 5003 07c6 44617465 		.ascii	"Date\000"
ARM GAS  /tmp/ccHRl1iB.s 			page 95


 5003      00
 5004              	.LASF150:
 5005 07cb 48414C5F 		.ascii	"HAL_RTC_WaitForSynchro\000"
 5005      5254435F 
 5005      57616974 
 5005      466F7253 
 5005      796E6368 
 5006              	.LASF98:
 5007 07e2 5254435F 		.ascii	"RTC_InitTypeDef\000"
 5007      496E6974 
 5007      54797065 
 5007      44656600 
 5008              	.LASF44:
 5009 07f2 424B5032 		.ascii	"BKP2R\000"
 5009      5200
 5010              	.LASF82:
 5011 07f8 48414C5F 		.ascii	"HAL_UNLOCKED\000"
 5011      554E4C4F 
 5011      434B4544 
 5011      00
 5012              	.LASF56:
 5013 0805 424B5031 		.ascii	"BKP14R\000"
 5013      345200
 5014              	.LASF28:
 5015 080c 45585449 		.ascii	"EXTI_TypeDef\000"
 5015      5F547970 
 5015      65446566 
 5015      00
 5016              	.LASF43:
 5017 0819 424B5031 		.ascii	"BKP1R\000"
 5017      5200
 5018              	.LASF27:
 5019 081f 53574945 		.ascii	"SWIER2\000"
 5019      523200
 5020              		.ident	"GCC: (GNU Tools for ARM Embedded Processors) 4.8.4 20140526 (release) [ARM/embedded-4_8-br
ARM GAS  /tmp/ccHRl1iB.s 			page 96


DEFINED SYMBOLS
                            *ABS*:00000000 stm32l4xx_hal_rtc.c
     /tmp/ccHRl1iB.s:18     .text:00000000 $t
     /tmp/ccHRl1iB.s:24     .text:00000000 HAL_RTC_Init
     /tmp/ccHRl1iB.s:412    .text:00000270 HAL_RTC_MspInit
     /tmp/ccHRl1iB.s:2604   .text:00001020 RTC_EnterInitMode
     /tmp/ccHRl1iB.s:188    .text:00000110 HAL_RTC_DeInit
     /tmp/ccHRl1iB.s:2512   .text:00000fb0 HAL_RTC_WaitForSynchro
     /tmp/ccHRl1iB.s:435    .text:00000280 HAL_RTC_MspDeInit
     /tmp/ccHRl1iB.s:402    .text:0000026c $d
     /tmp/ccHRl1iB.s:406    .text:00000270 $t
     /tmp/ccHRl1iB.s:458    .text:00000290 HAL_RTC_SetTime
     /tmp/ccHRl1iB.s:2673   .text:00001080 RTC_ByteToBcd2
     /tmp/ccHRl1iB.s:2725   .text:000010c0 RTC_Bcd2ToByte
     /tmp/ccHRl1iB.s:714    .text:00000430 HAL_RTC_GetTime
     /tmp/ccHRl1iB.s:827    .text:000004f0 HAL_RTC_SetDate
     /tmp/ccHRl1iB.s:1063   .text:00000670 HAL_RTC_GetDate
     /tmp/ccHRl1iB.s:1163   .text:00000710 HAL_RTC_SetAlarm
     /tmp/ccHRl1iB.s:1549   .text:00000990 HAL_RTC_SetAlarm_IT
     /tmp/ccHRl1iB.s:1959   .text:00000c44 $d
     /tmp/ccHRl1iB.s:1963   .text:00000c48 $t
     /tmp/ccHRl1iB.s:1969   .text:00000c50 HAL_RTC_DeactivateAlarm
     /tmp/ccHRl1iB.s:2154   .text:00000d80 HAL_RTC_GetAlarm
     /tmp/ccHRl1iB.s:2317   .text:00000ea0 HAL_RTC_AlarmIRQHandler
     /tmp/ccHRl1iB.s:2408   .text:00000f30 HAL_RTC_AlarmAEventCallback
     /tmp/ccHRl1iB.s:2398   .text:00000f24 $d
     /tmp/ccHRl1iB.s:2402   .text:00000f28 $t
     /tmp/ccHRl1iB.s:2431   .text:00000f40 HAL_RTC_PollForAlarmAEvent
     /tmp/ccHRl1iB.s:2576   .text:00001000 HAL_RTC_GetState
                     .debug_frame:00000010 $d

UNDEFINED SYMBOLS
HAL_GetTick
HAL_RTCEx_AlarmBEventCallback
