ARM GAS  /tmp/ccakcsKX.s 			page 1


   1              		.syntax unified
   2              		.cpu cortex-m4
   3              		.fpu softvfp
   4              		.eabi_attribute 20, 1
   5              		.eabi_attribute 21, 1
   6              		.eabi_attribute 23, 3
   7              		.eabi_attribute 24, 1
   8              		.eabi_attribute 25, 1
   9              		.eabi_attribute 26, 1
  10              		.eabi_attribute 30, 6
  11              		.eabi_attribute 34, 1
  12              		.eabi_attribute 18, 4
  13              		.thumb
  14              		.file	"stm32l4xx_hal_pcd.c"
  15              		.text
  16              	.Ltext0:
  17              		.cfi_sections	.debug_frame
  18              		.align	2
  19              		.p2align 4,,15
  20              		.global	HAL_PCD_Init
  21              		.thumb
  22              		.thumb_func
  23              		.type	HAL_PCD_Init, %function
  24              	HAL_PCD_Init:
  25              	.LFB125:
  26              		.file 1 "../../../../../Drivers/STM32L4xx_HAL_Driver/Src/stm32l4xx_hal_pcd.c"
  27              		.loc 1 144 0
  28              		.cfi_startproc
  29              		@ args = 0, pretend = 0, frame = 16
  30              		@ frame_needed = 0, uses_anonymous_args = 0
  31 0000 F0B5     		push	{r4, r5, r6, r7, lr}
  32              		.cfi_def_cfa_offset 20
  33              		.cfi_offset 4, -20
  34              		.cfi_offset 5, -16
  35              		.cfi_offset 6, -12
  36              		.cfi_offset 7, -8
  37              		.cfi_offset 14, -4
  38 0002 8FB0     		sub	sp, sp, #60
  39              		.cfi_def_cfa_offset 80
  40 0004 0B90     		str	r0, [sp, #44]
  41              		.loc 1 145 0
  42 0006 0023     		movs	r3, #0
  43 0008 0D93     		str	r3, [sp, #52]
  44              		.loc 1 148 0
  45 000a 0B9B     		ldr	r3, [sp, #44]
  46 000c 002B     		cmp	r3, #0
  47 000e 01D1     		bne	.L2
  48              		.loc 1 150 0
  49 0010 0123     		movs	r3, #1
  50 0012 0BE1     		b	.L3
  51              	.L2:
  52              		.loc 1 156 0
  53 0014 0B9B     		ldr	r3, [sp, #44]
  54 0016 93F88533 		ldrb	r3, [r3, #901]
  55 001a DBB2     		uxtb	r3, r3
  56 001c 002B     		cmp	r3, #0
  57 001e 06D1     		bne	.L4
ARM GAS  /tmp/ccakcsKX.s 			page 2


  58              		.loc 1 159 0
  59 0020 0B9B     		ldr	r3, [sp, #44]
  60 0022 0022     		movs	r2, #0
  61 0024 83F88423 		strb	r2, [r3, #900]
  62              		.loc 1 162 0
  63 0028 0B98     		ldr	r0, [sp, #44]
  64 002a FFF7FEFF 		bl	HAL_PCD_MspInit
  65              	.L4:
  66              		.loc 1 165 0
  67 002e 0B9B     		ldr	r3, [sp, #44]
  68 0030 0322     		movs	r2, #3
  69 0032 83F88523 		strb	r2, [r3, #901]
  70              		.loc 1 168 0
  71 0036 0B9B     		ldr	r3, [sp, #44]
  72 0038 1B68     		ldr	r3, [r3]
  73 003a 1846     		mov	r0, r3
  74 003c FFF7FEFF 		bl	USB_DisableGlobalInt
  75              		.loc 1 171 0
  76 0040 0B9B     		ldr	r3, [sp, #44]
  77 0042 1F68     		ldr	r7, [r3]
  78 0044 0B9E     		ldr	r6, [sp, #44]
  79 0046 6C46     		mov	r4, sp
  80 0048 06F11005 		add	r5, r6, #16
  81 004c 0FCD     		ldmia	r5!, {r0, r1, r2, r3}
  82 004e 0FC4     		stmia	r4!, {r0, r1, r2, r3}
  83 0050 0FCD     		ldmia	r5!, {r0, r1, r2, r3}
  84 0052 0FC4     		stmia	r4!, {r0, r1, r2, r3}
  85 0054 95E80300 		ldmia	r5, {r0, r1}
  86 0058 84E80300 		stmia	r4, {r0, r1}
  87 005c 331D     		adds	r3, r6, #4
  88 005e 0ECB     		ldmia	r3, {r1, r2, r3}
  89 0060 3846     		mov	r0, r7
  90 0062 FFF7FEFF 		bl	USB_CoreInit
  91              		.loc 1 174 0
  92 0066 0B9B     		ldr	r3, [sp, #44]
  93 0068 1B68     		ldr	r3, [r3]
  94 006a 1846     		mov	r0, r3
  95 006c 0021     		movs	r1, #0
  96 006e FFF7FEFF 		bl	USB_SetCurrentMode
  97              		.loc 1 177 0
  98 0072 0023     		movs	r3, #0
  99 0074 0D93     		str	r3, [sp, #52]
 100 0076 4CE0     		b	.L5
 101              	.L6:
 102              		.loc 1 180 0 discriminator 2
 103 0078 0B99     		ldr	r1, [sp, #44]
 104 007a 0D9A     		ldr	r2, [sp, #52]
 105 007c 1346     		mov	r3, r2
 106 007e DB00     		lsls	r3, r3, #3
 107 0080 9B1A     		subs	r3, r3, r2
 108 0082 9B00     		lsls	r3, r3, #2
 109 0084 0B44     		add	r3, r3, r1
 110 0086 3833     		adds	r3, r3, #56
 111 0088 0122     		movs	r2, #1
 112 008a 5A71     		strb	r2, [r3, #5]
 113              		.loc 1 181 0 discriminator 2
 114 008c 0D9B     		ldr	r3, [sp, #52]
ARM GAS  /tmp/ccakcsKX.s 			page 3


 115 008e D9B2     		uxtb	r1, r3
 116 0090 0B98     		ldr	r0, [sp, #44]
 117 0092 0D9A     		ldr	r2, [sp, #52]
 118 0094 1346     		mov	r3, r2
 119 0096 DB00     		lsls	r3, r3, #3
 120 0098 9B1A     		subs	r3, r3, r2
 121 009a 9B00     		lsls	r3, r3, #2
 122 009c 0344     		add	r3, r3, r0
 123 009e 3833     		adds	r3, r3, #56
 124 00a0 0A46     		mov	r2, r1
 125 00a2 1A71     		strb	r2, [r3, #4]
 126              		.loc 1 182 0 discriminator 2
 127 00a4 0D9B     		ldr	r3, [sp, #52]
 128 00a6 99B2     		uxth	r1, r3
 129 00a8 0B98     		ldr	r0, [sp, #44]
 130 00aa 0D9A     		ldr	r2, [sp, #52]
 131 00ac 1346     		mov	r3, r2
 132 00ae DB00     		lsls	r3, r3, #3
 133 00b0 9B1A     		subs	r3, r3, r2
 134 00b2 9B00     		lsls	r3, r3, #2
 135 00b4 0344     		add	r3, r3, r0
 136 00b6 3833     		adds	r3, r3, #56
 137 00b8 0A46     		mov	r2, r1	@ movhi
 138 00ba 5A81     		strh	r2, [r3, #10]	@ movhi
 139              		.loc 1 184 0 discriminator 2
 140 00bc 0B99     		ldr	r1, [sp, #44]
 141 00be 0D9A     		ldr	r2, [sp, #52]
 142 00c0 1346     		mov	r3, r2
 143 00c2 DB00     		lsls	r3, r3, #3
 144 00c4 9B1A     		subs	r3, r3, r2
 145 00c6 9B00     		lsls	r3, r3, #2
 146 00c8 0B44     		add	r3, r3, r1
 147 00ca 3833     		adds	r3, r3, #56
 148 00cc 0022     		movs	r2, #0
 149 00ce DA71     		strb	r2, [r3, #7]
 150              		.loc 1 185 0 discriminator 2
 151 00d0 0B99     		ldr	r1, [sp, #44]
 152 00d2 0D9A     		ldr	r2, [sp, #52]
 153 00d4 1346     		mov	r3, r2
 154 00d6 DB00     		lsls	r3, r3, #3
 155 00d8 9B1A     		subs	r3, r3, r2
 156 00da 9B00     		lsls	r3, r3, #2
 157 00dc 0B44     		add	r3, r3, r1
 158 00de 4033     		adds	r3, r3, #64
 159 00e0 0022     		movs	r2, #0
 160 00e2 5A60     		str	r2, [r3, #4]
 161              		.loc 1 186 0 discriminator 2
 162 00e4 0B99     		ldr	r1, [sp, #44]
 163 00e6 0D9A     		ldr	r2, [sp, #52]
 164 00e8 1346     		mov	r3, r2
 165 00ea DB00     		lsls	r3, r3, #3
 166 00ec 9B1A     		subs	r3, r3, r2
 167 00ee 9B00     		lsls	r3, r3, #2
 168 00f0 0B44     		add	r3, r3, r1
 169 00f2 4033     		adds	r3, r3, #64
 170 00f4 0022     		movs	r2, #0
 171 00f6 9A60     		str	r2, [r3, #8]
ARM GAS  /tmp/ccakcsKX.s 			page 4


 172              		.loc 1 187 0 discriminator 2
 173 00f8 0B99     		ldr	r1, [sp, #44]
 174 00fa 0D9A     		ldr	r2, [sp, #52]
 175 00fc 1346     		mov	r3, r2
 176 00fe DB00     		lsls	r3, r3, #3
 177 0100 9B1A     		subs	r3, r3, r2
 178 0102 9B00     		lsls	r3, r3, #2
 179 0104 0B44     		add	r3, r3, r1
 180 0106 4833     		adds	r3, r3, #72
 181 0108 0022     		movs	r2, #0
 182 010a 9A60     		str	r2, [r3, #8]
 183              		.loc 1 177 0 discriminator 2
 184 010c 0D9B     		ldr	r3, [sp, #52]
 185 010e 0133     		adds	r3, r3, #1
 186 0110 0D93     		str	r3, [sp, #52]
 187              	.L5:
 188              		.loc 1 177 0 is_stmt 0 discriminator 1
 189 0112 0B9B     		ldr	r3, [sp, #44]
 190 0114 5A68     		ldr	r2, [r3, #4]
 191 0116 0D9B     		ldr	r3, [sp, #52]
 192 0118 9A42     		cmp	r2, r3
 193 011a ADD8     		bhi	.L6
 194              		.loc 1 190 0 is_stmt 1
 195 011c 0023     		movs	r3, #0
 196 011e 0D93     		str	r3, [sp, #52]
 197 0120 52E0     		b	.L7
 198              	.L8:
 199              		.loc 1 192 0 discriminator 2
 200 0122 0B99     		ldr	r1, [sp, #44]
 201 0124 0D9A     		ldr	r2, [sp, #52]
 202 0126 1346     		mov	r3, r2
 203 0128 DB00     		lsls	r3, r3, #3
 204 012a 9B1A     		subs	r3, r3, r2
 205 012c 9B00     		lsls	r3, r3, #2
 206 012e 0B44     		add	r3, r3, r1
 207 0130 03F5F073 		add	r3, r3, #480
 208 0134 0022     		movs	r2, #0
 209 0136 5A70     		strb	r2, [r3, #1]
 210              		.loc 1 193 0 discriminator 2
 211 0138 0D9B     		ldr	r3, [sp, #52]
 212 013a D9B2     		uxtb	r1, r3
 213 013c 0B98     		ldr	r0, [sp, #44]
 214 013e 0D9A     		ldr	r2, [sp, #52]
 215 0140 1346     		mov	r3, r2
 216 0142 DB00     		lsls	r3, r3, #3
 217 0144 9B1A     		subs	r3, r3, r2
 218 0146 9B00     		lsls	r3, r3, #2
 219 0148 0344     		add	r3, r3, r0
 220 014a 03F5F073 		add	r3, r3, #480
 221 014e 0A46     		mov	r2, r1
 222 0150 1A70     		strb	r2, [r3]
 223              		.loc 1 194 0 discriminator 2
 224 0152 0D9B     		ldr	r3, [sp, #52]
 225 0154 99B2     		uxth	r1, r3
 226 0156 0B98     		ldr	r0, [sp, #44]
 227 0158 0D9A     		ldr	r2, [sp, #52]
 228 015a 1346     		mov	r3, r2
ARM GAS  /tmp/ccakcsKX.s 			page 5


 229 015c DB00     		lsls	r3, r3, #3
 230 015e 9B1A     		subs	r3, r3, r2
 231 0160 9B00     		lsls	r3, r3, #2
 232 0162 0344     		add	r3, r3, r0
 233 0164 3833     		adds	r3, r3, #56
 234 0166 0A46     		mov	r2, r1	@ movhi
 235 0168 5A81     		strh	r2, [r3, #10]	@ movhi
 236              		.loc 1 196 0 discriminator 2
 237 016a 0B99     		ldr	r1, [sp, #44]
 238 016c 0D9A     		ldr	r2, [sp, #52]
 239 016e 1346     		mov	r3, r2
 240 0170 DB00     		lsls	r3, r3, #3
 241 0172 9B1A     		subs	r3, r3, r2
 242 0174 9B00     		lsls	r3, r3, #2
 243 0176 0B44     		add	r3, r3, r1
 244 0178 03F5F073 		add	r3, r3, #480
 245 017c 0022     		movs	r2, #0
 246 017e DA70     		strb	r2, [r3, #3]
 247              		.loc 1 197 0 discriminator 2
 248 0180 0B99     		ldr	r1, [sp, #44]
 249 0182 0D9A     		ldr	r2, [sp, #52]
 250 0184 1346     		mov	r3, r2
 251 0186 DB00     		lsls	r3, r3, #3
 252 0188 9B1A     		subs	r3, r3, r2
 253 018a 9B00     		lsls	r3, r3, #2
 254 018c 0B44     		add	r3, r3, r1
 255 018e 03F5F473 		add	r3, r3, #488
 256 0192 0022     		movs	r2, #0
 257 0194 1A60     		str	r2, [r3]
 258              		.loc 1 198 0 discriminator 2
 259 0196 0B99     		ldr	r1, [sp, #44]
 260 0198 0D9A     		ldr	r2, [sp, #52]
 261 019a 1346     		mov	r3, r2
 262 019c DB00     		lsls	r3, r3, #3
 263 019e 9B1A     		subs	r3, r3, r2
 264 01a0 9B00     		lsls	r3, r3, #2
 265 01a2 0B44     		add	r3, r3, r1
 266 01a4 03F5F473 		add	r3, r3, #488
 267 01a8 0022     		movs	r2, #0
 268 01aa 5A60     		str	r2, [r3, #4]
 269              		.loc 1 199 0 discriminator 2
 270 01ac 0B99     		ldr	r1, [sp, #44]
 271 01ae 0D9A     		ldr	r2, [sp, #52]
 272 01b0 1346     		mov	r3, r2
 273 01b2 DB00     		lsls	r3, r3, #3
 274 01b4 9B1A     		subs	r3, r3, r2
 275 01b6 9B00     		lsls	r3, r3, #2
 276 01b8 0B44     		add	r3, r3, r1
 277 01ba 03F5F873 		add	r3, r3, #496
 278 01be 0022     		movs	r2, #0
 279 01c0 5A60     		str	r2, [r3, #4]
 280              		.loc 1 190 0 discriminator 2
 281 01c2 0D9B     		ldr	r3, [sp, #52]
 282 01c4 0133     		adds	r3, r3, #1
 283 01c6 0D93     		str	r3, [sp, #52]
 284              	.L7:
 285              		.loc 1 190 0 is_stmt 0 discriminator 1
ARM GAS  /tmp/ccakcsKX.s 			page 6


 286 01c8 0D9B     		ldr	r3, [sp, #52]
 287 01ca 0E2B     		cmp	r3, #14
 288 01cc A9D9     		bls	.L8
 289              		.loc 1 203 0 is_stmt 1
 290 01ce 0B9B     		ldr	r3, [sp, #44]
 291 01d0 1F68     		ldr	r7, [r3]
 292 01d2 0B9E     		ldr	r6, [sp, #44]
 293 01d4 6C46     		mov	r4, sp
 294 01d6 06F11005 		add	r5, r6, #16
 295 01da 0FCD     		ldmia	r5!, {r0, r1, r2, r3}
 296 01dc 0FC4     		stmia	r4!, {r0, r1, r2, r3}
 297 01de 0FCD     		ldmia	r5!, {r0, r1, r2, r3}
 298 01e0 0FC4     		stmia	r4!, {r0, r1, r2, r3}
 299 01e2 95E80300 		ldmia	r5, {r0, r1}
 300 01e6 84E80300 		stmia	r4, {r0, r1}
 301 01ea 331D     		adds	r3, r6, #4
 302 01ec 0ECB     		ldmia	r3, {r1, r2, r3}
 303 01ee 3846     		mov	r0, r7
 304 01f0 FFF7FEFF 		bl	USB_DevInit
 305              		.loc 1 205 0
 306 01f4 0B9B     		ldr	r3, [sp, #44]
 307 01f6 0022     		movs	r2, #0
 308 01f8 83F83820 		strb	r2, [r3, #56]
 309              		.loc 1 207 0
 310 01fc 0B9B     		ldr	r3, [sp, #44]
 311 01fe 0122     		movs	r2, #1
 312 0200 83F88523 		strb	r2, [r3, #901]
 313              		.loc 1 210 0
 314 0204 0B9B     		ldr	r3, [sp, #44]
 315 0206 5B6A     		ldr	r3, [r3, #36]
 316 0208 012B     		cmp	r3, #1
 317 020a 02D1     		bne	.L9
 318              		.loc 1 212 0
 319 020c 0B98     		ldr	r0, [sp, #44]
 320 020e FFF7FEFF 		bl	HAL_PCDEx_ActivateLPM
 321              	.L9:
 322              		.loc 1 215 0
 323 0212 0B9B     		ldr	r3, [sp, #44]
 324 0214 9B6A     		ldr	r3, [r3, #40]
 325 0216 012B     		cmp	r3, #1
 326 0218 02D1     		bne	.L10
 327              		.loc 1 217 0
 328 021a 0B98     		ldr	r0, [sp, #44]
 329 021c FFF7FEFF 		bl	HAL_PCDEx_ActivateBCD
 330              	.L10:
 331              		.loc 1 219 0
 332 0220 0B9B     		ldr	r3, [sp, #44]
 333 0222 1B68     		ldr	r3, [r3]
 334 0224 1846     		mov	r0, r3
 335 0226 FFF7FEFF 		bl	USB_DevDisconnect
 336              		.loc 1 220 0
 337 022a 0023     		movs	r3, #0
 338              	.L3:
 339              		.loc 1 221 0
 340 022c 1846     		mov	r0, r3
 341 022e 0FB0     		add	sp, sp, #60
 342              		@ sp needed
ARM GAS  /tmp/ccakcsKX.s 			page 7


 343 0230 F0BD     		pop	{r4, r5, r6, r7, pc}
 344              		.cfi_endproc
 345              	.LFE125:
 346              		.size	HAL_PCD_Init, .-HAL_PCD_Init
 347 0232 00BF     		.align	2
 348 0234 AFF30080 		.p2align 4,,15
 348      AFF30080 
 348      AFF30080 
 349              		.global	HAL_PCD_DeInit
 350              		.thumb
 351              		.thumb_func
 352              		.type	HAL_PCD_DeInit, %function
 353              	HAL_PCD_DeInit:
 354              	.LFB126:
 355              		.loc 1 229 0
 356              		.cfi_startproc
 357              		@ args = 0, pretend = 0, frame = 8
 358              		@ frame_needed = 0, uses_anonymous_args = 0
 359 0240 00B5     		push	{lr}
 360              		.cfi_def_cfa_offset 4
 361              		.cfi_offset 14, -4
 362 0242 83B0     		sub	sp, sp, #12
 363              		.cfi_def_cfa_offset 16
 364 0244 0190     		str	r0, [sp, #4]
 365              		.loc 1 231 0
 366 0246 019B     		ldr	r3, [sp, #4]
 367 0248 002B     		cmp	r3, #0
 368 024a 01D1     		bne	.L12
 369              		.loc 1 233 0
 370 024c 0123     		movs	r3, #1
 371 024e 0EE0     		b	.L13
 372              	.L12:
 373              		.loc 1 236 0
 374 0250 019B     		ldr	r3, [sp, #4]
 375 0252 0322     		movs	r2, #3
 376 0254 83F88523 		strb	r2, [r3, #901]
 377              		.loc 1 239 0
 378 0258 0198     		ldr	r0, [sp, #4]
 379 025a FFF7FEFF 		bl	HAL_PCD_Stop
 380              		.loc 1 242 0
 381 025e 0198     		ldr	r0, [sp, #4]
 382 0260 FFF7FEFF 		bl	HAL_PCD_MspDeInit
 383              		.loc 1 244 0
 384 0264 019B     		ldr	r3, [sp, #4]
 385 0266 0022     		movs	r2, #0
 386 0268 83F88523 		strb	r2, [r3, #901]
 387              		.loc 1 246 0
 388 026c 0023     		movs	r3, #0
 389              	.L13:
 390              		.loc 1 247 0
 391 026e 1846     		mov	r0, r3
 392 0270 03B0     		add	sp, sp, #12
 393              		@ sp needed
 394 0272 5DF804FB 		ldr	pc, [sp], #4
 395              		.cfi_endproc
 396              	.LFE126:
 397              		.size	HAL_PCD_DeInit, .-HAL_PCD_DeInit
ARM GAS  /tmp/ccakcsKX.s 			page 8


 398 0276 00BF     		.align	2
 399 0278 AFF30080 		.p2align 4,,15
 399      AFF30080 
 400              		.weak	HAL_PCD_MspInit
 401              		.thumb
 402              		.thumb_func
 403              		.type	HAL_PCD_MspInit, %function
 404              	HAL_PCD_MspInit:
 405              	.LFB127:
 406              		.loc 1 255 0
 407              		.cfi_startproc
 408              		@ args = 0, pretend = 0, frame = 8
 409              		@ frame_needed = 0, uses_anonymous_args = 0
 410              		@ link register save eliminated.
 411 0280 82B0     		sub	sp, sp, #8
 412              		.cfi_def_cfa_offset 8
 413 0282 0190     		str	r0, [sp, #4]
 414              		.loc 1 262 0
 415 0284 02B0     		add	sp, sp, #8
 416              		@ sp needed
 417 0286 7047     		bx	lr
 418              		.cfi_endproc
 419              	.LFE127:
 420              		.size	HAL_PCD_MspInit, .-HAL_PCD_MspInit
 421              		.align	2
 422 0288 AFF30080 		.p2align 4,,15
 422      AFF30080 
 423              		.weak	HAL_PCD_MspDeInit
 424              		.thumb
 425              		.thumb_func
 426              		.type	HAL_PCD_MspDeInit, %function
 427              	HAL_PCD_MspDeInit:
 428              	.LFB128:
 429              		.loc 1 270 0
 430              		.cfi_startproc
 431              		@ args = 0, pretend = 0, frame = 8
 432              		@ frame_needed = 0, uses_anonymous_args = 0
 433              		@ link register save eliminated.
 434 0290 82B0     		sub	sp, sp, #8
 435              		.cfi_def_cfa_offset 8
 436 0292 0190     		str	r0, [sp, #4]
 437              		.loc 1 277 0
 438 0294 02B0     		add	sp, sp, #8
 439              		@ sp needed
 440 0296 7047     		bx	lr
 441              		.cfi_endproc
 442              	.LFE128:
 443              		.size	HAL_PCD_MspDeInit, .-HAL_PCD_MspDeInit
 444              		.align	2
 445 0298 AFF30080 		.p2align 4,,15
 445      AFF30080 
 446              		.global	HAL_PCD_Start
 447              		.thumb
 448              		.thumb_func
 449              		.type	HAL_PCD_Start, %function
 450              	HAL_PCD_Start:
 451              	.LFB129:
ARM GAS  /tmp/ccakcsKX.s 			page 9


 452              		.loc 1 304 0
 453              		.cfi_startproc
 454              		@ args = 0, pretend = 0, frame = 8
 455              		@ frame_needed = 0, uses_anonymous_args = 0
 456 02a0 00B5     		push	{lr}
 457              		.cfi_def_cfa_offset 4
 458              		.cfi_offset 14, -4
 459 02a2 83B0     		sub	sp, sp, #12
 460              		.cfi_def_cfa_offset 16
 461 02a4 0190     		str	r0, [sp, #4]
 462              		.loc 1 305 0
 463 02a6 019B     		ldr	r3, [sp, #4]
 464 02a8 93F88433 		ldrb	r3, [r3, #900]	@ zero_extendqisi2
 465 02ac 012B     		cmp	r3, #1
 466 02ae 01D1     		bne	.L17
 467              		.loc 1 305 0 is_stmt 0 discriminator 1
 468 02b0 0223     		movs	r3, #2
 469 02b2 12E0     		b	.L18
 470              	.L17:
 471              		.loc 1 305 0 discriminator 2
 472 02b4 019B     		ldr	r3, [sp, #4]
 473 02b6 0122     		movs	r2, #1
 474 02b8 83F88423 		strb	r2, [r3, #900]
 475              		.loc 1 306 0 is_stmt 1 discriminator 2
 476 02bc 019B     		ldr	r3, [sp, #4]
 477 02be 1B68     		ldr	r3, [r3]
 478 02c0 1846     		mov	r0, r3
 479 02c2 FFF7FEFF 		bl	USB_DevConnect
 480              		.loc 1 307 0 discriminator 2
 481 02c6 019B     		ldr	r3, [sp, #4]
 482 02c8 1B68     		ldr	r3, [r3]
 483 02ca 1846     		mov	r0, r3
 484 02cc FFF7FEFF 		bl	USB_EnableGlobalInt
 485              		.loc 1 308 0 discriminator 2
 486 02d0 019B     		ldr	r3, [sp, #4]
 487 02d2 0022     		movs	r2, #0
 488 02d4 83F88423 		strb	r2, [r3, #900]
 489              		.loc 1 309 0 discriminator 2
 490 02d8 0023     		movs	r3, #0
 491              	.L18:
 492              		.loc 1 310 0
 493 02da 1846     		mov	r0, r3
 494 02dc 03B0     		add	sp, sp, #12
 495              		@ sp needed
 496 02de 5DF804FB 		ldr	pc, [sp], #4
 497              		.cfi_endproc
 498              	.LFE129:
 499              		.size	HAL_PCD_Start, .-HAL_PCD_Start
 500 02e2 00BF     		.align	2
 501 02e4 AFF30080 		.p2align 4,,15
 501      AFF30080 
 501      AFF30080 
 502              		.global	HAL_PCD_Stop
 503              		.thumb
 504              		.thumb_func
 505              		.type	HAL_PCD_Stop, %function
 506              	HAL_PCD_Stop:
ARM GAS  /tmp/ccakcsKX.s 			page 10


 507              	.LFB130:
 508              		.loc 1 318 0
 509              		.cfi_startproc
 510              		@ args = 0, pretend = 0, frame = 8
 511              		@ frame_needed = 0, uses_anonymous_args = 0
 512 02f0 00B5     		push	{lr}
 513              		.cfi_def_cfa_offset 4
 514              		.cfi_offset 14, -4
 515 02f2 83B0     		sub	sp, sp, #12
 516              		.cfi_def_cfa_offset 16
 517 02f4 0190     		str	r0, [sp, #4]
 518              		.loc 1 319 0
 519 02f6 019B     		ldr	r3, [sp, #4]
 520 02f8 93F88433 		ldrb	r3, [r3, #900]	@ zero_extendqisi2
 521 02fc 012B     		cmp	r3, #1
 522 02fe 01D1     		bne	.L20
 523              		.loc 1 319 0 is_stmt 0 discriminator 1
 524 0300 0223     		movs	r3, #2
 525 0302 17E0     		b	.L21
 526              	.L20:
 527              		.loc 1 319 0 discriminator 2
 528 0304 019B     		ldr	r3, [sp, #4]
 529 0306 0122     		movs	r2, #1
 530 0308 83F88423 		strb	r2, [r3, #900]
 531              		.loc 1 320 0 is_stmt 1 discriminator 2
 532 030c 019B     		ldr	r3, [sp, #4]
 533 030e 1B68     		ldr	r3, [r3]
 534 0310 1846     		mov	r0, r3
 535 0312 FFF7FEFF 		bl	USB_DisableGlobalInt
 536              		.loc 1 321 0 discriminator 2
 537 0316 019B     		ldr	r3, [sp, #4]
 538 0318 1B68     		ldr	r3, [r3]
 539 031a 1846     		mov	r0, r3
 540 031c FFF7FEFF 		bl	USB_StopDevice
 541              		.loc 1 322 0 discriminator 2
 542 0320 019B     		ldr	r3, [sp, #4]
 543 0322 1B68     		ldr	r3, [r3]
 544 0324 1846     		mov	r0, r3
 545 0326 FFF7FEFF 		bl	USB_DevDisconnect
 546              		.loc 1 323 0 discriminator 2
 547 032a 019B     		ldr	r3, [sp, #4]
 548 032c 0022     		movs	r2, #0
 549 032e 83F88423 		strb	r2, [r3, #900]
 550              		.loc 1 324 0 discriminator 2
 551 0332 0023     		movs	r3, #0
 552              	.L21:
 553              		.loc 1 325 0
 554 0334 1846     		mov	r0, r3
 555 0336 03B0     		add	sp, sp, #12
 556              		@ sp needed
 557 0338 5DF804FB 		ldr	pc, [sp], #4
 558              		.cfi_endproc
 559              	.LFE130:
 560              		.size	HAL_PCD_Stop, .-HAL_PCD_Stop
 561              		.align	2
 562 033c AFF30080 		.p2align 4,,15
 563              		.global	HAL_PCD_IRQHandler
ARM GAS  /tmp/ccakcsKX.s 			page 11


 564              		.thumb
 565              		.thumb_func
 566              		.type	HAL_PCD_IRQHandler, %function
 567              	HAL_PCD_IRQHandler:
 568              	.LFB131:
 569              		.loc 1 333 0
 570              		.cfi_startproc
 571              		@ args = 0, pretend = 0, frame = 48
 572              		@ frame_needed = 0, uses_anonymous_args = 0
 573 0340 00B5     		push	{lr}
 574              		.cfi_def_cfa_offset 4
 575              		.cfi_offset 14, -4
 576 0342 8DB0     		sub	sp, sp, #52
 577              		.cfi_def_cfa_offset 56
 578 0344 0190     		str	r0, [sp, #4]
 579              		.loc 1 334 0
 580 0346 019B     		ldr	r3, [sp, #4]
 581 0348 1B68     		ldr	r3, [r3]
 582 034a 0893     		str	r3, [sp, #32]
 583              		.loc 1 335 0
 584 034c 0023     		movs	r3, #0
 585 034e 0B93     		str	r3, [sp, #44]
 586 0350 0023     		movs	r3, #0
 587 0352 0A93     		str	r3, [sp, #40]
 588 0354 0023     		movs	r3, #0
 589 0356 0793     		str	r3, [sp, #28]
 590 0358 0023     		movs	r3, #0
 591 035a 0993     		str	r3, [sp, #36]
 592              		.loc 1 336 0
 593 035c 0023     		movs	r3, #0
 594 035e 0693     		str	r3, [sp, #24]
 595 0360 0023     		movs	r3, #0
 596 0362 0593     		str	r3, [sp, #20]
 597              		.loc 1 337 0
 598 0364 0023     		movs	r3, #0
 599 0366 0493     		str	r3, [sp, #16]
 600              		.loc 1 338 0
 601 0368 854B     		ldr	r3, .L76
 602 036a 0393     		str	r3, [sp, #12]
 603              		.loc 1 341 0
 604 036c 019B     		ldr	r3, [sp, #4]
 605 036e 1B68     		ldr	r3, [r3]
 606 0370 1846     		mov	r0, r3
 607 0372 FFF7FEFF 		bl	USB_GetMode
 608 0376 0346     		mov	r3, r0
 609 0378 002B     		cmp	r3, #0
 610 037a 40F08984 		bne	.L22
 611              		.loc 1 344 0
 612 037e 019B     		ldr	r3, [sp, #4]
 613 0380 1B68     		ldr	r3, [r3]
 614 0382 1846     		mov	r0, r3
 615 0384 FFF7FEFF 		bl	USB_ReadInterrupts
 616 0388 0346     		mov	r3, r0
 617 038a 002B     		cmp	r3, #0
 618 038c 01D1     		bne	.L24
 619              		.loc 1 346 0
 620 038e 00F07FBC 		b	.L22
ARM GAS  /tmp/ccakcsKX.s 			page 12


 621              	.L24:
 622              		.loc 1 349 0
 623 0392 019B     		ldr	r3, [sp, #4]
 624 0394 1B68     		ldr	r3, [r3]
 625 0396 1846     		mov	r0, r3
 626 0398 FFF7FEFF 		bl	USB_ReadInterrupts
 627 039c 0346     		mov	r3, r0
 628 039e 03F00203 		and	r3, r3, #2
 629 03a2 002B     		cmp	r3, #0
 630 03a4 07D0     		beq	.L25
 631              		.loc 1 352 0
 632 03a6 019B     		ldr	r3, [sp, #4]
 633 03a8 1B68     		ldr	r3, [r3]
 634 03aa 019A     		ldr	r2, [sp, #4]
 635 03ac 1268     		ldr	r2, [r2]
 636 03ae 5269     		ldr	r2, [r2, #20]
 637 03b0 02F00202 		and	r2, r2, #2
 638 03b4 5A61     		str	r2, [r3, #20]
 639              	.L25:
 640              		.loc 1 355 0
 641 03b6 019B     		ldr	r3, [sp, #4]
 642 03b8 1B68     		ldr	r3, [r3]
 643 03ba 1846     		mov	r0, r3
 644 03bc FFF7FEFF 		bl	USB_ReadInterrupts
 645 03c0 0346     		mov	r3, r0
 646 03c2 03F40023 		and	r3, r3, #524288
 647 03c6 002B     		cmp	r3, #0
 648 03c8 00F0C680 		beq	.L26
 649              		.loc 1 357 0
 650 03cc 0023     		movs	r3, #0
 651 03ce 0993     		str	r3, [sp, #36]
 652              		.loc 1 360 0
 653 03d0 019B     		ldr	r3, [sp, #4]
 654 03d2 1B68     		ldr	r3, [r3]
 655 03d4 1846     		mov	r0, r3
 656 03d6 FFF7FEFF 		bl	USB_ReadDevAllOutEpInterrupt
 657 03da 0A90     		str	r0, [sp, #40]
 658              		.loc 1 362 0
 659 03dc B8E0     		b	.L27
 660              	.L33:
 661              		.loc 1 364 0
 662 03de 0A9B     		ldr	r3, [sp, #40]
 663 03e0 03F00103 		and	r3, r3, #1
 664 03e4 002B     		cmp	r3, #0
 665 03e6 00F0AD80 		beq	.L28
 666              		.loc 1 366 0
 667 03ea 019B     		ldr	r3, [sp, #4]
 668 03ec 1A68     		ldr	r2, [r3]
 669 03ee 099B     		ldr	r3, [sp, #36]
 670 03f0 DBB2     		uxtb	r3, r3
 671 03f2 1046     		mov	r0, r2
 672 03f4 1946     		mov	r1, r3
 673 03f6 FFF7FEFF 		bl	USB_ReadDevOutEPInterrupt
 674 03fa 0790     		str	r0, [sp, #28]
 675              		.loc 1 368 0
 676 03fc 079B     		ldr	r3, [sp, #28]
 677 03fe 03F00103 		and	r3, r3, #1
ARM GAS  /tmp/ccakcsKX.s 			page 13


 678 0402 002B     		cmp	r3, #0
 679 0404 00F08180 		beq	.L29
 680              		.loc 1 370 0
 681 0408 099B     		ldr	r3, [sp, #36]
 682 040a 5A01     		lsls	r2, r3, #5
 683 040c 089B     		ldr	r3, [sp, #32]
 684 040e 1344     		add	r3, r3, r2
 685 0410 03F53063 		add	r3, r3, #2816
 686 0414 0122     		movs	r2, #1
 687 0416 9A60     		str	r2, [r3, #8]
 688              		.loc 1 372 0
 689 0418 089B     		ldr	r3, [sp, #32]
 690 041a 03F53063 		add	r3, r3, #2816
 691 041e 9B68     		ldr	r3, [r3, #8]
 692 0420 03F40043 		and	r3, r3, #32768
 693 0424 002B     		cmp	r3, #0
 694 0426 63D1     		bne	.L30
 695              		.loc 1 375 0
 696 0428 019B     		ldr	r3, [sp, #4]
 697 042a 1B69     		ldr	r3, [r3, #16]
 698 042c 012B     		cmp	r3, #1
 699 042e 3CD1     		bne	.L31
 700              		.loc 1 377 0
 701 0430 0199     		ldr	r1, [sp, #4]
 702 0432 099A     		ldr	r2, [sp, #36]
 703 0434 1346     		mov	r3, r2
 704 0436 DB00     		lsls	r3, r3, #3
 705 0438 9B1A     		subs	r3, r3, r2
 706 043a 9B00     		lsls	r3, r3, #2
 707 043c 0B44     		add	r3, r3, r1
 708 043e 03F5F473 		add	r3, r3, #488
 709 0442 1A68     		ldr	r2, [r3]
 710 0444 099B     		ldr	r3, [sp, #36]
 711 0446 5901     		lsls	r1, r3, #5
 712 0448 089B     		ldr	r3, [sp, #32]
 713 044a 0B44     		add	r3, r3, r1
 714 044c 03F53063 		add	r3, r3, #2816
 715 0450 1B69     		ldr	r3, [r3, #16]
 716 0452 C3F31203 		ubfx	r3, r3, #0, #19
 717 0456 D11A     		subs	r1, r2, r3
 718 0458 0198     		ldr	r0, [sp, #4]
 719 045a 099A     		ldr	r2, [sp, #36]
 720 045c 1346     		mov	r3, r2
 721 045e DB00     		lsls	r3, r3, #3
 722 0460 9B1A     		subs	r3, r3, r2
 723 0462 9B00     		lsls	r3, r3, #2
 724 0464 0344     		add	r3, r3, r0
 725 0466 03F5FC73 		add	r3, r3, #504
 726 046a 1960     		str	r1, [r3]
 727              		.loc 1 378 0
 728 046c 0199     		ldr	r1, [sp, #4]
 729 046e 099A     		ldr	r2, [sp, #36]
 730 0470 1346     		mov	r3, r2
 731 0472 DB00     		lsls	r3, r3, #3
 732 0474 9B1A     		subs	r3, r3, r2
 733 0476 9B00     		lsls	r3, r3, #2
 734 0478 0B44     		add	r3, r3, r1
ARM GAS  /tmp/ccakcsKX.s 			page 14


 735 047a 03F5F473 		add	r3, r3, #488
 736 047e 5968     		ldr	r1, [r3, #4]
 737 0480 0198     		ldr	r0, [sp, #4]
 738 0482 099A     		ldr	r2, [sp, #36]
 739 0484 1346     		mov	r3, r2
 740 0486 DB00     		lsls	r3, r3, #3
 741 0488 9B1A     		subs	r3, r3, r2
 742 048a 9B00     		lsls	r3, r3, #2
 743 048c 0344     		add	r3, r3, r0
 744 048e 03F5F473 		add	r3, r3, #488
 745 0492 1B68     		ldr	r3, [r3]
 746 0494 1944     		add	r1, r1, r3
 747 0496 0198     		ldr	r0, [sp, #4]
 748 0498 099A     		ldr	r2, [sp, #36]
 749 049a 1346     		mov	r3, r2
 750 049c DB00     		lsls	r3, r3, #3
 751 049e 9B1A     		subs	r3, r3, r2
 752 04a0 9B00     		lsls	r3, r3, #2
 753 04a2 0344     		add	r3, r3, r0
 754 04a4 03F5F473 		add	r3, r3, #488
 755 04a8 5960     		str	r1, [r3, #4]
 756              	.L31:
 757              		.loc 1 381 0
 758 04aa 099B     		ldr	r3, [sp, #36]
 759 04ac DBB2     		uxtb	r3, r3
 760 04ae 0198     		ldr	r0, [sp, #4]
 761 04b0 1946     		mov	r1, r3
 762 04b2 FFF7FEFF 		bl	HAL_PCD_DataOutStageCallback
 763              		.loc 1 383 0
 764 04b6 019B     		ldr	r3, [sp, #4]
 765 04b8 1B69     		ldr	r3, [r3, #16]
 766 04ba 012B     		cmp	r3, #1
 767 04bc 18D1     		bne	.L30
 768              		.loc 1 385 0
 769 04be 099B     		ldr	r3, [sp, #36]
 770 04c0 002B     		cmp	r3, #0
 771 04c2 15D1     		bne	.L30
 772              		.loc 1 385 0 is_stmt 0 discriminator 1
 773 04c4 0199     		ldr	r1, [sp, #4]
 774 04c6 099A     		ldr	r2, [sp, #36]
 775 04c8 1346     		mov	r3, r2
 776 04ca DB00     		lsls	r3, r3, #3
 777 04cc 9B1A     		subs	r3, r3, r2
 778 04ce 9B00     		lsls	r3, r3, #2
 779 04d0 0B44     		add	r3, r3, r1
 780 04d2 03F5F873 		add	r3, r3, #496
 781 04d6 5B68     		ldr	r3, [r3, #4]
 782 04d8 002B     		cmp	r3, #0
 783 04da 09D1     		bne	.L30
 784              		.loc 1 388 0 is_stmt 1
 785 04dc 019B     		ldr	r3, [sp, #4]
 786 04de 1A68     		ldr	r2, [r3]
 787 04e0 019B     		ldr	r3, [sp, #4]
 788 04e2 03F56273 		add	r3, r3, #904
 789 04e6 1046     		mov	r0, r2
 790 04e8 0121     		movs	r1, #1
 791 04ea 1A46     		mov	r2, r3
ARM GAS  /tmp/ccakcsKX.s 			page 15


 792 04ec FFF7FEFF 		bl	USB_EP0_OutStart
 793              	.L30:
 794              		.loc 1 393 0
 795 04f0 089B     		ldr	r3, [sp, #32]
 796 04f2 03F53063 		add	r3, r3, #2816
 797 04f6 1A46     		mov	r2, r3
 798 04f8 089B     		ldr	r3, [sp, #32]
 799 04fa 03F53063 		add	r3, r3, #2816
 800 04fe 9B68     		ldr	r3, [r3, #8]
 801 0500 43F40043 		orr	r3, r3, #32768
 802 0504 43F02003 		orr	r3, r3, #32
 803 0508 9360     		str	r3, [r2, #8]
 804              	.L29:
 805              		.loc 1 396 0
 806 050a 079B     		ldr	r3, [sp, #28]
 807 050c 03F00803 		and	r3, r3, #8
 808 0510 002B     		cmp	r3, #0
 809 0512 0AD0     		beq	.L32
 810              		.loc 1 399 0
 811 0514 0198     		ldr	r0, [sp, #4]
 812 0516 FFF7FEFF 		bl	HAL_PCD_SetupStageCallback
 813              		.loc 1 400 0
 814 051a 099B     		ldr	r3, [sp, #36]
 815 051c 5A01     		lsls	r2, r3, #5
 816 051e 089B     		ldr	r3, [sp, #32]
 817 0520 1344     		add	r3, r3, r2
 818 0522 03F53063 		add	r3, r3, #2816
 819 0526 0822     		movs	r2, #8
 820 0528 9A60     		str	r2, [r3, #8]
 821              	.L32:
 822              		.loc 1 403 0
 823 052a 079B     		ldr	r3, [sp, #28]
 824 052c 03F01003 		and	r3, r3, #16
 825 0530 002B     		cmp	r3, #0
 826 0532 07D0     		beq	.L28
 827              		.loc 1 405 0
 828 0534 099B     		ldr	r3, [sp, #36]
 829 0536 5A01     		lsls	r2, r3, #5
 830 0538 089B     		ldr	r3, [sp, #32]
 831 053a 1344     		add	r3, r3, r2
 832 053c 03F53063 		add	r3, r3, #2816
 833 0540 1022     		movs	r2, #16
 834 0542 9A60     		str	r2, [r3, #8]
 835              	.L28:
 836              		.loc 1 408 0
 837 0544 099B     		ldr	r3, [sp, #36]
 838 0546 0133     		adds	r3, r3, #1
 839 0548 0993     		str	r3, [sp, #36]
 840              		.loc 1 409 0
 841 054a 0A9B     		ldr	r3, [sp, #40]
 842 054c 5B08     		lsrs	r3, r3, #1
 843 054e 0A93     		str	r3, [sp, #40]
 844              	.L27:
 845              		.loc 1 362 0 discriminator 1
 846 0550 0A9B     		ldr	r3, [sp, #40]
 847 0552 002B     		cmp	r3, #0
 848 0554 7FF443AF 		bne	.L33
ARM GAS  /tmp/ccakcsKX.s 			page 16


 849              	.L26:
 850              		.loc 1 413 0
 851 0558 019B     		ldr	r3, [sp, #4]
 852 055a 1B68     		ldr	r3, [r3]
 853 055c 1846     		mov	r0, r3
 854 055e FFF7FEFF 		bl	USB_ReadInterrupts
 855 0562 0346     		mov	r3, r0
 856 0564 03F48023 		and	r3, r3, #262144
 857 0568 002B     		cmp	r3, #0
 858 056a 00F0C080 		beq	.L34
 859              		.loc 1 416 0
 860 056e 019B     		ldr	r3, [sp, #4]
 861 0570 1B68     		ldr	r3, [r3]
 862 0572 1846     		mov	r0, r3
 863 0574 FFF7FEFF 		bl	USB_ReadDevAllInEpInterrupt
 864 0578 0A90     		str	r0, [sp, #40]
 865              		.loc 1 418 0
 866 057a 0023     		movs	r3, #0
 867 057c 0993     		str	r3, [sp, #36]
 868              		.loc 1 420 0
 869 057e B2E0     		b	.L35
 870              	.L77:
 871              		.align	2
 872              	.L76:
 873 0580 00B4C404 		.word	80000000
 874              	.L43:
 875              		.loc 1 422 0
 876 0584 0A9B     		ldr	r3, [sp, #40]
 877 0586 03F00103 		and	r3, r3, #1
 878 058a 002B     		cmp	r3, #0
 879 058c 00F0A580 		beq	.L36
 880              		.loc 1 424 0
 881 0590 019B     		ldr	r3, [sp, #4]
 882 0592 1A68     		ldr	r2, [r3]
 883 0594 099B     		ldr	r3, [sp, #36]
 884 0596 DBB2     		uxtb	r3, r3
 885 0598 1046     		mov	r0, r2
 886 059a 1946     		mov	r1, r3
 887 059c FFF7FEFF 		bl	USB_ReadDevInEPInterrupt
 888 05a0 0790     		str	r0, [sp, #28]
 889              		.loc 1 426 0
 890 05a2 079B     		ldr	r3, [sp, #28]
 891 05a4 03F00103 		and	r3, r3, #1
 892 05a8 002B     		cmp	r3, #0
 893 05aa 59D0     		beq	.L37
 894              		.loc 1 428 0
 895 05ac 099B     		ldr	r3, [sp, #36]
 896 05ae 0122     		movs	r2, #1
 897 05b0 02FA03F3 		lsl	r3, r2, r3
 898 05b4 0693     		str	r3, [sp, #24]
 899              		.loc 1 429 0
 900 05b6 089B     		ldr	r3, [sp, #32]
 901 05b8 03F50063 		add	r3, r3, #2048
 902 05bc 089A     		ldr	r2, [sp, #32]
 903 05be 02F50062 		add	r2, r2, #2048
 904 05c2 516B     		ldr	r1, [r2, #52]
 905 05c4 069A     		ldr	r2, [sp, #24]
ARM GAS  /tmp/ccakcsKX.s 			page 17


 906 05c6 D243     		mvns	r2, r2
 907 05c8 0A40     		ands	r2, r2, r1
 908 05ca 5A63     		str	r2, [r3, #52]
 909              		.loc 1 431 0
 910 05cc 099B     		ldr	r3, [sp, #36]
 911 05ce 5A01     		lsls	r2, r3, #5
 912 05d0 089B     		ldr	r3, [sp, #32]
 913 05d2 1344     		add	r3, r3, r2
 914 05d4 03F51063 		add	r3, r3, #2304
 915 05d8 0122     		movs	r2, #1
 916 05da 9A60     		str	r2, [r3, #8]
 917              		.loc 1 433 0
 918 05dc 019B     		ldr	r3, [sp, #4]
 919 05de 1B69     		ldr	r3, [r3, #16]
 920 05e0 012B     		cmp	r3, #1
 921 05e2 1BD1     		bne	.L38
 922              		.loc 1 435 0
 923 05e4 0199     		ldr	r1, [sp, #4]
 924 05e6 099A     		ldr	r2, [sp, #36]
 925 05e8 1346     		mov	r3, r2
 926 05ea DB00     		lsls	r3, r3, #3
 927 05ec 9B1A     		subs	r3, r3, r2
 928 05ee 9B00     		lsls	r3, r3, #2
 929 05f0 0B44     		add	r3, r3, r1
 930 05f2 4033     		adds	r3, r3, #64
 931 05f4 9968     		ldr	r1, [r3, #8]
 932 05f6 0198     		ldr	r0, [sp, #4]
 933 05f8 099A     		ldr	r2, [sp, #36]
 934 05fa 1346     		mov	r3, r2
 935 05fc DB00     		lsls	r3, r3, #3
 936 05fe 9B1A     		subs	r3, r3, r2
 937 0600 9B00     		lsls	r3, r3, #2
 938 0602 0344     		add	r3, r3, r0
 939 0604 4033     		adds	r3, r3, #64
 940 0606 5B68     		ldr	r3, [r3, #4]
 941 0608 1944     		add	r1, r1, r3
 942 060a 0198     		ldr	r0, [sp, #4]
 943 060c 099A     		ldr	r2, [sp, #36]
 944 060e 1346     		mov	r3, r2
 945 0610 DB00     		lsls	r3, r3, #3
 946 0612 9B1A     		subs	r3, r3, r2
 947 0614 9B00     		lsls	r3, r3, #2
 948 0616 0344     		add	r3, r3, r0
 949 0618 4033     		adds	r3, r3, #64
 950 061a 9960     		str	r1, [r3, #8]
 951              	.L38:
 952              		.loc 1 438 0
 953 061c 099B     		ldr	r3, [sp, #36]
 954 061e DBB2     		uxtb	r3, r3
 955 0620 0198     		ldr	r0, [sp, #4]
 956 0622 1946     		mov	r1, r3
 957 0624 FFF7FEFF 		bl	HAL_PCD_DataInStageCallback
 958              		.loc 1 440 0
 959 0628 019B     		ldr	r3, [sp, #4]
 960 062a 1B69     		ldr	r3, [r3, #16]
 961 062c 012B     		cmp	r3, #1
 962 062e 17D1     		bne	.L37
ARM GAS  /tmp/ccakcsKX.s 			page 18


 963              		.loc 1 443 0
 964 0630 099B     		ldr	r3, [sp, #36]
 965 0632 002B     		cmp	r3, #0
 966 0634 14D1     		bne	.L37
 967              		.loc 1 443 0 is_stmt 0 discriminator 1
 968 0636 0199     		ldr	r1, [sp, #4]
 969 0638 099A     		ldr	r2, [sp, #36]
 970 063a 1346     		mov	r3, r2
 971 063c DB00     		lsls	r3, r3, #3
 972 063e 9B1A     		subs	r3, r3, r2
 973 0640 9B00     		lsls	r3, r3, #2
 974 0642 0B44     		add	r3, r3, r1
 975 0644 4833     		adds	r3, r3, #72
 976 0646 9B68     		ldr	r3, [r3, #8]
 977 0648 002B     		cmp	r3, #0
 978 064a 09D1     		bne	.L37
 979              		.loc 1 446 0 is_stmt 1
 980 064c 019B     		ldr	r3, [sp, #4]
 981 064e 1A68     		ldr	r2, [r3]
 982 0650 019B     		ldr	r3, [sp, #4]
 983 0652 03F56273 		add	r3, r3, #904
 984 0656 1046     		mov	r0, r2
 985 0658 0121     		movs	r1, #1
 986 065a 1A46     		mov	r2, r3
 987 065c FFF7FEFF 		bl	USB_EP0_OutStart
 988              	.L37:
 989              		.loc 1 450 0
 990 0660 079B     		ldr	r3, [sp, #28]
 991 0662 03F00803 		and	r3, r3, #8
 992 0666 002B     		cmp	r3, #0
 993 0668 07D0     		beq	.L39
 994              		.loc 1 452 0
 995 066a 099B     		ldr	r3, [sp, #36]
 996 066c 5A01     		lsls	r2, r3, #5
 997 066e 089B     		ldr	r3, [sp, #32]
 998 0670 1344     		add	r3, r3, r2
 999 0672 03F51063 		add	r3, r3, #2304
 1000 0676 0822     		movs	r2, #8
 1001 0678 9A60     		str	r2, [r3, #8]
 1002              	.L39:
 1003              		.loc 1 454 0
 1004 067a 079B     		ldr	r3, [sp, #28]
 1005 067c 03F01003 		and	r3, r3, #16
 1006 0680 002B     		cmp	r3, #0
 1007 0682 07D0     		beq	.L40
 1008              		.loc 1 456 0
 1009 0684 099B     		ldr	r3, [sp, #36]
 1010 0686 5A01     		lsls	r2, r3, #5
 1011 0688 089B     		ldr	r3, [sp, #32]
 1012 068a 1344     		add	r3, r3, r2
 1013 068c 03F51063 		add	r3, r3, #2304
 1014 0690 1022     		movs	r2, #16
 1015 0692 9A60     		str	r2, [r3, #8]
 1016              	.L40:
 1017              		.loc 1 458 0
 1018 0694 079B     		ldr	r3, [sp, #28]
 1019 0696 03F04003 		and	r3, r3, #64
ARM GAS  /tmp/ccakcsKX.s 			page 19


 1020 069a 002B     		cmp	r3, #0
 1021 069c 07D0     		beq	.L41
 1022              		.loc 1 460 0
 1023 069e 099B     		ldr	r3, [sp, #36]
 1024 06a0 5A01     		lsls	r2, r3, #5
 1025 06a2 089B     		ldr	r3, [sp, #32]
 1026 06a4 1344     		add	r3, r3, r2
 1027 06a6 03F51063 		add	r3, r3, #2304
 1028 06aa 4022     		movs	r2, #64
 1029 06ac 9A60     		str	r2, [r3, #8]
 1030              	.L41:
 1031              		.loc 1 462 0
 1032 06ae 079B     		ldr	r3, [sp, #28]
 1033 06b0 03F00203 		and	r3, r3, #2
 1034 06b4 002B     		cmp	r3, #0
 1035 06b6 07D0     		beq	.L42
 1036              		.loc 1 464 0
 1037 06b8 099B     		ldr	r3, [sp, #36]
 1038 06ba 5A01     		lsls	r2, r3, #5
 1039 06bc 089B     		ldr	r3, [sp, #32]
 1040 06be 1344     		add	r3, r3, r2
 1041 06c0 03F51063 		add	r3, r3, #2304
 1042 06c4 0222     		movs	r2, #2
 1043 06c6 9A60     		str	r2, [r3, #8]
 1044              	.L42:
 1045              		.loc 1 466 0
 1046 06c8 079B     		ldr	r3, [sp, #28]
 1047 06ca 03F08003 		and	r3, r3, #128
 1048 06ce 002B     		cmp	r3, #0
 1049 06d0 03D0     		beq	.L36
 1050              		.loc 1 468 0
 1051 06d2 0198     		ldr	r0, [sp, #4]
 1052 06d4 0999     		ldr	r1, [sp, #36]
 1053 06d6 00F04BFE 		bl	PCD_WriteEmptyTxFifo
 1054              	.L36:
 1055              		.loc 1 471 0
 1056 06da 099B     		ldr	r3, [sp, #36]
 1057 06dc 0133     		adds	r3, r3, #1
 1058 06de 0993     		str	r3, [sp, #36]
 1059              		.loc 1 472 0
 1060 06e0 0A9B     		ldr	r3, [sp, #40]
 1061 06e2 5B08     		lsrs	r3, r3, #1
 1062 06e4 0A93     		str	r3, [sp, #40]
 1063              	.L35:
 1064              		.loc 1 420 0 discriminator 1
 1065 06e6 0A9B     		ldr	r3, [sp, #40]
 1066 06e8 002B     		cmp	r3, #0
 1067 06ea 7FF44BAF 		bne	.L43
 1068              	.L34:
 1069              		.loc 1 477 0
 1070 06ee 019B     		ldr	r3, [sp, #4]
 1071 06f0 1B68     		ldr	r3, [r3]
 1072 06f2 1846     		mov	r0, r3
 1073 06f4 FFF7FEFF 		bl	USB_ReadInterrupts
 1074 06f8 0346     		mov	r3, r0
 1075 06fa 002B     		cmp	r3, #0
 1076 06fc 22DA     		bge	.L44
ARM GAS  /tmp/ccakcsKX.s 			page 20


 1077              		.loc 1 480 0
 1078 06fe 089B     		ldr	r3, [sp, #32]
 1079 0700 03F50063 		add	r3, r3, #2048
 1080 0704 089A     		ldr	r2, [sp, #32]
 1081 0706 02F50062 		add	r2, r2, #2048
 1082 070a 5268     		ldr	r2, [r2, #4]
 1083 070c 22F00102 		bic	r2, r2, #1
 1084 0710 5A60     		str	r2, [r3, #4]
 1085              		.loc 1 482 0
 1086 0712 019B     		ldr	r3, [sp, #4]
 1087 0714 93F8B833 		ldrb	r3, [r3, #952]	@ zero_extendqisi2
 1088 0718 012B     		cmp	r3, #1
 1089 071a 08D1     		bne	.L45
 1090              		.loc 1 484 0
 1091 071c 019B     		ldr	r3, [sp, #4]
 1092 071e 0022     		movs	r2, #0
 1093 0720 83F8B823 		strb	r2, [r3, #952]
 1094              		.loc 1 485 0
 1095 0724 0198     		ldr	r0, [sp, #4]
 1096 0726 0021     		movs	r1, #0
 1097 0728 FFF7FEFF 		bl	HAL_PCDEx_LPM_Callback
 1098 072c 02E0     		b	.L46
 1099              	.L45:
 1100              		.loc 1 489 0
 1101 072e 0198     		ldr	r0, [sp, #4]
 1102 0730 FFF7FEFF 		bl	HAL_PCD_ResumeCallback
 1103              	.L46:
 1104              		.loc 1 492 0
 1105 0734 019B     		ldr	r3, [sp, #4]
 1106 0736 1B68     		ldr	r3, [r3]
 1107 0738 019A     		ldr	r2, [sp, #4]
 1108 073a 1268     		ldr	r2, [r2]
 1109 073c 5269     		ldr	r2, [r2, #20]
 1110 073e 02F00042 		and	r2, r2, #-2147483648
 1111 0742 5A61     		str	r2, [r3, #20]
 1112              	.L44:
 1113              		.loc 1 496 0
 1114 0744 019B     		ldr	r3, [sp, #4]
 1115 0746 1B68     		ldr	r3, [r3]
 1116 0748 1846     		mov	r0, r3
 1117 074a FFF7FEFF 		bl	USB_ReadInterrupts
 1118 074e 0346     		mov	r3, r0
 1119 0750 03F40063 		and	r3, r3, #2048
 1120 0754 002B     		cmp	r3, #0
 1121 0756 12D0     		beq	.L47
 1122              		.loc 1 498 0
 1123 0758 089B     		ldr	r3, [sp, #32]
 1124 075a 03F50063 		add	r3, r3, #2048
 1125 075e 9B68     		ldr	r3, [r3, #8]
 1126 0760 03F00103 		and	r3, r3, #1
 1127 0764 002B     		cmp	r3, #0
 1128 0766 02D0     		beq	.L48
 1129              		.loc 1 501 0
 1130 0768 0198     		ldr	r0, [sp, #4]
 1131 076a FFF7FEFF 		bl	HAL_PCD_SuspendCallback
 1132              	.L48:
 1133              		.loc 1 503 0
ARM GAS  /tmp/ccakcsKX.s 			page 21


 1134 076e 019B     		ldr	r3, [sp, #4]
 1135 0770 1B68     		ldr	r3, [r3]
 1136 0772 019A     		ldr	r2, [sp, #4]
 1137 0774 1268     		ldr	r2, [r2]
 1138 0776 5269     		ldr	r2, [r2, #20]
 1139 0778 02F40062 		and	r2, r2, #2048
 1140 077c 5A61     		str	r2, [r3, #20]
 1141              	.L47:
 1142              		.loc 1 507 0
 1143 077e 019B     		ldr	r3, [sp, #4]
 1144 0780 1B68     		ldr	r3, [r3]
 1145 0782 1846     		mov	r0, r3
 1146 0784 FFF7FEFF 		bl	USB_ReadInterrupts
 1147 0788 0346     		mov	r3, r0
 1148 078a 03F00063 		and	r3, r3, #134217728
 1149 078e 002B     		cmp	r3, #0
 1150 0790 21D0     		beq	.L49
 1151              		.loc 1 509 0
 1152 0792 019B     		ldr	r3, [sp, #4]
 1153 0794 1B68     		ldr	r3, [r3]
 1154 0796 019A     		ldr	r2, [sp, #4]
 1155 0798 1268     		ldr	r2, [r2]
 1156 079a 5269     		ldr	r2, [r2, #20]
 1157 079c 02F00062 		and	r2, r2, #134217728
 1158 07a0 5A61     		str	r2, [r3, #20]
 1159              		.loc 1 510 0
 1160 07a2 019B     		ldr	r3, [sp, #4]
 1161 07a4 93F8B833 		ldrb	r3, [r3, #952]	@ zero_extendqisi2
 1162 07a8 002B     		cmp	r3, #0
 1163 07aa 11D1     		bne	.L50
 1164              		.loc 1 512 0
 1165 07ac 019B     		ldr	r3, [sp, #4]
 1166 07ae 0122     		movs	r2, #1
 1167 07b0 83F8B823 		strb	r2, [r3, #952]
 1168              		.loc 1 513 0
 1169 07b4 019B     		ldr	r3, [sp, #4]
 1170 07b6 1B68     		ldr	r3, [r3]
 1171 07b8 5B6D     		ldr	r3, [r3, #84]
 1172 07ba 03F03C03 		and	r3, r3, #60
 1173 07be 9A08     		lsrs	r2, r3, #2
 1174 07c0 019B     		ldr	r3, [sp, #4]
 1175 07c2 C3F8BC23 		str	r2, [r3, #956]
 1176              		.loc 1 514 0
 1177 07c6 0198     		ldr	r0, [sp, #4]
 1178 07c8 0121     		movs	r1, #1
 1179 07ca FFF7FEFF 		bl	HAL_PCDEx_LPM_Callback
 1180 07ce 02E0     		b	.L49
 1181              	.L50:
 1182              		.loc 1 518 0
 1183 07d0 0198     		ldr	r0, [sp, #4]
 1184 07d2 FFF7FEFF 		bl	HAL_PCD_SuspendCallback
 1185              	.L49:
 1186              		.loc 1 523 0
 1187 07d6 019B     		ldr	r3, [sp, #4]
 1188 07d8 1B68     		ldr	r3, [r3]
 1189 07da 1846     		mov	r0, r3
 1190 07dc FFF7FEFF 		bl	USB_ReadInterrupts
ARM GAS  /tmp/ccakcsKX.s 			page 22


 1191 07e0 0346     		mov	r3, r0
 1192 07e2 03F48053 		and	r3, r3, #4096
 1193 07e6 002B     		cmp	r3, #0
 1194 07e8 00F08980 		beq	.L51
 1195              		.loc 1 525 0
 1196 07ec 089B     		ldr	r3, [sp, #32]
 1197 07ee 03F50063 		add	r3, r3, #2048
 1198 07f2 089A     		ldr	r2, [sp, #32]
 1199 07f4 02F50062 		add	r2, r2, #2048
 1200 07f8 5268     		ldr	r2, [r2, #4]
 1201 07fa 22F00102 		bic	r2, r2, #1
 1202 07fe 5A60     		str	r2, [r3, #4]
 1203              		.loc 1 526 0
 1204 0800 019B     		ldr	r3, [sp, #4]
 1205 0802 1B68     		ldr	r3, [r3]
 1206 0804 1846     		mov	r0, r3
 1207 0806 0021     		movs	r1, #0
 1208 0808 FFF7FEFF 		bl	USB_FlushTxFifo
 1209              		.loc 1 528 0
 1210 080c 0023     		movs	r3, #0
 1211 080e 0B93     		str	r3, [sp, #44]
 1212 0810 12E0     		b	.L52
 1213              	.L53:
 1214              		.loc 1 530 0 discriminator 2
 1215 0812 0B9B     		ldr	r3, [sp, #44]
 1216 0814 5A01     		lsls	r2, r3, #5
 1217 0816 089B     		ldr	r3, [sp, #32]
 1218 0818 1344     		add	r3, r3, r2
 1219 081a 03F51063 		add	r3, r3, #2304
 1220 081e FF22     		movs	r2, #255
 1221 0820 9A60     		str	r2, [r3, #8]
 1222              		.loc 1 531 0 discriminator 2
 1223 0822 0B9B     		ldr	r3, [sp, #44]
 1224 0824 5A01     		lsls	r2, r3, #5
 1225 0826 089B     		ldr	r3, [sp, #32]
 1226 0828 1344     		add	r3, r3, r2
 1227 082a 03F53063 		add	r3, r3, #2816
 1228 082e FF22     		movs	r2, #255
 1229 0830 9A60     		str	r2, [r3, #8]
 1230              		.loc 1 528 0 discriminator 2
 1231 0832 0B9B     		ldr	r3, [sp, #44]
 1232 0834 0133     		adds	r3, r3, #1
 1233 0836 0B93     		str	r3, [sp, #44]
 1234              	.L52:
 1235              		.loc 1 528 0 is_stmt 0 discriminator 1
 1236 0838 019B     		ldr	r3, [sp, #4]
 1237 083a 5A68     		ldr	r2, [r3, #4]
 1238 083c 0B9B     		ldr	r3, [sp, #44]
 1239 083e 9A42     		cmp	r2, r3
 1240 0840 E7D8     		bhi	.L53
 1241              		.loc 1 533 0 is_stmt 1
 1242 0842 089B     		ldr	r3, [sp, #32]
 1243 0844 03F50063 		add	r3, r3, #2048
 1244 0848 4FF0FF32 		mov	r2, #-1
 1245 084c 9A61     		str	r2, [r3, #24]
 1246              		.loc 1 534 0
 1247 084e 089B     		ldr	r3, [sp, #32]
ARM GAS  /tmp/ccakcsKX.s 			page 23


 1248 0850 03F50063 		add	r3, r3, #2048
 1249 0854 089A     		ldr	r2, [sp, #32]
 1250 0856 02F50062 		add	r2, r2, #2048
 1251 085a D269     		ldr	r2, [r2, #28]
 1252 085c 42F00112 		orr	r2, r2, #65537
 1253 0860 DA61     		str	r2, [r3, #28]
 1254              		.loc 1 536 0
 1255 0862 019B     		ldr	r3, [sp, #4]
 1256 0864 1B6B     		ldr	r3, [r3, #48]
 1257 0866 002B     		cmp	r3, #0
 1258 0868 16D0     		beq	.L54
 1259              		.loc 1 538 0
 1260 086a 089B     		ldr	r3, [sp, #32]
 1261 086c 03F50063 		add	r3, r3, #2048
 1262 0870 089A     		ldr	r2, [sp, #32]
 1263 0872 02F50062 		add	r2, r2, #2048
 1264 0876 D2F88420 		ldr	r2, [r2, #132]
 1265 087a 42F00B02 		orr	r2, r2, #11
 1266 087e C3F88420 		str	r2, [r3, #132]
 1267              		.loc 1 539 0
 1268 0882 089B     		ldr	r3, [sp, #32]
 1269 0884 03F50063 		add	r3, r3, #2048
 1270 0888 089A     		ldr	r2, [sp, #32]
 1271 088a 02F50062 		add	r2, r2, #2048
 1272 088e 526C     		ldr	r2, [r2, #68]
 1273 0890 42F00B02 		orr	r2, r2, #11
 1274 0894 5A64     		str	r2, [r3, #68]
 1275 0896 13E0     		b	.L55
 1276              	.L54:
 1277              		.loc 1 543 0
 1278 0898 089B     		ldr	r3, [sp, #32]
 1279 089a 03F50063 		add	r3, r3, #2048
 1280 089e 089A     		ldr	r2, [sp, #32]
 1281 08a0 02F50062 		add	r2, r2, #2048
 1282 08a4 5269     		ldr	r2, [r2, #20]
 1283 08a6 42F00B02 		orr	r2, r2, #11
 1284 08aa 5A61     		str	r2, [r3, #20]
 1285              		.loc 1 544 0
 1286 08ac 089B     		ldr	r3, [sp, #32]
 1287 08ae 03F50063 		add	r3, r3, #2048
 1288 08b2 089A     		ldr	r2, [sp, #32]
 1289 08b4 02F50062 		add	r2, r2, #2048
 1290 08b8 1269     		ldr	r2, [r2, #16]
 1291 08ba 42F00B02 		orr	r2, r2, #11
 1292 08be 1A61     		str	r2, [r3, #16]
 1293              	.L55:
 1294              		.loc 1 548 0
 1295 08c0 089B     		ldr	r3, [sp, #32]
 1296 08c2 03F50063 		add	r3, r3, #2048
 1297 08c6 089A     		ldr	r2, [sp, #32]
 1298 08c8 02F50062 		add	r2, r2, #2048
 1299 08cc 1268     		ldr	r2, [r2]
 1300 08ce 22F4FE62 		bic	r2, r2, #2032
 1301 08d2 1A60     		str	r2, [r3]
 1302              		.loc 1 551 0
 1303 08d4 019B     		ldr	r3, [sp, #4]
 1304 08d6 1968     		ldr	r1, [r3]
ARM GAS  /tmp/ccakcsKX.s 			page 24


 1305 08d8 019B     		ldr	r3, [sp, #4]
 1306 08da 1B69     		ldr	r3, [r3, #16]
 1307 08dc DAB2     		uxtb	r2, r3
 1308 08de 019B     		ldr	r3, [sp, #4]
 1309 08e0 03F56273 		add	r3, r3, #904
 1310 08e4 0846     		mov	r0, r1
 1311 08e6 1146     		mov	r1, r2
 1312 08e8 1A46     		mov	r2, r3
 1313 08ea FFF7FEFF 		bl	USB_EP0_OutStart
 1314              		.loc 1 553 0
 1315 08ee 019B     		ldr	r3, [sp, #4]
 1316 08f0 1B68     		ldr	r3, [r3]
 1317 08f2 019A     		ldr	r2, [sp, #4]
 1318 08f4 1268     		ldr	r2, [r2]
 1319 08f6 5269     		ldr	r2, [r2, #20]
 1320 08f8 02F48052 		and	r2, r2, #4096
 1321 08fc 5A61     		str	r2, [r3, #20]
 1322              	.L51:
 1323              		.loc 1 557 0
 1324 08fe 019B     		ldr	r3, [sp, #4]
 1325 0900 1B68     		ldr	r3, [r3]
 1326 0902 1846     		mov	r0, r3
 1327 0904 FFF7FEFF 		bl	USB_ReadInterrupts
 1328 0908 0346     		mov	r3, r0
 1329 090a 03F40053 		and	r3, r3, #8192
 1330 090e 002B     		cmp	r3, #0
 1331 0910 00F0C280 		beq	.L56
 1332              		.loc 1 559 0
 1333 0914 019B     		ldr	r3, [sp, #4]
 1334 0916 1B68     		ldr	r3, [r3]
 1335 0918 1846     		mov	r0, r3
 1336 091a FFF7FEFF 		bl	USB_ActivateSetup
 1337              		.loc 1 560 0
 1338 091e 019B     		ldr	r3, [sp, #4]
 1339 0920 1B68     		ldr	r3, [r3]
 1340 0922 019A     		ldr	r2, [sp, #4]
 1341 0924 1268     		ldr	r2, [r2]
 1342 0926 D268     		ldr	r2, [r2, #12]
 1343 0928 22F47052 		bic	r2, r2, #15360
 1344 092c DA60     		str	r2, [r3, #12]
 1345              		.loc 1 562 0
 1346 092e 019B     		ldr	r3, [sp, #4]
 1347 0930 0322     		movs	r2, #3
 1348 0932 DA60     		str	r2, [r3, #12]
 1349              		.loc 1 563 0
 1350 0934 019B     		ldr	r3, [sp, #4]
 1351 0936 4022     		movs	r2, #64
 1352 0938 5A61     		str	r2, [r3, #20]
 1353              		.loc 1 571 0
 1354 093a FFF7FEFF 		bl	HAL_RCC_GetHCLKFreq
 1355 093e 0390     		str	r0, [sp, #12]
 1356              		.loc 1 573 0
 1357 0940 039A     		ldr	r2, [sp, #12]
 1358 0942 7D4B     		ldr	r3, .L78
 1359 0944 9A42     		cmp	r2, r3
 1360 0946 0CD9     		bls	.L57
 1361              		.loc 1 573 0 is_stmt 0 discriminator 1
ARM GAS  /tmp/ccakcsKX.s 			page 25


 1362 0948 039A     		ldr	r2, [sp, #12]
 1363 094a 7C4B     		ldr	r3, .L78+4
 1364 094c 9A42     		cmp	r2, r3
 1365 094e 08D8     		bhi	.L57
 1366              		.loc 1 576 0 is_stmt 1
 1367 0950 019B     		ldr	r3, [sp, #4]
 1368 0952 1B68     		ldr	r3, [r3]
 1369 0954 019A     		ldr	r2, [sp, #4]
 1370 0956 1268     		ldr	r2, [r2]
 1371 0958 D268     		ldr	r2, [r2, #12]
 1372 095a 42F47052 		orr	r2, r2, #15360
 1373 095e DA60     		str	r2, [r3, #12]
 1374 0960 8FE0     		b	.L58
 1375              	.L57:
 1376              		.loc 1 579 0
 1377 0962 039A     		ldr	r2, [sp, #12]
 1378 0964 754B     		ldr	r3, .L78+4
 1379 0966 9A42     		cmp	r2, r3
 1380 0968 0CD9     		bls	.L59
 1381              		.loc 1 579 0 is_stmt 0 discriminator 1
 1382 096a 039A     		ldr	r2, [sp, #12]
 1383 096c 744B     		ldr	r3, .L78+8
 1384 096e 9A42     		cmp	r2, r3
 1385 0970 08D8     		bhi	.L59
 1386              		.loc 1 582 0 is_stmt 1
 1387 0972 019B     		ldr	r3, [sp, #4]
 1388 0974 1B68     		ldr	r3, [r3]
 1389 0976 019A     		ldr	r2, [sp, #4]
 1390 0978 1268     		ldr	r2, [r2]
 1391 097a D268     		ldr	r2, [r2, #12]
 1392 097c 42F46052 		orr	r2, r2, #14336
 1393 0980 DA60     		str	r2, [r3, #12]
 1394 0982 7EE0     		b	.L58
 1395              	.L59:
 1396              		.loc 1 585 0
 1397 0984 039A     		ldr	r2, [sp, #12]
 1398 0986 6E4B     		ldr	r3, .L78+8
 1399 0988 9A42     		cmp	r2, r3
 1400 098a 0CD9     		bls	.L60
 1401              		.loc 1 585 0 is_stmt 0 discriminator 1
 1402 098c 039A     		ldr	r2, [sp, #12]
 1403 098e 6D4B     		ldr	r3, .L78+12
 1404 0990 9A42     		cmp	r2, r3
 1405 0992 08D8     		bhi	.L60
 1406              		.loc 1 588 0 is_stmt 1
 1407 0994 019B     		ldr	r3, [sp, #4]
 1408 0996 1B68     		ldr	r3, [r3]
 1409 0998 019A     		ldr	r2, [sp, #4]
 1410 099a 1268     		ldr	r2, [r2]
 1411 099c D268     		ldr	r2, [r2, #12]
 1412 099e 42F45052 		orr	r2, r2, #13312
 1413 09a2 DA60     		str	r2, [r3, #12]
 1414 09a4 6DE0     		b	.L58
 1415              	.L60:
 1416              		.loc 1 591 0
 1417 09a6 039A     		ldr	r2, [sp, #12]
 1418 09a8 664B     		ldr	r3, .L78+12
ARM GAS  /tmp/ccakcsKX.s 			page 26


 1419 09aa 9A42     		cmp	r2, r3
 1420 09ac 0CD9     		bls	.L61
 1421              		.loc 1 591 0 is_stmt 0 discriminator 1
 1422 09ae 039A     		ldr	r2, [sp, #12]
 1423 09b0 654B     		ldr	r3, .L78+16
 1424 09b2 9A42     		cmp	r2, r3
 1425 09b4 08D8     		bhi	.L61
 1426              		.loc 1 594 0 is_stmt 1
 1427 09b6 019B     		ldr	r3, [sp, #4]
 1428 09b8 1B68     		ldr	r3, [r3]
 1429 09ba 019A     		ldr	r2, [sp, #4]
 1430 09bc 1268     		ldr	r2, [r2]
 1431 09be D268     		ldr	r2, [r2, #12]
 1432 09c0 42F44052 		orr	r2, r2, #12288
 1433 09c4 DA60     		str	r2, [r3, #12]
 1434 09c6 5CE0     		b	.L58
 1435              	.L61:
 1436              		.loc 1 597 0
 1437 09c8 039A     		ldr	r2, [sp, #12]
 1438 09ca 5F4B     		ldr	r3, .L78+16
 1439 09cc 9A42     		cmp	r2, r3
 1440 09ce 0CD9     		bls	.L62
 1441              		.loc 1 597 0 is_stmt 0 discriminator 1
 1442 09d0 039A     		ldr	r2, [sp, #12]
 1443 09d2 5E4B     		ldr	r3, .L78+20
 1444 09d4 9A42     		cmp	r2, r3
 1445 09d6 08D8     		bhi	.L62
 1446              		.loc 1 600 0 is_stmt 1
 1447 09d8 019B     		ldr	r3, [sp, #4]
 1448 09da 1B68     		ldr	r3, [r3]
 1449 09dc 019A     		ldr	r2, [sp, #4]
 1450 09de 1268     		ldr	r2, [r2]
 1451 09e0 D268     		ldr	r2, [r2, #12]
 1452 09e2 42F43052 		orr	r2, r2, #11264
 1453 09e6 DA60     		str	r2, [r3, #12]
 1454 09e8 4BE0     		b	.L58
 1455              	.L62:
 1456              		.loc 1 603 0
 1457 09ea 039A     		ldr	r2, [sp, #12]
 1458 09ec 574B     		ldr	r3, .L78+20
 1459 09ee 9A42     		cmp	r2, r3
 1460 09f0 0CD9     		bls	.L63
 1461              		.loc 1 603 0 is_stmt 0 discriminator 1
 1462 09f2 039A     		ldr	r2, [sp, #12]
 1463 09f4 564B     		ldr	r3, .L78+24
 1464 09f6 9A42     		cmp	r2, r3
 1465 09f8 08D8     		bhi	.L63
 1466              		.loc 1 606 0 is_stmt 1
 1467 09fa 019B     		ldr	r3, [sp, #4]
 1468 09fc 1B68     		ldr	r3, [r3]
 1469 09fe 019A     		ldr	r2, [sp, #4]
 1470 0a00 1268     		ldr	r2, [r2]
 1471 0a02 D268     		ldr	r2, [r2, #12]
 1472 0a04 42F42052 		orr	r2, r2, #10240
 1473 0a08 DA60     		str	r2, [r3, #12]
 1474 0a0a 3AE0     		b	.L58
 1475              	.L63:
ARM GAS  /tmp/ccakcsKX.s 			page 27


 1476              		.loc 1 609 0
 1477 0a0c 039A     		ldr	r2, [sp, #12]
 1478 0a0e 504B     		ldr	r3, .L78+24
 1479 0a10 9A42     		cmp	r2, r3
 1480 0a12 0CD9     		bls	.L64
 1481              		.loc 1 609 0 is_stmt 0 discriminator 1
 1482 0a14 039A     		ldr	r2, [sp, #12]
 1483 0a16 4F4B     		ldr	r3, .L78+28
 1484 0a18 9A42     		cmp	r2, r3
 1485 0a1a 08D8     		bhi	.L64
 1486              		.loc 1 612 0 is_stmt 1
 1487 0a1c 019B     		ldr	r3, [sp, #4]
 1488 0a1e 1B68     		ldr	r3, [r3]
 1489 0a20 019A     		ldr	r2, [sp, #4]
 1490 0a22 1268     		ldr	r2, [r2]
 1491 0a24 D268     		ldr	r2, [r2, #12]
 1492 0a26 42F41052 		orr	r2, r2, #9216
 1493 0a2a DA60     		str	r2, [r3, #12]
 1494 0a2c 29E0     		b	.L58
 1495              	.L64:
 1496              		.loc 1 615 0
 1497 0a2e 039A     		ldr	r2, [sp, #12]
 1498 0a30 484B     		ldr	r3, .L78+28
 1499 0a32 9A42     		cmp	r2, r3
 1500 0a34 0CD9     		bls	.L65
 1501              		.loc 1 615 0 is_stmt 0 discriminator 1
 1502 0a36 039A     		ldr	r2, [sp, #12]
 1503 0a38 474B     		ldr	r3, .L78+32
 1504 0a3a 9A42     		cmp	r2, r3
 1505 0a3c 08D8     		bhi	.L65
 1506              		.loc 1 618 0 is_stmt 1
 1507 0a3e 019B     		ldr	r3, [sp, #4]
 1508 0a40 1B68     		ldr	r3, [r3]
 1509 0a42 019A     		ldr	r2, [sp, #4]
 1510 0a44 1268     		ldr	r2, [r2]
 1511 0a46 D268     		ldr	r2, [r2, #12]
 1512 0a48 42F40052 		orr	r2, r2, #8192
 1513 0a4c DA60     		str	r2, [r3, #12]
 1514 0a4e 18E0     		b	.L58
 1515              	.L65:
 1516              		.loc 1 621 0
 1517 0a50 039A     		ldr	r2, [sp, #12]
 1518 0a52 414B     		ldr	r3, .L78+32
 1519 0a54 9A42     		cmp	r2, r3
 1520 0a56 0CD9     		bls	.L66
 1521              		.loc 1 621 0 is_stmt 0 discriminator 1
 1522 0a58 039A     		ldr	r2, [sp, #12]
 1523 0a5a 404B     		ldr	r3, .L78+36
 1524 0a5c 9A42     		cmp	r2, r3
 1525 0a5e 08D8     		bhi	.L66
 1526              		.loc 1 624 0 is_stmt 1
 1527 0a60 019B     		ldr	r3, [sp, #4]
 1528 0a62 1B68     		ldr	r3, [r3]
 1529 0a64 019A     		ldr	r2, [sp, #4]
 1530 0a66 1268     		ldr	r2, [r2]
 1531 0a68 D268     		ldr	r2, [r2, #12]
 1532 0a6a 42F4E052 		orr	r2, r2, #7168
ARM GAS  /tmp/ccakcsKX.s 			page 28


 1533 0a6e DA60     		str	r2, [r3, #12]
 1534 0a70 07E0     		b	.L58
 1535              	.L66:
 1536              		.loc 1 630 0
 1537 0a72 019B     		ldr	r3, [sp, #4]
 1538 0a74 1B68     		ldr	r3, [r3]
 1539 0a76 019A     		ldr	r2, [sp, #4]
 1540 0a78 1268     		ldr	r2, [r2]
 1541 0a7a D268     		ldr	r2, [r2, #12]
 1542 0a7c 42F4C052 		orr	r2, r2, #6144
 1543 0a80 DA60     		str	r2, [r3, #12]
 1544              	.L58:
 1545              		.loc 1 633 0
 1546 0a82 0198     		ldr	r0, [sp, #4]
 1547 0a84 FFF7FEFF 		bl	HAL_PCD_ResetCallback
 1548              		.loc 1 635 0
 1549 0a88 019B     		ldr	r3, [sp, #4]
 1550 0a8a 1B68     		ldr	r3, [r3]
 1551 0a8c 019A     		ldr	r2, [sp, #4]
 1552 0a8e 1268     		ldr	r2, [r2]
 1553 0a90 5269     		ldr	r2, [r2, #20]
 1554 0a92 02F40052 		and	r2, r2, #8192
 1555 0a96 5A61     		str	r2, [r3, #20]
 1556              	.L56:
 1557              		.loc 1 639 0
 1558 0a98 019B     		ldr	r3, [sp, #4]
 1559 0a9a 1B68     		ldr	r3, [r3]
 1560 0a9c 1846     		mov	r0, r3
 1561 0a9e FFF7FEFF 		bl	USB_ReadInterrupts
 1562 0aa2 0346     		mov	r3, r0
 1563 0aa4 03F01003 		and	r3, r3, #16
 1564 0aa8 002B     		cmp	r3, #0
 1565 0aaa 79D0     		beq	.L67
 1566              		.loc 1 641 0
 1567 0aac 019B     		ldr	r3, [sp, #4]
 1568 0aae 1B68     		ldr	r3, [r3]
 1569 0ab0 019A     		ldr	r2, [sp, #4]
 1570 0ab2 1268     		ldr	r2, [r2]
 1571 0ab4 9269     		ldr	r2, [r2, #24]
 1572 0ab6 22F01002 		bic	r2, r2, #16
 1573 0aba 9A61     		str	r2, [r3, #24]
 1574              		.loc 1 643 0
 1575 0abc 089B     		ldr	r3, [sp, #32]
 1576 0abe 1B6A     		ldr	r3, [r3, #32]
 1577 0ac0 0593     		str	r3, [sp, #20]
 1578              		.loc 1 645 0
 1579 0ac2 059B     		ldr	r3, [sp, #20]
 1580 0ac4 03F00F02 		and	r2, r3, #15
 1581 0ac8 1346     		mov	r3, r2
 1582 0aca DB00     		lsls	r3, r3, #3
 1583 0acc 9B1A     		subs	r3, r3, r2
 1584 0ace 9B00     		lsls	r3, r3, #2
 1585 0ad0 03F5F073 		add	r3, r3, #480
 1586 0ad4 019A     		ldr	r2, [sp, #4]
 1587 0ad6 1344     		add	r3, r3, r2
 1588 0ad8 0493     		str	r3, [sp, #16]
 1589              		.loc 1 647 0
ARM GAS  /tmp/ccakcsKX.s 			page 29


 1590 0ada 059B     		ldr	r3, [sp, #20]
 1591 0adc 03F4F013 		and	r3, r3, #1966080
 1592 0ae0 5B0C     		lsrs	r3, r3, #17
 1593 0ae2 022B     		cmp	r3, #2
 1594 0ae4 3CD1     		bne	.L68
 1595              		.loc 1 649 0
 1596 0ae6 059A     		ldr	r2, [sp, #20]
 1597 0ae8 47F6F073 		movw	r3, #32752
 1598 0aec 1340     		ands	r3, r3, r2
 1599 0aee 002B     		cmp	r3, #0
 1600 0af0 4ED0     		beq	.L70
 1601              		.loc 1 651 0
 1602 0af2 049B     		ldr	r3, [sp, #16]
 1603 0af4 DA68     		ldr	r2, [r3, #12]
 1604 0af6 0599     		ldr	r1, [sp, #20]
 1605 0af8 47F6F073 		movw	r3, #32752
 1606 0afc 0B40     		ands	r3, r3, r1
 1607 0afe 1B09     		lsrs	r3, r3, #4
 1608 0b00 9BB2     		uxth	r3, r3
 1609 0b02 0898     		ldr	r0, [sp, #32]
 1610 0b04 1146     		mov	r1, r2
 1611 0b06 1A46     		mov	r2, r3
 1612 0b08 FFF7FEFF 		bl	USB_ReadPacket
 1613              		.loc 1 652 0
 1614 0b0c 049B     		ldr	r3, [sp, #16]
 1615 0b0e DA68     		ldr	r2, [r3, #12]
 1616 0b10 0599     		ldr	r1, [sp, #20]
 1617 0b12 47F6F073 		movw	r3, #32752
 1618 0b16 0B40     		ands	r3, r3, r1
 1619 0b18 1B09     		lsrs	r3, r3, #4
 1620 0b1a 1A44     		add	r2, r2, r3
 1621 0b1c 049B     		ldr	r3, [sp, #16]
 1622 0b1e DA60     		str	r2, [r3, #12]
 1623              		.loc 1 653 0
 1624 0b20 049B     		ldr	r3, [sp, #16]
 1625 0b22 9A69     		ldr	r2, [r3, #24]
 1626 0b24 0599     		ldr	r1, [sp, #20]
 1627 0b26 47F6F073 		movw	r3, #32752
 1628 0b2a 0B40     		ands	r3, r3, r1
 1629 0b2c 1B09     		lsrs	r3, r3, #4
 1630 0b2e 1A44     		add	r2, r2, r3
 1631 0b30 049B     		ldr	r3, [sp, #16]
 1632 0b32 9A61     		str	r2, [r3, #24]
 1633 0b34 2CE0     		b	.L70
 1634              	.L79:
 1635 0b36 00BF     		.align	2
 1636              	.L78:
 1637 0b38 BFACD800 		.word	14199999
 1638 0b3c BFE1E400 		.word	14999999
 1639 0b40 FF23F400 		.word	15999999
 1640 0b44 7F730601 		.word	17199999
 1641 0b48 9F491A01 		.word	18499999
 1642 0b4c FF2C3101 		.word	19999999
 1643 0b50 3FA44C01 		.word	21799999
 1644 0b54 FF356E01 		.word	23999999
 1645 0b58 1FABA601 		.word	27699999
 1646 0b5c FF47E801 		.word	31999999
ARM GAS  /tmp/ccakcsKX.s 			page 30


 1647              	.L68:
 1648              		.loc 1 656 0
 1649 0b60 059B     		ldr	r3, [sp, #20]
 1650 0b62 03F4F013 		and	r3, r3, #1966080
 1651 0b66 5B0C     		lsrs	r3, r3, #17
 1652 0b68 062B     		cmp	r3, #6
 1653 0b6a 11D1     		bne	.L70
 1654              		.loc 1 658 0
 1655 0b6c 019B     		ldr	r3, [sp, #4]
 1656 0b6e 03F56273 		add	r3, r3, #904
 1657 0b72 0898     		ldr	r0, [sp, #32]
 1658 0b74 1946     		mov	r1, r3
 1659 0b76 0822     		movs	r2, #8
 1660 0b78 FFF7FEFF 		bl	USB_ReadPacket
 1661              		.loc 1 659 0
 1662 0b7c 049B     		ldr	r3, [sp, #16]
 1663 0b7e 9A69     		ldr	r2, [r3, #24]
 1664 0b80 0599     		ldr	r1, [sp, #20]
 1665 0b82 47F6F073 		movw	r3, #32752
 1666 0b86 0B40     		ands	r3, r3, r1
 1667 0b88 1B09     		lsrs	r3, r3, #4
 1668 0b8a 1A44     		add	r2, r2, r3
 1669 0b8c 049B     		ldr	r3, [sp, #16]
 1670 0b8e 9A61     		str	r2, [r3, #24]
 1671              	.L70:
 1672              		.loc 1 661 0
 1673 0b90 019B     		ldr	r3, [sp, #4]
 1674 0b92 1B68     		ldr	r3, [r3]
 1675 0b94 019A     		ldr	r2, [sp, #4]
 1676 0b96 1268     		ldr	r2, [r2]
 1677 0b98 9269     		ldr	r2, [r2, #24]
 1678 0b9a 42F01002 		orr	r2, r2, #16
 1679 0b9e 9A61     		str	r2, [r3, #24]
 1680              	.L67:
 1681              		.loc 1 665 0
 1682 0ba0 019B     		ldr	r3, [sp, #4]
 1683 0ba2 1B68     		ldr	r3, [r3]
 1684 0ba4 1846     		mov	r0, r3
 1685 0ba6 FFF7FEFF 		bl	USB_ReadInterrupts
 1686 0baa 0346     		mov	r3, r0
 1687 0bac 03F00803 		and	r3, r3, #8
 1688 0bb0 002B     		cmp	r3, #0
 1689 0bb2 0AD0     		beq	.L71
 1690              		.loc 1 667 0
 1691 0bb4 0198     		ldr	r0, [sp, #4]
 1692 0bb6 FFF7FEFF 		bl	HAL_PCD_SOFCallback
 1693              		.loc 1 668 0
 1694 0bba 019B     		ldr	r3, [sp, #4]
 1695 0bbc 1B68     		ldr	r3, [r3]
 1696 0bbe 019A     		ldr	r2, [sp, #4]
 1697 0bc0 1268     		ldr	r2, [r2]
 1698 0bc2 5269     		ldr	r2, [r2, #20]
 1699 0bc4 02F00802 		and	r2, r2, #8
 1700 0bc8 5A61     		str	r2, [r3, #20]
 1701              	.L71:
 1702              		.loc 1 672 0
 1703 0bca 019B     		ldr	r3, [sp, #4]
ARM GAS  /tmp/ccakcsKX.s 			page 31


 1704 0bcc 1B68     		ldr	r3, [r3]
 1705 0bce 1846     		mov	r0, r3
 1706 0bd0 FFF7FEFF 		bl	USB_ReadInterrupts
 1707 0bd4 0346     		mov	r3, r0
 1708 0bd6 03F48013 		and	r3, r3, #1048576
 1709 0bda 002B     		cmp	r3, #0
 1710 0bdc 0DD0     		beq	.L72
 1711              		.loc 1 674 0
 1712 0bde 099B     		ldr	r3, [sp, #36]
 1713 0be0 DBB2     		uxtb	r3, r3
 1714 0be2 0198     		ldr	r0, [sp, #4]
 1715 0be4 1946     		mov	r1, r3
 1716 0be6 FFF7FEFF 		bl	HAL_PCD_ISOINIncompleteCallback
 1717              		.loc 1 675 0
 1718 0bea 019B     		ldr	r3, [sp, #4]
 1719 0bec 1B68     		ldr	r3, [r3]
 1720 0bee 019A     		ldr	r2, [sp, #4]
 1721 0bf0 1268     		ldr	r2, [r2]
 1722 0bf2 5269     		ldr	r2, [r2, #20]
 1723 0bf4 02F48012 		and	r2, r2, #1048576
 1724 0bf8 5A61     		str	r2, [r3, #20]
 1725              	.L72:
 1726              		.loc 1 679 0
 1727 0bfa 019B     		ldr	r3, [sp, #4]
 1728 0bfc 1B68     		ldr	r3, [r3]
 1729 0bfe 1846     		mov	r0, r3
 1730 0c00 FFF7FEFF 		bl	USB_ReadInterrupts
 1731 0c04 0346     		mov	r3, r0
 1732 0c06 03F40013 		and	r3, r3, #2097152
 1733 0c0a 002B     		cmp	r3, #0
 1734 0c0c 0DD0     		beq	.L73
 1735              		.loc 1 681 0
 1736 0c0e 099B     		ldr	r3, [sp, #36]
 1737 0c10 DBB2     		uxtb	r3, r3
 1738 0c12 0198     		ldr	r0, [sp, #4]
 1739 0c14 1946     		mov	r1, r3
 1740 0c16 FFF7FEFF 		bl	HAL_PCD_ISOOUTIncompleteCallback
 1741              		.loc 1 682 0
 1742 0c1a 019B     		ldr	r3, [sp, #4]
 1743 0c1c 1B68     		ldr	r3, [r3]
 1744 0c1e 019A     		ldr	r2, [sp, #4]
 1745 0c20 1268     		ldr	r2, [r2]
 1746 0c22 5269     		ldr	r2, [r2, #20]
 1747 0c24 02F40012 		and	r2, r2, #2097152
 1748 0c28 5A61     		str	r2, [r3, #20]
 1749              	.L73:
 1750              		.loc 1 686 0
 1751 0c2a 019B     		ldr	r3, [sp, #4]
 1752 0c2c 1B68     		ldr	r3, [r3]
 1753 0c2e 1846     		mov	r0, r3
 1754 0c30 FFF7FEFF 		bl	USB_ReadInterrupts
 1755 0c34 0346     		mov	r3, r0
 1756 0c36 03F08043 		and	r3, r3, #1073741824
 1757 0c3a 002B     		cmp	r3, #0
 1758 0c3c 0AD0     		beq	.L74
 1759              		.loc 1 688 0
 1760 0c3e 0198     		ldr	r0, [sp, #4]
ARM GAS  /tmp/ccakcsKX.s 			page 32


 1761 0c40 FFF7FEFF 		bl	HAL_PCD_ConnectCallback
 1762              		.loc 1 689 0
 1763 0c44 019B     		ldr	r3, [sp, #4]
 1764 0c46 1B68     		ldr	r3, [r3]
 1765 0c48 019A     		ldr	r2, [sp, #4]
 1766 0c4a 1268     		ldr	r2, [r2]
 1767 0c4c 5269     		ldr	r2, [r2, #20]
 1768 0c4e 02F08042 		and	r2, r2, #1073741824
 1769 0c52 5A61     		str	r2, [r3, #20]
 1770              	.L74:
 1771              		.loc 1 693 0
 1772 0c54 019B     		ldr	r3, [sp, #4]
 1773 0c56 1B68     		ldr	r3, [r3]
 1774 0c58 1846     		mov	r0, r3
 1775 0c5a FFF7FEFF 		bl	USB_ReadInterrupts
 1776 0c5e 0346     		mov	r3, r0
 1777 0c60 03F00403 		and	r3, r3, #4
 1778 0c64 002B     		cmp	r3, #0
 1779 0c66 13D0     		beq	.L22
 1780              		.loc 1 695 0
 1781 0c68 019B     		ldr	r3, [sp, #4]
 1782 0c6a 1B68     		ldr	r3, [r3]
 1783 0c6c 5B68     		ldr	r3, [r3, #4]
 1784 0c6e 0593     		str	r3, [sp, #20]
 1785              		.loc 1 697 0
 1786 0c70 059B     		ldr	r3, [sp, #20]
 1787 0c72 03F00403 		and	r3, r3, #4
 1788 0c76 002B     		cmp	r3, #0
 1789 0c78 02D0     		beq	.L75
 1790              		.loc 1 699 0
 1791 0c7a 0198     		ldr	r0, [sp, #4]
 1792 0c7c FFF7FEFF 		bl	HAL_PCD_DisconnectCallback
 1793              	.L75:
 1794              		.loc 1 701 0
 1795 0c80 019B     		ldr	r3, [sp, #4]
 1796 0c82 1B68     		ldr	r3, [r3]
 1797 0c84 019A     		ldr	r2, [sp, #4]
 1798 0c86 1268     		ldr	r2, [r2]
 1799 0c88 5168     		ldr	r1, [r2, #4]
 1800 0c8a 059A     		ldr	r2, [sp, #20]
 1801 0c8c 0A43     		orrs	r2, r2, r1
 1802 0c8e 5A60     		str	r2, [r3, #4]
 1803              	.L22:
 1804              		.loc 1 704 0
 1805 0c90 0DB0     		add	sp, sp, #52
 1806              		@ sp needed
 1807 0c92 5DF804FB 		ldr	pc, [sp], #4
 1808              		.cfi_endproc
 1809              	.LFE131:
 1810              		.size	HAL_PCD_IRQHandler, .-HAL_PCD_IRQHandler
 1811 0c96 00BF     		.align	2
 1812 0c98 AFF30080 		.p2align 4,,15
 1812      AFF30080 
 1813              		.weak	HAL_PCD_DataOutStageCallback
 1814              		.thumb
 1815              		.thumb_func
 1816              		.type	HAL_PCD_DataOutStageCallback, %function
ARM GAS  /tmp/ccakcsKX.s 			page 33


 1817              	HAL_PCD_DataOutStageCallback:
 1818              	.LFB132:
 1819              		.loc 1 835 0
 1820              		.cfi_startproc
 1821              		@ args = 0, pretend = 0, frame = 8
 1822              		@ frame_needed = 0, uses_anonymous_args = 0
 1823              		@ link register save eliminated.
 1824 0ca0 82B0     		sub	sp, sp, #8
 1825              		.cfi_def_cfa_offset 8
 1826 0ca2 0190     		str	r0, [sp, #4]
 1827 0ca4 0B46     		mov	r3, r1
 1828 0ca6 8DF80330 		strb	r3, [sp, #3]
 1829              		.loc 1 843 0
 1830 0caa 02B0     		add	sp, sp, #8
 1831              		@ sp needed
 1832 0cac 7047     		bx	lr
 1833              		.cfi_endproc
 1834              	.LFE132:
 1835              		.size	HAL_PCD_DataOutStageCallback, .-HAL_PCD_DataOutStageCallback
 1836 0cae 00BF     		.align	2
 1837              		.p2align 4,,15
 1838              		.weak	HAL_PCD_DataInStageCallback
 1839              		.thumb
 1840              		.thumb_func
 1841              		.type	HAL_PCD_DataInStageCallback, %function
 1842              	HAL_PCD_DataInStageCallback:
 1843              	.LFB133:
 1844              		.loc 1 852 0
 1845              		.cfi_startproc
 1846              		@ args = 0, pretend = 0, frame = 8
 1847              		@ frame_needed = 0, uses_anonymous_args = 0
 1848              		@ link register save eliminated.
 1849 0cb0 82B0     		sub	sp, sp, #8
 1850              		.cfi_def_cfa_offset 8
 1851 0cb2 0190     		str	r0, [sp, #4]
 1852 0cb4 0B46     		mov	r3, r1
 1853 0cb6 8DF80330 		strb	r3, [sp, #3]
 1854              		.loc 1 860 0
 1855 0cba 02B0     		add	sp, sp, #8
 1856              		@ sp needed
 1857 0cbc 7047     		bx	lr
 1858              		.cfi_endproc
 1859              	.LFE133:
 1860              		.size	HAL_PCD_DataInStageCallback, .-HAL_PCD_DataInStageCallback
 1861 0cbe 00BF     		.align	2
 1862              		.p2align 4,,15
 1863              		.weak	HAL_PCD_SetupStageCallback
 1864              		.thumb
 1865              		.thumb_func
 1866              		.type	HAL_PCD_SetupStageCallback, %function
 1867              	HAL_PCD_SetupStageCallback:
 1868              	.LFB134:
 1869              		.loc 1 867 0
 1870              		.cfi_startproc
 1871              		@ args = 0, pretend = 0, frame = 8
 1872              		@ frame_needed = 0, uses_anonymous_args = 0
 1873              		@ link register save eliminated.
ARM GAS  /tmp/ccakcsKX.s 			page 34


 1874 0cc0 82B0     		sub	sp, sp, #8
 1875              		.cfi_def_cfa_offset 8
 1876 0cc2 0190     		str	r0, [sp, #4]
 1877              		.loc 1 874 0
 1878 0cc4 02B0     		add	sp, sp, #8
 1879              		@ sp needed
 1880 0cc6 7047     		bx	lr
 1881              		.cfi_endproc
 1882              	.LFE134:
 1883              		.size	HAL_PCD_SetupStageCallback, .-HAL_PCD_SetupStageCallback
 1884              		.align	2
 1885 0cc8 AFF30080 		.p2align 4,,15
 1885      AFF30080 
 1886              		.weak	HAL_PCD_SOFCallback
 1887              		.thumb
 1888              		.thumb_func
 1889              		.type	HAL_PCD_SOFCallback, %function
 1890              	HAL_PCD_SOFCallback:
 1891              	.LFB135:
 1892              		.loc 1 882 0
 1893              		.cfi_startproc
 1894              		@ args = 0, pretend = 0, frame = 8
 1895              		@ frame_needed = 0, uses_anonymous_args = 0
 1896              		@ link register save eliminated.
 1897 0cd0 82B0     		sub	sp, sp, #8
 1898              		.cfi_def_cfa_offset 8
 1899 0cd2 0190     		str	r0, [sp, #4]
 1900              		.loc 1 889 0
 1901 0cd4 02B0     		add	sp, sp, #8
 1902              		@ sp needed
 1903 0cd6 7047     		bx	lr
 1904              		.cfi_endproc
 1905              	.LFE135:
 1906              		.size	HAL_PCD_SOFCallback, .-HAL_PCD_SOFCallback
 1907              		.align	2
 1908 0cd8 AFF30080 		.p2align 4,,15
 1908      AFF30080 
 1909              		.weak	HAL_PCD_ResetCallback
 1910              		.thumb
 1911              		.thumb_func
 1912              		.type	HAL_PCD_ResetCallback, %function
 1913              	HAL_PCD_ResetCallback:
 1914              	.LFB136:
 1915              		.loc 1 897 0
 1916              		.cfi_startproc
 1917              		@ args = 0, pretend = 0, frame = 8
 1918              		@ frame_needed = 0, uses_anonymous_args = 0
 1919              		@ link register save eliminated.
 1920 0ce0 82B0     		sub	sp, sp, #8
 1921              		.cfi_def_cfa_offset 8
 1922 0ce2 0190     		str	r0, [sp, #4]
 1923              		.loc 1 904 0
 1924 0ce4 02B0     		add	sp, sp, #8
 1925              		@ sp needed
 1926 0ce6 7047     		bx	lr
 1927              		.cfi_endproc
 1928              	.LFE136:
ARM GAS  /tmp/ccakcsKX.s 			page 35


 1929              		.size	HAL_PCD_ResetCallback, .-HAL_PCD_ResetCallback
 1930              		.align	2
 1931 0ce8 AFF30080 		.p2align 4,,15
 1931      AFF30080 
 1932              		.weak	HAL_PCD_SuspendCallback
 1933              		.thumb
 1934              		.thumb_func
 1935              		.type	HAL_PCD_SuspendCallback, %function
 1936              	HAL_PCD_SuspendCallback:
 1937              	.LFB137:
 1938              		.loc 1 912 0
 1939              		.cfi_startproc
 1940              		@ args = 0, pretend = 0, frame = 8
 1941              		@ frame_needed = 0, uses_anonymous_args = 0
 1942              		@ link register save eliminated.
 1943 0cf0 82B0     		sub	sp, sp, #8
 1944              		.cfi_def_cfa_offset 8
 1945 0cf2 0190     		str	r0, [sp, #4]
 1946              		.loc 1 919 0
 1947 0cf4 02B0     		add	sp, sp, #8
 1948              		@ sp needed
 1949 0cf6 7047     		bx	lr
 1950              		.cfi_endproc
 1951              	.LFE137:
 1952              		.size	HAL_PCD_SuspendCallback, .-HAL_PCD_SuspendCallback
 1953              		.align	2
 1954 0cf8 AFF30080 		.p2align 4,,15
 1954      AFF30080 
 1955              		.weak	HAL_PCD_ResumeCallback
 1956              		.thumb
 1957              		.thumb_func
 1958              		.type	HAL_PCD_ResumeCallback, %function
 1959              	HAL_PCD_ResumeCallback:
 1960              	.LFB138:
 1961              		.loc 1 927 0
 1962              		.cfi_startproc
 1963              		@ args = 0, pretend = 0, frame = 8
 1964              		@ frame_needed = 0, uses_anonymous_args = 0
 1965              		@ link register save eliminated.
 1966 0d00 82B0     		sub	sp, sp, #8
 1967              		.cfi_def_cfa_offset 8
 1968 0d02 0190     		str	r0, [sp, #4]
 1969              		.loc 1 934 0
 1970 0d04 02B0     		add	sp, sp, #8
 1971              		@ sp needed
 1972 0d06 7047     		bx	lr
 1973              		.cfi_endproc
 1974              	.LFE138:
 1975              		.size	HAL_PCD_ResumeCallback, .-HAL_PCD_ResumeCallback
 1976              		.align	2
 1977 0d08 AFF30080 		.p2align 4,,15
 1977      AFF30080 
 1978              		.weak	HAL_PCD_ISOOUTIncompleteCallback
 1979              		.thumb
 1980              		.thumb_func
 1981              		.type	HAL_PCD_ISOOUTIncompleteCallback, %function
 1982              	HAL_PCD_ISOOUTIncompleteCallback:
ARM GAS  /tmp/ccakcsKX.s 			page 36


 1983              	.LFB139:
 1984              		.loc 1 943 0
 1985              		.cfi_startproc
 1986              		@ args = 0, pretend = 0, frame = 8
 1987              		@ frame_needed = 0, uses_anonymous_args = 0
 1988              		@ link register save eliminated.
 1989 0d10 82B0     		sub	sp, sp, #8
 1990              		.cfi_def_cfa_offset 8
 1991 0d12 0190     		str	r0, [sp, #4]
 1992 0d14 0B46     		mov	r3, r1
 1993 0d16 8DF80330 		strb	r3, [sp, #3]
 1994              		.loc 1 951 0
 1995 0d1a 02B0     		add	sp, sp, #8
 1996              		@ sp needed
 1997 0d1c 7047     		bx	lr
 1998              		.cfi_endproc
 1999              	.LFE139:
 2000              		.size	HAL_PCD_ISOOUTIncompleteCallback, .-HAL_PCD_ISOOUTIncompleteCallback
 2001 0d1e 00BF     		.align	2
 2002              		.p2align 4,,15
 2003              		.weak	HAL_PCD_ISOINIncompleteCallback
 2004              		.thumb
 2005              		.thumb_func
 2006              		.type	HAL_PCD_ISOINIncompleteCallback, %function
 2007              	HAL_PCD_ISOINIncompleteCallback:
 2008              	.LFB140:
 2009              		.loc 1 960 0
 2010              		.cfi_startproc
 2011              		@ args = 0, pretend = 0, frame = 8
 2012              		@ frame_needed = 0, uses_anonymous_args = 0
 2013              		@ link register save eliminated.
 2014 0d20 82B0     		sub	sp, sp, #8
 2015              		.cfi_def_cfa_offset 8
 2016 0d22 0190     		str	r0, [sp, #4]
 2017 0d24 0B46     		mov	r3, r1
 2018 0d26 8DF80330 		strb	r3, [sp, #3]
 2019              		.loc 1 968 0
 2020 0d2a 02B0     		add	sp, sp, #8
 2021              		@ sp needed
 2022 0d2c 7047     		bx	lr
 2023              		.cfi_endproc
 2024              	.LFE140:
 2025              		.size	HAL_PCD_ISOINIncompleteCallback, .-HAL_PCD_ISOINIncompleteCallback
 2026 0d2e 00BF     		.align	2
 2027              		.p2align 4,,15
 2028              		.weak	HAL_PCD_ConnectCallback
 2029              		.thumb
 2030              		.thumb_func
 2031              		.type	HAL_PCD_ConnectCallback, %function
 2032              	HAL_PCD_ConnectCallback:
 2033              	.LFB141:
 2034              		.loc 1 976 0
 2035              		.cfi_startproc
 2036              		@ args = 0, pretend = 0, frame = 8
 2037              		@ frame_needed = 0, uses_anonymous_args = 0
 2038              		@ link register save eliminated.
 2039 0d30 82B0     		sub	sp, sp, #8
ARM GAS  /tmp/ccakcsKX.s 			page 37


 2040              		.cfi_def_cfa_offset 8
 2041 0d32 0190     		str	r0, [sp, #4]
 2042              		.loc 1 983 0
 2043 0d34 02B0     		add	sp, sp, #8
 2044              		@ sp needed
 2045 0d36 7047     		bx	lr
 2046              		.cfi_endproc
 2047              	.LFE141:
 2048              		.size	HAL_PCD_ConnectCallback, .-HAL_PCD_ConnectCallback
 2049              		.align	2
 2050 0d38 AFF30080 		.p2align 4,,15
 2050      AFF30080 
 2051              		.weak	HAL_PCD_DisconnectCallback
 2052              		.thumb
 2053              		.thumb_func
 2054              		.type	HAL_PCD_DisconnectCallback, %function
 2055              	HAL_PCD_DisconnectCallback:
 2056              	.LFB142:
 2057              		.loc 1 991 0
 2058              		.cfi_startproc
 2059              		@ args = 0, pretend = 0, frame = 8
 2060              		@ frame_needed = 0, uses_anonymous_args = 0
 2061              		@ link register save eliminated.
 2062 0d40 82B0     		sub	sp, sp, #8
 2063              		.cfi_def_cfa_offset 8
 2064 0d42 0190     		str	r0, [sp, #4]
 2065              		.loc 1 998 0
 2066 0d44 02B0     		add	sp, sp, #8
 2067              		@ sp needed
 2068 0d46 7047     		bx	lr
 2069              		.cfi_endproc
 2070              	.LFE142:
 2071              		.size	HAL_PCD_DisconnectCallback, .-HAL_PCD_DisconnectCallback
 2072              		.align	2
 2073 0d48 AFF30080 		.p2align 4,,15
 2073      AFF30080 
 2074              		.global	HAL_PCD_DevConnect
 2075              		.thumb
 2076              		.thumb_func
 2077              		.type	HAL_PCD_DevConnect, %function
 2078              	HAL_PCD_DevConnect:
 2079              	.LFB143:
 2080              		.loc 1 1025 0
 2081              		.cfi_startproc
 2082              		@ args = 0, pretend = 0, frame = 8
 2083              		@ frame_needed = 0, uses_anonymous_args = 0
 2084 0d50 00B5     		push	{lr}
 2085              		.cfi_def_cfa_offset 4
 2086              		.cfi_offset 14, -4
 2087 0d52 83B0     		sub	sp, sp, #12
 2088              		.cfi_def_cfa_offset 16
 2089 0d54 0190     		str	r0, [sp, #4]
 2090              		.loc 1 1026 0
 2091 0d56 019B     		ldr	r3, [sp, #4]
 2092 0d58 93F88433 		ldrb	r3, [r3, #900]	@ zero_extendqisi2
 2093 0d5c 012B     		cmp	r3, #1
 2094 0d5e 01D1     		bne	.L92
ARM GAS  /tmp/ccakcsKX.s 			page 38


 2095              		.loc 1 1026 0 is_stmt 0 discriminator 1
 2096 0d60 0223     		movs	r3, #2
 2097 0d62 0DE0     		b	.L93
 2098              	.L92:
 2099              		.loc 1 1026 0 discriminator 2
 2100 0d64 019B     		ldr	r3, [sp, #4]
 2101 0d66 0122     		movs	r2, #1
 2102 0d68 83F88423 		strb	r2, [r3, #900]
 2103              		.loc 1 1027 0 is_stmt 1 discriminator 2
 2104 0d6c 019B     		ldr	r3, [sp, #4]
 2105 0d6e 1B68     		ldr	r3, [r3]
 2106 0d70 1846     		mov	r0, r3
 2107 0d72 FFF7FEFF 		bl	USB_DevConnect
 2108              		.loc 1 1028 0 discriminator 2
 2109 0d76 019B     		ldr	r3, [sp, #4]
 2110 0d78 0022     		movs	r2, #0
 2111 0d7a 83F88423 		strb	r2, [r3, #900]
 2112              		.loc 1 1029 0 discriminator 2
 2113 0d7e 0023     		movs	r3, #0
 2114              	.L93:
 2115              		.loc 1 1030 0
 2116 0d80 1846     		mov	r0, r3
 2117 0d82 03B0     		add	sp, sp, #12
 2118              		@ sp needed
 2119 0d84 5DF804FB 		ldr	pc, [sp], #4
 2120              		.cfi_endproc
 2121              	.LFE143:
 2122              		.size	HAL_PCD_DevConnect, .-HAL_PCD_DevConnect
 2123              		.align	2
 2124 0d88 AFF30080 		.p2align 4,,15
 2124      AFF30080 
 2125              		.global	HAL_PCD_DevDisconnect
 2126              		.thumb
 2127              		.thumb_func
 2128              		.type	HAL_PCD_DevDisconnect, %function
 2129              	HAL_PCD_DevDisconnect:
 2130              	.LFB144:
 2131              		.loc 1 1038 0
 2132              		.cfi_startproc
 2133              		@ args = 0, pretend = 0, frame = 8
 2134              		@ frame_needed = 0, uses_anonymous_args = 0
 2135 0d90 00B5     		push	{lr}
 2136              		.cfi_def_cfa_offset 4
 2137              		.cfi_offset 14, -4
 2138 0d92 83B0     		sub	sp, sp, #12
 2139              		.cfi_def_cfa_offset 16
 2140 0d94 0190     		str	r0, [sp, #4]
 2141              		.loc 1 1039 0
 2142 0d96 019B     		ldr	r3, [sp, #4]
 2143 0d98 93F88433 		ldrb	r3, [r3, #900]	@ zero_extendqisi2
 2144 0d9c 012B     		cmp	r3, #1
 2145 0d9e 01D1     		bne	.L95
 2146              		.loc 1 1039 0 is_stmt 0 discriminator 1
 2147 0da0 0223     		movs	r3, #2
 2148 0da2 0DE0     		b	.L96
 2149              	.L95:
 2150              		.loc 1 1039 0 discriminator 2
ARM GAS  /tmp/ccakcsKX.s 			page 39


 2151 0da4 019B     		ldr	r3, [sp, #4]
 2152 0da6 0122     		movs	r2, #1
 2153 0da8 83F88423 		strb	r2, [r3, #900]
 2154              		.loc 1 1040 0 is_stmt 1 discriminator 2
 2155 0dac 019B     		ldr	r3, [sp, #4]
 2156 0dae 1B68     		ldr	r3, [r3]
 2157 0db0 1846     		mov	r0, r3
 2158 0db2 FFF7FEFF 		bl	USB_DevDisconnect
 2159              		.loc 1 1041 0 discriminator 2
 2160 0db6 019B     		ldr	r3, [sp, #4]
 2161 0db8 0022     		movs	r2, #0
 2162 0dba 83F88423 		strb	r2, [r3, #900]
 2163              		.loc 1 1042 0 discriminator 2
 2164 0dbe 0023     		movs	r3, #0
 2165              	.L96:
 2166              		.loc 1 1043 0
 2167 0dc0 1846     		mov	r0, r3
 2168 0dc2 03B0     		add	sp, sp, #12
 2169              		@ sp needed
 2170 0dc4 5DF804FB 		ldr	pc, [sp], #4
 2171              		.cfi_endproc
 2172              	.LFE144:
 2173              		.size	HAL_PCD_DevDisconnect, .-HAL_PCD_DevDisconnect
 2174              		.align	2
 2175 0dc8 AFF30080 		.p2align 4,,15
 2175      AFF30080 
 2176              		.global	HAL_PCD_SetAddress
 2177              		.thumb
 2178              		.thumb_func
 2179              		.type	HAL_PCD_SetAddress, %function
 2180              	HAL_PCD_SetAddress:
 2181              	.LFB145:
 2182              		.loc 1 1052 0
 2183              		.cfi_startproc
 2184              		@ args = 0, pretend = 0, frame = 8
 2185              		@ frame_needed = 0, uses_anonymous_args = 0
 2186 0dd0 00B5     		push	{lr}
 2187              		.cfi_def_cfa_offset 4
 2188              		.cfi_offset 14, -4
 2189 0dd2 83B0     		sub	sp, sp, #12
 2190              		.cfi_def_cfa_offset 16
 2191 0dd4 0190     		str	r0, [sp, #4]
 2192 0dd6 0B46     		mov	r3, r1
 2193 0dd8 8DF80330 		strb	r3, [sp, #3]
 2194              		.loc 1 1053 0
 2195 0ddc 019B     		ldr	r3, [sp, #4]
 2196 0dde 93F88433 		ldrb	r3, [r3, #900]	@ zero_extendqisi2
 2197 0de2 012B     		cmp	r3, #1
 2198 0de4 01D1     		bne	.L98
 2199              		.loc 1 1053 0 is_stmt 0 discriminator 1
 2200 0de6 0223     		movs	r3, #2
 2201 0de8 15E0     		b	.L99
 2202              	.L98:
 2203              		.loc 1 1053 0 discriminator 2
 2204 0dea 019B     		ldr	r3, [sp, #4]
 2205 0dec 0122     		movs	r2, #1
 2206 0dee 83F88423 		strb	r2, [r3, #900]
ARM GAS  /tmp/ccakcsKX.s 			page 40


 2207              		.loc 1 1054 0 is_stmt 1 discriminator 2
 2208 0df2 019B     		ldr	r3, [sp, #4]
 2209 0df4 9DF80320 		ldrb	r2, [sp, #3]
 2210 0df8 83F83820 		strb	r2, [r3, #56]
 2211              		.loc 1 1055 0 discriminator 2
 2212 0dfc 019B     		ldr	r3, [sp, #4]
 2213 0dfe 1A68     		ldr	r2, [r3]
 2214 0e00 9DF80330 		ldrb	r3, [sp, #3]	@ zero_extendqisi2
 2215 0e04 1046     		mov	r0, r2
 2216 0e06 1946     		mov	r1, r3
 2217 0e08 FFF7FEFF 		bl	USB_SetDevAddress
 2218              		.loc 1 1056 0 discriminator 2
 2219 0e0c 019B     		ldr	r3, [sp, #4]
 2220 0e0e 0022     		movs	r2, #0
 2221 0e10 83F88423 		strb	r2, [r3, #900]
 2222              		.loc 1 1057 0 discriminator 2
 2223 0e14 0023     		movs	r3, #0
 2224              	.L99:
 2225              		.loc 1 1058 0
 2226 0e16 1846     		mov	r0, r3
 2227 0e18 03B0     		add	sp, sp, #12
 2228              		@ sp needed
 2229 0e1a 5DF804FB 		ldr	pc, [sp], #4
 2230              		.cfi_endproc
 2231              	.LFE145:
 2232              		.size	HAL_PCD_SetAddress, .-HAL_PCD_SetAddress
 2233 0e1e 00BF     		.align	2
 2234              		.p2align 4,,15
 2235              		.global	HAL_PCD_EP_Open
 2236              		.thumb
 2237              		.thumb_func
 2238              		.type	HAL_PCD_EP_Open, %function
 2239              	HAL_PCD_EP_Open:
 2240              	.LFB146:
 2241              		.loc 1 1068 0
 2242              		.cfi_startproc
 2243              		@ args = 0, pretend = 0, frame = 16
 2244              		@ frame_needed = 0, uses_anonymous_args = 0
 2245 0e20 00B5     		push	{lr}
 2246              		.cfi_def_cfa_offset 4
 2247              		.cfi_offset 14, -4
 2248 0e22 85B0     		sub	sp, sp, #20
 2249              		.cfi_def_cfa_offset 24
 2250 0e24 0190     		str	r0, [sp, #4]
 2251 0e26 8DF80310 		strb	r1, [sp, #3]
 2252 0e2a ADF80020 		strh	r2, [sp]	@ movhi
 2253 0e2e 8DF80230 		strb	r3, [sp, #2]
 2254              		.loc 1 1069 0
 2255 0e32 0023     		movs	r3, #0
 2256 0e34 8DF80B30 		strb	r3, [sp, #11]
 2257              		.loc 1 1070 0
 2258 0e38 0023     		movs	r3, #0
 2259 0e3a 0393     		str	r3, [sp, #12]
 2260              		.loc 1 1072 0
 2261 0e3c 9DF80330 		ldrb	r3, [sp, #3]	@ zero_extendqisi2
 2262 0e40 5BB2     		sxtb	r3, r3
 2263 0e42 002B     		cmp	r3, #0
ARM GAS  /tmp/ccakcsKX.s 			page 41


 2264 0e44 0DDA     		bge	.L101
 2265              		.loc 1 1074 0
 2266 0e46 9DF80330 		ldrb	r3, [sp, #3]	@ zero_extendqisi2
 2267 0e4a 03F07F02 		and	r2, r3, #127
 2268 0e4e 1346     		mov	r3, r2
 2269 0e50 DB00     		lsls	r3, r3, #3
 2270 0e52 9B1A     		subs	r3, r3, r2
 2271 0e54 9B00     		lsls	r3, r3, #2
 2272 0e56 3833     		adds	r3, r3, #56
 2273 0e58 019A     		ldr	r2, [sp, #4]
 2274 0e5a 1344     		add	r3, r3, r2
 2275 0e5c 0433     		adds	r3, r3, #4
 2276 0e5e 0393     		str	r3, [sp, #12]
 2277 0e60 0CE0     		b	.L102
 2278              	.L101:
 2279              		.loc 1 1078 0
 2280 0e62 9DF80330 		ldrb	r3, [sp, #3]	@ zero_extendqisi2
 2281 0e66 03F07F02 		and	r2, r3, #127
 2282 0e6a 1346     		mov	r3, r2
 2283 0e6c DB00     		lsls	r3, r3, #3
 2284 0e6e 9B1A     		subs	r3, r3, r2
 2285 0e70 9B00     		lsls	r3, r3, #2
 2286 0e72 03F5F073 		add	r3, r3, #480
 2287 0e76 019A     		ldr	r2, [sp, #4]
 2288 0e78 1344     		add	r3, r3, r2
 2289 0e7a 0393     		str	r3, [sp, #12]
 2290              	.L102:
 2291              		.loc 1 1080 0
 2292 0e7c 9DF80330 		ldrb	r3, [sp, #3]
 2293 0e80 03F07F03 		and	r3, r3, #127
 2294 0e84 DAB2     		uxtb	r2, r3
 2295 0e86 039B     		ldr	r3, [sp, #12]
 2296 0e88 1A70     		strb	r2, [r3]
 2297              		.loc 1 1082 0
 2298 0e8a 9DF80330 		ldrb	r3, [sp, #3]	@ zero_extendqisi2
 2299 0e8e DB09     		lsrs	r3, r3, #7
 2300 0e90 DBB2     		uxtb	r3, r3
 2301 0e92 1A46     		mov	r2, r3
 2302 0e94 039B     		ldr	r3, [sp, #12]
 2303 0e96 5A70     		strb	r2, [r3, #1]
 2304              		.loc 1 1083 0
 2305 0e98 BDF80020 		ldrh	r2, [sp]
 2306 0e9c 039B     		ldr	r3, [sp, #12]
 2307 0e9e 9A60     		str	r2, [r3, #8]
 2308              		.loc 1 1084 0
 2309 0ea0 039B     		ldr	r3, [sp, #12]
 2310 0ea2 9DF80220 		ldrb	r2, [sp, #2]
 2311 0ea6 DA70     		strb	r2, [r3, #3]
 2312              		.loc 1 1086 0
 2313 0ea8 019B     		ldr	r3, [sp, #4]
 2314 0eaa 93F88433 		ldrb	r3, [r3, #900]	@ zero_extendqisi2
 2315 0eae 012B     		cmp	r3, #1
 2316 0eb0 01D1     		bne	.L103
 2317              		.loc 1 1086 0 is_stmt 0 discriminator 1
 2318 0eb2 0223     		movs	r3, #2
 2319 0eb4 0FE0     		b	.L104
 2320              	.L103:
ARM GAS  /tmp/ccakcsKX.s 			page 42


 2321              		.loc 1 1086 0 discriminator 2
 2322 0eb6 019B     		ldr	r3, [sp, #4]
 2323 0eb8 0122     		movs	r2, #1
 2324 0eba 83F88423 		strb	r2, [r3, #900]
 2325              		.loc 1 1087 0 is_stmt 1 discriminator 2
 2326 0ebe 019B     		ldr	r3, [sp, #4]
 2327 0ec0 1B68     		ldr	r3, [r3]
 2328 0ec2 1846     		mov	r0, r3
 2329 0ec4 0399     		ldr	r1, [sp, #12]
 2330 0ec6 FFF7FEFF 		bl	USB_ActivateEndpoint
 2331              		.loc 1 1088 0 discriminator 2
 2332 0eca 019B     		ldr	r3, [sp, #4]
 2333 0ecc 0022     		movs	r2, #0
 2334 0ece 83F88423 		strb	r2, [r3, #900]
 2335              		.loc 1 1089 0 discriminator 2
 2336 0ed2 9DF80B30 		ldrb	r3, [sp, #11]	@ zero_extendqisi2
 2337              	.L104:
 2338              		.loc 1 1091 0
 2339 0ed6 1846     		mov	r0, r3
 2340 0ed8 05B0     		add	sp, sp, #20
 2341              		@ sp needed
 2342 0eda 5DF804FB 		ldr	pc, [sp], #4
 2343              		.cfi_endproc
 2344              	.LFE146:
 2345              		.size	HAL_PCD_EP_Open, .-HAL_PCD_EP_Open
 2346 0ede 00BF     		.align	2
 2347              		.p2align 4,,15
 2348              		.global	HAL_PCD_EP_Close
 2349              		.thumb
 2350              		.thumb_func
 2351              		.type	HAL_PCD_EP_Close, %function
 2352              	HAL_PCD_EP_Close:
 2353              	.LFB147:
 2354              		.loc 1 1101 0
 2355              		.cfi_startproc
 2356              		@ args = 0, pretend = 0, frame = 16
 2357              		@ frame_needed = 0, uses_anonymous_args = 0
 2358 0ee0 00B5     		push	{lr}
 2359              		.cfi_def_cfa_offset 4
 2360              		.cfi_offset 14, -4
 2361 0ee2 85B0     		sub	sp, sp, #20
 2362              		.cfi_def_cfa_offset 24
 2363 0ee4 0190     		str	r0, [sp, #4]
 2364 0ee6 0B46     		mov	r3, r1
 2365 0ee8 8DF80330 		strb	r3, [sp, #3]
 2366              		.loc 1 1102 0
 2367 0eec 0023     		movs	r3, #0
 2368 0eee 0393     		str	r3, [sp, #12]
 2369              		.loc 1 1104 0
 2370 0ef0 9DF80330 		ldrb	r3, [sp, #3]	@ zero_extendqisi2
 2371 0ef4 5BB2     		sxtb	r3, r3
 2372 0ef6 002B     		cmp	r3, #0
 2373 0ef8 0DDA     		bge	.L106
 2374              		.loc 1 1106 0
 2375 0efa 9DF80330 		ldrb	r3, [sp, #3]	@ zero_extendqisi2
 2376 0efe 03F07F02 		and	r2, r3, #127
 2377 0f02 1346     		mov	r3, r2
ARM GAS  /tmp/ccakcsKX.s 			page 43


 2378 0f04 DB00     		lsls	r3, r3, #3
 2379 0f06 9B1A     		subs	r3, r3, r2
 2380 0f08 9B00     		lsls	r3, r3, #2
 2381 0f0a 3833     		adds	r3, r3, #56
 2382 0f0c 019A     		ldr	r2, [sp, #4]
 2383 0f0e 1344     		add	r3, r3, r2
 2384 0f10 0433     		adds	r3, r3, #4
 2385 0f12 0393     		str	r3, [sp, #12]
 2386 0f14 0CE0     		b	.L107
 2387              	.L106:
 2388              		.loc 1 1110 0
 2389 0f16 9DF80330 		ldrb	r3, [sp, #3]	@ zero_extendqisi2
 2390 0f1a 03F07F02 		and	r2, r3, #127
 2391 0f1e 1346     		mov	r3, r2
 2392 0f20 DB00     		lsls	r3, r3, #3
 2393 0f22 9B1A     		subs	r3, r3, r2
 2394 0f24 9B00     		lsls	r3, r3, #2
 2395 0f26 03F5F073 		add	r3, r3, #480
 2396 0f2a 019A     		ldr	r2, [sp, #4]
 2397 0f2c 1344     		add	r3, r3, r2
 2398 0f2e 0393     		str	r3, [sp, #12]
 2399              	.L107:
 2400              		.loc 1 1112 0
 2401 0f30 9DF80330 		ldrb	r3, [sp, #3]
 2402 0f34 03F07F03 		and	r3, r3, #127
 2403 0f38 DAB2     		uxtb	r2, r3
 2404 0f3a 039B     		ldr	r3, [sp, #12]
 2405 0f3c 1A70     		strb	r2, [r3]
 2406              		.loc 1 1114 0
 2407 0f3e 9DF80330 		ldrb	r3, [sp, #3]	@ zero_extendqisi2
 2408 0f42 DB09     		lsrs	r3, r3, #7
 2409 0f44 DBB2     		uxtb	r3, r3
 2410 0f46 1A46     		mov	r2, r3
 2411 0f48 039B     		ldr	r3, [sp, #12]
 2412 0f4a 5A70     		strb	r2, [r3, #1]
 2413              		.loc 1 1116 0
 2414 0f4c 019B     		ldr	r3, [sp, #4]
 2415 0f4e 93F88433 		ldrb	r3, [r3, #900]	@ zero_extendqisi2
 2416 0f52 012B     		cmp	r3, #1
 2417 0f54 01D1     		bne	.L108
 2418              		.loc 1 1116 0 is_stmt 0 discriminator 1
 2419 0f56 0223     		movs	r3, #2
 2420 0f58 0EE0     		b	.L109
 2421              	.L108:
 2422              		.loc 1 1116 0 discriminator 2
 2423 0f5a 019B     		ldr	r3, [sp, #4]
 2424 0f5c 0122     		movs	r2, #1
 2425 0f5e 83F88423 		strb	r2, [r3, #900]
 2426              		.loc 1 1117 0 is_stmt 1 discriminator 2
 2427 0f62 019B     		ldr	r3, [sp, #4]
 2428 0f64 1B68     		ldr	r3, [r3]
 2429 0f66 1846     		mov	r0, r3
 2430 0f68 0399     		ldr	r1, [sp, #12]
 2431 0f6a FFF7FEFF 		bl	USB_DeactivateEndpoint
 2432              		.loc 1 1118 0 discriminator 2
 2433 0f6e 019B     		ldr	r3, [sp, #4]
 2434 0f70 0022     		movs	r2, #0
ARM GAS  /tmp/ccakcsKX.s 			page 44


 2435 0f72 83F88423 		strb	r2, [r3, #900]
 2436              		.loc 1 1119 0 discriminator 2
 2437 0f76 0023     		movs	r3, #0
 2438              	.L109:
 2439              		.loc 1 1120 0
 2440 0f78 1846     		mov	r0, r3
 2441 0f7a 05B0     		add	sp, sp, #20
 2442              		@ sp needed
 2443 0f7c 5DF804FB 		ldr	pc, [sp], #4
 2444              		.cfi_endproc
 2445              	.LFE147:
 2446              		.size	HAL_PCD_EP_Close, .-HAL_PCD_EP_Close
 2447              		.align	2
 2448              		.p2align 4,,15
 2449              		.global	HAL_PCD_EP_Receive
 2450              		.thumb
 2451              		.thumb_func
 2452              		.type	HAL_PCD_EP_Receive, %function
 2453              	HAL_PCD_EP_Receive:
 2454              	.LFB148:
 2455              		.loc 1 1132 0
 2456              		.cfi_startproc
 2457              		@ args = 0, pretend = 0, frame = 24
 2458              		@ frame_needed = 0, uses_anonymous_args = 0
 2459 0f80 00B5     		push	{lr}
 2460              		.cfi_def_cfa_offset 4
 2461              		.cfi_offset 14, -4
 2462 0f82 87B0     		sub	sp, sp, #28
 2463              		.cfi_def_cfa_offset 32
 2464 0f84 0390     		str	r0, [sp, #12]
 2465 0f86 0192     		str	r2, [sp, #4]
 2466 0f88 0093     		str	r3, [sp]
 2467 0f8a 0B46     		mov	r3, r1
 2468 0f8c 8DF80B30 		strb	r3, [sp, #11]
 2469              		.loc 1 1133 0
 2470 0f90 0023     		movs	r3, #0
 2471 0f92 0593     		str	r3, [sp, #20]
 2472              		.loc 1 1135 0
 2473 0f94 9DF80B30 		ldrb	r3, [sp, #11]	@ zero_extendqisi2
 2474 0f98 03F07F02 		and	r2, r3, #127
 2475 0f9c 1346     		mov	r3, r2
 2476 0f9e DB00     		lsls	r3, r3, #3
 2477 0fa0 9B1A     		subs	r3, r3, r2
 2478 0fa2 9B00     		lsls	r3, r3, #2
 2479 0fa4 03F5F073 		add	r3, r3, #480
 2480 0fa8 039A     		ldr	r2, [sp, #12]
 2481 0faa 1344     		add	r3, r3, r2
 2482 0fac 0593     		str	r3, [sp, #20]
 2483              		.loc 1 1138 0
 2484 0fae 059B     		ldr	r3, [sp, #20]
 2485 0fb0 019A     		ldr	r2, [sp, #4]
 2486 0fb2 DA60     		str	r2, [r3, #12]
 2487              		.loc 1 1139 0
 2488 0fb4 059B     		ldr	r3, [sp, #20]
 2489 0fb6 009A     		ldr	r2, [sp]
 2490 0fb8 5A61     		str	r2, [r3, #20]
 2491              		.loc 1 1140 0
ARM GAS  /tmp/ccakcsKX.s 			page 45


 2492 0fba 059B     		ldr	r3, [sp, #20]
 2493 0fbc 0022     		movs	r2, #0
 2494 0fbe 9A61     		str	r2, [r3, #24]
 2495              		.loc 1 1141 0
 2496 0fc0 059B     		ldr	r3, [sp, #20]
 2497 0fc2 0022     		movs	r2, #0
 2498 0fc4 5A70     		strb	r2, [r3, #1]
 2499              		.loc 1 1142 0
 2500 0fc6 9DF80B30 		ldrb	r3, [sp, #11]
 2501 0fca 03F07F03 		and	r3, r3, #127
 2502 0fce DAB2     		uxtb	r2, r3
 2503 0fd0 059B     		ldr	r3, [sp, #20]
 2504 0fd2 1A70     		strb	r2, [r3]
 2505              		.loc 1 1144 0
 2506 0fd4 039B     		ldr	r3, [sp, #12]
 2507 0fd6 93F88433 		ldrb	r3, [r3, #900]	@ zero_extendqisi2
 2508 0fda 012B     		cmp	r3, #1
 2509 0fdc 01D1     		bne	.L111
 2510              		.loc 1 1144 0 is_stmt 0 discriminator 1
 2511 0fde 0223     		movs	r3, #2
 2512 0fe0 23E0     		b	.L112
 2513              	.L111:
 2514              		.loc 1 1144 0 discriminator 2
 2515 0fe2 039B     		ldr	r3, [sp, #12]
 2516 0fe4 0122     		movs	r2, #1
 2517 0fe6 83F88423 		strb	r2, [r3, #900]
 2518              		.loc 1 1146 0 is_stmt 1 discriminator 2
 2519 0fea 9DF80B30 		ldrb	r3, [sp, #11]	@ zero_extendqisi2
 2520 0fee 03F07F03 		and	r3, r3, #127
 2521 0ff2 002B     		cmp	r3, #0
 2522 0ff4 0AD1     		bne	.L113
 2523              		.loc 1 1148 0
 2524 0ff6 039B     		ldr	r3, [sp, #12]
 2525 0ff8 1A68     		ldr	r2, [r3]
 2526 0ffa 039B     		ldr	r3, [sp, #12]
 2527 0ffc 1B69     		ldr	r3, [r3, #16]
 2528 0ffe DBB2     		uxtb	r3, r3
 2529 1000 1046     		mov	r0, r2
 2530 1002 0599     		ldr	r1, [sp, #20]
 2531 1004 1A46     		mov	r2, r3
 2532 1006 FFF7FEFF 		bl	USB_EP0StartXfer
 2533 100a 09E0     		b	.L114
 2534              	.L113:
 2535              		.loc 1 1152 0
 2536 100c 039B     		ldr	r3, [sp, #12]
 2537 100e 1A68     		ldr	r2, [r3]
 2538 1010 039B     		ldr	r3, [sp, #12]
 2539 1012 1B69     		ldr	r3, [r3, #16]
 2540 1014 DBB2     		uxtb	r3, r3
 2541 1016 1046     		mov	r0, r2
 2542 1018 0599     		ldr	r1, [sp, #20]
 2543 101a 1A46     		mov	r2, r3
 2544 101c FFF7FEFF 		bl	USB_EPStartXfer
 2545              	.L114:
 2546              		.loc 1 1154 0
 2547 1020 039B     		ldr	r3, [sp, #12]
 2548 1022 0022     		movs	r2, #0
ARM GAS  /tmp/ccakcsKX.s 			page 46


 2549 1024 83F88423 		strb	r2, [r3, #900]
 2550              		.loc 1 1156 0
 2551 1028 0023     		movs	r3, #0
 2552              	.L112:
 2553              		.loc 1 1157 0
 2554 102a 1846     		mov	r0, r3
 2555 102c 07B0     		add	sp, sp, #28
 2556              		@ sp needed
 2557 102e 5DF804FB 		ldr	pc, [sp], #4
 2558              		.cfi_endproc
 2559              	.LFE148:
 2560              		.size	HAL_PCD_EP_Receive, .-HAL_PCD_EP_Receive
 2561 1032 00BF     		.align	2
 2562 1034 AFF30080 		.p2align 4,,15
 2562      AFF30080 
 2562      AFF30080 
 2563              		.global	HAL_PCD_EP_GetRxCount
 2564              		.thumb
 2565              		.thumb_func
 2566              		.type	HAL_PCD_EP_GetRxCount, %function
 2567              	HAL_PCD_EP_GetRxCount:
 2568              	.LFB149:
 2569              		.loc 1 1166 0
 2570              		.cfi_startproc
 2571              		@ args = 0, pretend = 0, frame = 8
 2572              		@ frame_needed = 0, uses_anonymous_args = 0
 2573              		@ link register save eliminated.
 2574 1040 82B0     		sub	sp, sp, #8
 2575              		.cfi_def_cfa_offset 8
 2576 1042 0190     		str	r0, [sp, #4]
 2577 1044 0B46     		mov	r3, r1
 2578 1046 8DF80330 		strb	r3, [sp, #3]
 2579              		.loc 1 1167 0
 2580 104a 9DF80330 		ldrb	r3, [sp, #3]	@ zero_extendqisi2
 2581 104e 03F07F02 		and	r2, r3, #127
 2582 1052 0199     		ldr	r1, [sp, #4]
 2583 1054 1346     		mov	r3, r2
 2584 1056 DB00     		lsls	r3, r3, #3
 2585 1058 9B1A     		subs	r3, r3, r2
 2586 105a 9B00     		lsls	r3, r3, #2
 2587 105c 0B44     		add	r3, r3, r1
 2588 105e 03F5FC73 		add	r3, r3, #504
 2589 1062 1B68     		ldr	r3, [r3]
 2590 1064 9BB2     		uxth	r3, r3
 2591              		.loc 1 1168 0
 2592 1066 1846     		mov	r0, r3
 2593 1068 02B0     		add	sp, sp, #8
 2594              		@ sp needed
 2595 106a 7047     		bx	lr
 2596              		.cfi_endproc
 2597              	.LFE149:
 2598              		.size	HAL_PCD_EP_GetRxCount, .-HAL_PCD_EP_GetRxCount
 2599              		.align	2
 2600 106c AFF30080 		.p2align 4,,15
 2601              		.global	HAL_PCD_EP_Transmit
 2602              		.thumb
 2603              		.thumb_func
ARM GAS  /tmp/ccakcsKX.s 			page 47


 2604              		.type	HAL_PCD_EP_Transmit, %function
 2605              	HAL_PCD_EP_Transmit:
 2606              	.LFB150:
 2607              		.loc 1 1178 0
 2608              		.cfi_startproc
 2609              		@ args = 0, pretend = 0, frame = 24
 2610              		@ frame_needed = 0, uses_anonymous_args = 0
 2611 1070 00B5     		push	{lr}
 2612              		.cfi_def_cfa_offset 4
 2613              		.cfi_offset 14, -4
 2614 1072 87B0     		sub	sp, sp, #28
 2615              		.cfi_def_cfa_offset 32
 2616 1074 0390     		str	r0, [sp, #12]
 2617 1076 0192     		str	r2, [sp, #4]
 2618 1078 0093     		str	r3, [sp]
 2619 107a 0B46     		mov	r3, r1
 2620 107c 8DF80B30 		strb	r3, [sp, #11]
 2621              		.loc 1 1179 0
 2622 1080 0023     		movs	r3, #0
 2623 1082 0593     		str	r3, [sp, #20]
 2624              		.loc 1 1181 0
 2625 1084 9DF80B30 		ldrb	r3, [sp, #11]	@ zero_extendqisi2
 2626 1088 03F07F02 		and	r2, r3, #127
 2627 108c 1346     		mov	r3, r2
 2628 108e DB00     		lsls	r3, r3, #3
 2629 1090 9B1A     		subs	r3, r3, r2
 2630 1092 9B00     		lsls	r3, r3, #2
 2631 1094 3833     		adds	r3, r3, #56
 2632 1096 039A     		ldr	r2, [sp, #12]
 2633 1098 1344     		add	r3, r3, r2
 2634 109a 0433     		adds	r3, r3, #4
 2635 109c 0593     		str	r3, [sp, #20]
 2636              		.loc 1 1184 0
 2637 109e 059B     		ldr	r3, [sp, #20]
 2638 10a0 019A     		ldr	r2, [sp, #4]
 2639 10a2 DA60     		str	r2, [r3, #12]
 2640              		.loc 1 1185 0
 2641 10a4 059B     		ldr	r3, [sp, #20]
 2642 10a6 009A     		ldr	r2, [sp]
 2643 10a8 5A61     		str	r2, [r3, #20]
 2644              		.loc 1 1186 0
 2645 10aa 059B     		ldr	r3, [sp, #20]
 2646 10ac 0022     		movs	r2, #0
 2647 10ae 9A61     		str	r2, [r3, #24]
 2648              		.loc 1 1187 0
 2649 10b0 059B     		ldr	r3, [sp, #20]
 2650 10b2 0122     		movs	r2, #1
 2651 10b4 5A70     		strb	r2, [r3, #1]
 2652              		.loc 1 1188 0
 2653 10b6 9DF80B30 		ldrb	r3, [sp, #11]
 2654 10ba 03F07F03 		and	r3, r3, #127
 2655 10be DAB2     		uxtb	r2, r3
 2656 10c0 059B     		ldr	r3, [sp, #20]
 2657 10c2 1A70     		strb	r2, [r3]
 2658              		.loc 1 1190 0
 2659 10c4 039B     		ldr	r3, [sp, #12]
 2660 10c6 93F88433 		ldrb	r3, [r3, #900]	@ zero_extendqisi2
ARM GAS  /tmp/ccakcsKX.s 			page 48


 2661 10ca 012B     		cmp	r3, #1
 2662 10cc 01D1     		bne	.L118
 2663              		.loc 1 1190 0 is_stmt 0 discriminator 1
 2664 10ce 0223     		movs	r3, #2
 2665 10d0 23E0     		b	.L119
 2666              	.L118:
 2667              		.loc 1 1190 0 discriminator 2
 2668 10d2 039B     		ldr	r3, [sp, #12]
 2669 10d4 0122     		movs	r2, #1
 2670 10d6 83F88423 		strb	r2, [r3, #900]
 2671              		.loc 1 1192 0 is_stmt 1 discriminator 2
 2672 10da 9DF80B30 		ldrb	r3, [sp, #11]	@ zero_extendqisi2
 2673 10de 03F07F03 		and	r3, r3, #127
 2674 10e2 002B     		cmp	r3, #0
 2675 10e4 0AD1     		bne	.L120
 2676              		.loc 1 1194 0
 2677 10e6 039B     		ldr	r3, [sp, #12]
 2678 10e8 1A68     		ldr	r2, [r3]
 2679 10ea 039B     		ldr	r3, [sp, #12]
 2680 10ec 1B69     		ldr	r3, [r3, #16]
 2681 10ee DBB2     		uxtb	r3, r3
 2682 10f0 1046     		mov	r0, r2
 2683 10f2 0599     		ldr	r1, [sp, #20]
 2684 10f4 1A46     		mov	r2, r3
 2685 10f6 FFF7FEFF 		bl	USB_EP0StartXfer
 2686 10fa 09E0     		b	.L121
 2687              	.L120:
 2688              		.loc 1 1198 0
 2689 10fc 039B     		ldr	r3, [sp, #12]
 2690 10fe 1A68     		ldr	r2, [r3]
 2691 1100 039B     		ldr	r3, [sp, #12]
 2692 1102 1B69     		ldr	r3, [r3, #16]
 2693 1104 DBB2     		uxtb	r3, r3
 2694 1106 1046     		mov	r0, r2
 2695 1108 0599     		ldr	r1, [sp, #20]
 2696 110a 1A46     		mov	r2, r3
 2697 110c FFF7FEFF 		bl	USB_EPStartXfer
 2698              	.L121:
 2699              		.loc 1 1201 0
 2700 1110 039B     		ldr	r3, [sp, #12]
 2701 1112 0022     		movs	r2, #0
 2702 1114 83F88423 		strb	r2, [r3, #900]
 2703              		.loc 1 1203 0
 2704 1118 0023     		movs	r3, #0
 2705              	.L119:
 2706              		.loc 1 1204 0
 2707 111a 1846     		mov	r0, r3
 2708 111c 07B0     		add	sp, sp, #28
 2709              		@ sp needed
 2710 111e 5DF804FB 		ldr	pc, [sp], #4
 2711              		.cfi_endproc
 2712              	.LFE150:
 2713              		.size	HAL_PCD_EP_Transmit, .-HAL_PCD_EP_Transmit
 2714 1122 00BF     		.align	2
 2715 1124 AFF30080 		.p2align 4,,15
 2715      AFF30080 
 2715      AFF30080 
ARM GAS  /tmp/ccakcsKX.s 			page 49


 2716              		.global	HAL_PCD_EP_SetStall
 2717              		.thumb
 2718              		.thumb_func
 2719              		.type	HAL_PCD_EP_SetStall, %function
 2720              	HAL_PCD_EP_SetStall:
 2721              	.LFB151:
 2722              		.loc 1 1213 0
 2723              		.cfi_startproc
 2724              		@ args = 0, pretend = 0, frame = 16
 2725              		@ frame_needed = 0, uses_anonymous_args = 0
 2726 1130 00B5     		push	{lr}
 2727              		.cfi_def_cfa_offset 4
 2728              		.cfi_offset 14, -4
 2729 1132 85B0     		sub	sp, sp, #20
 2730              		.cfi_def_cfa_offset 24
 2731 1134 0190     		str	r0, [sp, #4]
 2732 1136 0B46     		mov	r3, r1
 2733 1138 8DF80330 		strb	r3, [sp, #3]
 2734              		.loc 1 1214 0
 2735 113c 0023     		movs	r3, #0
 2736 113e 0393     		str	r3, [sp, #12]
 2737              		.loc 1 1216 0
 2738 1140 9DF80330 		ldrb	r3, [sp, #3]	@ zero_extendqisi2
 2739 1144 5BB2     		sxtb	r3, r3
 2740 1146 002B     		cmp	r3, #0
 2741 1148 0DDA     		bge	.L123
 2742              		.loc 1 1218 0
 2743 114a 9DF80330 		ldrb	r3, [sp, #3]	@ zero_extendqisi2
 2744 114e 03F07F02 		and	r2, r3, #127
 2745 1152 1346     		mov	r3, r2
 2746 1154 DB00     		lsls	r3, r3, #3
 2747 1156 9B1A     		subs	r3, r3, r2
 2748 1158 9B00     		lsls	r3, r3, #2
 2749 115a 3833     		adds	r3, r3, #56
 2750 115c 019A     		ldr	r2, [sp, #4]
 2751 115e 1344     		add	r3, r3, r2
 2752 1160 0433     		adds	r3, r3, #4
 2753 1162 0393     		str	r3, [sp, #12]
 2754 1164 0AE0     		b	.L124
 2755              	.L123:
 2756              		.loc 1 1222 0
 2757 1166 9DF80320 		ldrb	r2, [sp, #3]	@ zero_extendqisi2
 2758 116a 1346     		mov	r3, r2
 2759 116c DB00     		lsls	r3, r3, #3
 2760 116e 9B1A     		subs	r3, r3, r2
 2761 1170 9B00     		lsls	r3, r3, #2
 2762 1172 03F5F073 		add	r3, r3, #480
 2763 1176 019A     		ldr	r2, [sp, #4]
 2764 1178 1344     		add	r3, r3, r2
 2765 117a 0393     		str	r3, [sp, #12]
 2766              	.L124:
 2767              		.loc 1 1225 0
 2768 117c 039B     		ldr	r3, [sp, #12]
 2769 117e 0122     		movs	r2, #1
 2770 1180 9A70     		strb	r2, [r3, #2]
 2771              		.loc 1 1226 0
 2772 1182 9DF80330 		ldrb	r3, [sp, #3]
ARM GAS  /tmp/ccakcsKX.s 			page 50


 2773 1186 03F07F03 		and	r3, r3, #127
 2774 118a DAB2     		uxtb	r2, r3
 2775 118c 039B     		ldr	r3, [sp, #12]
 2776 118e 1A70     		strb	r2, [r3]
 2777              		.loc 1 1227 0
 2778 1190 9DF80330 		ldrb	r3, [sp, #3]	@ zero_extendqisi2
 2779 1194 DB09     		lsrs	r3, r3, #7
 2780 1196 DBB2     		uxtb	r3, r3
 2781 1198 1A46     		mov	r2, r3
 2782 119a 039B     		ldr	r3, [sp, #12]
 2783 119c 5A70     		strb	r2, [r3, #1]
 2784              		.loc 1 1229 0
 2785 119e 019B     		ldr	r3, [sp, #4]
 2786 11a0 93F88433 		ldrb	r3, [r3, #900]	@ zero_extendqisi2
 2787 11a4 012B     		cmp	r3, #1
 2788 11a6 01D1     		bne	.L125
 2789              		.loc 1 1229 0 is_stmt 0 discriminator 1
 2790 11a8 0223     		movs	r3, #2
 2791 11aa 21E0     		b	.L126
 2792              	.L125:
 2793              		.loc 1 1229 0 discriminator 2
 2794 11ac 019B     		ldr	r3, [sp, #4]
 2795 11ae 0122     		movs	r2, #1
 2796 11b0 83F88423 		strb	r2, [r3, #900]
 2797              		.loc 1 1230 0 is_stmt 1 discriminator 2
 2798 11b4 019B     		ldr	r3, [sp, #4]
 2799 11b6 1B68     		ldr	r3, [r3]
 2800 11b8 1846     		mov	r0, r3
 2801 11ba 0399     		ldr	r1, [sp, #12]
 2802 11bc FFF7FEFF 		bl	USB_EPSetStall
 2803              		.loc 1 1231 0 discriminator 2
 2804 11c0 9DF80330 		ldrb	r3, [sp, #3]	@ zero_extendqisi2
 2805 11c4 03F07F03 		and	r3, r3, #127
 2806 11c8 002B     		cmp	r3, #0
 2807 11ca 0CD1     		bne	.L127
 2808              		.loc 1 1233 0
 2809 11cc 019B     		ldr	r3, [sp, #4]
 2810 11ce 1968     		ldr	r1, [r3]
 2811 11d0 019B     		ldr	r3, [sp, #4]
 2812 11d2 1B69     		ldr	r3, [r3, #16]
 2813 11d4 DAB2     		uxtb	r2, r3
 2814 11d6 019B     		ldr	r3, [sp, #4]
 2815 11d8 03F56273 		add	r3, r3, #904
 2816 11dc 0846     		mov	r0, r1
 2817 11de 1146     		mov	r1, r2
 2818 11e0 1A46     		mov	r2, r3
 2819 11e2 FFF7FEFF 		bl	USB_EP0_OutStart
 2820              	.L127:
 2821              		.loc 1 1235 0
 2822 11e6 019B     		ldr	r3, [sp, #4]
 2823 11e8 0022     		movs	r2, #0
 2824 11ea 83F88423 		strb	r2, [r3, #900]
 2825              		.loc 1 1237 0
 2826 11ee 0023     		movs	r3, #0
 2827              	.L126:
 2828              		.loc 1 1238 0
 2829 11f0 1846     		mov	r0, r3
ARM GAS  /tmp/ccakcsKX.s 			page 51


 2830 11f2 05B0     		add	sp, sp, #20
 2831              		@ sp needed
 2832 11f4 5DF804FB 		ldr	pc, [sp], #4
 2833              		.cfi_endproc
 2834              	.LFE151:
 2835              		.size	HAL_PCD_EP_SetStall, .-HAL_PCD_EP_SetStall
 2836              		.align	2
 2837 11f8 AFF30080 		.p2align 4,,15
 2837      AFF30080 
 2838              		.global	HAL_PCD_EP_ClrStall
 2839              		.thumb
 2840              		.thumb_func
 2841              		.type	HAL_PCD_EP_ClrStall, %function
 2842              	HAL_PCD_EP_ClrStall:
 2843              	.LFB152:
 2844              		.loc 1 1247 0
 2845              		.cfi_startproc
 2846              		@ args = 0, pretend = 0, frame = 16
 2847              		@ frame_needed = 0, uses_anonymous_args = 0
 2848 1200 00B5     		push	{lr}
 2849              		.cfi_def_cfa_offset 4
 2850              		.cfi_offset 14, -4
 2851 1202 85B0     		sub	sp, sp, #20
 2852              		.cfi_def_cfa_offset 24
 2853 1204 0190     		str	r0, [sp, #4]
 2854 1206 0B46     		mov	r3, r1
 2855 1208 8DF80330 		strb	r3, [sp, #3]
 2856              		.loc 1 1248 0
 2857 120c 0023     		movs	r3, #0
 2858 120e 0393     		str	r3, [sp, #12]
 2859              		.loc 1 1250 0
 2860 1210 9DF80330 		ldrb	r3, [sp, #3]	@ zero_extendqisi2
 2861 1214 5BB2     		sxtb	r3, r3
 2862 1216 002B     		cmp	r3, #0
 2863 1218 0DDA     		bge	.L129
 2864              		.loc 1 1252 0
 2865 121a 9DF80330 		ldrb	r3, [sp, #3]	@ zero_extendqisi2
 2866 121e 03F07F02 		and	r2, r3, #127
 2867 1222 1346     		mov	r3, r2
 2868 1224 DB00     		lsls	r3, r3, #3
 2869 1226 9B1A     		subs	r3, r3, r2
 2870 1228 9B00     		lsls	r3, r3, #2
 2871 122a 3833     		adds	r3, r3, #56
 2872 122c 019A     		ldr	r2, [sp, #4]
 2873 122e 1344     		add	r3, r3, r2
 2874 1230 0433     		adds	r3, r3, #4
 2875 1232 0393     		str	r3, [sp, #12]
 2876 1234 0AE0     		b	.L130
 2877              	.L129:
 2878              		.loc 1 1256 0
 2879 1236 9DF80320 		ldrb	r2, [sp, #3]	@ zero_extendqisi2
 2880 123a 1346     		mov	r3, r2
 2881 123c DB00     		lsls	r3, r3, #3
 2882 123e 9B1A     		subs	r3, r3, r2
 2883 1240 9B00     		lsls	r3, r3, #2
 2884 1242 03F5F073 		add	r3, r3, #480
 2885 1246 019A     		ldr	r2, [sp, #4]
ARM GAS  /tmp/ccakcsKX.s 			page 52


 2886 1248 1344     		add	r3, r3, r2
 2887 124a 0393     		str	r3, [sp, #12]
 2888              	.L130:
 2889              		.loc 1 1259 0
 2890 124c 039B     		ldr	r3, [sp, #12]
 2891 124e 0022     		movs	r2, #0
 2892 1250 9A70     		strb	r2, [r3, #2]
 2893              		.loc 1 1260 0
 2894 1252 9DF80330 		ldrb	r3, [sp, #3]
 2895 1256 03F07F03 		and	r3, r3, #127
 2896 125a DAB2     		uxtb	r2, r3
 2897 125c 039B     		ldr	r3, [sp, #12]
 2898 125e 1A70     		strb	r2, [r3]
 2899              		.loc 1 1261 0
 2900 1260 9DF80330 		ldrb	r3, [sp, #3]	@ zero_extendqisi2
 2901 1264 DB09     		lsrs	r3, r3, #7
 2902 1266 DBB2     		uxtb	r3, r3
 2903 1268 1A46     		mov	r2, r3
 2904 126a 039B     		ldr	r3, [sp, #12]
 2905 126c 5A70     		strb	r2, [r3, #1]
 2906              		.loc 1 1263 0
 2907 126e 019B     		ldr	r3, [sp, #4]
 2908 1270 93F88433 		ldrb	r3, [r3, #900]	@ zero_extendqisi2
 2909 1274 012B     		cmp	r3, #1
 2910 1276 01D1     		bne	.L131
 2911              		.loc 1 1263 0 is_stmt 0 discriminator 1
 2912 1278 0223     		movs	r3, #2
 2913 127a 0EE0     		b	.L132
 2914              	.L131:
 2915              		.loc 1 1263 0 discriminator 2
 2916 127c 019B     		ldr	r3, [sp, #4]
 2917 127e 0122     		movs	r2, #1
 2918 1280 83F88423 		strb	r2, [r3, #900]
 2919              		.loc 1 1264 0 is_stmt 1 discriminator 2
 2920 1284 019B     		ldr	r3, [sp, #4]
 2921 1286 1B68     		ldr	r3, [r3]
 2922 1288 1846     		mov	r0, r3
 2923 128a 0399     		ldr	r1, [sp, #12]
 2924 128c FFF7FEFF 		bl	USB_EPClearStall
 2925              		.loc 1 1265 0 discriminator 2
 2926 1290 019B     		ldr	r3, [sp, #4]
 2927 1292 0022     		movs	r2, #0
 2928 1294 83F88423 		strb	r2, [r3, #900]
 2929              		.loc 1 1267 0 discriminator 2
 2930 1298 0023     		movs	r3, #0
 2931              	.L132:
 2932              		.loc 1 1268 0
 2933 129a 1846     		mov	r0, r3
 2934 129c 05B0     		add	sp, sp, #20
 2935              		@ sp needed
 2936 129e 5DF804FB 		ldr	pc, [sp], #4
 2937              		.cfi_endproc
 2938              	.LFE152:
 2939              		.size	HAL_PCD_EP_ClrStall, .-HAL_PCD_EP_ClrStall
 2940 12a2 00BF     		.align	2
 2941 12a4 AFF30080 		.p2align 4,,15
 2941      AFF30080 
ARM GAS  /tmp/ccakcsKX.s 			page 53


 2941      AFF30080 
 2942              		.global	HAL_PCD_EP_Flush
 2943              		.thumb
 2944              		.thumb_func
 2945              		.type	HAL_PCD_EP_Flush, %function
 2946              	HAL_PCD_EP_Flush:
 2947              	.LFB153:
 2948              		.loc 1 1277 0
 2949              		.cfi_startproc
 2950              		@ args = 0, pretend = 0, frame = 8
 2951              		@ frame_needed = 0, uses_anonymous_args = 0
 2952 12b0 00B5     		push	{lr}
 2953              		.cfi_def_cfa_offset 4
 2954              		.cfi_offset 14, -4
 2955 12b2 83B0     		sub	sp, sp, #12
 2956              		.cfi_def_cfa_offset 16
 2957 12b4 0190     		str	r0, [sp, #4]
 2958 12b6 0B46     		mov	r3, r1
 2959 12b8 8DF80330 		strb	r3, [sp, #3]
 2960              		.loc 1 1278 0
 2961 12bc 019B     		ldr	r3, [sp, #4]
 2962 12be 93F88433 		ldrb	r3, [r3, #900]	@ zero_extendqisi2
 2963 12c2 012B     		cmp	r3, #1
 2964 12c4 01D1     		bne	.L134
 2965              		.loc 1 1278 0 is_stmt 0 discriminator 1
 2966 12c6 0223     		movs	r3, #2
 2967 12c8 1DE0     		b	.L135
 2968              	.L134:
 2969              		.loc 1 1278 0 discriminator 2
 2970 12ca 019B     		ldr	r3, [sp, #4]
 2971 12cc 0122     		movs	r2, #1
 2972 12ce 83F88423 		strb	r2, [r3, #900]
 2973              		.loc 1 1280 0 is_stmt 1 discriminator 2
 2974 12d2 9DF80330 		ldrb	r3, [sp, #3]	@ zero_extendqisi2
 2975 12d6 5BB2     		sxtb	r3, r3
 2976 12d8 002B     		cmp	r3, #0
 2977 12da 0ADA     		bge	.L136
 2978              		.loc 1 1282 0
 2979 12dc 019B     		ldr	r3, [sp, #4]
 2980 12de 1A68     		ldr	r2, [r3]
 2981 12e0 9DF80330 		ldrb	r3, [sp, #3]	@ zero_extendqisi2
 2982 12e4 03F07F03 		and	r3, r3, #127
 2983 12e8 1046     		mov	r0, r2
 2984 12ea 1946     		mov	r1, r3
 2985 12ec FFF7FEFF 		bl	USB_FlushTxFifo
 2986 12f0 04E0     		b	.L137
 2987              	.L136:
 2988              		.loc 1 1286 0
 2989 12f2 019B     		ldr	r3, [sp, #4]
 2990 12f4 1B68     		ldr	r3, [r3]
 2991 12f6 1846     		mov	r0, r3
 2992 12f8 FFF7FEFF 		bl	USB_FlushRxFifo
 2993              	.L137:
 2994              		.loc 1 1289 0
 2995 12fc 019B     		ldr	r3, [sp, #4]
 2996 12fe 0022     		movs	r2, #0
 2997 1300 83F88423 		strb	r2, [r3, #900]
ARM GAS  /tmp/ccakcsKX.s 			page 54


 2998              		.loc 1 1291 0
 2999 1304 0023     		movs	r3, #0
 3000              	.L135:
 3001              		.loc 1 1292 0
 3002 1306 1846     		mov	r0, r3
 3003 1308 03B0     		add	sp, sp, #12
 3004              		@ sp needed
 3005 130a 5DF804FB 		ldr	pc, [sp], #4
 3006              		.cfi_endproc
 3007              	.LFE153:
 3008              		.size	HAL_PCD_EP_Flush, .-HAL_PCD_EP_Flush
 3009 130e 00BF     		.align	2
 3010              		.p2align 4,,15
 3011              		.global	HAL_PCD_ActivateRemoteWakeup
 3012              		.thumb
 3013              		.thumb_func
 3014              		.type	HAL_PCD_ActivateRemoteWakeup, %function
 3015              	HAL_PCD_ActivateRemoteWakeup:
 3016              	.LFB154:
 3017              		.loc 1 1300 0
 3018              		.cfi_startproc
 3019              		@ args = 0, pretend = 0, frame = 8
 3020              		@ frame_needed = 0, uses_anonymous_args = 0
 3021 1310 00B5     		push	{lr}
 3022              		.cfi_def_cfa_offset 4
 3023              		.cfi_offset 14, -4
 3024 1312 83B0     		sub	sp, sp, #12
 3025              		.cfi_def_cfa_offset 16
 3026 1314 0190     		str	r0, [sp, #4]
 3027              		.loc 1 1301 0
 3028 1316 019B     		ldr	r3, [sp, #4]
 3029 1318 1B68     		ldr	r3, [r3]
 3030 131a 1846     		mov	r0, r3
 3031 131c FFF7FEFF 		bl	USB_ActivateRemoteWakeup
 3032 1320 0346     		mov	r3, r0
 3033              		.loc 1 1302 0
 3034 1322 1846     		mov	r0, r3
 3035 1324 03B0     		add	sp, sp, #12
 3036              		@ sp needed
 3037 1326 5DF804FB 		ldr	pc, [sp], #4
 3038              		.cfi_endproc
 3039              	.LFE154:
 3040              		.size	HAL_PCD_ActivateRemoteWakeup, .-HAL_PCD_ActivateRemoteWakeup
 3041 132a 00BF     		.align	2
 3042 132c AFF30080 		.p2align 4,,15
 3043              		.global	HAL_PCD_DeActivateRemoteWakeup
 3044              		.thumb
 3045              		.thumb_func
 3046              		.type	HAL_PCD_DeActivateRemoteWakeup, %function
 3047              	HAL_PCD_DeActivateRemoteWakeup:
 3048              	.LFB155:
 3049              		.loc 1 1310 0
 3050              		.cfi_startproc
 3051              		@ args = 0, pretend = 0, frame = 8
 3052              		@ frame_needed = 0, uses_anonymous_args = 0
 3053 1330 00B5     		push	{lr}
 3054              		.cfi_def_cfa_offset 4
ARM GAS  /tmp/ccakcsKX.s 			page 55


 3055              		.cfi_offset 14, -4
 3056 1332 83B0     		sub	sp, sp, #12
 3057              		.cfi_def_cfa_offset 16
 3058 1334 0190     		str	r0, [sp, #4]
 3059              		.loc 1 1311 0
 3060 1336 019B     		ldr	r3, [sp, #4]
 3061 1338 1B68     		ldr	r3, [r3]
 3062 133a 1846     		mov	r0, r3
 3063 133c FFF7FEFF 		bl	USB_DeActivateRemoteWakeup
 3064 1340 0346     		mov	r3, r0
 3065              		.loc 1 1312 0
 3066 1342 1846     		mov	r0, r3
 3067 1344 03B0     		add	sp, sp, #12
 3068              		@ sp needed
 3069 1346 5DF804FB 		ldr	pc, [sp], #4
 3070              		.cfi_endproc
 3071              	.LFE155:
 3072              		.size	HAL_PCD_DeActivateRemoteWakeup, .-HAL_PCD_DeActivateRemoteWakeup
 3073 134a 00BF     		.align	2
 3074 134c AFF30080 		.p2align 4,,15
 3075              		.global	HAL_PCD_GetState
 3076              		.thumb
 3077              		.thumb_func
 3078              		.type	HAL_PCD_GetState, %function
 3079              	HAL_PCD_GetState:
 3080              	.LFB156:
 3081              		.loc 1 1338 0
 3082              		.cfi_startproc
 3083              		@ args = 0, pretend = 0, frame = 8
 3084              		@ frame_needed = 0, uses_anonymous_args = 0
 3085              		@ link register save eliminated.
 3086 1350 82B0     		sub	sp, sp, #8
 3087              		.cfi_def_cfa_offset 8
 3088 1352 0190     		str	r0, [sp, #4]
 3089              		.loc 1 1339 0
 3090 1354 019B     		ldr	r3, [sp, #4]
 3091 1356 93F88533 		ldrb	r3, [r3, #901]
 3092 135a DBB2     		uxtb	r3, r3
 3093              		.loc 1 1340 0
 3094 135c 1846     		mov	r0, r3
 3095 135e 02B0     		add	sp, sp, #8
 3096              		@ sp needed
 3097 1360 7047     		bx	lr
 3098              		.cfi_endproc
 3099              	.LFE156:
 3100              		.size	HAL_PCD_GetState, .-HAL_PCD_GetState
 3101 1362 00BF     		.align	2
 3102 1364 AFF30080 		.p2align 4,,15
 3102      AFF30080 
 3102      AFF30080 
 3103              		.thumb
 3104              		.thumb_func
 3105              		.type	PCD_WriteEmptyTxFifo, %function
 3106              	PCD_WriteEmptyTxFifo:
 3107              	.LFB157:
 3108              		.loc 1 1361 0
 3109              		.cfi_startproc
ARM GAS  /tmp/ccakcsKX.s 			page 56


 3110              		@ args = 0, pretend = 0, frame = 32
 3111              		@ frame_needed = 0, uses_anonymous_args = 0
 3112 1370 00B5     		push	{lr}
 3113              		.cfi_def_cfa_offset 4
 3114              		.cfi_offset 14, -4
 3115 1372 8BB0     		sub	sp, sp, #44
 3116              		.cfi_def_cfa_offset 48
 3117 1374 0390     		str	r0, [sp, #12]
 3118 1376 0291     		str	r1, [sp, #8]
 3119              		.loc 1 1362 0
 3120 1378 039B     		ldr	r3, [sp, #12]
 3121 137a 1B68     		ldr	r3, [r3]
 3122 137c 0793     		str	r3, [sp, #28]
 3123              		.loc 1 1363 0
 3124 137e 0023     		movs	r3, #0
 3125 1380 0693     		str	r3, [sp, #24]
 3126              		.loc 1 1364 0
 3127 1382 0023     		movs	r3, #0
 3128 1384 0993     		str	r3, [sp, #36]
 3129              		.loc 1 1365 0
 3130 1386 0023     		movs	r3, #0
 3131 1388 0893     		str	r3, [sp, #32]
 3132              		.loc 1 1366 0
 3133 138a 0023     		movs	r3, #0
 3134 138c 0593     		str	r3, [sp, #20]
 3135              		.loc 1 1368 0
 3136 138e 029A     		ldr	r2, [sp, #8]
 3137 1390 1346     		mov	r3, r2
 3138 1392 DB00     		lsls	r3, r3, #3
 3139 1394 9B1A     		subs	r3, r3, r2
 3140 1396 9B00     		lsls	r3, r3, #2
 3141 1398 3833     		adds	r3, r3, #56
 3142 139a 039A     		ldr	r2, [sp, #12]
 3143 139c 1344     		add	r3, r3, r2
 3144 139e 0433     		adds	r3, r3, #4
 3145 13a0 0693     		str	r3, [sp, #24]
 3146              		.loc 1 1369 0
 3147 13a2 069B     		ldr	r3, [sp, #24]
 3148 13a4 5A69     		ldr	r2, [r3, #20]
 3149 13a6 069B     		ldr	r3, [sp, #24]
 3150 13a8 9B69     		ldr	r3, [r3, #24]
 3151 13aa D31A     		subs	r3, r2, r3
 3152 13ac 0993     		str	r3, [sp, #36]
 3153              		.loc 1 1371 0
 3154 13ae 099A     		ldr	r2, [sp, #36]
 3155 13b0 069B     		ldr	r3, [sp, #24]
 3156 13b2 9B68     		ldr	r3, [r3, #8]
 3157 13b4 9A42     		cmp	r2, r3
 3158 13b6 02D9     		bls	.L145
 3159              		.loc 1 1373 0
 3160 13b8 069B     		ldr	r3, [sp, #24]
 3161 13ba 9B68     		ldr	r3, [r3, #8]
 3162 13bc 0993     		str	r3, [sp, #36]
 3163              	.L145:
 3164              		.loc 1 1377 0
 3165 13be 099B     		ldr	r3, [sp, #36]
 3166 13c0 0333     		adds	r3, r3, #3
ARM GAS  /tmp/ccakcsKX.s 			page 57


 3167 13c2 002B     		cmp	r3, #0
 3168 13c4 00DA     		bge	.L146
 3169 13c6 0333     		adds	r3, r3, #3
 3170              	.L146:
 3171 13c8 9B10     		asrs	r3, r3, #2
 3172 13ca 0893     		str	r3, [sp, #32]
 3173              		.loc 1 1379 0
 3174 13cc 2DE0     		b	.L147
 3175              	.L151:
 3176              		.loc 1 1384 0
 3177 13ce 069B     		ldr	r3, [sp, #24]
 3178 13d0 5A69     		ldr	r2, [r3, #20]
 3179 13d2 069B     		ldr	r3, [sp, #24]
 3180 13d4 9B69     		ldr	r3, [r3, #24]
 3181 13d6 D31A     		subs	r3, r2, r3
 3182 13d8 0993     		str	r3, [sp, #36]
 3183              		.loc 1 1386 0
 3184 13da 099A     		ldr	r2, [sp, #36]
 3185 13dc 069B     		ldr	r3, [sp, #24]
 3186 13de 9B68     		ldr	r3, [r3, #8]
 3187 13e0 9A42     		cmp	r2, r3
 3188 13e2 02D9     		bls	.L148
 3189              		.loc 1 1388 0
 3190 13e4 069B     		ldr	r3, [sp, #24]
 3191 13e6 9B68     		ldr	r3, [r3, #8]
 3192 13e8 0993     		str	r3, [sp, #36]
 3193              	.L148:
 3194              		.loc 1 1390 0
 3195 13ea 099B     		ldr	r3, [sp, #36]
 3196 13ec 0333     		adds	r3, r3, #3
 3197 13ee 002B     		cmp	r3, #0
 3198 13f0 00DA     		bge	.L149
 3199 13f2 0333     		adds	r3, r3, #3
 3200              	.L149:
 3201 13f4 9B10     		asrs	r3, r3, #2
 3202 13f6 0893     		str	r3, [sp, #32]
 3203              		.loc 1 1392 0
 3204 13f8 069B     		ldr	r3, [sp, #24]
 3205 13fa D968     		ldr	r1, [r3, #12]
 3206 13fc 029B     		ldr	r3, [sp, #8]
 3207 13fe DAB2     		uxtb	r2, r3
 3208 1400 099B     		ldr	r3, [sp, #36]
 3209 1402 9BB2     		uxth	r3, r3
 3210 1404 0398     		ldr	r0, [sp, #12]
 3211 1406 0069     		ldr	r0, [r0, #16]
 3212 1408 C0B2     		uxtb	r0, r0
 3213 140a 0090     		str	r0, [sp]
 3214 140c 0798     		ldr	r0, [sp, #28]
 3215 140e FFF7FEFF 		bl	USB_WritePacket
 3216              		.loc 1 1394 0
 3217 1412 069B     		ldr	r3, [sp, #24]
 3218 1414 DA68     		ldr	r2, [r3, #12]
 3219 1416 099B     		ldr	r3, [sp, #36]
 3220 1418 1A44     		add	r2, r2, r3
 3221 141a 069B     		ldr	r3, [sp, #24]
 3222 141c DA60     		str	r2, [r3, #12]
 3223              		.loc 1 1395 0
ARM GAS  /tmp/ccakcsKX.s 			page 58


 3224 141e 069B     		ldr	r3, [sp, #24]
 3225 1420 9A69     		ldr	r2, [r3, #24]
 3226 1422 099B     		ldr	r3, [sp, #36]
 3227 1424 1A44     		add	r2, r2, r3
 3228 1426 069B     		ldr	r3, [sp, #24]
 3229 1428 9A61     		str	r2, [r3, #24]
 3230              	.L147:
 3231              		.loc 1 1379 0 discriminator 1
 3232 142a 029B     		ldr	r3, [sp, #8]
 3233 142c 5A01     		lsls	r2, r3, #5
 3234 142e 079B     		ldr	r3, [sp, #28]
 3235 1430 1344     		add	r3, r3, r2
 3236 1432 03F51063 		add	r3, r3, #2304
 3237 1436 9B69     		ldr	r3, [r3, #24]
 3238 1438 9AB2     		uxth	r2, r3
 3239 143a 089B     		ldr	r3, [sp, #32]
 3240 143c 9A42     		cmp	r2, r3
 3241 143e 09D9     		bls	.L150
 3242              		.loc 1 1380 0 discriminator 2
 3243 1440 069B     		ldr	r3, [sp, #24]
 3244 1442 9A69     		ldr	r2, [r3, #24]
 3245 1444 069B     		ldr	r3, [sp, #24]
 3246 1446 5B69     		ldr	r3, [r3, #20]
 3247              		.loc 1 1379 0 discriminator 2
 3248 1448 9A42     		cmp	r2, r3
 3249 144a 03D2     		bcs	.L150
 3250              		.loc 1 1381 0
 3251 144c 069B     		ldr	r3, [sp, #24]
 3252 144e 5B69     		ldr	r3, [r3, #20]
 3253              		.loc 1 1380 0
 3254 1450 002B     		cmp	r3, #0
 3255 1452 BCD1     		bne	.L151
 3256              	.L150:
 3257              		.loc 1 1398 0
 3258 1454 099B     		ldr	r3, [sp, #36]
 3259 1456 002B     		cmp	r3, #0
 3260 1458 0FDC     		bgt	.L152
 3261              		.loc 1 1400 0
 3262 145a 029B     		ldr	r3, [sp, #8]
 3263 145c 0122     		movs	r2, #1
 3264 145e 02FA03F3 		lsl	r3, r2, r3
 3265 1462 0593     		str	r3, [sp, #20]
 3266              		.loc 1 1401 0
 3267 1464 079B     		ldr	r3, [sp, #28]
 3268 1466 03F50063 		add	r3, r3, #2048
 3269 146a 079A     		ldr	r2, [sp, #28]
 3270 146c 02F50062 		add	r2, r2, #2048
 3271 1470 516B     		ldr	r1, [r2, #52]
 3272 1472 059A     		ldr	r2, [sp, #20]
 3273 1474 D243     		mvns	r2, r2
 3274 1476 0A40     		ands	r2, r2, r1
 3275 1478 5A63     		str	r2, [r3, #52]
 3276              	.L152:
 3277              		.loc 1 1405 0
 3278 147a 0023     		movs	r3, #0
 3279              		.loc 1 1406 0
 3280 147c 1846     		mov	r0, r3
ARM GAS  /tmp/ccakcsKX.s 			page 59


 3281 147e 0BB0     		add	sp, sp, #44
 3282              		@ sp needed
 3283 1480 5DF804FB 		ldr	pc, [sp], #4
 3284              		.cfi_endproc
 3285              	.LFE157:
 3286              		.size	PCD_WriteEmptyTxFifo, .-PCD_WriteEmptyTxFifo
 3287              	.Letext0:
 3288              		.file 2 "/nfs/nfs5/home/research/hardware/arm2/gcc-arm-embedded/gcc-arm-none-eabi-4_8-2014q2/arm-n
 3289              		.file 3 "/nfs/nfs5/home/research/hardware/arm2/gcc-arm-embedded/gcc-arm-none-eabi-4_8-2014q2/arm-n
 3290              		.file 4 "../../../../../../ChibiOS/os/ext/CMSIS/ST/STM32L4xx/stm32l476xx.h"
 3291              		.file 5 "../../../../../Drivers/STM32L4xx_HAL_Driver/Inc/stm32l4xx_hal_def.h"
 3292              		.file 6 "../../../../../Drivers/STM32L4xx_HAL_Driver/Inc/stm32l4xx_ll_usb.h"
 3293              		.file 7 "../../../../../Drivers/STM32L4xx_HAL_Driver/Inc/stm32l4xx_hal_pcd.h"
 3294              		.file 8 "../../../../../Drivers/STM32L4xx_HAL_Driver/Inc/stm32l4xx_hal_pcd_ex.h"
 3295              		.file 9 "../../../../../../ChibiOS/os/ext/CMSIS/include/core_cm4.h"
 3296 1484 AFF30080 		.section	.debug_info,"",%progbits
 3296      AFF30080 
 3296      AFF30080 
 3297              	.Ldebug_info0:
 3298 0000 820F0000 		.4byte	0xf82
 3299 0004 0400     		.2byte	0x4
 3300 0006 00000000 		.4byte	.Ldebug_abbrev0
 3301 000a 04       		.byte	0x4
 3302 000b 01       		.uleb128 0x1
 3303 000c 49000000 		.4byte	.LASF192
 3304 0010 01       		.byte	0x1
 3305 0011 D3010000 		.4byte	.LASF193
 3306 0015 9D030000 		.4byte	.LASF194
 3307 0019 00000000 		.4byte	.Ltext0
 3308 001d 84140000 		.4byte	.Letext0-.Ltext0
 3309 0021 00000000 		.4byte	.Ldebug_line0
 3310 0025 02       		.uleb128 0x2
 3311 0026 01       		.byte	0x1
 3312 0027 06       		.byte	0x6
 3313 0028 25020000 		.4byte	.LASF0
 3314 002c 03       		.uleb128 0x3
 3315 002d 32010000 		.4byte	.LASF3
 3316 0031 02       		.byte	0x2
 3317 0032 1C       		.byte	0x1c
 3318 0033 37000000 		.4byte	0x37
 3319 0037 02       		.uleb128 0x2
 3320 0038 01       		.byte	0x1
 3321 0039 08       		.byte	0x8
 3322 003a C8070000 		.4byte	.LASF1
 3323 003e 02       		.uleb128 0x2
 3324 003f 02       		.byte	0x2
 3325 0040 05       		.byte	0x5
 3326 0041 62060000 		.4byte	.LASF2
 3327 0045 03       		.uleb128 0x3
 3328 0046 34090000 		.4byte	.LASF4
 3329 004a 02       		.byte	0x2
 3330 004b 26       		.byte	0x26
 3331 004c 50000000 		.4byte	0x50
 3332 0050 02       		.uleb128 0x2
 3333 0051 02       		.byte	0x2
 3334 0052 07       		.byte	0x7
 3335 0053 94050000 		.4byte	.LASF5
ARM GAS  /tmp/ccakcsKX.s 			page 60


 3336 0057 03       		.uleb128 0x3
 3337 0058 87090000 		.4byte	.LASF6
 3338 005c 02       		.byte	0x2
 3339 005d 37       		.byte	0x37
 3340 005e 62000000 		.4byte	0x62
 3341 0062 02       		.uleb128 0x2
 3342 0063 04       		.byte	0x4
 3343 0064 05       		.byte	0x5
 3344 0065 58010000 		.4byte	.LASF7
 3345 0069 03       		.uleb128 0x3
 3346 006a 75030000 		.4byte	.LASF8
 3347 006e 02       		.byte	0x2
 3348 006f 38       		.byte	0x38
 3349 0070 74000000 		.4byte	0x74
 3350 0074 02       		.uleb128 0x2
 3351 0075 04       		.byte	0x4
 3352 0076 07       		.byte	0x7
 3353 0077 08050000 		.4byte	.LASF9
 3354 007b 02       		.uleb128 0x2
 3355 007c 08       		.byte	0x8
 3356 007d 05       		.byte	0x5
 3357 007e 17020000 		.4byte	.LASF10
 3358 0082 02       		.uleb128 0x2
 3359 0083 08       		.byte	0x8
 3360 0084 07       		.byte	0x7
 3361 0085 73010000 		.4byte	.LASF11
 3362 0089 04       		.uleb128 0x4
 3363 008a 04       		.byte	0x4
 3364 008b 05       		.byte	0x5
 3365 008c 696E7400 		.ascii	"int\000"
 3366 0090 02       		.uleb128 0x2
 3367 0091 04       		.byte	0x4
 3368 0092 07       		.byte	0x7
 3369 0093 E2020000 		.4byte	.LASF12
 3370 0097 03       		.uleb128 0x3
 3371 0098 9F0A0000 		.4byte	.LASF13
 3372 009c 03       		.byte	0x3
 3373 009d 2A       		.byte	0x2a
 3374 009e 2C000000 		.4byte	0x2c
 3375 00a2 03       		.uleb128 0x3
 3376 00a3 13030000 		.4byte	.LASF14
 3377 00a7 03       		.byte	0x3
 3378 00a8 36       		.byte	0x36
 3379 00a9 45000000 		.4byte	0x45
 3380 00ad 03       		.uleb128 0x3
 3381 00ae C0070000 		.4byte	.LASF15
 3382 00b2 03       		.byte	0x3
 3383 00b3 41       		.byte	0x41
 3384 00b4 57000000 		.4byte	0x57
 3385 00b8 03       		.uleb128 0x3
 3386 00b9 EC080000 		.4byte	.LASF16
 3387 00bd 03       		.byte	0x3
 3388 00be 42       		.byte	0x42
 3389 00bf 69000000 		.4byte	0x69
 3390 00c3 02       		.uleb128 0x2
 3391 00c4 04       		.byte	0x4
 3392 00c5 07       		.byte	0x7
ARM GAS  /tmp/ccakcsKX.s 			page 61


 3393 00c6 AF0A0000 		.4byte	.LASF17
 3394 00ca 05       		.uleb128 0x5
 3395 00cb B8000000 		.4byte	0xb8
 3396 00cf 06       		.uleb128 0x6
 3397 00d0 B8000000 		.4byte	0xb8
 3398 00d4 DF000000 		.4byte	0xdf
 3399 00d8 07       		.uleb128 0x7
 3400 00d9 C3000000 		.4byte	0xc3
 3401 00dd 01       		.byte	0x1
 3402 00de 00       		.byte	0
 3403 00df 05       		.uleb128 0x5
 3404 00e0 97000000 		.4byte	0x97
 3405 00e4 06       		.uleb128 0x6
 3406 00e5 B8000000 		.4byte	0xb8
 3407 00e9 F4000000 		.4byte	0xf4
 3408 00ed 07       		.uleb128 0x7
 3409 00ee C3000000 		.4byte	0xc3
 3410 00f2 0E       		.byte	0xe
 3411 00f3 00       		.byte	0
 3412 00f4 06       		.uleb128 0x6
 3413 00f5 B8000000 		.4byte	0xb8
 3414 00f9 04010000 		.4byte	0x104
 3415 00fd 07       		.uleb128 0x7
 3416 00fe C3000000 		.4byte	0xc3
 3417 0102 26       		.byte	0x26
 3418 0103 00       		.byte	0
 3419 0104 06       		.uleb128 0x6
 3420 0105 B8000000 		.4byte	0xb8
 3421 0109 14010000 		.4byte	0x114
 3422 010d 07       		.uleb128 0x7
 3423 010e C3000000 		.4byte	0xc3
 3424 0112 0B       		.byte	0xb
 3425 0113 00       		.byte	0
 3426 0114 08       		.uleb128 0x8
 3427 0115 4001     		.2byte	0x140
 3428 0117 04       		.byte	0x4
 3429 0118 0204     		.2byte	0x402
 3430 011a 66020000 		.4byte	0x266
 3431 011e 09       		.uleb128 0x9
 3432 011f B6090000 		.4byte	.LASF18
 3433 0123 04       		.byte	0x4
 3434 0124 0404     		.2byte	0x404
 3435 0126 CA000000 		.4byte	0xca
 3436 012a 00       		.byte	0
 3437 012b 09       		.uleb128 0x9
 3438 012c 71040000 		.4byte	.LASF19
 3439 0130 04       		.byte	0x4
 3440 0131 0504     		.2byte	0x405
 3441 0133 CA000000 		.4byte	0xca
 3442 0137 04       		.byte	0x4
 3443 0138 09       		.uleb128 0x9
 3444 0139 3C010000 		.4byte	.LASF20
 3445 013d 04       		.byte	0x4
 3446 013e 0604     		.2byte	0x406
 3447 0140 CA000000 		.4byte	0xca
 3448 0144 08       		.byte	0x8
 3449 0145 09       		.uleb128 0x9
ARM GAS  /tmp/ccakcsKX.s 			page 62


 3450 0146 00030000 		.4byte	.LASF21
 3451 014a 04       		.byte	0x4
 3452 014b 0704     		.2byte	0x407
 3453 014d CA000000 		.4byte	0xca
 3454 0151 0C       		.byte	0xc
 3455 0152 09       		.uleb128 0x9
 3456 0153 FA050000 		.4byte	.LASF22
 3457 0157 04       		.byte	0x4
 3458 0158 0804     		.2byte	0x408
 3459 015a CA000000 		.4byte	0xca
 3460 015e 10       		.byte	0x10
 3461 015f 09       		.uleb128 0x9
 3462 0160 05000000 		.4byte	.LASF23
 3463 0164 04       		.byte	0x4
 3464 0165 0904     		.2byte	0x409
 3465 0167 CA000000 		.4byte	0xca
 3466 016b 14       		.byte	0x14
 3467 016c 09       		.uleb128 0x9
 3468 016d 46080000 		.4byte	.LASF24
 3469 0171 04       		.byte	0x4
 3470 0172 0A04     		.2byte	0x40a
 3471 0174 CA000000 		.4byte	0xca
 3472 0178 18       		.byte	0x18
 3473 0179 09       		.uleb128 0x9
 3474 017a AE060000 		.4byte	.LASF25
 3475 017e 04       		.byte	0x4
 3476 017f 0B04     		.2byte	0x40b
 3477 0181 CA000000 		.4byte	0xca
 3478 0185 1C       		.byte	0x1c
 3479 0186 09       		.uleb128 0x9
 3480 0187 A6060000 		.4byte	.LASF26
 3481 018b 04       		.byte	0x4
 3482 018c 0C04     		.2byte	0x40c
 3483 018e CA000000 		.4byte	0xca
 3484 0192 20       		.byte	0x20
 3485 0193 09       		.uleb128 0x9
 3486 0194 91090000 		.4byte	.LASF27
 3487 0198 04       		.byte	0x4
 3488 0199 0D04     		.2byte	0x40d
 3489 019b CA000000 		.4byte	0xca
 3490 019f 24       		.byte	0x24
 3491 01a0 09       		.uleb128 0x9
 3492 01a1 50040000 		.4byte	.LASF28
 3493 01a5 04       		.byte	0x4
 3494 01a6 0E04     		.2byte	0x40e
 3495 01a8 CA000000 		.4byte	0xca
 3496 01ac 28       		.byte	0x28
 3497 01ad 09       		.uleb128 0x9
 3498 01ae 0D0B0000 		.4byte	.LASF29
 3499 01b2 04       		.byte	0x4
 3500 01b3 0F04     		.2byte	0x40f
 3501 01b5 CA000000 		.4byte	0xca
 3502 01b9 2C       		.byte	0x2c
 3503 01ba 09       		.uleb128 0x9
 3504 01bb 2F070000 		.4byte	.LASF30
 3505 01bf 04       		.byte	0x4
 3506 01c0 1004     		.2byte	0x410
ARM GAS  /tmp/ccakcsKX.s 			page 63


 3507 01c2 CF000000 		.4byte	0xcf
 3508 01c6 30       		.byte	0x30
 3509 01c7 09       		.uleb128 0x9
 3510 01c8 B80A0000 		.4byte	.LASF31
 3511 01cc 04       		.byte	0x4
 3512 01cd 1104     		.2byte	0x411
 3513 01cf CA000000 		.4byte	0xca
 3514 01d3 38       		.byte	0x38
 3515 01d4 0A       		.uleb128 0xa
 3516 01d5 43494400 		.ascii	"CID\000"
 3517 01d9 04       		.byte	0x4
 3518 01da 1204     		.2byte	0x412
 3519 01dc CA000000 		.4byte	0xca
 3520 01e0 3C       		.byte	0x3c
 3521 01e1 09       		.uleb128 0x9
 3522 01e2 3C020000 		.4byte	.LASF32
 3523 01e6 04       		.byte	0x4
 3524 01e7 1304     		.2byte	0x413
 3525 01e9 66020000 		.4byte	0x266
 3526 01ed 40       		.byte	0x40
 3527 01ee 09       		.uleb128 0x9
 3528 01ef 81050000 		.4byte	.LASF33
 3529 01f3 04       		.byte	0x4
 3530 01f4 1404     		.2byte	0x414
 3531 01f6 CA000000 		.4byte	0xca
 3532 01fa 4C       		.byte	0x4c
 3533 01fb 09       		.uleb128 0x9
 3534 01fc 46020000 		.4byte	.LASF34
 3535 0200 04       		.byte	0x4
 3536 0201 1504     		.2byte	0x415
 3537 0203 B8000000 		.4byte	0xb8
 3538 0207 50       		.byte	0x50
 3539 0208 09       		.uleb128 0x9
 3540 0209 89040000 		.4byte	.LASF35
 3541 020d 04       		.byte	0x4
 3542 020e 1604     		.2byte	0x416
 3543 0210 CA000000 		.4byte	0xca
 3544 0214 54       		.byte	0x54
 3545 0215 09       		.uleb128 0x9
 3546 0216 7A050000 		.4byte	.LASF36
 3547 021a 04       		.byte	0x4
 3548 021b 1704     		.2byte	0x417
 3549 021d CA000000 		.4byte	0xca
 3550 0221 58       		.byte	0x58
 3551 0222 09       		.uleb128 0x9
 3552 0223 4D030000 		.4byte	.LASF37
 3553 0227 04       		.byte	0x4
 3554 0228 1804     		.2byte	0x418
 3555 022a CA000000 		.4byte	0xca
 3556 022e 5C       		.byte	0x5c
 3557 022f 09       		.uleb128 0x9
 3558 0230 33000000 		.4byte	.LASF38
 3559 0234 04       		.byte	0x4
 3560 0235 1904     		.2byte	0x419
 3561 0237 CA000000 		.4byte	0xca
 3562 023b 60       		.byte	0x60
 3563 023c 09       		.uleb128 0x9
ARM GAS  /tmp/ccakcsKX.s 			page 64


 3564 023d A0080000 		.4byte	.LASF39
 3565 0241 04       		.byte	0x4
 3566 0242 1A04     		.2byte	0x41a
 3567 0244 F4000000 		.4byte	0xf4
 3568 0248 64       		.byte	0x64
 3569 0249 0B       		.uleb128 0xb
 3570 024a B6060000 		.4byte	.LASF40
 3571 024e 04       		.byte	0x4
 3572 024f 1B04     		.2byte	0x41b
 3573 0251 CA000000 		.4byte	0xca
 3574 0255 0001     		.2byte	0x100
 3575 0257 0B       		.uleb128 0xb
 3576 0258 DC0A0000 		.4byte	.LASF41
 3577 025c 04       		.byte	0x4
 3578 025d 1C04     		.2byte	0x41c
 3579 025f 76020000 		.4byte	0x276
 3580 0263 0401     		.2byte	0x104
 3581 0265 00       		.byte	0
 3582 0266 06       		.uleb128 0x6
 3583 0267 B8000000 		.4byte	0xb8
 3584 026b 76020000 		.4byte	0x276
 3585 026f 07       		.uleb128 0x7
 3586 0270 C3000000 		.4byte	0xc3
 3587 0274 02       		.byte	0x2
 3588 0275 00       		.byte	0
 3589 0276 05       		.uleb128 0x5
 3590 0277 E4000000 		.4byte	0xe4
 3591 027b 0C       		.uleb128 0xc
 3592 027c AA070000 		.4byte	.LASF42
 3593 0280 04       		.byte	0x4
 3594 0281 1D04     		.2byte	0x41d
 3595 0283 14010000 		.4byte	0x114
 3596 0287 0D       		.uleb128 0xd
 3597 0288 88       		.byte	0x88
 3598 0289 04       		.byte	0x4
 3599 028a 2204     		.2byte	0x422
 3600 028c 95030000 		.4byte	0x395
 3601 0290 09       		.uleb128 0x9
 3602 0291 20000000 		.4byte	.LASF43
 3603 0295 04       		.byte	0x4
 3604 0296 2404     		.2byte	0x424
 3605 0298 CA000000 		.4byte	0xca
 3606 029c 00       		.byte	0
 3607 029d 09       		.uleb128 0x9
 3608 029e CF090000 		.4byte	.LASF44
 3609 02a2 04       		.byte	0x4
 3610 02a3 2504     		.2byte	0x425
 3611 02a5 CA000000 		.4byte	0xca
 3612 02a9 04       		.byte	0x4
 3613 02aa 09       		.uleb128 0x9
 3614 02ab 91020000 		.4byte	.LASF45
 3615 02af 04       		.byte	0x4
 3616 02b0 2604     		.2byte	0x426
 3617 02b2 CA000000 		.4byte	0xca
 3618 02b6 08       		.byte	0x8
 3619 02b7 09       		.uleb128 0x9
 3620 02b8 A3020000 		.4byte	.LASF46
ARM GAS  /tmp/ccakcsKX.s 			page 65


 3621 02bc 04       		.byte	0x4
 3622 02bd 2704     		.2byte	0x427
 3623 02bf B8000000 		.4byte	0xb8
 3624 02c3 0C       		.byte	0xc
 3625 02c4 09       		.uleb128 0x9
 3626 02c5 63070000 		.4byte	.LASF47
 3627 02c9 04       		.byte	0x4
 3628 02ca 2804     		.2byte	0x428
 3629 02cc CA000000 		.4byte	0xca
 3630 02d0 10       		.byte	0x10
 3631 02d1 09       		.uleb128 0x9
 3632 02d2 A70A0000 		.4byte	.LASF48
 3633 02d6 04       		.byte	0x4
 3634 02d7 2904     		.2byte	0x429
 3635 02d9 CA000000 		.4byte	0xca
 3636 02dd 14       		.byte	0x14
 3637 02de 09       		.uleb128 0x9
 3638 02df 30030000 		.4byte	.LASF49
 3639 02e3 04       		.byte	0x4
 3640 02e4 2A04     		.2byte	0x42a
 3641 02e6 CA000000 		.4byte	0xca
 3642 02ea 18       		.byte	0x18
 3643 02eb 09       		.uleb128 0x9
 3644 02ec 57030000 		.4byte	.LASF50
 3645 02f0 04       		.byte	0x4
 3646 02f1 2B04     		.2byte	0x42b
 3647 02f3 CA000000 		.4byte	0xca
 3648 02f7 1C       		.byte	0x1c
 3649 02f8 09       		.uleb128 0x9
 3650 02f9 EF050000 		.4byte	.LASF51
 3651 02fd 04       		.byte	0x4
 3652 02fe 2C04     		.2byte	0x42c
 3653 0300 B8000000 		.4byte	0xb8
 3654 0304 20       		.byte	0x20
 3655 0305 09       		.uleb128 0x9
 3656 0306 C2050000 		.4byte	.LASF52
 3657 030a 04       		.byte	0x4
 3658 030b 2D04     		.2byte	0x42d
 3659 030d B8000000 		.4byte	0xb8
 3660 0311 24       		.byte	0x24
 3661 0312 09       		.uleb128 0x9
 3662 0313 E8090000 		.4byte	.LASF53
 3663 0317 04       		.byte	0x4
 3664 0318 2E04     		.2byte	0x42e
 3665 031a CA000000 		.4byte	0xca
 3666 031e 28       		.byte	0x28
 3667 031f 09       		.uleb128 0x9
 3668 0320 AB080000 		.4byte	.LASF54
 3669 0324 04       		.byte	0x4
 3670 0325 2F04     		.2byte	0x42f
 3671 0327 CA000000 		.4byte	0xca
 3672 032b 2C       		.byte	0x2c
 3673 032c 09       		.uleb128 0x9
 3674 032d 16060000 		.4byte	.LASF55
 3675 0331 04       		.byte	0x4
 3676 0332 3004     		.2byte	0x430
 3677 0334 CA000000 		.4byte	0xca
ARM GAS  /tmp/ccakcsKX.s 			page 66


 3678 0338 30       		.byte	0x30
 3679 0339 09       		.uleb128 0x9
 3680 033a FC000000 		.4byte	.LASF56
 3681 033e 04       		.byte	0x4
 3682 033f 3104     		.2byte	0x431
 3683 0341 CA000000 		.4byte	0xca
 3684 0345 34       		.byte	0x34
 3685 0346 09       		.uleb128 0x9
 3686 0347 25000000 		.4byte	.LASF57
 3687 034b 04       		.byte	0x4
 3688 034c 3204     		.2byte	0x432
 3689 034e CA000000 		.4byte	0xca
 3690 0352 38       		.byte	0x38
 3691 0353 09       		.uleb128 0x9
 3692 0354 C60A0000 		.4byte	.LASF58
 3693 0358 04       		.byte	0x4
 3694 0359 3304     		.2byte	0x433
 3695 035b CA000000 		.4byte	0xca
 3696 035f 3C       		.byte	0x3c
 3697 0360 09       		.uleb128 0x9
 3698 0361 71080000 		.4byte	.LASF59
 3699 0365 04       		.byte	0x4
 3700 0366 3404     		.2byte	0x434
 3701 0368 B8000000 		.4byte	0xb8
 3702 036c 40       		.byte	0x40
 3703 036d 09       		.uleb128 0x9
 3704 036e C9010000 		.4byte	.LASF60
 3705 0372 04       		.byte	0x4
 3706 0373 3504     		.2byte	0x435
 3707 0375 CA000000 		.4byte	0xca
 3708 0379 44       		.byte	0x44
 3709 037a 09       		.uleb128 0x9
 3710 037b 89050000 		.4byte	.LASF61
 3711 037f 04       		.byte	0x4
 3712 0380 3604     		.2byte	0x436
 3713 0382 E4000000 		.4byte	0xe4
 3714 0386 48       		.byte	0x48
 3715 0387 09       		.uleb128 0x9
 3716 0388 100A0000 		.4byte	.LASF62
 3717 038c 04       		.byte	0x4
 3718 038d 3704     		.2byte	0x437
 3719 038f CA000000 		.4byte	0xca
 3720 0393 84       		.byte	0x84
 3721 0394 00       		.byte	0
 3722 0395 0C       		.uleb128 0xc
 3723 0396 AE020000 		.4byte	.LASF63
 3724 039a 04       		.byte	0x4
 3725 039b 3804     		.2byte	0x438
 3726 039d 87020000 		.4byte	0x287
 3727 03a1 0D       		.uleb128 0xd
 3728 03a2 20       		.byte	0x20
 3729 03a3 04       		.byte	0x4
 3730 03a4 3D04     		.2byte	0x43d
 3731 03a6 13040000 		.4byte	0x413
 3732 03aa 09       		.uleb128 0x9
 3733 03ab C6060000 		.4byte	.LASF64
 3734 03af 04       		.byte	0x4
ARM GAS  /tmp/ccakcsKX.s 			page 67


 3735 03b0 3F04     		.2byte	0x43f
 3736 03b2 CA000000 		.4byte	0xca
 3737 03b6 00       		.byte	0
 3738 03b7 09       		.uleb128 0x9
 3739 03b8 31020000 		.4byte	.LASF65
 3740 03bc 04       		.byte	0x4
 3741 03bd 4004     		.2byte	0x440
 3742 03bf B8000000 		.4byte	0xb8
 3743 03c3 04       		.byte	0x4
 3744 03c4 09       		.uleb128 0x9
 3745 03c5 03080000 		.4byte	.LASF66
 3746 03c9 04       		.byte	0x4
 3747 03ca 4104     		.2byte	0x441
 3748 03cc CA000000 		.4byte	0xca
 3749 03d0 08       		.byte	0x8
 3750 03d1 09       		.uleb128 0x9
 3751 03d2 A3020000 		.4byte	.LASF46
 3752 03d6 04       		.byte	0x4
 3753 03d7 4204     		.2byte	0x442
 3754 03d9 B8000000 		.4byte	0xb8
 3755 03dd 0C       		.byte	0xc
 3756 03de 09       		.uleb128 0x9
 3757 03df 5A070000 		.4byte	.LASF67
 3758 03e3 04       		.byte	0x4
 3759 03e4 4304     		.2byte	0x443
 3760 03e6 CA000000 		.4byte	0xca
 3761 03ea 10       		.byte	0x10
 3762 03eb 09       		.uleb128 0x9
 3763 03ec BA050000 		.4byte	.LASF68
 3764 03f0 04       		.byte	0x4
 3765 03f1 4404     		.2byte	0x444
 3766 03f3 CA000000 		.4byte	0xca
 3767 03f7 14       		.byte	0x14
 3768 03f8 09       		.uleb128 0x9
 3769 03f9 BE0A0000 		.4byte	.LASF69
 3770 03fd 04       		.byte	0x4
 3771 03fe 4504     		.2byte	0x445
 3772 0400 CA000000 		.4byte	0xca
 3773 0404 18       		.byte	0x18
 3774 0405 09       		.uleb128 0x9
 3775 0406 79040000 		.4byte	.LASF70
 3776 040a 04       		.byte	0x4
 3777 040b 4604     		.2byte	0x446
 3778 040d B8000000 		.4byte	0xb8
 3779 0411 1C       		.byte	0x1c
 3780 0412 00       		.byte	0
 3781 0413 0C       		.uleb128 0xc
 3782 0414 A7040000 		.4byte	.LASF71
 3783 0418 04       		.byte	0x4
 3784 0419 4704     		.2byte	0x447
 3785 041b A1030000 		.4byte	0x3a1
 3786 041f 0D       		.uleb128 0xd
 3787 0420 20       		.byte	0x20
 3788 0421 04       		.byte	0x4
 3789 0422 4C04     		.2byte	0x44c
 3790 0424 84040000 		.4byte	0x484
 3791 0428 09       		.uleb128 0x9
ARM GAS  /tmp/ccakcsKX.s 			page 68


 3792 0429 FE090000 		.4byte	.LASF72
 3793 042d 04       		.byte	0x4
 3794 042e 4E04     		.2byte	0x44e
 3795 0430 CA000000 		.4byte	0xca
 3796 0434 00       		.byte	0
 3797 0435 09       		.uleb128 0x9
 3798 0436 31020000 		.4byte	.LASF65
 3799 043a 04       		.byte	0x4
 3800 043b 4F04     		.2byte	0x44f
 3801 043d B8000000 		.4byte	0xb8
 3802 0441 04       		.byte	0x4
 3803 0442 09       		.uleb128 0x9
 3804 0443 2A0B0000 		.4byte	.LASF73
 3805 0447 04       		.byte	0x4
 3806 0448 5004     		.2byte	0x450
 3807 044a CA000000 		.4byte	0xca
 3808 044e 08       		.byte	0x8
 3809 044f 09       		.uleb128 0x9
 3810 0450 A3020000 		.4byte	.LASF46
 3811 0454 04       		.byte	0x4
 3812 0455 5104     		.2byte	0x451
 3813 0457 B8000000 		.4byte	0xb8
 3814 045b 0C       		.byte	0xc
 3815 045c 09       		.uleb128 0x9
 3816 045d E1050000 		.4byte	.LASF74
 3817 0461 04       		.byte	0x4
 3818 0462 5204     		.2byte	0x452
 3819 0464 CA000000 		.4byte	0xca
 3820 0468 10       		.byte	0x10
 3821 0469 09       		.uleb128 0x9
 3822 046a E4080000 		.4byte	.LASF75
 3823 046e 04       		.byte	0x4
 3824 046f 5304     		.2byte	0x453
 3825 0471 CA000000 		.4byte	0xca
 3826 0475 14       		.byte	0x14
 3827 0476 09       		.uleb128 0x9
 3828 0477 79040000 		.4byte	.LASF70
 3829 047b 04       		.byte	0x4
 3830 047c 5404     		.2byte	0x454
 3831 047e CF000000 		.4byte	0xcf
 3832 0482 18       		.byte	0x18
 3833 0483 00       		.byte	0
 3834 0484 0C       		.uleb128 0xc
 3835 0485 18080000 		.4byte	.LASF76
 3836 0489 04       		.byte	0x4
 3837 048a 5504     		.2byte	0x455
 3838 048c 1F040000 		.4byte	0x41f
 3839 0490 0E       		.uleb128 0xe
 3840 0491 04       		.byte	0x4
 3841 0492 02       		.uleb128 0x2
 3842 0493 01       		.byte	0x1
 3843 0494 08       		.byte	0x8
 3844 0495 FF080000 		.4byte	.LASF77
 3845 0499 0F       		.uleb128 0xf
 3846 049a 01       		.byte	0x1
 3847 049b 05       		.byte	0x5
 3848 049c 3A       		.byte	0x3a
ARM GAS  /tmp/ccakcsKX.s 			page 69


 3849 049d BA040000 		.4byte	0x4ba
 3850 04a1 10       		.uleb128 0x10
 3851 04a2 BF060000 		.4byte	.LASF78
 3852 04a6 00       		.sleb128 0
 3853 04a7 10       		.uleb128 0x10
 3854 04a8 F5080000 		.4byte	.LASF79
 3855 04ac 01       		.sleb128 1
 3856 04ad 10       		.uleb128 0x10
 3857 04ae 44010000 		.4byte	.LASF80
 3858 04b2 02       		.sleb128 2
 3859 04b3 10       		.uleb128 0x10
 3860 04b4 D4040000 		.4byte	.LASF81
 3861 04b8 03       		.sleb128 3
 3862 04b9 00       		.byte	0
 3863 04ba 03       		.uleb128 0x3
 3864 04bb 3B060000 		.4byte	.LASF82
 3865 04bf 05       		.byte	0x5
 3866 04c0 3F       		.byte	0x3f
 3867 04c1 99040000 		.4byte	0x499
 3868 04c5 0F       		.uleb128 0xf
 3869 04c6 01       		.byte	0x1
 3870 04c7 05       		.byte	0x5
 3871 04c8 45       		.byte	0x45
 3872 04c9 DA040000 		.4byte	0x4da
 3873 04cd 10       		.uleb128 0x10
 3874 04ce CF0A0000 		.4byte	.LASF83
 3875 04d2 00       		.sleb128 0
 3876 04d3 10       		.uleb128 0x10
 3877 04d4 F3060000 		.4byte	.LASF84
 3878 04d8 01       		.sleb128 1
 3879 04d9 00       		.byte	0
 3880 04da 03       		.uleb128 0x3
 3881 04db 62020000 		.4byte	.LASF85
 3882 04df 05       		.byte	0x5
 3883 04e0 48       		.byte	0x48
 3884 04e1 C5040000 		.4byte	0x4c5
 3885 04e5 11       		.uleb128 0x11
 3886 04e6 04       		.byte	0x4
 3887 04e7 97000000 		.4byte	0x97
 3888 04eb 0F       		.uleb128 0xf
 3889 04ec 01       		.byte	0x1
 3890 04ed 06       		.byte	0x6
 3891 04ee 44       		.byte	0x44
 3892 04ef 06050000 		.4byte	0x506
 3893 04f3 10       		.uleb128 0x10
 3894 04f4 D6060000 		.4byte	.LASF86
 3895 04f8 00       		.sleb128 0
 3896 04f9 10       		.uleb128 0x10
 3897 04fa 60030000 		.4byte	.LASF87
 3898 04fe 01       		.sleb128 1
 3899 04ff 10       		.uleb128 0x10
 3900 0500 E6070000 		.4byte	.LASF88
 3901 0504 02       		.sleb128 2
 3902 0505 00       		.byte	0
 3903 0506 12       		.uleb128 0x12
 3904 0507 34       		.byte	0x34
 3905 0508 06       		.byte	0x6
ARM GAS  /tmp/ccakcsKX.s 			page 70


 3906 0509 6C       		.byte	0x6c
 3907 050a AB050000 		.4byte	0x5ab
 3908 050e 13       		.uleb128 0x13
 3909 050f B5010000 		.4byte	.LASF89
 3910 0513 06       		.byte	0x6
 3911 0514 6E       		.byte	0x6e
 3912 0515 B8000000 		.4byte	0xb8
 3913 0519 00       		.byte	0
 3914 051a 13       		.uleb128 0x13
 3915 051b 63040000 		.4byte	.LASF90
 3916 051f 06       		.byte	0x6
 3917 0520 72       		.byte	0x72
 3918 0521 B8000000 		.4byte	0xb8
 3919 0525 04       		.byte	0x4
 3920 0526 13       		.uleb128 0x13
 3921 0527 82060000 		.4byte	.LASF91
 3922 052b 06       		.byte	0x6
 3923 052c 76       		.byte	0x76
 3924 052d B8000000 		.4byte	0xb8
 3925 0531 08       		.byte	0x8
 3926 0532 13       		.uleb128 0x13
 3927 0533 24070000 		.4byte	.LASF92
 3928 0537 06       		.byte	0x6
 3929 0538 79       		.byte	0x79
 3930 0539 B8000000 		.4byte	0xb8
 3931 053d 0C       		.byte	0xc
 3932 053e 13       		.uleb128 0x13
 3933 053f 9E090000 		.4byte	.LASF93
 3934 0543 06       		.byte	0x6
 3935 0544 7B       		.byte	0x7b
 3936 0545 B8000000 		.4byte	0xb8
 3937 0549 10       		.byte	0x10
 3938 054a 13       		.uleb128 0x13
 3939 054b C4020000 		.4byte	.LASF94
 3940 054f 06       		.byte	0x6
 3941 0550 7E       		.byte	0x7e
 3942 0551 B8000000 		.4byte	0xb8
 3943 0555 14       		.byte	0x14
 3944 0556 13       		.uleb128 0x13
 3945 0557 1B0A0000 		.4byte	.LASF95
 3946 055b 06       		.byte	0x6
 3947 055c 81       		.byte	0x81
 3948 055d B8000000 		.4byte	0xb8
 3949 0561 18       		.byte	0x18
 3950 0562 13       		.uleb128 0x13
 3951 0563 FC0A0000 		.4byte	.LASF96
 3952 0567 06       		.byte	0x6
 3953 0568 83       		.byte	0x83
 3954 0569 B8000000 		.4byte	0xb8
 3955 056d 1C       		.byte	0x1c
 3956 056e 13       		.uleb128 0x13
 3957 056f C1080000 		.4byte	.LASF97
 3958 0573 06       		.byte	0x6
 3959 0574 85       		.byte	0x85
 3960 0575 B8000000 		.4byte	0xb8
 3961 0579 20       		.byte	0x20
 3962 057a 13       		.uleb128 0x13
ARM GAS  /tmp/ccakcsKX.s 			page 71


 3963 057b CC080000 		.4byte	.LASF98
 3964 057f 06       		.byte	0x6
 3965 0580 87       		.byte	0x87
 3966 0581 B8000000 		.4byte	0xb8
 3967 0585 24       		.byte	0x24
 3968 0586 13       		.uleb128 0x13
 3969 0587 A1010000 		.4byte	.LASF99
 3970 058b 06       		.byte	0x6
 3971 058c 89       		.byte	0x89
 3972 058d B8000000 		.4byte	0xb8
 3973 0591 28       		.byte	0x28
 3974 0592 13       		.uleb128 0x13
 3975 0593 3F090000 		.4byte	.LASF100
 3976 0597 06       		.byte	0x6
 3977 0598 8B       		.byte	0x8b
 3978 0599 B8000000 		.4byte	0xb8
 3979 059d 2C       		.byte	0x2c
 3980 059e 13       		.uleb128 0x13
 3981 059f 43050000 		.4byte	.LASF101
 3982 05a3 06       		.byte	0x6
 3983 05a4 8D       		.byte	0x8d
 3984 05a5 B8000000 		.4byte	0xb8
 3985 05a9 30       		.byte	0x30
 3986 05aa 00       		.byte	0
 3987 05ab 03       		.uleb128 0x3
 3988 05ac F5040000 		.4byte	.LASF102
 3989 05b0 06       		.byte	0x6
 3990 05b1 8F       		.byte	0x8f
 3991 05b2 06050000 		.4byte	0x506
 3992 05b6 12       		.uleb128 0x12
 3993 05b7 1C       		.byte	0x1c
 3994 05b8 06       		.byte	0x6
 3995 05b9 91       		.byte	0x91
 3996 05ba 4F060000 		.4byte	0x64f
 3997 05be 14       		.uleb128 0x14
 3998 05bf 6E756D00 		.ascii	"num\000"
 3999 05c3 06       		.byte	0x6
 4000 05c4 93       		.byte	0x93
 4001 05c5 97000000 		.4byte	0x97
 4002 05c9 00       		.byte	0
 4003 05ca 13       		.uleb128 0x13
 4004 05cb C3010000 		.4byte	.LASF103
 4005 05cf 06       		.byte	0x6
 4006 05d0 96       		.byte	0x96
 4007 05d1 97000000 		.4byte	0x97
 4008 05d5 01       		.byte	0x1
 4009 05d6 13       		.uleb128 0x13
 4010 05d7 2F040000 		.4byte	.LASF104
 4011 05db 06       		.byte	0x6
 4012 05dc 99       		.byte	0x99
 4013 05dd 97000000 		.4byte	0x97
 4014 05e1 02       		.byte	0x2
 4015 05e2 13       		.uleb128 0x13
 4016 05e3 4D010000 		.4byte	.LASF105
 4017 05e7 06       		.byte	0x6
 4018 05e8 9C       		.byte	0x9c
 4019 05e9 97000000 		.4byte	0x97
ARM GAS  /tmp/ccakcsKX.s 			page 72


 4020 05ed 03       		.byte	0x3
 4021 05ee 13       		.uleb128 0x13
 4022 05ef 4E080000 		.4byte	.LASF106
 4023 05f3 06       		.byte	0x6
 4024 05f4 9F       		.byte	0x9f
 4025 05f5 97000000 		.4byte	0x97
 4026 05f9 04       		.byte	0x4
 4027 05fa 13       		.uleb128 0x13
 4028 05fb 07010000 		.4byte	.LASF107
 4029 05ff 06       		.byte	0x6
 4030 0600 A2       		.byte	0xa2
 4031 0601 97000000 		.4byte	0x97
 4032 0605 05       		.byte	0x5
 4033 0606 13       		.uleb128 0x13
 4034 0607 C3090000 		.4byte	.LASF108
 4035 060b 06       		.byte	0x6
 4036 060c A5       		.byte	0xa5
 4037 060d A2000000 		.4byte	0xa2
 4038 0611 06       		.byte	0x6
 4039 0612 13       		.uleb128 0x13
 4040 0613 91010000 		.4byte	.LASF109
 4041 0617 06       		.byte	0x6
 4042 0618 A8       		.byte	0xa8
 4043 0619 B8000000 		.4byte	0xb8
 4044 061d 08       		.byte	0x8
 4045 061e 13       		.uleb128 0x13
 4046 061f 060A0000 		.4byte	.LASF110
 4047 0623 06       		.byte	0x6
 4048 0624 AB       		.byte	0xab
 4049 0625 E5040000 		.4byte	0x4e5
 4050 0629 0C       		.byte	0xc
 4051 062a 13       		.uleb128 0x13
 4052 062b 5F0A0000 		.4byte	.LASF111
 4053 062f 06       		.byte	0x6
 4054 0630 AD       		.byte	0xad
 4055 0631 B8000000 		.4byte	0xb8
 4056 0635 10       		.byte	0x10
 4057 0636 13       		.uleb128 0x13
 4058 0637 9D060000 		.4byte	.LASF112
 4059 063b 06       		.byte	0x6
 4060 063c AF       		.byte	0xaf
 4061 063d B8000000 		.4byte	0xb8
 4062 0641 14       		.byte	0x14
 4063 0642 13       		.uleb128 0x13
 4064 0643 08030000 		.4byte	.LASF113
 4065 0647 06       		.byte	0x6
 4066 0648 B1       		.byte	0xb1
 4067 0649 B8000000 		.4byte	0xb8
 4068 064d 18       		.byte	0x18
 4069 064e 00       		.byte	0
 4070 064f 03       		.uleb128 0x3
 4071 0650 04090000 		.4byte	.LASF114
 4072 0654 06       		.byte	0x6
 4073 0655 B3       		.byte	0xb3
 4074 0656 B6050000 		.4byte	0x5b6
 4075 065a 0F       		.uleb128 0xf
 4076 065b 01       		.byte	0x1
ARM GAS  /tmp/ccakcsKX.s 			page 73


 4077 065c 07       		.byte	0x7
 4078 065d 47       		.byte	0x47
 4079 065e 81060000 		.4byte	0x681
 4080 0662 10       		.uleb128 0x10
 4081 0663 160B0000 		.4byte	.LASF115
 4082 0667 00       		.sleb128 0
 4083 0668 10       		.uleb128 0x10
 4084 0669 66050000 		.4byte	.LASF116
 4085 066d 01       		.sleb128 1
 4086 066e 10       		.uleb128 0x10
 4087 066f 10070000 		.4byte	.LASF117
 4088 0673 02       		.sleb128 2
 4089 0674 10       		.uleb128 0x10
 4090 0675 0D000000 		.4byte	.LASF118
 4091 0679 03       		.sleb128 3
 4092 067a 10       		.uleb128 0x10
 4093 067b 680A0000 		.4byte	.LASF119
 4094 067f 04       		.sleb128 4
 4095 0680 00       		.byte	0
 4096 0681 03       		.uleb128 0x3
 4097 0682 55050000 		.4byte	.LASF120
 4098 0686 07       		.byte	0x7
 4099 0687 4D       		.byte	0x4d
 4100 0688 5A060000 		.4byte	0x65a
 4101 068c 0F       		.uleb128 0xf
 4102 068d 01       		.byte	0x1
 4103 068e 07       		.byte	0x7
 4104 068f 51       		.byte	0x51
 4105 0690 AD060000 		.4byte	0x6ad
 4106 0694 10       		.uleb128 0x10
 4107 0695 E0040000 		.4byte	.LASF121
 4108 0699 00       		.sleb128 0
 4109 069a 10       		.uleb128 0x10
 4110 069b E7040000 		.4byte	.LASF122
 4111 069f 01       		.sleb128 1
 4112 06a0 10       		.uleb128 0x10
 4113 06a1 EE040000 		.4byte	.LASF123
 4114 06a5 02       		.sleb128 2
 4115 06a6 10       		.uleb128 0x10
 4116 06a7 8A010000 		.4byte	.LASF124
 4117 06ab 03       		.sleb128 3
 4118 06ac 00       		.byte	0
 4119 06ad 03       		.uleb128 0x3
 4120 06ae CC050000 		.4byte	.LASF125
 4121 06b2 07       		.byte	0x7
 4122 06b3 56       		.byte	0x56
 4123 06b4 8C060000 		.4byte	0x68c
 4124 06b8 03       		.uleb128 0x3
 4125 06b9 9E070000 		.4byte	.LASF126
 4126 06bd 07       		.byte	0x7
 4127 06be 6F       		.byte	0x6f
 4128 06bf 7B020000 		.4byte	0x27b
 4129 06c3 03       		.uleb128 0x3
 4130 06c4 D6070000 		.4byte	.LASF127
 4131 06c8 07       		.byte	0x7
 4132 06c9 70       		.byte	0x70
 4133 06ca AB050000 		.4byte	0x5ab
ARM GAS  /tmp/ccakcsKX.s 			page 74


 4134 06ce 03       		.uleb128 0x3
 4135 06cf 3B000000 		.4byte	.LASF128
 4136 06d3 07       		.byte	0x7
 4137 06d4 71       		.byte	0x71
 4138 06d5 4F060000 		.4byte	0x64f
 4139 06d9 15       		.uleb128 0x15
 4140 06da CC03     		.2byte	0x3cc
 4141 06dc 07       		.byte	0x7
 4142 06dd 7D       		.byte	0x7d
 4143 06de 88070000 		.4byte	0x788
 4144 06e2 13       		.uleb128 0x13
 4145 06e3 95070000 		.4byte	.LASF129
 4146 06e7 07       		.byte	0x7
 4147 06e8 7F       		.byte	0x7f
 4148 06e9 88070000 		.4byte	0x788
 4149 06ed 00       		.byte	0
 4150 06ee 13       		.uleb128 0x13
 4151 06ef 88070000 		.4byte	.LASF130
 4152 06f3 07       		.byte	0x7
 4153 06f4 80       		.byte	0x80
 4154 06f5 C3060000 		.4byte	0x6c3
 4155 06f9 04       		.byte	0x4
 4156 06fa 13       		.uleb128 0x13
 4157 06fb 7B090000 		.4byte	.LASF131
 4158 06ff 07       		.byte	0x7
 4159 0700 81       		.byte	0x81
 4160 0701 DF000000 		.4byte	0xdf
 4161 0705 38       		.byte	0x38
 4162 0706 13       		.uleb128 0x13
 4163 0707 52010000 		.4byte	.LASF132
 4164 070b 07       		.byte	0x7
 4165 070c 82       		.byte	0x82
 4166 070d 8E070000 		.4byte	0x78e
 4167 0711 3C       		.byte	0x3c
 4168 0712 16       		.uleb128 0x16
 4169 0713 6B070000 		.4byte	.LASF133
 4170 0717 07       		.byte	0x7
 4171 0718 83       		.byte	0x83
 4172 0719 8E070000 		.4byte	0x78e
 4173 071d E001     		.2byte	0x1e0
 4174 071f 16       		.uleb128 0x16
 4175 0720 EA050000 		.4byte	.LASF134
 4176 0724 07       		.byte	0x7
 4177 0725 84       		.byte	0x84
 4178 0726 DA040000 		.4byte	0x4da
 4179 072a 8403     		.2byte	0x384
 4180 072c 16       		.uleb128 0x16
 4181 072d 2E090000 		.4byte	.LASF135
 4182 0731 07       		.byte	0x7
 4183 0732 85       		.byte	0x85
 4184 0733 9E070000 		.4byte	0x79e
 4185 0737 8503     		.2byte	0x385
 4186 0739 16       		.uleb128 0x16
 4187 073a 5C060000 		.4byte	.LASF136
 4188 073e 07       		.byte	0x7
 4189 073f 86       		.byte	0x86
 4190 0740 04010000 		.4byte	0x104
ARM GAS  /tmp/ccakcsKX.s 			page 75


 4191 0744 8803     		.2byte	0x388
 4192 0746 16       		.uleb128 0x16
 4193 0747 50020000 		.4byte	.LASF137
 4194 074b 07       		.byte	0x7
 4195 074c 87       		.byte	0x87
 4196 074d AD060000 		.4byte	0x6ad
 4197 0751 B803     		.2byte	0x3b8
 4198 0753 16       		.uleb128 0x16
 4199 0754 99090000 		.4byte	.LASF138
 4200 0758 07       		.byte	0x7
 4201 0759 88       		.byte	0x88
 4202 075a B8000000 		.4byte	0xb8
 4203 075e BC03     		.2byte	0x3bc
 4204 0760 16       		.uleb128 0x16
 4205 0761 B6080000 		.4byte	.LASF139
 4206 0765 07       		.byte	0x7
 4207 0766 8B       		.byte	0x8b
 4208 0767 B8000000 		.4byte	0xb8
 4209 076b C003     		.2byte	0x3c0
 4210 076d 16       		.uleb128 0x16
 4211 076e E40A0000 		.4byte	.LASF140
 4212 0772 07       		.byte	0x7
 4213 0773 8E       		.byte	0x8e
 4214 0774 B8000000 		.4byte	0xb8
 4215 0778 C403     		.2byte	0x3c4
 4216 077a 16       		.uleb128 0x16
 4217 077b 9B010000 		.4byte	.LASF141
 4218 077f 07       		.byte	0x7
 4219 0780 90       		.byte	0x90
 4220 0781 90040000 		.4byte	0x490
 4221 0785 C803     		.2byte	0x3c8
 4222 0787 00       		.byte	0
 4223 0788 11       		.uleb128 0x11
 4224 0789 04       		.byte	0x4
 4225 078a B8060000 		.4byte	0x6b8
 4226 078e 06       		.uleb128 0x6
 4227 078f CE060000 		.4byte	0x6ce
 4228 0793 9E070000 		.4byte	0x79e
 4229 0797 07       		.uleb128 0x7
 4230 0798 C3000000 		.4byte	0xc3
 4231 079c 0E       		.byte	0xe
 4232 079d 00       		.byte	0
 4233 079e 05       		.uleb128 0x5
 4234 079f 81060000 		.4byte	0x681
 4235 07a3 03       		.uleb128 0x3
 4236 07a4 FE060000 		.4byte	.LASF142
 4237 07a8 07       		.byte	0x7
 4238 07a9 92       		.byte	0x92
 4239 07aa D9060000 		.4byte	0x6d9
 4240 07ae 0F       		.uleb128 0xf
 4241 07af 01       		.byte	0x1
 4242 07b0 08       		.byte	0x8
 4243 07b1 3F       		.byte	0x3f
 4244 07b2 C3070000 		.4byte	0x7c3
 4245 07b6 10       		.uleb128 0x10
 4246 07b7 57090000 		.4byte	.LASF143
 4247 07bb 00       		.sleb128 0
ARM GAS  /tmp/ccakcsKX.s 			page 76


 4248 07bc 10       		.uleb128 0x10
 4249 07bd 61010000 		.4byte	.LASF144
 4250 07c1 01       		.sleb128 1
 4251 07c2 00       		.byte	0
 4252 07c3 17       		.uleb128 0x17
 4253 07c4 E6060000 		.4byte	.LASF145
 4254 07c8 01       		.byte	0x1
 4255 07c9 8F       		.byte	0x8f
 4256 07ca BA040000 		.4byte	0x4ba
 4257 07ce 00000000 		.4byte	.LFB125
 4258 07d2 32020000 		.4byte	.LFE125-.LFB125
 4259 07d6 01       		.uleb128 0x1
 4260 07d7 9C       		.byte	0x9c
 4261 07d8 F9070000 		.4byte	0x7f9
 4262 07dc 18       		.uleb128 0x18
 4263 07dd 00000000 		.4byte	.LASF147
 4264 07e1 01       		.byte	0x1
 4265 07e2 8F       		.byte	0x8f
 4266 07e3 F9070000 		.4byte	0x7f9
 4267 07e7 02       		.uleb128 0x2
 4268 07e8 91       		.byte	0x91
 4269 07e9 5C       		.sleb128 -36
 4270 07ea 19       		.uleb128 0x19
 4271 07eb 51090000 		.4byte	.LASF153
 4272 07ef 01       		.byte	0x1
 4273 07f0 91       		.byte	0x91
 4274 07f1 B8000000 		.4byte	0xb8
 4275 07f5 02       		.uleb128 0x2
 4276 07f6 91       		.byte	0x91
 4277 07f7 64       		.sleb128 -28
 4278 07f8 00       		.byte	0
 4279 07f9 11       		.uleb128 0x11
 4280 07fa 04       		.byte	0x4
 4281 07fb A3070000 		.4byte	0x7a3
 4282 07ff 17       		.uleb128 0x17
 4283 0800 4D060000 		.4byte	.LASF146
 4284 0804 01       		.byte	0x1
 4285 0805 E4       		.byte	0xe4
 4286 0806 BA040000 		.4byte	0x4ba
 4287 080a 40020000 		.4byte	.LFB126
 4288 080e 36000000 		.4byte	.LFE126-.LFB126
 4289 0812 01       		.uleb128 0x1
 4290 0813 9C       		.byte	0x9c
 4291 0814 27080000 		.4byte	0x827
 4292 0818 18       		.uleb128 0x18
 4293 0819 00000000 		.4byte	.LASF147
 4294 081d 01       		.byte	0x1
 4295 081e E4       		.byte	0xe4
 4296 081f F9070000 		.4byte	0x7f9
 4297 0823 02       		.uleb128 0x2
 4298 0824 91       		.byte	0x91
 4299 0825 74       		.sleb128 -12
 4300 0826 00       		.byte	0
 4301 0827 1A       		.uleb128 0x1a
 4302 0828 A6090000 		.4byte	.LASF148
 4303 082c 01       		.byte	0x1
 4304 082d FE       		.byte	0xfe
ARM GAS  /tmp/ccakcsKX.s 			page 77


 4305 082e 80020000 		.4byte	.LFB127
 4306 0832 08000000 		.4byte	.LFE127-.LFB127
 4307 0836 01       		.uleb128 0x1
 4308 0837 9C       		.byte	0x9c
 4309 0838 4B080000 		.4byte	0x84b
 4310 083c 18       		.uleb128 0x18
 4311 083d 00000000 		.4byte	.LASF147
 4312 0841 01       		.byte	0x1
 4313 0842 FE       		.byte	0xfe
 4314 0843 F9070000 		.4byte	0x7f9
 4315 0847 02       		.uleb128 0x2
 4316 0848 91       		.byte	0x91
 4317 0849 7C       		.sleb128 -4
 4318 084a 00       		.byte	0
 4319 084b 1B       		.uleb128 0x1b
 4320 084c 69090000 		.4byte	.LASF149
 4321 0850 01       		.byte	0x1
 4322 0851 0D01     		.2byte	0x10d
 4323 0853 90020000 		.4byte	.LFB128
 4324 0857 08000000 		.4byte	.LFE128-.LFB128
 4325 085b 01       		.uleb128 0x1
 4326 085c 9C       		.byte	0x9c
 4327 085d 71080000 		.4byte	0x871
 4328 0861 1C       		.uleb128 0x1c
 4329 0862 00000000 		.4byte	.LASF147
 4330 0866 01       		.byte	0x1
 4331 0867 0D01     		.2byte	0x10d
 4332 0869 F9070000 		.4byte	0x7f9
 4333 086d 02       		.uleb128 0x2
 4334 086e 91       		.byte	0x91
 4335 086f 7C       		.sleb128 -4
 4336 0870 00       		.byte	0
 4337 0871 1D       		.uleb128 0x1d
 4338 0872 35050000 		.4byte	.LASF150
 4339 0876 01       		.byte	0x1
 4340 0877 2F01     		.2byte	0x12f
 4341 0879 BA040000 		.4byte	0x4ba
 4342 087d A0020000 		.4byte	.LFB129
 4343 0881 42000000 		.4byte	.LFE129-.LFB129
 4344 0885 01       		.uleb128 0x1
 4345 0886 9C       		.byte	0x9c
 4346 0887 9B080000 		.4byte	0x89b
 4347 088b 1C       		.uleb128 0x1c
 4348 088c 00000000 		.4byte	.LASF147
 4349 0890 01       		.byte	0x1
 4350 0891 2F01     		.2byte	0x12f
 4351 0893 F9070000 		.4byte	0x7f9
 4352 0897 02       		.uleb128 0x2
 4353 0898 91       		.byte	0x91
 4354 0899 74       		.sleb128 -12
 4355 089a 00       		.byte	0
 4356 089b 1D       		.uleb128 0x1d
 4357 089c 0B080000 		.4byte	.LASF151
 4358 08a0 01       		.byte	0x1
 4359 08a1 3D01     		.2byte	0x13d
 4360 08a3 BA040000 		.4byte	0x4ba
 4361 08a7 F0020000 		.4byte	.LFB130
ARM GAS  /tmp/ccakcsKX.s 			page 78


 4362 08ab 4C000000 		.4byte	.LFE130-.LFB130
 4363 08af 01       		.uleb128 0x1
 4364 08b0 9C       		.byte	0x9c
 4365 08b1 C5080000 		.4byte	0x8c5
 4366 08b5 1C       		.uleb128 0x1c
 4367 08b6 00000000 		.4byte	.LASF147
 4368 08ba 01       		.byte	0x1
 4369 08bb 3D01     		.2byte	0x13d
 4370 08bd F9070000 		.4byte	0x7f9
 4371 08c1 02       		.uleb128 0x2
 4372 08c2 91       		.byte	0x91
 4373 08c3 74       		.sleb128 -12
 4374 08c4 00       		.byte	0
 4375 08c5 1E       		.uleb128 0x1e
 4376 08c6 33080000 		.4byte	.LASF152
 4377 08ca 01       		.byte	0x1
 4378 08cb 4C01     		.2byte	0x14c
 4379 08cd 40030000 		.4byte	.LFB131
 4380 08d1 56090000 		.4byte	.LFE131-.LFB131
 4381 08d5 01       		.uleb128 0x1
 4382 08d6 9C       		.byte	0x9c
 4383 08d7 71090000 		.4byte	0x971
 4384 08db 1C       		.uleb128 0x1c
 4385 08dc 00000000 		.4byte	.LASF147
 4386 08e0 01       		.byte	0x1
 4387 08e1 4C01     		.2byte	0x14c
 4388 08e3 F9070000 		.4byte	0x7f9
 4389 08e7 02       		.uleb128 0x2
 4390 08e8 91       		.byte	0x91
 4391 08e9 4C       		.sleb128 -52
 4392 08ea 1F       		.uleb128 0x1f
 4393 08eb 2E000000 		.4byte	.LASF154
 4394 08ef 01       		.byte	0x1
 4395 08f0 4E01     		.2byte	0x14e
 4396 08f2 71090000 		.4byte	0x971
 4397 08f6 02       		.uleb128 0x2
 4398 08f7 91       		.byte	0x91
 4399 08f8 68       		.sleb128 -24
 4400 08f9 1F       		.uleb128 0x1f
 4401 08fa 51090000 		.4byte	.LASF153
 4402 08fe 01       		.byte	0x1
 4403 08ff 4F01     		.2byte	0x14f
 4404 0901 B8000000 		.4byte	0xb8
 4405 0905 02       		.uleb128 0x2
 4406 0906 91       		.byte	0x91
 4407 0907 74       		.sleb128 -12
 4408 0908 1F       		.uleb128 0x1f
 4409 0909 8D070000 		.4byte	.LASF155
 4410 090d 01       		.byte	0x1
 4411 090e 4F01     		.2byte	0x14f
 4412 0910 B8000000 		.4byte	0xb8
 4413 0914 02       		.uleb128 0x2
 4414 0915 91       		.byte	0x91
 4415 0916 70       		.sleb128 -16
 4416 0917 1F       		.uleb128 0x1f
 4417 0918 C1040000 		.4byte	.LASF156
 4418 091c 01       		.byte	0x1
ARM GAS  /tmp/ccakcsKX.s 			page 79


 4419 091d 4F01     		.2byte	0x14f
 4420 091f B8000000 		.4byte	0xb8
 4421 0923 02       		.uleb128 0x2
 4422 0924 91       		.byte	0x91
 4423 0925 64       		.sleb128 -28
 4424 0926 1F       		.uleb128 0x1f
 4425 0927 C7040000 		.4byte	.LASF157
 4426 092b 01       		.byte	0x1
 4427 092c 4F01     		.2byte	0x14f
 4428 092e B8000000 		.4byte	0xb8
 4429 0932 02       		.uleb128 0x2
 4430 0933 91       		.byte	0x91
 4431 0934 6C       		.sleb128 -20
 4432 0935 1F       		.uleb128 0x1f
 4433 0936 260A0000 		.4byte	.LASF158
 4434 093a 01       		.byte	0x1
 4435 093b 5001     		.2byte	0x150
 4436 093d B8000000 		.4byte	0xb8
 4437 0941 02       		.uleb128 0x2
 4438 0942 91       		.byte	0x91
 4439 0943 60       		.sleb128 -32
 4440 0944 1F       		.uleb128 0x1f
 4441 0945 84040000 		.4byte	.LASF159
 4442 0949 01       		.byte	0x1
 4443 094a 5001     		.2byte	0x150
 4444 094c B8000000 		.4byte	0xb8
 4445 0950 02       		.uleb128 0x2
 4446 0951 91       		.byte	0x91
 4447 0952 5C       		.sleb128 -36
 4448 0953 20       		.uleb128 0x20
 4449 0954 657000   		.ascii	"ep\000"
 4450 0957 01       		.byte	0x1
 4451 0958 5101     		.2byte	0x151
 4452 095a 77090000 		.4byte	0x977
 4453 095e 02       		.uleb128 0x2
 4454 095f 91       		.byte	0x91
 4455 0960 58       		.sleb128 -40
 4456 0961 1F       		.uleb128 0x1f
 4457 0962 BE090000 		.4byte	.LASF160
 4458 0966 01       		.byte	0x1
 4459 0967 5201     		.2byte	0x152
 4460 0969 B8000000 		.4byte	0xb8
 4461 096d 02       		.uleb128 0x2
 4462 096e 91       		.byte	0x91
 4463 096f 54       		.sleb128 -44
 4464 0970 00       		.byte	0
 4465 0971 11       		.uleb128 0x11
 4466 0972 04       		.byte	0x4
 4467 0973 7B020000 		.4byte	0x27b
 4468 0977 11       		.uleb128 0x11
 4469 0978 04       		.byte	0x4
 4470 0979 4F060000 		.4byte	0x64f
 4471 097d 1B       		.uleb128 0x1b
 4472 097e 1E060000 		.4byte	.LASF161
 4473 0982 01       		.byte	0x1
 4474 0983 4203     		.2byte	0x342
 4475 0985 A00C0000 		.4byte	.LFB132
ARM GAS  /tmp/ccakcsKX.s 			page 80


 4476 0989 0E000000 		.4byte	.LFE132-.LFB132
 4477 098d 01       		.uleb128 0x1
 4478 098e 9C       		.byte	0x9c
 4479 098f B2090000 		.4byte	0x9b2
 4480 0993 1C       		.uleb128 0x1c
 4481 0994 00000000 		.4byte	.LASF147
 4482 0998 01       		.byte	0x1
 4483 0999 4203     		.2byte	0x342
 4484 099b F9070000 		.4byte	0x7f9
 4485 099f 02       		.uleb128 0x2
 4486 09a0 91       		.byte	0x91
 4487 09a1 7C       		.sleb128 -4
 4488 09a2 1C       		.uleb128 0x1c
 4489 09a3 C7040000 		.4byte	.LASF157
 4490 09a7 01       		.byte	0x1
 4491 09a8 4203     		.2byte	0x342
 4492 09aa 97000000 		.4byte	0x97
 4493 09ae 02       		.uleb128 0x2
 4494 09af 91       		.byte	0x91
 4495 09b0 7B       		.sleb128 -5
 4496 09b1 00       		.byte	0
 4497 09b2 1B       		.uleb128 0x1b
 4498 09b3 16010000 		.4byte	.LASF162
 4499 09b7 01       		.byte	0x1
 4500 09b8 5303     		.2byte	0x353
 4501 09ba B00C0000 		.4byte	.LFB133
 4502 09be 0E000000 		.4byte	.LFE133-.LFB133
 4503 09c2 01       		.uleb128 0x1
 4504 09c3 9C       		.byte	0x9c
 4505 09c4 E7090000 		.4byte	0x9e7
 4506 09c8 1C       		.uleb128 0x1c
 4507 09c9 00000000 		.4byte	.LASF147
 4508 09cd 01       		.byte	0x1
 4509 09ce 5303     		.2byte	0x353
 4510 09d0 F9070000 		.4byte	0x7f9
 4511 09d4 02       		.uleb128 0x2
 4512 09d5 91       		.byte	0x91
 4513 09d6 7C       		.sleb128 -4
 4514 09d7 1C       		.uleb128 0x1c
 4515 09d8 C7040000 		.4byte	.LASF157
 4516 09dc 01       		.byte	0x1
 4517 09dd 5303     		.2byte	0x353
 4518 09df 97000000 		.4byte	0x97
 4519 09e3 02       		.uleb128 0x2
 4520 09e4 91       		.byte	0x91
 4521 09e5 7B       		.sleb128 -5
 4522 09e6 00       		.byte	0
 4523 09e7 1B       		.uleb128 0x1b
 4524 09e8 1A050000 		.4byte	.LASF163
 4525 09ec 01       		.byte	0x1
 4526 09ed 6203     		.2byte	0x362
 4527 09ef C00C0000 		.4byte	.LFB134
 4528 09f3 08000000 		.4byte	.LFE134-.LFB134
 4529 09f7 01       		.uleb128 0x1
 4530 09f8 9C       		.byte	0x9c
 4531 09f9 0D0A0000 		.4byte	0xa0d
 4532 09fd 1C       		.uleb128 0x1c
ARM GAS  /tmp/ccakcsKX.s 			page 81


 4533 09fe 00000000 		.4byte	.LASF147
 4534 0a02 01       		.byte	0x1
 4535 0a03 6203     		.2byte	0x362
 4536 0a05 F9070000 		.4byte	0x7f9
 4537 0a09 02       		.uleb128 0x2
 4538 0a0a 91       		.byte	0x91
 4539 0a0b 7C       		.sleb128 -4
 4540 0a0c 00       		.byte	0
 4541 0a0d 1B       		.uleb128 0x1b
 4542 0a0e 5D080000 		.4byte	.LASF164
 4543 0a12 01       		.byte	0x1
 4544 0a13 7103     		.2byte	0x371
 4545 0a15 D00C0000 		.4byte	.LFB135
 4546 0a19 08000000 		.4byte	.LFE135-.LFB135
 4547 0a1d 01       		.uleb128 0x1
 4548 0a1e 9C       		.byte	0x9c
 4549 0a1f 330A0000 		.4byte	0xa33
 4550 0a23 1C       		.uleb128 0x1c
 4551 0a24 00000000 		.4byte	.LASF147
 4552 0a28 01       		.byte	0x1
 4553 0a29 7103     		.2byte	0x371
 4554 0a2b F9070000 		.4byte	0x7f9
 4555 0a2f 02       		.uleb128 0x2
 4556 0a30 91       		.byte	0x91
 4557 0a31 7C       		.sleb128 -4
 4558 0a32 00       		.byte	0
 4559 0a33 1B       		.uleb128 0x1b
 4560 0a34 6C060000 		.4byte	.LASF165
 4561 0a38 01       		.byte	0x1
 4562 0a39 8003     		.2byte	0x380
 4563 0a3b E00C0000 		.4byte	.LFB136
 4564 0a3f 08000000 		.4byte	.LFE136-.LFB136
 4565 0a43 01       		.uleb128 0x1
 4566 0a44 9C       		.byte	0x9c
 4567 0a45 590A0000 		.4byte	0xa59
 4568 0a49 1C       		.uleb128 0x1c
 4569 0a4a 00000000 		.4byte	.LASF147
 4570 0a4e 01       		.byte	0x1
 4571 0a4f 8003     		.2byte	0x380
 4572 0a51 F9070000 		.4byte	0x7f9
 4573 0a55 02       		.uleb128 0x2
 4574 0a56 91       		.byte	0x91
 4575 0a57 7C       		.sleb128 -4
 4576 0a58 00       		.byte	0
 4577 0a59 1B       		.uleb128 0x1b
 4578 0a5a 16090000 		.4byte	.LASF166
 4579 0a5e 01       		.byte	0x1
 4580 0a5f 8F03     		.2byte	0x38f
 4581 0a61 F00C0000 		.4byte	.LFB137
 4582 0a65 08000000 		.4byte	.LFE137-.LFB137
 4583 0a69 01       		.uleb128 0x1
 4584 0a6a 9C       		.byte	0x9c
 4585 0a6b 7F0A0000 		.4byte	0xa7f
 4586 0a6f 1C       		.uleb128 0x1c
 4587 0a70 00000000 		.4byte	.LASF147
 4588 0a74 01       		.byte	0x1
 4589 0a75 8F03     		.2byte	0x38f
ARM GAS  /tmp/ccakcsKX.s 			page 82


 4590 0a77 F9070000 		.4byte	0x7f9
 4591 0a7b 02       		.uleb128 0x2
 4592 0a7c 91       		.byte	0x91
 4593 0a7d 7C       		.sleb128 -4
 4594 0a7e 00       		.byte	0
 4595 0a7f 1B       		.uleb128 0x1b
 4596 0a80 36030000 		.4byte	.LASF167
 4597 0a84 01       		.byte	0x1
 4598 0a85 9E03     		.2byte	0x39e
 4599 0a87 000D0000 		.4byte	.LFB138
 4600 0a8b 08000000 		.4byte	.LFE138-.LFB138
 4601 0a8f 01       		.uleb128 0x1
 4602 0a90 9C       		.byte	0x9c
 4603 0a91 A50A0000 		.4byte	0xaa5
 4604 0a95 1C       		.uleb128 0x1c
 4605 0a96 00000000 		.4byte	.LASF147
 4606 0a9a 01       		.byte	0x1
 4607 0a9b 9E03     		.2byte	0x39e
 4608 0a9d F9070000 		.4byte	0x7f9
 4609 0aa1 02       		.uleb128 0x2
 4610 0aa2 91       		.byte	0x91
 4611 0aa3 7C       		.sleb128 -4
 4612 0aa4 00       		.byte	0
 4613 0aa5 1B       		.uleb128 0x1b
 4614 0aa6 7E0A0000 		.4byte	.LASF168
 4615 0aaa 01       		.byte	0x1
 4616 0aab AE03     		.2byte	0x3ae
 4617 0aad 100D0000 		.4byte	.LFB139
 4618 0ab1 0E000000 		.4byte	.LFE139-.LFB139
 4619 0ab5 01       		.uleb128 0x1
 4620 0ab6 9C       		.byte	0x9c
 4621 0ab7 DA0A0000 		.4byte	0xada
 4622 0abb 1C       		.uleb128 0x1c
 4623 0abc 00000000 		.4byte	.LASF147
 4624 0ac0 01       		.byte	0x1
 4625 0ac1 AE03     		.2byte	0x3ae
 4626 0ac3 F9070000 		.4byte	0x7f9
 4627 0ac7 02       		.uleb128 0x2
 4628 0ac8 91       		.byte	0x91
 4629 0ac9 7C       		.sleb128 -4
 4630 0aca 1C       		.uleb128 0x1c
 4631 0acb C7040000 		.4byte	.LASF157
 4632 0acf 01       		.byte	0x1
 4633 0ad0 AE03     		.2byte	0x3ae
 4634 0ad2 97000000 		.4byte	0x97
 4635 0ad6 02       		.uleb128 0x2
 4636 0ad7 91       		.byte	0x91
 4637 0ad8 7B       		.sleb128 -5
 4638 0ad9 00       		.byte	0
 4639 0ada 1B       		.uleb128 0x1b
 4640 0adb 3A070000 		.4byte	.LASF169
 4641 0adf 01       		.byte	0x1
 4642 0ae0 BF03     		.2byte	0x3bf
 4643 0ae2 200D0000 		.4byte	.LFB140
 4644 0ae6 0E000000 		.4byte	.LFE140-.LFB140
 4645 0aea 01       		.uleb128 0x1
 4646 0aeb 9C       		.byte	0x9c
ARM GAS  /tmp/ccakcsKX.s 			page 83


 4647 0aec 0F0B0000 		.4byte	0xb0f
 4648 0af0 1C       		.uleb128 0x1c
 4649 0af1 00000000 		.4byte	.LASF147
 4650 0af5 01       		.byte	0x1
 4651 0af6 BF03     		.2byte	0x3bf
 4652 0af8 F9070000 		.4byte	0x7f9
 4653 0afc 02       		.uleb128 0x2
 4654 0afd 91       		.byte	0x91
 4655 0afe 7C       		.sleb128 -4
 4656 0aff 1C       		.uleb128 0x1c
 4657 0b00 C7040000 		.4byte	.LASF157
 4658 0b04 01       		.byte	0x1
 4659 0b05 BF03     		.2byte	0x3bf
 4660 0b07 97000000 		.4byte	0x97
 4661 0b0b 02       		.uleb128 0x2
 4662 0b0c 91       		.byte	0x91
 4663 0b0d 7B       		.sleb128 -5
 4664 0b0e 00       		.byte	0
 4665 0b0f 1B       		.uleb128 0x1b
 4666 0b10 38040000 		.4byte	.LASF170
 4667 0b14 01       		.byte	0x1
 4668 0b15 CF03     		.2byte	0x3cf
 4669 0b17 300D0000 		.4byte	.LFB141
 4670 0b1b 08000000 		.4byte	.LFE141-.LFB141
 4671 0b1f 01       		.uleb128 0x1
 4672 0b20 9C       		.byte	0x9c
 4673 0b21 350B0000 		.4byte	0xb35
 4674 0b25 1C       		.uleb128 0x1c
 4675 0b26 00000000 		.4byte	.LASF147
 4676 0b2a 01       		.byte	0x1
 4677 0b2b CF03     		.2byte	0x3cf
 4678 0b2d F9070000 		.4byte	0x7f9
 4679 0b31 02       		.uleb128 0x2
 4680 0b32 91       		.byte	0x91
 4681 0b33 7C       		.sleb128 -4
 4682 0b34 00       		.byte	0
 4683 0b35 1B       		.uleb128 0x1b
 4684 0b36 440A0000 		.4byte	.LASF171
 4685 0b3a 01       		.byte	0x1
 4686 0b3b DE03     		.2byte	0x3de
 4687 0b3d 400D0000 		.4byte	.LFB142
 4688 0b41 08000000 		.4byte	.LFE142-.LFB142
 4689 0b45 01       		.uleb128 0x1
 4690 0b46 9C       		.byte	0x9c
 4691 0b47 5B0B0000 		.4byte	0xb5b
 4692 0b4b 1C       		.uleb128 0x1c
 4693 0b4c 00000000 		.4byte	.LASF147
 4694 0b50 01       		.byte	0x1
 4695 0b51 DE03     		.2byte	0x3de
 4696 0b53 F9070000 		.4byte	0x7f9
 4697 0b57 02       		.uleb128 0x2
 4698 0b58 91       		.byte	0x91
 4699 0b59 7C       		.sleb128 -4
 4700 0b5a 00       		.byte	0
 4701 0b5b 1D       		.uleb128 0x1d
 4702 0b5c A7050000 		.4byte	.LASF172
 4703 0b60 01       		.byte	0x1
ARM GAS  /tmp/ccakcsKX.s 			page 84


 4704 0b61 0004     		.2byte	0x400
 4705 0b63 BA040000 		.4byte	0x4ba
 4706 0b67 500D0000 		.4byte	.LFB143
 4707 0b6b 38000000 		.4byte	.LFE143-.LFB143
 4708 0b6f 01       		.uleb128 0x1
 4709 0b70 9C       		.byte	0x9c
 4710 0b71 850B0000 		.4byte	0xb85
 4711 0b75 1C       		.uleb128 0x1c
 4712 0b76 00000000 		.4byte	.LASF147
 4713 0b7a 01       		.byte	0x1
 4714 0b7b 0004     		.2byte	0x400
 4715 0b7d F9070000 		.4byte	0x7f9
 4716 0b81 02       		.uleb128 0x2
 4717 0b82 91       		.byte	0x91
 4718 0b83 74       		.sleb128 -12
 4719 0b84 00       		.byte	0
 4720 0b85 1D       		.uleb128 0x1d
 4721 0b86 72070000 		.4byte	.LASF173
 4722 0b8a 01       		.byte	0x1
 4723 0b8b 0D04     		.2byte	0x40d
 4724 0b8d BA040000 		.4byte	0x4ba
 4725 0b91 900D0000 		.4byte	.LFB144
 4726 0b95 38000000 		.4byte	.LFE144-.LFB144
 4727 0b99 01       		.uleb128 0x1
 4728 0b9a 9C       		.byte	0x9c
 4729 0b9b AF0B0000 		.4byte	0xbaf
 4730 0b9f 1C       		.uleb128 0x1c
 4731 0ba0 00000000 		.4byte	.LASF147
 4732 0ba4 01       		.byte	0x1
 4733 0ba5 0D04     		.2byte	0x40d
 4734 0ba7 F9070000 		.4byte	0x7f9
 4735 0bab 02       		.uleb128 0x2
 4736 0bac 91       		.byte	0x91
 4737 0bad 74       		.sleb128 -12
 4738 0bae 00       		.byte	0
 4739 0baf 1D       		.uleb128 0x1d
 4740 0bb0 CF020000 		.4byte	.LASF174
 4741 0bb4 01       		.byte	0x1
 4742 0bb5 1B04     		.2byte	0x41b
 4743 0bb7 BA040000 		.4byte	0x4ba
 4744 0bbb D00D0000 		.4byte	.LFB145
 4745 0bbf 4E000000 		.4byte	.LFE145-.LFB145
 4746 0bc3 01       		.uleb128 0x1
 4747 0bc4 9C       		.byte	0x9c
 4748 0bc5 E80B0000 		.4byte	0xbe8
 4749 0bc9 1C       		.uleb128 0x1c
 4750 0bca 00000000 		.4byte	.LASF147
 4751 0bce 01       		.byte	0x1
 4752 0bcf 1B04     		.2byte	0x41b
 4753 0bd1 F9070000 		.4byte	0x7f9
 4754 0bd5 02       		.uleb128 0x2
 4755 0bd6 91       		.byte	0x91
 4756 0bd7 74       		.sleb128 -12
 4757 0bd8 1C       		.uleb128 0x1c
 4758 0bd9 CE060000 		.4byte	.LASF175
 4759 0bdd 01       		.byte	0x1
 4760 0bde 1B04     		.2byte	0x41b
ARM GAS  /tmp/ccakcsKX.s 			page 85


 4761 0be0 97000000 		.4byte	0x97
 4762 0be4 02       		.uleb128 0x2
 4763 0be5 91       		.byte	0x91
 4764 0be6 73       		.sleb128 -13
 4765 0be7 00       		.byte	0
 4766 0be8 1D       		.uleb128 0x1d
 4767 0be9 F3070000 		.4byte	.LASF176
 4768 0bed 01       		.byte	0x1
 4769 0bee 2B04     		.2byte	0x42b
 4770 0bf0 BA040000 		.4byte	0x4ba
 4771 0bf4 200E0000 		.4byte	.LFB146
 4772 0bf8 BE000000 		.4byte	.LFE146-.LFB146
 4773 0bfc 01       		.uleb128 0x1
 4774 0bfd 9C       		.byte	0x9c
 4775 0bfe 5C0C0000 		.4byte	0xc5c
 4776 0c02 1C       		.uleb128 0x1c
 4777 0c03 00000000 		.4byte	.LASF147
 4778 0c07 01       		.byte	0x1
 4779 0c08 2B04     		.2byte	0x42b
 4780 0c0a F9070000 		.4byte	0x7f9
 4781 0c0e 02       		.uleb128 0x2
 4782 0c0f 91       		.byte	0x91
 4783 0c10 6C       		.sleb128 -20
 4784 0c11 1C       		.uleb128 0x1c
 4785 0c12 5A020000 		.4byte	.LASF177
 4786 0c16 01       		.byte	0x1
 4787 0c17 2B04     		.2byte	0x42b
 4788 0c19 97000000 		.4byte	0x97
 4789 0c1d 02       		.uleb128 0x2
 4790 0c1e 91       		.byte	0x91
 4791 0c1f 6B       		.sleb128 -21
 4792 0c20 1C       		.uleb128 0x1c
 4793 0c21 6E030000 		.4byte	.LASF178
 4794 0c25 01       		.byte	0x1
 4795 0c26 2B04     		.2byte	0x42b
 4796 0c28 A2000000 		.4byte	0xa2
 4797 0c2c 02       		.uleb128 0x2
 4798 0c2d 91       		.byte	0x91
 4799 0c2e 68       		.sleb128 -24
 4800 0c2f 1C       		.uleb128 0x1c
 4801 0c30 F6090000 		.4byte	.LASF179
 4802 0c34 01       		.byte	0x1
 4803 0c35 2B04     		.2byte	0x42b
 4804 0c37 97000000 		.4byte	0x97
 4805 0c3b 02       		.uleb128 0x2
 4806 0c3c 91       		.byte	0x91
 4807 0c3d 6A       		.sleb128 -22
 4808 0c3e 20       		.uleb128 0x20
 4809 0c3f 72657400 		.ascii	"ret\000"
 4810 0c43 01       		.byte	0x1
 4811 0c44 2D04     		.2byte	0x42d
 4812 0c46 BA040000 		.4byte	0x4ba
 4813 0c4a 02       		.uleb128 0x2
 4814 0c4b 91       		.byte	0x91
 4815 0c4c 73       		.sleb128 -13
 4816 0c4d 20       		.uleb128 0x20
 4817 0c4e 657000   		.ascii	"ep\000"
ARM GAS  /tmp/ccakcsKX.s 			page 86


 4818 0c51 01       		.byte	0x1
 4819 0c52 2E04     		.2byte	0x42e
 4820 0c54 5C0C0000 		.4byte	0xc5c
 4821 0c58 02       		.uleb128 0x2
 4822 0c59 91       		.byte	0x91
 4823 0c5a 74       		.sleb128 -12
 4824 0c5b 00       		.byte	0
 4825 0c5c 11       		.uleb128 0x11
 4826 0c5d 04       		.byte	0x4
 4827 0c5e CE060000 		.4byte	0x6ce
 4828 0c62 1D       		.uleb128 0x1d
 4829 0c63 EF020000 		.4byte	.LASF180
 4830 0c67 01       		.byte	0x1
 4831 0c68 4C04     		.2byte	0x44c
 4832 0c6a BA040000 		.4byte	0x4ba
 4833 0c6e E00E0000 		.4byte	.LFB147
 4834 0c72 A0000000 		.4byte	.LFE147-.LFB147
 4835 0c76 01       		.uleb128 0x1
 4836 0c77 9C       		.byte	0x9c
 4837 0c78 A90C0000 		.4byte	0xca9
 4838 0c7c 1C       		.uleb128 0x1c
 4839 0c7d 00000000 		.4byte	.LASF147
 4840 0c81 01       		.byte	0x1
 4841 0c82 4C04     		.2byte	0x44c
 4842 0c84 F9070000 		.4byte	0x7f9
 4843 0c88 02       		.uleb128 0x2
 4844 0c89 91       		.byte	0x91
 4845 0c8a 6C       		.sleb128 -20
 4846 0c8b 1C       		.uleb128 0x1c
 4847 0c8c 5A020000 		.4byte	.LASF177
 4848 0c90 01       		.byte	0x1
 4849 0c91 4C04     		.2byte	0x44c
 4850 0c93 97000000 		.4byte	0x97
 4851 0c97 02       		.uleb128 0x2
 4852 0c98 91       		.byte	0x91
 4853 0c99 6B       		.sleb128 -21
 4854 0c9a 20       		.uleb128 0x20
 4855 0c9b 657000   		.ascii	"ep\000"
 4856 0c9e 01       		.byte	0x1
 4857 0c9f 4E04     		.2byte	0x44e
 4858 0ca1 5C0C0000 		.4byte	0xc5c
 4859 0ca5 02       		.uleb128 0x2
 4860 0ca6 91       		.byte	0x91
 4861 0ca7 74       		.sleb128 -12
 4862 0ca8 00       		.byte	0
 4863 0ca9 1D       		.uleb128 0x1d
 4864 0caa 7C080000 		.4byte	.LASF181
 4865 0cae 01       		.byte	0x1
 4866 0caf 6B04     		.2byte	0x46b
 4867 0cb1 BA040000 		.4byte	0x4ba
 4868 0cb5 800F0000 		.4byte	.LFB148
 4869 0cb9 B2000000 		.4byte	.LFE148-.LFB148
 4870 0cbd 01       		.uleb128 0x1
 4871 0cbe 9C       		.byte	0x9c
 4872 0cbf 0E0D0000 		.4byte	0xd0e
 4873 0cc3 1C       		.uleb128 0x1c
 4874 0cc4 00000000 		.4byte	.LASF147
ARM GAS  /tmp/ccakcsKX.s 			page 87


 4875 0cc8 01       		.byte	0x1
 4876 0cc9 6B04     		.2byte	0x46b
 4877 0ccb F9070000 		.4byte	0x7f9
 4878 0ccf 02       		.uleb128 0x2
 4879 0cd0 91       		.byte	0x91
 4880 0cd1 6C       		.sleb128 -20
 4881 0cd2 1C       		.uleb128 0x1c
 4882 0cd3 5A020000 		.4byte	.LASF177
 4883 0cd7 01       		.byte	0x1
 4884 0cd8 6B04     		.2byte	0x46b
 4885 0cda 97000000 		.4byte	0x97
 4886 0cde 02       		.uleb128 0x2
 4887 0cdf 91       		.byte	0x91
 4888 0ce0 6B       		.sleb128 -21
 4889 0ce1 1C       		.uleb128 0x1c
 4890 0ce2 F1090000 		.4byte	.LASF182
 4891 0ce6 01       		.byte	0x1
 4892 0ce7 6B04     		.2byte	0x46b
 4893 0ce9 E5040000 		.4byte	0x4e5
 4894 0ced 02       		.uleb128 0x2
 4895 0cee 91       		.byte	0x91
 4896 0cef 64       		.sleb128 -28
 4897 0cf0 21       		.uleb128 0x21
 4898 0cf1 6C656E00 		.ascii	"len\000"
 4899 0cf5 01       		.byte	0x1
 4900 0cf6 6B04     		.2byte	0x46b
 4901 0cf8 B8000000 		.4byte	0xb8
 4902 0cfc 02       		.uleb128 0x2
 4903 0cfd 91       		.byte	0x91
 4904 0cfe 60       		.sleb128 -32
 4905 0cff 20       		.uleb128 0x20
 4906 0d00 657000   		.ascii	"ep\000"
 4907 0d03 01       		.byte	0x1
 4908 0d04 6D04     		.2byte	0x46d
 4909 0d06 5C0C0000 		.4byte	0xc5c
 4910 0d0a 02       		.uleb128 0x2
 4911 0d0b 91       		.byte	0x91
 4912 0d0c 74       		.sleb128 -12
 4913 0d0d 00       		.byte	0
 4914 0d0e 22       		.uleb128 0x22
 4915 0d0f 91040000 		.4byte	.LASF183
 4916 0d13 01       		.byte	0x1
 4917 0d14 8D04     		.2byte	0x48d
 4918 0d16 A2000000 		.4byte	0xa2
 4919 0d1a 40100000 		.4byte	.LFB149
 4920 0d1e 2C000000 		.4byte	.LFE149-.LFB149
 4921 0d22 01       		.uleb128 0x1
 4922 0d23 9C       		.byte	0x9c
 4923 0d24 470D0000 		.4byte	0xd47
 4924 0d28 1C       		.uleb128 0x1c
 4925 0d29 00000000 		.4byte	.LASF147
 4926 0d2d 01       		.byte	0x1
 4927 0d2e 8D04     		.2byte	0x48d
 4928 0d30 F9070000 		.4byte	0x7f9
 4929 0d34 02       		.uleb128 0x2
 4930 0d35 91       		.byte	0x91
 4931 0d36 7C       		.sleb128 -4
ARM GAS  /tmp/ccakcsKX.s 			page 88


 4932 0d37 1C       		.uleb128 0x1c
 4933 0d38 5A020000 		.4byte	.LASF177
 4934 0d3c 01       		.byte	0x1
 4935 0d3d 8D04     		.2byte	0x48d
 4936 0d3f 97000000 		.4byte	0x97
 4937 0d43 02       		.uleb128 0x2
 4938 0d44 91       		.byte	0x91
 4939 0d45 7B       		.sleb128 -5
 4940 0d46 00       		.byte	0
 4941 0d47 1D       		.uleb128 0x1d
 4942 0d48 1C030000 		.4byte	.LASF184
 4943 0d4c 01       		.byte	0x1
 4944 0d4d 9904     		.2byte	0x499
 4945 0d4f BA040000 		.4byte	0x4ba
 4946 0d53 70100000 		.4byte	.LFB150
 4947 0d57 B2000000 		.4byte	.LFE150-.LFB150
 4948 0d5b 01       		.uleb128 0x1
 4949 0d5c 9C       		.byte	0x9c
 4950 0d5d AC0D0000 		.4byte	0xdac
 4951 0d61 1C       		.uleb128 0x1c
 4952 0d62 00000000 		.4byte	.LASF147
 4953 0d66 01       		.byte	0x1
 4954 0d67 9904     		.2byte	0x499
 4955 0d69 F9070000 		.4byte	0x7f9
 4956 0d6d 02       		.uleb128 0x2
 4957 0d6e 91       		.byte	0x91
 4958 0d6f 6C       		.sleb128 -20
 4959 0d70 1C       		.uleb128 0x1c
 4960 0d71 5A020000 		.4byte	.LASF177
 4961 0d75 01       		.byte	0x1
 4962 0d76 9904     		.2byte	0x499
 4963 0d78 97000000 		.4byte	0x97
 4964 0d7c 02       		.uleb128 0x2
 4965 0d7d 91       		.byte	0x91
 4966 0d7e 6B       		.sleb128 -21
 4967 0d7f 1C       		.uleb128 0x1c
 4968 0d80 F1090000 		.4byte	.LASF182
 4969 0d84 01       		.byte	0x1
 4970 0d85 9904     		.2byte	0x499
 4971 0d87 E5040000 		.4byte	0x4e5
 4972 0d8b 02       		.uleb128 0x2
 4973 0d8c 91       		.byte	0x91
 4974 0d8d 64       		.sleb128 -28
 4975 0d8e 21       		.uleb128 0x21
 4976 0d8f 6C656E00 		.ascii	"len\000"
 4977 0d93 01       		.byte	0x1
 4978 0d94 9904     		.2byte	0x499
 4979 0d96 B8000000 		.4byte	0xb8
 4980 0d9a 02       		.uleb128 0x2
 4981 0d9b 91       		.byte	0x91
 4982 0d9c 60       		.sleb128 -32
 4983 0d9d 20       		.uleb128 0x20
 4984 0d9e 657000   		.ascii	"ep\000"
 4985 0da1 01       		.byte	0x1
 4986 0da2 9B04     		.2byte	0x49b
 4987 0da4 5C0C0000 		.4byte	0xc5c
 4988 0da8 02       		.uleb128 0x2
ARM GAS  /tmp/ccakcsKX.s 			page 89


 4989 0da9 91       		.byte	0x91
 4990 0daa 74       		.sleb128 -12
 4991 0dab 00       		.byte	0
 4992 0dac 1D       		.uleb128 0x1d
 4993 0dad D4090000 		.4byte	.LASF185
 4994 0db1 01       		.byte	0x1
 4995 0db2 BC04     		.2byte	0x4bc
 4996 0db4 BA040000 		.4byte	0x4ba
 4997 0db8 30110000 		.4byte	.LFB151
 4998 0dbc C8000000 		.4byte	.LFE151-.LFB151
 4999 0dc0 01       		.uleb128 0x1
 5000 0dc1 9C       		.byte	0x9c
 5001 0dc2 F30D0000 		.4byte	0xdf3
 5002 0dc6 1C       		.uleb128 0x1c
 5003 0dc7 00000000 		.4byte	.LASF147
 5004 0dcb 01       		.byte	0x1
 5005 0dcc BC04     		.2byte	0x4bc
 5006 0dce F9070000 		.4byte	0x7f9
 5007 0dd2 02       		.uleb128 0x2
 5008 0dd3 91       		.byte	0x91
 5009 0dd4 6C       		.sleb128 -20
 5010 0dd5 1C       		.uleb128 0x1c
 5011 0dd6 5A020000 		.4byte	.LASF177
 5012 0dda 01       		.byte	0x1
 5013 0ddb BC04     		.2byte	0x4bc
 5014 0ddd 97000000 		.4byte	0x97
 5015 0de1 02       		.uleb128 0x2
 5016 0de2 91       		.byte	0x91
 5017 0de3 6B       		.sleb128 -21
 5018 0de4 20       		.uleb128 0x20
 5019 0de5 657000   		.ascii	"ep\000"
 5020 0de8 01       		.byte	0x1
 5021 0de9 BE04     		.2byte	0x4be
 5022 0deb 5C0C0000 		.4byte	0xc5c
 5023 0def 02       		.uleb128 0x2
 5024 0df0 91       		.byte	0x91
 5025 0df1 74       		.sleb128 -12
 5026 0df2 00       		.byte	0
 5027 0df3 1D       		.uleb128 0x1d
 5028 0df4 02060000 		.4byte	.LASF186
 5029 0df8 01       		.byte	0x1
 5030 0df9 DE04     		.2byte	0x4de
 5031 0dfb BA040000 		.4byte	0x4ba
 5032 0dff 00120000 		.4byte	.LFB152
 5033 0e03 A2000000 		.4byte	.LFE152-.LFB152
 5034 0e07 01       		.uleb128 0x1
 5035 0e08 9C       		.byte	0x9c
 5036 0e09 3A0E0000 		.4byte	0xe3a
 5037 0e0d 1C       		.uleb128 0x1c
 5038 0e0e 00000000 		.4byte	.LASF147
 5039 0e12 01       		.byte	0x1
 5040 0e13 DE04     		.2byte	0x4de
 5041 0e15 F9070000 		.4byte	0x7f9
 5042 0e19 02       		.uleb128 0x2
 5043 0e1a 91       		.byte	0x91
 5044 0e1b 6C       		.sleb128 -20
 5045 0e1c 1C       		.uleb128 0x1c
ARM GAS  /tmp/ccakcsKX.s 			page 90


 5046 0e1d 5A020000 		.4byte	.LASF177
 5047 0e21 01       		.byte	0x1
 5048 0e22 DE04     		.2byte	0x4de
 5049 0e24 97000000 		.4byte	0x97
 5050 0e28 02       		.uleb128 0x2
 5051 0e29 91       		.byte	0x91
 5052 0e2a 6B       		.sleb128 -21
 5053 0e2b 20       		.uleb128 0x20
 5054 0e2c 657000   		.ascii	"ep\000"
 5055 0e2f 01       		.byte	0x1
 5056 0e30 E004     		.2byte	0x4e0
 5057 0e32 5C0C0000 		.4byte	0xc5c
 5058 0e36 02       		.uleb128 0x2
 5059 0e37 91       		.byte	0x91
 5060 0e38 74       		.sleb128 -12
 5061 0e39 00       		.byte	0
 5062 0e3a 1D       		.uleb128 0x1d
 5063 0e3b 330A0000 		.4byte	.LASF187
 5064 0e3f 01       		.byte	0x1
 5065 0e40 FC04     		.2byte	0x4fc
 5066 0e42 BA040000 		.4byte	0x4ba
 5067 0e46 B0120000 		.4byte	.LFB153
 5068 0e4a 5E000000 		.4byte	.LFE153-.LFB153
 5069 0e4e 01       		.uleb128 0x1
 5070 0e4f 9C       		.byte	0x9c
 5071 0e50 730E0000 		.4byte	0xe73
 5072 0e54 1C       		.uleb128 0x1c
 5073 0e55 00000000 		.4byte	.LASF147
 5074 0e59 01       		.byte	0x1
 5075 0e5a FC04     		.2byte	0x4fc
 5076 0e5c F9070000 		.4byte	0x7f9
 5077 0e60 02       		.uleb128 0x2
 5078 0e61 91       		.byte	0x91
 5079 0e62 74       		.sleb128 -12
 5080 0e63 1C       		.uleb128 0x1c
 5081 0e64 5A020000 		.4byte	.LASF177
 5082 0e68 01       		.byte	0x1
 5083 0e69 FC04     		.2byte	0x4fc
 5084 0e6b 97000000 		.4byte	0x97
 5085 0e6f 02       		.uleb128 0x2
 5086 0e70 91       		.byte	0x91
 5087 0e71 73       		.sleb128 -13
 5088 0e72 00       		.byte	0
 5089 0e73 1D       		.uleb128 0x1d
 5090 0e74 80030000 		.4byte	.LASF188
 5091 0e78 01       		.byte	0x1
 5092 0e79 1305     		.2byte	0x513
 5093 0e7b BA040000 		.4byte	0x4ba
 5094 0e7f 10130000 		.4byte	.LFB154
 5095 0e83 1A000000 		.4byte	.LFE154-.LFB154
 5096 0e87 01       		.uleb128 0x1
 5097 0e88 9C       		.byte	0x9c
 5098 0e89 9D0E0000 		.4byte	0xe9d
 5099 0e8d 1C       		.uleb128 0x1c
 5100 0e8e 00000000 		.4byte	.LASF147
 5101 0e92 01       		.byte	0x1
 5102 0e93 1305     		.2byte	0x513
ARM GAS  /tmp/ccakcsKX.s 			page 91


 5103 0e95 F9070000 		.4byte	0x7f9
 5104 0e99 02       		.uleb128 0x2
 5105 0e9a 91       		.byte	0x91
 5106 0e9b 74       		.sleb128 -12
 5107 0e9c 00       		.byte	0
 5108 0e9d 1D       		.uleb128 0x1d
 5109 0e9e 72020000 		.4byte	.LASF189
 5110 0ea2 01       		.byte	0x1
 5111 0ea3 1D05     		.2byte	0x51d
 5112 0ea5 BA040000 		.4byte	0x4ba
 5113 0ea9 30130000 		.4byte	.LFB155
 5114 0ead 1A000000 		.4byte	.LFE155-.LFB155
 5115 0eb1 01       		.uleb128 0x1
 5116 0eb2 9C       		.byte	0x9c
 5117 0eb3 C70E0000 		.4byte	0xec7
 5118 0eb7 1C       		.uleb128 0x1c
 5119 0eb8 00000000 		.4byte	.LASF147
 5120 0ebc 01       		.byte	0x1
 5121 0ebd 1D05     		.2byte	0x51d
 5122 0ebf F9070000 		.4byte	0x7f9
 5123 0ec3 02       		.uleb128 0x2
 5124 0ec4 91       		.byte	0x91
 5125 0ec5 74       		.sleb128 -12
 5126 0ec6 00       		.byte	0
 5127 0ec7 22       		.uleb128 0x22
 5128 0ec8 8F080000 		.4byte	.LASF190
 5129 0ecc 01       		.byte	0x1
 5130 0ecd 3905     		.2byte	0x539
 5131 0ecf 81060000 		.4byte	0x681
 5132 0ed3 50130000 		.4byte	.LFB156
 5133 0ed7 12000000 		.4byte	.LFE156-.LFB156
 5134 0edb 01       		.uleb128 0x1
 5135 0edc 9C       		.byte	0x9c
 5136 0edd F10E0000 		.4byte	0xef1
 5137 0ee1 1C       		.uleb128 0x1c
 5138 0ee2 00000000 		.4byte	.LASF147
 5139 0ee6 01       		.byte	0x1
 5140 0ee7 3905     		.2byte	0x539
 5141 0ee9 F9070000 		.4byte	0x7f9
 5142 0eed 02       		.uleb128 0x2
 5143 0eee 91       		.byte	0x91
 5144 0eef 7C       		.sleb128 -4
 5145 0ef0 00       		.byte	0
 5146 0ef1 23       		.uleb128 0x23
 5147 0ef2 88060000 		.4byte	.LASF195
 5148 0ef6 01       		.byte	0x1
 5149 0ef7 5005     		.2byte	0x550
 5150 0ef9 BA040000 		.4byte	0x4ba
 5151 0efd 70130000 		.4byte	.LFB157
 5152 0f01 14010000 		.4byte	.LFE157-.LFB157
 5153 0f05 01       		.uleb128 0x1
 5154 0f06 9C       		.byte	0x9c
 5155 0f07 740F0000 		.4byte	0xf74
 5156 0f0b 1C       		.uleb128 0x1c
 5157 0f0c 00000000 		.4byte	.LASF147
 5158 0f10 01       		.byte	0x1
 5159 0f11 5005     		.2byte	0x550
ARM GAS  /tmp/ccakcsKX.s 			page 92


 5160 0f13 F9070000 		.4byte	0x7f9
 5161 0f17 02       		.uleb128 0x2
 5162 0f18 91       		.byte	0x91
 5163 0f19 5C       		.sleb128 -36
 5164 0f1a 1C       		.uleb128 0x1c
 5165 0f1b C7040000 		.4byte	.LASF157
 5166 0f1f 01       		.byte	0x1
 5167 0f20 5005     		.2byte	0x550
 5168 0f22 B8000000 		.4byte	0xb8
 5169 0f26 02       		.uleb128 0x2
 5170 0f27 91       		.byte	0x91
 5171 0f28 58       		.sleb128 -40
 5172 0f29 1F       		.uleb128 0x1f
 5173 0f2a 2E000000 		.4byte	.LASF154
 5174 0f2e 01       		.byte	0x1
 5175 0f2f 5205     		.2byte	0x552
 5176 0f31 71090000 		.4byte	0x971
 5177 0f35 02       		.uleb128 0x2
 5178 0f36 91       		.byte	0x91
 5179 0f37 6C       		.sleb128 -20
 5180 0f38 20       		.uleb128 0x20
 5181 0f39 657000   		.ascii	"ep\000"
 5182 0f3c 01       		.byte	0x1
 5183 0f3d 5305     		.2byte	0x553
 5184 0f3f 77090000 		.4byte	0x977
 5185 0f43 02       		.uleb128 0x2
 5186 0f44 91       		.byte	0x91
 5187 0f45 68       		.sleb128 -24
 5188 0f46 20       		.uleb128 0x20
 5189 0f47 6C656E00 		.ascii	"len\000"
 5190 0f4b 01       		.byte	0x1
 5191 0f4c 5405     		.2byte	0x554
 5192 0f4e AD000000 		.4byte	0xad
 5193 0f52 02       		.uleb128 0x2
 5194 0f53 91       		.byte	0x91
 5195 0f54 74       		.sleb128 -12
 5196 0f55 1F       		.uleb128 0x1f
 5197 0f56 CD040000 		.4byte	.LASF191
 5198 0f5a 01       		.byte	0x1
 5199 0f5b 5505     		.2byte	0x555
 5200 0f5d B8000000 		.4byte	0xb8
 5201 0f61 02       		.uleb128 0x2
 5202 0f62 91       		.byte	0x91
 5203 0f63 70       		.sleb128 -16
 5204 0f64 1F       		.uleb128 0x1f
 5205 0f65 260A0000 		.4byte	.LASF158
 5206 0f69 01       		.byte	0x1
 5207 0f6a 5605     		.2byte	0x556
 5208 0f6c B8000000 		.4byte	0xb8
 5209 0f70 02       		.uleb128 0x2
 5210 0f71 91       		.byte	0x91
 5211 0f72 64       		.sleb128 -28
 5212 0f73 00       		.byte	0
 5213 0f74 24       		.uleb128 0x24
 5214 0f75 96020000 		.4byte	.LASF196
 5215 0f79 09       		.byte	0x9
 5216 0f7a FA06     		.2byte	0x6fa
ARM GAS  /tmp/ccakcsKX.s 			page 93


 5217 0f7c 800F0000 		.4byte	0xf80
 5218 0f80 05       		.uleb128 0x5
 5219 0f81 AD000000 		.4byte	0xad
 5220 0f85 00       		.byte	0
 5221              		.section	.debug_abbrev,"",%progbits
 5222              	.Ldebug_abbrev0:
 5223 0000 01       		.uleb128 0x1
 5224 0001 11       		.uleb128 0x11
 5225 0002 01       		.byte	0x1
 5226 0003 25       		.uleb128 0x25
 5227 0004 0E       		.uleb128 0xe
 5228 0005 13       		.uleb128 0x13
 5229 0006 0B       		.uleb128 0xb
 5230 0007 03       		.uleb128 0x3
 5231 0008 0E       		.uleb128 0xe
 5232 0009 1B       		.uleb128 0x1b
 5233 000a 0E       		.uleb128 0xe
 5234 000b 11       		.uleb128 0x11
 5235 000c 01       		.uleb128 0x1
 5236 000d 12       		.uleb128 0x12
 5237 000e 06       		.uleb128 0x6
 5238 000f 10       		.uleb128 0x10
 5239 0010 17       		.uleb128 0x17
 5240 0011 00       		.byte	0
 5241 0012 00       		.byte	0
 5242 0013 02       		.uleb128 0x2
 5243 0014 24       		.uleb128 0x24
 5244 0015 00       		.byte	0
 5245 0016 0B       		.uleb128 0xb
 5246 0017 0B       		.uleb128 0xb
 5247 0018 3E       		.uleb128 0x3e
 5248 0019 0B       		.uleb128 0xb
 5249 001a 03       		.uleb128 0x3
 5250 001b 0E       		.uleb128 0xe
 5251 001c 00       		.byte	0
 5252 001d 00       		.byte	0
 5253 001e 03       		.uleb128 0x3
 5254 001f 16       		.uleb128 0x16
 5255 0020 00       		.byte	0
 5256 0021 03       		.uleb128 0x3
 5257 0022 0E       		.uleb128 0xe
 5258 0023 3A       		.uleb128 0x3a
 5259 0024 0B       		.uleb128 0xb
 5260 0025 3B       		.uleb128 0x3b
 5261 0026 0B       		.uleb128 0xb
 5262 0027 49       		.uleb128 0x49
 5263 0028 13       		.uleb128 0x13
 5264 0029 00       		.byte	0
 5265 002a 00       		.byte	0
 5266 002b 04       		.uleb128 0x4
 5267 002c 24       		.uleb128 0x24
 5268 002d 00       		.byte	0
 5269 002e 0B       		.uleb128 0xb
 5270 002f 0B       		.uleb128 0xb
 5271 0030 3E       		.uleb128 0x3e
 5272 0031 0B       		.uleb128 0xb
 5273 0032 03       		.uleb128 0x3
ARM GAS  /tmp/ccakcsKX.s 			page 94


 5274 0033 08       		.uleb128 0x8
 5275 0034 00       		.byte	0
 5276 0035 00       		.byte	0
 5277 0036 05       		.uleb128 0x5
 5278 0037 35       		.uleb128 0x35
 5279 0038 00       		.byte	0
 5280 0039 49       		.uleb128 0x49
 5281 003a 13       		.uleb128 0x13
 5282 003b 00       		.byte	0
 5283 003c 00       		.byte	0
 5284 003d 06       		.uleb128 0x6
 5285 003e 01       		.uleb128 0x1
 5286 003f 01       		.byte	0x1
 5287 0040 49       		.uleb128 0x49
 5288 0041 13       		.uleb128 0x13
 5289 0042 01       		.uleb128 0x1
 5290 0043 13       		.uleb128 0x13
 5291 0044 00       		.byte	0
 5292 0045 00       		.byte	0
 5293 0046 07       		.uleb128 0x7
 5294 0047 21       		.uleb128 0x21
 5295 0048 00       		.byte	0
 5296 0049 49       		.uleb128 0x49
 5297 004a 13       		.uleb128 0x13
 5298 004b 2F       		.uleb128 0x2f
 5299 004c 0B       		.uleb128 0xb
 5300 004d 00       		.byte	0
 5301 004e 00       		.byte	0
 5302 004f 08       		.uleb128 0x8
 5303 0050 13       		.uleb128 0x13
 5304 0051 01       		.byte	0x1
 5305 0052 0B       		.uleb128 0xb
 5306 0053 05       		.uleb128 0x5
 5307 0054 3A       		.uleb128 0x3a
 5308 0055 0B       		.uleb128 0xb
 5309 0056 3B       		.uleb128 0x3b
 5310 0057 05       		.uleb128 0x5
 5311 0058 01       		.uleb128 0x1
 5312 0059 13       		.uleb128 0x13
 5313 005a 00       		.byte	0
 5314 005b 00       		.byte	0
 5315 005c 09       		.uleb128 0x9
 5316 005d 0D       		.uleb128 0xd
 5317 005e 00       		.byte	0
 5318 005f 03       		.uleb128 0x3
 5319 0060 0E       		.uleb128 0xe
 5320 0061 3A       		.uleb128 0x3a
 5321 0062 0B       		.uleb128 0xb
 5322 0063 3B       		.uleb128 0x3b
 5323 0064 05       		.uleb128 0x5
 5324 0065 49       		.uleb128 0x49
 5325 0066 13       		.uleb128 0x13
 5326 0067 38       		.uleb128 0x38
 5327 0068 0B       		.uleb128 0xb
 5328 0069 00       		.byte	0
 5329 006a 00       		.byte	0
 5330 006b 0A       		.uleb128 0xa
ARM GAS  /tmp/ccakcsKX.s 			page 95


 5331 006c 0D       		.uleb128 0xd
 5332 006d 00       		.byte	0
 5333 006e 03       		.uleb128 0x3
 5334 006f 08       		.uleb128 0x8
 5335 0070 3A       		.uleb128 0x3a
 5336 0071 0B       		.uleb128 0xb
 5337 0072 3B       		.uleb128 0x3b
 5338 0073 05       		.uleb128 0x5
 5339 0074 49       		.uleb128 0x49
 5340 0075 13       		.uleb128 0x13
 5341 0076 38       		.uleb128 0x38
 5342 0077 0B       		.uleb128 0xb
 5343 0078 00       		.byte	0
 5344 0079 00       		.byte	0
 5345 007a 0B       		.uleb128 0xb
 5346 007b 0D       		.uleb128 0xd
 5347 007c 00       		.byte	0
 5348 007d 03       		.uleb128 0x3
 5349 007e 0E       		.uleb128 0xe
 5350 007f 3A       		.uleb128 0x3a
 5351 0080 0B       		.uleb128 0xb
 5352 0081 3B       		.uleb128 0x3b
 5353 0082 05       		.uleb128 0x5
 5354 0083 49       		.uleb128 0x49
 5355 0084 13       		.uleb128 0x13
 5356 0085 38       		.uleb128 0x38
 5357 0086 05       		.uleb128 0x5
 5358 0087 00       		.byte	0
 5359 0088 00       		.byte	0
 5360 0089 0C       		.uleb128 0xc
 5361 008a 16       		.uleb128 0x16
 5362 008b 00       		.byte	0
 5363 008c 03       		.uleb128 0x3
 5364 008d 0E       		.uleb128 0xe
 5365 008e 3A       		.uleb128 0x3a
 5366 008f 0B       		.uleb128 0xb
 5367 0090 3B       		.uleb128 0x3b
 5368 0091 05       		.uleb128 0x5
 5369 0092 49       		.uleb128 0x49
 5370 0093 13       		.uleb128 0x13
 5371 0094 00       		.byte	0
 5372 0095 00       		.byte	0
 5373 0096 0D       		.uleb128 0xd
 5374 0097 13       		.uleb128 0x13
 5375 0098 01       		.byte	0x1
 5376 0099 0B       		.uleb128 0xb
 5377 009a 0B       		.uleb128 0xb
 5378 009b 3A       		.uleb128 0x3a
 5379 009c 0B       		.uleb128 0xb
 5380 009d 3B       		.uleb128 0x3b
 5381 009e 05       		.uleb128 0x5
 5382 009f 01       		.uleb128 0x1
 5383 00a0 13       		.uleb128 0x13
 5384 00a1 00       		.byte	0
 5385 00a2 00       		.byte	0
 5386 00a3 0E       		.uleb128 0xe
 5387 00a4 0F       		.uleb128 0xf
ARM GAS  /tmp/ccakcsKX.s 			page 96


 5388 00a5 00       		.byte	0
 5389 00a6 0B       		.uleb128 0xb
 5390 00a7 0B       		.uleb128 0xb
 5391 00a8 00       		.byte	0
 5392 00a9 00       		.byte	0
 5393 00aa 0F       		.uleb128 0xf
 5394 00ab 04       		.uleb128 0x4
 5395 00ac 01       		.byte	0x1
 5396 00ad 0B       		.uleb128 0xb
 5397 00ae 0B       		.uleb128 0xb
 5398 00af 3A       		.uleb128 0x3a
 5399 00b0 0B       		.uleb128 0xb
 5400 00b1 3B       		.uleb128 0x3b
 5401 00b2 0B       		.uleb128 0xb
 5402 00b3 01       		.uleb128 0x1
 5403 00b4 13       		.uleb128 0x13
 5404 00b5 00       		.byte	0
 5405 00b6 00       		.byte	0
 5406 00b7 10       		.uleb128 0x10
 5407 00b8 28       		.uleb128 0x28
 5408 00b9 00       		.byte	0
 5409 00ba 03       		.uleb128 0x3
 5410 00bb 0E       		.uleb128 0xe
 5411 00bc 1C       		.uleb128 0x1c
 5412 00bd 0D       		.uleb128 0xd
 5413 00be 00       		.byte	0
 5414 00bf 00       		.byte	0
 5415 00c0 11       		.uleb128 0x11
 5416 00c1 0F       		.uleb128 0xf
 5417 00c2 00       		.byte	0
 5418 00c3 0B       		.uleb128 0xb
 5419 00c4 0B       		.uleb128 0xb
 5420 00c5 49       		.uleb128 0x49
 5421 00c6 13       		.uleb128 0x13
 5422 00c7 00       		.byte	0
 5423 00c8 00       		.byte	0
 5424 00c9 12       		.uleb128 0x12
 5425 00ca 13       		.uleb128 0x13
 5426 00cb 01       		.byte	0x1
 5427 00cc 0B       		.uleb128 0xb
 5428 00cd 0B       		.uleb128 0xb
 5429 00ce 3A       		.uleb128 0x3a
 5430 00cf 0B       		.uleb128 0xb
 5431 00d0 3B       		.uleb128 0x3b
 5432 00d1 0B       		.uleb128 0xb
 5433 00d2 01       		.uleb128 0x1
 5434 00d3 13       		.uleb128 0x13
 5435 00d4 00       		.byte	0
 5436 00d5 00       		.byte	0
 5437 00d6 13       		.uleb128 0x13
 5438 00d7 0D       		.uleb128 0xd
 5439 00d8 00       		.byte	0
 5440 00d9 03       		.uleb128 0x3
 5441 00da 0E       		.uleb128 0xe
 5442 00db 3A       		.uleb128 0x3a
 5443 00dc 0B       		.uleb128 0xb
 5444 00dd 3B       		.uleb128 0x3b
ARM GAS  /tmp/ccakcsKX.s 			page 97


 5445 00de 0B       		.uleb128 0xb
 5446 00df 49       		.uleb128 0x49
 5447 00e0 13       		.uleb128 0x13
 5448 00e1 38       		.uleb128 0x38
 5449 00e2 0B       		.uleb128 0xb
 5450 00e3 00       		.byte	0
 5451 00e4 00       		.byte	0
 5452 00e5 14       		.uleb128 0x14
 5453 00e6 0D       		.uleb128 0xd
 5454 00e7 00       		.byte	0
 5455 00e8 03       		.uleb128 0x3
 5456 00e9 08       		.uleb128 0x8
 5457 00ea 3A       		.uleb128 0x3a
 5458 00eb 0B       		.uleb128 0xb
 5459 00ec 3B       		.uleb128 0x3b
 5460 00ed 0B       		.uleb128 0xb
 5461 00ee 49       		.uleb128 0x49
 5462 00ef 13       		.uleb128 0x13
 5463 00f0 38       		.uleb128 0x38
 5464 00f1 0B       		.uleb128 0xb
 5465 00f2 00       		.byte	0
 5466 00f3 00       		.byte	0
 5467 00f4 15       		.uleb128 0x15
 5468 00f5 13       		.uleb128 0x13
 5469 00f6 01       		.byte	0x1
 5470 00f7 0B       		.uleb128 0xb
 5471 00f8 05       		.uleb128 0x5
 5472 00f9 3A       		.uleb128 0x3a
 5473 00fa 0B       		.uleb128 0xb
 5474 00fb 3B       		.uleb128 0x3b
 5475 00fc 0B       		.uleb128 0xb
 5476 00fd 01       		.uleb128 0x1
 5477 00fe 13       		.uleb128 0x13
 5478 00ff 00       		.byte	0
 5479 0100 00       		.byte	0
 5480 0101 16       		.uleb128 0x16
 5481 0102 0D       		.uleb128 0xd
 5482 0103 00       		.byte	0
 5483 0104 03       		.uleb128 0x3
 5484 0105 0E       		.uleb128 0xe
 5485 0106 3A       		.uleb128 0x3a
 5486 0107 0B       		.uleb128 0xb
 5487 0108 3B       		.uleb128 0x3b
 5488 0109 0B       		.uleb128 0xb
 5489 010a 49       		.uleb128 0x49
 5490 010b 13       		.uleb128 0x13
 5491 010c 38       		.uleb128 0x38
 5492 010d 05       		.uleb128 0x5
 5493 010e 00       		.byte	0
 5494 010f 00       		.byte	0
 5495 0110 17       		.uleb128 0x17
 5496 0111 2E       		.uleb128 0x2e
 5497 0112 01       		.byte	0x1
 5498 0113 3F       		.uleb128 0x3f
 5499 0114 19       		.uleb128 0x19
 5500 0115 03       		.uleb128 0x3
 5501 0116 0E       		.uleb128 0xe
ARM GAS  /tmp/ccakcsKX.s 			page 98


 5502 0117 3A       		.uleb128 0x3a
 5503 0118 0B       		.uleb128 0xb
 5504 0119 3B       		.uleb128 0x3b
 5505 011a 0B       		.uleb128 0xb
 5506 011b 27       		.uleb128 0x27
 5507 011c 19       		.uleb128 0x19
 5508 011d 49       		.uleb128 0x49
 5509 011e 13       		.uleb128 0x13
 5510 011f 11       		.uleb128 0x11
 5511 0120 01       		.uleb128 0x1
 5512 0121 12       		.uleb128 0x12
 5513 0122 06       		.uleb128 0x6
 5514 0123 40       		.uleb128 0x40
 5515 0124 18       		.uleb128 0x18
 5516 0125 9642     		.uleb128 0x2116
 5517 0127 19       		.uleb128 0x19
 5518 0128 01       		.uleb128 0x1
 5519 0129 13       		.uleb128 0x13
 5520 012a 00       		.byte	0
 5521 012b 00       		.byte	0
 5522 012c 18       		.uleb128 0x18
 5523 012d 05       		.uleb128 0x5
 5524 012e 00       		.byte	0
 5525 012f 03       		.uleb128 0x3
 5526 0130 0E       		.uleb128 0xe
 5527 0131 3A       		.uleb128 0x3a
 5528 0132 0B       		.uleb128 0xb
 5529 0133 3B       		.uleb128 0x3b
 5530 0134 0B       		.uleb128 0xb
 5531 0135 49       		.uleb128 0x49
 5532 0136 13       		.uleb128 0x13
 5533 0137 02       		.uleb128 0x2
 5534 0138 18       		.uleb128 0x18
 5535 0139 00       		.byte	0
 5536 013a 00       		.byte	0
 5537 013b 19       		.uleb128 0x19
 5538 013c 34       		.uleb128 0x34
 5539 013d 00       		.byte	0
 5540 013e 03       		.uleb128 0x3
 5541 013f 0E       		.uleb128 0xe
 5542 0140 3A       		.uleb128 0x3a
 5543 0141 0B       		.uleb128 0xb
 5544 0142 3B       		.uleb128 0x3b
 5545 0143 0B       		.uleb128 0xb
 5546 0144 49       		.uleb128 0x49
 5547 0145 13       		.uleb128 0x13
 5548 0146 02       		.uleb128 0x2
 5549 0147 18       		.uleb128 0x18
 5550 0148 00       		.byte	0
 5551 0149 00       		.byte	0
 5552 014a 1A       		.uleb128 0x1a
 5553 014b 2E       		.uleb128 0x2e
 5554 014c 01       		.byte	0x1
 5555 014d 3F       		.uleb128 0x3f
 5556 014e 19       		.uleb128 0x19
 5557 014f 03       		.uleb128 0x3
 5558 0150 0E       		.uleb128 0xe
ARM GAS  /tmp/ccakcsKX.s 			page 99


 5559 0151 3A       		.uleb128 0x3a
 5560 0152 0B       		.uleb128 0xb
 5561 0153 3B       		.uleb128 0x3b
 5562 0154 0B       		.uleb128 0xb
 5563 0155 27       		.uleb128 0x27
 5564 0156 19       		.uleb128 0x19
 5565 0157 11       		.uleb128 0x11
 5566 0158 01       		.uleb128 0x1
 5567 0159 12       		.uleb128 0x12
 5568 015a 06       		.uleb128 0x6
 5569 015b 40       		.uleb128 0x40
 5570 015c 18       		.uleb128 0x18
 5571 015d 9742     		.uleb128 0x2117
 5572 015f 19       		.uleb128 0x19
 5573 0160 01       		.uleb128 0x1
 5574 0161 13       		.uleb128 0x13
 5575 0162 00       		.byte	0
 5576 0163 00       		.byte	0
 5577 0164 1B       		.uleb128 0x1b
 5578 0165 2E       		.uleb128 0x2e
 5579 0166 01       		.byte	0x1
 5580 0167 3F       		.uleb128 0x3f
 5581 0168 19       		.uleb128 0x19
 5582 0169 03       		.uleb128 0x3
 5583 016a 0E       		.uleb128 0xe
 5584 016b 3A       		.uleb128 0x3a
 5585 016c 0B       		.uleb128 0xb
 5586 016d 3B       		.uleb128 0x3b
 5587 016e 05       		.uleb128 0x5
 5588 016f 27       		.uleb128 0x27
 5589 0170 19       		.uleb128 0x19
 5590 0171 11       		.uleb128 0x11
 5591 0172 01       		.uleb128 0x1
 5592 0173 12       		.uleb128 0x12
 5593 0174 06       		.uleb128 0x6
 5594 0175 40       		.uleb128 0x40
 5595 0176 18       		.uleb128 0x18
 5596 0177 9742     		.uleb128 0x2117
 5597 0179 19       		.uleb128 0x19
 5598 017a 01       		.uleb128 0x1
 5599 017b 13       		.uleb128 0x13
 5600 017c 00       		.byte	0
 5601 017d 00       		.byte	0
 5602 017e 1C       		.uleb128 0x1c
 5603 017f 05       		.uleb128 0x5
 5604 0180 00       		.byte	0
 5605 0181 03       		.uleb128 0x3
 5606 0182 0E       		.uleb128 0xe
 5607 0183 3A       		.uleb128 0x3a
 5608 0184 0B       		.uleb128 0xb
 5609 0185 3B       		.uleb128 0x3b
 5610 0186 05       		.uleb128 0x5
 5611 0187 49       		.uleb128 0x49
 5612 0188 13       		.uleb128 0x13
 5613 0189 02       		.uleb128 0x2
 5614 018a 18       		.uleb128 0x18
 5615 018b 00       		.byte	0
ARM GAS  /tmp/ccakcsKX.s 			page 100


 5616 018c 00       		.byte	0
 5617 018d 1D       		.uleb128 0x1d
 5618 018e 2E       		.uleb128 0x2e
 5619 018f 01       		.byte	0x1
 5620 0190 3F       		.uleb128 0x3f
 5621 0191 19       		.uleb128 0x19
 5622 0192 03       		.uleb128 0x3
 5623 0193 0E       		.uleb128 0xe
 5624 0194 3A       		.uleb128 0x3a
 5625 0195 0B       		.uleb128 0xb
 5626 0196 3B       		.uleb128 0x3b
 5627 0197 05       		.uleb128 0x5
 5628 0198 27       		.uleb128 0x27
 5629 0199 19       		.uleb128 0x19
 5630 019a 49       		.uleb128 0x49
 5631 019b 13       		.uleb128 0x13
 5632 019c 11       		.uleb128 0x11
 5633 019d 01       		.uleb128 0x1
 5634 019e 12       		.uleb128 0x12
 5635 019f 06       		.uleb128 0x6
 5636 01a0 40       		.uleb128 0x40
 5637 01a1 18       		.uleb128 0x18
 5638 01a2 9642     		.uleb128 0x2116
 5639 01a4 19       		.uleb128 0x19
 5640 01a5 01       		.uleb128 0x1
 5641 01a6 13       		.uleb128 0x13
 5642 01a7 00       		.byte	0
 5643 01a8 00       		.byte	0
 5644 01a9 1E       		.uleb128 0x1e
 5645 01aa 2E       		.uleb128 0x2e
 5646 01ab 01       		.byte	0x1
 5647 01ac 3F       		.uleb128 0x3f
 5648 01ad 19       		.uleb128 0x19
 5649 01ae 03       		.uleb128 0x3
 5650 01af 0E       		.uleb128 0xe
 5651 01b0 3A       		.uleb128 0x3a
 5652 01b1 0B       		.uleb128 0xb
 5653 01b2 3B       		.uleb128 0x3b
 5654 01b3 05       		.uleb128 0x5
 5655 01b4 27       		.uleb128 0x27
 5656 01b5 19       		.uleb128 0x19
 5657 01b6 11       		.uleb128 0x11
 5658 01b7 01       		.uleb128 0x1
 5659 01b8 12       		.uleb128 0x12
 5660 01b9 06       		.uleb128 0x6
 5661 01ba 40       		.uleb128 0x40
 5662 01bb 18       		.uleb128 0x18
 5663 01bc 9642     		.uleb128 0x2116
 5664 01be 19       		.uleb128 0x19
 5665 01bf 01       		.uleb128 0x1
 5666 01c0 13       		.uleb128 0x13
 5667 01c1 00       		.byte	0
 5668 01c2 00       		.byte	0
 5669 01c3 1F       		.uleb128 0x1f
 5670 01c4 34       		.uleb128 0x34
 5671 01c5 00       		.byte	0
 5672 01c6 03       		.uleb128 0x3
ARM GAS  /tmp/ccakcsKX.s 			page 101


 5673 01c7 0E       		.uleb128 0xe
 5674 01c8 3A       		.uleb128 0x3a
 5675 01c9 0B       		.uleb128 0xb
 5676 01ca 3B       		.uleb128 0x3b
 5677 01cb 05       		.uleb128 0x5
 5678 01cc 49       		.uleb128 0x49
 5679 01cd 13       		.uleb128 0x13
 5680 01ce 02       		.uleb128 0x2
 5681 01cf 18       		.uleb128 0x18
 5682 01d0 00       		.byte	0
 5683 01d1 00       		.byte	0
 5684 01d2 20       		.uleb128 0x20
 5685 01d3 34       		.uleb128 0x34
 5686 01d4 00       		.byte	0
 5687 01d5 03       		.uleb128 0x3
 5688 01d6 08       		.uleb128 0x8
 5689 01d7 3A       		.uleb128 0x3a
 5690 01d8 0B       		.uleb128 0xb
 5691 01d9 3B       		.uleb128 0x3b
 5692 01da 05       		.uleb128 0x5
 5693 01db 49       		.uleb128 0x49
 5694 01dc 13       		.uleb128 0x13
 5695 01dd 02       		.uleb128 0x2
 5696 01de 18       		.uleb128 0x18
 5697 01df 00       		.byte	0
 5698 01e0 00       		.byte	0
 5699 01e1 21       		.uleb128 0x21
 5700 01e2 05       		.uleb128 0x5
 5701 01e3 00       		.byte	0
 5702 01e4 03       		.uleb128 0x3
 5703 01e5 08       		.uleb128 0x8
 5704 01e6 3A       		.uleb128 0x3a
 5705 01e7 0B       		.uleb128 0xb
 5706 01e8 3B       		.uleb128 0x3b
 5707 01e9 05       		.uleb128 0x5
 5708 01ea 49       		.uleb128 0x49
 5709 01eb 13       		.uleb128 0x13
 5710 01ec 02       		.uleb128 0x2
 5711 01ed 18       		.uleb128 0x18
 5712 01ee 00       		.byte	0
 5713 01ef 00       		.byte	0
 5714 01f0 22       		.uleb128 0x22
 5715 01f1 2E       		.uleb128 0x2e
 5716 01f2 01       		.byte	0x1
 5717 01f3 3F       		.uleb128 0x3f
 5718 01f4 19       		.uleb128 0x19
 5719 01f5 03       		.uleb128 0x3
 5720 01f6 0E       		.uleb128 0xe
 5721 01f7 3A       		.uleb128 0x3a
 5722 01f8 0B       		.uleb128 0xb
 5723 01f9 3B       		.uleb128 0x3b
 5724 01fa 05       		.uleb128 0x5
 5725 01fb 27       		.uleb128 0x27
 5726 01fc 19       		.uleb128 0x19
 5727 01fd 49       		.uleb128 0x49
 5728 01fe 13       		.uleb128 0x13
 5729 01ff 11       		.uleb128 0x11
ARM GAS  /tmp/ccakcsKX.s 			page 102


 5730 0200 01       		.uleb128 0x1
 5731 0201 12       		.uleb128 0x12
 5732 0202 06       		.uleb128 0x6
 5733 0203 40       		.uleb128 0x40
 5734 0204 18       		.uleb128 0x18
 5735 0205 9742     		.uleb128 0x2117
 5736 0207 19       		.uleb128 0x19
 5737 0208 01       		.uleb128 0x1
 5738 0209 13       		.uleb128 0x13
 5739 020a 00       		.byte	0
 5740 020b 00       		.byte	0
 5741 020c 23       		.uleb128 0x23
 5742 020d 2E       		.uleb128 0x2e
 5743 020e 01       		.byte	0x1
 5744 020f 03       		.uleb128 0x3
 5745 0210 0E       		.uleb128 0xe
 5746 0211 3A       		.uleb128 0x3a
 5747 0212 0B       		.uleb128 0xb
 5748 0213 3B       		.uleb128 0x3b
 5749 0214 05       		.uleb128 0x5
 5750 0215 27       		.uleb128 0x27
 5751 0216 19       		.uleb128 0x19
 5752 0217 49       		.uleb128 0x49
 5753 0218 13       		.uleb128 0x13
 5754 0219 11       		.uleb128 0x11
 5755 021a 01       		.uleb128 0x1
 5756 021b 12       		.uleb128 0x12
 5757 021c 06       		.uleb128 0x6
 5758 021d 40       		.uleb128 0x40
 5759 021e 18       		.uleb128 0x18
 5760 021f 9642     		.uleb128 0x2116
 5761 0221 19       		.uleb128 0x19
 5762 0222 01       		.uleb128 0x1
 5763 0223 13       		.uleb128 0x13
 5764 0224 00       		.byte	0
 5765 0225 00       		.byte	0
 5766 0226 24       		.uleb128 0x24
 5767 0227 34       		.uleb128 0x34
 5768 0228 00       		.byte	0
 5769 0229 03       		.uleb128 0x3
 5770 022a 0E       		.uleb128 0xe
 5771 022b 3A       		.uleb128 0x3a
 5772 022c 0B       		.uleb128 0xb
 5773 022d 3B       		.uleb128 0x3b
 5774 022e 05       		.uleb128 0x5
 5775 022f 49       		.uleb128 0x49
 5776 0230 13       		.uleb128 0x13
 5777 0231 3F       		.uleb128 0x3f
 5778 0232 19       		.uleb128 0x19
 5779 0233 3C       		.uleb128 0x3c
 5780 0234 19       		.uleb128 0x19
 5781 0235 00       		.byte	0
 5782 0236 00       		.byte	0
 5783 0237 00       		.byte	0
 5784              		.section	.debug_aranges,"",%progbits
 5785 0000 1C000000 		.4byte	0x1c
 5786 0004 0200     		.2byte	0x2
ARM GAS  /tmp/ccakcsKX.s 			page 103


 5787 0006 00000000 		.4byte	.Ldebug_info0
 5788 000a 04       		.byte	0x4
 5789 000b 00       		.byte	0
 5790 000c 0000     		.2byte	0
 5791 000e 0000     		.2byte	0
 5792 0010 00000000 		.4byte	.Ltext0
 5793 0014 84140000 		.4byte	.Letext0-.Ltext0
 5794 0018 00000000 		.4byte	0
 5795 001c 00000000 		.4byte	0
 5796              		.section	.debug_line,"",%progbits
 5797              	.Ldebug_line0:
 5798 0000 1E060000 		.section	.debug_str,"MS",%progbits,1
 5798      02006602 
 5798      00000201 
 5798      FB0E0D00 
 5798      01010101 
 5799              	.LASF147:
 5800 0000 68706364 		.ascii	"hpcd\000"
 5800      00
 5801              	.LASF23:
 5802 0005 47494E54 		.ascii	"GINTSTS\000"
 5802      53545300 
 5803              	.LASF118:
 5804 000d 48414C5F 		.ascii	"HAL_PCD_STATE_BUSY\000"
 5804      5043445F 
 5804      53544154 
 5804      455F4255 
 5804      535900
 5805              	.LASF43:
 5806 0020 44434647 		.ascii	"DCFG\000"
 5806      00
 5807              	.LASF57:
 5808 0025 44454143 		.ascii	"DEACHINT\000"
 5808      48494E54 
 5808      00
 5809              	.LASF154:
 5810 002e 55534278 		.ascii	"USBx\000"
 5810      00
 5811              	.LASF38:
 5812 0033 47414450 		.ascii	"GADPCTL\000"
 5812      43544C00 
 5813              	.LASF128:
 5814 003b 5043445F 		.ascii	"PCD_EPTypeDef\000"
 5814      45505479 
 5814      70654465 
 5814      6600
 5815              	.LASF192:
 5816 0049 474E5520 		.ascii	"GNU C 4.8.4 20140526 (release) [ARM/embedded-4_8-br"
 5816      4320342E 
 5816      382E3420 
 5816      32303134 
 5816      30353236 
 5817 007c 616E6368 		.ascii	"anch revision 211358] -mcpu=cortex-m4 -mno-thumb-in"
 5817      20726576 
 5817      6973696F 
 5817      6E203231 
 5817      31333538 
ARM GAS  /tmp/ccakcsKX.s 			page 104


 5818 00af 74657277 		.ascii	"terwork -mthumb -ggdb -O0 -std=c99 -fomit-frame-poi"
 5818      6F726B20 
 5818      2D6D7468 
 5818      756D6220 
 5818      2D676764 
 5819 00e2 6E746572 		.ascii	"nter -falign-functions=16\000"
 5819      202D6661 
 5819      6C69676E 
 5819      2D66756E 
 5819      6374696F 
 5820              	.LASF56:
 5821 00fc 44494550 		.ascii	"DIEPEMPMSK\000"
 5821      454D504D 
 5821      534B00
 5822              	.LASF107:
 5823 0107 6576656E 		.ascii	"even_odd_frame\000"
 5823      5F6F6464 
 5823      5F667261 
 5823      6D6500
 5824              	.LASF162:
 5825 0116 48414C5F 		.ascii	"HAL_PCD_DataInStageCallback\000"
 5825      5043445F 
 5825      44617461 
 5825      496E5374 
 5825      61676543 
 5826              	.LASF3:
 5827 0132 5F5F7569 		.ascii	"__uint8_t\000"
 5827      6E74385F 
 5827      7400
 5828              	.LASF20:
 5829 013c 47414842 		.ascii	"GAHBCFG\000"
 5829      43464700 
 5830              	.LASF80:
 5831 0144 48414C5F 		.ascii	"HAL_BUSY\000"
 5831      42555359 
 5831      00
 5832              	.LASF105:
 5833 014d 74797065 		.ascii	"type\000"
 5833      00
 5834              	.LASF132:
 5835 0152 494E5F65 		.ascii	"IN_ep\000"
 5835      7000
 5836              	.LASF7:
 5837 0158 6C6F6E67 		.ascii	"long int\000"
 5837      20696E74 
 5837      00
 5838              	.LASF144:
 5839 0161 5043445F 		.ascii	"PCD_LPM_L1_ACTIVE\000"
 5839      4C504D5F 
 5839      4C315F41 
 5839      43544956 
 5839      4500
 5840              	.LASF11:
 5841 0173 6C6F6E67 		.ascii	"long long unsigned int\000"
 5841      206C6F6E 
 5841      6720756E 
 5841      7369676E 
ARM GAS  /tmp/ccakcsKX.s 			page 105


 5841      65642069 
 5842              	.LASF124:
 5843 018a 4C504D5F 		.ascii	"LPM_L3\000"
 5843      4C3300
 5844              	.LASF109:
 5845 0191 6D617870 		.ascii	"maxpacket\000"
 5845      61636B65 
 5845      7400
 5846              	.LASF141:
 5847 019b 70446174 		.ascii	"pData\000"
 5847      6100
 5848              	.LASF99:
 5849 01a1 76627573 		.ascii	"vbus_sensing_enable\000"
 5849      5F73656E 
 5849      73696E67 
 5849      5F656E61 
 5849      626C6500 
 5850              	.LASF89:
 5851 01b5 6465765F 		.ascii	"dev_endpoints\000"
 5851      656E6470 
 5851      6F696E74 
 5851      7300
 5852              	.LASF103:
 5853 01c3 69735F69 		.ascii	"is_in\000"
 5853      6E00
 5854              	.LASF60:
 5855 01c9 44494E45 		.ascii	"DINEP1MSK\000"
 5855      50314D53 
 5855      4B00
 5856              	.LASF193:
 5857 01d3 2E2E2F2E 		.ascii	"../../../../../Drivers/STM32L4xx_HAL_Driver/Src/stm"
 5857      2E2F2E2E 
 5857      2F2E2E2F 
 5857      2E2E2F44 
 5857      72697665 
 5858 0206 33326C34 		.ascii	"32l4xx_hal_pcd.c\000"
 5858      78785F68 
 5858      616C5F70 
 5858      63642E63 
 5858      00
 5859              	.LASF10:
 5860 0217 6C6F6E67 		.ascii	"long long int\000"
 5860      206C6F6E 
 5860      6720696E 
 5860      7400
 5861              	.LASF0:
 5862 0225 7369676E 		.ascii	"signed char\000"
 5862      65642063 
 5862      68617200 
 5863              	.LASF65:
 5864 0231 52657365 		.ascii	"Reserved04\000"
 5864      72766564 
 5864      303400
 5865              	.LASF32:
 5866 023c 52657365 		.ascii	"Reserved5\000"
 5866      72766564 
 5866      3500
ARM GAS  /tmp/ccakcsKX.s 			page 106


 5867              	.LASF34:
 5868 0246 52657365 		.ascii	"Reserved6\000"
 5868      72766564 
 5868      3600
 5869              	.LASF137:
 5870 0250 4C504D5F 		.ascii	"LPM_State\000"
 5870      53746174 
 5870      6500
 5871              	.LASF177:
 5872 025a 65705F61 		.ascii	"ep_addr\000"
 5872      64647200 
 5873              	.LASF85:
 5874 0262 48414C5F 		.ascii	"HAL_LockTypeDef\000"
 5874      4C6F636B 
 5874      54797065 
 5874      44656600 
 5875              	.LASF189:
 5876 0272 48414C5F 		.ascii	"HAL_PCD_DeActivateRemoteWakeup\000"
 5876      5043445F 
 5876      44654163 
 5876      74697661 
 5876      74655265 
 5877              	.LASF45:
 5878 0291 44535453 		.ascii	"DSTS\000"
 5878      00
 5879              	.LASF196:
 5880 0296 49544D5F 		.ascii	"ITM_RxBuffer\000"
 5880      52784275 
 5880      66666572 
 5880      00
 5881              	.LASF46:
 5882 02a3 52657365 		.ascii	"Reserved0C\000"
 5882      72766564 
 5882      304300
 5883              	.LASF63:
 5884 02ae 5553425F 		.ascii	"USB_OTG_DeviceTypeDef\000"
 5884      4F54475F 
 5884      44657669 
 5884      63655479 
 5884      70654465 
 5885              	.LASF94:
 5886 02c4 7068795F 		.ascii	"phy_itface\000"
 5886      69746661 
 5886      636500
 5887              	.LASF174:
 5888 02cf 48414C5F 		.ascii	"HAL_PCD_SetAddress\000"
 5888      5043445F 
 5888      53657441 
 5888      64647265 
 5888      737300
 5889              	.LASF12:
 5890 02e2 756E7369 		.ascii	"unsigned int\000"
 5890      676E6564 
 5890      20696E74 
 5890      00
 5891              	.LASF180:
 5892 02ef 48414C5F 		.ascii	"HAL_PCD_EP_Close\000"
ARM GAS  /tmp/ccakcsKX.s 			page 107


 5892      5043445F 
 5892      45505F43 
 5892      6C6F7365 
 5892      00
 5893              	.LASF21:
 5894 0300 47555342 		.ascii	"GUSBCFG\000"
 5894      43464700 
 5895              	.LASF113:
 5896 0308 78666572 		.ascii	"xfer_count\000"
 5896      5F636F75 
 5896      6E7400
 5897              	.LASF14:
 5898 0313 75696E74 		.ascii	"uint16_t\000"
 5898      31365F74 
 5898      00
 5899              	.LASF184:
 5900 031c 48414C5F 		.ascii	"HAL_PCD_EP_Transmit\000"
 5900      5043445F 
 5900      45505F54 
 5900      72616E73 
 5900      6D697400 
 5901              	.LASF49:
 5902 0330 4441494E 		.ascii	"DAINT\000"
 5902      5400
 5903              	.LASF167:
 5904 0336 48414C5F 		.ascii	"HAL_PCD_ResumeCallback\000"
 5904      5043445F 
 5904      52657375 
 5904      6D654361 
 5904      6C6C6261 
 5905              	.LASF37:
 5906 034d 47444649 		.ascii	"GDFIFOCFG\000"
 5906      464F4346 
 5906      4700
 5907              	.LASF50:
 5908 0357 4441494E 		.ascii	"DAINTMSK\000"
 5908      544D534B 
 5908      00
 5909              	.LASF87:
 5910 0360 5553425F 		.ascii	"USB_HOST_MODE\000"
 5910      484F5354 
 5910      5F4D4F44 
 5910      4500
 5911              	.LASF178:
 5912 036e 65705F6D 		.ascii	"ep_mps\000"
 5912      707300
 5913              	.LASF8:
 5914 0375 5F5F7569 		.ascii	"__uint32_t\000"
 5914      6E743332 
 5914      5F7400
 5915              	.LASF188:
 5916 0380 48414C5F 		.ascii	"HAL_PCD_ActivateRemoteWakeup\000"
 5916      5043445F 
 5916      41637469 
 5916      76617465 
 5916      52656D6F 
 5917              	.LASF194:
ARM GAS  /tmp/ccakcsKX.s 			page 108


 5918 039d 2F752F65 		.ascii	"/u/elawton2/p442-submissions/sensortile/reference/b"
 5918      6C617774 
 5918      6F6E322F 
 5918      70343432 
 5918      2D737562 
 5919 03d0 6C75656D 		.ascii	"luemicrosystem2/BlueMicrosystem2_V2.2.0/Projects/Mu"
 5919      6963726F 
 5919      73797374 
 5919      656D322F 
 5919      426C7565 
 5920 0403 6C74692F 		.ascii	"lti/Applications/BlueMicrosystem2/bluechibi\000"
 5920      4170706C 
 5920      69636174 
 5920      696F6E73 
 5920      2F426C75 
 5921              	.LASF104:
 5922 042f 69735F73 		.ascii	"is_stall\000"
 5922      74616C6C 
 5922      00
 5923              	.LASF170:
 5924 0438 48414C5F 		.ascii	"HAL_PCD_ConnectCallback\000"
 5924      5043445F 
 5924      436F6E6E 
 5924      65637443 
 5924      616C6C62 
 5925              	.LASF28:
 5926 0450 44494550 		.ascii	"DIEPTXF0_HNPTXFSIZ\000"
 5926      54584630 
 5926      5F484E50 
 5926      54584653 
 5926      495A00
 5927              	.LASF90:
 5928 0463 486F7374 		.ascii	"Host_channels\000"
 5928      5F636861 
 5928      6E6E656C 
 5928      7300
 5929              	.LASF19:
 5930 0471 474F5447 		.ascii	"GOTGINT\000"
 5930      494E5400 
 5931              	.LASF70:
 5932 0479 52657365 		.ascii	"Reserved18\000"
 5932      72766564 
 5932      313800
 5933              	.LASF159:
 5934 0484 74656D70 		.ascii	"temp\000"
 5934      00
 5935              	.LASF35:
 5936 0489 474C504D 		.ascii	"GLPMCFG\000"
 5936      43464700 
 5937              	.LASF183:
 5938 0491 48414C5F 		.ascii	"HAL_PCD_EP_GetRxCount\000"
 5938      5043445F 
 5938      45505F47 
 5938      65745278 
 5938      436F756E 
 5939              	.LASF71:
 5940 04a7 5553425F 		.ascii	"USB_OTG_INEndpointTypeDef\000"
ARM GAS  /tmp/ccakcsKX.s 			page 109


 5940      4F54475F 
 5940      494E456E 
 5940      64706F69 
 5940      6E745479 
 5941              	.LASF156:
 5942 04c1 6570696E 		.ascii	"epint\000"
 5942      7400
 5943              	.LASF157:
 5944 04c7 65706E75 		.ascii	"epnum\000"
 5944      6D00
 5945              	.LASF191:
 5946 04cd 6C656E33 		.ascii	"len32b\000"
 5946      326200
 5947              	.LASF81:
 5948 04d4 48414C5F 		.ascii	"HAL_TIMEOUT\000"
 5948      54494D45 
 5948      4F555400 
 5949              	.LASF121:
 5950 04e0 4C504D5F 		.ascii	"LPM_L0\000"
 5950      4C3000
 5951              	.LASF122:
 5952 04e7 4C504D5F 		.ascii	"LPM_L1\000"
 5952      4C3100
 5953              	.LASF123:
 5954 04ee 4C504D5F 		.ascii	"LPM_L2\000"
 5954      4C3200
 5955              	.LASF102:
 5956 04f5 5553425F 		.ascii	"USB_OTG_CfgTypeDef\000"
 5956      4F54475F 
 5956      43666754 
 5956      79706544 
 5956      656600
 5957              	.LASF9:
 5958 0508 6C6F6E67 		.ascii	"long unsigned int\000"
 5958      20756E73 
 5958      69676E65 
 5958      6420696E 
 5958      7400
 5959              	.LASF163:
 5960 051a 48414C5F 		.ascii	"HAL_PCD_SetupStageCallback\000"
 5960      5043445F 
 5960      53657475 
 5960      70537461 
 5960      67654361 
 5961              	.LASF150:
 5962 0535 48414C5F 		.ascii	"HAL_PCD_Start\000"
 5962      5043445F 
 5962      53746172 
 5962      7400
 5963              	.LASF101:
 5964 0543 7573655F 		.ascii	"use_external_vbus\000"
 5964      65787465 
 5964      726E616C 
 5964      5F766275 
 5964      7300
 5965              	.LASF120:
 5966 0555 5043445F 		.ascii	"PCD_StateTypeDef\000"
ARM GAS  /tmp/ccakcsKX.s 			page 110


 5966      53746174 
 5966      65547970 
 5966      65446566 
 5966      00
 5967              	.LASF116:
 5968 0566 48414C5F 		.ascii	"HAL_PCD_STATE_READY\000"
 5968      5043445F 
 5968      53544154 
 5968      455F5245 
 5968      41445900 
 5969              	.LASF36:
 5970 057a 47505752 		.ascii	"GPWRDN\000"
 5970      444E00
 5971              	.LASF33:
 5972 0581 47485743 		.ascii	"GHWCFG3\000"
 5972      46473300 
 5973              	.LASF61:
 5974 0589 52657365 		.ascii	"Reserved44\000"
 5974      72766564 
 5974      343400
 5975              	.LASF5:
 5976 0594 73686F72 		.ascii	"short unsigned int\000"
 5976      7420756E 
 5976      7369676E 
 5976      65642069 
 5976      6E7400
 5977              	.LASF172:
 5978 05a7 48414C5F 		.ascii	"HAL_PCD_DevConnect\000"
 5978      5043445F 
 5978      44657643 
 5978      6F6E6E65 
 5978      637400
 5979              	.LASF68:
 5980 05ba 44494550 		.ascii	"DIEPDMA\000"
 5980      444D4100 
 5981              	.LASF52:
 5982 05c2 52657365 		.ascii	"Reserved9\000"
 5982      72766564 
 5982      3900
 5983              	.LASF125:
 5984 05cc 5043445F 		.ascii	"PCD_LPM_StateTypeDef\000"
 5984      4C504D5F 
 5984      53746174 
 5984      65547970 
 5984      65446566 
 5985              	.LASF74:
 5986 05e1 444F4550 		.ascii	"DOEPTSIZ\000"
 5986      5453495A 
 5986      00
 5987              	.LASF134:
 5988 05ea 4C6F636B 		.ascii	"Lock\000"
 5988      00
 5989              	.LASF51:
 5990 05ef 52657365 		.ascii	"Reserved20\000"
 5990      72766564 
 5990      323000
 5991              	.LASF22:
ARM GAS  /tmp/ccakcsKX.s 			page 111


 5992 05fa 47525354 		.ascii	"GRSTCTL\000"
 5992      43544C00 
 5993              	.LASF186:
 5994 0602 48414C5F 		.ascii	"HAL_PCD_EP_ClrStall\000"
 5994      5043445F 
 5994      45505F43 
 5994      6C725374 
 5994      616C6C00 
 5995              	.LASF55:
 5996 0616 44544852 		.ascii	"DTHRCTL\000"
 5996      43544C00 
 5997              	.LASF161:
 5998 061e 48414C5F 		.ascii	"HAL_PCD_DataOutStageCallback\000"
 5998      5043445F 
 5998      44617461 
 5998      4F757453 
 5998      74616765 
 5999              	.LASF82:
 6000 063b 48414C5F 		.ascii	"HAL_StatusTypeDef\000"
 6000      53746174 
 6000      75735479 
 6000      70654465 
 6000      6600
 6001              	.LASF146:
 6002 064d 48414C5F 		.ascii	"HAL_PCD_DeInit\000"
 6002      5043445F 
 6002      4465496E 
 6002      697400
 6003              	.LASF136:
 6004 065c 53657475 		.ascii	"Setup\000"
 6004      7000
 6005              	.LASF2:
 6006 0662 73686F72 		.ascii	"short int\000"
 6006      7420696E 
 6006      7400
 6007              	.LASF165:
 6008 066c 48414C5F 		.ascii	"HAL_PCD_ResetCallback\000"
 6008      5043445F 
 6008      52657365 
 6008      7443616C 
 6008      6C626163 
 6009              	.LASF91:
 6010 0682 73706565 		.ascii	"speed\000"
 6010      6400
 6011              	.LASF195:
 6012 0688 5043445F 		.ascii	"PCD_WriteEmptyTxFifo\000"
 6012      57726974 
 6012      65456D70 
 6012      74795478 
 6012      4669666F 
 6013              	.LASF112:
 6014 069d 78666572 		.ascii	"xfer_len\000"
 6014      5F6C656E 
 6014      00
 6015              	.LASF26:
 6016 06a6 47525853 		.ascii	"GRXSTSP\000"
 6016      54535000 
ARM GAS  /tmp/ccakcsKX.s 			page 112


 6017              	.LASF25:
 6018 06ae 47525853 		.ascii	"GRXSTSR\000"
 6018      54535200 
 6019              	.LASF40:
 6020 06b6 48505458 		.ascii	"HPTXFSIZ\000"
 6020      4653495A 
 6020      00
 6021              	.LASF78:
 6022 06bf 48414C5F 		.ascii	"HAL_OK\000"
 6022      4F4B00
 6023              	.LASF64:
 6024 06c6 44494550 		.ascii	"DIEPCTL\000"
 6024      43544C00 
 6025              	.LASF175:
 6026 06ce 61646472 		.ascii	"address\000"
 6026      65737300 
 6027              	.LASF86:
 6028 06d6 5553425F 		.ascii	"USB_DEVICE_MODE\000"
 6028      44455649 
 6028      43455F4D 
 6028      4F444500 
 6029              	.LASF145:
 6030 06e6 48414C5F 		.ascii	"HAL_PCD_Init\000"
 6030      5043445F 
 6030      496E6974 
 6030      00
 6031              	.LASF84:
 6032 06f3 48414C5F 		.ascii	"HAL_LOCKED\000"
 6032      4C4F434B 
 6032      454400
 6033              	.LASF142:
 6034 06fe 5043445F 		.ascii	"PCD_HandleTypeDef\000"
 6034      48616E64 
 6034      6C655479 
 6034      70654465 
 6034      6600
 6035              	.LASF117:
 6036 0710 48414C5F 		.ascii	"HAL_PCD_STATE_ERROR\000"
 6036      5043445F 
 6036      53544154 
 6036      455F4552 
 6036      524F5200 
 6037              	.LASF92:
 6038 0724 646D615F 		.ascii	"dma_enable\000"
 6038      656E6162 
 6038      6C6500
 6039              	.LASF30:
 6040 072f 52657365 		.ascii	"Reserved30\000"
 6040      72766564 
 6040      333000
 6041              	.LASF169:
 6042 073a 48414C5F 		.ascii	"HAL_PCD_ISOINIncompleteCallback\000"
 6042      5043445F 
 6042      49534F49 
 6042      4E496E63 
 6042      6F6D706C 
 6043              	.LASF67:
ARM GAS  /tmp/ccakcsKX.s 			page 113


 6044 075a 44494550 		.ascii	"DIEPTSIZ\000"
 6044      5453495A 
 6044      00
 6045              	.LASF47:
 6046 0763 44494550 		.ascii	"DIEPMSK\000"
 6046      4D534B00 
 6047              	.LASF133:
 6048 076b 4F55545F 		.ascii	"OUT_ep\000"
 6048      657000
 6049              	.LASF173:
 6050 0772 48414C5F 		.ascii	"HAL_PCD_DevDisconnect\000"
 6050      5043445F 
 6050      44657644 
 6050      6973636F 
 6050      6E6E6563 
 6051              	.LASF130:
 6052 0788 496E6974 		.ascii	"Init\000"
 6052      00
 6053              	.LASF155:
 6054 078d 65705F69 		.ascii	"ep_intr\000"
 6054      6E747200 
 6055              	.LASF129:
 6056 0795 496E7374 		.ascii	"Instance\000"
 6056      616E6365 
 6056      00
 6057              	.LASF126:
 6058 079e 5043445F 		.ascii	"PCD_TypeDef\000"
 6058      54797065 
 6058      44656600 
 6059              	.LASF42:
 6060 07aa 5553425F 		.ascii	"USB_OTG_GlobalTypeDef\000"
 6060      4F54475F 
 6060      476C6F62 
 6060      616C5479 
 6060      70654465 
 6061              	.LASF15:
 6062 07c0 696E7433 		.ascii	"int32_t\000"
 6062      325F7400 
 6063              	.LASF1:
 6064 07c8 756E7369 		.ascii	"unsigned char\000"
 6064      676E6564 
 6064      20636861 
 6064      7200
 6065              	.LASF127:
 6066 07d6 5043445F 		.ascii	"PCD_InitTypeDef\000"
 6066      496E6974 
 6066      54797065 
 6066      44656600 
 6067              	.LASF88:
 6068 07e6 5553425F 		.ascii	"USB_DRD_MODE\000"
 6068      4452445F 
 6068      4D4F4445 
 6068      00
 6069              	.LASF176:
 6070 07f3 48414C5F 		.ascii	"HAL_PCD_EP_Open\000"
 6070      5043445F 
 6070      45505F4F 
ARM GAS  /tmp/ccakcsKX.s 			page 114


 6070      70656E00 
 6071              	.LASF66:
 6072 0803 44494550 		.ascii	"DIEPINT\000"
 6072      494E5400 
 6073              	.LASF151:
 6074 080b 48414C5F 		.ascii	"HAL_PCD_Stop\000"
 6074      5043445F 
 6074      53746F70 
 6074      00
 6075              	.LASF76:
 6076 0818 5553425F 		.ascii	"USB_OTG_OUTEndpointTypeDef\000"
 6076      4F54475F 
 6076      4F555445 
 6076      6E64706F 
 6076      696E7454 
 6077              	.LASF152:
 6078 0833 48414C5F 		.ascii	"HAL_PCD_IRQHandler\000"
 6078      5043445F 
 6078      49525148 
 6078      616E646C 
 6078      657200
 6079              	.LASF24:
 6080 0846 47494E54 		.ascii	"GINTMSK\000"
 6080      4D534B00 
 6081              	.LASF106:
 6082 084e 64617461 		.ascii	"data_pid_start\000"
 6082      5F706964 
 6082      5F737461 
 6082      727400
 6083              	.LASF164:
 6084 085d 48414C5F 		.ascii	"HAL_PCD_SOFCallback\000"
 6084      5043445F 
 6084      534F4643 
 6084      616C6C62 
 6084      61636B00 
 6085              	.LASF59:
 6086 0871 52657365 		.ascii	"Reserved40\000"
 6086      72766564 
 6086      343000
 6087              	.LASF181:
 6088 087c 48414C5F 		.ascii	"HAL_PCD_EP_Receive\000"
 6088      5043445F 
 6088      45505F52 
 6088      65636569 
 6088      766500
 6089              	.LASF190:
 6090 088f 48414C5F 		.ascii	"HAL_PCD_GetState\000"
 6090      5043445F 
 6090      47657453 
 6090      74617465 
 6090      00
 6091              	.LASF39:
 6092 08a0 52657365 		.ascii	"Reserved43\000"
 6092      72766564 
 6092      343300
 6093              	.LASF54:
 6094 08ab 44564255 		.ascii	"DVBUSPULSE\000"
ARM GAS  /tmp/ccakcsKX.s 			page 115


 6094      5350554C 
 6094      534500
 6095              	.LASF139:
 6096 08b6 6C706D5F 		.ascii	"lpm_active\000"
 6096      61637469 
 6096      766500
 6097              	.LASF97:
 6098 08c1 6C706D5F 		.ascii	"lpm_enable\000"
 6098      656E6162 
 6098      6C6500
 6099              	.LASF98:
 6100 08cc 62617474 		.ascii	"battery_charging_enable\000"
 6100      6572795F 
 6100      63686172 
 6100      67696E67 
 6100      5F656E61 
 6101              	.LASF75:
 6102 08e4 444F4550 		.ascii	"DOEPDMA\000"
 6102      444D4100 
 6103              	.LASF16:
 6104 08ec 75696E74 		.ascii	"uint32_t\000"
 6104      33325F74 
 6104      00
 6105              	.LASF79:
 6106 08f5 48414C5F 		.ascii	"HAL_ERROR\000"
 6106      4552524F 
 6106      5200
 6107              	.LASF77:
 6108 08ff 63686172 		.ascii	"char\000"
 6108      00
 6109              	.LASF114:
 6110 0904 5553425F 		.ascii	"USB_OTG_EPTypeDef\000"
 6110      4F54475F 
 6110      45505479 
 6110      70654465 
 6110      6600
 6111              	.LASF166:
 6112 0916 48414C5F 		.ascii	"HAL_PCD_SuspendCallback\000"
 6112      5043445F 
 6112      53757370 
 6112      656E6443 
 6112      616C6C62 
 6113              	.LASF135:
 6114 092e 53746174 		.ascii	"State\000"
 6114      6500
 6115              	.LASF4:
 6116 0934 5F5F7569 		.ascii	"__uint16_t\000"
 6116      6E743136 
 6116      5F7400
 6117              	.LASF100:
 6118 093f 7573655F 		.ascii	"use_dedicated_ep1\000"
 6118      64656469 
 6118      63617465 
 6118      645F6570 
 6118      3100
 6119              	.LASF153:
 6120 0951 696E6465 		.ascii	"index\000"
ARM GAS  /tmp/ccakcsKX.s 			page 116


 6120      7800
 6121              	.LASF143:
 6122 0957 5043445F 		.ascii	"PCD_LPM_L0_ACTIVE\000"
 6122      4C504D5F 
 6122      4C305F41 
 6122      43544956 
 6122      4500
 6123              	.LASF149:
 6124 0969 48414C5F 		.ascii	"HAL_PCD_MspDeInit\000"
 6124      5043445F 
 6124      4D737044 
 6124      65496E69 
 6124      7400
 6125              	.LASF131:
 6126 097b 5553425F 		.ascii	"USB_Address\000"
 6126      41646472 
 6126      65737300 
 6127              	.LASF6:
 6128 0987 5F5F696E 		.ascii	"__int32_t\000"
 6128      7433325F 
 6128      7400
 6129              	.LASF27:
 6130 0991 47525846 		.ascii	"GRXFSIZ\000"
 6130      53495A00 
 6131              	.LASF138:
 6132 0999 4245534C 		.ascii	"BESL\000"
 6132      00
 6133              	.LASF93:
 6134 099e 6570305F 		.ascii	"ep0_mps\000"
 6134      6D707300 
 6135              	.LASF148:
 6136 09a6 48414C5F 		.ascii	"HAL_PCD_MspInit\000"
 6136      5043445F 
 6136      4D737049 
 6136      6E697400 
 6137              	.LASF18:
 6138 09b6 474F5447 		.ascii	"GOTGCTL\000"
 6138      43544C00 
 6139              	.LASF160:
 6140 09be 68636C6B 		.ascii	"hclk\000"
 6140      00
 6141              	.LASF108:
 6142 09c3 74785F66 		.ascii	"tx_fifo_num\000"
 6142      69666F5F 
 6142      6E756D00 
 6143              	.LASF44:
 6144 09cf 4443544C 		.ascii	"DCTL\000"
 6144      00
 6145              	.LASF185:
 6146 09d4 48414C5F 		.ascii	"HAL_PCD_EP_SetStall\000"
 6146      5043445F 
 6146      45505F53 
 6146      65745374 
 6146      616C6C00 
 6147              	.LASF53:
 6148 09e8 44564255 		.ascii	"DVBUSDIS\000"
 6148      53444953 
ARM GAS  /tmp/ccakcsKX.s 			page 117


 6148      00
 6149              	.LASF182:
 6150 09f1 70427566 		.ascii	"pBuf\000"
 6150      00
 6151              	.LASF179:
 6152 09f6 65705F74 		.ascii	"ep_type\000"
 6152      79706500 
 6153              	.LASF72:
 6154 09fe 444F4550 		.ascii	"DOEPCTL\000"
 6154      43544C00 
 6155              	.LASF110:
 6156 0a06 78666572 		.ascii	"xfer_buff\000"
 6156      5F627566 
 6156      6600
 6157              	.LASF62:
 6158 0a10 444F5554 		.ascii	"DOUTEP1MSK\000"
 6158      4550314D 
 6158      534B00
 6159              	.LASF95:
 6160 0a1b 536F665F 		.ascii	"Sof_enable\000"
 6160      656E6162 
 6160      6C6500
 6161              	.LASF158:
 6162 0a26 6669666F 		.ascii	"fifoemptymsk\000"
 6162      656D7074 
 6162      796D736B 
 6162      00
 6163              	.LASF187:
 6164 0a33 48414C5F 		.ascii	"HAL_PCD_EP_Flush\000"
 6164      5043445F 
 6164      45505F46 
 6164      6C757368 
 6164      00
 6165              	.LASF171:
 6166 0a44 48414C5F 		.ascii	"HAL_PCD_DisconnectCallback\000"
 6166      5043445F 
 6166      44697363 
 6166      6F6E6E65 
 6166      63744361 
 6167              	.LASF111:
 6168 0a5f 646D615F 		.ascii	"dma_addr\000"
 6168      61646472 
 6168      00
 6169              	.LASF119:
 6170 0a68 48414C5F 		.ascii	"HAL_PCD_STATE_TIMEOUT\000"
 6170      5043445F 
 6170      53544154 
 6170      455F5449 
 6170      4D454F55 
 6171              	.LASF168:
 6172 0a7e 48414C5F 		.ascii	"HAL_PCD_ISOOUTIncompleteCallback\000"
 6172      5043445F 
 6172      49534F4F 
 6172      5554496E 
 6172      636F6D70 
 6173              	.LASF13:
 6174 0a9f 75696E74 		.ascii	"uint8_t\000"
ARM GAS  /tmp/ccakcsKX.s 			page 118


 6174      385F7400 
 6175              	.LASF48:
 6176 0aa7 444F4550 		.ascii	"DOEPMSK\000"
 6176      4D534B00 
 6177              	.LASF17:
 6178 0aaf 73697A65 		.ascii	"sizetype\000"
 6178      74797065 
 6178      00
 6179              	.LASF31:
 6180 0ab8 47434346 		.ascii	"GCCFG\000"
 6180      4700
 6181              	.LASF69:
 6182 0abe 44545846 		.ascii	"DTXFSTS\000"
 6182      53545300 
 6183              	.LASF58:
 6184 0ac6 44454143 		.ascii	"DEACHMSK\000"
 6184      484D534B 
 6184      00
 6185              	.LASF83:
 6186 0acf 48414C5F 		.ascii	"HAL_UNLOCKED\000"
 6186      554E4C4F 
 6186      434B4544 
 6186      00
 6187              	.LASF41:
 6188 0adc 44494550 		.ascii	"DIEPTXF\000"
 6188      54584600 
 6189              	.LASF140:
 6190 0ae4 62617474 		.ascii	"battery_charging_active\000"
 6190      6572795F 
 6190      63686172 
 6190      67696E67 
 6190      5F616374 
 6191              	.LASF96:
 6192 0afc 6C6F775F 		.ascii	"low_power_enable\000"
 6192      706F7765 
 6192      725F656E 
 6192      61626C65 
 6192      00
 6193              	.LASF29:
 6194 0b0d 484E5054 		.ascii	"HNPTXSTS\000"
 6194      58535453 
 6194      00
 6195              	.LASF115:
 6196 0b16 48414C5F 		.ascii	"HAL_PCD_STATE_RESET\000"
 6196      5043445F 
 6196      53544154 
 6196      455F5245 
 6196      53455400 
 6197              	.LASF73:
 6198 0b2a 444F4550 		.ascii	"DOEPINT\000"
 6198      494E5400 
 6199              		.ident	"GCC: (GNU Tools for ARM Embedded Processors) 4.8.4 20140526 (release) [ARM/embedded-4_8-br
ARM GAS  /tmp/ccakcsKX.s 			page 119


DEFINED SYMBOLS
                            *ABS*:00000000 stm32l4xx_hal_pcd.c
     /tmp/ccakcsKX.s:18     .text:00000000 $t
     /tmp/ccakcsKX.s:24     .text:00000000 HAL_PCD_Init
     /tmp/ccakcsKX.s:404    .text:00000280 HAL_PCD_MspInit
     /tmp/ccakcsKX.s:353    .text:00000240 HAL_PCD_DeInit
     /tmp/ccakcsKX.s:506    .text:000002f0 HAL_PCD_Stop
     /tmp/ccakcsKX.s:427    .text:00000290 HAL_PCD_MspDeInit
     /tmp/ccakcsKX.s:450    .text:000002a0 HAL_PCD_Start
     /tmp/ccakcsKX.s:567    .text:00000340 HAL_PCD_IRQHandler
     /tmp/ccakcsKX.s:1817   .text:00000ca0 HAL_PCD_DataOutStageCallback
     /tmp/ccakcsKX.s:1867   .text:00000cc0 HAL_PCD_SetupStageCallback
     /tmp/ccakcsKX.s:873    .text:00000580 $d
     /tmp/ccakcsKX.s:876    .text:00000584 $t
     /tmp/ccakcsKX.s:1842   .text:00000cb0 HAL_PCD_DataInStageCallback
     /tmp/ccakcsKX.s:3106   .text:00001370 PCD_WriteEmptyTxFifo
     /tmp/ccakcsKX.s:1959   .text:00000d00 HAL_PCD_ResumeCallback
     /tmp/ccakcsKX.s:1936   .text:00000cf0 HAL_PCD_SuspendCallback
     /tmp/ccakcsKX.s:1913   .text:00000ce0 HAL_PCD_ResetCallback
     /tmp/ccakcsKX.s:1637   .text:00000b38 $d
     /tmp/ccakcsKX.s:1649   .text:00000b60 $t
     /tmp/ccakcsKX.s:1890   .text:00000cd0 HAL_PCD_SOFCallback
     /tmp/ccakcsKX.s:2007   .text:00000d20 HAL_PCD_ISOINIncompleteCallback
     /tmp/ccakcsKX.s:1982   .text:00000d10 HAL_PCD_ISOOUTIncompleteCallback
     /tmp/ccakcsKX.s:2032   .text:00000d30 HAL_PCD_ConnectCallback
     /tmp/ccakcsKX.s:2055   .text:00000d40 HAL_PCD_DisconnectCallback
     /tmp/ccakcsKX.s:2078   .text:00000d50 HAL_PCD_DevConnect
     /tmp/ccakcsKX.s:2129   .text:00000d90 HAL_PCD_DevDisconnect
     /tmp/ccakcsKX.s:2180   .text:00000dd0 HAL_PCD_SetAddress
     /tmp/ccakcsKX.s:2239   .text:00000e20 HAL_PCD_EP_Open
     /tmp/ccakcsKX.s:2352   .text:00000ee0 HAL_PCD_EP_Close
     /tmp/ccakcsKX.s:2453   .text:00000f80 HAL_PCD_EP_Receive
     /tmp/ccakcsKX.s:2567   .text:00001040 HAL_PCD_EP_GetRxCount
     /tmp/ccakcsKX.s:2605   .text:00001070 HAL_PCD_EP_Transmit
     /tmp/ccakcsKX.s:2720   .text:00001130 HAL_PCD_EP_SetStall
     /tmp/ccakcsKX.s:2842   .text:00001200 HAL_PCD_EP_ClrStall
     /tmp/ccakcsKX.s:2946   .text:000012b0 HAL_PCD_EP_Flush
     /tmp/ccakcsKX.s:3015   .text:00001310 HAL_PCD_ActivateRemoteWakeup
     /tmp/ccakcsKX.s:3047   .text:00001330 HAL_PCD_DeActivateRemoteWakeup
     /tmp/ccakcsKX.s:3079   .text:00001350 HAL_PCD_GetState
                     .debug_frame:00000010 $d

UNDEFINED SYMBOLS
USB_DisableGlobalInt
USB_CoreInit
USB_SetCurrentMode
USB_DevInit
HAL_PCDEx_ActivateLPM
HAL_PCDEx_ActivateBCD
USB_DevDisconnect
USB_DevConnect
USB_EnableGlobalInt
USB_StopDevice
USB_GetMode
USB_ReadInterrupts
USB_ReadDevAllOutEpInterrupt
USB_ReadDevOutEPInterrupt
ARM GAS  /tmp/ccakcsKX.s 			page 120


USB_EP0_OutStart
USB_ReadDevAllInEpInterrupt
USB_ReadDevInEPInterrupt
HAL_PCDEx_LPM_Callback
USB_FlushTxFifo
USB_ActivateSetup
HAL_RCC_GetHCLKFreq
USB_ReadPacket
USB_SetDevAddress
USB_ActivateEndpoint
USB_DeactivateEndpoint
USB_EP0StartXfer
USB_EPStartXfer
USB_EPSetStall
USB_EPClearStall
USB_FlushRxFifo
USB_ActivateRemoteWakeup
USB_DeActivateRemoteWakeup
USB_WritePacket
