ARM GAS  /tmp/ccHKrrP2.s 			page 1


   1              		.syntax unified
   2              		.cpu cortex-m4
   3              		.fpu softvfp
   4              		.eabi_attribute 20, 1
   5              		.eabi_attribute 21, 1
   6              		.eabi_attribute 23, 3
   7              		.eabi_attribute 24, 1
   8              		.eabi_attribute 25, 1
   9              		.eabi_attribute 26, 1
  10              		.eabi_attribute 30, 6
  11              		.eabi_attribute 34, 1
  12              		.eabi_attribute 18, 4
  13              		.thumb
  14              		.file	"stm32l4xx_hal_crc_ex.c"
  15              		.text
  16              	.Ltext0:
  17              		.cfi_sections	.debug_frame
  18              		.align	2
  19              		.p2align 4,,15
  20              		.global	HAL_CRCEx_Polynomial_Set
  21              		.thumb
  22              		.thumb_func
  23              		.type	HAL_CRCEx_Polynomial_Set, %function
  24              	HAL_CRCEx_Polynomial_Set:
  25              	.LFB125:
  26              		.file 1 "../../../../../Drivers/STM32L4xx_HAL_Driver/Src/stm32l4xx_hal_crc_ex.c"
  27              		.loc 1 108 0
  28              		.cfi_startproc
  29              		@ args = 0, pretend = 0, frame = 24
  30              		@ frame_needed = 0, uses_anonymous_args = 0
  31              		@ link register save eliminated.
  32 0000 86B0     		sub	sp, sp, #24
  33              		.cfi_def_cfa_offset 24
  34 0002 0390     		str	r0, [sp, #12]
  35 0004 0291     		str	r1, [sp, #8]
  36 0006 0192     		str	r2, [sp, #4]
  37              		.loc 1 109 0
  38 0008 1F23     		movs	r3, #31
  39 000a 0593     		str	r3, [sp, #20]
  40              		.loc 1 121 0
  41 000c 00BF     		nop
  42              	.L3:
  43              		.loc 1 121 0 is_stmt 0 discriminator 1
  44 000e 059B     		ldr	r3, [sp, #20]
  45 0010 0122     		movs	r2, #1
  46 0012 9A40     		lsls	r2, r2, r3
  47 0014 029B     		ldr	r3, [sp, #8]
  48 0016 1340     		ands	r3, r3, r2
  49 0018 002B     		cmp	r3, #0
  50 001a 04D1     		bne	.L2
  51              		.loc 1 121 0 discriminator 2
  52 001c 059B     		ldr	r3, [sp, #20]
  53 001e 5A1E     		subs	r2, r3, #1
  54 0020 0592     		str	r2, [sp, #20]
  55 0022 002B     		cmp	r3, #0
  56 0024 F3D1     		bne	.L3
  57              	.L2:
ARM GAS  /tmp/ccHKrrP2.s 			page 2


  58              		.loc 1 123 0 is_stmt 1
  59 0026 019B     		ldr	r3, [sp, #4]
  60 0028 182B     		cmp	r3, #24
  61 002a 47D8     		bhi	.L15
  62 002c 01A2     		adr	r2, .L6
  63 002e 52F823F0 		ldr	pc, [r2, r3, lsl #2]
  64 0032 00BF     		.p2align 2
  65              	.L6:
  66 0034 BD000000 		.word	.L15+1
  67 0038 BD000000 		.word	.L15+1
  68 003c BD000000 		.word	.L15+1
  69 0040 BD000000 		.word	.L15+1
  70 0044 BD000000 		.word	.L15+1
  71 0048 BD000000 		.word	.L15+1
  72 004c BD000000 		.word	.L15+1
  73 0050 BD000000 		.word	.L15+1
  74 0054 B1000000 		.word	.L7+1
  75 0058 BD000000 		.word	.L15+1
  76 005c BD000000 		.word	.L15+1
  77 0060 BD000000 		.word	.L15+1
  78 0064 BD000000 		.word	.L15+1
  79 0068 BD000000 		.word	.L15+1
  80 006c BD000000 		.word	.L15+1
  81 0070 BD000000 		.word	.L15+1
  82 0074 A5000000 		.word	.L8+1
  83 0078 BD000000 		.word	.L15+1
  84 007c BD000000 		.word	.L15+1
  85 0080 BD000000 		.word	.L15+1
  86 0084 BD000000 		.word	.L15+1
  87 0088 BD000000 		.word	.L15+1
  88 008c BD000000 		.word	.L15+1
  89 0090 BD000000 		.word	.L15+1
  90 0094 99000000 		.word	.L9+1
  91              		.p2align 1
  92              	.L9:
  93              		.loc 1 126 0
  94 0098 059B     		ldr	r3, [sp, #20]
  95 009a 062B     		cmp	r3, #6
  96 009c 01D9     		bls	.L10
  97              		.loc 1 128 0
  98 009e 0123     		movs	r3, #1
  99 00a0 1CE0     		b	.L11
 100              	.L10:
 101              		.loc 1 130 0
 102 00a2 0CE0     		b	.L12
 103              	.L8:
 104              		.loc 1 132 0
 105 00a4 059B     		ldr	r3, [sp, #20]
 106 00a6 072B     		cmp	r3, #7
 107 00a8 01D9     		bls	.L13
 108              		.loc 1 134 0
 109 00aa 0123     		movs	r3, #1
 110 00ac 16E0     		b	.L11
 111              	.L13:
 112              		.loc 1 136 0
 113 00ae 06E0     		b	.L12
 114              	.L7:
ARM GAS  /tmp/ccHKrrP2.s 			page 3


 115              		.loc 1 138 0
 116 00b0 059B     		ldr	r3, [sp, #20]
 117 00b2 0F2B     		cmp	r3, #15
 118 00b4 01D9     		bls	.L14
 119              		.loc 1 140 0
 120 00b6 0123     		movs	r3, #1
 121 00b8 10E0     		b	.L11
 122              	.L14:
 123              		.loc 1 142 0
 124 00ba 00E0     		b	.L12
 125              	.L15:
 126              		.loc 1 147 0
 127 00bc 00BF     		nop
 128              	.L12:
 129              		.loc 1 151 0
 130 00be 039B     		ldr	r3, [sp, #12]
 131 00c0 1B68     		ldr	r3, [r3]
 132 00c2 029A     		ldr	r2, [sp, #8]
 133 00c4 5A61     		str	r2, [r3, #20]
 134              		.loc 1 154 0
 135 00c6 039B     		ldr	r3, [sp, #12]
 136 00c8 1B68     		ldr	r3, [r3]
 137 00ca 039A     		ldr	r2, [sp, #12]
 138 00cc 1268     		ldr	r2, [r2]
 139 00ce 9268     		ldr	r2, [r2, #8]
 140 00d0 22F01801 		bic	r1, r2, #24
 141 00d4 019A     		ldr	r2, [sp, #4]
 142 00d6 0A43     		orrs	r2, r2, r1
 143 00d8 9A60     		str	r2, [r3, #8]
 144              		.loc 1 157 0
 145 00da 0023     		movs	r3, #0
 146              	.L11:
 147              		.loc 1 158 0
 148 00dc 1846     		mov	r0, r3
 149 00de 06B0     		add	sp, sp, #24
 150              		@ sp needed
 151 00e0 7047     		bx	lr
 152              		.cfi_endproc
 153              	.LFE125:
 154              		.size	HAL_CRCEx_Polynomial_Set, .-HAL_CRCEx_Polynomial_Set
 155 00e2 00BF     		.align	2
 156 00e4 AFF30080 		.p2align 4,,15
 156      AFF30080 
 156      AFF30080 
 157              		.global	HAL_CRCEx_Input_Data_Reverse
 158              		.thumb
 159              		.thumb_func
 160              		.type	HAL_CRCEx_Input_Data_Reverse, %function
 161              	HAL_CRCEx_Input_Data_Reverse:
 162              	.LFB126:
 163              		.loc 1 172 0
 164              		.cfi_startproc
 165              		@ args = 0, pretend = 0, frame = 8
 166              		@ frame_needed = 0, uses_anonymous_args = 0
 167              		@ link register save eliminated.
 168 00f0 82B0     		sub	sp, sp, #8
 169              		.cfi_def_cfa_offset 8
ARM GAS  /tmp/ccHKrrP2.s 			page 4


 170 00f2 0190     		str	r0, [sp, #4]
 171 00f4 0091     		str	r1, [sp]
 172              		.loc 1 177 0
 173 00f6 019B     		ldr	r3, [sp, #4]
 174 00f8 0222     		movs	r2, #2
 175 00fa 5A77     		strb	r2, [r3, #29]
 176              		.loc 1 180 0
 177 00fc 019B     		ldr	r3, [sp, #4]
 178 00fe 1B68     		ldr	r3, [r3]
 179 0100 019A     		ldr	r2, [sp, #4]
 180 0102 1268     		ldr	r2, [r2]
 181 0104 9268     		ldr	r2, [r2, #8]
 182 0106 22F06001 		bic	r1, r2, #96
 183 010a 009A     		ldr	r2, [sp]
 184 010c 0A43     		orrs	r2, r2, r1
 185 010e 9A60     		str	r2, [r3, #8]
 186              		.loc 1 182 0
 187 0110 019B     		ldr	r3, [sp, #4]
 188 0112 0122     		movs	r2, #1
 189 0114 5A77     		strb	r2, [r3, #29]
 190              		.loc 1 185 0
 191 0116 0023     		movs	r3, #0
 192              		.loc 1 186 0
 193 0118 1846     		mov	r0, r3
 194 011a 02B0     		add	sp, sp, #8
 195              		@ sp needed
 196 011c 7047     		bx	lr
 197              		.cfi_endproc
 198              	.LFE126:
 199              		.size	HAL_CRCEx_Input_Data_Reverse, .-HAL_CRCEx_Input_Data_Reverse
 200 011e 00BF     		.align	2
 201              		.p2align 4,,15
 202              		.global	HAL_CRCEx_Output_Data_Reverse
 203              		.thumb
 204              		.thumb_func
 205              		.type	HAL_CRCEx_Output_Data_Reverse, %function
 206              	HAL_CRCEx_Output_Data_Reverse:
 207              	.LFB127:
 208              		.loc 1 198 0
 209              		.cfi_startproc
 210              		@ args = 0, pretend = 0, frame = 8
 211              		@ frame_needed = 0, uses_anonymous_args = 0
 212              		@ link register save eliminated.
 213 0120 82B0     		sub	sp, sp, #8
 214              		.cfi_def_cfa_offset 8
 215 0122 0190     		str	r0, [sp, #4]
 216 0124 0091     		str	r1, [sp]
 217              		.loc 1 203 0
 218 0126 019B     		ldr	r3, [sp, #4]
 219 0128 0222     		movs	r2, #2
 220 012a 5A77     		strb	r2, [r3, #29]
 221              		.loc 1 206 0
 222 012c 019B     		ldr	r3, [sp, #4]
 223 012e 1B68     		ldr	r3, [r3]
 224 0130 019A     		ldr	r2, [sp, #4]
 225 0132 1268     		ldr	r2, [r2]
 226 0134 9268     		ldr	r2, [r2, #8]
ARM GAS  /tmp/ccHKrrP2.s 			page 5


 227 0136 22F08001 		bic	r1, r2, #128
 228 013a 009A     		ldr	r2, [sp]
 229 013c 0A43     		orrs	r2, r2, r1
 230 013e 9A60     		str	r2, [r3, #8]
 231              		.loc 1 209 0
 232 0140 019B     		ldr	r3, [sp, #4]
 233 0142 0122     		movs	r2, #1
 234 0144 5A77     		strb	r2, [r3, #29]
 235              		.loc 1 212 0
 236 0146 0023     		movs	r3, #0
 237              		.loc 1 213 0
 238 0148 1846     		mov	r0, r3
 239 014a 02B0     		add	sp, sp, #8
 240              		@ sp needed
 241 014c 7047     		bx	lr
 242              		.cfi_endproc
 243              	.LFE127:
 244              		.size	HAL_CRCEx_Output_Data_Reverse, .-HAL_CRCEx_Output_Data_Reverse
 245              	.Letext0:
 246              		.file 2 "/nfs/nfs5/home/research/hardware/arm2/gcc-arm-embedded/gcc-arm-none-eabi-4_8-2014q2/arm-n
 247              		.file 3 "/nfs/nfs5/home/research/hardware/arm2/gcc-arm-embedded/gcc-arm-none-eabi-4_8-2014q2/arm-n
 248              		.file 4 "../../../../../../ChibiOS/os/ext/CMSIS/ST/STM32L4xx/stm32l476xx.h"
 249              		.file 5 "../../../../../Drivers/STM32L4xx_HAL_Driver/Inc/stm32l4xx_hal_def.h"
 250              		.file 6 "../../../../../Drivers/STM32L4xx_HAL_Driver/Inc/stm32l4xx_hal_crc.h"
 251              		.file 7 "../../../../../../ChibiOS/os/ext/CMSIS/include/core_cm4.h"