ARM GAS  /tmp/cc24Brez.s 			page 1


   1              		.syntax unified
   2              		.cpu cortex-m4
   3              		.fpu softvfp
   4              		.eabi_attribute 20, 1
   5              		.eabi_attribute 21, 1
   6              		.eabi_attribute 23, 3
   7              		.eabi_attribute 24, 1
   8              		.eabi_attribute 25, 1
   9              		.eabi_attribute 26, 1
  10              		.eabi_attribute 30, 6
  11              		.eabi_attribute 34, 1
  12              		.eabi_attribute 18, 4
  13              		.thumb
  14              		.file	"stm32l4xx_hal_uart_ex.c"
  15              		.text
  16              	.Ltext0:
  17              		.cfi_sections	.debug_frame
  18              		.align	2
  19              		.p2align 4,,15
  20              		.global	HAL_RS485Ex_Init
  21              		.thumb
  22              		.thumb_func
  23              		.type	HAL_RS485Ex_Init, %function
  24              	HAL_RS485Ex_Init:
  25              	.LFB125:
  26              		.file 1 "../../../../../Drivers/STM32L4xx_HAL_Driver/Src/stm32l4xx_hal_uart_ex.c"
  27              		.loc 1 167 0
  28              		.cfi_startproc
  29              		@ args = 0, pretend = 0, frame = 24
  30              		@ frame_needed = 0, uses_anonymous_args = 0
  31 0000 00B5     		push	{lr}
  32              		.cfi_def_cfa_offset 4
  33              		.cfi_offset 14, -4
  34 0002 87B0     		sub	sp, sp, #28
  35              		.cfi_def_cfa_offset 32
  36 0004 0390     		str	r0, [sp, #12]
  37 0006 0291     		str	r1, [sp, #8]
  38 0008 0192     		str	r2, [sp, #4]
  39 000a 0093     		str	r3, [sp]
  40              		.loc 1 168 0
  41 000c 0023     		movs	r3, #0
  42 000e 0593     		str	r3, [sp, #20]
  43              		.loc 1 171 0
  44 0010 039B     		ldr	r3, [sp, #12]
  45 0012 002B     		cmp	r3, #0
  46 0014 01D1     		bne	.L2
  47              		.loc 1 173 0
  48 0016 0123     		movs	r3, #1
  49 0018 59E0     		b	.L3
  50              	.L2:
  51              		.loc 1 187 0
  52 001a 039B     		ldr	r3, [sp, #12]
  53 001c 93F86930 		ldrb	r3, [r3, #105]
  54 0020 DBB2     		uxtb	r3, r3
  55 0022 002B     		cmp	r3, #0
  56 0024 06D1     		bne	.L4
  57              		.loc 1 190 0
ARM GAS  /tmp/cc24Brez.s 			page 2


  58 0026 039B     		ldr	r3, [sp, #12]
  59 0028 0022     		movs	r2, #0
  60 002a 83F86820 		strb	r2, [r3, #104]
  61              		.loc 1 193 0
  62 002e 0398     		ldr	r0, [sp, #12]
  63 0030 FFF7FEFF 		bl	HAL_UART_MspInit
  64              	.L4:
  65              		.loc 1 196 0
  66 0034 039B     		ldr	r3, [sp, #12]
  67 0036 2422     		movs	r2, #36
  68 0038 83F86920 		strb	r2, [r3, #105]
  69              		.loc 1 199 0
  70 003c 039B     		ldr	r3, [sp, #12]
  71 003e 1B68     		ldr	r3, [r3]
  72 0040 039A     		ldr	r2, [sp, #12]
  73 0042 1268     		ldr	r2, [r2]
  74 0044 1268     		ldr	r2, [r2]
  75 0046 22F00102 		bic	r2, r2, #1
  76 004a 1A60     		str	r2, [r3]
  77              		.loc 1 202 0
  78 004c 0398     		ldr	r0, [sp, #12]
  79 004e FFF7FEFF 		bl	UART_SetConfig
  80 0052 0346     		mov	r3, r0
  81 0054 012B     		cmp	r3, #1
  82 0056 01D1     		bne	.L5
  83              		.loc 1 204 0
  84 0058 0123     		movs	r3, #1
  85 005a 38E0     		b	.L3
  86              	.L5:
  87              		.loc 1 207 0
  88 005c 039B     		ldr	r3, [sp, #12]
  89 005e 5B6A     		ldr	r3, [r3, #36]
  90 0060 002B     		cmp	r3, #0
  91 0062 02D0     		beq	.L6
  92              		.loc 1 209 0
  93 0064 0398     		ldr	r0, [sp, #12]
  94 0066 FFF7FEFF 		bl	UART_AdvFeatureConfig
  95              	.L6:
  96              		.loc 1 213 0
  97 006a 039B     		ldr	r3, [sp, #12]
  98 006c 1B68     		ldr	r3, [r3]
  99 006e 039A     		ldr	r2, [sp, #12]
 100 0070 1268     		ldr	r2, [r2]
 101 0072 9268     		ldr	r2, [r2, #8]
 102 0074 42F48042 		orr	r2, r2, #16384
 103 0078 9A60     		str	r2, [r3, #8]
 104              		.loc 1 216 0
 105 007a 039B     		ldr	r3, [sp, #12]
 106 007c 1B68     		ldr	r3, [r3]
 107 007e 039A     		ldr	r2, [sp, #12]
 108 0080 1268     		ldr	r2, [r2]
 109 0082 9268     		ldr	r2, [r2, #8]
 110 0084 22F40041 		bic	r1, r2, #32768
 111 0088 029A     		ldr	r2, [sp, #8]
 112 008a 0A43     		orrs	r2, r2, r1
 113 008c 9A60     		str	r2, [r3, #8]
 114              		.loc 1 219 0
ARM GAS  /tmp/cc24Brez.s 			page 3


 115 008e 019B     		ldr	r3, [sp, #4]
 116 0090 5B05     		lsls	r3, r3, #21
 117 0092 0593     		str	r3, [sp, #20]
 118              		.loc 1 220 0
 119 0094 009B     		ldr	r3, [sp]
 120 0096 1B04     		lsls	r3, r3, #16
 121 0098 059A     		ldr	r2, [sp, #20]
 122 009a 1343     		orrs	r3, r3, r2
 123 009c 0593     		str	r3, [sp, #20]
 124              		.loc 1 221 0
 125 009e 039B     		ldr	r3, [sp, #12]
 126 00a0 1A68     		ldr	r2, [r3]
 127 00a2 039B     		ldr	r3, [sp, #12]
 128 00a4 1B68     		ldr	r3, [r3]
 129 00a6 1B68     		ldr	r3, [r3]
 130 00a8 23F07F73 		bic	r3, r3, #66846720
 131 00ac 23F44033 		bic	r3, r3, #196608
 132 00b0 0599     		ldr	r1, [sp, #20]
 133 00b2 0B43     		orrs	r3, r3, r1
 134 00b4 1360     		str	r3, [r2]
 135              		.loc 1 224 0
 136 00b6 039B     		ldr	r3, [sp, #12]
 137 00b8 1B68     		ldr	r3, [r3]
 138 00ba 039A     		ldr	r2, [sp, #12]
 139 00bc 1268     		ldr	r2, [r2]
 140 00be 1268     		ldr	r2, [r2]
 141 00c0 42F00102 		orr	r2, r2, #1
 142 00c4 1A60     		str	r2, [r3]
 143              		.loc 1 227 0
 144 00c6 0398     		ldr	r0, [sp, #12]
 145 00c8 FFF7FEFF 		bl	UART_CheckIdleState
 146 00cc 0346     		mov	r3, r0
 147              	.L3:
 148              		.loc 1 228 0
 149 00ce 1846     		mov	r0, r3
 150 00d0 07B0     		add	sp, sp, #28
 151              		@ sp needed
 152 00d2 5DF804FB 		ldr	pc, [sp], #4
 153              		.cfi_endproc
 154              	.LFE125:
 155              		.size	HAL_RS485Ex_Init, .-HAL_RS485Ex_Init
 156 00d6 00BF     		.align	2
 157 00d8 AFF30080 		.p2align 4,,15
 157      AFF30080 
 158              		.global	HAL_MultiProcessorEx_AddressLength_Set
 159              		.thumb
 160              		.thumb_func
 161              		.type	HAL_MultiProcessorEx_AddressLength_Set, %function
 162              	HAL_MultiProcessorEx_AddressLength_Set:
 163              	.LFB126:
 164              		.loc 1 275 0
 165              		.cfi_startproc
 166              		@ args = 0, pretend = 0, frame = 8
 167              		@ frame_needed = 0, uses_anonymous_args = 0
 168 00e0 00B5     		push	{lr}
 169              		.cfi_def_cfa_offset 4
 170              		.cfi_offset 14, -4
ARM GAS  /tmp/cc24Brez.s 			page 4


 171 00e2 83B0     		sub	sp, sp, #12
 172              		.cfi_def_cfa_offset 16
 173 00e4 0190     		str	r0, [sp, #4]
 174 00e6 0091     		str	r1, [sp]
 175              		.loc 1 277 0
 176 00e8 019B     		ldr	r3, [sp, #4]
 177 00ea 002B     		cmp	r3, #0
 178 00ec 01D1     		bne	.L8
 179              		.loc 1 279 0
 180 00ee 0123     		movs	r3, #1
 181 00f0 21E0     		b	.L9
 182              	.L8:
 183              		.loc 1 285 0
 184 00f2 019B     		ldr	r3, [sp, #4]
 185 00f4 2422     		movs	r2, #36
 186 00f6 83F86920 		strb	r2, [r3, #105]
 187              		.loc 1 288 0
 188 00fa 019B     		ldr	r3, [sp, #4]
 189 00fc 1B68     		ldr	r3, [r3]
 190 00fe 019A     		ldr	r2, [sp, #4]
 191 0100 1268     		ldr	r2, [r2]
 192 0102 1268     		ldr	r2, [r2]
 193 0104 22F00102 		bic	r2, r2, #1
 194 0108 1A60     		str	r2, [r3]
 195              		.loc 1 291 0
 196 010a 019B     		ldr	r3, [sp, #4]
 197 010c 1B68     		ldr	r3, [r3]
 198 010e 019A     		ldr	r2, [sp, #4]
 199 0110 1268     		ldr	r2, [r2]
 200 0112 5268     		ldr	r2, [r2, #4]
 201 0114 22F01001 		bic	r1, r2, #16
 202 0118 009A     		ldr	r2, [sp]
 203 011a 0A43     		orrs	r2, r2, r1
 204 011c 5A60     		str	r2, [r3, #4]
 205              		.loc 1 294 0
 206 011e 019B     		ldr	r3, [sp, #4]
 207 0120 1B68     		ldr	r3, [r3]
 208 0122 019A     		ldr	r2, [sp, #4]
 209 0124 1268     		ldr	r2, [r2]
 210 0126 1268     		ldr	r2, [r2]
 211 0128 42F00102 		orr	r2, r2, #1
 212 012c 1A60     		str	r2, [r3]
 213              		.loc 1 297 0
 214 012e 0198     		ldr	r0, [sp, #4]
 215 0130 FFF7FEFF 		bl	UART_CheckIdleState
 216 0134 0346     		mov	r3, r0
 217              	.L9:
 218              		.loc 1 298 0
 219 0136 1846     		mov	r0, r3
 220 0138 03B0     		add	sp, sp, #12
 221              		@ sp needed
 222 013a 5DF804FB 		ldr	pc, [sp], #4
 223              		.cfi_endproc
 224              	.LFE126:
 225              		.size	HAL_MultiProcessorEx_AddressLength_Set, .-HAL_MultiProcessorEx_AddressLength_Set
 226 013e 00BF     		.align	2
 227              		.p2align 4,,15
ARM GAS  /tmp/cc24Brez.s 			page 5


 228              		.global	HAL_UARTEx_StopModeWakeUpSourceConfig
 229              		.thumb
 230              		.thumb_func
 231              		.type	HAL_UARTEx_StopModeWakeUpSourceConfig, %function
 232              	HAL_UARTEx_StopModeWakeUpSourceConfig:
 233              	.LFB127:
 234              		.loc 1 312 0
 235              		.cfi_startproc
 236              		@ args = 0, pretend = 0, frame = 24
 237              		@ frame_needed = 0, uses_anonymous_args = 0
 238 0140 00B5     		push	{lr}
 239              		.cfi_def_cfa_offset 4
 240              		.cfi_offset 14, -4
 241 0142 89B0     		sub	sp, sp, #36
 242              		.cfi_def_cfa_offset 40
 243 0144 0590     		str	r0, [sp, #20]
 244 0146 03AB     		add	r3, sp, #12
 245 0148 83E80600 		stmia	r3, {r1, r2}
 246              		.loc 1 313 0
 247 014c 0023     		movs	r3, #0
 248 014e 8DF81F30 		strb	r3, [sp, #31]
 249              		.loc 1 314 0
 250 0152 0023     		movs	r3, #0
 251 0154 0693     		str	r3, [sp, #24]
 252              		.loc 1 322 0
 253 0156 059B     		ldr	r3, [sp, #20]
 254 0158 93F86830 		ldrb	r3, [r3, #104]	@ zero_extendqisi2
 255 015c 012B     		cmp	r3, #1
 256 015e 01D1     		bne	.L11
 257              		.loc 1 322 0 is_stmt 0 discriminator 1
 258 0160 0223     		movs	r3, #2
 259 0162 48E0     		b	.L12
 260              	.L11:
 261              		.loc 1 322 0 discriminator 2
 262 0164 059B     		ldr	r3, [sp, #20]
 263 0166 0122     		movs	r2, #1
 264 0168 83F86820 		strb	r2, [r3, #104]
 265              		.loc 1 324 0 is_stmt 1 discriminator 2
 266 016c 059B     		ldr	r3, [sp, #20]
 267 016e 2422     		movs	r2, #36
 268 0170 83F86920 		strb	r2, [r3, #105]
 269              		.loc 1 327 0 discriminator 2
 270 0174 059B     		ldr	r3, [sp, #20]
 271 0176 1B68     		ldr	r3, [r3]
 272 0178 059A     		ldr	r2, [sp, #20]
 273 017a 1268     		ldr	r2, [r2]
 274 017c 1268     		ldr	r2, [r2]
 275 017e 22F00102 		bic	r2, r2, #1
 276 0182 1A60     		str	r2, [r3]
 277              		.loc 1 330 0 discriminator 2
 278 0184 059B     		ldr	r3, [sp, #20]
 279 0186 1B68     		ldr	r3, [r3]
 280 0188 059A     		ldr	r2, [sp, #20]
 281 018a 1268     		ldr	r2, [r2]
 282 018c 9268     		ldr	r2, [r2, #8]
 283 018e 22F44011 		bic	r1, r2, #3145728
 284 0192 039A     		ldr	r2, [sp, #12]
ARM GAS  /tmp/cc24Brez.s 			page 6


 285 0194 0A43     		orrs	r2, r2, r1
 286 0196 9A60     		str	r2, [r3, #8]
 287              		.loc 1 332 0 discriminator 2
 288 0198 039B     		ldr	r3, [sp, #12]
 289 019a 002B     		cmp	r3, #0
 290 019c 05D1     		bne	.L13
 291              		.loc 1 334 0
 292 019e 0598     		ldr	r0, [sp, #20]
 293 01a0 03AB     		add	r3, sp, #12
 294 01a2 93E80600 		ldmia	r3, {r1, r2}
 295 01a6 00F083F8 		bl	UARTEx_Wakeup_AddressConfig
 296              	.L13:
 297              		.loc 1 338 0
 298 01aa 059B     		ldr	r3, [sp, #20]
 299 01ac 1B68     		ldr	r3, [r3]
 300 01ae 059A     		ldr	r2, [sp, #20]
 301 01b0 1268     		ldr	r2, [r2]
 302 01b2 1268     		ldr	r2, [r2]
 303 01b4 42F00102 		orr	r2, r2, #1
 304 01b8 1A60     		str	r2, [r3]
 305              		.loc 1 341 0
 306 01ba FFF7FEFF 		bl	HAL_GetTick
 307 01be 0690     		str	r0, [sp, #24]
 308              		.loc 1 344 0
 309 01c0 6FF07E43 		mvn	r3, #-33554432
 310 01c4 0093     		str	r3, [sp]
 311 01c6 0598     		ldr	r0, [sp, #20]
 312 01c8 4FF48001 		mov	r1, #4194304
 313 01cc 0022     		movs	r2, #0
 314 01ce 069B     		ldr	r3, [sp, #24]
 315 01d0 FFF7FEFF 		bl	UART_WaitOnFlagUntilTimeout
 316 01d4 0346     		mov	r3, r0
 317 01d6 002B     		cmp	r3, #0
 318 01d8 03D0     		beq	.L14
 319              		.loc 1 346 0
 320 01da 0323     		movs	r3, #3
 321 01dc 8DF81F30 		strb	r3, [sp, #31]
 322 01e0 03E0     		b	.L15
 323              	.L14:
 324              		.loc 1 351 0
 325 01e2 059B     		ldr	r3, [sp, #20]
 326 01e4 2022     		movs	r2, #32
 327 01e6 83F86920 		strb	r2, [r3, #105]
 328              	.L15:
 329              		.loc 1 355 0
 330 01ea 059B     		ldr	r3, [sp, #20]
 331 01ec 0022     		movs	r2, #0
 332 01ee 83F86820 		strb	r2, [r3, #104]
 333              		.loc 1 357 0
 334 01f2 9DF81F30 		ldrb	r3, [sp, #31]	@ zero_extendqisi2
 335              	.L12:
 336              		.loc 1 358 0
 337 01f6 1846     		mov	r0, r3
 338 01f8 09B0     		add	sp, sp, #36
 339              		@ sp needed
 340 01fa 5DF804FB 		ldr	pc, [sp], #4
 341              		.cfi_endproc
ARM GAS  /tmp/cc24Brez.s 			page 7


 342              	.LFE127:
 343              		.size	HAL_UARTEx_StopModeWakeUpSourceConfig, .-HAL_UARTEx_StopModeWakeUpSourceConfig
 344 01fe 00BF     		.align	2
 345              		.p2align 4,,15
 346              		.global	HAL_UARTEx_EnableStopMode
 347              		.thumb
 348              		.thumb_func
 349              		.type	HAL_UARTEx_EnableStopMode, %function
 350              	HAL_UARTEx_EnableStopMode:
 351              	.LFB128:
 352              		.loc 1 368 0
 353              		.cfi_startproc
 354              		@ args = 0, pretend = 0, frame = 8
 355              		@ frame_needed = 0, uses_anonymous_args = 0
 356              		@ link register save eliminated.
 357 0200 82B0     		sub	sp, sp, #8
 358              		.cfi_def_cfa_offset 8
 359 0202 0190     		str	r0, [sp, #4]
 360              		.loc 1 370 0
 361 0204 019B     		ldr	r3, [sp, #4]
 362 0206 93F86830 		ldrb	r3, [r3, #104]	@ zero_extendqisi2
 363 020a 012B     		cmp	r3, #1
 364 020c 01D1     		bne	.L17
 365              		.loc 1 370 0 is_stmt 0 discriminator 1
 366 020e 0223     		movs	r3, #2
 367 0210 18E0     		b	.L18
 368              	.L17:
 369              		.loc 1 370 0 discriminator 2
 370 0212 019B     		ldr	r3, [sp, #4]
 371 0214 0122     		movs	r2, #1
 372 0216 83F86820 		strb	r2, [r3, #104]
 373              		.loc 1 372 0 is_stmt 1 discriminator 2
 374 021a 019B     		ldr	r3, [sp, #4]
 375 021c 2422     		movs	r2, #36
 376 021e 83F86920 		strb	r2, [r3, #105]
 377              		.loc 1 375 0 discriminator 2
 378 0222 019B     		ldr	r3, [sp, #4]
 379 0224 1B68     		ldr	r3, [r3]
 380 0226 019A     		ldr	r2, [sp, #4]
 381 0228 1268     		ldr	r2, [r2]
 382 022a 1268     		ldr	r2, [r2]
 383 022c 42F00202 		orr	r2, r2, #2
 384 0230 1A60     		str	r2, [r3]
 385              		.loc 1 377 0 discriminator 2
 386 0232 019B     		ldr	r3, [sp, #4]
 387 0234 2022     		movs	r2, #32
 388 0236 83F86920 		strb	r2, [r3, #105]
 389              		.loc 1 380 0 discriminator 2
 390 023a 019B     		ldr	r3, [sp, #4]
 391 023c 0022     		movs	r2, #0
 392 023e 83F86820 		strb	r2, [r3, #104]
 393              		.loc 1 382 0 discriminator 2
 394 0242 0023     		movs	r3, #0
 395              	.L18:
 396              		.loc 1 383 0
 397 0244 1846     		mov	r0, r3
 398 0246 02B0     		add	sp, sp, #8
ARM GAS  /tmp/cc24Brez.s 			page 8


 399              		@ sp needed
 400 0248 7047     		bx	lr
 401              		.cfi_endproc
 402              	.LFE128:
 403              		.size	HAL_UARTEx_EnableStopMode, .-HAL_UARTEx_EnableStopMode
 404 024a 00BF     		.align	2
 405 024c AFF30080 		.p2align 4,,15
 406              		.global	HAL_UARTEx_DisableStopMode
 407              		.thumb
 408              		.thumb_func
 409              		.type	HAL_UARTEx_DisableStopMode, %function
 410              	HAL_UARTEx_DisableStopMode:
 411              	.LFB129:
 412              		.loc 1 391 0
 413              		.cfi_startproc
 414              		@ args = 0, pretend = 0, frame = 8
 415              		@ frame_needed = 0, uses_anonymous_args = 0
 416              		@ link register save eliminated.
 417 0250 82B0     		sub	sp, sp, #8
 418              		.cfi_def_cfa_offset 8
 419 0252 0190     		str	r0, [sp, #4]
 420              		.loc 1 393 0
 421 0254 019B     		ldr	r3, [sp, #4]
 422 0256 93F86830 		ldrb	r3, [r3, #104]	@ zero_extendqisi2
 423 025a 012B     		cmp	r3, #1
 424 025c 01D1     		bne	.L20
 425              		.loc 1 393 0 is_stmt 0 discriminator 1
 426 025e 0223     		movs	r3, #2
 427 0260 18E0     		b	.L21
 428              	.L20:
 429              		.loc 1 393 0 discriminator 2
 430 0262 019B     		ldr	r3, [sp, #4]
 431 0264 0122     		movs	r2, #1
 432 0266 83F86820 		strb	r2, [r3, #104]
 433              		.loc 1 395 0 is_stmt 1 discriminator 2
 434 026a 019B     		ldr	r3, [sp, #4]
 435 026c 2422     		movs	r2, #36
 436 026e 83F86920 		strb	r2, [r3, #105]
 437              		.loc 1 398 0 discriminator 2
 438 0272 019B     		ldr	r3, [sp, #4]
 439 0274 1B68     		ldr	r3, [r3]
 440 0276 019A     		ldr	r2, [sp, #4]
 441 0278 1268     		ldr	r2, [r2]
 442 027a 1268     		ldr	r2, [r2]
 443 027c 22F00202 		bic	r2, r2, #2
 444 0280 1A60     		str	r2, [r3]
 445              		.loc 1 400 0 discriminator 2
 446 0282 019B     		ldr	r3, [sp, #4]
 447 0284 2022     		movs	r2, #32
 448 0286 83F86920 		strb	r2, [r3, #105]
 449              		.loc 1 403 0 discriminator 2
 450 028a 019B     		ldr	r3, [sp, #4]
 451 028c 0022     		movs	r2, #0
 452 028e 83F86820 		strb	r2, [r3, #104]
 453              		.loc 1 405 0 discriminator 2
 454 0292 0023     		movs	r3, #0
 455              	.L21:
ARM GAS  /tmp/cc24Brez.s 			page 9


 456              		.loc 1 406 0
 457 0294 1846     		mov	r0, r3
 458 0296 02B0     		add	sp, sp, #8
 459              		@ sp needed
 460 0298 7047     		bx	lr
 461              		.cfi_endproc
 462              	.LFE129:
 463              		.size	HAL_UARTEx_DisableStopMode, .-HAL_UARTEx_DisableStopMode
 464 029a 00BF     		.align	2
 465 029c AFF30080 		.p2align 4,,15
 466              		.weak	HAL_UARTEx_WakeupCallback
 467              		.thumb
 468              		.thumb_func
 469              		.type	HAL_UARTEx_WakeupCallback, %function
 470              	HAL_UARTEx_WakeupCallback:
 471              	.LFB130:
 472              		.loc 1 414 0
 473              		.cfi_startproc
 474              		@ args = 0, pretend = 0, frame = 8
 475              		@ frame_needed = 0, uses_anonymous_args = 0
 476              		@ link register save eliminated.
 477 02a0 82B0     		sub	sp, sp, #8
 478              		.cfi_def_cfa_offset 8
 479 02a2 0190     		str	r0, [sp, #4]
 480              		.loc 1 421 0
 481 02a4 02B0     		add	sp, sp, #8
 482              		@ sp needed
 483 02a6 7047     		bx	lr
 484              		.cfi_endproc
 485              	.LFE130:
 486              		.size	HAL_UARTEx_WakeupCallback, .-HAL_UARTEx_WakeupCallback
 487              		.align	2
 488 02a8 AFF30080 		.p2align 4,,15
 488      AFF30080 
 489              		.thumb
 490              		.thumb_func
 491              		.type	UARTEx_Wakeup_AddressConfig, %function
 492              	UARTEx_Wakeup_AddressConfig:
 493              	.LFB131:
 494              		.loc 1 442 0
 495              		.cfi_startproc
 496              		@ args = 0, pretend = 0, frame = 16
 497              		@ frame_needed = 0, uses_anonymous_args = 0
 498              		@ link register save eliminated.
 499 02b0 84B0     		sub	sp, sp, #16
 500              		.cfi_def_cfa_offset 16
 501 02b2 0390     		str	r0, [sp, #12]
 502 02b4 01AB     		add	r3, sp, #4
 503 02b6 83E80600 		stmia	r3, {r1, r2}
 504              		.loc 1 446 0
 505 02ba 039B     		ldr	r3, [sp, #12]
 506 02bc 1B68     		ldr	r3, [r3]
 507 02be 039A     		ldr	r2, [sp, #12]
 508 02c0 1268     		ldr	r2, [r2]
 509 02c2 5268     		ldr	r2, [r2, #4]
 510 02c4 22F01001 		bic	r1, r2, #16
 511 02c8 BDF80820 		ldrh	r2, [sp, #8]
ARM GAS  /tmp/cc24Brez.s 			page 10


 512 02cc 0A43     		orrs	r2, r2, r1
 513 02ce 5A60     		str	r2, [r3, #4]
 514              		.loc 1 449 0
 515 02d0 039B     		ldr	r3, [sp, #12]
 516 02d2 1B68     		ldr	r3, [r3]
 517 02d4 039A     		ldr	r2, [sp, #12]
 518 02d6 1268     		ldr	r2, [r2]
 519 02d8 5268     		ldr	r2, [r2, #4]
 520 02da 22F07F41 		bic	r1, r2, #-16777216
 521 02de 9DF80A20 		ldrb	r2, [sp, #10]	@ zero_extendqisi2
 522 02e2 1206     		lsls	r2, r2, #24
 523 02e4 0A43     		orrs	r2, r2, r1
 524 02e6 5A60     		str	r2, [r3, #4]
 525              		.loc 1 450 0
 526 02e8 04B0     		add	sp, sp, #16
 527              		@ sp needed
 528 02ea 7047     		bx	lr
 529              		.cfi_endproc
 530              	.LFE131:
 531              		.size	UARTEx_Wakeup_AddressConfig, .-UARTEx_Wakeup_AddressConfig
 532              	.Letext0:
 533              		.file 2 "/nfs/nfs5/home/research/hardware/arm2/gcc-arm-embedded/gcc-arm-none-eabi-4_8-2014q2/arm-n
 534              		.file 3 "/nfs/nfs5/home/research/hardware/arm2/gcc-arm-embedded/gcc-arm-none-eabi-4_8-2014q2/arm-n
 535              		.file 4 "../../../../../../ChibiOS/os/ext/CMSIS/ST/STM32L4xx/stm32l476xx.h"
 536              		.file 5 "../../../../../../ChibiOS/os/ext/CMSIS/ST/STM32L4xx/stm32l4xx.h"
 537              		.file 6 "../../../../../Drivers/STM32L4xx_HAL_Driver/Inc/stm32l4xx_hal_def.h"
 538              		.file 7 "../../../../../Drivers/STM32L4xx_HAL_Driver/Inc/stm32l4xx_hal_dma.h"
 539              		.file 8 "../../../../../Drivers/STM32L4xx_HAL_Driver/Inc/stm32l4xx_hal_uart.h"
 540              		.file 9 "../../../../../Drivers/STM32L4xx_HAL_Driver/Inc/stm32l4xx_hal_uart_ex.h"
 541              		.file 10 "../../../../../../ChibiOS/os/ext/CMSIS/include/core_cm4.h"