ARM GAS  /tmp/ccrE41KR.s 			page 1


   1              		.syntax unified
   2              		.cpu cortex-m4
   3              		.fpu softvfp
   4              		.eabi_attribute 20, 1
   5              		.eabi_attribute 21, 1
   6              		.eabi_attribute 23, 3
   7              		.eabi_attribute 24, 1
   8              		.eabi_attribute 25, 1
   9              		.eabi_attribute 26, 1
  10              		.eabi_attribute 30, 6
  11              		.eabi_attribute 34, 1
  12              		.eabi_attribute 18, 4
  13              		.thumb
  14              		.file	"stm32l4xx_hal_cortex.c"
  15              		.text
  16              	.Ltext0:
  17              		.cfi_sections	.debug_frame
  18              		.align	2
  19              		.p2align 4,,15
  20              		.thumb
  21              		.thumb_func
  22              		.type	NVIC_SetPriorityGrouping, %function
  23              	NVIC_SetPriorityGrouping:
  24              	.LFB106:
  25              		.file 1 "../../../../../../ChibiOS/os/ext/CMSIS/include/core_cm4.h"
  26              		.loc 1 1516 0
  27              		.cfi_startproc
  28              		@ args = 0, pretend = 0, frame = 16
  29              		@ frame_needed = 0, uses_anonymous_args = 0
  30              		@ link register save eliminated.
  31 0000 84B0     		sub	sp, sp, #16
  32              		.cfi_def_cfa_offset 16
  33 0002 0190     		str	r0, [sp, #4]
  34              		.loc 1 1518 0
  35 0004 019B     		ldr	r3, [sp, #4]
  36 0006 03F00703 		and	r3, r3, #7
  37 000a 0393     		str	r3, [sp, #12]
  38              		.loc 1 1520 0
  39 000c 0A4B     		ldr	r3, .L2
  40 000e DB68     		ldr	r3, [r3, #12]
  41 0010 0293     		str	r3, [sp, #8]
  42              		.loc 1 1521 0
  43 0012 029A     		ldr	r2, [sp, #8]
  44 0014 4FF6FF03 		movw	r3, #63743
  45 0018 1340     		ands	r3, r3, r2
  46 001a 0293     		str	r3, [sp, #8]
  47              		.loc 1 1524 0
  48 001c 039B     		ldr	r3, [sp, #12]
  49 001e 1A02     		lsls	r2, r3, #8
  50              		.loc 1 1523 0
  51 0020 029B     		ldr	r3, [sp, #8]
  52 0022 1343     		orrs	r3, r3, r2
  53              		.loc 1 1522 0
  54 0024 43F0BF63 		orr	r3, r3, #100139008
  55 0028 43F40033 		orr	r3, r3, #131072
  56 002c 0293     		str	r3, [sp, #8]
  57              		.loc 1 1525 0
ARM GAS  /tmp/ccrE41KR.s 			page 2


  58 002e 024B     		ldr	r3, .L2
  59 0030 029A     		ldr	r2, [sp, #8]
  60 0032 DA60     		str	r2, [r3, #12]
  61              		.loc 1 1526 0
  62 0034 04B0     		add	sp, sp, #16
  63              		@ sp needed
  64 0036 7047     		bx	lr
  65              	.L3:
  66              		.align	2
  67              	.L2:
  68 0038 00ED00E0 		.word	-536810240
  69              		.cfi_endproc
  70              	.LFE106:
  71              		.size	NVIC_SetPriorityGrouping, .-NVIC_SetPriorityGrouping
  72              		.align	2
  73 003c AFF30080 		.p2align 4,,15
  74              		.thumb
  75              		.thumb_func
  76              		.type	NVIC_GetPriorityGrouping, %function
  77              	NVIC_GetPriorityGrouping:
  78              	.LFB107:
  79              		.loc 1 1536 0
  80              		.cfi_startproc
  81              		@ args = 0, pretend = 0, frame = 0
  82              		@ frame_needed = 0, uses_anonymous_args = 0
  83              		@ link register save eliminated.
  84              		.loc 1 1537 0
  85 0040 034B     		ldr	r3, .L6
  86 0042 DB68     		ldr	r3, [r3, #12]
  87 0044 03F4E063 		and	r3, r3, #1792
  88 0048 1B0A     		lsrs	r3, r3, #8
  89              		.loc 1 1538 0
  90 004a 1846     		mov	r0, r3
  91 004c 7047     		bx	lr
  92              	.L7:
  93 004e 00BF     		.align	2
  94              	.L6:
  95 0050 00ED00E0 		.word	-536810240
  96              		.cfi_endproc
  97              	.LFE107:
  98              		.size	NVIC_GetPriorityGrouping, .-NVIC_GetPriorityGrouping
  99              		.align	2
 100 0054 AFF30080 		.p2align 4,,15
 100      AFF30080 
 100      AFF30080 
 101              		.thumb
 102              		.thumb_func
 103              		.type	NVIC_EnableIRQ, %function
 104              	NVIC_EnableIRQ:
 105              	.LFB108:
 106              		.loc 1 1548 0
 107              		.cfi_startproc
 108              		@ args = 0, pretend = 0, frame = 8
 109              		@ frame_needed = 0, uses_anonymous_args = 0
 110              		@ link register save eliminated.
 111 0060 82B0     		sub	sp, sp, #8
 112              		.cfi_def_cfa_offset 8
ARM GAS  /tmp/ccrE41KR.s 			page 3


 113 0062 0346     		mov	r3, r0
 114 0064 8DF80730 		strb	r3, [sp, #7]
 115              		.loc 1 1549 0
 116 0068 074B     		ldr	r3, .L9
 117 006a 9DF90720 		ldrsb	r2, [sp, #7]
 118 006e 5209     		lsrs	r2, r2, #5
 119 0070 9DF80710 		ldrb	r1, [sp, #7]	@ zero_extendqisi2
 120 0074 01F01F01 		and	r1, r1, #31
 121 0078 0120     		movs	r0, #1
 122 007a 00FA01F1 		lsl	r1, r0, r1
 123 007e 43F82210 		str	r1, [r3, r2, lsl #2]
 124              		.loc 1 1550 0
 125 0082 02B0     		add	sp, sp, #8
 126              		@ sp needed
 127 0084 7047     		bx	lr
 128              	.L10:
 129 0086 00BF     		.align	2
 130              	.L9:
 131 0088 00E100E0 		.word	-536813312
 132              		.cfi_endproc
 133              	.LFE108:
 134              		.size	NVIC_EnableIRQ, .-NVIC_EnableIRQ
 135              		.align	2
 136 008c AFF30080 		.p2align 4,,15
 137              		.thumb
 138              		.thumb_func
 139              		.type	NVIC_DisableIRQ, %function
 140              	NVIC_DisableIRQ:
 141              	.LFB109:
 142              		.loc 1 1560 0
 143              		.cfi_startproc
 144              		@ args = 0, pretend = 0, frame = 8
 145              		@ frame_needed = 0, uses_anonymous_args = 0
 146              		@ link register save eliminated.
 147 0090 82B0     		sub	sp, sp, #8
 148              		.cfi_def_cfa_offset 8
 149 0092 0346     		mov	r3, r0
 150 0094 8DF80730 		strb	r3, [sp, #7]
 151              		.loc 1 1561 0
 152 0098 074B     		ldr	r3, .L12
 153 009a 9DF90720 		ldrsb	r2, [sp, #7]
 154 009e 5209     		lsrs	r2, r2, #5
 155 00a0 9DF80710 		ldrb	r1, [sp, #7]	@ zero_extendqisi2
 156 00a4 01F01F01 		and	r1, r1, #31
 157 00a8 0120     		movs	r0, #1
 158 00aa 00FA01F1 		lsl	r1, r0, r1
 159 00ae 2032     		adds	r2, r2, #32
 160 00b0 43F82210 		str	r1, [r3, r2, lsl #2]
 161              		.loc 1 1562 0
 162 00b4 02B0     		add	sp, sp, #8
 163              		@ sp needed
 164 00b6 7047     		bx	lr
 165              	.L13:
 166              		.align	2
 167              	.L12:
 168 00b8 00E100E0 		.word	-536813312
 169              		.cfi_endproc
ARM GAS  /tmp/ccrE41KR.s 			page 4


 170              	.LFE109:
 171              		.size	NVIC_DisableIRQ, .-NVIC_DisableIRQ
 172              		.align	2
 173 00bc AFF30080 		.p2align 4,,15
 174              		.thumb
 175              		.thumb_func
 176              		.type	NVIC_GetPendingIRQ, %function
 177              	NVIC_GetPendingIRQ:
 178              	.LFB110:
 179              		.loc 1 1576 0
 180              		.cfi_startproc
 181              		@ args = 0, pretend = 0, frame = 8
 182              		@ frame_needed = 0, uses_anonymous_args = 0
 183              		@ link register save eliminated.
 184 00c0 82B0     		sub	sp, sp, #8
 185              		.cfi_def_cfa_offset 8
 186 00c2 0346     		mov	r3, r0
 187 00c4 8DF80730 		strb	r3, [sp, #7]
 188              		.loc 1 1577 0
 189 00c8 084B     		ldr	r3, .L16
 190 00ca 9DF90720 		ldrsb	r2, [sp, #7]
 191 00ce 5209     		lsrs	r2, r2, #5
 192 00d0 4032     		adds	r2, r2, #64
 193 00d2 53F82220 		ldr	r2, [r3, r2, lsl #2]
 194 00d6 9DF80730 		ldrb	r3, [sp, #7]	@ zero_extendqisi2
 195 00da 03F01F03 		and	r3, r3, #31
 196 00de 22FA03F3 		lsr	r3, r2, r3
 197 00e2 03F00103 		and	r3, r3, #1
 198              		.loc 1 1578 0
 199 00e6 1846     		mov	r0, r3
 200 00e8 02B0     		add	sp, sp, #8
 201              		@ sp needed
 202 00ea 7047     		bx	lr
 203              	.L17:
 204              		.align	2
 205              	.L16:
 206 00ec 00E100E0 		.word	-536813312
 207              		.cfi_endproc
 208              	.LFE110:
 209              		.size	NVIC_GetPendingIRQ, .-NVIC_GetPendingIRQ
 210              		.align	2
 211              		.p2align 4,,15
 212              		.thumb
 213              		.thumb_func
 214              		.type	NVIC_SetPendingIRQ, %function
 215              	NVIC_SetPendingIRQ:
 216              	.LFB111:
 217              		.loc 1 1588 0
 218              		.cfi_startproc
 219              		@ args = 0, pretend = 0, frame = 8
 220              		@ frame_needed = 0, uses_anonymous_args = 0
 221              		@ link register save eliminated.
 222 00f0 82B0     		sub	sp, sp, #8
 223              		.cfi_def_cfa_offset 8
 224 00f2 0346     		mov	r3, r0
 225 00f4 8DF80730 		strb	r3, [sp, #7]
 226              		.loc 1 1589 0
ARM GAS  /tmp/ccrE41KR.s 			page 5


 227 00f8 074B     		ldr	r3, .L19
 228 00fa 9DF90720 		ldrsb	r2, [sp, #7]
 229 00fe 5209     		lsrs	r2, r2, #5
 230 0100 9DF80710 		ldrb	r1, [sp, #7]	@ zero_extendqisi2
 231 0104 01F01F01 		and	r1, r1, #31
 232 0108 0120     		movs	r0, #1
 233 010a 00FA01F1 		lsl	r1, r0, r1
 234 010e 4032     		adds	r2, r2, #64
 235 0110 43F82210 		str	r1, [r3, r2, lsl #2]
 236              		.loc 1 1590 0
 237 0114 02B0     		add	sp, sp, #8
 238              		@ sp needed
 239 0116 7047     		bx	lr
 240              	.L20:
 241              		.align	2
 242              	.L19:
 243 0118 00E100E0 		.word	-536813312
 244              		.cfi_endproc
 245              	.LFE111:
 246              		.size	NVIC_SetPendingIRQ, .-NVIC_SetPendingIRQ
 247              		.align	2
 248 011c AFF30080 		.p2align 4,,15
 249              		.thumb
 250              		.thumb_func
 251              		.type	NVIC_ClearPendingIRQ, %function
 252              	NVIC_ClearPendingIRQ:
 253              	.LFB112:
 254              		.loc 1 1600 0
 255              		.cfi_startproc
 256              		@ args = 0, pretend = 0, frame = 8
 257              		@ frame_needed = 0, uses_anonymous_args = 0
 258              		@ link register save eliminated.
 259 0120 82B0     		sub	sp, sp, #8
 260              		.cfi_def_cfa_offset 8
 261 0122 0346     		mov	r3, r0
 262 0124 8DF80730 		strb	r3, [sp, #7]
 263              		.loc 1 1601 0
 264 0128 074B     		ldr	r3, .L22
 265 012a 9DF90720 		ldrsb	r2, [sp, #7]
 266 012e 5209     		lsrs	r2, r2, #5
 267 0130 9DF80710 		ldrb	r1, [sp, #7]	@ zero_extendqisi2
 268 0134 01F01F01 		and	r1, r1, #31
 269 0138 0120     		movs	r0, #1
 270 013a 00FA01F1 		lsl	r1, r0, r1
 271 013e 6032     		adds	r2, r2, #96
 272 0140 43F82210 		str	r1, [r3, r2, lsl #2]
 273              		.loc 1 1602 0
 274 0144 02B0     		add	sp, sp, #8
 275              		@ sp needed
 276 0146 7047     		bx	lr
 277              	.L23:
 278              		.align	2
 279              	.L22:
 280 0148 00E100E0 		.word	-536813312
 281              		.cfi_endproc
 282              	.LFE112:
 283              		.size	NVIC_ClearPendingIRQ, .-NVIC_ClearPendingIRQ
ARM GAS  /tmp/ccrE41KR.s 			page 6


 284              		.align	2
 285 014c AFF30080 		.p2align 4,,15
 286              		.thumb
 287              		.thumb_func
 288              		.type	NVIC_GetActive, %function
 289              	NVIC_GetActive:
 290              	.LFB113:
 291              		.loc 1 1615 0
 292              		.cfi_startproc
 293              		@ args = 0, pretend = 0, frame = 8
 294              		@ frame_needed = 0, uses_anonymous_args = 0
 295              		@ link register save eliminated.
 296 0150 82B0     		sub	sp, sp, #8
 297              		.cfi_def_cfa_offset 8
 298 0152 0346     		mov	r3, r0
 299 0154 8DF80730 		strb	r3, [sp, #7]
 300              		.loc 1 1616 0
 301 0158 084B     		ldr	r3, .L26
 302 015a 9DF90720 		ldrsb	r2, [sp, #7]
 303 015e 5209     		lsrs	r2, r2, #5
 304 0160 8032     		adds	r2, r2, #128
 305 0162 53F82220 		ldr	r2, [r3, r2, lsl #2]
 306 0166 9DF80730 		ldrb	r3, [sp, #7]	@ zero_extendqisi2
 307 016a 03F01F03 		and	r3, r3, #31
 308 016e 22FA03F3 		lsr	r3, r2, r3
 309 0172 03F00103 		and	r3, r3, #1
 310              		.loc 1 1617 0
 311 0176 1846     		mov	r0, r3
 312 0178 02B0     		add	sp, sp, #8
 313              		@ sp needed
 314 017a 7047     		bx	lr
 315              	.L27:
 316              		.align	2
 317              	.L26:
 318 017c 00E100E0 		.word	-536813312
 319              		.cfi_endproc
 320              	.LFE113:
 321              		.size	NVIC_GetActive, .-NVIC_GetActive
 322              		.align	2
 323              		.p2align 4,,15
 324              		.thumb
 325              		.thumb_func
 326              		.type	NVIC_SetPriority, %function
 327              	NVIC_SetPriority:
 328              	.LFB114:
 329              		.loc 1 1630 0
 330              		.cfi_startproc
 331              		@ args = 0, pretend = 0, frame = 8
 332              		@ frame_needed = 0, uses_anonymous_args = 0
 333              		@ link register save eliminated.
 334 0180 82B0     		sub	sp, sp, #8
 335              		.cfi_def_cfa_offset 8
 336 0182 0346     		mov	r3, r0
 337 0184 0091     		str	r1, [sp]
 338 0186 8DF80730 		strb	r3, [sp, #7]
 339              		.loc 1 1631 0
 340 018a 9DF90730 		ldrsb	r3, [sp, #7]
ARM GAS  /tmp/ccrE41KR.s 			page 7


 341 018e 002B     		cmp	r3, #0
 342 0190 0CDA     		bge	.L29
 343              		.loc 1 1632 0
 344 0192 0C49     		ldr	r1, .L31
 345 0194 9DF80730 		ldrb	r3, [sp, #7]	@ zero_extendqisi2
 346 0198 03F00F03 		and	r3, r3, #15
 347 019c 043B     		subs	r3, r3, #4
 348 019e 009A     		ldr	r2, [sp]
 349 01a0 D2B2     		uxtb	r2, r2
 350 01a2 1201     		lsls	r2, r2, #4
 351 01a4 D2B2     		uxtb	r2, r2
 352 01a6 0B44     		add	r3, r3, r1
 353 01a8 1A76     		strb	r2, [r3, #24]
 354 01aa 09E0     		b	.L28
 355              	.L29:
 356              		.loc 1 1635 0
 357 01ac 0649     		ldr	r1, .L31+4
 358 01ae 9DF90730 		ldrsb	r3, [sp, #7]
 359 01b2 009A     		ldr	r2, [sp]
 360 01b4 D2B2     		uxtb	r2, r2
 361 01b6 1201     		lsls	r2, r2, #4
 362 01b8 D2B2     		uxtb	r2, r2
 363 01ba 0B44     		add	r3, r3, r1
 364 01bc 83F80023 		strb	r2, [r3, #768]
 365              	.L28:
 366              		.loc 1 1637 0
 367 01c0 02B0     		add	sp, sp, #8
 368              		@ sp needed
 369 01c2 7047     		bx	lr
 370              	.L32:
 371              		.align	2
 372              	.L31:
 373 01c4 00ED00E0 		.word	-536810240
 374 01c8 00E100E0 		.word	-536813312
 375              		.cfi_endproc
 376              	.LFE114:
 377              		.size	NVIC_SetPriority, .-NVIC_SetPriority
 378              		.align	2
 379 01cc AFF30080 		.p2align 4,,15
 380              		.thumb
 381              		.thumb_func
 382              		.type	NVIC_GetPriority, %function
 383              	NVIC_GetPriority:
 384              	.LFB115:
 385              		.loc 1 1652 0
 386              		.cfi_startproc
 387              		@ args = 0, pretend = 0, frame = 8
 388              		@ frame_needed = 0, uses_anonymous_args = 0
 389              		@ link register save eliminated.
 390 01d0 82B0     		sub	sp, sp, #8
 391              		.cfi_def_cfa_offset 8
 392 01d2 0346     		mov	r3, r0
 393 01d4 8DF80730 		strb	r3, [sp, #7]
 394              		.loc 1 1654 0
 395 01d8 9DF90730 		ldrsb	r3, [sp, #7]
 396 01dc 002B     		cmp	r3, #0
 397 01de 0BDA     		bge	.L34
ARM GAS  /tmp/ccrE41KR.s 			page 8


 398              		.loc 1 1655 0
 399 01e0 0B4A     		ldr	r2, .L36
 400 01e2 9DF80730 		ldrb	r3, [sp, #7]	@ zero_extendqisi2
 401 01e6 03F00F03 		and	r3, r3, #15
 402 01ea 043B     		subs	r3, r3, #4
 403 01ec 1344     		add	r3, r3, r2
 404 01ee 1B7E     		ldrb	r3, [r3, #24]
 405 01f0 DBB2     		uxtb	r3, r3
 406 01f2 1B09     		lsrs	r3, r3, #4
 407 01f4 DBB2     		uxtb	r3, r3
 408 01f6 08E0     		b	.L35
 409              	.L34:
 410              		.loc 1 1658 0
 411 01f8 064A     		ldr	r2, .L36+4
 412 01fa 9DF90730 		ldrsb	r3, [sp, #7]
 413 01fe 1344     		add	r3, r3, r2
 414 0200 93F80033 		ldrb	r3, [r3, #768]
 415 0204 DBB2     		uxtb	r3, r3
 416 0206 1B09     		lsrs	r3, r3, #4
 417 0208 DBB2     		uxtb	r3, r3
 418              	.L35:
 419              		.loc 1 1660 0
 420 020a 1846     		mov	r0, r3
 421 020c 02B0     		add	sp, sp, #8
 422              		@ sp needed
 423 020e 7047     		bx	lr
 424              	.L37:
 425              		.align	2
 426              	.L36:
 427 0210 00ED00E0 		.word	-536810240
 428 0214 00E100E0 		.word	-536813312
 429              		.cfi_endproc
 430              	.LFE115:
 431              		.size	NVIC_GetPriority, .-NVIC_GetPriority
 432              		.align	2
 433 0218 AFF30080 		.p2align 4,,15
 433      AFF30080 
 434              		.thumb
 435              		.thumb_func
 436              		.type	NVIC_EncodePriority, %function
 437              	NVIC_EncodePriority:
 438              	.LFB116:
 439              		.loc 1 1676 0
 440              		.cfi_startproc
 441              		@ args = 0, pretend = 0, frame = 32
 442              		@ frame_needed = 0, uses_anonymous_args = 0
 443              		@ link register save eliminated.
 444 0220 88B0     		sub	sp, sp, #32
 445              		.cfi_def_cfa_offset 32
 446 0222 0390     		str	r0, [sp, #12]
 447 0224 0291     		str	r1, [sp, #8]
 448 0226 0192     		str	r2, [sp, #4]
 449              		.loc 1 1677 0
 450 0228 039B     		ldr	r3, [sp, #12]
 451 022a 03F00703 		and	r3, r3, #7
 452 022e 0793     		str	r3, [sp, #28]
 453              		.loc 1 1681 0
ARM GAS  /tmp/ccrE41KR.s 			page 9


 454 0230 079B     		ldr	r3, [sp, #28]
 455 0232 C3F10703 		rsb	r3, r3, #7
 456 0236 042B     		cmp	r3, #4
 457 0238 28BF     		it	cs
 458 023a 0423     		movcs	r3, #4
 459 023c 0693     		str	r3, [sp, #24]
 460              		.loc 1 1682 0
 461 023e 079B     		ldr	r3, [sp, #28]
 462 0240 0433     		adds	r3, r3, #4
 463 0242 062B     		cmp	r3, #6
 464 0244 02D9     		bls	.L39
 465              		.loc 1 1682 0 is_stmt 0 discriminator 1
 466 0246 079B     		ldr	r3, [sp, #28]
 467 0248 033B     		subs	r3, r3, #3
 468 024a 00E0     		b	.L40
 469              	.L39:
 470              		.loc 1 1682 0 discriminator 2
 471 024c 0023     		movs	r3, #0
 472              	.L40:
 473              		.loc 1 1682 0 discriminator 3
 474 024e 0593     		str	r3, [sp, #20]
 475              		.loc 1 1685 0 is_stmt 1 discriminator 3
 476 0250 069B     		ldr	r3, [sp, #24]
 477 0252 0122     		movs	r2, #1
 478 0254 02FA03F3 		lsl	r3, r2, r3
 479 0258 5A1E     		subs	r2, r3, #1
 480 025a 029B     		ldr	r3, [sp, #8]
 481 025c 1A40     		ands	r2, r2, r3
 482 025e 059B     		ldr	r3, [sp, #20]
 483 0260 9A40     		lsls	r2, r2, r3
 484              		.loc 1 1686 0 discriminator 3
 485 0262 059B     		ldr	r3, [sp, #20]
 486 0264 0121     		movs	r1, #1
 487 0266 01FA03F3 		lsl	r3, r1, r3
 488 026a 591E     		subs	r1, r3, #1
 489 026c 019B     		ldr	r3, [sp, #4]
 490 026e 0B40     		ands	r3, r3, r1
 491              		.loc 1 1684 0 discriminator 3
 492 0270 1343     		orrs	r3, r3, r2
 493              		.loc 1 1688 0 discriminator 3
 494 0272 1846     		mov	r0, r3
 495 0274 08B0     		add	sp, sp, #32
 496              		@ sp needed
 497 0276 7047     		bx	lr
 498              		.cfi_endproc
 499              	.LFE116:
 500              		.size	NVIC_EncodePriority, .-NVIC_EncodePriority
 501              		.align	2
 502 0278 AFF30080 		.p2align 4,,15
 502      AFF30080 
 503              		.thumb
 504              		.thumb_func
 505              		.type	NVIC_DecodePriority, %function
 506              	NVIC_DecodePriority:
 507              	.LFB117:
 508              		.loc 1 1704 0
 509              		.cfi_startproc
ARM GAS  /tmp/ccrE41KR.s 			page 10


 510              		@ args = 0, pretend = 0, frame = 32
 511              		@ frame_needed = 0, uses_anonymous_args = 0
 512              		@ link register save eliminated.
 513 0280 88B0     		sub	sp, sp, #32
 514              		.cfi_def_cfa_offset 32
 515 0282 0390     		str	r0, [sp, #12]
 516 0284 0291     		str	r1, [sp, #8]
 517 0286 0192     		str	r2, [sp, #4]
 518 0288 0093     		str	r3, [sp]
 519              		.loc 1 1705 0
 520 028a 029B     		ldr	r3, [sp, #8]
 521 028c 03F00703 		and	r3, r3, #7
 522 0290 0793     		str	r3, [sp, #28]
 523              		.loc 1 1709 0
 524 0292 079B     		ldr	r3, [sp, #28]
 525 0294 C3F10703 		rsb	r3, r3, #7
 526 0298 042B     		cmp	r3, #4
 527 029a 28BF     		it	cs
 528 029c 0423     		movcs	r3, #4
 529 029e 0693     		str	r3, [sp, #24]
 530              		.loc 1 1710 0
 531 02a0 079B     		ldr	r3, [sp, #28]
 532 02a2 0433     		adds	r3, r3, #4
 533 02a4 062B     		cmp	r3, #6
 534 02a6 02D9     		bls	.L43
 535              		.loc 1 1710 0 is_stmt 0 discriminator 1
 536 02a8 079B     		ldr	r3, [sp, #28]
 537 02aa 033B     		subs	r3, r3, #3
 538 02ac 00E0     		b	.L44
 539              	.L43:
 540              		.loc 1 1710 0 discriminator 2
 541 02ae 0023     		movs	r3, #0
 542              	.L44:
 543              		.loc 1 1710 0 discriminator 3
 544 02b0 0593     		str	r3, [sp, #20]
 545              		.loc 1 1712 0 is_stmt 1 discriminator 3
 546 02b2 059B     		ldr	r3, [sp, #20]
 547 02b4 039A     		ldr	r2, [sp, #12]
 548 02b6 DA40     		lsrs	r2, r2, r3
 549 02b8 069B     		ldr	r3, [sp, #24]
 550 02ba 0121     		movs	r1, #1
 551 02bc 01FA03F3 		lsl	r3, r1, r3
 552 02c0 013B     		subs	r3, r3, #1
 553 02c2 1A40     		ands	r2, r2, r3
 554 02c4 019B     		ldr	r3, [sp, #4]
 555 02c6 1A60     		str	r2, [r3]
 556              		.loc 1 1713 0 discriminator 3
 557 02c8 059B     		ldr	r3, [sp, #20]
 558 02ca 0122     		movs	r2, #1
 559 02cc 02FA03F3 		lsl	r3, r2, r3
 560 02d0 5A1E     		subs	r2, r3, #1
 561 02d2 039B     		ldr	r3, [sp, #12]
 562 02d4 1A40     		ands	r2, r2, r3
 563 02d6 009B     		ldr	r3, [sp]
 564 02d8 1A60     		str	r2, [r3]
 565              		.loc 1 1714 0 discriminator 3
 566 02da 08B0     		add	sp, sp, #32
ARM GAS  /tmp/ccrE41KR.s 			page 11


 567              		@ sp needed
 568 02dc 7047     		bx	lr
 569              		.cfi_endproc
 570              	.LFE117:
 571              		.size	NVIC_DecodePriority, .-NVIC_DecodePriority
 572 02de 00BF     		.align	2
 573              		.p2align 4,,15
 574              		.thumb
 575              		.thumb_func
 576              		.type	NVIC_SystemReset, %function
 577              	NVIC_SystemReset:
 578              	.LFB118:
 579              		.loc 1 1722 0
 580              		.cfi_startproc
 581              		@ args = 0, pretend = 0, frame = 0
 582              		@ frame_needed = 0, uses_anonymous_args = 0
 583              		@ link register save eliminated.
 584              	.LBB8:
 585              	.LBB9:
 586              		.file 2 "../../../../../../ChibiOS/os/ext/CMSIS/include/core_cmInstr.h"
 587              		.loc 2 478 0
 588              	@ 478 "../../../../../../ChibiOS/os/ext/CMSIS/include/core_cmInstr.h" 1
 589 02e0 BFF34F8F 		dsb 0xF
 590              	@ 0 "" 2
 591              		.thumb
 592              	.LBE9:
 593              	.LBE8:
 594              		.loc 1 1725 0
 595 02e4 054A     		ldr	r2, .L47
 596              		.loc 1 1726 0
 597 02e6 054B     		ldr	r3, .L47
 598 02e8 DB68     		ldr	r3, [r3, #12]
 599 02ea 03F4E061 		and	r1, r3, #1792
 600              		.loc 1 1725 0
 601 02ee 044B     		ldr	r3, .L47+4
 602 02f0 0B43     		orrs	r3, r3, r1
 603 02f2 D360     		str	r3, [r2, #12]
 604              	.LBB10:
 605              	.LBB11:
 606              		.loc 2 478 0
 607              	@ 478 "../../../../../../ChibiOS/os/ext/CMSIS/include/core_cmInstr.h" 1
 608 02f4 BFF34F8F 		dsb 0xF
 609              	@ 0 "" 2
 610              		.thumb
 611              	.L46:
 612              	.LBE11:
 613              	.LBE10:
 614              	.LBB12:
 615              	.LBB13:
 616              		.loc 2 423 0 discriminator 1
 617              	@ 423 "../../../../../../ChibiOS/os/ext/CMSIS/include/core_cmInstr.h" 1
 618 02f8 00BF     		nop
 619              	@ 0 "" 2
 620              		.thumb
 621              	.LBE13:
 622              	.LBE12:
 623              		.loc 1 1729 0 discriminator 1
ARM GAS  /tmp/ccrE41KR.s 			page 12


 624 02fa FDE7     		b	.L46
 625              	.L48:
 626              		.align	2
 627              	.L47:
 628 02fc 00ED00E0 		.word	-536810240
 629 0300 0400FA05 		.word	100270084
 630              		.cfi_endproc
 631              	.LFE118:
 632              		.size	NVIC_SystemReset, .-NVIC_SystemReset
 633              		.align	2
 634 0304 AFF30080 		.p2align 4,,15
 634      AFF30080 
 634      AFF30080 
 635              		.thumb
 636              		.thumb_func
 637              		.type	SysTick_Config, %function
 638              	SysTick_Config:
 639              	.LFB119:
 640              		.loc 1 1761 0
 641              		.cfi_startproc
 642              		@ args = 0, pretend = 0, frame = 8
 643              		@ frame_needed = 0, uses_anonymous_args = 0
 644 0310 00B5     		push	{lr}
 645              		.cfi_def_cfa_offset 4
 646              		.cfi_offset 14, -4
 647 0312 83B0     		sub	sp, sp, #12
 648              		.cfi_def_cfa_offset 16
 649 0314 0190     		str	r0, [sp, #4]
 650              		.loc 1 1762 0
 651 0316 019B     		ldr	r3, [sp, #4]
 652 0318 013B     		subs	r3, r3, #1
 653 031a B3F1807F 		cmp	r3, #16777216
 654 031e 01D3     		bcc	.L50
 655              		.loc 1 1762 0 is_stmt 0 discriminator 1
 656 0320 0123     		movs	r3, #1
 657 0322 0FE0     		b	.L51
 658              	.L50:
 659              		.loc 1 1764 0 is_stmt 1
 660 0324 094B     		ldr	r3, .L52
 661 0326 019A     		ldr	r2, [sp, #4]
 662 0328 013A     		subs	r2, r2, #1
 663 032a 5A60     		str	r2, [r3, #4]
 664              		.loc 1 1765 0
 665 032c 4FF0FF30 		mov	r0, #-1
 666 0330 0F21     		movs	r1, #15
 667 0332 FFF725FF 		bl	NVIC_SetPriority
 668              		.loc 1 1766 0
 669 0336 054B     		ldr	r3, .L52
 670 0338 0022     		movs	r2, #0
 671 033a 9A60     		str	r2, [r3, #8]
 672              		.loc 1 1767 0
 673 033c 034B     		ldr	r3, .L52
 674 033e 0722     		movs	r2, #7
 675 0340 1A60     		str	r2, [r3]
 676              		.loc 1 1770 0
 677 0342 0023     		movs	r3, #0
 678              	.L51:
ARM GAS  /tmp/ccrE41KR.s 			page 13


 679              		.loc 1 1771 0
 680 0344 1846     		mov	r0, r3
 681 0346 03B0     		add	sp, sp, #12
 682              		@ sp needed
 683 0348 5DF804FB 		ldr	pc, [sp], #4
 684              	.L53:
 685              		.align	2
 686              	.L52:
 687 034c 10E000E0 		.word	-536813552
 688              		.cfi_endproc
 689              	.LFE119:
 690              		.size	SysTick_Config, .-SysTick_Config
 691              		.align	2
 692              		.p2align 4,,15
 693              		.global	HAL_NVIC_SetPriorityGrouping
 694              		.thumb
 695              		.thumb_func
 696              		.type	HAL_NVIC_SetPriorityGrouping, %function
 697              	HAL_NVIC_SetPriorityGrouping:
 698              	.LFB125:
 699              		.file 3 "../../../../../Drivers/STM32L4xx_HAL_Driver/Src/stm32l4xx_hal_cortex.c"
 700              		.loc 3 183 0
 701              		.cfi_startproc
 702              		@ args = 0, pretend = 0, frame = 8
 703              		@ frame_needed = 0, uses_anonymous_args = 0
 704 0350 00B5     		push	{lr}
 705              		.cfi_def_cfa_offset 4
 706              		.cfi_offset 14, -4
 707 0352 83B0     		sub	sp, sp, #12
 708              		.cfi_def_cfa_offset 16
 709 0354 0190     		str	r0, [sp, #4]
 710              		.loc 3 188 0
 711 0356 0198     		ldr	r0, [sp, #4]
 712 0358 FFF752FE 		bl	NVIC_SetPriorityGrouping
 713              		.loc 3 189 0
 714 035c 03B0     		add	sp, sp, #12
 715              		@ sp needed
 716 035e 5DF804FB 		ldr	pc, [sp], #4
 717              		.cfi_endproc
 718              	.LFE125:
 719              		.size	HAL_NVIC_SetPriorityGrouping, .-HAL_NVIC_SetPriorityGrouping
 720 0362 00BF     		.align	2
 721 0364 AFF30080 		.p2align 4,,15
 721      AFF30080 
 721      AFF30080 
 722              		.global	HAL_NVIC_SetPriority
 723              		.thumb
 724              		.thumb_func
 725              		.type	HAL_NVIC_SetPriority, %function
 726              	HAL_NVIC_SetPriority:
 727              	.LFB126:
 728              		.loc 3 205 0
 729              		.cfi_startproc
 730              		@ args = 0, pretend = 0, frame = 24
 731              		@ frame_needed = 0, uses_anonymous_args = 0
 732 0370 00B5     		push	{lr}
 733              		.cfi_def_cfa_offset 4
ARM GAS  /tmp/ccrE41KR.s 			page 14


 734              		.cfi_offset 14, -4
 735 0372 87B0     		sub	sp, sp, #28
 736              		.cfi_def_cfa_offset 32
 737 0374 0346     		mov	r3, r0
 738 0376 0291     		str	r1, [sp, #8]
 739 0378 0192     		str	r2, [sp, #4]
 740 037a 8DF80F30 		strb	r3, [sp, #15]
 741              		.loc 3 206 0
 742 037e 0023     		movs	r3, #0
 743 0380 0593     		str	r3, [sp, #20]
 744              		.loc 3 212 0
 745 0382 FFF75DFE 		bl	NVIC_GetPriorityGrouping
 746 0386 0590     		str	r0, [sp, #20]
 747              		.loc 3 214 0
 748 0388 0598     		ldr	r0, [sp, #20]
 749 038a 0299     		ldr	r1, [sp, #8]
 750 038c 019A     		ldr	r2, [sp, #4]
 751 038e FFF747FF 		bl	NVIC_EncodePriority
 752 0392 0346     		mov	r3, r0
 753 0394 9DF90F20 		ldrsb	r2, [sp, #15]
 754 0398 1046     		mov	r0, r2
 755 039a 1946     		mov	r1, r3
 756 039c FFF7F0FE 		bl	NVIC_SetPriority
 757              		.loc 3 215 0
 758 03a0 07B0     		add	sp, sp, #28
 759              		@ sp needed
 760 03a2 5DF804FB 		ldr	pc, [sp], #4
 761              		.cfi_endproc
 762              	.LFE126:
 763              		.size	HAL_NVIC_SetPriority, .-HAL_NVIC_SetPriority
 764 03a6 00BF     		.align	2
 765 03a8 AFF30080 		.p2align 4,,15
 765      AFF30080 
 766              		.global	HAL_NVIC_EnableIRQ
 767              		.thumb
 768              		.thumb_func
 769              		.type	HAL_NVIC_EnableIRQ, %function
 770              	HAL_NVIC_EnableIRQ:
 771              	.LFB127:
 772              		.loc 3 227 0
 773              		.cfi_startproc
 774              		@ args = 0, pretend = 0, frame = 8
 775              		@ frame_needed = 0, uses_anonymous_args = 0
 776 03b0 00B5     		push	{lr}
 777              		.cfi_def_cfa_offset 4
 778              		.cfi_offset 14, -4
 779 03b2 83B0     		sub	sp, sp, #12
 780              		.cfi_def_cfa_offset 16
 781 03b4 0346     		mov	r3, r0
 782 03b6 8DF80730 		strb	r3, [sp, #7]
 783              		.loc 3 232 0
 784 03ba 9DF90730 		ldrsb	r3, [sp, #7]
 785 03be 1846     		mov	r0, r3
 786 03c0 FFF74EFE 		bl	NVIC_EnableIRQ
 787              		.loc 3 233 0
 788 03c4 03B0     		add	sp, sp, #12
 789              		@ sp needed
ARM GAS  /tmp/ccrE41KR.s 			page 15


 790 03c6 5DF804FB 		ldr	pc, [sp], #4
 791              		.cfi_endproc
 792              	.LFE127:
 793              		.size	HAL_NVIC_EnableIRQ, .-HAL_NVIC_EnableIRQ
 794 03ca 00BF     		.align	2
 795 03cc AFF30080 		.p2align 4,,15
 796              		.global	HAL_NVIC_DisableIRQ
 797              		.thumb
 798              		.thumb_func
 799              		.type	HAL_NVIC_DisableIRQ, %function
 800              	HAL_NVIC_DisableIRQ:
 801              	.LFB128:
 802              		.loc 3 243 0
 803              		.cfi_startproc
 804              		@ args = 0, pretend = 0, frame = 8
 805              		@ frame_needed = 0, uses_anonymous_args = 0
 806 03d0 00B5     		push	{lr}
 807              		.cfi_def_cfa_offset 4
 808              		.cfi_offset 14, -4
 809 03d2 83B0     		sub	sp, sp, #12
 810              		.cfi_def_cfa_offset 16
 811 03d4 0346     		mov	r3, r0
 812 03d6 8DF80730 		strb	r3, [sp, #7]
 813              		.loc 3 248 0
 814 03da 9DF90730 		ldrsb	r3, [sp, #7]
 815 03de 1846     		mov	r0, r3
 816 03e0 FFF756FE 		bl	NVIC_DisableIRQ
 817              		.loc 3 249 0
 818 03e4 03B0     		add	sp, sp, #12
 819              		@ sp needed
 820 03e6 5DF804FB 		ldr	pc, [sp], #4
 821              		.cfi_endproc
 822              	.LFE128:
 823              		.size	HAL_NVIC_DisableIRQ, .-HAL_NVIC_DisableIRQ
 824 03ea 00BF     		.align	2
 825 03ec AFF30080 		.p2align 4,,15
 826              		.global	HAL_NVIC_SystemReset
 827              		.thumb
 828              		.thumb_func
 829              		.type	HAL_NVIC_SystemReset, %function
 830              	HAL_NVIC_SystemReset:
 831              	.LFB129:
 832              		.loc 3 256 0
 833              		.cfi_startproc
 834              		@ args = 0, pretend = 0, frame = 0
 835              		@ frame_needed = 0, uses_anonymous_args = 0
 836 03f0 08B5     		push	{r3, lr}
 837              		.cfi_def_cfa_offset 8
 838              		.cfi_offset 3, -8
 839              		.cfi_offset 14, -4
 840              		.loc 3 258 0
 841 03f2 FFF775FF 		bl	NVIC_SystemReset
 842              		.loc 3 259 0
 843 03f6 08BD     		pop	{r3, pc}
 844              		.cfi_endproc
 845              	.LFE129:
 846              		.size	HAL_NVIC_SystemReset, .-HAL_NVIC_SystemReset
ARM GAS  /tmp/ccrE41KR.s 			page 16


 847              		.align	2
 848 03f8 AFF30080 		.p2align 4,,15
 848      AFF30080 
 849              		.global	HAL_SYSTICK_Config
 850              		.thumb
 851              		.thumb_func
 852              		.type	HAL_SYSTICK_Config, %function
 853              	HAL_SYSTICK_Config:
 854              	.LFB130:
 855              		.loc 3 269 0
 856              		.cfi_startproc
 857              		@ args = 0, pretend = 0, frame = 8
 858              		@ frame_needed = 0, uses_anonymous_args = 0
 859 0400 00B5     		push	{lr}
 860              		.cfi_def_cfa_offset 4
 861              		.cfi_offset 14, -4
 862 0402 83B0     		sub	sp, sp, #12
 863              		.cfi_def_cfa_offset 16
 864 0404 0190     		str	r0, [sp, #4]
 865              		.loc 3 270 0
 866 0406 0198     		ldr	r0, [sp, #4]
 867 0408 FFF782FF 		bl	SysTick_Config
 868 040c 0346     		mov	r3, r0
 869              		.loc 3 271 0
 870 040e 1846     		mov	r0, r3
 871 0410 03B0     		add	sp, sp, #12
 872              		@ sp needed
 873 0412 5DF804FB 		ldr	pc, [sp], #4
 874              		.cfi_endproc
 875              	.LFE130:
 876              		.size	HAL_SYSTICK_Config, .-HAL_SYSTICK_Config
 877 0416 00BF     		.align	2
 878 0418 AFF30080 		.p2align 4,,15
 878      AFF30080 
 879              		.global	HAL_NVIC_GetPriorityGrouping
 880              		.thumb
 881              		.thumb_func
 882              		.type	HAL_NVIC_GetPriorityGrouping, %function
 883              	HAL_NVIC_GetPriorityGrouping:
 884              	.LFB131:
 885              		.loc 3 297 0
 886              		.cfi_startproc
 887              		@ args = 0, pretend = 0, frame = 0
 888              		@ frame_needed = 0, uses_anonymous_args = 0
 889 0420 08B5     		push	{r3, lr}
 890              		.cfi_def_cfa_offset 8
 891              		.cfi_offset 3, -8
 892              		.cfi_offset 14, -4
 893              		.loc 3 299 0
 894 0422 FFF70DFE 		bl	NVIC_GetPriorityGrouping
 895 0426 0346     		mov	r3, r0
 896              		.loc 3 300 0
 897 0428 1846     		mov	r0, r3
 898 042a 08BD     		pop	{r3, pc}
 899              		.cfi_endproc
 900              	.LFE131:
 901              		.size	HAL_NVIC_GetPriorityGrouping, .-HAL_NVIC_GetPriorityGrouping
ARM GAS  /tmp/ccrE41KR.s 			page 17


 902              		.align	2
 903 042c AFF30080 		.p2align 4,,15
 904              		.global	HAL_NVIC_GetPriority
 905              		.thumb
 906              		.thumb_func
 907              		.type	HAL_NVIC_GetPriority, %function
 908              	HAL_NVIC_GetPriority:
 909              	.LFB132:
 910              		.loc 3 324 0
 911              		.cfi_startproc
 912              		@ args = 0, pretend = 0, frame = 16
 913              		@ frame_needed = 0, uses_anonymous_args = 0
 914 0430 00B5     		push	{lr}
 915              		.cfi_def_cfa_offset 4
 916              		.cfi_offset 14, -4
 917 0432 85B0     		sub	sp, sp, #20
 918              		.cfi_def_cfa_offset 24
 919 0434 0291     		str	r1, [sp, #8]
 920 0436 0192     		str	r2, [sp, #4]
 921 0438 0093     		str	r3, [sp]
 922 043a 0346     		mov	r3, r0
 923 043c 8DF80F30 		strb	r3, [sp, #15]
 924              		.loc 3 328 0
 925 0440 9DF90F30 		ldrsb	r3, [sp, #15]
 926 0444 1846     		mov	r0, r3
 927 0446 FFF7C3FE 		bl	NVIC_GetPriority
 928 044a 0346     		mov	r3, r0
 929 044c 1846     		mov	r0, r3
 930 044e 0299     		ldr	r1, [sp, #8]
 931 0450 019A     		ldr	r2, [sp, #4]
 932 0452 009B     		ldr	r3, [sp]
 933 0454 FFF714FF 		bl	NVIC_DecodePriority
 934              		.loc 3 329 0
 935 0458 05B0     		add	sp, sp, #20
 936              		@ sp needed
 937 045a 5DF804FB 		ldr	pc, [sp], #4
 938              		.cfi_endproc
 939              	.LFE132:
 940              		.size	HAL_NVIC_GetPriority, .-HAL_NVIC_GetPriority
 941 045e 00BF     		.align	2
 942              		.p2align 4,,15
 943              		.global	HAL_NVIC_SetPendingIRQ
 944              		.thumb
 945              		.thumb_func
 946              		.type	HAL_NVIC_SetPendingIRQ, %function
 947              	HAL_NVIC_SetPendingIRQ:
 948              	.LFB133:
 949              		.loc 3 339 0
 950              		.cfi_startproc
 951              		@ args = 0, pretend = 0, frame = 8
 952              		@ frame_needed = 0, uses_anonymous_args = 0
 953 0460 00B5     		push	{lr}
 954              		.cfi_def_cfa_offset 4
 955              		.cfi_offset 14, -4
 956 0462 83B0     		sub	sp, sp, #12
 957              		.cfi_def_cfa_offset 16
 958 0464 0346     		mov	r3, r0
ARM GAS  /tmp/ccrE41KR.s 			page 18


 959 0466 8DF80730 		strb	r3, [sp, #7]
 960              		.loc 3 341 0
 961 046a 9DF90730 		ldrsb	r3, [sp, #7]
 962 046e 1846     		mov	r0, r3
 963 0470 FFF73EFE 		bl	NVIC_SetPendingIRQ
 964              		.loc 3 342 0
 965 0474 03B0     		add	sp, sp, #12
 966              		@ sp needed
 967 0476 5DF804FB 		ldr	pc, [sp], #4
 968              		.cfi_endproc
 969              	.LFE133:
 970              		.size	HAL_NVIC_SetPendingIRQ, .-HAL_NVIC_SetPendingIRQ
 971 047a 00BF     		.align	2
 972 047c AFF30080 		.p2align 4,,15
 973              		.global	HAL_NVIC_GetPendingIRQ
 974              		.thumb
 975              		.thumb_func
 976              		.type	HAL_NVIC_GetPendingIRQ, %function
 977              	HAL_NVIC_GetPendingIRQ:
 978              	.LFB134:
 979              		.loc 3 354 0
 980              		.cfi_startproc
 981              		@ args = 0, pretend = 0, frame = 8
 982              		@ frame_needed = 0, uses_anonymous_args = 0
 983 0480 00B5     		push	{lr}
 984              		.cfi_def_cfa_offset 4
 985              		.cfi_offset 14, -4
 986 0482 83B0     		sub	sp, sp, #12
 987              		.cfi_def_cfa_offset 16
 988 0484 0346     		mov	r3, r0
 989 0486 8DF80730 		strb	r3, [sp, #7]
 990              		.loc 3 356 0
 991 048a 9DF90730 		ldrsb	r3, [sp, #7]
 992 048e 1846     		mov	r0, r3
 993 0490 FFF716FE 		bl	NVIC_GetPendingIRQ
 994 0494 0346     		mov	r3, r0
 995              		.loc 3 357 0
 996 0496 1846     		mov	r0, r3
 997 0498 03B0     		add	sp, sp, #12
 998              		@ sp needed
 999 049a 5DF804FB 		ldr	pc, [sp], #4
 1000              		.cfi_endproc
 1001              	.LFE134:
 1002              		.size	HAL_NVIC_GetPendingIRQ, .-HAL_NVIC_GetPendingIRQ
 1003 049e 00BF     		.align	2
 1004              		.p2align 4,,15
 1005              		.global	HAL_NVIC_ClearPendingIRQ
 1006              		.thumb
 1007              		.thumb_func
 1008              		.type	HAL_NVIC_ClearPendingIRQ, %function
 1009              	HAL_NVIC_ClearPendingIRQ:
 1010              	.LFB135:
 1011              		.loc 3 367 0
 1012              		.cfi_startproc
 1013              		@ args = 0, pretend = 0, frame = 8
 1014              		@ frame_needed = 0, uses_anonymous_args = 0
 1015 04a0 00B5     		push	{lr}
ARM GAS  /tmp/ccrE41KR.s 			page 19


 1016              		.cfi_def_cfa_offset 4
 1017              		.cfi_offset 14, -4
 1018 04a2 83B0     		sub	sp, sp, #12
 1019              		.cfi_def_cfa_offset 16
 1020 04a4 0346     		mov	r3, r0
 1021 04a6 8DF80730 		strb	r3, [sp, #7]
 1022              		.loc 3 369 0
 1023 04aa 9DF90730 		ldrsb	r3, [sp, #7]
 1024 04ae 1846     		mov	r0, r3
 1025 04b0 FFF736FE 		bl	NVIC_ClearPendingIRQ
 1026              		.loc 3 370 0
 1027 04b4 03B0     		add	sp, sp, #12
 1028              		@ sp needed
 1029 04b6 5DF804FB 		ldr	pc, [sp], #4
 1030              		.cfi_endproc
 1031              	.LFE135:
 1032              		.size	HAL_NVIC_ClearPendingIRQ, .-HAL_NVIC_ClearPendingIRQ
 1033 04ba 00BF     		.align	2
 1034 04bc AFF30080 		.p2align 4,,15
 1035              		.global	HAL_NVIC_GetActive
 1036              		.thumb
 1037              		.thumb_func
 1038              		.type	HAL_NVIC_GetActive, %function
 1039              	HAL_NVIC_GetActive:
 1040              	.LFB136:
 1041              		.loc 3 381 0
 1042              		.cfi_startproc
 1043              		@ args = 0, pretend = 0, frame = 8
 1044              		@ frame_needed = 0, uses_anonymous_args = 0
 1045 04c0 00B5     		push	{lr}
 1046              		.cfi_def_cfa_offset 4
 1047              		.cfi_offset 14, -4
 1048 04c2 83B0     		sub	sp, sp, #12
 1049              		.cfi_def_cfa_offset 16
 1050 04c4 0346     		mov	r3, r0
 1051 04c6 8DF80730 		strb	r3, [sp, #7]
 1052              		.loc 3 383 0
 1053 04ca 9DF90730 		ldrsb	r3, [sp, #7]
 1054 04ce 1846     		mov	r0, r3
 1055 04d0 FFF73EFE 		bl	NVIC_GetActive
 1056 04d4 0346     		mov	r3, r0
 1057              		.loc 3 384 0
 1058 04d6 1846     		mov	r0, r3
 1059 04d8 03B0     		add	sp, sp, #12
 1060              		@ sp needed
 1061 04da 5DF804FB 		ldr	pc, [sp], #4
 1062              		.cfi_endproc
 1063              	.LFE136:
 1064              		.size	HAL_NVIC_GetActive, .-HAL_NVIC_GetActive
 1065 04de 00BF     		.align	2
 1066              		.p2align 4,,15
 1067              		.global	HAL_SYSTICK_CLKSourceConfig
 1068              		.thumb
 1069              		.thumb_func
 1070              		.type	HAL_SYSTICK_CLKSourceConfig, %function
 1071              	HAL_SYSTICK_CLKSourceConfig:
 1072              	.LFB137:
ARM GAS  /tmp/ccrE41KR.s 			page 20


 1073              		.loc 3 395 0
 1074              		.cfi_startproc
 1075              		@ args = 0, pretend = 0, frame = 8
 1076              		@ frame_needed = 0, uses_anonymous_args = 0
 1077              		@ link register save eliminated.
 1078 04e0 82B0     		sub	sp, sp, #8
 1079              		.cfi_def_cfa_offset 8
 1080 04e2 0190     		str	r0, [sp, #4]
 1081              		.loc 3 398 0
 1082 04e4 019B     		ldr	r3, [sp, #4]
 1083 04e6 042B     		cmp	r3, #4
 1084 04e8 06D1     		bne	.L71
 1085              		.loc 3 400 0
 1086 04ea 074B     		ldr	r3, .L73
 1087 04ec 064A     		ldr	r2, .L73
 1088 04ee 1268     		ldr	r2, [r2]
 1089 04f0 42F00402 		orr	r2, r2, #4
 1090 04f4 1A60     		str	r2, [r3]
 1091 04f6 05E0     		b	.L70
 1092              	.L71:
 1093              		.loc 3 404 0
 1094 04f8 034B     		ldr	r3, .L73
 1095 04fa 034A     		ldr	r2, .L73
 1096 04fc 1268     		ldr	r2, [r2]
 1097 04fe 22F00402 		bic	r2, r2, #4
 1098 0502 1A60     		str	r2, [r3]
 1099              	.L70:
 1100              		.loc 3 406 0
 1101 0504 02B0     		add	sp, sp, #8
 1102              		@ sp needed
 1103 0506 7047     		bx	lr
 1104              	.L74:
 1105              		.align	2
 1106              	.L73:
 1107 0508 10E000E0 		.word	-536813552
 1108              		.cfi_endproc
 1109              	.LFE137:
 1110              		.size	HAL_SYSTICK_CLKSourceConfig, .-HAL_SYSTICK_CLKSourceConfig
 1111              		.align	2
 1112 050c AFF30080 		.p2align 4,,15
 1113              		.global	HAL_SYSTICK_IRQHandler
 1114              		.thumb
 1115              		.thumb_func
 1116              		.type	HAL_SYSTICK_IRQHandler, %function
 1117              	HAL_SYSTICK_IRQHandler:
 1118              	.LFB138:
 1119              		.loc 3 413 0
 1120              		.cfi_startproc
 1121              		@ args = 0, pretend = 0, frame = 0
 1122              		@ frame_needed = 0, uses_anonymous_args = 0
 1123 0510 08B5     		push	{r3, lr}
 1124              		.cfi_def_cfa_offset 8
 1125              		.cfi_offset 3, -8
 1126              		.cfi_offset 14, -4
 1127              		.loc 3 414 0
 1128 0512 FFF7FEFF 		bl	HAL_SYSTICK_Callback
 1129              		.loc 3 415 0
ARM GAS  /tmp/ccrE41KR.s 			page 21


 1130 0516 08BD     		pop	{r3, pc}
 1131              		.cfi_endproc
 1132              	.LFE138:
 1133              		.size	HAL_SYSTICK_IRQHandler, .-HAL_SYSTICK_IRQHandler
 1134              		.align	2
 1135 0518 AFF30080 		.p2align 4,,15
 1135      AFF30080 
 1136              		.weak	HAL_SYSTICK_Callback
 1137              		.thumb
 1138              		.thumb_func
 1139              		.type	HAL_SYSTICK_Callback, %function
 1140              	HAL_SYSTICK_Callback:
 1141              	.LFB139:
 1142              		.loc 3 422 0
 1143              		.cfi_startproc
 1144              		@ args = 0, pretend = 0, frame = 0
 1145              		@ frame_needed = 0, uses_anonymous_args = 0
 1146              		@ link register save eliminated.
 1147              		.loc 3 426 0
 1148 0520 7047     		bx	lr
 1149              		.cfi_endproc
 1150              	.LFE139:
 1151              		.size	HAL_SYSTICK_Callback, .-HAL_SYSTICK_Callback
 1152 0522 00BF     		.align	2
 1153 0524 AFF30080 		.p2align 4,,15
 1153      AFF30080 
 1153      AFF30080 
 1154              		.global	HAL_MPU_ConfigRegion
 1155              		.thumb
 1156              		.thumb_func
 1157              		.type	HAL_MPU_ConfigRegion, %function
 1158              	HAL_MPU_ConfigRegion:
 1159              	.LFB140:
 1160              		.loc 3 436 0
 1161              		.cfi_startproc
 1162              		@ args = 0, pretend = 0, frame = 8
 1163              		@ frame_needed = 0, uses_anonymous_args = 0
 1164              		@ link register save eliminated.
 1165 0530 82B0     		sub	sp, sp, #8
 1166              		.cfi_def_cfa_offset 8
 1167 0532 0190     		str	r0, [sp, #4]
 1168              		.loc 3 442 0
 1169 0534 1C4B     		ldr	r3, .L80
 1170 0536 019A     		ldr	r2, [sp, #4]
 1171 0538 5278     		ldrb	r2, [r2, #1]	@ zero_extendqisi2
 1172 053a 9A60     		str	r2, [r3, #8]
 1173              		.loc 3 444 0
 1174 053c 019B     		ldr	r3, [sp, #4]
 1175 053e 1B78     		ldrb	r3, [r3]	@ zero_extendqisi2
 1176 0540 002B     		cmp	r3, #0
 1177 0542 28D0     		beq	.L78
 1178              		.loc 3 456 0
 1179 0544 184B     		ldr	r3, .L80
 1180 0546 019A     		ldr	r2, [sp, #4]
 1181 0548 5268     		ldr	r2, [r2, #4]
 1182 054a DA60     		str	r2, [r3, #12]
 1183              		.loc 3 457 0
ARM GAS  /tmp/ccrE41KR.s 			page 22


 1184 054c 164B     		ldr	r3, .L80
 1185 054e 019A     		ldr	r2, [sp, #4]
 1186 0550 127B     		ldrb	r2, [r2, #12]	@ zero_extendqisi2
 1187 0552 1107     		lsls	r1, r2, #28
 1188              		.loc 3 458 0
 1189 0554 019A     		ldr	r2, [sp, #4]
 1190 0556 D27A     		ldrb	r2, [r2, #11]	@ zero_extendqisi2
 1191 0558 1206     		lsls	r2, r2, #24
 1192              		.loc 3 457 0
 1193 055a 1143     		orrs	r1, r1, r2
 1194              		.loc 3 459 0
 1195 055c 019A     		ldr	r2, [sp, #4]
 1196 055e 927A     		ldrb	r2, [r2, #10]	@ zero_extendqisi2
 1197 0560 D204     		lsls	r2, r2, #19
 1198              		.loc 3 458 0
 1199 0562 1143     		orrs	r1, r1, r2
 1200              		.loc 3 460 0
 1201 0564 019A     		ldr	r2, [sp, #4]
 1202 0566 527B     		ldrb	r2, [r2, #13]	@ zero_extendqisi2
 1203 0568 9204     		lsls	r2, r2, #18
 1204              		.loc 3 459 0
 1205 056a 1143     		orrs	r1, r1, r2
 1206              		.loc 3 461 0
 1207 056c 019A     		ldr	r2, [sp, #4]
 1208 056e 927B     		ldrb	r2, [r2, #14]	@ zero_extendqisi2
 1209 0570 5204     		lsls	r2, r2, #17
 1210              		.loc 3 460 0
 1211 0572 1143     		orrs	r1, r1, r2
 1212              		.loc 3 462 0
 1213 0574 019A     		ldr	r2, [sp, #4]
 1214 0576 D27B     		ldrb	r2, [r2, #15]	@ zero_extendqisi2
 1215 0578 1204     		lsls	r2, r2, #16
 1216              		.loc 3 461 0
 1217 057a 1143     		orrs	r1, r1, r2
 1218              		.loc 3 463 0
 1219 057c 019A     		ldr	r2, [sp, #4]
 1220 057e 527A     		ldrb	r2, [r2, #9]	@ zero_extendqisi2
 1221 0580 1202     		lsls	r2, r2, #8
 1222              		.loc 3 462 0
 1223 0582 1143     		orrs	r1, r1, r2
 1224              		.loc 3 464 0
 1225 0584 019A     		ldr	r2, [sp, #4]
 1226 0586 127A     		ldrb	r2, [r2, #8]	@ zero_extendqisi2
 1227 0588 5200     		lsls	r2, r2, #1
 1228              		.loc 3 463 0
 1229 058a 1143     		orrs	r1, r1, r2
 1230              		.loc 3 465 0
 1231 058c 019A     		ldr	r2, [sp, #4]
 1232 058e 1278     		ldrb	r2, [r2]	@ zero_extendqisi2
 1233              		.loc 3 464 0
 1234 0590 0A43     		orrs	r2, r2, r1
 1235              		.loc 3 457 0
 1236 0592 1A61     		str	r2, [r3, #16]
 1237 0594 05E0     		b	.L77
 1238              	.L78:
 1239              		.loc 3 469 0
 1240 0596 044B     		ldr	r3, .L80
ARM GAS  /tmp/ccrE41KR.s 			page 23


 1241 0598 0022     		movs	r2, #0
 1242 059a DA60     		str	r2, [r3, #12]
 1243              		.loc 3 470 0
 1244 059c 024B     		ldr	r3, .L80
 1245 059e 0022     		movs	r2, #0
 1246 05a0 1A61     		str	r2, [r3, #16]
 1247              	.L77:
 1248              		.loc 3 472 0
 1249 05a2 02B0     		add	sp, sp, #8
 1250              		@ sp needed
 1251 05a4 7047     		bx	lr
 1252              	.L81:
 1253 05a6 00BF     		.align	2
 1254              	.L80:
 1255 05a8 90ED00E0 		.word	-536810096
 1256              		.cfi_endproc
 1257              	.LFE140:
 1258              		.size	HAL_MPU_ConfigRegion, .-HAL_MPU_ConfigRegion
 1259              	.Letext0:
 1260              		.file 4 "../../../../../../ChibiOS/os/ext/CMSIS/ST/STM32L4xx/stm32l476xx.h"
 1261              		.file 5 "/nfs/nfs5/home/research/hardware/arm2/gcc-arm-embedded/gcc-arm-none-eabi-4_8-2014q2/arm-n
 1262              		.file 6 "/nfs/nfs5/home/research/hardware/arm2/gcc-arm-embedded/gcc-arm-none-eabi-4_8-2014q2/arm-n
 1263              		.file 7 "../../../../../../ChibiOS/os/ext/CMSIS/ST/STM32L4xx/stm32l4xx.h"
 1264              		.file 8 "../../../../../Drivers/STM32L4xx_HAL_Driver/Inc/stm32l4xx_hal_cortex.h"