ARM GAS  /tmp/ccjyqKqb.s 			page 1


   1              		.syntax unified
   2              		.cpu cortex-m4
   3              		.fpu softvfp
   4              		.eabi_attribute 20, 1
   5              		.eabi_attribute 21, 1
   6              		.eabi_attribute 23, 3
   7              		.eabi_attribute 24, 1
   8              		.eabi_attribute 25, 1
   9              		.eabi_attribute 26, 1
  10              		.eabi_attribute 30, 6
  11              		.eabi_attribute 34, 1
  12              		.eabi_attribute 18, 4
  13              		.thumb
  14              		.file	"stm32l4xx_hal_dfsdm.c"
  15              		.text
  16              	.Ltext0:
  17              		.cfi_sections	.debug_frame
  18              		.global	v_dfsdm1ChannelCounter
  19              		.bss
  20              		.align	2
  21              		.type	v_dfsdm1ChannelCounter, %object
  22              		.size	v_dfsdm1ChannelCounter, 4
  23              	v_dfsdm1ChannelCounter:
  24 0000 00000000 		.space	4
  25              		.global	a_dfsdm1ChannelHandle
  26              		.align	2
  27              		.type	a_dfsdm1ChannelHandle, %object
  28              		.size	a_dfsdm1ChannelHandle, 32
  29              	a_dfsdm1ChannelHandle:
  30 0004 00000000 		.space	32
  30      00000000 
  30      00000000 
  30      00000000 
  30      00000000 
  31              		.text
  32              		.align	2
  33              		.p2align 4,,15
  34              		.global	HAL_DFSDM_ChannelInit
  35              		.thumb
  36              		.thumb_func
  37              		.type	HAL_DFSDM_ChannelInit, %function
  38              	HAL_DFSDM_ChannelInit:
  39              	.LFB125:
  40              		.file 1 "../../../../../Drivers/STM32L4xx_HAL_Driver/Src/stm32l4xx_hal_dfsdm.c"
  41              		.loc 1 294 0
  42              		.cfi_startproc
  43              		@ args = 0, pretend = 0, frame = 40
  44              		@ frame_needed = 0, uses_anonymous_args = 0
  45 0000 10B5     		push	{r4, lr}
  46              		.cfi_def_cfa_offset 8
  47              		.cfi_offset 4, -8
  48              		.cfi_offset 14, -4
  49 0002 8AB0     		sub	sp, sp, #40
  50              		.cfi_def_cfa_offset 48
  51 0004 0190     		str	r0, [sp, #4]
  52              		.loc 1 296 0
  53 0006 019B     		ldr	r3, [sp, #4]
ARM GAS  /tmp/ccjyqKqb.s 			page 2


  54 0008 002B     		cmp	r3, #0
  55 000a 01D1     		bne	.L2
  56              		.loc 1 298 0
  57 000c 0123     		movs	r3, #1
  58 000e D7E0     		b	.L3
  59              	.L2:
  60              		.loc 1 315 0
  61 0010 019B     		ldr	r3, [sp, #4]
  62 0012 1B68     		ldr	r3, [r3]
  63 0014 1846     		mov	r0, r3
  64 0016 01F003FF 		bl	DFSDM_GetChannelFromInstance
  65 001a 0246     		mov	r2, r0
  66 001c 6A4B     		ldr	r3, .L11
  67 001e 53F82230 		ldr	r3, [r3, r2, lsl #2]
  68 0022 002B     		cmp	r3, #0
  69 0024 01D0     		beq	.L4
  70              		.loc 1 317 0
  71 0026 0123     		movs	r3, #1
  72 0028 CAE0     		b	.L3
  73              	.L4:
  74              		.loc 1 321 0
  75 002a 0198     		ldr	r0, [sp, #4]
  76 002c FFF7FEFF 		bl	HAL_DFSDM_ChannelMspInit
  77              		.loc 1 324 0
  78 0030 664B     		ldr	r3, .L11+4
  79 0032 1B68     		ldr	r3, [r3]
  80 0034 5A1C     		adds	r2, r3, #1
  81 0036 654B     		ldr	r3, .L11+4
  82 0038 1A60     		str	r2, [r3]
  83              		.loc 1 327 0
  84 003a 644B     		ldr	r3, .L11+4
  85 003c 1B68     		ldr	r3, [r3]
  86 003e 012B     		cmp	r3, #1
  87 0040 30D1     		bne	.L5
  88              		.loc 1 331 0
  89 0042 634B     		ldr	r3, .L11+8
  90 0044 624A     		ldr	r2, .L11+8
  91 0046 1268     		ldr	r2, [r2]
  92 0048 22F08042 		bic	r2, r2, #1073741824
  93 004c 1A60     		str	r2, [r3]
  94              		.loc 1 332 0
  95 004e 604B     		ldr	r3, .L11+8
  96 0050 5F4A     		ldr	r2, .L11+8
  97 0052 1168     		ldr	r1, [r2]
  98 0054 019A     		ldr	r2, [sp, #4]
  99 0056 9268     		ldr	r2, [r2, #8]
 100 0058 0A43     		orrs	r2, r2, r1
 101 005a 1A60     		str	r2, [r3]
 102              		.loc 1 335 0
 103 005c 5C4B     		ldr	r3, .L11+8
 104 005e 5C4A     		ldr	r2, .L11+8
 105 0060 1268     		ldr	r2, [r2]
 106 0062 22F47F02 		bic	r2, r2, #16711680
 107 0066 1A60     		str	r2, [r3]
 108              		.loc 1 336 0
 109 0068 019B     		ldr	r3, [sp, #4]
 110 006a 1B79     		ldrb	r3, [r3, #4]	@ zero_extendqisi2
ARM GAS  /tmp/ccjyqKqb.s 			page 3


 111 006c 012B     		cmp	r3, #1
 112 006e 13D1     		bne	.L6
 113              		.loc 1 340 0
 114 0070 574B     		ldr	r3, .L11+8
 115 0072 574A     		ldr	r2, .L11+8
 116 0074 1168     		ldr	r1, [r2]
 117 0076 019A     		ldr	r2, [sp, #4]
 118 0078 D268     		ldr	r2, [r2, #12]
 119 007a 501E     		subs	r0, r2, #1
 120 007c 4FF47F02 		mov	r2, #16711680
 121 0080 0992     		str	r2, [sp, #36]
 122              	.LBB75:
 123              	.LBB76:
 124              		.file 2 "../../../../../../ChibiOS/os/ext/CMSIS/include/core_cmInstr.h"
 125              		.loc 2 586 0
 126 0082 099A     		ldr	r2, [sp, #36]
 127              	@ 586 "../../../../../../ChibiOS/os/ext/CMSIS/include/core_cmInstr.h" 1
 128 0084 92FAA2F2 		rbit r2, r2
 129              	@ 0 "" 2
 130              		.thumb
 131 0088 0892     		str	r2, [sp, #32]
 132              		.loc 2 599 0
 133 008a 089A     		ldr	r2, [sp, #32]
 134              	.LBE76:
 135              	.LBE75:
 136              		.loc 1 341 0
 137 008c B2FA82F2 		clz	r2, r2
 138              		.loc 1 340 0
 139 0090 00FA02F2 		lsl	r2, r0, r2
 140 0094 0A43     		orrs	r2, r2, r1
 141 0096 1A60     		str	r2, [r3]
 142              	.L6:
 143              		.loc 1 345 0
 144 0098 4D4B     		ldr	r3, .L11+8
 145 009a 4D4A     		ldr	r2, .L11+8
 146 009c 1268     		ldr	r2, [r2]
 147 009e 42F00042 		orr	r2, r2, #-2147483648
 148 00a2 1A60     		str	r2, [r3]
 149              	.L5:
 150              		.loc 1 349 0
 151 00a4 019B     		ldr	r3, [sp, #4]
 152 00a6 1B68     		ldr	r3, [r3]
 153 00a8 019A     		ldr	r2, [sp, #4]
 154 00aa 1268     		ldr	r2, [r2]
 155 00ac 1268     		ldr	r2, [r2]
 156 00ae 22F47142 		bic	r2, r2, #61696
 157 00b2 1A60     		str	r2, [r3]
 158              		.loc 1 351 0
 159 00b4 019B     		ldr	r3, [sp, #4]
 160 00b6 1B68     		ldr	r3, [r3]
 161 00b8 019A     		ldr	r2, [sp, #4]
 162 00ba 1268     		ldr	r2, [r2]
 163 00bc 1168     		ldr	r1, [r2]
 164 00be 019A     		ldr	r2, [sp, #4]
 165 00c0 1069     		ldr	r0, [r2, #16]
 166              		.loc 1 352 0
 167 00c2 019A     		ldr	r2, [sp, #4]
ARM GAS  /tmp/ccjyqKqb.s 			page 4


 168 00c4 5269     		ldr	r2, [r2, #20]
 169              		.loc 1 351 0
 170 00c6 1043     		orrs	r0, r0, r2
 171              		.loc 1 353 0
 172 00c8 019A     		ldr	r2, [sp, #4]
 173 00ca 9269     		ldr	r2, [r2, #24]
 174              		.loc 1 352 0
 175 00cc 0243     		orrs	r2, r2, r0
 176              		.loc 1 351 0
 177 00ce 0A43     		orrs	r2, r2, r1
 178 00d0 1A60     		str	r2, [r3]
 179              		.loc 1 356 0
 180 00d2 019B     		ldr	r3, [sp, #4]
 181 00d4 1B68     		ldr	r3, [r3]
 182 00d6 019A     		ldr	r2, [sp, #4]
 183 00d8 1268     		ldr	r2, [r2]
 184 00da 1268     		ldr	r2, [r2]
 185 00dc 22F00F02 		bic	r2, r2, #15
 186 00e0 1A60     		str	r2, [r3]
 187              		.loc 1 357 0
 188 00e2 019B     		ldr	r3, [sp, #4]
 189 00e4 1B68     		ldr	r3, [r3]
 190 00e6 019A     		ldr	r2, [sp, #4]
 191 00e8 1268     		ldr	r2, [r2]
 192 00ea 1168     		ldr	r1, [r2]
 193 00ec 019A     		ldr	r2, [sp, #4]
 194 00ee D069     		ldr	r0, [r2, #28]
 195              		.loc 1 358 0
 196 00f0 019A     		ldr	r2, [sp, #4]
 197 00f2 126A     		ldr	r2, [r2, #32]
 198              		.loc 1 357 0
 199 00f4 0243     		orrs	r2, r2, r0
 200 00f6 0A43     		orrs	r2, r2, r1
 201 00f8 1A60     		str	r2, [r3]
 202              		.loc 1 361 0
 203 00fa 019B     		ldr	r3, [sp, #4]
 204 00fc 1B68     		ldr	r3, [r3]
 205 00fe 019A     		ldr	r2, [sp, #4]
 206 0100 1268     		ldr	r2, [r2]
 207 0102 9268     		ldr	r2, [r2, #8]
 208 0104 22F45F02 		bic	r2, r2, #14614528
 209 0108 9A60     		str	r2, [r3, #8]
 210              		.loc 1 362 0
 211 010a 019B     		ldr	r3, [sp, #4]
 212 010c 1B68     		ldr	r3, [r3]
 213 010e 019A     		ldr	r2, [sp, #4]
 214 0110 1268     		ldr	r2, [r2]
 215 0112 9168     		ldr	r1, [r2, #8]
 216 0114 019A     		ldr	r2, [sp, #4]
 217 0116 506A     		ldr	r0, [r2, #36]
 218              		.loc 1 363 0
 219 0118 019A     		ldr	r2, [sp, #4]
 220 011a 926A     		ldr	r2, [r2, #40]
 221 011c 541E     		subs	r4, r2, #1
 222 011e 4FF4F812 		mov	r2, #2031616
 223 0122 0792     		str	r2, [sp, #28]
 224              	.LBB77:
ARM GAS  /tmp/ccjyqKqb.s 			page 5


 225              	.LBB78:
 226              		.loc 2 586 0
 227 0124 079A     		ldr	r2, [sp, #28]
 228              	@ 586 "../../../../../../ChibiOS/os/ext/CMSIS/include/core_cmInstr.h" 1
 229 0126 92FAA2F2 		rbit r2, r2
 230              	@ 0 "" 2
 231              		.thumb
 232 012a 0692     		str	r2, [sp, #24]
 233              		.loc 2 599 0
 234 012c 069A     		ldr	r2, [sp, #24]
 235              	.LBE78:
 236              	.LBE77:
 237              		.loc 1 363 0
 238 012e B2FA82F2 		clz	r2, r2
 239 0132 04FA02F2 		lsl	r2, r4, r2
 240              		.loc 1 362 0
 241 0136 0243     		orrs	r2, r2, r0
 242 0138 0A43     		orrs	r2, r2, r1
 243 013a 9A60     		str	r2, [r3, #8]
 244              		.loc 1 366 0
 245 013c 019B     		ldr	r3, [sp, #4]
 246 013e 1B68     		ldr	r3, [r3]
 247 0140 019A     		ldr	r2, [sp, #4]
 248 0142 1268     		ldr	r2, [r2]
 249 0144 5268     		ldr	r2, [r2, #4]
 250 0146 02F00702 		and	r2, r2, #7
 251 014a 5A60     		str	r2, [r3, #4]
 252              		.loc 1 367 0
 253 014c 019B     		ldr	r3, [sp, #4]
 254 014e 1B68     		ldr	r3, [r3]
 255 0150 019A     		ldr	r2, [sp, #4]
 256 0152 1268     		ldr	r2, [r2]
 257 0154 5168     		ldr	r1, [r2, #4]
 258 0156 019A     		ldr	r2, [sp, #4]
 259 0158 D26A     		ldr	r2, [r2, #44]
 260 015a 1046     		mov	r0, r2
 261 015c 6FF0FF02 		mvn	r2, #255
 262 0160 0592     		str	r2, [sp, #20]
 263              	.LBB79:
 264              	.LBB80:
 265              		.loc 2 586 0
 266 0162 059A     		ldr	r2, [sp, #20]
 267              	@ 586 "../../../../../../ChibiOS/os/ext/CMSIS/include/core_cmInstr.h" 1
 268 0164 92FAA2F2 		rbit r2, r2
 269              	@ 0 "" 2
 270              		.thumb
 271 0168 0492     		str	r2, [sp, #16]
 272              		.loc 2 599 0
 273 016a 049A     		ldr	r2, [sp, #16]
 274              	.LBE80:
 275              	.LBE79:
 276              		.loc 1 367 0
 277 016c B2FA82F2 		clz	r2, r2
 278 0170 9040     		lsls	r0, r0, r2
 279              		.loc 1 368 0
 280 0172 019A     		ldr	r2, [sp, #4]
 281 0174 146B     		ldr	r4, [r2, #48]
ARM GAS  /tmp/ccjyqKqb.s 			page 6


 282 0176 F822     		movs	r2, #248
 283 0178 0392     		str	r2, [sp, #12]
 284              	.LBB81:
 285              	.LBB82:
 286              		.loc 2 586 0
 287 017a 039A     		ldr	r2, [sp, #12]
 288              	@ 586 "../../../../../../ChibiOS/os/ext/CMSIS/include/core_cmInstr.h" 1
 289 017c 92FAA2F2 		rbit r2, r2
 290              	@ 0 "" 2
 291              		.thumb
 292 0180 0292     		str	r2, [sp, #8]
 293              		.loc 2 599 0
 294 0182 029A     		ldr	r2, [sp, #8]
 295              	.LBE82:
 296              	.LBE81:
 297              		.loc 1 368 0
 298 0184 B2FA82F2 		clz	r2, r2
 299 0188 04FA02F2 		lsl	r2, r4, r2
 300              		.loc 1 367 0
 301 018c 0243     		orrs	r2, r2, r0
 302 018e 0A43     		orrs	r2, r2, r1
 303 0190 5A60     		str	r2, [r3, #4]
 304              		.loc 1 371 0
 305 0192 019B     		ldr	r3, [sp, #4]
 306 0194 1B68     		ldr	r3, [r3]
 307 0196 019A     		ldr	r2, [sp, #4]
 308 0198 1268     		ldr	r2, [r2]
 309 019a 1268     		ldr	r2, [r2]
 310 019c 42F08002 		orr	r2, r2, #128
 311 01a0 1A60     		str	r2, [r3]
 312              		.loc 1 374 0
 313 01a2 019B     		ldr	r3, [sp, #4]
 314 01a4 0122     		movs	r2, #1
 315 01a6 83F83420 		strb	r2, [r3, #52]
 316              		.loc 1 377 0
 317 01aa 019B     		ldr	r3, [sp, #4]
 318 01ac 1B68     		ldr	r3, [r3]
 319 01ae 1846     		mov	r0, r3
 320 01b0 01F036FE 		bl	DFSDM_GetChannelFromInstance
 321 01b4 0246     		mov	r2, r0
 322 01b6 044B     		ldr	r3, .L11
 323 01b8 0199     		ldr	r1, [sp, #4]
 324 01ba 43F82210 		str	r1, [r3, r2, lsl #2]
 325              		.loc 1 379 0
 326 01be 0023     		movs	r3, #0
 327              	.L3:
 328              		.loc 1 380 0
 329 01c0 1846     		mov	r0, r3
 330 01c2 0AB0     		add	sp, sp, #40
 331              		@ sp needed
 332 01c4 10BD     		pop	{r4, pc}
 333              	.L12:
 334 01c6 00BF     		.align	2
 335              	.L11:
 336 01c8 00000000 		.word	a_dfsdm1ChannelHandle
 337 01cc 00000000 		.word	v_dfsdm1ChannelCounter
 338 01d0 00600140 		.word	1073831936
ARM GAS  /tmp/ccjyqKqb.s 			page 7


 339              		.cfi_endproc
 340              	.LFE125:
 341              		.size	HAL_DFSDM_ChannelInit, .-HAL_DFSDM_ChannelInit
 342              		.align	2
 343 01d4 AFF30080 		.p2align 4,,15
 343      AFF30080 
 343      AFF30080 
 344              		.global	HAL_DFSDM_ChannelDeInit
 345              		.thumb
 346              		.thumb_func
 347              		.type	HAL_DFSDM_ChannelDeInit, %function
 348              	HAL_DFSDM_ChannelDeInit:
 349              	.LFB126:
 350              		.loc 1 388 0
 351              		.cfi_startproc
 352              		@ args = 0, pretend = 0, frame = 8
 353              		@ frame_needed = 0, uses_anonymous_args = 0
 354 01e0 00B5     		push	{lr}
 355              		.cfi_def_cfa_offset 4
 356              		.cfi_offset 14, -4
 357 01e2 83B0     		sub	sp, sp, #12
 358              		.cfi_def_cfa_offset 16
 359 01e4 0190     		str	r0, [sp, #4]
 360              		.loc 1 390 0
 361 01e6 019B     		ldr	r3, [sp, #4]
 362 01e8 002B     		cmp	r3, #0
 363 01ea 01D1     		bne	.L14
 364              		.loc 1 392 0
 365 01ec 0123     		movs	r3, #1
 366 01ee 35E0     		b	.L15
 367              	.L14:
 368              		.loc 1 399 0
 369 01f0 019B     		ldr	r3, [sp, #4]
 370 01f2 1B68     		ldr	r3, [r3]
 371 01f4 1846     		mov	r0, r3
 372 01f6 01F013FE 		bl	DFSDM_GetChannelFromInstance
 373 01fa 0246     		mov	r2, r0
 374 01fc 194B     		ldr	r3, .L18
 375 01fe 53F82230 		ldr	r3, [r3, r2, lsl #2]
 376 0202 002B     		cmp	r3, #0
 377 0204 01D1     		bne	.L16
 378              		.loc 1 401 0
 379 0206 0123     		movs	r3, #1
 380 0208 28E0     		b	.L15
 381              	.L16:
 382              		.loc 1 405 0
 383 020a 019B     		ldr	r3, [sp, #4]
 384 020c 1B68     		ldr	r3, [r3]
 385 020e 019A     		ldr	r2, [sp, #4]
 386 0210 1268     		ldr	r2, [r2]
 387 0212 1268     		ldr	r2, [r2]
 388 0214 22F08002 		bic	r2, r2, #128
 389 0218 1A60     		str	r2, [r3]
 390              		.loc 1 408 0
 391 021a 134B     		ldr	r3, .L18+4
 392 021c 1B68     		ldr	r3, [r3]
 393 021e 5A1E     		subs	r2, r3, #1
ARM GAS  /tmp/ccjyqKqb.s 			page 8


 394 0220 114B     		ldr	r3, .L18+4
 395 0222 1A60     		str	r2, [r3]
 396              		.loc 1 411 0
 397 0224 104B     		ldr	r3, .L18+4
 398 0226 1B68     		ldr	r3, [r3]
 399 0228 002B     		cmp	r3, #0
 400 022a 05D1     		bne	.L17
 401              		.loc 1 413 0
 402 022c 0F4B     		ldr	r3, .L18+8
 403 022e 0F4A     		ldr	r2, .L18+8
 404 0230 1268     		ldr	r2, [r2]
 405 0232 22F00042 		bic	r2, r2, #-2147483648
 406 0236 1A60     		str	r2, [r3]
 407              	.L17:
 408              		.loc 1 417 0
 409 0238 0198     		ldr	r0, [sp, #4]
 410 023a FFF7FEFF 		bl	HAL_DFSDM_ChannelMspDeInit
 411              		.loc 1 420 0
 412 023e 019B     		ldr	r3, [sp, #4]
 413 0240 0022     		movs	r2, #0
 414 0242 83F83420 		strb	r2, [r3, #52]
 415              		.loc 1 423 0
 416 0246 019B     		ldr	r3, [sp, #4]
 417 0248 1B68     		ldr	r3, [r3]
 418 024a 1846     		mov	r0, r3
 419 024c 01F0E8FD 		bl	DFSDM_GetChannelFromInstance
 420 0250 0246     		mov	r2, r0
 421 0252 044B     		ldr	r3, .L18
 422 0254 0021     		movs	r1, #0
 423 0256 43F82210 		str	r1, [r3, r2, lsl #2]
 424              		.loc 1 425 0
 425 025a 0023     		movs	r3, #0
 426              	.L15:
 427              		.loc 1 426 0
 428 025c 1846     		mov	r0, r3
 429 025e 03B0     		add	sp, sp, #12
 430              		@ sp needed
 431 0260 5DF804FB 		ldr	pc, [sp], #4
 432              	.L19:
 433              		.align	2
 434              	.L18:
 435 0264 00000000 		.word	a_dfsdm1ChannelHandle
 436 0268 00000000 		.word	v_dfsdm1ChannelCounter
 437 026c 00600140 		.word	1073831936
 438              		.cfi_endproc
 439              	.LFE126:
 440              		.size	HAL_DFSDM_ChannelDeInit, .-HAL_DFSDM_ChannelDeInit
 441              		.align	2
 442              		.p2align 4,,15
 443              		.weak	HAL_DFSDM_ChannelMspInit
 444              		.thumb
 445              		.thumb_func
 446              		.type	HAL_DFSDM_ChannelMspInit, %function
 447              	HAL_DFSDM_ChannelMspInit:
 448              	.LFB127:
 449              		.loc 1 434 0
 450              		.cfi_startproc
ARM GAS  /tmp/ccjyqKqb.s 			page 9


 451              		@ args = 0, pretend = 0, frame = 8
 452              		@ frame_needed = 0, uses_anonymous_args = 0
 453              		@ link register save eliminated.
 454 0270 82B0     		sub	sp, sp, #8
 455              		.cfi_def_cfa_offset 8
 456 0272 0190     		str	r0, [sp, #4]
 457              		.loc 1 441 0
 458 0274 02B0     		add	sp, sp, #8
 459              		@ sp needed
 460 0276 7047     		bx	lr
 461              		.cfi_endproc
 462              	.LFE127:
 463              		.size	HAL_DFSDM_ChannelMspInit, .-HAL_DFSDM_ChannelMspInit
 464              		.align	2
 465 0278 AFF30080 		.p2align 4,,15
 465      AFF30080 
 466              		.weak	HAL_DFSDM_ChannelMspDeInit
 467              		.thumb
 468              		.thumb_func
 469              		.type	HAL_DFSDM_ChannelMspDeInit, %function
 470              	HAL_DFSDM_ChannelMspDeInit:
 471              	.LFB128:
 472              		.loc 1 449 0
 473              		.cfi_startproc
 474              		@ args = 0, pretend = 0, frame = 8
 475              		@ frame_needed = 0, uses_anonymous_args = 0
 476              		@ link register save eliminated.
 477 0280 82B0     		sub	sp, sp, #8
 478              		.cfi_def_cfa_offset 8
 479 0282 0190     		str	r0, [sp, #4]
 480              		.loc 1 456 0
 481 0284 02B0     		add	sp, sp, #8
 482              		@ sp needed
 483 0286 7047     		bx	lr
 484              		.cfi_endproc
 485              	.LFE128:
 486              		.size	HAL_DFSDM_ChannelMspDeInit, .-HAL_DFSDM_ChannelMspDeInit
 487              		.align	2
 488 0288 AFF30080 		.p2align 4,,15
 488      AFF30080 
 489              		.global	HAL_DFSDM_ChannelCkabStart
 490              		.thumb
 491              		.thumb_func
 492              		.type	HAL_DFSDM_ChannelCkabStart, %function
 493              	HAL_DFSDM_ChannelCkabStart:
 494              	.LFB129:
 495              		.loc 1 488 0
 496              		.cfi_startproc
 497              		@ args = 0, pretend = 0, frame = 40
 498              		@ frame_needed = 0, uses_anonymous_args = 0
 499 0290 00B5     		push	{lr}
 500              		.cfi_def_cfa_offset 4
 501              		.cfi_offset 14, -4
 502 0292 8BB0     		sub	sp, sp, #44
 503              		.cfi_def_cfa_offset 48
 504 0294 0190     		str	r0, [sp, #4]
 505              		.loc 1 489 0
ARM GAS  /tmp/ccjyqKqb.s 			page 10


 506 0296 0023     		movs	r3, #0
 507 0298 8DF82730 		strb	r3, [sp, #39]
 508              		.loc 1 497 0
 509 029c 019B     		ldr	r3, [sp, #4]
 510 029e 93F83430 		ldrb	r3, [r3, #52]	@ zero_extendqisi2
 511 02a2 012B     		cmp	r3, #1
 512 02a4 03D0     		beq	.L23
 513              		.loc 1 500 0
 514 02a6 0123     		movs	r3, #1
 515 02a8 8DF82730 		strb	r3, [sp, #39]
 516 02ac 4BE0     		b	.L24
 517              	.L23:
 518              		.loc 1 505 0
 519 02ae 019B     		ldr	r3, [sp, #4]
 520 02b0 1B68     		ldr	r3, [r3]
 521 02b2 1846     		mov	r0, r3
 522 02b4 01F0B4FD 		bl	DFSDM_GetChannelFromInstance
 523 02b8 0890     		str	r0, [sp, #32]
 524              		.loc 1 508 0
 525 02ba FFF7FEFF 		bl	HAL_GetTick
 526 02be 0790     		str	r0, [sp, #28]
 527              		.loc 1 511 0
 528 02c0 1EE0     		b	.L25
 529              	.L29:
 530              		.loc 1 513 0
 531 02c2 244B     		ldr	r3, .L31
 532 02c4 4FF47F02 		mov	r2, #16711680
 533 02c8 0692     		str	r2, [sp, #24]
 534              	.LBB83:
 535              	.LBB84:
 536              		.loc 2 586 0
 537 02ca 069A     		ldr	r2, [sp, #24]
 538              	@ 586 "../../../../../../ChibiOS/os/ext/CMSIS/include/core_cmInstr.h" 1
 539 02cc 92FAA2F2 		rbit r2, r2
 540              	@ 0 "" 2
 541              		.thumb
 542 02d0 0592     		str	r2, [sp, #20]
 543              		.loc 2 599 0
 544 02d2 059A     		ldr	r2, [sp, #20]
 545              	.LBE84:
 546              	.LBE83:
 547              		.loc 1 513 0
 548 02d4 B2FA82F2 		clz	r2, r2
 549 02d8 1146     		mov	r1, r2
 550 02da 089A     		ldr	r2, [sp, #32]
 551 02dc 0A44     		add	r2, r2, r1
 552 02de 0121     		movs	r1, #1
 553 02e0 01FA02F2 		lsl	r2, r1, r2
 554 02e4 DA60     		str	r2, [r3, #12]
 555              		.loc 1 516 0
 556 02e6 FFF7FEFF 		bl	HAL_GetTick
 557 02ea 0246     		mov	r2, r0
 558 02ec 079B     		ldr	r3, [sp, #28]
 559 02ee D21A     		subs	r2, r2, r3
 560 02f0 41F28833 		movw	r3, #5000
 561 02f4 9A42     		cmp	r2, r3
 562 02f6 03D9     		bls	.L25
ARM GAS  /tmp/ccjyqKqb.s 			page 11


 563              		.loc 1 519 0
 564 02f8 0323     		movs	r3, #3
 565 02fa 8DF82730 		strb	r3, [sp, #39]
 566              		.loc 1 520 0
 567 02fe 16E0     		b	.L27
 568              	.L25:
 569              		.loc 1 511 0 discriminator 1
 570 0300 144B     		ldr	r3, .L31
 571 0302 9B68     		ldr	r3, [r3, #8]
 572 0304 03F47F02 		and	r2, r3, #16711680
 573 0308 4FF47F03 		mov	r3, #16711680
 574 030c 0493     		str	r3, [sp, #16]
 575              	.LBB85:
 576              	.LBB86:
 577              		.loc 2 586 0 discriminator 1
 578 030e 049B     		ldr	r3, [sp, #16]
 579              	@ 586 "../../../../../../ChibiOS/os/ext/CMSIS/include/core_cmInstr.h" 1
 580 0310 93FAA3F3 		rbit r3, r3
 581              	@ 0 "" 2
 582              		.thumb
 583 0314 0393     		str	r3, [sp, #12]
 584              		.loc 2 599 0 discriminator 1
 585 0316 039B     		ldr	r3, [sp, #12]
 586              	.LBE86:
 587              	.LBE85:
 588              		.loc 1 511 0 discriminator 1
 589 0318 B3FA83F3 		clz	r3, r3
 590 031c 1946     		mov	r1, r3
 591 031e 089B     		ldr	r3, [sp, #32]
 592 0320 0B44     		add	r3, r3, r1
 593 0322 22FA03F3 		lsr	r3, r2, r3
 594 0326 03F00103 		and	r3, r3, #1
 595 032a 002B     		cmp	r3, #0
 596 032c C9D1     		bne	.L29
 597              	.L27:
 598              		.loc 1 524 0
 599 032e 9DF82730 		ldrb	r3, [sp, #39]	@ zero_extendqisi2
 600 0332 002B     		cmp	r3, #0
 601 0334 07D1     		bne	.L24
 602              		.loc 1 527 0
 603 0336 019B     		ldr	r3, [sp, #4]
 604 0338 1B68     		ldr	r3, [r3]
 605 033a 019A     		ldr	r2, [sp, #4]
 606 033c 1268     		ldr	r2, [r2]
 607 033e 1268     		ldr	r2, [r2]
 608 0340 42F04002 		orr	r2, r2, #64
 609 0344 1A60     		str	r2, [r3]
 610              	.L24:
 611              		.loc 1 531 0
 612 0346 9DF82730 		ldrb	r3, [sp, #39]	@ zero_extendqisi2
 613              		.loc 1 532 0
 614 034a 1846     		mov	r0, r3
 615 034c 0BB0     		add	sp, sp, #44
 616              		@ sp needed
 617 034e 5DF804FB 		ldr	pc, [sp], #4
 618              	.L32:
 619 0352 00BF     		.align	2
ARM GAS  /tmp/ccjyqKqb.s 			page 12


 620              	.L31:
 621 0354 00610140 		.word	1073832192
 622              		.cfi_endproc
 623              	.LFE129:
 624              		.size	HAL_DFSDM_ChannelCkabStart, .-HAL_DFSDM_ChannelCkabStart
 625              		.align	2
 626 0358 AFF30080 		.p2align 4,,15
 626      AFF30080 
 627              		.global	HAL_DFSDM_ChannelPollForCkab
 628              		.thumb
 629              		.thumb_func
 630              		.type	HAL_DFSDM_ChannelPollForCkab, %function
 631              	HAL_DFSDM_ChannelPollForCkab:
 632              	.LFB130:
 633              		.loc 1 542 0
 634              		.cfi_startproc
 635              		@ args = 0, pretend = 0, frame = 32
 636              		@ frame_needed = 0, uses_anonymous_args = 0
 637 0360 00B5     		push	{lr}
 638              		.cfi_def_cfa_offset 4
 639              		.cfi_offset 14, -4
 640 0362 89B0     		sub	sp, sp, #36
 641              		.cfi_def_cfa_offset 40
 642 0364 0190     		str	r0, [sp, #4]
 643 0366 0091     		str	r1, [sp]
 644              		.loc 1 550 0
 645 0368 019B     		ldr	r3, [sp, #4]
 646 036a 93F83430 		ldrb	r3, [r3, #52]	@ zero_extendqisi2
 647 036e 012B     		cmp	r3, #1
 648 0370 01D0     		beq	.L34
 649              		.loc 1 553 0
 650 0372 0123     		movs	r3, #1
 651 0374 44E0     		b	.L35
 652              	.L34:
 653              		.loc 1 558 0
 654 0376 019B     		ldr	r3, [sp, #4]
 655 0378 1B68     		ldr	r3, [r3]
 656 037a 1846     		mov	r0, r3
 657 037c 01F050FD 		bl	DFSDM_GetChannelFromInstance
 658 0380 0790     		str	r0, [sp, #28]
 659              		.loc 1 561 0
 660 0382 FFF7FEFF 		bl	HAL_GetTick
 661 0386 0690     		str	r0, [sp, #24]
 662              		.loc 1 564 0
 663 0388 10E0     		b	.L36
 664              	.L39:
 665              		.loc 1 567 0
 666 038a 009B     		ldr	r3, [sp]
 667 038c B3F1FF3F 		cmp	r3, #-1
 668 0390 0CD0     		beq	.L36
 669              		.loc 1 569 0
 670 0392 009B     		ldr	r3, [sp]
 671 0394 002B     		cmp	r3, #0
 672 0396 07D0     		beq	.L37
 673              		.loc 1 569 0 is_stmt 0 discriminator 1
 674 0398 FFF7FEFF 		bl	HAL_GetTick
 675 039c 0246     		mov	r2, r0
ARM GAS  /tmp/ccjyqKqb.s 			page 13


 676 039e 069B     		ldr	r3, [sp, #24]
 677 03a0 D21A     		subs	r2, r2, r3
 678 03a2 009B     		ldr	r3, [sp]
 679 03a4 9A42     		cmp	r2, r3
 680 03a6 01D9     		bls	.L36
 681              	.L37:
 682              		.loc 1 572 0 is_stmt 1
 683 03a8 0323     		movs	r3, #3
 684 03aa 29E0     		b	.L35
 685              	.L36:
 686              		.loc 1 564 0 discriminator 1
 687 03ac 164B     		ldr	r3, .L41
 688 03ae 9B68     		ldr	r3, [r3, #8]
 689 03b0 03F47F02 		and	r2, r3, #16711680
 690 03b4 4FF47F03 		mov	r3, #16711680
 691 03b8 0593     		str	r3, [sp, #20]
 692              	.LBB87:
 693              	.LBB88:
 694              		.loc 2 586 0 discriminator 1
 695 03ba 059B     		ldr	r3, [sp, #20]
 696              	@ 586 "../../../../../../ChibiOS/os/ext/CMSIS/include/core_cmInstr.h" 1
 697 03bc 93FAA3F3 		rbit r3, r3
 698              	@ 0 "" 2
 699              		.thumb
 700 03c0 0493     		str	r3, [sp, #16]
 701              		.loc 2 599 0 discriminator 1
 702 03c2 049B     		ldr	r3, [sp, #16]
 703              	.LBE88:
 704              	.LBE87:
 705              		.loc 1 564 0 discriminator 1
 706 03c4 B3FA83F3 		clz	r3, r3
 707 03c8 1946     		mov	r1, r3
 708 03ca 079B     		ldr	r3, [sp, #28]
 709 03cc 0B44     		add	r3, r3, r1
 710 03ce 22FA03F3 		lsr	r3, r2, r3
 711 03d2 03F00103 		and	r3, r3, #1
 712 03d6 002B     		cmp	r3, #0
 713 03d8 D7D0     		beq	.L39
 714              		.loc 1 578 0
 715 03da 0B4B     		ldr	r3, .L41
 716 03dc 4FF47F02 		mov	r2, #16711680
 717 03e0 0392     		str	r2, [sp, #12]
 718              	.LBB89:
 719              	.LBB90:
 720              		.loc 2 586 0
 721 03e2 039A     		ldr	r2, [sp, #12]
 722              	@ 586 "../../../../../../ChibiOS/os/ext/CMSIS/include/core_cmInstr.h" 1
 723 03e4 92FAA2F2 		rbit r2, r2
 724              	@ 0 "" 2
 725              		.thumb
 726 03e8 0292     		str	r2, [sp, #8]
 727              		.loc 2 599 0
 728 03ea 029A     		ldr	r2, [sp, #8]
 729              	.LBE90:
 730              	.LBE89:
 731              		.loc 1 578 0
 732 03ec B2FA82F2 		clz	r2, r2
ARM GAS  /tmp/ccjyqKqb.s 			page 14


 733 03f0 1146     		mov	r1, r2
 734 03f2 079A     		ldr	r2, [sp, #28]
 735 03f4 0A44     		add	r2, r2, r1
 736 03f6 0121     		movs	r1, #1
 737 03f8 01FA02F2 		lsl	r2, r1, r2
 738 03fc DA60     		str	r2, [r3, #12]
 739              		.loc 1 581 0
 740 03fe 0023     		movs	r3, #0
 741              	.L35:
 742              		.loc 1 583 0
 743 0400 1846     		mov	r0, r3
 744 0402 09B0     		add	sp, sp, #36
 745              		@ sp needed
 746 0404 5DF804FB 		ldr	pc, [sp], #4
 747              	.L42:
 748              		.align	2
 749              	.L41:
 750 0408 00610140 		.word	1073832192
 751              		.cfi_endproc
 752              	.LFE130:
 753              		.size	HAL_DFSDM_ChannelPollForCkab, .-HAL_DFSDM_ChannelPollForCkab
 754              		.align	2
 755 040c AFF30080 		.p2align 4,,15
 756              		.global	HAL_DFSDM_ChannelCkabStop
 757              		.thumb
 758              		.thumb_func
 759              		.type	HAL_DFSDM_ChannelCkabStop, %function
 760              	HAL_DFSDM_ChannelCkabStop:
 761              	.LFB131:
 762              		.loc 1 591 0
 763              		.cfi_startproc
 764              		@ args = 0, pretend = 0, frame = 24
 765              		@ frame_needed = 0, uses_anonymous_args = 0
 766 0410 00B5     		push	{lr}
 767              		.cfi_def_cfa_offset 4
 768              		.cfi_offset 14, -4
 769 0412 87B0     		sub	sp, sp, #28
 770              		.cfi_def_cfa_offset 32
 771 0414 0190     		str	r0, [sp, #4]
 772              		.loc 1 592 0
 773 0416 0023     		movs	r3, #0
 774 0418 8DF81730 		strb	r3, [sp, #23]
 775              		.loc 1 599 0
 776 041c 019B     		ldr	r3, [sp, #4]
 777 041e 93F83430 		ldrb	r3, [r3, #52]	@ zero_extendqisi2
 778 0422 012B     		cmp	r3, #1
 779 0424 03D0     		beq	.L44
 780              		.loc 1 602 0
 781 0426 0123     		movs	r3, #1
 782 0428 8DF81730 		strb	r3, [sp, #23]
 783 042c 1FE0     		b	.L45
 784              	.L44:
 785              		.loc 1 607 0
 786 042e 019B     		ldr	r3, [sp, #4]
 787 0430 1B68     		ldr	r3, [r3]
 788 0432 019A     		ldr	r2, [sp, #4]
 789 0434 1268     		ldr	r2, [r2]
ARM GAS  /tmp/ccjyqKqb.s 			page 15


 790 0436 1268     		ldr	r2, [r2]
 791 0438 22F04002 		bic	r2, r2, #64
 792 043c 1A60     		str	r2, [r3]
 793              		.loc 1 610 0
 794 043e 019B     		ldr	r3, [sp, #4]
 795 0440 1B68     		ldr	r3, [r3]
 796 0442 1846     		mov	r0, r3
 797 0444 01F0ECFC 		bl	DFSDM_GetChannelFromInstance
 798 0448 0490     		str	r0, [sp, #16]
 799              		.loc 1 611 0
 800 044a 0C4B     		ldr	r3, .L48
 801 044c 4FF47F02 		mov	r2, #16711680
 802 0450 0392     		str	r2, [sp, #12]
 803              	.LBB91:
 804              	.LBB92:
 805              		.loc 2 586 0
 806 0452 039A     		ldr	r2, [sp, #12]
 807              	@ 586 "../../../../../../ChibiOS/os/ext/CMSIS/include/core_cmInstr.h" 1
 808 0454 92FAA2F2 		rbit r2, r2
 809              	@ 0 "" 2
 810              		.thumb
 811 0458 0292     		str	r2, [sp, #8]
 812              		.loc 2 599 0
 813 045a 029A     		ldr	r2, [sp, #8]
 814              	.LBE92:
 815              	.LBE91:
 816              		.loc 1 611 0
 817 045c B2FA82F2 		clz	r2, r2
 818 0460 1146     		mov	r1, r2
 819 0462 049A     		ldr	r2, [sp, #16]
 820 0464 0A44     		add	r2, r2, r1
 821 0466 0121     		movs	r1, #1
 822 0468 01FA02F2 		lsl	r2, r1, r2
 823 046c DA60     		str	r2, [r3, #12]
 824              	.L45:
 825              		.loc 1 614 0
 826 046e 9DF81730 		ldrb	r3, [sp, #23]	@ zero_extendqisi2
 827              		.loc 1 615 0
 828 0472 1846     		mov	r0, r3
 829 0474 07B0     		add	sp, sp, #28
 830              		@ sp needed
 831 0476 5DF804FB 		ldr	pc, [sp], #4
 832              	.L49:
 833 047a 00BF     		.align	2
 834              	.L48:
 835 047c 00610140 		.word	1073832192
 836              		.cfi_endproc
 837              	.LFE131:
 838              		.size	HAL_DFSDM_ChannelCkabStop, .-HAL_DFSDM_ChannelCkabStop
 839              		.align	2
 840              		.p2align 4,,15
 841              		.global	HAL_DFSDM_ChannelCkabStart_IT
 842              		.thumb
 843              		.thumb_func
 844              		.type	HAL_DFSDM_ChannelCkabStart_IT, %function
 845              	HAL_DFSDM_ChannelCkabStart_IT:
 846              	.LFB132:
ARM GAS  /tmp/ccjyqKqb.s 			page 16


 847              		.loc 1 627 0
 848              		.cfi_startproc
 849              		@ args = 0, pretend = 0, frame = 40
 850              		@ frame_needed = 0, uses_anonymous_args = 0
 851 0480 00B5     		push	{lr}
 852              		.cfi_def_cfa_offset 4
 853              		.cfi_offset 14, -4
 854 0482 8BB0     		sub	sp, sp, #44
 855              		.cfi_def_cfa_offset 48
 856 0484 0190     		str	r0, [sp, #4]
 857              		.loc 1 628 0
 858 0486 0023     		movs	r3, #0
 859 0488 8DF82730 		strb	r3, [sp, #39]
 860              		.loc 1 636 0
 861 048c 019B     		ldr	r3, [sp, #4]
 862 048e 93F83430 		ldrb	r3, [r3, #52]	@ zero_extendqisi2
 863 0492 012B     		cmp	r3, #1
 864 0494 03D0     		beq	.L51
 865              		.loc 1 639 0
 866 0496 0123     		movs	r3, #1
 867 0498 8DF82730 		strb	r3, [sp, #39]
 868 049c 51E0     		b	.L52
 869              	.L51:
 870              		.loc 1 644 0
 871 049e 019B     		ldr	r3, [sp, #4]
 872 04a0 1B68     		ldr	r3, [r3]
 873 04a2 1846     		mov	r0, r3
 874 04a4 01F0BCFC 		bl	DFSDM_GetChannelFromInstance
 875 04a8 0890     		str	r0, [sp, #32]
 876              		.loc 1 647 0
 877 04aa FFF7FEFF 		bl	HAL_GetTick
 878 04ae 0790     		str	r0, [sp, #28]
 879              		.loc 1 650 0
 880 04b0 1EE0     		b	.L53
 881              	.L57:
 882              		.loc 1 652 0
 883 04b2 274B     		ldr	r3, .L59
 884 04b4 4FF47F02 		mov	r2, #16711680
 885 04b8 0692     		str	r2, [sp, #24]
 886              	.LBB93:
 887              	.LBB94:
 888              		.loc 2 586 0
 889 04ba 069A     		ldr	r2, [sp, #24]
 890              	@ 586 "../../../../../../ChibiOS/os/ext/CMSIS/include/core_cmInstr.h" 1
 891 04bc 92FAA2F2 		rbit r2, r2
 892              	@ 0 "" 2
 893              		.thumb
 894 04c0 0592     		str	r2, [sp, #20]
 895              		.loc 2 599 0
 896 04c2 059A     		ldr	r2, [sp, #20]
 897              	.LBE94:
 898              	.LBE93:
 899              		.loc 1 652 0
 900 04c4 B2FA82F2 		clz	r2, r2
 901 04c8 1146     		mov	r1, r2
 902 04ca 089A     		ldr	r2, [sp, #32]
 903 04cc 0A44     		add	r2, r2, r1
ARM GAS  /tmp/ccjyqKqb.s 			page 17


 904 04ce 0121     		movs	r1, #1
 905 04d0 01FA02F2 		lsl	r2, r1, r2
 906 04d4 DA60     		str	r2, [r3, #12]
 907              		.loc 1 655 0
 908 04d6 FFF7FEFF 		bl	HAL_GetTick
 909 04da 0246     		mov	r2, r0
 910 04dc 079B     		ldr	r3, [sp, #28]
 911 04de D21A     		subs	r2, r2, r3
 912 04e0 41F28833 		movw	r3, #5000
 913 04e4 9A42     		cmp	r2, r3
 914 04e6 03D9     		bls	.L53
 915              		.loc 1 658 0
 916 04e8 0323     		movs	r3, #3
 917 04ea 8DF82730 		strb	r3, [sp, #39]
 918              		.loc 1 659 0
 919 04ee 16E0     		b	.L55
 920              	.L53:
 921              		.loc 1 650 0 discriminator 1
 922 04f0 174B     		ldr	r3, .L59
 923 04f2 9B68     		ldr	r3, [r3, #8]
 924 04f4 03F47F02 		and	r2, r3, #16711680
 925 04f8 4FF47F03 		mov	r3, #16711680
 926 04fc 0493     		str	r3, [sp, #16]
 927              	.LBB95:
 928              	.LBB96:
 929              		.loc 2 586 0 discriminator 1
 930 04fe 049B     		ldr	r3, [sp, #16]
 931              	@ 586 "../../../../../../ChibiOS/os/ext/CMSIS/include/core_cmInstr.h" 1
 932 0500 93FAA3F3 		rbit r3, r3
 933              	@ 0 "" 2
 934              		.thumb
 935 0504 0393     		str	r3, [sp, #12]
 936              		.loc 2 599 0 discriminator 1
 937 0506 039B     		ldr	r3, [sp, #12]
 938              	.LBE96:
 939              	.LBE95:
 940              		.loc 1 650 0 discriminator 1
 941 0508 B3FA83F3 		clz	r3, r3
 942 050c 1946     		mov	r1, r3
 943 050e 089B     		ldr	r3, [sp, #32]
 944 0510 0B44     		add	r3, r3, r1
 945 0512 22FA03F3 		lsr	r3, r2, r3
 946 0516 03F00103 		and	r3, r3, #1
 947 051a 002B     		cmp	r3, #0
 948 051c C9D1     		bne	.L57
 949              	.L55:
 950              		.loc 1 663 0
 951 051e 9DF82730 		ldrb	r3, [sp, #39]	@ zero_extendqisi2
 952 0522 002B     		cmp	r3, #0
 953 0524 0DD1     		bne	.L52
 954              		.loc 1 666 0
 955 0526 0A4B     		ldr	r3, .L59
 956 0528 094A     		ldr	r2, .L59
 957 052a 5268     		ldr	r2, [r2, #4]
 958 052c 42F04002 		orr	r2, r2, #64
 959 0530 5A60     		str	r2, [r3, #4]
 960              		.loc 1 669 0
ARM GAS  /tmp/ccjyqKqb.s 			page 18


 961 0532 019B     		ldr	r3, [sp, #4]
 962 0534 1B68     		ldr	r3, [r3]
 963 0536 019A     		ldr	r2, [sp, #4]
 964 0538 1268     		ldr	r2, [r2]
 965 053a 1268     		ldr	r2, [r2]
 966 053c 42F04002 		orr	r2, r2, #64
 967 0540 1A60     		str	r2, [r3]
 968              	.L52:
 969              		.loc 1 673 0
 970 0542 9DF82730 		ldrb	r3, [sp, #39]	@ zero_extendqisi2
 971              		.loc 1 674 0
 972 0546 1846     		mov	r0, r3
 973 0548 0BB0     		add	sp, sp, #44
 974              		@ sp needed
 975 054a 5DF804FB 		ldr	pc, [sp], #4
 976              	.L60:
 977 054e 00BF     		.align	2
 978              	.L59:
 979 0550 00610140 		.word	1073832192
 980              		.cfi_endproc
 981              	.LFE132:
 982              		.size	HAL_DFSDM_ChannelCkabStart_IT, .-HAL_DFSDM_ChannelCkabStart_IT
 983              		.align	2
 984 0554 AFF30080 		.p2align 4,,15
 984      AFF30080 
 984      AFF30080 
 985              		.weak	HAL_DFSDM_ChannelCkabCallback
 986              		.thumb
 987              		.thumb_func
 988              		.type	HAL_DFSDM_ChannelCkabCallback, %function
 989              	HAL_DFSDM_ChannelCkabCallback:
 990              	.LFB133:
 991              		.loc 1 682 0
 992              		.cfi_startproc
 993              		@ args = 0, pretend = 0, frame = 8
 994              		@ frame_needed = 0, uses_anonymous_args = 0
 995              		@ link register save eliminated.
 996 0560 82B0     		sub	sp, sp, #8
 997              		.cfi_def_cfa_offset 8
 998 0562 0190     		str	r0, [sp, #4]
 999              		.loc 1 689 0
 1000 0564 02B0     		add	sp, sp, #8
 1001              		@ sp needed
 1002 0566 7047     		bx	lr
 1003              		.cfi_endproc
 1004              	.LFE133:
 1005              		.size	HAL_DFSDM_ChannelCkabCallback, .-HAL_DFSDM_ChannelCkabCallback
 1006              		.align	2
 1007 0568 AFF30080 		.p2align 4,,15
 1007      AFF30080 
 1008              		.global	HAL_DFSDM_ChannelCkabStop_IT
 1009              		.thumb
 1010              		.thumb_func
 1011              		.type	HAL_DFSDM_ChannelCkabStop_IT, %function
 1012              	HAL_DFSDM_ChannelCkabStop_IT:
 1013              	.LFB134:
 1014              		.loc 1 698 0
ARM GAS  /tmp/ccjyqKqb.s 			page 19


 1015              		.cfi_startproc
 1016              		@ args = 0, pretend = 0, frame = 24
 1017              		@ frame_needed = 0, uses_anonymous_args = 0
 1018 0570 00B5     		push	{lr}
 1019              		.cfi_def_cfa_offset 4
 1020              		.cfi_offset 14, -4
 1021 0572 87B0     		sub	sp, sp, #28
 1022              		.cfi_def_cfa_offset 32
 1023 0574 0190     		str	r0, [sp, #4]
 1024              		.loc 1 699 0
 1025 0576 0023     		movs	r3, #0
 1026 0578 8DF81730 		strb	r3, [sp, #23]
 1027              		.loc 1 706 0
 1028 057c 019B     		ldr	r3, [sp, #4]
 1029 057e 93F83430 		ldrb	r3, [r3, #52]	@ zero_extendqisi2
 1030 0582 012B     		cmp	r3, #1
 1031 0584 03D0     		beq	.L63
 1032              		.loc 1 709 0
 1033 0586 0123     		movs	r3, #1
 1034 0588 8DF81730 		strb	r3, [sp, #23]
 1035 058c 25E0     		b	.L64
 1036              	.L63:
 1037              		.loc 1 714 0
 1038 058e 019B     		ldr	r3, [sp, #4]
 1039 0590 1B68     		ldr	r3, [r3]
 1040 0592 019A     		ldr	r2, [sp, #4]
 1041 0594 1268     		ldr	r2, [r2]
 1042 0596 1268     		ldr	r2, [r2]
 1043 0598 22F04002 		bic	r2, r2, #64
 1044 059c 1A60     		str	r2, [r3]
 1045              		.loc 1 717 0
 1046 059e 019B     		ldr	r3, [sp, #4]
 1047 05a0 1B68     		ldr	r3, [r3]
 1048 05a2 1846     		mov	r0, r3
 1049 05a4 01F03CFC 		bl	DFSDM_GetChannelFromInstance
 1050 05a8 0490     		str	r0, [sp, #16]
 1051              		.loc 1 718 0
 1052 05aa 0F4B     		ldr	r3, .L67
 1053 05ac 4FF47F02 		mov	r2, #16711680
 1054 05b0 0392     		str	r2, [sp, #12]
 1055              	.LBB97:
 1056              	.LBB98:
 1057              		.loc 2 586 0
 1058 05b2 039A     		ldr	r2, [sp, #12]
 1059              	@ 586 "../../../../../../ChibiOS/os/ext/CMSIS/include/core_cmInstr.h" 1
 1060 05b4 92FAA2F2 		rbit r2, r2
 1061              	@ 0 "" 2
 1062              		.thumb
 1063 05b8 0292     		str	r2, [sp, #8]
 1064              		.loc 2 599 0
 1065 05ba 029A     		ldr	r2, [sp, #8]
 1066              	.LBE98:
 1067              	.LBE97:
 1068              		.loc 1 718 0
 1069 05bc B2FA82F2 		clz	r2, r2
 1070 05c0 1146     		mov	r1, r2
 1071 05c2 049A     		ldr	r2, [sp, #16]
ARM GAS  /tmp/ccjyqKqb.s 			page 20


 1072 05c4 0A44     		add	r2, r2, r1
 1073 05c6 0121     		movs	r1, #1
 1074 05c8 01FA02F2 		lsl	r2, r1, r2
 1075 05cc DA60     		str	r2, [r3, #12]
 1076              		.loc 1 721 0
 1077 05ce 064B     		ldr	r3, .L67
 1078 05d0 054A     		ldr	r2, .L67
 1079 05d2 5268     		ldr	r2, [r2, #4]
 1080 05d4 22F04002 		bic	r2, r2, #64
 1081 05d8 5A60     		str	r2, [r3, #4]
 1082              	.L64:
 1083              		.loc 1 724 0
 1084 05da 9DF81730 		ldrb	r3, [sp, #23]	@ zero_extendqisi2
 1085              		.loc 1 725 0
 1086 05de 1846     		mov	r0, r3
 1087 05e0 07B0     		add	sp, sp, #28
 1088              		@ sp needed
 1089 05e2 5DF804FB 		ldr	pc, [sp], #4
 1090              	.L68:
 1091 05e6 00BF     		.align	2
 1092              	.L67:
 1093 05e8 00610140 		.word	1073832192
 1094              		.cfi_endproc
 1095              	.LFE134:
 1096              		.size	HAL_DFSDM_ChannelCkabStop_IT, .-HAL_DFSDM_ChannelCkabStop_IT
 1097              		.align	2
 1098 05ec AFF30080 		.p2align 4,,15
 1099              		.global	HAL_DFSDM_ChannelScdStart
 1100              		.thumb
 1101              		.thumb_func
 1102              		.type	HAL_DFSDM_ChannelScdStart, %function
 1103              	HAL_DFSDM_ChannelScdStart:
 1104              	.LFB135:
 1105              		.loc 1 740 0
 1106              		.cfi_startproc
 1107              		@ args = 0, pretend = 0, frame = 32
 1108              		@ frame_needed = 0, uses_anonymous_args = 0
 1109              		@ link register save eliminated.
 1110 05f0 88B0     		sub	sp, sp, #32
 1111              		.cfi_def_cfa_offset 32
 1112 05f2 0390     		str	r0, [sp, #12]
 1113 05f4 0291     		str	r1, [sp, #8]
 1114 05f6 0192     		str	r2, [sp, #4]
 1115              		.loc 1 741 0
 1116 05f8 0023     		movs	r3, #0
 1117 05fa 8DF81F30 		strb	r3, [sp, #31]
 1118              		.loc 1 749 0
 1119 05fe 039B     		ldr	r3, [sp, #12]
 1120 0600 93F83430 		ldrb	r3, [r3, #52]	@ zero_extendqisi2
 1121 0604 012B     		cmp	r3, #1
 1122 0606 03D0     		beq	.L70
 1123              		.loc 1 752 0
 1124 0608 0123     		movs	r3, #1
 1125 060a 8DF81F30 		strb	r3, [sp, #31]
 1126 060e 26E0     		b	.L71
 1127              	.L70:
 1128              		.loc 1 757 0
ARM GAS  /tmp/ccjyqKqb.s 			page 21


 1129 0610 039B     		ldr	r3, [sp, #12]
 1130 0612 1A68     		ldr	r2, [r3]
 1131 0614 039B     		ldr	r3, [sp, #12]
 1132 0616 1B68     		ldr	r3, [r3]
 1133 0618 9B68     		ldr	r3, [r3, #8]
 1134 061a 23F47043 		bic	r3, r3, #61440
 1135 061e 23F0FF03 		bic	r3, r3, #255
 1136 0622 9360     		str	r3, [r2, #8]
 1137              		.loc 1 758 0
 1138 0624 039B     		ldr	r3, [sp, #12]
 1139 0626 1B68     		ldr	r3, [r3]
 1140 0628 039A     		ldr	r2, [sp, #12]
 1141 062a 1268     		ldr	r2, [r2]
 1142 062c 9168     		ldr	r1, [r2, #8]
 1143 062e 4FF47042 		mov	r2, #61440
 1144 0632 0692     		str	r2, [sp, #24]
 1145              	.LBB99:
 1146              	.LBB100:
 1147              		.loc 2 586 0
 1148 0634 069A     		ldr	r2, [sp, #24]
 1149              	@ 586 "../../../../../../ChibiOS/os/ext/CMSIS/include/core_cmInstr.h" 1
 1150 0636 92FAA2F2 		rbit r2, r2
 1151              	@ 0 "" 2
 1152              		.thumb
 1153 063a 0592     		str	r2, [sp, #20]
 1154              		.loc 2 599 0
 1155 063c 059A     		ldr	r2, [sp, #20]
 1156              	.LBE100:
 1157              	.LBE99:
 1158              		.loc 1 758 0
 1159 063e B2FA82F2 		clz	r2, r2
 1160 0642 0198     		ldr	r0, [sp, #4]
 1161 0644 9040     		lsls	r0, r0, r2
 1162 0646 029A     		ldr	r2, [sp, #8]
 1163 0648 0243     		orrs	r2, r2, r0
 1164 064a 0A43     		orrs	r2, r2, r1
 1165 064c 9A60     		str	r2, [r3, #8]
 1166              		.loc 1 762 0
 1167 064e 039B     		ldr	r3, [sp, #12]
 1168 0650 1B68     		ldr	r3, [r3]
 1169 0652 039A     		ldr	r2, [sp, #12]
 1170 0654 1268     		ldr	r2, [r2]
 1171 0656 1268     		ldr	r2, [r2]
 1172 0658 42F02002 		orr	r2, r2, #32
 1173 065c 1A60     		str	r2, [r3]
 1174              	.L71:
 1175              		.loc 1 765 0
 1176 065e 9DF81F30 		ldrb	r3, [sp, #31]	@ zero_extendqisi2
 1177              		.loc 1 766 0
 1178 0662 1846     		mov	r0, r3
 1179 0664 08B0     		add	sp, sp, #32
 1180              		@ sp needed
 1181 0666 7047     		bx	lr
 1182              		.cfi_endproc
 1183              	.LFE135:
 1184              		.size	HAL_DFSDM_ChannelScdStart, .-HAL_DFSDM_ChannelScdStart
 1185              		.align	2
ARM GAS  /tmp/ccjyqKqb.s 			page 22


 1186 0668 AFF30080 		.p2align 4,,15
 1186      AFF30080 
 1187              		.global	HAL_DFSDM_ChannelPollForScd
 1188              		.thumb
 1189              		.thumb_func
 1190              		.type	HAL_DFSDM_ChannelPollForScd, %function
 1191              	HAL_DFSDM_ChannelPollForScd:
 1192              	.LFB136:
 1193              		.loc 1 776 0
 1194              		.cfi_startproc
 1195              		@ args = 0, pretend = 0, frame = 32
 1196              		@ frame_needed = 0, uses_anonymous_args = 0
 1197 0670 00B5     		push	{lr}
 1198              		.cfi_def_cfa_offset 4
 1199              		.cfi_offset 14, -4
 1200 0672 89B0     		sub	sp, sp, #36
 1201              		.cfi_def_cfa_offset 40
 1202 0674 0190     		str	r0, [sp, #4]
 1203 0676 0091     		str	r1, [sp]
 1204              		.loc 1 784 0
 1205 0678 019B     		ldr	r3, [sp, #4]
 1206 067a 93F83430 		ldrb	r3, [r3, #52]	@ zero_extendqisi2
 1207 067e 012B     		cmp	r3, #1
 1208 0680 01D0     		beq	.L75
 1209              		.loc 1 787 0
 1210 0682 0123     		movs	r3, #1
 1211 0684 42E0     		b	.L76
 1212              	.L75:
 1213              		.loc 1 792 0
 1214 0686 019B     		ldr	r3, [sp, #4]
 1215 0688 1B68     		ldr	r3, [r3]
 1216 068a 1846     		mov	r0, r3
 1217 068c 01F0C8FB 		bl	DFSDM_GetChannelFromInstance
 1218 0690 0790     		str	r0, [sp, #28]
 1219              		.loc 1 795 0
 1220 0692 FFF7FEFF 		bl	HAL_GetTick
 1221 0696 0690     		str	r0, [sp, #24]
 1222              		.loc 1 798 0
 1223 0698 10E0     		b	.L77
 1224              	.L80:
 1225              		.loc 1 801 0
 1226 069a 009B     		ldr	r3, [sp]
 1227 069c B3F1FF3F 		cmp	r3, #-1
 1228 06a0 0CD0     		beq	.L77
 1229              		.loc 1 803 0
 1230 06a2 009B     		ldr	r3, [sp]
 1231 06a4 002B     		cmp	r3, #0
 1232 06a6 07D0     		beq	.L78
 1233              		.loc 1 803 0 is_stmt 0 discriminator 1
 1234 06a8 FFF7FEFF 		bl	HAL_GetTick
 1235 06ac 0246     		mov	r2, r0
 1236 06ae 069B     		ldr	r3, [sp, #24]
 1237 06b0 D21A     		subs	r2, r2, r3
 1238 06b2 009B     		ldr	r3, [sp]
 1239 06b4 9A42     		cmp	r2, r3
 1240 06b6 01D9     		bls	.L77
 1241              	.L78:
ARM GAS  /tmp/ccjyqKqb.s 			page 23


 1242              		.loc 1 806 0 is_stmt 1
 1243 06b8 0323     		movs	r3, #3
 1244 06ba 27E0     		b	.L76
 1245              	.L77:
 1246              		.loc 1 798 0 discriminator 1
 1247 06bc 154B     		ldr	r3, .L82
 1248 06be 9B68     		ldr	r3, [r3, #8]
 1249 06c0 03F07F42 		and	r2, r3, #-16777216
 1250 06c4 4FF07F43 		mov	r3, #-16777216
 1251 06c8 0593     		str	r3, [sp, #20]
 1252              	.LBB101:
 1253              	.LBB102:
 1254              		.loc 2 586 0 discriminator 1
 1255 06ca 059B     		ldr	r3, [sp, #20]
 1256              	@ 586 "../../../../../../ChibiOS/os/ext/CMSIS/include/core_cmInstr.h" 1
 1257 06cc 93FAA3F3 		rbit r3, r3
 1258              	@ 0 "" 2
 1259              		.thumb
 1260 06d0 0493     		str	r3, [sp, #16]
 1261              		.loc 2 599 0 discriminator 1
 1262 06d2 049B     		ldr	r3, [sp, #16]
 1263              	.LBE102:
 1264              	.LBE101:
 1265              		.loc 1 798 0 discriminator 1
 1266 06d4 B3FA83F3 		clz	r3, r3
 1267 06d8 1946     		mov	r1, r3
 1268 06da 079B     		ldr	r3, [sp, #28]
 1269 06dc 0B44     		add	r3, r3, r1
 1270 06de 22FA03F3 		lsr	r3, r2, r3
 1271 06e2 002B     		cmp	r3, #0
 1272 06e4 D9D0     		beq	.L80
 1273              		.loc 1 812 0
 1274 06e6 0B4B     		ldr	r3, .L82
 1275 06e8 4FF07F42 		mov	r2, #-16777216
 1276 06ec 0392     		str	r2, [sp, #12]
 1277              	.LBB103:
 1278              	.LBB104:
 1279              		.loc 2 586 0
 1280 06ee 039A     		ldr	r2, [sp, #12]
 1281              	@ 586 "../../../../../../ChibiOS/os/ext/CMSIS/include/core_cmInstr.h" 1
 1282 06f0 92FAA2F2 		rbit r2, r2
 1283              	@ 0 "" 2
 1284              		.thumb
 1285 06f4 0292     		str	r2, [sp, #8]
 1286              		.loc 2 599 0
 1287 06f6 029A     		ldr	r2, [sp, #8]
 1288              	.LBE104:
 1289              	.LBE103:
 1290              		.loc 1 812 0
 1291 06f8 B2FA82F2 		clz	r2, r2
 1292 06fc 1146     		mov	r1, r2
 1293 06fe 079A     		ldr	r2, [sp, #28]
 1294 0700 0A44     		add	r2, r2, r1
 1295 0702 0121     		movs	r1, #1
 1296 0704 01FA02F2 		lsl	r2, r1, r2
 1297 0708 DA60     		str	r2, [r3, #12]
 1298              		.loc 1 815 0
ARM GAS  /tmp/ccjyqKqb.s 			page 24


 1299 070a 0023     		movs	r3, #0
 1300              	.L76:
 1301              		.loc 1 817 0
 1302 070c 1846     		mov	r0, r3
 1303 070e 09B0     		add	sp, sp, #36
 1304              		@ sp needed
 1305 0710 5DF804FB 		ldr	pc, [sp], #4
 1306              	.L83:
 1307              		.align	2
 1308              	.L82:
 1309 0714 00610140 		.word	1073832192
 1310              		.cfi_endproc
 1311              	.LFE136:
 1312              		.size	HAL_DFSDM_ChannelPollForScd, .-HAL_DFSDM_ChannelPollForScd
 1313              		.align	2
 1314 0718 AFF30080 		.p2align 4,,15
 1314      AFF30080 
 1315              		.global	HAL_DFSDM_ChannelScdStop
 1316              		.thumb
 1317              		.thumb_func
 1318              		.type	HAL_DFSDM_ChannelScdStop, %function
 1319              	HAL_DFSDM_ChannelScdStop:
 1320              	.LFB137:
 1321              		.loc 1 825 0
 1322              		.cfi_startproc
 1323              		@ args = 0, pretend = 0, frame = 24
 1324              		@ frame_needed = 0, uses_anonymous_args = 0
 1325 0720 00B5     		push	{lr}
 1326              		.cfi_def_cfa_offset 4
 1327              		.cfi_offset 14, -4
 1328 0722 87B0     		sub	sp, sp, #28
 1329              		.cfi_def_cfa_offset 32
 1330 0724 0190     		str	r0, [sp, #4]
 1331              		.loc 1 826 0
 1332 0726 0023     		movs	r3, #0
 1333 0728 8DF81730 		strb	r3, [sp, #23]
 1334              		.loc 1 833 0
 1335 072c 019B     		ldr	r3, [sp, #4]
 1336 072e 93F83430 		ldrb	r3, [r3, #52]	@ zero_extendqisi2
 1337 0732 012B     		cmp	r3, #1
 1338 0734 03D0     		beq	.L85
 1339              		.loc 1 836 0
 1340 0736 0123     		movs	r3, #1
 1341 0738 8DF81730 		strb	r3, [sp, #23]
 1342 073c 1FE0     		b	.L86
 1343              	.L85:
 1344              		.loc 1 841 0
 1345 073e 019B     		ldr	r3, [sp, #4]
 1346 0740 1B68     		ldr	r3, [r3]
 1347 0742 019A     		ldr	r2, [sp, #4]
 1348 0744 1268     		ldr	r2, [r2]
 1349 0746 1268     		ldr	r2, [r2]
 1350 0748 22F02002 		bic	r2, r2, #32
 1351 074c 1A60     		str	r2, [r3]
 1352              		.loc 1 844 0
 1353 074e 019B     		ldr	r3, [sp, #4]
 1354 0750 1B68     		ldr	r3, [r3]
ARM GAS  /tmp/ccjyqKqb.s 			page 25


 1355 0752 1846     		mov	r0, r3
 1356 0754 01F064FB 		bl	DFSDM_GetChannelFromInstance
 1357 0758 0490     		str	r0, [sp, #16]
 1358              		.loc 1 845 0
 1359 075a 0C4B     		ldr	r3, .L89
 1360 075c 4FF07F42 		mov	r2, #-16777216
 1361 0760 0392     		str	r2, [sp, #12]
 1362              	.LBB105:
 1363              	.LBB106:
 1364              		.loc 2 586 0
 1365 0762 039A     		ldr	r2, [sp, #12]
 1366              	@ 586 "../../../../../../ChibiOS/os/ext/CMSIS/include/core_cmInstr.h" 1
 1367 0764 92FAA2F2 		rbit r2, r2
 1368              	@ 0 "" 2
 1369              		.thumb
 1370 0768 0292     		str	r2, [sp, #8]
 1371              		.loc 2 599 0
 1372 076a 029A     		ldr	r2, [sp, #8]
 1373              	.LBE106:
 1374              	.LBE105:
 1375              		.loc 1 845 0
 1376 076c B2FA82F2 		clz	r2, r2
 1377 0770 1146     		mov	r1, r2
 1378 0772 049A     		ldr	r2, [sp, #16]
 1379 0774 0A44     		add	r2, r2, r1
 1380 0776 0121     		movs	r1, #1
 1381 0778 01FA02F2 		lsl	r2, r1, r2
 1382 077c DA60     		str	r2, [r3, #12]
 1383              	.L86:
 1384              		.loc 1 848 0
 1385 077e 9DF81730 		ldrb	r3, [sp, #23]	@ zero_extendqisi2
 1386              		.loc 1 849 0
 1387 0782 1846     		mov	r0, r3
 1388 0784 07B0     		add	sp, sp, #28
 1389              		@ sp needed
 1390 0786 5DF804FB 		ldr	pc, [sp], #4
 1391              	.L90:
 1392 078a 00BF     		.align	2
 1393              	.L89:
 1394 078c 00610140 		.word	1073832192
 1395              		.cfi_endproc
 1396              	.LFE137:
 1397              		.size	HAL_DFSDM_ChannelScdStop, .-HAL_DFSDM_ChannelScdStop
 1398              		.align	2
 1399              		.p2align 4,,15
 1400              		.global	HAL_DFSDM_ChannelScdStart_IT
 1401              		.thumb
 1402              		.thumb_func
 1403              		.type	HAL_DFSDM_ChannelScdStart_IT, %function
 1404              	HAL_DFSDM_ChannelScdStart_IT:
 1405              	.LFB138:
 1406              		.loc 1 864 0
 1407              		.cfi_startproc
 1408              		@ args = 0, pretend = 0, frame = 32
 1409              		@ frame_needed = 0, uses_anonymous_args = 0
 1410              		@ link register save eliminated.
 1411 0790 88B0     		sub	sp, sp, #32
ARM GAS  /tmp/ccjyqKqb.s 			page 26


 1412              		.cfi_def_cfa_offset 32
 1413 0792 0390     		str	r0, [sp, #12]
 1414 0794 0291     		str	r1, [sp, #8]
 1415 0796 0192     		str	r2, [sp, #4]
 1416              		.loc 1 865 0
 1417 0798 0023     		movs	r3, #0
 1418 079a 8DF81F30 		strb	r3, [sp, #31]
 1419              		.loc 1 873 0
 1420 079e 039B     		ldr	r3, [sp, #12]
 1421 07a0 93F83430 		ldrb	r3, [r3, #52]	@ zero_extendqisi2
 1422 07a4 012B     		cmp	r3, #1
 1423 07a6 03D0     		beq	.L92
 1424              		.loc 1 876 0
 1425 07a8 0123     		movs	r3, #1
 1426 07aa 8DF81F30 		strb	r3, [sp, #31]
 1427 07ae 2CE0     		b	.L93
 1428              	.L92:
 1429              		.loc 1 881 0
 1430 07b0 184B     		ldr	r3, .L96
 1431 07b2 184A     		ldr	r2, .L96
 1432 07b4 5268     		ldr	r2, [r2, #4]
 1433 07b6 42F02002 		orr	r2, r2, #32
 1434 07ba 5A60     		str	r2, [r3, #4]
 1435              		.loc 1 884 0
 1436 07bc 039B     		ldr	r3, [sp, #12]
 1437 07be 1A68     		ldr	r2, [r3]
 1438 07c0 039B     		ldr	r3, [sp, #12]
 1439 07c2 1B68     		ldr	r3, [r3]
 1440 07c4 9B68     		ldr	r3, [r3, #8]
 1441 07c6 23F47043 		bic	r3, r3, #61440
 1442 07ca 23F0FF03 		bic	r3, r3, #255
 1443 07ce 9360     		str	r3, [r2, #8]
 1444              		.loc 1 885 0
 1445 07d0 039B     		ldr	r3, [sp, #12]
 1446 07d2 1B68     		ldr	r3, [r3]
 1447 07d4 039A     		ldr	r2, [sp, #12]
 1448 07d6 1268     		ldr	r2, [r2]
 1449 07d8 9168     		ldr	r1, [r2, #8]
 1450 07da 4FF47042 		mov	r2, #61440
 1451 07de 0692     		str	r2, [sp, #24]
 1452              	.LBB107:
 1453              	.LBB108:
 1454              		.loc 2 586 0
 1455 07e0 069A     		ldr	r2, [sp, #24]
 1456              	@ 586 "../../../../../../ChibiOS/os/ext/CMSIS/include/core_cmInstr.h" 1
 1457 07e2 92FAA2F2 		rbit r2, r2
 1458              	@ 0 "" 2
 1459              		.thumb
 1460 07e6 0592     		str	r2, [sp, #20]
 1461              		.loc 2 599 0
 1462 07e8 059A     		ldr	r2, [sp, #20]
 1463              	.LBE108:
 1464              	.LBE107:
 1465              		.loc 1 885 0
 1466 07ea B2FA82F2 		clz	r2, r2
 1467 07ee 0198     		ldr	r0, [sp, #4]
 1468 07f0 9040     		lsls	r0, r0, r2
ARM GAS  /tmp/ccjyqKqb.s 			page 27


 1469 07f2 029A     		ldr	r2, [sp, #8]
 1470 07f4 0243     		orrs	r2, r2, r0
 1471 07f6 0A43     		orrs	r2, r2, r1
 1472 07f8 9A60     		str	r2, [r3, #8]
 1473              		.loc 1 889 0
 1474 07fa 039B     		ldr	r3, [sp, #12]
 1475 07fc 1B68     		ldr	r3, [r3]
 1476 07fe 039A     		ldr	r2, [sp, #12]
 1477 0800 1268     		ldr	r2, [r2]
 1478 0802 1268     		ldr	r2, [r2]
 1479 0804 42F02002 		orr	r2, r2, #32
 1480 0808 1A60     		str	r2, [r3]
 1481              	.L93:
 1482              		.loc 1 892 0
 1483 080a 9DF81F30 		ldrb	r3, [sp, #31]	@ zero_extendqisi2
 1484              		.loc 1 893 0
 1485 080e 1846     		mov	r0, r3
 1486 0810 08B0     		add	sp, sp, #32
 1487              		@ sp needed
 1488 0812 7047     		bx	lr
 1489              	.L97:
 1490              		.align	2
 1491              	.L96:
 1492 0814 00610140 		.word	1073832192
 1493              		.cfi_endproc
 1494              	.LFE138:
 1495              		.size	HAL_DFSDM_ChannelScdStart_IT, .-HAL_DFSDM_ChannelScdStart_IT
 1496              		.align	2
 1497 0818 AFF30080 		.p2align 4,,15
 1497      AFF30080 
 1498              		.weak	HAL_DFSDM_ChannelScdCallback
 1499              		.thumb
 1500              		.thumb_func
 1501              		.type	HAL_DFSDM_ChannelScdCallback, %function
 1502              	HAL_DFSDM_ChannelScdCallback:
 1503              	.LFB139:
 1504              		.loc 1 901 0
 1505              		.cfi_startproc
 1506              		@ args = 0, pretend = 0, frame = 8
 1507              		@ frame_needed = 0, uses_anonymous_args = 0
 1508              		@ link register save eliminated.
 1509 0820 82B0     		sub	sp, sp, #8
 1510              		.cfi_def_cfa_offset 8
 1511 0822 0190     		str	r0, [sp, #4]
 1512              		.loc 1 908 0
 1513 0824 02B0     		add	sp, sp, #8
 1514              		@ sp needed
 1515 0826 7047     		bx	lr
 1516              		.cfi_endproc
 1517              	.LFE139:
 1518              		.size	HAL_DFSDM_ChannelScdCallback, .-HAL_DFSDM_ChannelScdCallback
 1519              		.align	2
 1520 0828 AFF30080 		.p2align 4,,15
 1520      AFF30080 
 1521              		.global	HAL_DFSDM_ChannelScdStop_IT
 1522              		.thumb
 1523              		.thumb_func
ARM GAS  /tmp/ccjyqKqb.s 			page 28


 1524              		.type	HAL_DFSDM_ChannelScdStop_IT, %function
 1525              	HAL_DFSDM_ChannelScdStop_IT:
 1526              	.LFB140:
 1527              		.loc 1 917 0
 1528              		.cfi_startproc
 1529              		@ args = 0, pretend = 0, frame = 24
 1530              		@ frame_needed = 0, uses_anonymous_args = 0
 1531 0830 00B5     		push	{lr}
 1532              		.cfi_def_cfa_offset 4
 1533              		.cfi_offset 14, -4
 1534 0832 87B0     		sub	sp, sp, #28
 1535              		.cfi_def_cfa_offset 32
 1536 0834 0190     		str	r0, [sp, #4]
 1537              		.loc 1 918 0
 1538 0836 0023     		movs	r3, #0
 1539 0838 8DF81730 		strb	r3, [sp, #23]
 1540              		.loc 1 925 0
 1541 083c 019B     		ldr	r3, [sp, #4]
 1542 083e 93F83430 		ldrb	r3, [r3, #52]	@ zero_extendqisi2
 1543 0842 012B     		cmp	r3, #1
 1544 0844 03D0     		beq	.L100
 1545              		.loc 1 928 0
 1546 0846 0123     		movs	r3, #1
 1547 0848 8DF81730 		strb	r3, [sp, #23]
 1548 084c 25E0     		b	.L101
 1549              	.L100:
 1550              		.loc 1 933 0
 1551 084e 019B     		ldr	r3, [sp, #4]
 1552 0850 1B68     		ldr	r3, [r3]
 1553 0852 019A     		ldr	r2, [sp, #4]
 1554 0854 1268     		ldr	r2, [r2]
 1555 0856 1268     		ldr	r2, [r2]
 1556 0858 22F02002 		bic	r2, r2, #32
 1557 085c 1A60     		str	r2, [r3]
 1558              		.loc 1 936 0
 1559 085e 019B     		ldr	r3, [sp, #4]
 1560 0860 1B68     		ldr	r3, [r3]
 1561 0862 1846     		mov	r0, r3
 1562 0864 01F0DCFA 		bl	DFSDM_GetChannelFromInstance
 1563 0868 0490     		str	r0, [sp, #16]
 1564              		.loc 1 937 0
 1565 086a 0F4B     		ldr	r3, .L104
 1566 086c 4FF07F42 		mov	r2, #-16777216
 1567 0870 0392     		str	r2, [sp, #12]
 1568              	.LBB109:
 1569              	.LBB110:
 1570              		.loc 2 586 0
 1571 0872 039A     		ldr	r2, [sp, #12]
 1572              	@ 586 "../../../../../../ChibiOS/os/ext/CMSIS/include/core_cmInstr.h" 1
 1573 0874 92FAA2F2 		rbit r2, r2
 1574              	@ 0 "" 2
 1575              		.thumb
 1576 0878 0292     		str	r2, [sp, #8]
 1577              		.loc 2 599 0
 1578 087a 029A     		ldr	r2, [sp, #8]
 1579              	.LBE110:
 1580              	.LBE109:
ARM GAS  /tmp/ccjyqKqb.s 			page 29


 1581              		.loc 1 937 0
 1582 087c B2FA82F2 		clz	r2, r2
 1583 0880 1146     		mov	r1, r2
 1584 0882 049A     		ldr	r2, [sp, #16]
 1585 0884 0A44     		add	r2, r2, r1
 1586 0886 0121     		movs	r1, #1
 1587 0888 01FA02F2 		lsl	r2, r1, r2
 1588 088c DA60     		str	r2, [r3, #12]
 1589              		.loc 1 940 0
 1590 088e 064B     		ldr	r3, .L104
 1591 0890 054A     		ldr	r2, .L104
 1592 0892 5268     		ldr	r2, [r2, #4]
 1593 0894 22F02002 		bic	r2, r2, #32
 1594 0898 5A60     		str	r2, [r3, #4]
 1595              	.L101:
 1596              		.loc 1 943 0
 1597 089a 9DF81730 		ldrb	r3, [sp, #23]	@ zero_extendqisi2
 1598              		.loc 1 944 0
 1599 089e 1846     		mov	r0, r3
 1600 08a0 07B0     		add	sp, sp, #28
 1601              		@ sp needed
 1602 08a2 5DF804FB 		ldr	pc, [sp], #4
 1603              	.L105:
 1604 08a6 00BF     		.align	2
 1605              	.L104:
 1606 08a8 00610140 		.word	1073832192
 1607              		.cfi_endproc
 1608              	.LFE140:
 1609              		.size	HAL_DFSDM_ChannelScdStop_IT, .-HAL_DFSDM_ChannelScdStop_IT
 1610              		.align	2
 1611 08ac AFF30080 		.p2align 4,,15
 1612              		.global	HAL_DFSDM_ChannelGetAwdValue
 1613              		.thumb
 1614              		.thumb_func
 1615              		.type	HAL_DFSDM_ChannelGetAwdValue, %function
 1616              	HAL_DFSDM_ChannelGetAwdValue:
 1617              	.LFB141:
 1618              		.loc 1 952 0
 1619              		.cfi_startproc
 1620              		@ args = 0, pretend = 0, frame = 8
 1621              		@ frame_needed = 0, uses_anonymous_args = 0
 1622              		@ link register save eliminated.
 1623 08b0 82B0     		sub	sp, sp, #8
 1624              		.cfi_def_cfa_offset 8
 1625 08b2 0190     		str	r0, [sp, #4]
 1626              		.loc 1 953 0
 1627 08b4 019B     		ldr	r3, [sp, #4]
 1628 08b6 1B68     		ldr	r3, [r3]
 1629 08b8 DB68     		ldr	r3, [r3, #12]
 1630 08ba 9BB2     		uxth	r3, r3
 1631 08bc 1BB2     		sxth	r3, r3
 1632              		.loc 1 954 0
 1633 08be 1846     		mov	r0, r3
 1634 08c0 02B0     		add	sp, sp, #8
 1635              		@ sp needed
 1636 08c2 7047     		bx	lr
 1637              		.cfi_endproc
ARM GAS  /tmp/ccjyqKqb.s 			page 30


 1638              	.LFE141:
 1639              		.size	HAL_DFSDM_ChannelGetAwdValue, .-HAL_DFSDM_ChannelGetAwdValue
 1640              		.align	2
 1641 08c4 AFF30080 		.p2align 4,,15
 1641      AFF30080 
 1641      AFF30080 
 1642              		.global	HAL_DFSDM_ChannelModifyOffset
 1643              		.thumb
 1644              		.thumb_func
 1645              		.type	HAL_DFSDM_ChannelModifyOffset, %function
 1646              	HAL_DFSDM_ChannelModifyOffset:
 1647              	.LFB142:
 1648              		.loc 1 965 0
 1649              		.cfi_startproc
 1650              		@ args = 0, pretend = 0, frame = 24
 1651              		@ frame_needed = 0, uses_anonymous_args = 0
 1652              		@ link register save eliminated.
 1653 08d0 86B0     		sub	sp, sp, #24
 1654              		.cfi_def_cfa_offset 24
 1655 08d2 0190     		str	r0, [sp, #4]
 1656 08d4 0091     		str	r1, [sp]
 1657              		.loc 1 966 0
 1658 08d6 0023     		movs	r3, #0
 1659 08d8 8DF81730 		strb	r3, [sp, #23]
 1660              		.loc 1 973 0
 1661 08dc 019B     		ldr	r3, [sp, #4]
 1662 08de 93F83430 		ldrb	r3, [r3, #52]	@ zero_extendqisi2
 1663 08e2 012B     		cmp	r3, #1
 1664 08e4 03D0     		beq	.L109
 1665              		.loc 1 976 0
 1666 08e6 0123     		movs	r3, #1
 1667 08e8 8DF81730 		strb	r3, [sp, #23]
 1668 08ec 1AE0     		b	.L110
 1669              	.L109:
 1670              		.loc 1 981 0
 1671 08ee 019B     		ldr	r3, [sp, #4]
 1672 08f0 1B68     		ldr	r3, [r3]
 1673 08f2 019A     		ldr	r2, [sp, #4]
 1674 08f4 1268     		ldr	r2, [r2]
 1675 08f6 5268     		ldr	r2, [r2, #4]
 1676 08f8 D2B2     		uxtb	r2, r2
 1677 08fa 5A60     		str	r2, [r3, #4]
 1678              		.loc 1 982 0
 1679 08fc 019B     		ldr	r3, [sp, #4]
 1680 08fe 1B68     		ldr	r3, [r3]
 1681 0900 019A     		ldr	r2, [sp, #4]
 1682 0902 1268     		ldr	r2, [r2]
 1683 0904 5168     		ldr	r1, [r2, #4]
 1684 0906 0098     		ldr	r0, [sp]
 1685 0908 6FF0FF02 		mvn	r2, #255
 1686 090c 0492     		str	r2, [sp, #16]
 1687              	.LBB111:
 1688              	.LBB112:
 1689              		.loc 2 586 0
 1690 090e 049A     		ldr	r2, [sp, #16]
 1691              	@ 586 "../../../../../../ChibiOS/os/ext/CMSIS/include/core_cmInstr.h" 1
 1692 0910 92FAA2F2 		rbit r2, r2
ARM GAS  /tmp/ccjyqKqb.s 			page 31


 1693              	@ 0 "" 2
 1694              		.thumb
 1695 0914 0392     		str	r2, [sp, #12]
 1696              		.loc 2 599 0
 1697 0916 039A     		ldr	r2, [sp, #12]
 1698              	.LBE112:
 1699              	.LBE111:
 1700              		.loc 1 982 0
 1701 0918 B2FA82F2 		clz	r2, r2
 1702 091c 00FA02F2 		lsl	r2, r0, r2
 1703 0920 0A43     		orrs	r2, r2, r1
 1704 0922 5A60     		str	r2, [r3, #4]
 1705              	.L110:
 1706              		.loc 1 985 0
 1707 0924 9DF81730 		ldrb	r3, [sp, #23]	@ zero_extendqisi2
 1708              		.loc 1 986 0
 1709 0928 1846     		mov	r0, r3
 1710 092a 06B0     		add	sp, sp, #24
 1711              		@ sp needed
 1712 092c 7047     		bx	lr
 1713              		.cfi_endproc
 1714              	.LFE142:
 1715              		.size	HAL_DFSDM_ChannelModifyOffset, .-HAL_DFSDM_ChannelModifyOffset
 1716 092e 00BF     		.align	2
 1717              		.p2align 4,,15
 1718              		.global	HAL_DFSDM_ChannelGetState
 1719              		.thumb
 1720              		.thumb_func
 1721              		.type	HAL_DFSDM_ChannelGetState, %function
 1722              	HAL_DFSDM_ChannelGetState:
 1723              	.LFB143:
 1724              		.loc 1 1011 0
 1725              		.cfi_startproc
 1726              		@ args = 0, pretend = 0, frame = 8
 1727              		@ frame_needed = 0, uses_anonymous_args = 0
 1728              		@ link register save eliminated.
 1729 0930 82B0     		sub	sp, sp, #8
 1730              		.cfi_def_cfa_offset 8
 1731 0932 0190     		str	r0, [sp, #4]
 1732              		.loc 1 1013 0
 1733 0934 019B     		ldr	r3, [sp, #4]
 1734 0936 93F83430 		ldrb	r3, [r3, #52]	@ zero_extendqisi2
 1735              		.loc 1 1014 0
 1736 093a 1846     		mov	r0, r3
 1737 093c 02B0     		add	sp, sp, #8
 1738              		@ sp needed
 1739 093e 7047     		bx	lr
 1740              		.cfi_endproc
 1741              	.LFE143:
 1742              		.size	HAL_DFSDM_ChannelGetState, .-HAL_DFSDM_ChannelGetState
 1743              		.align	2
 1744              		.p2align 4,,15
 1745              		.global	HAL_DFSDM_FilterInit
 1746              		.thumb
 1747              		.thumb_func
 1748              		.type	HAL_DFSDM_FilterInit, %function
 1749              	HAL_DFSDM_FilterInit:
ARM GAS  /tmp/ccjyqKqb.s 			page 32


 1750              	.LFB144:
 1751              		.loc 1 1041 0
 1752              		.cfi_startproc
 1753              		@ args = 0, pretend = 0, frame = 16
 1754              		@ frame_needed = 0, uses_anonymous_args = 0
 1755 0940 10B5     		push	{r4, lr}
 1756              		.cfi_def_cfa_offset 8
 1757              		.cfi_offset 4, -8
 1758              		.cfi_offset 14, -4
 1759 0942 84B0     		sub	sp, sp, #16
 1760              		.cfi_def_cfa_offset 24
 1761 0944 0190     		str	r0, [sp, #4]
 1762              		.loc 1 1043 0
 1763 0946 019B     		ldr	r3, [sp, #4]
 1764 0948 002B     		cmp	r3, #0
 1765 094a 01D1     		bne	.L116
 1766              		.loc 1 1045 0
 1767 094c 0123     		movs	r3, #1
 1768 094e D4E0     		b	.L117
 1769              	.L116:
 1770              		.loc 1 1061 0
 1771 0950 019B     		ldr	r3, [sp, #4]
 1772 0952 1A68     		ldr	r2, [r3]
 1773 0954 6A4B     		ldr	r3, .L130
 1774 0956 9A42     		cmp	r2, r3
 1775 0958 09D1     		bne	.L118
 1776              		.loc 1 1062 0 discriminator 1
 1777 095a 019B     		ldr	r3, [sp, #4]
 1778 095c 5B68     		ldr	r3, [r3, #4]
 1779              		.loc 1 1061 0 discriminator 1
 1780 095e 012B     		cmp	r3, #1
 1781 0960 03D0     		beq	.L119
 1782              		.loc 1 1063 0
 1783 0962 019B     		ldr	r3, [sp, #4]
 1784 0964 DB68     		ldr	r3, [r3, #12]
 1785              		.loc 1 1062 0
 1786 0966 012B     		cmp	r3, #1
 1787 0968 01D1     		bne	.L118
 1788              	.L119:
 1789              		.loc 1 1065 0
 1790 096a 0123     		movs	r3, #1
 1791 096c C5E0     		b	.L117
 1792              	.L118:
 1793              		.loc 1 1069 0
 1794 096e 019B     		ldr	r3, [sp, #4]
 1795 0970 0022     		movs	r2, #0
 1796 0972 1A63     		str	r2, [r3, #48]
 1797              		.loc 1 1070 0
 1798 0974 019B     		ldr	r3, [sp, #4]
 1799 0976 0122     		movs	r2, #1
 1800 0978 5A64     		str	r2, [r3, #68]
 1801              		.loc 1 1071 0
 1802 097a 019B     		ldr	r3, [sp, #4]
 1803 097c 0122     		movs	r2, #1
 1804 097e 9A64     		str	r2, [r3, #72]
 1805              		.loc 1 1072 0
 1806 0980 019B     		ldr	r3, [sp, #4]
ARM GAS  /tmp/ccjyqKqb.s 			page 33


 1807 0982 0022     		movs	r2, #0
 1808 0984 1A65     		str	r2, [r3, #80]
 1809              		.loc 1 1075 0
 1810 0986 0198     		ldr	r0, [sp, #4]
 1811 0988 FFF7FEFF 		bl	HAL_DFSDM_FilterMspInit
 1812              		.loc 1 1078 0
 1813 098c 019B     		ldr	r3, [sp, #4]
 1814 098e 1B68     		ldr	r3, [r3]
 1815 0990 019A     		ldr	r2, [sp, #4]
 1816 0992 1268     		ldr	r2, [r2]
 1817 0994 1268     		ldr	r2, [r2]
 1818 0996 22F40022 		bic	r2, r2, #524288
 1819 099a 1A60     		str	r2, [r3]
 1820              		.loc 1 1079 0
 1821 099c 019B     		ldr	r3, [sp, #4]
 1822 099e 1B7A     		ldrb	r3, [r3, #8]	@ zero_extendqisi2
 1823 09a0 012B     		cmp	r3, #1
 1824 09a2 08D1     		bne	.L120
 1825              		.loc 1 1081 0
 1826 09a4 019B     		ldr	r3, [sp, #4]
 1827 09a6 1B68     		ldr	r3, [r3]
 1828 09a8 019A     		ldr	r2, [sp, #4]
 1829 09aa 1268     		ldr	r2, [r2]
 1830 09ac 1268     		ldr	r2, [r2]
 1831 09ae 42F00052 		orr	r2, r2, #536870912
 1832 09b2 1A60     		str	r2, [r3]
 1833 09b4 07E0     		b	.L121
 1834              	.L120:
 1835              		.loc 1 1085 0
 1836 09b6 019B     		ldr	r3, [sp, #4]
 1837 09b8 1B68     		ldr	r3, [r3]
 1838 09ba 019A     		ldr	r2, [sp, #4]
 1839 09bc 1268     		ldr	r2, [r2]
 1840 09be 1268     		ldr	r2, [r2]
 1841 09c0 22F00052 		bic	r2, r2, #536870912
 1842 09c4 1A60     		str	r2, [r3]
 1843              	.L121:
 1844              		.loc 1 1088 0
 1845 09c6 019B     		ldr	r3, [sp, #4]
 1846 09c8 5B7A     		ldrb	r3, [r3, #9]	@ zero_extendqisi2
 1847 09ca 012B     		cmp	r3, #1
 1848 09cc 08D1     		bne	.L122
 1849              		.loc 1 1090 0
 1850 09ce 019B     		ldr	r3, [sp, #4]
 1851 09d0 1B68     		ldr	r3, [r3]
 1852 09d2 019A     		ldr	r2, [sp, #4]
 1853 09d4 1268     		ldr	r2, [r2]
 1854 09d6 1268     		ldr	r2, [r2]
 1855 09d8 42F40012 		orr	r2, r2, #2097152
 1856 09dc 1A60     		str	r2, [r3]
 1857 09de 07E0     		b	.L123
 1858              	.L122:
 1859              		.loc 1 1094 0
 1860 09e0 019B     		ldr	r3, [sp, #4]
 1861 09e2 1B68     		ldr	r3, [r3]
 1862 09e4 019A     		ldr	r2, [sp, #4]
 1863 09e6 1268     		ldr	r2, [r2]
ARM GAS  /tmp/ccjyqKqb.s 			page 34


 1864 09e8 1268     		ldr	r2, [r2]
 1865 09ea 22F40012 		bic	r2, r2, #2097152
 1866 09ee 1A60     		str	r2, [r3]
 1867              	.L123:
 1868              		.loc 1 1098 0
 1869 09f0 019B     		ldr	r3, [sp, #4]
 1870 09f2 1A68     		ldr	r2, [r3]
 1871 09f4 019B     		ldr	r3, [sp, #4]
 1872 09f6 1B68     		ldr	r3, [r3]
 1873 09f8 1B68     		ldr	r3, [r3]
 1874 09fa 23F4CE43 		bic	r3, r3, #26368
 1875 09fe 23F00803 		bic	r3, r3, #8
 1876 0a02 1360     		str	r3, [r2]
 1877              		.loc 1 1099 0
 1878 0a04 019B     		ldr	r3, [sp, #4]
 1879 0a06 DB68     		ldr	r3, [r3, #12]
 1880 0a08 022B     		cmp	r3, #2
 1881 0a0a 08D1     		bne	.L124
 1882              		.loc 1 1103 0
 1883 0a0c 019B     		ldr	r3, [sp, #4]
 1884 0a0e 1B68     		ldr	r3, [r3]
 1885 0a10 019A     		ldr	r2, [sp, #4]
 1886 0a12 1268     		ldr	r2, [r2]
 1887 0a14 1168     		ldr	r1, [r2]
 1888 0a16 019A     		ldr	r2, [sp, #4]
 1889 0a18 5269     		ldr	r2, [r2, #20]
 1890 0a1a 0A43     		orrs	r2, r2, r1
 1891 0a1c 1A60     		str	r2, [r3]
 1892              	.L124:
 1893              		.loc 1 1106 0
 1894 0a1e 019B     		ldr	r3, [sp, #4]
 1895 0a20 1B7C     		ldrb	r3, [r3, #16]	@ zero_extendqisi2
 1896 0a22 012B     		cmp	r3, #1
 1897 0a24 08D1     		bne	.L125
 1898              		.loc 1 1108 0
 1899 0a26 019B     		ldr	r3, [sp, #4]
 1900 0a28 1B68     		ldr	r3, [r3]
 1901 0a2a 019A     		ldr	r2, [sp, #4]
 1902 0a2c 1268     		ldr	r2, [r2]
 1903 0a2e 1268     		ldr	r2, [r2]
 1904 0a30 42F01002 		orr	r2, r2, #16
 1905 0a34 1A60     		str	r2, [r3]
 1906 0a36 07E0     		b	.L126
 1907              	.L125:
 1908              		.loc 1 1112 0
 1909 0a38 019B     		ldr	r3, [sp, #4]
 1910 0a3a 1B68     		ldr	r3, [r3]
 1911 0a3c 019A     		ldr	r2, [sp, #4]
 1912 0a3e 1268     		ldr	r2, [r2]
 1913 0a40 1268     		ldr	r2, [r2]
 1914 0a42 22F01002 		bic	r2, r2, #16
 1915 0a46 1A60     		str	r2, [r3]
 1916              	.L126:
 1917              		.loc 1 1115 0
 1918 0a48 019B     		ldr	r3, [sp, #4]
 1919 0a4a 5B7C     		ldrb	r3, [r3, #17]	@ zero_extendqisi2
 1920 0a4c 012B     		cmp	r3, #1
ARM GAS  /tmp/ccjyqKqb.s 			page 35


 1921 0a4e 08D1     		bne	.L127
 1922              		.loc 1 1117 0
 1923 0a50 019B     		ldr	r3, [sp, #4]
 1924 0a52 1B68     		ldr	r3, [r3]
 1925 0a54 019A     		ldr	r2, [sp, #4]
 1926 0a56 1268     		ldr	r2, [r2]
 1927 0a58 1268     		ldr	r2, [r2]
 1928 0a5a 42F02002 		orr	r2, r2, #32
 1929 0a5e 1A60     		str	r2, [r3]
 1930 0a60 07E0     		b	.L128
 1931              	.L127:
 1932              		.loc 1 1121 0
 1933 0a62 019B     		ldr	r3, [sp, #4]
 1934 0a64 1B68     		ldr	r3, [r3]
 1935 0a66 019A     		ldr	r2, [sp, #4]
 1936 0a68 1268     		ldr	r2, [r2]
 1937 0a6a 1268     		ldr	r2, [r2]
 1938 0a6c 22F02002 		bic	r2, r2, #32
 1939 0a70 1A60     		str	r2, [r3]
 1940              	.L128:
 1941              		.loc 1 1125 0
 1942 0a72 019B     		ldr	r3, [sp, #4]
 1943 0a74 1A68     		ldr	r2, [r3]
 1944 0a76 019B     		ldr	r3, [sp, #4]
 1945 0a78 1B68     		ldr	r3, [r3]
 1946 0a7a 5B69     		ldr	r3, [r3, #20]
 1947 0a7c 23F06343 		bic	r3, r3, #-486539264
 1948 0a80 03F0FF23 		and	r3, r3, #-16711936
 1949 0a84 5361     		str	r3, [r2, #20]
 1950              		.loc 1 1126 0
 1951 0a86 019B     		ldr	r3, [sp, #4]
 1952 0a88 1B68     		ldr	r3, [r3]
 1953 0a8a 019A     		ldr	r2, [sp, #4]
 1954 0a8c 1268     		ldr	r2, [r2]
 1955 0a8e 5169     		ldr	r1, [r2, #20]
 1956 0a90 019A     		ldr	r2, [sp, #4]
 1957 0a92 D069     		ldr	r0, [r2, #28]
 1958              		.loc 1 1127 0
 1959 0a94 019A     		ldr	r2, [sp, #4]
 1960 0a96 126A     		ldr	r2, [r2, #32]
 1961 0a98 541E     		subs	r4, r2, #1
 1962 0a9a 1A4A     		ldr	r2, .L130+4
 1963 0a9c 0392     		str	r2, [sp, #12]
 1964              	.LBB113:
 1965              	.LBB114:
 1966              		.loc 2 586 0
 1967 0a9e 039A     		ldr	r2, [sp, #12]
 1968              	@ 586 "../../../../../../ChibiOS/os/ext/CMSIS/include/core_cmInstr.h" 1
 1969 0aa0 92FAA2F2 		rbit r2, r2
 1970              	@ 0 "" 2
 1971              		.thumb
 1972 0aa4 0292     		str	r2, [sp, #8]
 1973              		.loc 2 599 0
 1974 0aa6 029A     		ldr	r2, [sp, #8]
 1975              	.LBE114:
 1976              	.LBE113:
 1977              		.loc 1 1127 0
ARM GAS  /tmp/ccjyqKqb.s 			page 36


 1978 0aa8 B2FA82F2 		clz	r2, r2
 1979 0aac 04FA02F2 		lsl	r2, r4, r2
 1980              		.loc 1 1126 0
 1981 0ab0 1043     		orrs	r0, r0, r2
 1982              		.loc 1 1128 0
 1983 0ab2 019A     		ldr	r2, [sp, #4]
 1984 0ab4 526A     		ldr	r2, [r2, #36]
 1985 0ab6 013A     		subs	r2, r2, #1
 1986              		.loc 1 1127 0
 1987 0ab8 0243     		orrs	r2, r2, r0
 1988              		.loc 1 1126 0
 1989 0aba 0A43     		orrs	r2, r2, r1
 1990 0abc 5A61     		str	r2, [r3, #20]
 1991              		.loc 1 1131 0
 1992 0abe 019B     		ldr	r3, [sp, #4]
 1993 0ac0 5A68     		ldr	r2, [r3, #4]
 1994 0ac2 019B     		ldr	r3, [sp, #4]
 1995 0ac4 5A63     		str	r2, [r3, #52]
 1996              		.loc 1 1132 0
 1997 0ac6 019B     		ldr	r3, [sp, #4]
 1998 0ac8 DA68     		ldr	r2, [r3, #12]
 1999 0aca 019B     		ldr	r3, [sp, #4]
 2000 0acc 9A63     		str	r2, [r3, #56]
 2001              		.loc 1 1133 0
 2002 0ace 019B     		ldr	r3, [sp, #4]
 2003 0ad0 9A69     		ldr	r2, [r3, #24]
 2004 0ad2 019B     		ldr	r3, [sp, #4]
 2005 0ad4 DA63     		str	r2, [r3, #60]
 2006              		.loc 1 1134 0
 2007 0ad6 019B     		ldr	r3, [sp, #4]
 2008 0ad8 1A7C     		ldrb	r2, [r3, #16]	@ zero_extendqisi2
 2009 0ada 019B     		ldr	r3, [sp, #4]
 2010 0adc 83F84020 		strb	r2, [r3, #64]
 2011              		.loc 1 1137 0
 2012 0ae0 019B     		ldr	r3, [sp, #4]
 2013 0ae2 1B68     		ldr	r3, [r3]
 2014 0ae4 019A     		ldr	r2, [sp, #4]
 2015 0ae6 1268     		ldr	r2, [r2]
 2016 0ae8 1268     		ldr	r2, [r2]
 2017 0aea 42F00102 		orr	r2, r2, #1
 2018 0aee 1A60     		str	r2, [r3]
 2019              		.loc 1 1140 0
 2020 0af0 019B     		ldr	r3, [sp, #4]
 2021 0af2 0122     		movs	r2, #1
 2022 0af4 83F84C20 		strb	r2, [r3, #76]
 2023              		.loc 1 1142 0
 2024 0af8 0023     		movs	r3, #0
 2025              	.L117:
 2026              		.loc 1 1143 0
 2027 0afa 1846     		mov	r0, r3
 2028 0afc 04B0     		add	sp, sp, #16
 2029              		@ sp needed
 2030 0afe 10BD     		pop	{r4, pc}
 2031              	.L131:
 2032              		.align	2
 2033              	.L130:
 2034 0b00 00610140 		.word	1073832192
ARM GAS  /tmp/ccjyqKqb.s 			page 37


 2035 0b04 0000FF03 		.word	67043328
 2036              		.cfi_endproc
 2037              	.LFE144:
 2038              		.size	HAL_DFSDM_FilterInit, .-HAL_DFSDM_FilterInit
 2039              		.align	2
 2040 0b08 AFF30080 		.p2align 4,,15
 2040      AFF30080 
 2041              		.global	HAL_DFSDM_FilterDeInit
 2042              		.thumb
 2043              		.thumb_func
 2044              		.type	HAL_DFSDM_FilterDeInit, %function
 2045              	HAL_DFSDM_FilterDeInit:
 2046              	.LFB145:
 2047              		.loc 1 1151 0
 2048              		.cfi_startproc
 2049              		@ args = 0, pretend = 0, frame = 8
 2050              		@ frame_needed = 0, uses_anonymous_args = 0
 2051 0b10 00B5     		push	{lr}
 2052              		.cfi_def_cfa_offset 4
 2053              		.cfi_offset 14, -4
 2054 0b12 83B0     		sub	sp, sp, #12
 2055              		.cfi_def_cfa_offset 16
 2056 0b14 0190     		str	r0, [sp, #4]
 2057              		.loc 1 1153 0
 2058 0b16 019B     		ldr	r3, [sp, #4]
 2059 0b18 002B     		cmp	r3, #0
 2060 0b1a 01D1     		bne	.L133
 2061              		.loc 1 1155 0
 2062 0b1c 0123     		movs	r3, #1
 2063 0b1e 0FE0     		b	.L134
 2064              	.L133:
 2065              		.loc 1 1162 0
 2066 0b20 019B     		ldr	r3, [sp, #4]
 2067 0b22 1B68     		ldr	r3, [r3]
 2068 0b24 019A     		ldr	r2, [sp, #4]
 2069 0b26 1268     		ldr	r2, [r2]
 2070 0b28 1268     		ldr	r2, [r2]
 2071 0b2a 22F00102 		bic	r2, r2, #1
 2072 0b2e 1A60     		str	r2, [r3]
 2073              		.loc 1 1165 0
 2074 0b30 0198     		ldr	r0, [sp, #4]
 2075 0b32 FFF7FEFF 		bl	HAL_DFSDM_FilterMspDeInit
 2076              		.loc 1 1168 0
 2077 0b36 019B     		ldr	r3, [sp, #4]
 2078 0b38 0022     		movs	r2, #0
 2079 0b3a 83F84C20 		strb	r2, [r3, #76]
 2080              		.loc 1 1170 0
 2081 0b3e 0023     		movs	r3, #0
 2082              	.L134:
 2083              		.loc 1 1171 0
 2084 0b40 1846     		mov	r0, r3
 2085 0b42 03B0     		add	sp, sp, #12
 2086              		@ sp needed
 2087 0b44 5DF804FB 		ldr	pc, [sp], #4
 2088              		.cfi_endproc
 2089              	.LFE145:
 2090              		.size	HAL_DFSDM_FilterDeInit, .-HAL_DFSDM_FilterDeInit
ARM GAS  /tmp/ccjyqKqb.s 			page 38


 2091              		.align	2
 2092 0b48 AFF30080 		.p2align 4,,15
 2092      AFF30080 
 2093              		.weak	HAL_DFSDM_FilterMspInit
 2094              		.thumb
 2095              		.thumb_func
 2096              		.type	HAL_DFSDM_FilterMspInit, %function
 2097              	HAL_DFSDM_FilterMspInit:
 2098              	.LFB146:
 2099              		.loc 1 1179 0
 2100              		.cfi_startproc
 2101              		@ args = 0, pretend = 0, frame = 8
 2102              		@ frame_needed = 0, uses_anonymous_args = 0
 2103              		@ link register save eliminated.
 2104 0b50 82B0     		sub	sp, sp, #8
 2105              		.cfi_def_cfa_offset 8
 2106 0b52 0190     		str	r0, [sp, #4]
 2107              		.loc 1 1186 0
 2108 0b54 02B0     		add	sp, sp, #8
 2109              		@ sp needed
 2110 0b56 7047     		bx	lr
 2111              		.cfi_endproc
 2112              	.LFE146:
 2113              		.size	HAL_DFSDM_FilterMspInit, .-HAL_DFSDM_FilterMspInit
 2114              		.align	2
 2115 0b58 AFF30080 		.p2align 4,,15
 2115      AFF30080 
 2116              		.weak	HAL_DFSDM_FilterMspDeInit
 2117              		.thumb
 2118              		.thumb_func
 2119              		.type	HAL_DFSDM_FilterMspDeInit, %function
 2120              	HAL_DFSDM_FilterMspDeInit:
 2121              	.LFB147:
 2122              		.loc 1 1194 0
 2123              		.cfi_startproc
 2124              		@ args = 0, pretend = 0, frame = 8
 2125              		@ frame_needed = 0, uses_anonymous_args = 0
 2126              		@ link register save eliminated.
 2127 0b60 82B0     		sub	sp, sp, #8
 2128              		.cfi_def_cfa_offset 8
 2129 0b62 0190     		str	r0, [sp, #4]
 2130              		.loc 1 1201 0
 2131 0b64 02B0     		add	sp, sp, #8
 2132              		@ sp needed
 2133 0b66 7047     		bx	lr
 2134              		.cfi_endproc
 2135              	.LFE147:
 2136              		.size	HAL_DFSDM_FilterMspDeInit, .-HAL_DFSDM_FilterMspDeInit
 2137              		.align	2
 2138 0b68 AFF30080 		.p2align 4,,15
 2138      AFF30080 
 2139              		.global	HAL_DFSDM_FilterConfigRegChannel
 2140              		.thumb
 2141              		.thumb_func
 2142              		.type	HAL_DFSDM_FilterConfigRegChannel, %function
 2143              	HAL_DFSDM_FilterConfigRegChannel:
 2144              	.LFB148:
ARM GAS  /tmp/ccjyqKqb.s 			page 39


 2145              		.loc 1 1234 0
 2146              		.cfi_startproc
 2147              		@ args = 0, pretend = 0, frame = 24
 2148              		@ frame_needed = 0, uses_anonymous_args = 0
 2149              		@ link register save eliminated.
 2150 0b70 86B0     		sub	sp, sp, #24
 2151              		.cfi_def_cfa_offset 24
 2152 0b72 0390     		str	r0, [sp, #12]
 2153 0b74 0291     		str	r1, [sp, #8]
 2154 0b76 0192     		str	r2, [sp, #4]
 2155              		.loc 1 1235 0
 2156 0b78 0023     		movs	r3, #0
 2157 0b7a 8DF81730 		strb	r3, [sp, #23]
 2158              		.loc 1 1243 0
 2159 0b7e 039B     		ldr	r3, [sp, #12]
 2160 0b80 93F84C30 		ldrb	r3, [r3, #76]	@ zero_extendqisi2
 2161 0b84 002B     		cmp	r3, #0
 2162 0b86 2ED0     		beq	.L138
 2163              		.loc 1 1244 0 discriminator 1
 2164 0b88 039B     		ldr	r3, [sp, #12]
 2165 0b8a 93F84C30 		ldrb	r3, [r3, #76]	@ zero_extendqisi2
 2166              		.loc 1 1243 0 discriminator 1
 2167 0b8e FF2B     		cmp	r3, #255
 2168 0b90 29D0     		beq	.L138
 2169              		.loc 1 1247 0
 2170 0b92 039B     		ldr	r3, [sp, #12]
 2171 0b94 1A68     		ldr	r2, [r3]
 2172 0b96 039B     		ldr	r3, [sp, #12]
 2173 0b98 1B68     		ldr	r3, [r3]
 2174 0b9a 1B68     		ldr	r3, [r3]
 2175 0b9c 23F0E063 		bic	r3, r3, #117440512
 2176 0ba0 23F48023 		bic	r3, r3, #262144
 2177 0ba4 1360     		str	r3, [r2]
 2178              		.loc 1 1248 0
 2179 0ba6 019B     		ldr	r3, [sp, #4]
 2180 0ba8 012B     		cmp	r3, #1
 2181 0baa 0DD1     		bne	.L139
 2182              		.loc 1 1250 0
 2183 0bac 039B     		ldr	r3, [sp, #12]
 2184 0bae 1A68     		ldr	r2, [r3]
 2185 0bb0 039B     		ldr	r3, [sp, #12]
 2186 0bb2 1B68     		ldr	r3, [r3]
 2187 0bb4 1968     		ldr	r1, [r3]
 2188 0bb6 029B     		ldr	r3, [sp, #8]
 2189 0bb8 1B0C     		lsrs	r3, r3, #16
 2190 0bba 1B04     		lsls	r3, r3, #16
 2191 0bbc 1B02     		lsls	r3, r3, #8
 2192 0bbe 0B43     		orrs	r3, r3, r1
 2193 0bc0 43F48023 		orr	r3, r3, #262144
 2194 0bc4 1360     		str	r3, [r2]
 2195 0bc6 0AE0     		b	.L140
 2196              	.L139:
 2197              		.loc 1 1255 0
 2198 0bc8 039B     		ldr	r3, [sp, #12]
 2199 0bca 1A68     		ldr	r2, [r3]
 2200 0bcc 039B     		ldr	r3, [sp, #12]
 2201 0bce 1B68     		ldr	r3, [r3]
ARM GAS  /tmp/ccjyqKqb.s 			page 40


 2202 0bd0 1968     		ldr	r1, [r3]
 2203 0bd2 029B     		ldr	r3, [sp, #8]
 2204 0bd4 1B0C     		lsrs	r3, r3, #16
 2205 0bd6 1B04     		lsls	r3, r3, #16
 2206 0bd8 1B02     		lsls	r3, r3, #8
 2207 0bda 0B43     		orrs	r3, r3, r1
 2208 0bdc 1360     		str	r3, [r2]
 2209              	.L140:
 2210              		.loc 1 1258 0
 2211 0bde 039B     		ldr	r3, [sp, #12]
 2212 0be0 019A     		ldr	r2, [sp, #4]
 2213 0be2 1A63     		str	r2, [r3, #48]
 2214 0be4 02E0     		b	.L141
 2215              	.L138:
 2216              		.loc 1 1262 0
 2217 0be6 0123     		movs	r3, #1
 2218 0be8 8DF81730 		strb	r3, [sp, #23]
 2219              	.L141:
 2220              		.loc 1 1266 0
 2221 0bec 9DF81730 		ldrb	r3, [sp, #23]	@ zero_extendqisi2
 2222              		.loc 1 1267 0
 2223 0bf0 1846     		mov	r0, r3
 2224 0bf2 06B0     		add	sp, sp, #24
 2225              		@ sp needed
 2226 0bf4 7047     		bx	lr
 2227              		.cfi_endproc
 2228              	.LFE148:
 2229              		.size	HAL_DFSDM_FilterConfigRegChannel, .-HAL_DFSDM_FilterConfigRegChannel
 2230 0bf6 00BF     		.align	2
 2231 0bf8 AFF30080 		.p2align 4,,15
 2231      AFF30080 
 2232              		.global	HAL_DFSDM_FilterConfigInjChannel
 2233              		.thumb
 2234              		.thumb_func
 2235              		.type	HAL_DFSDM_FilterConfigInjChannel, %function
 2236              	HAL_DFSDM_FilterConfigInjChannel:
 2237              	.LFB149:
 2238              		.loc 1 1278 0
 2239              		.cfi_startproc
 2240              		@ args = 0, pretend = 0, frame = 16
 2241              		@ frame_needed = 0, uses_anonymous_args = 0
 2242 0c00 00B5     		push	{lr}
 2243              		.cfi_def_cfa_offset 4
 2244              		.cfi_offset 14, -4
 2245 0c02 85B0     		sub	sp, sp, #20
 2246              		.cfi_def_cfa_offset 24
 2247 0c04 0190     		str	r0, [sp, #4]
 2248 0c06 0091     		str	r1, [sp]
 2249              		.loc 1 1279 0
 2250 0c08 0023     		movs	r3, #0
 2251 0c0a 8DF80F30 		strb	r3, [sp, #15]
 2252              		.loc 1 1286 0
 2253 0c0e 019B     		ldr	r3, [sp, #4]
 2254 0c10 93F84C30 		ldrb	r3, [r3, #76]	@ zero_extendqisi2
 2255 0c14 002B     		cmp	r3, #0
 2256 0c16 1BD0     		beq	.L144
 2257              		.loc 1 1287 0 discriminator 1
ARM GAS  /tmp/ccjyqKqb.s 			page 41


 2258 0c18 019B     		ldr	r3, [sp, #4]
 2259 0c1a 93F84C30 		ldrb	r3, [r3, #76]	@ zero_extendqisi2
 2260              		.loc 1 1286 0 discriminator 1
 2261 0c1e FF2B     		cmp	r3, #255
 2262 0c20 16D0     		beq	.L144
 2263              		.loc 1 1290 0
 2264 0c22 019B     		ldr	r3, [sp, #4]
 2265 0c24 1B68     		ldr	r3, [r3]
 2266 0c26 009A     		ldr	r2, [sp]
 2267 0c28 92B2     		uxth	r2, r2
 2268 0c2a 1A61     		str	r2, [r3, #16]
 2269              		.loc 1 1292 0
 2270 0c2c 0098     		ldr	r0, [sp]
 2271 0c2e 01F0D7F8 		bl	DFSDM_GetInjChannelsNbr
 2272 0c32 0246     		mov	r2, r0
 2273 0c34 019B     		ldr	r3, [sp, #4]
 2274 0c36 5A64     		str	r2, [r3, #68]
 2275              		.loc 1 1294 0
 2276 0c38 019B     		ldr	r3, [sp, #4]
 2277 0c3a 93F84030 		ldrb	r3, [r3, #64]	@ zero_extendqisi2
 2278              		.loc 1 1295 0
 2279 0c3e 012B     		cmp	r3, #1
 2280 0c40 02D1     		bne	.L145
 2281              		.loc 1 1295 0 is_stmt 0 discriminator 1
 2282 0c42 019B     		ldr	r3, [sp, #4]
 2283 0c44 5B6C     		ldr	r3, [r3, #68]
 2284 0c46 00E0     		b	.L146
 2285              	.L145:
 2286              		.loc 1 1295 0 discriminator 2
 2287 0c48 0123     		movs	r3, #1
 2288              	.L146:
 2289              		.loc 1 1294 0 is_stmt 1
 2290 0c4a 019A     		ldr	r2, [sp, #4]
 2291 0c4c 9364     		str	r3, [r2, #72]
 2292 0c4e 02E0     		b	.L147
 2293              	.L144:
 2294              		.loc 1 1299 0
 2295 0c50 0123     		movs	r3, #1
 2296 0c52 8DF80F30 		strb	r3, [sp, #15]
 2297              	.L147:
 2298              		.loc 1 1302 0
 2299 0c56 9DF80F30 		ldrb	r3, [sp, #15]	@ zero_extendqisi2
 2300              		.loc 1 1303 0
 2301 0c5a 1846     		mov	r0, r3
 2302 0c5c 05B0     		add	sp, sp, #20
 2303              		@ sp needed
 2304 0c5e 5DF804FB 		ldr	pc, [sp], #4
 2305              		.cfi_endproc
 2306              	.LFE149:
 2307              		.size	HAL_DFSDM_FilterConfigInjChannel, .-HAL_DFSDM_FilterConfigInjChannel
 2308 0c62 00BF     		.align	2
 2309 0c64 AFF30080 		.p2align 4,,15
 2309      AFF30080 
 2309      AFF30080 
 2310              		.global	HAL_DFSDM_FilterRegularStart
 2311              		.thumb
 2312              		.thumb_func
ARM GAS  /tmp/ccjyqKqb.s 			page 42


 2313              		.type	HAL_DFSDM_FilterRegularStart, %function
 2314              	HAL_DFSDM_FilterRegularStart:
 2315              	.LFB150:
 2316              		.loc 1 1347 0
 2317              		.cfi_startproc
 2318              		@ args = 0, pretend = 0, frame = 16
 2319              		@ frame_needed = 0, uses_anonymous_args = 0
 2320 0c70 00B5     		push	{lr}
 2321              		.cfi_def_cfa_offset 4
 2322              		.cfi_offset 14, -4
 2323 0c72 85B0     		sub	sp, sp, #20
 2324              		.cfi_def_cfa_offset 24
 2325 0c74 0190     		str	r0, [sp, #4]
 2326              		.loc 1 1348 0
 2327 0c76 0023     		movs	r3, #0
 2328 0c78 8DF80F30 		strb	r3, [sp, #15]
 2329              		.loc 1 1354 0
 2330 0c7c 019B     		ldr	r3, [sp, #4]
 2331 0c7e 93F84C30 		ldrb	r3, [r3, #76]	@ zero_extendqisi2
 2332 0c82 012B     		cmp	r3, #1
 2333 0c84 04D0     		beq	.L150
 2334              		.loc 1 1355 0 discriminator 1
 2335 0c86 019B     		ldr	r3, [sp, #4]
 2336 0c88 93F84C30 		ldrb	r3, [r3, #76]	@ zero_extendqisi2
 2337              		.loc 1 1354 0 discriminator 1
 2338 0c8c 032B     		cmp	r3, #3
 2339 0c8e 03D1     		bne	.L151
 2340              	.L150:
 2341              		.loc 1 1358 0
 2342 0c90 0198     		ldr	r0, [sp, #4]
 2343 0c92 01F015F9 		bl	DFSDM_RegConvStart
 2344 0c96 02E0     		b	.L152
 2345              	.L151:
 2346              		.loc 1 1362 0
 2347 0c98 0123     		movs	r3, #1
 2348 0c9a 8DF80F30 		strb	r3, [sp, #15]
 2349              	.L152:
 2350              		.loc 1 1365 0
 2351 0c9e 9DF80F30 		ldrb	r3, [sp, #15]	@ zero_extendqisi2
 2352              		.loc 1 1366 0
 2353 0ca2 1846     		mov	r0, r3
 2354 0ca4 05B0     		add	sp, sp, #20
 2355              		@ sp needed
 2356 0ca6 5DF804FB 		ldr	pc, [sp], #4
 2357              		.cfi_endproc
 2358              	.LFE150:
 2359              		.size	HAL_DFSDM_FilterRegularStart, .-HAL_DFSDM_FilterRegularStart
 2360 0caa 00BF     		.align	2
 2361 0cac AFF30080 		.p2align 4,,15
 2362              		.global	HAL_DFSDM_FilterPollForRegConversion
 2363              		.thumb
 2364              		.thumb_func
 2365              		.type	HAL_DFSDM_FilterPollForRegConversion, %function
 2366              	HAL_DFSDM_FilterPollForRegConversion:
 2367              	.LFB151:
 2368              		.loc 1 1377 0
 2369              		.cfi_startproc
ARM GAS  /tmp/ccjyqKqb.s 			page 43


 2370              		@ args = 0, pretend = 0, frame = 16
 2371              		@ frame_needed = 0, uses_anonymous_args = 0
 2372 0cb0 00B5     		push	{lr}
 2373              		.cfi_def_cfa_offset 4
 2374              		.cfi_offset 14, -4
 2375 0cb2 85B0     		sub	sp, sp, #20
 2376              		.cfi_def_cfa_offset 24
 2377 0cb4 0190     		str	r0, [sp, #4]
 2378 0cb6 0091     		str	r1, [sp]
 2379              		.loc 1 1384 0
 2380 0cb8 019B     		ldr	r3, [sp, #4]
 2381 0cba 93F84C30 		ldrb	r3, [r3, #76]	@ zero_extendqisi2
 2382 0cbe 022B     		cmp	r3, #2
 2383 0cc0 06D0     		beq	.L155
 2384              		.loc 1 1385 0 discriminator 1
 2385 0cc2 019B     		ldr	r3, [sp, #4]
 2386 0cc4 93F84C30 		ldrb	r3, [r3, #76]	@ zero_extendqisi2
 2387              		.loc 1 1384 0 discriminator 1
 2388 0cc8 042B     		cmp	r3, #4
 2389 0cca 01D0     		beq	.L155
 2390              		.loc 1 1388 0
 2391 0ccc 0123     		movs	r3, #1
 2392 0cce 40E0     		b	.L156
 2393              	.L155:
 2394              		.loc 1 1393 0
 2395 0cd0 FFF7FEFF 		bl	HAL_GetTick
 2396 0cd4 0390     		str	r0, [sp, #12]
 2397              		.loc 1 1396 0
 2398 0cd6 10E0     		b	.L157
 2399              	.L159:
 2400              		.loc 1 1399 0
 2401 0cd8 009B     		ldr	r3, [sp]
 2402 0cda B3F1FF3F 		cmp	r3, #-1
 2403 0cde 0CD0     		beq	.L157
 2404              		.loc 1 1401 0
 2405 0ce0 009B     		ldr	r3, [sp]
 2406 0ce2 002B     		cmp	r3, #0
 2407 0ce4 07D0     		beq	.L158
 2408              		.loc 1 1401 0 is_stmt 0 discriminator 1
 2409 0ce6 FFF7FEFF 		bl	HAL_GetTick
 2410 0cea 0246     		mov	r2, r0
 2411 0cec 039B     		ldr	r3, [sp, #12]
 2412 0cee D21A     		subs	r2, r2, r3
 2413 0cf0 009B     		ldr	r3, [sp]
 2414 0cf2 9A42     		cmp	r2, r3
 2415 0cf4 01D9     		bls	.L157
 2416              	.L158:
 2417              		.loc 1 1404 0 is_stmt 1
 2418 0cf6 0323     		movs	r3, #3
 2419 0cf8 2BE0     		b	.L156
 2420              	.L157:
 2421              		.loc 1 1396 0 discriminator 1
 2422 0cfa 019B     		ldr	r3, [sp, #4]
 2423 0cfc 1B68     		ldr	r3, [r3]
 2424 0cfe 9B68     		ldr	r3, [r3, #8]
 2425 0d00 03F00203 		and	r3, r3, #2
 2426 0d04 002B     		cmp	r3, #0
ARM GAS  /tmp/ccjyqKqb.s 			page 44


 2427 0d06 E7D0     		beq	.L159
 2428              		.loc 1 1409 0
 2429 0d08 019B     		ldr	r3, [sp, #4]
 2430 0d0a 1B68     		ldr	r3, [r3]
 2431 0d0c 9B68     		ldr	r3, [r3, #8]
 2432 0d0e 03F00803 		and	r3, r3, #8
 2433 0d12 002B     		cmp	r3, #0
 2434 0d14 09D0     		beq	.L160
 2435              		.loc 1 1412 0
 2436 0d16 019B     		ldr	r3, [sp, #4]
 2437 0d18 0122     		movs	r2, #1
 2438 0d1a 1A65     		str	r2, [r3, #80]
 2439              		.loc 1 1413 0
 2440 0d1c 0198     		ldr	r0, [sp, #4]
 2441 0d1e FFF7FEFF 		bl	HAL_DFSDM_FilterErrorCallback
 2442              		.loc 1 1416 0
 2443 0d22 019B     		ldr	r3, [sp, #4]
 2444 0d24 1B68     		ldr	r3, [r3]
 2445 0d26 0822     		movs	r2, #8
 2446 0d28 DA60     		str	r2, [r3, #12]
 2447              	.L160:
 2448              		.loc 1 1419 0
 2449 0d2a 019B     		ldr	r3, [sp, #4]
 2450 0d2c 1B6B     		ldr	r3, [r3, #48]
 2451 0d2e 002B     		cmp	r3, #0
 2452 0d30 0ED1     		bne	.L161
 2453              		.loc 1 1420 0 discriminator 1
 2454 0d32 019B     		ldr	r3, [sp, #4]
 2455 0d34 5B6B     		ldr	r3, [r3, #52]
 2456              		.loc 1 1419 0 discriminator 1
 2457 0d36 002B     		cmp	r3, #0
 2458 0d38 0AD1     		bne	.L161
 2459              		.loc 1 1422 0
 2460 0d3a 019B     		ldr	r3, [sp, #4]
 2461 0d3c 93F84C30 		ldrb	r3, [r3, #76]	@ zero_extendqisi2
 2462 0d40 022B     		cmp	r3, #2
 2463 0d42 01D1     		bne	.L162
 2464              		.loc 1 1422 0 is_stmt 0 discriminator 1
 2465 0d44 0123     		movs	r3, #1
 2466 0d46 00E0     		b	.L163
 2467              	.L162:
 2468              		.loc 1 1422 0 discriminator 2
 2469 0d48 0323     		movs	r3, #3
 2470              	.L163:
 2471              		.loc 1 1422 0 discriminator 3
 2472 0d4a 019A     		ldr	r2, [sp, #4]
 2473 0d4c 82F84C30 		strb	r3, [r2, #76]
 2474              	.L161:
 2475              		.loc 1 1426 0 is_stmt 1
 2476 0d50 0023     		movs	r3, #0
 2477              	.L156:
 2478              		.loc 1 1428 0
 2479 0d52 1846     		mov	r0, r3
 2480 0d54 05B0     		add	sp, sp, #20
 2481              		@ sp needed
 2482 0d56 5DF804FB 		ldr	pc, [sp], #4
 2483              		.cfi_endproc
ARM GAS  /tmp/ccjyqKqb.s 			page 45


 2484              	.LFE151:
 2485              		.size	HAL_DFSDM_FilterPollForRegConversion, .-HAL_DFSDM_FilterPollForRegConversion
 2486 0d5a 00BF     		.align	2
 2487 0d5c AFF30080 		.p2align 4,,15
 2488              		.global	HAL_DFSDM_FilterRegularStop
 2489              		.thumb
 2490              		.thumb_func
 2491              		.type	HAL_DFSDM_FilterRegularStop, %function
 2492              	HAL_DFSDM_FilterRegularStop:
 2493              	.LFB152:
 2494              		.loc 1 1437 0
 2495              		.cfi_startproc
 2496              		@ args = 0, pretend = 0, frame = 16
 2497              		@ frame_needed = 0, uses_anonymous_args = 0
 2498 0d60 00B5     		push	{lr}
 2499              		.cfi_def_cfa_offset 4
 2500              		.cfi_offset 14, -4
 2501 0d62 85B0     		sub	sp, sp, #20
 2502              		.cfi_def_cfa_offset 24
 2503 0d64 0190     		str	r0, [sp, #4]
 2504              		.loc 1 1438 0
 2505 0d66 0023     		movs	r3, #0
 2506 0d68 8DF80F30 		strb	r3, [sp, #15]
 2507              		.loc 1 1444 0
 2508 0d6c 019B     		ldr	r3, [sp, #4]
 2509 0d6e 93F84C30 		ldrb	r3, [r3, #76]	@ zero_extendqisi2
 2510 0d72 022B     		cmp	r3, #2
 2511 0d74 08D0     		beq	.L165
 2512              		.loc 1 1445 0 discriminator 1
 2513 0d76 019B     		ldr	r3, [sp, #4]
 2514 0d78 93F84C30 		ldrb	r3, [r3, #76]	@ zero_extendqisi2
 2515              		.loc 1 1444 0 discriminator 1
 2516 0d7c 042B     		cmp	r3, #4
 2517 0d7e 03D0     		beq	.L165
 2518              		.loc 1 1448 0
 2519 0d80 0123     		movs	r3, #1
 2520 0d82 8DF80F30 		strb	r3, [sp, #15]
 2521 0d86 02E0     		b	.L166
 2522              	.L165:
 2523              		.loc 1 1453 0
 2524 0d88 0198     		ldr	r0, [sp, #4]
 2525 0d8a 01F0E9F8 		bl	DFSDM_RegConvStop
 2526              	.L166:
 2527              		.loc 1 1456 0
 2528 0d8e 9DF80F30 		ldrb	r3, [sp, #15]	@ zero_extendqisi2
 2529              		.loc 1 1457 0
 2530 0d92 1846     		mov	r0, r3
 2531 0d94 05B0     		add	sp, sp, #20
 2532              		@ sp needed
 2533 0d96 5DF804FB 		ldr	pc, [sp], #4
 2534              		.cfi_endproc
 2535              	.LFE152:
 2536              		.size	HAL_DFSDM_FilterRegularStop, .-HAL_DFSDM_FilterRegularStop
 2537 0d9a 00BF     		.align	2
 2538 0d9c AFF30080 		.p2align 4,,15
 2539              		.global	HAL_DFSDM_FilterRegularStart_IT
 2540              		.thumb
ARM GAS  /tmp/ccjyqKqb.s 			page 46


 2541              		.thumb_func
 2542              		.type	HAL_DFSDM_FilterRegularStart_IT, %function
 2543              	HAL_DFSDM_FilterRegularStart_IT:
 2544              	.LFB153:
 2545              		.loc 1 1467 0
 2546              		.cfi_startproc
 2547              		@ args = 0, pretend = 0, frame = 16
 2548              		@ frame_needed = 0, uses_anonymous_args = 0
 2549 0da0 00B5     		push	{lr}
 2550              		.cfi_def_cfa_offset 4
 2551              		.cfi_offset 14, -4
 2552 0da2 85B0     		sub	sp, sp, #20
 2553              		.cfi_def_cfa_offset 24
 2554 0da4 0190     		str	r0, [sp, #4]
 2555              		.loc 1 1468 0
 2556 0da6 0023     		movs	r3, #0
 2557 0da8 8DF80F30 		strb	r3, [sp, #15]
 2558              		.loc 1 1474 0
 2559 0dac 019B     		ldr	r3, [sp, #4]
 2560 0dae 93F84C30 		ldrb	r3, [r3, #76]	@ zero_extendqisi2
 2561 0db2 012B     		cmp	r3, #1
 2562 0db4 04D0     		beq	.L169
 2563              		.loc 1 1475 0 discriminator 1
 2564 0db6 019B     		ldr	r3, [sp, #4]
 2565 0db8 93F84C30 		ldrb	r3, [r3, #76]	@ zero_extendqisi2
 2566              		.loc 1 1474 0 discriminator 1
 2567 0dbc 032B     		cmp	r3, #3
 2568 0dbe 0BD1     		bne	.L170
 2569              	.L169:
 2570              		.loc 1 1478 0
 2571 0dc0 019B     		ldr	r3, [sp, #4]
 2572 0dc2 1B68     		ldr	r3, [r3]
 2573 0dc4 019A     		ldr	r2, [sp, #4]
 2574 0dc6 1268     		ldr	r2, [r2]
 2575 0dc8 5268     		ldr	r2, [r2, #4]
 2576 0dca 42F00A02 		orr	r2, r2, #10
 2577 0dce 5A60     		str	r2, [r3, #4]
 2578              		.loc 1 1481 0
 2579 0dd0 0198     		ldr	r0, [sp, #4]
 2580 0dd2 01F075F8 		bl	DFSDM_RegConvStart
 2581 0dd6 02E0     		b	.L171
 2582              	.L170:
 2583              		.loc 1 1485 0
 2584 0dd8 0123     		movs	r3, #1
 2585 0dda 8DF80F30 		strb	r3, [sp, #15]
 2586              	.L171:
 2587              		.loc 1 1488 0
 2588 0dde 9DF80F30 		ldrb	r3, [sp, #15]	@ zero_extendqisi2
 2589              		.loc 1 1489 0
 2590 0de2 1846     		mov	r0, r3
 2591 0de4 05B0     		add	sp, sp, #20
 2592              		@ sp needed
 2593 0de6 5DF804FB 		ldr	pc, [sp], #4
 2594              		.cfi_endproc
 2595              	.LFE153:
 2596              		.size	HAL_DFSDM_FilterRegularStart_IT, .-HAL_DFSDM_FilterRegularStart_IT
 2597 0dea 00BF     		.align	2
ARM GAS  /tmp/ccjyqKqb.s 			page 47


 2598 0dec AFF30080 		.p2align 4,,15
 2599              		.global	HAL_DFSDM_FilterRegularStop_IT
 2600              		.thumb
 2601              		.thumb_func
 2602              		.type	HAL_DFSDM_FilterRegularStop_IT, %function
 2603              	HAL_DFSDM_FilterRegularStop_IT:
 2604              	.LFB154:
 2605              		.loc 1 1498 0
 2606              		.cfi_startproc
 2607              		@ args = 0, pretend = 0, frame = 16
 2608              		@ frame_needed = 0, uses_anonymous_args = 0
 2609 0df0 00B5     		push	{lr}
 2610              		.cfi_def_cfa_offset 4
 2611              		.cfi_offset 14, -4
 2612 0df2 85B0     		sub	sp, sp, #20
 2613              		.cfi_def_cfa_offset 24
 2614 0df4 0190     		str	r0, [sp, #4]
 2615              		.loc 1 1499 0
 2616 0df6 0023     		movs	r3, #0
 2617 0df8 8DF80F30 		strb	r3, [sp, #15]
 2618              		.loc 1 1505 0
 2619 0dfc 019B     		ldr	r3, [sp, #4]
 2620 0dfe 93F84C30 		ldrb	r3, [r3, #76]	@ zero_extendqisi2
 2621 0e02 022B     		cmp	r3, #2
 2622 0e04 08D0     		beq	.L174
 2623              		.loc 1 1506 0 discriminator 1
 2624 0e06 019B     		ldr	r3, [sp, #4]
 2625 0e08 93F84C30 		ldrb	r3, [r3, #76]	@ zero_extendqisi2
 2626              		.loc 1 1505 0 discriminator 1
 2627 0e0c 042B     		cmp	r3, #4
 2628 0e0e 03D0     		beq	.L174
 2629              		.loc 1 1509 0
 2630 0e10 0123     		movs	r3, #1
 2631 0e12 8DF80F30 		strb	r3, [sp, #15]
 2632 0e16 0AE0     		b	.L175
 2633              	.L174:
 2634              		.loc 1 1514 0
 2635 0e18 019B     		ldr	r3, [sp, #4]
 2636 0e1a 1B68     		ldr	r3, [r3]
 2637 0e1c 019A     		ldr	r2, [sp, #4]
 2638 0e1e 1268     		ldr	r2, [r2]
 2639 0e20 5268     		ldr	r2, [r2, #4]
 2640 0e22 22F00A02 		bic	r2, r2, #10
 2641 0e26 5A60     		str	r2, [r3, #4]
 2642              		.loc 1 1517 0
 2643 0e28 0198     		ldr	r0, [sp, #4]
 2644 0e2a 01F099F8 		bl	DFSDM_RegConvStop
 2645              	.L175:
 2646              		.loc 1 1520 0
 2647 0e2e 9DF80F30 		ldrb	r3, [sp, #15]	@ zero_extendqisi2
 2648              		.loc 1 1521 0
 2649 0e32 1846     		mov	r0, r3
 2650 0e34 05B0     		add	sp, sp, #20
 2651              		@ sp needed
 2652 0e36 5DF804FB 		ldr	pc, [sp], #4
 2653              		.cfi_endproc
 2654              	.LFE154:
ARM GAS  /tmp/ccjyqKqb.s 			page 48


 2655              		.size	HAL_DFSDM_FilterRegularStop_IT, .-HAL_DFSDM_FilterRegularStop_IT
 2656 0e3a 00BF     		.align	2
 2657 0e3c AFF30080 		.p2align 4,,15
 2658              		.global	HAL_DFSDM_FilterRegularStart_DMA
 2659              		.thumb
 2660              		.thumb_func
 2661              		.type	HAL_DFSDM_FilterRegularStart_DMA, %function
 2662              	HAL_DFSDM_FilterRegularStart_DMA:
 2663              	.LFB155:
 2664              		.loc 1 1538 0
 2665              		.cfi_startproc
 2666              		@ args = 0, pretend = 0, frame = 24
 2667              		@ frame_needed = 0, uses_anonymous_args = 0
 2668 0e40 00B5     		push	{lr}
 2669              		.cfi_def_cfa_offset 4
 2670              		.cfi_offset 14, -4
 2671 0e42 87B0     		sub	sp, sp, #28
 2672              		.cfi_def_cfa_offset 32
 2673 0e44 0390     		str	r0, [sp, #12]
 2674 0e46 0291     		str	r1, [sp, #8]
 2675 0e48 0192     		str	r2, [sp, #4]
 2676              		.loc 1 1539 0
 2677 0e4a 0023     		movs	r3, #0
 2678 0e4c 8DF81730 		strb	r3, [sp, #23]
 2679              		.loc 1 1545 0
 2680 0e50 029B     		ldr	r3, [sp, #8]
 2681 0e52 002B     		cmp	r3, #0
 2682 0e54 02D0     		beq	.L178
 2683              		.loc 1 1545 0 is_stmt 0 discriminator 1
 2684 0e56 019B     		ldr	r3, [sp, #4]
 2685 0e58 002B     		cmp	r3, #0
 2686 0e5a 03D1     		bne	.L179
 2687              	.L178:
 2688              		.loc 1 1547 0 is_stmt 1
 2689 0e5c 0123     		movs	r3, #1
 2690 0e5e 8DF81730 		strb	r3, [sp, #23]
 2691 0e62 6BE0     		b	.L180
 2692              	.L179:
 2693              		.loc 1 1550 0
 2694 0e64 039B     		ldr	r3, [sp, #12]
 2695 0e66 1B68     		ldr	r3, [r3]
 2696 0e68 1B68     		ldr	r3, [r3]
 2697 0e6a 03F40013 		and	r3, r3, #2097152
 2698 0e6e 002B     		cmp	r3, #0
 2699 0e70 03D1     		bne	.L181
 2700              		.loc 1 1552 0
 2701 0e72 0123     		movs	r3, #1
 2702 0e74 8DF81730 		strb	r3, [sp, #23]
 2703 0e78 60E0     		b	.L180
 2704              	.L181:
 2705              		.loc 1 1555 0
 2706 0e7a 039B     		ldr	r3, [sp, #12]
 2707 0e7c 5B6B     		ldr	r3, [r3, #52]
 2708 0e7e 002B     		cmp	r3, #0
 2709 0e80 0FD1     		bne	.L182
 2710              		.loc 1 1556 0 discriminator 1
 2711 0e82 039B     		ldr	r3, [sp, #12]
ARM GAS  /tmp/ccjyqKqb.s 			page 49


 2712 0e84 1B6B     		ldr	r3, [r3, #48]
 2713              		.loc 1 1555 0 discriminator 1
 2714 0e86 002B     		cmp	r3, #0
 2715 0e88 0BD1     		bne	.L182
 2716              		.loc 1 1557 0
 2717 0e8a 039B     		ldr	r3, [sp, #12]
 2718 0e8c 9B6A     		ldr	r3, [r3, #40]
 2719 0e8e DB69     		ldr	r3, [r3, #28]
 2720              		.loc 1 1556 0
 2721 0e90 002B     		cmp	r3, #0
 2722 0e92 06D1     		bne	.L182
 2723              		.loc 1 1557 0
 2724 0e94 019B     		ldr	r3, [sp, #4]
 2725 0e96 012B     		cmp	r3, #1
 2726 0e98 03D0     		beq	.L182
 2727              		.loc 1 1560 0
 2728 0e9a 0123     		movs	r3, #1
 2729 0e9c 8DF81730 		strb	r3, [sp, #23]
 2730 0ea0 4CE0     		b	.L180
 2731              	.L182:
 2732              		.loc 1 1562 0
 2733 0ea2 039B     		ldr	r3, [sp, #12]
 2734 0ea4 5B6B     		ldr	r3, [r3, #52]
 2735 0ea6 002B     		cmp	r3, #0
 2736 0ea8 0CD1     		bne	.L183
 2737              		.loc 1 1563 0 discriminator 1
 2738 0eaa 039B     		ldr	r3, [sp, #12]
 2739 0eac 1B6B     		ldr	r3, [r3, #48]
 2740              		.loc 1 1562 0 discriminator 1
 2741 0eae 002B     		cmp	r3, #0
 2742 0eb0 08D1     		bne	.L183
 2743              		.loc 1 1564 0
 2744 0eb2 039B     		ldr	r3, [sp, #12]
 2745 0eb4 9B6A     		ldr	r3, [r3, #40]
 2746 0eb6 DB69     		ldr	r3, [r3, #28]
 2747              		.loc 1 1563 0
 2748 0eb8 202B     		cmp	r3, #32
 2749 0eba 03D1     		bne	.L183
 2750              		.loc 1 1566 0
 2751 0ebc 0123     		movs	r3, #1
 2752 0ebe 8DF81730 		strb	r3, [sp, #23]
 2753 0ec2 3BE0     		b	.L180
 2754              	.L183:
 2755              		.loc 1 1569 0
 2756 0ec4 039B     		ldr	r3, [sp, #12]
 2757 0ec6 93F84C30 		ldrb	r3, [r3, #76]	@ zero_extendqisi2
 2758 0eca 012B     		cmp	r3, #1
 2759 0ecc 04D0     		beq	.L184
 2760              		.loc 1 1570 0 discriminator 1
 2761 0ece 039B     		ldr	r3, [sp, #12]
 2762 0ed0 93F84C30 		ldrb	r3, [r3, #76]	@ zero_extendqisi2
 2763              		.loc 1 1569 0 discriminator 1
 2764 0ed4 032B     		cmp	r3, #3
 2765 0ed6 2ED1     		bne	.L185
 2766              	.L184:
 2767              		.loc 1 1573 0
 2768 0ed8 039B     		ldr	r3, [sp, #12]
ARM GAS  /tmp/ccjyqKqb.s 			page 50


 2769 0eda 9B6A     		ldr	r3, [r3, #40]
 2770 0edc 1A4A     		ldr	r2, .L191
 2771 0ede DA62     		str	r2, [r3, #44]
 2772              		.loc 1 1574 0
 2773 0ee0 039B     		ldr	r3, [sp, #12]
 2774 0ee2 9B6A     		ldr	r3, [r3, #40]
 2775 0ee4 194A     		ldr	r2, .L191+4
 2776 0ee6 5A63     		str	r2, [r3, #52]
 2777              		.loc 1 1575 0
 2778 0ee8 039B     		ldr	r3, [sp, #12]
 2779 0eea 9A6A     		ldr	r2, [r3, #40]
 2780 0eec 039B     		ldr	r3, [sp, #12]
 2781 0eee 9B6A     		ldr	r3, [r3, #40]
 2782 0ef0 DB69     		ldr	r3, [r3, #28]
 2783              		.loc 1 1576 0
 2784 0ef2 202B     		cmp	r3, #32
 2785 0ef4 01D1     		bne	.L186
 2786              		.loc 1 1576 0 is_stmt 0 discriminator 1
 2787 0ef6 164B     		ldr	r3, .L191+8
 2788 0ef8 00E0     		b	.L187
 2789              	.L186:
 2790              		.loc 1 1576 0 discriminator 2
 2791 0efa 0023     		movs	r3, #0
 2792              	.L187:
 2793              		.loc 1 1575 0 is_stmt 1
 2794 0efc 1363     		str	r3, [r2, #48]
 2795              		.loc 1 1579 0
 2796 0efe 039B     		ldr	r3, [sp, #12]
 2797 0f00 996A     		ldr	r1, [r3, #40]
 2798 0f02 039B     		ldr	r3, [sp, #12]
 2799 0f04 1B68     		ldr	r3, [r3]
 2800 0f06 1C33     		adds	r3, r3, #28
 2801 0f08 1A46     		mov	r2, r3
 2802 0f0a 029B     		ldr	r3, [sp, #8]
 2803 0f0c 0846     		mov	r0, r1
 2804 0f0e 1146     		mov	r1, r2
 2805 0f10 1A46     		mov	r2, r3
 2806 0f12 019B     		ldr	r3, [sp, #4]
 2807 0f14 FFF7FEFF 		bl	HAL_DMA_Start_IT
 2808 0f18 0346     		mov	r3, r0
 2809 0f1a 002B     		cmp	r3, #0
 2810 0f1c 07D0     		beq	.L188
 2811              		.loc 1 1583 0
 2812 0f1e 039B     		ldr	r3, [sp, #12]
 2813 0f20 FF22     		movs	r2, #255
 2814 0f22 83F84C20 		strb	r2, [r3, #76]
 2815              		.loc 1 1584 0
 2816 0f26 0123     		movs	r3, #1
 2817 0f28 8DF81730 		strb	r3, [sp, #23]
 2818              		.loc 1 1579 0
 2819 0f2c 06E0     		b	.L180
 2820              	.L188:
 2821              		.loc 1 1589 0
 2822 0f2e 0398     		ldr	r0, [sp, #12]
 2823 0f30 00F0C6FF 		bl	DFSDM_RegConvStart
 2824              		.loc 1 1579 0
 2825 0f34 02E0     		b	.L180
ARM GAS  /tmp/ccjyqKqb.s 			page 51


 2826              	.L185:
 2827              		.loc 1 1594 0
 2828 0f36 0123     		movs	r3, #1
 2829 0f38 8DF81730 		strb	r3, [sp, #23]
 2830              	.L180:
 2831              		.loc 1 1597 0
 2832 0f3c 9DF81730 		ldrb	r3, [sp, #23]	@ zero_extendqisi2
 2833              		.loc 1 1598 0
 2834 0f40 1846     		mov	r0, r3
 2835 0f42 07B0     		add	sp, sp, #28
 2836              		@ sp needed
 2837 0f44 5DF804FB 		ldr	pc, [sp], #4
 2838              	.L192:
 2839              		.align	2
 2840              	.L191:
 2841 0f48 00000000 		.word	DFSDM_DMARegularConvCplt
 2842 0f4c 00000000 		.word	DFSDM_DMAError
 2843 0f50 00000000 		.word	DFSDM_DMARegularHalfConvCplt
 2844              		.cfi_endproc
 2845              	.LFE155:
 2846              		.size	HAL_DFSDM_FilterRegularStart_DMA, .-HAL_DFSDM_FilterRegularStart_DMA
 2847              		.align	2
 2848 0f54 AFF30080 		.p2align 4,,15
 2848      AFF30080 
 2848      AFF30080 
 2849              		.global	HAL_DFSDM_FilterRegularMsbStart_DMA
 2850              		.thumb
 2851              		.thumb_func
 2852              		.type	HAL_DFSDM_FilterRegularMsbStart_DMA, %function
 2853              	HAL_DFSDM_FilterRegularMsbStart_DMA:
 2854              	.LFB156:
 2855              		.loc 1 1615 0
 2856              		.cfi_startproc
 2857              		@ args = 0, pretend = 0, frame = 24
 2858              		@ frame_needed = 0, uses_anonymous_args = 0
 2859 0f60 00B5     		push	{lr}
 2860              		.cfi_def_cfa_offset 4
 2861              		.cfi_offset 14, -4
 2862 0f62 87B0     		sub	sp, sp, #28
 2863              		.cfi_def_cfa_offset 32
 2864 0f64 0390     		str	r0, [sp, #12]
 2865 0f66 0291     		str	r1, [sp, #8]
 2866 0f68 0192     		str	r2, [sp, #4]
 2867              		.loc 1 1616 0
 2868 0f6a 0023     		movs	r3, #0
 2869 0f6c 8DF81730 		strb	r3, [sp, #23]
 2870              		.loc 1 1622 0
 2871 0f70 029B     		ldr	r3, [sp, #8]
 2872 0f72 002B     		cmp	r3, #0
 2873 0f74 02D0     		beq	.L194
 2874              		.loc 1 1622 0 is_stmt 0 discriminator 1
 2875 0f76 019B     		ldr	r3, [sp, #4]
 2876 0f78 002B     		cmp	r3, #0
 2877 0f7a 03D1     		bne	.L195
 2878              	.L194:
 2879              		.loc 1 1624 0 is_stmt 1
 2880 0f7c 0123     		movs	r3, #1
ARM GAS  /tmp/ccjyqKqb.s 			page 52


 2881 0f7e 8DF81730 		strb	r3, [sp, #23]
 2882 0f82 6BE0     		b	.L196
 2883              	.L195:
 2884              		.loc 1 1627 0
 2885 0f84 039B     		ldr	r3, [sp, #12]
 2886 0f86 1B68     		ldr	r3, [r3]
 2887 0f88 1B68     		ldr	r3, [r3]
 2888 0f8a 03F40013 		and	r3, r3, #2097152
 2889 0f8e 002B     		cmp	r3, #0
 2890 0f90 03D1     		bne	.L197
 2891              		.loc 1 1629 0
 2892 0f92 0123     		movs	r3, #1
 2893 0f94 8DF81730 		strb	r3, [sp, #23]
 2894 0f98 60E0     		b	.L196
 2895              	.L197:
 2896              		.loc 1 1632 0
 2897 0f9a 039B     		ldr	r3, [sp, #12]
 2898 0f9c 5B6B     		ldr	r3, [r3, #52]
 2899 0f9e 002B     		cmp	r3, #0
 2900 0fa0 0FD1     		bne	.L198
 2901              		.loc 1 1633 0 discriminator 1
 2902 0fa2 039B     		ldr	r3, [sp, #12]
 2903 0fa4 1B6B     		ldr	r3, [r3, #48]
 2904              		.loc 1 1632 0 discriminator 1
 2905 0fa6 002B     		cmp	r3, #0
 2906 0fa8 0BD1     		bne	.L198
 2907              		.loc 1 1634 0
 2908 0faa 039B     		ldr	r3, [sp, #12]
 2909 0fac 9B6A     		ldr	r3, [r3, #40]
 2910 0fae DB69     		ldr	r3, [r3, #28]
 2911              		.loc 1 1633 0
 2912 0fb0 002B     		cmp	r3, #0
 2913 0fb2 06D1     		bne	.L198
 2914              		.loc 1 1634 0
 2915 0fb4 019B     		ldr	r3, [sp, #4]
 2916 0fb6 012B     		cmp	r3, #1
 2917 0fb8 03D0     		beq	.L198
 2918              		.loc 1 1637 0
 2919 0fba 0123     		movs	r3, #1
 2920 0fbc 8DF81730 		strb	r3, [sp, #23]
 2921 0fc0 4CE0     		b	.L196
 2922              	.L198:
 2923              		.loc 1 1639 0
 2924 0fc2 039B     		ldr	r3, [sp, #12]
 2925 0fc4 5B6B     		ldr	r3, [r3, #52]
 2926 0fc6 002B     		cmp	r3, #0
 2927 0fc8 0CD1     		bne	.L199
 2928              		.loc 1 1640 0 discriminator 1
 2929 0fca 039B     		ldr	r3, [sp, #12]
 2930 0fcc 1B6B     		ldr	r3, [r3, #48]
 2931              		.loc 1 1639 0 discriminator 1
 2932 0fce 002B     		cmp	r3, #0
 2933 0fd0 08D1     		bne	.L199
 2934              		.loc 1 1641 0
 2935 0fd2 039B     		ldr	r3, [sp, #12]
 2936 0fd4 9B6A     		ldr	r3, [r3, #40]
 2937 0fd6 DB69     		ldr	r3, [r3, #28]
ARM GAS  /tmp/ccjyqKqb.s 			page 53


 2938              		.loc 1 1640 0
 2939 0fd8 202B     		cmp	r3, #32
 2940 0fda 03D1     		bne	.L199
 2941              		.loc 1 1643 0
 2942 0fdc 0123     		movs	r3, #1
 2943 0fde 8DF81730 		strb	r3, [sp, #23]
 2944 0fe2 3BE0     		b	.L196
 2945              	.L199:
 2946              		.loc 1 1646 0
 2947 0fe4 039B     		ldr	r3, [sp, #12]
 2948 0fe6 93F84C30 		ldrb	r3, [r3, #76]	@ zero_extendqisi2
 2949 0fea 012B     		cmp	r3, #1
 2950 0fec 04D0     		beq	.L200
 2951              		.loc 1 1647 0 discriminator 1
 2952 0fee 039B     		ldr	r3, [sp, #12]
 2953 0ff0 93F84C30 		ldrb	r3, [r3, #76]	@ zero_extendqisi2
 2954              		.loc 1 1646 0 discriminator 1
 2955 0ff4 032B     		cmp	r3, #3
 2956 0ff6 2ED1     		bne	.L201
 2957              	.L200:
 2958              		.loc 1 1650 0
 2959 0ff8 039B     		ldr	r3, [sp, #12]
 2960 0ffa 9B6A     		ldr	r3, [r3, #40]
 2961 0ffc 1A4A     		ldr	r2, .L207
 2962 0ffe DA62     		str	r2, [r3, #44]
 2963              		.loc 1 1651 0
 2964 1000 039B     		ldr	r3, [sp, #12]
 2965 1002 9B6A     		ldr	r3, [r3, #40]
 2966 1004 194A     		ldr	r2, .L207+4
 2967 1006 5A63     		str	r2, [r3, #52]
 2968              		.loc 1 1652 0
 2969 1008 039B     		ldr	r3, [sp, #12]
 2970 100a 9A6A     		ldr	r2, [r3, #40]
 2971 100c 039B     		ldr	r3, [sp, #12]
 2972 100e 9B6A     		ldr	r3, [r3, #40]
 2973 1010 DB69     		ldr	r3, [r3, #28]
 2974              		.loc 1 1653 0
 2975 1012 202B     		cmp	r3, #32
 2976 1014 01D1     		bne	.L202
 2977              		.loc 1 1653 0 is_stmt 0 discriminator 1
 2978 1016 164B     		ldr	r3, .L207+8
 2979 1018 00E0     		b	.L203
 2980              	.L202:
 2981              		.loc 1 1653 0 discriminator 2
 2982 101a 0023     		movs	r3, #0
 2983              	.L203:
 2984              		.loc 1 1652 0 is_stmt 1
 2985 101c 1363     		str	r3, [r2, #48]
 2986              		.loc 1 1656 0
 2987 101e 039B     		ldr	r3, [sp, #12]
 2988 1020 996A     		ldr	r1, [r3, #40]
 2989 1022 039B     		ldr	r3, [sp, #12]
 2990 1024 1B68     		ldr	r3, [r3]
 2991 1026 1C33     		adds	r3, r3, #28
 2992 1028 9A1C     		adds	r2, r3, #2
 2993 102a 029B     		ldr	r3, [sp, #8]
 2994 102c 0846     		mov	r0, r1
ARM GAS  /tmp/ccjyqKqb.s 			page 54


 2995 102e 1146     		mov	r1, r2
 2996 1030 1A46     		mov	r2, r3
 2997 1032 019B     		ldr	r3, [sp, #4]
 2998 1034 FFF7FEFF 		bl	HAL_DMA_Start_IT
 2999 1038 0346     		mov	r3, r0
 3000 103a 002B     		cmp	r3, #0
 3001 103c 07D0     		beq	.L204
 3002              		.loc 1 1660 0
 3003 103e 039B     		ldr	r3, [sp, #12]
 3004 1040 FF22     		movs	r2, #255
 3005 1042 83F84C20 		strb	r2, [r3, #76]
 3006              		.loc 1 1661 0
 3007 1046 0123     		movs	r3, #1
 3008 1048 8DF81730 		strb	r3, [sp, #23]
 3009              		.loc 1 1656 0
 3010 104c 06E0     		b	.L196
 3011              	.L204:
 3012              		.loc 1 1666 0
 3013 104e 0398     		ldr	r0, [sp, #12]
 3014 1050 00F036FF 		bl	DFSDM_RegConvStart
 3015              		.loc 1 1656 0
 3016 1054 02E0     		b	.L196
 3017              	.L201:
 3018              		.loc 1 1671 0
 3019 1056 0123     		movs	r3, #1
 3020 1058 8DF81730 		strb	r3, [sp, #23]
 3021              	.L196:
 3022              		.loc 1 1674 0
 3023 105c 9DF81730 		ldrb	r3, [sp, #23]	@ zero_extendqisi2
 3024              		.loc 1 1675 0
 3025 1060 1846     		mov	r0, r3
 3026 1062 07B0     		add	sp, sp, #28
 3027              		@ sp needed
 3028 1064 5DF804FB 		ldr	pc, [sp], #4
 3029              	.L208:
 3030              		.align	2
 3031              	.L207:
 3032 1068 00000000 		.word	DFSDM_DMARegularConvCplt
 3033 106c 00000000 		.word	DFSDM_DMAError
 3034 1070 00000000 		.word	DFSDM_DMARegularHalfConvCplt
 3035              		.cfi_endproc
 3036              	.LFE156:
 3037              		.size	HAL_DFSDM_FilterRegularMsbStart_DMA, .-HAL_DFSDM_FilterRegularMsbStart_DMA
 3038              		.align	2
 3039 1074 AFF30080 		.p2align 4,,15
 3039      AFF30080 
 3039      AFF30080 
 3040              		.global	HAL_DFSDM_FilterRegularStop_DMA
 3041              		.thumb
 3042              		.thumb_func
 3043              		.type	HAL_DFSDM_FilterRegularStop_DMA, %function
 3044              	HAL_DFSDM_FilterRegularStop_DMA:
 3045              	.LFB157:
 3046              		.loc 1 1684 0
 3047              		.cfi_startproc
 3048              		@ args = 0, pretend = 0, frame = 16
 3049              		@ frame_needed = 0, uses_anonymous_args = 0
ARM GAS  /tmp/ccjyqKqb.s 			page 55


 3050 1080 00B5     		push	{lr}
 3051              		.cfi_def_cfa_offset 4
 3052              		.cfi_offset 14, -4
 3053 1082 85B0     		sub	sp, sp, #20
 3054              		.cfi_def_cfa_offset 24
 3055 1084 0190     		str	r0, [sp, #4]
 3056              		.loc 1 1685 0
 3057 1086 0023     		movs	r3, #0
 3058 1088 8DF80F30 		strb	r3, [sp, #15]
 3059              		.loc 1 1691 0
 3060 108c 019B     		ldr	r3, [sp, #4]
 3061 108e 93F84C30 		ldrb	r3, [r3, #76]	@ zero_extendqisi2
 3062 1092 022B     		cmp	r3, #2
 3063 1094 08D0     		beq	.L210
 3064              		.loc 1 1692 0 discriminator 1
 3065 1096 019B     		ldr	r3, [sp, #4]
 3066 1098 93F84C30 		ldrb	r3, [r3, #76]	@ zero_extendqisi2
 3067              		.loc 1 1691 0 discriminator 1
 3068 109c 042B     		cmp	r3, #4
 3069 109e 03D0     		beq	.L210
 3070              		.loc 1 1695 0
 3071 10a0 0123     		movs	r3, #1
 3072 10a2 8DF80F30 		strb	r3, [sp, #15]
 3073 10a6 12E0     		b	.L211
 3074              	.L210:
 3075              		.loc 1 1700 0
 3076 10a8 019B     		ldr	r3, [sp, #4]
 3077 10aa 9B6A     		ldr	r3, [r3, #40]
 3078 10ac 1846     		mov	r0, r3
 3079 10ae FFF7FEFF 		bl	HAL_DMA_Abort
 3080 10b2 0346     		mov	r3, r0
 3081 10b4 002B     		cmp	r3, #0
 3082 10b6 07D0     		beq	.L212
 3083              		.loc 1 1703 0
 3084 10b8 019B     		ldr	r3, [sp, #4]
 3085 10ba FF22     		movs	r2, #255
 3086 10bc 83F84C20 		strb	r2, [r3, #76]
 3087              		.loc 1 1704 0
 3088 10c0 0123     		movs	r3, #1
 3089 10c2 8DF80F30 		strb	r3, [sp, #15]
 3090 10c6 02E0     		b	.L211
 3091              	.L212:
 3092              		.loc 1 1709 0
 3093 10c8 0198     		ldr	r0, [sp, #4]
 3094 10ca 00F049FF 		bl	DFSDM_RegConvStop
 3095              	.L211:
 3096              		.loc 1 1713 0
 3097 10ce 9DF80F30 		ldrb	r3, [sp, #15]	@ zero_extendqisi2
 3098              		.loc 1 1714 0
 3099 10d2 1846     		mov	r0, r3
 3100 10d4 05B0     		add	sp, sp, #20
 3101              		@ sp needed
 3102 10d6 5DF804FB 		ldr	pc, [sp], #4
 3103              		.cfi_endproc
 3104              	.LFE157:
 3105              		.size	HAL_DFSDM_FilterRegularStop_DMA, .-HAL_DFSDM_FilterRegularStop_DMA
 3106 10da 00BF     		.align	2
ARM GAS  /tmp/ccjyqKqb.s 			page 56


 3107 10dc AFF30080 		.p2align 4,,15
 3108              		.global	HAL_DFSDM_FilterGetRegularValue
 3109              		.thumb
 3110              		.thumb_func
 3111              		.type	HAL_DFSDM_FilterGetRegularValue, %function
 3112              	HAL_DFSDM_FilterGetRegularValue:
 3113              	.LFB158:
 3114              		.loc 1 1724 0
 3115              		.cfi_startproc
 3116              		@ args = 0, pretend = 0, frame = 24
 3117              		@ frame_needed = 0, uses_anonymous_args = 0
 3118              		@ link register save eliminated.
 3119 10e0 86B0     		sub	sp, sp, #24
 3120              		.cfi_def_cfa_offset 24
 3121 10e2 0190     		str	r0, [sp, #4]
 3122 10e4 0091     		str	r1, [sp]
 3123              		.loc 1 1725 0
 3124 10e6 0023     		movs	r3, #0
 3125 10e8 0593     		str	r3, [sp, #20]
 3126              		.loc 1 1726 0
 3127 10ea 0023     		movs	r3, #0
 3128 10ec 0493     		str	r3, [sp, #16]
 3129              		.loc 1 1733 0
 3130 10ee 019B     		ldr	r3, [sp, #4]
 3131 10f0 1B68     		ldr	r3, [r3]
 3132 10f2 DB69     		ldr	r3, [r3, #28]
 3133 10f4 0593     		str	r3, [sp, #20]
 3134              		.loc 1 1736 0
 3135 10f6 059B     		ldr	r3, [sp, #20]
 3136 10f8 03F00702 		and	r2, r3, #7
 3137 10fc 009B     		ldr	r3, [sp]
 3138 10fe 1A60     		str	r2, [r3]
 3139              		.loc 1 1737 0
 3140 1100 059B     		ldr	r3, [sp, #20]
 3141 1102 23F0FF02 		bic	r2, r3, #255
 3142 1106 6FF0FF03 		mvn	r3, #255
 3143 110a 0393     		str	r3, [sp, #12]
 3144              	.LBB115:
 3145              	.LBB116:
 3146              		.loc 2 586 0
 3147 110c 039B     		ldr	r3, [sp, #12]
 3148              	@ 586 "../../../../../../ChibiOS/os/ext/CMSIS/include/core_cmInstr.h" 1
 3149 110e 93FAA3F3 		rbit r3, r3
 3150              	@ 0 "" 2
 3151              		.thumb
 3152 1112 0293     		str	r3, [sp, #8]
 3153              		.loc 2 599 0
 3154 1114 029B     		ldr	r3, [sp, #8]
 3155              	.LBE116:
 3156              	.LBE115:
 3157              		.loc 1 1737 0
 3158 1116 B3FA83F3 		clz	r3, r3
 3159 111a 22FA03F3 		lsr	r3, r2, r3
 3160 111e 0493     		str	r3, [sp, #16]
 3161              		.loc 1 1740 0
 3162 1120 049B     		ldr	r3, [sp, #16]
 3163              		.loc 1 1741 0
ARM GAS  /tmp/ccjyqKqb.s 			page 57


 3164 1122 1846     		mov	r0, r3
 3165 1124 06B0     		add	sp, sp, #24
 3166              		@ sp needed
 3167 1126 7047     		bx	lr
 3168              		.cfi_endproc
 3169              	.LFE158:
 3170              		.size	HAL_DFSDM_FilterGetRegularValue, .-HAL_DFSDM_FilterGetRegularValue
 3171              		.align	2
 3172 1128 AFF30080 		.p2align 4,,15
 3172      AFF30080 
 3173              		.global	HAL_DFSDM_FilterInjectedStart
 3174              		.thumb
 3175              		.thumb_func
 3176              		.type	HAL_DFSDM_FilterInjectedStart, %function
 3177              	HAL_DFSDM_FilterInjectedStart:
 3178              	.LFB159:
 3179              		.loc 1 1751 0
 3180              		.cfi_startproc
 3181              		@ args = 0, pretend = 0, frame = 16
 3182              		@ frame_needed = 0, uses_anonymous_args = 0
 3183 1130 00B5     		push	{lr}
 3184              		.cfi_def_cfa_offset 4
 3185              		.cfi_offset 14, -4
 3186 1132 85B0     		sub	sp, sp, #20
 3187              		.cfi_def_cfa_offset 24
 3188 1134 0190     		str	r0, [sp, #4]
 3189              		.loc 1 1752 0
 3190 1136 0023     		movs	r3, #0
 3191 1138 8DF80F30 		strb	r3, [sp, #15]
 3192              		.loc 1 1758 0
 3193 113c 019B     		ldr	r3, [sp, #4]
 3194 113e 93F84C30 		ldrb	r3, [r3, #76]	@ zero_extendqisi2
 3195 1142 012B     		cmp	r3, #1
 3196 1144 04D0     		beq	.L218
 3197              		.loc 1 1759 0 discriminator 1
 3198 1146 019B     		ldr	r3, [sp, #4]
 3199 1148 93F84C30 		ldrb	r3, [r3, #76]	@ zero_extendqisi2
 3200              		.loc 1 1758 0 discriminator 1
 3201 114c 022B     		cmp	r3, #2
 3202 114e 03D1     		bne	.L219
 3203              	.L218:
 3204              		.loc 1 1762 0
 3205 1150 0198     		ldr	r0, [sp, #4]
 3206 1152 00F04DFF 		bl	DFSDM_InjConvStart
 3207 1156 02E0     		b	.L220
 3208              	.L219:
 3209              		.loc 1 1766 0
 3210 1158 0123     		movs	r3, #1
 3211 115a 8DF80F30 		strb	r3, [sp, #15]
 3212              	.L220:
 3213              		.loc 1 1769 0
 3214 115e 9DF80F30 		ldrb	r3, [sp, #15]	@ zero_extendqisi2
 3215              		.loc 1 1770 0
 3216 1162 1846     		mov	r0, r3
 3217 1164 05B0     		add	sp, sp, #20
 3218              		@ sp needed
 3219 1166 5DF804FB 		ldr	pc, [sp], #4
ARM GAS  /tmp/ccjyqKqb.s 			page 58


 3220              		.cfi_endproc
 3221              	.LFE159:
 3222              		.size	HAL_DFSDM_FilterInjectedStart, .-HAL_DFSDM_FilterInjectedStart
 3223 116a 00BF     		.align	2
 3224 116c AFF30080 		.p2align 4,,15
 3225              		.global	HAL_DFSDM_FilterPollForInjConversion
 3226              		.thumb
 3227              		.thumb_func
 3228              		.type	HAL_DFSDM_FilterPollForInjConversion, %function
 3229              	HAL_DFSDM_FilterPollForInjConversion:
 3230              	.LFB160:
 3231              		.loc 1 1781 0
 3232              		.cfi_startproc
 3233              		@ args = 0, pretend = 0, frame = 16
 3234              		@ frame_needed = 0, uses_anonymous_args = 0
 3235 1170 00B5     		push	{lr}
 3236              		.cfi_def_cfa_offset 4
 3237              		.cfi_offset 14, -4
 3238 1172 85B0     		sub	sp, sp, #20
 3239              		.cfi_def_cfa_offset 24
 3240 1174 0190     		str	r0, [sp, #4]
 3241 1176 0091     		str	r1, [sp]
 3242              		.loc 1 1788 0
 3243 1178 019B     		ldr	r3, [sp, #4]
 3244 117a 93F84C30 		ldrb	r3, [r3, #76]	@ zero_extendqisi2
 3245 117e 032B     		cmp	r3, #3
 3246 1180 06D0     		beq	.L223
 3247              		.loc 1 1789 0 discriminator 1
 3248 1182 019B     		ldr	r3, [sp, #4]
 3249 1184 93F84C30 		ldrb	r3, [r3, #76]	@ zero_extendqisi2
 3250              		.loc 1 1788 0 discriminator 1
 3251 1188 042B     		cmp	r3, #4
 3252 118a 01D0     		beq	.L223
 3253              		.loc 1 1792 0
 3254 118c 0123     		movs	r3, #1
 3255 118e 50E0     		b	.L224
 3256              	.L223:
 3257              		.loc 1 1797 0
 3258 1190 FFF7FEFF 		bl	HAL_GetTick
 3259 1194 0390     		str	r0, [sp, #12]
 3260              		.loc 1 1800 0
 3261 1196 10E0     		b	.L225
 3262              	.L227:
 3263              		.loc 1 1803 0
 3264 1198 009B     		ldr	r3, [sp]
 3265 119a B3F1FF3F 		cmp	r3, #-1
 3266 119e 0CD0     		beq	.L225
 3267              		.loc 1 1805 0
 3268 11a0 009B     		ldr	r3, [sp]
 3269 11a2 002B     		cmp	r3, #0
 3270 11a4 07D0     		beq	.L226
 3271              		.loc 1 1805 0 is_stmt 0 discriminator 1
 3272 11a6 FFF7FEFF 		bl	HAL_GetTick
 3273 11aa 0246     		mov	r2, r0
 3274 11ac 039B     		ldr	r3, [sp, #12]
 3275 11ae D21A     		subs	r2, r2, r3
 3276 11b0 009B     		ldr	r3, [sp]
ARM GAS  /tmp/ccjyqKqb.s 			page 59


 3277 11b2 9A42     		cmp	r2, r3
 3278 11b4 01D9     		bls	.L225
 3279              	.L226:
 3280              		.loc 1 1808 0 is_stmt 1
 3281 11b6 0323     		movs	r3, #3
 3282 11b8 3BE0     		b	.L224
 3283              	.L225:
 3284              		.loc 1 1800 0 discriminator 1
 3285 11ba 019B     		ldr	r3, [sp, #4]
 3286 11bc 1B68     		ldr	r3, [r3]
 3287 11be 9B68     		ldr	r3, [r3, #8]
 3288 11c0 03F00103 		and	r3, r3, #1
 3289 11c4 002B     		cmp	r3, #0
 3290 11c6 E7D0     		beq	.L227
 3291              		.loc 1 1813 0
 3292 11c8 019B     		ldr	r3, [sp, #4]
 3293 11ca 1B68     		ldr	r3, [r3]
 3294 11cc 9B68     		ldr	r3, [r3, #8]
 3295 11ce 03F00403 		and	r3, r3, #4
 3296 11d2 002B     		cmp	r3, #0
 3297 11d4 09D0     		beq	.L228
 3298              		.loc 1 1816 0
 3299 11d6 019B     		ldr	r3, [sp, #4]
 3300 11d8 0222     		movs	r2, #2
 3301 11da 1A65     		str	r2, [r3, #80]
 3302              		.loc 1 1817 0
 3303 11dc 0198     		ldr	r0, [sp, #4]
 3304 11de FFF7FEFF 		bl	HAL_DFSDM_FilterErrorCallback
 3305              		.loc 1 1820 0
 3306 11e2 019B     		ldr	r3, [sp, #4]
 3307 11e4 1B68     		ldr	r3, [r3]
 3308 11e6 0422     		movs	r2, #4
 3309 11e8 DA60     		str	r2, [r3, #12]
 3310              	.L228:
 3311              		.loc 1 1824 0
 3312 11ea 019B     		ldr	r3, [sp, #4]
 3313 11ec 9B6C     		ldr	r3, [r3, #72]
 3314 11ee 5A1E     		subs	r2, r3, #1
 3315 11f0 019B     		ldr	r3, [sp, #4]
 3316 11f2 9A64     		str	r2, [r3, #72]
 3317              		.loc 1 1825 0
 3318 11f4 019B     		ldr	r3, [sp, #4]
 3319 11f6 9B6C     		ldr	r3, [r3, #72]
 3320 11f8 002B     		cmp	r3, #0
 3321 11fa 19D1     		bne	.L229
 3322              		.loc 1 1828 0
 3323 11fc 019B     		ldr	r3, [sp, #4]
 3324 11fe 9B6B     		ldr	r3, [r3, #56]
 3325 1200 002B     		cmp	r3, #0
 3326 1202 0AD1     		bne	.L230
 3327              		.loc 1 1830 0
 3328 1204 019B     		ldr	r3, [sp, #4]
 3329 1206 93F84C30 		ldrb	r3, [r3, #76]	@ zero_extendqisi2
 3330 120a 032B     		cmp	r3, #3
 3331 120c 01D1     		bne	.L231
 3332              		.loc 1 1830 0 is_stmt 0 discriminator 1
 3333 120e 0123     		movs	r3, #1
ARM GAS  /tmp/ccjyqKqb.s 			page 60


 3334 1210 00E0     		b	.L232
 3335              	.L231:
 3336              		.loc 1 1830 0 discriminator 2
 3337 1212 0223     		movs	r3, #2
 3338              	.L232:
 3339              		.loc 1 1830 0 discriminator 3
 3340 1214 019A     		ldr	r2, [sp, #4]
 3341 1216 82F84C30 		strb	r3, [r2, #76]
 3342              	.L230:
 3343              		.loc 1 1835 0 is_stmt 1
 3344 121a 019B     		ldr	r3, [sp, #4]
 3345 121c 93F84030 		ldrb	r3, [r3, #64]	@ zero_extendqisi2
 3346              		.loc 1 1836 0
 3347 1220 012B     		cmp	r3, #1
 3348 1222 02D1     		bne	.L233
 3349              		.loc 1 1836 0 is_stmt 0 discriminator 1
 3350 1224 019B     		ldr	r3, [sp, #4]
 3351 1226 5B6C     		ldr	r3, [r3, #68]
 3352 1228 00E0     		b	.L234
 3353              	.L233:
 3354              		.loc 1 1836 0 discriminator 2
 3355 122a 0123     		movs	r3, #1
 3356              	.L234:
 3357              		.loc 1 1835 0 is_stmt 1
 3358 122c 019A     		ldr	r2, [sp, #4]
 3359 122e 9364     		str	r3, [r2, #72]
 3360              	.L229:
 3361              		.loc 1 1840 0
 3362 1230 0023     		movs	r3, #0
 3363              	.L224:
 3364              		.loc 1 1842 0
 3365 1232 1846     		mov	r0, r3
 3366 1234 05B0     		add	sp, sp, #20
 3367              		@ sp needed
 3368 1236 5DF804FB 		ldr	pc, [sp], #4
 3369              		.cfi_endproc
 3370              	.LFE160:
 3371              		.size	HAL_DFSDM_FilterPollForInjConversion, .-HAL_DFSDM_FilterPollForInjConversion
 3372 123a 00BF     		.align	2
 3373 123c AFF30080 		.p2align 4,,15
 3374              		.global	HAL_DFSDM_FilterInjectedStop
 3375              		.thumb
 3376              		.thumb_func
 3377              		.type	HAL_DFSDM_FilterInjectedStop, %function
 3378              	HAL_DFSDM_FilterInjectedStop:
 3379              	.LFB161:
 3380              		.loc 1 1851 0
 3381              		.cfi_startproc
 3382              		@ args = 0, pretend = 0, frame = 16
 3383              		@ frame_needed = 0, uses_anonymous_args = 0
 3384 1240 00B5     		push	{lr}
 3385              		.cfi_def_cfa_offset 4
 3386              		.cfi_offset 14, -4
 3387 1242 85B0     		sub	sp, sp, #20
 3388              		.cfi_def_cfa_offset 24
 3389 1244 0190     		str	r0, [sp, #4]
 3390              		.loc 1 1852 0
ARM GAS  /tmp/ccjyqKqb.s 			page 61


 3391 1246 0023     		movs	r3, #0
 3392 1248 8DF80F30 		strb	r3, [sp, #15]
 3393              		.loc 1 1858 0
 3394 124c 019B     		ldr	r3, [sp, #4]
 3395 124e 93F84C30 		ldrb	r3, [r3, #76]	@ zero_extendqisi2
 3396 1252 032B     		cmp	r3, #3
 3397 1254 08D0     		beq	.L236
 3398              		.loc 1 1859 0 discriminator 1
 3399 1256 019B     		ldr	r3, [sp, #4]
 3400 1258 93F84C30 		ldrb	r3, [r3, #76]	@ zero_extendqisi2
 3401              		.loc 1 1858 0 discriminator 1
 3402 125c 042B     		cmp	r3, #4
 3403 125e 03D0     		beq	.L236
 3404              		.loc 1 1862 0
 3405 1260 0123     		movs	r3, #1
 3406 1262 8DF80F30 		strb	r3, [sp, #15]
 3407 1266 02E0     		b	.L237
 3408              	.L236:
 3409              		.loc 1 1867 0
 3410 1268 0198     		ldr	r0, [sp, #4]
 3411 126a 00F019FF 		bl	DFSDM_InjConvStop
 3412              	.L237:
 3413              		.loc 1 1870 0
 3414 126e 9DF80F30 		ldrb	r3, [sp, #15]	@ zero_extendqisi2
 3415              		.loc 1 1871 0
 3416 1272 1846     		mov	r0, r3
 3417 1274 05B0     		add	sp, sp, #20
 3418              		@ sp needed
 3419 1276 5DF804FB 		ldr	pc, [sp], #4
 3420              		.cfi_endproc
 3421              	.LFE161:
 3422              		.size	HAL_DFSDM_FilterInjectedStop, .-HAL_DFSDM_FilterInjectedStop
 3423 127a 00BF     		.align	2
 3424 127c AFF30080 		.p2align 4,,15
 3425              		.global	HAL_DFSDM_FilterInjectedStart_IT
 3426              		.thumb
 3427              		.thumb_func
 3428              		.type	HAL_DFSDM_FilterInjectedStart_IT, %function
 3429              	HAL_DFSDM_FilterInjectedStart_IT:
 3430              	.LFB162:
 3431              		.loc 1 1881 0
 3432              		.cfi_startproc
 3433              		@ args = 0, pretend = 0, frame = 16
 3434              		@ frame_needed = 0, uses_anonymous_args = 0
 3435 1280 00B5     		push	{lr}
 3436              		.cfi_def_cfa_offset 4
 3437              		.cfi_offset 14, -4
 3438 1282 85B0     		sub	sp, sp, #20
 3439              		.cfi_def_cfa_offset 24
 3440 1284 0190     		str	r0, [sp, #4]
 3441              		.loc 1 1882 0
 3442 1286 0023     		movs	r3, #0
 3443 1288 8DF80F30 		strb	r3, [sp, #15]
 3444              		.loc 1 1888 0
 3445 128c 019B     		ldr	r3, [sp, #4]
 3446 128e 93F84C30 		ldrb	r3, [r3, #76]	@ zero_extendqisi2
 3447 1292 012B     		cmp	r3, #1
ARM GAS  /tmp/ccjyqKqb.s 			page 62


 3448 1294 04D0     		beq	.L240
 3449              		.loc 1 1889 0 discriminator 1
 3450 1296 019B     		ldr	r3, [sp, #4]
 3451 1298 93F84C30 		ldrb	r3, [r3, #76]	@ zero_extendqisi2
 3452              		.loc 1 1888 0 discriminator 1
 3453 129c 022B     		cmp	r3, #2
 3454 129e 0BD1     		bne	.L241
 3455              	.L240:
 3456              		.loc 1 1892 0
 3457 12a0 019B     		ldr	r3, [sp, #4]
 3458 12a2 1B68     		ldr	r3, [r3]
 3459 12a4 019A     		ldr	r2, [sp, #4]
 3460 12a6 1268     		ldr	r2, [r2]
 3461 12a8 5268     		ldr	r2, [r2, #4]
 3462 12aa 42F00502 		orr	r2, r2, #5
 3463 12ae 5A60     		str	r2, [r3, #4]
 3464              		.loc 1 1895 0
 3465 12b0 0198     		ldr	r0, [sp, #4]
 3466 12b2 00F09DFE 		bl	DFSDM_InjConvStart
 3467 12b6 02E0     		b	.L242
 3468              	.L241:
 3469              		.loc 1 1899 0
 3470 12b8 0123     		movs	r3, #1
 3471 12ba 8DF80F30 		strb	r3, [sp, #15]
 3472              	.L242:
 3473              		.loc 1 1902 0
 3474 12be 9DF80F30 		ldrb	r3, [sp, #15]	@ zero_extendqisi2
 3475              		.loc 1 1903 0
 3476 12c2 1846     		mov	r0, r3
 3477 12c4 05B0     		add	sp, sp, #20
 3478              		@ sp needed
 3479 12c6 5DF804FB 		ldr	pc, [sp], #4
 3480              		.cfi_endproc
 3481              	.LFE162:
 3482              		.size	HAL_DFSDM_FilterInjectedStart_IT, .-HAL_DFSDM_FilterInjectedStart_IT
 3483 12ca 00BF     		.align	2
 3484 12cc AFF30080 		.p2align 4,,15
 3485              		.global	HAL_DFSDM_FilterInjectedStop_IT
 3486              		.thumb
 3487              		.thumb_func
 3488              		.type	HAL_DFSDM_FilterInjectedStop_IT, %function
 3489              	HAL_DFSDM_FilterInjectedStop_IT:
 3490              	.LFB163:
 3491              		.loc 1 1912 0
 3492              		.cfi_startproc
 3493              		@ args = 0, pretend = 0, frame = 16
 3494              		@ frame_needed = 0, uses_anonymous_args = 0
 3495 12d0 00B5     		push	{lr}
 3496              		.cfi_def_cfa_offset 4
 3497              		.cfi_offset 14, -4
 3498 12d2 85B0     		sub	sp, sp, #20
 3499              		.cfi_def_cfa_offset 24
 3500 12d4 0190     		str	r0, [sp, #4]
 3501              		.loc 1 1913 0
 3502 12d6 0023     		movs	r3, #0
 3503 12d8 8DF80F30 		strb	r3, [sp, #15]
 3504              		.loc 1 1919 0
ARM GAS  /tmp/ccjyqKqb.s 			page 63


 3505 12dc 019B     		ldr	r3, [sp, #4]
 3506 12de 93F84C30 		ldrb	r3, [r3, #76]	@ zero_extendqisi2
 3507 12e2 032B     		cmp	r3, #3
 3508 12e4 08D0     		beq	.L245
 3509              		.loc 1 1920 0 discriminator 1
 3510 12e6 019B     		ldr	r3, [sp, #4]
 3511 12e8 93F84C30 		ldrb	r3, [r3, #76]	@ zero_extendqisi2
 3512              		.loc 1 1919 0 discriminator 1
 3513 12ec 042B     		cmp	r3, #4
 3514 12ee 03D0     		beq	.L245
 3515              		.loc 1 1923 0
 3516 12f0 0123     		movs	r3, #1
 3517 12f2 8DF80F30 		strb	r3, [sp, #15]
 3518 12f6 0AE0     		b	.L246
 3519              	.L245:
 3520              		.loc 1 1928 0
 3521 12f8 019B     		ldr	r3, [sp, #4]
 3522 12fa 1B68     		ldr	r3, [r3]
 3523 12fc 019A     		ldr	r2, [sp, #4]
 3524 12fe 1268     		ldr	r2, [r2]
 3525 1300 5268     		ldr	r2, [r2, #4]
 3526 1302 22F00502 		bic	r2, r2, #5
 3527 1306 5A60     		str	r2, [r3, #4]
 3528              		.loc 1 1931 0
 3529 1308 0198     		ldr	r0, [sp, #4]
 3530 130a 00F0C9FE 		bl	DFSDM_InjConvStop
 3531              	.L246:
 3532              		.loc 1 1934 0
 3533 130e 9DF80F30 		ldrb	r3, [sp, #15]	@ zero_extendqisi2
 3534              		.loc 1 1935 0
 3535 1312 1846     		mov	r0, r3
 3536 1314 05B0     		add	sp, sp, #20
 3537              		@ sp needed
 3538 1316 5DF804FB 		ldr	pc, [sp], #4
 3539              		.cfi_endproc
 3540              	.LFE163:
 3541              		.size	HAL_DFSDM_FilterInjectedStop_IT, .-HAL_DFSDM_FilterInjectedStop_IT
 3542 131a 00BF     		.align	2
 3543 131c AFF30080 		.p2align 4,,15
 3544              		.global	HAL_DFSDM_FilterInjectedStart_DMA
 3545              		.thumb
 3546              		.thumb_func
 3547              		.type	HAL_DFSDM_FilterInjectedStart_DMA, %function
 3548              	HAL_DFSDM_FilterInjectedStart_DMA:
 3549              	.LFB164:
 3550              		.loc 1 1952 0
 3551              		.cfi_startproc
 3552              		@ args = 0, pretend = 0, frame = 24
 3553              		@ frame_needed = 0, uses_anonymous_args = 0
 3554 1320 00B5     		push	{lr}
 3555              		.cfi_def_cfa_offset 4
 3556              		.cfi_offset 14, -4
 3557 1322 87B0     		sub	sp, sp, #28
 3558              		.cfi_def_cfa_offset 32
 3559 1324 0390     		str	r0, [sp, #12]
 3560 1326 0291     		str	r1, [sp, #8]
 3561 1328 0192     		str	r2, [sp, #4]
ARM GAS  /tmp/ccjyqKqb.s 			page 64


 3562              		.loc 1 1953 0
 3563 132a 0023     		movs	r3, #0
 3564 132c 8DF81730 		strb	r3, [sp, #23]
 3565              		.loc 1 1959 0
 3566 1330 029B     		ldr	r3, [sp, #8]
 3567 1332 002B     		cmp	r3, #0
 3568 1334 02D0     		beq	.L249
 3569              		.loc 1 1959 0 is_stmt 0 discriminator 1
 3570 1336 019B     		ldr	r3, [sp, #4]
 3571 1338 002B     		cmp	r3, #0
 3572 133a 03D1     		bne	.L250
 3573              	.L249:
 3574              		.loc 1 1961 0 is_stmt 1
 3575 133c 0123     		movs	r3, #1
 3576 133e 8DF81730 		strb	r3, [sp, #23]
 3577 1342 65E0     		b	.L251
 3578              	.L250:
 3579              		.loc 1 1964 0
 3580 1344 039B     		ldr	r3, [sp, #12]
 3581 1346 1B68     		ldr	r3, [r3]
 3582 1348 1B68     		ldr	r3, [r3]
 3583 134a 03F02003 		and	r3, r3, #32
 3584 134e 002B     		cmp	r3, #0
 3585 1350 03D1     		bne	.L252
 3586              		.loc 1 1966 0
 3587 1352 0123     		movs	r3, #1
 3588 1354 8DF81730 		strb	r3, [sp, #23]
 3589 1358 5AE0     		b	.L251
 3590              	.L252:
 3591              		.loc 1 1969 0
 3592 135a 039B     		ldr	r3, [sp, #12]
 3593 135c 9B6B     		ldr	r3, [r3, #56]
 3594 135e 002B     		cmp	r3, #0
 3595 1360 0DD1     		bne	.L253
 3596              		.loc 1 1970 0 discriminator 1
 3597 1362 039B     		ldr	r3, [sp, #12]
 3598 1364 DB6A     		ldr	r3, [r3, #44]
 3599 1366 DB69     		ldr	r3, [r3, #28]
 3600              		.loc 1 1969 0 discriminator 1
 3601 1368 002B     		cmp	r3, #0
 3602 136a 08D1     		bne	.L253
 3603              		.loc 1 1971 0
 3604 136c 039B     		ldr	r3, [sp, #12]
 3605 136e 9A6C     		ldr	r2, [r3, #72]
 3606              		.loc 1 1970 0
 3607 1370 019B     		ldr	r3, [sp, #4]
 3608 1372 9A42     		cmp	r2, r3
 3609 1374 03D2     		bcs	.L253
 3610              		.loc 1 1973 0
 3611 1376 0123     		movs	r3, #1
 3612 1378 8DF81730 		strb	r3, [sp, #23]
 3613 137c 48E0     		b	.L251
 3614              	.L253:
 3615              		.loc 1 1975 0
 3616 137e 039B     		ldr	r3, [sp, #12]
 3617 1380 9B6B     		ldr	r3, [r3, #56]
 3618 1382 002B     		cmp	r3, #0
ARM GAS  /tmp/ccjyqKqb.s 			page 65


 3619 1384 08D1     		bne	.L254
 3620              		.loc 1 1976 0 discriminator 1
 3621 1386 039B     		ldr	r3, [sp, #12]
 3622 1388 DB6A     		ldr	r3, [r3, #44]
 3623 138a DB69     		ldr	r3, [r3, #28]
 3624              		.loc 1 1975 0 discriminator 1
 3625 138c 202B     		cmp	r3, #32
 3626 138e 03D1     		bne	.L254
 3627              		.loc 1 1978 0
 3628 1390 0123     		movs	r3, #1
 3629 1392 8DF81730 		strb	r3, [sp, #23]
 3630 1396 3BE0     		b	.L251
 3631              	.L254:
 3632              		.loc 1 1981 0
 3633 1398 039B     		ldr	r3, [sp, #12]
 3634 139a 93F84C30 		ldrb	r3, [r3, #76]	@ zero_extendqisi2
 3635 139e 012B     		cmp	r3, #1
 3636 13a0 04D0     		beq	.L255
 3637              		.loc 1 1982 0 discriminator 1
 3638 13a2 039B     		ldr	r3, [sp, #12]
 3639 13a4 93F84C30 		ldrb	r3, [r3, #76]	@ zero_extendqisi2
 3640              		.loc 1 1981 0 discriminator 1
 3641 13a8 022B     		cmp	r3, #2
 3642 13aa 2ED1     		bne	.L256
 3643              	.L255:
 3644              		.loc 1 1985 0
 3645 13ac 039B     		ldr	r3, [sp, #12]
 3646 13ae DB6A     		ldr	r3, [r3, #44]
 3647 13b0 1A4A     		ldr	r2, .L262
 3648 13b2 DA62     		str	r2, [r3, #44]
 3649              		.loc 1 1986 0
 3650 13b4 039B     		ldr	r3, [sp, #12]
 3651 13b6 DB6A     		ldr	r3, [r3, #44]
 3652 13b8 194A     		ldr	r2, .L262+4
 3653 13ba 5A63     		str	r2, [r3, #52]
 3654              		.loc 1 1987 0
 3655 13bc 039B     		ldr	r3, [sp, #12]
 3656 13be DA6A     		ldr	r2, [r3, #44]
 3657 13c0 039B     		ldr	r3, [sp, #12]
 3658 13c2 DB6A     		ldr	r3, [r3, #44]
 3659 13c4 DB69     		ldr	r3, [r3, #28]
 3660              		.loc 1 1988 0
 3661 13c6 202B     		cmp	r3, #32
 3662 13c8 01D1     		bne	.L257
 3663              		.loc 1 1988 0 is_stmt 0 discriminator 1
 3664 13ca 164B     		ldr	r3, .L262+8
 3665 13cc 00E0     		b	.L258
 3666              	.L257:
 3667              		.loc 1 1988 0 discriminator 2
 3668 13ce 0023     		movs	r3, #0
 3669              	.L258:
 3670              		.loc 1 1987 0 is_stmt 1
 3671 13d0 1363     		str	r3, [r2, #48]
 3672              		.loc 1 1991 0
 3673 13d2 039B     		ldr	r3, [sp, #12]
 3674 13d4 D96A     		ldr	r1, [r3, #44]
 3675 13d6 039B     		ldr	r3, [sp, #12]
ARM GAS  /tmp/ccjyqKqb.s 			page 66


 3676 13d8 1B68     		ldr	r3, [r3]
 3677 13da 1833     		adds	r3, r3, #24
 3678 13dc 1A46     		mov	r2, r3
 3679 13de 029B     		ldr	r3, [sp, #8]
 3680 13e0 0846     		mov	r0, r1
 3681 13e2 1146     		mov	r1, r2
 3682 13e4 1A46     		mov	r2, r3
 3683 13e6 019B     		ldr	r3, [sp, #4]
 3684 13e8 FFF7FEFF 		bl	HAL_DMA_Start_IT
 3685 13ec 0346     		mov	r3, r0
 3686 13ee 002B     		cmp	r3, #0
 3687 13f0 07D0     		beq	.L259
 3688              		.loc 1 1995 0
 3689 13f2 039B     		ldr	r3, [sp, #12]
 3690 13f4 FF22     		movs	r2, #255
 3691 13f6 83F84C20 		strb	r2, [r3, #76]
 3692              		.loc 1 1996 0
 3693 13fa 0123     		movs	r3, #1
 3694 13fc 8DF81730 		strb	r3, [sp, #23]
 3695              		.loc 1 1991 0
 3696 1400 06E0     		b	.L251
 3697              	.L259:
 3698              		.loc 1 2001 0
 3699 1402 0398     		ldr	r0, [sp, #12]
 3700 1404 00F0F4FD 		bl	DFSDM_InjConvStart
 3701              		.loc 1 1991 0
 3702 1408 02E0     		b	.L251
 3703              	.L256:
 3704              		.loc 1 2006 0
 3705 140a 0123     		movs	r3, #1
 3706 140c 8DF81730 		strb	r3, [sp, #23]
 3707              	.L251:
 3708              		.loc 1 2009 0
 3709 1410 9DF81730 		ldrb	r3, [sp, #23]	@ zero_extendqisi2
 3710              		.loc 1 2010 0
 3711 1414 1846     		mov	r0, r3
 3712 1416 07B0     		add	sp, sp, #28
 3713              		@ sp needed
 3714 1418 5DF804FB 		ldr	pc, [sp], #4
 3715              	.L263:
 3716              		.align	2
 3717              	.L262:
 3718 141c 00000000 		.word	DFSDM_DMAInjectedConvCplt
 3719 1420 00000000 		.word	DFSDM_DMAError
 3720 1424 00000000 		.word	DFSDM_DMAInjectedHalfConvCplt
 3721              		.cfi_endproc
 3722              	.LFE164:
 3723              		.size	HAL_DFSDM_FilterInjectedStart_DMA, .-HAL_DFSDM_FilterInjectedStart_DMA
 3724              		.align	2
 3725 1428 AFF30080 		.p2align 4,,15
 3725      AFF30080 
 3726              		.global	HAL_DFSDM_FilterInjectedMsbStart_DMA
 3727              		.thumb
 3728              		.thumb_func
 3729              		.type	HAL_DFSDM_FilterInjectedMsbStart_DMA, %function
 3730              	HAL_DFSDM_FilterInjectedMsbStart_DMA:
 3731              	.LFB165:
ARM GAS  /tmp/ccjyqKqb.s 			page 67


 3732              		.loc 1 2027 0
 3733              		.cfi_startproc
 3734              		@ args = 0, pretend = 0, frame = 24
 3735              		@ frame_needed = 0, uses_anonymous_args = 0
 3736 1430 00B5     		push	{lr}
 3737              		.cfi_def_cfa_offset 4
 3738              		.cfi_offset 14, -4
 3739 1432 87B0     		sub	sp, sp, #28
 3740              		.cfi_def_cfa_offset 32
 3741 1434 0390     		str	r0, [sp, #12]
 3742 1436 0291     		str	r1, [sp, #8]
 3743 1438 0192     		str	r2, [sp, #4]
 3744              		.loc 1 2028 0
 3745 143a 0023     		movs	r3, #0
 3746 143c 8DF81730 		strb	r3, [sp, #23]
 3747              		.loc 1 2034 0
 3748 1440 029B     		ldr	r3, [sp, #8]
 3749 1442 002B     		cmp	r3, #0
 3750 1444 02D0     		beq	.L265
 3751              		.loc 1 2034 0 is_stmt 0 discriminator 1
 3752 1446 019B     		ldr	r3, [sp, #4]
 3753 1448 002B     		cmp	r3, #0
 3754 144a 03D1     		bne	.L266
 3755              	.L265:
 3756              		.loc 1 2036 0 is_stmt 1
 3757 144c 0123     		movs	r3, #1
 3758 144e 8DF81730 		strb	r3, [sp, #23]
 3759 1452 65E0     		b	.L267
 3760              	.L266:
 3761              		.loc 1 2039 0
 3762 1454 039B     		ldr	r3, [sp, #12]
 3763 1456 1B68     		ldr	r3, [r3]
 3764 1458 1B68     		ldr	r3, [r3]
 3765 145a 03F02003 		and	r3, r3, #32
 3766 145e 002B     		cmp	r3, #0
 3767 1460 03D1     		bne	.L268
 3768              		.loc 1 2041 0
 3769 1462 0123     		movs	r3, #1
 3770 1464 8DF81730 		strb	r3, [sp, #23]
 3771 1468 5AE0     		b	.L267
 3772              	.L268:
 3773              		.loc 1 2044 0
 3774 146a 039B     		ldr	r3, [sp, #12]
 3775 146c 9B6B     		ldr	r3, [r3, #56]
 3776 146e 002B     		cmp	r3, #0
 3777 1470 0DD1     		bne	.L269
 3778              		.loc 1 2045 0 discriminator 1
 3779 1472 039B     		ldr	r3, [sp, #12]
 3780 1474 DB6A     		ldr	r3, [r3, #44]
 3781 1476 DB69     		ldr	r3, [r3, #28]
 3782              		.loc 1 2044 0 discriminator 1
 3783 1478 002B     		cmp	r3, #0
 3784 147a 08D1     		bne	.L269
 3785              		.loc 1 2046 0
 3786 147c 039B     		ldr	r3, [sp, #12]
 3787 147e 9A6C     		ldr	r2, [r3, #72]
 3788              		.loc 1 2045 0
ARM GAS  /tmp/ccjyqKqb.s 			page 68


 3789 1480 019B     		ldr	r3, [sp, #4]
 3790 1482 9A42     		cmp	r2, r3
 3791 1484 03D2     		bcs	.L269
 3792              		.loc 1 2048 0
 3793 1486 0123     		movs	r3, #1
 3794 1488 8DF81730 		strb	r3, [sp, #23]
 3795 148c 48E0     		b	.L267
 3796              	.L269:
 3797              		.loc 1 2050 0
 3798 148e 039B     		ldr	r3, [sp, #12]
 3799 1490 9B6B     		ldr	r3, [r3, #56]
 3800 1492 002B     		cmp	r3, #0
 3801 1494 08D1     		bne	.L270
 3802              		.loc 1 2051 0 discriminator 1
 3803 1496 039B     		ldr	r3, [sp, #12]
 3804 1498 DB6A     		ldr	r3, [r3, #44]
 3805 149a DB69     		ldr	r3, [r3, #28]
 3806              		.loc 1 2050 0 discriminator 1
 3807 149c 202B     		cmp	r3, #32
 3808 149e 03D1     		bne	.L270
 3809              		.loc 1 2053 0
 3810 14a0 0123     		movs	r3, #1
 3811 14a2 8DF81730 		strb	r3, [sp, #23]
 3812 14a6 3BE0     		b	.L267
 3813              	.L270:
 3814              		.loc 1 2056 0
 3815 14a8 039B     		ldr	r3, [sp, #12]
 3816 14aa 93F84C30 		ldrb	r3, [r3, #76]	@ zero_extendqisi2
 3817 14ae 012B     		cmp	r3, #1
 3818 14b0 04D0     		beq	.L271
 3819              		.loc 1 2057 0 discriminator 1
 3820 14b2 039B     		ldr	r3, [sp, #12]
 3821 14b4 93F84C30 		ldrb	r3, [r3, #76]	@ zero_extendqisi2
 3822              		.loc 1 2056 0 discriminator 1
 3823 14b8 022B     		cmp	r3, #2
 3824 14ba 2ED1     		bne	.L272
 3825              	.L271:
 3826              		.loc 1 2060 0
 3827 14bc 039B     		ldr	r3, [sp, #12]
 3828 14be DB6A     		ldr	r3, [r3, #44]
 3829 14c0 1A4A     		ldr	r2, .L278
 3830 14c2 DA62     		str	r2, [r3, #44]
 3831              		.loc 1 2061 0
 3832 14c4 039B     		ldr	r3, [sp, #12]
 3833 14c6 DB6A     		ldr	r3, [r3, #44]
 3834 14c8 194A     		ldr	r2, .L278+4
 3835 14ca 5A63     		str	r2, [r3, #52]
 3836              		.loc 1 2062 0
 3837 14cc 039B     		ldr	r3, [sp, #12]
 3838 14ce DA6A     		ldr	r2, [r3, #44]
 3839 14d0 039B     		ldr	r3, [sp, #12]
 3840 14d2 DB6A     		ldr	r3, [r3, #44]
 3841 14d4 DB69     		ldr	r3, [r3, #28]
 3842              		.loc 1 2063 0
 3843 14d6 202B     		cmp	r3, #32
 3844 14d8 01D1     		bne	.L273
 3845              		.loc 1 2063 0 is_stmt 0 discriminator 1
ARM GAS  /tmp/ccjyqKqb.s 			page 69


 3846 14da 164B     		ldr	r3, .L278+8
 3847 14dc 00E0     		b	.L274
 3848              	.L273:
 3849              		.loc 1 2063 0 discriminator 2
 3850 14de 0023     		movs	r3, #0
 3851              	.L274:
 3852              		.loc 1 2062 0 is_stmt 1
 3853 14e0 1363     		str	r3, [r2, #48]
 3854              		.loc 1 2066 0
 3855 14e2 039B     		ldr	r3, [sp, #12]
 3856 14e4 D96A     		ldr	r1, [r3, #44]
 3857 14e6 039B     		ldr	r3, [sp, #12]
 3858 14e8 1B68     		ldr	r3, [r3]
 3859 14ea 1833     		adds	r3, r3, #24
 3860 14ec 9A1C     		adds	r2, r3, #2
 3861 14ee 029B     		ldr	r3, [sp, #8]
 3862 14f0 0846     		mov	r0, r1
 3863 14f2 1146     		mov	r1, r2
 3864 14f4 1A46     		mov	r2, r3
 3865 14f6 019B     		ldr	r3, [sp, #4]
 3866 14f8 FFF7FEFF 		bl	HAL_DMA_Start_IT
 3867 14fc 0346     		mov	r3, r0
 3868 14fe 002B     		cmp	r3, #0
 3869 1500 07D0     		beq	.L275
 3870              		.loc 1 2070 0
 3871 1502 039B     		ldr	r3, [sp, #12]
 3872 1504 FF22     		movs	r2, #255
 3873 1506 83F84C20 		strb	r2, [r3, #76]
 3874              		.loc 1 2071 0
 3875 150a 0123     		movs	r3, #1
 3876 150c 8DF81730 		strb	r3, [sp, #23]
 3877              		.loc 1 2066 0
 3878 1510 06E0     		b	.L267
 3879              	.L275:
 3880              		.loc 1 2076 0
 3881 1512 0398     		ldr	r0, [sp, #12]
 3882 1514 00F06CFD 		bl	DFSDM_InjConvStart
 3883              		.loc 1 2066 0
 3884 1518 02E0     		b	.L267
 3885              	.L272:
 3886              		.loc 1 2081 0
 3887 151a 0123     		movs	r3, #1
 3888 151c 8DF81730 		strb	r3, [sp, #23]
 3889              	.L267:
 3890              		.loc 1 2084 0
 3891 1520 9DF81730 		ldrb	r3, [sp, #23]	@ zero_extendqisi2
 3892              		.loc 1 2085 0
 3893 1524 1846     		mov	r0, r3
 3894 1526 07B0     		add	sp, sp, #28
 3895              		@ sp needed
 3896 1528 5DF804FB 		ldr	pc, [sp], #4
 3897              	.L279:
 3898              		.align	2
 3899              	.L278:
 3900 152c 00000000 		.word	DFSDM_DMAInjectedConvCplt
 3901 1530 00000000 		.word	DFSDM_DMAError
 3902 1534 00000000 		.word	DFSDM_DMAInjectedHalfConvCplt
ARM GAS  /tmp/ccjyqKqb.s 			page 70


 3903              		.cfi_endproc
 3904              	.LFE165:
 3905              		.size	HAL_DFSDM_FilterInjectedMsbStart_DMA, .-HAL_DFSDM_FilterInjectedMsbStart_DMA
 3906              		.align	2
 3907 1538 AFF30080 		.p2align 4,,15
 3907      AFF30080 
 3908              		.global	HAL_DFSDM_FilterInjectedStop_DMA
 3909              		.thumb
 3910              		.thumb_func
 3911              		.type	HAL_DFSDM_FilterInjectedStop_DMA, %function
 3912              	HAL_DFSDM_FilterInjectedStop_DMA:
 3913              	.LFB166:
 3914              		.loc 1 2094 0
 3915              		.cfi_startproc
 3916              		@ args = 0, pretend = 0, frame = 16
 3917              		@ frame_needed = 0, uses_anonymous_args = 0
 3918 1540 00B5     		push	{lr}
 3919              		.cfi_def_cfa_offset 4
 3920              		.cfi_offset 14, -4
 3921 1542 85B0     		sub	sp, sp, #20
 3922              		.cfi_def_cfa_offset 24
 3923 1544 0190     		str	r0, [sp, #4]
 3924              		.loc 1 2095 0
 3925 1546 0023     		movs	r3, #0
 3926 1548 8DF80F30 		strb	r3, [sp, #15]
 3927              		.loc 1 2101 0
 3928 154c 019B     		ldr	r3, [sp, #4]
 3929 154e 93F84C30 		ldrb	r3, [r3, #76]	@ zero_extendqisi2
 3930 1552 032B     		cmp	r3, #3
 3931 1554 08D0     		beq	.L281
 3932              		.loc 1 2102 0 discriminator 1
 3933 1556 019B     		ldr	r3, [sp, #4]
 3934 1558 93F84C30 		ldrb	r3, [r3, #76]	@ zero_extendqisi2
 3935              		.loc 1 2101 0 discriminator 1
 3936 155c 042B     		cmp	r3, #4
 3937 155e 03D0     		beq	.L281
 3938              		.loc 1 2105 0
 3939 1560 0123     		movs	r3, #1
 3940 1562 8DF80F30 		strb	r3, [sp, #15]
 3941 1566 12E0     		b	.L282
 3942              	.L281:
 3943              		.loc 1 2110 0
 3944 1568 019B     		ldr	r3, [sp, #4]
 3945 156a DB6A     		ldr	r3, [r3, #44]
 3946 156c 1846     		mov	r0, r3
 3947 156e FFF7FEFF 		bl	HAL_DMA_Abort
 3948 1572 0346     		mov	r3, r0
 3949 1574 002B     		cmp	r3, #0
 3950 1576 07D0     		beq	.L283
 3951              		.loc 1 2113 0
 3952 1578 019B     		ldr	r3, [sp, #4]
 3953 157a FF22     		movs	r2, #255
 3954 157c 83F84C20 		strb	r2, [r3, #76]
 3955              		.loc 1 2114 0
 3956 1580 0123     		movs	r3, #1
 3957 1582 8DF80F30 		strb	r3, [sp, #15]
 3958 1586 02E0     		b	.L282
ARM GAS  /tmp/ccjyqKqb.s 			page 71


 3959              	.L283:
 3960              		.loc 1 2119 0
 3961 1588 0198     		ldr	r0, [sp, #4]
 3962 158a 00F089FD 		bl	DFSDM_InjConvStop
 3963              	.L282:
 3964              		.loc 1 2123 0
 3965 158e 9DF80F30 		ldrb	r3, [sp, #15]	@ zero_extendqisi2
 3966              		.loc 1 2124 0
 3967 1592 1846     		mov	r0, r3
 3968 1594 05B0     		add	sp, sp, #20
 3969              		@ sp needed
 3970 1596 5DF804FB 		ldr	pc, [sp], #4
 3971              		.cfi_endproc
 3972              	.LFE166:
 3973              		.size	HAL_DFSDM_FilterInjectedStop_DMA, .-HAL_DFSDM_FilterInjectedStop_DMA
 3974 159a 00BF     		.align	2
 3975 159c AFF30080 		.p2align 4,,15
 3976              		.global	HAL_DFSDM_FilterGetInjectedValue
 3977              		.thumb
 3978              		.thumb_func
 3979              		.type	HAL_DFSDM_FilterGetInjectedValue, %function
 3980              	HAL_DFSDM_FilterGetInjectedValue:
 3981              	.LFB167:
 3982              		.loc 1 2134 0
 3983              		.cfi_startproc
 3984              		@ args = 0, pretend = 0, frame = 24
 3985              		@ frame_needed = 0, uses_anonymous_args = 0
 3986              		@ link register save eliminated.
 3987 15a0 86B0     		sub	sp, sp, #24
 3988              		.cfi_def_cfa_offset 24
 3989 15a2 0190     		str	r0, [sp, #4]
 3990 15a4 0091     		str	r1, [sp]
 3991              		.loc 1 2135 0
 3992 15a6 0023     		movs	r3, #0
 3993 15a8 0593     		str	r3, [sp, #20]
 3994              		.loc 1 2136 0
 3995 15aa 0023     		movs	r3, #0
 3996 15ac 0493     		str	r3, [sp, #16]
 3997              		.loc 1 2143 0
 3998 15ae 019B     		ldr	r3, [sp, #4]
 3999 15b0 1B68     		ldr	r3, [r3]
 4000 15b2 9B69     		ldr	r3, [r3, #24]
 4001 15b4 0593     		str	r3, [sp, #20]
 4002              		.loc 1 2146 0
 4003 15b6 059B     		ldr	r3, [sp, #20]
 4004 15b8 03F00702 		and	r2, r3, #7
 4005 15bc 009B     		ldr	r3, [sp]
 4006 15be 1A60     		str	r2, [r3]
 4007              		.loc 1 2147 0
 4008 15c0 059B     		ldr	r3, [sp, #20]
 4009 15c2 23F0FF02 		bic	r2, r3, #255
 4010 15c6 6FF0FF03 		mvn	r3, #255
 4011 15ca 0393     		str	r3, [sp, #12]
 4012              	.LBB117:
 4013              	.LBB118:
 4014              		.loc 2 586 0
 4015 15cc 039B     		ldr	r3, [sp, #12]
ARM GAS  /tmp/ccjyqKqb.s 			page 72


 4016              	@ 586 "../../../../../../ChibiOS/os/ext/CMSIS/include/core_cmInstr.h" 1
 4017 15ce 93FAA3F3 		rbit r3, r3
 4018              	@ 0 "" 2
 4019              		.thumb
 4020 15d2 0293     		str	r3, [sp, #8]
 4021              		.loc 2 599 0
 4022 15d4 029B     		ldr	r3, [sp, #8]
 4023              	.LBE118:
 4024              	.LBE117:
 4025              		.loc 1 2147 0
 4026 15d6 B3FA83F3 		clz	r3, r3
 4027 15da 22FA03F3 		lsr	r3, r2, r3
 4028 15de 0493     		str	r3, [sp, #16]
 4029              		.loc 1 2150 0
 4030 15e0 049B     		ldr	r3, [sp, #16]
 4031              		.loc 1 2151 0
 4032 15e2 1846     		mov	r0, r3
 4033 15e4 06B0     		add	sp, sp, #24
 4034              		@ sp needed
 4035 15e6 7047     		bx	lr
 4036              		.cfi_endproc
 4037              	.LFE167:
 4038              		.size	HAL_DFSDM_FilterGetInjectedValue, .-HAL_DFSDM_FilterGetInjectedValue
 4039              		.align	2
 4040 15e8 AFF30080 		.p2align 4,,15
 4040      AFF30080 
 4041              		.global	HAL_DFSDM_FilterAwdStart_IT
 4042              		.thumb
 4043              		.thumb_func
 4044              		.type	HAL_DFSDM_FilterAwdStart_IT, %function
 4045              	HAL_DFSDM_FilterAwdStart_IT:
 4046              	.LFB168:
 4047              		.loc 1 2161 0
 4048              		.cfi_startproc
 4049              		@ args = 0, pretend = 0, frame = 40
 4050              		@ frame_needed = 0, uses_anonymous_args = 0
 4051              		@ link register save eliminated.
 4052 15f0 8AB0     		sub	sp, sp, #40
 4053              		.cfi_def_cfa_offset 40
 4054 15f2 0190     		str	r0, [sp, #4]
 4055 15f4 0091     		str	r1, [sp]
 4056              		.loc 1 2162 0
 4057 15f6 0023     		movs	r3, #0
 4058 15f8 8DF82730 		strb	r3, [sp, #39]
 4059              		.loc 1 2174 0
 4060 15fc 019B     		ldr	r3, [sp, #4]
 4061 15fe 93F84C30 		ldrb	r3, [r3, #76]	@ zero_extendqisi2
 4062 1602 002B     		cmp	r3, #0
 4063 1604 04D0     		beq	.L289
 4064              		.loc 1 2175 0 discriminator 1
 4065 1606 019B     		ldr	r3, [sp, #4]
 4066 1608 93F84C30 		ldrb	r3, [r3, #76]	@ zero_extendqisi2
 4067              		.loc 1 2174 0 discriminator 1
 4068 160c FF2B     		cmp	r3, #255
 4069 160e 03D1     		bne	.L290
 4070              	.L289:
 4071              		.loc 1 2178 0
ARM GAS  /tmp/ccjyqKqb.s 			page 73


 4072 1610 0123     		movs	r3, #1
 4073 1612 8DF82730 		strb	r3, [sp, #39]
 4074 1616 70E0     		b	.L291
 4075              	.L290:
 4076              		.loc 1 2183 0
 4077 1618 019B     		ldr	r3, [sp, #4]
 4078 161a 1B68     		ldr	r3, [r3]
 4079 161c 019A     		ldr	r2, [sp, #4]
 4080 161e 1268     		ldr	r2, [r2]
 4081 1620 1268     		ldr	r2, [r2]
 4082 1622 22F08042 		bic	r2, r2, #1073741824
 4083 1626 1A60     		str	r2, [r3]
 4084              		.loc 1 2184 0
 4085 1628 019B     		ldr	r3, [sp, #4]
 4086 162a 1B68     		ldr	r3, [r3]
 4087 162c 019A     		ldr	r2, [sp, #4]
 4088 162e 1268     		ldr	r2, [r2]
 4089 1630 1168     		ldr	r1, [r2]
 4090 1632 009A     		ldr	r2, [sp]
 4091 1634 1268     		ldr	r2, [r2]
 4092 1636 0A43     		orrs	r2, r2, r1
 4093 1638 1A60     		str	r2, [r3]
 4094              		.loc 1 2187 0
 4095 163a 019B     		ldr	r3, [sp, #4]
 4096 163c 1B68     		ldr	r3, [r3]
 4097 163e 019A     		ldr	r2, [sp, #4]
 4098 1640 1268     		ldr	r2, [r2]
 4099 1642 126A     		ldr	r2, [r2, #32]
 4100 1644 02F0F002 		and	r2, r2, #240
 4101 1648 1A62     		str	r2, [r3, #32]
 4102              		.loc 1 2188 0
 4103 164a 019B     		ldr	r3, [sp, #4]
 4104 164c 1B68     		ldr	r3, [r3]
 4105 164e 019A     		ldr	r2, [sp, #4]
 4106 1650 1268     		ldr	r2, [r2]
 4107 1652 116A     		ldr	r1, [r2, #32]
 4108 1654 009A     		ldr	r2, [sp]
 4109 1656 9268     		ldr	r2, [r2, #8]
 4110 1658 1046     		mov	r0, r2
 4111 165a 6FF0FF02 		mvn	r2, #255
 4112 165e 0892     		str	r2, [sp, #32]
 4113              	.LBB119:
 4114              	.LBB120:
 4115              		.loc 2 586 0
 4116 1660 089A     		ldr	r2, [sp, #32]
 4117              	@ 586 "../../../../../../ChibiOS/os/ext/CMSIS/include/core_cmInstr.h" 1
 4118 1662 92FAA2F2 		rbit r2, r2
 4119              	@ 0 "" 2
 4120              		.thumb
 4121 1666 0792     		str	r2, [sp, #28]
 4122              		.loc 2 599 0
 4123 1668 079A     		ldr	r2, [sp, #28]
 4124              	.LBE120:
 4125              	.LBE119:
 4126              		.loc 1 2188 0
 4127 166a B2FA82F2 		clz	r2, r2
 4128 166e 9040     		lsls	r0, r0, r2
ARM GAS  /tmp/ccjyqKqb.s 			page 74


 4129              		.loc 1 2189 0
 4130 1670 009A     		ldr	r2, [sp]
 4131 1672 1269     		ldr	r2, [r2, #16]
 4132              		.loc 1 2188 0
 4133 1674 0243     		orrs	r2, r2, r0
 4134 1676 0A43     		orrs	r2, r2, r1
 4135 1678 1A62     		str	r2, [r3, #32]
 4136              		.loc 1 2190 0
 4137 167a 019B     		ldr	r3, [sp, #4]
 4138 167c 1B68     		ldr	r3, [r3]
 4139 167e 019A     		ldr	r2, [sp, #4]
 4140 1680 1268     		ldr	r2, [r2]
 4141 1682 526A     		ldr	r2, [r2, #36]
 4142 1684 02F0F002 		and	r2, r2, #240
 4143 1688 5A62     		str	r2, [r3, #36]
 4144              		.loc 1 2191 0
 4145 168a 019B     		ldr	r3, [sp, #4]
 4146 168c 1B68     		ldr	r3, [r3]
 4147 168e 019A     		ldr	r2, [sp, #4]
 4148 1690 1268     		ldr	r2, [r2]
 4149 1692 516A     		ldr	r1, [r2, #36]
 4150 1694 009A     		ldr	r2, [sp]
 4151 1696 D268     		ldr	r2, [r2, #12]
 4152 1698 1046     		mov	r0, r2
 4153 169a 6FF0FF02 		mvn	r2, #255
 4154 169e 0692     		str	r2, [sp, #24]
 4155              	.LBB121:
 4156              	.LBB122:
 4157              		.loc 2 586 0
 4158 16a0 069A     		ldr	r2, [sp, #24]
 4159              	@ 586 "../../../../../../ChibiOS/os/ext/CMSIS/include/core_cmInstr.h" 1
 4160 16a2 92FAA2F2 		rbit r2, r2
 4161              	@ 0 "" 2
 4162              		.thumb
 4163 16a6 0592     		str	r2, [sp, #20]
 4164              		.loc 2 599 0
 4165 16a8 059A     		ldr	r2, [sp, #20]
 4166              	.LBE122:
 4167              	.LBE121:
 4168              		.loc 1 2191 0
 4169 16aa B2FA82F2 		clz	r2, r2
 4170 16ae 9040     		lsls	r0, r0, r2
 4171              		.loc 1 2192 0
 4172 16b0 009A     		ldr	r2, [sp]
 4173 16b2 5269     		ldr	r2, [r2, #20]
 4174              		.loc 1 2191 0
 4175 16b4 0243     		orrs	r2, r2, r0
 4176 16b6 0A43     		orrs	r2, r2, r1
 4177 16b8 5A62     		str	r2, [r3, #36]
 4178              		.loc 1 2195 0
 4179 16ba 019B     		ldr	r3, [sp, #4]
 4180 16bc 1B68     		ldr	r3, [r3]
 4181 16be 019A     		ldr	r2, [sp, #4]
 4182 16c0 1268     		ldr	r2, [r2]
 4183 16c2 5268     		ldr	r2, [r2, #4]
 4184 16c4 22F47F02 		bic	r2, r2, #16711680
 4185 16c8 5A60     		str	r2, [r3, #4]
ARM GAS  /tmp/ccjyqKqb.s 			page 75


 4186              		.loc 1 2196 0
 4187 16ca 019B     		ldr	r3, [sp, #4]
 4188 16cc 1B68     		ldr	r3, [r3]
 4189 16ce 019A     		ldr	r2, [sp, #4]
 4190 16d0 1268     		ldr	r2, [r2]
 4191 16d2 5168     		ldr	r1, [r2, #4]
 4192 16d4 009A     		ldr	r2, [sp]
 4193 16d6 5268     		ldr	r2, [r2, #4]
 4194 16d8 90B2     		uxth	r0, r2
 4195 16da 4FF47F02 		mov	r2, #16711680
 4196 16de 0492     		str	r2, [sp, #16]
 4197              	.LBB123:
 4198              	.LBB124:
 4199              		.loc 2 586 0
 4200 16e0 049A     		ldr	r2, [sp, #16]
 4201              	@ 586 "../../../../../../ChibiOS/os/ext/CMSIS/include/core_cmInstr.h" 1
 4202 16e2 92FAA2F2 		rbit r2, r2
 4203              	@ 0 "" 2
 4204              		.thumb
 4205 16e6 0392     		str	r2, [sp, #12]
 4206              		.loc 2 599 0
 4207 16e8 039A     		ldr	r2, [sp, #12]
 4208              	.LBE124:
 4209              	.LBE123:
 4210              		.loc 1 2196 0
 4211 16ea B2FA82F2 		clz	r2, r2
 4212 16ee 00FA02F2 		lsl	r2, r0, r2
 4213 16f2 0A43     		orrs	r2, r2, r1
 4214 16f4 42F01002 		orr	r2, r2, #16
 4215 16f8 5A60     		str	r2, [r3, #4]
 4216              	.L291:
 4217              		.loc 1 2200 0
 4218 16fa 9DF82730 		ldrb	r3, [sp, #39]	@ zero_extendqisi2
 4219              		.loc 1 2201 0
 4220 16fe 1846     		mov	r0, r3
 4221 1700 0AB0     		add	sp, sp, #40
 4222              		@ sp needed
 4223 1702 7047     		bx	lr
 4224              		.cfi_endproc
 4225              	.LFE168:
 4226              		.size	HAL_DFSDM_FilterAwdStart_IT, .-HAL_DFSDM_FilterAwdStart_IT
 4227              		.align	2
 4228 1704 AFF30080 		.p2align 4,,15
 4228      AFF30080 
 4228      AFF30080 
 4229              		.global	HAL_DFSDM_FilterAwdStop_IT
 4230              		.thumb
 4231              		.thumb_func
 4232              		.type	HAL_DFSDM_FilterAwdStop_IT, %function
 4233              	HAL_DFSDM_FilterAwdStop_IT:
 4234              	.LFB169:
 4235              		.loc 1 2209 0
 4236              		.cfi_startproc
 4237              		@ args = 0, pretend = 0, frame = 16
 4238              		@ frame_needed = 0, uses_anonymous_args = 0
 4239              		@ link register save eliminated.
 4240 1710 84B0     		sub	sp, sp, #16
ARM GAS  /tmp/ccjyqKqb.s 			page 76


 4241              		.cfi_def_cfa_offset 16
 4242 1712 0190     		str	r0, [sp, #4]
 4243              		.loc 1 2210 0
 4244 1714 0023     		movs	r3, #0
 4245 1716 8DF80F30 		strb	r3, [sp, #15]
 4246              		.loc 1 2216 0
 4247 171a 019B     		ldr	r3, [sp, #4]
 4248 171c 93F84C30 		ldrb	r3, [r3, #76]	@ zero_extendqisi2
 4249 1720 002B     		cmp	r3, #0
 4250 1722 04D0     		beq	.L297
 4251              		.loc 1 2217 0 discriminator 1
 4252 1724 019B     		ldr	r3, [sp, #4]
 4253 1726 93F84C30 		ldrb	r3, [r3, #76]	@ zero_extendqisi2
 4254              		.loc 1 2216 0 discriminator 1
 4255 172a FF2B     		cmp	r3, #255
 4256 172c 03D1     		bne	.L298
 4257              	.L297:
 4258              		.loc 1 2220 0
 4259 172e 0123     		movs	r3, #1
 4260 1730 8DF80F30 		strb	r3, [sp, #15]
 4261 1734 26E0     		b	.L299
 4262              	.L298:
 4263              		.loc 1 2225 0
 4264 1736 019B     		ldr	r3, [sp, #4]
 4265 1738 1A68     		ldr	r2, [r3]
 4266 173a 019B     		ldr	r3, [sp, #4]
 4267 173c 1B68     		ldr	r3, [r3]
 4268 173e 5B68     		ldr	r3, [r3, #4]
 4269 1740 23F47F03 		bic	r3, r3, #16711680
 4270 1744 23F01003 		bic	r3, r3, #16
 4271 1748 5360     		str	r3, [r2, #4]
 4272              		.loc 1 2228 0
 4273 174a 019B     		ldr	r3, [sp, #4]
 4274 174c 1B68     		ldr	r3, [r3]
 4275 174e 4FF6FF72 		movw	r2, #65535
 4276 1752 DA62     		str	r2, [r3, #44]
 4277              		.loc 1 2231 0
 4278 1754 019B     		ldr	r3, [sp, #4]
 4279 1756 1B68     		ldr	r3, [r3]
 4280 1758 019A     		ldr	r2, [sp, #4]
 4281 175a 1268     		ldr	r2, [r2]
 4282 175c 126A     		ldr	r2, [r2, #32]
 4283 175e 02F0F002 		and	r2, r2, #240
 4284 1762 1A62     		str	r2, [r3, #32]
 4285              		.loc 1 2232 0
 4286 1764 019B     		ldr	r3, [sp, #4]
 4287 1766 1B68     		ldr	r3, [r3]
 4288 1768 019A     		ldr	r2, [sp, #4]
 4289 176a 1268     		ldr	r2, [r2]
 4290 176c 526A     		ldr	r2, [r2, #36]
 4291 176e 02F0F002 		and	r2, r2, #240
 4292 1772 5A62     		str	r2, [r3, #36]
 4293              		.loc 1 2235 0
 4294 1774 019B     		ldr	r3, [sp, #4]
 4295 1776 1B68     		ldr	r3, [r3]
 4296 1778 019A     		ldr	r2, [sp, #4]
 4297 177a 1268     		ldr	r2, [r2]
ARM GAS  /tmp/ccjyqKqb.s 			page 77


 4298 177c 1268     		ldr	r2, [r2]
 4299 177e 22F08042 		bic	r2, r2, #1073741824
 4300 1782 1A60     		str	r2, [r3]
 4301              	.L299:
 4302              		.loc 1 2238 0
 4303 1784 9DF80F30 		ldrb	r3, [sp, #15]	@ zero_extendqisi2
 4304              		.loc 1 2239 0
 4305 1788 1846     		mov	r0, r3
 4306 178a 04B0     		add	sp, sp, #16
 4307              		@ sp needed
 4308 178c 7047     		bx	lr
 4309              		.cfi_endproc
 4310              	.LFE169:
 4311              		.size	HAL_DFSDM_FilterAwdStop_IT, .-HAL_DFSDM_FilterAwdStop_IT
 4312 178e 00BF     		.align	2
 4313              		.p2align 4,,15
 4314              		.global	HAL_DFSDM_FilterExdStart
 4315              		.thumb
 4316              		.thumb_func
 4317              		.type	HAL_DFSDM_FilterExdStart, %function
 4318              	HAL_DFSDM_FilterExdStart:
 4319              	.LFB170:
 4320              		.loc 1 2250 0
 4321              		.cfi_startproc
 4322              		@ args = 0, pretend = 0, frame = 24
 4323              		@ frame_needed = 0, uses_anonymous_args = 0
 4324              		@ link register save eliminated.
 4325 1790 86B0     		sub	sp, sp, #24
 4326              		.cfi_def_cfa_offset 24
 4327 1792 0190     		str	r0, [sp, #4]
 4328 1794 0091     		str	r1, [sp]
 4329              		.loc 1 2251 0
 4330 1796 0023     		movs	r3, #0
 4331 1798 8DF81730 		strb	r3, [sp, #23]
 4332              		.loc 1 2258 0
 4333 179c 019B     		ldr	r3, [sp, #4]
 4334 179e 93F84C30 		ldrb	r3, [r3, #76]	@ zero_extendqisi2
 4335 17a2 002B     		cmp	r3, #0
 4336 17a4 04D0     		beq	.L302
 4337              		.loc 1 2259 0 discriminator 1
 4338 17a6 019B     		ldr	r3, [sp, #4]
 4339 17a8 93F84C30 		ldrb	r3, [r3, #76]	@ zero_extendqisi2
 4340              		.loc 1 2258 0 discriminator 1
 4341 17ac FF2B     		cmp	r3, #255
 4342 17ae 03D1     		bne	.L303
 4343              	.L302:
 4344              		.loc 1 2262 0
 4345 17b0 0123     		movs	r3, #1
 4346 17b2 8DF81730 		strb	r3, [sp, #23]
 4347 17b6 1CE0     		b	.L304
 4348              	.L303:
 4349              		.loc 1 2267 0
 4350 17b8 019B     		ldr	r3, [sp, #4]
 4351 17ba 1B68     		ldr	r3, [r3]
 4352 17bc 019A     		ldr	r2, [sp, #4]
 4353 17be 1268     		ldr	r2, [r2]
 4354 17c0 5268     		ldr	r2, [r2, #4]
ARM GAS  /tmp/ccjyqKqb.s 			page 78


 4355 17c2 22F47F42 		bic	r2, r2, #65280
 4356 17c6 5A60     		str	r2, [r3, #4]
 4357              		.loc 1 2268 0
 4358 17c8 019B     		ldr	r3, [sp, #4]
 4359 17ca 1B68     		ldr	r3, [r3]
 4360 17cc 019A     		ldr	r2, [sp, #4]
 4361 17ce 1268     		ldr	r2, [r2]
 4362 17d0 5168     		ldr	r1, [r2, #4]
 4363 17d2 009A     		ldr	r2, [sp]
 4364 17d4 90B2     		uxth	r0, r2
 4365 17d6 4FF47F42 		mov	r2, #65280
 4366 17da 0492     		str	r2, [sp, #16]
 4367              	.LBB125:
 4368              	.LBB126:
 4369              		.loc 2 586 0
 4370 17dc 049A     		ldr	r2, [sp, #16]
 4371              	@ 586 "../../../../../../ChibiOS/os/ext/CMSIS/include/core_cmInstr.h" 1
 4372 17de 92FAA2F2 		rbit r2, r2
 4373              	@ 0 "" 2
 4374              		.thumb
 4375 17e2 0392     		str	r2, [sp, #12]
 4376              		.loc 2 599 0
 4377 17e4 039A     		ldr	r2, [sp, #12]
 4378              	.LBE126:
 4379              	.LBE125:
 4380              		.loc 1 2268 0
 4381 17e6 B2FA82F2 		clz	r2, r2
 4382 17ea 00FA02F2 		lsl	r2, r0, r2
 4383 17ee 0A43     		orrs	r2, r2, r1
 4384 17f0 5A60     		str	r2, [r3, #4]
 4385              	.L304:
 4386              		.loc 1 2271 0
 4387 17f2 9DF81730 		ldrb	r3, [sp, #23]	@ zero_extendqisi2
 4388              		.loc 1 2272 0
 4389 17f6 1846     		mov	r0, r3
 4390 17f8 06B0     		add	sp, sp, #24
 4391              		@ sp needed
 4392 17fa 7047     		bx	lr
 4393              		.cfi_endproc
 4394              	.LFE170:
 4395              		.size	HAL_DFSDM_FilterExdStart, .-HAL_DFSDM_FilterExdStart
 4396              		.align	2
 4397 17fc AFF30080 		.p2align 4,,15
 4398              		.global	HAL_DFSDM_FilterExdStop
 4399              		.thumb
 4400              		.thumb_func
 4401              		.type	HAL_DFSDM_FilterExdStop, %function
 4402              	HAL_DFSDM_FilterExdStop:
 4403              	.LFB171:
 4404              		.loc 1 2280 0
 4405              		.cfi_startproc
 4406              		@ args = 0, pretend = 0, frame = 24
 4407              		@ frame_needed = 0, uses_anonymous_args = 0
 4408              		@ link register save eliminated.
 4409 1800 86B0     		sub	sp, sp, #24
 4410              		.cfi_def_cfa_offset 24
 4411 1802 0190     		str	r0, [sp, #4]
ARM GAS  /tmp/ccjyqKqb.s 			page 79


 4412              		.loc 1 2281 0
 4413 1804 0023     		movs	r3, #0
 4414 1806 8DF81730 		strb	r3, [sp, #23]
 4415              		.loc 1 2289 0
 4416 180a 019B     		ldr	r3, [sp, #4]
 4417 180c 93F84C30 		ldrb	r3, [r3, #76]	@ zero_extendqisi2
 4418 1810 002B     		cmp	r3, #0
 4419 1812 04D0     		beq	.L308
 4420              		.loc 1 2290 0 discriminator 1
 4421 1814 019B     		ldr	r3, [sp, #4]
 4422 1816 93F84C30 		ldrb	r3, [r3, #76]	@ zero_extendqisi2
 4423              		.loc 1 2289 0 discriminator 1
 4424 181a FF2B     		cmp	r3, #255
 4425 181c 03D1     		bne	.L309
 4426              	.L308:
 4427              		.loc 1 2293 0
 4428 181e 0123     		movs	r3, #1
 4429 1820 8DF81730 		strb	r3, [sp, #23]
 4430 1824 11E0     		b	.L310
 4431              	.L309:
 4432              		.loc 1 2298 0
 4433 1826 019B     		ldr	r3, [sp, #4]
 4434 1828 1B68     		ldr	r3, [r3]
 4435 182a 019A     		ldr	r2, [sp, #4]
 4436 182c 1268     		ldr	r2, [r2]
 4437 182e 5268     		ldr	r2, [r2, #4]
 4438 1830 22F47F42 		bic	r2, r2, #65280
 4439 1834 5A60     		str	r2, [r3, #4]
 4440              		.loc 1 2301 0
 4441 1836 019B     		ldr	r3, [sp, #4]
 4442 1838 1B68     		ldr	r3, [r3]
 4443 183a 1B6B     		ldr	r3, [r3, #48]
 4444 183c 0493     		str	r3, [sp, #16]
 4445              		.loc 1 2302 0
 4446 183e 019B     		ldr	r3, [sp, #4]
 4447 1840 1B68     		ldr	r3, [r3]
 4448 1842 5B6B     		ldr	r3, [r3, #52]
 4449 1844 0393     		str	r3, [sp, #12]
 4450              		.loc 1 2303 0
 4451 1846 049B     		ldr	r3, [sp, #16]
 4452              		.loc 1 2304 0
 4453 1848 039B     		ldr	r3, [sp, #12]
 4454              	.L310:
 4455              		.loc 1 2307 0
 4456 184a 9DF81730 		ldrb	r3, [sp, #23]	@ zero_extendqisi2
 4457              		.loc 1 2308 0
 4458 184e 1846     		mov	r0, r3
 4459 1850 06B0     		add	sp, sp, #24
 4460              		@ sp needed
 4461 1852 7047     		bx	lr
 4462              		.cfi_endproc
 4463              	.LFE171:
 4464              		.size	HAL_DFSDM_FilterExdStop, .-HAL_DFSDM_FilterExdStop
 4465              		.align	2
 4466 1854 AFF30080 		.p2align 4,,15
 4466      AFF30080 
 4466      AFF30080 
ARM GAS  /tmp/ccjyqKqb.s 			page 80


 4467              		.global	HAL_DFSDM_FilterGetExdMaxValue
 4468              		.thumb
 4469              		.thumb_func
 4470              		.type	HAL_DFSDM_FilterGetExdMaxValue, %function
 4471              	HAL_DFSDM_FilterGetExdMaxValue:
 4472              	.LFB172:
 4473              		.loc 1 2319 0
 4474              		.cfi_startproc
 4475              		@ args = 0, pretend = 0, frame = 24
 4476              		@ frame_needed = 0, uses_anonymous_args = 0
 4477              		@ link register save eliminated.
 4478 1860 86B0     		sub	sp, sp, #24
 4479              		.cfi_def_cfa_offset 24
 4480 1862 0190     		str	r0, [sp, #4]
 4481 1864 0091     		str	r1, [sp]
 4482              		.loc 1 2320 0
 4483 1866 0023     		movs	r3, #0
 4484 1868 0593     		str	r3, [sp, #20]
 4485              		.loc 1 2321 0
 4486 186a 0023     		movs	r3, #0
 4487 186c 0493     		str	r3, [sp, #16]
 4488              		.loc 1 2328 0
 4489 186e 019B     		ldr	r3, [sp, #4]
 4490 1870 1B68     		ldr	r3, [r3]
 4491 1872 1B6B     		ldr	r3, [r3, #48]
 4492 1874 0593     		str	r3, [sp, #20]
 4493              		.loc 1 2331 0
 4494 1876 059B     		ldr	r3, [sp, #20]
 4495 1878 03F00702 		and	r2, r3, #7
 4496 187c 009B     		ldr	r3, [sp]
 4497 187e 1A60     		str	r2, [r3]
 4498              		.loc 1 2332 0
 4499 1880 059B     		ldr	r3, [sp, #20]
 4500 1882 23F0FF02 		bic	r2, r3, #255
 4501 1886 6FF0FF03 		mvn	r3, #255
 4502 188a 0393     		str	r3, [sp, #12]
 4503              	.LBB127:
 4504              	.LBB128:
 4505              		.loc 2 586 0
 4506 188c 039B     		ldr	r3, [sp, #12]
 4507              	@ 586 "../../../../../../ChibiOS/os/ext/CMSIS/include/core_cmInstr.h" 1
 4508 188e 93FAA3F3 		rbit r3, r3
 4509              	@ 0 "" 2
 4510              		.thumb
 4511 1892 0293     		str	r3, [sp, #8]
 4512              		.loc 2 599 0
 4513 1894 029B     		ldr	r3, [sp, #8]
 4514              	.LBE128:
 4515              	.LBE127:
 4516              		.loc 1 2332 0
 4517 1896 B3FA83F3 		clz	r3, r3
 4518 189a 22FA03F3 		lsr	r3, r2, r3
 4519 189e 0493     		str	r3, [sp, #16]
 4520              		.loc 1 2335 0
 4521 18a0 049B     		ldr	r3, [sp, #16]
 4522              		.loc 1 2336 0
 4523 18a2 1846     		mov	r0, r3
ARM GAS  /tmp/ccjyqKqb.s 			page 81


 4524 18a4 06B0     		add	sp, sp, #24
 4525              		@ sp needed
 4526 18a6 7047     		bx	lr
 4527              		.cfi_endproc
 4528              	.LFE172:
 4529              		.size	HAL_DFSDM_FilterGetExdMaxValue, .-HAL_DFSDM_FilterGetExdMaxValue
 4530              		.align	2
 4531 18a8 AFF30080 		.p2align 4,,15
 4531      AFF30080 
 4532              		.global	HAL_DFSDM_FilterGetExdMinValue
 4533              		.thumb
 4534              		.thumb_func
 4535              		.type	HAL_DFSDM_FilterGetExdMinValue, %function
 4536              	HAL_DFSDM_FilterGetExdMinValue:
 4537              	.LFB173:
 4538              		.loc 1 2347 0
 4539              		.cfi_startproc
 4540              		@ args = 0, pretend = 0, frame = 24
 4541              		@ frame_needed = 0, uses_anonymous_args = 0
 4542              		@ link register save eliminated.
 4543 18b0 86B0     		sub	sp, sp, #24
 4544              		.cfi_def_cfa_offset 24
 4545 18b2 0190     		str	r0, [sp, #4]
 4546 18b4 0091     		str	r1, [sp]
 4547              		.loc 1 2348 0
 4548 18b6 0023     		movs	r3, #0
 4549 18b8 0593     		str	r3, [sp, #20]
 4550              		.loc 1 2349 0
 4551 18ba 0023     		movs	r3, #0
 4552 18bc 0493     		str	r3, [sp, #16]
 4553              		.loc 1 2356 0
 4554 18be 019B     		ldr	r3, [sp, #4]
 4555 18c0 1B68     		ldr	r3, [r3]
 4556 18c2 5B6B     		ldr	r3, [r3, #52]
 4557 18c4 0593     		str	r3, [sp, #20]
 4558              		.loc 1 2359 0
 4559 18c6 059B     		ldr	r3, [sp, #20]
 4560 18c8 03F00702 		and	r2, r3, #7
 4561 18cc 009B     		ldr	r3, [sp]
 4562 18ce 1A60     		str	r2, [r3]
 4563              		.loc 1 2360 0
 4564 18d0 059B     		ldr	r3, [sp, #20]
 4565 18d2 23F0FF02 		bic	r2, r3, #255
 4566 18d6 6FF0FF03 		mvn	r3, #255
 4567 18da 0393     		str	r3, [sp, #12]
 4568              	.LBB129:
 4569              	.LBB130:
 4570              		.loc 2 586 0
 4571 18dc 039B     		ldr	r3, [sp, #12]
 4572              	@ 586 "../../../../../../ChibiOS/os/ext/CMSIS/include/core_cmInstr.h" 1
 4573 18de 93FAA3F3 		rbit r3, r3
 4574              	@ 0 "" 2
 4575              		.thumb
 4576 18e2 0293     		str	r3, [sp, #8]
 4577              		.loc 2 599 0
 4578 18e4 029B     		ldr	r3, [sp, #8]
 4579              	.LBE130:
ARM GAS  /tmp/ccjyqKqb.s 			page 82


 4580              	.LBE129:
 4581              		.loc 1 2360 0
 4582 18e6 B3FA83F3 		clz	r3, r3
 4583 18ea 22FA03F3 		lsr	r3, r2, r3
 4584 18ee 0493     		str	r3, [sp, #16]
 4585              		.loc 1 2363 0
 4586 18f0 049B     		ldr	r3, [sp, #16]
 4587              		.loc 1 2364 0
 4588 18f2 1846     		mov	r0, r3
 4589 18f4 06B0     		add	sp, sp, #24
 4590              		@ sp needed
 4591 18f6 7047     		bx	lr
 4592              		.cfi_endproc
 4593              	.LFE173:
 4594              		.size	HAL_DFSDM_FilterGetExdMinValue, .-HAL_DFSDM_FilterGetExdMinValue
 4595              		.align	2
 4596 18f8 AFF30080 		.p2align 4,,15
 4596      AFF30080 
 4597              		.global	HAL_DFSDM_FilterGetConvTimeValue
 4598              		.thumb
 4599              		.thumb_func
 4600              		.type	HAL_DFSDM_FilterGetConvTimeValue, %function
 4601              	HAL_DFSDM_FilterGetConvTimeValue:
 4602              	.LFB174:
 4603              		.loc 1 2373 0
 4604              		.cfi_startproc
 4605              		@ args = 0, pretend = 0, frame = 24
 4606              		@ frame_needed = 0, uses_anonymous_args = 0
 4607              		@ link register save eliminated.
 4608 1900 86B0     		sub	sp, sp, #24
 4609              		.cfi_def_cfa_offset 24
 4610 1902 0190     		str	r0, [sp, #4]
 4611              		.loc 1 2374 0
 4612 1904 0023     		movs	r3, #0
 4613 1906 0593     		str	r3, [sp, #20]
 4614              		.loc 1 2375 0
 4615 1908 0023     		movs	r3, #0
 4616 190a 0493     		str	r3, [sp, #16]
 4617              		.loc 1 2381 0
 4618 190c 019B     		ldr	r3, [sp, #4]
 4619 190e 1B68     		ldr	r3, [r3]
 4620 1910 9B6B     		ldr	r3, [r3, #56]
 4621 1912 0593     		str	r3, [sp, #20]
 4622              		.loc 1 2384 0
 4623 1914 059B     		ldr	r3, [sp, #20]
 4624 1916 23F00F02 		bic	r2, r3, #15
 4625 191a 6FF00F03 		mvn	r3, #15
 4626 191e 0393     		str	r3, [sp, #12]
 4627              	.LBB131:
 4628              	.LBB132:
 4629              		.loc 2 586 0
 4630 1920 039B     		ldr	r3, [sp, #12]
 4631              	@ 586 "../../../../../../ChibiOS/os/ext/CMSIS/include/core_cmInstr.h" 1
 4632 1922 93FAA3F3 		rbit r3, r3
 4633              	@ 0 "" 2
 4634              		.thumb
 4635 1926 0293     		str	r3, [sp, #8]
ARM GAS  /tmp/ccjyqKqb.s 			page 83


 4636              		.loc 2 599 0
 4637 1928 029B     		ldr	r3, [sp, #8]
 4638              	.LBE132:
 4639              	.LBE131:
 4640              		.loc 1 2384 0
 4641 192a B3FA83F3 		clz	r3, r3
 4642 192e 22FA03F3 		lsr	r3, r2, r3
 4643 1932 0493     		str	r3, [sp, #16]
 4644              		.loc 1 2387 0
 4645 1934 049B     		ldr	r3, [sp, #16]
 4646              		.loc 1 2388 0
 4647 1936 1846     		mov	r0, r3
 4648 1938 06B0     		add	sp, sp, #24
 4649              		@ sp needed
 4650 193a 7047     		bx	lr
 4651              		.cfi_endproc
 4652              	.LFE174:
 4653              		.size	HAL_DFSDM_FilterGetConvTimeValue, .-HAL_DFSDM_FilterGetConvTimeValue
 4654              		.align	2
 4655 193c AFF30080 		.p2align 4,,15
 4656              		.global	HAL_DFSDM_IRQHandler
 4657              		.thumb
 4658              		.thumb_func
 4659              		.type	HAL_DFSDM_IRQHandler, %function
 4660              	HAL_DFSDM_IRQHandler:
 4661              	.LFB175:
 4662              		.loc 1 2396 0
 4663              		.cfi_startproc
 4664              		@ args = 0, pretend = 0, frame = 88
 4665              		@ frame_needed = 0, uses_anonymous_args = 0
 4666 1940 00B5     		push	{lr}
 4667              		.cfi_def_cfa_offset 4
 4668              		.cfi_offset 14, -4
 4669 1942 97B0     		sub	sp, sp, #92
 4670              		.cfi_def_cfa_offset 96
 4671 1944 0190     		str	r0, [sp, #4]
 4672              		.loc 1 2398 0
 4673 1946 019B     		ldr	r3, [sp, #4]
 4674 1948 1B68     		ldr	r3, [r3]
 4675 194a 9B68     		ldr	r3, [r3, #8]
 4676 194c 03F00803 		and	r3, r3, #8
 4677 1950 002B     		cmp	r3, #0
 4678 1952 11D0     		beq	.L322
 4679              		.loc 1 2399 0 discriminator 1
 4680 1954 019B     		ldr	r3, [sp, #4]
 4681 1956 1B68     		ldr	r3, [r3]
 4682 1958 5B68     		ldr	r3, [r3, #4]
 4683 195a 03F00803 		and	r3, r3, #8
 4684              		.loc 1 2398 0 discriminator 1
 4685 195e 002B     		cmp	r3, #0
 4686 1960 0AD0     		beq	.L322
 4687              		.loc 1 2402 0
 4688 1962 019B     		ldr	r3, [sp, #4]
 4689 1964 1B68     		ldr	r3, [r3]
 4690 1966 0822     		movs	r2, #8
 4691 1968 DA60     		str	r2, [r3, #12]
 4692              		.loc 1 2405 0
ARM GAS  /tmp/ccjyqKqb.s 			page 84


 4693 196a 019B     		ldr	r3, [sp, #4]
 4694 196c 0122     		movs	r2, #1
 4695 196e 1A65     		str	r2, [r3, #80]
 4696              		.loc 1 2408 0
 4697 1970 0198     		ldr	r0, [sp, #4]
 4698 1972 FFF7FEFF 		bl	HAL_DFSDM_FilterErrorCallback
 4699 1976 95E1     		b	.L321
 4700              	.L322:
 4701              		.loc 1 2411 0
 4702 1978 019B     		ldr	r3, [sp, #4]
 4703 197a 1B68     		ldr	r3, [r3]
 4704 197c 9B68     		ldr	r3, [r3, #8]
 4705 197e 03F00403 		and	r3, r3, #4
 4706 1982 002B     		cmp	r3, #0
 4707 1984 11D0     		beq	.L324
 4708              		.loc 1 2412 0 discriminator 1
 4709 1986 019B     		ldr	r3, [sp, #4]
 4710 1988 1B68     		ldr	r3, [r3]
 4711 198a 5B68     		ldr	r3, [r3, #4]
 4712 198c 03F00403 		and	r3, r3, #4
 4713              		.loc 1 2411 0 discriminator 1
 4714 1990 002B     		cmp	r3, #0
 4715 1992 0AD0     		beq	.L324
 4716              		.loc 1 2415 0
 4717 1994 019B     		ldr	r3, [sp, #4]
 4718 1996 1B68     		ldr	r3, [r3]
 4719 1998 0422     		movs	r2, #4
 4720 199a DA60     		str	r2, [r3, #12]
 4721              		.loc 1 2418 0
 4722 199c 019B     		ldr	r3, [sp, #4]
 4723 199e 0222     		movs	r2, #2
 4724 19a0 1A65     		str	r2, [r3, #80]
 4725              		.loc 1 2421 0
 4726 19a2 0198     		ldr	r0, [sp, #4]
 4727 19a4 FFF7FEFF 		bl	HAL_DFSDM_FilterErrorCallback
 4728 19a8 7CE1     		b	.L321
 4729              	.L324:
 4730              		.loc 1 2424 0
 4731 19aa 019B     		ldr	r3, [sp, #4]
 4732 19ac 1B68     		ldr	r3, [r3]
 4733 19ae 9B68     		ldr	r3, [r3, #8]
 4734 19b0 03F00203 		and	r3, r3, #2
 4735 19b4 002B     		cmp	r3, #0
 4736 19b6 26D0     		beq	.L325
 4737              		.loc 1 2425 0 discriminator 1
 4738 19b8 019B     		ldr	r3, [sp, #4]
 4739 19ba 1B68     		ldr	r3, [r3]
 4740 19bc 5B68     		ldr	r3, [r3, #4]
 4741 19be 03F00203 		and	r3, r3, #2
 4742              		.loc 1 2424 0 discriminator 1
 4743 19c2 002B     		cmp	r3, #0
 4744 19c4 1FD0     		beq	.L325
 4745              		.loc 1 2428 0
 4746 19c6 0198     		ldr	r0, [sp, #4]
 4747 19c8 FFF7FEFF 		bl	HAL_DFSDM_FilterRegConvCpltCallback
 4748              		.loc 1 2431 0
 4749 19cc 019B     		ldr	r3, [sp, #4]
ARM GAS  /tmp/ccjyqKqb.s 			page 85


 4750 19ce 1B6B     		ldr	r3, [r3, #48]
 4751 19d0 002B     		cmp	r3, #0
 4752 19d2 17D1     		bne	.L326
 4753              		.loc 1 2432 0 discriminator 1
 4754 19d4 019B     		ldr	r3, [sp, #4]
 4755 19d6 5B6B     		ldr	r3, [r3, #52]
 4756              		.loc 1 2431 0 discriminator 1
 4757 19d8 002B     		cmp	r3, #0
 4758 19da 13D1     		bne	.L326
 4759              		.loc 1 2435 0
 4760 19dc 019B     		ldr	r3, [sp, #4]
 4761 19de 1B68     		ldr	r3, [r3]
 4762 19e0 019A     		ldr	r2, [sp, #4]
 4763 19e2 1268     		ldr	r2, [r2]
 4764 19e4 5268     		ldr	r2, [r2, #4]
 4765 19e6 22F00202 		bic	r2, r2, #2
 4766 19ea 5A60     		str	r2, [r3, #4]
 4767              		.loc 1 2438 0
 4768 19ec 019B     		ldr	r3, [sp, #4]
 4769 19ee 93F84C30 		ldrb	r3, [r3, #76]	@ zero_extendqisi2
 4770 19f2 022B     		cmp	r3, #2
 4771 19f4 01D1     		bne	.L327
 4772              		.loc 1 2438 0 is_stmt 0 discriminator 1
 4773 19f6 0123     		movs	r3, #1
 4774 19f8 00E0     		b	.L328
 4775              	.L327:
 4776              		.loc 1 2438 0 discriminator 2
 4777 19fa 0323     		movs	r3, #3
 4778              	.L328:
 4779              		.loc 1 2438 0 discriminator 3
 4780 19fc 019A     		ldr	r2, [sp, #4]
 4781 19fe 82F84C30 		strb	r3, [r2, #76]
 4782              		.loc 1 2431 0 is_stmt 1 discriminator 3
 4783 1a02 4FE1     		b	.L321
 4784              	.L326:
 4785              		.loc 1 2431 0 is_stmt 0 discriminator 2
 4786 1a04 4EE1     		b	.L321
 4787              	.L325:
 4788              		.loc 1 2443 0 is_stmt 1
 4789 1a06 019B     		ldr	r3, [sp, #4]
 4790 1a08 1B68     		ldr	r3, [r3]
 4791 1a0a 9B68     		ldr	r3, [r3, #8]
 4792 1a0c 03F00103 		and	r3, r3, #1
 4793 1a10 002B     		cmp	r3, #0
 4794 1a12 36D0     		beq	.L329
 4795              		.loc 1 2444 0 discriminator 1
 4796 1a14 019B     		ldr	r3, [sp, #4]
 4797 1a16 1B68     		ldr	r3, [r3]
 4798 1a18 5B68     		ldr	r3, [r3, #4]
 4799 1a1a 03F00103 		and	r3, r3, #1
 4800              		.loc 1 2443 0 discriminator 1
 4801 1a1e 002B     		cmp	r3, #0
 4802 1a20 2FD0     		beq	.L329
 4803              		.loc 1 2447 0
 4804 1a22 0198     		ldr	r0, [sp, #4]
 4805 1a24 FFF7FEFF 		bl	HAL_DFSDM_FilterInjConvCpltCallback
 4806              		.loc 1 2450 0
ARM GAS  /tmp/ccjyqKqb.s 			page 86


 4807 1a28 019B     		ldr	r3, [sp, #4]
 4808 1a2a 9B6C     		ldr	r3, [r3, #72]
 4809 1a2c 5A1E     		subs	r2, r3, #1
 4810 1a2e 019B     		ldr	r3, [sp, #4]
 4811 1a30 9A64     		str	r2, [r3, #72]
 4812              		.loc 1 2451 0
 4813 1a32 019B     		ldr	r3, [sp, #4]
 4814 1a34 9B6C     		ldr	r3, [r3, #72]
 4815 1a36 002B     		cmp	r3, #0
 4816 1a38 22D1     		bne	.L330
 4817              		.loc 1 2454 0
 4818 1a3a 019B     		ldr	r3, [sp, #4]
 4819 1a3c 9B6B     		ldr	r3, [r3, #56]
 4820 1a3e 002B     		cmp	r3, #0
 4821 1a40 12D1     		bne	.L331
 4822              		.loc 1 2457 0
 4823 1a42 019B     		ldr	r3, [sp, #4]
 4824 1a44 1B68     		ldr	r3, [r3]
 4825 1a46 019A     		ldr	r2, [sp, #4]
 4826 1a48 1268     		ldr	r2, [r2]
 4827 1a4a 5268     		ldr	r2, [r2, #4]
 4828 1a4c 22F00102 		bic	r2, r2, #1
 4829 1a50 5A60     		str	r2, [r3, #4]
 4830              		.loc 1 2460 0
 4831 1a52 019B     		ldr	r3, [sp, #4]
 4832 1a54 93F84C30 		ldrb	r3, [r3, #76]	@ zero_extendqisi2
 4833 1a58 032B     		cmp	r3, #3
 4834 1a5a 01D1     		bne	.L332
 4835              		.loc 1 2460 0 is_stmt 0 discriminator 1
 4836 1a5c 0123     		movs	r3, #1
 4837 1a5e 00E0     		b	.L333
 4838              	.L332:
 4839              		.loc 1 2460 0 discriminator 2
 4840 1a60 0223     		movs	r3, #2
 4841              	.L333:
 4842              		.loc 1 2460 0 discriminator 3
 4843 1a62 019A     		ldr	r2, [sp, #4]
 4844 1a64 82F84C30 		strb	r3, [r2, #76]
 4845              	.L331:
 4846              		.loc 1 2464 0 is_stmt 1
 4847 1a68 019B     		ldr	r3, [sp, #4]
 4848 1a6a 93F84030 		ldrb	r3, [r3, #64]	@ zero_extendqisi2
 4849              		.loc 1 2465 0
 4850 1a6e 012B     		cmp	r3, #1
 4851 1a70 02D1     		bne	.L334
 4852              		.loc 1 2465 0 is_stmt 0 discriminator 1
 4853 1a72 019B     		ldr	r3, [sp, #4]
 4854 1a74 5B6C     		ldr	r3, [r3, #68]
 4855 1a76 00E0     		b	.L335
 4856              	.L334:
 4857              		.loc 1 2465 0 discriminator 2
 4858 1a78 0123     		movs	r3, #1
 4859              	.L335:
 4860              		.loc 1 2464 0 is_stmt 1
 4861 1a7a 019A     		ldr	r2, [sp, #4]
 4862 1a7c 9364     		str	r3, [r2, #72]
 4863              		.loc 1 2451 0
ARM GAS  /tmp/ccjyqKqb.s 			page 87


 4864 1a7e 11E1     		b	.L321
 4865              	.L330:
 4866              		.loc 1 2451 0 is_stmt 0 discriminator 1
 4867 1a80 10E1     		b	.L321
 4868              	.L329:
 4869              		.loc 1 2469 0 is_stmt 1
 4870 1a82 019B     		ldr	r3, [sp, #4]
 4871 1a84 1B68     		ldr	r3, [r3]
 4872 1a86 9B68     		ldr	r3, [r3, #8]
 4873 1a88 03F01003 		and	r3, r3, #16
 4874 1a8c 002B     		cmp	r3, #0
 4875 1a8e 57D0     		beq	.L336
 4876              		.loc 1 2470 0 discriminator 1
 4877 1a90 019B     		ldr	r3, [sp, #4]
 4878 1a92 1B68     		ldr	r3, [r3]
 4879 1a94 5B68     		ldr	r3, [r3, #4]
 4880 1a96 03F01003 		and	r3, r3, #16
 4881              		.loc 1 2469 0 discriminator 1
 4882 1a9a 002B     		cmp	r3, #0
 4883 1a9c 50D0     		beq	.L336
 4884              	.LBB133:
 4885              		.loc 1 2472 0
 4886 1a9e 0023     		movs	r3, #0
 4887 1aa0 1593     		str	r3, [sp, #84]
 4888              		.loc 1 2473 0
 4889 1aa2 0023     		movs	r3, #0
 4890 1aa4 0F93     		str	r3, [sp, #60]
 4891              		.loc 1 2474 0
 4892 1aa6 0023     		movs	r3, #0
 4893 1aa8 1493     		str	r3, [sp, #80]
 4894              		.loc 1 2477 0
 4895 1aaa 019B     		ldr	r3, [sp, #4]
 4896 1aac 1B68     		ldr	r3, [r3]
 4897 1aae 9B6A     		ldr	r3, [r3, #40]
 4898 1ab0 1593     		str	r3, [sp, #84]
 4899              		.loc 1 2478 0
 4900 1ab2 159B     		ldr	r3, [sp, #84]
 4901 1ab4 DBB2     		uxtb	r3, r3
 4902 1ab6 002B     		cmp	r3, #0
 4903 1ab8 01D0     		beq	.L337
 4904              		.loc 1 2478 0 is_stmt 0 discriminator 1
 4905 1aba 0123     		movs	r3, #1
 4906 1abc 00E0     		b	.L338
 4907              	.L337:
 4908              		.loc 1 2478 0 discriminator 2
 4909 1abe 0023     		movs	r3, #0
 4910              	.L338:
 4911              		.loc 1 2478 0 discriminator 3
 4912 1ac0 0F93     		str	r3, [sp, #60]
 4913              		.loc 1 2479 0 is_stmt 1 discriminator 3
 4914 1ac2 0F9B     		ldr	r3, [sp, #60]
 4915 1ac4 002B     		cmp	r3, #0
 4916 1ac6 0ED1     		bne	.L339
 4917 1ac8 4FF47F43 		mov	r3, #65280
 4918 1acc 0E93     		str	r3, [sp, #56]
 4919              	.LBB134:
 4920              	.LBB135:
ARM GAS  /tmp/ccjyqKqb.s 			page 88


 4921              		.loc 2 586 0
 4922 1ace 0E9B     		ldr	r3, [sp, #56]
 4923              	@ 586 "../../../../../../ChibiOS/os/ext/CMSIS/include/core_cmInstr.h" 1
 4924 1ad0 93FAA3F3 		rbit r3, r3
 4925              	@ 0 "" 2
 4926              		.thumb
 4927 1ad4 0D93     		str	r3, [sp, #52]
 4928              		.loc 2 599 0
 4929 1ad6 0D9B     		ldr	r3, [sp, #52]
 4930              	.LBE135:
 4931              	.LBE134:
 4932              		.loc 1 2481 0
 4933 1ad8 B3FA83F3 		clz	r3, r3
 4934 1adc 159A     		ldr	r2, [sp, #84]
 4935 1ade 22FA03F3 		lsr	r3, r2, r3
 4936 1ae2 1593     		str	r3, [sp, #84]
 4937              		.loc 1 2483 0
 4938 1ae4 06E0     		b	.L341
 4939              	.L339:
 4940 1ae6 05E0     		b	.L341
 4941              	.L342:
 4942              		.loc 1 2485 0
 4943 1ae8 149B     		ldr	r3, [sp, #80]
 4944 1aea 0133     		adds	r3, r3, #1
 4945 1aec 1493     		str	r3, [sp, #80]
 4946              		.loc 1 2486 0
 4947 1aee 159B     		ldr	r3, [sp, #84]
 4948 1af0 5B08     		lsrs	r3, r3, #1
 4949 1af2 1593     		str	r3, [sp, #84]
 4950              	.L341:
 4951              		.loc 1 2483 0 discriminator 1
 4952 1af4 159B     		ldr	r3, [sp, #84]
 4953 1af6 03F00103 		and	r3, r3, #1
 4954 1afa 002B     		cmp	r3, #0
 4955 1afc F4D0     		beq	.L342
 4956              		.loc 1 2489 0
 4957 1afe 019B     		ldr	r3, [sp, #4]
 4958 1b00 1A68     		ldr	r2, [r3]
 4959 1b02 0F9B     		ldr	r3, [sp, #60]
 4960 1b04 002B     		cmp	r3, #0
 4961 1b06 10D1     		bne	.L343
 4962 1b08 4FF47F43 		mov	r3, #65280
 4963 1b0c 0C93     		str	r3, [sp, #48]
 4964              	.LBB136:
 4965              	.LBB137:
 4966              		.loc 2 586 0
 4967 1b0e 0C9B     		ldr	r3, [sp, #48]
 4968              	@ 586 "../../../../../../ChibiOS/os/ext/CMSIS/include/core_cmInstr.h" 1
 4969 1b10 93FAA3F3 		rbit r3, r3
 4970              	@ 0 "" 2
 4971              		.thumb
 4972 1b14 0B93     		str	r3, [sp, #44]
 4973              		.loc 2 599 0
 4974 1b16 0B9B     		ldr	r3, [sp, #44]
 4975              	.LBE137:
 4976              	.LBE136:
 4977              		.loc 1 2490 0
ARM GAS  /tmp/ccjyqKqb.s 			page 89


 4978 1b18 B3FA83F3 		clz	r3, r3
 4979 1b1c 1946     		mov	r1, r3
 4980 1b1e 149B     		ldr	r3, [sp, #80]
 4981 1b20 0B44     		add	r3, r3, r1
 4982 1b22 0121     		movs	r1, #1
 4983 1b24 01FA03F3 		lsl	r3, r1, r3
 4984 1b28 03E0     		b	.L345
 4985              	.L343:
 4986              		.loc 1 2491 0 discriminator 1
 4987 1b2a 149B     		ldr	r3, [sp, #80]
 4988 1b2c 0121     		movs	r1, #1
 4989 1b2e 01FA03F3 		lsl	r3, r1, r3
 4990              	.L345:
 4991              		.loc 1 2489 0 discriminator 2
 4992 1b32 D362     		str	r3, [r2, #44]
 4993              		.loc 1 2494 0 discriminator 2
 4994 1b34 0198     		ldr	r0, [sp, #4]
 4995 1b36 1499     		ldr	r1, [sp, #80]
 4996 1b38 0F9A     		ldr	r2, [sp, #60]
 4997 1b3a FFF7FEFF 		bl	HAL_DFSDM_FilterAwdCallback
 4998              	.LBE133:
 4999              		.loc 1 2471 0 discriminator 2
 5000 1b3e B1E0     		b	.L321
 5001              	.L336:
 5002              		.loc 1 2497 0
 5003 1b40 019B     		ldr	r3, [sp, #4]
 5004 1b42 1A68     		ldr	r2, [r3]
 5005 1b44 594B     		ldr	r3, .L356
 5006 1b46 9A42     		cmp	r2, r3
 5007 1b48 5DD1     		bne	.L346
 5008              		.loc 1 2498 0 discriminator 1
 5009 1b4a 019B     		ldr	r3, [sp, #4]
 5010 1b4c 1B68     		ldr	r3, [r3]
 5011 1b4e 9B68     		ldr	r3, [r3, #8]
 5012 1b50 03F47F03 		and	r3, r3, #16711680
 5013              		.loc 1 2497 0 discriminator 1
 5014 1b54 002B     		cmp	r3, #0
 5015 1b56 56D0     		beq	.L346
 5016              		.loc 1 2499 0
 5017 1b58 019B     		ldr	r3, [sp, #4]
 5018 1b5a 1B68     		ldr	r3, [r3]
 5019 1b5c 5B68     		ldr	r3, [r3, #4]
 5020 1b5e 03F04003 		and	r3, r3, #64
 5021              		.loc 1 2498 0
 5022 1b62 002B     		cmp	r3, #0
 5023 1b64 4FD0     		beq	.L346
 5024              	.LBB138:
 5025              		.loc 1 2501 0
 5026 1b66 0023     		movs	r3, #0
 5027 1b68 1393     		str	r3, [sp, #76]
 5028              		.loc 1 2502 0
 5029 1b6a 0023     		movs	r3, #0
 5030 1b6c 1293     		str	r3, [sp, #72]
 5031              		.loc 1 2504 0
 5032 1b6e 019B     		ldr	r3, [sp, #4]
 5033 1b70 1B68     		ldr	r3, [r3]
 5034 1b72 9B68     		ldr	r3, [r3, #8]
ARM GAS  /tmp/ccjyqKqb.s 			page 90


 5035 1b74 03F47F02 		and	r2, r3, #16711680
 5036 1b78 4FF47F03 		mov	r3, #16711680
 5037 1b7c 0A93     		str	r3, [sp, #40]
 5038              	.LBB139:
 5039              	.LBB140:
 5040              		.loc 2 586 0
 5041 1b7e 0A9B     		ldr	r3, [sp, #40]
 5042              	@ 586 "../../../../../../ChibiOS/os/ext/CMSIS/include/core_cmInstr.h" 1
 5043 1b80 93FAA3F3 		rbit r3, r3
 5044              	@ 0 "" 2
 5045              		.thumb
 5046 1b84 0993     		str	r3, [sp, #36]
 5047              		.loc 2 599 0
 5048 1b86 099B     		ldr	r3, [sp, #36]
 5049              	.LBE140:
 5050              	.LBE139:
 5051              		.loc 1 2504 0
 5052 1b88 B3FA83F3 		clz	r3, r3
 5053 1b8c 22FA03F3 		lsr	r3, r2, r3
 5054 1b90 1393     		str	r3, [sp, #76]
 5055              		.loc 1 2506 0
 5056 1b92 34E0     		b	.L348
 5057              	.L351:
 5058              		.loc 1 2509 0
 5059 1b94 139B     		ldr	r3, [sp, #76]
 5060 1b96 03F00103 		and	r3, r3, #1
 5061 1b9a 002B     		cmp	r3, #0
 5062 1b9c 29D0     		beq	.L349
 5063              		.loc 1 2509 0 is_stmt 0 discriminator 1
 5064 1b9e 444B     		ldr	r3, .L356+4
 5065 1ba0 129A     		ldr	r2, [sp, #72]
 5066 1ba2 53F82230 		ldr	r3, [r3, r2, lsl #2]
 5067 1ba6 002B     		cmp	r3, #0
 5068 1ba8 23D0     		beq	.L349
 5069              		.loc 1 2512 0 is_stmt 1
 5070 1baa 414B     		ldr	r3, .L356+4
 5071 1bac 129A     		ldr	r2, [sp, #72]
 5072 1bae 53F82230 		ldr	r3, [r3, r2, lsl #2]
 5073 1bb2 1B68     		ldr	r3, [r3]
 5074 1bb4 1B68     		ldr	r3, [r3]
 5075 1bb6 03F04003 		and	r3, r3, #64
 5076 1bba 002B     		cmp	r3, #0
 5077 1bbc 19D0     		beq	.L349
 5078              		.loc 1 2515 0
 5079 1bbe 019B     		ldr	r3, [sp, #4]
 5080 1bc0 1B68     		ldr	r3, [r3]
 5081 1bc2 4FF47F02 		mov	r2, #16711680
 5082 1bc6 0892     		str	r2, [sp, #32]
 5083              	.LBB141:
 5084              	.LBB142:
 5085              		.loc 2 586 0
 5086 1bc8 089A     		ldr	r2, [sp, #32]
 5087              	@ 586 "../../../../../../ChibiOS/os/ext/CMSIS/include/core_cmInstr.h" 1
 5088 1bca 92FAA2F2 		rbit r2, r2
 5089              	@ 0 "" 2
 5090              		.thumb
 5091 1bce 0792     		str	r2, [sp, #28]
ARM GAS  /tmp/ccjyqKqb.s 			page 91


 5092              		.loc 2 599 0
 5093 1bd0 079A     		ldr	r2, [sp, #28]
 5094              	.LBE142:
 5095              	.LBE141:
 5096              		.loc 1 2515 0
 5097 1bd2 B2FA82F2 		clz	r2, r2
 5098 1bd6 1146     		mov	r1, r2
 5099 1bd8 129A     		ldr	r2, [sp, #72]
 5100 1bda 0A44     		add	r2, r2, r1
 5101 1bdc 0121     		movs	r1, #1
 5102 1bde 01FA02F2 		lsl	r2, r1, r2
 5103 1be2 DA60     		str	r2, [r3, #12]
 5104              		.loc 1 2518 0
 5105 1be4 324B     		ldr	r3, .L356+4
 5106 1be6 129A     		ldr	r2, [sp, #72]
 5107 1be8 53F82230 		ldr	r3, [r3, r2, lsl #2]
 5108 1bec 1846     		mov	r0, r3
 5109 1bee FFF7FEFF 		bl	HAL_DFSDM_ChannelCkabCallback
 5110              	.L349:
 5111              		.loc 1 2521 0
 5112 1bf2 129B     		ldr	r3, [sp, #72]
 5113 1bf4 0133     		adds	r3, r3, #1
 5114 1bf6 1293     		str	r3, [sp, #72]
 5115              		.loc 1 2522 0
 5116 1bf8 139B     		ldr	r3, [sp, #76]
 5117 1bfa 5B08     		lsrs	r3, r3, #1
 5118 1bfc 1393     		str	r3, [sp, #76]
 5119              	.L348:
 5120              		.loc 1 2506 0 discriminator 1
 5121 1bfe 129B     		ldr	r3, [sp, #72]
 5122 1c00 072B     		cmp	r3, #7
 5123 1c02 C7D9     		bls	.L351
 5124              	.LBE138:
 5125              		.loc 1 2500 0
 5126 1c04 4EE0     		b	.L321
 5127              	.L346:
 5128              		.loc 1 2526 0
 5129 1c06 019B     		ldr	r3, [sp, #4]
 5130 1c08 1A68     		ldr	r2, [r3]
 5131 1c0a 284B     		ldr	r3, .L356
 5132 1c0c 9A42     		cmp	r2, r3
 5133 1c0e 49D1     		bne	.L321
 5134              		.loc 1 2527 0 discriminator 1
 5135 1c10 019B     		ldr	r3, [sp, #4]
 5136 1c12 1B68     		ldr	r3, [r3]
 5137 1c14 9B68     		ldr	r3, [r3, #8]
 5138 1c16 03F07F43 		and	r3, r3, #-16777216
 5139              		.loc 1 2526 0 discriminator 1
 5140 1c1a 002B     		cmp	r3, #0
 5141 1c1c 42D0     		beq	.L321
 5142              		.loc 1 2528 0
 5143 1c1e 019B     		ldr	r3, [sp, #4]
 5144 1c20 1B68     		ldr	r3, [r3]
 5145 1c22 5B68     		ldr	r3, [r3, #4]
 5146 1c24 03F02003 		and	r3, r3, #32
 5147              		.loc 1 2527 0
 5148 1c28 002B     		cmp	r3, #0
ARM GAS  /tmp/ccjyqKqb.s 			page 92


 5149 1c2a 3BD0     		beq	.L321
 5150              	.LBB143:
 5151              		.loc 1 2530 0
 5152 1c2c 0023     		movs	r3, #0
 5153 1c2e 1193     		str	r3, [sp, #68]
 5154              		.loc 1 2531 0
 5155 1c30 0023     		movs	r3, #0
 5156 1c32 1093     		str	r3, [sp, #64]
 5157              		.loc 1 2534 0
 5158 1c34 019B     		ldr	r3, [sp, #4]
 5159 1c36 1B68     		ldr	r3, [r3]
 5160 1c38 9B68     		ldr	r3, [r3, #8]
 5161 1c3a 03F07F42 		and	r2, r3, #-16777216
 5162 1c3e 4FF07F43 		mov	r3, #-16777216
 5163 1c42 0693     		str	r3, [sp, #24]
 5164              	.LBB144:
 5165              	.LBB145:
 5166              		.loc 2 586 0
 5167 1c44 069B     		ldr	r3, [sp, #24]
 5168              	@ 586 "../../../../../../ChibiOS/os/ext/CMSIS/include/core_cmInstr.h" 1
 5169 1c46 93FAA3F3 		rbit r3, r3
 5170              	@ 0 "" 2
 5171              		.thumb
 5172 1c4a 0593     		str	r3, [sp, #20]
 5173              		.loc 2 599 0
 5174 1c4c 059B     		ldr	r3, [sp, #20]
 5175              	.LBE145:
 5176              	.LBE144:
 5177              		.loc 1 2534 0
 5178 1c4e B3FA83F3 		clz	r3, r3
 5179 1c52 22FA03F3 		lsr	r3, r2, r3
 5180 1c56 1193     		str	r3, [sp, #68]
 5181              		.loc 1 2535 0
 5182 1c58 05E0     		b	.L353
 5183              	.L354:
 5184              		.loc 1 2537 0
 5185 1c5a 109B     		ldr	r3, [sp, #64]
 5186 1c5c 0133     		adds	r3, r3, #1
 5187 1c5e 1093     		str	r3, [sp, #64]
 5188              		.loc 1 2538 0
 5189 1c60 119B     		ldr	r3, [sp, #68]
 5190 1c62 5B08     		lsrs	r3, r3, #1
 5191 1c64 1193     		str	r3, [sp, #68]
 5192              	.L353:
 5193              		.loc 1 2535 0 discriminator 1
 5194 1c66 119B     		ldr	r3, [sp, #68]
 5195 1c68 03F00103 		and	r3, r3, #1
 5196 1c6c 002B     		cmp	r3, #0
 5197 1c6e F4D0     		beq	.L354
 5198              		.loc 1 2542 0
 5199 1c70 019B     		ldr	r3, [sp, #4]
 5200 1c72 1B68     		ldr	r3, [r3]
 5201 1c74 4FF07F42 		mov	r2, #-16777216
 5202 1c78 0492     		str	r2, [sp, #16]
 5203              	.LBB146:
 5204              	.LBB147:
 5205              		.loc 2 586 0
ARM GAS  /tmp/ccjyqKqb.s 			page 93


 5206 1c7a 049A     		ldr	r2, [sp, #16]
 5207              	@ 586 "../../../../../../ChibiOS/os/ext/CMSIS/include/core_cmInstr.h" 1
 5208 1c7c 92FAA2F2 		rbit r2, r2
 5209              	@ 0 "" 2
 5210              		.thumb
 5211 1c80 0392     		str	r2, [sp, #12]
 5212              		.loc 2 599 0
 5213 1c82 039A     		ldr	r2, [sp, #12]
 5214              	.LBE147:
 5215              	.LBE146:
 5216              		.loc 1 2542 0
 5217 1c84 B2FA82F2 		clz	r2, r2
 5218 1c88 1146     		mov	r1, r2
 5219 1c8a 109A     		ldr	r2, [sp, #64]
 5220 1c8c 0A44     		add	r2, r2, r1
 5221 1c8e 0121     		movs	r1, #1
 5222 1c90 01FA02F2 		lsl	r2, r1, r2
 5223 1c94 DA60     		str	r2, [r3, #12]
 5224              		.loc 1 2545 0
 5225 1c96 064B     		ldr	r3, .L356+4
 5226 1c98 109A     		ldr	r2, [sp, #64]
 5227 1c9a 53F82230 		ldr	r3, [r3, r2, lsl #2]
 5228 1c9e 1846     		mov	r0, r3
 5229 1ca0 FFF7FEFF 		bl	HAL_DFSDM_ChannelScdCallback
 5230              	.L321:
 5231              	.LBE143:
 5232              		.loc 1 2547 0
 5233 1ca4 17B0     		add	sp, sp, #92
 5234              		@ sp needed
 5235 1ca6 5DF804FB 		ldr	pc, [sp], #4
 5236              	.L357:
 5237 1caa 00BF     		.align	2
 5238              	.L356:
 5239 1cac 00610140 		.word	1073832192
 5240 1cb0 00000000 		.word	a_dfsdm1ChannelHandle
 5241              		.cfi_endproc
 5242              	.LFE175:
 5243              		.size	HAL_DFSDM_IRQHandler, .-HAL_DFSDM_IRQHandler
 5244              		.align	2
 5245 1cb4 AFF30080 		.p2align 4,,15
 5245      AFF30080 
 5245      AFF30080 
 5246              		.weak	HAL_DFSDM_FilterRegConvCpltCallback
 5247              		.thumb
 5248              		.thumb_func
 5249              		.type	HAL_DFSDM_FilterRegConvCpltCallback, %function
 5250              	HAL_DFSDM_FilterRegConvCpltCallback:
 5251              	.LFB176:
 5252              		.loc 1 2557 0
 5253              		.cfi_startproc
 5254              		@ args = 0, pretend = 0, frame = 8
 5255              		@ frame_needed = 0, uses_anonymous_args = 0
 5256              		@ link register save eliminated.
 5257 1cc0 82B0     		sub	sp, sp, #8
 5258              		.cfi_def_cfa_offset 8
 5259 1cc2 0190     		str	r0, [sp, #4]
 5260              		.loc 1 2564 0
ARM GAS  /tmp/ccjyqKqb.s 			page 94


 5261 1cc4 02B0     		add	sp, sp, #8
 5262              		@ sp needed
 5263 1cc6 7047     		bx	lr
 5264              		.cfi_endproc
 5265              	.LFE176:
 5266              		.size	HAL_DFSDM_FilterRegConvCpltCallback, .-HAL_DFSDM_FilterRegConvCpltCallback
 5267              		.align	2
 5268 1cc8 AFF30080 		.p2align 4,,15
 5268      AFF30080 
 5269              		.weak	HAL_DFSDM_FilterRegConvHalfCpltCallback
 5270              		.thumb
 5271              		.thumb_func
 5272              		.type	HAL_DFSDM_FilterRegConvHalfCpltCallback, %function
 5273              	HAL_DFSDM_FilterRegConvHalfCpltCallback:
 5274              	.LFB177:
 5275              		.loc 1 2572 0
 5276              		.cfi_startproc
 5277              		@ args = 0, pretend = 0, frame = 8
 5278              		@ frame_needed = 0, uses_anonymous_args = 0
 5279              		@ link register save eliminated.
 5280 1cd0 82B0     		sub	sp, sp, #8
 5281              		.cfi_def_cfa_offset 8
 5282 1cd2 0190     		str	r0, [sp, #4]
 5283              		.loc 1 2579 0
 5284 1cd4 02B0     		add	sp, sp, #8
 5285              		@ sp needed
 5286 1cd6 7047     		bx	lr
 5287              		.cfi_endproc
 5288              	.LFE177:
 5289              		.size	HAL_DFSDM_FilterRegConvHalfCpltCallback, .-HAL_DFSDM_FilterRegConvHalfCpltCallback
 5290              		.align	2
 5291 1cd8 AFF30080 		.p2align 4,,15
 5291      AFF30080 
 5292              		.weak	HAL_DFSDM_FilterInjConvCpltCallback
 5293              		.thumb
 5294              		.thumb_func
 5295              		.type	HAL_DFSDM_FilterInjConvCpltCallback, %function
 5296              	HAL_DFSDM_FilterInjConvCpltCallback:
 5297              	.LFB178:
 5298              		.loc 1 2589 0
 5299              		.cfi_startproc
 5300              		@ args = 0, pretend = 0, frame = 8
 5301              		@ frame_needed = 0, uses_anonymous_args = 0
 5302              		@ link register save eliminated.
 5303 1ce0 82B0     		sub	sp, sp, #8
 5304              		.cfi_def_cfa_offset 8
 5305 1ce2 0190     		str	r0, [sp, #4]
 5306              		.loc 1 2596 0
 5307 1ce4 02B0     		add	sp, sp, #8
 5308              		@ sp needed
 5309 1ce6 7047     		bx	lr
 5310              		.cfi_endproc
 5311              	.LFE178:
 5312              		.size	HAL_DFSDM_FilterInjConvCpltCallback, .-HAL_DFSDM_FilterInjConvCpltCallback
 5313              		.align	2
 5314 1ce8 AFF30080 		.p2align 4,,15
 5314      AFF30080 
ARM GAS  /tmp/ccjyqKqb.s 			page 95


 5315              		.weak	HAL_DFSDM_FilterInjConvHalfCpltCallback
 5316              		.thumb
 5317              		.thumb_func
 5318              		.type	HAL_DFSDM_FilterInjConvHalfCpltCallback, %function
 5319              	HAL_DFSDM_FilterInjConvHalfCpltCallback:
 5320              	.LFB179:
 5321              		.loc 1 2604 0
 5322              		.cfi_startproc
 5323              		@ args = 0, pretend = 0, frame = 8
 5324              		@ frame_needed = 0, uses_anonymous_args = 0
 5325              		@ link register save eliminated.
 5326 1cf0 82B0     		sub	sp, sp, #8
 5327              		.cfi_def_cfa_offset 8
 5328 1cf2 0190     		str	r0, [sp, #4]
 5329              		.loc 1 2611 0
 5330 1cf4 02B0     		add	sp, sp, #8
 5331              		@ sp needed
 5332 1cf6 7047     		bx	lr
 5333              		.cfi_endproc
 5334              	.LFE179:
 5335              		.size	HAL_DFSDM_FilterInjConvHalfCpltCallback, .-HAL_DFSDM_FilterInjConvHalfCpltCallback
 5336              		.align	2
 5337 1cf8 AFF30080 		.p2align 4,,15
 5337      AFF30080 
 5338              		.weak	HAL_DFSDM_FilterAwdCallback
 5339              		.thumb
 5340              		.thumb_func
 5341              		.type	HAL_DFSDM_FilterAwdCallback, %function
 5342              	HAL_DFSDM_FilterAwdCallback:
 5343              	.LFB180:
 5344              		.loc 1 2622 0
 5345              		.cfi_startproc
 5346              		@ args = 0, pretend = 0, frame = 16
 5347              		@ frame_needed = 0, uses_anonymous_args = 0
 5348              		@ link register save eliminated.
 5349 1d00 84B0     		sub	sp, sp, #16
 5350              		.cfi_def_cfa_offset 16
 5351 1d02 0390     		str	r0, [sp, #12]
 5352 1d04 0291     		str	r1, [sp, #8]
 5353 1d06 0192     		str	r2, [sp, #4]
 5354              		.loc 1 2631 0
 5355 1d08 04B0     		add	sp, sp, #16
 5356              		@ sp needed
 5357 1d0a 7047     		bx	lr
 5358              		.cfi_endproc
 5359              	.LFE180:
 5360              		.size	HAL_DFSDM_FilterAwdCallback, .-HAL_DFSDM_FilterAwdCallback
 5361              		.align	2
 5362 1d0c AFF30080 		.p2align 4,,15
 5363              		.weak	HAL_DFSDM_FilterErrorCallback
 5364              		.thumb
 5365              		.thumb_func
 5366              		.type	HAL_DFSDM_FilterErrorCallback, %function
 5367              	HAL_DFSDM_FilterErrorCallback:
 5368              	.LFB181:
 5369              		.loc 1 2639 0
 5370              		.cfi_startproc
ARM GAS  /tmp/ccjyqKqb.s 			page 96


 5371              		@ args = 0, pretend = 0, frame = 8
 5372              		@ frame_needed = 0, uses_anonymous_args = 0
 5373              		@ link register save eliminated.
 5374 1d10 82B0     		sub	sp, sp, #8
 5375              		.cfi_def_cfa_offset 8
 5376 1d12 0190     		str	r0, [sp, #4]
 5377              		.loc 1 2646 0
 5378 1d14 02B0     		add	sp, sp, #8
 5379              		@ sp needed
 5380 1d16 7047     		bx	lr
 5381              		.cfi_endproc
 5382              	.LFE181:
 5383              		.size	HAL_DFSDM_FilterErrorCallback, .-HAL_DFSDM_FilterErrorCallback
 5384              		.align	2
 5385 1d18 AFF30080 		.p2align 4,,15
 5385      AFF30080 
 5386              		.global	HAL_DFSDM_FilterGetState
 5387              		.thumb
 5388              		.thumb_func
 5389              		.type	HAL_DFSDM_FilterGetState, %function
 5390              	HAL_DFSDM_FilterGetState:
 5391              	.LFB182:
 5392              		.loc 1 2672 0
 5393              		.cfi_startproc
 5394              		@ args = 0, pretend = 0, frame = 8
 5395              		@ frame_needed = 0, uses_anonymous_args = 0
 5396              		@ link register save eliminated.
 5397 1d20 82B0     		sub	sp, sp, #8
 5398              		.cfi_def_cfa_offset 8
 5399 1d22 0190     		str	r0, [sp, #4]
 5400              		.loc 1 2674 0
 5401 1d24 019B     		ldr	r3, [sp, #4]
 5402 1d26 93F84C30 		ldrb	r3, [r3, #76]	@ zero_extendqisi2
 5403              		.loc 1 2675 0
 5404 1d2a 1846     		mov	r0, r3
 5405 1d2c 02B0     		add	sp, sp, #8
 5406              		@ sp needed
 5407 1d2e 7047     		bx	lr
 5408              		.cfi_endproc
 5409              	.LFE182:
 5410              		.size	HAL_DFSDM_FilterGetState, .-HAL_DFSDM_FilterGetState
 5411              		.align	2
 5412              		.p2align 4,,15
 5413              		.global	HAL_DFSDM_FilterGetError
 5414              		.thumb
 5415              		.thumb_func
 5416              		.type	HAL_DFSDM_FilterGetError, %function
 5417              	HAL_DFSDM_FilterGetError:
 5418              	.LFB183:
 5419              		.loc 1 2683 0
 5420              		.cfi_startproc
 5421              		@ args = 0, pretend = 0, frame = 8
 5422              		@ frame_needed = 0, uses_anonymous_args = 0
 5423              		@ link register save eliminated.
 5424 1d30 82B0     		sub	sp, sp, #8
 5425              		.cfi_def_cfa_offset 8
 5426 1d32 0190     		str	r0, [sp, #4]
ARM GAS  /tmp/ccjyqKqb.s 			page 97


 5427              		.loc 1 2684 0
 5428 1d34 019B     		ldr	r3, [sp, #4]
 5429 1d36 1B6D     		ldr	r3, [r3, #80]
 5430              		.loc 1 2685 0
 5431 1d38 1846     		mov	r0, r3
 5432 1d3a 02B0     		add	sp, sp, #8
 5433              		@ sp needed
 5434 1d3c 7047     		bx	lr
 5435              		.cfi_endproc
 5436              	.LFE183:
 5437              		.size	HAL_DFSDM_FilterGetError, .-HAL_DFSDM_FilterGetError
 5438 1d3e 00BF     		.align	2
 5439              		.p2align 4,,15
 5440              		.thumb
 5441              		.thumb_func
 5442              		.type	DFSDM_DMARegularHalfConvCplt, %function
 5443              	DFSDM_DMARegularHalfConvCplt:
 5444              	.LFB184:
 5445              		.loc 1 2707 0
 5446              		.cfi_startproc
 5447              		@ args = 0, pretend = 0, frame = 16
 5448              		@ frame_needed = 0, uses_anonymous_args = 0
 5449 1d40 00B5     		push	{lr}
 5450              		.cfi_def_cfa_offset 4
 5451              		.cfi_offset 14, -4
 5452 1d42 85B0     		sub	sp, sp, #20
 5453              		.cfi_def_cfa_offset 24
 5454 1d44 0190     		str	r0, [sp, #4]
 5455              		.loc 1 2709 0
 5456 1d46 019B     		ldr	r3, [sp, #4]
 5457 1d48 9B6A     		ldr	r3, [r3, #40]
 5458 1d4a 0393     		str	r3, [sp, #12]
 5459              		.loc 1 2712 0
 5460 1d4c 0398     		ldr	r0, [sp, #12]
 5461 1d4e FFF7FEFF 		bl	HAL_DFSDM_FilterRegConvHalfCpltCallback
 5462              		.loc 1 2713 0
 5463 1d52 05B0     		add	sp, sp, #20
 5464              		@ sp needed
 5465 1d54 5DF804FB 		ldr	pc, [sp], #4
 5466              		.cfi_endproc
 5467              	.LFE184:
 5468              		.size	DFSDM_DMARegularHalfConvCplt, .-DFSDM_DMARegularHalfConvCplt
 5469              		.align	2
 5470 1d58 AFF30080 		.p2align 4,,15
 5470      AFF30080 
 5471              		.thumb
 5472              		.thumb_func
 5473              		.type	DFSDM_DMARegularConvCplt, %function
 5474              	DFSDM_DMARegularConvCplt:
 5475              	.LFB185:
 5476              		.loc 1 2721 0
 5477              		.cfi_startproc
 5478              		@ args = 0, pretend = 0, frame = 16
 5479              		@ frame_needed = 0, uses_anonymous_args = 0
 5480 1d60 00B5     		push	{lr}
 5481              		.cfi_def_cfa_offset 4
 5482              		.cfi_offset 14, -4
ARM GAS  /tmp/ccjyqKqb.s 			page 98


 5483 1d62 85B0     		sub	sp, sp, #20
 5484              		.cfi_def_cfa_offset 24
 5485 1d64 0190     		str	r0, [sp, #4]
 5486              		.loc 1 2723 0
 5487 1d66 019B     		ldr	r3, [sp, #4]
 5488 1d68 9B6A     		ldr	r3, [r3, #40]
 5489 1d6a 0393     		str	r3, [sp, #12]
 5490              		.loc 1 2726 0
 5491 1d6c 0398     		ldr	r0, [sp, #12]
 5492 1d6e FFF7FEFF 		bl	HAL_DFSDM_FilterRegConvCpltCallback
 5493              		.loc 1 2727 0
 5494 1d72 05B0     		add	sp, sp, #20
 5495              		@ sp needed
 5496 1d74 5DF804FB 		ldr	pc, [sp], #4
 5497              		.cfi_endproc
 5498              	.LFE185:
 5499              		.size	DFSDM_DMARegularConvCplt, .-DFSDM_DMARegularConvCplt
 5500              		.align	2
 5501 1d78 AFF30080 		.p2align 4,,15
 5501      AFF30080 
 5502              		.thumb
 5503              		.thumb_func
 5504              		.type	DFSDM_DMAInjectedHalfConvCplt, %function
 5505              	DFSDM_DMAInjectedHalfConvCplt:
 5506              	.LFB186:
 5507              		.loc 1 2735 0
 5508              		.cfi_startproc
 5509              		@ args = 0, pretend = 0, frame = 16
 5510              		@ frame_needed = 0, uses_anonymous_args = 0
 5511 1d80 00B5     		push	{lr}
 5512              		.cfi_def_cfa_offset 4
 5513              		.cfi_offset 14, -4
 5514 1d82 85B0     		sub	sp, sp, #20
 5515              		.cfi_def_cfa_offset 24
 5516 1d84 0190     		str	r0, [sp, #4]
 5517              		.loc 1 2737 0
 5518 1d86 019B     		ldr	r3, [sp, #4]
 5519 1d88 9B6A     		ldr	r3, [r3, #40]
 5520 1d8a 0393     		str	r3, [sp, #12]
 5521              		.loc 1 2740 0
 5522 1d8c 0398     		ldr	r0, [sp, #12]
 5523 1d8e FFF7FEFF 		bl	HAL_DFSDM_FilterInjConvHalfCpltCallback
 5524              		.loc 1 2741 0
 5525 1d92 05B0     		add	sp, sp, #20
 5526              		@ sp needed
 5527 1d94 5DF804FB 		ldr	pc, [sp], #4
 5528              		.cfi_endproc
 5529              	.LFE186:
 5530              		.size	DFSDM_DMAInjectedHalfConvCplt, .-DFSDM_DMAInjectedHalfConvCplt
 5531              		.align	2
 5532 1d98 AFF30080 		.p2align 4,,15
 5532      AFF30080 
 5533              		.thumb
 5534              		.thumb_func
 5535              		.type	DFSDM_DMAInjectedConvCplt, %function
 5536              	DFSDM_DMAInjectedConvCplt:
 5537              	.LFB187:
ARM GAS  /tmp/ccjyqKqb.s 			page 99


 5538              		.loc 1 2749 0
 5539              		.cfi_startproc
 5540              		@ args = 0, pretend = 0, frame = 16
 5541              		@ frame_needed = 0, uses_anonymous_args = 0
 5542 1da0 00B5     		push	{lr}
 5543              		.cfi_def_cfa_offset 4
 5544              		.cfi_offset 14, -4
 5545 1da2 85B0     		sub	sp, sp, #20
 5546              		.cfi_def_cfa_offset 24
 5547 1da4 0190     		str	r0, [sp, #4]
 5548              		.loc 1 2751 0
 5549 1da6 019B     		ldr	r3, [sp, #4]
 5550 1da8 9B6A     		ldr	r3, [r3, #40]
 5551 1daa 0393     		str	r3, [sp, #12]
 5552              		.loc 1 2754 0
 5553 1dac 0398     		ldr	r0, [sp, #12]
 5554 1dae FFF7FEFF 		bl	HAL_DFSDM_FilterInjConvCpltCallback
 5555              		.loc 1 2755 0
 5556 1db2 05B0     		add	sp, sp, #20
 5557              		@ sp needed
 5558 1db4 5DF804FB 		ldr	pc, [sp], #4
 5559              		.cfi_endproc
 5560              	.LFE187:
 5561              		.size	DFSDM_DMAInjectedConvCplt, .-DFSDM_DMAInjectedConvCplt
 5562              		.align	2
 5563 1db8 AFF30080 		.p2align 4,,15
 5563      AFF30080 
 5564              		.thumb
 5565              		.thumb_func
 5566              		.type	DFSDM_DMAError, %function
 5567              	DFSDM_DMAError:
 5568              	.LFB188:
 5569              		.loc 1 2763 0
 5570              		.cfi_startproc
 5571              		@ args = 0, pretend = 0, frame = 16
 5572              		@ frame_needed = 0, uses_anonymous_args = 0
 5573 1dc0 00B5     		push	{lr}
 5574              		.cfi_def_cfa_offset 4
 5575              		.cfi_offset 14, -4
 5576 1dc2 85B0     		sub	sp, sp, #20
 5577              		.cfi_def_cfa_offset 24
 5578 1dc4 0190     		str	r0, [sp, #4]
 5579              		.loc 1 2765 0
 5580 1dc6 019B     		ldr	r3, [sp, #4]
 5581 1dc8 9B6A     		ldr	r3, [r3, #40]
 5582 1dca 0393     		str	r3, [sp, #12]
 5583              		.loc 1 2768 0
 5584 1dcc 039B     		ldr	r3, [sp, #12]
 5585 1dce 0322     		movs	r2, #3
 5586 1dd0 1A65     		str	r2, [r3, #80]
 5587              		.loc 1 2771 0
 5588 1dd2 0398     		ldr	r0, [sp, #12]
 5589 1dd4 FFF7FEFF 		bl	HAL_DFSDM_FilterErrorCallback
 5590              		.loc 1 2772 0
 5591 1dd8 05B0     		add	sp, sp, #20
 5592              		@ sp needed
 5593 1dda 5DF804FB 		ldr	pc, [sp], #4
ARM GAS  /tmp/ccjyqKqb.s 			page 100


 5594              		.cfi_endproc
 5595              	.LFE188:
 5596              		.size	DFSDM_DMAError, .-DFSDM_DMAError
 5597 1dde 00BF     		.align	2
 5598              		.p2align 4,,15
 5599              		.thumb
 5600              		.thumb_func
 5601              		.type	DFSDM_GetInjChannelsNbr, %function
 5602              	DFSDM_GetInjChannelsNbr:
 5603              	.LFB189:
 5604              		.loc 1 2780 0
 5605              		.cfi_startproc
 5606              		@ args = 0, pretend = 0, frame = 16
 5607              		@ frame_needed = 0, uses_anonymous_args = 0
 5608              		@ link register save eliminated.
 5609 1de0 84B0     		sub	sp, sp, #16
 5610              		.cfi_def_cfa_offset 16
 5611 1de2 0190     		str	r0, [sp, #4]
 5612              		.loc 1 2781 0
 5613 1de4 0023     		movs	r3, #0
 5614 1de6 0393     		str	r3, [sp, #12]
 5615              		.loc 1 2785 0
 5616 1de8 019B     		ldr	r3, [sp, #4]
 5617 1dea 9BB2     		uxth	r3, r3
 5618 1dec 0293     		str	r3, [sp, #8]
 5619              		.loc 1 2786 0
 5620 1dee 0AE0     		b	.L374
 5621              	.L376:
 5622              		.loc 1 2788 0
 5623 1df0 029B     		ldr	r3, [sp, #8]
 5624 1df2 03F00103 		and	r3, r3, #1
 5625 1df6 002B     		cmp	r3, #0
 5626 1df8 02D0     		beq	.L375
 5627              		.loc 1 2790 0
 5628 1dfa 039B     		ldr	r3, [sp, #12]
 5629 1dfc 0133     		adds	r3, r3, #1
 5630 1dfe 0393     		str	r3, [sp, #12]
 5631              	.L375:
 5632              		.loc 1 2792 0
 5633 1e00 029B     		ldr	r3, [sp, #8]
 5634 1e02 5B08     		lsrs	r3, r3, #1
 5635 1e04 0293     		str	r3, [sp, #8]
 5636              	.L374:
 5637              		.loc 1 2786 0 discriminator 1
 5638 1e06 029B     		ldr	r3, [sp, #8]
 5639 1e08 002B     		cmp	r3, #0
 5640 1e0a F1D1     		bne	.L376
 5641              		.loc 1 2794 0
 5642 1e0c 039B     		ldr	r3, [sp, #12]
 5643              		.loc 1 2795 0
 5644 1e0e 1846     		mov	r0, r3
 5645 1e10 04B0     		add	sp, sp, #16
 5646              		@ sp needed
 5647 1e12 7047     		bx	lr
 5648              		.cfi_endproc
 5649              	.LFE189:
 5650              		.size	DFSDM_GetInjChannelsNbr, .-DFSDM_GetInjChannelsNbr
ARM GAS  /tmp/ccjyqKqb.s 			page 101


 5651              		.align	2
 5652 1e14 AFF30080 		.p2align 4,,15
 5652      AFF30080 
 5652      AFF30080 
 5653              		.thumb
 5654              		.thumb_func
 5655              		.type	DFSDM_GetChannelFromInstance, %function
 5656              	DFSDM_GetChannelFromInstance:
 5657              	.LFB190:
 5658              		.loc 1 2803 0
 5659              		.cfi_startproc
 5660              		@ args = 0, pretend = 0, frame = 16
 5661              		@ frame_needed = 0, uses_anonymous_args = 0
 5662              		@ link register save eliminated.
 5663 1e20 84B0     		sub	sp, sp, #16
 5664              		.cfi_def_cfa_offset 16
 5665 1e22 0190     		str	r0, [sp, #4]
 5666              		.loc 1 2804 0
 5667 1e24 FF23     		movs	r3, #255
 5668 1e26 0393     		str	r3, [sp, #12]
 5669              		.loc 1 2807 0
 5670 1e28 019A     		ldr	r2, [sp, #4]
 5671 1e2a 1D4B     		ldr	r3, .L388
 5672 1e2c 9A42     		cmp	r2, r3
 5673 1e2e 02D1     		bne	.L379
 5674              		.loc 1 2809 0
 5675 1e30 0023     		movs	r3, #0
 5676 1e32 0393     		str	r3, [sp, #12]
 5677 1e34 2FE0     		b	.L380
 5678              	.L379:
 5679              		.loc 1 2811 0
 5680 1e36 019A     		ldr	r2, [sp, #4]
 5681 1e38 1A4B     		ldr	r3, .L388+4
 5682 1e3a 9A42     		cmp	r2, r3
 5683 1e3c 02D1     		bne	.L381
 5684              		.loc 1 2813 0
 5685 1e3e 0123     		movs	r3, #1
 5686 1e40 0393     		str	r3, [sp, #12]
 5687 1e42 28E0     		b	.L380
 5688              	.L381:
 5689              		.loc 1 2815 0
 5690 1e44 019A     		ldr	r2, [sp, #4]
 5691 1e46 184B     		ldr	r3, .L388+8
 5692 1e48 9A42     		cmp	r2, r3
 5693 1e4a 02D1     		bne	.L382
 5694              		.loc 1 2817 0
 5695 1e4c 0223     		movs	r3, #2
 5696 1e4e 0393     		str	r3, [sp, #12]
 5697 1e50 21E0     		b	.L380
 5698              	.L382:
 5699              		.loc 1 2819 0
 5700 1e52 019A     		ldr	r2, [sp, #4]
 5701 1e54 154B     		ldr	r3, .L388+12
 5702 1e56 9A42     		cmp	r2, r3
 5703 1e58 02D1     		bne	.L383
 5704              		.loc 1 2821 0
 5705 1e5a 0323     		movs	r3, #3
ARM GAS  /tmp/ccjyqKqb.s 			page 102


 5706 1e5c 0393     		str	r3, [sp, #12]
 5707 1e5e 1AE0     		b	.L380
 5708              	.L383:
 5709              		.loc 1 2823 0
 5710 1e60 019A     		ldr	r2, [sp, #4]
 5711 1e62 134B     		ldr	r3, .L388+16
 5712 1e64 9A42     		cmp	r2, r3
 5713 1e66 02D1     		bne	.L384
 5714              		.loc 1 2825 0
 5715 1e68 0423     		movs	r3, #4
 5716 1e6a 0393     		str	r3, [sp, #12]
 5717 1e6c 13E0     		b	.L380
 5718              	.L384:
 5719              		.loc 1 2827 0
 5720 1e6e 019A     		ldr	r2, [sp, #4]
 5721 1e70 104B     		ldr	r3, .L388+20
 5722 1e72 9A42     		cmp	r2, r3
 5723 1e74 02D1     		bne	.L385
 5724              		.loc 1 2829 0
 5725 1e76 0523     		movs	r3, #5
 5726 1e78 0393     		str	r3, [sp, #12]
 5727 1e7a 0CE0     		b	.L380
 5728              	.L385:
 5729              		.loc 1 2831 0
 5730 1e7c 019A     		ldr	r2, [sp, #4]
 5731 1e7e 0E4B     		ldr	r3, .L388+24
 5732 1e80 9A42     		cmp	r2, r3
 5733 1e82 02D1     		bne	.L386
 5734              		.loc 1 2833 0
 5735 1e84 0623     		movs	r3, #6
 5736 1e86 0393     		str	r3, [sp, #12]
 5737 1e88 05E0     		b	.L380
 5738              	.L386:
 5739              		.loc 1 2835 0
 5740 1e8a 019A     		ldr	r2, [sp, #4]
 5741 1e8c 0B4B     		ldr	r3, .L388+28
 5742 1e8e 9A42     		cmp	r2, r3
 5743 1e90 01D1     		bne	.L380
 5744              		.loc 1 2837 0
 5745 1e92 0723     		movs	r3, #7
 5746 1e94 0393     		str	r3, [sp, #12]
 5747              	.L380:
 5748              		.loc 1 2840 0
 5749 1e96 039B     		ldr	r3, [sp, #12]
 5750              		.loc 1 2841 0
 5751 1e98 1846     		mov	r0, r3
 5752 1e9a 04B0     		add	sp, sp, #16
 5753              		@ sp needed
 5754 1e9c 7047     		bx	lr
 5755              	.L389:
 5756 1e9e 00BF     		.align	2
 5757              	.L388:
 5758 1ea0 00600140 		.word	1073831936
 5759 1ea4 20600140 		.word	1073831968
 5760 1ea8 40600140 		.word	1073832000
 5761 1eac 60600140 		.word	1073832032
 5762 1eb0 80600140 		.word	1073832064
ARM GAS  /tmp/ccjyqKqb.s 			page 103


 5763 1eb4 A0600140 		.word	1073832096
 5764 1eb8 C0600140 		.word	1073832128
 5765 1ebc E0600140 		.word	1073832160
 5766              		.cfi_endproc
 5767              	.LFE190:
 5768              		.size	DFSDM_GetChannelFromInstance, .-DFSDM_GetChannelFromInstance
 5769              		.align	2
 5770              		.p2align 4,,15
 5771              		.thumb
 5772              		.thumb_func
 5773              		.type	DFSDM_RegConvStart, %function
 5774              	DFSDM_RegConvStart:
 5775              	.LFB191:
 5776              		.loc 1 2849 0
 5777              		.cfi_startproc
 5778              		@ args = 0, pretend = 0, frame = 8
 5779              		@ frame_needed = 0, uses_anonymous_args = 0
 5780              		@ link register save eliminated.
 5781 1ec0 82B0     		sub	sp, sp, #8
 5782              		.cfi_def_cfa_offset 8
 5783 1ec2 0190     		str	r0, [sp, #4]
 5784              		.loc 1 2851 0
 5785 1ec4 019B     		ldr	r3, [sp, #4]
 5786 1ec6 5B6B     		ldr	r3, [r3, #52]
 5787 1ec8 002B     		cmp	r3, #0
 5788 1eca 08D1     		bne	.L391
 5789              		.loc 1 2854 0
 5790 1ecc 019B     		ldr	r3, [sp, #4]
 5791 1ece 1B68     		ldr	r3, [r3]
 5792 1ed0 019A     		ldr	r2, [sp, #4]
 5793 1ed2 1268     		ldr	r2, [r2]
 5794 1ed4 1268     		ldr	r2, [r2]
 5795 1ed6 42F40032 		orr	r2, r2, #131072
 5796 1eda 1A60     		str	r2, [r3]
 5797 1edc 33E0     		b	.L392
 5798              	.L391:
 5799              		.loc 1 2859 0
 5800 1ede 019B     		ldr	r3, [sp, #4]
 5801 1ee0 1B68     		ldr	r3, [r3]
 5802 1ee2 019A     		ldr	r2, [sp, #4]
 5803 1ee4 1268     		ldr	r2, [r2]
 5804 1ee6 1268     		ldr	r2, [r2]
 5805 1ee8 22F00102 		bic	r2, r2, #1
 5806 1eec 1A60     		str	r2, [r3]
 5807              		.loc 1 2862 0
 5808 1eee 019B     		ldr	r3, [sp, #4]
 5809 1ef0 1B68     		ldr	r3, [r3]
 5810 1ef2 019A     		ldr	r2, [sp, #4]
 5811 1ef4 1268     		ldr	r2, [r2]
 5812 1ef6 1268     		ldr	r2, [r2]
 5813 1ef8 42F40022 		orr	r2, r2, #524288
 5814 1efc 1A60     		str	r2, [r3]
 5815              		.loc 1 2865 0
 5816 1efe 019B     		ldr	r3, [sp, #4]
 5817 1f00 1B68     		ldr	r3, [r3]
 5818 1f02 019A     		ldr	r2, [sp, #4]
 5819 1f04 1268     		ldr	r2, [r2]
ARM GAS  /tmp/ccjyqKqb.s 			page 104


 5820 1f06 1268     		ldr	r2, [r2]
 5821 1f08 42F00102 		orr	r2, r2, #1
 5822 1f0c 1A60     		str	r2, [r3]
 5823              		.loc 1 2868 0
 5824 1f0e 019B     		ldr	r3, [sp, #4]
 5825 1f10 93F84C30 		ldrb	r3, [r3, #76]	@ zero_extendqisi2
 5826 1f14 032B     		cmp	r3, #3
 5827 1f16 16D1     		bne	.L392
 5828              		.loc 1 2870 0
 5829 1f18 019B     		ldr	r3, [sp, #4]
 5830 1f1a 9B6B     		ldr	r3, [r3, #56]
 5831 1f1c 002B     		cmp	r3, #0
 5832 1f1e 07D1     		bne	.L393
 5833              		.loc 1 2872 0
 5834 1f20 019B     		ldr	r3, [sp, #4]
 5835 1f22 1B68     		ldr	r3, [r3]
 5836 1f24 019A     		ldr	r2, [sp, #4]
 5837 1f26 1268     		ldr	r2, [r2]
 5838 1f28 1268     		ldr	r2, [r2]
 5839 1f2a 42F00202 		orr	r2, r2, #2
 5840 1f2e 1A60     		str	r2, [r3]
 5841              	.L393:
 5842              		.loc 1 2875 0
 5843 1f30 019B     		ldr	r3, [sp, #4]
 5844 1f32 93F84030 		ldrb	r3, [r3, #64]	@ zero_extendqisi2
 5845              		.loc 1 2876 0
 5846 1f36 012B     		cmp	r3, #1
 5847 1f38 02D1     		bne	.L394
 5848              		.loc 1 2876 0 is_stmt 0 discriminator 1
 5849 1f3a 019B     		ldr	r3, [sp, #4]
 5850 1f3c 5B6C     		ldr	r3, [r3, #68]
 5851 1f3e 00E0     		b	.L395
 5852              	.L394:
 5853              		.loc 1 2876 0 discriminator 2
 5854 1f40 0123     		movs	r3, #1
 5855              	.L395:
 5856              		.loc 1 2875 0 is_stmt 1
 5857 1f42 019A     		ldr	r2, [sp, #4]
 5858 1f44 9364     		str	r3, [r2, #72]
 5859              	.L392:
 5860              		.loc 1 2880 0
 5861 1f46 019B     		ldr	r3, [sp, #4]
 5862 1f48 93F84C30 		ldrb	r3, [r3, #76]	@ zero_extendqisi2
 5863 1f4c 012B     		cmp	r3, #1
 5864 1f4e 01D1     		bne	.L396
 5865              		.loc 1 2880 0 is_stmt 0 discriminator 1
 5866 1f50 0223     		movs	r3, #2
 5867 1f52 00E0     		b	.L397
 5868              	.L396:
 5869              		.loc 1 2880 0 discriminator 2
 5870 1f54 0423     		movs	r3, #4
 5871              	.L397:
 5872              		.loc 1 2880 0 discriminator 3
 5873 1f56 019A     		ldr	r2, [sp, #4]
 5874 1f58 82F84C30 		strb	r3, [r2, #76]
 5875              		.loc 1 2882 0 is_stmt 1 discriminator 3
 5876 1f5c 02B0     		add	sp, sp, #8
ARM GAS  /tmp/ccjyqKqb.s 			page 105


 5877              		@ sp needed
 5878 1f5e 7047     		bx	lr
 5879              		.cfi_endproc
 5880              	.LFE191:
 5881              		.size	DFSDM_RegConvStart, .-DFSDM_RegConvStart
 5882              		.align	2
 5883              		.p2align 4,,15
 5884              		.thumb
 5885              		.thumb_func
 5886              		.type	DFSDM_RegConvStop, %function
 5887              	DFSDM_RegConvStop:
 5888              	.LFB192:
 5889              		.loc 1 2890 0
 5890              		.cfi_startproc
 5891              		@ args = 0, pretend = 0, frame = 8
 5892              		@ frame_needed = 0, uses_anonymous_args = 0
 5893              		@ link register save eliminated.
 5894 1f60 82B0     		sub	sp, sp, #8
 5895              		.cfi_def_cfa_offset 8
 5896 1f62 0190     		str	r0, [sp, #4]
 5897              		.loc 1 2892 0
 5898 1f64 019B     		ldr	r3, [sp, #4]
 5899 1f66 1B68     		ldr	r3, [r3]
 5900 1f68 019A     		ldr	r2, [sp, #4]
 5901 1f6a 1268     		ldr	r2, [r2]
 5902 1f6c 1268     		ldr	r2, [r2]
 5903 1f6e 22F00102 		bic	r2, r2, #1
 5904 1f72 1A60     		str	r2, [r3]
 5905              		.loc 1 2895 0
 5906 1f74 019B     		ldr	r3, [sp, #4]
 5907 1f76 5B6B     		ldr	r3, [r3, #52]
 5908 1f78 012B     		cmp	r3, #1
 5909 1f7a 07D1     		bne	.L399
 5910              		.loc 1 2897 0
 5911 1f7c 019B     		ldr	r3, [sp, #4]
 5912 1f7e 1B68     		ldr	r3, [r3]
 5913 1f80 019A     		ldr	r2, [sp, #4]
 5914 1f82 1268     		ldr	r2, [r2]
 5915 1f84 1268     		ldr	r2, [r2]
 5916 1f86 22F40022 		bic	r2, r2, #524288
 5917 1f8a 1A60     		str	r2, [r3]
 5918              	.L399:
 5919              		.loc 1 2901 0
 5920 1f8c 019B     		ldr	r3, [sp, #4]
 5921 1f8e 1B68     		ldr	r3, [r3]
 5922 1f90 019A     		ldr	r2, [sp, #4]
 5923 1f92 1268     		ldr	r2, [r2]
 5924 1f94 1268     		ldr	r2, [r2]
 5925 1f96 42F00102 		orr	r2, r2, #1
 5926 1f9a 1A60     		str	r2, [r3]
 5927              		.loc 1 2904 0
 5928 1f9c 019B     		ldr	r3, [sp, #4]
 5929 1f9e 93F84C30 		ldrb	r3, [r3, #76]	@ zero_extendqisi2
 5930 1fa2 042B     		cmp	r3, #4
 5931 1fa4 16D1     		bne	.L400
 5932              		.loc 1 2906 0
 5933 1fa6 019B     		ldr	r3, [sp, #4]
ARM GAS  /tmp/ccjyqKqb.s 			page 106


 5934 1fa8 9B6B     		ldr	r3, [r3, #56]
 5935 1faa 002B     		cmp	r3, #0
 5936 1fac 07D1     		bne	.L401
 5937              		.loc 1 2908 0
 5938 1fae 019B     		ldr	r3, [sp, #4]
 5939 1fb0 1B68     		ldr	r3, [r3]
 5940 1fb2 019A     		ldr	r2, [sp, #4]
 5941 1fb4 1268     		ldr	r2, [r2]
 5942 1fb6 1268     		ldr	r2, [r2]
 5943 1fb8 42F00202 		orr	r2, r2, #2
 5944 1fbc 1A60     		str	r2, [r3]
 5945              	.L401:
 5946              		.loc 1 2911 0
 5947 1fbe 019B     		ldr	r3, [sp, #4]
 5948 1fc0 93F84030 		ldrb	r3, [r3, #64]	@ zero_extendqisi2
 5949              		.loc 1 2912 0
 5950 1fc4 012B     		cmp	r3, #1
 5951 1fc6 02D1     		bne	.L402
 5952              		.loc 1 2912 0 is_stmt 0 discriminator 1
 5953 1fc8 019B     		ldr	r3, [sp, #4]
 5954 1fca 5B6C     		ldr	r3, [r3, #68]
 5955 1fcc 00E0     		b	.L403
 5956              	.L402:
 5957              		.loc 1 2912 0 discriminator 2
 5958 1fce 0123     		movs	r3, #1
 5959              	.L403:
 5960              		.loc 1 2911 0 is_stmt 1
 5961 1fd0 019A     		ldr	r2, [sp, #4]
 5962 1fd2 9364     		str	r3, [r2, #72]
 5963              	.L400:
 5964              		.loc 1 2916 0
 5965 1fd4 019B     		ldr	r3, [sp, #4]
 5966 1fd6 93F84C30 		ldrb	r3, [r3, #76]	@ zero_extendqisi2
 5967 1fda 022B     		cmp	r3, #2
 5968 1fdc 01D1     		bne	.L404
 5969              		.loc 1 2916 0 is_stmt 0 discriminator 1
 5970 1fde 0123     		movs	r3, #1
 5971 1fe0 00E0     		b	.L405
 5972              	.L404:
 5973              		.loc 1 2916 0 discriminator 2
 5974 1fe2 0323     		movs	r3, #3
 5975              	.L405:
 5976              		.loc 1 2916 0 discriminator 3
 5977 1fe4 019A     		ldr	r2, [sp, #4]
 5978 1fe6 82F84C30 		strb	r3, [r2, #76]
 5979              		.loc 1 2918 0 is_stmt 1 discriminator 3
 5980 1fea 02B0     		add	sp, sp, #8
 5981              		@ sp needed
 5982 1fec 7047     		bx	lr
 5983              		.cfi_endproc
 5984              	.LFE192:
 5985              		.size	DFSDM_RegConvStop, .-DFSDM_RegConvStop
 5986 1fee 00BF     		.align	2
 5987              		.p2align 4,,15
 5988              		.thumb
 5989              		.thumb_func
 5990              		.type	DFSDM_InjConvStart, %function
ARM GAS  /tmp/ccjyqKqb.s 			page 107


 5991              	DFSDM_InjConvStart:
 5992              	.LFB193:
 5993              		.loc 1 2926 0
 5994              		.cfi_startproc
 5995              		@ args = 0, pretend = 0, frame = 8
 5996              		@ frame_needed = 0, uses_anonymous_args = 0
 5997              		@ link register save eliminated.
 5998 1ff0 82B0     		sub	sp, sp, #8
 5999              		.cfi_def_cfa_offset 8
 6000 1ff2 0190     		str	r0, [sp, #4]
 6001              		.loc 1 2928 0
 6002 1ff4 019B     		ldr	r3, [sp, #4]
 6003 1ff6 9B6B     		ldr	r3, [r3, #56]
 6004 1ff8 002B     		cmp	r3, #0
 6005 1ffa 08D1     		bne	.L407
 6006              		.loc 1 2931 0
 6007 1ffc 019B     		ldr	r3, [sp, #4]
 6008 1ffe 1B68     		ldr	r3, [r3]
 6009 2000 019A     		ldr	r2, [sp, #4]
 6010 2002 1268     		ldr	r2, [r2]
 6011 2004 1268     		ldr	r2, [r2]
 6012 2006 42F00202 		orr	r2, r2, #2
 6013 200a 1A60     		str	r2, [r3]
 6014 200c 36E0     		b	.L408
 6015              	.L407:
 6016              		.loc 1 2936 0
 6017 200e 019B     		ldr	r3, [sp, #4]
 6018 2010 1B68     		ldr	r3, [r3]
 6019 2012 019A     		ldr	r2, [sp, #4]
 6020 2014 1268     		ldr	r2, [r2]
 6021 2016 1268     		ldr	r2, [r2]
 6022 2018 22F00102 		bic	r2, r2, #1
 6023 201c 1A60     		str	r2, [r3]
 6024              		.loc 1 2938 0
 6025 201e 019B     		ldr	r3, [sp, #4]
 6026 2020 9B6B     		ldr	r3, [r3, #56]
 6027 2022 012B     		cmp	r3, #1
 6028 2024 08D1     		bne	.L409
 6029              		.loc 1 2941 0
 6030 2026 019B     		ldr	r3, [sp, #4]
 6031 2028 1B68     		ldr	r3, [r3]
 6032 202a 019A     		ldr	r2, [sp, #4]
 6033 202c 1268     		ldr	r2, [r2]
 6034 202e 1268     		ldr	r2, [r2]
 6035 2030 42F00802 		orr	r2, r2, #8
 6036 2034 1A60     		str	r2, [r3]
 6037 2036 08E0     		b	.L410
 6038              	.L409:
 6039              		.loc 1 2946 0
 6040 2038 019B     		ldr	r3, [sp, #4]
 6041 203a 1B68     		ldr	r3, [r3]
 6042 203c 019A     		ldr	r2, [sp, #4]
 6043 203e 1268     		ldr	r2, [r2]
 6044 2040 1168     		ldr	r1, [r2]
 6045 2042 019A     		ldr	r2, [sp, #4]
 6046 2044 D26B     		ldr	r2, [r2, #60]
 6047 2046 0A43     		orrs	r2, r2, r1
ARM GAS  /tmp/ccjyqKqb.s 			page 108


 6048 2048 1A60     		str	r2, [r3]
 6049              	.L410:
 6050              		.loc 1 2950 0
 6051 204a 019B     		ldr	r3, [sp, #4]
 6052 204c 1B68     		ldr	r3, [r3]
 6053 204e 019A     		ldr	r2, [sp, #4]
 6054 2050 1268     		ldr	r2, [r2]
 6055 2052 1268     		ldr	r2, [r2]
 6056 2054 42F00102 		orr	r2, r2, #1
 6057 2058 1A60     		str	r2, [r3]
 6058              		.loc 1 2953 0
 6059 205a 019B     		ldr	r3, [sp, #4]
 6060 205c 93F84C30 		ldrb	r3, [r3, #76]	@ zero_extendqisi2
 6061 2060 022B     		cmp	r3, #2
 6062 2062 0BD1     		bne	.L408
 6063              		.loc 1 2954 0 discriminator 1
 6064 2064 019B     		ldr	r3, [sp, #4]
 6065 2066 5B6B     		ldr	r3, [r3, #52]
 6066              		.loc 1 2953 0 discriminator 1
 6067 2068 002B     		cmp	r3, #0
 6068 206a 07D1     		bne	.L408
 6069              		.loc 1 2956 0
 6070 206c 019B     		ldr	r3, [sp, #4]
 6071 206e 1B68     		ldr	r3, [r3]
 6072 2070 019A     		ldr	r2, [sp, #4]
 6073 2072 1268     		ldr	r2, [r2]
 6074 2074 1268     		ldr	r2, [r2]
 6075 2076 42F40032 		orr	r2, r2, #131072
 6076 207a 1A60     		str	r2, [r3]
 6077              	.L408:
 6078              		.loc 1 2960 0
 6079 207c 019B     		ldr	r3, [sp, #4]
 6080 207e 93F84C30 		ldrb	r3, [r3, #76]	@ zero_extendqisi2
 6081 2082 012B     		cmp	r3, #1
 6082 2084 01D1     		bne	.L411
 6083              		.loc 1 2960 0 is_stmt 0 discriminator 1
 6084 2086 0323     		movs	r3, #3
 6085 2088 00E0     		b	.L412
 6086              	.L411:
 6087              		.loc 1 2960 0 discriminator 2
 6088 208a 0423     		movs	r3, #4
 6089              	.L412:
 6090              		.loc 1 2960 0 discriminator 3
 6091 208c 019A     		ldr	r2, [sp, #4]
 6092 208e 82F84C30 		strb	r3, [r2, #76]
 6093              		.loc 1 2962 0 is_stmt 1 discriminator 3
 6094 2092 02B0     		add	sp, sp, #8
 6095              		@ sp needed
 6096 2094 7047     		bx	lr
 6097              		.cfi_endproc
 6098              	.LFE193:
 6099              		.size	DFSDM_InjConvStart, .-DFSDM_InjConvStart
 6100 2096 00BF     		.align	2
 6101 2098 AFF30080 		.p2align 4,,15
 6101      AFF30080 
 6102              		.thumb
 6103              		.thumb_func
ARM GAS  /tmp/ccjyqKqb.s 			page 109


 6104              		.type	DFSDM_InjConvStop, %function
 6105              	DFSDM_InjConvStop:
 6106              	.LFB194:
 6107              		.loc 1 2970 0
 6108              		.cfi_startproc
 6109              		@ args = 0, pretend = 0, frame = 8
 6110              		@ frame_needed = 0, uses_anonymous_args = 0
 6111              		@ link register save eliminated.
 6112 20a0 82B0     		sub	sp, sp, #8
 6113              		.cfi_def_cfa_offset 8
 6114 20a2 0190     		str	r0, [sp, #4]
 6115              		.loc 1 2972 0
 6116 20a4 019B     		ldr	r3, [sp, #4]
 6117 20a6 1B68     		ldr	r3, [r3]
 6118 20a8 019A     		ldr	r2, [sp, #4]
 6119 20aa 1268     		ldr	r2, [r2]
 6120 20ac 1268     		ldr	r2, [r2]
 6121 20ae 22F00102 		bic	r2, r2, #1
 6122 20b2 1A60     		str	r2, [r3]
 6123              		.loc 1 2975 0
 6124 20b4 019B     		ldr	r3, [sp, #4]
 6125 20b6 9B6B     		ldr	r3, [r3, #56]
 6126 20b8 012B     		cmp	r3, #1
 6127 20ba 08D1     		bne	.L414
 6128              		.loc 1 2977 0
 6129 20bc 019B     		ldr	r3, [sp, #4]
 6130 20be 1B68     		ldr	r3, [r3]
 6131 20c0 019A     		ldr	r2, [sp, #4]
 6132 20c2 1268     		ldr	r2, [r2]
 6133 20c4 1268     		ldr	r2, [r2]
 6134 20c6 22F00802 		bic	r2, r2, #8
 6135 20ca 1A60     		str	r2, [r3]
 6136 20cc 0BE0     		b	.L415
 6137              	.L414:
 6138              		.loc 1 2979 0
 6139 20ce 019B     		ldr	r3, [sp, #4]
 6140 20d0 9B6B     		ldr	r3, [r3, #56]
 6141 20d2 022B     		cmp	r3, #2
 6142 20d4 07D1     		bne	.L415
 6143              		.loc 1 2982 0
 6144 20d6 019B     		ldr	r3, [sp, #4]
 6145 20d8 1B68     		ldr	r3, [r3]
 6146 20da 019A     		ldr	r2, [sp, #4]
 6147 20dc 1268     		ldr	r2, [r2]
 6148 20de 1268     		ldr	r2, [r2]
 6149 20e0 22F4C042 		bic	r2, r2, #24576
 6150 20e4 1A60     		str	r2, [r3]
 6151              	.L415:
 6152              		.loc 1 2986 0
 6153 20e6 019B     		ldr	r3, [sp, #4]
 6154 20e8 1B68     		ldr	r3, [r3]
 6155 20ea 019A     		ldr	r2, [sp, #4]
 6156 20ec 1268     		ldr	r2, [r2]
 6157 20ee 1268     		ldr	r2, [r2]
 6158 20f0 42F00102 		orr	r2, r2, #1
 6159 20f4 1A60     		str	r2, [r3]
 6160              		.loc 1 2989 0
ARM GAS  /tmp/ccjyqKqb.s 			page 110


 6161 20f6 019B     		ldr	r3, [sp, #4]
 6162 20f8 93F84C30 		ldrb	r3, [r3, #76]	@ zero_extendqisi2
 6163 20fc 042B     		cmp	r3, #4
 6164 20fe 0BD1     		bne	.L416
 6165              		.loc 1 2990 0 discriminator 1
 6166 2100 019B     		ldr	r3, [sp, #4]
 6167 2102 5B6B     		ldr	r3, [r3, #52]
 6168              		.loc 1 2989 0 discriminator 1
 6169 2104 002B     		cmp	r3, #0
 6170 2106 07D1     		bne	.L416
 6171              		.loc 1 2992 0
 6172 2108 019B     		ldr	r3, [sp, #4]
 6173 210a 1B68     		ldr	r3, [r3]
 6174 210c 019A     		ldr	r2, [sp, #4]
 6175 210e 1268     		ldr	r2, [r2]
 6176 2110 1268     		ldr	r2, [r2]
 6177 2112 42F40032 		orr	r2, r2, #131072
 6178 2116 1A60     		str	r2, [r3]
 6179              	.L416:
 6180              		.loc 1 2996 0
 6181 2118 019B     		ldr	r3, [sp, #4]
 6182 211a 93F84030 		ldrb	r3, [r3, #64]	@ zero_extendqisi2
 6183              		.loc 1 2997 0
 6184 211e 012B     		cmp	r3, #1
 6185 2120 02D1     		bne	.L417
 6186              		.loc 1 2997 0 is_stmt 0 discriminator 1
 6187 2122 019B     		ldr	r3, [sp, #4]
 6188 2124 5B6C     		ldr	r3, [r3, #68]
 6189 2126 00E0     		b	.L418
 6190              	.L417:
 6191              		.loc 1 2997 0 discriminator 2
 6192 2128 0123     		movs	r3, #1
 6193              	.L418:
 6194              		.loc 1 2996 0 is_stmt 1
 6195 212a 019A     		ldr	r2, [sp, #4]
 6196 212c 9364     		str	r3, [r2, #72]
 6197              		.loc 1 3000 0
 6198 212e 019B     		ldr	r3, [sp, #4]
 6199 2130 93F84C30 		ldrb	r3, [r3, #76]	@ zero_extendqisi2
 6200 2134 032B     		cmp	r3, #3
 6201 2136 01D1     		bne	.L419
 6202              		.loc 1 3000 0 is_stmt 0 discriminator 1
 6203 2138 0123     		movs	r3, #1
 6204 213a 00E0     		b	.L420
 6205              	.L419:
 6206              		.loc 1 3000 0 discriminator 2
 6207 213c 0223     		movs	r3, #2
 6208              	.L420:
 6209              		.loc 1 3000 0 discriminator 3
 6210 213e 019A     		ldr	r2, [sp, #4]
 6211 2140 82F84C30 		strb	r3, [r2, #76]
 6212              		.loc 1 3002 0 is_stmt 1 discriminator 3
 6213 2144 02B0     		add	sp, sp, #8
 6214              		@ sp needed
 6215 2146 7047     		bx	lr
 6216              		.cfi_endproc
 6217              	.LFE194:
ARM GAS  /tmp/ccjyqKqb.s 			page 111


 6218              		.size	DFSDM_InjConvStop, .-DFSDM_InjConvStop
 6219              	.Letext0:
 6220              		.file 3 "/nfs/nfs5/home/research/hardware/arm2/gcc-arm-embedded/gcc-arm-none-eabi-4_8-2014q2/arm-n
 6221              		.file 4 "/nfs/nfs5/home/research/hardware/arm2/gcc-arm-embedded/gcc-arm-none-eabi-4_8-2014q2/arm-n
 6222              		.file 5 "../../../../../../ChibiOS/os/ext/CMSIS/ST/STM32L4xx/stm32l476xx.h"
 6223              		.file 6 "../../../../../../ChibiOS/os/ext/CMSIS/ST/STM32L4xx/stm32l4xx.h"
 6224              		.file 7 "../../../../../Drivers/STM32L4xx_HAL_Driver/Inc/stm32l4xx_hal_def.h"
 6225              		.file 8 "../../../../../Drivers/STM32L4xx_HAL_Driver/Inc/stm32l4xx_hal_dma.h"
 6226              		.file 9 "../../../../../Drivers/STM32L4xx_HAL_Driver/Inc/stm32l4xx_hal_dfsdm.h"
 6227              		.file 10 "../../../../../../ChibiOS/os/ext/CMSIS/include/core_cm4.h"