ARM GAS  /tmp/ccyGh5bb.s 			page 1


   1              		.syntax unified
   2              		.cpu cortex-m4
   3              		.fpu softvfp
   4              		.eabi_attribute 20, 1
   5              		.eabi_attribute 21, 1
   6              		.eabi_attribute 23, 3
   7              		.eabi_attribute 24, 1
   8              		.eabi_attribute 25, 1
   9              		.eabi_attribute 26, 1
  10              		.eabi_attribute 30, 6
  11              		.eabi_attribute 34, 1
  12              		.eabi_attribute 18, 4
  13              		.thumb
  14              		.file	"stm32l4xx_hal_dma.c"
  15              		.text
  16              	.Ltext0:
  17              		.cfi_sections	.debug_frame
  18              		.align	2
  19              		.p2align 4,,15
  20              		.global	HAL_DMA_Init
  21              		.thumb
  22              		.thumb_func
  23              		.type	HAL_DMA_Init, %function
  24              	HAL_DMA_Init:
  25              	.LFB125:
  26              		.file 1 "../../../../../Drivers/STM32L4xx_HAL_Driver/Src/stm32l4xx_hal_dma.c"
  27              		.loc 1 162 0
  28              		.cfi_startproc
  29              		@ args = 0, pretend = 0, frame = 16
  30              		@ frame_needed = 0, uses_anonymous_args = 0
  31              		@ link register save eliminated.
  32 0000 84B0     		sub	sp, sp, #16
  33              		.cfi_def_cfa_offset 16
  34 0002 0190     		str	r0, [sp, #4]
  35              		.loc 1 163 0
  36 0004 0023     		movs	r3, #0
  37 0006 0393     		str	r3, [sp, #12]
  38              		.loc 1 166 0
  39 0008 019B     		ldr	r3, [sp, #4]
  40 000a 002B     		cmp	r3, #0
  41 000c 01D1     		bne	.L2
  42              		.loc 1 168 0
  43 000e 0123     		movs	r3, #1
  44 0010 9CE0     		b	.L3
  45              	.L2:
  46              		.loc 1 186 0
  47 0012 019B     		ldr	r3, [sp, #4]
  48 0014 1B68     		ldr	r3, [r3]
  49 0016 1A46     		mov	r2, r3
  50 0018 4E4B     		ldr	r3, .L8
  51 001a 9A42     		cmp	r2, r3
  52 001c 0FD8     		bhi	.L4
  53              		.loc 1 189 0
  54 001e 019B     		ldr	r3, [sp, #4]
  55 0020 1B68     		ldr	r3, [r3]
  56 0022 1A46     		mov	r2, r3
  57 0024 4C4B     		ldr	r3, .L8+4
ARM GAS  /tmp/ccyGh5bb.s 			page 2


  58 0026 1344     		add	r3, r3, r2
  59 0028 4C4A     		ldr	r2, .L8+8
  60 002a A2FB0313 		umull	r1, r3, r2, r3
  61 002e 1B09     		lsrs	r3, r3, #4
  62 0030 9A00     		lsls	r2, r3, #2
  63 0032 019B     		ldr	r3, [sp, #4]
  64 0034 5A64     		str	r2, [r3, #68]
  65              		.loc 1 190 0
  66 0036 019B     		ldr	r3, [sp, #4]
  67 0038 494A     		ldr	r2, .L8+12
  68 003a 1A64     		str	r2, [r3, #64]
  69 003c 0EE0     		b	.L5
  70              	.L4:
  71              		.loc 1 195 0
  72 003e 019B     		ldr	r3, [sp, #4]
  73 0040 1B68     		ldr	r3, [r3]
  74 0042 1A46     		mov	r2, r3
  75 0044 474B     		ldr	r3, .L8+16
  76 0046 1344     		add	r3, r3, r2
  77 0048 444A     		ldr	r2, .L8+8
  78 004a A2FB0313 		umull	r1, r3, r2, r3
  79 004e 1B09     		lsrs	r3, r3, #4
  80 0050 9A00     		lsls	r2, r3, #2
  81 0052 019B     		ldr	r3, [sp, #4]
  82 0054 5A64     		str	r2, [r3, #68]
  83              		.loc 1 196 0
  84 0056 019B     		ldr	r3, [sp, #4]
  85 0058 434A     		ldr	r2, .L8+20
  86 005a 1A64     		str	r2, [r3, #64]
  87              	.L5:
  88              		.loc 1 200 0
  89 005c 019B     		ldr	r3, [sp, #4]
  90 005e 0222     		movs	r2, #2
  91 0060 83F82520 		strb	r2, [r3, #37]
  92              		.loc 1 203 0
  93 0064 019B     		ldr	r3, [sp, #4]
  94 0066 1B68     		ldr	r3, [r3]
  95 0068 1B68     		ldr	r3, [r3]
  96 006a 0393     		str	r3, [sp, #12]
  97              		.loc 1 206 0
  98 006c 039B     		ldr	r3, [sp, #12]
  99 006e 23F47F53 		bic	r3, r3, #16320
 100 0072 23F03003 		bic	r3, r3, #48
 101 0076 0393     		str	r3, [sp, #12]
 102              		.loc 1 211 0
 103 0078 019B     		ldr	r3, [sp, #4]
 104 007a 9A68     		ldr	r2, [r3, #8]
 105              		.loc 1 212 0
 106 007c 019B     		ldr	r3, [sp, #4]
 107 007e DB68     		ldr	r3, [r3, #12]
 108              		.loc 1 211 0
 109 0080 1A43     		orrs	r2, r2, r3
 110              		.loc 1 212 0
 111 0082 019B     		ldr	r3, [sp, #4]
 112 0084 1B69     		ldr	r3, [r3, #16]
 113 0086 1A43     		orrs	r2, r2, r3
 114              		.loc 1 213 0
ARM GAS  /tmp/ccyGh5bb.s 			page 3


 115 0088 019B     		ldr	r3, [sp, #4]
 116 008a 5B69     		ldr	r3, [r3, #20]
 117              		.loc 1 212 0
 118 008c 1A43     		orrs	r2, r2, r3
 119              		.loc 1 213 0
 120 008e 019B     		ldr	r3, [sp, #4]
 121 0090 9B69     		ldr	r3, [r3, #24]
 122 0092 1A43     		orrs	r2, r2, r3
 123              		.loc 1 214 0
 124 0094 019B     		ldr	r3, [sp, #4]
 125 0096 DB69     		ldr	r3, [r3, #28]
 126              		.loc 1 213 0
 127 0098 1A43     		orrs	r2, r2, r3
 128              		.loc 1 214 0
 129 009a 019B     		ldr	r3, [sp, #4]
 130 009c 1B6A     		ldr	r3, [r3, #32]
 131 009e 1343     		orrs	r3, r3, r2
 132              		.loc 1 211 0
 133 00a0 039A     		ldr	r2, [sp, #12]
 134 00a2 1343     		orrs	r3, r3, r2
 135 00a4 0393     		str	r3, [sp, #12]
 136              		.loc 1 217 0
 137 00a6 019B     		ldr	r3, [sp, #4]
 138 00a8 1B68     		ldr	r3, [r3]
 139 00aa 039A     		ldr	r2, [sp, #12]
 140 00ac 1A60     		str	r2, [r3]
 141              		.loc 1 220 0
 142 00ae 019B     		ldr	r3, [sp, #4]
 143 00b0 9B68     		ldr	r3, [r3, #8]
 144 00b2 B3F5804F 		cmp	r3, #16384
 145 00b6 31D0     		beq	.L6
 146              		.loc 1 223 0
 147 00b8 019B     		ldr	r3, [sp, #4]
 148 00ba 1A6C     		ldr	r2, [r3, #64]
 149 00bc 284B     		ldr	r3, .L8+12
 150 00be 9A42     		cmp	r2, r3
 151 00c0 16D1     		bne	.L7
 152              		.loc 1 226 0
 153 00c2 2A4B     		ldr	r3, .L8+24
 154 00c4 294A     		ldr	r2, .L8+24
 155 00c6 1168     		ldr	r1, [r2]
 156 00c8 019A     		ldr	r2, [sp, #4]
 157 00ca 526C     		ldr	r2, [r2, #68]
 158 00cc 0F20     		movs	r0, #15
 159 00ce 00FA02F2 		lsl	r2, r0, r2
 160 00d2 D243     		mvns	r2, r2
 161 00d4 0A40     		ands	r2, r2, r1
 162 00d6 1A60     		str	r2, [r3]
 163              		.loc 1 229 0
 164 00d8 244B     		ldr	r3, .L8+24
 165 00da 244A     		ldr	r2, .L8+24
 166 00dc 1168     		ldr	r1, [r2]
 167 00de 019A     		ldr	r2, [sp, #4]
 168 00e0 5068     		ldr	r0, [r2, #4]
 169 00e2 019A     		ldr	r2, [sp, #4]
 170 00e4 526C     		ldr	r2, [r2, #68]
 171 00e6 00FA02F2 		lsl	r2, r0, r2
ARM GAS  /tmp/ccyGh5bb.s 			page 4


 172 00ea 0A43     		orrs	r2, r2, r1
 173 00ec 1A60     		str	r2, [r3]
 174 00ee 15E0     		b	.L6
 175              	.L7:
 176              		.loc 1 234 0
 177 00f0 1F4B     		ldr	r3, .L8+28
 178 00f2 1F4A     		ldr	r2, .L8+28
 179 00f4 1168     		ldr	r1, [r2]
 180 00f6 019A     		ldr	r2, [sp, #4]
 181 00f8 526C     		ldr	r2, [r2, #68]
 182 00fa 0F20     		movs	r0, #15
 183 00fc 00FA02F2 		lsl	r2, r0, r2
 184 0100 D243     		mvns	r2, r2
 185 0102 0A40     		ands	r2, r2, r1
 186 0104 1A60     		str	r2, [r3]
 187              		.loc 1 237 0
 188 0106 1A4B     		ldr	r3, .L8+28
 189 0108 194A     		ldr	r2, .L8+28
 190 010a 1168     		ldr	r1, [r2]
 191 010c 019A     		ldr	r2, [sp, #4]
 192 010e 5068     		ldr	r0, [r2, #4]
 193 0110 019A     		ldr	r2, [sp, #4]
 194 0112 526C     		ldr	r2, [r2, #68]
 195 0114 00FA02F2 		lsl	r2, r0, r2
 196 0118 0A43     		orrs	r2, r2, r1
 197 011a 1A60     		str	r2, [r3]
 198              	.L6:
 199              		.loc 1 242 0
 200 011c 019B     		ldr	r3, [sp, #4]
 201 011e 0022     		movs	r2, #0
 202 0120 DA62     		str	r2, [r3, #44]
 203              		.loc 1 243 0
 204 0122 019B     		ldr	r3, [sp, #4]
 205 0124 0022     		movs	r2, #0
 206 0126 1A63     		str	r2, [r3, #48]
 207              		.loc 1 244 0
 208 0128 019B     		ldr	r3, [sp, #4]
 209 012a 0022     		movs	r2, #0
 210 012c 5A63     		str	r2, [r3, #52]
 211              		.loc 1 245 0
 212 012e 019B     		ldr	r3, [sp, #4]
 213 0130 0022     		movs	r2, #0
 214 0132 9A63     		str	r2, [r3, #56]
 215              		.loc 1 248 0
 216 0134 019B     		ldr	r3, [sp, #4]
 217 0136 0022     		movs	r2, #0
 218 0138 DA63     		str	r2, [r3, #60]
 219              		.loc 1 251 0
 220 013a 019B     		ldr	r3, [sp, #4]
 221 013c 0122     		movs	r2, #1
 222 013e 83F82520 		strb	r2, [r3, #37]
 223              		.loc 1 254 0
 224 0142 019B     		ldr	r3, [sp, #4]
 225 0144 0022     		movs	r2, #0
 226 0146 83F82420 		strb	r2, [r3, #36]
 227              		.loc 1 256 0
 228 014a 0023     		movs	r3, #0
ARM GAS  /tmp/ccyGh5bb.s 			page 5


 229              	.L3:
 230              		.loc 1 257 0
 231 014c 1846     		mov	r0, r3
 232 014e 04B0     		add	sp, sp, #16
 233              		@ sp needed
 234 0150 7047     		bx	lr
 235              	.L9:
 236 0152 00BF     		.align	2
 237              	.L8:
 238 0154 07040240 		.word	1073873927
 239 0158 F8FFFDBF 		.word	-1073872904
 240 015c CDCCCCCC 		.word	-858993459
 241 0160 00000240 		.word	1073872896
 242 0164 F8FBFDBF 		.word	-1073873928
 243 0168 00040240 		.word	1073873920
 244 016c A8000240 		.word	1073873064
 245 0170 A8040240 		.word	1073874088
 246              		.cfi_endproc
 247              	.LFE125:
 248              		.size	HAL_DMA_Init, .-HAL_DMA_Init
 249              		.align	2
 250 0174 AFF30080 		.p2align 4,,15
 250      AFF30080 
 250      AFF30080 
 251              		.global	HAL_DMA_DeInit
 252              		.thumb
 253              		.thumb_func
 254              		.type	HAL_DMA_DeInit, %function
 255              	HAL_DMA_DeInit:
 256              	.LFB126:
 257              		.loc 1 266 0
 258              		.cfi_startproc
 259              		@ args = 0, pretend = 0, frame = 8
 260              		@ frame_needed = 0, uses_anonymous_args = 0
 261              		@ link register save eliminated.
 262 0180 82B0     		sub	sp, sp, #8
 263              		.cfi_def_cfa_offset 8
 264 0182 0190     		str	r0, [sp, #4]
 265              		.loc 1 268 0
 266 0184 019B     		ldr	r3, [sp, #4]
 267 0186 002B     		cmp	r3, #0
 268 0188 01D1     		bne	.L11
 269              		.loc 1 270 0
 270 018a 0123     		movs	r3, #1
 271 018c 64E0     		b	.L12
 272              	.L11:
 273              		.loc 1 277 0
 274 018e 019B     		ldr	r3, [sp, #4]
 275 0190 1B68     		ldr	r3, [r3]
 276 0192 019A     		ldr	r2, [sp, #4]
 277 0194 1268     		ldr	r2, [r2]
 278 0196 1268     		ldr	r2, [r2]
 279 0198 22F00102 		bic	r2, r2, #1
 280 019c 1A60     		str	r2, [r3]
 281              		.loc 1 280 0
 282 019e 019B     		ldr	r3, [sp, #4]
 283 01a0 1B68     		ldr	r3, [r3]
ARM GAS  /tmp/ccyGh5bb.s 			page 6


 284 01a2 0022     		movs	r2, #0
 285 01a4 1A60     		str	r2, [r3]
 286              		.loc 1 283 0
 287 01a6 019B     		ldr	r3, [sp, #4]
 288 01a8 1B68     		ldr	r3, [r3]
 289 01aa 1A46     		mov	r2, r3
 290 01ac 2C4B     		ldr	r3, .L17
 291 01ae 9A42     		cmp	r2, r3
 292 01b0 0FD8     		bhi	.L13
 293              		.loc 1 286 0
 294 01b2 019B     		ldr	r3, [sp, #4]
 295 01b4 1B68     		ldr	r3, [r3]
 296 01b6 1A46     		mov	r2, r3
 297 01b8 2A4B     		ldr	r3, .L17+4
 298 01ba 1344     		add	r3, r3, r2
 299 01bc 2A4A     		ldr	r2, .L17+8
 300 01be A2FB0313 		umull	r1, r3, r2, r3
 301 01c2 1B09     		lsrs	r3, r3, #4
 302 01c4 9A00     		lsls	r2, r3, #2
 303 01c6 019B     		ldr	r3, [sp, #4]
 304 01c8 5A64     		str	r2, [r3, #68]
 305              		.loc 1 287 0
 306 01ca 019B     		ldr	r3, [sp, #4]
 307 01cc 274A     		ldr	r2, .L17+12
 308 01ce 1A64     		str	r2, [r3, #64]
 309 01d0 0EE0     		b	.L14
 310              	.L13:
 311              		.loc 1 292 0
 312 01d2 019B     		ldr	r3, [sp, #4]
 313 01d4 1B68     		ldr	r3, [r3]
 314 01d6 1A46     		mov	r2, r3
 315 01d8 254B     		ldr	r3, .L17+16
 316 01da 1344     		add	r3, r3, r2
 317 01dc 224A     		ldr	r2, .L17+8
 318 01de A2FB0313 		umull	r1, r3, r2, r3
 319 01e2 1B09     		lsrs	r3, r3, #4
 320 01e4 9A00     		lsls	r2, r3, #2
 321 01e6 019B     		ldr	r3, [sp, #4]
 322 01e8 5A64     		str	r2, [r3, #68]
 323              		.loc 1 293 0
 324 01ea 019B     		ldr	r3, [sp, #4]
 325 01ec 214A     		ldr	r2, .L17+20
 326 01ee 1A64     		str	r2, [r3, #64]
 327              	.L14:
 328              		.loc 1 298 0
 329 01f0 019B     		ldr	r3, [sp, #4]
 330 01f2 1B6C     		ldr	r3, [r3, #64]
 331 01f4 019A     		ldr	r2, [sp, #4]
 332 01f6 126C     		ldr	r2, [r2, #64]
 333 01f8 5168     		ldr	r1, [r2, #4]
 334 01fa 019A     		ldr	r2, [sp, #4]
 335 01fc 526C     		ldr	r2, [r2, #68]
 336 01fe 0120     		movs	r0, #1
 337 0200 00FA02F2 		lsl	r2, r0, r2
 338 0204 0A43     		orrs	r2, r2, r1
 339 0206 5A60     		str	r2, [r3, #4]
 340              		.loc 1 301 0
ARM GAS  /tmp/ccyGh5bb.s 			page 7


 341 0208 019B     		ldr	r3, [sp, #4]
 342 020a 1A6C     		ldr	r2, [r3, #64]
 343 020c 174B     		ldr	r3, .L17+12
 344 020e 9A42     		cmp	r2, r3
 345 0210 0BD1     		bne	.L15
 346              		.loc 1 304 0
 347 0212 194B     		ldr	r3, .L17+24
 348 0214 184A     		ldr	r2, .L17+24
 349 0216 1168     		ldr	r1, [r2]
 350 0218 019A     		ldr	r2, [sp, #4]
 351 021a 526C     		ldr	r2, [r2, #68]
 352 021c 0F20     		movs	r0, #15
 353 021e 00FA02F2 		lsl	r2, r0, r2
 354 0222 D243     		mvns	r2, r2
 355 0224 0A40     		ands	r2, r2, r1
 356 0226 1A60     		str	r2, [r3]
 357 0228 0AE0     		b	.L16
 358              	.L15:
 359              		.loc 1 309 0
 360 022a 144B     		ldr	r3, .L17+28
 361 022c 134A     		ldr	r2, .L17+28
 362 022e 1168     		ldr	r1, [r2]
 363 0230 019A     		ldr	r2, [sp, #4]
 364 0232 526C     		ldr	r2, [r2, #68]
 365 0234 0F20     		movs	r0, #15
 366 0236 00FA02F2 		lsl	r2, r0, r2
 367 023a D243     		mvns	r2, r2
 368 023c 0A40     		ands	r2, r2, r1
 369 023e 1A60     		str	r2, [r3]
 370              	.L16:
 371              		.loc 1 313 0
 372 0240 019B     		ldr	r3, [sp, #4]
 373 0242 0022     		movs	r2, #0
 374 0244 DA63     		str	r2, [r3, #60]
 375              		.loc 1 316 0
 376 0246 019B     		ldr	r3, [sp, #4]
 377 0248 0022     		movs	r2, #0
 378 024a 83F82520 		strb	r2, [r3, #37]
 379              		.loc 1 319 0
 380 024e 019B     		ldr	r3, [sp, #4]
 381 0250 0022     		movs	r2, #0
 382 0252 83F82420 		strb	r2, [r3, #36]
 383              		.loc 1 321 0
 384 0256 0023     		movs	r3, #0
 385              	.L12:
 386              		.loc 1 322 0
 387 0258 1846     		mov	r0, r3
 388 025a 02B0     		add	sp, sp, #8
 389              		@ sp needed
 390 025c 7047     		bx	lr
 391              	.L18:
 392 025e 00BF     		.align	2
 393              	.L17:
 394 0260 07040240 		.word	1073873927
 395 0264 F8FFFDBF 		.word	-1073872904
 396 0268 CDCCCCCC 		.word	-858993459
 397 026c 00000240 		.word	1073872896
ARM GAS  /tmp/ccyGh5bb.s 			page 8


 398 0270 F8FBFDBF 		.word	-1073873928
 399 0274 00040240 		.word	1073873920
 400 0278 A8000240 		.word	1073873064
 401 027c A8040240 		.word	1073874088
 402              		.cfi_endproc
 403              	.LFE126:
 404              		.size	HAL_DMA_DeInit, .-HAL_DMA_DeInit
 405              		.align	2
 406              		.p2align 4,,15
 407              		.global	HAL_DMA_Start
 408              		.thumb
 409              		.thumb_func
 410              		.type	HAL_DMA_Start, %function
 411              	HAL_DMA_Start:
 412              	.LFB127:
 413              		.loc 1 357 0
 414              		.cfi_startproc
 415              		@ args = 0, pretend = 0, frame = 24
 416              		@ frame_needed = 0, uses_anonymous_args = 0
 417 0280 00B5     		push	{lr}
 418              		.cfi_def_cfa_offset 4
 419              		.cfi_offset 14, -4
 420 0282 87B0     		sub	sp, sp, #28
 421              		.cfi_def_cfa_offset 32
 422 0284 0390     		str	r0, [sp, #12]
 423 0286 0291     		str	r1, [sp, #8]
 424 0288 0192     		str	r2, [sp, #4]
 425 028a 0093     		str	r3, [sp]
 426              		.loc 1 358 0
 427 028c 0023     		movs	r3, #0
 428 028e 8DF81730 		strb	r3, [sp, #23]
 429              		.loc 1 364 0
 430 0292 039B     		ldr	r3, [sp, #12]
 431 0294 93F82430 		ldrb	r3, [r3, #36]	@ zero_extendqisi2
 432 0298 012B     		cmp	r3, #1
 433 029a 01D1     		bne	.L20
 434              		.loc 1 364 0 is_stmt 0 discriminator 1
 435 029c 0223     		movs	r3, #2
 436 029e 30E0     		b	.L21
 437              	.L20:
 438              		.loc 1 364 0 discriminator 2
 439 02a0 039B     		ldr	r3, [sp, #12]
 440 02a2 0122     		movs	r2, #1
 441 02a4 83F82420 		strb	r2, [r3, #36]
 442              		.loc 1 366 0 is_stmt 1 discriminator 2
 443 02a8 039B     		ldr	r3, [sp, #12]
 444 02aa 93F82530 		ldrb	r3, [r3, #37]
 445 02ae DBB2     		uxtb	r3, r3
 446 02b0 012B     		cmp	r3, #1
 447 02b2 1DD1     		bne	.L22
 448              		.loc 1 369 0
 449 02b4 039B     		ldr	r3, [sp, #12]
 450 02b6 0222     		movs	r2, #2
 451 02b8 83F82520 		strb	r2, [r3, #37]
 452              		.loc 1 370 0
 453 02bc 039B     		ldr	r3, [sp, #12]
 454 02be 0022     		movs	r2, #0
ARM GAS  /tmp/ccyGh5bb.s 			page 9


 455 02c0 DA63     		str	r2, [r3, #60]
 456              		.loc 1 373 0
 457 02c2 039B     		ldr	r3, [sp, #12]
 458 02c4 1B68     		ldr	r3, [r3]
 459 02c6 039A     		ldr	r2, [sp, #12]
 460 02c8 1268     		ldr	r2, [r2]
 461 02ca 1268     		ldr	r2, [r2]
 462 02cc 22F00102 		bic	r2, r2, #1
 463 02d0 1A60     		str	r2, [r3]
 464              		.loc 1 376 0
 465 02d2 0398     		ldr	r0, [sp, #12]
 466 02d4 0299     		ldr	r1, [sp, #8]
 467 02d6 019A     		ldr	r2, [sp, #4]
 468 02d8 009B     		ldr	r3, [sp]
 469 02da 00F019FB 		bl	DMA_SetConfig
 470              		.loc 1 379 0
 471 02de 039B     		ldr	r3, [sp, #12]
 472 02e0 1B68     		ldr	r3, [r3]
 473 02e2 039A     		ldr	r2, [sp, #12]
 474 02e4 1268     		ldr	r2, [r2]
 475 02e6 1268     		ldr	r2, [r2]
 476 02e8 42F00102 		orr	r2, r2, #1
 477 02ec 1A60     		str	r2, [r3]
 478 02ee 06E0     		b	.L23
 479              	.L22:
 480              		.loc 1 384 0
 481 02f0 039B     		ldr	r3, [sp, #12]
 482 02f2 0022     		movs	r2, #0
 483 02f4 83F82420 		strb	r2, [r3, #36]
 484              		.loc 1 385 0
 485 02f8 0223     		movs	r3, #2
 486 02fa 8DF81730 		strb	r3, [sp, #23]
 487              	.L23:
 488              		.loc 1 387 0
 489 02fe 9DF81730 		ldrb	r3, [sp, #23]	@ zero_extendqisi2
 490              	.L21:
 491              		.loc 1 388 0
 492 0302 1846     		mov	r0, r3
 493 0304 07B0     		add	sp, sp, #28
 494              		@ sp needed
 495 0306 5DF804FB 		ldr	pc, [sp], #4
 496              		.cfi_endproc
 497              	.LFE127:
 498              		.size	HAL_DMA_Start, .-HAL_DMA_Start
 499 030a 00BF     		.align	2
 500 030c AFF30080 		.p2align 4,,15
 501              		.global	HAL_DMA_Start_IT
 502              		.thumb
 503              		.thumb_func
 504              		.type	HAL_DMA_Start_IT, %function
 505              	HAL_DMA_Start_IT:
 506              	.LFB128:
 507              		.loc 1 400 0
 508              		.cfi_startproc
 509              		@ args = 0, pretend = 0, frame = 24
 510              		@ frame_needed = 0, uses_anonymous_args = 0
 511 0310 00B5     		push	{lr}
ARM GAS  /tmp/ccyGh5bb.s 			page 10


 512              		.cfi_def_cfa_offset 4
 513              		.cfi_offset 14, -4
 514 0312 87B0     		sub	sp, sp, #28
 515              		.cfi_def_cfa_offset 32
 516 0314 0390     		str	r0, [sp, #12]
 517 0316 0291     		str	r1, [sp, #8]
 518 0318 0192     		str	r2, [sp, #4]
 519 031a 0093     		str	r3, [sp]
 520              		.loc 1 401 0
 521 031c 0023     		movs	r3, #0
 522 031e 8DF81730 		strb	r3, [sp, #23]
 523              		.loc 1 407 0
 524 0322 039B     		ldr	r3, [sp, #12]
 525 0324 93F82430 		ldrb	r3, [r3, #36]	@ zero_extendqisi2
 526 0328 012B     		cmp	r3, #1
 527 032a 01D1     		bne	.L25
 528              		.loc 1 407 0 is_stmt 0 discriminator 1
 529 032c 0223     		movs	r3, #2
 530 032e 4DE0     		b	.L26
 531              	.L25:
 532              		.loc 1 407 0 discriminator 2
 533 0330 039B     		ldr	r3, [sp, #12]
 534 0332 0122     		movs	r2, #1
 535 0334 83F82420 		strb	r2, [r3, #36]
 536              		.loc 1 409 0 is_stmt 1 discriminator 2
 537 0338 039B     		ldr	r3, [sp, #12]
 538 033a 93F82530 		ldrb	r3, [r3, #37]
 539 033e DBB2     		uxtb	r3, r3
 540 0340 012B     		cmp	r3, #1
 541 0342 3AD1     		bne	.L27
 542              		.loc 1 412 0
 543 0344 039B     		ldr	r3, [sp, #12]
 544 0346 0222     		movs	r2, #2
 545 0348 83F82520 		strb	r2, [r3, #37]
 546              		.loc 1 413 0
 547 034c 039B     		ldr	r3, [sp, #12]
 548 034e 0022     		movs	r2, #0
 549 0350 DA63     		str	r2, [r3, #60]
 550              		.loc 1 416 0
 551 0352 039B     		ldr	r3, [sp, #12]
 552 0354 1B68     		ldr	r3, [r3]
 553 0356 039A     		ldr	r2, [sp, #12]
 554 0358 1268     		ldr	r2, [r2]
 555 035a 1268     		ldr	r2, [r2]
 556 035c 22F00102 		bic	r2, r2, #1
 557 0360 1A60     		str	r2, [r3]
 558              		.loc 1 419 0
 559 0362 0398     		ldr	r0, [sp, #12]
 560 0364 0299     		ldr	r1, [sp, #8]
 561 0366 019A     		ldr	r2, [sp, #4]
 562 0368 009B     		ldr	r3, [sp]
 563 036a 00F0D1FA 		bl	DMA_SetConfig
 564              		.loc 1 423 0
 565 036e 039B     		ldr	r3, [sp, #12]
 566 0370 1B6B     		ldr	r3, [r3, #48]
 567 0372 002B     		cmp	r3, #0
 568 0374 08D0     		beq	.L28
ARM GAS  /tmp/ccyGh5bb.s 			page 11


 569              		.loc 1 426 0
 570 0376 039B     		ldr	r3, [sp, #12]
 571 0378 1B68     		ldr	r3, [r3]
 572 037a 039A     		ldr	r2, [sp, #12]
 573 037c 1268     		ldr	r2, [r2]
 574 037e 1268     		ldr	r2, [r2]
 575 0380 42F00E02 		orr	r2, r2, #14
 576 0384 1A60     		str	r2, [r3]
 577 0386 0FE0     		b	.L29
 578              	.L28:
 579              		.loc 1 430 0
 580 0388 039B     		ldr	r3, [sp, #12]
 581 038a 1B68     		ldr	r3, [r3]
 582 038c 039A     		ldr	r2, [sp, #12]
 583 038e 1268     		ldr	r2, [r2]
 584 0390 1268     		ldr	r2, [r2]
 585 0392 22F00402 		bic	r2, r2, #4
 586 0396 1A60     		str	r2, [r3]
 587              		.loc 1 431 0
 588 0398 039B     		ldr	r3, [sp, #12]
 589 039a 1B68     		ldr	r3, [r3]
 590 039c 039A     		ldr	r2, [sp, #12]
 591 039e 1268     		ldr	r2, [r2]
 592 03a0 1268     		ldr	r2, [r2]
 593 03a2 42F00A02 		orr	r2, r2, #10
 594 03a6 1A60     		str	r2, [r3]
 595              	.L29:
 596              		.loc 1 434 0 discriminator 1
 597 03a8 039B     		ldr	r3, [sp, #12]
 598 03aa 1B68     		ldr	r3, [r3]
 599 03ac 039A     		ldr	r2, [sp, #12]
 600 03ae 1268     		ldr	r2, [r2]
 601 03b0 1268     		ldr	r2, [r2]
 602 03b2 42F00102 		orr	r2, r2, #1
 603 03b6 1A60     		str	r2, [r3]
 604 03b8 06E0     		b	.L30
 605              	.L27:
 606              		.loc 1 439 0
 607 03ba 039B     		ldr	r3, [sp, #12]
 608 03bc 0022     		movs	r2, #0
 609 03be 83F82420 		strb	r2, [r3, #36]
 610              		.loc 1 442 0
 611 03c2 0223     		movs	r3, #2
 612 03c4 8DF81730 		strb	r3, [sp, #23]
 613              	.L30:
 614              		.loc 1 444 0
 615 03c8 9DF81730 		ldrb	r3, [sp, #23]	@ zero_extendqisi2
 616              	.L26:
 617              		.loc 1 445 0
 618 03cc 1846     		mov	r0, r3
 619 03ce 07B0     		add	sp, sp, #28
 620              		@ sp needed
 621 03d0 5DF804FB 		ldr	pc, [sp], #4
 622              		.cfi_endproc
 623              	.LFE128:
 624              		.size	HAL_DMA_Start_IT, .-HAL_DMA_Start_IT
 625              		.align	2
ARM GAS  /tmp/ccyGh5bb.s 			page 12


 626 03d4 AFF30080 		.p2align 4,,15
 626      AFF30080 
 626      AFF30080 
 627              		.global	HAL_DMA_Abort
 628              		.thumb
 629              		.thumb_func
 630              		.type	HAL_DMA_Abort, %function
 631              	HAL_DMA_Abort:
 632              	.LFB129:
 633              		.loc 1 454 0
 634              		.cfi_startproc
 635              		@ args = 0, pretend = 0, frame = 16
 636              		@ frame_needed = 0, uses_anonymous_args = 0
 637              		@ link register save eliminated.
 638 03e0 84B0     		sub	sp, sp, #16
 639              		.cfi_def_cfa_offset 16
 640 03e2 0190     		str	r0, [sp, #4]
 641              		.loc 1 455 0
 642 03e4 0023     		movs	r3, #0
 643 03e6 8DF80F30 		strb	r3, [sp, #15]
 644              		.loc 1 457 0
 645 03ea 019B     		ldr	r3, [sp, #4]
 646 03ec 93F82530 		ldrb	r3, [r3, #37]
 647 03f0 DBB2     		uxtb	r3, r3
 648 03f2 022B     		cmp	r3, #2
 649 03f4 06D0     		beq	.L32
 650              		.loc 1 460 0
 651 03f6 019B     		ldr	r3, [sp, #4]
 652 03f8 0422     		movs	r2, #4
 653 03fa DA63     		str	r2, [r3, #60]
 654              		.loc 1 462 0
 655 03fc 0123     		movs	r3, #1
 656 03fe 8DF80F30 		strb	r3, [sp, #15]
 657 0402 1FE0     		b	.L33
 658              	.L32:
 659              		.loc 1 467 0
 660 0404 019B     		ldr	r3, [sp, #4]
 661 0406 1B68     		ldr	r3, [r3]
 662 0408 019A     		ldr	r2, [sp, #4]
 663 040a 1268     		ldr	r2, [r2]
 664 040c 1268     		ldr	r2, [r2]
 665 040e 22F00E02 		bic	r2, r2, #14
 666 0412 1A60     		str	r2, [r3]
 667              		.loc 1 470 0
 668 0414 019B     		ldr	r3, [sp, #4]
 669 0416 1B68     		ldr	r3, [r3]
 670 0418 019A     		ldr	r2, [sp, #4]
 671 041a 1268     		ldr	r2, [r2]
 672 041c 1268     		ldr	r2, [r2]
 673 041e 22F00102 		bic	r2, r2, #1
 674 0422 1A60     		str	r2, [r3]
 675              		.loc 1 473 0
 676 0424 019B     		ldr	r3, [sp, #4]
 677 0426 1B6C     		ldr	r3, [r3, #64]
 678 0428 019A     		ldr	r2, [sp, #4]
 679 042a 526C     		ldr	r2, [r2, #68]
 680 042c 0121     		movs	r1, #1
ARM GAS  /tmp/ccyGh5bb.s 			page 13


 681 042e 01FA02F2 		lsl	r2, r1, r2
 682 0432 5A60     		str	r2, [r3, #4]
 683              		.loc 1 476 0
 684 0434 019B     		ldr	r3, [sp, #4]
 685 0436 0122     		movs	r2, #1
 686 0438 83F82520 		strb	r2, [r3, #37]
 687              		.loc 1 479 0
 688 043c 019B     		ldr	r3, [sp, #4]
 689 043e 0022     		movs	r2, #0
 690 0440 83F82420 		strb	r2, [r3, #36]
 691              	.L33:
 692              		.loc 1 481 0
 693 0444 9DF80F30 		ldrb	r3, [sp, #15]	@ zero_extendqisi2
 694              		.loc 1 482 0
 695 0448 1846     		mov	r0, r3
 696 044a 04B0     		add	sp, sp, #16
 697              		@ sp needed
 698 044c 7047     		bx	lr
 699              		.cfi_endproc
 700              	.LFE129:
 701              		.size	HAL_DMA_Abort, .-HAL_DMA_Abort
 702 044e 00BF     		.align	2
 703              		.p2align 4,,15
 704              		.global	HAL_DMA_Abort_IT
 705              		.thumb
 706              		.thumb_func
 707              		.type	HAL_DMA_Abort_IT, %function
 708              	HAL_DMA_Abort_IT:
 709              	.LFB130:
 710              		.loc 1 491 0
 711              		.cfi_startproc
 712              		@ args = 0, pretend = 0, frame = 16
 713              		@ frame_needed = 0, uses_anonymous_args = 0
 714 0450 00B5     		push	{lr}
 715              		.cfi_def_cfa_offset 4
 716              		.cfi_offset 14, -4
 717 0452 85B0     		sub	sp, sp, #20
 718              		.cfi_def_cfa_offset 24
 719 0454 0190     		str	r0, [sp, #4]
 720              		.loc 1 492 0
 721 0456 0023     		movs	r3, #0
 722 0458 8DF80F30 		strb	r3, [sp, #15]
 723              		.loc 1 494 0
 724 045c 019B     		ldr	r3, [sp, #4]
 725 045e 93F82530 		ldrb	r3, [r3, #37]
 726 0462 DBB2     		uxtb	r3, r3
 727 0464 022B     		cmp	r3, #2
 728 0466 06D0     		beq	.L36
 729              		.loc 1 497 0
 730 0468 019B     		ldr	r3, [sp, #4]
 731 046a 0422     		movs	r2, #4
 732 046c DA63     		str	r2, [r3, #60]
 733              		.loc 1 499 0
 734 046e 0123     		movs	r3, #1
 735 0470 8DF80F30 		strb	r3, [sp, #15]
 736 0474 2BE0     		b	.L37
 737              	.L36:
ARM GAS  /tmp/ccyGh5bb.s 			page 14


 738              		.loc 1 504 0
 739 0476 019B     		ldr	r3, [sp, #4]
 740 0478 1B68     		ldr	r3, [r3]
 741 047a 019A     		ldr	r2, [sp, #4]
 742 047c 1268     		ldr	r2, [r2]
 743 047e 1268     		ldr	r2, [r2]
 744 0480 22F00E02 		bic	r2, r2, #14
 745 0484 1A60     		str	r2, [r3]
 746              		.loc 1 507 0
 747 0486 019B     		ldr	r3, [sp, #4]
 748 0488 1B68     		ldr	r3, [r3]
 749 048a 019A     		ldr	r2, [sp, #4]
 750 048c 1268     		ldr	r2, [r2]
 751 048e 1268     		ldr	r2, [r2]
 752 0490 22F00102 		bic	r2, r2, #1
 753 0494 1A60     		str	r2, [r3]
 754              		.loc 1 510 0
 755 0496 019B     		ldr	r3, [sp, #4]
 756 0498 1B6C     		ldr	r3, [r3, #64]
 757 049a 019A     		ldr	r2, [sp, #4]
 758 049c 126C     		ldr	r2, [r2, #64]
 759 049e 5168     		ldr	r1, [r2, #4]
 760 04a0 019A     		ldr	r2, [sp, #4]
 761 04a2 526C     		ldr	r2, [r2, #68]
 762 04a4 0120     		movs	r0, #1
 763 04a6 00FA02F2 		lsl	r2, r0, r2
 764 04aa 0A43     		orrs	r2, r2, r1
 765 04ac 5A60     		str	r2, [r3, #4]
 766              		.loc 1 513 0
 767 04ae 019B     		ldr	r3, [sp, #4]
 768 04b0 0122     		movs	r2, #1
 769 04b2 83F82520 		strb	r2, [r3, #37]
 770              		.loc 1 516 0
 771 04b6 019B     		ldr	r3, [sp, #4]
 772 04b8 0022     		movs	r2, #0
 773 04ba 83F82420 		strb	r2, [r3, #36]
 774              		.loc 1 519 0
 775 04be 019B     		ldr	r3, [sp, #4]
 776 04c0 9B6B     		ldr	r3, [r3, #56]
 777 04c2 002B     		cmp	r3, #0
 778 04c4 03D0     		beq	.L37
 779              		.loc 1 521 0
 780 04c6 019B     		ldr	r3, [sp, #4]
 781 04c8 9B6B     		ldr	r3, [r3, #56]
 782 04ca 0198     		ldr	r0, [sp, #4]
 783 04cc 9847     		blx	r3
 784              	.L37:
 785              		.loc 1 524 0
 786 04ce 9DF80F30 		ldrb	r3, [sp, #15]	@ zero_extendqisi2
 787              		.loc 1 525 0
 788 04d2 1846     		mov	r0, r3
 789 04d4 05B0     		add	sp, sp, #20
 790              		@ sp needed
 791 04d6 5DF804FB 		ldr	pc, [sp], #4
 792              		.cfi_endproc
 793              	.LFE130:
 794              		.size	HAL_DMA_Abort_IT, .-HAL_DMA_Abort_IT
ARM GAS  /tmp/ccyGh5bb.s 			page 15


 795 04da 00BF     		.align	2
 796 04dc AFF30080 		.p2align 4,,15
 797              		.global	HAL_DMA_PollForTransfer
 798              		.thumb
 799              		.thumb_func
 800              		.type	HAL_DMA_PollForTransfer, %function
 801              	HAL_DMA_PollForTransfer:
 802              	.LFB131:
 803              		.loc 1 536 0
 804              		.cfi_startproc
 805              		@ args = 0, pretend = 0, frame = 24
 806              		@ frame_needed = 0, uses_anonymous_args = 0
 807 04e0 00B5     		push	{lr}
 808              		.cfi_def_cfa_offset 4
 809              		.cfi_offset 14, -4
 810 04e2 87B0     		sub	sp, sp, #28
 811              		.cfi_def_cfa_offset 32
 812 04e4 0390     		str	r0, [sp, #12]
 813 04e6 0291     		str	r1, [sp, #8]
 814 04e8 0192     		str	r2, [sp, #4]
 815              		.loc 1 538 0
 816 04ea 0023     		movs	r3, #0
 817 04ec 0493     		str	r3, [sp, #16]
 818              		.loc 1 540 0
 819 04ee 039B     		ldr	r3, [sp, #12]
 820 04f0 93F82530 		ldrb	r3, [r3, #37]
 821 04f4 DBB2     		uxtb	r3, r3
 822 04f6 022B     		cmp	r3, #2
 823 04f8 04D0     		beq	.L40
 824              		.loc 1 543 0
 825 04fa 039B     		ldr	r3, [sp, #12]
 826 04fc 0422     		movs	r2, #4
 827 04fe DA63     		str	r2, [r3, #60]
 828              		.loc 1 545 0
 829 0500 0123     		movs	r3, #1
 830 0502 8CE0     		b	.L41
 831              	.L40:
 832              		.loc 1 549 0
 833 0504 039B     		ldr	r3, [sp, #12]
 834 0506 1B68     		ldr	r3, [r3]
 835 0508 1B68     		ldr	r3, [r3]
 836 050a 03F02003 		and	r3, r3, #32
 837 050e 002B     		cmp	r3, #0
 838 0510 05D0     		beq	.L42
 839              		.loc 1 551 0
 840 0512 039B     		ldr	r3, [sp, #12]
 841 0514 4FF48072 		mov	r2, #256
 842 0518 DA63     		str	r2, [r3, #60]
 843              		.loc 1 552 0
 844 051a 0123     		movs	r3, #1
 845 051c 7FE0     		b	.L41
 846              	.L42:
 847              		.loc 1 556 0
 848 051e 029B     		ldr	r3, [sp, #8]
 849 0520 002B     		cmp	r3, #0
 850 0522 06D1     		bne	.L43
 851              		.loc 1 559 0
ARM GAS  /tmp/ccyGh5bb.s 			page 16


 852 0524 039B     		ldr	r3, [sp, #12]
 853 0526 5B6C     		ldr	r3, [r3, #68]
 854 0528 0222     		movs	r2, #2
 855 052a 02FA03F3 		lsl	r3, r2, r3
 856 052e 0593     		str	r3, [sp, #20]
 857 0530 05E0     		b	.L44
 858              	.L43:
 859              		.loc 1 564 0
 860 0532 039B     		ldr	r3, [sp, #12]
 861 0534 5B6C     		ldr	r3, [r3, #68]
 862 0536 0422     		movs	r2, #4
 863 0538 02FA03F3 		lsl	r3, r2, r3
 864 053c 0593     		str	r3, [sp, #20]
 865              	.L44:
 866              		.loc 1 568 0
 867 053e FFF7FEFF 		bl	HAL_GetTick
 868 0542 0490     		str	r0, [sp, #16]
 869              		.loc 1 570 0
 870 0544 3FE0     		b	.L45
 871              	.L48:
 872              		.loc 1 572 0
 873 0546 039B     		ldr	r3, [sp, #12]
 874 0548 1B6C     		ldr	r3, [r3, #64]
 875 054a 1A68     		ldr	r2, [r3]
 876 054c 039B     		ldr	r3, [sp, #12]
 877 054e 5B6C     		ldr	r3, [r3, #68]
 878 0550 0821     		movs	r1, #8
 879 0552 01FA03F3 		lsl	r3, r1, r3
 880 0556 1340     		ands	r3, r3, r2
 881 0558 002B     		cmp	r3, #0
 882 055a 18D0     		beq	.L46
 883              		.loc 1 577 0
 884 055c 039B     		ldr	r3, [sp, #12]
 885 055e 1B6C     		ldr	r3, [r3, #64]
 886 0560 039A     		ldr	r2, [sp, #12]
 887 0562 126C     		ldr	r2, [r2, #64]
 888 0564 5168     		ldr	r1, [r2, #4]
 889 0566 039A     		ldr	r2, [sp, #12]
 890 0568 526C     		ldr	r2, [r2, #68]
 891 056a 0120     		movs	r0, #1
 892 056c 00FA02F2 		lsl	r2, r0, r2
 893 0570 0A43     		orrs	r2, r2, r1
 894 0572 5A60     		str	r2, [r3, #4]
 895              		.loc 1 580 0
 896 0574 039B     		ldr	r3, [sp, #12]
 897 0576 0122     		movs	r2, #1
 898 0578 DA63     		str	r2, [r3, #60]
 899              		.loc 1 583 0
 900 057a 039B     		ldr	r3, [sp, #12]
 901 057c 0122     		movs	r2, #1
 902 057e 83F82520 		strb	r2, [r3, #37]
 903              		.loc 1 586 0
 904 0582 039B     		ldr	r3, [sp, #12]
 905 0584 0022     		movs	r2, #0
 906 0586 83F82420 		strb	r2, [r3, #36]
 907              		.loc 1 588 0
 908 058a 0123     		movs	r3, #1
ARM GAS  /tmp/ccyGh5bb.s 			page 17


 909 058c 47E0     		b	.L41
 910              	.L46:
 911              		.loc 1 591 0
 912 058e 019B     		ldr	r3, [sp, #4]
 913 0590 B3F1FF3F 		cmp	r3, #-1
 914 0594 17D0     		beq	.L45
 915              		.loc 1 593 0
 916 0596 019B     		ldr	r3, [sp, #4]
 917 0598 002B     		cmp	r3, #0
 918 059a 07D0     		beq	.L47
 919              		.loc 1 593 0 is_stmt 0 discriminator 1
 920 059c FFF7FEFF 		bl	HAL_GetTick
 921 05a0 0246     		mov	r2, r0
 922 05a2 049B     		ldr	r3, [sp, #16]
 923 05a4 D21A     		subs	r2, r2, r3
 924 05a6 019B     		ldr	r3, [sp, #4]
 925 05a8 9A42     		cmp	r2, r3
 926 05aa 0CD9     		bls	.L45
 927              	.L47:
 928              		.loc 1 596 0 is_stmt 1
 929 05ac 039B     		ldr	r3, [sp, #12]
 930 05ae 2022     		movs	r2, #32
 931 05b0 DA63     		str	r2, [r3, #60]
 932              		.loc 1 599 0
 933 05b2 039B     		ldr	r3, [sp, #12]
 934 05b4 0122     		movs	r2, #1
 935 05b6 83F82520 		strb	r2, [r3, #37]
 936              		.loc 1 602 0
 937 05ba 039B     		ldr	r3, [sp, #12]
 938 05bc 0022     		movs	r2, #0
 939 05be 83F82420 		strb	r2, [r3, #36]
 940              		.loc 1 604 0
 941 05c2 0123     		movs	r3, #1
 942 05c4 2BE0     		b	.L41
 943              	.L45:
 944              		.loc 1 570 0 discriminator 1
 945 05c6 039B     		ldr	r3, [sp, #12]
 946 05c8 1B6C     		ldr	r3, [r3, #64]
 947 05ca 1A68     		ldr	r2, [r3]
 948 05cc 059B     		ldr	r3, [sp, #20]
 949 05ce 1340     		ands	r3, r3, r2
 950 05d0 002B     		cmp	r3, #0
 951 05d2 B8D0     		beq	.L48
 952              		.loc 1 609 0
 953 05d4 029B     		ldr	r3, [sp, #8]
 954 05d6 002B     		cmp	r3, #0
 955 05d8 10D1     		bne	.L49
 956              		.loc 1 612 0
 957 05da 039B     		ldr	r3, [sp, #12]
 958 05dc 1B6C     		ldr	r3, [r3, #64]
 959 05de 039A     		ldr	r2, [sp, #12]
 960 05e0 126C     		ldr	r2, [r2, #64]
 961 05e2 5168     		ldr	r1, [r2, #4]
 962 05e4 039A     		ldr	r2, [sp, #12]
 963 05e6 526C     		ldr	r2, [r2, #68]
 964 05e8 0220     		movs	r0, #2
 965 05ea 00FA02F2 		lsl	r2, r0, r2
ARM GAS  /tmp/ccyGh5bb.s 			page 18


 966 05ee 0A43     		orrs	r2, r2, r1
 967 05f0 5A60     		str	r2, [r3, #4]
 968              		.loc 1 616 0
 969 05f2 039B     		ldr	r3, [sp, #12]
 970 05f4 0122     		movs	r2, #1
 971 05f6 83F82520 		strb	r2, [r3, #37]
 972 05fa 0BE0     		b	.L50
 973              	.L49:
 974              		.loc 1 621 0
 975 05fc 039B     		ldr	r3, [sp, #12]
 976 05fe 1B6C     		ldr	r3, [r3, #64]
 977 0600 039A     		ldr	r2, [sp, #12]
 978 0602 126C     		ldr	r2, [r2, #64]
 979 0604 5168     		ldr	r1, [r2, #4]
 980 0606 039A     		ldr	r2, [sp, #12]
 981 0608 526C     		ldr	r2, [r2, #68]
 982 060a 0420     		movs	r0, #4
 983 060c 00FA02F2 		lsl	r2, r0, r2
 984 0610 0A43     		orrs	r2, r2, r1
 985 0612 5A60     		str	r2, [r3, #4]
 986              	.L50:
 987              		.loc 1 625 0
 988 0614 039B     		ldr	r3, [sp, #12]
 989 0616 0022     		movs	r2, #0
 990 0618 83F82420 		strb	r2, [r3, #36]
 991              		.loc 1 627 0
 992 061c 0023     		movs	r3, #0
 993              	.L41:
 994              		.loc 1 628 0
 995 061e 1846     		mov	r0, r3
 996 0620 07B0     		add	sp, sp, #28
 997              		@ sp needed
 998 0622 5DF804FB 		ldr	pc, [sp], #4
 999              		.cfi_endproc
 1000              	.LFE131:
 1001              		.size	HAL_DMA_PollForTransfer, .-HAL_DMA_PollForTransfer
 1002 0626 00BF     		.align	2
 1003 0628 AFF30080 		.p2align 4,,15
 1003      AFF30080 
 1004              		.global	HAL_DMA_IRQHandler
 1005              		.thumb
 1006              		.thumb_func
 1007              		.type	HAL_DMA_IRQHandler, %function
 1008              	HAL_DMA_IRQHandler:
 1009              	.LFB132:
 1010              		.loc 1 637 0
 1011              		.cfi_startproc
 1012              		@ args = 0, pretend = 0, frame = 16
 1013              		@ frame_needed = 0, uses_anonymous_args = 0
 1014 0630 00B5     		push	{lr}
 1015              		.cfi_def_cfa_offset 4
 1016              		.cfi_offset 14, -4
 1017 0632 85B0     		sub	sp, sp, #20
 1018              		.cfi_def_cfa_offset 24
 1019 0634 0190     		str	r0, [sp, #4]
 1020              		.loc 1 638 0
 1021 0636 019B     		ldr	r3, [sp, #4]
ARM GAS  /tmp/ccyGh5bb.s 			page 19


 1022 0638 1B6C     		ldr	r3, [r3, #64]
 1023 063a 1B68     		ldr	r3, [r3]
 1024 063c 0393     		str	r3, [sp, #12]
 1025              		.loc 1 639 0
 1026 063e 019B     		ldr	r3, [sp, #4]
 1027 0640 1B68     		ldr	r3, [r3]
 1028 0642 1B68     		ldr	r3, [r3]
 1029 0644 0293     		str	r3, [sp, #8]
 1030              		.loc 1 642 0
 1031 0646 019B     		ldr	r3, [sp, #4]
 1032 0648 5B6C     		ldr	r3, [r3, #68]
 1033 064a 0422     		movs	r2, #4
 1034 064c 9A40     		lsls	r2, r2, r3
 1035 064e 039B     		ldr	r3, [sp, #12]
 1036 0650 1340     		ands	r3, r3, r2
 1037 0652 002B     		cmp	r3, #0
 1038 0654 29D0     		beq	.L52
 1039              		.loc 1 642 0 is_stmt 0 discriminator 1
 1040 0656 029B     		ldr	r3, [sp, #8]
 1041 0658 03F00403 		and	r3, r3, #4
 1042 065c 002B     		cmp	r3, #0
 1043 065e 24D0     		beq	.L52
 1044              		.loc 1 645 0 is_stmt 1
 1045 0660 019B     		ldr	r3, [sp, #4]
 1046 0662 1B68     		ldr	r3, [r3]
 1047 0664 1B68     		ldr	r3, [r3]
 1048 0666 03F02003 		and	r3, r3, #32
 1049 066a 002B     		cmp	r3, #0
 1050 066c 07D1     		bne	.L53
 1051              		.loc 1 648 0
 1052 066e 019B     		ldr	r3, [sp, #4]
 1053 0670 1B68     		ldr	r3, [r3]
 1054 0672 019A     		ldr	r2, [sp, #4]
 1055 0674 1268     		ldr	r2, [r2]
 1056 0676 1268     		ldr	r2, [r2]
 1057 0678 22F00402 		bic	r2, r2, #4
 1058 067c 1A60     		str	r2, [r3]
 1059              	.L53:
 1060              		.loc 1 651 0
 1061 067e 019B     		ldr	r3, [sp, #4]
 1062 0680 1B6C     		ldr	r3, [r3, #64]
 1063 0682 019A     		ldr	r2, [sp, #4]
 1064 0684 126C     		ldr	r2, [r2, #64]
 1065 0686 5168     		ldr	r1, [r2, #4]
 1066 0688 019A     		ldr	r2, [sp, #4]
 1067 068a 526C     		ldr	r2, [r2, #68]
 1068 068c 0420     		movs	r0, #4
 1069 068e 00FA02F2 		lsl	r2, r0, r2
 1070 0692 0A43     		orrs	r2, r2, r1
 1071 0694 5A60     		str	r2, [r3, #4]
 1072              		.loc 1 656 0
 1073 0696 019B     		ldr	r3, [sp, #4]
 1074 0698 1B6B     		ldr	r3, [r3, #48]
 1075 069a 002B     		cmp	r3, #0
 1076 069c 04D0     		beq	.L54
 1077              		.loc 1 659 0
 1078 069e 019B     		ldr	r3, [sp, #4]
ARM GAS  /tmp/ccyGh5bb.s 			page 20


 1079 06a0 1B6B     		ldr	r3, [r3, #48]
 1080 06a2 0198     		ldr	r0, [sp, #4]
 1081 06a4 9847     		blx	r3
 1082              		.loc 1 656 0
 1083 06a6 6EE0     		b	.L55
 1084              	.L54:
 1085              		.loc 1 656 0 is_stmt 0 discriminator 1
 1086 06a8 6DE0     		b	.L55
 1087              	.L52:
 1088              		.loc 1 664 0 is_stmt 1
 1089 06aa 019B     		ldr	r3, [sp, #4]
 1090 06ac 5B6C     		ldr	r3, [r3, #68]
 1091 06ae 0222     		movs	r2, #2
 1092 06b0 9A40     		lsls	r2, r2, r3
 1093 06b2 039B     		ldr	r3, [sp, #12]
 1094 06b4 1340     		ands	r3, r3, r2
 1095 06b6 002B     		cmp	r3, #0
 1096 06b8 31D0     		beq	.L56
 1097              		.loc 1 664 0 is_stmt 0 discriminator 1
 1098 06ba 029B     		ldr	r3, [sp, #8]
 1099 06bc 03F00203 		and	r3, r3, #2
 1100 06c0 002B     		cmp	r3, #0
 1101 06c2 2CD0     		beq	.L56
 1102              		.loc 1 666 0 is_stmt 1
 1103 06c4 019B     		ldr	r3, [sp, #4]
 1104 06c6 1B68     		ldr	r3, [r3]
 1105 06c8 1B68     		ldr	r3, [r3]
 1106 06ca 03F02003 		and	r3, r3, #32
 1107 06ce 002B     		cmp	r3, #0
 1108 06d0 0BD1     		bne	.L57
 1109              		.loc 1 669 0
 1110 06d2 019B     		ldr	r3, [sp, #4]
 1111 06d4 1B68     		ldr	r3, [r3]
 1112 06d6 019A     		ldr	r2, [sp, #4]
 1113 06d8 1268     		ldr	r2, [r2]
 1114 06da 1268     		ldr	r2, [r2]
 1115 06dc 22F00A02 		bic	r2, r2, #10
 1116 06e0 1A60     		str	r2, [r3]
 1117              		.loc 1 672 0
 1118 06e2 019B     		ldr	r3, [sp, #4]
 1119 06e4 0122     		movs	r2, #1
 1120 06e6 83F82520 		strb	r2, [r3, #37]
 1121              	.L57:
 1122              		.loc 1 675 0
 1123 06ea 019B     		ldr	r3, [sp, #4]
 1124 06ec 1B6C     		ldr	r3, [r3, #64]
 1125 06ee 019A     		ldr	r2, [sp, #4]
 1126 06f0 126C     		ldr	r2, [r2, #64]
 1127 06f2 5168     		ldr	r1, [r2, #4]
 1128 06f4 019A     		ldr	r2, [sp, #4]
 1129 06f6 526C     		ldr	r2, [r2, #68]
 1130 06f8 0220     		movs	r0, #2
 1131 06fa 00FA02F2 		lsl	r2, r0, r2
 1132 06fe 0A43     		orrs	r2, r2, r1
 1133 0700 5A60     		str	r2, [r3, #4]
 1134              		.loc 1 678 0
 1135 0702 019B     		ldr	r3, [sp, #4]
ARM GAS  /tmp/ccyGh5bb.s 			page 21


 1136 0704 0022     		movs	r2, #0
 1137 0706 83F82420 		strb	r2, [r3, #36]
 1138              		.loc 1 680 0
 1139 070a 019B     		ldr	r3, [sp, #4]
 1140 070c DB6A     		ldr	r3, [r3, #44]
 1141 070e 002B     		cmp	r3, #0
 1142 0710 04D0     		beq	.L58
 1143              		.loc 1 683 0
 1144 0712 019B     		ldr	r3, [sp, #4]
 1145 0714 DB6A     		ldr	r3, [r3, #44]
 1146 0716 0198     		ldr	r0, [sp, #4]
 1147 0718 9847     		blx	r3
 1148              		.loc 1 680 0
 1149 071a 34E0     		b	.L55
 1150              	.L58:
 1151              		.loc 1 680 0 is_stmt 0 discriminator 1
 1152 071c 33E0     		b	.L55
 1153              	.L56:
 1154              		.loc 1 688 0 is_stmt 1
 1155 071e 019B     		ldr	r3, [sp, #4]
 1156 0720 5B6C     		ldr	r3, [r3, #68]
 1157 0722 0822     		movs	r2, #8
 1158 0724 9A40     		lsls	r2, r2, r3
 1159 0726 039B     		ldr	r3, [sp, #12]
 1160 0728 1340     		ands	r3, r3, r2
 1161 072a 002B     		cmp	r3, #0
 1162 072c 2BD0     		beq	.L55
 1163              		.loc 1 688 0 is_stmt 0 discriminator 1
 1164 072e 029B     		ldr	r3, [sp, #8]
 1165 0730 03F00803 		and	r3, r3, #8
 1166 0734 002B     		cmp	r3, #0
 1167 0736 26D0     		beq	.L55
 1168              		.loc 1 693 0 is_stmt 1
 1169 0738 019B     		ldr	r3, [sp, #4]
 1170 073a 1B68     		ldr	r3, [r3]
 1171 073c 019A     		ldr	r2, [sp, #4]
 1172 073e 1268     		ldr	r2, [r2]
 1173 0740 1268     		ldr	r2, [r2]
 1174 0742 22F00E02 		bic	r2, r2, #14
 1175 0746 1A60     		str	r2, [r3]
 1176              		.loc 1 696 0
 1177 0748 019B     		ldr	r3, [sp, #4]
 1178 074a 1B6C     		ldr	r3, [r3, #64]
 1179 074c 019A     		ldr	r2, [sp, #4]
 1180 074e 126C     		ldr	r2, [r2, #64]
 1181 0750 5168     		ldr	r1, [r2, #4]
 1182 0752 019A     		ldr	r2, [sp, #4]
 1183 0754 526C     		ldr	r2, [r2, #68]
 1184 0756 0120     		movs	r0, #1
 1185 0758 00FA02F2 		lsl	r2, r0, r2
 1186 075c 0A43     		orrs	r2, r2, r1
 1187 075e 5A60     		str	r2, [r3, #4]
 1188              		.loc 1 699 0
 1189 0760 019B     		ldr	r3, [sp, #4]
 1190 0762 0122     		movs	r2, #1
 1191 0764 DA63     		str	r2, [r3, #60]
 1192              		.loc 1 702 0
ARM GAS  /tmp/ccyGh5bb.s 			page 22


 1193 0766 019B     		ldr	r3, [sp, #4]
 1194 0768 0122     		movs	r2, #1
 1195 076a 83F82520 		strb	r2, [r3, #37]
 1196              		.loc 1 705 0
 1197 076e 019B     		ldr	r3, [sp, #4]
 1198 0770 0022     		movs	r2, #0
 1199 0772 83F82420 		strb	r2, [r3, #36]
 1200              		.loc 1 707 0
 1201 0776 019B     		ldr	r3, [sp, #4]
 1202 0778 5B6B     		ldr	r3, [r3, #52]
 1203 077a 002B     		cmp	r3, #0
 1204 077c 03D0     		beq	.L55
 1205              		.loc 1 710 0
 1206 077e 019B     		ldr	r3, [sp, #4]
 1207 0780 5B6B     		ldr	r3, [r3, #52]
 1208 0782 0198     		ldr	r0, [sp, #4]
 1209 0784 9847     		blx	r3
 1210              	.L55:
 1211              		.loc 1 713 0
 1212 0786 00BF     		nop
 1213              		.loc 1 714 0
 1214 0788 05B0     		add	sp, sp, #20
 1215              		@ sp needed
 1216 078a 5DF804FB 		ldr	pc, [sp], #4
 1217              		.cfi_endproc
 1218              	.LFE132:
 1219              		.size	HAL_DMA_IRQHandler, .-HAL_DMA_IRQHandler
 1220 078e 00BF     		.align	2
 1221              		.p2align 4,,15
 1222              		.global	HAL_DMA_RegisterCallback
 1223              		.thumb
 1224              		.thumb_func
 1225              		.type	HAL_DMA_RegisterCallback, %function
 1226              	HAL_DMA_RegisterCallback:
 1227              	.LFB133:
 1228              		.loc 1 727 0
 1229              		.cfi_startproc
 1230              		@ args = 0, pretend = 0, frame = 24
 1231              		@ frame_needed = 0, uses_anonymous_args = 0
 1232              		@ link register save eliminated.
 1233 0790 86B0     		sub	sp, sp, #24
 1234              		.cfi_def_cfa_offset 24
 1235 0792 0390     		str	r0, [sp, #12]
 1236 0794 0B46     		mov	r3, r1
 1237 0796 0192     		str	r2, [sp, #4]
 1238 0798 8DF80B30 		strb	r3, [sp, #11]
 1239              		.loc 1 728 0
 1240 079c 0023     		movs	r3, #0
 1241 079e 8DF81730 		strb	r3, [sp, #23]
 1242              		.loc 1 731 0
 1243 07a2 039B     		ldr	r3, [sp, #12]
 1244 07a4 93F82430 		ldrb	r3, [r3, #36]	@ zero_extendqisi2
 1245 07a8 012B     		cmp	r3, #1
 1246 07aa 01D1     		bne	.L61
 1247              		.loc 1 731 0 is_stmt 0 discriminator 1
 1248 07ac 0223     		movs	r3, #2
 1249 07ae 37E0     		b	.L62
ARM GAS  /tmp/ccyGh5bb.s 			page 23


 1250              	.L61:
 1251              		.loc 1 731 0 discriminator 2
 1252 07b0 039B     		ldr	r3, [sp, #12]
 1253 07b2 0122     		movs	r2, #1
 1254 07b4 83F82420 		strb	r2, [r3, #36]
 1255              		.loc 1 733 0 is_stmt 1 discriminator 2
 1256 07b8 039B     		ldr	r3, [sp, #12]
 1257 07ba 93F82530 		ldrb	r3, [r3, #37]
 1258 07be DBB2     		uxtb	r3, r3
 1259 07c0 012B     		cmp	r3, #1
 1260 07c2 24D1     		bne	.L63
 1261              		.loc 1 735 0
 1262 07c4 9DF80B30 		ldrb	r3, [sp, #11]	@ zero_extendqisi2
 1263 07c8 032B     		cmp	r3, #3
 1264 07ca 1BD8     		bhi	.L64
 1265 07cc 01A2     		adr	r2, .L66
 1266 07ce 52F823F0 		ldr	pc, [r2, r3, lsl #2]
 1267 07d2 00BF     		.p2align 2
 1268              	.L66:
 1269 07d4 E5070000 		.word	.L65+1
 1270 07d8 ED070000 		.word	.L67+1
 1271 07dc F5070000 		.word	.L68+1
 1272 07e0 FD070000 		.word	.L69+1
 1273              		.p2align 1
 1274              	.L65:
 1275              		.loc 1 738 0
 1276 07e4 039B     		ldr	r3, [sp, #12]
 1277 07e6 019A     		ldr	r2, [sp, #4]
 1278 07e8 DA62     		str	r2, [r3, #44]
 1279              		.loc 1 739 0
 1280 07ea 0FE0     		b	.L70
 1281              	.L67:
 1282              		.loc 1 742 0
 1283 07ec 039B     		ldr	r3, [sp, #12]
 1284 07ee 019A     		ldr	r2, [sp, #4]
 1285 07f0 1A63     		str	r2, [r3, #48]
 1286              		.loc 1 743 0
 1287 07f2 0BE0     		b	.L70
 1288              	.L68:
 1289              		.loc 1 746 0
 1290 07f4 039B     		ldr	r3, [sp, #12]
 1291 07f6 019A     		ldr	r2, [sp, #4]
 1292 07f8 5A63     		str	r2, [r3, #52]
 1293              		.loc 1 747 0
 1294 07fa 07E0     		b	.L70
 1295              	.L69:
 1296              		.loc 1 750 0
 1297 07fc 039B     		ldr	r3, [sp, #12]
 1298 07fe 019A     		ldr	r2, [sp, #4]
 1299 0800 9A63     		str	r2, [r3, #56]
 1300              		.loc 1 751 0
 1301 0802 03E0     		b	.L70
 1302              	.L64:
 1303              		.loc 1 754 0
 1304 0804 0123     		movs	r3, #1
 1305 0806 8DF81730 		strb	r3, [sp, #23]
 1306              		.loc 1 755 0
ARM GAS  /tmp/ccyGh5bb.s 			page 24


 1307 080a 00BF     		nop
 1308              	.L70:
 1309 080c 02E0     		b	.L71
 1310              	.L63:
 1311              		.loc 1 760 0
 1312 080e 0123     		movs	r3, #1
 1313 0810 8DF81730 		strb	r3, [sp, #23]
 1314              	.L71:
 1315              		.loc 1 764 0
 1316 0814 039B     		ldr	r3, [sp, #12]
 1317 0816 0022     		movs	r2, #0
 1318 0818 83F82420 		strb	r2, [r3, #36]
 1319              		.loc 1 766 0
 1320 081c 9DF81730 		ldrb	r3, [sp, #23]	@ zero_extendqisi2
 1321              	.L62:
 1322              		.loc 1 767 0
 1323 0820 1846     		mov	r0, r3
 1324 0822 06B0     		add	sp, sp, #24
 1325              		@ sp needed
 1326 0824 7047     		bx	lr
 1327              		.cfi_endproc
 1328              	.LFE133:
 1329              		.size	HAL_DMA_RegisterCallback, .-HAL_DMA_RegisterCallback
 1330 0826 00BF     		.align	2
 1331 0828 AFF30080 		.p2align 4,,15
 1331      AFF30080 
 1332              		.global	HAL_DMA_UnRegisterCallback
 1333              		.thumb
 1334              		.thumb_func
 1335              		.type	HAL_DMA_UnRegisterCallback, %function
 1336              	HAL_DMA_UnRegisterCallback:
 1337              	.LFB134:
 1338              		.loc 1 778 0
 1339              		.cfi_startproc
 1340              		@ args = 0, pretend = 0, frame = 16
 1341              		@ frame_needed = 0, uses_anonymous_args = 0
 1342              		@ link register save eliminated.
 1343 0830 84B0     		sub	sp, sp, #16
 1344              		.cfi_def_cfa_offset 16
 1345 0832 0190     		str	r0, [sp, #4]
 1346 0834 0B46     		mov	r3, r1
 1347 0836 8DF80330 		strb	r3, [sp, #3]
 1348              		.loc 1 779 0
 1349 083a 0023     		movs	r3, #0
 1350 083c 8DF80F30 		strb	r3, [sp, #15]
 1351              		.loc 1 782 0
 1352 0840 019B     		ldr	r3, [sp, #4]
 1353 0842 93F82430 		ldrb	r3, [r3, #36]	@ zero_extendqisi2
 1354 0846 012B     		cmp	r3, #1
 1355 0848 01D1     		bne	.L73
 1356              		.loc 1 782 0 is_stmt 0 discriminator 1
 1357 084a 0223     		movs	r3, #2
 1358 084c 45E0     		b	.L74
 1359              	.L73:
 1360              		.loc 1 782 0 discriminator 2
 1361 084e 019B     		ldr	r3, [sp, #4]
 1362 0850 0122     		movs	r2, #1
ARM GAS  /tmp/ccyGh5bb.s 			page 25


 1363 0852 83F82420 		strb	r2, [r3, #36]
 1364              		.loc 1 784 0 is_stmt 1 discriminator 2
 1365 0856 019B     		ldr	r3, [sp, #4]
 1366 0858 93F82530 		ldrb	r3, [r3, #37]
 1367 085c DBB2     		uxtb	r3, r3
 1368 085e 012B     		cmp	r3, #1
 1369 0860 32D1     		bne	.L75
 1370              		.loc 1 786 0
 1371 0862 9DF80330 		ldrb	r3, [sp, #3]	@ zero_extendqisi2
 1372 0866 042B     		cmp	r3, #4
 1373 0868 29D8     		bhi	.L76
 1374 086a 01A2     		adr	r2, .L78
 1375 086c 52F823F0 		ldr	pc, [r2, r3, lsl #2]
 1376              		.p2align 2
 1377              	.L78:
 1378 0870 85080000 		.word	.L77+1
 1379 0874 8D080000 		.word	.L79+1
 1380 0878 95080000 		.word	.L80+1
 1381 087c 9D080000 		.word	.L81+1
 1382 0880 A5080000 		.word	.L82+1
 1383              		.p2align 1
 1384              	.L77:
 1385              		.loc 1 789 0
 1386 0884 019B     		ldr	r3, [sp, #4]
 1387 0886 0022     		movs	r2, #0
 1388 0888 DA62     		str	r2, [r3, #44]
 1389              		.loc 1 790 0
 1390 088a 1CE0     		b	.L83
 1391              	.L79:
 1392              		.loc 1 793 0
 1393 088c 019B     		ldr	r3, [sp, #4]
 1394 088e 0022     		movs	r2, #0
 1395 0890 1A63     		str	r2, [r3, #48]
 1396              		.loc 1 794 0
 1397 0892 18E0     		b	.L83
 1398              	.L80:
 1399              		.loc 1 797 0
 1400 0894 019B     		ldr	r3, [sp, #4]
 1401 0896 0022     		movs	r2, #0
 1402 0898 5A63     		str	r2, [r3, #52]
 1403              		.loc 1 798 0
 1404 089a 14E0     		b	.L83
 1405              	.L81:
 1406              		.loc 1 801 0
 1407 089c 019B     		ldr	r3, [sp, #4]
 1408 089e 0022     		movs	r2, #0
 1409 08a0 9A63     		str	r2, [r3, #56]
 1410              		.loc 1 802 0
 1411 08a2 10E0     		b	.L83
 1412              	.L82:
 1413              		.loc 1 805 0
 1414 08a4 019B     		ldr	r3, [sp, #4]
 1415 08a6 0022     		movs	r2, #0
 1416 08a8 DA62     		str	r2, [r3, #44]
 1417              		.loc 1 806 0
 1418 08aa 019B     		ldr	r3, [sp, #4]
 1419 08ac 0022     		movs	r2, #0
ARM GAS  /tmp/ccyGh5bb.s 			page 26


 1420 08ae 1A63     		str	r2, [r3, #48]
 1421              		.loc 1 807 0
 1422 08b0 019B     		ldr	r3, [sp, #4]
 1423 08b2 0022     		movs	r2, #0
 1424 08b4 5A63     		str	r2, [r3, #52]
 1425              		.loc 1 808 0
 1426 08b6 019B     		ldr	r3, [sp, #4]
 1427 08b8 0022     		movs	r2, #0
 1428 08ba 9A63     		str	r2, [r3, #56]
 1429              		.loc 1 809 0
 1430 08bc 03E0     		b	.L83
 1431              	.L76:
 1432              		.loc 1 812 0
 1433 08be 0123     		movs	r3, #1
 1434 08c0 8DF80F30 		strb	r3, [sp, #15]
 1435              		.loc 1 813 0
 1436 08c4 00BF     		nop
 1437              	.L83:
 1438 08c6 02E0     		b	.L84
 1439              	.L75:
 1440              		.loc 1 818 0
 1441 08c8 0123     		movs	r3, #1
 1442 08ca 8DF80F30 		strb	r3, [sp, #15]
 1443              	.L84:
 1444              		.loc 1 822 0
 1445 08ce 019B     		ldr	r3, [sp, #4]
 1446 08d0 0022     		movs	r2, #0
 1447 08d2 83F82420 		strb	r2, [r3, #36]
 1448              		.loc 1 824 0
 1449 08d6 9DF80F30 		ldrb	r3, [sp, #15]	@ zero_extendqisi2
 1450              	.L74:
 1451              		.loc 1 825 0
 1452 08da 1846     		mov	r0, r3
 1453 08dc 04B0     		add	sp, sp, #16
 1454              		@ sp needed
 1455 08de 7047     		bx	lr
 1456              		.cfi_endproc
 1457              	.LFE134:
 1458              		.size	HAL_DMA_UnRegisterCallback, .-HAL_DMA_UnRegisterCallback
 1459              		.align	2
 1460              		.p2align 4,,15
 1461              		.global	HAL_DMA_GetState
 1462              		.thumb
 1463              		.thumb_func
 1464              		.type	HAL_DMA_GetState, %function
 1465              	HAL_DMA_GetState:
 1466              	.LFB135:
 1467              		.loc 1 856 0
 1468              		.cfi_startproc
 1469              		@ args = 0, pretend = 0, frame = 8
 1470              		@ frame_needed = 0, uses_anonymous_args = 0
 1471              		@ link register save eliminated.
 1472 08e0 82B0     		sub	sp, sp, #8
 1473              		.cfi_def_cfa_offset 8
 1474 08e2 0190     		str	r0, [sp, #4]
 1475              		.loc 1 858 0
 1476 08e4 019B     		ldr	r3, [sp, #4]
ARM GAS  /tmp/ccyGh5bb.s 			page 27


 1477 08e6 93F82530 		ldrb	r3, [r3, #37]
 1478 08ea DBB2     		uxtb	r3, r3
 1479              		.loc 1 859 0
 1480 08ec 1846     		mov	r0, r3
 1481 08ee 02B0     		add	sp, sp, #8
 1482              		@ sp needed
 1483 08f0 7047     		bx	lr
 1484              		.cfi_endproc
 1485              	.LFE135:
 1486              		.size	HAL_DMA_GetState, .-HAL_DMA_GetState
 1487 08f2 00BF     		.align	2
 1488 08f4 AFF30080 		.p2align 4,,15
 1488      AFF30080 
 1488      AFF30080 
 1489              		.global	HAL_DMA_GetError
 1490              		.thumb
 1491              		.thumb_func
 1492              		.type	HAL_DMA_GetError, %function
 1493              	HAL_DMA_GetError:
 1494              	.LFB136:
 1495              		.loc 1 868 0
 1496              		.cfi_startproc
 1497              		@ args = 0, pretend = 0, frame = 8
 1498              		@ frame_needed = 0, uses_anonymous_args = 0
 1499              		@ link register save eliminated.
 1500 0900 82B0     		sub	sp, sp, #8
 1501              		.cfi_def_cfa_offset 8
 1502 0902 0190     		str	r0, [sp, #4]
 1503              		.loc 1 869 0
 1504 0904 019B     		ldr	r3, [sp, #4]
 1505 0906 DB6B     		ldr	r3, [r3, #60]
 1506              		.loc 1 870 0
 1507 0908 1846     		mov	r0, r3
 1508 090a 02B0     		add	sp, sp, #8
 1509              		@ sp needed
 1510 090c 7047     		bx	lr
 1511              		.cfi_endproc
 1512              	.LFE136:
 1513              		.size	HAL_DMA_GetError, .-HAL_DMA_GetError
 1514 090e 00BF     		.align	2
 1515              		.p2align 4,,15
 1516              		.thumb
 1517              		.thumb_func
 1518              		.type	DMA_SetConfig, %function
 1519              	DMA_SetConfig:
 1520              	.LFB137:
 1521              		.loc 1 894 0
 1522              		.cfi_startproc
 1523              		@ args = 0, pretend = 0, frame = 16
 1524              		@ frame_needed = 0, uses_anonymous_args = 0
 1525              		@ link register save eliminated.
 1526 0910 84B0     		sub	sp, sp, #16
 1527              		.cfi_def_cfa_offset 16
 1528 0912 0390     		str	r0, [sp, #12]
 1529 0914 0291     		str	r1, [sp, #8]
 1530 0916 0192     		str	r2, [sp, #4]
 1531 0918 0093     		str	r3, [sp]
ARM GAS  /tmp/ccyGh5bb.s 			page 28


 1532              		.loc 1 896 0
 1533 091a 039B     		ldr	r3, [sp, #12]
 1534 091c 1B6C     		ldr	r3, [r3, #64]
 1535 091e 039A     		ldr	r2, [sp, #12]
 1536 0920 126C     		ldr	r2, [r2, #64]
 1537 0922 5168     		ldr	r1, [r2, #4]
 1538 0924 039A     		ldr	r2, [sp, #12]
 1539 0926 526C     		ldr	r2, [r2, #68]
 1540 0928 0120     		movs	r0, #1
 1541 092a 00FA02F2 		lsl	r2, r0, r2
 1542 092e 0A43     		orrs	r2, r2, r1
 1543 0930 5A60     		str	r2, [r3, #4]
 1544              		.loc 1 899 0
 1545 0932 039B     		ldr	r3, [sp, #12]
 1546 0934 1B68     		ldr	r3, [r3]
 1547 0936 009A     		ldr	r2, [sp]
 1548 0938 5A60     		str	r2, [r3, #4]
 1549              		.loc 1 902 0
 1550 093a 039B     		ldr	r3, [sp, #12]
 1551 093c 9B68     		ldr	r3, [r3, #8]
 1552 093e 102B     		cmp	r3, #16
 1553 0940 08D1     		bne	.L90
 1554              		.loc 1 905 0
 1555 0942 039B     		ldr	r3, [sp, #12]
 1556 0944 1B68     		ldr	r3, [r3]
 1557 0946 019A     		ldr	r2, [sp, #4]
 1558 0948 9A60     		str	r2, [r3, #8]
 1559              		.loc 1 908 0
 1560 094a 039B     		ldr	r3, [sp, #12]
 1561 094c 1B68     		ldr	r3, [r3]
 1562 094e 029A     		ldr	r2, [sp, #8]
 1563 0950 DA60     		str	r2, [r3, #12]
 1564 0952 07E0     		b	.L89
 1565              	.L90:
 1566              		.loc 1 914 0
 1567 0954 039B     		ldr	r3, [sp, #12]
 1568 0956 1B68     		ldr	r3, [r3]
 1569 0958 029A     		ldr	r2, [sp, #8]
 1570 095a 9A60     		str	r2, [r3, #8]
 1571              		.loc 1 917 0
 1572 095c 039B     		ldr	r3, [sp, #12]
 1573 095e 1B68     		ldr	r3, [r3]
 1574 0960 019A     		ldr	r2, [sp, #4]
 1575 0962 DA60     		str	r2, [r3, #12]
 1576              	.L89:
 1577              		.loc 1 919 0
 1578 0964 04B0     		add	sp, sp, #16
 1579              		@ sp needed
 1580 0966 7047     		bx	lr
 1581              		.cfi_endproc
 1582              	.LFE137:
 1583              		.size	DMA_SetConfig, .-DMA_SetConfig
 1584              	.Letext0:
 1585              		.file 2 "/nfs/nfs5/home/research/hardware/arm2/gcc-arm-embedded/gcc-arm-none-eabi-4_8-2014q2/arm-n
 1586              		.file 3 "/nfs/nfs5/home/research/hardware/arm2/gcc-arm-embedded/gcc-arm-none-eabi-4_8-2014q2/arm-n
 1587              		.file 4 "../../../../../../ChibiOS/os/ext/CMSIS/ST/STM32L4xx/stm32l476xx.h"
 1588              		.file 5 "../../../../../../ChibiOS/os/ext/CMSIS/ST/STM32L4xx/stm32l4xx.h"
ARM GAS  /tmp/ccyGh5bb.s 			page 29


 1589              		.file 6 "../../../../../Drivers/STM32L4xx_HAL_Driver/Inc/stm32l4xx_hal_def.h"
 1590              		.file 7 "../../../../../Drivers/STM32L4xx_HAL_Driver/Inc/stm32l4xx_hal_dma.h"
 1591              		.file 8 "../../../../../../ChibiOS/os/ext/CMSIS/include/core_cm4.h"